ARM GAS  /tmp/ccDXbECY.s 			page 1


   1              		.cpu cortex-m4
   2              		.eabi_attribute 27, 1
   3              		.eabi_attribute 28, 1
   4              		.eabi_attribute 20, 1
   5              		.eabi_attribute 21, 1
   6              		.eabi_attribute 23, 3
   7              		.eabi_attribute 24, 1
   8              		.eabi_attribute 25, 1
   9              		.eabi_attribute 26, 1
  10              		.eabi_attribute 30, 2
  11              		.eabi_attribute 34, 1
  12              		.eabi_attribute 18, 4
  13              		.file	"app.c"
  14              		.text
  15              	.Ltext0:
  16              		.cfi_sections	.debug_frame
  17              		.section	.text.output_vt_cb,"ax",%progbits
  18              		.align	1
  19              		.p2align 4,,15
  20              		.syntax unified
  21              		.thumb
  22              		.thumb_func
  23              		.fpu fpv4-sp-d16
  24              		.type	output_vt_cb, %function
  25              	output_vt_cb:
  26              	.LFB260:
  27              		.file 1 "applications/app.c"
  28              		.loc 1 194 0
  29              		.cfi_startproc
  30              		@ args = 0, pretend = 0, frame = 0
  31              		@ frame_needed = 0, uses_anonymous_args = 0
  32              		@ link register save eliminated.
  33              	.LVL0:
  34              		.loc 1 196 0
  35 0000 014B     		ldr	r3, .L3
  36 0002 0022     		movs	r2, #0
  37 0004 1A70     		strb	r2, [r3]
  38              		.loc 1 197 0
  39 0006 7047     		bx	lr
  40              	.L4:
  41              		.align	2
  42              	.L3:
  43 0008 00000000 		.word	.LANCHOR0
  44              		.cfi_endproc
  45              	.LFE260:
  46              		.size	output_vt_cb, .-output_vt_cb
  47              		.section	.text.app_get_configuration,"ax",%progbits
  48              		.align	1
  49              		.p2align 4,,15
  50              		.global	app_get_configuration
  51              		.syntax unified
  52              		.thumb
  53              		.thumb_func
  54              		.fpu fpv4-sp-d16
  55              		.type	app_get_configuration, %function
  56              	app_get_configuration:
  57              	.LFB256:
ARM GAS  /tmp/ccDXbECY.s 			page 2


  58              		.loc 1 40 0
  59              		.cfi_startproc
  60              		@ args = 0, pretend = 0, frame = 0
  61              		@ frame_needed = 0, uses_anonymous_args = 0
  62              		@ link register save eliminated.
  63              		.loc 1 42 0
  64 0000 0048     		ldr	r0, .L6
  65 0002 7047     		bx	lr
  66              	.L7:
  67              		.align	2
  68              	.L6:
  69 0004 00000000 		.word	.LANCHOR1
  70              		.cfi_endproc
  71              	.LFE256:
  72              		.size	app_get_configuration, .-app_get_configuration
  73              		.section	.text.app_set_configuration,"ax",%progbits
  74              		.align	1
  75              		.p2align 4,,15
  76              		.global	app_set_configuration
  77              		.syntax unified
  78              		.thumb
  79              		.thumb_func
  80              		.fpu fpv4-sp-d16
  81              		.type	app_set_configuration, %function
  82              	app_set_configuration:
  83              	.LFB257:
  84              		.loc 1 50 0
  85              		.cfi_startproc
  86              		@ args = 0, pretend = 0, frame = 0
  87              		@ frame_needed = 0, uses_anonymous_args = 0
  88              	.LVL1:
  89 0000 70B5     		push	{r4, r5, r6, lr}
  90              		.cfi_def_cfa_offset 16
  91              		.cfi_offset 4, -16
  92              		.cfi_offset 5, -12
  93              		.cfi_offset 6, -8
  94              		.cfi_offset 14, -4
  95              		.loc 1 51 0
  96 0002 0146     		mov	r1, r0
  97 0004 4FF40E72 		mov	r2, #568
  98              		.loc 1 50 0
  99 0008 0546     		mov	r5, r0
 100              		.loc 1 60 0
 101 000a 4A4E     		ldr	r6, .L39
 102              		.loc 1 51 0
 103 000c 4A48     		ldr	r0, .L39+4
 104              	.LVL2:
 105 000e FFF7FEFF 		bl	memcpy
 106              	.LVL3:
 107              		.loc 1 53 0
 108 0012 FFF7FEFF 		bl	app_ppm_stop
 109              	.LVL4:
 110              		.loc 1 54 0
 111 0016 FFF7FEFF 		bl	app_adc_stop
 112              	.LVL5:
 113              		.loc 1 55 0
 114 001a 0020     		movs	r0, #0
ARM GAS  /tmp/ccDXbECY.s 			page 3


 115 001c FFF7FEFF 		bl	app_uartcomm_stop
 116              	.LVL6:
 117              		.loc 1 56 0
 118 0020 FFF7FEFF 		bl	app_nunchuk_stop
 119              	.LVL7:
 120              		.loc 1 57 0
 121 0024 FFF7FEFF 		bl	app_balance_stop
 122              	.LVL8:
 123              		.loc 1 58 0
 124 0028 FFF7FEFF 		bl	app_pas_stop
 125              	.LVL9:
 126              		.loc 1 60 0
 127 002c 3378     		ldrb	r3, [r6]	@ zero_extendqisi2
 128 002e 002B     		cmp	r3, #0
 129 0030 42D0     		beq	.L37
 130              	.L9:
 131              		.loc 1 65 0
 132 0032 287D     		ldrb	r0, [r5, #20]	@ zero_extendqisi2
 133              		.loc 1 74 0
 134 0034 404C     		ldr	r4, .L39+4
 135              		.loc 1 65 0
 136 0036 FFF7FEFF 		bl	comm_can_set_baud
 137              	.LVL10:
 138              		.loc 1 72 0
 139 003a 05F5FC70 		add	r0, r5, #504
 140 003e FFF7FEFF 		bl	imu_init
 141              	.LVL11:
 142              		.loc 1 74 0
 143 0042 94F82430 		ldrb	r3, [r4, #36]	@ zero_extendqisi2
 144 0046 012B     		cmp	r3, #1
 145 0048 04D0     		beq	.L10
 146              		.loc 1 74 0 is_stmt 0 discriminator 1
 147 004a 042B     		cmp	r3, #4
 148 004c 02D0     		beq	.L10
 149              		.loc 1 75 0 is_stmt 1
 150 004e 237E     		ldrb	r3, [r4, #24]	@ zero_extendqisi2
 151 0050 002B     		cmp	r3, #0
 152 0052 34D1     		bne	.L38
 153              	.L10:
 154              		.loc 1 79 0
 155 0054 FFF7FEFF 		bl	servo_simple_stop
 156              	.LVL12:
 157              	.L11:
 158              		.loc 1 83 0
 159 0058 3849     		ldr	r1, .L39+8
 160 005a A1F58470 		sub	r0, r1, #264
 161 005e FFF7FEFF 		bl	app_balance_configure
 162              	.LVL13:
 163              		.loc 1 85 0
 164 0062 94F82430 		ldrb	r3, [r4, #36]	@ zero_extendqisi2
 165 0066 013B     		subs	r3, r3, #1
 166 0068 0A2B     		cmp	r3, #10
 167 006a 09D8     		bhi	.L12
 168 006c DFE803F0 		tbb	[pc, r3]
 169              	.L14:
 170 0070 06       		.byte	(.L13-.L14)/2
 171 0071 42       		.byte	(.L15-.L14)/2
ARM GAS  /tmp/ccDXbECY.s 			page 4


 172 0072 30       		.byte	(.L36-.L14)/2
 173 0073 3A       		.byte	(.L17-.L14)/2
 174 0074 46       		.byte	(.L18-.L14)/2
 175 0075 4F       		.byte	(.L19-.L14)/2
 176 0076 52       		.byte	(.L20-.L14)/2
 177 0077 08       		.byte	(.L12-.L14)/2
 178 0078 2A       		.byte	(.L21-.L14)/2
 179 0079 36       		.byte	(.L22-.L14)/2
 180 007a 5A       		.byte	(.L23-.L14)/2
 181 007b 00       		.p2align 1
 182              	.L13:
 183              		.loc 1 87 0
 184 007c FFF7FEFF 		bl	app_ppm_start
 185              	.LVL14:
 186              	.L12:
 187              		.loc 1 150 0
 188 0080 2F48     		ldr	r0, .L39+12
 189 0082 FFF7FEFF 		bl	app_ppm_configure
 190              	.LVL15:
 191              		.loc 1 151 0
 192 0086 2F48     		ldr	r0, .L39+16
 193 0088 FFF7FEFF 		bl	app_adc_configure
 194              	.LVL16:
 195              		.loc 1 152 0
 196 008c 2E48     		ldr	r0, .L39+20
 197 008e FFF7FEFF 		bl	app_pas_configure
 198              	.LVL17:
 199              		.loc 1 153 0
 200 0092 D4F8B000 		ldr	r0, [r4, #176]
 201 0096 0022     		movs	r2, #0
 202 0098 0121     		movs	r1, #1
 203 009a FFF7FEFF 		bl	app_uartcomm_configure
 204              	.LVL18:
 205              		.loc 1 154 0
 206 009e A17D     		ldrb	r1, [r4, #22]	@ zero_extendqisi2
 207 00a0 0122     		movs	r2, #1
 208 00a2 0020     		movs	r0, #0
 209 00a4 FFF7FEFF 		bl	app_uartcomm_configure
 210              	.LVL19:
 211              		.loc 1 155 0
 212 00a8 2848     		ldr	r0, .L39+24
 213 00aa FFF7FEFF 		bl	app_nunchuk_configure
 214              	.LVL20:
 215              		.loc 1 161 0
 216 00ae 2848     		ldr	r0, .L39+28
 217              		.loc 1 162 0
 218 00b0 BDE87040 		pop	{r4, r5, r6, lr}
 219              		.cfi_remember_state
 220              		.cfi_restore 14
 221              		.cfi_restore 6
 222              		.cfi_restore 5
 223              		.cfi_restore 4
 224              		.cfi_def_cfa_offset 0
 225              	.LVL21:
 226              		.loc 1 161 0
 227 00b4 FFF7FEBF 		b	rfhelp_update_conf
 228              	.LVL22:
ARM GAS  /tmp/ccDXbECY.s 			page 5


 229              	.L37:
 230              		.cfi_restore_state
 231              		.loc 1 61 0
 232 00b8 FFF7FEFF 		bl	nrf_driver_stop
 233              	.LVL23:
 234 00bc B9E7     		b	.L9
 235              	.L38:
 236              		.loc 1 77 0
 237 00be FFF7FEFF 		bl	servo_simple_init
 238              	.LVL24:
 239 00c2 C9E7     		b	.L11
 240              	.L21:
 241              		.loc 1 116 0
 242 00c4 FFF7FEFF 		bl	app_balance_start
 243              	.LVL25:
 244              		.loc 1 117 0
 245 00c8 94F8F831 		ldrb	r3, [r4, #504]	@ zero_extendqisi2
 246 00cc 012B     		cmp	r3, #1
 247 00ce D7D1     		bne	.L12
 248              	.L36:
 249              		.loc 1 118 0
 250 00d0 FFF7FEFF 		bl	hw_stop_i2c
 251              	.LVL26:
 252              		.loc 1 119 0
 253 00d4 0020     		movs	r0, #0
 254 00d6 FFF7FEFF 		bl	app_uartcomm_start
 255              	.LVL27:
 256 00da D1E7     		b	.L12
 257              	.L22:
 258              		.loc 1 124 0
 259 00dc 0120     		movs	r0, #1
 260 00de FFF7FEFF 		bl	app_pas_start
 261              	.LVL28:
 262              		.loc 1 125 0
 263 00e2 CDE7     		b	.L12
 264              	.L17:
 265              		.loc 1 100 0
 266 00e4 FFF7FEFF 		bl	hw_stop_i2c
 267              	.LVL29:
 268              		.loc 1 101 0
 269 00e8 FFF7FEFF 		bl	app_ppm_start
 270              	.LVL30:
 271              		.loc 1 102 0
 272 00ec 0020     		movs	r0, #0
 273 00ee FFF7FEFF 		bl	app_uartcomm_start
 274              	.LVL31:
 275              		.loc 1 103 0
 276 00f2 C5E7     		b	.L12
 277              	.L15:
 278              		.loc 1 91 0
 279 00f4 0120     		movs	r0, #1
 280 00f6 FFF7FEFF 		bl	app_adc_start
 281              	.LVL32:
 282              		.loc 1 92 0
 283 00fa C1E7     		b	.L12
 284              	.L18:
 285              		.loc 1 106 0
ARM GAS  /tmp/ccDXbECY.s 			page 6


 286 00fc FFF7FEFF 		bl	hw_stop_i2c
 287              	.LVL33:
 288              		.loc 1 107 0
 289 0100 0020     		movs	r0, #0
 290 0102 FFF7FEFF 		bl	app_adc_start
 291              	.LVL34:
 292              		.loc 1 108 0
 293 0106 0020     		movs	r0, #0
 294 0108 FFF7FEFF 		bl	app_uartcomm_start
 295              	.LVL35:
 296              		.loc 1 109 0
 297 010c B8E7     		b	.L12
 298              	.L19:
 299              		.loc 1 112 0
 300 010e FFF7FEFF 		bl	app_nunchuk_start
 301              	.LVL36:
 302              		.loc 1 113 0
 303 0112 B5E7     		b	.L12
 304              	.L20:
 305              		.loc 1 133 0
 306 0114 3378     		ldrb	r3, [r6]	@ zero_extendqisi2
 307 0116 002B     		cmp	r3, #0
 308 0118 B2D1     		bne	.L12
 309              		.loc 1 134 0
 310 011a FFF7FEFF 		bl	nrf_driver_init
 311              	.LVL37:
 312              		.loc 1 135 0
 313 011e FFF7FEFF 		bl	rfhelp_restart
 314              	.LVL38:
 315 0122 ADE7     		b	.L12
 316              	.L23:
 317              		.loc 1 128 0
 318 0124 0020     		movs	r0, #0
 319 0126 FFF7FEFF 		bl	app_adc_start
 320              	.LVL39:
 321              		.loc 1 129 0
 322 012a 0020     		movs	r0, #0
 323 012c FFF7FEFF 		bl	app_pas_start
 324              	.LVL40:
 325              		.loc 1 130 0
 326 0130 A6E7     		b	.L12
 327              	.L40:
 328 0132 00BF     		.align	2
 329              	.L39:
 330 0134 00000000 		.word	conf_general_permanent_nrf_found
 331 0138 00000000 		.word	.LANCHOR1
 332 013c F8010000 		.word	.LANCHOR1+504
 333 0140 28000000 		.word	.LANCHOR1+40
 334 0144 6C000000 		.word	.LANCHOR1+108
 335 0148 D8010000 		.word	.LANCHOR1+472
 336 014c B4000000 		.word	.LANCHOR1+180
 337 0150 E4000000 		.word	.LANCHOR1+228
 338              		.cfi_endproc
 339              	.LFE257:
 340              		.size	app_set_configuration, .-app_set_configuration
 341              		.section	.text.app_disable_output,"ax",%progbits
 342              		.align	1
ARM GAS  /tmp/ccDXbECY.s 			page 7


 343              		.p2align 4,,15
 344              		.global	app_disable_output
 345              		.syntax unified
 346              		.thumb
 347              		.thumb_func
 348              		.fpu fpv4-sp-d16
 349              		.type	app_disable_output, %function
 350              	app_disable_output:
 351              	.LFB258:
 352              		.loc 1 173 0
 353              		.cfi_startproc
 354              		@ args = 0, pretend = 0, frame = 0
 355              		@ frame_needed = 0, uses_anonymous_args = 0
 356              	.LVL41:
 357              		.loc 1 174 0
 358 0000 194B     		ldr	r3, .L57
 359 0002 1A78     		ldrb	r2, [r3]	@ zero_extendqisi2
 360              		.loc 1 173 0
 361 0004 10B5     		push	{r4, lr}
 362              		.cfi_def_cfa_offset 8
 363              		.cfi_offset 4, -8
 364              		.cfi_offset 14, -4
 365              		.loc 1 174 0
 366 0006 1AB9     		cbnz	r2, .L42
 367              	.LVL42:
 368              	.LBB97:
 369              	.LBB98:
 370              		.file 2 "ChibiOS_3.0.5/os/rt/include/chvt.h"
 371              		.loc 2 212 0
 372 0008 184C     		ldr	r4, .L57+4
 373              	.LBE98:
 374              	.LBE97:
 375              		.loc 1 176 0
 376 000a 0121     		movs	r1, #1
 377              	.LBB100:
 378              	.LBB99:
 379              		.loc 2 212 0
 380 000c E260     		str	r2, [r4, #12]
 381              	.LBE99:
 382              	.LBE100:
 383              		.loc 1 176 0
 384 000e 1970     		strb	r1, [r3]
 385              	.LVL43:
 386              	.L42:
 387              		.loc 1 179 0
 388 0010 38B3     		cbz	r0, .L56
 389              		.loc 1 181 0
 390 0012 431C     		adds	r3, r0, #1
 391 0014 0AD1     		bne	.L45
 392              		.loc 1 182 0
 393 0016 164B     		ldr	r3, .L57+8
 394 0018 0122     		movs	r2, #1
 395 001a 1A70     		strb	r2, [r3]
 396              	.LVL44:
 397              	.LBB101:
 398              	.LBB102:
 399              	.LBB103:
ARM GAS  /tmp/ccDXbECY.s 			page 8


 400              	.LBB104:
 401              	.LBB105:
 402              		.file 3 "ChibiOS_3.0.5/os/ext/CMSIS/include/core_cmFunc.h"
 403              		.loc 3 342 0
 404              		.syntax unified
 405              	@ 342 "ChibiOS_3.0.5/os/ext/CMSIS/include/core_cmFunc.h" 1
 406 001c 72B6     		cpsid i
 407              	@ 0 "" 2
 408              	.LVL45:
 409              		.thumb
 410              		.syntax unified
 411              	.LBE105:
 412              	.LBE104:
 413              	.LBE103:
 414              	.LBE102:
 415              	.LBB106:
 416              	.LBB107:
 417              		.loc 2 376 0
 418 001e 1348     		ldr	r0, .L57+4
 419              	.LVL46:
 420 0020 C368     		ldr	r3, [r0, #12]
 421 0022 0BB1     		cbz	r3, .L55
 422              		.loc 2 377 0
 423 0024 FFF7FEFF 		bl	chVTDoResetI
 424              	.LVL47:
 425              	.L55:
 426              	.LBE107:
 427              	.LBE106:
 428              	.LBE101:
 429              	.LBB108:
 430              	.LBB109:
 431              	.LBB110:
 432              	.LBB111:
 433              	.LBB112:
 434              	.LBB113:
 435              		.loc 3 331 0
 436              		.syntax unified
 437              	@ 331 "ChibiOS_3.0.5/os/ext/CMSIS/include/core_cmFunc.h" 1
 438 0028 62B6     		cpsie i
 439              	@ 0 "" 2
 440              	.LVL48:
 441              		.thumb
 442              		.syntax unified
 443              	.L41:
 444              	.LBE113:
 445              	.LBE112:
 446              	.LBE111:
 447              	.LBE110:
 448              	.LBE109:
 449              	.LBE108:
 450              		.loc 1 188 0
 451 002a 10BD     		pop	{r4, pc}
 452              	.LVL49:
 453              	.L45:
 454              		.loc 1 186 0
 455 002c 42F21074 		movw	r4, #10000
 456 0030 04FB00F0 		mul	r0, r4, r0
ARM GAS  /tmp/ccDXbECY.s 			page 9


 457              	.LVL50:
 458 0034 0F49     		ldr	r1, .L57+12
 459              		.loc 1 185 0
 460 0036 0E4B     		ldr	r3, .L57+8
 461              	.LVL51:
 462              		.loc 1 186 0
 463 0038 00F2E734 		addw	r4, r0, #999
 464 003c A1FB0424 		umull	r2, r4, r1, r4
 465              		.loc 1 185 0
 466 0040 0122     		movs	r2, #1
 467              		.loc 1 186 0
 468 0042 A409     		lsrs	r4, r4, #6
 469              	.LVL52:
 470              		.loc 1 185 0
 471 0044 1A70     		strb	r2, [r3]
 472              	.LBB127:
 473              	.LBB118:
 474              	.LBB119:
 475              	.LBB120:
 476              	.LBB121:
 477              		.loc 3 342 0
 478              		.syntax unified
 479              	@ 342 "ChibiOS_3.0.5/os/ext/CMSIS/include/core_cmFunc.h" 1
 480 0046 72B6     		cpsid i
 481              	@ 0 "" 2
 482              	.LVL53:
 483              		.thumb
 484              		.syntax unified
 485              	.LBE121:
 486              	.LBE120:
 487              	.LBE119:
 488              	.LBE118:
 489              	.LBB122:
 490              	.LBB123:
 491              	.LBB124:
 492              	.LBB125:
 493              		.loc 2 376 0
 494 0048 0848     		ldr	r0, .L57+4
 495 004a C368     		ldr	r3, [r0, #12]
 496 004c 0BB1     		cbz	r3, .L47
 497              		.loc 2 377 0
 498 004e FFF7FEFF 		bl	chVTDoResetI
 499              	.LVL54:
 500              	.L47:
 501              	.LBE125:
 502              	.LBE124:
 503              		.loc 2 424 0
 504 0052 2146     		mov	r1, r4
 505 0054 0023     		movs	r3, #0
 506 0056 084A     		ldr	r2, .L57+16
 507 0058 0448     		ldr	r0, .L57+4
 508 005a FFF7FEFF 		bl	chVTDoSetI
 509              	.LVL55:
 510              	.LBE123:
 511              	.LBE122:
 512              	.LBB126:
 513              	.LBB117:
ARM GAS  /tmp/ccDXbECY.s 			page 10


 514              	.LBB116:
 515              	.LBB115:
 516              	.LBB114:
 517              		.loc 3 331 0
 518              		.syntax unified
 519              	@ 331 "ChibiOS_3.0.5/os/ext/CMSIS/include/core_cmFunc.h" 1
 520 005e 62B6     		cpsie i
 521              	@ 0 "" 2
 522              		.thumb
 523              		.syntax unified
 524 0060 E3E7     		b	.L41
 525              	.LVL56:
 526              	.L56:
 527              	.LBE114:
 528              	.LBE115:
 529              	.LBE116:
 530              	.LBE117:
 531              	.LBE126:
 532              	.LBE127:
 533              		.loc 1 180 0
 534 0062 034B     		ldr	r3, .L57+8
 535 0064 1870     		strb	r0, [r3]
 536              		.loc 1 188 0
 537 0066 10BD     		pop	{r4, pc}
 538              	.L58:
 539              		.align	2
 540              	.L57:
 541 0068 00000000 		.word	.LANCHOR2
 542 006c 00000000 		.word	.LANCHOR3
 543 0070 00000000 		.word	.LANCHOR0
 544 0074 D34D6210 		.word	274877907
 545 0078 00000000 		.word	output_vt_cb
 546              		.cfi_endproc
 547              	.LFE258:
 548              		.size	app_disable_output, .-app_disable_output
 549              		.section	.text.app_is_output_disabled,"ax",%progbits
 550              		.align	1
 551              		.p2align 4,,15
 552              		.global	app_is_output_disabled
 553              		.syntax unified
 554              		.thumb
 555              		.thumb_func
 556              		.fpu fpv4-sp-d16
 557              		.type	app_is_output_disabled, %function
 558              	app_is_output_disabled:
 559              	.LFB259:
 560              		.loc 1 190 0
 561              		.cfi_startproc
 562              		@ args = 0, pretend = 0, frame = 0
 563              		@ frame_needed = 0, uses_anonymous_args = 0
 564              		@ link register save eliminated.
 565              		.loc 1 191 0
 566 0000 014B     		ldr	r3, .L60
 567 0002 1878     		ldrb	r0, [r3]	@ zero_extendqisi2
 568              		.loc 1 192 0
 569 0004 7047     		bx	lr
 570              	.L61:
ARM GAS  /tmp/ccDXbECY.s 			page 11


 571 0006 00BF     		.align	2
 572              	.L60:
 573 0008 00000000 		.word	.LANCHOR0
 574              		.cfi_endproc
 575              	.LFE259:
 576              		.size	app_is_output_disabled, .-app_is_output_disabled
 577              		.section	.text.app_calc_crc,"ax",%progbits
 578              		.align	1
 579              		.p2align 4,,15
 580              		.global	app_calc_crc
 581              		.syntax unified
 582              		.thumb
 583              		.thumb_func
 584              		.fpu fpv4-sp-d16
 585              		.type	app_calc_crc, %function
 586              	app_calc_crc:
 587              	.LFB261:
 588              		.loc 1 208 0
 589              		.cfi_startproc
 590              		@ args = 0, pretend = 0, frame = 0
 591              		@ frame_needed = 0, uses_anonymous_args = 0
 592              	.LVL57:
 593 0000 38B5     		push	{r3, r4, r5, lr}
 594              		.cfi_def_cfa_offset 16
 595              		.cfi_offset 3, -16
 596              		.cfi_offset 4, -12
 597              		.cfi_offset 5, -8
 598              		.cfi_offset 14, -4
 599              		.loc 1 210 0
 600 0002 084C     		ldr	r4, .L65
 601 0004 0028     		cmp	r0, #0
 602 0006 18BF     		it	ne
 603 0008 0446     		movne	r4, r0
 604              	.LVL58:
 605              		.loc 1 213 0
 606 000a 0023     		movs	r3, #0
 607              		.loc 1 212 0
 608 000c B4F83452 		ldrh	r5, [r4, #564]
 609              	.LVL59:
 610              		.loc 1 213 0
 611 0010 A4F83432 		strh	r3, [r4, #564]	@ movhi
 612              		.loc 1 214 0
 613 0014 2046     		mov	r0, r4
 614 0016 4FF40E71 		mov	r1, #568
 615 001a FFF7FEFF 		bl	crc16
 616              	.LVL60:
 617              		.loc 1 215 0
 618 001e A4F83452 		strh	r5, [r4, #564]	@ movhi
 619              		.loc 1 217 0
 620 0022 38BD     		pop	{r3, r4, r5, pc}
 621              	.LVL61:
 622              	.L66:
 623              		.align	2
 624              	.L65:
 625 0024 00000000 		.word	.LANCHOR1
 626              		.cfi_endproc
 627              	.LFE261:
ARM GAS  /tmp/ccDXbECY.s 			page 12


 628              		.size	app_calc_crc, .-app_calc_crc
 629              		.section	.bss.appconf,"aw",%nobits
 630              		.align	2
 631              		.set	.LANCHOR1,. + 0
 632              		.type	appconf, %object
 633              		.size	appconf, 568
 634              	appconf:
 635 0000 00000000 		.space	568
 635      00000000 
 635      00000000 
 635      00000000 
 635      00000000 
 636              		.section	.bss.output_disabled_now,"aw",%nobits
 637              		.set	.LANCHOR0,. + 0
 638              		.type	output_disabled_now, %object
 639              		.size	output_disabled_now, 1
 640              	output_disabled_now:
 641 0000 00       		.space	1
 642              		.section	.bss.output_vt,"aw",%nobits
 643              		.align	2
 644              		.set	.LANCHOR3,. + 0
 645              		.type	output_vt, %object
 646              		.size	output_vt, 20
 647              	output_vt:
 648 0000 00000000 		.space	20
 648      00000000 
 648      00000000 
 648      00000000 
 648      00000000 
 649              		.section	.bss.output_vt_init_done,"aw",%nobits
 650              		.set	.LANCHOR2,. + 0
 651              		.type	output_vt_init_done, %object
 652              		.size	output_vt_init_done, 1
 653              	output_vt_init_done:
 654 0000 00       		.space	1
 655              		.text
 656              	.Letext0:
 657              		.file 4 "/usr/arm-none-eabi/include/machine/_default_types.h"
 658              		.file 5 "/usr/arm-none-eabi/include/sys/_stdint.h"
 659              		.file 6 "/usr/lib/gcc/arm-none-eabi/7.3.1/include/stddef.h"
 660              		.file 7 "ChibiOS_3.0.5/os/rt/ports/ARMCMx/compilers/GCC/chtypes.h"
 661              		.file 8 "ChibiOS_3.0.5/os/rt/include/chsystypes.h"
 662              		.file 9 "ChibiOS_3.0.5/os/rt/include/chschd.h"
 663              		.file 10 "ChibiOS_3.0.5/os/ext/CMSIS/include/core_cm4.h"
 664              		.file 11 "ChibiOS_3.0.5/os/ext/CMSIS/ST/system_stm32f4xx.h"
 665              		.file 12 "ChibiOS_3.0.5/os/ext/CMSIS/ST/stm32f407xx.h"
 666              		.file 13 "ChibiOS_3.0.5/os/rt/ports/ARMCMx/chcore.h"
 667              		.file 14 "ChibiOS_3.0.5/os/rt/ports/ARMCMx/chcore_v7m.h"
 668              		.file 15 "ChibiOS_3.0.5/os/rt/include/chtm.h"
 669              		.file 16 "ChibiOS_3.0.5/os/rt/include/chsem.h"
 670              		.file 17 "ChibiOS_3.0.5/os/rt/include/chmtx.h"
 671              		.file 18 "ChibiOS_3.0.5/os/rt/include/chregistry.h"
 672              		.file 19 "ChibiOS_3.0.5/os/rt/include/chevents.h"
 673              		.file 20 "ChibiOS_3.0.5/os/rt/include/chqueues.h"
 674              		.file 21 "./datatypes.h"
 675              		.file 22 "./conf_general.h"
 676              		.file 23 "applications/app.h"
ARM GAS  /tmp/ccDXbECY.s 			page 13


 677              		.file 24 "ChibiOS_3.0.5/os/hal/ports/STM32/STM32F4xx/stm32_dma.h"
 678              		.file 25 "ChibiOS_3.0.5/os/hal/ports/STM32/LLD/GPIOv2/pal_lld.h"
 679              		.file 26 "ChibiOS_3.0.5/os/hal/include/can.h"
 680              		.file 27 "ChibiOS_3.0.5/os/hal/ports/STM32/LLD/can_lld.h"
 681              		.file 28 "ChibiOS_3.0.5/os/hal/include/i2c.h"
 682              		.file 29 "ChibiOS_3.0.5/os/hal/ports/STM32/LLD/I2Cv1/i2c_lld.h"
 683              		.file 30 "ChibiOS_3.0.5/os/hal/include/icu.h"
 684              		.file 31 "ChibiOS_3.0.5/os/hal/ports/STM32/LLD/TIMv1/icu_lld.h"
 685              		.file 32 "ChibiOS_3.0.5/os/hal/ports/STM32/LLD/TIMv1/stm32_tim.h"
 686              		.file 33 "ChibiOS_3.0.5/os/hal/include/serial.h"
 687              		.file 34 "ChibiOS_3.0.5/os/hal/ports/STM32/LLD/USARTv1/serial_lld.h"
 688              		.file 35 "ChibiOS_3.0.5/os/hal/include/spi.h"
 689              		.file 36 "ChibiOS_3.0.5/os/hal/ports/STM32/LLD/SPIv1/spi_lld.h"
 690              		.file 37 "ChibiOS_3.0.5/os/hal/include/usb.h"
 691              		.file 38 "ChibiOS_3.0.5/os/hal/ports/STM32/LLD/OTGv1/usb_lld.h"
 692              		.file 39 "ChibiOS_3.0.5/os/hal/ports/STM32/LLD/OTGv1/stm32_otg.h"
 693              		.file 40 "ChibiOS_3.0.5/os/rt/include/chsys.h"
 694              		.file 41 "./crc.h"
 695              		.file 42 "./comm_can.h"
 696              		.file 43 "imu/imu.h"
 697              		.file 44 "./servo_simple.h"
 698              		.file 45 "nrf/rfhelp.h"
 699              		.file 46 "nrf/nrf_driver.h"
 700              		.file 47 "hwconf/hw.h"
 701              		.file 48 "<built-in>"