ARM GAS  /tmp/cc9rFHkM.s 			page 1


   1              		.cpu cortex-m4
   2              		.eabi_attribute 27, 1
   3              		.eabi_attribute 28, 1
   4              		.eabi_attribute 20, 1
   5              		.eabi_attribute 21, 1
   6              		.eabi_attribute 23, 3
   7              		.eabi_attribute 24, 1
   8              		.eabi_attribute 25, 1
   9              		.eabi_attribute 26, 1
  10              		.eabi_attribute 30, 2
  11              		.eabi_attribute 34, 1
  12              		.eabi_attribute 18, 4
  13              		.file	"app_nunchuk.c"
  14              		.text
  15              	.Ltext0:
  16              		.cfi_sections	.debug_frame
  17              		.section	.text.terminal_cmd_nunchuk_status,"ax",%progbits
  18              		.align	1
  19              		.p2align 4,,15
  20              		.syntax unified
  21              		.thumb
  22              		.thumb_func
  23              		.fpu fpv4-sp-d16
  24              		.type	terminal_cmd_nunchuk_status, %function
  25              	terminal_cmd_nunchuk_status:
  26              	.LFB263:
  27              		.file 1 "applications/app_nunchuk.c"
  28              		.loc 1 517 0
  29              		.cfi_startproc
  30              		@ args = 0, pretend = 0, frame = 0
  31              		@ frame_needed = 0, uses_anonymous_args = 0
  32              	.LVL0:
  33 0000 08B5     		push	{r3, lr}
  34              		.cfi_def_cfa_offset 8
  35              		.cfi_offset 3, -8
  36              		.cfi_offset 14, -4
  37              		.loc 1 521 0
  38 0002 0948     		ldr	r0, .L6
  39              	.LVL1:
  40 0004 FFF7FEFF 		bl	commands_printf
  41              	.LVL2:
  42              		.loc 1 522 0
  43 0008 084B     		ldr	r3, .L6+4
  44 000a 094A     		ldr	r2, .L6+8
  45 000c 1978     		ldrb	r1, [r3]	@ zero_extendqisi2
  46 000e 094B     		ldr	r3, .L6+12
  47 0010 0948     		ldr	r0, .L6+16
  48 0012 0029     		cmp	r1, #0
  49 0014 14BF     		ite	ne
  50 0016 1146     		movne	r1, r2
  51 0018 1946     		moveq	r1, r3
  52 001a FFF7FEFF 		bl	commands_printf
  53              	.LVL3:
  54              		.loc 1 523 0
  55 001e 0748     		ldr	r0, .L6+20
  56              		.loc 1 524 0
  57 0020 BDE80840 		pop	{r3, lr}
ARM GAS  /tmp/cc9rFHkM.s 			page 2


  58              		.cfi_restore 14
  59              		.cfi_restore 3
  60              		.cfi_def_cfa_offset 0
  61              		.loc 1 523 0
  62 0024 FFF7FEBF 		b	commands_printf
  63              	.LVL4:
  64              	.L7:
  65              		.align	2
  66              	.L6:
  67 0028 08000000 		.word	.LC2
  68 002c 00000000 		.word	.LANCHOR0
  69 0030 00000000 		.word	.LC0
  70 0034 04000000 		.word	.LC1
  71 0038 18000000 		.word	.LC3
  72 003c 24000000 		.word	.LC4
  73              		.cfi_endproc
  74              	.LFE263:
  75              		.size	terminal_cmd_nunchuk_status, .-terminal_cmd_nunchuk_status
  76              		.section	.text.output_thread,"ax",%progbits
  77              		.align	1
  78              		.p2align 4,,15
  79              		.syntax unified
  80              		.thumb
  81              		.thumb_func
  82              		.fpu fpv4-sp-d16
  83              		.type	output_thread, %function
  84              	output_thread:
  85              	.LFB262:
  86              		.loc 1 202 0
  87              		.cfi_startproc
  88              		@ args = 0, pretend = 0, frame = 24
  89              		@ frame_needed = 0, uses_anonymous_args = 0
  90              	.LVL5:
  91 0000 2DE9F04F 		push	{r4, r5, r6, r7, r8, r9, r10, fp, lr}
  92              		.cfi_def_cfa_offset 36
  93              		.cfi_offset 4, -36
  94              		.cfi_offset 5, -32
  95              		.cfi_offset 6, -28
  96              		.cfi_offset 7, -24
  97              		.cfi_offset 8, -20
  98              		.cfi_offset 9, -16
  99              		.cfi_offset 10, -12
 100              		.cfi_offset 11, -8
 101              		.cfi_offset 14, -4
 102              	.LBB96:
 103              	.LBB97:
 104              		.file 2 "ChibiOS_3.0.5/os/rt/include/chregistry.h"
 105              		.loc 2 135 0
 106 0004 DFF88083 		ldr	r8, .L230+80
 107 0008 CB4A     		ldr	r2, .L230
 108 000a D8F81830 		ldr	r3, [r8, #24]
 109 000e CB4C     		ldr	r4, .L230+4
 110 0010 CB4F     		ldr	r7, .L230+8
 111 0012 CC4D     		ldr	r5, .L230+12
 112 0014 DFF874B3 		ldr	fp, .L230+84
 113 0018 DFF874A3 		ldr	r10, .L230+88
 114              	.LBE97:
ARM GAS  /tmp/cc9rFHkM.s 			page 3


 115              	.LBE96:
 116              		.loc 1 202 0
 117 001c 2DED0C8B 		vpush.64	{d8, d9, d10, d11, d12, d13}
 118              		.cfi_def_cfa_offset 84
 119              		.cfi_offset 80, -84
 120              		.cfi_offset 81, -80
 121              		.cfi_offset 82, -76
 122              		.cfi_offset 83, -72
 123              		.cfi_offset 84, -68
 124              		.cfi_offset 85, -64
 125              		.cfi_offset 86, -60
 126              		.cfi_offset 87, -56
 127              		.cfi_offset 88, -52
 128              		.cfi_offset 89, -48
 129              		.cfi_offset 90, -44
 130              		.cfi_offset 91, -40
 131              	.LBB99:
 132              		.loc 1 240 0
 133 0020 DFEDC99A 		vldr.32	s19, .L230+16
 134              	.LBB100:
 135              	.LBB101:
 136              		.loc 1 88 0
 137 0024 9FEDC9AA 		vldr.32	s20, .L230+20
 138              	.LBE101:
 139              	.LBE100:
 140              	.LBB106:
 141              	.LBB107:
 142              	.LBB108:
 143              	.LBB109:
 144              		.loc 1 484 0
 145 0028 9FEDC99A 		vldr.32	s18, .L230+24
 146 002c DFEDC98A 		vldr.32	s17, .L230+28
 147              	.LBE109:
 148              	.LBE108:
 149              	.LBE107:
 150              	.LBE106:
 151              	.LBE99:
 152              	.LBB189:
 153              	.LBB98:
 154              		.loc 2 135 0
 155 0030 9A61     		str	r2, [r3, #24]
 156              	.LBE98:
 157              	.LBE189:
 158              		.loc 1 202 0
 159 0032 87B0     		sub	sp, sp, #28
 160              		.cfi_def_cfa_offset 112
 161              	.LVL6:
 162              	.L211:
 163              		.loc 1 207 0
 164 0034 0026     		movs	r6, #0
 165              	.LVL7:
 166              	.L9:
 167              	.LBB190:
 168              		.loc 1 210 0
 169 0036 3220     		movs	r0, #50
 170 0038 FFF7FEFF 		bl	chThdSleep
 171              	.LVL8:
ARM GAS  /tmp/cc9rFHkM.s 			page 4


 172              		.loc 1 213 0
 173 003c 94ED008A 		vldr.32	s16, [r4]
 174 0040 FFF7FEFF 		bl	mc_interface_get_rpm
 175              	.LVL9:
 176 0044 D4ED007A 		vldr.32	s15, [r4]
 177 0048 38EE400A 		vsub.f32	s0, s16, s0
 178 004c B6EE007A 		vmov.f32	s14, #5.0e-1
 179 0050 E0EE477A 		vfms.f32	s15, s0, s14
 180 0054 C4ED007A 		vstr.32	s15, [r4]
 181              	.LVL10:
 182              		.loc 1 217 0
 183 0058 FFF7FEFF 		bl	timeout_has_timeout
 184              	.LVL11:
 185 005c 0028     		cmp	r0, #0
 186 005e E9D1     		bne	.L211
 187              		.loc 1 217 0 is_stmt 0 discriminator 1
 188 0060 3B68     		ldr	r3, [r7]
 189 0062 002B     		cmp	r3, #0
 190 0064 E6D1     		bne	.L211
 191              		.loc 1 217 0 discriminator 2
 192 0066 2B78     		ldrb	r3, [r5]	@ zero_extendqisi2
 193 0068 002B     		cmp	r3, #0
 194 006a E3D0     		beq	.L211
 195              		.loc 1 224 0 is_stmt 1
 196 006c DBF80020 		ldr	r2, [fp]
 197              	.LVL12:
 198              	.LBB130:
 199              	.LBB131:
 200              	.LBB132:
 201              	.LBB133:
 202              		.file 3 "ChibiOS_3.0.5/os/rt/include/chvt.h"
 203              		.loc 3 231 0
 204 0070 D8F82830 		ldr	r3, [r8, #40]
 205              	.LVL13:
 206              	.LBE133:
 207              	.LBE132:
 208              		.loc 3 267 0
 209 0074 9B1A     		subs	r3, r3, r2
 210              	.LBE131:
 211              	.LBE130:
 212              		.loc 1 224 0
 213 0076 44F62062 		movw	r2, #20000
 214 007a 9342     		cmp	r3, r2
 215 007c DAD8     		bhi	.L211
 216              		.loc 1 229 0
 217 007e FFF7FEFF 		bl	app_is_output_disabled
 218              	.LVL14:
 219 0082 0028     		cmp	r0, #0
 220 0084 D6D1     		bne	.L211
 221              		.loc 1 234 0
 222 0086 FFF7FEFF 		bl	mc_interface_get_configuration
 223              	.LVL15:
 224 008a 8146     		mov	r9, r0
 225              	.LVL16:
 226              		.loc 1 237 0
 227 008c FFF7FEFF 		bl	mc_interface_get_tot_current_directional_filtered
 228              	.LVL17:
ARM GAS  /tmp/cc9rFHkM.s 			page 5


 229 0090 F0EE40AA 		vmov.f32	s21, s0
 230              	.LVL18:
 231              		.loc 1 238 0
 232 0094 FFF7FEFF 		bl	mc_interface_get_duty_cycle_now
 233              	.LVL19:
 234              		.loc 1 240 0
 235 0098 99ED007A 		vldr.32	s14, [r9]
 236 009c D9ED187A 		vldr.32	s15, [r9, #96]
 237              		.loc 1 242 0
 238 00a0 9AF81430 		ldrb	r3, [r10, #20]	@ zero_extendqisi2
 239              		.loc 1 240 0
 240 00a4 67EE277A 		vmul.f32	s15, s14, s15
 241              		.loc 1 238 0
 242 00a8 B0EE40BA 		vmov.f32	s22, s0
 243              	.LVL20:
 244              		.loc 1 240 0
 245 00ac 67EEA9BA 		vmul.f32	s23, s15, s19
 246              	.LVL21:
 247              		.loc 1 242 0
 248 00b0 1BB1     		cbz	r3, .L11
 249              		.loc 1 242 0 is_stmt 0 discriminator 1
 250 00b2 9AF81530 		ldrb	r3, [r10, #21]	@ zero_extendqisi2
 251 00b6 002B     		cmp	r3, #0
 252 00b8 BCD1     		bne	.L211
 253              	.L11:
 254              		.loc 1 247 0 is_stmt 1
 255 00ba F0EEEA7A 		vabs.f32	s15, s21
 256 00be F4EEEB7A 		vcmpe.f32	s15, s23
 257 00c2 F1EE10FA 		vmrs	APSR_nzcv, FPSCR
 258 00c6 08D5     		bpl	.L12
 259              		.loc 1 248 0
 260 00c8 9AF81630 		ldrb	r3, [r10, #22]	@ zero_extendqisi2
 261 00cc 002B     		cmp	r3, #0
 262 00ce 00F00E81 		beq	.L14
 263              		.loc 1 249 0
 264 00d2 A14A     		ldr	r2, .L230+32
 265 00d4 9AF81730 		ldrb	r3, [r10, #23]	@ zero_extendqisi2
 266 00d8 1370     		strb	r3, [r2]
 267              	.L12:
 268              		.loc 1 259 0
 269 00da 2B78     		ldrb	r3, [r5]	@ zero_extendqisi2
 270 00dc 022B     		cmp	r3, #2
 271 00de 4AD0     		beq	.L16
 272              		.loc 1 260 0 discriminator 1
 273 00e0 2B78     		ldrb	r3, [r5]	@ zero_extendqisi2
 274              		.loc 1 259 0 discriminator 1
 275 00e2 032B     		cmp	r3, #3
 276 00e4 47D0     		beq	.L16
 277              	.L17:
 278              		.loc 1 264 0
 279 00e6 9AF81530 		ldrb	r3, [r10, #21]	@ zero_extendqisi2
 280              	.LBB134:
 281              	.LBB102:
 282              		.loc 1 88 0
 283 00ea DAED017A 		vldr.32	s15, [r10, #4]	@ int
 284 00ee 9FED9B7A 		vldr.32	s14, .L230+36
 285              	.LBE102:
ARM GAS  /tmp/cc9rFHkM.s 			page 6


 286              	.LBE134:
 287              		.loc 1 264 0
 288 00f2 9B4A     		ldr	r2, .L230+40
 289              		.loc 1 267 0
 290 00f4 95ED010A 		vldr.32	s0, [r5, #4]
 291              	.LVL22:
 292              		.loc 1 264 0
 293 00f8 1370     		strb	r3, [r2]
 294              	.LBB135:
 295              	.LBB103:
 296              		.loc 1 88 0
 297 00fa F8EEE77A 		vcvt.f32.s32	s15, s15
 298              	.LBE103:
 299              	.LBE135:
 300              		.loc 1 267 0
 301 00fe F7EE000A 		vmov.f32	s1, #1.0e+0
 302              	.LBB136:
 303              	.LBB104:
 304              		.loc 1 88 0
 305 0102 77EECA7A 		vsub.f32	s15, s15, s20
 306              	.LBE104:
 307              	.LBE136:
 308              		.loc 1 267 0
 309 0106 03A8     		add	r0, sp, #12
 310              	.LBB137:
 311              	.LBB105:
 312              		.loc 1 88 0
 313 0108 67EE877A 		vmul.f32	s15, s15, s14
 314              	.LBE105:
 315              	.LBE137:
 316              		.loc 1 266 0
 317 010c CDED037A 		vstr.32	s15, [sp, #12]
 318              		.loc 1 267 0
 319 0110 FFF7FEFF 		bl	utils_deadband
 320              	.LVL23:
 321              		.loc 1 268 0
 322 0114 D5ED050A 		vldr.32	s1, [r5, #20]
 323 0118 9DED030A 		vldr.32	s0, [sp, #12]
 324 011c 95ED061A 		vldr.32	s2, [r5, #24]
 325 0120 287F     		ldrb	r0, [r5, #28]	@ zero_extendqisi2
 326 0122 FFF7FEFF 		bl	utils_throttle_curve
 327              	.LVL24:
 328              		.loc 1 270 0
 329 0126 9AF81430 		ldrb	r3, [r10, #20]	@ zero_extendqisi2
 330              		.loc 1 268 0
 331 012a 8DED030A 		vstr.32	s0, [sp, #12]
 332              		.loc 1 270 0
 333 012e 03F0FF02 		and	r2, r3, #255
 334 0132 0192     		str	r2, [sp, #4]
 335 0134 1BB3     		cbz	r3, .L18
 336 0136 884B     		ldr	r3, .L230+32
 337 0138 D4ED007A 		vldr.32	s15, [r4]
 338 013c 1B78     		ldrb	r3, [r3]	@ zero_extendqisi2
 339              	.LBB138:
 340              		.loc 1 274 0
 341 013e 894A     		ldr	r2, .L230+44
 342              		.loc 1 273 0
ARM GAS  /tmp/cc9rFHkM.s 			page 7


 343 0140 002E     		cmp	r6, #0
 344 0142 40F0C881 		bne	.L19
 345              		.loc 1 274 0
 346 0146 C2ED007A 		vstr.32	s15, [r2]
 347              		.loc 1 276 0
 348 014a F5EEC07A 		vcmpe.f32	s15, #0
 349 014e 002B     		cmp	r3, #0
 350 0150 00F0DE80 		beq	.L20
 351              		.loc 1 276 0 is_stmt 0 discriminator 1
 352 0154 F1EE10FA 		vmrs	APSR_nzcv, FPSCR
 353 0158 3FF76CAF 		bgt	.L211
 354              	.L21:
 355              	.LVL25:
 356              		.loc 1 306 0 is_stmt 1
 357 015c B0EE670A 		vmov.f32	s0, s15
 358 0160 FFF7FEFF 		bl	mc_interface_set_pid_speed
 359              	.LVL26:
 360              		.loc 1 309 0
 361 0164 6B7F     		ldrb	r3, [r5, #29]	@ zero_extendqisi2
 362 0166 002B     		cmp	r3, #0
 363 0168 40F0DE80 		bne	.L219
 364              	.LVL27:
 365              	.L27:
 366              		.loc 1 327 0
 367 016c 7E4B     		ldr	r3, .L230+48
 368              		.loc 1 329 0
 369 016e 019E     		ldr	r6, [sp, #4]
 370              		.loc 1 327 0
 371 0170 C3ED00AA 		vstr.32	s21, [r3]
 372              		.loc 1 329 0
 373 0174 5FE7     		b	.L9
 374              	.LVL28:
 375              	.L16:
 376              	.LBE138:
 377              		.loc 1 261 0
 378 0176 784A     		ldr	r2, .L230+32
 379 0178 0023     		movs	r3, #0
 380 017a 1370     		strb	r3, [r2]
 381 017c B3E7     		b	.L17
 382              	.LVL29:
 383              	.L18:
 384              		.loc 1 336 0
 385 017e 2B78     		ldrb	r3, [r5]	@ zero_extendqisi2
 386 0180 032B     		cmp	r3, #3
 387              		.loc 1 337 0
 388 0182 B5EEC00A 		vcmpe.f32	s0, #0
 389              		.loc 1 336 0
 390 0186 00F09780 		beq	.L220
 391              		.loc 1 343 0
 392 018a F1EE10FA 		vmrs	APSR_nzcv, FPSCR
 393 018e C0F2A780 		blt	.L42
 394              		.loc 1 343 0 is_stmt 0 discriminator 1
 395 0192 714B     		ldr	r3, .L230+32
 396 0194 1B78     		ldrb	r3, [r3]	@ zero_extendqisi2
 397 0196 002B     		cmp	r3, #0
 398 0198 00F0A882 		beq	.L113
 399 019c F1EE4B7A 		vneg.f32	s15, s22
ARM GAS  /tmp/cc9rFHkM.s 			page 8


 400              	.L44:
 401              		.loc 1 343 0 discriminator 5
 402 01a0 F5EEC07A 		vcmpe.f32	s15, #0
 403 01a4 F1EE10FA 		vmrs	APSR_nzcv, FPSCR
 404 01a8 40F39A80 		ble	.L42
 405              	.L212:
 406              		.loc 1 344 0 is_stmt 1
 407 01ac 99ED1F8A 		vldr.32	s16, [r9, #124]
 408 01b0 20EE088A 		vmul.f32	s16, s0, s16
 409              	.LVL30:
 410              	.L41:
 411              		.loc 1 351 0
 412 01b4 FFF7FEFF 		bl	mc_interface_get_rpm
 413              	.LVL31:
 414              		.loc 1 356 0
 415 01b8 6B7F     		ldrb	r3, [r5, #29]	@ zero_extendqisi2
 416              		.loc 1 351 0
 417 01ba F0EEC0CA 		vabs.f32	s25, s0
 418              	.LVL32:
 419              		.loc 1 354 0
 420 01be F0EECBDA 		vabs.f32	s27, s22
 421              	.LVL33:
 422              		.loc 1 353 0
 423 01c2 B0EE6ADA 		vmov.f32	s26, s21
 424              		.loc 1 352 0
 425 01c6 B0EE6CCA 		vmov.f32	s24, s25
 426              		.loc 1 356 0
 427 01ca 002B     		cmp	r3, #0
 428 01cc 40F01281 		bne	.L221
 429              	.LVL34:
 430              	.L46:
 431              		.loc 1 384 0
 432 01d0 95F82430 		ldrb	r3, [r5, #36]	@ zero_extendqisi2
 433 01d4 CBB3     		cbz	r3, .L54
 434              		.loc 1 384 0 is_stmt 0 discriminator 1
 435 01d6 2B78     		ldrb	r3, [r5]	@ zero_extendqisi2
 436 01d8 032B     		cmp	r3, #3
 437 01da 36D0     		beq	.L54
 438              	.LVL35:
 439              	.LBB149:
 440              		.loc 1 389 0 is_stmt 1
 441 01dc DDED037A 		vldr.32	s15, [sp, #12]
 442 01e0 9FED627A 		vldr.32	s14, .L230+52
 443 01e4 F4EEC77A 		vcmpe.f32	s15, s14
 444 01e8 F1EE10FA 		vmrs	APSR_nzcv, FPSCR
 445 01ec 1CD5     		bpl	.L55
 446              		.loc 1 389 0 is_stmt 0 discriminator 1
 447 01ee D9ED146A 		vldr.32	s13, [r9, #80]
 448 01f2 B7EE087A 		vmov.f32	s14, #1.5e+0
 449 01f6 26EE877A 		vmul.f32	s14, s13, s14
 450 01fa B4EEED7A 		vcmpe.f32	s14, s27
 451 01fe F1EE10FA 		vmrs	APSR_nzcv, FPSCR
 452 0202 11DD     		ble	.L55
 453              		.loc 1 390 0 is_stmt 1 discriminator 2
 454 0204 99ED006A 		vldr.32	s12, [r9]
 455 0208 D9ED186A 		vldr.32	s13, [r9, #96]
 456 020c 9FED587A 		vldr.32	s14, .L230+56
ARM GAS  /tmp/cc9rFHkM.s 			page 9


 457 0210 66EE266A 		vmul.f32	s13, s12, s13
 458 0214 B0EECD6A 		vabs.f32	s12, s26
 459 0218 26EE877A 		vmul.f32	s14, s13, s14
 460              		.loc 1 389 0 discriminator 2
 461 021c B4EEC76A 		vcmpe.f32	s12, s14
 462 0220 F1EE10FA 		vmrs	APSR_nzcv, FPSCR
 463 0224 00F1C882 		bmi	.L58
 464              	.L55:
 465              		.loc 1 394 0 discriminator 1
 466 0228 524B     		ldr	r3, .L230+60
 467 022a 1B78     		ldrb	r3, [r3]	@ zero_extendqisi2
 468 022c 3BB1     		cbz	r3, .L59
 469              		.loc 1 394 0 is_stmt 0 discriminator 2
 470 022e 9FED527A 		vldr.32	s14, .L230+64
 471 0232 F4EEC77A 		vcmpe.f32	s15, s14
 472 0236 F1EE10FA 		vmrs	APSR_nzcv, FPSCR
 473 023a 00F1BD82 		bmi	.L58
 474              	.L59:
 475              		.loc 1 421 0 is_stmt 1
 476 023e 4F4A     		ldr	r2, .L230+68
 477 0240 82ED00BA 		vstr.32	s22, [r2]
 478              		.loc 1 422 0
 479 0244 4B4A     		ldr	r2, .L230+60
 480 0246 0023     		movs	r3, #0
 481 0248 1370     		strb	r3, [r2]
 482              	.LVL36:
 483              	.L54:
 484              	.LBE149:
 485              		.loc 1 428 0
 486 024a 474B     		ldr	r3, .L230+48
 487              		.loc 1 426 0
 488 024c 99ED007A 		vldr.32	s14, [r9]
 489              		.loc 1 428 0
 490 0250 D3ED00AA 		vldr.32	s21, [r3]
 491              	.LVL37:
 492              		.loc 1 426 0
 493 0254 D9ED187A 		vldr.32	s15, [r9, #96]
 494              		.loc 1 427 0
 495 0258 D9ED015A 		vldr.32	s11, [r9, #4]
 496 025c 99ED195A 		vldr.32	s10, [r9, #100]
 497              	.LVL38:
 498              		.loc 1 428 0
 499 0260 B0EEC86A 		vabs.f32	s12, s16
 500 0264 F0EEEA6A 		vabs.f32	s13, s21
 501 0268 B4EEE66A 		vcmpe.f32	s12, s13
 502 026c F1EE10FA 		vmrs	APSR_nzcv, FPSCR
 503 0270 CCBF     		ite	gt
 504 0272 95ED026A 		vldrgt.32	s12, [r5, #8]
 505 0276 95ED036A 		vldrle.32	s12, [r5, #12]
 506              	.LVL39:
 507              		.loc 1 430 0
 508 027a DFED416A 		vldr.32	s13, .L230+72
 509 027e B4EEE66A 		vcmpe.f32	s12, s13
 510 0282 F1EE10FA 		vmrs	APSR_nzcv, FPSCR
 511 0286 00F34E81 		bgt	.L222
 512              	.LVL40:
 513              	.L69:
ARM GAS  /tmp/cc9rFHkM.s 			page 10


 514              		.loc 1 460 0
 515 028a 374B     		ldr	r3, .L230+48
 516              		.loc 1 462 0
 517 028c B5EEC08A 		vcmpe.f32	s16, #0
 518 0290 F1EE10FA 		vmrs	APSR_nzcv, FPSCR
 519              		.loc 1 460 0
 520 0294 83ED008A 		vstr.32	s16, [r3]
 521              		.loc 1 462 0
 522 0298 00F1F180 		bmi	.L223
 523              	.L80:
 524              	.LBB160:
 525              		.loc 1 476 0
 526 029c 2E4B     		ldr	r3, .L230+32
 527 029e 1B78     		ldrb	r3, [r3]	@ zero_extendqisi2
 528 02a0 0BB1     		cbz	r3, .L87
 529              		.loc 1 476 0 is_stmt 0 discriminator 1
 530 02a2 B1EE488A 		vneg.f32	s16, s16
 531              	.LVL41:
 532              	.L87:
 533              		.loc 1 480 0 is_stmt 1 discriminator 4
 534 02a6 6B7F     		ldrb	r3, [r5, #29]	@ zero_extendqisi2
 535 02a8 002B     		cmp	r3, #0
 536 02aa 40F07C81 		bne	.L224
 537              	.LVL42:
 538              	.L88:
 539              		.loc 1 512 0
 540 02ae B0EE480A 		vmov.f32	s0, s16
 541 02b2 FFF7FEFF 		bl	mc_interface_set_current
 542              	.LVL43:
 543 02b6 BDE6     		b	.L211
 544              	.LVL44:
 545              	.L220:
 546              	.LBE160:
 547              		.loc 1 337 0
 548 02b8 F1EE10FA 		vmrs	APSR_nzcv, FPSCR
 549 02bc 05DD     		ble	.L35
 550              		.loc 1 337 0 is_stmt 0 discriminator 1
 551 02be B5EEC0BA 		vcmpe.f32	s22, #0
 552 02c2 F1EE10FA 		vmrs	APSR_nzcv, FPSCR
 553 02c6 3FF771AF 		bgt	.L212
 554              	.L35:
 555              		.loc 1 337 0 discriminator 3
 556 02ca B5EEC00A 		vcmpe.f32	s0, #0
 557 02ce F1EE10FA 		vmrs	APSR_nzcv, FPSCR
 558 02d2 05D5     		bpl	.L42
 559              		.loc 1 337 0 discriminator 4
 560 02d4 B5EEC0BA 		vcmpe.f32	s22, #0
 561 02d8 F1EE10FA 		vmrs	APSR_nzcv, FPSCR
 562 02dc 3FF566AF 		bmi	.L212
 563              	.L42:
 564              		.loc 1 346 0 is_stmt 1
 565 02e0 99ED208A 		vldr.32	s16, [r9, #128]
 566 02e4 B0EEC88A 		vabs.f32	s16, s16
 567 02e8 28EE008A 		vmul.f32	s16, s16, s0
 568              	.LVL45:
 569 02ec 62E7     		b	.L41
 570              	.LVL46:
ARM GAS  /tmp/cc9rFHkM.s 			page 11


 571              	.L14:
 572              		.loc 1 250 0
 573 02ee 9AF81530 		ldrb	r3, [r10, #21]	@ zero_extendqisi2
 574 02f2 002B     		cmp	r3, #0
 575 02f4 3FF4F1AE 		beq	.L12
 576              		.loc 1 250 0 is_stmt 0 discriminator 1
 577 02f8 194B     		ldr	r3, .L230+40
 578 02fa 1B78     		ldrb	r3, [r3]	@ zero_extendqisi2
 579 02fc 002B     		cmp	r3, #0
 580 02fe 7FF4ECAE 		bne	.L12
 581              		.loc 1 251 0 is_stmt 1
 582 0302 1549     		ldr	r1, .L230+32
 583 0304 0A78     		ldrb	r2, [r1]	@ zero_extendqisi2
 584 0306 002A     		cmp	r2, #0
 585 0308 00F07B82 		beq	.L15
 586              		.loc 1 252 0
 587 030c 0B70     		strb	r3, [r1]
 588 030e E4E6     		b	.L12
 589              	.LVL47:
 590              	.L20:
 591              	.LBB161:
 592              		.loc 1 276 0 discriminator 4
 593 0310 F1EE10FA 		vmrs	APSR_nzcv, FPSCR
 594 0314 3FF58EAE 		bmi	.L211
 595              	.LVL48:
 596              		.loc 1 306 0
 597 0318 B0EE670A 		vmov.f32	s0, s15
 598 031c FFF7FEFF 		bl	mc_interface_set_pid_speed
 599              	.LVL49:
 600              		.loc 1 309 0
 601 0320 6B7F     		ldrb	r3, [r5, #29]	@ zero_extendqisi2
 602 0322 002B     		cmp	r3, #0
 603 0324 3FF422AF 		beq	.L27
 604              	.L219:
 605              	.LBB139:
 606              		.loc 1 310 0
 607 0328 FFF7FEFF 		bl	mc_interface_get_tot_current_directional_filtered
 608              	.LVL50:
 609              	.LBB140:
 610              	.LBB141:
 611              		.loc 1 319 0
 612 032c 9FED15BA 		vldr.32	s22, .L230+76
 613              	.LVL51:
 614              	.LBE141:
 615              	.LBE140:
 616              		.loc 1 310 0
 617 0330 B0EE408A 		vmov.f32	s16, s0
 618              	.LVL52:
 619              	.LBB148:
 620              		.loc 1 312 0
 621 0334 0026     		movs	r6, #0
 622 0336 33E0     		b	.L32
 623              	.L231:
 624              		.align	2
 625              	.L230:
 626 0338 00000000 		.word	.LC5
 627 033c 00000000 		.word	.LANCHOR1
ARM GAS  /tmp/cc9rFHkM.s 			page 12


 628 0340 00000000 		.word	.LANCHOR2
 629 0344 00000000 		.word	.LANCHOR3
 630 0348 CDCC4C3E 		.word	1045220557
 631 034c 00000043 		.word	1124073472
 632 0350 00401C46 		.word	1176256512
 633 0354 CDCCCC3D 		.word	1036831949
 634 0358 00000000 		.word	.LANCHOR6
 635 035c 0000003C 		.word	1006632960
 636 0360 00000000 		.word	.LANCHOR7
 637 0364 00000000 		.word	.LANCHOR8
 638 0368 00000000 		.word	.LANCHOR9
 639 036c 1F856BBF 		.word	3211494687
 640 0370 3333333F 		.word	1060320051
 641 0374 00000000 		.word	.LANCHOR10
 642 0378 CDCCCCBD 		.word	3184315597
 643 037c 00000000 		.word	.LANCHOR11
 644 0380 0AD7233C 		.word	1008981770
 645 0384 00000000 		.word	0
 646 0388 00000000 		.word	ch
 647 038c 00000000 		.word	.LANCHOR4
 648 0390 00000000 		.word	.LANCHOR5
 649              	.LVL53:
 650              	.L225:
 651              	.LBB146:
 652              		.loc 1 317 0
 653 0394 FFF7FEFF 		bl	comm_can_set_current
 654              	.LVL54:
 655              	.L28:
 656              	.LBE146:
 657              		.loc 1 312 0 discriminator 2
 658 0398 0136     		adds	r6, r6, #1
 659              	.LVL55:
 660 039a 0A2E     		cmp	r6, #10
 661 039c 3FF4E6AE 		beq	.L27
 662              	.LVL56:
 663              	.L32:
 664              	.LBB147:
 665              		.loc 1 313 0
 666 03a0 3046     		mov	r0, r6
 667 03a2 FFF7FEFF 		bl	comm_can_get_status_msg_index
 668              	.LVL57:
 669              		.loc 1 315 0
 670 03a6 0368     		ldr	r3, [r0]
 671 03a8 002B     		cmp	r3, #0
 672 03aa F5DB     		blt	.L28
 673              	.LBB142:
 674              	.LBB143:
 675              		.loc 3 267 0 discriminator 1
 676 03ac 4168     		ldr	r1, [r0, #4]
 677              	.LBB144:
 678              	.LBB145:
 679              		.loc 3 231 0 discriminator 1
 680 03ae D8F82820 		ldr	r2, [r8, #40]
 681              	.LVL58:
 682              	.LBE145:
 683              	.LBE144:
 684              		.loc 3 267 0 discriminator 1
ARM GAS  /tmp/cc9rFHkM.s 			page 13


 685 03b2 521A     		subs	r2, r2, r1
 686              	.LBE143:
 687              	.LBE142:
 688              		.loc 1 315 0 discriminator 1
 689 03b4 07EE902A 		vmov	s15, r2	@ int
 690 03b8 F8EE677A 		vcvt.f32.u32	s15, s15
 691 03bc DBB2     		uxtb	r3, r3
 692 03be 87EE897A 		vdiv.f32	s14, s15, s18
 693 03c2 B4EEE87A 		vcmpe.f32	s14, s17
 694 03c6 F1EE10FA 		vmrs	APSR_nzcv, FPSCR
 695 03ca E5D5     		bpl	.L28
 696              		.loc 1 316 0
 697 03cc DC4A     		ldr	r2, .L232
 698 03ce 99ED777A 		vldr.32	s14, [r9, #476]
 699 03d2 D2ED007A 		vldr.32	s15, [r2]
 700 03d6 F0EEE77A 		vabs.f32	s15, s15
 701 03da F4EEC77A 		vcmpe.f32	s15, s14
 702 03de F1EE10FA 		vmrs	APSR_nzcv, FPSCR
 703              		.loc 1 317 0
 704 03e2 B0EE480A 		vmov.f32	s0, s16
 705 03e6 1846     		mov	r0, r3
 706              	.LVL59:
 707              		.loc 1 316 0
 708 03e8 D4DC     		bgt	.L225
 709              	.LVL60:
 710              		.loc 1 319 0
 711 03ea B0EE4B0A 		vmov.f32	s0, s22
 712              	.LVL61:
 713 03ee FFF7FEFF 		bl	comm_can_set_duty
 714              	.LVL62:
 715 03f2 D1E7     		b	.L28
 716              	.LVL63:
 717              	.L221:
 718              	.LBE147:
 719              	.LBE148:
 720              	.LBE139:
 721              	.LBE161:
 722              	.LBB162:
 723              		.loc 1 357 0
 724 03f4 0026     		movs	r6, #0
 725              	.LVL64:
 726              	.L53:
 727              	.LBB163:
 728              		.loc 1 358 0
 729 03f6 3046     		mov	r0, r6
 730 03f8 FFF7FEFF 		bl	comm_can_get_status_msg_index
 731              	.LVL65:
 732              		.loc 1 360 0
 733 03fc 0368     		ldr	r3, [r0]
 734 03fe 002B     		cmp	r3, #0
 735              	.LBE163:
 736              		.loc 1 357 0
 737 0400 06F10106 		add	r6, r6, #1
 738              	.LVL66:
 739              	.LBB170:
 740              		.loc 1 360 0
 741 0404 38DB     		blt	.L47
ARM GAS  /tmp/cc9rFHkM.s 			page 14


 742              	.LBB164:
 743              	.LBB165:
 744              	.LBB166:
 745              	.LBB167:
 746              		.loc 3 231 0 discriminator 1
 747 0406 D8F82830 		ldr	r3, [r8, #40]
 748              	.LVL67:
 749              	.LBE167:
 750              	.LBE166:
 751              		.loc 3 267 0 discriminator 1
 752 040a 4268     		ldr	r2, [r0, #4]
 753 040c 9B1A     		subs	r3, r3, r2
 754              	.LBE165:
 755              	.LBE164:
 756              		.loc 1 360 0 discriminator 1
 757 040e 07EE903A 		vmov	s15, r3	@ int
 758 0412 F8EE677A 		vcvt.f32.u32	s15, s15
 759              	.LBB168:
 760              		.loc 1 373 0 discriminator 1
 761 0416 B0EECD6A 		vabs.f32	s12, s26
 762              	.LBE168:
 763              		.loc 1 360 0 discriminator 1
 764 041a 87EE897A 		vdiv.f32	s14, s15, s18
 765 041e B4EEE87A 		vcmpe.f32	s14, s17
 766 0422 F1EE10FA 		vmrs	APSR_nzcv, FPSCR
 767 0426 27D5     		bpl	.L47
 768              	.LBB169:
 769              		.loc 1 361 0
 770 0428 90ED027A 		vldr.32	s14, [r0, #8]
 771              		.loc 1 369 0
 772 042c D0ED047A 		vldr.32	s15, [r0, #16]
 773              		.loc 1 368 0
 774 0430 D0ED036A 		vldr.32	s13, [r0, #12]
 775              		.loc 1 361 0
 776 0434 B0EEC77A 		vabs.f32	s14, s14
 777              	.LVL68:
 778              		.loc 1 364 0
 779 0438 B4EE4C7A 		vcmp.f32	s14, s24
 780 043c F1EE10FA 		vmrs	APSR_nzcv, FPSCR
 781              		.loc 1 369 0
 782 0440 F5EEC07A 		vcmpe.f32	s15, #0
 783              		.loc 1 364 0
 784 0444 48BF     		it	mi
 785 0446 B0EE47CA 		vmovmi.f32	s24, s14
 786              	.LVL69:
 787              		.loc 1 369 0
 788 044a F1EE10FA 		vmrs	APSR_nzcv, FPSCR
 789              		.loc 1 370 0
 790 044e 48BF     		it	mi
 791 0450 F1EE666A 		vnegmi.f32	s13, s13
 792              	.LVL70:
 793              		.loc 1 373 0
 794 0454 B0EEE67A 		vabs.f32	s14, s13
 795              	.LVL71:
 796              		.loc 1 377 0
 797 0458 F0EEE77A 		vabs.f32	s15, s15
 798              		.loc 1 374 0
ARM GAS  /tmp/cc9rFHkM.s 			page 15


 799 045c B4EE467A 		vcmp.f32	s14, s12
 800 0460 F1EE10FA 		vmrs	APSR_nzcv, FPSCR
 801              		.loc 1 378 0
 802 0464 F4EE6D7A 		vcmp.f32	s15, s27
 803              		.loc 1 374 0
 804 0468 C8BF     		it	gt
 805 046a B0EE66DA 		vmovgt.f32	s26, s13
 806              	.LVL72:
 807              		.loc 1 378 0
 808 046e F1EE10FA 		vmrs	APSR_nzcv, FPSCR
 809 0472 C8BF     		it	gt
 810 0474 F0EE67DA 		vmovgt.f32	s27, s15
 811              	.LVL73:
 812              	.L47:
 813              	.LBE169:
 814              	.LBE170:
 815              		.loc 1 357 0 discriminator 2
 816 0478 0A2E     		cmp	r6, #10
 817 047a BCD1     		bne	.L53
 818 047c A8E6     		b	.L46
 819              	.LVL74:
 820              	.L223:
 821              	.LBE162:
 822              		.loc 1 462 0 discriminator 1
 823 047e 2B78     		ldrb	r3, [r5]	@ zero_extendqisi2
 824 0480 032B     		cmp	r3, #3
 825 0482 3FF40BAF 		beq	.L80
 826              		.loc 1 463 0
 827 0486 B0EE480A 		vmov.f32	s0, s16
 828 048a FFF7FEFF 		bl	mc_interface_set_brake_current
 829              	.LVL75:
 830              		.loc 1 466 0
 831 048e 6B7F     		ldrb	r3, [r5, #29]	@ zero_extendqisi2
 832 0490 002B     		cmp	r3, #0
 833 0492 3FF4CFAD 		beq	.L211
 834              	.LBB171:
 835              		.loc 1 467 0
 836 0496 0026     		movs	r6, #0
 837              	.L82:
 838              	.LVL76:
 839              	.LBB172:
 840              		.loc 1 468 0
 841 0498 3046     		mov	r0, r6
 842 049a FFF7FEFF 		bl	comm_can_get_status_msg_index
 843              	.LVL77:
 844              		.loc 1 470 0
 845 049e 0268     		ldr	r2, [r0]
 846 04a0 002A     		cmp	r2, #0
 847              	.LBE172:
 848              		.loc 1 467 0
 849 04a2 06F10106 		add	r6, r6, #1
 850              	.LVL78:
 851              	.LBB177:
 852              		.loc 1 470 0
 853 04a6 13DB     		blt	.L84
 854              	.LBB173:
 855              	.LBB174:
ARM GAS  /tmp/cc9rFHkM.s 			page 16


 856              		.loc 3 267 0 discriminator 1
 857 04a8 4168     		ldr	r1, [r0, #4]
 858              	.LBB175:
 859              	.LBB176:
 860              		.loc 3 231 0 discriminator 1
 861 04aa D8F82830 		ldr	r3, [r8, #40]
 862              	.LVL79:
 863              	.LBE176:
 864              	.LBE175:
 865              		.loc 3 267 0 discriminator 1
 866 04ae 5B1A     		subs	r3, r3, r1
 867              	.LBE174:
 868              	.LBE173:
 869              		.loc 1 470 0 discriminator 1
 870 04b0 07EE903A 		vmov	s15, r3	@ int
 871 04b4 F8EE677A 		vcvt.f32.u32	s15, s15
 872 04b8 87EE897A 		vdiv.f32	s14, s15, s18
 873 04bc B4EEE87A 		vcmpe.f32	s14, s17
 874 04c0 F1EE10FA 		vmrs	APSR_nzcv, FPSCR
 875 04c4 04D5     		bpl	.L84
 876              		.loc 1 471 0
 877 04c6 D0B2     		uxtb	r0, r2
 878              	.LVL80:
 879 04c8 B0EE480A 		vmov.f32	s0, s16
 880 04cc FFF7FEFF 		bl	comm_can_set_current_brake
 881              	.LVL81:
 882              	.L84:
 883              	.LBE177:
 884              		.loc 1 467 0 discriminator 2
 885 04d0 0A2E     		cmp	r6, #10
 886 04d2 E1D1     		bne	.L82
 887 04d4 AEE5     		b	.L211
 888              	.LVL82:
 889              	.L19:
 890 04d6 92ED007A 		vldr.32	s14, [r2]
 891              	.LBE171:
 892              	.LBB178:
 893              		.loc 1 284 0
 894 04da B5EEC07A 		vcmpe.f32	s14, #0
 895              		.loc 1 283 0
 896 04de 002B     		cmp	r3, #0
 897 04e0 00F00A81 		beq	.L22
 898              		.loc 1 288 0
 899 04e4 95ED048A 		vldr.32	s16, [r5, #16]
 900 04e8 9FED966A 		vldr.32	s12, .L232+4
 901              		.loc 1 290 0
 902 04ec D5ED046A 		vldr.32	s13, [r5, #16]
 903              		.loc 1 288 0
 904 04f0 934B     		ldr	r3, .L232
 905              		.loc 1 284 0
 906 04f2 F1EE10FA 		vmrs	APSR_nzcv, FPSCR
 907 04f6 C8BF     		it	gt
 908 04f8 9FED937A 		vldrgt.32	s14, .L232+8
 909              		.loc 1 288 0
 910 04fc 28EE408A 		vnmul.f32	s16, s16, s0
 911              		.loc 1 290 0
 912 0500 77EEE66A 		vsub.f32	s13, s15, s13
ARM GAS  /tmp/cc9rFHkM.s 			page 17


 913              		.loc 1 288 0
 914 0504 A8EE067A 		vfma.f32	s14, s16, s12
 915              		.loc 1 290 0
 916 0508 B4EEE67A 		vcmpe.f32	s14, s13
 917 050c F1EE10FA 		vmrs	APSR_nzcv, FPSCR
 918              		.loc 1 288 0
 919 0510 83ED007A 		vstr.32	s14, [r3]
 920              		.loc 1 290 0
 921 0514 40F1ED80 		bpl	.L206
 922              		.loc 1 291 0
 923 0518 95ED047A 		vldr.32	s14, [r5, #16]
 924 051c 77EEC77A 		vsub.f32	s15, s15, s14
 925 0520 C3ED007A 		vstr.32	s15, [r3]
 926 0524 1AE6     		b	.L21
 927              	.LVL83:
 928              	.L222:
 929              	.LBE178:
 930              		.loc 1 426 0
 931 0526 67EE277A 		vmul.f32	s15, s14, s15
 932              	.LVL84:
 933              		.loc 1 427 0
 934 052a F0EEE55A 		vabs.f32	s11, s11
 935              		.loc 1 426 0
 936 052e E5EE857A 		vfma.f32	s15, s11, s10
 937              	.LBB179:
 938              		.loc 1 435 0
 939 0532 04A8     		add	r0, sp, #16
 940              		.loc 1 431 0
 941 0534 9FED857A 		vldr.32	s14, .L232+12
 942              		.loc 1 433 0
 943 0538 CDED04AA 		vstr.32	s21, [sp, #16]
 944              		.loc 1 431 0
 945 053c F1EE046A 		vmov.f32	s13, #5.0e+0
 946 0540 67EEA67A 		vmul.f32	s15, s15, s13
 947 0544 26EE076A 		vmul.f32	s12, s12, s14
 948              	.LVL85:
 949              		.loc 1 435 0
 950 0548 B0EE480A 		vmov.f32	s0, s16
 951              		.loc 1 431 0
 952 054c C7EE86DA 		vdiv.f32	s27, s15, s12
 953              	.LVL86:
 954              		.loc 1 435 0
 955 0550 F0EE6D0A 		vmov.f32	s1, s27
 956 0554 FFF7FEFF 		bl	utils_step_towards
 957              	.LVL87:
 958              		.loc 1 441 0
 959 0558 7D4B     		ldr	r3, .L232+16
 960              		.loc 1 436 0
 961 055a 9DED048A 		vldr.32	s16, [sp, #16]
 962              	.LVL88:
 963              		.loc 1 441 0
 964 055e 1B78     		ldrb	r3, [r3]	@ zero_extendqisi2
 965              		.loc 1 440 0
 966 0560 8DED058A 		vstr.32	s16, [sp, #20]
 967              		.loc 1 441 0
 968 0564 002B     		cmp	r3, #0
 969 0566 00F0F780 		beq	.L71
ARM GAS  /tmp/cc9rFHkM.s 			page 18


 970              		.loc 1 442 0
 971 056a 78EE0D7A 		vadd.f32	s15, s16, s26
 972 056e F0EEE77A 		vabs.f32	s15, s15
 973 0572 F4EEEB7A 		vcmpe.f32	s15, s23
 974 0576 F1EE10FA 		vmrs	APSR_nzcv, FPSCR
 975 057a 00F34681 		bgt	.L226
 976              	.L72:
 977              	.LVL89:
 978              		.loc 1 453 0
 979 057e F4EEC8AA 		vcmpe.f32	s21, s16
 980 0582 F1EE10FA 		vmrs	APSR_nzcv, FPSCR
 981 0586 3FF780AE 		bgt	.L69
 982              	.LVL90:
 983              	.L76:
 984              		.loc 1 453 0 is_stmt 0 discriminator 3
 985 058a DDED037A 		vldr.32	s15, [sp, #12]
 986 058e 9FED717A 		vldr.32	s14, .L232+20
 987 0592 F0EEE77A 		vabs.f32	s15, s15
 988 0596 F4EEC77A 		vcmpe.f32	s15, s14
 989 059a F1EE10FA 		vmrs	APSR_nzcv, FPSCR
 990 059e D8BF     		it	le
 991 05a0 9DED048A 		vldrle.32	s16, [sp, #16]
 992              	.LVL91:
 993 05a4 71E6     		b	.L69
 994              	.LVL92:
 995              	.L224:
 996              	.LBE179:
 997              	.LBB180:
 998              	.LBB126:
 999              	.LBB122:
 1000              	.LBB119:
 1001              	.LBB110:
 1002              	.LBB111:
 1003              		.loc 1 491 0 is_stmt 1
 1004 05a6 DFED68BA 		vldr.32	s23, .L232+8
 1005              	.LVL93:
 1006              	.LBE111:
 1007              	.LBE110:
 1008              	.LBE119:
 1009              	.LBE122:
 1010              	.LBE126:
 1011              		.loc 1 477 0
 1012 05aa F0EE48AA 		vmov.f32	s21, s16
 1013              	.LBB127:
 1014              	.LBB123:
 1015              		.loc 1 481 0
 1016 05ae 0026     		movs	r6, #0
 1017              	.LVL94:
 1018              	.L100:
 1019              	.LBB120:
 1020              		.loc 1 482 0
 1021 05b0 3046     		mov	r0, r6
 1022 05b2 FFF7FEFF 		bl	comm_can_get_status_msg_index
 1023              	.LVL95:
 1024              		.loc 1 484 0
 1025 05b6 0168     		ldr	r1, [r0]
 1026 05b8 0029     		cmp	r1, #0
ARM GAS  /tmp/cc9rFHkM.s 			page 19


 1027 05ba 4FDB     		blt	.L89
 1028              	.LVL96:
 1029              	.LBB113:
 1030              	.LBB114:
 1031              	.LBB115:
 1032              	.LBB116:
 1033              		.loc 3 231 0 discriminator 1
 1034 05bc D8F82830 		ldr	r3, [r8, #40]
 1035              	.LVL97:
 1036              	.LBE116:
 1037              	.LBE115:
 1038              		.loc 3 267 0 discriminator 1
 1039 05c0 4268     		ldr	r2, [r0, #4]
 1040 05c2 9B1A     		subs	r3, r3, r2
 1041              	.LBE114:
 1042              	.LBE113:
 1043              		.loc 1 484 0 discriminator 1
 1044 05c4 07EE903A 		vmov	s15, r3	@ int
 1045 05c8 F8EE677A 		vcvt.f32.u32	s15, s15
 1046 05cc 87EE897A 		vdiv.f32	s14, s15, s18
 1047 05d0 B4EEE87A 		vcmpe.f32	s14, s17
 1048 05d4 F1EE10FA 		vmrs	APSR_nzcv, FPSCR
 1049 05d8 40D5     		bpl	.L89
 1050              	.LBB117:
 1051              		.loc 1 485 0
 1052 05da B5EEC08A 		vcmpe.f32	s16, #0
 1053 05de F1EE10FA 		vmrs	APSR_nzcv, FPSCR
 1054 05e2 06DD     		ble	.L91
 1055              		.loc 1 485 0 is_stmt 0 discriminator 1
 1056 05e4 D0ED047A 		vldr.32	s15, [r0, #16]
 1057 05e8 F5EEC07A 		vcmpe.f32	s15, #0
 1058 05ec F1EE10FA 		vmrs	APSR_nzcv, FPSCR
 1059 05f0 77D4     		bmi	.L216
 1060              	.L91:
 1061              		.loc 1 485 0 discriminator 4
 1062 05f2 B5EEC08A 		vcmpe.f32	s16, #0
 1063 05f6 F1EE10FA 		vmrs	APSR_nzcv, FPSCR
 1064 05fa 6BD4     		bmi	.L227
 1065              	.L95:
 1066              	.LVL98:
 1067              		.loc 1 487 0 is_stmt 1
 1068 05fc AB7F     		ldrb	r3, [r5, #30]	@ zero_extendqisi2
 1069 05fe 43B3     		cbz	r3, .L94
 1070 0600 95ED087A 		vldr.32	s14, [r5, #32]
 1071 0604 F7EE007A 		vmov.f32	s15, #1.0e+0
 1072 0608 B4EEE77A 		vcmpe.f32	s14, s15
 1073 060c F1EE10FA 		vmrs	APSR_nzcv, FPSCR
 1074 0610 1FDD     		ble	.L94
 1075              	.LVL99:
 1076              	.LBB112:
 1077              		.loc 1 488 0
 1078 0612 90ED020A 		vldr.32	s0, [r0, #8]
 1079              		.loc 1 491 0
 1080 0616 95ED081A 		vldr.32	s2, [r5, #32]
 1081 061a DFED4B0A 		vldr.32	s1, .L232+8
 1082              		.loc 1 488 0
 1083 061e 0190     		str	r0, [sp, #4]
ARM GAS  /tmp/cc9rFHkM.s 			page 20


 1084 0620 B0EEC00A 		vabs.f32	s0, s0
 1085              	.LVL100:
 1086              		.loc 1 491 0
 1087 0624 30EE4C0A 		vsub.f32	s0, s0, s24
 1088              	.LVL101:
 1089 0628 B0EE6B2A 		vmov.f32	s4, s23
 1090 062c F0EE481A 		vmov.f32	s3, s16
 1091 0630 FFF7FEFF 		bl	utils_map
 1092              	.LVL102:
 1093              		.loc 1 492 0
 1094 0634 D9ED837A 		vldr.32	s15, [r9, #524]
 1095 0638 0198     		ldr	r0, [sp, #4]
 1096 063a B0EEC07A 		vabs.f32	s14, s0
 1097 063e B4EEE77A 		vcmpe.f32	s14, s15
 1098 0642 F1EE10FA 		vmrs	APSR_nzcv, FPSCR
 1099 0646 0168     		ldr	r1, [r0]
 1100              		.loc 1 491 0
 1101 0648 F0EE40AA 		vmov.f32	s21, s0
 1102              	.LVL103:
 1103              		.loc 1 493 0
 1104 064c 48BF     		it	mi
 1105 064e F0EE6BAA 		vmovmi.f32	s21, s23
 1106              	.LVL104:
 1107              	.L94:
 1108              	.LBE112:
 1109              		.loc 1 497 0
 1110 0652 C8B2     		uxtb	r0, r1
 1111 0654 B0EE6A0A 		vmov.f32	s0, s21
 1112 0658 FFF7FEFF 		bl	comm_can_set_current
 1113              	.LVL105:
 1114              	.L89:
 1115              	.LBE117:
 1116              	.LBE120:
 1117              		.loc 1 481 0 discriminator 2
 1118 065c 0136     		adds	r6, r6, #1
 1119              	.LVL106:
 1120 065e 0A2E     		cmp	r6, #10
 1121 0660 A6D1     		bne	.L100
 1122              	.LBE123:
 1123              		.loc 1 501 0
 1124 0662 B5EEC08A 		vcmpe.f32	s16, #0
 1125 0666 F1EE10FA 		vmrs	APSR_nzcv, FPSCR
 1126 066a 05DD     		ble	.L101
 1127              		.loc 1 501 0 is_stmt 0 discriminator 1
 1128 066c B5EEC0BA 		vcmpe.f32	s22, #0
 1129 0670 F1EE10FA 		vmrs	APSR_nzcv, FPSCR
 1130 0674 00F19980 		bmi	.L106
 1131              	.L101:
 1132              		.loc 1 501 0 discriminator 4
 1133 0678 B5EEC08A 		vcmpe.f32	s16, #0
 1134 067c F1EE10FA 		vmrs	APSR_nzcv, FPSCR
 1135 0680 00F18D80 		bmi	.L228
 1136              	.L104:
 1137              	.LVL107:
 1138              		.loc 1 503 0 is_stmt 1
 1139 0684 AB7F     		ldrb	r3, [r5, #30]	@ zero_extendqisi2
 1140 0686 002B     		cmp	r3, #0
ARM GAS  /tmp/cc9rFHkM.s 			page 21


 1141 0688 56D0     		beq	.L122
 1142 068a 95ED087A 		vldr.32	s14, [r5, #32]
 1143 068e F7EE007A 		vmov.f32	s15, #1.0e+0
 1144 0692 B4EEE77A 		vcmpe.f32	s14, s15
 1145 0696 F1EE10FA 		vmrs	APSR_nzcv, FPSCR
 1146 069a 4DDD     		ble	.L122
 1147              	.LVL108:
 1148              	.LBB124:
 1149              		.loc 1 505 0
 1150 069c 9FED2A2A 		vldr.32	s4, .L232+8
 1151 06a0 95ED081A 		vldr.32	s2, [r5, #32]
 1152 06a4 F0EE481A 		vmov.f32	s3, s16
 1153 06a8 3CEECC0A 		vsub.f32	s0, s25, s24
 1154              	.LVL109:
 1155 06ac F0EE420A 		vmov.f32	s1, s4
 1156 06b0 FFF7FEFF 		bl	utils_map
 1157              	.LVL110:
 1158              		.loc 1 506 0
 1159 06b4 99ED837A 		vldr.32	s14, [r9, #524]
 1160              		.loc 1 507 0
 1161 06b8 DFED237A 		vldr.32	s15, .L232+8
 1162              		.loc 1 506 0
 1163 06bc F0EEC06A 		vabs.f32	s13, s0
 1164              		.loc 1 507 0
 1165 06c0 F4EE476A 		vcmp.f32	s13, s14
 1166              		.loc 1 505 0
 1167 06c4 B0EE408A 		vmov.f32	s16, s0
 1168              	.LVL111:
 1169              		.loc 1 507 0
 1170 06c8 F1EE10FA 		vmrs	APSR_nzcv, FPSCR
 1171 06cc 48BF     		it	mi
 1172 06ce B0EE678A 		vmovmi.f32	s16, s15
 1173 06d2 ECE5     		b	.L88
 1174              	.LVL112:
 1175              	.L227:
 1176              	.LBE124:
 1177              	.LBB125:
 1178              	.LBB121:
 1179              	.LBB118:
 1180              		.loc 1 485 0 discriminator 5
 1181 06d4 D0ED047A 		vldr.32	s15, [r0, #16]
 1182 06d8 F5EEC07A 		vcmpe.f32	s15, #0
 1183 06dc F1EE10FA 		vmrs	APSR_nzcv, FPSCR
 1184 06e0 8CDD     		ble	.L95
 1185              	.L216:
 1186              	.LVL113:
 1187              		.loc 1 487 0
 1188 06e2 AB7F     		ldrb	r3, [r5, #30]	@ zero_extendqisi2
 1189 06e4 002B     		cmp	r3, #0
 1190 06e6 B4D0     		beq	.L94
 1191 06e8 2B6A     		ldr	r3, [r5, #32]	@ float
 1192 06ea B2E7     		b	.L94
 1193              	.LVL114:
 1194              	.L113:
 1195              	.LBE118:
 1196              	.LBE121:
 1197              	.LBE125:
ARM GAS  /tmp/cc9rFHkM.s 			page 22


 1198              	.LBE127:
 1199              	.LBE180:
 1200 06ec F0EE4B7A 		vmov.f32	s15, s22
 1201 06f0 56E5     		b	.L44
 1202              	.LVL115:
 1203              	.L206:
 1204              	.LBB181:
 1205 06f2 F0EE477A 		vmov.f32	s15, s14
 1206 06f6 31E5     		b	.L21
 1207              	.L22:
 1208              		.loc 1 298 0
 1209 06f8 95ED048A 		vldr.32	s16, [r5, #16]
 1210 06fc 9FED116A 		vldr.32	s12, .L232+4
 1211              		.loc 1 300 0
 1212 0700 D5ED046A 		vldr.32	s13, [r5, #16]
 1213              		.loc 1 298 0
 1214 0704 0E4B     		ldr	r3, .L232
 1215              		.loc 1 294 0
 1216 0706 F1EE10FA 		vmrs	APSR_nzcv, FPSCR
 1217 070a 48BF     		it	mi
 1218 070c 9FED0E7A 		vldrmi.32	s14, .L232+8
 1219              		.loc 1 298 0
 1220 0710 20EE088A 		vmul.f32	s16, s0, s16
 1221              		.loc 1 300 0
 1222 0714 76EEA76A 		vadd.f32	s13, s13, s15
 1223              		.loc 1 298 0
 1224 0718 A8EE067A 		vfma.f32	s14, s16, s12
 1225              		.loc 1 300 0
 1226 071c B4EEE67A 		vcmpe.f32	s14, s13
 1227 0720 F1EE10FA 		vmrs	APSR_nzcv, FPSCR
 1228              		.loc 1 298 0
 1229 0724 83ED007A 		vstr.32	s14, [r3]
 1230              		.loc 1 300 0
 1231 0728 E3DD     		ble	.L206
 1232              		.loc 1 301 0
 1233 072a 95ED047A 		vldr.32	s14, [r5, #16]
 1234 072e 77EE877A 		vadd.f32	s15, s15, s14
 1235 0732 C3ED007A 		vstr.32	s15, [r3]
 1236 0736 11E5     		b	.L21
 1237              	.LVL116:
 1238              	.L122:
 1239              	.LBE181:
 1240              	.LBB182:
 1241              	.LBB128:
 1242              		.loc 1 503 0
 1243 0738 B0EE6A8A 		vmov.f32	s16, s21
 1244              	.LVL117:
 1245 073c B7E5     		b	.L88
 1246              	.L233:
 1247 073e 00BF     		.align	2
 1248              	.L232:
 1249 0740 00000000 		.word	.LANCHOR8
 1250 0744 0AD7A33B 		.word	1000593162
 1251 0748 00000000 		.word	0
 1252 074c 00007A44 		.word	1148846080
 1253 0750 00000000 		.word	.LANCHOR6
 1254 0754 6F12833A 		.word	981668463
ARM GAS  /tmp/cc9rFHkM.s 			page 23


 1255              	.LVL118:
 1256              	.L71:
 1257              	.LBE128:
 1258              	.LBE182:
 1259              	.LBB183:
 1260              		.loc 1 446 0
 1261 0758 78EE4D7A 		vsub.f32	s15, s16, s26
 1262 075c F0EEE77A 		vabs.f32	s15, s15
 1263 0760 F4EEEB7A 		vcmpe.f32	s15, s23
 1264 0764 F1EE10FA 		vmrs	APSR_nzcv, FPSCR
 1265 0768 7FF709AF 		ble	.L72
 1266              		.loc 1 447 0
 1267 076c 7DEEAD0A 		vadd.f32	s1, s27, s27
 1268 0770 B0EE4D0A 		vmov.f32	s0, s26
 1269 0774 05A8     		add	r0, sp, #20
 1270 0776 FFF7FEFF 		bl	utils_step_towards
 1271              	.LVL119:
 1272              	.L74:
 1273              		.loc 1 453 0
 1274 077a F4EEC8AA 		vcmpe.f32	s21, s16
 1275 077e F1EE10FA 		vmrs	APSR_nzcv, FPSCR
 1276              		.loc 1 452 0
 1277 0782 DDED057A 		vldr.32	s15, [sp, #20]
 1278              	.LVL120:
 1279              		.loc 1 453 0
 1280 0786 07DD     		ble	.L209
 1281              		.loc 1 452 0 discriminator 2
 1282 0788 9DED048A 		vldr.32	s16, [sp, #16]
 1283              	.LVL121:
 1284              		.loc 1 453 0 discriminator 2
 1285 078c F4EEC87A 		vcmpe.f32	s15, s16
 1286 0790 F1EE10FA 		vmrs	APSR_nzcv, FPSCR
 1287 0794 7FF579AD 		bpl	.L69
 1288              	.L209:
 1289              		.loc 1 452 0
 1290 0798 B0EE678A 		vmov.f32	s16, s15
 1291 079c F5E6     		b	.L76
 1292              	.LVL122:
 1293              	.L228:
 1294              	.LBE183:
 1295              	.LBB184:
 1296              	.LBB129:
 1297              		.loc 1 501 0 discriminator 5
 1298 079e B5EEC0BA 		vcmpe.f32	s22, #0
 1299 07a2 F1EE10FA 		vmrs	APSR_nzcv, FPSCR
 1300 07a6 7FF76DAF 		ble	.L104
 1301              	.L106:
 1302              	.LVL123:
 1303              		.loc 1 503 0
 1304 07aa AB7F     		ldrb	r3, [r5, #30]	@ zero_extendqisi2
 1305 07ac 002B     		cmp	r3, #0
 1306 07ae C3D0     		beq	.L122
 1307 07b0 2B6A     		ldr	r3, [r5, #32]	@ float
 1308 07b2 B0EE6A8A 		vmov.f32	s16, s21
 1309              	.LVL124:
 1310 07b6 7AE5     		b	.L88
 1311              	.LVL125:
ARM GAS  /tmp/cc9rFHkM.s 			page 24


 1312              	.L58:
 1313              	.LBE129:
 1314              	.LBE184:
 1315              	.LBB185:
 1316              	.LBB150:
 1317              		.loc 1 398 0
 1318 07b8 294B     		ldr	r3, .L234
 1319              		.loc 1 397 0
 1320 07ba 95ED0A0A 		vldr.32	s0, [r5, #40]
 1321              		.loc 1 395 0
 1322 07be 2949     		ldr	r1, .L234+4
 1323              		.loc 1 398 0
 1324 07c0 1B78     		ldrb	r3, [r3]	@ zero_extendqisi2
 1325              		.loc 1 395 0
 1326 07c2 0122     		movs	r2, #1
 1327              		.loc 1 397 0
 1328 07c4 27EEC00A 		vnmul.f32	s0, s15, s0
 1329              	.LVL126:
 1330              		.loc 1 395 0
 1331 07c8 0A70     		strb	r2, [r1]
 1332              		.loc 1 398 0
 1333 07ca 0BB9     		cbnz	r3, .L61
 1334              		.loc 1 398 0 is_stmt 0 discriminator 2
 1335 07cc B1EE400A 		vneg.f32	s0, s0
 1336              	.LVL127:
 1337              	.L61:
 1338              		.loc 1 399 0 is_stmt 1
 1339 07d0 95ED0A7A 		vldr.32	s14, [r5, #40]
 1340 07d4 DFED247A 		vldr.32	s15, .L234+8
 1341 07d8 D5ED0B0A 		vldr.32	s1, [r5, #44]
 1342              		.loc 1 398 0
 1343 07dc 2348     		ldr	r0, .L234+12
 1344              		.loc 1 399 0
 1345 07de 67EE277A 		vmul.f32	s15, s14, s15
 1346              		.loc 1 398 0
 1347 07e2 C7EEA00A 		vdiv.f32	s1, s15, s1
 1348 07e6 FFF7FEFF 		bl	utils_step_towards
 1349              	.LVL128:
 1350              		.loc 1 401 0
 1351 07ea 204B     		ldr	r3, .L234+12
 1352 07ec 93ED000A 		vldr.32	s0, [r3]
 1353 07f0 FFF7FEFF 		bl	mc_interface_set_duty
 1354              	.LVL129:
 1355              		.loc 1 404 0
 1356 07f4 6B7F     		ldrb	r3, [r5, #29]	@ zero_extendqisi2
 1357 07f6 83B9     		cbnz	r3, .L229
 1358              	.L62:
 1359              		.loc 1 416 0
 1360 07f8 1D4B     		ldr	r3, .L234+16
 1361              	.LBE150:
 1362              	.LBE185:
 1363              		.loc 1 332 0
 1364 07fa 0026     		movs	r6, #0
 1365              	.LBB186:
 1366              	.LBB158:
 1367              		.loc 1 416 0
 1368 07fc C3ED00AA 		vstr.32	s21, [r3]
ARM GAS  /tmp/cc9rFHkM.s 			page 25


 1369              		.loc 1 418 0
 1370 0800 19E4     		b	.L9
 1371              	.LVL130:
 1372              	.L15:
 1373              	.LBE158:
 1374              	.LBE186:
 1375              		.loc 1 254 0
 1376 0802 174A     		ldr	r2, .L234
 1377 0804 0123     		movs	r3, #1
 1378 0806 1370     		strb	r3, [r2]
 1379 0808 67E4     		b	.L12
 1380              	.LVL131:
 1381              	.L226:
 1382              	.LBB187:
 1383              		.loc 1 443 0
 1384 080a 7DEEAD0A 		vadd.f32	s1, s27, s27
 1385 080e B1EE4D0A 		vneg.f32	s0, s26
 1386 0812 05A8     		add	r0, sp, #20
 1387 0814 FFF7FEFF 		bl	utils_step_towards
 1388              	.LVL132:
 1389 0818 AFE7     		b	.L74
 1390              	.LVL133:
 1391              	.L229:
 1392              	.LBE187:
 1393              	.LBB188:
 1394              	.LBB159:
 1395              	.LBB151:
 1396              		.loc 1 405 0
 1397 081a 0026     		movs	r6, #0
 1398 081c 01E0     		b	.L65
 1399              	.LVL134:
 1400              	.L63:
 1401              		.loc 1 405 0 is_stmt 0 discriminator 2
 1402 081e 0A2E     		cmp	r6, #10
 1403 0820 EAD0     		beq	.L62
 1404              	.LVL135:
 1405              	.L65:
 1406              	.LBB152:
 1407              		.loc 1 406 0 is_stmt 1
 1408 0822 3046     		mov	r0, r6
 1409 0824 FFF7FEFF 		bl	comm_can_get_status_msg_index
 1410              	.LVL136:
 1411              		.loc 1 408 0
 1412 0828 0268     		ldr	r2, [r0]
 1413 082a 002A     		cmp	r2, #0
 1414              	.LBE152:
 1415              		.loc 1 405 0
 1416 082c 06F10106 		add	r6, r6, #1
 1417              	.LVL137:
 1418              	.LBB157:
 1419              		.loc 1 408 0
 1420 0830 F5DB     		blt	.L63
 1421              	.LBB153:
 1422              	.LBB154:
 1423              		.loc 3 267 0 discriminator 1
 1424 0832 4168     		ldr	r1, [r0, #4]
 1425              	.LBB155:
ARM GAS  /tmp/cc9rFHkM.s 			page 26


 1426              	.LBB156:
 1427              		.loc 3 231 0 discriminator 1
 1428 0834 D8F82830 		ldr	r3, [r8, #40]
 1429              	.LVL138:
 1430              	.LBE156:
 1431              	.LBE155:
 1432              		.loc 3 267 0 discriminator 1
 1433 0838 5B1A     		subs	r3, r3, r1
 1434              	.LBE154:
 1435              	.LBE153:
 1436              		.loc 1 408 0 discriminator 1
 1437 083a 07EE903A 		vmov	s15, r3	@ int
 1438 083e F8EE677A 		vcvt.f32.u32	s15, s15
 1439 0842 87EE897A 		vdiv.f32	s14, s15, s18
 1440 0846 B4EEE87A 		vcmpe.f32	s14, s17
 1441 084a F1EE10FA 		vmrs	APSR_nzcv, FPSCR
 1442 084e E6D5     		bpl	.L63
 1443              		.loc 1 409 0
 1444 0850 064B     		ldr	r3, .L234+12
 1445 0852 D0B2     		uxtb	r0, r2
 1446              	.LVL139:
 1447 0854 93ED000A 		vldr.32	s0, [r3]
 1448 0858 FFF7FEFF 		bl	comm_can_set_duty
 1449              	.LVL140:
 1450 085c DFE7     		b	.L63
 1451              	.L235:
 1452 085e 00BF     		.align	2
 1453              	.L234:
 1454 0860 00000000 		.word	.LANCHOR6
 1455 0864 00000000 		.word	.LANCHOR10
 1456 0868 0AD7A33B 		.word	1000593162
 1457 086c 00000000 		.word	.LANCHOR11
 1458 0870 00000000 		.word	.LANCHOR9
 1459              	.LBE157:
 1460              	.LBE151:
 1461              	.LBE159:
 1462              	.LBE188:
 1463              	.LBE190:
 1464              		.cfi_endproc
 1465              	.LFE262:
 1466              		.size	output_thread, .-output_thread
 1467              		.section	.text.app_nunchuk_configure,"ax",%progbits
 1468              		.align	1
 1469              		.p2align 4,,15
 1470              		.global	app_nunchuk_configure
 1471              		.syntax unified
 1472              		.thumb
 1473              		.thumb_func
 1474              		.fpu fpv4-sp-d16
 1475              		.type	app_nunchuk_configure, %function
 1476              	app_nunchuk_configure:
 1477              	.LFB256:
 1478              		.loc 1 58 0
 1479              		.cfi_startproc
 1480              		@ args = 0, pretend = 0, frame = 0
 1481              		@ frame_needed = 0, uses_anonymous_args = 0
 1482              		@ link register save eliminated.
ARM GAS  /tmp/cc9rFHkM.s 			page 27


 1483              	.LVL141:
 1484 0000 30B4     		push	{r4, r5}
 1485              		.cfi_def_cfa_offset 8
 1486              		.cfi_offset 4, -8
 1487              		.cfi_offset 5, -4
 1488              		.loc 1 59 0
 1489 0002 0546     		mov	r5, r0
 1490 0004 0FCD     		ldmia	r5!, {r0, r1, r2, r3}
 1491              	.LVL142:
 1492 0006 074C     		ldr	r4, .L238
 1493 0008 0FC4     		stmia	r4!, {r0, r1, r2, r3}
 1494 000a 0FCD     		ldmia	r5!, {r0, r1, r2, r3}
 1495              	.LVL143:
 1496 000c 0FC4     		stmia	r4!, {r0, r1, r2, r3}
 1497 000e 95E80F00 		ldm	r5, {r0, r1, r2, r3}
 1498 0012 84E80F00 		stm	r4, {r0, r1, r2, r3}
 1499              		.loc 1 61 0
 1500 0016 044B     		ldr	r3, .L238+4
 1501 0018 0449     		ldr	r1, .L238+8
 1502 001a 0548     		ldr	r0, .L238+12
 1503 001c 0022     		movs	r2, #0
 1504              		.loc 1 66 0
 1505 001e 30BC     		pop	{r4, r5}
 1506              		.cfi_restore 5
 1507              		.cfi_restore 4
 1508              		.cfi_def_cfa_offset 0
 1509              	.LVL144:
 1510              		.loc 1 61 0
 1511 0020 FFF7FEBF 		b	terminal_register_command_callback
 1512              	.LVL145:
 1513              	.L239:
 1514              		.align	2
 1515              	.L238:
 1516 0024 00000000 		.word	.LANCHOR3
 1517 0028 00000000 		.word	terminal_cmd_nunchuk_status
 1518 002c 00000000 		.word	.LC6
 1519 0030 24000000 		.word	.LC7
 1520              		.cfi_endproc
 1521              	.LFE256:
 1522              		.size	app_nunchuk_configure, .-app_nunchuk_configure
 1523              		.section	.text.app_nunchuk_start,"ax",%progbits
 1524              		.align	1
 1525              		.p2align 4,,15
 1526              		.global	app_nunchuk_start
 1527              		.syntax unified
 1528              		.thumb
 1529              		.thumb_func
 1530              		.fpu fpv4-sp-d16
 1531              		.type	app_nunchuk_start, %function
 1532              	app_nunchuk_start:
 1533              	.LFB257:
 1534              		.loc 1 68 0
 1535              		.cfi_startproc
 1536              		@ args = 0, pretend = 0, frame = 0
 1537              		@ frame_needed = 0, uses_anonymous_args = 0
 1538 0000 10B5     		push	{r4, lr}
 1539              		.cfi_def_cfa_offset 8
ARM GAS  /tmp/cc9rFHkM.s 			page 28


 1540              		.cfi_offset 4, -8
 1541              		.cfi_offset 14, -4
 1542              		.loc 1 69 0
 1543 0002 094A     		ldr	r2, .L242
 1544              		.loc 1 70 0
 1545 0004 094B     		ldr	r3, .L242+4
 1546              		.loc 1 68 0
 1547 0006 82B0     		sub	sp, sp, #8
 1548              		.cfi_def_cfa_offset 16
 1549              		.loc 1 69 0
 1550 0008 8021     		movs	r1, #128
 1551              		.loc 1 70 0
 1552 000a 0024     		movs	r4, #0
 1553              		.loc 1 69 0
 1554 000c 5160     		str	r1, [r2, #4]
 1555              		.loc 1 70 0
 1556 000e 1C70     		strb	r4, [r3]
 1557              		.loc 1 71 0
 1558 0010 FFF7FEFF 		bl	hw_start_i2c
 1559              	.LVL146:
 1560              		.loc 1 72 0
 1561 0014 0094     		str	r4, [sp]
 1562 0016 064B     		ldr	r3, .L242+8
 1563 0018 0648     		ldr	r0, .L242+12
 1564 001a 4022     		movs	r2, #64
 1565 001c 4FF46871 		mov	r1, #928
 1566 0020 FFF7FEFF 		bl	chThdCreateStatic
 1567              	.LVL147:
 1568              		.loc 1 73 0
 1569 0024 02B0     		add	sp, sp, #8
 1570              		.cfi_def_cfa_offset 8
 1571              		@ sp needed
 1572 0026 10BD     		pop	{r4, pc}
 1573              	.L243:
 1574              		.align	2
 1575              	.L242:
 1576 0028 00000000 		.word	.LANCHOR5
 1577 002c 00000000 		.word	.LANCHOR12
 1578 0030 00000000 		.word	chuk_thread
 1579 0034 00000000 		.word	.LANCHOR13
 1580              		.cfi_endproc
 1581              	.LFE257:
 1582              		.size	app_nunchuk_start, .-app_nunchuk_start
 1583              		.section	.text.app_nunchuk_stop,"ax",%progbits
 1584              		.align	1
 1585              		.p2align 4,,15
 1586              		.global	app_nunchuk_stop
 1587              		.syntax unified
 1588              		.thumb
 1589              		.thumb_func
 1590              		.fpu fpv4-sp-d16
 1591              		.type	app_nunchuk_stop, %function
 1592              	app_nunchuk_stop:
 1593              	.LFB258:
 1594              		.loc 1 75 0
 1595              		.cfi_startproc
 1596              		@ args = 0, pretend = 0, frame = 0
ARM GAS  /tmp/cc9rFHkM.s 			page 29


 1597              		@ frame_needed = 0, uses_anonymous_args = 0
 1598              		.loc 1 76 0
 1599 0000 084B     		ldr	r3, .L258
 1600              		.loc 1 75 0
 1601 0002 10B5     		push	{r4, lr}
 1602              		.cfi_def_cfa_offset 8
 1603              		.cfi_offset 4, -8
 1604              		.cfi_offset 14, -4
 1605              		.loc 1 76 0
 1606 0004 0122     		movs	r2, #1
 1607              		.loc 1 78 0
 1608 0006 084C     		ldr	r4, .L258+4
 1609              		.loc 1 76 0
 1610 0008 1A70     		strb	r2, [r3]
 1611              		.loc 1 78 0
 1612 000a 2378     		ldrb	r3, [r4]	@ zero_extendqisi2
 1613 000c 1BB1     		cbz	r3, .L256
 1614 000e 06E0     		b	.L257
 1615              	.L247:
 1616              		.loc 1 83 0
 1617 0010 0A20     		movs	r0, #10
 1618 0012 FFF7FEFF 		bl	chThdSleep
 1619              	.LVL148:
 1620              	.L256:
 1621              		.loc 1 82 0
 1622 0016 2378     		ldrb	r3, [r4]	@ zero_extendqisi2
 1623 0018 002B     		cmp	r3, #0
 1624 001a F9D1     		bne	.L247
 1625              		.loc 1 85 0
 1626 001c 10BD     		pop	{r4, pc}
 1627              	.L257:
 1628              		.loc 1 79 0
 1629 001e FFF7FEFF 		bl	hw_stop_i2c
 1630              	.LVL149:
 1631 0022 F8E7     		b	.L256
 1632              	.L259:
 1633              		.align	2
 1634              	.L258:
 1635 0024 00000000 		.word	.LANCHOR12
 1636 0028 00000000 		.word	.LANCHOR14
 1637              		.cfi_endproc
 1638              	.LFE258:
 1639              		.size	app_nunchuk_stop, .-app_nunchuk_stop
 1640              		.section	.text.app_nunchuk_get_decoded_chuk,"ax",%progbits
 1641              		.align	1
 1642              		.p2align 4,,15
 1643              		.global	app_nunchuk_get_decoded_chuk
 1644              		.syntax unified
 1645              		.thumb
 1646              		.thumb_func
 1647              		.fpu fpv4-sp-d16
 1648              		.type	app_nunchuk_get_decoded_chuk, %function
 1649              	app_nunchuk_get_decoded_chuk:
 1650              	.LFB259:
 1651              		.loc 1 87 0
 1652              		.cfi_startproc
 1653              		@ args = 0, pretend = 0, frame = 0
ARM GAS  /tmp/cc9rFHkM.s 			page 30


 1654              		@ frame_needed = 0, uses_anonymous_args = 0
 1655              		@ link register save eliminated.
 1656              		.loc 1 88 0
 1657 0000 064B     		ldr	r3, .L261
 1658 0002 9FED077A 		vldr.32	s14, .L261+4
 1659 0006 D3ED017A 		vldr.32	s15, [r3, #4]	@ int
 1660 000a 9FED060A 		vldr.32	s0, .L261+8
 1661 000e F8EEE77A 		vcvt.f32.s32	s15, s15
 1662 0012 77EEC77A 		vsub.f32	s15, s15, s14
 1663              		.loc 1 89 0
 1664 0016 27EE800A 		vmul.f32	s0, s15, s0
 1665 001a 7047     		bx	lr
 1666              	.L262:
 1667              		.align	2
 1668              	.L261:
 1669 001c 00000000 		.word	.LANCHOR5
 1670 0020 00000043 		.word	1124073472
 1671 0024 0000003C 		.word	1006632960
 1672              		.cfi_endproc
 1673              	.LFE259:
 1674              		.size	app_nunchuk_get_decoded_chuk, .-app_nunchuk_get_decoded_chuk
 1675              		.section	.text.app_nunchuk_update_output,"ax",%progbits
 1676              		.align	1
 1677              		.p2align 4,,15
 1678              		.global	app_nunchuk_update_output
 1679              		.syntax unified
 1680              		.thumb
 1681              		.thumb_func
 1682              		.fpu fpv4-sp-d16
 1683              		.type	app_nunchuk_update_output, %function
 1684              	app_nunchuk_update_output:
 1685              	.LFB260:
 1686              		.loc 1 91 0
 1687              		.cfi_startproc
 1688              		@ args = 0, pretend = 0, frame = 0
 1689              		@ frame_needed = 0, uses_anonymous_args = 0
 1690              	.LVL150:
 1691 0000 F0B5     		push	{r4, r5, r6, r7, lr}
 1692              		.cfi_def_cfa_offset 20
 1693              		.cfi_offset 4, -20
 1694              		.cfi_offset 5, -16
 1695              		.cfi_offset 6, -12
 1696              		.cfi_offset 7, -8
 1697              		.cfi_offset 14, -4
 1698              		.loc 1 92 0
 1699 0002 144A     		ldr	r2, .L268
 1700 0004 1378     		ldrb	r3, [r2]	@ zero_extendqisi2
 1701              		.loc 1 91 0
 1702 0006 83B0     		sub	sp, sp, #12
 1703              		.cfi_def_cfa_offset 32
 1704              		.loc 1 91 0
 1705 0008 0446     		mov	r4, r0
 1706              		.loc 1 92 0
 1707 000a 8BB1     		cbz	r3, .L266
 1708 000c 124E     		ldr	r6, .L268+4
 1709              	.LVL151:
 1710              	.L264:
ARM GAS  /tmp/cc9rFHkM.s 			page 31


 1711              		.loc 1 99 0
 1712 000e 134D     		ldr	r5, .L268+8
 1713 0010 0FCC     		ldmia	r4!, {r0, r1, r2, r3}
 1714              	.LVL152:
 1715 0012 0FC5     		stmia	r5!, {r0, r1, r2, r3}
 1716 0014 94E80300 		ldm	r4, {r0, r1}
 1717 0018 85E80300 		stm	r5, {r0, r1}
 1718              	.LBB191:
 1719              	.LBB192:
 1720              	.LBB193:
 1721              	.LBB194:
 1722              	.LBB195:
 1723              	.LBB196:
 1724              		.file 4 "ChibiOS_3.0.5/os/ext/CMSIS/include/core_cmFunc.h"
 1725              		.loc 4 342 0
 1726              		.syntax unified
 1727              	@ 342 "ChibiOS_3.0.5/os/ext/CMSIS/include/core_cmFunc.h" 1
 1728 001c 72B6     		cpsid i
 1729              	@ 0 "" 2
 1730              		.thumb
 1731              		.syntax unified
 1732              	.LBE196:
 1733              	.LBE195:
 1734              	.LBE194:
 1735              	.LBE193:
 1736              	.LBB197:
 1737              	.LBB198:
 1738              		.loc 3 231 0
 1739 001e 104B     		ldr	r3, .L268+12
 1740 0020 9B6A     		ldr	r3, [r3, #40]
 1741              	.LBE198:
 1742              	.LBE197:
 1743              	.LBB199:
 1744              	.LBB200:
 1745              	.LBB201:
 1746              	.LBB202:
 1747              	.LBB203:
 1748              		.loc 4 331 0
 1749              		.syntax unified
 1750              	@ 331 "ChibiOS_3.0.5/os/ext/CMSIS/include/core_cmFunc.h" 1
 1751 0022 62B6     		cpsie i
 1752              	@ 0 "" 2
 1753              		.thumb
 1754              		.syntax unified
 1755              	.LBE203:
 1756              	.LBE202:
 1757              	.LBE201:
 1758              	.LBE200:
 1759              	.LBE199:
 1760              	.LBE192:
 1761              	.LBE191:
 1762              		.loc 1 100 0
 1763 0024 3360     		str	r3, [r6]
 1764              		.loc 1 102 0
 1765 0026 03B0     		add	sp, sp, #12
 1766              		.cfi_remember_state
 1767              		.cfi_def_cfa_offset 20
ARM GAS  /tmp/cc9rFHkM.s 			page 32


 1768              		@ sp needed
 1769 0028 BDE8F040 		pop	{r4, r5, r6, r7, lr}
 1770              		.cfi_restore 14
 1771              		.cfi_restore 7
 1772              		.cfi_restore 6
 1773              		.cfi_restore 5
 1774              		.cfi_restore 4
 1775              		.cfi_def_cfa_offset 0
 1776              	.LVL153:
 1777              		.loc 1 101 0
 1778 002c FFF7FEBF 		b	timeout_reset
 1779              	.LVL154:
 1780              	.L266:
 1781              		.cfi_restore_state
 1782              		.loc 1 93 0
 1783 0030 094E     		ldr	r6, .L268+4
 1784              		.loc 1 95 0
 1785 0032 0A48     		ldr	r0, .L268+8
 1786              	.LVL155:
 1787 0034 03F0FF01 		and	r1, r3, #255
 1788              		.loc 1 94 0
 1789 0038 0127     		movs	r7, #1
 1790              		.loc 1 95 0
 1791 003a 8025     		movs	r5, #128
 1792              		.loc 1 96 0
 1793 003c 0091     		str	r1, [sp]
 1794              		.loc 1 93 0
 1795 003e 3160     		str	r1, [r6]
 1796              		.loc 1 96 0
 1797 0040 084B     		ldr	r3, .L268+16
 1798              		.loc 1 94 0
 1799 0042 1770     		strb	r7, [r2]
 1800              		.loc 1 96 0
 1801 0044 4FF46871 		mov	r1, #928
 1802              		.loc 1 95 0
 1803 0048 4560     		str	r5, [r0, #4]
 1804              		.loc 1 96 0
 1805 004a 4022     		movs	r2, #64
 1806 004c 0648     		ldr	r0, .L268+20
 1807 004e FFF7FEFF 		bl	chThdCreateStatic
 1808              	.LVL156:
 1809 0052 DCE7     		b	.L264
 1810              	.L269:
 1811              		.align	2
 1812              	.L268:
 1813 0054 00000000 		.word	.LANCHOR0
 1814 0058 00000000 		.word	.LANCHOR4
 1815 005c 00000000 		.word	.LANCHOR5
 1816 0060 00000000 		.word	ch
 1817 0064 00000000 		.word	output_thread
 1818 0068 00000000 		.word	.LANCHOR15
 1819              		.cfi_endproc
 1820              	.LFE260:
 1821              		.size	app_nunchuk_update_output, .-app_nunchuk_update_output
 1822              		.section	.text.chuk_thread,"ax",%progbits
 1823              		.align	1
 1824              		.p2align 4,,15
ARM GAS  /tmp/cc9rFHkM.s 			page 33


 1825              		.syntax unified
 1826              		.thumb
 1827              		.thumb_func
 1828              		.fpu fpv4-sp-d16
 1829              		.type	chuk_thread, %function
 1830              	chuk_thread:
 1831              	.LFB261:
 1832              		.loc 1 104 0
 1833              		.cfi_startproc
 1834              		@ args = 0, pretend = 0, frame = 48
 1835              		@ frame_needed = 0, uses_anonymous_args = 0
 1836              	.LVL157:
 1837 0000 2DE9F04F 		push	{r4, r5, r6, r7, r8, r9, r10, fp, lr}
 1838              		.cfi_def_cfa_offset 36
 1839              		.cfi_offset 4, -36
 1840              		.cfi_offset 5, -32
 1841              		.cfi_offset 6, -28
 1842              		.cfi_offset 7, -24
 1843              		.cfi_offset 8, -20
 1844              		.cfi_offset 9, -16
 1845              		.cfi_offset 10, -12
 1846              		.cfi_offset 11, -8
 1847              		.cfi_offset 14, -4
 1848              	.LBB204:
 1849              	.LBB205:
 1850              		.loc 2 135 0
 1851 0004 704B     		ldr	r3, .L287
 1852 0006 714A     		ldr	r2, .L287+4
 1853 0008 9B69     		ldr	r3, [r3, #24]
 1854              	.LBE205:
 1855              	.LBE204:
 1856              	.LBB207:
 1857              		.loc 1 123 0
 1858 000a DFF8D4A1 		ldr	r10, .L287+24
 1859              	.LBE207:
 1860              	.LBB212:
 1861              	.LBB206:
 1862              		.loc 2 135 0
 1863 000e 9A61     		str	r2, [r3, #24]
 1864              	.LVL158:
 1865              	.LBE206:
 1866              	.LBE212:
 1867              		.loc 1 108 0
 1868 0010 6F4A     		ldr	r2, .L287+8
 1869 0012 0123     		movs	r3, #1
 1870              		.loc 1 104 0
 1871 0014 91B0     		sub	sp, sp, #68
 1872              		.cfi_def_cfa_offset 104
 1873              		.loc 1 108 0
 1874 0016 1370     		strb	r3, [r2]
 1875              	.LVL159:
 1876              		.loc 1 117 0
 1877 0018 FFF7FEFF 		bl	hw_start_i2c
 1878              	.LVL160:
 1879              		.loc 1 118 0
 1880 001c 6420     		movs	r0, #100
 1881 001e FFF7FEFF 		bl	chThdSleep
ARM GAS  /tmp/cc9rFHkM.s 			page 34


 1882              	.LVL161:
 1883              	.LBB213:
 1884              		.loc 1 123 0
 1885 0022 9AF80030 		ldrb	r3, [r10]	@ zero_extendqisi2
 1886 0026 002B     		cmp	r3, #0
 1887 0028 40F0CA80 		bne	.L285
 1888 002c DFF8A8B1 		ldr	fp, .L287+16
 1889 0030 DFF8B091 		ldr	r9, .L287+28
 1890              		.loc 1 131 0
 1891 0034 674C     		ldr	r4, .L287+12
 1892 0036 0BF10606 		add	r6, fp, #6
 1893 003a 04AD     		add	r5, sp, #16
 1894 003c 0FE0     		b	.L271
 1895              	.LVL162:
 1896              	.L272:
 1897              		.loc 1 193 0
 1898 003e 0223     		movs	r3, #2
 1899 0040 C9F80030 		str	r3, [r9]
 1900              		.loc 1 194 0
 1901 0044 FFF7FEFF 		bl	hw_try_restore_i2c
 1902              	.LVL163:
 1903              		.loc 1 195 0
 1904 0048 4FF47A70 		mov	r0, #1000
 1905 004c FFF7FEFF 		bl	chThdSleep
 1906              	.LVL164:
 1907              	.L276:
 1908              		.loc 1 198 0
 1909 0050 6420     		movs	r0, #100
 1910 0052 FFF7FEFF 		bl	chThdSleep
 1911              	.LVL165:
 1912              		.loc 1 123 0
 1913 0056 9AF80030 		ldrb	r3, [r10]	@ zero_extendqisi2
 1914 005a 002B     		cmp	r3, #0
 1915 005c 77D1     		bne	.L277
 1916              	.L271:
 1917              		.loc 1 129 0
 1918 005e 45F2F053 		movw	r3, #22000
 1919              		.loc 1 131 0
 1920 0062 2046     		mov	r0, r4
 1921              		.loc 1 129 0
 1922 0064 ADF81C30 		strh	r3, [sp, #28]	@ movhi
 1923              		.loc 1 132 0
 1924 0068 3227     		movs	r7, #50
 1925              		.loc 1 131 0
 1926 006a FFF7FEFF 		bl	i2cAcquireBus
 1927              	.LVL166:
 1928              		.loc 1 132 0
 1929 006e 0023     		movs	r3, #0
 1930 0070 CDE90137 		strd	r3, r7, [sp, #4]
 1931 0074 0095     		str	r5, [sp]
 1932 0076 0223     		movs	r3, #2
 1933 0078 07AA     		add	r2, sp, #28
 1934 007a 5221     		movs	r1, #82
 1935 007c 2046     		mov	r0, r4
 1936 007e FFF7FEFF 		bl	i2cMasterTransmitTimeout
 1937              	.LVL167:
 1938 0082 8046     		mov	r8, r0
ARM GAS  /tmp/cc9rFHkM.s 			page 35


 1939              	.LVL168:
 1940              		.loc 1 133 0
 1941 0084 2046     		mov	r0, r4
 1942              	.LVL169:
 1943 0086 FFF7FEFF 		bl	i2cReleaseBus
 1944              	.LVL170:
 1945              		.loc 1 136 0
 1946 008a B8F1000F 		cmp	r8, #0
 1947 008e D6D1     		bne	.L272
 1948              		.loc 1 137 0
 1949 0090 FB23     		movs	r3, #251
 1950              		.loc 1 139 0
 1951 0092 2046     		mov	r0, r4
 1952              		.loc 1 137 0
 1953 0094 ADF81C30 		strh	r3, [sp, #28]	@ movhi
 1954              		.loc 1 139 0
 1955 0098 FFF7FEFF 		bl	i2cAcquireBus
 1956              	.LVL171:
 1957              		.loc 1 140 0
 1958 009c CDE90187 		strd	r8, r7, [sp, #4]
 1959 00a0 0095     		str	r5, [sp]
 1960 00a2 0223     		movs	r3, #2
 1961 00a4 07AA     		add	r2, sp, #28
 1962 00a6 5221     		movs	r1, #82
 1963 00a8 2046     		mov	r0, r4
 1964 00aa FFF7FEFF 		bl	i2cMasterTransmitTimeout
 1965              	.LVL172:
 1966 00ae 8046     		mov	r8, r0
 1967              	.LVL173:
 1968              		.loc 1 141 0
 1969 00b0 2046     		mov	r0, r4
 1970              	.LVL174:
 1971 00b2 FFF7FEFF 		bl	i2cReleaseBus
 1972              	.LVL175:
 1973              		.loc 1 145 0
 1974 00b6 B8F1000F 		cmp	r8, #0
 1975 00ba C0D1     		bne	.L272
 1976              		.loc 1 147 0
 1977 00bc 2046     		mov	r0, r4
 1978              		.loc 1 146 0
 1979 00be 8DF81C80 		strb	r8, [sp, #28]
 1980              		.loc 1 147 0
 1981 00c2 FFF7FEFF 		bl	i2cAcquireBus
 1982              	.LVL176:
 1983              		.loc 1 148 0
 1984 00c6 CDE90187 		strd	r8, r7, [sp, #4]
 1985 00ca 0095     		str	r5, [sp]
 1986 00cc 0123     		movs	r3, #1
 1987 00ce 07AA     		add	r2, sp, #28
 1988 00d0 5221     		movs	r1, #82
 1989 00d2 2046     		mov	r0, r4
 1990 00d4 FFF7FEFF 		bl	i2cMasterTransmitTimeout
 1991              	.LVL177:
 1992 00d8 8046     		mov	r8, r0
 1993              	.LVL178:
 1994              		.loc 1 149 0
 1995 00da 2046     		mov	r0, r4
ARM GAS  /tmp/cc9rFHkM.s 			page 36


 1996              	.LVL179:
 1997 00dc FFF7FEFF 		bl	i2cReleaseBus
 1998              	.LVL180:
 1999              		.loc 1 153 0
 2000 00e0 B8F1000F 		cmp	r8, #0
 2001 00e4 ABD1     		bne	.L272
 2002              		.loc 1 154 0
 2003 00e6 1E20     		movs	r0, #30
 2004 00e8 FFF7FEFF 		bl	chThdSleep
 2005              	.LVL181:
 2006              		.loc 1 156 0
 2007 00ec 2046     		mov	r0, r4
 2008 00ee FFF7FEFF 		bl	i2cAcquireBus
 2009              	.LVL182:
 2010              		.loc 1 157 0
 2011 00f2 0097     		str	r7, [sp]
 2012 00f4 0623     		movs	r3, #6
 2013 00f6 2A46     		mov	r2, r5
 2014 00f8 5221     		movs	r1, #82
 2015 00fa 2046     		mov	r0, r4
 2016 00fc FFF7FEFF 		bl	i2cMasterReceiveTimeout
 2017              	.LVL183:
 2018 0100 0746     		mov	r7, r0
 2019              	.LVL184:
 2020              		.loc 1 158 0
 2021 0102 2046     		mov	r0, r4
 2022              	.LVL185:
 2023 0104 FFF7FEFF 		bl	i2cReleaseBus
 2024              	.LVL186:
 2025              		.loc 1 162 0
 2026 0108 002F     		cmp	r7, #0
 2027 010a 98D1     		bne	.L272
 2028 010c 324B     		ldr	r3, .L287+16
 2029 010e 2946     		mov	r1, r5
 2030              	.LBB208:
 2031              		.loc 1 164 0
 2032 0110 0122     		movs	r2, #1
 2033              	.LVL187:
 2034              	.L274:
 2035              	.LBB209:
 2036              		.loc 1 167 0
 2037 0112 13F8017B 		ldrb	r7, [r3], #1	@ zero_extendqisi2
 2038              	.LVL188:
 2039 0116 11F8010B 		ldrb	r0, [r1], #1	@ zero_extendqisi2
 2040              		.loc 1 168 0
 2041 011a 8742     		cmp	r7, r0
 2042 011c 18BF     		it	ne
 2043 011e 0022     		movne	r2, #0
 2044              	.LVL189:
 2045              		.loc 1 166 0
 2046 0120 9E42     		cmp	r6, r3
 2047 0122 F6D1     		bne	.L274
 2048              	.LBE209:
 2049              		.loc 1 172 0
 2050 0124 95E80300 		ldm	r5, {r0, r1}
 2051 0128 2C4B     		ldr	r3, .L287+20
 2052              	.LVL190:
ARM GAS  /tmp/cc9rFHkM.s 			page 37


 2053 012a CBF80000 		str	r0, [fp]
 2054 012e 1980     		strh	r1, [r3]	@ movhi
 2055              		.loc 1 174 0
 2056 0130 AAB1     		cbz	r2, .L286
 2057              	.LVL191:
 2058              	.L275:
 2059              		.loc 1 189 0
 2060 0132 FFF7FEFF 		bl	timeout_has_timeout
 2061              	.LVL192:
 2062 0136 0028     		cmp	r0, #0
 2063 0138 8AD0     		beq	.L276
 2064              		.loc 1 190 0
 2065 013a 0123     		movs	r3, #1
 2066              	.LBE208:
 2067              		.loc 1 198 0
 2068 013c 6420     		movs	r0, #100
 2069              	.LBB210:
 2070              		.loc 1 190 0
 2071 013e C9F80030 		str	r3, [r9]
 2072              	.LBE210:
 2073              		.loc 1 198 0
 2074 0142 FFF7FEFF 		bl	chThdSleep
 2075              	.LVL193:
 2076              		.loc 1 123 0
 2077 0146 9AF80030 		ldrb	r3, [r10]	@ zero_extendqisi2
 2078 014a 002B     		cmp	r3, #0
 2079 014c 87D0     		beq	.L271
 2080              	.L277:
 2081              		.loc 1 124 0
 2082 014e 204A     		ldr	r2, .L287+8
 2083 0150 0023     		movs	r3, #0
 2084 0152 1370     		strb	r3, [r2]
 2085              		.loc 1 125 0
 2086 0154 C9F80030 		str	r3, [r9]
 2087              	.LBE213:
 2088              		.loc 1 200 0
 2089 0158 11B0     		add	sp, sp, #68
 2090              		.cfi_remember_state
 2091              		.cfi_def_cfa_offset 36
 2092              		@ sp needed
 2093 015a BDE8F08F 		pop	{r4, r5, r6, r7, r8, r9, r10, fp, pc}
 2094              	.LVL194:
 2095              	.L286:
 2096              		.cfi_restore_state
 2097              	.LBB214:
 2098              	.LBB211:
 2099              		.loc 1 178 0
 2100 015e 9DF81530 		ldrb	r3, [sp, #21]	@ zero_extendqisi2
 2101 0162 9DF81200 		ldrb	r0, [sp, #18]	@ zero_extendqisi2
 2102              		.loc 1 179 0
 2103 0166 9DF81310 		ldrb	r1, [sp, #19]	@ zero_extendqisi2
 2104              		.loc 1 175 0
 2105 016a C9F80020 		str	r2, [r9]
 2106              		.loc 1 183 0
 2107 016e 8DF83E20 		strb	r2, [sp, #62]
 2108              		.loc 1 184 0
 2109 0172 8DF83F20 		strb	r2, [sp, #63]
ARM GAS  /tmp/cc9rFHkM.s 			page 38


 2110              		.loc 1 178 0
 2111 0176 C3F38102 		ubfx	r2, r3, #2, #2
 2112              	.LVL195:
 2113              		.loc 1 180 0
 2114 017a 9DF81470 		ldrb	r7, [sp, #20]	@ zero_extendqisi2
 2115              		.loc 1 178 0
 2116 017e 42EA8002 		orr	r2, r2, r0, lsl #2
 2117              		.loc 1 179 0
 2118 0182 C3F30110 		ubfx	r0, r3, #4, #2
 2119 0186 40EA8100 		orr	r0, r0, r1, lsl #2
 2120              		.loc 1 180 0
 2121 018a 9909     		lsrs	r1, r3, #6
 2122 018c 41EA8701 		orr	r1, r1, r7, lsl #2
 2123              		.loc 1 178 0
 2124 0190 0C92     		str	r2, [sp, #48]
 2125              		.loc 1 176 0
 2126 0192 9DF81070 		ldrb	r7, [sp, #16]	@ zero_extendqisi2
 2127              		.loc 1 180 0
 2128 0196 0E91     		str	r1, [sp, #56]
 2129              		.loc 1 181 0
 2130 0198 DA43     		mvns	r2, r3
 2131              		.loc 1 177 0
 2132 019a 9DF81110 		ldrb	r1, [sp, #17]	@ zero_extendqisi2
 2133              		.loc 1 179 0
 2134 019e 0D90     		str	r0, [sp, #52]
 2135              		.loc 1 182 0
 2136 01a0 6FEA5303 		mvn	r3, r3, lsr #1
 2137              		.loc 1 181 0
 2138 01a4 02F00102 		and	r2, r2, #1
 2139              		.loc 1 182 0
 2140 01a8 03F00103 		and	r3, r3, #1
 2141              		.loc 1 186 0
 2142 01ac 0AA8     		add	r0, sp, #40
 2143              		.loc 1 181 0
 2144 01ae 8DF83D20 		strb	r2, [sp, #61]
 2145              		.loc 1 182 0
 2146 01b2 8DF83C30 		strb	r3, [sp, #60]
 2147              		.loc 1 177 0
 2148 01b6 CDE90A71 		strd	r7, r1, [sp, #40]
 2149              		.loc 1 186 0
 2150 01ba FFF7FEFF 		bl	app_nunchuk_update_output
 2151              	.LVL196:
 2152 01be B8E7     		b	.L275
 2153              	.LVL197:
 2154              	.L285:
 2155 01c0 DFF82090 		ldr	r9, .L287+28
 2156 01c4 C3E7     		b	.L277
 2157              	.L288:
 2158 01c6 00BF     		.align	2
 2159              	.L287:
 2160 01c8 00000000 		.word	ch
 2161 01cc 00000000 		.word	.LC8
 2162 01d0 00000000 		.word	.LANCHOR14
 2163 01d4 00000000 		.word	I2CD2
 2164 01d8 00000000 		.word	.LANCHOR16
 2165 01dc 04000000 		.word	.LANCHOR16+4
 2166 01e0 00000000 		.word	.LANCHOR12
ARM GAS  /tmp/cc9rFHkM.s 			page 39


 2167 01e4 00000000 		.word	.LANCHOR2
 2168              	.LBE211:
 2169              	.LBE214:
 2170              		.cfi_endproc
 2171              	.LFE261:
 2172              		.size	chuk_thread, .-chuk_thread
 2173              		.section	.bss.chuck_d,"aw",%nobits
 2174              		.align	2
 2175              		.set	.LANCHOR5,. + 0
 2176              		.type	chuck_d, %object
 2177              		.size	chuck_d, 24
 2178              	chuck_d:
 2179 0000 00000000 		.space	24
 2179      00000000 
 2179      00000000 
 2179      00000000 
 2179      00000000 
 2180              		.section	.bss.chuck_error,"aw",%nobits
 2181              		.align	2
 2182              		.set	.LANCHOR2,. + 0
 2183              		.type	chuck_error, %object
 2184              		.size	chuck_error, 4
 2185              	chuck_error:
 2186 0000 00000000 		.space	4
 2187              		.section	.bss.chuk_thread_wa,"aw",%nobits
 2188              		.align	3
 2189              		.set	.LANCHOR13,. + 0
 2190              		.type	chuk_thread_wa, %object
 2191              		.size	chuk_thread_wa, 928
 2192              	chuk_thread_wa:
 2193 0000 00000000 		.space	928
 2193      00000000 
 2193      00000000 
 2193      00000000 
 2193      00000000 
 2194              		.section	.bss.config,"aw",%nobits
 2195              		.align	2
 2196              		.set	.LANCHOR3,. + 0
 2197              		.type	config, %object
 2198              		.size	config, 48
 2199              	config:
 2200 0000 00000000 		.space	48
 2200      00000000 
 2200      00000000 
 2200      00000000 
 2200      00000000 
 2201              		.section	.bss.duty_rev.12911,"aw",%nobits
 2202              		.align	2
 2203              		.set	.LANCHOR11,. + 0
 2204              		.type	duty_rev.12911, %object
 2205              		.size	duty_rev.12911, 4
 2206              	duty_rev.12911:
 2207 0000 00000000 		.space	4
 2208              		.section	.bss.is_reverse.12883,"aw",%nobits
 2209              		.set	.LANCHOR6,. + 0
 2210              		.type	is_reverse.12883, %object
 2211              		.size	is_reverse.12883, 1
ARM GAS  /tmp/cc9rFHkM.s 			page 40


 2212              	is_reverse.12883:
 2213 0000 00       		.space	1
 2214              		.section	.bss.is_running,"aw",%nobits
 2215              		.set	.LANCHOR14,. + 0
 2216              		.type	is_running, %object
 2217              		.size	is_running, 1
 2218              	is_running:
 2219 0000 00       		.space	1
 2220              		.section	.bss.last_buffer.12868,"aw",%nobits
 2221              		.align	2
 2222              		.set	.LANCHOR16,. + 0
 2223              		.type	last_buffer.12868, %object
 2224              		.size	last_buffer.12868, 6
 2225              	last_buffer.12868:
 2226 0000 00000000 		.space	6
 2226      0000
 2227              		.section	.bss.last_update_time,"aw",%nobits
 2228              		.align	2
 2229              		.set	.LANCHOR4,. + 0
 2230              		.type	last_update_time, %object
 2231              		.size	last_update_time, 4
 2232              	last_update_time:
 2233 0000 00000000 		.space	4
 2234              		.section	.bss.output_running,"aw",%nobits
 2235              		.set	.LANCHOR0,. + 0
 2236              		.type	output_running, %object
 2237              		.size	output_running, 1
 2238              	output_running:
 2239 0000 00       		.space	1
 2240              		.section	.bss.output_thread_wa,"aw",%nobits
 2241              		.align	3
 2242              		.set	.LANCHOR15,. + 0
 2243              		.type	output_thread_wa, %object
 2244              		.size	output_thread_wa, 928
 2245              	output_thread_wa:
 2246 0000 00000000 		.space	928
 2246      00000000 
 2246      00000000 
 2246      00000000 
 2246      00000000 
 2247              		.section	.bss.pid_rpm.12890,"aw",%nobits
 2248              		.align	2
 2249              		.set	.LANCHOR8,. + 0
 2250              		.type	pid_rpm.12890, %object
 2251              		.size	pid_rpm.12890, 4
 2252              	pid_rpm.12890:
 2253 0000 00000000 		.space	4
 2254              		.section	.bss.prev_current.12887,"aw",%nobits
 2255              		.align	2
 2256              		.set	.LANCHOR9,. + 0
 2257              		.type	prev_current.12887, %object
 2258              		.size	prev_current.12887, 4
 2259              	prev_current.12887:
 2260 0000 00000000 		.space	4
 2261              		.section	.bss.rpm_filtered.12879,"aw",%nobits
 2262              		.align	2
 2263              		.set	.LANCHOR1,. + 0
ARM GAS  /tmp/cc9rFHkM.s 			page 41


 2264              		.type	rpm_filtered.12879, %object
 2265              		.size	rpm_filtered.12879, 4
 2266              	rpm_filtered.12879:
 2267 0000 00000000 		.space	4
 2268              		.section	.bss.was_duty_control.12910,"aw",%nobits
 2269              		.set	.LANCHOR10,. + 0
 2270              		.type	was_duty_control.12910, %object
 2271              		.size	was_duty_control.12910, 1
 2272              	was_duty_control.12910:
 2273 0000 00       		.space	1
 2274              		.section	.bss.was_z.12884,"aw",%nobits
 2275              		.set	.LANCHOR7,. + 0
 2276              		.type	was_z.12884, %object
 2277              		.size	was_z.12884, 1
 2278              	was_z.12884:
 2279 0000 00       		.space	1
 2280              		.section	.data.stop_now,"aw",%progbits
 2281              		.set	.LANCHOR12,. + 0
 2282              		.type	stop_now, %object
 2283              		.size	stop_now, 1
 2284              	stop_now:
 2285 0000 01       		.byte	1
 2286              		.section	.rodata.app_nunchuk_configure.str1.4,"aMS",%progbits,1
 2287              		.align	2
 2288              	.LC6:
 2289 0000 5072696E 		.ascii	"Print the status of the nunchuk app\000"
 2289      74207468 
 2289      65207374 
 2289      61747573 
 2289      206F6620 
 2290              	.LC7:
 2291 0024 6E756E63 		.ascii	"nunchuk_status\000"
 2291      68756B5F 
 2291      73746174 
 2291      757300
 2292              		.section	.rodata.chuk_thread.str1.4,"aMS",%progbits,1
 2293              		.align	2
 2294              	.LC8:
 2295 0000 4E756E63 		.ascii	"Nunchuk i2c\000"
 2295      68756B20 
 2295      69326300 
 2296              		.section	.rodata.output_thread.str1.4,"aMS",%progbits,1
 2297              		.align	2
 2298              	.LC5:
 2299 0000 4E756E63 		.ascii	"Nunchuk output\000"
 2299      68756B20 
 2299      6F757470 
 2299      757400
 2300              		.section	.rodata.terminal_cmd_nunchuk_status.str1.4,"aMS",%progbits,1
 2301              		.align	2
 2302              	.LC0:
 2303 0000 4F6E00   		.ascii	"On\000"
 2304 0003 00       		.space	1
 2305              	.LC1:
 2306 0004 4F666600 		.ascii	"Off\000"
 2307              	.LC2:
 2308 0008 4E756E63 		.ascii	"Nunchuk Status\000"
ARM GAS  /tmp/cc9rFHkM.s 			page 42


 2308      68756B20 
 2308      53746174 
 2308      757300
 2309 0017 00       		.space	1
 2310              	.LC3:
 2311 0018 4F757470 		.ascii	"Output: %s\000"
 2311      75743A20 
 2311      257300
 2312 0023 00       		.space	1
 2313              	.LC4:
 2314 0024 2000     		.ascii	" \000"
 2315              		.text
 2316              	.Letext0:
 2317              		.file 5 "/usr/arm-none-eabi/include/machine/_default_types.h"
 2318              		.file 6 "/usr/arm-none-eabi/include/sys/_stdint.h"
 2319              		.file 7 "/usr/lib/gcc/arm-none-eabi/7.3.1/include/stddef.h"
 2320              		.file 8 "ChibiOS_3.0.5/os/rt/ports/ARMCMx/compilers/GCC/chtypes.h"
 2321              		.file 9 "ChibiOS_3.0.5/os/rt/include/chsystypes.h"
 2322              		.file 10 "ChibiOS_3.0.5/os/rt/include/chschd.h"
 2323              		.file 11 "ChibiOS_3.0.5/os/ext/CMSIS/include/core_cm4.h"
 2324              		.file 12 "ChibiOS_3.0.5/os/ext/CMSIS/ST/system_stm32f4xx.h"
 2325              		.file 13 "ChibiOS_3.0.5/os/ext/CMSIS/ST/stm32f407xx.h"
 2326              		.file 14 "ChibiOS_3.0.5/os/rt/ports/ARMCMx/chcore.h"
 2327              		.file 15 "ChibiOS_3.0.5/os/rt/ports/ARMCMx/chcore_v7m.h"
 2328              		.file 16 "ChibiOS_3.0.5/os/rt/include/chtm.h"
 2329              		.file 17 "ChibiOS_3.0.5/os/rt/include/chsem.h"
 2330              		.file 18 "ChibiOS_3.0.5/os/rt/include/chmtx.h"
 2331              		.file 19 "ChibiOS_3.0.5/os/rt/include/chevents.h"
 2332              		.file 20 "ChibiOS_3.0.5/os/rt/include/chqueues.h"
 2333              		.file 21 "./datatypes.h"
 2334              		.file 22 "./conf_general.h"
 2335              		.file 23 "ChibiOS_3.0.5/os/hal/ports/STM32/STM32F4xx/stm32_dma.h"
 2336              		.file 24 "ChibiOS_3.0.5/os/hal/ports/STM32/LLD/GPIOv2/pal_lld.h"
 2337              		.file 25 "ChibiOS_3.0.5/os/hal/include/can.h"
 2338              		.file 26 "ChibiOS_3.0.5/os/hal/ports/STM32/LLD/can_lld.h"
 2339              		.file 27 "ChibiOS_3.0.5/os/hal/include/i2c.h"
 2340              		.file 28 "ChibiOS_3.0.5/os/hal/ports/STM32/LLD/I2Cv1/i2c_lld.h"
 2341              		.file 29 "ChibiOS_3.0.5/os/hal/include/icu.h"
 2342              		.file 30 "ChibiOS_3.0.5/os/hal/ports/STM32/LLD/TIMv1/icu_lld.h"
 2343              		.file 31 "ChibiOS_3.0.5/os/hal/ports/STM32/LLD/TIMv1/stm32_tim.h"
 2344              		.file 32 "ChibiOS_3.0.5/os/hal/include/serial.h"
 2345              		.file 33 "ChibiOS_3.0.5/os/hal/ports/STM32/LLD/USARTv1/serial_lld.h"
 2346              		.file 34 "ChibiOS_3.0.5/os/hal/include/spi.h"
 2347              		.file 35 "ChibiOS_3.0.5/os/hal/ports/STM32/LLD/SPIv1/spi_lld.h"
 2348              		.file 36 "ChibiOS_3.0.5/os/hal/include/usb.h"
 2349              		.file 37 "ChibiOS_3.0.5/os/hal/ports/STM32/LLD/OTGv1/usb_lld.h"
 2350              		.file 38 "ChibiOS_3.0.5/os/hal/ports/STM32/LLD/OTGv1/stm32_otg.h"
 2351              		.file 39 "./mc_interface.h"
 2352              		.file 40 "./commands.h"
 2353              		.file 41 "./utils.h"
 2354              		.file 42 "/usr/arm-none-eabi/include/sys/lock.h"
 2355              		.file 43 "/usr/arm-none-eabi/include/sys/_types.h"
 2356              		.file 44 "/usr/arm-none-eabi/include/sys/reent.h"
 2357              		.file 45 "/usr/arm-none-eabi/include/math.h"
 2358              		.file 46 "ChibiOS_3.0.5/os/rt/include/chsys.h"
 2359              		.file 47 "./comm_can.h"
 2360              		.file 48 "ChibiOS_3.0.5/os/rt/include/chthreads.h"
ARM GAS  /tmp/cc9rFHkM.s 			page 43


 2361              		.file 49 "./timeout.h"
 2362              		.file 50 "applications/app.h"
 2363              		.file 51 "hwconf/hw.h"
 2364              		.file 52 "./terminal.h"