ARM GAS  /tmp/ccggp577.s 			page 1


   1              		.cpu cortex-m4
   2              		.eabi_attribute 27, 1
   3              		.eabi_attribute 28, 1
   4              		.eabi_attribute 20, 1
   5              		.eabi_attribute 21, 1
   6              		.eabi_attribute 23, 3
   7              		.eabi_attribute 24, 1
   8              		.eabi_attribute 25, 1
   9              		.eabi_attribute 26, 1
  10              		.eabi_attribute 30, 2
  11              		.eabi_attribute 34, 1
  12              		.eabi_attribute 18, 4
  13              		.file	"app_ppm.c"
  14              		.text
  15              	.Ltext0:
  16              		.cfi_sections	.debug_frame
  17              		.section	.text.ppm_thread,"ax",%progbits
  18              		.align	1
  19              		.p2align 4,,15
  20              		.syntax unified
  21              		.thumb
  22              		.thumb_func
  23              		.fpu fpv4-sp-d16
  24              		.type	ppm_thread, %function
  25              	ppm_thread:
  26              	.LFB261:
  27              		.file 1 "applications/app_ppm.c"
  28              		.loc 1 95 0
  29              		.cfi_startproc
  30              		@ args = 0, pretend = 0, frame = 24
  31              		@ frame_needed = 0, uses_anonymous_args = 0
  32              	.LVL0:
  33 0000 2DE9F04F 		push	{r4, r5, r6, r7, r8, r9, r10, fp, lr}
  34              		.cfi_def_cfa_offset 36
  35              		.cfi_offset 4, -36
  36              		.cfi_offset 5, -32
  37              		.cfi_offset 6, -28
  38              		.cfi_offset 7, -24
  39              		.cfi_offset 8, -20
  40              		.cfi_offset 9, -16
  41              		.cfi_offset 10, -12
  42              		.cfi_offset 11, -8
  43              		.cfi_offset 14, -4
  44              	.LBB94:
  45              	.LBB95:
  46              		.file 2 "ChibiOS_3.0.5/os/rt/include/chregistry.h"
  47              		.loc 2 135 0
  48 0004 BF4D     		ldr	r5, .L262
  49              	.LBE95:
  50              	.LBE94:
  51              		.loc 1 101 0
  52 0006 C04C     		ldr	r4, .L262+4
  53              	.LBB98:
  54              	.LBB96:
  55              		.loc 2 135 0
  56 0008 AB69     		ldr	r3, [r5, #24]
  57 000a C049     		ldr	r1, .L262+8
ARM GAS  /tmp/ccggp577.s 			page 2


  58              	.LBE96:
  59              	.LBE98:
  60              		.loc 1 99 0
  61 000c C04A     		ldr	r2, .L262+12
  62              		.loc 1 101 0
  63 000e 94ED030A 		vldr.32	s0, [r4, #12]
  64 0012 D4ED040A 		vldr.32	s1, [r4, #16]
  65 0016 207E     		ldrb	r0, [r4, #24]	@ zero_extendqisi2
  66              	.LVL1:
  67              		.loc 1 103 0
  68 0018 DFF83C83 		ldr	r8, .L262+84
  69 001c BD4E     		ldr	r6, .L262+16
  70              		.loc 1 95 0
  71 001e 2DED0C8B 		vpush.64	{d8, d9, d10, d11, d12, d13}
  72              		.cfi_def_cfa_offset 84
  73              		.cfi_offset 80, -84
  74              		.cfi_offset 81, -80
  75              		.cfi_offset 82, -76
  76              		.cfi_offset 83, -72
  77              		.cfi_offset 84, -68
  78              		.cfi_offset 85, -64
  79              		.cfi_offset 86, -60
  80              		.cfi_offset 87, -56
  81              		.cfi_offset 88, -52
  82              		.cfi_offset 89, -48
  83              		.cfi_offset 90, -44
  84              		.cfi_offset 91, -40
  85              	.LBB99:
  86              	.LBB97:
  87              		.loc 2 135 0
  88 0022 9961     		str	r1, [r3, #24]
  89              	.LVL2:
  90              	.LBE97:
  91              	.LBE99:
  92              		.loc 1 95 0
  93 0024 87B0     		sub	sp, sp, #28
  94              		.cfi_def_cfa_offset 112
  95              		.loc 1 99 0
  96 0026 1360     		str	r3, [r2]
  97              		.loc 1 101 0
  98 0028 FFF7FEFF 		bl	servodec_set_pulse_options
  99              	.LVL3:
 100              		.loc 1 102 0
 101 002c BA48     		ldr	r0, .L262+20
 102              	.LBB100:
 103              		.loc 1 139 0
 104 002e 9FEDBB9A 		vldr.32	s18, .L262+24
 105              	.LBB101:
 106              	.LBB102:
 107              	.LBB103:
 108              		.loc 1 479 0
 109 0032 DFEDBB8A 		vldr.32	s17, .L262+28
 110 0036 9FEDBB8A 		vldr.32	s16, .L262+32
 111              	.LBE103:
 112              	.LBE102:
 113              	.LBE101:
 114              	.LBE100:
ARM GAS  /tmp/ccggp577.s 			page 3


 115              		.loc 1 102 0
 116 003a FFF7FEFF 		bl	servodec_init
 117              	.LVL4:
 118              		.loc 1 103 0
 119 003e 0123     		movs	r3, #1
 120 0040 88F80030 		strb	r3, [r8]
 121              	.L2:
 122              	.LBB181:
 123              		.loc 1 106 0
 124 0044 1421     		movs	r1, #20
 125 0046 0120     		movs	r0, #1
 126 0048 FFF7FEFF 		bl	chEvtWaitAnyTimeout
 127              	.LVL5:
 128              		.loc 1 108 0
 129 004c 3378     		ldrb	r3, [r6]	@ zero_extendqisi2
 130 004e 03F0FF01 		and	r1, r3, #255
 131 0052 002B     		cmp	r3, #0
 132 0054 40F0FB80 		bne	.L243
 133              		.loc 1 113 0
 134 0058 B34B     		ldr	r3, .L262+36
 135 005a 1A78     		ldrb	r2, [r3]	@ zero_extendqisi2
 136 005c 002A     		cmp	r2, #0
 137 005e 40F0F280 		bne	.L244
 138              	.L4:
 139              		.loc 1 118 0
 140 0062 FFF7FEFF 		bl	mc_interface_get_configuration
 141              	.LVL6:
 142 0066 0746     		mov	r7, r0
 143              	.LVL7:
 144              		.loc 1 119 0
 145 0068 FFF7FEFF 		bl	mc_interface_get_rpm
 146              	.LVL8:
 147              		.loc 1 120 0
 148 006c 0020     		movs	r0, #0
 149              		.loc 1 119 0
 150 006e F0EE409A 		vmov.f32	s19, s0
 151              	.LVL9:
 152              		.loc 1 120 0
 153 0072 FFF7FEFF 		bl	servodec_get_servo
 154              	.LVL10:
 155              		.loc 1 121 0
 156 0076 D4ED031A 		vldr.32	s3, [r4, #12]
 157 007a 94ED042A 		vldr.32	s4, [r4, #16]
 158              		.loc 1 120 0
 159 007e 8DED050A 		vstr.32	s0, [sp, #20]
 160              		.loc 1 121 0
 161 0082 B7EE001A 		vmov.f32	s2, #1.0e+0
 162 0086 FFEE000A 		vmov.f32	s1, #-1.0e+0
 163 008a FFF7FEFF 		bl	utils_map
 164              	.LVL11:
 165              		.loc 1 124 0
 166 008e 2378     		ldrb	r3, [r4]	@ zero_extendqisi2
 167 0090 DBB2     		uxtb	r3, r3
 168 0092 072B     		cmp	r3, #7
 169 0094 00F28280 		bhi	.L5
 170 0098 0122     		movs	r2, #1
 171 009a 02FA03F3 		lsl	r3, r2, r3
ARM GAS  /tmp/ccggp577.s 			page 4


 172 009e 13F0A40F 		tst	r3, #164
 173 00a2 7BD0     		beq	.L5
 174              		.loc 1 128 0
 175 00a4 9DED057A 		vldr.32	s14, [sp, #20]
 176 00a8 A04B     		ldr	r3, .L262+40
 177              		.loc 1 129 0
 178 00aa F7EE007A 		vmov.f32	s15, #1.0e+0
 179 00ae 77EE277A 		vadd.f32	s15, s14, s15
 180              		.loc 1 130 0
 181 00b2 F6EE006A 		vmov.f32	s13, #5.0e-1
 182 00b6 67EEA67A 		vmul.f32	s15, s15, s13
 183              		.loc 1 128 0
 184 00ba 83ED007A 		vstr.32	s14, [r3]
 185              		.loc 1 130 0
 186 00be CDED057A 		vstr.32	s15, [sp, #20]
 187              	.LVL12:
 188              	.L6:
 189              		.loc 1 148 0
 190 00c2 FFF7FEFF 		bl	app_is_output_disabled
 191              	.LVL13:
 192 00c6 0028     		cmp	r0, #0
 193 00c8 BCD1     		bne	.L2
 194              		.loc 1 152 0
 195 00ca FFF7FEFF 		bl	timeout_has_timeout
 196              	.LVL14:
 197 00ce 8146     		mov	r9, r0
 198 00d0 0028     		cmp	r0, #0
 199 00d2 40F08780 		bne	.L13
 200              		.loc 1 152 0 is_stmt 0 discriminator 1
 201 00d6 FFF7FEFF 		bl	servodec_get_time_since_update
 202              	.LVL15:
 203 00da 8246     		mov	r10, r0
 204 00dc FFF7FEFF 		bl	timeout_get_timeout_msec
 205              	.LVL16:
 206 00e0 8245     		cmp	r10, r0
 207 00e2 7FD8     		bhi	.L13
 208              		.loc 1 167 0 is_stmt 1
 209 00e4 FFF7FEFF 		bl	mc_interface_get_fault
 210              	.LVL17:
 211 00e8 0028     		cmp	r0, #0
 212 00ea 40F0B880 		bne	.L245
 213              	.L17:
 214              		.loc 1 172 0
 215 00ee 94ED020A 		vldr.32	s0, [r4, #8]
 216              		.loc 1 180 0
 217 00f2 DFF85492 		ldr	r9, .L262+68
 218              		.loc 1 172 0
 219 00f6 F7EE000A 		vmov.f32	s1, #1.0e+0
 220 00fa 05A8     		add	r0, sp, #20
 221 00fc FFF7FEFF 		bl	utils_deadband
 222              	.LVL18:
 223              		.loc 1 175 0
 224 0100 D4ED070A 		vldr.32	s1, [r4, #28]
 225 0104 9DED050A 		vldr.32	s0, [sp, #20]
 226 0108 94ED081A 		vldr.32	s2, [r4, #32]
 227 010c 94F82400 		ldrb	r0, [r4, #36]	@ zero_extendqisi2
 228 0110 FFF7FEFF 		bl	utils_throttle_curve
ARM GAS  /tmp/ccggp577.s 			page 5


 229              	.LVL19:
 230              		.loc 1 180 0
 231 0114 D9ED007A 		vldr.32	s15, [r9]
 232              		.loc 1 187 0
 233 0118 854A     		ldr	r2, .L262+44
 234 011a DFED866A 		vldr.32	s13, .L262+48
 235              	.LBB116:
 236              	.LBB117:
 237              		.file 3 "ChibiOS_3.0.5/os/rt/include/chvt.h"
 238              		.loc 3 267 0
 239 011e 1168     		ldr	r1, [r2]
 240              	.LBE117:
 241              	.LBE116:
 242              		.loc 1 175 0
 243 0120 8DED050A 		vstr.32	s0, [sp, #20]
 244              		.loc 1 180 0
 245 0124 F0EEE77A 		vabs.f32	s15, s15
 246 0128 B0EEC07A 		vabs.f32	s14, s0
 247 012c B4EEE77A 		vcmpe.f32	s14, s15
 248 0130 F1EE10FA 		vmrs	APSR_nzcv, FPSCR
 249 0134 CCBF     		ite	gt
 250 0136 D4ED0A0A 		vldrgt.32	s1, [r4, #40]
 251 013a D4ED0B0A 		vldrle.32	s1, [r4, #44]
 252              	.LVL20:
 253              	.LBB122:
 254              	.LBB120:
 255              	.LBB118:
 256              	.LBB119:
 257              		.loc 3 231 0
 258 013e AB6A     		ldr	r3, [r5, #40]
 259              	.LVL21:
 260              	.LBE119:
 261              	.LBE118:
 262              	.LBE120:
 263              	.LBE122:
 264              	.LBB123:
 265              	.LBB124:
 266 0140 A86A     		ldr	r0, [r5, #40]
 267              	.LBE124:
 268              	.LBE123:
 269              		.loc 1 188 0
 270 0142 1060     		str	r0, [r2]
 271              	.LBB125:
 272              	.LBB121:
 273              		.loc 3 267 0
 274 0144 5B1A     		subs	r3, r3, r1
 275              	.LBE121:
 276              	.LBE125:
 277              		.loc 1 187 0
 278 0146 42F20F72 		movw	r2, #9999
 279 014a 4FF47A71 		mov	r1, #1000
 280 014e 01FB0323 		mla	r3, r1, r3, r2
 281 0152 794A     		ldr	r2, .L262+52
 282              		.loc 1 190 0
 283 0154 9FED797A 		vldr.32	s14, .L262+56
 284              		.loc 1 187 0
 285 0158 A2FB0323 		umull	r2, r3, r2, r3
ARM GAS  /tmp/ccggp577.s 			page 6


 286 015c 5B0B     		lsrs	r3, r3, #13
 287 015e 07EE903A 		vmov	s15, r3	@ int
 288              		.loc 1 190 0
 289 0162 F4EEC70A 		vcmpe.f32	s1, s14
 290              		.loc 1 187 0
 291 0166 F8EEE77A 		vcvt.f32.s32	s15, s15
 292              		.loc 1 190 0
 293 016a F1EE10FA 		vmrs	APSR_nzcv, FPSCR
 294              		.loc 1 187 0
 295 016e 87EEA6CA 		vdiv.f32	s24, s15, s13
 296              	.LVL22:
 297              		.loc 1 190 0
 298 0172 7BDC     		bgt	.L246
 299              	.LVL23:
 300              	.L21:
 301              		.loc 1 203 0
 302 0174 FFF7FEFF 		bl	mc_interface_get_rpm
 303              	.LVL24:
 304              		.loc 1 207 0
 305 0178 2378     		ldrb	r3, [r4]	@ zero_extendqisi2
 306 017a 013B     		subs	r3, r3, #1
 307              		.loc 1 203 0
 308 017c F0EE40BA 		vmov.f32	s23, s0
 309              	.LVL25:
 310              		.loc 1 207 0
 311 0180 082B     		cmp	r3, #8
 312 0182 3FF65FAF 		bhi	.L2
 313 0186 DFE813F0 		tbh	[pc, r3, lsl #1]
 314              	.L25:
 315 018a EB00     		.2byte	(.L24-.L25)/2
 316 018c EB00     		.2byte	(.L24-.L25)/2
 317 018e B601     		.2byte	(.L26-.L25)/2
 318 0190 DD01     		.2byte	(.L27-.L25)/2
 319 0192 DD01     		.2byte	(.L27-.L25)/2
 320 0194 0302     		.2byte	(.L28-.L25)/2
 321 0196 0302     		.2byte	(.L28-.L25)/2
 322 0198 7A00     		.2byte	(.L29-.L25)/2
 323 019a B601     		.2byte	(.L26-.L25)/2
 324              	.LVL26:
 325              		.p2align 1
 326              	.L5:
 327              		.loc 1 135 0
 328 019c D4ED057A 		vldr.32	s15, [r4, #20]
 329 01a0 F4EEC07A 		vcmpe.f32	s15, s0
 330 01a4 F1EE10FA 		vmrs	APSR_nzcv, FPSCR
 331 01a8 0FDD     		ble	.L230
 332              		.loc 1 136 0
 333 01aa D4ED030A 		vldr.32	s1, [r4, #12]
 334 01ae 94ED051A 		vldr.32	s2, [r4, #20]
 335 01b2 B0EE492A 		vmov.f32	s4, s18
 336 01b6 FFEE001A 		vmov.f32	s3, #-1.0e+0
 337 01ba FFF7FEFF 		bl	utils_map
 338              	.LVL27:
 339 01be 8DED050A 		vstr.32	s0, [sp, #20]
 340              	.L9:
 341              		.loc 1 142 0
 342 01c2 5A4B     		ldr	r3, .L262+40
ARM GAS  /tmp/ccggp577.s 			page 7


 343 01c4 83ED000A 		vstr.32	s0, [r3]
 344              		.loc 1 143 0
 345 01c8 7BE7     		b	.L6
 346              	.LVL28:
 347              	.L230:
 348              		.loc 1 139 0
 349 01ca D4ED050A 		vldr.32	s1, [r4, #20]
 350 01ce 94ED041A 		vldr.32	s2, [r4, #16]
 351 01d2 B7EE002A 		vmov.f32	s4, #1.0e+0
 352 01d6 F0EE491A 		vmov.f32	s3, s18
 353 01da FFF7FEFF 		bl	utils_map
 354              	.LVL29:
 355 01de 8DED050A 		vstr.32	s0, [sp, #20]
 356 01e2 EEE7     		b	.L9
 357              	.L13:
 358              	.LBB126:
 359              		.loc 1 153 0
 360 01e4 564B     		ldr	r3, .L262+60
 361              		.loc 1 154 0
 362 01e6 574A     		ldr	r2, .L262+64
 363 01e8 0121     		movs	r1, #1
 364              		.loc 1 153 0
 365 01ea 0027     		movs	r7, #0
 366              	.LVL30:
 367 01ec 1F60     		str	r7, [r3]
 368              		.loc 1 154 0
 369 01ee 1170     		strb	r1, [r2]
 370              		.loc 1 155 0
 371 01f0 FFF7FEFF 		bl	timeout_get_brake_current
 372              	.LVL31:
 373 01f4 F0EE409A 		vmov.f32	s19, s0
 374              	.LVL32:
 375              		.loc 1 156 0
 376 01f8 FFF7FEFF 		bl	mc_interface_set_brake_current
 377              	.LVL33:
 378              		.loc 1 157 0
 379 01fc 94F83030 		ldrb	r3, [r4, #48]	@ zero_extendqisi2
 380 0200 002B     		cmp	r3, #0
 381 0202 3FF41FAF 		beq	.L2
 382 0206 07E0     		b	.L12
 383              	.LVL34:
 384              	.L247:
 385              	.LBB127:
 386              	.LBB128:
 387              		.loc 1 162 0
 388 0208 D0B2     		uxtb	r0, r2
 389              	.LVL35:
 390 020a B0EE690A 		vmov.f32	s0, s19
 391 020e FFF7FEFF 		bl	comm_can_set_current_brake
 392              	.LVL36:
 393              	.L15:
 394              	.LBE128:
 395              		.loc 1 158 0 discriminator 2
 396 0212 0A2F     		cmp	r7, #10
 397 0214 3FF416AF 		beq	.L2
 398              	.LVL37:
 399              	.L12:
ARM GAS  /tmp/ccggp577.s 			page 8


 400              	.LBB133:
 401              		.loc 1 159 0
 402 0218 3846     		mov	r0, r7
 403 021a FFF7FEFF 		bl	comm_can_get_status_msg_index
 404              	.LVL38:
 405              		.loc 1 161 0
 406 021e 0268     		ldr	r2, [r0]
 407 0220 002A     		cmp	r2, #0
 408              	.LBE133:
 409              		.loc 1 158 0
 410 0222 07F10107 		add	r7, r7, #1
 411              	.LVL39:
 412              	.LBB134:
 413              		.loc 1 161 0
 414 0226 F4DB     		blt	.L15
 415              	.LBB129:
 416              	.LBB130:
 417              		.loc 3 267 0 discriminator 1
 418 0228 4168     		ldr	r1, [r0, #4]
 419              	.LBB131:
 420              	.LBB132:
 421              		.loc 3 231 0 discriminator 1
 422 022a AB6A     		ldr	r3, [r5, #40]
 423              	.LVL40:
 424              	.LBE132:
 425              	.LBE131:
 426              		.loc 3 267 0 discriminator 1
 427 022c 5B1A     		subs	r3, r3, r1
 428              	.LBE130:
 429              	.LBE129:
 430              		.loc 1 161 0 discriminator 1
 431 022e 07EE903A 		vmov	s15, r3	@ int
 432 0232 F8EE677A 		vcvt.f32.u32	s15, s15
 433 0236 87EEA87A 		vdiv.f32	s14, s15, s17
 434 023a B4EEC87A 		vcmpe.f32	s14, s16
 435 023e F1EE10FA 		vmrs	APSR_nzcv, FPSCR
 436 0242 E6D5     		bpl	.L15
 437 0244 E0E7     		b	.L247
 438              	.LVL41:
 439              	.L244:
 440              	.LBE134:
 441              	.LBE127:
 442              	.LBE126:
 443              		.loc 1 114 0
 444 0246 1970     		strb	r1, [r3]
 445              		.loc 1 115 0
 446 0248 FFF7FEFF 		bl	timeout_reset
 447              	.LVL42:
 448 024c 09E7     		b	.L4
 449              	.L243:
 450              		.loc 1 109 0
 451 024e 0023     		movs	r3, #0
 452 0250 88F80030 		strb	r3, [r8]
 453              	.LBE181:
 454              		.loc 1 517 0
 455 0254 07B0     		add	sp, sp, #28
 456              		.cfi_remember_state
ARM GAS  /tmp/ccggp577.s 			page 9


 457              		.cfi_def_cfa_offset 84
 458              		@ sp needed
 459 0256 BDEC0C8B 		vldm	sp!, {d8-d13}
 460              		.cfi_restore 90
 461              		.cfi_restore 91
 462              		.cfi_restore 88
 463              		.cfi_restore 89
 464              		.cfi_restore 86
 465              		.cfi_restore 87
 466              		.cfi_restore 84
 467              		.cfi_restore 85
 468              		.cfi_restore 82
 469              		.cfi_restore 83
 470              		.cfi_restore 80
 471              		.cfi_restore 81
 472              		.cfi_def_cfa_offset 36
 473 025a BDE8F08F 		pop	{r4, r5, r6, r7, r8, r9, r10, fp, pc}
 474              	.LVL43:
 475              	.L245:
 476              		.cfi_restore_state
 477              	.LBB182:
 478              		.loc 1 167 0 discriminator 1
 479 025e 637E     		ldrb	r3, [r4, #25]	@ zero_extendqisi2
 480 0260 022B     		cmp	r3, #2
 481              		.loc 1 168 0 discriminator 1
 482 0262 1CBF     		itt	ne
 483 0264 364B     		ldrne	r3, .L262+60
 484 0266 C3F80090 		strne	r9, [r3]
 485 026a 40E7     		b	.L17
 486              	.LVL44:
 487              	.L246:
 488              	.LBB135:
 489              		.loc 1 192 0
 490 026c CCEE200A 		vdiv.f32	s1, s24, s1
 491              	.LVL45:
 492 0270 3548     		ldr	r0, .L262+68
 493 0272 FFF7FEFF 		bl	utils_step_towards
 494              	.LVL46:
 495              		.loc 1 193 0
 496 0276 D9F80030 		ldr	r3, [r9]	@ float
 497 027a 0593     		str	r3, [sp, #20]	@ float
 498 027c 7AE7     		b	.L21
 499              	.LVL47:
 500              	.L29:
 501              	.LBE135:
 502              		.loc 1 212 0
 503 027e 334B     		ldr	r3, .L262+72
 504 0280 1A78     		ldrb	r2, [r3]	@ zero_extendqisi2
 505 0282 002A     		cmp	r2, #0
 506 0284 00F02A83 		beq	.L30
 507              		.loc 1 213 0
 508 0288 314A     		ldr	r2, .L262+76
 509 028a D4ED0E7A 		vldr.32	s15, [r4, #56]
 510 028e 92ED007A 		vldr.32	s14, [r2]
 511 0292 77EEC77A 		vsub.f32	s15, s15, s14
 512 0296 F4EEC07A 		vcmpe.f32	s15, s0
 513 029a F1EE10FA 		vmrs	APSR_nzcv, FPSCR
ARM GAS  /tmp/ccggp577.s 			page 10


 514 029e 00F32E83 		bgt	.L248
 515              	.L31:
 516              		.loc 1 224 0
 517 02a2 DDED057A 		vldr.32	s15, [sp, #20]
 518 02a6 F5EEC07A 		vcmpe.f32	s15, #0
 519 02aa F1EE10FA 		vmrs	APSR_nzcv, FPSCR
 520 02ae C0F24283 		blt	.L42
 521              	.L120:
 522              		.loc 1 225 0
 523 02b2 F5EE407A 		vcmp.f32	s15, #0
 524 02b6 F1EE10FA 		vmrs	APSR_nzcv, FPSCR
 525 02ba 40F04B83 		bne	.L35
 526              		.loc 1 227 0
 527 02be 254A     		ldr	r2, .L262+80
 528 02c0 92F90010 		ldrsb	r1, [r2]
 529 02c4 0129     		cmp	r1, #1
 530 02c6 00F07A83 		beq	.L249
 531              	.L36:
 532              		.loc 1 237 0
 533 02ca F5EEC09A 		vcmpe.f32	s19, #0
 534 02ce F1EE10FA 		vmrs	APSR_nzcv, FPSCR
 535 02d2 C0F25183 		blt	.L41
 536              		.loc 1 238 0
 537 02d6 D7ED1FAA 		vldr.32	s21, [r7, #124]
 538              		.loc 1 198 0
 539 02da 0023     		movs	r3, #0
 540              		.loc 1 238 0
 541 02dc 6AEEA7AA 		vmul.f32	s21, s21, s15
 542              	.LVL48:
 543              		.loc 1 198 0
 544 02e0 0293     		str	r3, [sp, #8]
 545              	.LVL49:
 546              	.L40:
 547              		.loc 1 276 0
 548 02e2 9FED1E7A 		vldr.32	s14, .L262+88
 549 02e6 F0EEE77A 		vabs.f32	s15, s15
 550 02ea F4EEC77A 		vcmpe.f32	s15, s14
 551 02ee F1EE10FA 		vmrs	APSR_nzcv, FPSCR
 552 02f2 00F1C181 		bmi	.L241
 553              		.loc 1 209 0
 554 02f6 0123     		movs	r3, #1
 555              		.loc 1 200 0
 556 02f8 4FF00009 		mov	r9, #0
 557              		.loc 1 209 0
 558 02fc 0193     		str	r3, [sp, #4]
 559              		.loc 1 199 0
 560 02fe CA46     		mov	r10, r9
 561 0300 0F4B     		ldr	r3, .L262+60
 562 0302 54E0     		b	.L43
 563              	.L263:
 564              		.align	2
 565              	.L262:
 566 0304 00000000 		.word	ch
 567 0308 00000000 		.word	.LANCHOR1
 568 030c 00000000 		.word	.LC0
 569 0310 00000000 		.word	.LANCHOR0
 570 0314 00000000 		.word	.LANCHOR3
ARM GAS  /tmp/ccggp577.s 			page 11


 571 0318 00000000 		.word	servodec_func
 572 031c 00000000 		.word	0
 573 0320 00401C46 		.word	1176256512
 574 0324 CDCCCC3D 		.word	1036831949
 575 0328 00000000 		.word	.LANCHOR4
 576 032c 00000000 		.word	.LANCHOR5
 577 0330 00000000 		.word	.LANCHOR9
 578 0334 00007A44 		.word	1148846080
 579 0338 5917B7D1 		.word	-776530087
 580 033c 0AD7233C 		.word	1008981770
 581 0340 00000000 		.word	.LANCHOR6
 582 0344 00000000 		.word	.LANCHOR7
 583 0348 00000000 		.word	.LANCHOR8
 584 034c 00000000 		.word	.LANCHOR10
 585 0350 00000000 		.word	.LANCHOR11
 586 0354 00000000 		.word	.LANCHOR12
 587 0358 00000000 		.word	.LANCHOR2
 588 035c 6F12833A 		.word	981668463
 589              	.LVL50:
 590              	.L24:
 591              		.loc 1 284 0
 592 0360 DDED057A 		vldr.32	s15, [sp, #20]
 593 0364 F5EEC07A 		vcmpe.f32	s15, #0
 594 0368 F1EE10FA 		vmrs	APSR_nzcv, FPSCR
 595 036c C0F22182 		blt	.L45
 596              		.loc 1 284 0 is_stmt 0 discriminator 1
 597 0370 F5EEC09A 		vcmpe.f32	s19, #0
 598 0374 F1EE10FA 		vmrs	APSR_nzcv, FPSCR
 599 0378 C0F21B82 		blt	.L45
 600              	.L47:
 601              		.loc 1 285 0 is_stmt 1
 602 037c D7ED1FAA 		vldr.32	s21, [r7, #124]
 603 0380 67EEAAAA 		vmul.f32	s21, s15, s21
 604              	.LVL51:
 605              	.L51:
 606              		.loc 1 290 0
 607 0384 1FED0B7A 		vldr.32	s14, .L262+88
 608 0388 F0EEE77A 		vabs.f32	s15, s15
 609 038c F4EEC77A 		vcmpe.f32	s15, s14
 610 0390 F1EE10FA 		vmrs	APSR_nzcv, FPSCR
 611 0394 40F19982 		bpl	.L235
 612              		.loc 1 291 0
 613 0398 C24B     		ldr	r3, .L264
 614 039a 1A68     		ldr	r2, [r3]
 615 039c 0132     		adds	r2, r2, #1
 616              		.loc 1 200 0
 617 039e 4FF00009 		mov	r9, #0
 618              		.loc 1 291 0
 619 03a2 1A60     		str	r2, [r3]
 620              		.loc 1 283 0
 621 03a4 0122     		movs	r2, #1
 622              		.loc 1 199 0
 623 03a6 CA46     		mov	r10, r9
 624              		.loc 1 198 0
 625 03a8 CDF80890 		str	r9, [sp, #8]
 626              		.loc 1 283 0
 627 03ac 0192     		str	r2, [sp, #4]
ARM GAS  /tmp/ccggp577.s 			page 12


 628              	.LVL52:
 629              	.L43:
 630              		.loc 1 339 0
 631 03ae 1A68     		ldr	r2, [r3]
 632 03b0 312A     		cmp	r2, #49
 633 03b2 00F3E980 		bgt	.L65
 634              	.LVL53:
 635              	.L256:
 636              		.loc 1 339 0 is_stmt 0 discriminator 1
 637 03b6 627E     		ldrb	r2, [r4, #25]	@ zero_extendqisi2
 638 03b8 002A     		cmp	r2, #0
 639 03ba 00F0E580 		beq	.L65
 640              	.LBB136:
 641              		.loc 1 341 0 is_stmt 1
 642 03be BA4A     		ldr	r2, .L264+4
 643 03c0 1868     		ldr	r0, [r3]
 644 03c2 1168     		ldr	r1, [r2]
 645 03c4 8842     		cmp	r0, r1
 646              		.loc 1 342 0
 647 03c6 08BF     		it	eq
 648 03c8 0021     		moveq	r1, #0
 649              		.loc 1 346 0
 650 03ca B848     		ldr	r0, .L264+8
 651              		.loc 1 342 0
 652 03cc 08BF     		it	eq
 653 03ce 1960     		streq	r1, [r3]
 654              		.loc 1 344 0
 655 03d0 1968     		ldr	r1, [r3]
 656              		.loc 1 346 0
 657 03d2 0378     		ldrb	r3, [r0]	@ zero_extendqisi2
 658              		.loc 1 344 0
 659 03d4 1160     		str	r1, [r2]
 660              		.loc 1 346 0
 661 03d6 002B     		cmp	r3, #0
 662 03d8 7FF434AE 		bne	.L2
 663              		.loc 1 350 0
 664 03dc 019B     		ldr	r3, [sp, #4]
 665 03de 002B     		cmp	r3, #0
 666 03e0 18BF     		it	ne
 667 03e2 F0EE49AA 		vmovne.f32	s21, s18
 668              	.LVL54:
 669              	.L67:
 670              	.LBE136:
 671              		.loc 1 356 0
 672 03e6 FFF7FEFF 		bl	mc_interface_get_duty_cycle_now
 673              	.LVL55:
 674 03ea B0EE40DA 		vmov.f32	s26, s0
 675              	.LVL56:
 676              		.loc 1 357 0
 677 03ee FFF7FEFF 		bl	mc_interface_get_tot_current_directional_filtered
 678              	.LVL57:
 679              		.loc 1 361 0
 680 03f2 94F83030 		ldrb	r3, [r4, #48]	@ zero_extendqisi2
 681              		.loc 1 358 0
 682 03f6 B0EECDBA 		vabs.f32	s22, s26
 683              		.loc 1 357 0
 684 03fa F0EEC0CA 		vabs.f32	s25, s0
ARM GAS  /tmp/ccggp577.s 			page 13


 685              	.LVL58:
 686              		.loc 1 205 0
 687 03fe B0EE6BAA 		vmov.f32	s20, s23
 688              		.loc 1 204 0
 689 0402 F0EE6B9A 		vmov.f32	s19, s23
 690              	.LVL59:
 691              		.loc 1 361 0
 692 0406 002B     		cmp	r3, #0
 693 0408 40F0E880 		bne	.L250
 694              	.LVL60:
 695              	.L68:
 696              		.loc 1 385 0
 697 040c 2378     		ldrb	r3, [r4]	@ zero_extendqisi2
 698 040e 092B     		cmp	r3, #9
 699 0410 22D0     		beq	.L251
 700              	.LVL61:
 701              	.L75:
 702              		.loc 1 422 0
 703 0412 BAF1000F 		cmp	r10, #0
 704 0416 02D1     		bne	.L86
 705              		.loc 1 422 0 is_stmt 0 discriminator 2
 706 0418 B9F1000F 		cmp	r9, #0
 707 041c 04D0     		beq	.L87
 708              	.L86:
 709              		.loc 1 422 0 discriminator 3
 710 041e 94F83030 		ldrb	r3, [r4, #48]	@ zero_extendqisi2
 711 0422 002B     		cmp	r3, #0
 712 0424 40F07381 		bne	.L252
 713              	.LVL62:
 714              	.L87:
 715              		.loc 1 439 0 is_stmt 1
 716 0428 019B     		ldr	r3, [sp, #4]
 717 042a 002B     		cmp	r3, #0
 718 042c 3FF40AAE 		beq	.L2
 719              		.loc 1 440 0
 720 0430 029B     		ldr	r3, [sp, #8]
 721 0432 002B     		cmp	r3, #0
 722 0434 40F02A81 		bne	.L253
 723              	.LVL63:
 724              	.LBB137:
 725              		.loc 1 457 0
 726 0438 F5EEC0AA 		vcmpe.f32	s21, #0
 727 043c F1EE10FA 		vmrs	APSR_nzcv, FPSCR
 728 0440 00F1C481 		bmi	.L254
 729              		.loc 1 468 0
 730 0444 94F83030 		ldrb	r3, [r4, #48]	@ zero_extendqisi2
 731 0448 002B     		cmp	r3, #0
 732 044a 40F0D481 		bne	.L119
 733              	.LVL64:
 734              	.L117:
 735              		.loc 1 511 0
 736 044e B0EE6A0A 		vmov.f32	s0, s21
 737 0452 FFF7FEFF 		bl	mc_interface_set_current
 738              	.LVL65:
 739 0456 F5E5     		b	.L2
 740              	.LVL66:
 741              	.L251:
ARM GAS  /tmp/ccggp577.s 			page 14


 742              	.LBE137:
 743              	.LBB138:
 744              		.loc 1 390 0
 745 0458 DDED057A 		vldr.32	s15, [sp, #20]
 746 045c 9FED947A 		vldr.32	s14, .L264+12
 747 0460 F4EEC77A 		vcmpe.f32	s15, s14
 748 0464 F1EE10FA 		vmrs	APSR_nzcv, FPSCR
 749 0468 1AD5     		bpl	.L76
 750              		.loc 1 390 0 is_stmt 0 discriminator 1
 751 046a 97ED147A 		vldr.32	s14, [r7, #80]
 752 046e F7EE086A 		vmov.f32	s13, #1.5e+0
 753 0472 27EE267A 		vmul.f32	s14, s14, s13
 754 0476 B4EECB7A 		vcmpe.f32	s14, s22
 755 047a F1EE10FA 		vmrs	APSR_nzcv, FPSCR
 756 047e 0FDD     		ble	.L76
 757              		.loc 1 391 0 is_stmt 1 discriminator 2
 758 0480 97ED007A 		vldr.32	s14, [r7]
 759 0484 97ED186A 		vldr.32	s12, [r7, #96]
 760 0488 DFED8A6A 		vldr.32	s13, .L264+16
 761 048c 27EE067A 		vmul.f32	s14, s14, s12
 762 0490 27EE267A 		vmul.f32	s14, s14, s13
 763              		.loc 1 390 0 discriminator 2
 764 0494 B4EEEC7A 		vcmpe.f32	s14, s25
 765 0498 F1EE10FA 		vmrs	APSR_nzcv, FPSCR
 766 049c 00F38D82 		bgt	.L255
 767              	.L76:
 768              		.loc 1 395 0 discriminator 1
 769 04a0 854B     		ldr	r3, .L264+20
 770 04a2 1A78     		ldrb	r2, [r3]	@ zero_extendqisi2
 771 04a4 002A     		cmp	r2, #0
 772 04a6 00F0E180 		beq	.L80
 773              		.loc 1 395 0 is_stmt 0 discriminator 2
 774 04aa 9FED847A 		vldr.32	s14, .L264+24
 775 04ae F4EEC77A 		vcmpe.f32	s15, s14
 776 04b2 F1EE10FA 		vmrs	APSR_nzcv, FPSCR
 777 04b6 40F1D980 		bpl	.L80
 778              	.L79:
 779              	.LBB139:
 780              		.loc 1 398 0 is_stmt 1
 781 04ba 94ED0F0A 		vldr.32	s0, [r4, #60]
 782              	.LVL67:
 783              		.loc 1 400 0
 784 04be 94ED0F7A 		vldr.32	s14, [r4, #60]
 785 04c2 D4ED100A 		vldr.32	s1, [r4, #64]
 786              		.loc 1 399 0
 787 04c6 7E48     		ldr	r0, .L264+28
 788              		.loc 1 400 0
 789 04c8 27EE0CCA 		vmul.f32	s24, s14, s24
 790              	.LVL68:
 791              		.loc 1 399 0
 792 04cc 27EE800A 		vmul.f32	s0, s15, s0
 793              	.LVL69:
 794              		.loc 1 396 0
 795 04d0 0122     		movs	r2, #1
 796              		.loc 1 399 0
 797 04d2 CCEE200A 		vdiv.f32	s1, s24, s1
 798              		.loc 1 396 0
ARM GAS  /tmp/ccggp577.s 			page 15


 799 04d6 1A70     		strb	r2, [r3]
 800              		.loc 1 399 0
 801 04d8 FFF7FEFF 		bl	utils_step_towards
 802              	.LVL70:
 803              		.loc 1 402 0
 804 04dc 784B     		ldr	r3, .L264+28
 805 04de 93ED000A 		vldr.32	s0, [r3]
 806 04e2 FFF7FEFF 		bl	mc_interface_set_duty
 807              	.LVL71:
 808              		.loc 1 405 0
 809 04e6 94F83030 		ldrb	r3, [r4, #48]	@ zero_extendqisi2
 810 04ea 002B     		cmp	r3, #0
 811 04ec 40F07582 		bne	.L134
 812              	.L85:
 813              		.loc 1 415 0
 814 04f0 0023     		movs	r3, #0
 815 04f2 0193     		str	r3, [sp, #4]
 816 04f4 8DE7     		b	.L75
 817              	.LVL72:
 818              	.L26:
 819              	.LBE139:
 820              	.LBE138:
 821              		.loc 1 298 0
 822 04f6 DDED057A 		vldr.32	s15, [sp, #20]
 823 04fa F5EEC07A 		vcmpe.f32	s15, #0
 824 04fe F1EE10FA 		vmrs	APSR_nzcv, FPSCR
 825 0502 4CBF     		ite	mi
 826 0504 0123     		movmi	r3, #1
 827 0506 0023     		movpl	r3, #0
 828 0508 0293     		str	r3, [sp, #8]
 829              	.LVL73:
 830              		.loc 1 300 0
 831 050a C0F24B81 		blt	.L53
 832              		.loc 1 300 0 is_stmt 0 discriminator 1
 833 050e F5EEC09A 		vcmpe.f32	s19, #0
 834 0512 F1EE10FA 		vmrs	APSR_nzcv, FPSCR
 835 0516 40F34581 		ble	.L53
 836              		.loc 1 301 0 is_stmt 1
 837 051a D7ED1FAA 		vldr.32	s21, [r7, #124]
 838 051e 67EEAAAA 		vmul.f32	s21, s15, s21
 839              	.LVL74:
 840              	.L56:
 841              		.loc 1 306 0
 842 0522 9FED687A 		vldr.32	s14, .L264+32
 843 0526 F0EEE77A 		vabs.f32	s15, s15
 844 052a F4EEC77A 		vcmpe.f32	s15, s14
 845 052e F1EE10FA 		vmrs	APSR_nzcv, FPSCR
 846 0532 00F1A180 		bmi	.L241
 847              		.loc 1 200 0
 848 0536 4FF00009 		mov	r9, #0
 849              		.loc 1 297 0
 850 053a 0122     		movs	r2, #1
 851 053c 594B     		ldr	r3, .L264
 852 053e 0192     		str	r2, [sp, #4]
 853              		.loc 1 199 0
 854 0540 CA46     		mov	r10, r9
 855 0542 34E7     		b	.L43
ARM GAS  /tmp/ccggp577.s 			page 16


 856              	.LVL75:
 857              	.L27:
 858              		.loc 1 313 0
 859 0544 9DED050A 		vldr.32	s0, [sp, #20]
 860              	.LVL76:
 861 0548 DFED5E7A 		vldr.32	s15, .L264+32
 862              		.loc 1 314 0
 863 054c 554B     		ldr	r3, .L264
 864              		.loc 1 313 0
 865 054e B0EEC07A 		vabs.f32	s14, s0
 866 0552 B4EEE77A 		vcmpe.f32	s14, s15
 867 0556 F1EE10FA 		vmrs	APSR_nzcv, FPSCR
 868              		.loc 1 314 0
 869 055a 42BF     		ittt	mi
 870 055c 1A68     		ldrmi	r2, [r3]
 871 055e 0132     		addmi	r2, r2, #1
 872 0560 1A60     		strmi	r2, [r3]
 873              		.loc 1 317 0
 874 0562 1A68     		ldr	r2, [r3]
 875 0564 312A     		cmp	r2, #49
 876 0566 00F30481 		bgt	.L60
 877              		.loc 1 317 0 is_stmt 0 discriminator 1
 878 056a 627E     		ldrb	r2, [r4, #25]	@ zero_extendqisi2
 879 056c 002A     		cmp	r2, #0
 880 056e 00F00081 		beq	.L60
 881              	.L64:
 882              		.loc 1 339 0 is_stmt 1
 883 0572 1A68     		ldr	r2, [r3]
 884              		.loc 1 196 0
 885 0574 DFED54AA 		vldr.32	s21, .L264+36
 886              		.loc 1 200 0
 887 0578 4FF00009 		mov	r9, #0
 888              	.LVL77:
 889              		.loc 1 339 0
 890 057c 312A     		cmp	r2, #49
 891              		.loc 1 199 0
 892 057e CA46     		mov	r10, r9
 893              	.LVL78:
 894              		.loc 1 197 0
 895 0580 CDE90199 		strd	r9, r9, [sp, #4]
 896              	.LVL79:
 897              		.loc 1 339 0
 898 0584 7FF717AF 		ble	.L256
 899              	.LVL80:
 900              	.L65:
 901              		.loc 1 353 0
 902 0588 484B     		ldr	r3, .L264+8
 903 058a 0022     		movs	r2, #0
 904 058c 1A70     		strb	r2, [r3]
 905 058e 2AE7     		b	.L67
 906              	.LVL81:
 907              	.L28:
 908              		.loc 1 325 0
 909 0590 DDED057A 		vldr.32	s15, [sp, #20]
 910 0594 9FED4B7A 		vldr.32	s14, .L264+32
 911              		.loc 1 326 0
 912 0598 424B     		ldr	r3, .L264
ARM GAS  /tmp/ccggp577.s 			page 17


 913              		.loc 1 325 0
 914 059a F0EEE76A 		vabs.f32	s13, s15
 915 059e F4EEC76A 		vcmpe.f32	s13, s14
 916 05a2 F1EE10FA 		vmrs	APSR_nzcv, FPSCR
 917              		.loc 1 326 0
 918 05a6 42BF     		ittt	mi
 919 05a8 1A68     		ldrmi	r2, [r3]
 920 05aa 0132     		addmi	r2, r2, #1
 921 05ac 1A60     		strmi	r2, [r3]
 922              		.loc 1 329 0
 923 05ae 1A68     		ldr	r2, [r3]
 924 05b0 312A     		cmp	r2, #49
 925 05b2 02DC     		bgt	.L63
 926              		.loc 1 329 0 is_stmt 0 discriminator 1
 927 05b4 627E     		ldrb	r2, [r4, #25]	@ zero_extendqisi2
 928 05b6 002A     		cmp	r2, #0
 929 05b8 DBD1     		bne	.L64
 930              	.L63:
 931              		.loc 1 330 0 is_stmt 1
 932 05ba 94ED010A 		vldr.32	s0, [r4, #4]
 933              	.LVL82:
 934 05be 0393     		str	r3, [sp, #12]
 935 05c0 27EE800A 		vmul.f32	s0, s15, s0
 936              		.loc 1 200 0
 937 05c4 4FF00009 		mov	r9, #0
 938              		.loc 1 330 0
 939 05c8 FFF7FEFF 		bl	mc_interface_set_pid_speed
 940              	.LVL83:
 941              		.loc 1 196 0
 942 05cc DFED3EAA 		vldr.32	s21, .L264+36
 943 05d0 039B     		ldr	r3, [sp, #12]
 944              		.loc 1 197 0
 945 05d2 CDE90199 		strd	r9, r9, [sp, #4]
 946              		.loc 1 331 0
 947 05d6 4FF0010A 		mov	r10, #1
 948 05da E8E6     		b	.L43
 949              	.LVL84:
 950              	.L250:
 951              	.LBB148:
 952              		.loc 1 362 0
 953 05dc 4FF0000B 		mov	fp, #0
 954              	.LVL85:
 955              	.L74:
 956              	.LBB149:
 957              		.loc 1 363 0
 958 05e0 5846     		mov	r0, fp
 959 05e2 FFF7FEFF 		bl	comm_can_get_status_msg_index
 960              	.LVL86:
 961              		.loc 1 365 0
 962 05e6 0268     		ldr	r2, [r0]
 963 05e8 002A     		cmp	r2, #0
 964              	.LBE149:
 965              		.loc 1 362 0
 966 05ea 0BF1010B 		add	fp, fp, #1
 967              	.LVL87:
 968              	.LBB154:
 969              		.loc 1 365 0
ARM GAS  /tmp/ccggp577.s 			page 18


 970 05ee 39DB     		blt	.L69
 971              	.LBB150:
 972              	.LBB151:
 973              	.LBB152:
 974              	.LBB153:
 975              		.loc 3 231 0 discriminator 1
 976 05f0 AA6A     		ldr	r2, [r5, #40]
 977              	.LVL88:
 978              	.LBE153:
 979              	.LBE152:
 980              		.loc 3 267 0 discriminator 1
 981 05f2 4168     		ldr	r1, [r0, #4]
 982 05f4 521A     		subs	r2, r2, r1
 983              	.LBE151:
 984              	.LBE150:
 985              		.loc 1 365 0 discriminator 1
 986 05f6 07EE902A 		vmov	s15, r2	@ int
 987 05fa F8EE677A 		vcvt.f32.u32	s15, s15
 988              		.loc 1 366 0 discriminator 1
 989 05fe B0EEE95A 		vabs.f32	s10, s19
 990              		.loc 1 365 0 discriminator 1
 991 0602 87EEA87A 		vdiv.f32	s14, s15, s17
 992              		.loc 1 370 0 discriminator 1
 993 0606 B0EECA6A 		vabs.f32	s12, s20
 994              		.loc 1 365 0 discriminator 1
 995 060a B4EEC87A 		vcmpe.f32	s14, s16
 996 060e F1EE10FA 		vmrs	APSR_nzcv, FPSCR
 997 0612 27D5     		bpl	.L69
 998              		.loc 1 366 0
 999 0614 D0ED026A 		vldr.32	s13, [r0, #8]
 1000              		.loc 1 374 0
 1001 0618 90ED037A 		vldr.32	s14, [r0, #12]
 1002              		.loc 1 378 0
 1003 061c D0ED047A 		vldr.32	s15, [r0, #16]
 1004              		.loc 1 366 0
 1005 0620 F0EEE65A 		vabs.f32	s11, s13
 1006              		.loc 1 367 0
 1007 0624 F4EE455A 		vcmp.f32	s11, s10
 1008 0628 F1EE10FA 		vmrs	APSR_nzcv, FPSCR
 1009              		.loc 1 374 0
 1010 062c B0EEC77A 		vabs.f32	s14, s14
 1011              		.loc 1 371 0
 1012 0630 F4EE465A 		vcmp.f32	s11, s12
 1013              		.loc 1 378 0
 1014 0634 F0EEE77A 		vabs.f32	s15, s15
 1015              		.loc 1 367 0
 1016 0638 48BF     		it	mi
 1017 063a F0EE669A 		vmovmi.f32	s19, s13
 1018              	.LVL89:
 1019              		.loc 1 371 0
 1020 063e F1EE10FA 		vmrs	APSR_nzcv, FPSCR
 1021              		.loc 1 375 0
 1022 0642 B4EE6C7A 		vcmp.f32	s14, s25
 1023              		.loc 1 371 0
 1024 0646 C8BF     		it	gt
 1025 0648 B0EE66AA 		vmovgt.f32	s20, s13
 1026              	.LVL90:
ARM GAS  /tmp/ccggp577.s 			page 19


 1027              		.loc 1 375 0
 1028 064c F1EE10FA 		vmrs	APSR_nzcv, FPSCR
 1029              		.loc 1 379 0
 1030 0650 F4EE4B7A 		vcmp.f32	s15, s22
 1031              		.loc 1 375 0
 1032 0654 C8BF     		it	gt
 1033 0656 F0EE47CA 		vmovgt.f32	s25, s14
 1034              	.LVL91:
 1035              		.loc 1 379 0
 1036 065a F1EE10FA 		vmrs	APSR_nzcv, FPSCR
 1037 065e C8BF     		it	gt
 1038 0660 B0EE67BA 		vmovgt.f32	s22, s15
 1039              	.LVL92:
 1040              	.L69:
 1041              	.LBE154:
 1042              		.loc 1 362 0 discriminator 2
 1043 0664 BBF10A0F 		cmp	fp, #10
 1044 0668 BAD1     		bne	.L74
 1045 066a CFE6     		b	.L68
 1046              	.LVL93:
 1047              	.L80:
 1048              	.LBE148:
 1049              	.LBB155:
 1050              		.loc 1 417 0
 1051 066c 1449     		ldr	r1, .L264+28
 1052              		.loc 1 418 0
 1053 066e 0022     		movs	r2, #0
 1054              		.loc 1 417 0
 1055 0670 81ED00DA 		vstr.32	s26, [r1]
 1056              		.loc 1 418 0
 1057 0674 1A70     		strb	r2, [r3]
 1058 0676 CCE6     		b	.L75
 1059              	.LVL94:
 1060              	.L241:
 1061              	.LBE155:
 1062              		.loc 1 307 0
 1063 0678 0A4B     		ldr	r3, .L264
 1064 067a 1A68     		ldr	r2, [r3]
 1065 067c 0132     		adds	r2, r2, #1
 1066              		.loc 1 200 0
 1067 067e 4FF00009 		mov	r9, #0
 1068              		.loc 1 307 0
 1069 0682 1A60     		str	r2, [r3]
 1070              		.loc 1 297 0
 1071 0684 0122     		movs	r2, #1
 1072              		.loc 1 199 0
 1073 0686 CA46     		mov	r10, r9
 1074              		.loc 1 297 0
 1075 0688 0192     		str	r2, [sp, #4]
 1076 068a 90E6     		b	.L43
 1077              	.LVL95:
 1078              	.L253:
 1079              		.loc 1 441 0
 1080 068c B0EEEA0A 		vabs.f32	s0, s21
 1081 0690 FFF7FEFF 		bl	mc_interface_set_brake_current
 1082              	.LVL96:
 1083              		.loc 1 444 0
ARM GAS  /tmp/ccggp577.s 			page 20


 1084 0694 94F83030 		ldrb	r3, [r4, #48]	@ zero_extendqisi2
 1085 0698 002B     		cmp	r3, #0
 1086 069a 3FF4D3AC 		beq	.L2
 1087              	.LBB156:
 1088              		.loc 1 445 0
 1089 069e 0027     		movs	r7, #0
 1090              	.LVL97:
 1091 06a0 17E0     		b	.L98
 1092              	.L265:
 1093 06a2 00BF     		.align	2
 1094              	.L264:
 1095 06a4 00000000 		.word	.LANCHOR6
 1096 06a8 00000000 		.word	.LANCHOR13
 1097 06ac 00000000 		.word	.LANCHOR7
 1098 06b0 1F856BBF 		.word	3211494687
 1099 06b4 3333333F 		.word	1060320051
 1100 06b8 00000000 		.word	.LANCHOR14
 1101 06bc CDCCCCBD 		.word	3184315597
 1102 06c0 00000000 		.word	.LANCHOR15
 1103 06c4 6F12833A 		.word	981668463
 1104 06c8 00000000 		.word	0
 1105              	.LVL98:
 1106              	.L96:
 1107              		.loc 1 445 0 is_stmt 0 discriminator 2
 1108 06cc 0A2F     		cmp	r7, #10
 1109 06ce 3FF4B9AC 		beq	.L2
 1110              	.LVL99:
 1111              	.L98:
 1112              	.LBB157:
 1113              		.loc 1 446 0 is_stmt 1
 1114 06d2 3846     		mov	r0, r7
 1115 06d4 FFF7FEFF 		bl	comm_can_get_status_msg_index
 1116              	.LVL100:
 1117              		.loc 1 448 0
 1118 06d8 0268     		ldr	r2, [r0]
 1119 06da 002A     		cmp	r2, #0
 1120              	.LBE157:
 1121              		.loc 1 445 0
 1122 06dc 07F10107 		add	r7, r7, #1
 1123              	.LVL101:
 1124              	.LBB162:
 1125              		.loc 1 448 0
 1126 06e0 F4DB     		blt	.L96
 1127              	.LBB158:
 1128              	.LBB159:
 1129              		.loc 3 267 0 discriminator 1
 1130 06e2 4168     		ldr	r1, [r0, #4]
 1131              	.LBB160:
 1132              	.LBB161:
 1133              		.loc 3 231 0 discriminator 1
 1134 06e4 AB6A     		ldr	r3, [r5, #40]
 1135              	.LVL102:
 1136              	.LBE161:
 1137              	.LBE160:
 1138              		.loc 3 267 0 discriminator 1
 1139 06e6 5B1A     		subs	r3, r3, r1
 1140              	.LBE159:
ARM GAS  /tmp/ccggp577.s 			page 21


 1141              	.LBE158:
 1142              		.loc 1 448 0 discriminator 1
 1143 06e8 07EE903A 		vmov	s15, r3	@ int
 1144 06ec F8EE677A 		vcvt.f32.u32	s15, s15
 1145 06f0 87EEA87A 		vdiv.f32	s14, s15, s17
 1146 06f4 B4EEC87A 		vcmpe.f32	s14, s16
 1147 06f8 F1EE10FA 		vmrs	APSR_nzcv, FPSCR
 1148 06fc E6D5     		bpl	.L96
 1149              		.loc 1 449 0
 1150 06fe 9DED050A 		vldr.32	s0, [sp, #20]
 1151 0702 D0B2     		uxtb	r0, r2
 1152              	.LVL103:
 1153 0704 B0EEC00A 		vabs.f32	s0, s0
 1154 0708 FFF7FEFF 		bl	comm_can_set_current_brake_rel
 1155              	.LVL104:
 1156 070c DEE7     		b	.L96
 1157              	.LVL105:
 1158              	.L252:
 1159              	.LBE162:
 1160              	.LBE156:
 1161              	.LBB163:
 1162              		.loc 1 423 0
 1163 070e FFF7FEFF 		bl	mc_interface_get_tot_current_directional_filtered
 1164              	.LVL106:
 1165 0712 B0EE40BA 		vmov.f32	s22, s0
 1166              	.LVL107:
 1167              		.loc 1 424 0
 1168 0716 FFF7FEFF 		bl	mc_interface_get_duty_cycle_now
 1169              	.LVL108:
 1170              	.LBB164:
 1171              		.loc 1 426 0
 1172 071a 4FF0000B 		mov	fp, #0
 1173              	.LBE164:
 1174              		.loc 1 424 0
 1175 071e B0EE40CA 		vmov.f32	s24, s0
 1176              	.LVL109:
 1177 0722 09E0     		b	.L91
 1178              	.LVL110:
 1179              	.L90:
 1180              	.LBB172:
 1181              	.LBB165:
 1182              		.loc 1 432 0
 1183 0724 B9F1000F 		cmp	r9, #0
 1184 0728 40F00E81 		bne	.L257
 1185              	.L88:
 1186              	.LBE165:
 1187              		.loc 1 426 0 discriminator 2
 1188 072c 0BF1010B 		add	fp, fp, #1
 1189              	.LVL111:
 1190 0730 BBF10A0F 		cmp	fp, #10
 1191 0734 3FF478AE 		beq	.L87
 1192              	.LVL112:
 1193              	.L91:
 1194              	.LBB170:
 1195              		.loc 1 427 0
 1196 0738 5846     		mov	r0, fp
 1197 073a FFF7FEFF 		bl	comm_can_get_status_msg_index
ARM GAS  /tmp/ccggp577.s 			page 22


 1198              	.LVL113:
 1199              		.loc 1 429 0
 1200 073e 0168     		ldr	r1, [r0]
 1201 0740 0029     		cmp	r1, #0
 1202 0742 F3DB     		blt	.L88
 1203              	.LBB166:
 1204              	.LBB167:
 1205              		.loc 3 267 0 discriminator 1
 1206 0744 4068     		ldr	r0, [r0, #4]
 1207              	.LVL114:
 1208              	.LBB168:
 1209              	.LBB169:
 1210              		.loc 3 231 0 discriminator 1
 1211 0746 AA6A     		ldr	r2, [r5, #40]
 1212              	.LVL115:
 1213              	.LBE169:
 1214              	.LBE168:
 1215              		.loc 3 267 0 discriminator 1
 1216 0748 121A     		subs	r2, r2, r0
 1217              	.LBE167:
 1218              	.LBE166:
 1219              		.loc 1 429 0 discriminator 1
 1220 074a 07EE902A 		vmov	s15, r2	@ int
 1221 074e F8EE677A 		vcvt.f32.u32	s15, s15
 1222 0752 87EEA87A 		vdiv.f32	s14, s15, s17
 1223 0756 B4EEC87A 		vcmpe.f32	s14, s16
 1224 075a F1EE10FA 		vmrs	APSR_nzcv, FPSCR
 1225 075e E5D5     		bpl	.L88
 1226              		.loc 1 430 0
 1227 0760 BAF1000F 		cmp	r10, #0
 1228 0764 DED0     		beq	.L90
 1229              		.loc 1 431 0
 1230 0766 C8B2     		uxtb	r0, r1
 1231 0768 B0EE4B0A 		vmov.f32	s0, s22
 1232 076c FFF7FEFF 		bl	comm_can_set_current
 1233              	.LVL116:
 1234 0770 DCE7     		b	.L88
 1235              	.LVL117:
 1236              	.L60:
 1237              	.LBE170:
 1238              	.LBE172:
 1239              	.LBE163:
 1240              		.loc 1 318 0
 1241 0772 D7ED151A 		vldr.32	s3, [r7, #84]
 1242 0776 97ED152A 		vldr.32	s4, [r7, #84]
 1243 077a 0393     		str	r3, [sp, #12]
 1244 077c F1EE611A 		vneg.f32	s3, s3
 1245 0780 B7EE001A 		vmov.f32	s2, #1.0e+0
 1246 0784 FFEE000A 		vmov.f32	s1, #-1.0e+0
 1247 0788 FFF7FEFF 		bl	utils_map
 1248              	.LVL118:
 1249              		.loc 1 199 0
 1250 078c 4FF0000A 		mov	r10, #0
 1251              		.loc 1 318 0
 1252 0790 FFF7FEFF 		bl	mc_interface_set_duty
 1253              	.LVL119:
 1254              		.loc 1 196 0
ARM GAS  /tmp/ccggp577.s 			page 23


 1255 0794 5FED34AA 		vldr.32	s21, .L264+36
 1256 0798 039B     		ldr	r3, [sp, #12]
 1257              		.loc 1 197 0
 1258 079a CDE901AA 		strd	r10, r10, [sp, #4]
 1259              		.loc 1 319 0
 1260 079e 4FF00109 		mov	r9, #1
 1261 07a2 04E6     		b	.L43
 1262              	.LVL120:
 1263              	.L53:
 1264              		.loc 1 303 0
 1265 07a4 D7ED20AA 		vldr.32	s21, [r7, #128]
 1266 07a8 67EEAAAA 		vmul.f32	s21, s15, s21
 1267 07ac F0EEEAAA 		vabs.f32	s21, s21
 1268              	.LVL121:
 1269 07b0 B7E6     		b	.L56
 1270              	.LVL122:
 1271              	.L45:
 1272              		.loc 1 284 0 discriminator 3
 1273 07b2 F5EEC07A 		vcmpe.f32	s15, #0
 1274 07b6 F1EE10FA 		vmrs	APSR_nzcv, FPSCR
 1275 07ba 00F10781 		bmi	.L258
 1276              	.L48:
 1277              		.loc 1 287 0
 1278 07be D7ED20AA 		vldr.32	s21, [r7, #128]
 1279 07c2 F0EEEAAA 		vabs.f32	s21, s21
 1280 07c6 6AEEA7AA 		vmul.f32	s21, s21, s15
 1281              	.LVL123:
 1282 07ca DBE5     		b	.L51
 1283              	.LVL124:
 1284              	.L254:
 1285              	.LBB174:
 1286              		.loc 1 464 0
 1287 07cc DDED057A 		vldr.32	s15, [sp, #20]
 1288              		.loc 1 468 0
 1289 07d0 94F83030 		ldrb	r3, [r4, #48]	@ zero_extendqisi2
 1290              		.loc 1 464 0
 1291 07d4 F1EE677A 		vneg.f32	s15, s15
 1292              		.loc 1 468 0
 1293 07d8 03F0FF02 		and	r2, r3, #255
 1294              		.loc 1 459 0
 1295 07dc F1EE6AAA 		vneg.f32	s21, s21
 1296              	.LVL125:
 1297              		.loc 1 464 0
 1298 07e0 CDED057A 		vstr.32	s15, [sp, #20]
 1299              		.loc 1 468 0
 1300 07e4 0292     		str	r2, [sp, #8]
 1301 07e6 002B     		cmp	r3, #0
 1302 07e8 66D0     		beq	.L101
 1303              		.loc 1 461 0
 1304 07ea F1EE6BBA 		vneg.f32	s23, s23
 1305              	.LVL126:
 1306              		.loc 1 462 0
 1307 07ee F1EE699A 		vneg.f32	s19, s19
 1308              	.LVL127:
 1309              		.loc 1 463 0
 1310 07f2 B1EE4AAA 		vneg.f32	s20, s20
 1311              	.LVL128:
ARM GAS  /tmp/ccggp577.s 			page 24


 1312              	.L119:
 1313              		.loc 1 469 0
 1314 07f6 94F83130 		ldrb	r3, [r4, #49]	@ zero_extendqisi2
 1315 07fa 002B     		cmp	r3, #0
 1316 07fc 40F01181 		bne	.L259
 1317              	.L103:
 1318              	.LBE174:
 1319              	.LBB175:
 1320              		.loc 1 445 0
 1321 0800 4FF00009 		mov	r9, #0
 1322              	.LVL129:
 1323              	.L114:
 1324              	.LBE175:
 1325              	.LBB176:
 1326              	.LBB112:
 1327              	.LBB109:
 1328              		.loc 1 477 0
 1329 0804 4846     		mov	r0, r9
 1330 0806 FFF7FEFF 		bl	comm_can_get_status_msg_index
 1331              	.LVL130:
 1332              		.loc 1 479 0
 1333 080a 0168     		ldr	r1, [r0]
 1334 080c 0029     		cmp	r1, #0
 1335 080e 27DB     		blt	.L108
 1336              	.LVL131:
 1337              	.LBB104:
 1338              	.LBB105:
 1339              	.LBB106:
 1340              	.LBB107:
 1341              		.loc 3 231 0 discriminator 1
 1342 0810 AB6A     		ldr	r3, [r5, #40]
 1343              	.LVL132:
 1344              	.LBE107:
 1345              	.LBE106:
 1346              		.loc 3 267 0 discriminator 1
 1347 0812 4268     		ldr	r2, [r0, #4]
 1348 0814 9B1A     		subs	r3, r3, r2
 1349              	.LBE105:
 1350              	.LBE104:
 1351              		.loc 1 479 0 discriminator 1
 1352 0816 07EE903A 		vmov	s15, r3	@ int
 1353 081a F8EE677A 		vcvt.f32.u32	s15, s15
 1354 081e 87EEA87A 		vdiv.f32	s14, s15, s17
 1355 0822 B4EEC87A 		vcmpe.f32	s14, s16
 1356 0826 F1EE10FA 		vmrs	APSR_nzcv, FPSCR
 1357 082a 19D5     		bpl	.L108
 1358              		.loc 1 481 0
 1359 082c 94F83130 		ldrb	r3, [r4, #49]	@ zero_extendqisi2
 1360 0830 9DED050A 		vldr.32	s0, [sp, #20]
 1361 0834 6BB1     		cbz	r3, .L110
 1362              		.loc 1 481 0 is_stmt 0 discriminator 1
 1363 0836 94ED0D7A 		vldr.32	s14, [r4, #52]
 1364 083a F7EE007A 		vmov.f32	s15, #1.0e+0
 1365 083e B4EEE77A 		vcmpe.f32	s14, s15
 1366 0842 F1EE10FA 		vmrs	APSR_nzcv, FPSCR
 1367 0846 04DD     		ble	.L110
 1368              		.loc 1 481 0 discriminator 2
ARM GAS  /tmp/ccggp577.s 			page 25


 1369 0848 864B     		ldr	r3, .L266
 1370 084a 1B78     		ldrb	r3, [r3]	@ zero_extendqisi2
 1371 084c 002B     		cmp	r3, #0
 1372 084e 00F09C80 		beq	.L260
 1373              	.LVL133:
 1374              	.L110:
 1375              		.loc 1 491 0 is_stmt 1
 1376 0852 029B     		ldr	r3, [sp, #8]
 1377 0854 C8B2     		uxtb	r0, r1
 1378 0856 ABB3     		cbz	r3, .L113
 1379              		.loc 1 492 0
 1380 0858 B1EE400A 		vneg.f32	s0, s0
 1381 085c FFF7FEFF 		bl	comm_can_set_current_rel
 1382              	.LVL134:
 1383              	.L108:
 1384              	.LBE109:
 1385              		.loc 1 476 0 discriminator 2
 1386 0860 09F10109 		add	r9, r9, #1
 1387              	.LVL135:
 1388 0864 B9F10A0F 		cmp	r9, #10
 1389 0868 CCD1     		bne	.L114
 1390              	.LBE112:
 1391              		.loc 1 499 0
 1392 086a 94F83130 		ldrb	r3, [r4, #49]	@ zero_extendqisi2
 1393 086e FBB1     		cbz	r3, .L115
 1394              		.loc 1 499 0 is_stmt 0 discriminator 1
 1395 0870 94ED0D7A 		vldr.32	s14, [r4, #52]
 1396 0874 F7EE007A 		vmov.f32	s15, #1.0e+0
 1397 0878 B4EEE77A 		vcmpe.f32	s14, s15
 1398 087c F1EE10FA 		vmrs	APSR_nzcv, FPSCR
 1399 0880 16DD     		ble	.L115
 1400              	.LVL136:
 1401              	.LBB113:
 1402              		.loc 1 501 0 is_stmt 1
 1403 0882 F0EE6A1A 		vmov.f32	s3, s21
 1404 0886 94ED0D1A 		vldr.32	s2, [r4, #52]
 1405 088a DFED770A 		vldr.32	s1, .L266+4
 1406 088e 3BEEE90A 		vsub.f32	s0, s23, s19
 1407              	.LVL137:
 1408 0892 B0EE492A 		vmov.f32	s4, s18
 1409 0896 FFF7FEFF 		bl	utils_map
 1410              	.LVL138:
 1411              		.loc 1 502 0
 1412 089a D7ED837A 		vldr.32	s15, [r7, #524]
 1413              		.loc 1 503 0
 1414 089e F4EE407A 		vcmp.f32	s15, s0
 1415              		.loc 1 501 0
 1416 08a2 F0EE40AA 		vmov.f32	s21, s0
 1417              	.LVL139:
 1418              		.loc 1 503 0
 1419 08a6 F1EE10FA 		vmrs	APSR_nzcv, FPSCR
 1420 08aa C8BF     		it	gt
 1421 08ac F0EE49AA 		vmovgt.f32	s21, s18
 1422              	.LVL140:
 1423              	.L115:
 1424              	.LBE113:
 1425              		.loc 1 508 0
ARM GAS  /tmp/ccggp577.s 			page 26


 1426 08b0 029B     		ldr	r3, [sp, #8]
 1427 08b2 002B     		cmp	r3, #0
 1428 08b4 3FF4CBAD 		beq	.L117
 1429              	.LVL141:
 1430              	.L101:
 1431              		.loc 1 509 0
 1432 08b8 B1EE6A0A 		vneg.f32	s0, s21
 1433 08bc FFF7FEFF 		bl	mc_interface_set_current
 1434              	.LVL142:
 1435 08c0 FFF7C0BB 		b	.L2
 1436              	.LVL143:
 1437              	.L113:
 1438              	.LBB114:
 1439              	.LBB110:
 1440              		.loc 1 494 0
 1441 08c4 FFF7FEFF 		bl	comm_can_set_current_rel
 1442              	.LVL144:
 1443 08c8 CAE7     		b	.L108
 1444              	.LVL145:
 1445              	.L235:
 1446              	.LBE110:
 1447              	.LBE114:
 1448              	.LBE176:
 1449              		.loc 1 200 0
 1450 08ca 4FF00009 		mov	r9, #0
 1451              		.loc 1 283 0
 1452 08ce 0123     		movs	r3, #1
 1453 08d0 0193     		str	r3, [sp, #4]
 1454              		.loc 1 199 0
 1455 08d2 CA46     		mov	r10, r9
 1456              		.loc 1 198 0
 1457 08d4 CDF80890 		str	r9, [sp, #8]
 1458 08d8 644B     		ldr	r3, .L266+8
 1459 08da 68E5     		b	.L43
 1460              	.LVL146:
 1461              	.L30:
 1462              		.loc 1 218 0
 1463 08dc 6449     		ldr	r1, .L266+12
 1464 08de D4ED0E7A 		vldr.32	s15, [r4, #56]
 1465 08e2 91ED007A 		vldr.32	s14, [r1]
 1466 08e6 77EE877A 		vadd.f32	s15, s15, s14
 1467 08ea F4EEC07A 		vcmpe.f32	s15, s0
 1468 08ee F1EE10FA 		vmrs	APSR_nzcv, FPSCR
 1469 08f2 08D5     		bpl	.L33
 1470              		.loc 1 220 0
 1471 08f4 5F48     		ldr	r0, .L266+16
 1472              		.loc 1 219 0
 1473 08f6 0121     		movs	r1, #1
 1474              		.loc 1 220 0
 1475 08f8 0270     		strb	r2, [r0]
 1476              		.loc 1 219 0
 1477 08fa 1970     		strb	r1, [r3]
 1478 08fc D1E4     		b	.L31
 1479              	.L248:
 1480              		.loc 1 215 0
 1481 08fe 5D49     		ldr	r1, .L266+16
 1482              		.loc 1 214 0
ARM GAS  /tmp/ccggp577.s 			page 27


 1483 0900 0022     		movs	r2, #0
 1484              		.loc 1 215 0
 1485 0902 0A70     		strb	r2, [r1]
 1486              		.loc 1 214 0
 1487 0904 1A70     		strb	r2, [r3]
 1488              	.L33:
 1489              		.loc 1 224 0
 1490 0906 DDED057A 		vldr.32	s15, [sp, #20]
 1491 090a F5EEC07A 		vcmpe.f32	s15, #0
 1492 090e F1EE10FA 		vmrs	APSR_nzcv, FPSCR
 1493 0912 BFF6CEAC 		bge	.L120
 1494              		.loc 1 249 0
 1495 0916 94ED0E7A 		vldr.32	s14, [r4, #56]
 1496 091a 564B     		ldr	r3, .L266+16
 1497 091c B1EE477A 		vneg.f32	s14, s14
 1498 0920 B4EEEB7A 		vcmpe.f32	s14, s23
 1499 0924 F1EE10FA 		vmrs	APSR_nzcv, FPSCR
 1500 0928 93F90020 		ldrsb	r2, [r3]
 1501 092c 20D5     		bpl	.L261
 1502              		.loc 1 251 0
 1503 092e 022A     		cmp	r2, #2
 1504 0930 22D0     		beq	.L41
 1505              		.loc 1 252 0
 1506 0932 0122     		movs	r2, #1
 1507 0934 1A70     		strb	r2, [r3]
 1508              	.LVL147:
 1509              	.L42:
 1510              		.loc 1 269 0
 1511 0936 D7ED20AA 		vldr.32	s21, [r7, #128]
 1512 093a 6AEEA7AA 		vmul.f32	s21, s21, s15
 1513 093e 0123     		movs	r3, #1
 1514 0940 0293     		str	r3, [sp, #8]
 1515 0942 F0EEEAAA 		vabs.f32	s21, s21
 1516              	.LVL148:
 1517 0946 CCE4     		b	.L40
 1518              	.LVL149:
 1519              	.L257:
 1520              	.LBB177:
 1521              	.LBB173:
 1522              	.LBB171:
 1523              		.loc 1 433 0
 1524 0948 C8B2     		uxtb	r0, r1
 1525 094a B0EE4C0A 		vmov.f32	s0, s24
 1526 094e FFF7FEFF 		bl	comm_can_set_duty
 1527              	.LVL150:
 1528 0952 EBE6     		b	.L88
 1529              	.LVL151:
 1530              	.L35:
 1531              	.LBE171:
 1532              	.LBE173:
 1533              	.LBE177:
 1534              		.loc 1 232 0
 1535 0954 94ED0E7A 		vldr.32	s14, [r4, #56]
 1536 0958 B1EE477A 		vneg.f32	s14, s14
 1537 095c B4EEEB7A 		vcmpe.f32	s14, s23
 1538 0960 F1EE10FA 		vmrs	APSR_nzcv, FPSCR
 1539 0964 7FF5B1AC 		bpl	.L36
ARM GAS  /tmp/ccggp577.s 			page 28


 1540              		.loc 1 233 0
 1541 0968 424B     		ldr	r3, .L266+16
 1542 096a 0022     		movs	r2, #0
 1543 096c 1A70     		strb	r2, [r3]
 1544 096e ACE4     		b	.L36
 1545              	.L261:
 1546              		.loc 1 258 0
 1547 0970 012A     		cmp	r2, #1
 1548 0972 E0D0     		beq	.L42
 1549              		.loc 1 262 0
 1550 0974 0222     		movs	r2, #2
 1551 0976 1A70     		strb	r2, [r3]
 1552              	.L41:
 1553              		.loc 1 272 0
 1554 0978 D7ED20AA 		vldr.32	s21, [r7, #128]
 1555 097c 0023     		movs	r3, #0
 1556 097e F0EEEAAA 		vabs.f32	s21, s21
 1557 0982 6AEEA7AA 		vmul.f32	s21, s21, s15
 1558              	.LVL152:
 1559 0986 0293     		str	r3, [sp, #8]
 1560 0988 ABE4     		b	.L40
 1561              	.LVL153:
 1562              	.L260:
 1563              	.LBB178:
 1564              	.LBB115:
 1565              	.LBB111:
 1566              	.LBB108:
 1567              		.loc 1 483 0
 1568 098a 029B     		ldr	r3, [sp, #8]
 1569              		.loc 1 482 0
 1570 098c D0ED027A 		vldr.32	s15, [r0, #8]
 1571              	.LVL154:
 1572              		.loc 1 483 0
 1573 0990 0BB1     		cbz	r3, .L112
 1574              		.loc 1 484 0
 1575 0992 F1EE677A 		vneg.f32	s15, s15
 1576              	.LVL155:
 1577              	.L112:
 1578              		.loc 1 488 0
 1579 0996 F0EE401A 		vmov.f32	s3, s0
 1580 099a 94ED0D1A 		vldr.32	s2, [r4, #52]
 1581 099e DFED320A 		vldr.32	s1, .L266+4
 1582 09a2 0190     		str	r0, [sp, #4]
 1583 09a4 37EEE90A 		vsub.f32	s0, s15, s19
 1584              	.LVL156:
 1585 09a8 B0EE492A 		vmov.f32	s4, s18
 1586 09ac FFF7FEFF 		bl	utils_map
 1587              	.LVL157:
 1588 09b0 0198     		ldr	r0, [sp, #4]
 1589 09b2 0168     		ldr	r1, [r0]
 1590 09b4 8DED050A 		vstr.32	s0, [sp, #20]
 1591 09b8 4BE7     		b	.L110
 1592              	.LVL158:
 1593              	.L255:
 1594 09ba 2F4B     		ldr	r3, .L266+20
 1595 09bc 7DE5     		b	.L79
 1596              	.LVL159:
ARM GAS  /tmp/ccggp577.s 			page 29


 1597              	.L249:
 1598              	.LBE108:
 1599              	.LBE111:
 1600              	.LBE115:
 1601              	.LBE178:
 1602              		.loc 1 227 0 discriminator 1
 1603 09be 1B78     		ldrb	r3, [r3]	@ zero_extendqisi2
 1604 09c0 002B     		cmp	r3, #0
 1605 09c2 7FF482AC 		bne	.L36
 1606              		.loc 1 228 0
 1607 09c6 0223     		movs	r3, #2
 1608 09c8 1370     		strb	r3, [r2]
 1609 09ca 7EE4     		b	.L36
 1610              	.L258:
 1611              		.loc 1 284 0 discriminator 4
 1612 09cc F5EEC09A 		vcmpe.f32	s19, #0
 1613 09d0 F1EE10FA 		vmrs	APSR_nzcv, FPSCR
 1614 09d4 3FF6F3AE 		bhi	.L48
 1615 09d8 D0E4     		b	.L47
 1616              	.LVL160:
 1617              	.L134:
 1618              	.LBB179:
 1619              	.LBB147:
 1620              	.LBB140:
 1621              		.loc 1 406 0
 1622 09da 4FF0000B 		mov	fp, #0
 1623 09de 03E0     		b	.L82
 1624              	.LVL161:
 1625              	.L83:
 1626              		.loc 1 406 0 is_stmt 0 discriminator 2
 1627 09e0 BBF10A0F 		cmp	fp, #10
 1628 09e4 3FF484AD 		beq	.L85
 1629              	.LVL162:
 1630              	.L82:
 1631              	.LBB141:
 1632              		.loc 1 407 0 is_stmt 1
 1633 09e8 5846     		mov	r0, fp
 1634 09ea FFF7FEFF 		bl	comm_can_get_status_msg_index
 1635              	.LVL163:
 1636              		.loc 1 409 0
 1637 09ee 0168     		ldr	r1, [r0]
 1638 09f0 0029     		cmp	r1, #0
 1639              	.LBE141:
 1640              		.loc 1 406 0
 1641 09f2 0BF1010B 		add	fp, fp, #1
 1642              	.LVL164:
 1643              	.LBB146:
 1644              		.loc 1 409 0
 1645 09f6 F3DB     		blt	.L83
 1646              	.LBB142:
 1647              	.LBB143:
 1648              		.loc 3 267 0 discriminator 1
 1649 09f8 4068     		ldr	r0, [r0, #4]
 1650              	.LVL165:
 1651              	.LBB144:
 1652              	.LBB145:
 1653              		.loc 3 231 0 discriminator 1
ARM GAS  /tmp/ccggp577.s 			page 30


 1654 09fa AA6A     		ldr	r2, [r5, #40]
 1655              	.LVL166:
 1656              	.LBE145:
 1657              	.LBE144:
 1658              		.loc 3 267 0 discriminator 1
 1659 09fc 121A     		subs	r2, r2, r0
 1660              	.LBE143:
 1661              	.LBE142:
 1662              		.loc 1 409 0 discriminator 1
 1663 09fe 07EE902A 		vmov	s15, r2	@ int
 1664 0a02 F8EE677A 		vcvt.f32.u32	s15, s15
 1665 0a06 87EEA87A 		vdiv.f32	s14, s15, s17
 1666 0a0a B4EEC87A 		vcmpe.f32	s14, s16
 1667 0a0e F1EE10FA 		vmrs	APSR_nzcv, FPSCR
 1668 0a12 E5D5     		bpl	.L83
 1669              		.loc 1 410 0
 1670 0a14 194B     		ldr	r3, .L266+24
 1671 0a16 C8B2     		uxtb	r0, r1
 1672 0a18 93ED000A 		vldr.32	s0, [r3]
 1673 0a1c FFF7FEFF 		bl	comm_can_set_duty
 1674              	.LVL167:
 1675 0a20 DEE7     		b	.L83
 1676              	.LVL168:
 1677              	.L259:
 1678              	.LBE146:
 1679              	.LBE140:
 1680              	.LBE147:
 1681              	.LBE179:
 1682              	.LBB180:
 1683              		.loc 1 470 0
 1684 0a22 FFF7FEFF 		bl	mc_interface_get_fault
 1685              	.LVL169:
 1686              		.loc 1 471 0
 1687 0a26 0F4B     		ldr	r3, .L266
 1688              		.loc 1 470 0
 1689 0a28 10B1     		cbz	r0, .L104
 1690              		.loc 1 471 0
 1691 0a2a 0122     		movs	r2, #1
 1692 0a2c 1A70     		strb	r2, [r3]
 1693 0a2e E7E6     		b	.L103
 1694              	.L104:
 1695              		.loc 1 472 0
 1696 0a30 1A78     		ldrb	r2, [r3]	@ zero_extendqisi2
 1697 0a32 002A     		cmp	r2, #0
 1698 0a34 3FF4E4AE 		beq	.L103
 1699              		.loc 1 472 0 is_stmt 0 discriminator 1
 1700 0a38 D4ED0D7A 		vldr.32	s15, [r4, #52]
 1701 0a3c 77EEAB7A 		vadd.f32	s15, s15, s23
 1702 0a40 F4EECA7A 		vcmpe.f32	s15, s20
 1703 0a44 F1EE10FA 		vmrs	APSR_nzcv, FPSCR
 1704 0a48 7FF7DAAE 		ble	.L103
 1705              		.loc 1 472 0 discriminator 2
 1706 0a4c D4ED0D7A 		vldr.32	s15, [r4, #52]
 1707 0a50 7BEEE77A 		vsub.f32	s15, s23, s15
 1708 0a54 F4EEE97A 		vcmpe.f32	s15, s19
 1709 0a58 F1EE10FA 		vmrs	APSR_nzcv, FPSCR
 1710              		.loc 1 473 0 is_stmt 1 discriminator 2
ARM GAS  /tmp/ccggp577.s 			page 31


 1711 0a5c 48BF     		it	mi
 1712 0a5e 1870     		strbmi	r0, [r3]
 1713 0a60 CEE6     		b	.L103
 1714              	.L267:
 1715 0a62 00BF     		.align	2
 1716              	.L266:
 1717 0a64 00000000 		.word	.LANCHOR16
 1718 0a68 00000000 		.word	0
 1719 0a6c 00000000 		.word	.LANCHOR6
 1720 0a70 00000000 		.word	.LANCHOR11
 1721 0a74 00000000 		.word	.LANCHOR12
 1722 0a78 00000000 		.word	.LANCHOR14
 1723 0a7c 00000000 		.word	.LANCHOR15
 1724              	.LBE180:
 1725              	.LBE182:
 1726              		.cfi_endproc
 1727              	.LFE261:
 1728              		.size	ppm_thread, .-ppm_thread
 1729              		.section	.text.servodec_func,"ax",%progbits
 1730              		.align	1
 1731              		.p2align 4,,15
 1732              		.syntax unified
 1733              		.thumb
 1734              		.thumb_func
 1735              		.fpu fpv4-sp-d16
 1736              		.type	servodec_func, %function
 1737              	servodec_func:
 1738              	.LFB260:
 1739              		.loc 1 88 0
 1740              		.cfi_startproc
 1741              		@ args = 0, pretend = 0, frame = 0
 1742              		@ frame_needed = 0, uses_anonymous_args = 0
 1743 0000 08B5     		push	{r3, lr}
 1744              		.cfi_def_cfa_offset 8
 1745              		.cfi_offset 3, -8
 1746              		.cfi_offset 14, -4
 1747              		.loc 1 89 0
 1748 0002 054B     		ldr	r3, .L270
 1749 0004 0121     		movs	r1, #1
 1750 0006 1970     		strb	r1, [r3]
 1751              	.LBB183:
 1752              	.LBB184:
 1753              	.LBB185:
 1754              	.LBB186:
 1755              	.LBB187:
 1756              		.file 4 "ChibiOS_3.0.5/os/ext/CMSIS/include/core_cmFunc.h"
 1757              		.loc 4 342 0
 1758              		.syntax unified
 1759              	@ 342 "ChibiOS_3.0.5/os/ext/CMSIS/include/core_cmFunc.h" 1
 1760 0008 72B6     		cpsid i
 1761              	@ 0 "" 2
 1762              		.thumb
 1763              		.syntax unified
 1764              	.LBE187:
 1765              	.LBE186:
 1766              	.LBE185:
 1767              	.LBE184:
ARM GAS  /tmp/ccggp577.s 			page 32


 1768              	.LBE183:
 1769              		.loc 1 91 0
 1770 000a 044B     		ldr	r3, .L270+4
 1771 000c 1868     		ldr	r0, [r3]
 1772 000e FFF7FEFF 		bl	chEvtSignalI
 1773              	.LVL170:
 1774              	.LBB188:
 1775              	.LBB189:
 1776              	.LBB190:
 1777              	.LBB191:
 1778              	.LBB192:
 1779              		.loc 4 331 0
 1780              		.syntax unified
 1781              	@ 331 "ChibiOS_3.0.5/os/ext/CMSIS/include/core_cmFunc.h" 1
 1782 0012 62B6     		cpsie i
 1783              	@ 0 "" 2
 1784              		.thumb
 1785              		.syntax unified
 1786              	.LBE192:
 1787              	.LBE191:
 1788              	.LBE190:
 1789              	.LBE189:
 1790              	.LBE188:
 1791              		.loc 1 93 0
 1792 0014 08BD     		pop	{r3, pc}
 1793              	.L271:
 1794 0016 00BF     		.align	2
 1795              	.L270:
 1796 0018 00000000 		.word	.LANCHOR4
 1797 001c 00000000 		.word	.LANCHOR0
 1798              		.cfi_endproc
 1799              	.LFE260:
 1800              		.size	servodec_func, .-servodec_func
 1801              		.section	.text.app_ppm_configure,"ax",%progbits
 1802              		.align	1
 1803              		.p2align 4,,15
 1804              		.global	app_ppm_configure
 1805              		.syntax unified
 1806              		.thumb
 1807              		.thumb_func
 1808              		.fpu fpv4-sp-d16
 1809              		.type	app_ppm_configure, %function
 1810              	app_ppm_configure:
 1811              	.LFB256:
 1812              		.loc 1 55 0
 1813              		.cfi_startproc
 1814              		@ args = 0, pretend = 0, frame = 0
 1815              		@ frame_needed = 0, uses_anonymous_args = 0
 1816              	.LVL171:
 1817 0000 10B5     		push	{r4, lr}
 1818              		.cfi_def_cfa_offset 8
 1819              		.cfi_offset 4, -8
 1820              		.cfi_offset 14, -4
 1821              		.loc 1 56 0
 1822 0002 0E4C     		ldr	r4, .L278
 1823 0004 0146     		mov	r1, r0
 1824 0006 4422     		movs	r2, #68
ARM GAS  /tmp/ccggp577.s 			page 33


 1825 0008 2046     		mov	r0, r4
 1826              	.LVL172:
 1827 000a FFF7FEFF 		bl	memcpy
 1828              	.LVL173:
 1829              		.loc 1 57 0
 1830 000e 0C4A     		ldr	r2, .L278+4
 1831              		.loc 1 59 0
 1832 0010 0C4B     		ldr	r3, .L278+8
 1833              		.loc 1 57 0
 1834 0012 0021     		movs	r1, #0
 1835 0014 1160     		str	r1, [r2]
 1836              		.loc 1 59 0
 1837 0016 1B78     		ldrb	r3, [r3]	@ zero_extendqisi2
 1838 0018 33B1     		cbz	r3, .L273
 1839              		.loc 1 60 0
 1840 001a 94ED030A 		vldr.32	s0, [r4, #12]
 1841 001e D4ED040A 		vldr.32	s1, [r4, #16]
 1842 0022 207E     		ldrb	r0, [r4, #24]	@ zero_extendqisi2
 1843 0024 FFF7FEFF 		bl	servodec_set_pulse_options
 1844              	.LVL174:
 1845              	.L273:
 1846              		.loc 1 63 0
 1847 0028 D4ED0E7A 		vldr.32	s15, [r4, #56]
 1848 002c 9FED067A 		vldr.32	s14, .L278+12
 1849 0030 064B     		ldr	r3, .L278+16
 1850 0032 67EE877A 		vmul.f32	s15, s15, s14
 1851 0036 C3ED007A 		vstr.32	s15, [r3]
 1852              		.loc 1 64 0
 1853 003a 10BD     		pop	{r4, pc}
 1854              	.L279:
 1855              		.align	2
 1856              	.L278:
 1857 003c 00000000 		.word	.LANCHOR1
 1858 0040 00000000 		.word	.LANCHOR6
 1859 0044 00000000 		.word	.LANCHOR2
 1860 0048 CDCC4C3E 		.word	1045220557
 1861 004c 00000000 		.word	.LANCHOR11
 1862              		.cfi_endproc
 1863              	.LFE256:
 1864              		.size	app_ppm_configure, .-app_ppm_configure
 1865              		.section	.text.app_ppm_start,"ax",%progbits
 1866              		.align	1
 1867              		.p2align 4,,15
 1868              		.global	app_ppm_start
 1869              		.syntax unified
 1870              		.thumb
 1871              		.thumb_func
 1872              		.fpu fpv4-sp-d16
 1873              		.type	app_ppm_start, %function
 1874              	app_ppm_start:
 1875              	.LFB257:
 1876              		.loc 1 66 0
 1877              		.cfi_startproc
 1878              		@ args = 0, pretend = 0, frame = 0
 1879              		@ frame_needed = 0, uses_anonymous_args = 0
 1880 0000 30B5     		push	{r4, r5, lr}
 1881              		.cfi_def_cfa_offset 12
ARM GAS  /tmp/ccggp577.s 			page 34


 1882              		.cfi_offset 4, -12
 1883              		.cfi_offset 5, -8
 1884              		.cfi_offset 14, -4
 1885 0002 83B0     		sub	sp, sp, #12
 1886              		.cfi_def_cfa_offset 24
 1887              		.loc 1 67 0
 1888 0004 0024     		movs	r4, #0
 1889 0006 064D     		ldr	r5, .L282
 1890              		.loc 1 68 0
 1891 0008 064B     		ldr	r3, .L282+4
 1892 000a 0094     		str	r4, [sp]
 1893 000c 4022     		movs	r2, #64
 1894 000e 4FF46871 		mov	r1, #928
 1895 0012 0548     		ldr	r0, .L282+8
 1896              		.loc 1 67 0
 1897 0014 2C70     		strb	r4, [r5]
 1898              		.loc 1 68 0
 1899 0016 FFF7FEFF 		bl	chThdCreateStatic
 1900              	.LVL175:
 1901              		.loc 1 69 0
 1902 001a 03B0     		add	sp, sp, #12
 1903              		.cfi_def_cfa_offset 12
 1904              		@ sp needed
 1905 001c 30BD     		pop	{r4, r5, pc}
 1906              	.L283:
 1907 001e 00BF     		.align	2
 1908              	.L282:
 1909 0020 00000000 		.word	.LANCHOR3
 1910 0024 00000000 		.word	ppm_thread
 1911 0028 00000000 		.word	.LANCHOR17
 1912              		.cfi_endproc
 1913              	.LFE257:
 1914              		.size	app_ppm_start, .-app_ppm_start
 1915              		.section	.text.app_ppm_stop,"ax",%progbits
 1916              		.align	1
 1917              		.p2align 4,,15
 1918              		.global	app_ppm_stop
 1919              		.syntax unified
 1920              		.thumb
 1921              		.thumb_func
 1922              		.fpu fpv4-sp-d16
 1923              		.type	app_ppm_stop, %function
 1924              	app_ppm_stop:
 1925              	.LFB258:
 1926              		.loc 1 71 0
 1927              		.cfi_startproc
 1928              		@ args = 0, pretend = 0, frame = 0
 1929              		@ frame_needed = 0, uses_anonymous_args = 0
 1930              		.loc 1 72 0
 1931 0000 0A4B     		ldr	r3, .L298
 1932              		.loc 1 71 0
 1933 0002 10B5     		push	{r4, lr}
 1934              		.cfi_def_cfa_offset 8
 1935              		.cfi_offset 4, -8
 1936              		.cfi_offset 14, -4
 1937              		.loc 1 72 0
 1938 0004 0121     		movs	r1, #1
ARM GAS  /tmp/ccggp577.s 			page 35


 1939              		.loc 1 74 0
 1940 0006 0A4C     		ldr	r4, .L298+4
 1941              		.loc 1 72 0
 1942 0008 1970     		strb	r1, [r3]
 1943              		.loc 1 74 0
 1944 000a 2378     		ldrb	r3, [r4]	@ zero_extendqisi2
 1945 000c 1BB1     		cbz	r3, .L296
 1946 000e 06E0     		b	.L297
 1947              	.L287:
 1948              		.loc 1 80 0
 1949 0010 0A20     		movs	r0, #10
 1950 0012 FFF7FEFF 		bl	chThdSleep
 1951              	.LVL176:
 1952              	.L296:
 1953              		.loc 1 79 0
 1954 0016 2378     		ldrb	r3, [r4]	@ zero_extendqisi2
 1955 0018 002B     		cmp	r3, #0
 1956 001a F9D1     		bne	.L287
 1957              		.loc 1 82 0
 1958 001c 10BD     		pop	{r4, pc}
 1959              	.L297:
 1960              		.loc 1 75 0
 1961 001e 054B     		ldr	r3, .L298+8
 1962 0020 1868     		ldr	r0, [r3]
 1963 0022 FFF7FEFF 		bl	chEvtSignalI
 1964              	.LVL177:
 1965              		.loc 1 76 0
 1966 0026 FFF7FEFF 		bl	servodec_stop
 1967              	.LVL178:
 1968 002a F4E7     		b	.L296
 1969              	.L299:
 1970              		.align	2
 1971              	.L298:
 1972 002c 00000000 		.word	.LANCHOR3
 1973 0030 00000000 		.word	.LANCHOR2
 1974 0034 00000000 		.word	.LANCHOR0
 1975              		.cfi_endproc
 1976              	.LFE258:
 1977              		.size	app_ppm_stop, .-app_ppm_stop
 1978              		.section	.text.app_ppm_get_decoded_level,"ax",%progbits
 1979              		.align	1
 1980              		.p2align 4,,15
 1981              		.global	app_ppm_get_decoded_level
 1982              		.syntax unified
 1983              		.thumb
 1984              		.thumb_func
 1985              		.fpu fpv4-sp-d16
 1986              		.type	app_ppm_get_decoded_level, %function
 1987              	app_ppm_get_decoded_level:
 1988              	.LFB259:
 1989              		.loc 1 84 0
 1990              		.cfi_startproc
 1991              		@ args = 0, pretend = 0, frame = 0
 1992              		@ frame_needed = 0, uses_anonymous_args = 0
 1993              		@ link register save eliminated.
 1994              		.loc 1 85 0
 1995 0000 014B     		ldr	r3, .L301
ARM GAS  /tmp/ccggp577.s 			page 36


 1996              		.loc 1 86 0
 1997 0002 93ED000A 		vldr.32	s0, [r3]
 1998 0006 7047     		bx	lr
 1999              	.L302:
 2000              		.align	2
 2001              	.L301:
 2002 0008 00000000 		.word	.LANCHOR5
 2003              		.cfi_endproc
 2004              	.LFE259:
 2005              		.size	app_ppm_get_decoded_level, .-app_ppm_get_decoded_level
 2006              		.section	.bss.autoTCdisengaged.12625,"aw",%nobits
 2007              		.set	.LANCHOR16,. + 0
 2008              		.type	autoTCdisengaged.12625, %object
 2009              		.size	autoTCdisengaged.12625, 1
 2010              	autoTCdisengaged.12625:
 2011 0000 00       		.space	1
 2012              		.section	.bss.config,"aw",%nobits
 2013              		.align	2
 2014              		.set	.LANCHOR1,. + 0
 2015              		.type	config, %object
 2016              		.size	config, 68
 2017              	config:
 2018 0000 00000000 		.space	68
 2018      00000000 
 2018      00000000 
 2018      00000000 
 2018      00000000 
 2019              		.section	.bss.did_idle_once.12578,"aw",%nobits
 2020              		.set	.LANCHOR12,. + 0
 2021              		.type	did_idle_once.12578, %object
 2022              		.size	did_idle_once.12578, 1
 2023              	did_idle_once.12578:
 2024 0000 00       		.space	1
 2025              		.section	.bss.direction_hyst,"aw",%nobits
 2026              		.align	2
 2027              		.set	.LANCHOR11,. + 0
 2028              		.type	direction_hyst, %object
 2029              		.size	direction_hyst, 4
 2030              	direction_hyst:
 2031 0000 00000000 		.space	4
 2032              		.section	.bss.duty_rev.12604,"aw",%nobits
 2033              		.align	2
 2034              		.set	.LANCHOR15,. + 0
 2035              		.type	duty_rev.12604, %object
 2036              		.size	duty_rev.12604, 4
 2037              	duty_rev.12604:
 2038 0000 00000000 		.space	4
 2039              		.section	.bss.input_val,"aw",%nobits
 2040              		.align	2
 2041              		.set	.LANCHOR5,. + 0
 2042              		.type	input_val, %object
 2043              		.size	input_val, 4
 2044              	input_val:
 2045 0000 00000000 		.space	4
 2046              		.section	.bss.is_running,"aw",%nobits
 2047              		.set	.LANCHOR2,. + 0
 2048              		.type	is_running, %object
ARM GAS  /tmp/ccggp577.s 			page 37


 2049              		.size	is_running, 1
 2050              	is_running:
 2051 0000 00       		.space	1
 2052              		.section	.bss.last_time.12567,"aw",%nobits
 2053              		.align	2
 2054              		.set	.LANCHOR9,. + 0
 2055              		.type	last_time.12567, %object
 2056              		.size	last_time.12567, 4
 2057              	last_time.12567:
 2058 0000 00000000 		.space	4
 2059              		.section	.bss.ppm_rx,"aw",%nobits
 2060              		.set	.LANCHOR4,. + 0
 2061              		.type	ppm_rx, %object
 2062              		.size	ppm_rx, 1
 2063              	ppm_rx:
 2064 0000 00       		.space	1
 2065              		.section	.bss.ppm_thread_wa,"aw",%nobits
 2066              		.align	3
 2067              		.set	.LANCHOR17,. + 0
 2068              		.type	ppm_thread_wa, %object
 2069              		.size	ppm_thread_wa, 928
 2070              	ppm_thread_wa:
 2071 0000 00000000 		.space	928
 2071      00000000 
 2071      00000000 
 2071      00000000 
 2071      00000000 
 2072              		.section	.bss.ppm_tp,"aw",%nobits
 2073              		.align	2
 2074              		.set	.LANCHOR0,. + 0
 2075              		.type	ppm_tp, %object
 2076              		.size	ppm_tp, 4
 2077              	ppm_tp:
 2078 0000 00000000 		.space	4
 2079              		.section	.bss.pulses_without_power,"aw",%nobits
 2080              		.align	2
 2081              		.set	.LANCHOR6,. + 0
 2082              		.type	pulses_without_power, %object
 2083              		.size	pulses_without_power, 4
 2084              	pulses_without_power:
 2085 0000 00000000 		.space	4
 2086              		.section	.bss.pulses_without_power_before.12593,"aw",%nobits
 2087              		.align	2
 2088              		.set	.LANCHOR13,. + 0
 2089              		.type	pulses_without_power_before.12593, %object
 2090              		.size	pulses_without_power_before.12593, 4
 2091              	pulses_without_power_before.12593:
 2092 0000 00000000 		.space	4
 2093              		.section	.bss.servoError.12554,"aw",%nobits
 2094              		.set	.LANCHOR7,. + 0
 2095              		.type	servoError.12554, %object
 2096              		.size	servoError.12554, 1
 2097              	servoError.12554:
 2098 0000 00       		.space	1
 2099              		.section	.bss.servo_val_ramp.12568,"aw",%nobits
 2100              		.align	2
 2101              		.set	.LANCHOR8,. + 0
ARM GAS  /tmp/ccggp577.s 			page 38


 2102              		.type	servo_val_ramp.12568, %object
 2103              		.size	servo_val_ramp.12568, 4
 2104              	servo_val_ramp.12568:
 2105 0000 00000000 		.space	4
 2106              		.section	.bss.was_duty_control.12603,"aw",%nobits
 2107              		.set	.LANCHOR14,. + 0
 2108              		.type	was_duty_control.12603, %object
 2109              		.size	was_duty_control.12603, 1
 2110              	was_duty_control.12603:
 2111 0000 00       		.space	1
 2112              		.section	.data.force_brake.12577,"aw",%progbits
 2113              		.set	.LANCHOR10,. + 0
 2114              		.type	force_brake.12577, %object
 2115              		.size	force_brake.12577, 1
 2116              	force_brake.12577:
 2117 0000 01       		.byte	1
 2118              		.section	.data.stop_now,"aw",%progbits
 2119              		.set	.LANCHOR3,. + 0
 2120              		.type	stop_now, %object
 2121              		.size	stop_now, 1
 2122              	stop_now:
 2123 0000 01       		.byte	1
 2124              		.section	.rodata.ppm_thread.str1.4,"aMS",%progbits,1
 2125              		.align	2
 2126              	.LC0:
 2127 0000 4150505F 		.ascii	"APP_PPM\000"
 2127      50504D00 
 2128              		.text
 2129              	.Letext0:
 2130              		.file 5 "/usr/arm-none-eabi/include/machine/_default_types.h"
 2131              		.file 6 "/usr/arm-none-eabi/include/sys/_stdint.h"
 2132              		.file 7 "/usr/lib/gcc/arm-none-eabi/7.3.1/include/stddef.h"
 2133              		.file 8 "ChibiOS_3.0.5/os/rt/ports/ARMCMx/compilers/GCC/chtypes.h"
 2134              		.file 9 "ChibiOS_3.0.5/os/rt/include/chsystypes.h"
 2135              		.file 10 "ChibiOS_3.0.5/os/rt/include/chschd.h"
 2136              		.file 11 "ChibiOS_3.0.5/os/ext/CMSIS/include/core_cm4.h"
 2137              		.file 12 "ChibiOS_3.0.5/os/ext/CMSIS/ST/system_stm32f4xx.h"
 2138              		.file 13 "ChibiOS_3.0.5/os/ext/CMSIS/ST/stm32f407xx.h"
 2139              		.file 14 "ChibiOS_3.0.5/os/rt/ports/ARMCMx/chcore.h"
 2140              		.file 15 "ChibiOS_3.0.5/os/rt/ports/ARMCMx/chcore_v7m.h"
 2141              		.file 16 "ChibiOS_3.0.5/os/rt/include/chtm.h"
 2142              		.file 17 "ChibiOS_3.0.5/os/rt/include/chsem.h"
 2143              		.file 18 "ChibiOS_3.0.5/os/rt/include/chmtx.h"
 2144              		.file 19 "ChibiOS_3.0.5/os/rt/include/chevents.h"
 2145              		.file 20 "ChibiOS_3.0.5/os/rt/include/chqueues.h"
 2146              		.file 21 "./datatypes.h"
 2147              		.file 22 "./conf_general.h"
 2148              		.file 23 "ChibiOS_3.0.5/os/hal/ports/STM32/STM32F4xx/stm32_dma.h"
 2149              		.file 24 "ChibiOS_3.0.5/os/hal/ports/STM32/LLD/GPIOv2/pal_lld.h"
 2150              		.file 25 "ChibiOS_3.0.5/os/hal/include/can.h"
 2151              		.file 26 "ChibiOS_3.0.5/os/hal/ports/STM32/LLD/can_lld.h"
 2152              		.file 27 "ChibiOS_3.0.5/os/hal/include/i2c.h"
 2153              		.file 28 "ChibiOS_3.0.5/os/hal/ports/STM32/LLD/I2Cv1/i2c_lld.h"
 2154              		.file 29 "ChibiOS_3.0.5/os/hal/include/icu.h"
 2155              		.file 30 "ChibiOS_3.0.5/os/hal/ports/STM32/LLD/TIMv1/icu_lld.h"
 2156              		.file 31 "ChibiOS_3.0.5/os/hal/ports/STM32/LLD/TIMv1/stm32_tim.h"
 2157              		.file 32 "ChibiOS_3.0.5/os/hal/include/serial.h"
ARM GAS  /tmp/ccggp577.s 			page 39


 2158              		.file 33 "ChibiOS_3.0.5/os/hal/ports/STM32/LLD/USARTv1/serial_lld.h"
 2159              		.file 34 "ChibiOS_3.0.5/os/hal/include/spi.h"
 2160              		.file 35 "ChibiOS_3.0.5/os/hal/ports/STM32/LLD/SPIv1/spi_lld.h"
 2161              		.file 36 "ChibiOS_3.0.5/os/hal/include/usb.h"
 2162              		.file 37 "ChibiOS_3.0.5/os/hal/ports/STM32/LLD/OTGv1/usb_lld.h"
 2163              		.file 38 "ChibiOS_3.0.5/os/hal/ports/STM32/LLD/OTGv1/stm32_otg.h"
 2164              		.file 39 "./mc_interface.h"
 2165              		.file 40 "./utils.h"
 2166              		.file 41 "/usr/arm-none-eabi/include/sys/lock.h"
 2167              		.file 42 "/usr/arm-none-eabi/include/sys/_types.h"
 2168              		.file 43 "/usr/arm-none-eabi/include/sys/reent.h"
 2169              		.file 44 "/usr/arm-none-eabi/include/math.h"
 2170              		.file 45 "ChibiOS_3.0.5/os/rt/include/chsys.h"
 2171              		.file 46 "ChibiOS_3.0.5/os/rt/include/chthreads.h"
 2172              		.file 47 "./comm_can.h"
 2173              		.file 48 "./timeout.h"
 2174              		.file 49 "./servo_dec.h"
 2175              		.file 50 "applications/app.h"
 2176              		.file 51 "<built-in>"