ARM GAS  /tmp/ccIHdayg.s 			page 1


   1              		.cpu cortex-m4
   2              		.eabi_attribute 27, 1
   3              		.eabi_attribute 28, 1
   4              		.eabi_attribute 20, 1
   5              		.eabi_attribute 21, 1
   6              		.eabi_attribute 23, 3
   7              		.eabi_attribute 24, 1
   8              		.eabi_attribute 25, 1
   9              		.eabi_attribute 26, 1
  10              		.eabi_attribute 30, 2
  11              		.eabi_attribute 34, 1
  12              		.eabi_attribute 18, 4
  13              		.file	"app_balance.c"
  14              		.text
  15              	.Ltext0:
  16              		.cfi_sections	.debug_frame
  17              		.section	.text.reset_vars,"ax",%progbits
  18              		.align	1
  19              		.p2align 4,,15
  20              		.syntax unified
  21              		.thumb
  22              		.thumb_func
  23              		.fpu fpv4-sp-d16
  24              		.type	reset_vars, %function
  25              	reset_vars:
  26              	.LFB276:
  27              		.file 1 "applications/app_balance.c"
  28              		.loc 1 296 0
  29              		.cfi_startproc
  30              		@ args = 0, pretend = 0, frame = 0
  31              		@ frame_needed = 0, uses_anonymous_args = 0
  32              		@ link register save eliminated.
  33              		.loc 1 307 0
  34 0000 1C4B     		ldr	r3, .L4
  35 0002 1D48     		ldr	r0, .L4+4
  36              		.loc 1 308 0
  37 0004 1D49     		ldr	r1, .L4+8
  38              		.loc 1 307 0
  39 0006 1A68     		ldr	r2, [r3]	@ float
  40              		.loc 1 296 0
  41 0008 F0B4     		push	{r4, r5, r6, r7}
  42              		.cfi_def_cfa_offset 16
  43              		.cfi_offset 4, -16
  44              		.cfi_offset 5, -12
  45              		.cfi_offset 6, -8
  46              		.cfi_offset 7, -4
  47              		.loc 1 307 0
  48 000a 0260     		str	r2, [r0]	@ float
  49              		.loc 1 308 0
  50 000c 0A60     		str	r2, [r1]	@ float
  51              		.loc 1 298 0
  52 000e 1C4D     		ldr	r5, .L4+12
  53              		.loc 1 300 0
  54 0010 1C4C     		ldr	r4, .L4+16
  55              		.loc 1 301 0
  56 0012 1D48     		ldr	r0, .L4+20
  57              		.loc 1 303 0
ARM GAS  /tmp/ccIHdayg.s 			page 2


  58 0014 1D4A     		ldr	r2, .L4+24
  59              		.loc 1 302 0
  60 0016 1E49     		ldr	r1, .L4+28
  61              		.loc 1 317 0
  62 0018 1E4F     		ldr	r7, .L4+32
  63              		.loc 1 320 0
  64 001a 1F4E     		ldr	r6, .L4+36
  65              		.loc 1 298 0
  66 001c 0023     		movs	r3, #0
  67 001e 2B60     		str	r3, [r5]	@ float
  68              		.loc 1 300 0
  69 0020 2360     		str	r3, [r4]	@ float
  70              		.loc 1 301 0
  71 0022 0360     		str	r3, [r0]	@ float
  72              		.loc 1 303 0
  73 0024 1360     		str	r3, [r2]	@ float
  74              	.LVL0:
  75              		.loc 1 309 0
  76 0026 1D4D     		ldr	r5, .L4+40
  77              		.loc 1 310 0
  78 0028 1D4C     		ldr	r4, .L4+44
  79              		.loc 1 312 0
  80 002a 1E48     		ldr	r0, .L4+48
  81              		.loc 1 315 0
  82 002c 1E4A     		ldr	r2, .L4+52
  83              		.loc 1 302 0
  84 002e 0B60     		str	r3, [r1]	@ float
  85              		.loc 1 313 0
  86 0030 1E49     		ldr	r1, .L4+56
  87              		.loc 1 309 0
  88 0032 2B60     		str	r3, [r5]	@ float
  89              		.loc 1 310 0
  90 0034 2360     		str	r3, [r4]	@ float
  91              		.loc 1 312 0
  92 0036 0360     		str	r3, [r0]	@ float
  93              		.loc 1 315 0
  94 0038 1360     		str	r3, [r2]	@ float
  95              	.LBB60:
  96              	.LBB61:
  97              		.loc 1 165 0
  98 003a 1D48     		ldr	r0, .L4+60
  99              	.LBE61:
 100              	.LBE60:
 101              	.LBB63:
 102              	.LBB64:
 103 003c 1D4A     		ldr	r2, .L4+64
 104              	.LBE64:
 105              	.LBE63:
 106              		.loc 1 316 0
 107 003e 1E4D     		ldr	r5, .L4+68
 108              		.loc 1 318 0
 109 0040 1E4C     		ldr	r4, .L4+72
 110              		.loc 1 313 0
 111 0042 0B60     		str	r3, [r1]	@ float
 112              	.LBB66:
 113              	.LBB67:
 114              		.loc 1 165 0
ARM GAS  /tmp/ccIHdayg.s 			page 3


 115 0044 1E49     		ldr	r1, .L4+76
 116              	.LBE67:
 117              	.LBE66:
 118              		.loc 1 316 0
 119 0046 2B60     		str	r3, [r5]	@ float
 120              		.loc 1 318 0
 121 0048 2360     		str	r3, [r4]	@ float
 122              		.loc 1 321 0
 123 004a 1E4D     		ldr	r5, .L4+80
 124              	.LBB69:
 125              	.LBB62:
 126              		.loc 1 165 0
 127 004c 4361     		str	r3, [r0, #20]	@ float
 128              		.loc 1 166 0
 129 004e 8361     		str	r3, [r0, #24]	@ float
 130              	.LVL1:
 131              	.LBE62:
 132              	.LBE69:
 133              		.loc 1 322 0
 134 0050 1D4C     		ldr	r4, .L4+84
 135              	.LBB70:
 136              	.LBB65:
 137              		.loc 1 165 0
 138 0052 5361     		str	r3, [r2, #20]	@ float
 139              		.loc 1 166 0
 140 0054 9361     		str	r3, [r2, #24]	@ float
 141              	.LBE65:
 142              	.LBE70:
 143              		.loc 1 323 0
 144 0056 1D48     		ldr	r0, .L4+88
 145              		.loc 1 319 0
 146 0058 1D4A     		ldr	r2, .L4+92
 147              	.LBB71:
 148              	.LBB68:
 149              		.loc 1 165 0
 150 005a 4B61     		str	r3, [r1, #20]	@ float
 151              		.loc 1 166 0
 152 005c 8B61     		str	r3, [r1, #24]	@ float
 153              	.LVL2:
 154              	.LBE68:
 155              	.LBE71:
 156              		.loc 1 317 0
 157 005e 0023     		movs	r3, #0
 158              		.loc 1 319 0
 159 0060 0121     		movs	r1, #1
 160              		.loc 1 317 0
 161 0062 3B70     		strb	r3, [r7]
 162              		.loc 1 320 0
 163 0064 3360     		str	r3, [r6]
 164              		.loc 1 321 0
 165 0066 2B60     		str	r3, [r5]
 166              		.loc 1 322 0
 167 0068 2360     		str	r3, [r4]
 168              		.loc 1 323 0
 169 006a 0360     		str	r3, [r0]
 170              		.loc 1 319 0
 171 006c 1170     		strb	r1, [r2]
ARM GAS  /tmp/ccIHdayg.s 			page 4


 172              		.loc 1 324 0
 173 006e F0BC     		pop	{r4, r5, r6, r7}
 174              		.cfi_restore 7
 175              		.cfi_restore 6
 176              		.cfi_restore 5
 177              		.cfi_restore 4
 178              		.cfi_def_cfa_offset 0
 179 0070 7047     		bx	lr
 180              	.L5:
 181 0072 00BF     		.align	2
 182              	.L4:
 183 0074 00000000 		.word	.LANCHOR7
 184 0078 00000000 		.word	.LANCHOR8
 185 007c 00000000 		.word	.LANCHOR9
 186 0080 00000000 		.word	.LANCHOR0
 187 0084 00000000 		.word	.LANCHOR1
 188 0088 00000000 		.word	.LANCHOR2
 189 008c 00000000 		.word	.LANCHOR4
 190 0090 00000000 		.word	.LANCHOR3
 191 0094 00000000 		.word	.LANCHOR17
 192 0098 00000000 		.word	.LANCHOR20
 193 009c 00000000 		.word	.LANCHOR10
 194 00a0 00000000 		.word	.LANCHOR11
 195 00a4 00000000 		.word	.LANCHOR12
 196 00a8 00000000 		.word	.LANCHOR15
 197 00ac 00000000 		.word	.LANCHOR13
 198 00b0 00000000 		.word	.LANCHOR5
 199 00b4 00000000 		.word	.LANCHOR14
 200 00b8 00000000 		.word	.LANCHOR16
 201 00bc 00000000 		.word	.LANCHOR18
 202 00c0 00000000 		.word	.LANCHOR6
 203 00c4 00000000 		.word	.LANCHOR21
 204 00c8 00000000 		.word	.LANCHOR22
 205 00cc 00000000 		.word	.LANCHOR23
 206 00d0 00000000 		.word	.LANCHOR19
 207              		.cfi_endproc
 208              	.LFE276:
 209              		.size	reset_vars, .-reset_vars
 210              		.section	.text.check_faults,"ax",%progbits
 211              		.align	1
 212              		.p2align 4,,15
 213              		.syntax unified
 214              		.thumb
 215              		.thumb_func
 216              		.fpu fpv4-sp-d16
 217              		.type	check_faults, %function
 218              	check_faults:
 219              	.LFB278:
 220              		.loc 1 345 0
 221              		.cfi_startproc
 222              		@ args = 0, pretend = 0, frame = 0
 223              		@ frame_needed = 0, uses_anonymous_args = 0
 224              		@ link register save eliminated.
 225              	.LVL3:
 226              		.loc 1 348 0
 227 0000 5B4B     		ldr	r3, .L46
 228 0002 5C4A     		ldr	r2, .L46+4
ARM GAS  /tmp/ccIHdayg.s 			page 5


 229 0004 1B78     		ldrb	r3, [r3]	@ zero_extendqisi2
 230 0006 1268     		ldr	r2, [r2]
 231              		.loc 1 345 0
 232 0008 70B4     		push	{r4, r5, r6}
 233              		.cfi_def_cfa_offset 12
 234              		.cfi_offset 4, -12
 235              		.cfi_offset 5, -8
 236              		.cfi_offset 6, -4
 237              		.loc 1 348 0
 238 000a 002B     		cmp	r3, #0
 239 000c 35D1     		bne	.L7
 240              		.loc 1 349 0
 241 000e 5A4B     		ldr	r3, .L46+8
 242 0010 5A49     		ldr	r1, .L46+12
 243 0012 1B68     		ldr	r3, [r3]
 244 0014 5A4D     		ldr	r5, .L46+16
 245 0016 42F20F74 		movw	r4, #9999
 246 001a D31A     		subs	r3, r2, r3
 247 001c 4FF47A76 		mov	r6, #1000
 248 0020 06FB0343 		mla	r3, r6, r3, r4
 249 0024 8C8D     		ldrh	r4, [r1, #44]
 250 0026 A5FB0353 		umull	r5, r3, r5, r3
 251 002a B4EB533F 		cmp	r4, r3, lsr #13
 252 002e 7ED3     		bcc	.L8
 253              		.loc 1 349 0 is_stmt 0 discriminator 1
 254 0030 0028     		cmp	r0, #0
 255 0032 7CD1     		bne	.L8
 256              	.L12:
 257              		.loc 1 358 0 is_stmt 1
 258 0034 CB8D     		ldrh	r3, [r1, #46]
 259 0036 07EE903A 		vmov	s15, r3	@ int
 260 003a 524B     		ldr	r3, .L46+20
 261 003c F8EEE77A 		vcvt.f32.s32	s15, s15
 262 0040 93ED007A 		vldr.32	s14, [r3]
 263 0044 F4EEC77A 		vcmpe.f32	s15, s14
 264 0048 F1EE10FA 		vmrs	APSR_nzcv, FPSCR
 265 004c 1ADD     		ble	.L10
 266              		.loc 1 359 0
 267 004e 4E4B     		ldr	r3, .L46+24
 268 0050 4B4D     		ldr	r5, .L46+16
 269 0052 1B68     		ldr	r3, [r3]
 270 0054 42F20F74 		movw	r4, #9999
 271 0058 4FF47A76 		mov	r6, #1000
 272 005c D31A     		subs	r3, r2, r3
 273 005e 06FB0343 		mla	r3, r6, r3, r4
 274 0062 4C8D     		ldrh	r4, [r1, #42]
 275 0064 A5FB0353 		umull	r5, r3, r5, r3
 276 0068 B4EB533F 		cmp	r4, r3, lsr #13
 277 006c 00D3     		bcc	.L13
 278              		.loc 1 359 0 is_stmt 0 discriminator 1
 279 006e 58B1     		cbz	r0, .L14
 280              	.L13:
 281              		.loc 1 360 0 is_stmt 1
 282 0070 464B     		ldr	r3, .L46+28
 283 0072 0822     		movs	r2, #8
 284 0074 1A70     		strb	r2, [r3]
 285              		.loc 1 361 0
ARM GAS  /tmp/ccIHdayg.s 			page 6


 286 0076 0120     		movs	r0, #1
 287              	.LVL4:
 288 0078 5DE0     		b	.L11
 289              	.LVL5:
 290              	.L7:
 291              		.loc 1 354 0
 292 007a 3F49     		ldr	r1, .L46+8
 293              		.loc 1 358 0
 294 007c 012B     		cmp	r3, #1
 295              		.loc 1 354 0
 296 007e 0A60     		str	r2, [r1]
 297 0080 3E49     		ldr	r1, .L46+12
 298              		.loc 1 358 0
 299 0082 D7D9     		bls	.L12
 300              	.L10:
 301              		.loc 1 364 0
 302 0084 404B     		ldr	r3, .L46+24
 303 0086 1A60     		str	r2, [r3]
 304              	.L14:
 305              		.loc 1 368 0
 306 0088 414B     		ldr	r3, .L46+32
 307 008a 91ED047A 		vldr.32	s14, [r1, #16]
 308 008e D3ED007A 		vldr.32	s15, [r3]
 309              		.loc 1 369 0
 310 0092 404B     		ldr	r3, .L46+36
 311              		.loc 1 368 0
 312 0094 F0EEE77A 		vabs.f32	s15, s15
 313 0098 F4EEC77A 		vcmpe.f32	s15, s14
 314 009c F1EE10FA 		vmrs	APSR_nzcv, FPSCR
 315 00a0 2EDC     		bgt	.L44
 316              		.loc 1 374 0
 317 00a2 1A60     		str	r2, [r3]
 318              	.L18:
 319              		.loc 1 378 0
 320 00a4 3C4B     		ldr	r3, .L46+40
 321 00a6 91ED057A 		vldr.32	s14, [r1, #20]
 322 00aa D3ED007A 		vldr.32	s15, [r3]
 323              		.loc 1 379 0
 324 00ae 3B4B     		ldr	r3, .L46+44
 325              		.loc 1 378 0
 326 00b0 F0EEE77A 		vabs.f32	s15, s15
 327 00b4 F4EEC77A 		vcmpe.f32	s15, s14
 328 00b8 F1EE10FA 		vmrs	APSR_nzcv, FPSCR
 329 00bc 3DDC     		bgt	.L45
 330              		.loc 1 384 0
 331 00be 1A60     		str	r2, [r3]
 332              	.L22:
 333              		.loc 1 388 0
 334 00c0 374B     		ldr	r3, .L46+48
 335 00c2 91ED067A 		vldr.32	s14, [r1, #24]
 336 00c6 D3ED007A 		vldr.32	s15, [r3]
 337              		.loc 1 389 0
 338 00ca 364B     		ldr	r3, .L46+52
 339              		.loc 1 388 0
 340 00cc B4EEE77A 		vcmpe.f32	s14, s15
 341 00d0 F1EE10FA 		vmrs	APSR_nzcv, FPSCR
 342 00d4 48D5     		bpl	.L42
ARM GAS  /tmp/ccIHdayg.s 			page 7


 343              		.loc 1 389 0
 344 00d6 1B68     		ldr	r3, [r3]
 345 00d8 294C     		ldr	r4, .L46+16
 346 00da 098D     		ldrh	r1, [r1, #40]
 347 00dc D21A     		subs	r2, r2, r3
 348 00de 4FF47A75 		mov	r5, #1000
 349 00e2 42F20F73 		movw	r3, #9999
 350 00e6 05FB0232 		mla	r2, r5, r2, r3
 351 00ea A4FB0232 		umull	r3, r2, r4, r2
 352 00ee B1EB523F 		cmp	r1, r2, lsr #13
 353 00f2 00D3     		bcc	.L25
 354              		.loc 1 389 0 is_stmt 0 discriminator 1
 355 00f4 F8B1     		cbz	r0, .L11
 356              	.L25:
 357              		.loc 1 390 0 is_stmt 1
 358 00f6 254B     		ldr	r3, .L46+28
 359 00f8 0A22     		movs	r2, #10
 360 00fa 1A70     		strb	r2, [r3]
 361              		.loc 1 391 0
 362 00fc 0120     		movs	r0, #1
 363              	.LVL6:
 364 00fe 1AE0     		b	.L11
 365              	.LVL7:
 366              	.L44:
 367              		.loc 1 369 0
 368 0100 1B68     		ldr	r3, [r3]
 369 0102 1F4D     		ldr	r5, .L46+16
 370 0104 42F20F74 		movw	r4, #9999
 371 0108 4FF47A76 		mov	r6, #1000
 372 010c D31A     		subs	r3, r2, r3
 373 010e 06FB0343 		mla	r3, r6, r3, r4
 374 0112 8C8C     		ldrh	r4, [r1, #36]
 375 0114 A5FB0353 		umull	r5, r3, r5, r3
 376 0118 B4EB533F 		cmp	r4, r3, lsr #13
 377 011c 01D3     		bcc	.L17
 378              		.loc 1 369 0 is_stmt 0 discriminator 1
 379 011e 0028     		cmp	r0, #0
 380 0120 C0D0     		beq	.L18
 381              	.L17:
 382              		.loc 1 370 0 is_stmt 1
 383 0122 1A4B     		ldr	r3, .L46+28
 384 0124 0622     		movs	r2, #6
 385              		.loc 1 371 0
 386 0126 0120     		movs	r0, #1
 387              	.LVL8:
 388              		.loc 1 370 0
 389 0128 1A70     		strb	r2, [r3]
 390              		.loc 1 398 0
 391 012a 70BC     		pop	{r4, r5, r6}
 392              		.cfi_remember_state
 393              		.cfi_restore 6
 394              		.cfi_restore 5
 395              		.cfi_restore 4
 396              		.cfi_def_cfa_offset 0
 397 012c 7047     		bx	lr
 398              	.LVL9:
 399              	.L8:
ARM GAS  /tmp/ccIHdayg.s 			page 8


 400              		.cfi_restore_state
 401              		.loc 1 350 0
 402 012e 174B     		ldr	r3, .L46+28
 403 0130 0922     		movs	r2, #9
 404 0132 1A70     		strb	r2, [r3]
 405              		.loc 1 351 0
 406 0134 0120     		movs	r0, #1
 407              	.LVL10:
 408              	.L11:
 409              		.loc 1 398 0
 410 0136 70BC     		pop	{r4, r5, r6}
 411              		.cfi_remember_state
 412              		.cfi_restore 6
 413              		.cfi_restore 5
 414              		.cfi_restore 4
 415              		.cfi_def_cfa_offset 0
 416 0138 7047     		bx	lr
 417              	.LVL11:
 418              	.L45:
 419              		.cfi_restore_state
 420              		.loc 1 379 0
 421 013a 1B68     		ldr	r3, [r3]
 422 013c 104D     		ldr	r5, .L46+16
 423 013e 42F20F74 		movw	r4, #9999
 424 0142 4FF47A76 		mov	r6, #1000
 425 0146 D31A     		subs	r3, r2, r3
 426 0148 06FB0343 		mla	r3, r6, r3, r4
 427 014c CC8C     		ldrh	r4, [r1, #38]
 428 014e A5FB0353 		umull	r5, r3, r5, r3
 429 0152 B4EB533F 		cmp	r4, r3, lsr #13
 430 0156 01D3     		bcc	.L21
 431              		.loc 1 379 0 is_stmt 0 discriminator 1
 432 0158 0028     		cmp	r0, #0
 433 015a B1D0     		beq	.L22
 434              	.L21:
 435              		.loc 1 380 0 is_stmt 1
 436 015c 0B4B     		ldr	r3, .L46+28
 437 015e 0722     		movs	r2, #7
 438              		.loc 1 381 0
 439 0160 0120     		movs	r0, #1
 440              	.LVL12:
 441              		.loc 1 380 0
 442 0162 1A70     		strb	r2, [r3]
 443              		.loc 1 398 0
 444 0164 70BC     		pop	{r4, r5, r6}
 445              		.cfi_remember_state
 446              		.cfi_restore 6
 447              		.cfi_restore 5
 448              		.cfi_restore 4
 449              		.cfi_def_cfa_offset 0
 450 0166 7047     		bx	lr
 451              	.LVL13:
 452              	.L42:
 453              		.cfi_restore_state
 454              		.loc 1 397 0
 455 0168 0020     		movs	r0, #0
 456              	.LVL14:
ARM GAS  /tmp/ccIHdayg.s 			page 9


 457              		.loc 1 394 0
 458 016a 1A60     		str	r2, [r3]
 459              		.loc 1 398 0
 460 016c 70BC     		pop	{r4, r5, r6}
 461              		.cfi_restore 6
 462              		.cfi_restore 5
 463              		.cfi_restore 4
 464              		.cfi_def_cfa_offset 0
 465 016e 7047     		bx	lr
 466              	.L47:
 467              		.align	2
 468              	.L46:
 469 0170 00000000 		.word	.LANCHOR24
 470 0174 00000000 		.word	.LANCHOR20
 471 0178 00000000 		.word	.LANCHOR26
 472 017c 00000000 		.word	.LANCHOR25
 473 0180 5917B7D1 		.word	-776530087
 474 0184 00000000 		.word	.LANCHOR27
 475 0188 00000000 		.word	.LANCHOR28
 476 018c 00000000 		.word	.LANCHOR19
 477 0190 00000000 		.word	.LANCHOR7
 478 0194 00000000 		.word	.LANCHOR29
 479 0198 00000000 		.word	.LANCHOR30
 480 019c 00000000 		.word	.LANCHOR31
 481 01a0 00000000 		.word	.LANCHOR32
 482 01a4 00000000 		.word	.LANCHOR33
 483              		.cfi_endproc
 484              	.LFE278:
 485              		.size	check_faults, .-check_faults
 486              		.section	.text.app_balance_get_debug,"ax",%progbits
 487              		.align	1
 488              		.p2align 4,,15
 489              		.syntax unified
 490              		.thumb
 491              		.thumb_func
 492              		.fpu fpv4-sp-d16
 493              		.type	app_balance_get_debug, %function
 494              	app_balance_get_debug:
 495              	.LFB291:
 496              		.loc 1 884 0
 497              		.cfi_startproc
 498              		@ args = 0, pretend = 0, frame = 0
 499              		@ frame_needed = 0, uses_anonymous_args = 0
 500              		@ link register save eliminated.
 501              	.LVL15:
 502              		.loc 1 885 0
 503 0000 0138     		subs	r0, r0, #1
 504              	.LVL16:
 505 0002 0C28     		cmp	r0, #12
 506 0004 47D8     		bhi	.L64
 507 0006 DFE800F0 		tbb	[pc, r0]
 508              	.L51:
 509 000a 0B       		.byte	(.L50-.L51)/2
 510 000b 0F       		.byte	(.L52-.L51)/2
 511 000c 13       		.byte	(.L53-.L51)/2
 512 000d 17       		.byte	(.L54-.L51)/2
 513 000e 1B       		.byte	(.L55-.L51)/2
ARM GAS  /tmp/ccIHdayg.s 			page 10


 514 000f 24       		.byte	(.L56-.L51)/2
 515 0010 28       		.byte	(.L57-.L51)/2
 516 0011 2C       		.byte	(.L58-.L51)/2
 517 0012 30       		.byte	(.L59-.L51)/2
 518 0013 36       		.byte	(.L60-.L51)/2
 519 0014 3C       		.byte	(.L61-.L51)/2
 520 0015 42       		.byte	(.L62-.L51)/2
 521 0016 07       		.byte	(.L63-.L51)/2
 522 0017 00       		.p2align 1
 523              	.L63:
 524              		.loc 1 911 0
 525 0018 204B     		ldr	r3, .L65
 526 001a 93ED000A 		vldr.32	s0, [r3]
 527 001e 7047     		bx	lr
 528              	.L50:
 529              		.loc 1 887 0
 530 0020 1F4B     		ldr	r3, .L65+4
 531 0022 93ED000A 		vldr.32	s0, [r3]
 532 0026 7047     		bx	lr
 533              	.L52:
 534              		.loc 1 889 0
 535 0028 1E4B     		ldr	r3, .L65+8
 536 002a 93ED000A 		vldr.32	s0, [r3]
 537 002e 7047     		bx	lr
 538              	.L53:
 539              		.loc 1 891 0
 540 0030 1D4B     		ldr	r3, .L65+12
 541 0032 93ED000A 		vldr.32	s0, [r3]
 542 0036 7047     		bx	lr
 543              	.L54:
 544              		.loc 1 893 0
 545 0038 1C4B     		ldr	r3, .L65+16
 546 003a 93ED000A 		vldr.32	s0, [r3]
 547 003e 7047     		bx	lr
 548              	.L55:
 549              		.loc 1 895 0
 550 0040 1B4A     		ldr	r2, .L65+20
 551 0042 1C4B     		ldr	r3, .L65+24
 552 0044 92ED000A 		vldr.32	s0, [r2]
 553 0048 D3ED007A 		vldr.32	s15, [r3]
 554 004c 30EE670A 		vsub.f32	s0, s0, s15
 555 0050 7047     		bx	lr
 556              	.L56:
 557              		.loc 1 897 0
 558 0052 194B     		ldr	r3, .L65+28
 559 0054 93ED000A 		vldr.32	s0, [r3]
 560 0058 7047     		bx	lr
 561              	.L57:
 562              		.loc 1 899 0
 563 005a 184B     		ldr	r3, .L65+32
 564 005c 93ED000A 		vldr.32	s0, [r3]
 565 0060 7047     		bx	lr
 566              	.L58:
 567              		.loc 1 901 0
 568 0062 174B     		ldr	r3, .L65+36
 569 0064 93ED000A 		vldr.32	s0, [r3]
 570 0068 7047     		bx	lr
ARM GAS  /tmp/ccIHdayg.s 			page 11


 571              	.L59:
 572              		.loc 1 903 0
 573 006a 164B     		ldr	r3, .L65+40
 574 006c 93ED000A 		vldr.32	s0, [r3]	@ int
 575 0070 B8EE400A 		vcvt.f32.u32	s0, s0
 576 0074 7047     		bx	lr
 577              	.L60:
 578              		.loc 1 905 0
 579 0076 144B     		ldr	r3, .L65+44
 580 0078 93ED000A 		vldr.32	s0, [r3]	@ int
 581 007c B8EE400A 		vcvt.f32.u32	s0, s0
 582 0080 7047     		bx	lr
 583              	.L61:
 584              		.loc 1 907 0
 585 0082 124B     		ldr	r3, .L65+48
 586 0084 93ED000A 		vldr.32	s0, [r3]	@ int
 587 0088 B8EE400A 		vcvt.f32.u32	s0, s0
 588 008c 7047     		bx	lr
 589              	.L62:
 590              		.loc 1 909 0
 591 008e 104B     		ldr	r3, .L65+52
 592 0090 93ED000A 		vldr.32	s0, [r3]
 593 0094 7047     		bx	lr
 594              	.L64:
 595              		.loc 1 913 0
 596 0096 9FED0F0A 		vldr.32	s0, .L65+56
 597              		.loc 1 915 0
 598 009a 7047     		bx	lr
 599              	.L66:
 600              		.align	2
 601              	.L65:
 602 009c 00000000 		.word	.LANCHOR42
 603 00a0 00000000 		.word	.LANCHOR34
 604 00a4 00000000 		.word	.LANCHOR8
 605 00a8 00000000 		.word	.LANCHOR13
 606 00ac 00000000 		.word	.LANCHOR35
 607 00b0 00000000 		.word	.LANCHOR36
 608 00b4 00000000 		.word	.LANCHOR7
 609 00b8 00000000 		.word	.LANCHOR37
 610 00bc 00000000 		.word	.LANCHOR38
 611 00c0 00000000 		.word	.LANCHOR27
 612 00c4 00000000 		.word	.LANCHOR39
 613 00c8 00000000 		.word	.LANCHOR22
 614 00cc 00000000 		.word	.LANCHOR40
 615 00d0 00000000 		.word	.LANCHOR41
 616 00d4 00000000 		.word	0
 617              		.cfi_endproc
 618              	.LFE291:
 619              		.size	app_balance_get_debug, .-app_balance_get_debug
 620              		.section	.text.set_current,"ax",%progbits
 621              		.align	1
 622              		.p2align 4,,15
 623              		.syntax unified
 624              		.thumb
 625              		.thumb_func
 626              		.fpu fpv4-sp-d16
 627              		.type	set_current, %function
ARM GAS  /tmp/ccIHdayg.s 			page 12


 628              	set_current:
 629              	.LFB286:
 630              		.loc 1 580 0
 631              		.cfi_startproc
 632              		@ args = 0, pretend = 0, frame = 0
 633              		@ frame_needed = 0, uses_anonymous_args = 0
 634              	.LVL17:
 635 0000 70B5     		push	{r4, r5, r6, lr}
 636              		.cfi_def_cfa_offset 16
 637              		.cfi_offset 4, -16
 638              		.cfi_offset 5, -12
 639              		.cfi_offset 6, -8
 640              		.cfi_offset 14, -4
 641 0002 2DED048B 		vpush.64	{d8, d9}
 642              		.cfi_def_cfa_offset 32
 643              		.cfi_offset 80, -32
 644              		.cfi_offset 81, -28
 645              		.cfi_offset 82, -24
 646              		.cfi_offset 83, -20
 647              		.loc 1 580 0
 648 0006 B0EE409A 		vmov.f32	s18, s0
 649 000a F0EE609A 		vmov.f32	s19, s1
 650              		.loc 1 582 0
 651 000e FFF7FEFF 		bl	timeout_reset
 652              	.LVL18:
 653              		.loc 1 584 0
 654 0012 224B     		ldr	r3, .L78
 655 0014 93F87C30 		ldrb	r3, [r3, #124]	@ zero_extendqisi2
 656 0018 9BB3     		cbz	r3, .L68
 657              	.LVL19:
 658              	.LBB80:
 659              	.LBB81:
 660              		.loc 1 586 0
 661 001a 214E     		ldr	r6, .L78+4
 662              	.LBB82:
 663              	.LBB83:
 664              	.LBB84:
 665              	.LBB85:
 666              	.LBB86:
 667              	.LBB87:
 668              		.file 2 "ChibiOS_3.0.5/os/rt/include/chvt.h"
 669              		.loc 2 231 0
 670 001c 214D     		ldr	r5, .L78+8
 671              	.LBE87:
 672              	.LBE86:
 673              	.LBE85:
 674              	.LBE84:
 675              	.LBE83:
 676              	.LBE82:
 677              		.loc 1 586 0
 678 001e 96ED000A 		vldr.32	s0, [r6]
 679              	.LBB95:
 680              	.LBB92:
 681              		.loc 1 593 0
 682 0022 DFED218A 		vldr.32	s17, .L78+12
 683 0026 9FED218A 		vldr.32	s16, .L78+16
 684              	.LBE92:
ARM GAS  /tmp/ccIHdayg.s 			page 13


 685              	.LBE95:
 686              		.loc 1 586 0
 687 002a FFF7FEFF 		bl	mc_interface_set_current_off_delay
 688              	.LVL20:
 689              		.loc 1 588 0
 690 002e 39EE290A 		vadd.f32	s0, s18, s19
 691 0032 FFF7FEFF 		bl	mc_interface_set_current
 692              	.LVL21:
 693              	.LBB96:
 694              		.loc 1 590 0
 695 0036 0024     		movs	r4, #0
 696 0038 01E0     		b	.L71
 697              	.LVL22:
 698              	.L69:
 699 003a 0A2C     		cmp	r4, #10
 700 003c 1ED0     		beq	.L77
 701              	.LVL23:
 702              	.L71:
 703              	.LBB93:
 704              		.loc 1 591 0
 705 003e 2046     		mov	r0, r4
 706 0040 FFF7FEFF 		bl	comm_can_get_status_msg_index
 707              	.LVL24:
 708              		.loc 1 593 0
 709 0044 0268     		ldr	r2, [r0]
 710 0046 002A     		cmp	r2, #0
 711              	.LBE93:
 712              		.loc 1 590 0
 713 0048 04F10104 		add	r4, r4, #1
 714              	.LVL25:
 715              	.LBB94:
 716              		.loc 1 593 0
 717 004c F5DB     		blt	.L69
 718              	.LBB91:
 719              	.LBB90:
 720              		.loc 2 267 0
 721 004e 4168     		ldr	r1, [r0, #4]
 722              	.LBB89:
 723              	.LBB88:
 724              		.loc 2 231 0
 725 0050 AB6A     		ldr	r3, [r5, #40]
 726              	.LVL26:
 727              	.LBE88:
 728              	.LBE89:
 729              		.loc 2 267 0
 730 0052 5B1A     		subs	r3, r3, r1
 731              	.LBE90:
 732              	.LBE91:
 733              		.loc 1 593 0
 734 0054 07EE903A 		vmov	s15, r3	@ int
 735 0058 F8EE677A 		vcvt.f32.u32	s15, s15
 736 005c 87EEA87A 		vdiv.f32	s14, s15, s17
 737 0060 B4EEC87A 		vcmpe.f32	s14, s16
 738 0064 F1EE10FA 		vmrs	APSR_nzcv, FPSCR
 739 0068 E7D5     		bpl	.L69
 740              		.loc 1 594 0
 741 006a D0B2     		uxtb	r0, r2
ARM GAS  /tmp/ccIHdayg.s 			page 14


 742              	.LVL27:
 743 006c D6ED000A 		vldr.32	s1, [r6]
 744 0070 39EE690A 		vsub.f32	s0, s18, s19
 745 0074 FFF7FEFF 		bl	comm_can_set_current_off_delay
 746              	.LVL28:
 747              	.LBE94:
 748              		.loc 1 590 0
 749 0078 0A2C     		cmp	r4, #10
 750 007a E0D1     		bne	.L71
 751              	.L77:
 752              	.LBE96:
 753              	.LBE81:
 754              	.LBE80:
 755              		.loc 1 603 0
 756 007c BDEC048B 		vldm	sp!, {d8-d9}
 757              		.cfi_remember_state
 758              		.cfi_restore 82
 759              		.cfi_restore 83
 760              		.cfi_restore 80
 761              		.cfi_restore 81
 762              		.cfi_def_cfa_offset 16
 763              	.LVL29:
 764 0080 70BD     		pop	{r4, r5, r6, pc}
 765              	.LVL30:
 766              	.L68:
 767              		.cfi_restore_state
 768              		.loc 1 599 0
 769 0082 074B     		ldr	r3, .L78+4
 770 0084 93ED000A 		vldr.32	s0, [r3]
 771 0088 FFF7FEFF 		bl	mc_interface_set_current_off_delay
 772              	.LVL31:
 773              		.loc 1 601 0
 774 008c B0EE490A 		vmov.f32	s0, s18
 775              		.loc 1 603 0
 776 0090 BDEC048B 		vldm	sp!, {d8-d9}
 777              		.cfi_restore 82
 778              		.cfi_restore 83
 779              		.cfi_restore 80
 780              		.cfi_restore 81
 781              		.cfi_def_cfa_offset 16
 782              	.LVL32:
 783 0094 BDE87040 		pop	{r4, r5, r6, lr}
 784              		.cfi_restore 14
 785              		.cfi_restore 6
 786              		.cfi_restore 5
 787              		.cfi_restore 4
 788              		.cfi_def_cfa_offset 0
 789              		.loc 1 601 0
 790 0098 FFF7FEBF 		b	mc_interface_set_current
 791              	.LVL33:
 792              	.L79:
 793              		.align	2
 794              	.L78:
 795 009c 00000000 		.word	.LANCHOR25
 796 00a0 00000000 		.word	.LANCHOR43
 797 00a4 00000000 		.word	ch
 798 00a8 00401C46 		.word	1176256512
ARM GAS  /tmp/ccIHdayg.s 			page 15


 799 00ac CDCCCC3D 		.word	1036831949
 800              		.cfi_endproc
 801              	.LFE286:
 802              		.size	set_current, .-set_current
 803              		.section	.text.brake,"ax",%progbits
 804              		.align	1
 805              		.p2align 4,,15
 806              		.syntax unified
 807              		.thumb
 808              		.thumb_func
 809              		.fpu fpv4-sp-d16
 810              		.type	brake, %function
 811              	brake:
 812              	.LFB285:
 813              		.loc 1 557 0
 814              		.cfi_startproc
 815              		@ args = 0, pretend = 0, frame = 0
 816              		@ frame_needed = 0, uses_anonymous_args = 0
 817 0000 70B5     		push	{r4, r5, r6, lr}
 818              		.cfi_def_cfa_offset 16
 819              		.cfi_offset 4, -16
 820              		.cfi_offset 5, -12
 821              		.cfi_offset 6, -8
 822              		.cfi_offset 14, -4
 823              		.loc 1 559 0
 824 0002 2D4D     		ldr	r5, .L96
 825 0004 B5F89830 		ldrh	r3, [r5, #152]
 826 0008 9BB2     		uxth	r3, r3
 827              		.loc 1 557 0
 828 000a 2DED028B 		vpush.64	{d8}
 829              		.cfi_def_cfa_offset 24
 830              		.cfi_offset 80, -24
 831              		.cfi_offset 81, -20
 832              		.loc 1 559 0
 833 000e 002B     		cmp	r3, #0
 834 0010 38D1     		bne	.L81
 835 0012 2A4B     		ldr	r3, .L96+4
 836 0014 1B68     		ldr	r3, [r3]
 837              	.L82:
 838              		.loc 1 562 0
 839 0016 1BB1     		cbz	r3, .L87
 840              	.L84:
 841              		.loc 1 562 0 is_stmt 0 discriminator 1
 842 0018 294A     		ldr	r2, .L96+8
 843 001a 1268     		ldr	r2, [r2]
 844 001c 9A42     		cmp	r2, r3
 845 001e 2ED8     		bhi	.L80
 846              	.L87:
 847              		.loc 1 567 0 is_stmt 1
 848 0020 FFF7FEFF 		bl	timeout_reset
 849              	.LVL34:
 850              		.loc 1 569 0
 851 0024 95ED250A 		vldr.32	s0, [r5, #148]
 852 0028 FFF7FEFF 		bl	mc_interface_set_brake_current
 853              	.LVL35:
 854              		.loc 1 570 0
 855 002c 95F87C30 		ldrb	r3, [r5, #124]	@ zero_extendqisi2
ARM GAS  /tmp/ccIHdayg.s 			page 16


 856 0030 2BB3     		cbz	r3, .L80
 857              	.LBB106:
 858              	.LBB107:
 859              	.LBB108:
 860              	.LBB109:
 861              	.LBB110:
 862              	.LBB111:
 863              	.LBB112:
 864              		.loc 2 231 0
 865 0032 244E     		ldr	r6, .L96+12
 866              	.LBE112:
 867              	.LBE111:
 868              	.LBE110:
 869              	.LBE109:
 870              		.loc 1 573 0
 871 0034 DFED248A 		vldr.32	s17, .L96+16
 872 0038 9FED248A 		vldr.32	s16, .L96+20
 873              	.LBE108:
 874              		.loc 1 571 0
 875 003c 0024     		movs	r4, #0
 876 003e 01E0     		b	.L85
 877              	.LVL36:
 878              	.L88:
 879 0040 0A2C     		cmp	r4, #10
 880 0042 1CD0     		beq	.L80
 881              	.LVL37:
 882              	.L85:
 883              	.LBB117:
 884              		.loc 1 572 0
 885 0044 2046     		mov	r0, r4
 886 0046 FFF7FEFF 		bl	comm_can_get_status_msg_index
 887              	.LVL38:
 888              		.loc 1 573 0
 889 004a 0268     		ldr	r2, [r0]
 890 004c 002A     		cmp	r2, #0
 891              	.LBE117:
 892              		.loc 1 571 0
 893 004e 04F10104 		add	r4, r4, #1
 894              	.LVL39:
 895              	.LBB118:
 896              		.loc 1 573 0
 897 0052 F5DB     		blt	.L88
 898              	.LBB116:
 899              	.LBB115:
 900              		.loc 2 267 0
 901 0054 4168     		ldr	r1, [r0, #4]
 902              	.LBB114:
 903              	.LBB113:
 904              		.loc 2 231 0
 905 0056 B36A     		ldr	r3, [r6, #40]
 906              	.LVL40:
 907              	.LBE113:
 908              	.LBE114:
 909              		.loc 2 267 0
 910 0058 5B1A     		subs	r3, r3, r1
 911              	.LBE115:
 912              	.LBE116:
ARM GAS  /tmp/ccIHdayg.s 			page 17


 913              		.loc 1 573 0
 914 005a 07EE903A 		vmov	s15, r3	@ int
 915 005e F8EE677A 		vcvt.f32.u32	s15, s15
 916 0062 87EEA87A 		vdiv.f32	s14, s15, s17
 917 0066 B4EEC87A 		vcmpe.f32	s14, s16
 918 006a F1EE10FA 		vmrs	APSR_nzcv, FPSCR
 919 006e E7D5     		bpl	.L88
 920              		.loc 1 574 0
 921 0070 95ED250A 		vldr.32	s0, [r5, #148]
 922 0074 D0B2     		uxtb	r0, r2
 923              	.LVL41:
 924 0076 FFF7FEFF 		bl	comm_can_set_current_brake
 925              	.LVL42:
 926              	.LBE118:
 927              		.loc 1 571 0
 928 007a 0A2C     		cmp	r4, #10
 929 007c E2D1     		bne	.L85
 930              	.LVL43:
 931              	.L80:
 932              	.LBE107:
 933              	.LBE106:
 934              		.loc 1 578 0
 935 007e BDEC028B 		vldm	sp!, {d8}
 936              		.cfi_remember_state
 937              		.cfi_restore 80
 938              		.cfi_restore 81
 939              		.cfi_def_cfa_offset 16
 940 0082 70BD     		pop	{r4, r5, r6, pc}
 941              	.L81:
 942              		.cfi_restore_state
 943              		.loc 1 559 0 discriminator 1
 944 0084 124B     		ldr	r3, .L96+24
 945 0086 0D4A     		ldr	r2, .L96+4
 946 0088 93ED007A 		vldr.32	s14, [r3]
 947 008c F7EE007A 		vmov.f32	s15, #1.0e+0
 948 0090 B4EEE77A 		vcmpe.f32	s14, s15
 949 0094 F1EE10FA 		vmrs	APSR_nzcv, FPSCR
 950 0098 09DD     		ble	.L94
 951              	.L83:
 952              		.loc 1 560 0
 953 009a 0949     		ldr	r1, .L96+8
 954 009c B5F89830 		ldrh	r3, [r5, #152]
 955 00a0 0968     		ldr	r1, [r1]
 956 00a2 42F21070 		movw	r0, #10000
 957 00a6 00FB0313 		mla	r3, r0, r3, r1
 958 00aa 1360     		str	r3, [r2]
 959 00ac B3E7     		b	.L82
 960              	.L94:
 961              		.loc 1 559 0 discriminator 2
 962 00ae 1368     		ldr	r3, [r2]
 963 00b0 002B     		cmp	r3, #0
 964 00b2 B1D1     		bne	.L84
 965 00b4 F1E7     		b	.L83
 966              	.L97:
 967 00b6 00BF     		.align	2
 968              	.L96:
 969 00b8 00000000 		.word	.LANCHOR25
ARM GAS  /tmp/ccIHdayg.s 			page 18


 970 00bc 00000000 		.word	.LANCHOR23
 971 00c0 00000000 		.word	.LANCHOR20
 972 00c4 00000000 		.word	ch
 973 00c8 00401C46 		.word	1176256512
 974 00cc CDCCCC3D 		.word	1036831949
 975 00d0 00000000 		.word	.LANCHOR27
 976              		.cfi_endproc
 977              	.LFE285:
 978              		.size	brake, .-brake
 979              		.global	__aeabi_f2d
 980              		.section	.text.balance_thread,"ax",%progbits
 981              		.align	1
 982              		.p2align 4,,15
 983              		.syntax unified
 984              		.thumb
 985              		.thumb_func
 986              		.fpu fpv4-sp-d16
 987              		.type	balance_thread, %function
 988              	balance_thread:
 989              	.LFB287:
 990              		.loc 1 605 0
 991              		.cfi_startproc
 992              		@ args = 0, pretend = 0, frame = 8
 993              		@ frame_needed = 0, uses_anonymous_args = 0
 994              	.LVL44:
 995 0000 2DE9F04F 		push	{r4, r5, r6, r7, r8, r9, r10, fp, lr}
 996              		.cfi_def_cfa_offset 36
 997              		.cfi_offset 4, -36
 998              		.cfi_offset 5, -32
 999              		.cfi_offset 6, -28
 1000              		.cfi_offset 7, -24
 1001              		.cfi_offset 8, -20
 1002              		.cfi_offset 9, -16
 1003              		.cfi_offset 10, -12
 1004              		.cfi_offset 11, -8
 1005              		.cfi_offset 14, -4
 1006              	.LBB157:
 1007              	.LBB158:
 1008              		.file 3 "ChibiOS_3.0.5/os/rt/include/chregistry.h"
 1009              		.loc 3 135 0
 1010 0004 C14D     		ldr	r5, .L363
 1011 0006 C249     		ldr	r1, .L363+4
 1012 0008 AB69     		ldr	r3, [r5, #24]
 1013              	.LBE158:
 1014              	.LBE157:
 1015              		.loc 1 605 0
 1016 000a 2DED068B 		vpush.64	{d8, d9, d10}
 1017              		.cfi_def_cfa_offset 60
 1018              		.cfi_offset 80, -60
 1019              		.cfi_offset 81, -56
 1020              		.cfi_offset 82, -52
 1021              		.cfi_offset 83, -48
 1022              		.cfi_offset 84, -44
 1023              		.cfi_offset 85, -40
 1024              		.loc 1 609 0
 1025 000e 93F82120 		ldrb	r2, [r3, #33]	@ zero_extendqisi2
 1026              	.LBB160:
ARM GAS  /tmp/ccIHdayg.s 			page 19


 1027              	.LBB159:
 1028              		.loc 3 135 0
 1029 0012 9961     		str	r1, [r3, #24]
 1030              	.LBE159:
 1031              	.LBE160:
 1032              		.loc 1 609 0
 1033 0014 5207     		lsls	r2, r2, #29
 1034              		.loc 1 605 0
 1035 0016 83B0     		sub	sp, sp, #12
 1036              		.cfi_def_cfa_offset 72
 1037              		.loc 1 609 0
 1038 0018 00F14481 		bmi	.L99
 1039 001c BD4F     		ldr	r7, .L363+8
 1040 001e DFF89893 		ldr	r9, .L363+172
 1041 0022 BD4C     		ldr	r4, .L363+12
 1042 0024 DFF89483 		ldr	r8, .L363+176
 1043 0028 DFF894A3 		ldr	r10, .L363+180
 1044 002c 9FEDBB9A 		vldr.32	s18, .L363+16
 1045 0030 9FEDBBAA 		vldr.32	s20, .L363+20
 1046              		.loc 1 616 0
 1047 0034 DFEDBB9A 		vldr.32	s19, .L363+24
 1048              	.LBB161:
 1049              	.LBB162:
 1050              		.loc 1 642 0
 1051 0038 DFEDBB8A 		vldr.32	s17, .L363+28
 1052              	.LVL45:
 1053              	.L238:
 1054              	.LBE162:
 1055              	.LBE161:
 1056              		.loc 1 612 0
 1057 003c BB4B     		ldr	r3, .L363+32
 1058              	.LBB170:
 1059              	.LBB171:
 1060              		.loc 2 231 0
 1061 003e AA6A     		ldr	r2, [r5, #40]
 1062              	.LBE171:
 1063              	.LBE170:
 1064              		.loc 1 612 0
 1065 0040 1B68     		ldr	r3, [r3]
 1066              		.loc 1 611 0
 1067 0042 3A60     		str	r2, [r7]
 1068              		.loc 1 612 0
 1069 0044 002B     		cmp	r3, #0
 1070 0046 00F05E84 		beq	.L239
 1071 004a D31A     		subs	r3, r2, r3
 1072 004c 07EE903A 		vmov	s15, r3	@ int
 1073 0050 B8EE678A 		vcvt.f32.u32	s16, s15
 1074 0054 68EE0A7A 		vmul.f32	s15, s16, s20
 1075              	.L100:
 1076              		.loc 1 616 0
 1077 0058 99ED007A 		vldr.32	s14, [r9]
 1078              		.loc 1 615 0
 1079 005c B449     		ldr	r1, .L363+36
 1080              		.loc 1 616 0
 1081 005e E7EE297A 		vfma.f32	s15, s14, s19
 1082              		.loc 1 615 0
 1083 0062 0B60     		str	r3, [r1]
ARM GAS  /tmp/ccIHdayg.s 			page 20


 1084              		.loc 1 618 0
 1085 0064 E389     		ldrh	r3, [r4, #14]
 1086              		.loc 1 617 0
 1087 0066 B149     		ldr	r1, .L363+32
 1088              		.loc 1 616 0
 1089 0068 C9ED007A 		vstr.32	s15, [r9]
 1090              		.loc 1 618 0
 1091 006c 9BB2     		uxth	r3, r3
 1092              		.loc 1 617 0
 1093 006e 0A60     		str	r2, [r1]
 1094              		.loc 1 618 0
 1095 0070 2BB3     		cbz	r3, .L101
 1096              		.loc 1 619 0
 1097 0072 B04E     		ldr	r6, .L363+40
 1098 0074 D6ED00AA 		vldr.32	s21, [r6]
 1099 0078 B0EE6A0A 		vmov.f32	s0, s21
 1100 007c FFF7FEFF 		bl	roundf
 1101              	.LVL46:
 1102 0080 AD4B     		ldr	r3, .L363+44
 1103 0082 1B68     		ldr	r3, [r3]
 1104 0084 0193     		str	r3, [sp, #4]
 1105 0086 DDED017A 		vldr.32	s15, [sp, #4]	@ int
 1106              		.loc 1 620 0
 1107 008a AC4B     		ldr	r3, .L363+48
 1108              		.loc 1 619 0
 1109 008c F8EE677A 		vcvt.f32.u32	s15, s15
 1110              		.loc 1 620 0
 1111 0090 93ED007A 		vldr.32	s14, [r3]
 1112              		.loc 1 619 0
 1113 0094 AA4B     		ldr	r3, .L363+52
 1114 0096 37EEC00A 		vsub.f32	s0, s15, s0
 1115              		.loc 1 620 0
 1116 009a F7EE007A 		vmov.f32	s15, #1.0e+0
 1117              		.loc 1 619 0
 1118 009e 38EE408A 		vsub.f32	s16, s16, s0
 1119              		.loc 1 620 0
 1120 00a2 77EEC77A 		vsub.f32	s15, s15, s14
 1121              		.loc 1 619 0
 1122 00a6 BCEEC88A 		vcvt.u32.f32	s16, s16
 1123              		.loc 1 620 0
 1124 00aa 67EEAAAA 		vmul.f32	s21, s15, s21
 1125 00ae F8EE487A 		vcvt.f32.u32	s15, s16
 1126              		.loc 1 619 0
 1127 00b2 83ED008A 		vstr.32	s16, [r3]	@ int
 1128              		.loc 1 620 0
 1129 00b6 E7EE87AA 		vfma.f32	s21, s15, s14
 1130 00ba C6ED00AA 		vstr.32	s21, [r6]
 1131              	.L101:
 1132              		.loc 1 624 0
 1133 00be FFF7FEFF 		bl	mc_interface_get_tot_current_directional_filtered
 1134              	.LVL47:
 1135 00c2 A04B     		ldr	r3, .L363+56
 1136              		.loc 1 629 0
 1137 00c4 9FEDA08A 		vldr.32	s16, .L363+60
 1138              		.loc 1 624 0
 1139 00c8 83ED000A 		vstr.32	s0, [r3]
 1140              		.loc 1 625 0
ARM GAS  /tmp/ccIHdayg.s 			page 21


 1141 00cc FFF7FEFF 		bl	mc_interface_get_pid_pos_now
 1142              	.LVL48:
 1143 00d0 9E4A     		ldr	r2, .L363+64
 1144              		.loc 1 628 0
 1145 00d2 D8F80030 		ldr	r3, [r8]	@ float
 1146              		.loc 1 625 0
 1147 00d6 82ED000A 		vstr.32	s0, [r2]
 1148              		.loc 1 628 0
 1149 00da 9D4A     		ldr	r2, .L363+68
 1150 00dc 1360     		str	r3, [r2]	@ float
 1151              		.loc 1 629 0
 1152 00de FFF7FEFF 		bl	imu_get_pitch
 1153              	.LVL49:
 1154 00e2 20EE080A 		vmul.f32	s0, s0, s16
 1155 00e6 88ED000A 		vstr.32	s0, [r8]
 1156              		.loc 1 630 0
 1157 00ea FFF7FEFF 		bl	imu_get_roll
 1158              	.LVL50:
 1159 00ee 994B     		ldr	r3, .L363+72
 1160 00f0 60EE087A 		vmul.f32	s15, s0, s16
 1161              		.loc 1 632 0
 1162 00f4 9FED980A 		vldr.32	s0, .L363+76
 1163              		.loc 1 630 0
 1164 00f8 C3ED007A 		vstr.32	s15, [r3]
 1165              		.loc 1 631 0
 1166 00fc F0EEE77A 		vabs.f32	s15, s15
 1167 0100 964B     		ldr	r3, .L363+80
 1168              		.loc 1 632 0
 1169 0102 27EE800A 		vmul.f32	s0, s15, s0
 1170              		.loc 1 631 0
 1171 0106 C3ED007A 		vstr.32	s15, [r3]
 1172              		.loc 1 632 0
 1173 010a FFF7FEFF 		bl	sinf
 1174              	.LVL51:
 1175 010e 944B     		ldr	r3, .L363+84
 1176              		.loc 1 633 0
 1177 0110 9448     		ldr	r0, .L363+88
 1178              		.loc 1 632 0
 1179 0112 83ED000A 		vstr.32	s0, [r3]
 1180              		.loc 1 633 0
 1181 0116 FFF7FEFF 		bl	imu_get_gyro
 1182              	.LVL52:
 1183              		.loc 1 634 0
 1184 011a FFF7FEFF 		bl	mc_interface_get_duty_cycle_now
 1185              	.LVL53:
 1186              		.loc 1 635 0
 1187 011e 924B     		ldr	r3, .L363+92
 1188 0120 B0EEC00A 		vabs.f32	s0, s0
 1189 0124 83ED000A 		vstr.32	s0, [r3]
 1190              		.loc 1 636 0
 1191 0128 FFF7FEFF 		bl	mc_interface_get_rpm
 1192              	.LVL54:
 1193 012c 8F4A     		ldr	r2, .L363+96
 1194              		.loc 1 638 0
 1195 012e 94F87C30 		ldrb	r3, [r4, #124]	@ zero_extendqisi2
 1196              		.loc 1 636 0
 1197 0132 82ED000A 		vstr.32	s0, [r2]
ARM GAS  /tmp/ccIHdayg.s 			page 22


 1198              		.loc 1 637 0
 1199 0136 8E4A     		ldr	r2, .L363+100
 1200 0138 F0EEC07A 		vabs.f32	s15, s0
 1201 013c C2ED007A 		vstr.32	s15, [r2]
 1202              		.loc 1 638 0
 1203 0140 002B     		cmp	r3, #0
 1204 0142 40F0F783 		bne	.L353
 1205              	.L102:
 1206              		.loc 1 648 0
 1207 0146 8B4B     		ldr	r3, .L363+104
 1208 0148 DFED8B5A 		vldr.32	s11, .L363+108
 1209 014c 9A89     		ldrh	r2, [r3, #12]
 1210              		.loc 1 650 0
 1211 014e DB89     		ldrh	r3, [r3, #14]
 1212              		.loc 1 648 0
 1213 0150 DFED8A7A 		vldr.32	s15, .L363+112
 1214              		.loc 1 656 0
 1215 0154 94ED075A 		vldr.32	s10, [r4, #28]
 1216              		.loc 1 648 0
 1217 0158 07EE102A 		vmov	s14, r2	@ int
 1218              		.loc 1 650 0
 1219 015c 06EE103A 		vmov	s12, r3	@ int
 1220              		.loc 1 648 0
 1221 0160 B8EE477A 		vcvt.f32.u32	s14, s14
 1222              		.loc 1 650 0
 1223 0164 B8EE466A 		vcvt.f32.u32	s12, s12
 1224              		.loc 1 648 0
 1225 0168 C7EE256A 		vdiv.f32	s13, s14, s11
 1226 016c 844B     		ldr	r3, .L363+116
 1227              		.loc 1 650 0
 1228 016e 86EE257A 		vdiv.f32	s14, s12, s11
 1229              		.loc 1 648 0
 1230 0172 66EEA76A 		vmul.f32	s13, s13, s15
 1231              		.loc 1 656 0
 1232 0176 B5EE405A 		vcmp.f32	s10, #0
 1233              		.loc 1 648 0
 1234 017a C3ED006A 		vstr.32	s13, [r3]
 1235              		.loc 1 650 0
 1236 017e 67EE277A 		vmul.f32	s15, s14, s15
 1237 0182 804B     		ldr	r3, .L363+120
 1238              		.loc 1 656 0
 1239 0184 F1EE10FA 		vmrs	APSR_nzcv, FPSCR
 1240              		.loc 1 650 0
 1241 0188 C3ED007A 		vstr.32	s15, [r3]
 1242              		.loc 1 656 0
 1243 018c 40F0A883 		bne	.L106
 1244              		.loc 1 656 0 is_stmt 0 discriminator 1
 1245 0190 94ED087A 		vldr.32	s14, [r4, #32]
 1246 0194 B5EE407A 		vcmp.f32	s14, #0
 1247 0198 F1EE10FA 		vmrs	APSR_nzcv, FPSCR
 1248 019c 40F0A083 		bne	.L106
 1249              	.L109:
 1250              		.loc 1 657 0 is_stmt 1
 1251 01a0 794A     		ldr	r2, .L363+124
 1252 01a2 0223     		movs	r3, #2
 1253 01a4 1370     		strb	r3, [r2]
 1254              	.L107:
ARM GAS  /tmp/ccIHdayg.s 			page 23


 1255              		.loc 1 682 0
 1256 01a6 794B     		ldr	r3, .L363+128
 1257 01a8 1B78     		ldrb	r3, [r3]	@ zero_extendqisi2
 1258 01aa 0B2B     		cmp	r3, #11
 1259 01ac 12D8     		bhi	.L116
 1260 01ae DFE813F0 		tbh	[pc, r3, lsl #1]
 1261              	.L118:
 1262 01b2 A000     		.2byte	(.L117-.L118)/2
 1263 01b4 0901     		.2byte	(.L119-.L118)/2
 1264 01b6 0901     		.2byte	(.L119-.L118)/2
 1265 01b8 0901     		.2byte	(.L119-.L118)/2
 1266 01ba 0901     		.2byte	(.L119-.L118)/2
 1267 01bc 1100     		.2byte	(.L116-.L118)/2
 1268 01be 8000     		.2byte	(.L120-.L118)/2
 1269 01c0 8000     		.2byte	(.L120-.L118)/2
 1270 01c2 8000     		.2byte	(.L120-.L118)/2
 1271 01c4 8000     		.2byte	(.L120-.L118)/2
 1272 01c6 0C00     		.2byte	(.L121-.L118)/2
 1273 01c8 8000     		.2byte	(.L120-.L118)/2
 1274              		.p2align 1
 1275              	.L121:
 1276              		.loc 1 793 0
 1277 01ca 0120     		movs	r0, #1
 1278 01cc FFF7FEFF 		bl	check_faults
 1279              	.LVL55:
 1280              	.L352:
 1281              		.loc 1 795 0
 1282 01d0 FFF7FEFF 		bl	brake
 1283              	.LVL56:
 1284              	.L116:
 1285              	.LBB172:
 1286              	.LBB173:
 1287              		.loc 1 917 0
 1288 01d4 6E4B     		ldr	r3, .L363+132
 1289 01d6 DAF80020 		ldr	r2, [r10]
 1290 01da 1B68     		ldr	r3, [r3]
 1291 01dc 9A42     		cmp	r2, r3
 1292 01de 11DA     		bge	.L231
 1293              		.loc 1 918 0
 1294 01e0 6C4B     		ldr	r3, .L363+136
 1295 01e2 1868     		ldr	r0, [r3]
 1296 01e4 FFF7FEFF 		bl	app_balance_get_debug
 1297              	.LVL57:
 1298 01e8 10EE100A 		vmov	r0, s0
 1299 01ec FFF7FEFF 		bl	__aeabi_f2d
 1300              	.LVL58:
 1301 01f0 0246     		mov	r2, r0
 1302 01f2 0B46     		mov	r3, r1
 1303 01f4 6848     		ldr	r0, .L363+140
 1304 01f6 FFF7FEFF 		bl	commands_printf
 1305              	.LVL59:
 1306              		.loc 1 919 0
 1307 01fa DAF80030 		ldr	r3, [r10]
 1308 01fe 0133     		adds	r3, r3, #1
 1309 0200 CAF80030 		str	r3, [r10]
 1310              	.L231:
 1311              	.LBE173:
ARM GAS  /tmp/ccIHdayg.s 			page 24


 1312              	.LBE172:
 1313              	.LBB174:
 1314              	.LBB175:
 1315              		.loc 1 923 0
 1316 0204 654B     		ldr	r3, .L363+144
 1317 0206 1B68     		ldr	r3, [r3]
 1318 0208 002B     		cmp	r3, #0
 1319 020a 40F03284 		bne	.L354
 1320              	.L232:
 1321              		.loc 1 927 0
 1322 020e 644B     		ldr	r3, .L363+148
 1323 0210 1B68     		ldr	r3, [r3]
 1324 0212 002B     		cmp	r3, #0
 1325 0214 40F01184 		bne	.L355
 1326              	.L233:
 1327              		.loc 1 931 0
 1328 0218 624B     		ldr	r3, .L363+152
 1329 021a 1B68     		ldr	r3, [r3]
 1330 021c 002B     		cmp	r3, #0
 1331 021e 40F0F083 		bne	.L356
 1332              	.L234:
 1333              		.loc 1 935 0
 1334 0222 614B     		ldr	r3, .L363+156
 1335 0224 1B68     		ldr	r3, [r3]
 1336 0226 002B     		cmp	r3, #0
 1337 0228 40F0D083 		bne	.L357
 1338              	.L235:
 1339              		.loc 1 939 0
 1340 022c 5F4B     		ldr	r3, .L363+160
 1341 022e 1B68     		ldr	r3, [r3]
 1342 0230 002B     		cmp	r3, #0
 1343 0232 40F0B083 		bne	.L358
 1344              	.L236:
 1345              		.loc 1 943 0
 1346 0236 5E4B     		ldr	r3, .L363+164
 1347 0238 1B68     		ldr	r3, [r3]
 1348 023a CBB1     		cbz	r3, .L237
 1349              		.loc 1 944 0
 1350 023c 0520     		movs	r0, #5
 1351 023e FFF7FEFF 		bl	commands_plot_set_graph
 1352              	.LVL60:
 1353              		.loc 1 945 0
 1354 0242 5B4B     		ldr	r3, .L363+164
 1355 0244 1868     		ldr	r0, [r3]
 1356 0246 FFF7FEFF 		bl	app_balance_get_debug
 1357              	.LVL61:
 1358 024a 3B68     		ldr	r3, [r7]
 1359 024c 594A     		ldr	r2, .L363+168
 1360 024e 4FF47A70 		mov	r0, #1000
 1361 0252 42F20F71 		movw	r1, #9999
 1362 0256 00FB0313 		mla	r3, r0, r3, r1
 1363 025a A2FB0323 		umull	r2, r3, r2, r3
 1364 025e 5B0B     		lsrs	r3, r3, #13
 1365 0260 07EE903A 		vmov	s15, r3	@ int
 1366 0264 F0EE400A 		vmov.f32	s1, s0
 1367 0268 B8EEE70A 		vcvt.f32.s32	s0, s15
 1368 026c FFF7FEFF 		bl	commands_send_plot_points
ARM GAS  /tmp/ccIHdayg.s 			page 25


 1369              	.LVL62:
 1370              	.L237:
 1371              	.LBE175:
 1372              	.LBE174:
 1373              		.loc 1 804 0
 1374 0270 304B     		ldr	r3, .L363+40
 1375 0272 93ED000A 		vldr.32	s0, [r3]
 1376 0276 FFF7FEFF 		bl	roundf
 1377              	.LVL63:
 1378 027a 2F4B     		ldr	r3, .L363+44
 1379 027c 1B68     		ldr	r3, [r3]
 1380 027e 0193     		str	r3, [sp, #4]
 1381 0280 07EE903A 		vmov	s15, r3	@ int
 1382 0284 F8EE677A 		vcvt.f32.u32	s15, s15
 1383 0288 37EEC00A 		vsub.f32	s0, s15, s0
 1384 028c FCEEC07A 		vcvt.u32.f32	s15, s0
 1385 0290 17EE900A 		vmov	r0, s15	@ int
 1386 0294 FFF7FEFF 		bl	chThdSleep
 1387              	.LVL64:
 1388              	.LBB177:
 1389              	.LBB178:
 1390              		.file 4 "ChibiOS_3.0.5/os/rt/include/chthreads.h"
 1391              		.loc 4 233 0
 1392 0298 AB69     		ldr	r3, [r5, #24]
 1393              	.LBE178:
 1394              	.LBE177:
 1395              		.loc 1 609 0
 1396 029a 93F82130 		ldrb	r3, [r3, #33]	@ zero_extendqisi2
 1397 029e 5B07     		lsls	r3, r3, #29
 1398 02a0 7FF5CCAE 		bpl	.L238
 1399              	.L99:
 1400              		.loc 1 809 0
 1401 02a4 03B0     		add	sp, sp, #12
 1402              		.cfi_remember_state
 1403              		.cfi_def_cfa_offset 60
 1404              		@ sp needed
 1405 02a6 BDEC068B 		vldm	sp!, {d8-d10}
 1406              		.cfi_restore 84
 1407              		.cfi_restore 85
 1408              		.cfi_restore 82
 1409              		.cfi_restore 83
 1410              		.cfi_restore 80
 1411              		.cfi_restore 81
 1412              		.cfi_def_cfa_offset 36
 1413 02aa BDE8F04F 		pop	{r4, r5, r6, r7, r8, r9, r10, fp, lr}
 1414              		.cfi_restore 14
 1415              		.cfi_restore 11
 1416              		.cfi_restore 10
 1417              		.cfi_restore 9
 1418              		.cfi_restore 8
 1419              		.cfi_restore 7
 1420              		.cfi_restore 6
 1421              		.cfi_restore 5
 1422              		.cfi_restore 4
 1423              		.cfi_def_cfa_offset 0
 1424              		.loc 1 808 0
 1425 02ae FFF7FEBF 		b	brake
ARM GAS  /tmp/ccIHdayg.s 			page 26


 1426              	.LVL65:
 1427              	.L120:
 1428              		.cfi_restore_state
 1429              		.loc 1 782 0
 1430 02b2 D8ED007A 		vldr.32	s15, [r8]
 1431 02b6 94ED1B7A 		vldr.32	s14, [r4, #108]
 1432 02ba F0EEE77A 		vabs.f32	s15, s15
 1433 02be F4EEC77A 		vcmpe.f32	s15, s14
 1434 02c2 F1EE10FA 		vmrs	APSR_nzcv, FPSCR
 1435 02c6 83D5     		bpl	.L352
 1436              		.loc 1 782 0 is_stmt 0 discriminator 1
 1437 02c8 224B     		ldr	r3, .L363+72
 1438 02ca 94ED1C7A 		vldr.32	s14, [r4, #112]
 1439 02ce D3ED007A 		vldr.32	s15, [r3]
 1440 02d2 F0EEE77A 		vabs.f32	s15, s15
 1441 02d6 F4EEC77A 		vcmpe.f32	s15, s14
 1442 02da F1EE10FA 		vmrs	APSR_nzcv, FPSCR
 1443 02de 7FF577AF 		bpl	.L352
 1444              		.loc 1 782 0 discriminator 2
 1445 02e2 294B     		ldr	r3, .L363+124
 1446 02e4 1B78     		ldrb	r3, [r3]	@ zero_extendqisi2
 1447 02e6 022B     		cmp	r3, #2
 1448 02e8 7FF472AF 		bne	.L352
 1449              		.loc 1 783 0 is_stmt 1
 1450 02ec FFF7FEFF 		bl	reset_vars
 1451              	.LVL66:
 1452              		.loc 1 784 0
 1453 02f0 70E7     		b	.L116
 1454              	.L117:
 1455              		.loc 1 685 0
 1456 02f2 FFF7FEFF 		bl	brake
 1457              	.LVL67:
 1458              		.loc 1 686 0
 1459 02f6 FFF7FEFF 		bl	imu_startup_done
 1460              	.LVL68:
 1461 02fa 0028     		cmp	r0, #0
 1462 02fc 3FF46AAF 		beq	.L116
 1463              		.loc 1 687 0
 1464 0300 FFF7FEFF 		bl	reset_vars
 1465              	.LVL69:
 1466              		.loc 1 688 0
 1467 0304 214A     		ldr	r2, .L363+128
 1468 0306 0B23     		movs	r3, #11
 1469 0308 1370     		strb	r3, [r2]
 1470 030a 63E7     		b	.L116
 1471              	.L364:
 1472              		.align	2
 1473              	.L363:
 1474 030c 00000000 		.word	ch
 1475 0310 00000000 		.word	.LC0
 1476 0314 00000000 		.word	.LANCHOR20
 1477 0318 00000000 		.word	.LANCHOR25
 1478 031c 00000000 		.word	0
 1479 0320 8FC2F53C 		.word	1022739087
 1480 0324 EC51783F 		.word	1064849900
 1481 0328 00401C46 		.word	1176256512
 1482 032c 00000000 		.word	.LANCHOR21
ARM GAS  /tmp/ccIHdayg.s 			page 27


 1483 0330 00000000 		.word	.LANCHOR22
 1484 0334 00000000 		.word	.LANCHOR41
 1485 0338 00000000 		.word	.LANCHOR39
 1486 033c 00000000 		.word	.LANCHOR44
 1487 0340 00000000 		.word	.LANCHOR40
 1488 0344 00000000 		.word	.LANCHOR37
 1489 0348 E02E6542 		.word	1113927392
 1490 034c 00000000 		.word	.LANCHOR34
 1491 0350 00000000 		.word	.LANCHOR36
 1492 0354 00000000 		.word	.LANCHOR30
 1493 0358 35FA8E3C 		.word	1016003125
 1494 035c 00000000 		.word	.LANCHOR45
 1495 0360 00000000 		.word	.LANCHOR46
 1496 0364 00000000 		.word	.LANCHOR47
 1497 0368 00000000 		.word	.LANCHOR32
 1498 036c 00000000 		.word	.LANCHOR38
 1499 0370 00000000 		.word	.LANCHOR27
 1500 0374 00000000 		.word	ADC_Value
 1501 0378 00F07F45 		.word	1166012416
 1502 037c 33335340 		.word	1079194419
 1503 0380 00000000 		.word	.LANCHOR49
 1504 0384 00000000 		.word	.LANCHOR50
 1505 0388 00000000 		.word	.LANCHOR24
 1506 038c 00000000 		.word	.LANCHOR19
 1507 0390 00000000 		.word	.LANCHOR63
 1508 0394 00000000 		.word	.LANCHOR64
 1509 0398 0C000000 		.word	.LC1
 1510 039c 00000000 		.word	.LANCHOR65
 1511 03a0 00000000 		.word	.LANCHOR66
 1512 03a4 00000000 		.word	.LANCHOR67
 1513 03a8 00000000 		.word	.LANCHOR68
 1514 03ac 00000000 		.word	.LANCHOR69
 1515 03b0 00000000 		.word	.LANCHOR70
 1516 03b4 5917B7D1 		.word	-776530087
 1517 03b8 00000000 		.word	.LANCHOR42
 1518 03bc 00000000 		.word	.LANCHOR7
 1519 03c0 00000000 		.word	.LANCHOR62
 1520              	.L119:
 1521              		.loc 1 697 0
 1522 03c4 0020     		movs	r0, #0
 1523 03c6 FFF7FEFF 		bl	check_faults
 1524              	.LVL70:
 1525 03ca 0028     		cmp	r0, #0
 1526 03cc 7FF402AF 		bne	.L116
 1527              	.LBB179:
 1528              	.LBB180:
 1529              		.loc 1 401 0
 1530 03d0 E94B     		ldr	r3, .L365
 1531 03d2 EA4A     		ldr	r2, .L365+4
 1532 03d4 1978     		ldrb	r1, [r3]	@ zero_extendqisi2
 1533 03d6 92ED007A 		vldr.32	s14, [r2]
 1534 03da 0029     		cmp	r1, #0
 1535 03dc 00F08D83 		beq	.L319
 1536 03e0 E749     		ldr	r1, .L365+8
 1537              	.L124:
 1538              		.loc 1 404 0
 1539 03e2 E848     		ldr	r0, .L365+12
ARM GAS  /tmp/ccIHdayg.s 			page 28


 1540 03e4 D4ED0E6A 		vldr.32	s13, [r4, #56]
 1541 03e8 D0ED007A 		vldr.32	s15, [r0]
 1542 03ec F4EEE76A 		vcmpe.f32	s13, s15
 1543 03f0 F1EE10FA 		vmrs	APSR_nzcv, FPSCR
 1544 03f4 40F15F84 		bpl	.L320
 1545              		.loc 1 405 0
 1546 03f8 E348     		ldr	r0, .L365+16
 1547              		.loc 1 406 0
 1548 03fa D4ED0C7A 		vldr.32	s15, [r4, #48]
 1549              		.loc 1 405 0
 1550 03fe D0ED006A 		vldr.32	s13, [r0]
 1551 0402 F5EEC06A 		vcmpe.f32	s13, #0
 1552 0406 F1EE10FA 		vmrs	APSR_nzcv, FPSCR
 1553              		.loc 1 408 0
 1554 040a D8BF     		it	le
 1555 040c F1EE677A 		vnegle.f32	s15, s15
 1556              		.loc 1 410 0
 1557 0410 0120     		movs	r0, #1
 1558 0412 1870     		strb	r0, [r3]
 1559              	.LBE180:
 1560              	.LBE179:
 1561              	.LBB195:
 1562              	.LBB196:
 1563              		.loc 1 436 0
 1564 0414 B4EE677A 		vcmp.f32	s14, s15
 1565              	.LBE196:
 1566              	.LBE195:
 1567              	.LBB233:
 1568              	.LBB181:
 1569              		.loc 1 411 0
 1570 0418 DC4B     		ldr	r3, .L365+20
 1571              		.loc 1 408 0
 1572 041a C1ED007A 		vstr.32	s15, [r1]
 1573              	.LBE181:
 1574              	.LBE233:
 1575              	.LBB234:
 1576              	.LBB217:
 1577              		.loc 1 436 0
 1578 041e F1EE10FA 		vmrs	APSR_nzcv, FPSCR
 1579              	.LBE217:
 1580              	.LBE234:
 1581              	.LBB235:
 1582              	.LBB182:
 1583              		.loc 1 411 0
 1584 0422 4FF00201 		mov	r1, #2
 1585 0426 1970     		strb	r1, [r3]
 1586              	.LBE182:
 1587              	.LBE235:
 1588              	.LBB236:
 1589              	.LBB218:
 1590              		.loc 1 436 0
 1591 0428 40F02A85 		bne	.L359
 1592              	.L132:
 1593              	.LBE218:
 1594              	.LBE236:
 1595              	.LBB237:
 1596              	.LBB238:
ARM GAS  /tmp/ccIHdayg.s 			page 29


 1597              		.loc 1 451 0
 1598 042c D84B     		ldr	r3, .L365+24
 1599              	.LBE238:
 1600              	.LBE237:
 1601              		.loc 1 704 0
 1602 042e D94E     		ldr	r6, .L365+28
 1603              	.LBB245:
 1604              	.LBB239:
 1605              		.loc 1 451 0
 1606 0430 D3ED007A 		vldr.32	s15, [r3]
 1607              	.LBE239:
 1608              	.LBE245:
 1609              		.loc 1 704 0
 1610 0434 86ED007A 		vstr.32	s14, [r6]
 1611              	.LVL71:
 1612              	.LBB246:
 1613              	.LBB240:
 1614              		.loc 1 451 0
 1615 0438 B0EEE66A 		vabs.f32	s12, s13
 1616 043c B4EEE76A 		vcmpe.f32	s12, s15
 1617 0440 F1EE10FA 		vmrs	APSR_nzcv, FPSCR
 1618 0444 40F3FB83 		ble	.L327
 1619              		.loc 1 452 0
 1620 0448 D4ED197A 		vldr.32	s15, [r4, #100]
 1621 044c F5EEC06A 		vcmpe.f32	s13, #0
 1622 0450 F1EE10FA 		vmrs	APSR_nzcv, FPSCR
 1623 0454 F0EEE77A 		vabs.f32	s15, s15
 1624 0458 01D5     		bpl	.L155
 1625 045a F1EE677A 		vneg.f32	s15, s15
 1626              	.LVL72:
 1627              	.L155:
 1628              		.loc 1 457 0
 1629 045e B4F85C30 		ldrh	r3, [r4, #92]
 1630 0462 06EE103A 		vmov	s12, r3	@ int
 1631 0466 B8EEC66A 		vcvt.f32.s32	s12, s12
 1632 046a B4EEE66A 		vcmpe.f32	s12, s13
 1633 046e F1EE10FA 		vmrs	APSR_nzcv, FPSCR
 1634 0472 40F10E84 		bpl	.L328
 1635              		.loc 1 458 0
 1636 0476 D4ED166A 		vldr.32	s13, [r4, #88]
 1637 047a 77EEA67A 		vadd.f32	s15, s15, s13
 1638              	.LVL73:
 1639              	.L158:
 1640              		.loc 1 463 0
 1641 047e C64B     		ldr	r3, .L365+32
 1642 0480 C64A     		ldr	r2, .L365+36
 1643 0482 D3ED005A 		vldr.32	s11, [r3]
 1644 0486 92ED006A 		vldr.32	s12, [r2]
 1645 048a 77EEE56A 		vsub.f32	s13, s15, s11
 1646 048e B0EEE65A 		vabs.f32	s10, s13
 1647 0492 B4EEC65A 		vcmpe.f32	s10, s12
 1648 0496 F1EE10FA 		vmrs	APSR_nzcv, FPSCR
 1649 049a 00F16283 		bmi	.L348
 1650              		.loc 1 465 0
 1651 049e F5EEC06A 		vcmpe.f32	s13, #0
 1652 04a2 F1EE10FA 		vmrs	APSR_nzcv, FPSCR
 1653 04a6 40F35A83 		ble	.L330
ARM GAS  /tmp/ccIHdayg.s 			page 30


 1654              		.loc 1 466 0
 1655 04aa 75EE867A 		vadd.f32	s15, s11, s12
 1656              	.LVL74:
 1657 04ae C3ED007A 		vstr.32	s15, [r3]
 1658              	.L162:
 1659              		.loc 1 470 0
 1660 04b2 37EE278A 		vadd.f32	s16, s14, s15
 1661              	.LBE240:
 1662              	.LBE246:
 1663              	.LBB247:
 1664              	.LBB248:
 1665              		.loc 1 475 0
 1666 04b6 D4ED337A 		vldr.32	s15, [r4, #204]
 1667 04ba B94B     		ldr	r3, .L365+40
 1668              	.LBE248:
 1669              	.LBE247:
 1670              	.LBB262:
 1671              	.LBB241:
 1672              		.loc 1 470 0
 1673 04bc 86ED008A 		vstr.32	s16, [r6]
 1674              	.LBE241:
 1675              	.LBE262:
 1676              	.LBB263:
 1677              	.LBB255:
 1678              		.loc 1 475 0
 1679 04c0 F5EEC07A 		vcmpe.f32	s15, #0
 1680 04c4 F1EE10FA 		vmrs	APSR_nzcv, FPSCR
 1681 04c8 D3ED006A 		vldr.32	s13, [r3]
 1682 04cc 40F37684 		ble	.L331
 1683              	.LVL75:
 1684              	.LBB249:
 1685              	.LBB250:
 1686              		.loc 1 142 0
 1687 04d0 B44B     		ldr	r3, .L365+44
 1688              	.LBE250:
 1689              	.LBE249:
 1690              		.loc 1 476 0
 1691 04d2 B54A     		ldr	r2, .L365+48
 1692              	.LBB253:
 1693              	.LBB251:
 1694              		.loc 1 142 0
 1695 04d4 D3ED05AA 		vldr.32	s21, [r3, #20]
 1696 04d8 D3ED004A 		vldr.32	s9, [r3]
 1697              		.loc 1 143 0
 1698 04dc 93ED067A 		vldr.32	s14, [r3, #24]
 1699 04e0 93ED015A 		vldr.32	s10, [r3, #4]
 1700              		.loc 1 144 0
 1701 04e4 D3ED047A 		vldr.32	s15, [r3, #16]
 1702              		.loc 1 143 0
 1703 04e8 D3ED035A 		vldr.32	s11, [r3, #12]
 1704              		.loc 1 144 0
 1705 04ec 93ED026A 		vldr.32	s12, [r3, #8]
 1706              		.loc 1 142 0
 1707 04f0 E4EEA6AA 		vfma.f32	s21, s9, s13
 1708              	.LVL76:
 1709              		.loc 1 143 0
 1710 04f4 A5EE267A 		vfma.f32	s14, s10, s13
ARM GAS  /tmp/ccIHdayg.s 			page 31


 1711              		.loc 1 144 0
 1712 04f8 67EEEA7A 		vnmul.f32	s15, s15, s21
 1713              		.loc 1 143 0
 1714 04fc AAEEE57A 		vfms.f32	s14, s21, s11
 1715              		.loc 1 144 0
 1716 0500 E6EE267A 		vfma.f32	s15, s12, s13
 1717              		.loc 1 143 0
 1718 0504 83ED057A 		vstr.32	s14, [r3, #20]
 1719              	.LBE251:
 1720              	.LBE253:
 1721              		.loc 1 476 0
 1722 0508 C2ED00AA 		vstr.32	s21, [r2]
 1723              	.LBB254:
 1724              	.LBB252:
 1725              		.loc 1 144 0
 1726 050c C3ED067A 		vstr.32	s15, [r3, #24]
 1727              	.LVL77:
 1728              	.L167:
 1729              	.LBE252:
 1730              	.LBE254:
 1731              		.loc 1 486 0
 1732 0510 D4ED2E7A 		vldr.32	s15, [r4, #184]
 1733 0514 B0EEEA0A 		vabs.f32	s0, s21
 1734 0518 30EE670A 		vsub.f32	s0, s0, s15
 1735 051c F0EE490A 		vmov.f32	s1, s18
 1736 0520 FFF7FEFF 		bl	fmaxf
 1737              	.LVL78:
 1738 0524 D4ED327A 		vldr.32	s15, [r4, #200]
 1739 0528 D4ED2F0A 		vldr.32	s1, [r4, #188]
 1740 052c 20EE270A 		vmul.f32	s0, s0, s15
 1741 0530 FFF7FEFF 		bl	fminf
 1742              	.LVL79:
 1743              		.loc 1 489 0
 1744 0534 9D4B     		ldr	r3, .L365+52
 1745              		.loc 1 486 0
 1746 0536 F5EEC0AA 		vcmpe.f32	s21, #0
 1747 053a F1EE10FA 		vmrs	APSR_nzcv, FPSCR
 1748              		.loc 1 489 0
 1749 053e D3ED007A 		vldr.32	s15, [r3]
 1750 0542 48BF     		it	mi
 1751 0544 B1EE400A 		vnegmi.f32	s0, s0
 1752 0548 37EEC07A 		vsub.f32	s14, s15, s0
 1753 054c B5EEC07A 		vcmpe.f32	s14, #0
 1754 0550 F1EE10FA 		vmrs	APSR_nzcv, FPSCR
 1755 0554 40F30883 		ble	.L170
 1756 0558 B5EEC00A 		vcmpe.f32	s0, #0
 1757 055c F1EE10FA 		vmrs	APSR_nzcv, FPSCR
 1758 0560 40F30283 		ble	.L170
 1759              	.L172:
 1760              		.loc 1 490 0
 1761 0564 924A     		ldr	r2, .L365+56
 1762 0566 D2ED006A 		vldr.32	s13, [r2]
 1763              	.LVL80:
 1764              	.L176:
 1765              		.loc 1 495 0
 1766 056a 30EE677A 		vsub.f32	s14, s0, s15
 1767 056e B0EEC76A 		vabs.f32	s12, s14
ARM GAS  /tmp/ccIHdayg.s 			page 32


 1768 0572 B4EEE66A 		vcmpe.f32	s12, s13
 1769 0576 F1EE10FA 		vmrs	APSR_nzcv, FPSCR
 1770 057a 00F1E882 		bmi	.L349
 1771              		.loc 1 497 0
 1772 057e B5EEC07A 		vcmpe.f32	s14, #0
 1773 0582 F1EE10FA 		vmrs	APSR_nzcv, FPSCR
 1774 0586 40F3E082 		ble	.L333
 1775              		.loc 1 498 0
 1776 058a 37EEA60A 		vadd.f32	s0, s15, s13
 1777 058e 83ED000A 		vstr.32	s0, [r3]
 1778              	.L179:
 1779              	.LBE255:
 1780              	.LBE263:
 1781              	.LBB264:
 1782              	.LBB265:
 1783              		.loc 1 507 0
 1784 0592 884B     		ldr	r3, .L365+60
 1785 0594 D4ED347A 		vldr.32	s15, [r4, #208]
 1786 0598 93ED007A 		vldr.32	s14, [r3]
 1787              		.loc 1 510 0
 1788 059c 864B     		ldr	r3, .L365+64
 1789              		.loc 1 507 0
 1790 059e DFF84CB2 		ldr	fp, .L365+116
 1791              		.loc 1 510 0
 1792 05a2 D3ED006A 		vldr.32	s13, [r3]
 1793              	.LVL81:
 1794 05a6 94ED366A 		vldr.32	s12, [r4, #216]
 1795              		.loc 1 515 0
 1796 05aa B4F8DC30 		ldrh	r3, [r4, #220]
 1797              		.loc 1 507 0
 1798 05ae 67EE277A 		vmul.f32	s15, s14, s15
 1799              		.loc 1 510 0
 1800 05b2 B4EEE66A 		vcmpe.f32	s12, s13
 1801              		.loc 1 507 0
 1802 05b6 CBED007A 		vstr.32	s15, [fp]
 1803              		.loc 1 515 0
 1804 05ba 07EE903A 		vmov	s15, r3	@ int
 1805 05be 7F4B     		ldr	r3, .L365+68
 1806 05c0 F8EEE77A 		vcvt.f32.s32	s15, s15
 1807 05c4 D3ED006A 		vldr.32	s13, [r3]
 1808              		.loc 1 510 0
 1809 05c8 F1EE10FA 		vmrs	APSR_nzcv, FPSCR
 1810              	.LBE265:
 1811              	.LBE264:
 1812              	.LBB272:
 1813              	.LBB256:
 1814              		.loc 1 502 0
 1815 05cc 38EE008A 		vadd.f32	s16, s16, s0
 1816              	.LBE256:
 1817              	.LBE272:
 1818              	.LBB273:
 1819              	.LBB266:
 1820              		.loc 1 515 0
 1821 05d0 F4EEE67A 		vcmpe.f32	s15, s13
 1822              		.loc 1 511 0
 1823 05d4 C8BF     		it	gt
 1824 05d6 8BED009A 		vstrgt.32	s18, [fp]
ARM GAS  /tmp/ccIHdayg.s 			page 33


 1825              		.loc 1 515 0
 1826 05da F1EE10FA 		vmrs	APSR_nzcv, FPSCR
 1827              	.LBE266:
 1828              	.LBE273:
 1829              	.LBB274:
 1830              	.LBB257:
 1831              		.loc 1 502 0
 1832 05de 86ED008A 		vstr.32	s16, [r6]
 1833              	.LBE257:
 1834              	.LBE274:
 1835              	.LBB275:
 1836              	.LBB267:
 1837              		.loc 1 515 0
 1838 05e2 40F33283 		ble	.L334
 1839              		.loc 1 516 0
 1840 05e6 8BED009A 		vstr.32	s18, [fp]
 1841 05ea B0EE490A 		vmov.f32	s0, s18
 1842              	.L186:
 1843              		.loc 1 522 0
 1844 05ee B4F8E630 		ldrh	r3, [r4, #230]
 1845 05f2 07EE903A 		vmov	s15, r3	@ int
 1846 05f6 F8EEE77A 		vcvt.f32.s32	s15, s15
 1847              		.loc 1 523 0
 1848 05fa B4F8E430 		ldrh	r3, [r4, #228]
 1849              		.loc 1 522 0
 1850 05fe F4EEE76A 		vcmpe.f32	s13, s15
 1851 0602 F1EE10FA 		vmrs	APSR_nzcv, FPSCR
 1852 0606 40F13583 		bpl	.L335
 1853              		.loc 1 523 0
 1854 060a 07EE103A 		vmov	s14, r3	@ int
 1855 060e B4F8E630 		ldrh	r3, [r4, #230]
 1856 0612 DFED6B5A 		vldr.32	s11, .L365+72
 1857 0616 07EE903A 		vmov	s15, r3	@ int
 1858 061a B8EEC77A 		vcvt.f32.s32	s14, s14
 1859 061e F8EEE77A 		vcvt.f32.s32	s15, s15
 1860 0622 87EE256A 		vdiv.f32	s12, s14, s11
 1861 0626 86EEA77A 		vdiv.f32	s14, s13, s15
 1862 062a F7EE007A 		vmov.f32	s15, #1.0e+0
 1863 062e E6EE077A 		vfma.f32	s15, s12, s14
 1864 0632 27EE800A 		vmul.f32	s0, s15, s0
 1865              	.L191:
 1866              		.loc 1 529 0
 1867 0636 D4ED350A 		vldr.32	s1, [r4, #212]
 1868 063a FFF7FEFF 		bl	fminf
 1869              	.LVL82:
 1870              		.loc 1 532 0
 1871 063e 614B     		ldr	r3, .L365+76
 1872 0640 614A     		ldr	r2, .L365+80
 1873 0642 D3ED006A 		vldr.32	s13, [r3]
 1874 0646 92ED007A 		vldr.32	s14, [r2]
 1875              		.loc 1 529 0
 1876 064a 8BED000A 		vstr.32	s0, [fp]
 1877              		.loc 1 532 0
 1878 064e 70EE667A 		vsub.f32	s15, s0, s13
 1879 0652 B0EEE76A 		vabs.f32	s12, s15
 1880 0656 B4EEC76A 		vcmpe.f32	s12, s14
 1881 065a F1EE10FA 		vmrs	APSR_nzcv, FPSCR
ARM GAS  /tmp/ccIHdayg.s 			page 34


 1882 065e 00F17B82 		bmi	.L350
 1883              		.loc 1 534 0
 1884 0662 F5EEC07A 		vcmpe.f32	s15, #0
 1885 0666 F1EE10FA 		vmrs	APSR_nzcv, FPSCR
 1886 066a 40F37382 		ble	.L337
 1887              		.loc 1 535 0
 1888 066e 36EE870A 		vadd.f32	s0, s13, s14
 1889 0672 83ED000A 		vstr.32	s0, [r3]
 1890              	.L194:
 1891              	.LBE267:
 1892              	.LBE275:
 1893              	.LBB276:
 1894              	.LBB277:
 1895              		.loc 1 544 0
 1896 0676 D4ED1E7A 		vldr.32	s15, [r4, #120]
 1897              	.LBE277:
 1898              	.LBE276:
 1899              		.loc 1 710 0
 1900 067a D8ED006A 		vldr.32	s13, [r8]
 1901              	.LBB281:
 1902              	.LBB268:
 1903              		.loc 1 539 0
 1904 067e 38EE000A 		vadd.f32	s0, s16, s0
 1905              	.LBE268:
 1906              	.LBE281:
 1907              	.LBB282:
 1908              	.LBB278:
 1909              		.loc 1 544 0
 1910 0682 F5EE407A 		vcmp.f32	s15, #0
 1911 0686 F1EE10FA 		vmrs	APSR_nzcv, FPSCR
 1912              	.LBE278:
 1913              	.LBE282:
 1914              	.LBB283:
 1915              	.LBB269:
 1916              		.loc 1 539 0
 1917 068a 86ED000A 		vstr.32	s0, [r6]
 1918              	.LBE269:
 1919              	.LBE283:
 1920              		.loc 1 710 0
 1921 068e 30EE667A 		vsub.f32	s14, s0, s13
 1922              	.LVL83:
 1923              	.LBB284:
 1924              	.LBB279:
 1925              		.loc 1 544 0
 1926 0692 1CD0     		beq	.L351
 1927              		.loc 1 548 0
 1928 0694 D4ED1E7A 		vldr.32	s15, [r4, #120]
 1929 0698 B4EEE77A 		vcmpe.f32	s14, s15
 1930 069c F1EE10FA 		vmrs	APSR_nzcv, FPSCR
 1931 06a0 09D5     		bpl	.L199
 1932 06a2 D4ED1E7A 		vldr.32	s15, [r4, #120]
 1933 06a6 F1EE677A 		vneg.f32	s15, s15
 1934 06aa B4EEE77A 		vcmpe.f32	s14, s15
 1935 06ae F1EE10FA 		vmrs	APSR_nzcv, FPSCR
 1936 06b2 00F3D683 		bgt	.L241
 1937              	.L199:
 1938              		.loc 1 550 0
ARM GAS  /tmp/ccIHdayg.s 			page 35


 1939 06b6 D4ED1E7A 		vldr.32	s15, [r4, #120]
 1940 06ba B4EEE77A 		vcmpe.f32	s14, s15
 1941 06be F1EE10FA 		vmrs	APSR_nzcv, FPSCR
 1942              		.loc 1 551 0
 1943 06c2 D4ED1E7A 		vldr.32	s15, [r4, #120]
 1944              		.loc 1 550 0
 1945 06c6 40F3C783 		ble	.L338
 1946              		.loc 1 551 0
 1947 06ca 37EE677A 		vsub.f32	s14, s14, s15
 1948              	.LVL84:
 1949              	.L351:
 1950 06ce B0EEC75A 		vabs.f32	s10, s14
 1951              	.L198:
 1952              	.LVL85:
 1953              	.LBE279:
 1954              	.LBE284:
 1955              		.loc 1 714 0
 1956 06d2 3E49     		ldr	r1, .L365+84
 1957              		.loc 1 715 0
 1958 06d4 3E4B     		ldr	r3, .L365+88
 1959              		.loc 1 714 0
 1960 06d6 91ED000A 		vldr.32	s0, [r1]
 1961              		.loc 1 715 0
 1962 06da D3ED007A 		vldr.32	s15, [r3]
 1963              		.loc 1 718 0
 1964 06de B4F8A030 		ldrh	r3, [r4, #160]
 1965              		.loc 1 715 0
 1966 06e2 3C4A     		ldr	r2, .L365+92
 1967              		.loc 1 714 0
 1968 06e4 37EE000A 		vadd.f32	s0, s14, s0
 1969              		.loc 1 715 0
 1970 06e8 77EEE66A 		vsub.f32	s13, s15, s13
 1971              		.loc 1 718 0
 1972 06ec 9BB2     		uxth	r3, r3
 1973              		.loc 1 714 0
 1974 06ee 81ED000A 		vstr.32	s0, [r1]
 1975              		.loc 1 715 0
 1976 06f2 C2ED006A 		vstr.32	s13, [r2]
 1977              		.loc 1 718 0
 1978 06f6 7BB1     		cbz	r3, .L203
 1979              		.loc 1 719 0
 1980 06f8 374B     		ldr	r3, .L365+96
 1981 06fa 3849     		ldr	r1, .L365+100
 1982 06fc D3ED007A 		vldr.32	s15, [r3]
 1983 0700 91ED006A 		vldr.32	s12, [r1]
 1984 0704 76EEE76A 		vsub.f32	s13, s13, s15
 1985 0708 E6EE867A 		vfma.f32	s15, s13, s12
 1986 070c F0EE676A 		vmov.f32	s13, s15
 1987 0710 C3ED007A 		vstr.32	s15, [r3]
 1988              		.loc 1 720 0
 1989 0714 C2ED007A 		vstr.32	s15, [r2]
 1990              	.L203:
 1991              		.loc 1 722 0
 1992 0718 B4F8A230 		ldrh	r3, [r4, #162]
 1993 071c 9BB2     		uxth	r3, r3
 1994 071e 7BB1     		cbz	r3, .L204
 1995              		.loc 1 723 0
ARM GAS  /tmp/ccIHdayg.s 			page 36


 1996 0720 2F4B     		ldr	r3, .L365+104
 1997 0722 3049     		ldr	r1, .L365+108
 1998 0724 D3ED007A 		vldr.32	s15, [r3]
 1999 0728 91ED006A 		vldr.32	s12, [r1]
 2000 072c 76EEE75A 		vsub.f32	s11, s13, s15
 2001 0730 E5EE867A 		vfma.f32	s15, s11, s12
 2002              		.loc 1 724 0
 2003 0734 76EEE76A 		vsub.f32	s13, s13, s15
 2004              		.loc 1 723 0
 2005 0738 C3ED007A 		vstr.32	s15, [r3]
 2006              		.loc 1 724 0
 2007 073c C2ED006A 		vstr.32	s13, [r2]
 2008              	.L204:
 2009              		.loc 1 726 0
 2010 0740 D4ED297A 		vldr.32	s15, [r4, #164]
 2011 0744 F5EEC07A 		vcmpe.f32	s15, #0
 2012 0748 F1EE10FA 		vmrs	APSR_nzcv, FPSCR
 2013 074c 5EDD     		ble	.L205
 2014              	.LVL86:
 2015              	.LBB285:
 2016              	.LBB286:
 2017              		.loc 1 142 0
 2018 074e 264B     		ldr	r3, .L365+112
 2019 0750 D3ED057A 		vldr.32	s15, [r3, #20]
 2020 0754 93ED003A 		vldr.32	s6, [r3]
 2021              		.loc 1 143 0
 2022 0758 D3ED065A 		vldr.32	s11, [r3, #24]
 2023 075c D3ED013A 		vldr.32	s7, [r3, #4]
 2024              		.loc 1 144 0
 2025 0760 93ED046A 		vldr.32	s12, [r3, #16]
 2026              		.loc 1 143 0
 2027 0764 93ED034A 		vldr.32	s8, [r3, #12]
 2028              		.loc 1 144 0
 2029 0768 D3ED024A 		vldr.32	s9, [r3, #8]
 2030              		.loc 1 142 0
 2031 076c E3EE267A 		vfma.f32	s15, s6, s13
 2032              	.LVL87:
 2033              		.loc 1 143 0
 2034 0770 E3EEA65A 		vfma.f32	s11, s7, s13
 2035 0774 3CE0     		b	.L366
 2036              	.L367:
 2037 0776 00BF     		.align	2
 2038              	.L365:
 2039 0778 00000000 		.word	.LANCHOR17
 2040 077c 00000000 		.word	.LANCHOR9
 2041 0780 00000000 		.word	.LANCHOR10
 2042 0784 00000000 		.word	.LANCHOR32
 2043 0788 00000000 		.word	.LANCHOR38
 2044 078c 00000000 		.word	.LANCHOR19
 2045 0790 00000000 		.word	.LANCHOR52
 2046 0794 00000000 		.word	.LANCHOR8
 2047 0798 00000000 		.word	.LANCHOR11
 2048 079c 00000000 		.word	.LANCHOR54
 2049 07a0 00000000 		.word	.LANCHOR37
 2050 07a4 00000000 		.word	.LANCHOR14
 2051 07a8 00000000 		.word	.LANCHOR13
 2052 07ac 00000000 		.word	.LANCHOR12
ARM GAS  /tmp/ccIHdayg.s 			page 37


 2053 07b0 00000000 		.word	.LANCHOR55
 2054 07b4 00000000 		.word	.LANCHOR46
 2055 07b8 00000000 		.word	.LANCHOR45
 2056 07bc 00000000 		.word	.LANCHOR27
 2057 07c0 0000C842 		.word	1120403456
 2058 07c4 00000000 		.word	.LANCHOR16
 2059 07c8 00000000 		.word	.LANCHOR57
 2060 07cc 00000000 		.word	.LANCHOR0
 2061 07d0 00000000 		.word	.LANCHOR36
 2062 07d4 00000000 		.word	.LANCHOR35
 2063 07d8 00000000 		.word	.LANCHOR3
 2064 07dc 00000000 		.word	.LANCHOR58
 2065 07e0 00000000 		.word	.LANCHOR4
 2066 07e4 00000000 		.word	.LANCHOR59
 2067 07e8 00000000 		.word	.LANCHOR5
 2068 07ec 00000000 		.word	.LANCHOR15
 2069              	.L366:
 2070              		.loc 1 144 0
 2071 07f0 26EE676A 		vnmul.f32	s12, s12, s15
 2072              		.loc 1 143 0
 2073 07f4 E7EEC45A 		vfms.f32	s11, s15, s8
 2074              		.loc 1 144 0
 2075 07f8 A4EEA66A 		vfma.f32	s12, s9, s13
 2076              	.LBE286:
 2077              	.LBE285:
 2078              		.loc 1 727 0
 2079 07fc C2ED007A 		vstr.32	s15, [r2]
 2080              	.LVL88:
 2081 0800 F0EE676A 		vmov.f32	s13, s15
 2082              	.LBB288:
 2083              	.LBB287:
 2084              		.loc 1 143 0
 2085 0804 C3ED055A 		vstr.32	s11, [r3, #20]
 2086              		.loc 1 144 0
 2087 0808 83ED066A 		vstr.32	s12, [r3, #24]
 2088              	.LVL89:
 2089              	.L205:
 2090              	.LBE287:
 2091              	.LBE288:
 2092              		.loc 1 729 0
 2093 080c D4ED2A7A 		vldr.32	s15, [r4, #168]
 2094 0810 F5EEC07A 		vcmpe.f32	s15, #0
 2095 0814 F1EE10FA 		vmrs	APSR_nzcv, FPSCR
 2096 0818 20DD     		ble	.L207
 2097              	.LVL90:
 2098              	.LBB289:
 2099              	.LBB290:
 2100              		.loc 1 142 0
 2101 081a D84B     		ldr	r3, .L368
 2102 081c D3ED057A 		vldr.32	s15, [r3, #20]
 2103 0820 93ED003A 		vldr.32	s6, [r3]
 2104              		.loc 1 143 0
 2105 0824 D3ED065A 		vldr.32	s11, [r3, #24]
 2106 0828 D3ED013A 		vldr.32	s7, [r3, #4]
 2107              		.loc 1 144 0
 2108 082c 93ED046A 		vldr.32	s12, [r3, #16]
 2109              		.loc 1 143 0
ARM GAS  /tmp/ccIHdayg.s 			page 38


 2110 0830 93ED034A 		vldr.32	s8, [r3, #12]
 2111              		.loc 1 144 0
 2112 0834 D3ED024A 		vldr.32	s9, [r3, #8]
 2113              		.loc 1 142 0
 2114 0838 E3EE267A 		vfma.f32	s15, s6, s13
 2115              	.LVL91:
 2116              		.loc 1 143 0
 2117 083c E3EEA65A 		vfma.f32	s11, s7, s13
 2118              		.loc 1 144 0
 2119 0840 26EE676A 		vnmul.f32	s12, s12, s15
 2120              		.loc 1 143 0
 2121 0844 E7EEC45A 		vfms.f32	s11, s15, s8
 2122              		.loc 1 144 0
 2123 0848 A4EEA66A 		vfma.f32	s12, s9, s13
 2124              	.LBE290:
 2125              	.LBE289:
 2126              		.loc 1 730 0
 2127 084c C2ED007A 		vstr.32	s15, [r2]
 2128              	.LVL92:
 2129 0850 F0EE676A 		vmov.f32	s13, s15
 2130              	.LBB292:
 2131              	.LBB291:
 2132              		.loc 1 143 0
 2133 0854 C3ED055A 		vstr.32	s11, [r3, #20]
 2134              		.loc 1 144 0
 2135 0858 83ED066A 		vstr.32	s12, [r3, #24]
 2136              	.LVL93:
 2137              	.L207:
 2138              	.LBE291:
 2139              	.LBE292:
 2140              		.loc 1 733 0
 2141 085c D4ED004A 		vldr.32	s9, [r4]
 2142 0860 D4ED017A 		vldr.32	s15, [r4, #4]
 2143 0864 D4ED025A 		vldr.32	s11, [r4, #8]
 2144              		.loc 1 739 0
 2145 0868 94ED2B6A 		vldr.32	s12, [r4, #172]
 2146              		.loc 1 733 0
 2147 086c C44B     		ldr	r3, .L368+4
 2148 086e 20EE270A 		vmul.f32	s0, s0, s15
 2149              		.loc 1 739 0
 2150 0872 B4EEC56A 		vcmpe.f32	s12, s10
 2151              		.loc 1 733 0
 2152 0876 A4EE870A 		vfma.f32	s0, s9, s14
 2153              		.loc 1 739 0
 2154 087a F1EE10FA 		vmrs	APSR_nzcv, FPSCR
 2155              		.loc 1 733 0
 2156 087e A5EEA60A 		vfma.f32	s0, s11, s13
 2157 0882 83ED000A 		vstr.32	s0, [r3]
 2158              		.loc 1 739 0
 2159 0886 20D5     		bpl	.L209
 2160              		.loc 1 740 0
 2161 0888 D4ED2B7A 		vldr.32	s15, [r4, #172]
 2162 088c D4ED2C6A 		vldr.32	s13, [r4, #176]
 2163 0890 75EE677A 		vsub.f32	s15, s10, s15
 2164 0894 F4EEE67A 		vcmpe.f32	s15, s13
 2165 0898 F1EE10FA 		vmrs	APSR_nzcv, FPSCR
 2166 089c 40F19A82 		bpl	.L339
ARM GAS  /tmp/ccIHdayg.s 			page 39


 2167              		.loc 1 741 0
 2168 08a0 D4ED2D6A 		vldr.32	s13, [r4, #180]
 2169 08a4 D4ED2B7A 		vldr.32	s15, [r4, #172]
 2170 08a8 94ED2C6A 		vldr.32	s12, [r4, #176]
 2171 08ac 75EE677A 		vsub.f32	s15, s10, s15
 2172 08b0 B5EEC07A 		vcmpe.f32	s14, #0
 2173 08b4 87EE867A 		vdiv.f32	s14, s15, s12
 2174 08b8 F1EE10FA 		vmrs	APSR_nzcv, FPSCR
 2175 08bc 48BF     		it	mi
 2176 08be F1EE666A 		vnegmi.f32	s13, s13
 2177 08c2 A7EE260A 		vfma.f32	s0, s14, s13
 2178 08c6 83ED000A 		vstr.32	s0, [r3]
 2179              	.L209:
 2180              		.loc 1 748 0
 2181 08ca 94F87C30 		ldrb	r3, [r4, #124]	@ zero_extendqisi2
 2182 08ce 002B     		cmp	r3, #0
 2183 08d0 40F07681 		bne	.L217
 2184 08d4 AB4B     		ldr	r3, .L368+8
 2185 08d6 D3ED000A 		vldr.32	s1, [r3]
 2186              	.L218:
 2187              		.loc 1 774 0
 2188 08da FFF7FEFF 		bl	set_current
 2189              	.LVL94:
 2190              		.loc 1 775 0
 2191 08de 79E4     		b	.L116
 2192              	.L106:
 2193              		.loc 1 658 0
 2194 08e0 94ED087A 		vldr.32	s14, [r4, #32]
 2195 08e4 B5EE407A 		vcmp.f32	s14, #0
 2196 08e8 F1EE10FA 		vmrs	APSR_nzcv, FPSCR
 2197 08ec 11D1     		bne	.L108
 2198              		.loc 1 659 0
 2199 08ee D4ED077A 		vldr.32	s15, [r4, #28]
 2200 08f2 F4EEE76A 		vcmpe.f32	s13, s15
 2201 08f6 F1EE10FA 		vmrs	APSR_nzcv, FPSCR
 2202 08fa 3FF751AC 		bgt	.L109
 2203              	.L111:
 2204              		.loc 1 662 0
 2205 08fe A24A     		ldr	r2, .L368+12
 2206 0900 0023     		movs	r3, #0
 2207 0902 1370     		strb	r3, [r2]
 2208 0904 4FE4     		b	.L107
 2209              	.L239:
 2210 0906 F0EE497A 		vmov.f32	s15, s18
 2211 090a B0EE498A 		vmov.f32	s16, s18
 2212 090e FFF7A3BB 		b	.L100
 2213              	.L108:
 2214              		.loc 1 664 0
 2215 0912 94ED077A 		vldr.32	s14, [r4, #28]
 2216 0916 B5EE407A 		vcmp.f32	s14, #0
 2217 091a F1EE10FA 		vmrs	APSR_nzcv, FPSCR
 2218 091e 40F0C480 		bne	.L110
 2219              		.loc 1 665 0
 2220 0922 94ED087A 		vldr.32	s14, [r4, #32]
 2221 0926 F4EEC77A 		vcmpe.f32	s15, s14
 2222 092a F1EE10FA 		vmrs	APSR_nzcv, FPSCR
 2223 092e 3FF737AC 		bgt	.L109
ARM GAS  /tmp/ccIHdayg.s 			page 40


 2224 0932 E4E7     		b	.L111
 2225              	.L353:
 2226              		.loc 1 639 0
 2227 0934 DFF884B2 		ldr	fp, .L368+64
 2228              	.LBB293:
 2229              	.LBB167:
 2230              		.loc 1 642 0
 2231 0938 9FED948A 		vldr.32	s16, .L368+16
 2232              	.LBE167:
 2233              	.LBE293:
 2234              		.loc 1 639 0
 2235 093c 8BED000A 		vstr.32	s0, [fp]
 2236              	.LVL95:
 2237              	.LBB294:
 2238              		.loc 1 640 0
 2239 0940 0026     		movs	r6, #0
 2240              	.LVL96:
 2241              	.L105:
 2242              	.LBB168:
 2243              		.loc 1 641 0
 2244 0942 3046     		mov	r0, r6
 2245 0944 FFF7FEFF 		bl	comm_can_get_status_msg_index
 2246              	.LVL97:
 2247              		.loc 1 642 0
 2248 0948 0368     		ldr	r3, [r0]
 2249 094a 002B     		cmp	r3, #0
 2250              	.LBE168:
 2251              		.loc 1 640 0
 2252 094c 06F10106 		add	r6, r6, #1
 2253              	.LVL98:
 2254              	.LBB169:
 2255              		.loc 1 642 0
 2256 0950 15DB     		blt	.L103
 2257              	.LBB163:
 2258              	.LBB164:
 2259              	.LBB165:
 2260              	.LBB166:
 2261              		.loc 2 231 0 discriminator 1
 2262 0952 AB6A     		ldr	r3, [r5, #40]
 2263              	.LVL99:
 2264              	.LBE166:
 2265              	.LBE165:
 2266              		.loc 2 267 0 discriminator 1
 2267 0954 4268     		ldr	r2, [r0, #4]
 2268 0956 9B1A     		subs	r3, r3, r2
 2269              	.LBE164:
 2270              	.LBE163:
 2271              		.loc 1 642 0 discriminator 1
 2272 0958 07EE903A 		vmov	s15, r3	@ int
 2273 095c F8EE677A 		vcvt.f32.u32	s15, s15
 2274 0960 87EEA87A 		vdiv.f32	s14, s15, s17
 2275 0964 B4EEC87A 		vcmpe.f32	s14, s16
 2276 0968 F1EE10FA 		vmrs	APSR_nzcv, FPSCR
 2277 096c 07D5     		bpl	.L103
 2278              		.loc 1 643 0
 2279 096e DBED007A 		vldr.32	s15, [fp]
 2280 0972 90ED027A 		vldr.32	s14, [r0, #8]
ARM GAS  /tmp/ccIHdayg.s 			page 41


 2281 0976 77EE277A 		vadd.f32	s15, s14, s15
 2282 097a CBED007A 		vstr.32	s15, [fp]
 2283              	.L103:
 2284              	.LBE169:
 2285              		.loc 1 640 0 discriminator 2
 2286 097e 0A2E     		cmp	r6, #10
 2287 0980 DFD1     		bne	.L105
 2288              	.LBE294:
 2289              		.loc 1 646 0
 2290 0982 9BED007A 		vldr.32	s14, [fp]
 2291 0986 F6EE007A 		vmov.f32	s15, #5.0e-1
 2292 098a 67EE277A 		vmul.f32	s15, s14, s15
 2293 098e CBED007A 		vstr.32	s15, [fp]
 2294 0992 FFF7D8BB 		b	.L102
 2295              	.LVL100:
 2296              	.L358:
 2297              	.LBB295:
 2298              	.LBB176:
 2299              		.loc 1 940 0
 2300 0996 0420     		movs	r0, #4
 2301 0998 FFF7FEFF 		bl	commands_plot_set_graph
 2302              	.LVL101:
 2303              		.loc 1 941 0
 2304 099c 7C4B     		ldr	r3, .L368+20
 2305 099e 1868     		ldr	r0, [r3]
 2306 09a0 FFF7FEFF 		bl	app_balance_get_debug
 2307              	.LVL102:
 2308 09a4 3B68     		ldr	r3, [r7]
 2309 09a6 7B4A     		ldr	r2, .L368+24
 2310 09a8 4FF47A70 		mov	r0, #1000
 2311 09ac 42F20F71 		movw	r1, #9999
 2312 09b0 00FB0313 		mla	r3, r0, r3, r1
 2313 09b4 A2FB0323 		umull	r2, r3, r2, r3
 2314 09b8 5B0B     		lsrs	r3, r3, #13
 2315 09ba 07EE903A 		vmov	s15, r3	@ int
 2316 09be F0EE400A 		vmov.f32	s1, s0
 2317 09c2 B8EEE70A 		vcvt.f32.s32	s0, s15
 2318 09c6 FFF7FEFF 		bl	commands_send_plot_points
 2319              	.LVL103:
 2320 09ca 34E4     		b	.L236
 2321              	.L357:
 2322              		.loc 1 936 0
 2323 09cc 0320     		movs	r0, #3
 2324 09ce FFF7FEFF 		bl	commands_plot_set_graph
 2325              	.LVL104:
 2326              		.loc 1 937 0
 2327 09d2 714B     		ldr	r3, .L368+28
 2328 09d4 1868     		ldr	r0, [r3]
 2329 09d6 FFF7FEFF 		bl	app_balance_get_debug
 2330              	.LVL105:
 2331 09da 3B68     		ldr	r3, [r7]
 2332 09dc 6D4A     		ldr	r2, .L368+24
 2333 09de 4FF47A70 		mov	r0, #1000
 2334 09e2 42F20F71 		movw	r1, #9999
 2335 09e6 00FB0313 		mla	r3, r0, r3, r1
 2336 09ea A2FB0323 		umull	r2, r3, r2, r3
 2337 09ee 5B0B     		lsrs	r3, r3, #13
ARM GAS  /tmp/ccIHdayg.s 			page 42


 2338 09f0 07EE903A 		vmov	s15, r3	@ int
 2339 09f4 F0EE400A 		vmov.f32	s1, s0
 2340 09f8 B8EEE70A 		vcvt.f32.s32	s0, s15
 2341 09fc FFF7FEFF 		bl	commands_send_plot_points
 2342              	.LVL106:
 2343 0a00 14E4     		b	.L235
 2344              	.L356:
 2345              		.loc 1 932 0
 2346 0a02 0220     		movs	r0, #2
 2347 0a04 FFF7FEFF 		bl	commands_plot_set_graph
 2348              	.LVL107:
 2349              		.loc 1 933 0
 2350 0a08 644B     		ldr	r3, .L368+32
 2351 0a0a 1868     		ldr	r0, [r3]
 2352 0a0c FFF7FEFF 		bl	app_balance_get_debug
 2353              	.LVL108:
 2354 0a10 3B68     		ldr	r3, [r7]
 2355 0a12 604A     		ldr	r2, .L368+24
 2356 0a14 4FF47A70 		mov	r0, #1000
 2357 0a18 42F20F71 		movw	r1, #9999
 2358 0a1c 00FB0313 		mla	r3, r0, r3, r1
 2359 0a20 A2FB0323 		umull	r2, r3, r2, r3
 2360 0a24 5B0B     		lsrs	r3, r3, #13
 2361 0a26 07EE903A 		vmov	s15, r3	@ int
 2362 0a2a F0EE400A 		vmov.f32	s1, s0
 2363 0a2e B8EEE70A 		vcvt.f32.s32	s0, s15
 2364 0a32 FFF7FEFF 		bl	commands_send_plot_points
 2365              	.LVL109:
 2366 0a36 FFF7F4BB 		b	.L234
 2367              	.L355:
 2368              		.loc 1 928 0
 2369 0a3a 0120     		movs	r0, #1
 2370 0a3c FFF7FEFF 		bl	commands_plot_set_graph
 2371              	.LVL110:
 2372              		.loc 1 929 0
 2373 0a40 574B     		ldr	r3, .L368+36
 2374 0a42 1868     		ldr	r0, [r3]
 2375 0a44 FFF7FEFF 		bl	app_balance_get_debug
 2376              	.LVL111:
 2377 0a48 3B68     		ldr	r3, [r7]
 2378 0a4a 524A     		ldr	r2, .L368+24
 2379 0a4c 4FF47A70 		mov	r0, #1000
 2380 0a50 42F20F71 		movw	r1, #9999
 2381 0a54 00FB0313 		mla	r3, r0, r3, r1
 2382 0a58 A2FB0323 		umull	r2, r3, r2, r3
 2383 0a5c 5B0B     		lsrs	r3, r3, #13
 2384 0a5e 07EE903A 		vmov	s15, r3	@ int
 2385 0a62 F0EE400A 		vmov.f32	s1, s0
 2386 0a66 B8EEE70A 		vcvt.f32.s32	s0, s15
 2387 0a6a FFF7FEFF 		bl	commands_send_plot_points
 2388              	.LVL112:
 2389 0a6e FFF7D3BB 		b	.L233
 2390              	.L354:
 2391              		.loc 1 924 0
 2392 0a72 0020     		movs	r0, #0
 2393 0a74 FFF7FEFF 		bl	commands_plot_set_graph
 2394              	.LVL113:
ARM GAS  /tmp/ccIHdayg.s 			page 43


 2395              		.loc 1 925 0
 2396 0a78 4A4B     		ldr	r3, .L368+40
 2397 0a7a 1868     		ldr	r0, [r3]
 2398 0a7c FFF7FEFF 		bl	app_balance_get_debug
 2399              	.LVL114:
 2400 0a80 3B68     		ldr	r3, [r7]
 2401 0a82 444A     		ldr	r2, .L368+24
 2402 0a84 4FF47A70 		mov	r0, #1000
 2403 0a88 42F20F71 		movw	r1, #9999
 2404 0a8c 00FB0313 		mla	r3, r0, r3, r1
 2405 0a90 A2FB0323 		umull	r2, r3, r2, r3
 2406 0a94 5B0B     		lsrs	r3, r3, #13
 2407 0a96 07EE903A 		vmov	s15, r3	@ int
 2408 0a9a F0EE400A 		vmov.f32	s1, s0
 2409 0a9e B8EEE70A 		vcvt.f32.s32	s0, s15
 2410 0aa2 FFF7FEFF 		bl	commands_send_plot_points
 2411              	.LVL115:
 2412 0aa6 FFF7B2BB 		b	.L232
 2413              	.L110:
 2414              	.LBE176:
 2415              	.LBE295:
 2416              		.loc 1 671 0
 2417 0aaa 94ED077A 		vldr.32	s14, [r4, #28]
 2418 0aae F4EEC76A 		vcmpe.f32	s13, s14
 2419 0ab2 F1EE10FA 		vmrs	APSR_nzcv, FPSCR
 2420 0ab6 07DD     		ble	.L112
 2421              		.loc 1 671 0 is_stmt 0 discriminator 1
 2422 0ab8 94ED087A 		vldr.32	s14, [r4, #32]
 2423 0abc F4EEC77A 		vcmpe.f32	s15, s14
 2424 0ac0 F1EE10FA 		vmrs	APSR_nzcv, FPSCR
 2425 0ac4 3FF76CAB 		bgt	.L109
 2426              	.L112:
 2427              		.loc 1 673 0 is_stmt 1
 2428 0ac8 94ED077A 		vldr.32	s14, [r4, #28]
 2429 0acc F4EEC76A 		vcmpe.f32	s13, s14
 2430 0ad0 F1EE10FA 		vmrs	APSR_nzcv, FPSCR
 2431 0ad4 04DD     		ble	.L360
 2432              		.loc 1 674 0
 2433 0ad6 2C4A     		ldr	r2, .L368+12
 2434 0ad8 0123     		movs	r3, #1
 2435 0ada 1370     		strb	r3, [r2]
 2436 0adc FFF763BB 		b	.L107
 2437              	.L360:
 2438              		.loc 1 673 0 discriminator 1
 2439 0ae0 94ED087A 		vldr.32	s14, [r4, #32]
 2440 0ae4 F4EEC77A 		vcmpe.f32	s15, s14
 2441 0ae8 F1EE10FA 		vmrs	APSR_nzcv, FPSCR
 2442 0aec 7FF707AF 		ble	.L111
 2443              		.loc 1 674 0
 2444 0af0 254A     		ldr	r2, .L368+12
 2445 0af2 0123     		movs	r3, #1
 2446 0af4 1370     		strb	r3, [r2]
 2447 0af6 FFF756BB 		b	.L107
 2448              	.L319:
 2449              	.LBB296:
 2450              	.LBB183:
 2451              		.loc 1 401 0
ARM GAS  /tmp/ccIHdayg.s 			page 44


 2452 0afa 2B49     		ldr	r1, .L368+44
 2453 0afc D1ED007A 		vldr.32	s15, [r1]
 2454 0b00 F4EE477A 		vcmp.f32	s15, s14
 2455 0b04 F1EE10FA 		vmrs	APSR_nzcv, FPSCR
 2456 0b08 3FF46BAC 		beq	.L124
 2457              	.LBE183:
 2458              	.LBE296:
 2459              	.LBB297:
 2460              	.LBB219:
 2461              	.LBB197:
 2462              	.LBB198:
 2463              		.loc 1 329 0
 2464 0b0c 2749     		ldr	r1, .L368+48
 2465              	.LBE198:
 2466              	.LBE197:
 2467              		.loc 1 438 0
 2468 0b0e 37EEC76A 		vsub.f32	s12, s15, s14
 2469              	.LBB208:
 2470              	.LBB199:
 2471              		.loc 1 329 0
 2472 0b12 D1ED006A 		vldr.32	s13, [r1]
 2473              	.LBE199:
 2474              	.LBE208:
 2475              	.LBE219:
 2476              	.LBE297:
 2477              	.LBB298:
 2478              	.LBB184:
 2479              		.loc 1 403 0
 2480 0b16 2649     		ldr	r1, .L368+52
 2481 0b18 0123     		movs	r3, #1
 2482              	.LBE184:
 2483              	.LBE298:
 2484              	.LBB299:
 2485              	.LBB220:
 2486              		.loc 1 438 0
 2487 0b1a F0EEC65A 		vabs.f32	s11, s12
 2488              	.LBE220:
 2489              	.LBE299:
 2490              	.LBB300:
 2491              	.LBB185:
 2492              		.loc 1 403 0
 2493 0b1e 0B70     		strb	r3, [r1]
 2494              	.L125:
 2495              	.LBE185:
 2496              	.LBE300:
 2497              	.LBB301:
 2498              	.LBB221:
 2499              		.loc 1 438 0
 2500 0b20 F4EEE56A 		vcmpe.f32	s13, s11
 2501 0b24 F1EE10FA 		vmrs	APSR_nzcv, FPSCR
 2502 0b28 00F34F81 		bgt	.L361
 2503              		.loc 1 440 0
 2504 0b2c B5EEC06A 		vcmpe.f32	s12, #0
 2505 0b30 F1EE10FA 		vmrs	APSR_nzcv, FPSCR
 2506              		.loc 1 441 0
 2507 0b34 CCBF     		ite	gt
 2508 0b36 37EE267A 		vaddgt.f32	s14, s14, s13
ARM GAS  /tmp/ccIHdayg.s 			page 45


 2509              		.loc 1 443 0
 2510 0b3a 37EE667A 		vsuble.f32	s14, s14, s13
 2511 0b3e 1D4B     		ldr	r3, .L368+56
 2512 0b40 82ED007A 		vstr.32	s14, [r2]
 2513 0b44 D3ED006A 		vldr.32	s13, [r3]
 2514 0b48 70E4     		b	.L132
 2515              	.LVL116:
 2516              	.L333:
 2517              	.LBE221:
 2518              	.LBE301:
 2519              	.LBB302:
 2520              	.LBB258:
 2521              		.loc 1 500 0
 2522 0b4a 37EEE60A 		vsub.f32	s0, s15, s13
 2523              	.L349:
 2524 0b4e 83ED000A 		vstr.32	s0, [r3]
 2525 0b52 1EE5     		b	.L179
 2526              	.LVL117:
 2527              	.L337:
 2528              	.LBE258:
 2529              	.LBE302:
 2530              	.LBB303:
 2531              	.LBB270:
 2532              		.loc 1 537 0
 2533 0b54 36EEC70A 		vsub.f32	s0, s13, s14
 2534              	.L350:
 2535 0b58 83ED000A 		vstr.32	s0, [r3]
 2536 0b5c 8BE5     		b	.L194
 2537              	.LVL118:
 2538              	.L330:
 2539              	.LBE270:
 2540              	.LBE303:
 2541              	.LBB304:
 2542              	.LBB242:
 2543              		.loc 1 468 0
 2544 0b5e 75EEC67A 		vsub.f32	s15, s11, s12
 2545              	.LVL119:
 2546              	.L348:
 2547 0b62 C3ED007A 		vstr.32	s15, [r3]
 2548 0b66 A4E4     		b	.L162
 2549              	.L170:
 2550              	.LBE242:
 2551              	.LBE304:
 2552              	.LBB305:
 2553              	.LBB259:
 2554              		.loc 1 489 0
 2555 0b68 B5EEC07A 		vcmpe.f32	s14, #0
 2556 0b6c F1EE10FA 		vmrs	APSR_nzcv, FPSCR
 2557 0b70 00F16A81 		bmi	.L362
 2558              	.L173:
 2559              		.loc 1 492 0
 2560 0b74 104A     		ldr	r2, .L368+60
 2561 0b76 D2ED006A 		vldr.32	s13, [r2]
 2562              	.LVL120:
 2563 0b7a F6E4     		b	.L176
 2564              	.L369:
 2565              		.align	2
ARM GAS  /tmp/ccIHdayg.s 			page 46


 2566              	.L368:
 2567 0b7c 00000000 		.word	.LANCHOR6
 2568 0b80 00000000 		.word	.LANCHOR60
 2569 0b84 00000000 		.word	.LANCHOR61
 2570 0b88 00000000 		.word	.LANCHOR24
 2571 0b8c CDCCCC3D 		.word	1036831949
 2572 0b90 00000000 		.word	.LANCHOR69
 2573 0b94 5917B7D1 		.word	-776530087
 2574 0b98 00000000 		.word	.LANCHOR68
 2575 0b9c 00000000 		.word	.LANCHOR67
 2576 0ba0 00000000 		.word	.LANCHOR66
 2577 0ba4 00000000 		.word	.LANCHOR65
 2578 0ba8 00000000 		.word	.LANCHOR10
 2579 0bac 00000000 		.word	.LANCHOR51
 2580 0bb0 00000000 		.word	.LANCHOR19
 2581 0bb4 00000000 		.word	.LANCHOR38
 2582 0bb8 00000000 		.word	.LANCHOR56
 2583 0bbc 00000000 		.word	.LANCHOR48
 2584              	.LVL121:
 2585              	.L217:
 2586              	.LBE259:
 2587              	.LBE305:
 2588              		.loc 1 750 0
 2589 0bc0 B34B     		ldr	r3, .L370
 2590 0bc2 DFEDB47A 		vldr.32	s15, .L370+4
 2591 0bc6 93ED007A 		vldr.32	s14, [r3]
 2592 0bca B4EEE77A 		vcmpe.f32	s14, s15
 2593 0bce F1EE10FA 		vmrs	APSR_nzcv, FPSCR
 2594 0bd2 40F11E81 		bpl	.L340
 2595              		.loc 1 751 0
 2596 0bd6 B04B     		ldr	r3, .L370+8
 2597 0bd8 F0EE497A 		vmov.f32	s15, s18
 2598 0bdc 83ED009A 		vstr.32	s18, [r3]
 2599              	.L221:
 2600              		.loc 1 758 0
 2601 0be0 AE4B     		ldr	r3, .L370+12
 2602              		.loc 1 759 0
 2603 0be2 AF4A     		ldr	r2, .L370+16
 2604              		.loc 1 758 0
 2605 0be4 93ED027A 		vldr.32	s14, [r3, #8]
 2606              		.loc 1 759 0
 2607 0be8 D2ED006A 		vldr.32	s13, [r2]
 2608              		.loc 1 762 0
 2609 0bec D4ED204A 		vldr.32	s9, [r4, #128]
 2610 0bf0 D4ED210A 		vldr.32	s1, [r4, #132]
 2611              		.loc 1 760 0
 2612 0bf4 AB4B     		ldr	r3, .L370+20
 2613              		.loc 1 762 0
 2614 0bf6 94ED225A 		vldr.32	s10, [r4, #136]
 2615              		.loc 1 760 0
 2616 0bfa 93ED006A 		vldr.32	s12, [r3]
 2617              		.loc 1 764 0
 2618 0bfe D4ED275A 		vldr.32	s11, [r4, #156]
 2619              		.loc 1 762 0
 2620 0c02 A949     		ldr	r1, .L370+24
 2621              		.loc 1 758 0
 2622 0c04 77EEC77A 		vsub.f32	s15, s15, s14
ARM GAS  /tmp/ccIHdayg.s 			page 47


 2623              		.loc 1 759 0
 2624 0c08 37EEA67A 		vadd.f32	s14, s15, s13
 2625              		.loc 1 760 0
 2626 0c0c 77EEC66A 		vsub.f32	s13, s15, s12
 2627              		.loc 1 762 0
 2628 0c10 67EE200A 		vmul.f32	s1, s14, s1
 2629              		.loc 1 759 0
 2630 0c14 82ED007A 		vstr.32	s14, [r2]
 2631              		.loc 1 762 0
 2632 0c18 E7EEA40A 		vfma.f32	s1, s15, s9
 2633 0c1c E6EE850A 		vfma.f32	s1, s13, s10
 2634              		.loc 1 764 0
 2635 0c20 F4EEE50A 		vcmpe.f32	s1, s11
 2636 0c24 F1EE10FA 		vmrs	APSR_nzcv, FPSCR
 2637              		.loc 1 762 0
 2638 0c28 C1ED000A 		vstr.32	s1, [r1]
 2639              		.loc 1 764 0
 2640 0c2c 40F3E080 		ble	.L342
 2641              		.loc 1 765 0
 2642 0c30 D4ED270A 		vldr.32	s1, [r4, #156]
 2643 0c34 C1ED000A 		vstr.32	s1, [r1]
 2644              	.L226:
 2645              		.loc 1 770 0
 2646 0c38 C3ED007A 		vstr.32	s15, [r3]
 2647 0c3c 4DE6     		b	.L218
 2648              	.LVL122:
 2649              	.L327:
 2650              	.LBB306:
 2651              	.LBB243:
 2652              		.loc 1 454 0
 2653 0c3e 9B4B     		ldr	r3, .L370+28
 2654 0c40 D3ED007A 		vldr.32	s15, [r3]
 2655 0c44 66EEA77A 		vmul.f32	s15, s13, s15
 2656              	.LVL123:
 2657 0c48 09E4     		b	.L155
 2658              	.LVL124:
 2659              	.L334:
 2660              	.LBE243:
 2661              	.LBE306:
 2662              	.LBB307:
 2663              	.LBB271:
 2664              		.loc 1 518 0
 2665 0c4a 994B     		ldr	r3, .L370+32
 2666 0c4c DBED007A 		vldr.32	s15, [fp]
 2667 0c50 93ED007A 		vldr.32	s14, [r3]
 2668 0c54 B5EEC07A 		vcmpe.f32	s14, #0
 2669 0c58 F1EE10FA 		vmrs	APSR_nzcv, FPSCR
 2670 0c5c BFEE000A 		vmov.f32	s0, #-1.0e+0
 2671 0c60 B7EE007A 		vmov.f32	s14, #1.0e+0
 2672 0c64 58BF     		it	pl
 2673 0c66 B0EE470A 		vmovpl.f32	s0, s14
 2674 0c6a 20EE270A 		vmul.f32	s0, s0, s15
 2675 0c6e 8BED000A 		vstr.32	s0, [fp]
 2676 0c72 BCE4     		b	.L186
 2677              	.L335:
 2678              		.loc 1 525 0
 2679 0c74 06EE903A 		vmov	s13, r3	@ int
ARM GAS  /tmp/ccIHdayg.s 			page 48


 2680 0c78 9FED8E6A 		vldr.32	s12, .L370+36
 2681 0c7c F8EEE66A 		vcvt.f32.s32	s13, s13
 2682 0c80 F7EE007A 		vmov.f32	s15, #1.0e+0
 2683 0c84 86EE867A 		vdiv.f32	s14, s13, s12
 2684 0c88 77EE277A 		vadd.f32	s15, s14, s15
 2685 0c8c 27EE800A 		vmul.f32	s0, s15, s0
 2686 0c90 D1E4     		b	.L191
 2687              	.LVL125:
 2688              	.L328:
 2689              	.LBE271:
 2690              	.LBE307:
 2691              	.LBB308:
 2692              	.LBB244:
 2693              		.loc 1 459 0
 2694 0c92 B4F85C30 		ldrh	r3, [r4, #92]
 2695 0c96 5B42     		negs	r3, r3
 2696 0c98 06EE103A 		vmov	s12, r3	@ int
 2697 0c9c B8EEC66A 		vcvt.f32.s32	s12, s12
 2698 0ca0 B4EEE66A 		vcmpe.f32	s12, s13
 2699 0ca4 F1EE10FA 		vmrs	APSR_nzcv, FPSCR
 2700              		.loc 1 460 0
 2701 0ca8 C4BF     		itt	gt
 2702 0caa D4ED166A 		vldrgt.32	s13, [r4, #88]
 2703 0cae 77EEE67A 		vsubgt.f32	s15, s15, s13
 2704              	.LVL126:
 2705 0cb2 FFF7E4BB 		b	.L158
 2706              	.LVL127:
 2707              	.L320:
 2708              	.LBE244:
 2709              	.LBE308:
 2710              	.LBB309:
 2711              	.LBB186:
 2712              		.loc 1 412 0
 2713 0cb6 DFED806A 		vldr.32	s13, .L370+40
 2714 0cba F4EEE67A 		vcmpe.f32	s15, s13
 2715 0cbe F1EE10FA 		vmrs	APSR_nzcv, FPSCR
 2716 0cc2 69DD     		ble	.L133
 2717 0cc4 7D48     		ldr	r0, .L370+44
 2718 0cc6 DFED7E6A 		vldr.32	s13, .L370+48
 2719 0cca C08A     		ldrh	r0, [r0, #22]
 2720 0ccc DFED7D7A 		vldr.32	s15, .L370+52
 2721 0cd0 D4ED115A 		vldr.32	s11, [r4, #68]
 2722 0cd4 06EE100A 		vmov	s12, r0	@ int
 2723 0cd8 B8EE466A 		vcvt.f32.u32	s12, s12
 2724 0cdc 26EE266A 		vmul.f32	s12, s12, s13
 2725 0ce0 26EE276A 		vmul.f32	s12, s12, s15
 2726 0ce4 B4EEE56A 		vcmpe.f32	s12, s11
 2727 0ce8 F1EE10FA 		vmrs	APSR_nzcv, FPSCR
 2728 0cec 21DD     		ble	.L322
 2729              		.loc 1 413 0
 2730 0cee 7048     		ldr	r0, .L370+32
 2731              		.loc 1 414 0
 2732 0cf0 D4ED0F7A 		vldr.32	s15, [r4, #60]
 2733              		.loc 1 413 0
 2734 0cf4 D0ED006A 		vldr.32	s13, [r0]
 2735 0cf8 F5EEC06A 		vcmpe.f32	s13, #0
 2736 0cfc F1EE10FA 		vmrs	APSR_nzcv, FPSCR
ARM GAS  /tmp/ccIHdayg.s 			page 49


 2737              		.loc 1 416 0
 2738 0d00 D8BF     		it	le
 2739 0d02 F1EE677A 		vnegle.f32	s15, s15
 2740              		.loc 1 418 0
 2741 0d06 0220     		movs	r0, #2
 2742 0d08 1870     		strb	r0, [r3]
 2743              	.LBE186:
 2744              	.LBE309:
 2745              	.LBB310:
 2746              	.LBB222:
 2747              		.loc 1 436 0
 2748 0d0a B4EE677A 		vcmp.f32	s14, s15
 2749              	.LBE222:
 2750              	.LBE310:
 2751              	.LBB311:
 2752              	.LBB187:
 2753              		.loc 1 419 0
 2754 0d0e 6E4B     		ldr	r3, .L370+56
 2755              		.loc 1 416 0
 2756 0d10 C1ED007A 		vstr.32	s15, [r1]
 2757              	.LBE187:
 2758              	.LBE311:
 2759              	.LBB312:
 2760              	.LBB223:
 2761              		.loc 1 436 0
 2762 0d14 F1EE10FA 		vmrs	APSR_nzcv, FPSCR
 2763              	.LBE223:
 2764              	.LBE312:
 2765              	.LBB313:
 2766              	.LBB188:
 2767              		.loc 1 419 0
 2768 0d18 4FF00301 		mov	r1, #3
 2769 0d1c 1970     		strb	r1, [r3]
 2770              	.LBE188:
 2771              	.LBE313:
 2772              	.LBB314:
 2773              	.LBB224:
 2774              		.loc 1 436 0
 2775 0d1e 3FF485AB 		beq	.L132
 2776              		.loc 1 438 0
 2777 0d22 37EEC76A 		vsub.f32	s12, s15, s14
 2778              	.LBB209:
 2779              	.LBB200:
 2780              		.loc 1 333 0
 2781 0d26 694B     		ldr	r3, .L370+60
 2782              	.LBE200:
 2783              	.LBE209:
 2784              		.loc 1 438 0
 2785 0d28 F0EEC65A 		vabs.f32	s11, s12
 2786              	.LBB210:
 2787              	.LBB201:
 2788              		.loc 1 333 0
 2789 0d2c D3ED006A 		vldr.32	s13, [r3]
 2790 0d30 F6E6     		b	.L125
 2791              	.L322:
 2792              	.LBE201:
 2793              	.LBE210:
ARM GAS  /tmp/ccIHdayg.s 			page 50


 2794              	.LBE224:
 2795              	.LBE314:
 2796              	.LBB315:
 2797              	.LBB189:
 2798              		.loc 1 420 0
 2799 0d32 6248     		ldr	r0, .L370+44
 2800 0d34 C08A     		ldrh	r0, [r0, #22]
 2801 0d36 D4ED145A 		vldr.32	s11, [r4, #80]
 2802 0d3a 06EE100A 		vmov	s12, r0	@ int
 2803 0d3e B8EE466A 		vcvt.f32.u32	s12, s12
 2804 0d42 66EE266A 		vmul.f32	s13, s12, s13
 2805 0d46 66EEA77A 		vmul.f32	s15, s13, s15
 2806 0d4a F4EEE57A 		vcmpe.f32	s15, s11
 2807 0d4e F1EE10FA 		vmrs	APSR_nzcv, FPSCR
 2808 0d52 21D5     		bpl	.L133
 2809              		.loc 1 421 0
 2810 0d54 5648     		ldr	r0, .L370+32
 2811              		.loc 1 422 0
 2812 0d56 D4ED127A 		vldr.32	s15, [r4, #72]
 2813              		.loc 1 421 0
 2814 0d5a D0ED006A 		vldr.32	s13, [r0]
 2815 0d5e F5EEC06A 		vcmpe.f32	s13, #0
 2816 0d62 F1EE10FA 		vmrs	APSR_nzcv, FPSCR
 2817              		.loc 1 424 0
 2818 0d66 D8BF     		it	le
 2819 0d68 F1EE677A 		vnegle.f32	s15, s15
 2820              		.loc 1 426 0
 2821 0d6c 0320     		movs	r0, #3
 2822 0d6e 1870     		strb	r0, [r3]
 2823              	.LBE189:
 2824              	.LBE315:
 2825              	.LBB316:
 2826              	.LBB225:
 2827              		.loc 1 436 0
 2828 0d70 B4EE677A 		vcmp.f32	s14, s15
 2829              	.LBE225:
 2830              	.LBE316:
 2831              	.LBB317:
 2832              	.LBB190:
 2833              		.loc 1 427 0
 2834 0d74 544B     		ldr	r3, .L370+56
 2835              		.loc 1 424 0
 2836 0d76 C1ED007A 		vstr.32	s15, [r1]
 2837              	.LBE190:
 2838              	.LBE317:
 2839              	.LBB318:
 2840              	.LBB226:
 2841              		.loc 1 436 0
 2842 0d7a F1EE10FA 		vmrs	APSR_nzcv, FPSCR
 2843              	.LBE226:
 2844              	.LBE318:
 2845              	.LBB319:
 2846              	.LBB191:
 2847              		.loc 1 427 0
 2848 0d7e 4FF00401 		mov	r1, #4
 2849 0d82 1970     		strb	r1, [r3]
 2850              	.LBE191:
ARM GAS  /tmp/ccIHdayg.s 			page 51


 2851              	.LBE319:
 2852              	.LBB320:
 2853              	.LBB227:
 2854              		.loc 1 436 0
 2855 0d84 3FF452AB 		beq	.L132
 2856              		.loc 1 438 0
 2857 0d88 37EEC76A 		vsub.f32	s12, s15, s14
 2858              	.LBB211:
 2859              	.LBB202:
 2860              		.loc 1 335 0
 2861 0d8c 504B     		ldr	r3, .L370+64
 2862              	.LBE202:
 2863              	.LBE211:
 2864              		.loc 1 438 0
 2865 0d8e F0EEC65A 		vabs.f32	s11, s12
 2866              	.LBB212:
 2867              	.LBB203:
 2868              		.loc 1 335 0
 2869 0d92 D3ED006A 		vldr.32	s13, [r3]
 2870 0d96 C3E6     		b	.L125
 2871              	.L133:
 2872              	.LBE203:
 2873              	.LBE212:
 2874              	.LBE227:
 2875              	.LBE320:
 2876              	.LBB321:
 2877              	.LBB192:
 2878              		.loc 1 429 0
 2879 0d98 0420     		movs	r0, #4
 2880 0d9a 1870     		strb	r0, [r3]
 2881              	.LBE192:
 2882              	.LBE321:
 2883              	.LBB322:
 2884              	.LBB228:
 2885              		.loc 1 436 0
 2886 0d9c B5EE407A 		vcmp.f32	s14, #0
 2887              	.LBE228:
 2888              	.LBE322:
 2889              	.LBB323:
 2890              	.LBB193:
 2891              		.loc 1 431 0
 2892 0da0 494B     		ldr	r3, .L370+56
 2893              		.loc 1 430 0
 2894 0da2 81ED009A 		vstr.32	s18, [r1]
 2895              	.LBE193:
 2896              	.LBE323:
 2897              	.LBB324:
 2898              	.LBB229:
 2899              		.loc 1 436 0
 2900 0da6 F1EE10FA 		vmrs	APSR_nzcv, FPSCR
 2901              	.LBE229:
 2902              	.LBE324:
 2903              	.LBB325:
 2904              	.LBB194:
 2905              		.loc 1 431 0
 2906 0daa 4FF00101 		mov	r1, #1
 2907 0dae 1970     		strb	r1, [r3]
ARM GAS  /tmp/ccIHdayg.s 			page 52


 2908              	.LBE194:
 2909              	.LBE325:
 2910              	.LBB326:
 2911              	.LBB230:
 2912              		.loc 1 436 0
 2913 0db0 5CD1     		bne	.L146
 2914              	.L347:
 2915 0db2 3F4B     		ldr	r3, .L370+32
 2916 0db4 D3ED006A 		vldr.32	s13, [r3]
 2917 0db8 FFF738BB 		b	.L132
 2918              	.L331:
 2919              	.LBE230:
 2920              	.LBE326:
 2921              	.LBB327:
 2922              	.LBB260:
 2923              		.loc 1 478 0
 2924 0dbc 454B     		ldr	r3, .L370+68
 2925 0dbe F0EE66AA 		vmov.f32	s21, s13
 2926 0dc2 C3ED006A 		vstr.32	s13, [r3]
 2927 0dc6 FFF7A3BB 		b	.L167
 2928              	.L361:
 2929              	.LBE260:
 2930              	.LBE327:
 2931              	.LBB328:
 2932              	.LBB231:
 2933              		.loc 1 439 0
 2934 0dca C2ED007A 		vstr.32	s15, [r2]
 2935 0dce B0EE677A 		vmov.f32	s14, s15
 2936 0dd2 EEE7     		b	.L347
 2937              	.L339:
 2938              	.LBE231:
 2939              	.LBE328:
 2940              		.loc 1 743 0
 2941 0dd4 D4ED2D7A 		vldr.32	s15, [r4, #180]
 2942 0dd8 B5EEC07A 		vcmpe.f32	s14, #0
 2943 0ddc F1EE10FA 		vmrs	APSR_nzcv, FPSCR
 2944 0de0 48BF     		it	mi
 2945 0de2 F1EE677A 		vnegmi.f32	s15, s15
 2946 0de6 30EE270A 		vadd.f32	s0, s0, s15
 2947 0dea 83ED000A 		vstr.32	s0, [r3]
 2948 0dee 6CE5     		b	.L209
 2949              	.L342:
 2950              		.loc 1 766 0
 2951 0df0 94ED277A 		vldr.32	s14, [r4, #156]
 2952 0df4 B1EE477A 		vneg.f32	s14, s14
 2953 0df8 F4EEC70A 		vcmpe.f32	s1, s14
 2954 0dfc F1EE10FA 		vmrs	APSR_nzcv, FPSCR
 2955 0e00 7FF51AAF 		bpl	.L226
 2956              		.loc 1 767 0
 2957 0e04 D4ED270A 		vldr.32	s1, [r4, #156]
 2958 0e08 F1EE600A 		vneg.f32	s1, s1
 2959 0e0c C1ED000A 		vstr.32	s1, [r1]
 2960 0e10 12E7     		b	.L226
 2961              	.L340:
 2962 0e12 314A     		ldr	r2, .L370+72
 2963              		.loc 1 753 0
 2964 0e14 94ED236A 		vldr.32	s12, [r4, #140]
ARM GAS  /tmp/ccIHdayg.s 			page 53


 2965 0e18 D2ED006A 		vldr.32	s13, [r2]
 2966              		.loc 1 752 0
 2967 0e1c 2F4B     		ldr	r3, .L370+76
 2968              		.loc 1 753 0
 2969 0e1e 94ED247A 		vldr.32	s14, [r4, #144]
 2970              		.loc 1 752 0
 2971 0e22 D3ED007A 		vldr.32	s15, [r3]
 2972              		.loc 1 753 0
 2973 0e26 1C4B     		ldr	r3, .L370+8
 2974 0e28 27EE267A 		vmul.f32	s14, s14, s13
 2975              		.loc 1 752 0
 2976 0e2c F5EEC07A 		vcmpe.f32	s15, #0
 2977              		.loc 1 753 0
 2978 0e30 67EE277A 		vmul.f32	s15, s14, s15
 2979              		.loc 1 752 0
 2980 0e34 F1EE10FA 		vmrs	APSR_nzcv, FPSCR
 2981              		.loc 1 753 0
 2982 0e38 4CBF     		ite	mi
 2983 0e3a E6EE667A 		vfmsmi.f32	s15, s12, s13
 2984              		.loc 1 755 0
 2985 0e3e E6EE267A 		vfmapl.f32	s15, s12, s13
 2986 0e42 C3ED007A 		vstr.32	s15, [r3]
 2987 0e46 CBE6     		b	.L221
 2988              	.L362:
 2989              	.LBB329:
 2990              	.LBB261:
 2991              		.loc 1 489 0
 2992 0e48 B5EEC00A 		vcmpe.f32	s0, #0
 2993 0e4c F1EE10FA 		vmrs	APSR_nzcv, FPSCR
 2994 0e50 7FF590AE 		bpl	.L173
 2995 0e54 FFF786BB 		b	.L172
 2996              	.LVL128:
 2997              	.L338:
 2998              	.LBE261:
 2999              	.LBE329:
 3000              	.LBB330:
 3001              	.LBB280:
 3002              		.loc 1 553 0
 3003 0e58 37EE277A 		vadd.f32	s14, s14, s15
 3004              	.LVL129:
 3005 0e5c B0EEC75A 		vabs.f32	s10, s14
 3006 0e60 37E4     		b	.L198
 3007              	.LVL130:
 3008              	.L241:
 3009              		.loc 1 548 0
 3010 0e62 B0EE495A 		vmov.f32	s10, s18
 3011              		.loc 1 549 0
 3012 0e66 9FED1E7A 		vldr.32	s14, .L370+80
 3013              	.LVL131:
 3014 0e6a 32E4     		b	.L198
 3015              	.LVL132:
 3016              	.L146:
 3017              	.LBE280:
 3018              	.LBE330:
 3019              	.LBB331:
 3020              	.LBB232:
 3021              		.loc 1 438 0
ARM GAS  /tmp/ccIHdayg.s 			page 54


 3022 0e6c 39EE476A 		vsub.f32	s12, s18, s14
 3023              	.LBB213:
 3024              	.LBB204:
 3025              		.loc 1 337 0
 3026 0e70 1C4B     		ldr	r3, .L370+84
 3027              	.LBE204:
 3028              	.LBE213:
 3029              		.loc 1 438 0
 3030 0e72 F0EEC65A 		vabs.f32	s11, s12
 3031              	.LBB214:
 3032              	.LBB205:
 3033              		.loc 1 337 0
 3034 0e76 D3ED006A 		vldr.32	s13, [r3]
 3035 0e7a F0EE497A 		vmov.f32	s15, s18
 3036 0e7e 4FE6     		b	.L125
 3037              	.L359:
 3038              	.LBE205:
 3039              	.LBE214:
 3040              		.loc 1 438 0
 3041 0e80 37EEC76A 		vsub.f32	s12, s15, s14
 3042              	.LBB215:
 3043              	.LBB206:
 3044              		.loc 1 331 0
 3045 0e84 184B     		ldr	r3, .L370+88
 3046              	.LBE206:
 3047              	.LBE215:
 3048              		.loc 1 438 0
 3049 0e86 F0EEC65A 		vabs.f32	s11, s12
 3050              	.LBB216:
 3051              	.LBB207:
 3052              		.loc 1 331 0
 3053 0e8a D3ED006A 		vldr.32	s13, [r3]
 3054 0e8e 47E6     		b	.L125
 3055              	.L371:
 3056              		.align	2
 3057              	.L370:
 3058 0e90 00000000 		.word	.LANCHOR32
 3059 0e94 0AD7A33C 		.word	1017370378
 3060 0e98 00000000 		.word	.LANCHOR18
 3061 0e9c 00000000 		.word	.LANCHOR47
 3062 0ea0 00000000 		.word	.LANCHOR1
 3063 0ea4 00000000 		.word	.LANCHOR2
 3064 0ea8 00000000 		.word	.LANCHOR61
 3065 0eac 00000000 		.word	.LANCHOR53
 3066 0eb0 00000000 		.word	.LANCHOR38
 3067 0eb4 0000C842 		.word	1120403456
 3068 0eb8 CDCC4C3D 		.word	1028443341
 3069 0ebc 00000000 		.word	ADC_Value
 3070 0ec0 6740533A 		.word	978534503
 3071 0ec4 ABAA5E42 		.word	1113500331
 3072 0ec8 00000000 		.word	.LANCHOR19
 3073 0ecc 00000000 		.word	.LANCHOR73
 3074 0ed0 00000000 		.word	.LANCHOR74
 3075 0ed4 00000000 		.word	.LANCHOR13
 3076 0ed8 00000000 		.word	.LANCHOR30
 3077 0edc 00000000 		.word	.LANCHOR48
 3078 0ee0 00000000 		.word	0
ARM GAS  /tmp/ccIHdayg.s 			page 55


 3079 0ee4 00000000 		.word	.LANCHOR71
 3080 0ee8 00000000 		.word	.LANCHOR72
 3081              	.LBE207:
 3082              	.LBE216:
 3083              	.LBE232:
 3084              	.LBE331:
 3085              		.cfi_endproc
 3086              	.LFE287:
 3087              		.size	balance_thread, .-balance_thread
 3088              		.section	.text.terminal_sample,"ax",%progbits
 3089              		.align	1
 3090              		.p2align 4,,15
 3091              		.syntax unified
 3092              		.thumb
 3093              		.thumb_func
 3094              		.fpu fpv4-sp-d16
 3095              		.type	terminal_sample, %function
 3096              	terminal_sample:
 3097              	.LFB289:
 3098              		.loc 1 833 0
 3099              		.cfi_startproc
 3100              		@ args = 0, pretend = 0, frame = 0
 3101              		@ frame_needed = 0, uses_anonymous_args = 0
 3102              	.LVL133:
 3103              		.loc 1 834 0
 3104 0000 0328     		cmp	r0, #3
 3105 0002 02D0     		beq	.L379
 3106              		.loc 1 841 0
 3107 0004 0B48     		ldr	r0, .L380
 3108              	.LVL134:
 3109 0006 FFF7FEBF 		b	commands_printf
 3110              	.LVL135:
 3111              	.L379:
 3112              		.loc 1 833 0
 3113 000a 70B5     		push	{r4, r5, r6, lr}
 3114              		.cfi_def_cfa_offset 16
 3115              		.cfi_offset 4, -16
 3116              		.cfi_offset 5, -12
 3117              		.cfi_offset 6, -8
 3118              		.cfi_offset 14, -4
 3119              	.LBB334:
 3120              	.LBB335:
 3121              		.loc 1 835 0
 3122 000c 0A4B     		ldr	r3, .L380+4
 3123              		.loc 1 836 0
 3124 000e 0B4E     		ldr	r6, .L380+8
 3125 0010 0C46     		mov	r4, r1
 3126              	.LVL136:
 3127              		.loc 1 837 0
 3128 0012 1A46     		mov	r2, r3
 3129              		.loc 1 835 0
 3130 0014 0025     		movs	r5, #0
 3131              		.loc 1 837 0
 3132 0016 0A49     		ldr	r1, .L380+12
 3133              	.LVL137:
 3134 0018 6068     		ldr	r0, [r4, #4]
 3135              	.LVL138:
ARM GAS  /tmp/ccIHdayg.s 			page 56


 3136              		.loc 1 835 0
 3137 001a 1D60     		str	r5, [r3]
 3138              		.loc 1 836 0
 3139 001c 3560     		str	r5, [r6]
 3140              		.loc 1 837 0
 3141 001e FFF7FEFF 		bl	sscanf
 3142              	.LVL139:
 3143              		.loc 1 838 0
 3144 0022 3246     		mov	r2, r6
 3145 0024 A068     		ldr	r0, [r4, #8]
 3146 0026 0649     		ldr	r1, .L380+12
 3147 0028 FFF7FEFF 		bl	sscanf
 3148              	.LVL140:
 3149              		.loc 1 839 0
 3150 002c 054B     		ldr	r3, .L380+16
 3151 002e 1D60     		str	r5, [r3]
 3152              	.LBE335:
 3153              	.LBE334:
 3154              		.loc 1 843 0
 3155 0030 70BD     		pop	{r4, r5, r6, pc}
 3156              	.LVL141:
 3157              	.L381:
 3158 0032 00BF     		.align	2
 3159              	.L380:
 3160 0034 04000000 		.word	.LC3
 3161 0038 00000000 		.word	.LANCHOR64
 3162 003c 00000000 		.word	.LANCHOR63
 3163 0040 00000000 		.word	.LC2
 3164 0044 00000000 		.word	.LANCHOR62
 3165              		.cfi_endproc
 3166              	.LFE289:
 3167              		.size	terminal_sample, .-terminal_sample
 3168              		.section	.text.terminal_render,"ax",%progbits
 3169              		.align	1
 3170              		.p2align 4,,15
 3171              		.syntax unified
 3172              		.thumb
 3173              		.thumb_func
 3174              		.fpu fpv4-sp-d16
 3175              		.type	terminal_render, %function
 3176              	terminal_render:
 3177              	.LFB288:
 3178              		.loc 1 812 0
 3179              		.cfi_startproc
 3180              		@ args = 0, pretend = 0, frame = 8
 3181              		@ frame_needed = 0, uses_anonymous_args = 0
 3182              	.LVL142:
 3183 0000 30B5     		push	{r4, r5, lr}
 3184              		.cfi_def_cfa_offset 12
 3185              		.cfi_offset 4, -12
 3186              		.cfi_offset 5, -8
 3187              		.cfi_offset 14, -4
 3188              		.loc 1 813 0
 3189 0002 831E     		subs	r3, r0, #2
 3190 0004 012B     		cmp	r3, #1
 3191              		.loc 1 812 0
 3192 0006 83B0     		sub	sp, sp, #12
ARM GAS  /tmp/ccIHdayg.s 			page 57


 3193              		.cfi_def_cfa_offset 24
 3194              		.loc 1 813 0
 3195 0008 04D9     		bls	.L391
 3196              		.loc 1 829 0
 3197 000a 1448     		ldr	r0, .L393
 3198              	.LVL143:
 3199 000c FFF7FEFF 		bl	commands_printf
 3200              	.LVL144:
 3201              		.loc 1 831 0
 3202 0010 03B0     		add	sp, sp, #12
 3203              		.cfi_remember_state
 3204              		.cfi_def_cfa_offset 12
 3205              		@ sp needed
 3206 0012 30BD     		pop	{r4, r5, pc}
 3207              	.LVL145:
 3208              	.L391:
 3209              		.cfi_restore_state
 3210 0014 0D46     		mov	r5, r1
 3211 0016 0446     		mov	r4, r0
 3212              	.LVL146:
 3213              	.LBB339:
 3214              	.LBB340:
 3215              		.loc 1 814 0
 3216 0018 0020     		movs	r0, #0
 3217              	.LVL147:
 3218              		.loc 1 815 0
 3219 001a 0123     		movs	r3, #1
 3220              		.loc 1 814 0
 3221 001c 0090     		str	r0, [sp]
 3222              		.loc 1 816 0
 3223 001e 6A46     		mov	r2, sp
 3224 0020 0F49     		ldr	r1, .L393+4
 3225              	.LVL148:
 3226 0022 6868     		ldr	r0, [r5, #4]
 3227              		.loc 1 815 0
 3228 0024 0193     		str	r3, [sp, #4]
 3229              		.loc 1 816 0
 3230 0026 FFF7FEFF 		bl	sscanf
 3231              	.LVL149:
 3232              		.loc 1 817 0
 3233 002a 032C     		cmp	r4, #3
 3234 002c 07D0     		beq	.L392
 3235 002e 019B     		ldr	r3, [sp, #4]
 3236              	.L385:
 3237 0030 009A     		ldr	r2, [sp]
 3238              		.loc 1 823 0
 3239 0032 012B     		cmp	r3, #1
 3240 0034 0DD0     		beq	.L386
 3241              		.loc 1 826 0
 3242 0036 0B4B     		ldr	r3, .L393+8
 3243 0038 1A60     		str	r2, [r3]
 3244              	.LBE340:
 3245              	.LBE339:
 3246              		.loc 1 831 0
 3247 003a 03B0     		add	sp, sp, #12
 3248              		.cfi_remember_state
 3249              		.cfi_def_cfa_offset 12
ARM GAS  /tmp/ccIHdayg.s 			page 58


 3250              		@ sp needed
 3251 003c 30BD     		pop	{r4, r5, pc}
 3252              	.LVL150:
 3253              	.L392:
 3254              		.cfi_restore_state
 3255              	.LBB342:
 3256              	.LBB341:
 3257              		.loc 1 818 0
 3258 003e 01AA     		add	r2, sp, #4
 3259 0040 A868     		ldr	r0, [r5, #8]
 3260 0042 0749     		ldr	r1, .L393+4
 3261 0044 FFF7FEFF 		bl	sscanf
 3262              	.LVL151:
 3263              		.loc 1 819 0
 3264 0048 019B     		ldr	r3, [sp, #4]
 3265 004a 5A1E     		subs	r2, r3, #1
 3266 004c 012A     		cmp	r2, #1
 3267 004e EFD9     		bls	.L385
 3268 0050 009A     		ldr	r2, [sp]
 3269              	.L386:
 3270              		.loc 1 824 0
 3271 0052 054B     		ldr	r3, .L393+12
 3272 0054 1A60     		str	r2, [r3]
 3273              	.LBE341:
 3274              	.LBE342:
 3275              		.loc 1 831 0
 3276 0056 03B0     		add	sp, sp, #12
 3277              		.cfi_def_cfa_offset 12
 3278              		@ sp needed
 3279 0058 30BD     		pop	{r4, r5, pc}
 3280              	.LVL152:
 3281              	.L394:
 3282 005a 00BF     		.align	2
 3283              	.L393:
 3284 005c 00000000 		.word	.LC4
 3285 0060 00000000 		.word	.LC2
 3286 0064 00000000 		.word	.LANCHOR76
 3287 0068 00000000 		.word	.LANCHOR75
 3288              		.cfi_endproc
 3289              	.LFE288:
 3290              		.size	terminal_render, .-terminal_render
 3291              		.section	.text.terminal_experiment,"ax",%progbits
 3292              		.align	1
 3293              		.p2align 4,,15
 3294              		.syntax unified
 3295              		.thumb
 3296              		.thumb_func
 3297              		.fpu fpv4-sp-d16
 3298              		.type	terminal_experiment, %function
 3299              	terminal_experiment:
 3300              	.LFB290:
 3301              		.loc 1 845 0
 3302              		.cfi_startproc
 3303              		@ args = 0, pretend = 0, frame = 8
 3304              		@ frame_needed = 0, uses_anonymous_args = 0
 3305              	.LVL153:
 3306 0000 30B5     		push	{r4, r5, lr}
ARM GAS  /tmp/ccIHdayg.s 			page 59


 3307              		.cfi_def_cfa_offset 12
 3308              		.cfi_offset 4, -12
 3309              		.cfi_offset 5, -8
 3310              		.cfi_offset 14, -4
 3311              		.loc 1 846 0
 3312 0002 0328     		cmp	r0, #3
 3313              		.loc 1 845 0
 3314 0004 83B0     		sub	sp, sp, #12
 3315              		.cfi_def_cfa_offset 24
 3316              		.loc 1 846 0
 3317 0006 04D0     		beq	.L407
 3318              		.loc 1 879 0
 3319 0008 2548     		ldr	r0, .L408
 3320              	.LVL154:
 3321 000a FFF7FEFF 		bl	commands_printf
 3322              	.LVL155:
 3323              		.loc 1 881 0
 3324 000e 03B0     		add	sp, sp, #12
 3325              		.cfi_remember_state
 3326              		.cfi_def_cfa_offset 12
 3327              		@ sp needed
 3328 0010 30BD     		pop	{r4, r5, pc}
 3329              	.LVL156:
 3330              	.L407:
 3331              		.cfi_restore_state
 3332 0012 0C46     		mov	r4, r1
 3333              	.LVL157:
 3334              	.LBB346:
 3335              	.LBB347:
 3336              		.loc 1 848 0
 3337 0014 0123     		movs	r3, #1
 3338              		.loc 1 849 0
 3339 0016 6A46     		mov	r2, sp
 3340 0018 2249     		ldr	r1, .L408+4
 3341              	.LVL158:
 3342 001a 6068     		ldr	r0, [r4, #4]
 3343              	.LVL159:
 3344              		.loc 1 847 0
 3345 001c 0025     		movs	r5, #0
 3346              		.loc 1 848 0
 3347 001e CDE90053 		strd	r5, r3, [sp]
 3348              		.loc 1 849 0
 3349 0022 FFF7FEFF 		bl	sscanf
 3350              	.LVL160:
 3351              		.loc 1 850 0
 3352 0026 A068     		ldr	r0, [r4, #8]
 3353 0028 1E49     		ldr	r1, .L408+4
 3354 002a 01AA     		add	r2, sp, #4
 3355 002c FFF7FEFF 		bl	sscanf
 3356              	.LVL161:
 3357              		.loc 1 851 0
 3358 0030 019B     		ldr	r3, [sp, #4]
 3359 0032 013B     		subs	r3, r3, #1
 3360 0034 052B     		cmp	r3, #5
 3361 0036 07D8     		bhi	.L397
 3362 0038 DFE803F0 		tbb	[pc, r3]
 3363              	.L399:
ARM GAS  /tmp/ccIHdayg.s 			page 60


 3364 003c 1E       		.byte	(.L398-.L399)/2
 3365 003d 22       		.byte	(.L400-.L399)/2
 3366 003e 26       		.byte	(.L401-.L399)/2
 3367 003f 2A       		.byte	(.L402-.L399)/2
 3368 0040 2E       		.byte	(.L403-.L399)/2
 3369 0041 03       		.byte	(.L404-.L399)/2
 3370              		.p2align 1
 3371              	.L404:
 3372              		.loc 1 868 0
 3373 0042 194B     		ldr	r3, .L408+8
 3374 0044 009A     		ldr	r2, [sp]
 3375 0046 1A60     		str	r2, [r3]
 3376              	.L397:
 3377              		.loc 1 871 0
 3378 0048 1849     		ldr	r1, .L408+12
 3379 004a 1948     		ldr	r0, .L408+16
 3380 004c FFF7FEFF 		bl	commands_init_plot
 3381              	.LVL162:
 3382              		.loc 1 872 0
 3383 0050 1848     		ldr	r0, .L408+20
 3384 0052 FFF7FEFF 		bl	commands_plot_add_graph
 3385              	.LVL163:
 3386              		.loc 1 873 0
 3387 0056 1848     		ldr	r0, .L408+24
 3388 0058 FFF7FEFF 		bl	commands_plot_add_graph
 3389              	.LVL164:
 3390              		.loc 1 874 0
 3391 005c 1748     		ldr	r0, .L408+28
 3392 005e FFF7FEFF 		bl	commands_plot_add_graph
 3393              	.LVL165:
 3394              		.loc 1 875 0
 3395 0062 1748     		ldr	r0, .L408+32
 3396 0064 FFF7FEFF 		bl	commands_plot_add_graph
 3397              	.LVL166:
 3398              		.loc 1 876 0
 3399 0068 1648     		ldr	r0, .L408+36
 3400 006a FFF7FEFF 		bl	commands_plot_add_graph
 3401              	.LVL167:
 3402              		.loc 1 877 0
 3403 006e 1648     		ldr	r0, .L408+40
 3404 0070 FFF7FEFF 		bl	commands_plot_add_graph
 3405              	.LVL168:
 3406              	.LBE347:
 3407              	.LBE346:
 3408              		.loc 1 881 0
 3409 0074 03B0     		add	sp, sp, #12
 3410              		.cfi_remember_state
 3411              		.cfi_def_cfa_offset 12
 3412              		@ sp needed
 3413 0076 30BD     		pop	{r4, r5, pc}
 3414              	.LVL169:
 3415              	.L398:
 3416              		.cfi_restore_state
 3417              	.LBB349:
 3418              	.LBB348:
 3419              		.loc 1 853 0
 3420 0078 144B     		ldr	r3, .L408+44
ARM GAS  /tmp/ccIHdayg.s 			page 61


 3421 007a 009A     		ldr	r2, [sp]
 3422 007c 1A60     		str	r2, [r3]
 3423 007e E3E7     		b	.L397
 3424              	.L400:
 3425              		.loc 1 856 0
 3426 0080 134B     		ldr	r3, .L408+48
 3427 0082 009A     		ldr	r2, [sp]
 3428 0084 1A60     		str	r2, [r3]
 3429 0086 DFE7     		b	.L397
 3430              	.L401:
 3431              		.loc 1 859 0
 3432 0088 124B     		ldr	r3, .L408+52
 3433 008a 009A     		ldr	r2, [sp]
 3434 008c 1A60     		str	r2, [r3]
 3435 008e DBE7     		b	.L397
 3436              	.L402:
 3437              		.loc 1 862 0
 3438 0090 114B     		ldr	r3, .L408+56
 3439 0092 009A     		ldr	r2, [sp]
 3440 0094 1A60     		str	r2, [r3]
 3441 0096 D7E7     		b	.L397
 3442              	.L403:
 3443              		.loc 1 865 0
 3444 0098 104B     		ldr	r3, .L408+60
 3445 009a 009A     		ldr	r2, [sp]
 3446 009c 1A60     		str	r2, [r3]
 3447 009e D3E7     		b	.L397
 3448              	.L409:
 3449              		.align	2
 3450              	.L408:
 3451 00a0 04000000 		.word	.LC3
 3452 00a4 00000000 		.word	.LC2
 3453 00a8 00000000 		.word	.LANCHOR70
 3454 00ac 00000000 		.word	.LC5
 3455 00b0 18000000 		.word	.LC6
 3456 00b4 28000000 		.word	.LC7
 3457 00b8 2C000000 		.word	.LC8
 3458 00bc 30000000 		.word	.LC9
 3459 00c0 34000000 		.word	.LC10
 3460 00c4 38000000 		.word	.LC11
 3461 00c8 3C000000 		.word	.LC12
 3462 00cc 00000000 		.word	.LANCHOR65
 3463 00d0 00000000 		.word	.LANCHOR66
 3464 00d4 00000000 		.word	.LANCHOR67
 3465 00d8 00000000 		.word	.LANCHOR68
 3466 00dc 00000000 		.word	.LANCHOR69
 3467              	.LBE348:
 3468              	.LBE349:
 3469              		.cfi_endproc
 3470              	.LFE290:
 3471              		.size	terminal_experiment, .-terminal_experiment
 3472              		.section	.text.biquad_process,"ax",%progbits
 3473              		.align	1
 3474              		.p2align 4,,15
 3475              		.global	biquad_process
 3476              		.syntax unified
 3477              		.thumb
ARM GAS  /tmp/ccIHdayg.s 			page 62


 3478              		.thumb_func
 3479              		.fpu fpv4-sp-d16
 3480              		.type	biquad_process, %function
 3481              	biquad_process:
 3482              	.LFB259:
 3483              		.loc 1 141 0
 3484              		.cfi_startproc
 3485              		@ args = 0, pretend = 0, frame = 0
 3486              		@ frame_needed = 0, uses_anonymous_args = 0
 3487              		@ link register save eliminated.
 3488              	.LVL170:
 3489              		.loc 1 142 0
 3490 0000 90ED057A 		vldr.32	s14, [r0, #20]
 3491 0004 90ED004A 		vldr.32	s8, [r0]
 3492              		.loc 1 143 0
 3493 0008 D0ED066A 		vldr.32	s13, [r0, #24]
 3494 000c D0ED014A 		vldr.32	s9, [r0, #4]
 3495              		.loc 1 144 0
 3496 0010 D0ED047A 		vldr.32	s15, [r0, #16]
 3497              		.loc 1 143 0
 3498 0014 90ED035A 		vldr.32	s10, [r0, #12]
 3499              		.loc 1 144 0
 3500 0018 D0ED025A 		vldr.32	s11, [r0, #8]
 3501              		.loc 1 142 0
 3502 001c A4EE007A 		vfma.f32	s14, s8, s0
 3503              		.loc 1 141 0
 3504 0020 B0EE406A 		vmov.f32	s12, s0
 3505              		.loc 1 142 0
 3506 0024 B0EE470A 		vmov.f32	s0, s14
 3507              	.LVL171:
 3508              		.loc 1 143 0
 3509 0028 B0EE667A 		vmov.f32	s14, s13
 3510 002c A4EE867A 		vfma.f32	s14, s9, s12
 3511              		.loc 1 144 0
 3512 0030 67EEC07A 		vnmul.f32	s15, s15, s0
 3513              		.loc 1 143 0
 3514 0034 A5EE407A 		vfms.f32	s14, s10, s0
 3515              		.loc 1 144 0
 3516 0038 E5EE867A 		vfma.f32	s15, s11, s12
 3517              		.loc 1 143 0
 3518 003c 80ED057A 		vstr.32	s14, [r0, #20]
 3519              		.loc 1 144 0
 3520 0040 C0ED067A 		vstr.32	s15, [r0, #24]
 3521              		.loc 1 146 0
 3522 0044 7047     		bx	lr
 3523              		.cfi_endproc
 3524              	.LFE259:
 3525              		.size	biquad_process, .-biquad_process
 3526 0046 00BF     		.section	.text.biquad_config,"ax",%progbits
 3527              		.align	1
 3528              		.p2align 4,,15
 3529              		.global	biquad_config
 3530              		.syntax unified
 3531              		.thumb
 3532              		.thumb_func
 3533              		.fpu fpv4-sp-d16
 3534              		.type	biquad_config, %function
ARM GAS  /tmp/ccIHdayg.s 			page 63


 3535              	biquad_config:
 3536              	.LFB260:
 3537              		.loc 1 147 0
 3538              		.cfi_startproc
 3539              		@ args = 0, pretend = 0, frame = 0
 3540              		@ frame_needed = 0, uses_anonymous_args = 0
 3541              	.LVL172:
 3542              		.loc 1 148 0
 3543 0000 DFED217A 		vldr.32	s15, .L417
 3544              		.loc 1 147 0
 3545 0004 38B5     		push	{r3, r4, r5, lr}
 3546              		.cfi_def_cfa_offset 16
 3547              		.cfi_offset 3, -16
 3548              		.cfi_offset 4, -12
 3549              		.cfi_offset 5, -8
 3550              		.cfi_offset 14, -4
 3551              		.loc 1 148 0
 3552 0006 20EE270A 		vmul.f32	s0, s0, s15
 3553              	.LVL173:
 3554              		.loc 1 147 0
 3555 000a 0446     		mov	r4, r0
 3556 000c 0D46     		mov	r5, r1
 3557              		.loc 1 148 0
 3558 000e FFF7FEFF 		bl	tanf
 3559              	.LVL174:
 3560              		.loc 1 150 0
 3561 0012 DFED1E7A 		vldr.32	s15, .L417+4
 3562 0016 80EE277A 		vdiv.f32	s14, s0, s15
 3563 001a B7EE006A 		vmov.f32	s12, #1.0e+0
 3564 001e 20EE000A 		vmul.f32	s0, s0, s0
 3565              	.LVL175:
 3566 0022 77EE067A 		vadd.f32	s15, s14, s12
 3567 0026 77EE807A 		vadd.f32	s15, s15, s0
 3568 002a C6EE276A 		vdiv.f32	s13, s12, s15
 3569              	.LVL176:
 3570              		.loc 1 151 0
 3571 002e FDB1     		cbz	r5, .L415
 3572              		.loc 1 156 0
 3573 0030 012D     		cmp	r5, #1
 3574 0032 12D0     		beq	.L416
 3575              	.L413:
 3576              		.loc 1 161 0
 3577 0034 F7EE007A 		vmov.f32	s15, #1.0e+0
 3578              		.loc 1 162 0
 3579 0038 37EEC77A 		vsub.f32	s14, s15, s14
 3580              		.loc 1 161 0
 3581 003c 70EE677A 		vsub.f32	s15, s0, s15
 3582              		.loc 1 162 0
 3583 0040 37EE007A 		vadd.f32	s14, s14, s0
 3584              		.loc 1 161 0
 3585 0044 77EEA77A 		vadd.f32	s15, s15, s15
 3586              		.loc 1 162 0
 3587 0048 27EE267A 		vmul.f32	s14, s14, s13
 3588              		.loc 1 161 0
 3589 004c 67EEA67A 		vmul.f32	s15, s15, s13
 3590              		.loc 1 162 0
 3591 0050 84ED047A 		vstr.32	s14, [r4, #16]
ARM GAS  /tmp/ccIHdayg.s 			page 64


 3592              		.loc 1 161 0
 3593 0054 C4ED037A 		vstr.32	s15, [r4, #12]
 3594              		.loc 1 163 0
 3595 0058 38BD     		pop	{r3, r4, r5, pc}
 3596              	.LVL177:
 3597              	.L416:
 3598              		.loc 1 158 0
 3599 005a F8EE007A 		vmov.f32	s15, #-2.0e+0
 3600 005e 66EEA77A 		vmul.f32	s15, s13, s15
 3601              		.loc 1 157 0
 3602 0062 C4ED006A 		vstr.32	s13, [r4]
 3603              		.loc 1 159 0
 3604 0066 C4ED026A 		vstr.32	s13, [r4, #8]
 3605              		.loc 1 158 0
 3606 006a C4ED017A 		vstr.32	s15, [r4, #4]
 3607 006e E1E7     		b	.L413
 3608              	.L415:
 3609              		.loc 1 152 0
 3610 0070 60EE267A 		vmul.f32	s15, s0, s13
 3611              		.loc 1 153 0
 3612 0074 37EEA76A 		vadd.f32	s12, s15, s15
 3613              		.loc 1 152 0
 3614 0078 C4ED007A 		vstr.32	s15, [r4]
 3615              		.loc 1 154 0
 3616 007c C4ED027A 		vstr.32	s15, [r4, #8]
 3617              		.loc 1 153 0
 3618 0080 84ED016A 		vstr.32	s12, [r4, #4]
 3619 0084 D6E7     		b	.L413
 3620              	.L418:
 3621 0086 00BF     		.align	2
 3622              	.L417:
 3623 0088 DB0F4940 		.word	1078530011
 3624 008c F4FD343F 		.word	1060437492
 3625              		.cfi_endproc
 3626              	.LFE260:
 3627              		.size	biquad_config, .-biquad_config
 3628              		.section	.text.biquad_reset,"ax",%progbits
 3629              		.align	1
 3630              		.p2align 4,,15
 3631              		.global	biquad_reset
 3632              		.syntax unified
 3633              		.thumb
 3634              		.thumb_func
 3635              		.fpu fpv4-sp-d16
 3636              		.type	biquad_reset, %function
 3637              	biquad_reset:
 3638              	.LFB261:
 3639              		.loc 1 164 0
 3640              		.cfi_startproc
 3641              		@ args = 0, pretend = 0, frame = 0
 3642              		@ frame_needed = 0, uses_anonymous_args = 0
 3643              		@ link register save eliminated.
 3644              	.LVL178:
 3645              		.loc 1 165 0
 3646 0000 0023     		movs	r3, #0
 3647 0002 4361     		str	r3, [r0, #20]	@ float
 3648              		.loc 1 166 0
ARM GAS  /tmp/ccIHdayg.s 			page 65


 3649 0004 8361     		str	r3, [r0, #24]	@ float
 3650              		.loc 1 167 0
 3651 0006 7047     		bx	lr
 3652              		.cfi_endproc
 3653              	.LFE261:
 3654              		.size	biquad_reset, .-biquad_reset
 3655              		.section	.text.app_balance_configure,"ax",%progbits
 3656              		.align	1
 3657              		.p2align 4,,15
 3658              		.global	app_balance_configure
 3659              		.syntax unified
 3660              		.thumb
 3661              		.thumb_func
 3662              		.fpu fpv4-sp-d16
 3663              		.type	app_balance_configure, %function
 3664              	app_balance_configure:
 3665              	.LFB262:
 3666              		.loc 1 170 0
 3667              		.cfi_startproc
 3668              		@ args = 0, pretend = 0, frame = 0
 3669              		@ frame_needed = 0, uses_anonymous_args = 0
 3670              	.LVL179:
 3671 0000 F8B5     		push	{r3, r4, r5, r6, r7, lr}
 3672              		.cfi_def_cfa_offset 24
 3673              		.cfi_offset 3, -24
 3674              		.cfi_offset 4, -20
 3675              		.cfi_offset 5, -16
 3676              		.cfi_offset 6, -12
 3677              		.cfi_offset 7, -8
 3678              		.cfi_offset 14, -4
 3679              		.loc 1 171 0
 3680 0002 BD4C     		ldr	r4, .L448
 3681              		.loc 1 172 0
 3682 0004 BD4E     		ldr	r6, .L448+4
 3683              		.loc 1 174 0
 3684 0006 BE4F     		ldr	r7, .L448+8
 3685              		.loc 1 170 0
 3686 0008 2DED068B 		vpush.64	{d8, d9, d10}
 3687              		.cfi_def_cfa_offset 48
 3688              		.cfi_offset 80, -48
 3689              		.cfi_offset 81, -44
 3690              		.cfi_offset 82, -40
 3691              		.cfi_offset 83, -36
 3692              		.cfi_offset 84, -32
 3693              		.cfi_offset 85, -28
 3694              		.loc 1 170 0
 3695 000c 0D46     		mov	r5, r1
 3696              		.loc 1 171 0
 3697 000e E822     		movs	r2, #232
 3698 0010 0146     		mov	r1, r0
 3699              	.LVL180:
 3700 0012 2046     		mov	r0, r4
 3701              	.LVL181:
 3702 0014 FFF7FEFF 		bl	memcpy
 3703              	.LVL182:
 3704              		.loc 1 172 0
 3705 0018 0FCD     		ldmia	r5!, {r0, r1, r2, r3}
ARM GAS  /tmp/ccIHdayg.s 			page 66


 3706              	.LVL183:
 3707 001a 0FC6     		stmia	r6!, {r0, r1, r2, r3}
 3708 001c 0FCD     		ldmia	r5!, {r0, r1, r2, r3}
 3709              	.LVL184:
 3710 001e 0FC6     		stmia	r6!, {r0, r1, r2, r3}
 3711 0020 0FCD     		ldmia	r5!, {r0, r1, r2, r3}
 3712              	.LVL185:
 3713 0022 0FC6     		stmia	r6!, {r0, r1, r2, r3}
 3714 0024 95E80700 		ldm	r5, {r0, r1, r2}
 3715 0028 86E80700 		stm	r6, {r0, r1, r2}
 3716              		.loc 1 174 0
 3717 002c A389     		ldrh	r3, [r4, #12]
 3718 002e 9FEDB57A 		vldr.32	s14, .L448+12
 3719 0032 B54E     		ldr	r6, .L448+16
 3720              		.loc 1 179 0
 3721 0034 B548     		ldr	r0, .L448+20
 3722              		.loc 1 180 0
 3723 0036 B649     		ldr	r1, .L448+24
 3724              		.loc 1 178 0
 3725 0038 B64D     		ldr	r5, .L448+28
 3726              	.LVL186:
 3727              		.loc 1 182 0
 3728 003a DFF820E3 		ldr	lr, .L448+100
 3729              		.loc 1 176 0
 3730 003e DFF820C3 		ldr	ip, .L448+104
 3731              		.loc 1 174 0
 3732 0042 06EE903A 		vmov	s13, r3	@ int
 3733 0046 F8EEE66A 		vcvt.f32.s32	s13, s13
 3734 004a 42F21072 		movw	r2, #10000
 3735 004e C7EE267A 		vdiv.f32	s15, s14, s13
 3736              		.loc 1 176 0
 3737 0052 F3EE042A 		vmov.f32	s5, #2.0e+1
 3738              		.loc 1 174 0
 3739 0056 67EE877A 		vmul.f32	s15, s15, s14
 3740 005a FDEEE77A 		vcvt.s32.f32	s15, s15
 3741 005e 17EE903A 		vmov	r3, s15	@ int
 3742 0062 02FB03F3 		mul	r3, r2, r3
 3743 0066 03F57423 		add	r3, r3, #999424
 3744 006a 03F23F23 		addw	r3, r3, #575
 3745 006e A7FB0323 		umull	r2, r3, r7, r3
 3746 0072 9B0C     		lsrs	r3, r3, #18
 3747 0074 3360     		str	r3, [r6]
 3748              		.loc 1 176 0
 3749 0076 A389     		ldrh	r3, [r4, #12]
 3750              		.loc 1 178 0
 3751 0078 94ED1DAA 		vldr.32	s20, [r4, #116]
 3752              		.loc 1 181 0
 3753 007c A64E     		ldr	r6, .L448+32
 3754              		.loc 1 183 0
 3755 007e A74F     		ldr	r7, .L448+36
 3756              		.loc 1 176 0
 3757 0080 06EE903A 		vmov	s13, r3	@ int
 3758 0084 F8EEE66A 		vcvt.f32.s32	s13, s13
 3759              		.loc 1 178 0
 3760 0088 A389     		ldrh	r3, [r4, #12]
 3761              		.loc 1 179 0
 3762 008a D4ED0D9A 		vldr.32	s19, [r4, #52]
ARM GAS  /tmp/ccIHdayg.s 			page 67


 3763              		.loc 1 176 0
 3764 008e 87EE262A 		vdiv.f32	s4, s14, s13
 3765              		.loc 1 178 0
 3766 0092 03EE103A 		vmov	s6, r3	@ int
 3767              		.loc 1 179 0
 3768 0096 A389     		ldrh	r3, [r4, #12]
 3769              		.loc 1 180 0
 3770 0098 D4ED108A 		vldr.32	s17, [r4, #64]
 3771              		.loc 1 179 0
 3772 009c 03EE903A 		vmov	s7, r3	@ int
 3773              		.loc 1 180 0
 3774 00a0 A389     		ldrh	r3, [r4, #12]
 3775              		.loc 1 181 0
 3776 00a2 94ED138A 		vldr.32	s16, [r4, #76]
 3777              		.loc 1 180 0
 3778 00a6 04EE103A 		vmov	s8, r3	@ int
 3779              		.loc 1 181 0
 3780 00aa A389     		ldrh	r3, [r4, #12]
 3781              		.loc 1 182 0
 3782 00ac 94ED159A 		vldr.32	s18, [r4, #84]
 3783              		.loc 1 181 0
 3784 00b0 04EE903A 		vmov	s9, r3	@ int
 3785              		.loc 1 182 0
 3786 00b4 A389     		ldrh	r3, [r4, #12]
 3787              		.loc 1 183 0
 3788 00b6 94ED300A 		vldr.32	s0, [r4, #192]
 3789              		.loc 1 182 0
 3790 00ba 05EE103A 		vmov	s10, r3	@ int
 3791              		.loc 1 183 0
 3792 00be A389     		ldrh	r3, [r4, #12]
 3793              		.loc 1 184 0
 3794 00c0 D4ED310A 		vldr.32	s1, [r4, #196]
 3795              		.loc 1 183 0
 3796 00c4 05EE903A 		vmov	s11, r3	@ int
 3797              		.loc 1 184 0
 3798 00c8 A389     		ldrh	r3, [r4, #12]
 3799              		.loc 1 185 0
 3800 00ca 94ED381A 		vldr.32	s2, [r4, #224]
 3801              		.loc 1 184 0
 3802 00ce 06EE103A 		vmov	s12, r3	@ int
 3803              		.loc 1 185 0
 3804 00d2 A389     		ldrh	r3, [r4, #12]
 3805              		.loc 1 186 0
 3806 00d4 D4ED1A1A 		vldr.32	s3, [r4, #104]
 3807 00d8 A289     		ldrh	r2, [r4, #12]
 3808              		.loc 1 176 0
 3809 00da C2EE077A 		vdiv.f32	s15, s4, s14
 3810              		.loc 1 178 0
 3811 00de B8EEC33A 		vcvt.f32.s32	s6, s6
 3812              		.loc 1 179 0
 3813 00e2 F8EEE33A 		vcvt.f32.s32	s7, s7
 3814              		.loc 1 180 0
 3815 00e6 B8EEC44A 		vcvt.f32.s32	s8, s8
 3816              		.loc 1 185 0
 3817 00ea 06EE903A 		vmov	s13, r3	@ int
 3818              		.loc 1 186 0
 3819 00ee 07EE102A 		vmov	s14, r2	@ int
ARM GAS  /tmp/ccIHdayg.s 			page 68


 3820              		.loc 1 181 0
 3821 00f2 F8EEE44A 		vcvt.f32.s32	s9, s9
 3822              		.loc 1 182 0
 3823 00f6 B8EEC55A 		vcvt.f32.s32	s10, s10
 3824              		.loc 1 183 0
 3825 00fa F8EEE55A 		vcvt.f32.s32	s11, s11
 3826              		.loc 1 184 0
 3827 00fe B8EEC66A 		vcvt.f32.s32	s12, s12
 3828              		.loc 1 178 0
 3829 0102 8AEE032A 		vdiv.f32	s4, s20, s6
 3830              		.loc 1 189 0
 3831 0106 E389     		ldrh	r3, [r4, #14]
 3832              		.loc 1 186 0
 3833 0108 854A     		ldr	r2, .L448+40
 3834              		.loc 1 189 0
 3835 010a 9BB2     		uxth	r3, r3
 3836              		.loc 1 185 0
 3837 010c F8EEE66A 		vcvt.f32.s32	s13, s13
 3838              		.loc 1 179 0
 3839 0110 89EEA33A 		vdiv.f32	s6, s19, s7
 3840              		.loc 1 186 0
 3841 0114 B8EEC77A 		vcvt.f32.s32	s14, s14
 3842              		.loc 1 180 0
 3843 0118 C8EE843A 		vdiv.f32	s7, s17, s8
 3844              		.loc 1 181 0
 3845 011c 88EE244A 		vdiv.f32	s8, s16, s9
 3846              		.loc 1 182 0
 3847 0120 C9EE054A 		vdiv.f32	s9, s18, s10
 3848              		.loc 1 183 0
 3849 0124 80EE255A 		vdiv.f32	s10, s0, s11
 3850              		.loc 1 184 0
 3851 0128 C0EE865A 		vdiv.f32	s11, s1, s12
 3852              		.loc 1 185 0
 3853 012c 81EE266A 		vdiv.f32	s12, s2, s13
 3854              		.loc 1 186 0
 3855 0130 C1EE876A 		vdiv.f32	s13, s3, s14
 3856              		.loc 1 179 0
 3857 0134 80ED003A 		vstr.32	s6, [r0]
 3858              		.loc 1 180 0
 3859 0138 C1ED003A 		vstr.32	s7, [r1]
 3860              		.loc 1 176 0
 3861 013c 67EEA27A 		vmul.f32	s15, s15, s5
 3862              		.loc 1 184 0
 3863 0140 7848     		ldr	r0, .L448+44
 3864              		.loc 1 185 0
 3865 0142 7949     		ldr	r1, .L448+48
 3866              		.loc 1 178 0
 3867 0144 85ED002A 		vstr.32	s4, [r5]
 3868              		.loc 1 181 0
 3869 0148 86ED004A 		vstr.32	s8, [r6]
 3870              		.loc 1 182 0
 3871 014c CEED004A 		vstr.32	s9, [lr]
 3872              		.loc 1 176 0
 3873 0150 CCED007A 		vstr.32	s15, [ip]
 3874              		.loc 1 183 0
 3875 0154 87ED005A 		vstr.32	s10, [r7]
 3876              		.loc 1 184 0
ARM GAS  /tmp/ccIHdayg.s 			page 69


 3877 0158 C0ED005A 		vstr.32	s11, [r0]
 3878              		.loc 1 185 0
 3879 015c 81ED006A 		vstr.32	s12, [r1]
 3880              		.loc 1 186 0
 3881 0160 C2ED006A 		vstr.32	s13, [r2]
 3882              		.loc 1 189 0
 3883 0164 43B3     		cbz	r3, .L421
 3884              		.loc 1 190 0
 3885 0166 A389     		ldrh	r3, [r4, #12]
 3886 0168 9FED704A 		vldr.32	s8, .L448+52
 3887 016c 05EE103A 		vmov	s10, r3	@ int
 3888 0170 E389     		ldrh	r3, [r4, #14]
 3889 0172 07EE103A 		vmov	s14, r3	@ int
 3890 0176 A389     		ldrh	r3, [r4, #12]
 3891 0178 04EE903A 		vmov	s9, r3	@ int
 3892 017c F8EEE44A 		vcvt.f32.s32	s9, s9
 3893 0180 F7EE007A 		vmov.f32	s15, #1.0e+0
 3894 0184 C7EEA45A 		vdiv.f32	s11, s15, s9
 3895 0188 E389     		ldrh	r3, [r4, #14]
 3896 018a B8EEC55A 		vcvt.f32.s32	s10, s10
 3897 018e 06EE103A 		vmov	s12, r3	@ int
 3898 0192 C7EE856A 		vdiv.f32	s13, s15, s10
 3899 0196 664B     		ldr	r3, .L448+56
 3900 0198 65EE845A 		vmul.f32	s11, s11, s8
 3901 019c B8EEC66A 		vcvt.f32.s32	s12, s12
 3902 01a0 66EE846A 		vmul.f32	s13, s13, s8
 3903 01a4 E5EE867A 		vfma.f32	s15, s11, s12
 3904 01a8 B8EEC77A 		vcvt.f32.s32	s14, s14
 3905 01ac 26EE877A 		vmul.f32	s14, s13, s14
 3906 01b0 C7EE276A 		vdiv.f32	s13, s14, s15
 3907 01b4 C3ED006A 		vstr.32	s13, [r3]
 3908              	.L421:
 3909              		.loc 1 192 0
 3910 01b8 B4F8A030 		ldrh	r3, [r4, #160]
 3911 01bc 9BB2     		uxth	r3, r3
 3912 01be DBB1     		cbz	r3, .L422
 3913              	.LBB350:
 3914              		.loc 1 193 0
 3915 01c0 A389     		ldrh	r3, [r4, #12]
 3916              		.loc 1 194 0
 3917 01c2 9FED5A7A 		vldr.32	s14, .L448+52
 3918              		.loc 1 193 0
 3919 01c6 06EE903A 		vmov	s13, r3	@ int
 3920              		.loc 1 194 0
 3921 01ca B4F8A030 		ldrh	r3, [r4, #160]
 3922 01ce 07EE903A 		vmov	s15, r3	@ int
 3923 01d2 F8EEE77A 		vcvt.f32.s32	s15, s15
 3924              		.loc 1 193 0
 3925 01d6 F8EEE66A 		vcvt.f32.s32	s13, s13
 3926              		.loc 1 194 0
 3927 01da 67EE877A 		vmul.f32	s15, s15, s14
 3928              		.loc 1 193 0
 3929 01de F7EE005A 		vmov.f32	s11, #1.0e+0
 3930              		.loc 1 194 0
 3931 01e2 85EEA77A 		vdiv.f32	s14, s11, s15
 3932              		.loc 1 195 0
 3933 01e6 534B     		ldr	r3, .L448+60
ARM GAS  /tmp/ccIHdayg.s 			page 70


 3934              		.loc 1 193 0
 3935 01e8 85EEA66A 		vdiv.f32	s12, s11, s13
 3936              	.LVL187:
 3937              		.loc 1 195 0
 3938 01ec 77EE067A 		vadd.f32	s15, s14, s12
 3939 01f0 86EE277A 		vdiv.f32	s14, s12, s15
 3940 01f4 83ED007A 		vstr.32	s14, [r3]
 3941              	.LVL188:
 3942              	.L422:
 3943              	.LBE350:
 3944              		.loc 1 197 0
 3945 01f8 B4F8A230 		ldrh	r3, [r4, #162]
 3946 01fc 9BB2     		uxth	r3, r3
 3947 01fe DBB1     		cbz	r3, .L423
 3948              	.LBB351:
 3949              		.loc 1 198 0
 3950 0200 A389     		ldrh	r3, [r4, #12]
 3951              		.loc 1 199 0
 3952 0202 9FED4A7A 		vldr.32	s14, .L448+52
 3953              		.loc 1 198 0
 3954 0206 06EE903A 		vmov	s13, r3	@ int
 3955              		.loc 1 199 0
 3956 020a B4F8A230 		ldrh	r3, [r4, #162]
 3957 020e 07EE903A 		vmov	s15, r3	@ int
 3958 0212 F8EEE77A 		vcvt.f32.s32	s15, s15
 3959              		.loc 1 198 0
 3960 0216 F8EEE66A 		vcvt.f32.s32	s13, s13
 3961              		.loc 1 199 0
 3962 021a 67EE877A 		vmul.f32	s15, s15, s14
 3963              		.loc 1 198 0
 3964 021e F7EE005A 		vmov.f32	s11, #1.0e+0
 3965              		.loc 1 199 0
 3966 0222 85EEA77A 		vdiv.f32	s14, s11, s15
 3967              		.loc 1 200 0
 3968 0226 444B     		ldr	r3, .L448+64
 3969              		.loc 1 198 0
 3970 0228 85EEA66A 		vdiv.f32	s12, s11, s13
 3971              	.LVL189:
 3972              		.loc 1 200 0
 3973 022c 77EE067A 		vadd.f32	s15, s14, s12
 3974 0230 86EE277A 		vdiv.f32	s14, s12, s15
 3975 0234 83ED007A 		vstr.32	s14, [r3]
 3976              	.LVL190:
 3977              	.L423:
 3978              	.LBE351:
 3979              		.loc 1 202 0
 3980 0238 D4ED297A 		vldr.32	s15, [r4, #164]
 3981 023c F5EEC07A 		vcmpe.f32	s15, #0
 3982 0240 F1EE10FA 		vmrs	APSR_nzcv, FPSCR
 3983 0244 0CDD     		ble	.L424
 3984              	.LBB352:
 3985              		.loc 1 203 0
 3986 0246 94ED290A 		vldr.32	s0, [r4, #164]
 3987 024a A389     		ldrh	r3, [r4, #12]
 3988              		.loc 1 204 0
 3989 024c 3B48     		ldr	r0, .L448+68
 3990              		.loc 1 203 0
ARM GAS  /tmp/ccIHdayg.s 			page 71


 3991 024e 07EE903A 		vmov	s15, r3	@ int
 3992              	.LVL191:
 3993 0252 F8EEE77A 		vcvt.f32.s32	s15, s15
 3994              		.loc 1 204 0
 3995 0256 0021     		movs	r1, #0
 3996 0258 80EE270A 		vdiv.f32	s0, s0, s15
 3997              	.LVL192:
 3998 025c FFF7FEFF 		bl	biquad_config
 3999              	.LVL193:
 4000              	.L424:
 4001              	.LBE352:
 4002              		.loc 1 206 0
 4003 0260 D4ED2A7A 		vldr.32	s15, [r4, #168]
 4004 0264 F5EEC07A 		vcmpe.f32	s15, #0
 4005 0268 F1EE10FA 		vmrs	APSR_nzcv, FPSCR
 4006 026c 0CDD     		ble	.L426
 4007              	.LBB353:
 4008              		.loc 1 207 0
 4009 026e 94ED2A0A 		vldr.32	s0, [r4, #168]
 4010 0272 A389     		ldrh	r3, [r4, #12]
 4011              		.loc 1 208 0
 4012 0274 3248     		ldr	r0, .L448+72
 4013              		.loc 1 207 0
 4014 0276 07EE903A 		vmov	s15, r3	@ int
 4015              	.LVL194:
 4016 027a F8EEE77A 		vcvt.f32.s32	s15, s15
 4017              		.loc 1 208 0
 4018 027e 0121     		movs	r1, #1
 4019 0280 80EE270A 		vdiv.f32	s0, s0, s15
 4020              	.LVL195:
 4021 0284 FFF7FEFF 		bl	biquad_config
 4022              	.LVL196:
 4023              	.L426:
 4024              	.LBE353:
 4025              		.loc 1 210 0
 4026 0288 D4ED337A 		vldr.32	s15, [r4, #204]
 4027 028c F5EEC07A 		vcmpe.f32	s15, #0
 4028 0290 F1EE10FA 		vmrs	APSR_nzcv, FPSCR
 4029 0294 0CDD     		ble	.L428
 4030              	.LBB354:
 4031              		.loc 1 211 0
 4032 0296 94ED330A 		vldr.32	s0, [r4, #204]
 4033 029a A389     		ldrh	r3, [r4, #12]
 4034              		.loc 1 212 0
 4035 029c 2948     		ldr	r0, .L448+76
 4036              		.loc 1 211 0
 4037 029e 07EE903A 		vmov	s15, r3	@ int
 4038              	.LVL197:
 4039 02a2 F8EEE77A 		vcvt.f32.s32	s15, s15
 4040              		.loc 1 212 0
 4041 02a6 0021     		movs	r1, #0
 4042 02a8 80EE270A 		vdiv.f32	s0, s0, s15
 4043              	.LVL198:
 4044 02ac FFF7FEFF 		bl	biquad_config
 4045              	.LVL199:
 4046              	.L428:
 4047              	.LBE354:
ARM GAS  /tmp/ccIHdayg.s 			page 72


 4048              		.loc 1 216 0
 4049 02b0 254B     		ldr	r3, .L448+80
 4050 02b2 D4ED186A 		vldr.32	s13, [r4, #96]
 4051 02b6 9FED137A 		vldr.32	s14, .L448+12
 4052 02ba C6EE877A 		vdiv.f32	s15, s13, s14
 4053              		.loc 1 217 0
 4054 02be F5EEC07A 		vcmpe.f32	s15, #0
 4055 02c2 F1EE10FA 		vmrs	APSR_nzcv, FPSCR
 4056              		.loc 1 216 0
 4057 02c6 C3ED007A 		vstr.32	s15, [r3]
 4058              		.loc 1 217 0
 4059 02ca 11DD     		ble	.L446
 4060              		.loc 1 218 0
 4061 02cc D4ED196A 		vldr.32	s13, [r4, #100]
 4062 02d0 1E4B     		ldr	r3, .L448+84
 4063 02d2 86EEA77A 		vdiv.f32	s14, s13, s15
 4064 02d6 F0EEC77A 		vabs.f32	s15, s14
 4065 02da C3ED007A 		vstr.32	s15, [r3]
 4066              	.L432:
 4067              		.loc 1 226 0
 4068 02de BDEC068B 		vldm	sp!, {d8-d10}
 4069              		.cfi_remember_state
 4070              		.cfi_restore 84
 4071              		.cfi_restore 85
 4072              		.cfi_restore 82
 4073              		.cfi_restore 83
 4074              		.cfi_restore 80
 4075              		.cfi_restore 81
 4076              		.cfi_def_cfa_offset 24
 4077              		.loc 1 224 0
 4078 02e2 1B49     		ldr	r1, .L448+88
 4079              		.loc 1 225 0
 4080 02e4 1B4B     		ldr	r3, .L448+92
 4081 02e6 0022     		movs	r2, #0
 4082              		.loc 1 224 0
 4083 02e8 0020     		movs	r0, #0
 4084 02ea 0860     		str	r0, [r1]
 4085              		.loc 1 225 0
 4086 02ec 1A60     		str	r2, [r3]	@ float
 4087              		.loc 1 226 0
 4088 02ee F8BD     		pop	{r3, r4, r5, r6, r7, pc}
 4089              	.L446:
 4090              		.cfi_restore_state
 4091              		.loc 1 220 0
 4092 02f0 164B     		ldr	r3, .L448+84
 4093 02f2 194A     		ldr	r2, .L448+96
 4094 02f4 1A60     		str	r2, [r3]	@ float
 4095 02f6 F2E7     		b	.L432
 4096              	.L449:
 4097              		.align	2
 4098              	.L448:
 4099 02f8 00000000 		.word	.LANCHOR25
 4100 02fc 00000000 		.word	.LANCHOR77
 4101 0300 83DE1B43 		.word	1125899907
 4102 0304 00007A44 		.word	1148846080
 4103 0308 00000000 		.word	.LANCHOR39
 4104 030c 00000000 		.word	.LANCHOR72
ARM GAS  /tmp/ccIHdayg.s 			page 73


 4105 0310 00000000 		.word	.LANCHOR73
 4106 0314 00000000 		.word	.LANCHOR51
 4107 0318 00000000 		.word	.LANCHOR74
 4108 031c 00000000 		.word	.LANCHOR56
 4109 0320 00000000 		.word	.LANCHOR54
 4110 0324 00000000 		.word	.LANCHOR55
 4111 0328 00000000 		.word	.LANCHOR57
 4112 032c DB0FC940 		.word	1086918619
 4113 0330 00000000 		.word	.LANCHOR44
 4114 0334 00000000 		.word	.LANCHOR58
 4115 0338 00000000 		.word	.LANCHOR59
 4116 033c 00000000 		.word	.LANCHOR5
 4117 0340 00000000 		.word	.LANCHOR6
 4118 0344 00000000 		.word	.LANCHOR14
 4119 0348 00000000 		.word	.LANCHOR53
 4120 034c 00000000 		.word	.LANCHOR52
 4121 0350 00000000 		.word	.LANCHOR21
 4122 0354 00000000 		.word	.LANCHOR41
 4123 0358 0050C347 		.word	1203982336
 4124 035c 00000000 		.word	.LANCHOR71
 4125 0360 00000000 		.word	.LANCHOR43
 4126              		.cfi_endproc
 4127              	.LFE262:
 4128              		.size	app_balance_configure, .-app_balance_configure
 4129              		.section	.text.app_balance_start,"ax",%progbits
 4130              		.align	1
 4131              		.p2align 4,,15
 4132              		.global	app_balance_start
 4133              		.syntax unified
 4134              		.thumb
 4135              		.thumb_func
 4136              		.fpu fpv4-sp-d16
 4137              		.type	app_balance_start, %function
 4138              	app_balance_start:
 4139              	.LFB263:
 4140              		.loc 1 228 0
 4141              		.cfi_startproc
 4142              		@ args = 0, pretend = 0, frame = 0
 4143              		@ frame_needed = 0, uses_anonymous_args = 0
 4144 0000 30B5     		push	{r4, r5, lr}
 4145              		.cfi_def_cfa_offset 12
 4146              		.cfi_offset 4, -12
 4147              		.cfi_offset 5, -8
 4148              		.cfi_offset 14, -4
 4149              		.loc 1 230 0
 4150 0002 114D     		ldr	r5, .L452
 4151              		.loc 1 232 0
 4152 0004 114B     		ldr	r3, .L452+4
 4153 0006 124A     		ldr	r2, .L452+8
 4154 0008 1249     		ldr	r1, .L452+12
 4155 000a 1348     		ldr	r0, .L452+16
 4156              		.loc 1 228 0
 4157 000c 83B0     		sub	sp, sp, #12
 4158              		.cfi_def_cfa_offset 24
 4159              		.loc 1 230 0
 4160 000e 0024     		movs	r4, #0
 4161 0010 2C70     		strb	r4, [r5]
ARM GAS  /tmp/ccIHdayg.s 			page 74


 4162              		.loc 1 232 0
 4163 0012 FFF7FEFF 		bl	terminal_register_command_callback
 4164              	.LVL200:
 4165              		.loc 1 237 0
 4166 0016 114B     		ldr	r3, .L452+20
 4167 0018 114A     		ldr	r2, .L452+24
 4168 001a 1249     		ldr	r1, .L452+28
 4169 001c 1248     		ldr	r0, .L452+32
 4170 001e FFF7FEFF 		bl	terminal_register_command_callback
 4171              	.LVL201:
 4172              		.loc 1 242 0
 4173 0022 124B     		ldr	r3, .L452+36
 4174 0024 124A     		ldr	r2, .L452+40
 4175 0026 1349     		ldr	r1, .L452+44
 4176 0028 1348     		ldr	r0, .L452+48
 4177 002a FFF7FEFF 		bl	terminal_register_command_callback
 4178              	.LVL202:
 4179              		.loc 1 248 0
 4180 002e 0094     		str	r4, [sp]
 4181 0030 124B     		ldr	r3, .L452+52
 4182 0032 1348     		ldr	r0, .L452+56
 4183 0034 4022     		movs	r2, #64
 4184 0036 4FF4B461 		mov	r1, #1440
 4185 003a FFF7FEFF 		bl	chThdCreateStatic
 4186              	.LVL203:
 4187 003e 114B     		ldr	r3, .L452+60
 4188 0040 1860     		str	r0, [r3]
 4189              		.loc 1 249 0
 4190 0042 03B0     		add	sp, sp, #12
 4191              		.cfi_def_cfa_offset 12
 4192              		@ sp needed
 4193 0044 30BD     		pop	{r4, r5, pc}
 4194              	.L453:
 4195 0046 00BF     		.align	2
 4196              	.L452:
 4197 0048 00000000 		.word	.LANCHOR19
 4198 004c 00000000 		.word	terminal_render
 4199 0050 00000000 		.word	.LC13
 4200 0054 28000000 		.word	.LC14
 4201 0058 60000000 		.word	.LC15
 4202 005c 00000000 		.word	terminal_sample
 4203 0060 74000000 		.word	.LC16
 4204 0064 94000000 		.word	.LC17
 4205 0068 BC000000 		.word	.LC18
 4206 006c 00000000 		.word	terminal_experiment
 4207 0070 D0000000 		.word	.LC19
 4208 0074 EC000000 		.word	.LC20
 4209 0078 20010000 		.word	.LC21
 4210 007c 00000000 		.word	balance_thread
 4211 0080 00000000 		.word	.LANCHOR78
 4212 0084 00000000 		.word	.LANCHOR79
 4213              		.cfi_endproc
 4214              	.LFE263:
 4215              		.size	app_balance_start, .-app_balance_start
 4216              		.section	.text.app_balance_stop,"ax",%progbits
 4217              		.align	1
 4218              		.p2align 4,,15
ARM GAS  /tmp/ccIHdayg.s 			page 75


 4219              		.global	app_balance_stop
 4220              		.syntax unified
 4221              		.thumb
 4222              		.thumb_func
 4223              		.fpu fpv4-sp-d16
 4224              		.type	app_balance_stop, %function
 4225              	app_balance_stop:
 4226              	.LFB264:
 4227              		.loc 1 251 0
 4228              		.cfi_startproc
 4229              		@ args = 0, pretend = 0, frame = 0
 4230              		@ frame_needed = 0, uses_anonymous_args = 0
 4231 0000 10B5     		push	{r4, lr}
 4232              		.cfi_def_cfa_offset 8
 4233              		.cfi_offset 4, -8
 4234              		.cfi_offset 14, -4
 4235              		.loc 1 252 0
 4236 0002 0B4C     		ldr	r4, .L460
 4237 0004 2068     		ldr	r0, [r4]
 4238 0006 20B1     		cbz	r0, .L455
 4239              		.loc 1 253 0
 4240 0008 FFF7FEFF 		bl	chThdTerminate
 4241              	.LVL204:
 4242              		.loc 1 254 0
 4243 000c 2068     		ldr	r0, [r4]
 4244 000e FFF7FEFF 		bl	chThdWait
 4245              	.LVL205:
 4246              	.L455:
 4247              		.loc 1 256 0
 4248 0012 DFED080A 		vldr.32	s1, .L460+4
 4249 0016 B0EE600A 		vmov.f32	s0, s1
 4250 001a FFF7FEFF 		bl	set_current
 4251              	.LVL206:
 4252              		.loc 1 257 0
 4253 001e 0648     		ldr	r0, .L460+8
 4254 0020 FFF7FEFF 		bl	terminal_unregister_callback
 4255              	.LVL207:
 4256              		.loc 1 258 0
 4257 0024 0548     		ldr	r0, .L460+12
 4258              		.loc 1 259 0
 4259 0026 BDE81040 		pop	{r4, lr}
 4260              		.cfi_restore 14
 4261              		.cfi_restore 4
 4262              		.cfi_def_cfa_offset 0
 4263              		.loc 1 258 0
 4264 002a FFF7FEBF 		b	terminal_unregister_callback
 4265              	.LVL208:
 4266              	.L461:
 4267 002e 00BF     		.align	2
 4268              	.L460:
 4269 0030 00000000 		.word	.LANCHOR79
 4270 0034 00000000 		.word	0
 4271 0038 00000000 		.word	terminal_render
 4272 003c 00000000 		.word	terminal_sample
 4273              		.cfi_endproc
 4274              	.LFE264:
 4275              		.size	app_balance_stop, .-app_balance_stop
ARM GAS  /tmp/ccIHdayg.s 			page 76


 4276              		.section	.text.app_balance_get_pid_output,"ax",%progbits
 4277              		.align	1
 4278              		.p2align 4,,15
 4279              		.global	app_balance_get_pid_output
 4280              		.syntax unified
 4281              		.thumb
 4282              		.thumb_func
 4283              		.fpu fpv4-sp-d16
 4284              		.type	app_balance_get_pid_output, %function
 4285              	app_balance_get_pid_output:
 4286              	.LFB265:
 4287              		.loc 1 261 0
 4288              		.cfi_startproc
 4289              		@ args = 0, pretend = 0, frame = 0
 4290              		@ frame_needed = 0, uses_anonymous_args = 0
 4291              		@ link register save eliminated.
 4292              		.loc 1 262 0
 4293 0000 014B     		ldr	r3, .L463
 4294              		.loc 1 263 0
 4295 0002 93ED000A 		vldr.32	s0, [r3]
 4296 0006 7047     		bx	lr
 4297              	.L464:
 4298              		.align	2
 4299              	.L463:
 4300 0008 00000000 		.word	.LANCHOR60
 4301              		.cfi_endproc
 4302              	.LFE265:
 4303              		.size	app_balance_get_pid_output, .-app_balance_get_pid_output
 4304              		.section	.text.app_balance_get_pitch_angle,"ax",%progbits
 4305              		.align	1
 4306              		.p2align 4,,15
 4307              		.global	app_balance_get_pitch_angle
 4308              		.syntax unified
 4309              		.thumb
 4310              		.thumb_func
 4311              		.fpu fpv4-sp-d16
 4312              		.type	app_balance_get_pitch_angle, %function
 4313              	app_balance_get_pitch_angle:
 4314              	.LFB266:
 4315              		.loc 1 264 0
 4316              		.cfi_startproc
 4317              		@ args = 0, pretend = 0, frame = 0
 4318              		@ frame_needed = 0, uses_anonymous_args = 0
 4319              		@ link register save eliminated.
 4320              		.loc 1 265 0
 4321 0000 014B     		ldr	r3, .L466
 4322              		.loc 1 266 0
 4323 0002 93ED000A 		vldr.32	s0, [r3]
 4324 0006 7047     		bx	lr
 4325              	.L467:
 4326              		.align	2
 4327              	.L466:
 4328 0008 00000000 		.word	.LANCHOR7
 4329              		.cfi_endproc
 4330              	.LFE266:
 4331              		.size	app_balance_get_pitch_angle, .-app_balance_get_pitch_angle
 4332              		.section	.text.app_balance_get_roll_angle,"ax",%progbits
ARM GAS  /tmp/ccIHdayg.s 			page 77


 4333              		.align	1
 4334              		.p2align 4,,15
 4335              		.global	app_balance_get_roll_angle
 4336              		.syntax unified
 4337              		.thumb
 4338              		.thumb_func
 4339              		.fpu fpv4-sp-d16
 4340              		.type	app_balance_get_roll_angle, %function
 4341              	app_balance_get_roll_angle:
 4342              	.LFB267:
 4343              		.loc 1 267 0
 4344              		.cfi_startproc
 4345              		@ args = 0, pretend = 0, frame = 0
 4346              		@ frame_needed = 0, uses_anonymous_args = 0
 4347              		@ link register save eliminated.
 4348              		.loc 1 268 0
 4349 0000 014B     		ldr	r3, .L469
 4350              		.loc 1 269 0
 4351 0002 93ED000A 		vldr.32	s0, [r3]
 4352 0006 7047     		bx	lr
 4353              	.L470:
 4354              		.align	2
 4355              	.L469:
 4356 0008 00000000 		.word	.LANCHOR30
 4357              		.cfi_endproc
 4358              	.LFE267:
 4359              		.size	app_balance_get_roll_angle, .-app_balance_get_roll_angle
 4360              		.section	.text.app_balance_get_diff_time,"ax",%progbits
 4361              		.align	1
 4362              		.p2align 4,,15
 4363              		.global	app_balance_get_diff_time
 4364              		.syntax unified
 4365              		.thumb
 4366              		.thumb_func
 4367              		.fpu fpv4-sp-d16
 4368              		.type	app_balance_get_diff_time, %function
 4369              	app_balance_get_diff_time:
 4370              	.LFB268:
 4371              		.loc 1 270 0
 4372              		.cfi_startproc
 4373              		@ args = 0, pretend = 0, frame = 0
 4374              		@ frame_needed = 0, uses_anonymous_args = 0
 4375              		@ link register save eliminated.
 4376              		.loc 1 271 0
 4377 0000 054B     		ldr	r3, .L472
 4378 0002 0649     		ldr	r1, .L472+4
 4379 0004 1868     		ldr	r0, [r3]
 4380 0006 064B     		ldr	r3, .L472+8
 4381 0008 42F20F72 		movw	r2, #9999
 4382 000c 01FB0020 		mla	r0, r1, r0, r2
 4383 0010 A3FB0030 		umull	r3, r0, r3, r0
 4384              		.loc 1 272 0
 4385 0014 400B     		lsrs	r0, r0, #13
 4386 0016 7047     		bx	lr
 4387              	.L473:
 4388              		.align	2
 4389              	.L472:
ARM GAS  /tmp/ccIHdayg.s 			page 78


 4390 0018 00000000 		.word	.LANCHOR22
 4391 001c 40420F00 		.word	1000000
 4392 0020 5917B7D1 		.word	-776530087
 4393              		.cfi_endproc
 4394              	.LFE268:
 4395              		.size	app_balance_get_diff_time, .-app_balance_get_diff_time
 4396              		.section	.text.app_balance_get_motor_current,"ax",%progbits
 4397              		.align	1
 4398              		.p2align 4,,15
 4399              		.global	app_balance_get_motor_current
 4400              		.syntax unified
 4401              		.thumb
 4402              		.thumb_func
 4403              		.fpu fpv4-sp-d16
 4404              		.type	app_balance_get_motor_current, %function
 4405              	app_balance_get_motor_current:
 4406              	.LFB269:
 4407              		.loc 1 273 0
 4408              		.cfi_startproc
 4409              		@ args = 0, pretend = 0, frame = 0
 4410              		@ frame_needed = 0, uses_anonymous_args = 0
 4411              		@ link register save eliminated.
 4412              		.loc 1 274 0
 4413 0000 014B     		ldr	r3, .L475
 4414              		.loc 1 275 0
 4415 0002 93ED000A 		vldr.32	s0, [r3]
 4416 0006 7047     		bx	lr
 4417              	.L476:
 4418              		.align	2
 4419              	.L475:
 4420 0008 00000000 		.word	.LANCHOR37
 4421              		.cfi_endproc
 4422              	.LFE269:
 4423              		.size	app_balance_get_motor_current, .-app_balance_get_motor_current
 4424              		.section	.text.app_balance_get_state,"ax",%progbits
 4425              		.align	1
 4426              		.p2align 4,,15
 4427              		.global	app_balance_get_state
 4428              		.syntax unified
 4429              		.thumb
 4430              		.thumb_func
 4431              		.fpu fpv4-sp-d16
 4432              		.type	app_balance_get_state, %function
 4433              	app_balance_get_state:
 4434              	.LFB270:
 4435              		.loc 1 276 0
 4436              		.cfi_startproc
 4437              		@ args = 0, pretend = 0, frame = 0
 4438              		@ frame_needed = 0, uses_anonymous_args = 0
 4439              		@ link register save eliminated.
 4440              		.loc 1 277 0
 4441 0000 014B     		ldr	r3, .L478
 4442              		.loc 1 278 0
 4443 0002 1878     		ldrb	r0, [r3]	@ zero_extendqisi2
 4444 0004 7047     		bx	lr
 4445              	.L479:
 4446 0006 00BF     		.align	2
ARM GAS  /tmp/ccIHdayg.s 			page 79


 4447              	.L478:
 4448 0008 00000000 		.word	.LANCHOR19
 4449              		.cfi_endproc
 4450              	.LFE270:
 4451              		.size	app_balance_get_state, .-app_balance_get_state
 4452              		.section	.text.app_balance_get_switch_state,"ax",%progbits
 4453              		.align	1
 4454              		.p2align 4,,15
 4455              		.global	app_balance_get_switch_state
 4456              		.syntax unified
 4457              		.thumb
 4458              		.thumb_func
 4459              		.fpu fpv4-sp-d16
 4460              		.type	app_balance_get_switch_state, %function
 4461              	app_balance_get_switch_state:
 4462              	.LFB271:
 4463              		.loc 1 279 0
 4464              		.cfi_startproc
 4465              		@ args = 0, pretend = 0, frame = 0
 4466              		@ frame_needed = 0, uses_anonymous_args = 0
 4467              		@ link register save eliminated.
 4468              		.loc 1 280 0
 4469 0000 014B     		ldr	r3, .L481
 4470              		.loc 1 281 0
 4471 0002 1878     		ldrb	r0, [r3]	@ zero_extendqisi2
 4472 0004 7047     		bx	lr
 4473              	.L482:
 4474 0006 00BF     		.align	2
 4475              	.L481:
 4476 0008 00000000 		.word	.LANCHOR24
 4477              		.cfi_endproc
 4478              	.LFE271:
 4479              		.size	app_balance_get_switch_state, .-app_balance_get_switch_state
 4480              		.section	.text.app_balance_get_adc1,"ax",%progbits
 4481              		.align	1
 4482              		.p2align 4,,15
 4483              		.global	app_balance_get_adc1
 4484              		.syntax unified
 4485              		.thumb
 4486              		.thumb_func
 4487              		.fpu fpv4-sp-d16
 4488              		.type	app_balance_get_adc1, %function
 4489              	app_balance_get_adc1:
 4490              	.LFB272:
 4491              		.loc 1 282 0
 4492              		.cfi_startproc
 4493              		@ args = 0, pretend = 0, frame = 0
 4494              		@ frame_needed = 0, uses_anonymous_args = 0
 4495              		@ link register save eliminated.
 4496              		.loc 1 283 0
 4497 0000 014B     		ldr	r3, .L484
 4498              		.loc 1 284 0
 4499 0002 93ED000A 		vldr.32	s0, [r3]
 4500 0006 7047     		bx	lr
 4501              	.L485:
 4502              		.align	2
 4503              	.L484:
ARM GAS  /tmp/ccIHdayg.s 			page 80


 4504 0008 00000000 		.word	.LANCHOR49
 4505              		.cfi_endproc
 4506              	.LFE272:
 4507              		.size	app_balance_get_adc1, .-app_balance_get_adc1
 4508              		.section	.text.app_balance_get_adc2,"ax",%progbits
 4509              		.align	1
 4510              		.p2align 4,,15
 4511              		.global	app_balance_get_adc2
 4512              		.syntax unified
 4513              		.thumb
 4514              		.thumb_func
 4515              		.fpu fpv4-sp-d16
 4516              		.type	app_balance_get_adc2, %function
 4517              	app_balance_get_adc2:
 4518              	.LFB273:
 4519              		.loc 1 285 0
 4520              		.cfi_startproc
 4521              		@ args = 0, pretend = 0, frame = 0
 4522              		@ frame_needed = 0, uses_anonymous_args = 0
 4523              		@ link register save eliminated.
 4524              		.loc 1 286 0
 4525 0000 014B     		ldr	r3, .L487
 4526              		.loc 1 287 0
 4527 0002 93ED000A 		vldr.32	s0, [r3]
 4528 0006 7047     		bx	lr
 4529              	.L488:
 4530              		.align	2
 4531              	.L487:
 4532 0008 00000000 		.word	.LANCHOR50
 4533              		.cfi_endproc
 4534              	.LFE273:
 4535              		.size	app_balance_get_adc2, .-app_balance_get_adc2
 4536              		.section	.text.app_balance_get_debug1,"ax",%progbits
 4537              		.align	1
 4538              		.p2align 4,,15
 4539              		.global	app_balance_get_debug1
 4540              		.syntax unified
 4541              		.thumb
 4542              		.thumb_func
 4543              		.fpu fpv4-sp-d16
 4544              		.type	app_balance_get_debug1, %function
 4545              	app_balance_get_debug1:
 4546              	.LFB274:
 4547              		.loc 1 288 0
 4548              		.cfi_startproc
 4549              		@ args = 0, pretend = 0, frame = 0
 4550              		@ frame_needed = 0, uses_anonymous_args = 0
 4551              		@ link register save eliminated.
 4552              		.loc 1 289 0
 4553 0000 014B     		ldr	r3, .L490
 4554 0002 1868     		ldr	r0, [r3]
 4555 0004 FFF7FEBF 		b	app_balance_get_debug
 4556              	.LVL209:
 4557              	.L491:
 4558              		.align	2
 4559              	.L490:
 4560 0008 00000000 		.word	.LANCHOR75
ARM GAS  /tmp/ccIHdayg.s 			page 81


 4561              		.cfi_endproc
 4562              	.LFE274:
 4563              		.size	app_balance_get_debug1, .-app_balance_get_debug1
 4564              		.section	.text.app_balance_get_debug2,"ax",%progbits
 4565              		.align	1
 4566              		.p2align 4,,15
 4567              		.global	app_balance_get_debug2
 4568              		.syntax unified
 4569              		.thumb
 4570              		.thumb_func
 4571              		.fpu fpv4-sp-d16
 4572              		.type	app_balance_get_debug2, %function
 4573              	app_balance_get_debug2:
 4574              	.LFB275:
 4575              		.loc 1 291 0
 4576              		.cfi_startproc
 4577              		@ args = 0, pretend = 0, frame = 0
 4578              		@ frame_needed = 0, uses_anonymous_args = 0
 4579              		@ link register save eliminated.
 4580              		.loc 1 292 0
 4581 0000 014B     		ldr	r3, .L493
 4582 0002 1868     		ldr	r0, [r3]
 4583 0004 FFF7FEBF 		b	app_balance_get_debug
 4584              	.LVL210:
 4585              	.L494:
 4586              		.align	2
 4587              	.L493:
 4588 0008 00000000 		.word	.LANCHOR76
 4589              		.cfi_endproc
 4590              	.LFE275:
 4591              		.size	app_balance_get_debug2, .-app_balance_get_debug2
 4592              		.section	.bss.abs_duty_cycle,"aw",%nobits
 4593              		.align	2
 4594              		.set	.LANCHOR32,. + 0
 4595              		.type	abs_duty_cycle, %object
 4596              		.size	abs_duty_cycle, 4
 4597              	abs_duty_cycle:
 4598 0000 00000000 		.space	4
 4599              		.section	.bss.abs_erpm,"aw",%nobits
 4600              		.align	2
 4601              		.set	.LANCHOR27,. + 0
 4602              		.type	abs_erpm, %object
 4603              		.size	abs_erpm, 4
 4604              	abs_erpm:
 4605 0000 00000000 		.space	4
 4606              		.section	.bss.abs_roll_angle,"aw",%nobits
 4607              		.align	2
 4608              		.set	.LANCHOR45,. + 0
 4609              		.type	abs_roll_angle, %object
 4610              		.size	abs_roll_angle, 4
 4611              	abs_roll_angle:
 4612 0000 00000000 		.space	4
 4613              		.section	.bss.abs_roll_angle_sin,"aw",%nobits
 4614              		.align	2
 4615              		.set	.LANCHOR46,. + 0
 4616              		.type	abs_roll_angle_sin, %object
 4617              		.size	abs_roll_angle_sin, 4
ARM GAS  /tmp/ccIHdayg.s 			page 82


 4618              	abs_roll_angle_sin:
 4619 0000 00000000 		.space	4
 4620              		.section	.bss.adc1,"aw",%nobits
 4621              		.align	2
 4622              		.set	.LANCHOR49,. + 0
 4623              		.type	adc1, %object
 4624              		.size	adc1, 4
 4625              	adc1:
 4626 0000 00000000 		.space	4
 4627              		.section	.bss.adc2,"aw",%nobits
 4628              		.align	2
 4629              		.set	.LANCHOR50,. + 0
 4630              		.type	adc2, %object
 4631              		.size	adc2, 4
 4632              	adc2:
 4633 0000 00000000 		.space	4
 4634              		.section	.bss.app_thread,"aw",%nobits
 4635              		.align	2
 4636              		.set	.LANCHOR79,. + 0
 4637              		.type	app_thread, %object
 4638              		.size	app_thread, 4
 4639              	app_thread:
 4640 0000 00000000 		.space	4
 4641              		.section	.bss.avg_erpm,"aw",%nobits
 4642              		.align	2
 4643              		.set	.LANCHOR48,. + 0
 4644              		.type	avg_erpm, %object
 4645              		.size	avg_erpm, 4
 4646              	avg_erpm:
 4647 0000 00000000 		.space	4
 4648              		.section	.bss.balance_conf,"aw",%nobits
 4649              		.align	2
 4650              		.set	.LANCHOR25,. + 0
 4651              		.type	balance_conf, %object
 4652              		.size	balance_conf, 232
 4653              	balance_conf:
 4654 0000 00000000 		.space	232
 4654      00000000 
 4654      00000000 
 4654      00000000 
 4654      00000000 
 4655              		.section	.bss.balance_thread_wa,"aw",%nobits
 4656              		.align	3
 4657              		.set	.LANCHOR78,. + 0
 4658              		.type	balance_thread_wa, %object
 4659              		.size	balance_thread_wa, 1440
 4660              	balance_thread_wa:
 4661 0000 00000000 		.space	1440
 4661      00000000 
 4661      00000000 
 4661      00000000 
 4661      00000000 
 4662              		.section	.bss.brake_timeout,"aw",%nobits
 4663              		.align	2
 4664              		.set	.LANCHOR23,. + 0
 4665              		.type	brake_timeout, %object
 4666              		.size	brake_timeout, 4
ARM GAS  /tmp/ccIHdayg.s 			page 83


 4667              	brake_timeout:
 4668 0000 00000000 		.space	4
 4669              		.section	.bss.current_time,"aw",%nobits
 4670              		.align	2
 4671              		.set	.LANCHOR20,. + 0
 4672              		.type	current_time, %object
 4673              		.size	current_time, 4
 4674              	current_time:
 4675 0000 00000000 		.space	4
 4676              		.section	.bss.d_biquad_highpass,"aw",%nobits
 4677              		.align	2
 4678              		.set	.LANCHOR6,. + 0
 4679              		.type	d_biquad_highpass, %object
 4680              		.size	d_biquad_highpass, 28
 4681              	d_biquad_highpass:
 4682 0000 00000000 		.space	28
 4682      00000000 
 4682      00000000 
 4682      00000000 
 4682      00000000 
 4683              		.section	.bss.d_biquad_lowpass,"aw",%nobits
 4684              		.align	2
 4685              		.set	.LANCHOR5,. + 0
 4686              		.type	d_biquad_lowpass, %object
 4687              		.size	d_biquad_lowpass, 28
 4688              	d_biquad_lowpass:
 4689 0000 00000000 		.space	28
 4689      00000000 
 4689      00000000 
 4689      00000000 
 4689      00000000 
 4690              		.section	.bss.d_pt1_highpass_k,"aw",%nobits
 4691              		.align	2
 4692              		.set	.LANCHOR59,. + 0
 4693              		.type	d_pt1_highpass_k, %object
 4694              		.size	d_pt1_highpass_k, 4
 4695              	d_pt1_highpass_k:
 4696 0000 00000000 		.space	4
 4697              		.section	.bss.d_pt1_highpass_state,"aw",%nobits
 4698              		.align	2
 4699              		.set	.LANCHOR4,. + 0
 4700              		.type	d_pt1_highpass_state, %object
 4701              		.size	d_pt1_highpass_state, 4
 4702              	d_pt1_highpass_state:
 4703 0000 00000000 		.space	4
 4704              		.section	.bss.d_pt1_lowpass_k,"aw",%nobits
 4705              		.align	2
 4706              		.set	.LANCHOR58,. + 0
 4707              		.type	d_pt1_lowpass_k, %object
 4708              		.size	d_pt1_lowpass_k, 4
 4709              	d_pt1_lowpass_k:
 4710 0000 00000000 		.space	4
 4711              		.section	.bss.d_pt1_lowpass_state,"aw",%nobits
 4712              		.align	2
 4713              		.set	.LANCHOR3,. + 0
 4714              		.type	d_pt1_lowpass_state, %object
 4715              		.size	d_pt1_lowpass_state, 4
ARM GAS  /tmp/ccIHdayg.s 			page 84


 4716              	d_pt1_lowpass_state:
 4717 0000 00000000 		.space	4
 4718              		.section	.bss.debug_experiment_1,"aw",%nobits
 4719              		.align	2
 4720              		.set	.LANCHOR65,. + 0
 4721              		.type	debug_experiment_1, %object
 4722              		.size	debug_experiment_1, 4
 4723              	debug_experiment_1:
 4724 0000 00000000 		.space	4
 4725              		.section	.bss.debug_experiment_2,"aw",%nobits
 4726              		.align	2
 4727              		.set	.LANCHOR66,. + 0
 4728              		.type	debug_experiment_2, %object
 4729              		.size	debug_experiment_2, 4
 4730              	debug_experiment_2:
 4731 0000 00000000 		.space	4
 4732              		.section	.bss.debug_experiment_3,"aw",%nobits
 4733              		.align	2
 4734              		.set	.LANCHOR67,. + 0
 4735              		.type	debug_experiment_3, %object
 4736              		.size	debug_experiment_3, 4
 4737              	debug_experiment_3:
 4738 0000 00000000 		.space	4
 4739              		.section	.bss.debug_experiment_4,"aw",%nobits
 4740              		.align	2
 4741              		.set	.LANCHOR68,. + 0
 4742              		.type	debug_experiment_4, %object
 4743              		.size	debug_experiment_4, 4
 4744              	debug_experiment_4:
 4745 0000 00000000 		.space	4
 4746              		.section	.bss.debug_experiment_5,"aw",%nobits
 4747              		.align	2
 4748              		.set	.LANCHOR69,. + 0
 4749              		.type	debug_experiment_5, %object
 4750              		.size	debug_experiment_5, 4
 4751              	debug_experiment_5:
 4752 0000 00000000 		.space	4
 4753              		.section	.bss.debug_experiment_6,"aw",%nobits
 4754              		.align	2
 4755              		.set	.LANCHOR70,. + 0
 4756              		.type	debug_experiment_6, %object
 4757              		.size	debug_experiment_6, 4
 4758              	debug_experiment_6:
 4759 0000 00000000 		.space	4
 4760              		.section	.bss.debug_render_1,"aw",%nobits
 4761              		.align	2
 4762              		.set	.LANCHOR75,. + 0
 4763              		.type	debug_render_1, %object
 4764              		.size	debug_render_1, 4
 4765              	debug_render_1:
 4766 0000 00000000 		.space	4
 4767              		.section	.bss.debug_render_2,"aw",%nobits
 4768              		.align	2
 4769              		.set	.LANCHOR76,. + 0
 4770              		.type	debug_render_2, %object
 4771              		.size	debug_render_2, 4
 4772              	debug_render_2:
ARM GAS  /tmp/ccIHdayg.s 			page 85


 4773 0000 00000000 		.space	4
 4774              		.section	.bss.debug_sample_count,"aw",%nobits
 4775              		.align	2
 4776              		.set	.LANCHOR63,. + 0
 4777              		.type	debug_sample_count, %object
 4778              		.size	debug_sample_count, 4
 4779              	debug_sample_count:
 4780 0000 00000000 		.space	4
 4781              		.section	.bss.debug_sample_field,"aw",%nobits
 4782              		.align	2
 4783              		.set	.LANCHOR64,. + 0
 4784              		.type	debug_sample_field, %object
 4785              		.size	debug_sample_field, 4
 4786              	debug_sample_field:
 4787 0000 00000000 		.space	4
 4788              		.section	.bss.debug_sample_index,"aw",%nobits
 4789              		.align	2
 4790              		.set	.LANCHOR62,. + 0
 4791              		.type	debug_sample_index, %object
 4792              		.size	debug_sample_index, 4
 4793              	debug_sample_index:
 4794 0000 00000000 		.space	4
 4795              		.section	.bss.derivative,"aw",%nobits
 4796              		.align	2
 4797              		.set	.LANCHOR35,. + 0
 4798              		.type	derivative, %object
 4799              		.size	derivative, 4
 4800              	derivative:
 4801 0000 00000000 		.space	4
 4802              		.section	.bss.diff_time,"aw",%nobits
 4803              		.align	2
 4804              		.set	.LANCHOR22,. + 0
 4805              		.type	diff_time, %object
 4806              		.size	diff_time, 4
 4807              	diff_time:
 4808 0000 00000000 		.space	4
 4809              		.section	.bss.erpm,"aw",%nobits
 4810              		.align	2
 4811              		.set	.LANCHOR38,. + 0
 4812              		.type	erpm, %object
 4813              		.size	erpm, 4
 4814              	erpm:
 4815 0000 00000000 		.space	4
 4816              		.section	.bss.fault_angle_pitch_timer,"aw",%nobits
 4817              		.align	2
 4818              		.set	.LANCHOR29,. + 0
 4819              		.type	fault_angle_pitch_timer, %object
 4820              		.size	fault_angle_pitch_timer, 4
 4821              	fault_angle_pitch_timer:
 4822 0000 00000000 		.space	4
 4823              		.section	.bss.fault_angle_roll_timer,"aw",%nobits
 4824              		.align	2
 4825              		.set	.LANCHOR31,. + 0
 4826              		.type	fault_angle_roll_timer, %object
 4827              		.size	fault_angle_roll_timer, 4
 4828              	fault_angle_roll_timer:
 4829 0000 00000000 		.space	4
ARM GAS  /tmp/ccIHdayg.s 			page 86


 4830              		.section	.bss.fault_duty_timer,"aw",%nobits
 4831              		.align	2
 4832              		.set	.LANCHOR33,. + 0
 4833              		.type	fault_duty_timer, %object
 4834              		.size	fault_duty_timer, 4
 4835              	fault_duty_timer:
 4836 0000 00000000 		.space	4
 4837              		.section	.bss.fault_switch_half_timer,"aw",%nobits
 4838              		.align	2
 4839              		.set	.LANCHOR28,. + 0
 4840              		.type	fault_switch_half_timer, %object
 4841              		.size	fault_switch_half_timer, 4
 4842              	fault_switch_half_timer:
 4843 0000 00000000 		.space	4
 4844              		.section	.bss.fault_switch_timer,"aw",%nobits
 4845              		.align	2
 4846              		.set	.LANCHOR26,. + 0
 4847              		.type	fault_switch_timer, %object
 4848              		.size	fault_switch_timer, 4
 4849              	fault_switch_timer:
 4850 0000 00000000 		.space	4
 4851              		.section	.bss.filtered_diff_time,"aw",%nobits
 4852              		.align	2
 4853              		.set	.LANCHOR42,. + 0
 4854              		.type	filtered_diff_time, %object
 4855              		.size	filtered_diff_time, 4
 4856              	filtered_diff_time:
 4857 0000 00000000 		.space	4
 4858              		.section	.bss.filtered_loop_overshoot,"aw",%nobits
 4859              		.align	2
 4860              		.set	.LANCHOR41,. + 0
 4861              		.type	filtered_loop_overshoot, %object
 4862              		.size	filtered_loop_overshoot, 4
 4863              	filtered_loop_overshoot:
 4864 0000 00000000 		.space	4
 4865              		.section	.bss.gyro,"aw",%nobits
 4866              		.align	2
 4867              		.set	.LANCHOR47,. + 0
 4868              		.type	gyro, %object
 4869              		.size	gyro, 12
 4870              	gyro:
 4871 0000 00000000 		.space	12
 4871      00000000 
 4871      00000000 
 4872              		.section	.bss.imu_conf,"aw",%nobits
 4873              		.align	2
 4874              		.set	.LANCHOR77,. + 0
 4875              		.type	imu_conf, %object
 4876              		.size	imu_conf, 60
 4877              	imu_conf:
 4878 0000 00000000 		.space	60
 4878      00000000 
 4878      00000000 
 4878      00000000 
 4878      00000000 
 4879              		.section	.bss.integral,"aw",%nobits
 4880              		.align	2
ARM GAS  /tmp/ccIHdayg.s 			page 87


 4881              		.set	.LANCHOR0,. + 0
 4882              		.type	integral, %object
 4883              		.size	integral, 4
 4884              	integral:
 4885 0000 00000000 		.space	4
 4886              		.section	.bss.last_pitch_angle,"aw",%nobits
 4887              		.align	2
 4888              		.set	.LANCHOR36,. + 0
 4889              		.type	last_pitch_angle, %object
 4890              		.size	last_pitch_angle, 4
 4891              	last_pitch_angle:
 4892 0000 00000000 		.space	4
 4893              		.section	.bss.last_time,"aw",%nobits
 4894              		.align	2
 4895              		.set	.LANCHOR21,. + 0
 4896              		.type	last_time, %object
 4897              		.size	last_time, 4
 4898              	last_time:
 4899 0000 00000000 		.space	4
 4900              		.section	.bss.loop_overshoot,"aw",%nobits
 4901              		.align	2
 4902              		.set	.LANCHOR40,. + 0
 4903              		.type	loop_overshoot, %object
 4904              		.size	loop_overshoot, 4
 4905              	loop_overshoot:
 4906 0000 00000000 		.space	4
 4907              		.section	.bss.loop_overshoot_alpha,"aw",%nobits
 4908              		.align	2
 4909              		.set	.LANCHOR44,. + 0
 4910              		.type	loop_overshoot_alpha, %object
 4911              		.size	loop_overshoot_alpha, 4
 4912              	loop_overshoot_alpha:
 4913 0000 00000000 		.space	4
 4914              		.section	.bss.loop_time,"aw",%nobits
 4915              		.align	2
 4916              		.set	.LANCHOR39,. + 0
 4917              		.type	loop_time, %object
 4918              		.size	loop_time, 4
 4919              	loop_time:
 4920 0000 00000000 		.space	4
 4921              		.section	.bss.motor_current,"aw",%nobits
 4922              		.align	2
 4923              		.set	.LANCHOR37,. + 0
 4924              		.type	motor_current, %object
 4925              		.size	motor_current, 4
 4926              	motor_current:
 4927 0000 00000000 		.space	4
 4928              		.section	.bss.motor_position,"aw",%nobits
 4929              		.align	2
 4930              		.set	.LANCHOR34,. + 0
 4931              		.type	motor_position, %object
 4932              		.size	motor_position, 4
 4933              	motor_position:
 4934 0000 00000000 		.space	4
 4935              		.section	.bss.motor_timeout,"aw",%nobits
 4936              		.align	2
 4937              		.set	.LANCHOR43,. + 0
ARM GAS  /tmp/ccIHdayg.s 			page 88


 4938              		.type	motor_timeout, %object
 4939              		.size	motor_timeout, 4
 4940              	motor_timeout:
 4941 0000 00000000 		.space	4
 4942              		.section	.bss.noseangling_interpolated,"aw",%nobits
 4943              		.align	2
 4944              		.set	.LANCHOR11,. + 0
 4945              		.type	noseangling_interpolated, %object
 4946              		.size	noseangling_interpolated, 4
 4947              	noseangling_interpolated:
 4948 0000 00000000 		.space	4
 4949              		.section	.bss.noseangling_step_size,"aw",%nobits
 4950              		.align	2
 4951              		.set	.LANCHOR54,. + 0
 4952              		.type	noseangling_step_size, %object
 4953              		.size	noseangling_step_size, 4
 4954              	noseangling_step_size:
 4955 0000 00000000 		.space	4
 4956              		.section	.bss.pid_value,"aw",%nobits
 4957              		.align	2
 4958              		.set	.LANCHOR60,. + 0
 4959              		.type	pid_value, %object
 4960              		.size	pid_value, 4
 4961              	pid_value:
 4962 0000 00000000 		.space	4
 4963              		.section	.bss.pitch_angle,"aw",%nobits
 4964              		.align	2
 4965              		.set	.LANCHOR7,. + 0
 4966              		.type	pitch_angle, %object
 4967              		.size	pitch_angle, 4
 4968              	pitch_angle:
 4969 0000 00000000 		.space	4
 4970              		.section	.bss.roll_angle,"aw",%nobits
 4971              		.align	2
 4972              		.set	.LANCHOR30,. + 0
 4973              		.type	roll_angle, %object
 4974              		.size	roll_angle, 4
 4975              	roll_angle:
 4976 0000 00000000 		.space	4
 4977              		.section	.bss.setpoint,"aw",%nobits
 4978              		.align	2
 4979              		.set	.LANCHOR8,. + 0
 4980              		.type	setpoint, %object
 4981              		.size	setpoint, 4
 4982              	setpoint:
 4983 0000 00000000 		.space	4
 4984              		.section	.bss.setpointAdjustmentType,"aw",%nobits
 4985              		.set	.LANCHOR17,. + 0
 4986              		.type	setpointAdjustmentType, %object
 4987              		.size	setpointAdjustmentType, 1
 4988              	setpointAdjustmentType:
 4989 0000 00       		.space	1
 4990              		.section	.bss.setpoint_target,"aw",%nobits
 4991              		.align	2
 4992              		.set	.LANCHOR10,. + 0
 4993              		.type	setpoint_target, %object
 4994              		.size	setpoint_target, 4
ARM GAS  /tmp/ccIHdayg.s 			page 89


 4995              	setpoint_target:
 4996 0000 00000000 		.space	4
 4997              		.section	.bss.setpoint_target_interpolated,"aw",%nobits
 4998              		.align	2
 4999              		.set	.LANCHOR9,. + 0
 5000              		.type	setpoint_target_interpolated, %object
 5001              		.size	setpoint_target_interpolated, 4
 5002              	setpoint_target_interpolated:
 5003 0000 00000000 		.space	4
 5004              		.section	.bss.startup_step_size,"aw",%nobits
 5005              		.align	2
 5006              		.set	.LANCHOR51,. + 0
 5007              		.type	startup_step_size, %object
 5008              		.size	startup_step_size, 4
 5009              	startup_step_size:
 5010 0000 00000000 		.space	4
 5011              		.section	.bss.state,"aw",%nobits
 5012              		.set	.LANCHOR19,. + 0
 5013              		.type	state, %object
 5014              		.size	state, 1
 5015              	state:
 5016 0000 00       		.space	1
 5017              		.section	.bss.switch_state,"aw",%nobits
 5018              		.set	.LANCHOR24,. + 0
 5019              		.type	switch_state, %object
 5020              		.size	switch_state, 1
 5021              	switch_state:
 5022 0000 00       		.space	1
 5023              		.section	.bss.tiltback_duty_step_size,"aw",%nobits
 5024              		.align	2
 5025              		.set	.LANCHOR72,. + 0
 5026              		.type	tiltback_duty_step_size, %object
 5027              		.size	tiltback_duty_step_size, 4
 5028              	tiltback_duty_step_size:
 5029 0000 00000000 		.space	4
 5030              		.section	.bss.tiltback_hv_step_size,"aw",%nobits
 5031              		.align	2
 5032              		.set	.LANCHOR73,. + 0
 5033              		.type	tiltback_hv_step_size, %object
 5034              		.size	tiltback_hv_step_size, 4
 5035              	tiltback_hv_step_size:
 5036 0000 00000000 		.space	4
 5037              		.section	.bss.tiltback_lv_step_size,"aw",%nobits
 5038              		.align	2
 5039              		.set	.LANCHOR74,. + 0
 5040              		.type	tiltback_lv_step_size, %object
 5041              		.size	tiltback_lv_step_size, 4
 5042              	tiltback_lv_step_size:
 5043 0000 00000000 		.space	4
 5044              		.section	.bss.tiltback_return_step_size,"aw",%nobits
 5045              		.align	2
 5046              		.set	.LANCHOR71,. + 0
 5047              		.type	tiltback_return_step_size, %object
 5048              		.size	tiltback_return_step_size, 4
 5049              	tiltback_return_step_size:
 5050 0000 00000000 		.space	4
 5051              		.section	.bss.tiltback_variable,"aw",%nobits
ARM GAS  /tmp/ccIHdayg.s 			page 90


 5052              		.align	2
 5053              		.set	.LANCHOR53,. + 0
 5054              		.type	tiltback_variable, %object
 5055              		.size	tiltback_variable, 4
 5056              	tiltback_variable:
 5057 0000 00000000 		.space	4
 5058              		.section	.bss.tiltback_variable_max_erpm,"aw",%nobits
 5059              		.align	2
 5060              		.set	.LANCHOR52,. + 0
 5061              		.type	tiltback_variable_max_erpm, %object
 5062              		.size	tiltback_variable_max_erpm, 4
 5063              	tiltback_variable_max_erpm:
 5064 0000 00000000 		.space	4
 5065              		.section	.bss.torquetilt_current_biquad,"aw",%nobits
 5066              		.align	2
 5067              		.set	.LANCHOR14,. + 0
 5068              		.type	torquetilt_current_biquad, %object
 5069              		.size	torquetilt_current_biquad, 28
 5070              	torquetilt_current_biquad:
 5071 0000 00000000 		.space	28
 5071      00000000 
 5071      00000000 
 5071      00000000 
 5071      00000000 
 5072              		.section	.bss.torquetilt_filtered_current,"aw",%nobits
 5073              		.align	2
 5074              		.set	.LANCHOR13,. + 0
 5075              		.type	torquetilt_filtered_current, %object
 5076              		.size	torquetilt_filtered_current, 4
 5077              	torquetilt_filtered_current:
 5078 0000 00000000 		.space	4
 5079              		.section	.bss.torquetilt_interpolated,"aw",%nobits
 5080              		.align	2
 5081              		.set	.LANCHOR12,. + 0
 5082              		.type	torquetilt_interpolated, %object
 5083              		.size	torquetilt_interpolated, 4
 5084              	torquetilt_interpolated:
 5085 0000 00000000 		.space	4
 5086              		.section	.bss.torquetilt_off_step_size,"aw",%nobits
 5087              		.align	2
 5088              		.set	.LANCHOR55,. + 0
 5089              		.type	torquetilt_off_step_size, %object
 5090              		.size	torquetilt_off_step_size, 4
 5091              	torquetilt_off_step_size:
 5092 0000 00000000 		.space	4
 5093              		.section	.bss.torquetilt_on_step_size,"aw",%nobits
 5094              		.align	2
 5095              		.set	.LANCHOR56,. + 0
 5096              		.type	torquetilt_on_step_size, %object
 5097              		.size	torquetilt_on_step_size, 4
 5098              	torquetilt_on_step_size:
 5099 0000 00000000 		.space	4
 5100              		.section	.bss.turntilt_interpolated,"aw",%nobits
 5101              		.align	2
 5102              		.set	.LANCHOR16,. + 0
 5103              		.type	turntilt_interpolated, %object
 5104              		.size	turntilt_interpolated, 4
ARM GAS  /tmp/ccIHdayg.s 			page 91


 5105              	turntilt_interpolated:
 5106 0000 00000000 		.space	4
 5107              		.section	.bss.turntilt_step_size,"aw",%nobits
 5108              		.align	2
 5109              		.set	.LANCHOR57,. + 0
 5110              		.type	turntilt_step_size, %object
 5111              		.size	turntilt_step_size, 4
 5112              	turntilt_step_size:
 5113 0000 00000000 		.space	4
 5114              		.section	.bss.turntilt_target,"aw",%nobits
 5115              		.align	2
 5116              		.set	.LANCHOR15,. + 0
 5117              		.type	turntilt_target, %object
 5118              		.size	turntilt_target, 4
 5119              	turntilt_target:
 5120 0000 00000000 		.space	4
 5121              		.section	.bss.yaw_integral,"aw",%nobits
 5122              		.align	2
 5123              		.set	.LANCHOR1,. + 0
 5124              		.type	yaw_integral, %object
 5125              		.size	yaw_integral, 4
 5126              	yaw_integral:
 5127 0000 00000000 		.space	4
 5128              		.section	.bss.yaw_last_proportional,"aw",%nobits
 5129              		.align	2
 5130              		.set	.LANCHOR2,. + 0
 5131              		.type	yaw_last_proportional, %object
 5132              		.size	yaw_last_proportional, 4
 5133              	yaw_last_proportional:
 5134 0000 00000000 		.space	4
 5135              		.section	.bss.yaw_pid_value,"aw",%nobits
 5136              		.align	2
 5137              		.set	.LANCHOR61,. + 0
 5138              		.type	yaw_pid_value, %object
 5139              		.size	yaw_pid_value, 4
 5140              	yaw_pid_value:
 5141 0000 00000000 		.space	4
 5142              		.section	.bss.yaw_setpoint,"aw",%nobits
 5143              		.align	2
 5144              		.set	.LANCHOR18,. + 0
 5145              		.type	yaw_setpoint, %object
 5146              		.size	yaw_setpoint, 4
 5147              	yaw_setpoint:
 5148 0000 00000000 		.space	4
 5149              		.section	.rodata.app_balance_start.str1.4,"aMS",%progbits,1
 5150              		.align	2
 5151              	.LC13:
 5152 0000 5B466965 		.ascii	"[Field Number] [Plot (Optional 1 or 2)]\000"
 5152      6C64204E 
 5152      756D6265 
 5152      725D205B 
 5152      506C6F74 
 5153              	.LC14:
 5154 0028 52656E64 		.ascii	"Render debug values on the balance real time data g"
 5154      65722064 
 5154      65627567 
 5154      2076616C 
ARM GAS  /tmp/ccIHdayg.s 			page 92


 5154      75657320 
 5155 005b 72617068 		.ascii	"raph\000"
 5155      00
 5156              	.LC15:
 5157 0060 6170705F 		.ascii	"app_balance_render\000"
 5157      62616C61 
 5157      6E63655F 
 5157      72656E64 
 5157      657200
 5158 0073 00       		.space	1
 5159              	.LC16:
 5160 0074 5B466965 		.ascii	"[Field Number] [Sample Count]\000"
 5160      6C64204E 
 5160      756D6265 
 5160      725D205B 
 5160      53616D70 
 5161 0092 0000     		.space	2
 5162              	.LC17:
 5163 0094 4F757470 		.ascii	"Output real time values to the terminal\000"
 5163      75742072 
 5163      65616C20 
 5163      74696D65 
 5163      2076616C 
 5164              	.LC18:
 5165 00bc 6170705F 		.ascii	"app_balance_sample\000"
 5165      62616C61 
 5165      6E63655F 
 5165      73616D70 
 5165      6C6500
 5166 00cf 00       		.space	1
 5167              	.LC19:
 5168 00d0 5B466965 		.ascii	"[Field Number] [Plot 1-6]\000"
 5168      6C64204E 
 5168      756D6265 
 5168      725D205B 
 5168      506C6F74 
 5169 00ea 0000     		.space	2
 5170              	.LC20:
 5171 00ec 4F757470 		.ascii	"Output real time values to the experiments graph\000"
 5171      75742072 
 5171      65616C20 
 5171      74696D65 
 5171      2076616C 
 5172 011d 000000   		.space	3
 5173              	.LC21:
 5174 0120 6170705F 		.ascii	"app_balance_experiment\000"
 5174      62616C61 
 5174      6E63655F 
 5174      65787065 
 5174      72696D65 
 5175              		.section	.rodata.balance_thread.str1.4,"aMS",%progbits,1
 5176              		.align	2
 5177              	.LC0:
 5178 0000 4150505F 		.ascii	"APP_BALANCE\000"
 5178      42414C41 
 5178      4E434500 
 5179              	.LC1:
ARM GAS  /tmp/ccIHdayg.s 			page 93


 5180 000c 256600   		.ascii	"%f\000"
 5181              		.section	.rodata.terminal_experiment.str1.4,"aMS",%progbits,1
 5182              		.align	2
 5183              	.LC5:
 5184 0000 42616C61 		.ascii	"Balance App Debug Data\000"
 5184      6E636520 
 5184      41707020 
 5184      44656275 
 5184      67204461 
 5185 0017 00       		.space	1
 5186              	.LC6:
 5187 0018 4D696372 		.ascii	"Microseconds\000"
 5187      6F736563 
 5187      6F6E6473 
 5187      00
 5188 0025 000000   		.space	3
 5189              	.LC7:
 5190 0028 3100     		.ascii	"1\000"
 5191 002a 0000     		.space	2
 5192              	.LC8:
 5193 002c 3200     		.ascii	"2\000"
 5194 002e 0000     		.space	2
 5195              	.LC9:
 5196 0030 3300     		.ascii	"3\000"
 5197 0032 0000     		.space	2
 5198              	.LC10:
 5199 0034 3400     		.ascii	"4\000"
 5200 0036 0000     		.space	2
 5201              	.LC11:
 5202 0038 3500     		.ascii	"5\000"
 5203 003a 0000     		.space	2
 5204              	.LC12:
 5205 003c 3600     		.ascii	"6\000"
 5206              		.section	.rodata.terminal_render.str1.4,"aMS",%progbits,1
 5207              		.align	2
 5208              	.LC4:
 5209 0000 54686973 		.ascii	"This command requires one or two argument(s).\012\000"
 5209      20636F6D 
 5209      6D616E64 
 5209      20726571 
 5209      75697265 
 5210              		.section	.rodata.terminal_sample.str1.4,"aMS",%progbits,1
 5211              		.align	2
 5212              	.LC2:
 5213 0000 256400   		.ascii	"%d\000"
 5214 0003 00       		.space	1
 5215              	.LC3:
 5216 0004 54686973 		.ascii	"This command requires two arguments.\012\000"
 5216      20636F6D 
 5216      6D616E64 
 5216      20726571 
 5216      75697265 
 5217              		.text
 5218              	.Letext0:
 5219              		.file 5 "/usr/arm-none-eabi/include/machine/_default_types.h"
 5220              		.file 6 "/usr/arm-none-eabi/include/sys/_stdint.h"
 5221              		.file 7 "/usr/lib/gcc/arm-none-eabi/7.3.1/include/stddef.h"
ARM GAS  /tmp/ccIHdayg.s 			page 94


 5222              		.file 8 "ChibiOS_3.0.5/os/rt/ports/ARMCMx/compilers/GCC/chtypes.h"
 5223              		.file 9 "ChibiOS_3.0.5/os/rt/include/chsystypes.h"
 5224              		.file 10 "ChibiOS_3.0.5/os/rt/include/chschd.h"
 5225              		.file 11 "ChibiOS_3.0.5/os/ext/CMSIS/include/core_cm4.h"
 5226              		.file 12 "ChibiOS_3.0.5/os/ext/CMSIS/ST/system_stm32f4xx.h"
 5227              		.file 13 "ChibiOS_3.0.5/os/ext/CMSIS/ST/stm32f407xx.h"
 5228              		.file 14 "ChibiOS_3.0.5/os/rt/ports/ARMCMx/chcore.h"
 5229              		.file 15 "ChibiOS_3.0.5/os/rt/ports/ARMCMx/chcore_v7m.h"
 5230              		.file 16 "ChibiOS_3.0.5/os/rt/include/chtm.h"
 5231              		.file 17 "ChibiOS_3.0.5/os/rt/include/chsem.h"
 5232              		.file 18 "ChibiOS_3.0.5/os/rt/include/chmtx.h"
 5233              		.file 19 "ChibiOS_3.0.5/os/rt/include/chevents.h"
 5234              		.file 20 "ChibiOS_3.0.5/os/rt/include/chqueues.h"
 5235              		.file 21 "./datatypes.h"
 5236              		.file 22 "./conf_general.h"
 5237              		.file 23 "ChibiOS_3.0.5/os/hal/ports/STM32/STM32F4xx/stm32_dma.h"
 5238              		.file 24 "ChibiOS_3.0.5/os/hal/ports/STM32/LLD/GPIOv2/pal_lld.h"
 5239              		.file 25 "ChibiOS_3.0.5/os/hal/include/can.h"
 5240              		.file 26 "ChibiOS_3.0.5/os/hal/ports/STM32/LLD/can_lld.h"
 5241              		.file 27 "ChibiOS_3.0.5/os/hal/include/i2c.h"
 5242              		.file 28 "ChibiOS_3.0.5/os/hal/ports/STM32/LLD/I2Cv1/i2c_lld.h"
 5243              		.file 29 "ChibiOS_3.0.5/os/hal/include/icu.h"
 5244              		.file 30 "ChibiOS_3.0.5/os/hal/ports/STM32/LLD/TIMv1/icu_lld.h"
 5245              		.file 31 "ChibiOS_3.0.5/os/hal/ports/STM32/LLD/TIMv1/stm32_tim.h"
 5246              		.file 32 "ChibiOS_3.0.5/os/hal/include/serial.h"
 5247              		.file 33 "ChibiOS_3.0.5/os/hal/ports/STM32/LLD/USARTv1/serial_lld.h"
 5248              		.file 34 "ChibiOS_3.0.5/os/hal/include/spi.h"
 5249              		.file 35 "ChibiOS_3.0.5/os/hal/ports/STM32/LLD/SPIv1/spi_lld.h"
 5250              		.file 36 "ChibiOS_3.0.5/os/hal/include/usb.h"
 5251              		.file 37 "ChibiOS_3.0.5/os/hal/ports/STM32/LLD/OTGv1/usb_lld.h"
 5252              		.file 38 "ChibiOS_3.0.5/os/hal/ports/STM32/LLD/OTGv1/stm32_otg.h"
 5253              		.file 39 "./mc_interface.h"
 5254              		.file 40 "./commands.h"
 5255              		.file 41 "./utils.h"
 5256              		.file 42 "/usr/arm-none-eabi/include/sys/lock.h"
 5257              		.file 43 "/usr/arm-none-eabi/include/sys/_types.h"
 5258              		.file 44 "/usr/arm-none-eabi/include/sys/reent.h"
 5259              		.file 45 "/usr/arm-none-eabi/include/math.h"
 5260              		.file 46 "./comm_can.h"
 5261              		.file 47 "./imu/imu.h"
 5262              		.file 48 "./terminal.h"
 5263              		.file 49 "./timeout.h"
 5264              		.file 50 "/usr/arm-none-eabi/include/stdio.h"
 5265              		.file 51 "<built-in>"
 5266              		.section	.debug_info,"",%progbits
 5267              	.Ldebug_info0:
 5268 0000 CF4B0000 		.4byte	0x4bcf
 5269 0004 0400     		.2byte	0x4
 5270 0006 00000000 		.4byte	.Ldebug_abbrev0
 5271 000a 04       		.byte	0x4
 5272 000b 01       		.uleb128 0x1
 5273 000c 4A0F0000 		.4byte	.LASF923
 5274 0010 0C       		.byte	0xc
 5275 0011 4D0E0000 		.4byte	.LASF924
 5276 0015 F92A0000 		.4byte	.LASF925
 5277 0019 60040000 		.4byte	.Ldebug_ranges0+0x460
 5278 001d 00000000 		.4byte	0
ARM GAS  /tmp/ccIHdayg.s 			page 95


 5279 0021 00000000 		.4byte	.Ldebug_line0
 5280 0025 02       		.uleb128 0x2
 5281 0026 04       		.byte	0x4
 5282 0027 04       		.byte	0x4
 5283 0028 B10C0000 		.4byte	.LASF0
 5284 002c 03       		.uleb128 0x3
 5285 002d 04       		.byte	0x4
 5286 002e 05       		.byte	0x5
 5287 002f 696E7400 		.ascii	"int\000"
 5288 0033 02       		.uleb128 0x2
 5289 0034 01       		.byte	0x1
 5290 0035 06       		.byte	0x6
 5291 0036 81190000 		.4byte	.LASF1
 5292 003a 04       		.uleb128 0x4
 5293 003b 84010000 		.4byte	.LASF4
 5294 003f 05       		.byte	0x5
 5295 0040 2B       		.byte	0x2b
 5296 0041 45000000 		.4byte	0x45
 5297 0045 02       		.uleb128 0x2
 5298 0046 01       		.byte	0x1
 5299 0047 08       		.byte	0x8
 5300 0048 DF0B0000 		.4byte	.LASF2
 5301 004c 02       		.uleb128 0x2
 5302 004d 02       		.byte	0x2
 5303 004e 05       		.byte	0x5
 5304 004f F32B0000 		.4byte	.LASF3
 5305 0053 04       		.uleb128 0x4
 5306 0054 F6090000 		.4byte	.LASF5
 5307 0058 05       		.byte	0x5
 5308 0059 39       		.byte	0x39
 5309 005a 5E000000 		.4byte	0x5e
 5310 005e 02       		.uleb128 0x2
 5311 005f 02       		.byte	0x2
 5312 0060 07       		.byte	0x7
 5313 0061 63190000 		.4byte	.LASF6
 5314 0065 04       		.uleb128 0x4
 5315 0066 01230000 		.4byte	.LASF7
 5316 006a 05       		.byte	0x5
 5317 006b 4D       		.byte	0x4d
 5318 006c 70000000 		.4byte	0x70
 5319 0070 02       		.uleb128 0x2
 5320 0071 04       		.byte	0x4
 5321 0072 05       		.byte	0x5
 5322 0073 111C0000 		.4byte	.LASF8
 5323 0077 04       		.uleb128 0x4
 5324 0078 1D230000 		.4byte	.LASF9
 5325 007c 05       		.byte	0x5
 5326 007d 4F       		.byte	0x4f
 5327 007e 82000000 		.4byte	0x82
 5328 0082 02       		.uleb128 0x2
 5329 0083 04       		.byte	0x4
 5330 0084 07       		.byte	0x7
 5331 0085 081E0000 		.4byte	.LASF10
 5332 0089 02       		.uleb128 0x2
 5333 008a 08       		.byte	0x8
 5334 008b 05       		.byte	0x5
 5335 008c DD280000 		.4byte	.LASF11
ARM GAS  /tmp/ccIHdayg.s 			page 96


 5336 0090 04       		.uleb128 0x4
 5337 0091 F2140000 		.4byte	.LASF12
 5338 0095 05       		.byte	0x5
 5339 0096 69       		.byte	0x69
 5340 0097 9B000000 		.4byte	0x9b
 5341 009b 02       		.uleb128 0x2
 5342 009c 08       		.byte	0x8
 5343 009d 07       		.byte	0x7
 5344 009e 65250000 		.4byte	.LASF13
 5345 00a2 02       		.uleb128 0x2
 5346 00a3 04       		.byte	0x4
 5347 00a4 07       		.byte	0x7
 5348 00a5 6E2B0000 		.4byte	.LASF14
 5349 00a9 04       		.uleb128 0x4
 5350 00aa 44120000 		.4byte	.LASF15
 5351 00ae 06       		.byte	0x6
 5352 00af 18       		.byte	0x18
 5353 00b0 3A000000 		.4byte	0x3a
 5354 00b4 05       		.uleb128 0x5
 5355 00b5 A9000000 		.4byte	0xa9
 5356 00b9 04       		.uleb128 0x4
 5357 00ba 2A030000 		.4byte	.LASF16
 5358 00be 06       		.byte	0x6
 5359 00bf 24       		.byte	0x24
 5360 00c0 53000000 		.4byte	0x53
 5361 00c4 06       		.uleb128 0x6
 5362 00c5 B9000000 		.4byte	0xb9
 5363 00c9 04       		.uleb128 0x4
 5364 00ca 15050000 		.4byte	.LASF17
 5365 00ce 06       		.byte	0x6
 5366 00cf 2C       		.byte	0x2c
 5367 00d0 65000000 		.4byte	0x65
 5368 00d4 06       		.uleb128 0x6
 5369 00d5 C9000000 		.4byte	0xc9
 5370 00d9 04       		.uleb128 0x4
 5371 00da 2D1D0000 		.4byte	.LASF18
 5372 00de 06       		.byte	0x6
 5373 00df 30       		.byte	0x30
 5374 00e0 77000000 		.4byte	0x77
 5375 00e4 06       		.uleb128 0x6
 5376 00e5 D9000000 		.4byte	0xd9
 5377 00e9 04       		.uleb128 0x4
 5378 00ea 2D0E0000 		.4byte	.LASF19
 5379 00ee 06       		.byte	0x6
 5380 00ef 3C       		.byte	0x3c
 5381 00f0 90000000 		.4byte	0x90
 5382 00f4 04       		.uleb128 0x4
 5383 00f5 1D120000 		.4byte	.LASF20
 5384 00f9 07       		.byte	0x7
 5385 00fa D8       		.byte	0xd8
 5386 00fb A2000000 		.4byte	0xa2
 5387 00ff 06       		.uleb128 0x6
 5388 0100 F4000000 		.4byte	0xf4
 5389 0104 04       		.uleb128 0x4
 5390 0105 6F110000 		.4byte	.LASF21
 5391 0109 08       		.byte	0x8
 5392 010a 45       		.byte	0x45
ARM GAS  /tmp/ccIHdayg.s 			page 97


 5393 010b D9000000 		.4byte	0xd9
 5394 010f 04       		.uleb128 0x4
 5395 0110 AA160000 		.4byte	.LASF22
 5396 0114 08       		.byte	0x8
 5397 0115 48       		.byte	0x48
 5398 0116 A9000000 		.4byte	0xa9
 5399 011a 04       		.uleb128 0x4
 5400 011b 9F270000 		.4byte	.LASF23
 5401 011f 08       		.byte	0x8
 5402 0120 49       		.byte	0x49
 5403 0121 A9000000 		.4byte	0xa9
 5404 0125 04       		.uleb128 0x4
 5405 0126 49160000 		.4byte	.LASF24
 5406 012a 08       		.byte	0x8
 5407 012b 4A       		.byte	0x4a
 5408 012c A9000000 		.4byte	0xa9
 5409 0130 04       		.uleb128 0x4
 5410 0131 64180000 		.4byte	.LASF25
 5411 0135 08       		.byte	0x8
 5412 0136 4B       		.byte	0x4b
 5413 0137 A9000000 		.4byte	0xa9
 5414 013b 04       		.uleb128 0x4
 5415 013c AE080000 		.4byte	.LASF26
 5416 0140 08       		.byte	0x8
 5417 0141 4C       		.byte	0x4c
 5418 0142 D9000000 		.4byte	0xd9
 5419 0146 04       		.uleb128 0x4
 5420 0147 C4000000 		.4byte	.LASF27
 5421 014b 08       		.byte	0x8
 5422 014c 4D       		.byte	0x4d
 5423 014d C9000000 		.4byte	0xc9
 5424 0151 04       		.uleb128 0x4
 5425 0152 BB1D0000 		.4byte	.LASF28
 5426 0156 08       		.byte	0x8
 5427 0157 4F       		.byte	0x4f
 5428 0158 D9000000 		.4byte	0xd9
 5429 015c 04       		.uleb128 0x4
 5430 015d 54290000 		.4byte	.LASF29
 5431 0161 08       		.byte	0x8
 5432 0162 50       		.byte	0x50
 5433 0163 D9000000 		.4byte	0xd9
 5434 0167 04       		.uleb128 0x4
 5435 0168 79200000 		.4byte	.LASF30
 5436 016c 08       		.byte	0x8
 5437 016d 51       		.byte	0x51
 5438 016e C9000000 		.4byte	0xc9
 5439 0172 04       		.uleb128 0x4
 5440 0173 37050000 		.4byte	.LASF31
 5441 0177 09       		.byte	0x9
 5442 0178 33       		.byte	0x33
 5443 0179 D9000000 		.4byte	0xd9
 5444 017d 06       		.uleb128 0x6
 5445 017e 72010000 		.4byte	0x172
 5446 0182 04       		.uleb128 0x4
 5447 0183 C9040000 		.4byte	.LASF32
 5448 0187 09       		.byte	0x9
 5449 0188 3F       		.byte	0x3f
ARM GAS  /tmp/ccIHdayg.s 			page 98


 5450 0189 8D010000 		.4byte	0x18d
 5451 018d 07       		.uleb128 0x7
 5452 018e 440C0000 		.4byte	.LASF56
 5453 0192 50       		.byte	0x50
 5454 0193 0A       		.byte	0xa
 5455 0194 C2       		.byte	0xc2
 5456 0195 AB020000 		.4byte	0x2ab
 5457 0199 08       		.uleb128 0x8
 5458 019a 9C150000 		.4byte	.LASF33
 5459 019e 0A       		.byte	0xa
 5460 019f C3       		.byte	0xc3
 5461 01a0 B6020000 		.4byte	0x2b6
 5462 01a4 00       		.byte	0
 5463 01a5 08       		.uleb128 0x8
 5464 01a6 78120000 		.4byte	.LASF34
 5465 01aa 0A       		.byte	0xa
 5466 01ab C5       		.byte	0xc5
 5467 01ac B6020000 		.4byte	0x2b6
 5468 01b0 04       		.byte	0x4
 5469 01b1 08       		.uleb128 0x8
 5470 01b2 C4140000 		.4byte	.LASF35
 5471 01b6 0A       		.byte	0xa
 5472 01b7 C7       		.byte	0xc7
 5473 01b8 3B010000 		.4byte	0x13b
 5474 01bc 08       		.byte	0x8
 5475 01bd 08       		.uleb128 0x8
 5476 01be 6B0D0000 		.4byte	.LASF36
 5477 01c2 0A       		.byte	0xa
 5478 01c3 C8       		.byte	0xc8
 5479 01c4 81090000 		.4byte	0x981
 5480 01c8 0C       		.byte	0xc
 5481 01c9 08       		.uleb128 0x8
 5482 01ca 00040000 		.4byte	.LASF37
 5483 01ce 0A       		.byte	0xa
 5484 01cf CA       		.byte	0xca
 5485 01d0 B6020000 		.4byte	0x2b6
 5486 01d4 10       		.byte	0x10
 5487 01d5 08       		.uleb128 0x8
 5488 01d6 132A0000 		.4byte	.LASF38
 5489 01da 0A       		.byte	0xa
 5490 01db CB       		.byte	0xcb
 5491 01dc B6020000 		.4byte	0x2b6
 5492 01e0 14       		.byte	0x14
 5493 01e1 08       		.uleb128 0x8
 5494 01e2 0D280000 		.4byte	.LASF39
 5495 01e6 0A       		.byte	0xa
 5496 01e7 D2       		.byte	0xd2
 5497 01e8 C60B0000 		.4byte	0xbc6
 5498 01ec 18       		.byte	0x18
 5499 01ed 08       		.uleb128 0x8
 5500 01ee 6E200000 		.4byte	.LASF40
 5501 01f2 0A       		.byte	0xa
 5502 01f3 D8       		.byte	0xd8
 5503 01f4 DD0B0000 		.4byte	0xbdd
 5504 01f8 1C       		.byte	0x1c
 5505 01f9 08       		.uleb128 0x8
 5506 01fa CB2C0000 		.4byte	.LASF41
ARM GAS  /tmp/ccIHdayg.s 			page 99


 5507 01fe 0A       		.byte	0xa
 5508 01ff DD       		.byte	0xdd
 5509 0200 1A010000 		.4byte	0x11a
 5510 0204 20       		.byte	0x20
 5511 0205 08       		.uleb128 0x8
 5512 0206 01270000 		.4byte	.LASF42
 5513 020a 0A       		.byte	0xa
 5514 020b E1       		.byte	0xe1
 5515 020c 0F010000 		.4byte	0x10f
 5516 0210 21       		.byte	0x21
 5517 0211 08       		.uleb128 0x8
 5518 0212 EA1B0000 		.4byte	.LASF43
 5519 0216 0A       		.byte	0xa
 5520 0217 E6       		.byte	0xe6
 5521 0218 25010000 		.4byte	0x125
 5522 021c 22       		.byte	0x22
 5523 021d 08       		.uleb128 0x8
 5524 021e 97190000 		.4byte	.LASF44
 5525 0222 0A       		.byte	0xa
 5526 0223 EC       		.byte	0xec
 5527 0224 30010000 		.4byte	0x130
 5528 0228 23       		.byte	0x23
 5529 0229 08       		.uleb128 0x8
 5530 022a B2190000 		.4byte	.LASF45
 5531 022e 0A       		.byte	0xa
 5532 022f F3       		.byte	0xf3
 5533 0230 7D010000 		.4byte	0x17d
 5534 0234 24       		.byte	0x24
 5535 0235 09       		.uleb128 0x9
 5536 0236 705F7500 		.ascii	"p_u\000"
 5537 023a 0A       		.byte	0xa
 5538 023b 3101     		.2byte	0x131
 5539 023d 010B0000 		.4byte	0xb01
 5540 0241 28       		.byte	0x28
 5541 0242 0A       		.uleb128 0xa
 5542 0243 12070000 		.4byte	.LASF46
 5543 0247 0A       		.byte	0xa
 5544 0248 3601     		.2byte	0x136
 5545 024a BC020000 		.4byte	0x2bc
 5546 024e 2C       		.byte	0x2c
 5547 024f 0A       		.uleb128 0xa
 5548 0250 361A0000 		.4byte	.LASF47
 5549 0254 0A       		.byte	0xa
 5550 0255 3C01     		.2byte	0x13c
 5551 0257 E0020000 		.4byte	0x2e0
 5552 025b 30       		.byte	0x30
 5553 025c 0A       		.uleb128 0xa
 5554 025d 0A0A0000 		.4byte	.LASF48
 5555 0261 0A       		.byte	0xa
 5556 0262 4001     		.2byte	0x140
 5557 0264 46010000 		.4byte	0x146
 5558 0268 38       		.byte	0x38
 5559 0269 0A       		.uleb128 0xa
 5560 026a E2230000 		.4byte	.LASF49
 5561 026e 0A       		.byte	0xa
 5562 026f 4601     		.2byte	0x146
 5563 0271 51010000 		.4byte	0x151
ARM GAS  /tmp/ccIHdayg.s 			page 100


 5564 0275 3C       		.byte	0x3c
 5565 0276 0A       		.uleb128 0xa
 5566 0277 5E270000 		.4byte	.LASF50
 5567 027b 0A       		.byte	0xa
 5568 027c 4D01     		.2byte	0x14d
 5569 027e C00B0000 		.4byte	0xbc0
 5570 0282 40       		.byte	0x40
 5571 0283 0A       		.uleb128 0xa
 5572 0284 1B220000 		.4byte	.LASF51
 5573 0288 0A       		.byte	0xa
 5574 0289 5101     		.2byte	0x151
 5575 028b 3B010000 		.4byte	0x13b
 5576 028f 44       		.byte	0x44
 5577 0290 0A       		.uleb128 0xa
 5578 0291 51160000 		.4byte	.LASF52
 5579 0295 0A       		.byte	0xa
 5580 0296 5801     		.2byte	0x158
 5581 0298 93030000 		.4byte	0x393
 5582 029c 48       		.byte	0x48
 5583 029d 0A       		.uleb128 0xa
 5584 029e 38090000 		.4byte	.LASF53
 5585 02a2 0A       		.byte	0xa
 5586 02a3 6201     		.2byte	0x162
 5587 02a5 2C000000 		.4byte	0x2c
 5588 02a9 4C       		.byte	0x4c
 5589 02aa 00       		.byte	0
 5590 02ab 04       		.uleb128 0x4
 5591 02ac 892A0000 		.4byte	.LASF54
 5592 02b0 09       		.byte	0x9
 5593 02b1 44       		.byte	0x44
 5594 02b2 B6020000 		.4byte	0x2b6
 5595 02b6 0B       		.uleb128 0xb
 5596 02b7 04       		.byte	0x4
 5597 02b8 82010000 		.4byte	0x182
 5598 02bc 04       		.uleb128 0x4
 5599 02bd 74070000 		.4byte	.LASF55
 5600 02c1 09       		.byte	0x9
 5601 02c2 49       		.byte	0x49
 5602 02c3 C7020000 		.4byte	0x2c7
 5603 02c7 07       		.uleb128 0x7
 5604 02c8 EA2C0000 		.4byte	.LASF57
 5605 02cc 04       		.byte	0x4
 5606 02cd 0A       		.byte	0xa
 5607 02ce B0       		.byte	0xb0
 5608 02cf E0020000 		.4byte	0x2e0
 5609 02d3 08       		.uleb128 0x8
 5610 02d4 9C150000 		.4byte	.LASF33
 5611 02d8 0A       		.byte	0xa
 5612 02d9 B1       		.byte	0xb1
 5613 02da B6020000 		.4byte	0x2b6
 5614 02de 00       		.byte	0
 5615 02df 00       		.byte	0
 5616 02e0 04       		.uleb128 0x4
 5617 02e1 BF1B0000 		.4byte	.LASF58
 5618 02e5 09       		.byte	0x9
 5619 02e6 50       		.byte	0x50
 5620 02e7 EB020000 		.4byte	0x2eb
ARM GAS  /tmp/ccIHdayg.s 			page 101


 5621 02eb 07       		.uleb128 0x7
 5622 02ec CE030000 		.4byte	.LASF59
 5623 02f0 08       		.byte	0x8
 5624 02f1 0A       		.byte	0xa
 5625 02f2 B7       		.byte	0xb7
 5626 02f3 10030000 		.4byte	0x310
 5627 02f7 08       		.uleb128 0x8
 5628 02f8 9C150000 		.4byte	.LASF33
 5629 02fc 0A       		.byte	0xa
 5630 02fd B8       		.byte	0xb8
 5631 02fe B6020000 		.4byte	0x2b6
 5632 0302 00       		.byte	0
 5633 0303 08       		.uleb128 0x8
 5634 0304 78120000 		.4byte	.LASF34
 5635 0308 0A       		.byte	0xa
 5636 0309 B9       		.byte	0xb9
 5637 030a B6020000 		.4byte	0x2b6
 5638 030e 04       		.byte	0x4
 5639 030f 00       		.byte	0
 5640 0310 04       		.uleb128 0x4
 5641 0311 370C0000 		.4byte	.LASF60
 5642 0315 09       		.byte	0x9
 5643 0316 57       		.byte	0x57
 5644 0317 1B030000 		.4byte	0x31b
 5645 031b 0C       		.uleb128 0xc
 5646 031c D7220000 		.4byte	.LASF61
 5647 0320 1C       		.byte	0x1c
 5648 0321 0A       		.byte	0xa
 5649 0322 9001     		.2byte	0x190
 5650 0324 77030000 		.4byte	0x377
 5651 0328 0A       		.uleb128 0xa
 5652 0329 0B1F0000 		.4byte	.LASF62
 5653 032d 0A       		.byte	0xa
 5654 032e 9101     		.2byte	0x191
 5655 0330 E0020000 		.4byte	0x2e0
 5656 0334 00       		.byte	0
 5657 0335 0A       		.uleb128 0xa
 5658 0336 E0240000 		.4byte	.LASF63
 5659 033a 0A       		.byte	0xa
 5660 033b 9201     		.2byte	0x192
 5661 033d 3B010000 		.4byte	0x13b
 5662 0341 08       		.byte	0x8
 5663 0342 0A       		.uleb128 0xa
 5664 0343 3B110000 		.4byte	.LASF64
 5665 0347 0A       		.byte	0xa
 5666 0348 9401     		.2byte	0x194
 5667 034a 81090000 		.4byte	0x981
 5668 034e 0C       		.byte	0xc
 5669 034f 0A       		.uleb128 0xa
 5670 0350 F0170000 		.4byte	.LASF65
 5671 0354 0A       		.byte	0xa
 5672 0355 9701     		.2byte	0x197
 5673 0357 B6020000 		.4byte	0x2b6
 5674 035b 10       		.byte	0x10
 5675 035c 0A       		.uleb128 0xa
 5676 035d 70120000 		.4byte	.LASF66
 5677 0361 0A       		.byte	0xa
ARM GAS  /tmp/ccIHdayg.s 			page 102


 5678 0362 9801     		.2byte	0x198
 5679 0364 B6020000 		.4byte	0x2b6
 5680 0368 14       		.byte	0x14
 5681 0369 0A       		.uleb128 0xa
 5682 036a 960D0000 		.4byte	.LASF67
 5683 036e 0A       		.byte	0xa
 5684 036f 9B01     		.2byte	0x19b
 5685 0371 B6020000 		.4byte	0x2b6
 5686 0375 18       		.byte	0x18
 5687 0376 00       		.byte	0
 5688 0377 04       		.uleb128 0x4
 5689 0378 DC210000 		.4byte	.LASF68
 5690 037c 09       		.byte	0x9
 5691 037d 5C       		.byte	0x5c
 5692 037e 82030000 		.4byte	0x382
 5693 0382 0B       		.uleb128 0xb
 5694 0383 04       		.byte	0x4
 5695 0384 88030000 		.4byte	0x388
 5696 0388 0D       		.uleb128 0xd
 5697 0389 93030000 		.4byte	0x393
 5698 038d 0E       		.uleb128 0xe
 5699 038e 93030000 		.4byte	0x393
 5700 0392 00       		.byte	0
 5701 0393 0F       		.uleb128 0xf
 5702 0394 04       		.byte	0x4
 5703 0395 04       		.uleb128 0x4
 5704 0396 2B110000 		.4byte	.LASF69
 5705 039a 09       		.byte	0x9
 5706 039b 61       		.byte	0x61
 5707 039c A0030000 		.4byte	0x3a0
 5708 03a0 0C       		.uleb128 0xc
 5709 03a1 F0260000 		.4byte	.LASF70
 5710 03a5 14       		.byte	0x14
 5711 03a6 0A       		.byte	0xa
 5712 03a7 6B01     		.2byte	0x16b
 5713 03a9 EF030000 		.4byte	0x3ef
 5714 03ad 0A       		.uleb128 0xa
 5715 03ae 41110000 		.4byte	.LASF71
 5716 03b2 0A       		.byte	0xa
 5717 03b3 6C01     		.2byte	0x16c
 5718 03b5 E30B0000 		.4byte	0xbe3
 5719 03b9 00       		.byte	0
 5720 03ba 0A       		.uleb128 0xa
 5721 03bb B50B0000 		.4byte	.LASF72
 5722 03bf 0A       		.byte	0xa
 5723 03c0 6D01     		.2byte	0x16d
 5724 03c2 E30B0000 		.4byte	0xbe3
 5725 03c6 04       		.byte	0x4
 5726 03c7 0A       		.uleb128 0xa
 5727 03c8 EF180000 		.4byte	.LASF73
 5728 03cc 0A       		.byte	0xa
 5729 03cd 6E01     		.2byte	0x16e
 5730 03cf 72010000 		.4byte	0x172
 5731 03d3 08       		.byte	0x8
 5732 03d4 0A       		.uleb128 0xa
 5733 03d5 A6260000 		.4byte	.LASF74
 5734 03d9 0A       		.byte	0xa
ARM GAS  /tmp/ccIHdayg.s 			page 103


 5735 03da 6F01     		.2byte	0x16f
 5736 03dc 77030000 		.4byte	0x377
 5737 03e0 0C       		.byte	0xc
 5738 03e1 0A       		.uleb128 0xa
 5739 03e2 710D0000 		.4byte	.LASF75
 5740 03e6 0A       		.byte	0xa
 5741 03e7 7101     		.2byte	0x171
 5742 03e9 93030000 		.4byte	0x393
 5743 03ed 10       		.byte	0x10
 5744 03ee 00       		.byte	0
 5745 03ef 04       		.uleb128 0x4
 5746 03f0 5D280000 		.4byte	.LASF76
 5747 03f4 09       		.byte	0x9
 5748 03f5 66       		.byte	0x66
 5749 03f6 FA030000 		.4byte	0x3fa
 5750 03fa 0C       		.uleb128 0xc
 5751 03fb F7040000 		.4byte	.LASF77
 5752 03ff 10       		.byte	0x10
 5753 0400 0A       		.byte	0xa
 5754 0401 7B01     		.2byte	0x17b
 5755 0403 3C040000 		.4byte	0x43c
 5756 0407 0A       		.uleb128 0xa
 5757 0408 41110000 		.4byte	.LASF71
 5758 040c 0A       		.byte	0xa
 5759 040d 7C01     		.2byte	0x17c
 5760 040f E30B0000 		.4byte	0xbe3
 5761 0413 00       		.byte	0
 5762 0414 0A       		.uleb128 0xa
 5763 0415 B50B0000 		.4byte	.LASF72
 5764 0419 0A       		.byte	0xa
 5765 041a 7E01     		.2byte	0x17e
 5766 041c E30B0000 		.4byte	0xbe3
 5767 0420 04       		.byte	0x4
 5768 0421 0A       		.uleb128 0xa
 5769 0422 EF180000 		.4byte	.LASF73
 5770 0426 0A       		.byte	0xa
 5771 0427 8001     		.2byte	0x180
 5772 0429 72010000 		.4byte	0x172
 5773 042d 08       		.byte	0x8
 5774 042e 0A       		.uleb128 0xa
 5775 042f BA020000 		.4byte	.LASF78
 5776 0433 0A       		.byte	0xa
 5777 0434 8201     		.2byte	0x182
 5778 0436 7D010000 		.4byte	0x17d
 5779 043a 0C       		.byte	0xc
 5780 043b 00       		.byte	0
 5781 043c 04       		.uleb128 0x4
 5782 043d 200D0000 		.4byte	.LASF79
 5783 0441 09       		.byte	0x9
 5784 0442 6B       		.byte	0x6b
 5785 0443 47040000 		.4byte	0x447
 5786 0447 0C       		.uleb128 0xc
 5787 0448 2E230000 		.4byte	.LASF80
 5788 044c 04       		.byte	0x4
 5789 044d 0A       		.byte	0xa
 5790 044e A201     		.2byte	0x1a2
 5791 0450 62040000 		.4byte	0x462
ARM GAS  /tmp/ccIHdayg.s 			page 104


 5792 0454 0A       		.uleb128 0xa
 5793 0455 D3170000 		.4byte	.LASF81
 5794 0459 0A       		.byte	0xa
 5795 045a AA01     		.2byte	0x1aa
 5796 045c CC0B0000 		.4byte	0xbcc
 5797 0460 00       		.byte	0
 5798 0461 00       		.byte	0
 5799 0462 04       		.uleb128 0x4
 5800 0463 78010000 		.4byte	.LASF82
 5801 0467 09       		.byte	0x9
 5802 0468 70       		.byte	0x70
 5803 0469 6D040000 		.4byte	0x46d
 5804 046d 10       		.uleb128 0x10
 5805 046e 061B0000 		.4byte	.LASF83
 5806 0472 6802     		.2byte	0x268
 5807 0474 0A       		.byte	0xa
 5808 0475 C201     		.2byte	0x1c2
 5809 0477 C9040000 		.4byte	0x4c9
 5810 047b 0A       		.uleb128 0xa
 5811 047c 6E070000 		.4byte	.LASF84
 5812 0480 0A       		.byte	0xa
 5813 0481 C601     		.2byte	0x1c6
 5814 0483 10030000 		.4byte	0x310
 5815 0487 00       		.byte	0
 5816 0488 0A       		.uleb128 0xa
 5817 0489 DC060000 		.4byte	.LASF85
 5818 048d 0A       		.byte	0xa
 5819 048e CA01     		.2byte	0x1ca
 5820 0490 EF030000 		.4byte	0x3ef
 5821 0494 1C       		.byte	0x1c
 5822 0495 09       		.uleb128 0x9
 5823 0496 64626700 		.ascii	"dbg\000"
 5824 049a 0A       		.byte	0xa
 5825 049b CE01     		.2byte	0x1ce
 5826 049d 3C040000 		.4byte	0x43c
 5827 04a1 2C       		.byte	0x2c
 5828 04a2 0A       		.uleb128 0xa
 5829 04a3 1A1C0000 		.4byte	.LASF86
 5830 04a7 0A       		.byte	0xa
 5831 04a8 D201     		.2byte	0x1d2
 5832 04aa 82010000 		.4byte	0x182
 5833 04ae 30       		.byte	0x30
 5834 04af 09       		.uleb128 0x9
 5835 04b0 746D00   		.ascii	"tm\000"
 5836 04b3 0A       		.byte	0xa
 5837 04b4 D701     		.2byte	0x1d7
 5838 04b6 F60A0000 		.4byte	0xaf6
 5839 04ba 80       		.byte	0x80
 5840 04bb 0A       		.uleb128 0xa
 5841 04bc 69260000 		.4byte	.LASF87
 5842 04c0 0A       		.byte	0xa
 5843 04c1 E301     		.2byte	0x1e3
 5844 04c3 E90B0000 		.4byte	0xbe9
 5845 04c7 88       		.byte	0x88
 5846 04c8 00       		.byte	0
 5847 04c9 11       		.uleb128 0x11
 5848 04ca D9000000 		.4byte	0xd9
ARM GAS  /tmp/ccIHdayg.s 			page 105


 5849 04ce D9040000 		.4byte	0x4d9
 5850 04d2 12       		.uleb128 0x12
 5851 04d3 A2000000 		.4byte	0xa2
 5852 04d7 07       		.byte	0x7
 5853 04d8 00       		.byte	0
 5854 04d9 13       		.uleb128 0x13
 5855 04da 0A250000 		.4byte	.LASF88
 5856 04de 0B       		.byte	0xb
 5857 04df A706     		.2byte	0x6a7
 5858 04e1 D4000000 		.4byte	0xd4
 5859 04e5 14       		.uleb128 0x14
 5860 04e6 7D1A0000 		.4byte	.LASF89
 5861 04ea 0C       		.byte	0xc
 5862 04eb 4C       		.byte	0x4c
 5863 04ec D9000000 		.4byte	0xd9
 5864 04f0 15       		.uleb128 0x15
 5865 04f1 10       		.byte	0x10
 5866 04f2 0D       		.byte	0xd
 5867 04f3 E9       		.byte	0xe9
 5868 04f4 29050000 		.4byte	0x529
 5869 04f8 16       		.uleb128 0x16
 5870 04f9 54495200 		.ascii	"TIR\000"
 5871 04fd 0D       		.byte	0xd
 5872 04fe EB       		.byte	0xeb
 5873 04ff E4000000 		.4byte	0xe4
 5874 0503 00       		.byte	0
 5875 0504 08       		.uleb128 0x8
 5876 0505 89140000 		.4byte	.LASF90
 5877 0509 0D       		.byte	0xd
 5878 050a EC       		.byte	0xec
 5879 050b E4000000 		.4byte	0xe4
 5880 050f 04       		.byte	0x4
 5881 0510 08       		.uleb128 0x8
 5882 0511 0C1C0000 		.4byte	.LASF91
 5883 0515 0D       		.byte	0xd
 5884 0516 ED       		.byte	0xed
 5885 0517 E4000000 		.4byte	0xe4
 5886 051b 08       		.byte	0x8
 5887 051c 08       		.uleb128 0x8
 5888 051d B9190000 		.4byte	.LASF92
 5889 0521 0D       		.byte	0xd
 5890 0522 EE       		.byte	0xee
 5891 0523 E4000000 		.4byte	0xe4
 5892 0527 0C       		.byte	0xc
 5893 0528 00       		.byte	0
 5894 0529 04       		.uleb128 0x4
 5895 052a 58070000 		.4byte	.LASF93
 5896 052e 0D       		.byte	0xd
 5897 052f EF       		.byte	0xef
 5898 0530 F0040000 		.4byte	0x4f0
 5899 0534 15       		.uleb128 0x15
 5900 0535 10       		.byte	0x10
 5901 0536 0D       		.byte	0xd
 5902 0537 F5       		.byte	0xf5
 5903 0538 6D050000 		.4byte	0x56d
 5904 053c 16       		.uleb128 0x16
 5905 053d 52495200 		.ascii	"RIR\000"
ARM GAS  /tmp/ccIHdayg.s 			page 106


 5906 0541 0D       		.byte	0xd
 5907 0542 F7       		.byte	0xf7
 5908 0543 E4000000 		.4byte	0xe4
 5909 0547 00       		.byte	0
 5910 0548 08       		.uleb128 0x8
 5911 0549 B0220000 		.4byte	.LASF94
 5912 054d 0D       		.byte	0xd
 5913 054e F8       		.byte	0xf8
 5914 054f E4000000 		.4byte	0xe4
 5915 0553 04       		.byte	0x4
 5916 0554 08       		.uleb128 0x8
 5917 0555 6F1D0000 		.4byte	.LASF95
 5918 0559 0D       		.byte	0xd
 5919 055a F9       		.byte	0xf9
 5920 055b E4000000 		.4byte	0xe4
 5921 055f 08       		.byte	0x8
 5922 0560 08       		.uleb128 0x8
 5923 0561 F71A0000 		.4byte	.LASF96
 5924 0565 0D       		.byte	0xd
 5925 0566 FA       		.byte	0xfa
 5926 0567 E4000000 		.4byte	0xe4
 5927 056b 0C       		.byte	0xc
 5928 056c 00       		.byte	0
 5929 056d 04       		.uleb128 0x4
 5930 056e E5210000 		.4byte	.LASF97
 5931 0572 0D       		.byte	0xd
 5932 0573 FB       		.byte	0xfb
 5933 0574 34050000 		.4byte	0x534
 5934 0578 17       		.uleb128 0x17
 5935 0579 08       		.byte	0x8
 5936 057a 0D       		.byte	0xd
 5937 057b 0101     		.2byte	0x101
 5938 057d 9C050000 		.4byte	0x59c
 5939 0581 09       		.uleb128 0x9
 5940 0582 46523100 		.ascii	"FR1\000"
 5941 0586 0D       		.byte	0xd
 5942 0587 0301     		.2byte	0x103
 5943 0589 E4000000 		.4byte	0xe4
 5944 058d 00       		.byte	0
 5945 058e 09       		.uleb128 0x9
 5946 058f 46523200 		.ascii	"FR2\000"
 5947 0593 0D       		.byte	0xd
 5948 0594 0401     		.2byte	0x104
 5949 0596 E4000000 		.4byte	0xe4
 5950 059a 04       		.byte	0x4
 5951 059b 00       		.byte	0
 5952 059c 18       		.uleb128 0x18
 5953 059d 8E140000 		.4byte	.LASF98
 5954 05a1 0D       		.byte	0xd
 5955 05a2 0501     		.2byte	0x105
 5956 05a4 78050000 		.4byte	0x578
 5957 05a8 19       		.uleb128 0x19
 5958 05a9 2003     		.2byte	0x320
 5959 05ab 0D       		.byte	0xd
 5960 05ac 0B01     		.2byte	0x10b
 5961 05ae DE060000 		.4byte	0x6de
 5962 05b2 09       		.uleb128 0x9
ARM GAS  /tmp/ccIHdayg.s 			page 107


 5963 05b3 4D435200 		.ascii	"MCR\000"
 5964 05b7 0D       		.byte	0xd
 5965 05b8 0D01     		.2byte	0x10d
 5966 05ba E4000000 		.4byte	0xe4
 5967 05be 00       		.byte	0
 5968 05bf 09       		.uleb128 0x9
 5969 05c0 4D535200 		.ascii	"MSR\000"
 5970 05c4 0D       		.byte	0xd
 5971 05c5 0E01     		.2byte	0x10e
 5972 05c7 E4000000 		.4byte	0xe4
 5973 05cb 04       		.byte	0x4
 5974 05cc 09       		.uleb128 0x9
 5975 05cd 54535200 		.ascii	"TSR\000"
 5976 05d1 0D       		.byte	0xd
 5977 05d2 0F01     		.2byte	0x10f
 5978 05d4 E4000000 		.4byte	0xe4
 5979 05d8 08       		.byte	0x8
 5980 05d9 0A       		.uleb128 0xa
 5981 05da 25130000 		.4byte	.LASF99
 5982 05de 0D       		.byte	0xd
 5983 05df 1001     		.2byte	0x110
 5984 05e1 E4000000 		.4byte	0xe4
 5985 05e5 0C       		.byte	0xc
 5986 05e6 0A       		.uleb128 0xa
 5987 05e7 B4130000 		.4byte	.LASF100
 5988 05eb 0D       		.byte	0xd
 5989 05ec 1101     		.2byte	0x111
 5990 05ee E4000000 		.4byte	0xe4
 5991 05f2 10       		.byte	0x10
 5992 05f3 09       		.uleb128 0x9
 5993 05f4 49455200 		.ascii	"IER\000"
 5994 05f8 0D       		.byte	0xd
 5995 05f9 1201     		.2byte	0x112
 5996 05fb E4000000 		.4byte	0xe4
 5997 05ff 14       		.byte	0x14
 5998 0600 09       		.uleb128 0x9
 5999 0601 45535200 		.ascii	"ESR\000"
 6000 0605 0D       		.byte	0xd
 6001 0606 1301     		.2byte	0x113
 6002 0608 E4000000 		.4byte	0xe4
 6003 060c 18       		.byte	0x18
 6004 060d 09       		.uleb128 0x9
 6005 060e 42545200 		.ascii	"BTR\000"
 6006 0612 0D       		.byte	0xd
 6007 0613 1401     		.2byte	0x114
 6008 0615 E4000000 		.4byte	0xe4
 6009 0619 1C       		.byte	0x1c
 6010 061a 0A       		.uleb128 0xa
 6011 061b 15240000 		.4byte	.LASF101
 6012 061f 0D       		.byte	0xd
 6013 0620 1501     		.2byte	0x115
 6014 0622 DE060000 		.4byte	0x6de
 6015 0626 20       		.byte	0x20
 6016 0627 1A       		.uleb128 0x1a
 6017 0628 7D150000 		.4byte	.LASF102
 6018 062c 0D       		.byte	0xd
 6019 062d 1601     		.2byte	0x116
ARM GAS  /tmp/ccIHdayg.s 			page 108


 6020 062f EE060000 		.4byte	0x6ee
 6021 0633 8001     		.2byte	0x180
 6022 0635 1A       		.uleb128 0x1a
 6023 0636 B2290000 		.4byte	.LASF103
 6024 063a 0D       		.byte	0xd
 6025 063b 1701     		.2byte	0x117
 6026 063d FE060000 		.4byte	0x6fe
 6027 0641 B001     		.2byte	0x1b0
 6028 0643 1A       		.uleb128 0x1a
 6029 0644 1F240000 		.4byte	.LASF104
 6030 0648 0D       		.byte	0xd
 6031 0649 1801     		.2byte	0x118
 6032 064b 0E070000 		.4byte	0x70e
 6033 064f D001     		.2byte	0x1d0
 6034 0651 1B       		.uleb128 0x1b
 6035 0652 464D5200 		.ascii	"FMR\000"
 6036 0656 0D       		.byte	0xd
 6037 0657 1901     		.2byte	0x119
 6038 0659 E4000000 		.4byte	0xe4
 6039 065d 0002     		.2byte	0x200
 6040 065f 1A       		.uleb128 0x1a
 6041 0660 3F0E0000 		.4byte	.LASF105
 6042 0664 0D       		.byte	0xd
 6043 0665 1A01     		.2byte	0x11a
 6044 0667 E4000000 		.4byte	0xe4
 6045 066b 0402     		.2byte	0x204
 6046 066d 1A       		.uleb128 0x1a
 6047 066e 29240000 		.4byte	.LASF106
 6048 0672 0D       		.byte	0xd
 6049 0673 1B01     		.2byte	0x11b
 6050 0675 D9000000 		.4byte	0xd9
 6051 0679 0802     		.2byte	0x208
 6052 067b 1A       		.uleb128 0x1a
 6053 067c 89270000 		.4byte	.LASF107
 6054 0680 0D       		.byte	0xd
 6055 0681 1C01     		.2byte	0x11c
 6056 0683 E4000000 		.4byte	0xe4
 6057 0687 0C02     		.2byte	0x20c
 6058 0689 1A       		.uleb128 0x1a
 6059 068a 33240000 		.4byte	.LASF108
 6060 068e 0D       		.byte	0xd
 6061 068f 1D01     		.2byte	0x11d
 6062 0691 D9000000 		.4byte	0xd9
 6063 0695 1002     		.2byte	0x210
 6064 0697 1A       		.uleb128 0x1a
 6065 0698 F51D0000 		.4byte	.LASF109
 6066 069c 0D       		.byte	0xd
 6067 069d 1E01     		.2byte	0x11e
 6068 069f E4000000 		.4byte	0xe4
 6069 06a3 1402     		.2byte	0x214
 6070 06a5 1A       		.uleb128 0x1a
 6071 06a6 3D240000 		.4byte	.LASF110
 6072 06aa 0D       		.byte	0xd
 6073 06ab 1F01     		.2byte	0x11f
 6074 06ad D9000000 		.4byte	0xd9
 6075 06b1 1802     		.2byte	0x218
 6076 06b3 1A       		.uleb128 0x1a
ARM GAS  /tmp/ccIHdayg.s 			page 109


 6077 06b4 89050000 		.4byte	.LASF111
 6078 06b8 0D       		.byte	0xd
 6079 06b9 2001     		.2byte	0x120
 6080 06bb E4000000 		.4byte	0xe4
 6081 06bf 1C02     		.2byte	0x21c
 6082 06c1 1A       		.uleb128 0x1a
 6083 06c2 47240000 		.4byte	.LASF112
 6084 06c6 0D       		.byte	0xd
 6085 06c7 2101     		.2byte	0x121
 6086 06c9 C9040000 		.4byte	0x4c9
 6087 06cd 2002     		.2byte	0x220
 6088 06cf 1A       		.uleb128 0x1a
 6089 06d0 F8070000 		.4byte	.LASF113
 6090 06d4 0D       		.byte	0xd
 6091 06d5 2201     		.2byte	0x122
 6092 06d7 1E070000 		.4byte	0x71e
 6093 06db 4002     		.2byte	0x240
 6094 06dd 00       		.byte	0
 6095 06de 11       		.uleb128 0x11
 6096 06df D9000000 		.4byte	0xd9
 6097 06e3 EE060000 		.4byte	0x6ee
 6098 06e7 12       		.uleb128 0x12
 6099 06e8 A2000000 		.4byte	0xa2
 6100 06ec 57       		.byte	0x57
 6101 06ed 00       		.byte	0
 6102 06ee 11       		.uleb128 0x11
 6103 06ef 29050000 		.4byte	0x529
 6104 06f3 FE060000 		.4byte	0x6fe
 6105 06f7 12       		.uleb128 0x12
 6106 06f8 A2000000 		.4byte	0xa2
 6107 06fc 02       		.byte	0x2
 6108 06fd 00       		.byte	0
 6109 06fe 11       		.uleb128 0x11
 6110 06ff 6D050000 		.4byte	0x56d
 6111 0703 0E070000 		.4byte	0x70e
 6112 0707 12       		.uleb128 0x12
 6113 0708 A2000000 		.4byte	0xa2
 6114 070c 01       		.byte	0x1
 6115 070d 00       		.byte	0
 6116 070e 11       		.uleb128 0x11
 6117 070f D9000000 		.4byte	0xd9
 6118 0713 1E070000 		.4byte	0x71e
 6119 0717 12       		.uleb128 0x12
 6120 0718 A2000000 		.4byte	0xa2
 6121 071c 0B       		.byte	0xb
 6122 071d 00       		.byte	0
 6123 071e 11       		.uleb128 0x11
 6124 071f 9C050000 		.4byte	0x59c
 6125 0723 2E070000 		.4byte	0x72e
 6126 0727 12       		.uleb128 0x12
 6127 0728 A2000000 		.4byte	0xa2
 6128 072c 1B       		.byte	0x1b
 6129 072d 00       		.byte	0
 6130 072e 18       		.uleb128 0x18
 6131 072f E1110000 		.4byte	.LASF114
 6132 0733 0D       		.byte	0xd
 6133 0734 2301     		.2byte	0x123
ARM GAS  /tmp/ccIHdayg.s 			page 110


 6134 0736 A8050000 		.4byte	0x5a8
 6135 073a 17       		.uleb128 0x17
 6136 073b 18       		.byte	0x18
 6137 073c 0D       		.byte	0xd
 6138 073d 6B01     		.2byte	0x16b
 6139 073f 91070000 		.4byte	0x791
 6140 0743 09       		.uleb128 0x9
 6141 0744 435200   		.ascii	"CR\000"
 6142 0747 0D       		.byte	0xd
 6143 0748 6D01     		.2byte	0x16d
 6144 074a E4000000 		.4byte	0xe4
 6145 074e 00       		.byte	0
 6146 074f 0A       		.uleb128 0xa
 6147 0750 45260000 		.4byte	.LASF115
 6148 0754 0D       		.byte	0xd
 6149 0755 6E01     		.2byte	0x16e
 6150 0757 E4000000 		.4byte	0xe4
 6151 075b 04       		.byte	0x4
 6152 075c 09       		.uleb128 0x9
 6153 075d 50415200 		.ascii	"PAR\000"
 6154 0761 0D       		.byte	0xd
 6155 0762 6F01     		.2byte	0x16f
 6156 0764 E4000000 		.4byte	0xe4
 6157 0768 08       		.byte	0x8
 6158 0769 0A       		.uleb128 0xa
 6159 076a 5B050000 		.4byte	.LASF116
 6160 076e 0D       		.byte	0xd
 6161 076f 7001     		.2byte	0x170
 6162 0771 E4000000 		.4byte	0xe4
 6163 0775 0C       		.byte	0xc
 6164 0776 0A       		.uleb128 0xa
 6165 0777 2D0A0000 		.4byte	.LASF117
 6166 077b 0D       		.byte	0xd
 6167 077c 7101     		.2byte	0x171
 6168 077e E4000000 		.4byte	0xe4
 6169 0782 10       		.byte	0x10
 6170 0783 09       		.uleb128 0x9
 6171 0784 46435200 		.ascii	"FCR\000"
 6172 0788 0D       		.byte	0xd
 6173 0789 7201     		.2byte	0x172
 6174 078b E4000000 		.4byte	0xe4
 6175 078f 14       		.byte	0x14
 6176 0790 00       		.byte	0
 6177 0791 18       		.uleb128 0x18
 6178 0792 370A0000 		.4byte	.LASF118
 6179 0796 0D       		.byte	0xd
 6180 0797 7301     		.2byte	0x173
 6181 0799 3A070000 		.4byte	0x73a
 6182 079d 11       		.uleb128 0x11
 6183 079e E4000000 		.4byte	0xe4
 6184 07a2 AD070000 		.4byte	0x7ad
 6185 07a6 12       		.uleb128 0x12
 6186 07a7 A2000000 		.4byte	0xa2
 6187 07ab 01       		.byte	0x1
 6188 07ac 00       		.byte	0
 6189 07ad 06       		.uleb128 0x6
 6190 07ae 9D070000 		.4byte	0x79d
ARM GAS  /tmp/ccIHdayg.s 			page 111


 6191 07b2 11       		.uleb128 0x11
 6192 07b3 E4000000 		.4byte	0xe4
 6193 07b7 C2070000 		.4byte	0x7c2
 6194 07bb 12       		.uleb128 0x12
 6195 07bc A2000000 		.4byte	0xa2
 6196 07c0 03       		.byte	0x3
 6197 07c1 00       		.byte	0
 6198 07c2 06       		.uleb128 0x6
 6199 07c3 B2070000 		.4byte	0x7b2
 6200 07c7 17       		.uleb128 0x17
 6201 07c8 28       		.byte	0x28
 6202 07c9 0D       		.byte	0xd
 6203 07ca 3F02     		.2byte	0x23f
 6204 07cc 52080000 		.4byte	0x852
 6205 07d0 09       		.uleb128 0x9
 6206 07d1 43523100 		.ascii	"CR1\000"
 6207 07d5 0D       		.byte	0xd
 6208 07d6 4102     		.2byte	0x241
 6209 07d8 E4000000 		.4byte	0xe4
 6210 07dc 00       		.byte	0
 6211 07dd 09       		.uleb128 0x9
 6212 07de 43523200 		.ascii	"CR2\000"
 6213 07e2 0D       		.byte	0xd
 6214 07e3 4202     		.2byte	0x242
 6215 07e5 E4000000 		.4byte	0xe4
 6216 07e9 04       		.byte	0x4
 6217 07ea 0A       		.uleb128 0xa
 6218 07eb FA2C0000 		.4byte	.LASF119
 6219 07ef 0D       		.byte	0xd
 6220 07f0 4302     		.2byte	0x243
 6221 07f2 E4000000 		.4byte	0xe4
 6222 07f6 08       		.byte	0x8
 6223 07f7 0A       		.uleb128 0xa
 6224 07f8 FF2C0000 		.4byte	.LASF120
 6225 07fc 0D       		.byte	0xd
 6226 07fd 4402     		.2byte	0x244
 6227 07ff E4000000 		.4byte	0xe4
 6228 0803 0C       		.byte	0xc
 6229 0804 09       		.uleb128 0x9
 6230 0805 445200   		.ascii	"DR\000"
 6231 0808 0D       		.byte	0xd
 6232 0809 4502     		.2byte	0x245
 6233 080b E4000000 		.4byte	0xe4
 6234 080f 10       		.byte	0x10
 6235 0810 09       		.uleb128 0x9
 6236 0811 53523100 		.ascii	"SR1\000"
 6237 0815 0D       		.byte	0xd
 6238 0816 4602     		.2byte	0x246
 6239 0818 E4000000 		.4byte	0xe4
 6240 081c 14       		.byte	0x14
 6241 081d 09       		.uleb128 0x9
 6242 081e 53523200 		.ascii	"SR2\000"
 6243 0822 0D       		.byte	0xd
 6244 0823 4702     		.2byte	0x247
 6245 0825 E4000000 		.4byte	0xe4
 6246 0829 18       		.byte	0x18
 6247 082a 09       		.uleb128 0x9
ARM GAS  /tmp/ccIHdayg.s 			page 112


 6248 082b 43435200 		.ascii	"CCR\000"
 6249 082f 0D       		.byte	0xd
 6250 0830 4802     		.2byte	0x248
 6251 0832 E4000000 		.4byte	0xe4
 6252 0836 1C       		.byte	0x1c
 6253 0837 0A       		.uleb128 0xa
 6254 0838 03070000 		.4byte	.LASF121
 6255 083c 0D       		.byte	0xd
 6256 083d 4902     		.2byte	0x249
 6257 083f E4000000 		.4byte	0xe4
 6258 0843 20       		.byte	0x20
 6259 0844 0A       		.uleb128 0xa
 6260 0845 3C2B0000 		.4byte	.LASF122
 6261 0849 0D       		.byte	0xd
 6262 084a 4A02     		.2byte	0x24a
 6263 084c E4000000 		.4byte	0xe4
 6264 0850 24       		.byte	0x24
 6265 0851 00       		.byte	0
 6266 0852 18       		.uleb128 0x18
 6267 0853 EB1A0000 		.4byte	.LASF123
 6268 0857 0D       		.byte	0xd
 6269 0858 4B02     		.2byte	0x24b
 6270 085a C7070000 		.4byte	0x7c7
 6271 085e 17       		.uleb128 0x17
 6272 085f 24       		.byte	0x24
 6273 0860 0D       		.byte	0xd
 6274 0861 DB02     		.2byte	0x2db
 6275 0863 DB080000 		.4byte	0x8db
 6276 0867 09       		.uleb128 0x9
 6277 0868 43523100 		.ascii	"CR1\000"
 6278 086c 0D       		.byte	0xd
 6279 086d DD02     		.2byte	0x2dd
 6280 086f E4000000 		.4byte	0xe4
 6281 0873 00       		.byte	0
 6282 0874 09       		.uleb128 0x9
 6283 0875 43523200 		.ascii	"CR2\000"
 6284 0879 0D       		.byte	0xd
 6285 087a DE02     		.2byte	0x2de
 6286 087c E4000000 		.4byte	0xe4
 6287 0880 04       		.byte	0x4
 6288 0881 09       		.uleb128 0x9
 6289 0882 535200   		.ascii	"SR\000"
 6290 0885 0D       		.byte	0xd
 6291 0886 DF02     		.2byte	0x2df
 6292 0888 E4000000 		.4byte	0xe4
 6293 088c 08       		.byte	0x8
 6294 088d 09       		.uleb128 0x9
 6295 088e 445200   		.ascii	"DR\000"
 6296 0891 0D       		.byte	0xd
 6297 0892 E002     		.2byte	0x2e0
 6298 0894 E4000000 		.4byte	0xe4
 6299 0898 0C       		.byte	0xc
 6300 0899 0A       		.uleb128 0xa
 6301 089a D4090000 		.4byte	.LASF124
 6302 089e 0D       		.byte	0xd
 6303 089f E102     		.2byte	0x2e1
 6304 08a1 E4000000 		.4byte	0xe4
ARM GAS  /tmp/ccIHdayg.s 			page 113


 6305 08a5 10       		.byte	0x10
 6306 08a6 0A       		.uleb128 0xa
 6307 08a7 170F0000 		.4byte	.LASF125
 6308 08ab 0D       		.byte	0xd
 6309 08ac E202     		.2byte	0x2e2
 6310 08ae E4000000 		.4byte	0xe4
 6311 08b2 14       		.byte	0x14
 6312 08b3 0A       		.uleb128 0xa
 6313 08b4 AD0D0000 		.4byte	.LASF126
 6314 08b8 0D       		.byte	0xd
 6315 08b9 E302     		.2byte	0x2e3
 6316 08bb E4000000 		.4byte	0xe4
 6317 08bf 18       		.byte	0x18
 6318 08c0 0A       		.uleb128 0xa
 6319 08c1 B3280000 		.4byte	.LASF127
 6320 08c5 0D       		.byte	0xd
 6321 08c6 E402     		.2byte	0x2e4
 6322 08c8 E4000000 		.4byte	0xe4
 6323 08cc 1C       		.byte	0x1c
 6324 08cd 0A       		.uleb128 0xa
 6325 08ce 8B090000 		.4byte	.LASF128
 6326 08d2 0D       		.byte	0xd
 6327 08d3 E502     		.2byte	0x2e5
 6328 08d5 E4000000 		.4byte	0xe4
 6329 08d9 20       		.byte	0x20
 6330 08da 00       		.byte	0
 6331 08db 18       		.uleb128 0x18
 6332 08dc 9A260000 		.4byte	.LASF129
 6333 08e0 0D       		.byte	0xd
 6334 08e1 E602     		.2byte	0x2e6
 6335 08e3 5E080000 		.4byte	0x85e
 6336 08e7 17       		.uleb128 0x17
 6337 08e8 1C       		.byte	0x1c
 6338 08e9 0D       		.byte	0xd
 6339 08ea 0903     		.2byte	0x309
 6340 08ec 4A090000 		.4byte	0x94a
 6341 08f0 09       		.uleb128 0x9
 6342 08f1 535200   		.ascii	"SR\000"
 6343 08f4 0D       		.byte	0xd
 6344 08f5 0B03     		.2byte	0x30b
 6345 08f7 E4000000 		.4byte	0xe4
 6346 08fb 00       		.byte	0
 6347 08fc 09       		.uleb128 0x9
 6348 08fd 445200   		.ascii	"DR\000"
 6349 0900 0D       		.byte	0xd
 6350 0901 0C03     		.2byte	0x30c
 6351 0903 E4000000 		.4byte	0xe4
 6352 0907 04       		.byte	0x4
 6353 0908 09       		.uleb128 0x9
 6354 0909 42525200 		.ascii	"BRR\000"
 6355 090d 0D       		.byte	0xd
 6356 090e 0D03     		.2byte	0x30d
 6357 0910 E4000000 		.4byte	0xe4
 6358 0914 08       		.byte	0x8
 6359 0915 09       		.uleb128 0x9
 6360 0916 43523100 		.ascii	"CR1\000"
 6361 091a 0D       		.byte	0xd
ARM GAS  /tmp/ccIHdayg.s 			page 114


 6362 091b 0E03     		.2byte	0x30e
 6363 091d E4000000 		.4byte	0xe4
 6364 0921 0C       		.byte	0xc
 6365 0922 09       		.uleb128 0x9
 6366 0923 43523200 		.ascii	"CR2\000"
 6367 0927 0D       		.byte	0xd
 6368 0928 0F03     		.2byte	0x30f
 6369 092a E4000000 		.4byte	0xe4
 6370 092e 10       		.byte	0x10
 6371 092f 09       		.uleb128 0x9
 6372 0930 43523300 		.ascii	"CR3\000"
 6373 0934 0D       		.byte	0xd
 6374 0935 1003     		.2byte	0x310
 6375 0937 E4000000 		.4byte	0xe4
 6376 093b 14       		.byte	0x14
 6377 093c 0A       		.uleb128 0xa
 6378 093d F42A0000 		.4byte	.LASF130
 6379 0941 0D       		.byte	0xd
 6380 0942 1103     		.2byte	0x311
 6381 0944 E4000000 		.4byte	0xe4
 6382 0948 18       		.byte	0x18
 6383 0949 00       		.byte	0
 6384 094a 18       		.uleb128 0x18
 6385 094b 302C0000 		.4byte	.LASF131
 6386 094f 0D       		.byte	0xd
 6387 0950 1203     		.2byte	0x312
 6388 0952 E7080000 		.4byte	0x8e7
 6389 0956 11       		.uleb128 0x11
 6390 0957 E4000000 		.4byte	0xe4
 6391 095b 66090000 		.4byte	0x966
 6392 095f 12       		.uleb128 0x12
 6393 0960 A2000000 		.4byte	0xa2
 6394 0964 0E       		.byte	0xe
 6395 0965 00       		.byte	0
 6396 0966 06       		.uleb128 0x6
 6397 0967 56090000 		.4byte	0x956
 6398 096b 04       		.uleb128 0x4
 6399 096c B21D0000 		.4byte	.LASF132
 6400 0970 0E       		.byte	0xe
 6401 0971 65       		.byte	0x65
 6402 0972 93030000 		.4byte	0x393
 6403 0976 04       		.uleb128 0x4
 6404 0977 5E0B0000 		.4byte	.LASF133
 6405 097b 0E       		.byte	0xe
 6406 097c 6D       		.byte	0x6d
 6407 097d E9000000 		.4byte	0xe9
 6408 0981 07       		.uleb128 0x7
 6409 0982 C51C0000 		.4byte	.LASF134
 6410 0986 04       		.byte	0x4
 6411 0987 0E       		.byte	0xe
 6412 0988 89       		.byte	0x89
 6413 0989 9A090000 		.4byte	0x99a
 6414 098d 16       		.uleb128 0x16
 6415 098e 72313300 		.ascii	"r13\000"
 6416 0992 0E       		.byte	0xe
 6417 0993 8A       		.byte	0x8a
 6418 0994 DB0A0000 		.4byte	0xadb
ARM GAS  /tmp/ccIHdayg.s 			page 115


 6419 0998 00       		.byte	0
 6420 0999 00       		.byte	0
 6421 099a 07       		.uleb128 0x7
 6422 099b 13000000 		.4byte	.LASF135
 6423 099f 64       		.byte	0x64
 6424 09a0 0F       		.byte	0xf
 6425 09a1 F4       		.byte	0xf4
 6426 09a2 DB0A0000 		.4byte	0xadb
 6427 09a6 16       		.uleb128 0x16
 6428 09a7 73313600 		.ascii	"s16\000"
 6429 09ab 0F       		.byte	0xf
 6430 09ac F6       		.byte	0xf6
 6431 09ad 6B090000 		.4byte	0x96b
 6432 09b1 00       		.byte	0
 6433 09b2 16       		.uleb128 0x16
 6434 09b3 73313700 		.ascii	"s17\000"
 6435 09b7 0F       		.byte	0xf
 6436 09b8 F7       		.byte	0xf7
 6437 09b9 6B090000 		.4byte	0x96b
 6438 09bd 04       		.byte	0x4
 6439 09be 16       		.uleb128 0x16
 6440 09bf 73313800 		.ascii	"s18\000"
 6441 09c3 0F       		.byte	0xf
 6442 09c4 F8       		.byte	0xf8
 6443 09c5 6B090000 		.4byte	0x96b
 6444 09c9 08       		.byte	0x8
 6445 09ca 16       		.uleb128 0x16
 6446 09cb 73313900 		.ascii	"s19\000"
 6447 09cf 0F       		.byte	0xf
 6448 09d0 F9       		.byte	0xf9
 6449 09d1 6B090000 		.4byte	0x96b
 6450 09d5 0C       		.byte	0xc
 6451 09d6 16       		.uleb128 0x16
 6452 09d7 73323000 		.ascii	"s20\000"
 6453 09db 0F       		.byte	0xf
 6454 09dc FA       		.byte	0xfa
 6455 09dd 6B090000 		.4byte	0x96b
 6456 09e1 10       		.byte	0x10
 6457 09e2 16       		.uleb128 0x16
 6458 09e3 73323100 		.ascii	"s21\000"
 6459 09e7 0F       		.byte	0xf
 6460 09e8 FB       		.byte	0xfb
 6461 09e9 6B090000 		.4byte	0x96b
 6462 09ed 14       		.byte	0x14
 6463 09ee 16       		.uleb128 0x16
 6464 09ef 73323200 		.ascii	"s22\000"
 6465 09f3 0F       		.byte	0xf
 6466 09f4 FC       		.byte	0xfc
 6467 09f5 6B090000 		.4byte	0x96b
 6468 09f9 18       		.byte	0x18
 6469 09fa 16       		.uleb128 0x16
 6470 09fb 73323300 		.ascii	"s23\000"
 6471 09ff 0F       		.byte	0xf
 6472 0a00 FD       		.byte	0xfd
 6473 0a01 6B090000 		.4byte	0x96b
 6474 0a05 1C       		.byte	0x1c
 6475 0a06 16       		.uleb128 0x16
ARM GAS  /tmp/ccIHdayg.s 			page 116


 6476 0a07 73323400 		.ascii	"s24\000"
 6477 0a0b 0F       		.byte	0xf
 6478 0a0c FE       		.byte	0xfe
 6479 0a0d 6B090000 		.4byte	0x96b
 6480 0a11 20       		.byte	0x20
 6481 0a12 16       		.uleb128 0x16
 6482 0a13 73323500 		.ascii	"s25\000"
 6483 0a17 0F       		.byte	0xf
 6484 0a18 FF       		.byte	0xff
 6485 0a19 6B090000 		.4byte	0x96b
 6486 0a1d 24       		.byte	0x24
 6487 0a1e 09       		.uleb128 0x9
 6488 0a1f 73323600 		.ascii	"s26\000"
 6489 0a23 0F       		.byte	0xf
 6490 0a24 0001     		.2byte	0x100
 6491 0a26 6B090000 		.4byte	0x96b
 6492 0a2a 28       		.byte	0x28
 6493 0a2b 09       		.uleb128 0x9
 6494 0a2c 73323700 		.ascii	"s27\000"
 6495 0a30 0F       		.byte	0xf
 6496 0a31 0101     		.2byte	0x101
 6497 0a33 6B090000 		.4byte	0x96b
 6498 0a37 2C       		.byte	0x2c
 6499 0a38 09       		.uleb128 0x9
 6500 0a39 73323800 		.ascii	"s28\000"
 6501 0a3d 0F       		.byte	0xf
 6502 0a3e 0201     		.2byte	0x102
 6503 0a40 6B090000 		.4byte	0x96b
 6504 0a44 30       		.byte	0x30
 6505 0a45 09       		.uleb128 0x9
 6506 0a46 73323900 		.ascii	"s29\000"
 6507 0a4a 0F       		.byte	0xf
 6508 0a4b 0301     		.2byte	0x103
 6509 0a4d 6B090000 		.4byte	0x96b
 6510 0a51 34       		.byte	0x34
 6511 0a52 09       		.uleb128 0x9
 6512 0a53 73333000 		.ascii	"s30\000"
 6513 0a57 0F       		.byte	0xf
 6514 0a58 0401     		.2byte	0x104
 6515 0a5a 6B090000 		.4byte	0x96b
 6516 0a5e 38       		.byte	0x38
 6517 0a5f 09       		.uleb128 0x9
 6518 0a60 73333100 		.ascii	"s31\000"
 6519 0a64 0F       		.byte	0xf
 6520 0a65 0501     		.2byte	0x105
 6521 0a67 6B090000 		.4byte	0x96b
 6522 0a6b 3C       		.byte	0x3c
 6523 0a6c 09       		.uleb128 0x9
 6524 0a6d 723400   		.ascii	"r4\000"
 6525 0a70 0F       		.byte	0xf
 6526 0a71 0701     		.2byte	0x107
 6527 0a73 6B090000 		.4byte	0x96b
 6528 0a77 40       		.byte	0x40
 6529 0a78 09       		.uleb128 0x9
 6530 0a79 723500   		.ascii	"r5\000"
 6531 0a7c 0F       		.byte	0xf
 6532 0a7d 0801     		.2byte	0x108
ARM GAS  /tmp/ccIHdayg.s 			page 117


 6533 0a7f 6B090000 		.4byte	0x96b
 6534 0a83 44       		.byte	0x44
 6535 0a84 09       		.uleb128 0x9
 6536 0a85 723600   		.ascii	"r6\000"
 6537 0a88 0F       		.byte	0xf
 6538 0a89 0901     		.2byte	0x109
 6539 0a8b 6B090000 		.4byte	0x96b
 6540 0a8f 48       		.byte	0x48
 6541 0a90 09       		.uleb128 0x9
 6542 0a91 723700   		.ascii	"r7\000"
 6543 0a94 0F       		.byte	0xf
 6544 0a95 0A01     		.2byte	0x10a
 6545 0a97 6B090000 		.4byte	0x96b
 6546 0a9b 4C       		.byte	0x4c
 6547 0a9c 09       		.uleb128 0x9
 6548 0a9d 723800   		.ascii	"r8\000"
 6549 0aa0 0F       		.byte	0xf
 6550 0aa1 0B01     		.2byte	0x10b
 6551 0aa3 6B090000 		.4byte	0x96b
 6552 0aa7 50       		.byte	0x50
 6553 0aa8 09       		.uleb128 0x9
 6554 0aa9 723900   		.ascii	"r9\000"
 6555 0aac 0F       		.byte	0xf
 6556 0aad 0C01     		.2byte	0x10c
 6557 0aaf 6B090000 		.4byte	0x96b
 6558 0ab3 54       		.byte	0x54
 6559 0ab4 09       		.uleb128 0x9
 6560 0ab5 72313000 		.ascii	"r10\000"
 6561 0ab9 0F       		.byte	0xf
 6562 0aba 0D01     		.2byte	0x10d
 6563 0abc 6B090000 		.4byte	0x96b
 6564 0ac0 58       		.byte	0x58
 6565 0ac1 09       		.uleb128 0x9
 6566 0ac2 72313100 		.ascii	"r11\000"
 6567 0ac6 0F       		.byte	0xf
 6568 0ac7 0E01     		.2byte	0x10e
 6569 0ac9 6B090000 		.4byte	0x96b
 6570 0acd 5C       		.byte	0x5c
 6571 0ace 09       		.uleb128 0x9
 6572 0acf 6C7200   		.ascii	"lr\000"
 6573 0ad2 0F       		.byte	0xf
 6574 0ad3 0F01     		.2byte	0x10f
 6575 0ad5 6B090000 		.4byte	0x96b
 6576 0ad9 60       		.byte	0x60
 6577 0ada 00       		.byte	0
 6578 0adb 0B       		.uleb128 0xb
 6579 0adc 04       		.byte	0x4
 6580 0add 9A090000 		.4byte	0x99a
 6581 0ae1 15       		.uleb128 0x15
 6582 0ae2 04       		.byte	0x4
 6583 0ae3 10       		.byte	0x10
 6584 0ae4 38       		.byte	0x38
 6585 0ae5 F60A0000 		.4byte	0xaf6
 6586 0ae9 08       		.uleb128 0x8
 6587 0aea 7C250000 		.4byte	.LASF136
 6588 0aee 10       		.byte	0x10
 6589 0aef 3C       		.byte	0x3c
ARM GAS  /tmp/ccIHdayg.s 			page 118


 6590 0af0 04010000 		.4byte	0x104
 6591 0af4 00       		.byte	0
 6592 0af5 00       		.byte	0
 6593 0af6 04       		.uleb128 0x4
 6594 0af7 D22A0000 		.4byte	.LASF137
 6595 0afb 10       		.byte	0x10
 6596 0afc 3D       		.byte	0x3d
 6597 0afd E10A0000 		.4byte	0xae1
 6598 0b01 1C       		.uleb128 0x1c
 6599 0b02 04       		.byte	0x4
 6600 0b03 0A       		.byte	0xa
 6601 0b04 FA       		.byte	0xfa
 6602 0b05 5E0B0000 		.4byte	0xb5e
 6603 0b09 1D       		.uleb128 0x1d
 6604 0b0a 7A140000 		.4byte	.LASF138
 6605 0b0e 0A       		.byte	0xa
 6606 0b0f 0101     		.2byte	0x101
 6607 0b11 46010000 		.4byte	0x146
 6608 0b15 1D       		.uleb128 0x1d
 6609 0b16 B8120000 		.4byte	.LASF139
 6610 0b1a 0A       		.byte	0xa
 6611 0b1b 0801     		.2byte	0x108
 6612 0b1d 46010000 		.4byte	0x146
 6613 0b21 1D       		.uleb128 0x1d
 6614 0b22 06220000 		.4byte	.LASF140
 6615 0b26 0A       		.byte	0xa
 6616 0b27 0F01     		.2byte	0x10f
 6617 0b29 93030000 		.4byte	0x393
 6618 0b2d 1D       		.uleb128 0x1d
 6619 0b2e B71C0000 		.4byte	.LASF141
 6620 0b32 0A       		.byte	0xa
 6621 0b33 1601     		.2byte	0x116
 6622 0b35 5E0B0000 		.4byte	0xb5e
 6623 0b39 1D       		.uleb128 0x1d
 6624 0b3a 8E010000 		.4byte	.LASF142
 6625 0b3e 0A       		.byte	0xa
 6626 0b3f 1E01     		.2byte	0x11e
 6627 0b41 890B0000 		.4byte	0xb89
 6628 0b45 1D       		.uleb128 0x1d
 6629 0b46 2F220000 		.4byte	.LASF143
 6630 0b4a 0A       		.byte	0xa
 6631 0b4b 2701     		.2byte	0x127
 6632 0b4d C00B0000 		.4byte	0xbc0
 6633 0b51 1D       		.uleb128 0x1d
 6634 0b52 1A270000 		.4byte	.LASF144
 6635 0b56 0A       		.byte	0xa
 6636 0b57 2F01     		.2byte	0x12f
 6637 0b59 51010000 		.4byte	0x151
 6638 0b5d 00       		.byte	0
 6639 0b5e 0B       		.uleb128 0xb
 6640 0b5f 04       		.byte	0x4
 6641 0b60 AB020000 		.4byte	0x2ab
 6642 0b64 07       		.uleb128 0x7
 6643 0b65 651B0000 		.4byte	.LASF145
 6644 0b69 0C       		.byte	0xc
 6645 0b6a 11       		.byte	0x11
 6646 0b6b 34       		.byte	0x34
ARM GAS  /tmp/ccIHdayg.s 			page 119


 6647 0b6c 890B0000 		.4byte	0xb89
 6648 0b70 08       		.uleb128 0x8
 6649 0b71 92280000 		.4byte	.LASF146
 6650 0b75 11       		.byte	0x11
 6651 0b76 35       		.byte	0x35
 6652 0b77 E0020000 		.4byte	0x2e0
 6653 0b7b 00       		.byte	0
 6654 0b7c 08       		.uleb128 0x8
 6655 0b7d 310C0000 		.4byte	.LASF147
 6656 0b81 11       		.byte	0x11
 6657 0b82 37       		.byte	0x37
 6658 0b83 67010000 		.4byte	0x167
 6659 0b87 08       		.byte	0x8
 6660 0b88 00       		.byte	0
 6661 0b89 0B       		.uleb128 0xb
 6662 0b8a 04       		.byte	0x4
 6663 0b8b 640B0000 		.4byte	0xb64
 6664 0b8f 07       		.uleb128 0x7
 6665 0b90 2C0F0000 		.4byte	.LASF148
 6666 0b94 10       		.byte	0x10
 6667 0b95 12       		.byte	0x12
 6668 0b96 39       		.byte	0x39
 6669 0b97 C00B0000 		.4byte	0xbc0
 6670 0b9b 08       		.uleb128 0x8
 6671 0b9c 381C0000 		.4byte	.LASF149
 6672 0ba0 12       		.byte	0x12
 6673 0ba1 3A       		.byte	0x3a
 6674 0ba2 E0020000 		.4byte	0x2e0
 6675 0ba6 00       		.byte	0
 6676 0ba7 08       		.uleb128 0x8
 6677 0ba8 4D1A0000 		.4byte	.LASF150
 6678 0bac 12       		.byte	0x12
 6679 0bad 3C       		.byte	0x3c
 6680 0bae B6020000 		.4byte	0x2b6
 6681 0bb2 08       		.byte	0x8
 6682 0bb3 08       		.uleb128 0x8
 6683 0bb4 E6020000 		.4byte	.LASF151
 6684 0bb8 12       		.byte	0x12
 6685 0bb9 3E       		.byte	0x3e
 6686 0bba 1B0D0000 		.4byte	0xd1b
 6687 0bbe 0C       		.byte	0xc
 6688 0bbf 00       		.byte	0
 6689 0bc0 0B       		.uleb128 0xb
 6690 0bc1 04       		.byte	0x4
 6691 0bc2 8F0B0000 		.4byte	0xb8f
 6692 0bc6 0B       		.uleb128 0xb
 6693 0bc7 04       		.byte	0x4
 6694 0bc8 D80B0000 		.4byte	0xbd8
 6695 0bcc 06       		.uleb128 0x6
 6696 0bcd C60B0000 		.4byte	0xbc6
 6697 0bd1 02       		.uleb128 0x2
 6698 0bd2 01       		.byte	0x1
 6699 0bd3 08       		.byte	0x8
 6700 0bd4 F51E0000 		.4byte	.LASF152
 6701 0bd8 05       		.uleb128 0x5
 6702 0bd9 D10B0000 		.4byte	0xbd1
 6703 0bdd 0B       		.uleb128 0xb
ARM GAS  /tmp/ccIHdayg.s 			page 120


 6704 0bde 04       		.byte	0x4
 6705 0bdf 76090000 		.4byte	0x976
 6706 0be3 0B       		.uleb128 0xb
 6707 0be4 04       		.byte	0x4
 6708 0be5 95030000 		.4byte	0x395
 6709 0be9 11       		.uleb128 0x11
 6710 0bea 76090000 		.4byte	0x976
 6711 0bee F90B0000 		.4byte	0xbf9
 6712 0bf2 12       		.uleb128 0x12
 6713 0bf3 A2000000 		.4byte	0xa2
 6714 0bf7 3B       		.byte	0x3b
 6715 0bf8 00       		.byte	0
 6716 0bf9 1E       		.uleb128 0x1e
 6717 0bfa 636800   		.ascii	"ch\000"
 6718 0bfd 0A       		.byte	0xa
 6719 0bfe 0902     		.2byte	0x209
 6720 0c00 62040000 		.4byte	0x462
 6721 0c04 15       		.uleb128 0x15
 6722 0c05 16       		.byte	0x16
 6723 0c06 03       		.byte	0x3
 6724 0c07 34       		.byte	0x34
 6725 0c08 E50C0000 		.4byte	0xce5
 6726 0c0c 08       		.uleb128 0x8
 6727 0c0d C8280000 		.4byte	.LASF153
 6728 0c11 03       		.byte	0x3
 6729 0c12 35       		.byte	0x35
 6730 0c13 E50C0000 		.4byte	0xce5
 6731 0c17 00       		.byte	0
 6732 0c18 08       		.uleb128 0x8
 6733 0c19 DA2B0000 		.4byte	.LASF154
 6734 0c1d 03       		.byte	0x3
 6735 0c1e 36       		.byte	0x36
 6736 0c1f A9000000 		.4byte	0xa9
 6737 0c23 04       		.byte	0x4
 6738 0c24 08       		.uleb128 0x8
 6739 0c25 52040000 		.4byte	.LASF155
 6740 0c29 03       		.byte	0x3
 6741 0c2a 37       		.byte	0x37
 6742 0c2b A9000000 		.4byte	0xa9
 6743 0c2f 05       		.byte	0x5
 6744 0c30 08       		.uleb128 0x8
 6745 0c31 931A0000 		.4byte	.LASF156
 6746 0c35 03       		.byte	0x3
 6747 0c36 38       		.byte	0x38
 6748 0c37 B9000000 		.4byte	0xb9
 6749 0c3b 06       		.byte	0x6
 6750 0c3c 08       		.uleb128 0x8
 6751 0c3d 1F000000 		.4byte	.LASF157
 6752 0c41 03       		.byte	0x3
 6753 0c42 39       		.byte	0x39
 6754 0c43 A9000000 		.4byte	0xa9
 6755 0c47 08       		.byte	0x8
 6756 0c48 08       		.uleb128 0x8
 6757 0c49 95180000 		.4byte	.LASF158
 6758 0c4d 03       		.byte	0x3
 6759 0c4e 3A       		.byte	0x3a
 6760 0c4f A9000000 		.4byte	0xa9
ARM GAS  /tmp/ccIHdayg.s 			page 121


 6761 0c53 09       		.byte	0x9
 6762 0c54 08       		.uleb128 0x8
 6763 0c55 2E2B0000 		.4byte	.LASF159
 6764 0c59 03       		.byte	0x3
 6765 0c5a 3B       		.byte	0x3b
 6766 0c5b A9000000 		.4byte	0xa9
 6767 0c5f 0A       		.byte	0xa
 6768 0c60 08       		.uleb128 0x8
 6769 0c61 F4280000 		.4byte	.LASF160
 6770 0c65 03       		.byte	0x3
 6771 0c66 3C       		.byte	0x3c
 6772 0c67 A9000000 		.4byte	0xa9
 6773 0c6b 0B       		.byte	0xb
 6774 0c6c 08       		.uleb128 0x8
 6775 0c6d 83070000 		.4byte	.LASF161
 6776 0c71 03       		.byte	0x3
 6777 0c72 3D       		.byte	0x3d
 6778 0c73 A9000000 		.4byte	0xa9
 6779 0c77 0C       		.byte	0xc
 6780 0c78 08       		.uleb128 0x8
 6781 0c79 A9100000 		.4byte	.LASF162
 6782 0c7d 03       		.byte	0x3
 6783 0c7e 3E       		.byte	0x3e
 6784 0c7f A9000000 		.4byte	0xa9
 6785 0c83 0D       		.byte	0xd
 6786 0c84 08       		.uleb128 0x8
 6787 0c85 BC070000 		.4byte	.LASF163
 6788 0c89 03       		.byte	0x3
 6789 0c8a 3F       		.byte	0x3f
 6790 0c8b A9000000 		.4byte	0xa9
 6791 0c8f 0E       		.byte	0xe
 6792 0c90 08       		.uleb128 0x8
 6793 0c91 7F120000 		.4byte	.LASF164
 6794 0c95 03       		.byte	0x3
 6795 0c96 40       		.byte	0x40
 6796 0c97 A9000000 		.4byte	0xa9
 6797 0c9b 0F       		.byte	0xf
 6798 0c9c 08       		.uleb128 0x8
 6799 0c9d 4B050000 		.4byte	.LASF165
 6800 0ca1 03       		.byte	0x3
 6801 0ca2 41       		.byte	0x41
 6802 0ca3 A9000000 		.4byte	0xa9
 6803 0ca7 10       		.byte	0x10
 6804 0ca8 08       		.uleb128 0x8
 6805 0ca9 060B0000 		.4byte	.LASF166
 6806 0cad 03       		.byte	0x3
 6807 0cae 43       		.byte	0x43
 6808 0caf A9000000 		.4byte	0xa9
 6809 0cb3 11       		.byte	0x11
 6810 0cb4 08       		.uleb128 0x8
 6811 0cb5 13040000 		.4byte	.LASF167
 6812 0cb9 03       		.byte	0x3
 6813 0cba 44       		.byte	0x44
 6814 0cbb A9000000 		.4byte	0xa9
 6815 0cbf 12       		.byte	0x12
 6816 0cc0 08       		.uleb128 0x8
 6817 0cc1 411A0000 		.4byte	.LASF168
ARM GAS  /tmp/ccIHdayg.s 			page 122


 6818 0cc5 03       		.byte	0x3
 6819 0cc6 45       		.byte	0x45
 6820 0cc7 A9000000 		.4byte	0xa9
 6821 0ccb 13       		.byte	0x13
 6822 0ccc 08       		.uleb128 0x8
 6823 0ccd EB200000 		.4byte	.LASF169
 6824 0cd1 03       		.byte	0x3
 6825 0cd2 46       		.byte	0x46
 6826 0cd3 A9000000 		.4byte	0xa9
 6827 0cd7 14       		.byte	0x14
 6828 0cd8 08       		.uleb128 0x8
 6829 0cd9 6C010000 		.4byte	.LASF170
 6830 0cdd 03       		.byte	0x3
 6831 0cde 48       		.byte	0x48
 6832 0cdf A9000000 		.4byte	0xa9
 6833 0ce3 15       		.byte	0x15
 6834 0ce4 00       		.byte	0
 6835 0ce5 11       		.uleb128 0x11
 6836 0ce6 D10B0000 		.4byte	0xbd1
 6837 0cea F50C0000 		.4byte	0xcf5
 6838 0cee 12       		.uleb128 0x12
 6839 0cef A2000000 		.4byte	0xa2
 6840 0cf3 03       		.byte	0x3
 6841 0cf4 00       		.byte	0
 6842 0cf5 04       		.uleb128 0x4
 6843 0cf6 10180000 		.4byte	.LASF171
 6844 0cfa 03       		.byte	0x3
 6845 0cfb 49       		.byte	0x49
 6846 0cfc 040C0000 		.4byte	0xc04
 6847 0d00 05       		.uleb128 0x5
 6848 0d01 F50C0000 		.4byte	0xcf5
 6849 0d05 14       		.uleb128 0x14
 6850 0d06 360E0000 		.4byte	.LASF172
 6851 0d0a 03       		.byte	0x3
 6852 0d0b 6E       		.byte	0x6e
 6853 0d0c 000D0000 		.4byte	0xd00
 6854 0d10 04       		.uleb128 0x4
 6855 0d11 D5230000 		.4byte	.LASF173
 6856 0d15 12       		.byte	0x12
 6857 0d16 34       		.byte	0x34
 6858 0d17 8F0B0000 		.4byte	0xb8f
 6859 0d1b 0B       		.uleb128 0xb
 6860 0d1c 04       		.byte	0x4
 6861 0d1d 100D0000 		.4byte	0xd10
 6862 0d21 04       		.uleb128 0x4
 6863 0d22 C10E0000 		.4byte	.LASF174
 6864 0d26 13       		.byte	0x13
 6865 0d27 34       		.byte	0x34
 6866 0d28 2C0D0000 		.4byte	0xd2c
 6867 0d2c 07       		.uleb128 0x7
 6868 0d2d F50B0000 		.4byte	.LASF175
 6869 0d31 14       		.byte	0x14
 6870 0d32 13       		.byte	0x13
 6871 0d33 39       		.byte	0x39
 6872 0d34 750D0000 		.4byte	0xd75
 6873 0d38 08       		.uleb128 0x8
 6874 0d39 99030000 		.4byte	.LASF176
ARM GAS  /tmp/ccIHdayg.s 			page 123


 6875 0d3d 13       		.byte	0x13
 6876 0d3e 3A       		.byte	0x3a
 6877 0d3f 750D0000 		.4byte	0xd75
 6878 0d43 00       		.byte	0
 6879 0d44 08       		.uleb128 0x8
 6880 0d45 9A240000 		.4byte	.LASF177
 6881 0d49 13       		.byte	0x13
 6882 0d4a 3D       		.byte	0x3d
 6883 0d4b B6020000 		.4byte	0x2b6
 6884 0d4f 04       		.byte	0x4
 6885 0d50 08       		.uleb128 0x8
 6886 0d51 D2040000 		.4byte	.LASF178
 6887 0d55 13       		.byte	0x13
 6888 0d56 3F       		.byte	0x3f
 6889 0d57 51010000 		.4byte	0x151
 6890 0d5b 08       		.byte	0x8
 6891 0d5c 08       		.uleb128 0x8
 6892 0d5d 48270000 		.4byte	.LASF179
 6893 0d61 13       		.byte	0x13
 6894 0d62 41       		.byte	0x41
 6895 0d63 5C010000 		.4byte	0x15c
 6896 0d67 0C       		.byte	0xc
 6897 0d68 08       		.uleb128 0x8
 6898 0d69 A4120000 		.4byte	.LASF180
 6899 0d6d 13       		.byte	0x13
 6900 0d6e 43       		.byte	0x43
 6901 0d6f 5C010000 		.4byte	0x15c
 6902 0d73 10       		.byte	0x10
 6903 0d74 00       		.byte	0
 6904 0d75 0B       		.uleb128 0xb
 6905 0d76 04       		.byte	0x4
 6906 0d77 210D0000 		.4byte	0xd21
 6907 0d7b 07       		.uleb128 0x7
 6908 0d7c 51270000 		.4byte	.LASF181
 6909 0d80 04       		.byte	0x4
 6910 0d81 13       		.byte	0x13
 6911 0d82 4A       		.byte	0x4a
 6912 0d83 940D0000 		.4byte	0xd94
 6913 0d87 08       		.uleb128 0x8
 6914 0d88 4A260000 		.4byte	.LASF182
 6915 0d8c 13       		.byte	0x13
 6916 0d8d 4B       		.byte	0x4b
 6917 0d8e 750D0000 		.4byte	0xd75
 6918 0d92 00       		.byte	0
 6919 0d93 00       		.byte	0
 6920 0d94 04       		.uleb128 0x4
 6921 0d95 D7180000 		.4byte	.LASF183
 6922 0d99 13       		.byte	0x13
 6923 0d9a 4E       		.byte	0x4e
 6924 0d9b 7B0D0000 		.4byte	0xd7b
 6925 0d9f 04       		.uleb128 0x4
 6926 0da0 E9120000 		.4byte	.LASF184
 6927 0da4 14       		.byte	0x14
 6928 0da5 3F       		.byte	0x3f
 6929 0da6 AA0D0000 		.4byte	0xdaa
 6930 0daa 07       		.uleb128 0x7
 6931 0dab E2140000 		.4byte	.LASF185
ARM GAS  /tmp/ccIHdayg.s 			page 124


 6932 0daf 24       		.byte	0x24
 6933 0db0 14       		.byte	0x14
 6934 0db1 4D       		.byte	0x4d
 6935 0db2 170E0000 		.4byte	0xe17
 6936 0db6 08       		.uleb128 0x8
 6937 0db7 4E070000 		.4byte	.LASF186
 6938 0dbb 14       		.byte	0x14
 6939 0dbc 4E       		.byte	0x4e
 6940 0dbd E0020000 		.4byte	0x2e0
 6941 0dc1 00       		.byte	0
 6942 0dc2 08       		.uleb128 0x8
 6943 0dc3 5F230000 		.4byte	.LASF187
 6944 0dc7 14       		.byte	0x14
 6945 0dc8 4F       		.byte	0x4f
 6946 0dc9 FF000000 		.4byte	0xff
 6947 0dcd 08       		.byte	0x8
 6948 0dce 08       		.uleb128 0x8
 6949 0dcf 93150000 		.4byte	.LASF188
 6950 0dd3 14       		.byte	0x14
 6951 0dd4 50       		.byte	0x50
 6952 0dd5 390E0000 		.4byte	0xe39
 6953 0dd9 0C       		.byte	0xc
 6954 0dda 08       		.uleb128 0x8
 6955 0ddb 30060000 		.4byte	.LASF189
 6956 0ddf 14       		.byte	0x14
 6957 0de0 51       		.byte	0x51
 6958 0de1 390E0000 		.4byte	0xe39
 6959 0de5 10       		.byte	0x10
 6960 0de6 08       		.uleb128 0x8
 6961 0de7 621E0000 		.4byte	.LASF190
 6962 0deb 14       		.byte	0x14
 6963 0dec 53       		.byte	0x53
 6964 0ded 390E0000 		.4byte	0xe39
 6965 0df1 14       		.byte	0x14
 6966 0df2 08       		.uleb128 0x8
 6967 0df3 BD1C0000 		.4byte	.LASF191
 6968 0df7 14       		.byte	0x14
 6969 0df8 54       		.byte	0x54
 6970 0df9 390E0000 		.4byte	0xe39
 6971 0dfd 18       		.byte	0x18
 6972 0dfe 08       		.uleb128 0x8
 6973 0dff 26220000 		.4byte	.LASF192
 6974 0e03 14       		.byte	0x14
 6975 0e04 55       		.byte	0x55
 6976 0e05 170E0000 		.4byte	0xe17
 6977 0e09 1C       		.byte	0x1c
 6978 0e0a 08       		.uleb128 0x8
 6979 0e0b 671F0000 		.4byte	.LASF193
 6980 0e0f 14       		.byte	0x14
 6981 0e10 56       		.byte	0x56
 6982 0e11 93030000 		.4byte	0x393
 6983 0e15 20       		.byte	0x20
 6984 0e16 00       		.byte	0
 6985 0e17 04       		.uleb128 0x4
 6986 0e18 DC050000 		.4byte	.LASF194
 6987 0e1c 14       		.byte	0x14
 6988 0e1d 42       		.byte	0x42
ARM GAS  /tmp/ccIHdayg.s 			page 125


 6989 0e1e 220E0000 		.4byte	0xe22
 6990 0e22 0B       		.uleb128 0xb
 6991 0e23 04       		.byte	0x4
 6992 0e24 280E0000 		.4byte	0xe28
 6993 0e28 0D       		.uleb128 0xd
 6994 0e29 330E0000 		.4byte	0xe33
 6995 0e2d 0E       		.uleb128 0xe
 6996 0e2e 330E0000 		.4byte	0xe33
 6997 0e32 00       		.byte	0
 6998 0e33 0B       		.uleb128 0xb
 6999 0e34 04       		.byte	0x4
 7000 0e35 9F0D0000 		.4byte	0xd9f
 7001 0e39 0B       		.uleb128 0xb
 7002 0e3a 04       		.byte	0x4
 7003 0e3b A9000000 		.4byte	0xa9
 7004 0e3f 04       		.uleb128 0x4
 7005 0e40 8E070000 		.4byte	.LASF195
 7006 0e44 14       		.byte	0x14
 7007 0e45 64       		.byte	0x64
 7008 0e46 9F0D0000 		.4byte	0xd9f
 7009 0e4a 04       		.uleb128 0x4
 7010 0e4b 3E2C0000 		.4byte	.LASF196
 7011 0e4f 14       		.byte	0x14
 7012 0e50 71       		.byte	0x71
 7013 0e51 9F0D0000 		.4byte	0xd9f
 7014 0e55 1F       		.uleb128 0x1f
 7015 0e56 F4000000 		.4byte	0xf4
 7016 0e5a 6E0E0000 		.4byte	0xe6e
 7017 0e5e 0E       		.uleb128 0xe
 7018 0e5f 93030000 		.4byte	0x393
 7019 0e63 0E       		.uleb128 0xe
 7020 0e64 6E0E0000 		.4byte	0xe6e
 7021 0e68 0E       		.uleb128 0xe
 7022 0e69 F4000000 		.4byte	0xf4
 7023 0e6d 00       		.byte	0
 7024 0e6e 0B       		.uleb128 0xb
 7025 0e6f 04       		.byte	0x4
 7026 0e70 B4000000 		.4byte	0xb4
 7027 0e74 0B       		.uleb128 0xb
 7028 0e75 04       		.byte	0x4
 7029 0e76 550E0000 		.4byte	0xe55
 7030 0e7a 1F       		.uleb128 0x1f
 7031 0e7b F4000000 		.4byte	0xf4
 7032 0e7f 930E0000 		.4byte	0xe93
 7033 0e83 0E       		.uleb128 0xe
 7034 0e84 93030000 		.4byte	0x393
 7035 0e88 0E       		.uleb128 0xe
 7036 0e89 390E0000 		.4byte	0xe39
 7037 0e8d 0E       		.uleb128 0xe
 7038 0e8e F4000000 		.4byte	0xf4
 7039 0e92 00       		.byte	0
 7040 0e93 0B       		.uleb128 0xb
 7041 0e94 04       		.byte	0x4
 7042 0e95 7A0E0000 		.4byte	0xe7a
 7043 0e99 1F       		.uleb128 0x1f
 7044 0e9a 46010000 		.4byte	0x146
 7045 0e9e AD0E0000 		.4byte	0xead
ARM GAS  /tmp/ccIHdayg.s 			page 126


 7046 0ea2 0E       		.uleb128 0xe
 7047 0ea3 93030000 		.4byte	0x393
 7048 0ea7 0E       		.uleb128 0xe
 7049 0ea8 A9000000 		.4byte	0xa9
 7050 0eac 00       		.byte	0
 7051 0ead 0B       		.uleb128 0xb
 7052 0eae 04       		.byte	0x4
 7053 0eaf 990E0000 		.4byte	0xe99
 7054 0eb3 1F       		.uleb128 0x1f
 7055 0eb4 46010000 		.4byte	0x146
 7056 0eb8 C20E0000 		.4byte	0xec2
 7057 0ebc 0E       		.uleb128 0xe
 7058 0ebd 93030000 		.4byte	0x393
 7059 0ec1 00       		.byte	0
 7060 0ec2 0B       		.uleb128 0xb
 7061 0ec3 04       		.byte	0x4
 7062 0ec4 B30E0000 		.4byte	0xeb3
 7063 0ec8 06       		.uleb128 0x6
 7064 0ec9 25000000 		.4byte	0x25
 7065 0ecd 05       		.uleb128 0x5
 7066 0ece 25000000 		.4byte	0x25
 7067 0ed2 02       		.uleb128 0x2
 7068 0ed3 01       		.byte	0x1
 7069 0ed4 02       		.byte	0x2
 7070 0ed5 95010000 		.4byte	.LASF197
 7071 0ed9 11       		.uleb128 0x11
 7072 0eda A9000000 		.4byte	0xa9
 7073 0ede E90E0000 		.4byte	0xee9
 7074 0ee2 12       		.uleb128 0x12
 7075 0ee3 A2000000 		.4byte	0xa2
 7076 0ee7 07       		.byte	0x7
 7077 0ee8 00       		.byte	0
 7078 0ee9 11       		.uleb128 0x11
 7079 0eea 25000000 		.4byte	0x25
 7080 0eee F90E0000 		.4byte	0xef9
 7081 0ef2 12       		.uleb128 0x12
 7082 0ef3 A2000000 		.4byte	0xa2
 7083 0ef7 02       		.byte	0x2
 7084 0ef8 00       		.byte	0
 7085 0ef9 11       		.uleb128 0x11
 7086 0efa 45000000 		.4byte	0x45
 7087 0efe 090F0000 		.4byte	0xf09
 7088 0f02 12       		.uleb128 0x12
 7089 0f03 A2000000 		.4byte	0xa2
 7090 0f07 02       		.byte	0x2
 7091 0f08 00       		.byte	0
 7092 0f09 17       		.uleb128 0x17
 7093 0f0a E8       		.byte	0xe8
 7094 0f0b 15       		.byte	0x15
 7095 0f0c D102     		.2byte	0x2d1
 7096 0f0e 50120000 		.4byte	0x1250
 7097 0f12 09       		.uleb128 0x9
 7098 0f13 6B7000   		.ascii	"kp\000"
 7099 0f16 15       		.byte	0x15
 7100 0f17 D202     		.2byte	0x2d2
 7101 0f19 25000000 		.4byte	0x25
 7102 0f1d 00       		.byte	0
ARM GAS  /tmp/ccIHdayg.s 			page 127


 7103 0f1e 09       		.uleb128 0x9
 7104 0f1f 6B6900   		.ascii	"ki\000"
 7105 0f22 15       		.byte	0x15
 7106 0f23 D302     		.2byte	0x2d3
 7107 0f25 25000000 		.4byte	0x25
 7108 0f29 04       		.byte	0x4
 7109 0f2a 09       		.uleb128 0x9
 7110 0f2b 6B6400   		.ascii	"kd\000"
 7111 0f2e 15       		.byte	0x15
 7112 0f2f D402     		.2byte	0x2d4
 7113 0f31 25000000 		.4byte	0x25
 7114 0f35 08       		.byte	0x8
 7115 0f36 0A       		.uleb128 0xa
 7116 0f37 8B040000 		.4byte	.LASF198
 7117 0f3b 15       		.byte	0x15
 7118 0f3c D502     		.2byte	0x2d5
 7119 0f3e B9000000 		.4byte	0xb9
 7120 0f42 0C       		.byte	0xc
 7121 0f43 0A       		.uleb128 0xa
 7122 0f44 831B0000 		.4byte	.LASF199
 7123 0f48 15       		.byte	0x15
 7124 0f49 D602     		.2byte	0x2d6
 7125 0f4b B9000000 		.4byte	0xb9
 7126 0f4f 0E       		.byte	0xe
 7127 0f50 0A       		.uleb128 0xa
 7128 0f51 6F000000 		.4byte	.LASF200
 7129 0f55 15       		.byte	0x15
 7130 0f56 D702     		.2byte	0x2d7
 7131 0f58 25000000 		.4byte	0x25
 7132 0f5c 10       		.byte	0x10
 7133 0f5d 0A       		.uleb128 0xa
 7134 0f5e 412B0000 		.4byte	.LASF201
 7135 0f62 15       		.byte	0x15
 7136 0f63 D802     		.2byte	0x2d8
 7137 0f65 25000000 		.4byte	0x25
 7138 0f69 14       		.byte	0x14
 7139 0f6a 0A       		.uleb128 0xa
 7140 0f6b DD290000 		.4byte	.LASF202
 7141 0f6f 15       		.byte	0x15
 7142 0f70 D902     		.2byte	0x2d9
 7143 0f72 25000000 		.4byte	0x25
 7144 0f76 18       		.byte	0x18
 7145 0f77 0A       		.uleb128 0xa
 7146 0f78 F4240000 		.4byte	.LASF203
 7147 0f7c 15       		.byte	0x15
 7148 0f7d DA02     		.2byte	0x2da
 7149 0f7f 25000000 		.4byte	0x25
 7150 0f83 1C       		.byte	0x1c
 7151 0f84 0A       		.uleb128 0xa
 7152 0f85 76190000 		.4byte	.LASF204
 7153 0f89 15       		.byte	0x15
 7154 0f8a DB02     		.2byte	0x2db
 7155 0f8c 25000000 		.4byte	0x25
 7156 0f90 20       		.byte	0x20
 7157 0f91 0A       		.uleb128 0xa
 7158 0f92 0F290000 		.4byte	.LASF205
 7159 0f96 15       		.byte	0x15
ARM GAS  /tmp/ccIHdayg.s 			page 128


 7160 0f97 DC02     		.2byte	0x2dc
 7161 0f99 B9000000 		.4byte	0xb9
 7162 0f9d 24       		.byte	0x24
 7163 0f9e 0A       		.uleb128 0xa
 7164 0f9f 200C0000 		.4byte	.LASF206
 7165 0fa3 15       		.byte	0x15
 7166 0fa4 DD02     		.2byte	0x2dd
 7167 0fa6 B9000000 		.4byte	0xb9
 7168 0faa 26       		.byte	0x26
 7169 0fab 0A       		.uleb128 0xa
 7170 0fac DA090000 		.4byte	.LASF207
 7171 0fb0 15       		.byte	0x15
 7172 0fb1 DE02     		.2byte	0x2de
 7173 0fb3 B9000000 		.4byte	0xb9
 7174 0fb7 28       		.byte	0x28
 7175 0fb8 0A       		.uleb128 0xa
 7176 0fb9 211E0000 		.4byte	.LASF208
 7177 0fbd 15       		.byte	0x15
 7178 0fbe DF02     		.2byte	0x2df
 7179 0fc0 B9000000 		.4byte	0xb9
 7180 0fc4 2A       		.byte	0x2a
 7181 0fc5 0A       		.uleb128 0xa
 7182 0fc6 E51C0000 		.4byte	.LASF209
 7183 0fca 15       		.byte	0x15
 7184 0fcb E002     		.2byte	0x2e0
 7185 0fcd B9000000 		.4byte	0xb9
 7186 0fd1 2C       		.byte	0x2c
 7187 0fd2 0A       		.uleb128 0xa
 7188 0fd3 B6080000 		.4byte	.LASF210
 7189 0fd7 15       		.byte	0x15
 7190 0fd8 E102     		.2byte	0x2e1
 7191 0fda B9000000 		.4byte	0xb9
 7192 0fde 2E       		.byte	0x2e
 7193 0fdf 0A       		.uleb128 0xa
 7194 0fe0 46020000 		.4byte	.LASF211
 7195 0fe4 15       		.byte	0x15
 7196 0fe5 E202     		.2byte	0x2e2
 7197 0fe7 25000000 		.4byte	0x25
 7198 0feb 30       		.byte	0x30
 7199 0fec 0A       		.uleb128 0xa
 7200 0fed 49110000 		.4byte	.LASF212
 7201 0ff1 15       		.byte	0x15
 7202 0ff2 E302     		.2byte	0x2e3
 7203 0ff4 25000000 		.4byte	0x25
 7204 0ff8 34       		.byte	0x34
 7205 0ff9 0A       		.uleb128 0xa
 7206 0ffa 08160000 		.4byte	.LASF213
 7207 0ffe 15       		.byte	0x15
 7208 0fff E402     		.2byte	0x2e4
 7209 1001 25000000 		.4byte	0x25
 7210 1005 38       		.byte	0x38
 7211 1006 0A       		.uleb128 0xa
 7212 1007 1F260000 		.4byte	.LASF214
 7213 100b 15       		.byte	0x15
 7214 100c E502     		.2byte	0x2e5
 7215 100e 25000000 		.4byte	0x25
 7216 1012 3C       		.byte	0x3c
ARM GAS  /tmp/ccIHdayg.s 			page 129


 7217 1013 0A       		.uleb128 0xa
 7218 1014 DE000000 		.4byte	.LASF215
 7219 1018 15       		.byte	0x15
 7220 1019 E602     		.2byte	0x2e6
 7221 101b 25000000 		.4byte	0x25
 7222 101f 40       		.byte	0x40
 7223 1020 0A       		.uleb128 0xa
 7224 1021 8F1C0000 		.4byte	.LASF216
 7225 1025 15       		.byte	0x15
 7226 1026 E702     		.2byte	0x2e7
 7227 1028 25000000 		.4byte	0x25
 7228 102c 44       		.byte	0x44
 7229 102d 0A       		.uleb128 0xa
 7230 102e 512A0000 		.4byte	.LASF217
 7231 1032 15       		.byte	0x15
 7232 1033 E802     		.2byte	0x2e8
 7233 1035 25000000 		.4byte	0x25
 7234 1039 48       		.byte	0x48
 7235 103a 0A       		.uleb128 0xa
 7236 103b 130B0000 		.4byte	.LASF218
 7237 103f 15       		.byte	0x15
 7238 1040 E902     		.2byte	0x2e9
 7239 1042 25000000 		.4byte	0x25
 7240 1046 4C       		.byte	0x4c
 7241 1047 0A       		.uleb128 0xa
 7242 1048 511F0000 		.4byte	.LASF219
 7243 104c 15       		.byte	0x15
 7244 104d EA02     		.2byte	0x2ea
 7245 104f 25000000 		.4byte	0x25
 7246 1053 50       		.byte	0x50
 7247 1054 0A       		.uleb128 0xa
 7248 1055 AC060000 		.4byte	.LASF220
 7249 1059 15       		.byte	0x15
 7250 105a EB02     		.2byte	0x2eb
 7251 105c 25000000 		.4byte	0x25
 7252 1060 54       		.byte	0x54
 7253 1061 0A       		.uleb128 0xa
 7254 1062 19110000 		.4byte	.LASF221
 7255 1066 15       		.byte	0x15
 7256 1067 EC02     		.2byte	0x2ec
 7257 1069 25000000 		.4byte	0x25
 7258 106d 58       		.byte	0x58
 7259 106e 0A       		.uleb128 0xa
 7260 106f 3D010000 		.4byte	.LASF222
 7261 1073 15       		.byte	0x15
 7262 1074 ED02     		.2byte	0x2ed
 7263 1076 B9000000 		.4byte	0xb9
 7264 107a 5C       		.byte	0x5c
 7265 107b 0A       		.uleb128 0xa
 7266 107c 0B230000 		.4byte	.LASF223
 7267 1080 15       		.byte	0x15
 7268 1081 EE02     		.2byte	0x2ee
 7269 1083 25000000 		.4byte	0x25
 7270 1087 60       		.byte	0x60
 7271 1088 0A       		.uleb128 0xa
 7272 1089 CA240000 		.4byte	.LASF224
 7273 108d 15       		.byte	0x15
ARM GAS  /tmp/ccIHdayg.s 			page 130


 7274 108e EF02     		.2byte	0x2ef
 7275 1090 25000000 		.4byte	0x25
 7276 1094 64       		.byte	0x64
 7277 1095 0A       		.uleb128 0xa
 7278 1096 F1190000 		.4byte	.LASF225
 7279 109a 15       		.byte	0x15
 7280 109b F002     		.2byte	0x2f0
 7281 109d 25000000 		.4byte	0x25
 7282 10a1 68       		.byte	0x68
 7283 10a2 0A       		.uleb128 0xa
 7284 10a3 C22B0000 		.4byte	.LASF226
 7285 10a7 15       		.byte	0x15
 7286 10a8 F102     		.2byte	0x2f1
 7287 10aa 25000000 		.4byte	0x25
 7288 10ae 6C       		.byte	0x6c
 7289 10af 0A       		.uleb128 0xa
 7290 10b0 BF050000 		.4byte	.LASF227
 7291 10b4 15       		.byte	0x15
 7292 10b5 F202     		.2byte	0x2f2
 7293 10b7 25000000 		.4byte	0x25
 7294 10bb 70       		.byte	0x70
 7295 10bc 0A       		.uleb128 0xa
 7296 10bd E6050000 		.4byte	.LASF228
 7297 10c1 15       		.byte	0x15
 7298 10c2 F302     		.2byte	0x2f3
 7299 10c4 25000000 		.4byte	0x25
 7300 10c8 74       		.byte	0x74
 7301 10c9 0A       		.uleb128 0xa
 7302 10ca 21290000 		.4byte	.LASF229
 7303 10ce 15       		.byte	0x15
 7304 10cf F402     		.2byte	0x2f4
 7305 10d1 25000000 		.4byte	0x25
 7306 10d5 78       		.byte	0x78
 7307 10d6 0A       		.uleb128 0xa
 7308 10d7 FB290000 		.4byte	.LASF230
 7309 10db 15       		.byte	0x15
 7310 10dc F502     		.2byte	0x2f5
 7311 10de D20E0000 		.4byte	0xed2
 7312 10e2 7C       		.byte	0x7c
 7313 10e3 0A       		.uleb128 0xa
 7314 10e4 C4230000 		.4byte	.LASF231
 7315 10e8 15       		.byte	0x15
 7316 10e9 F602     		.2byte	0x2f6
 7317 10eb 25000000 		.4byte	0x25
 7318 10ef 80       		.byte	0x80
 7319 10f0 0A       		.uleb128 0xa
 7320 10f1 B4230000 		.4byte	.LASF232
 7321 10f5 15       		.byte	0x15
 7322 10f6 F702     		.2byte	0x2f7
 7323 10f8 25000000 		.4byte	0x25
 7324 10fc 84       		.byte	0x84
 7325 10fd 0A       		.uleb128 0xa
 7326 10fe A7230000 		.4byte	.LASF233
 7327 1102 15       		.byte	0x15
 7328 1103 F802     		.2byte	0x2f8
 7329 1105 25000000 		.4byte	0x25
 7330 1109 88       		.byte	0x88
ARM GAS  /tmp/ccIHdayg.s 			page 131


 7331 110a 0A       		.uleb128 0xa
 7332 110b BA220000 		.4byte	.LASF234
 7333 110f 15       		.byte	0x15
 7334 1110 F902     		.2byte	0x2f9
 7335 1112 25000000 		.4byte	0x25
 7336 1116 8C       		.byte	0x8c
 7337 1117 0A       		.uleb128 0xa
 7338 1118 E80E0000 		.4byte	.LASF235
 7339 111c 15       		.byte	0x15
 7340 111d FA02     		.2byte	0x2fa
 7341 111f 25000000 		.4byte	0x25
 7342 1123 90       		.byte	0x90
 7343 1124 0A       		.uleb128 0xa
 7344 1125 6A1E0000 		.4byte	.LASF236
 7345 1129 15       		.byte	0x15
 7346 112a FB02     		.2byte	0x2fb
 7347 112c 25000000 		.4byte	0x25
 7348 1130 94       		.byte	0x94
 7349 1131 0A       		.uleb128 0xa
 7350 1132 C2130000 		.4byte	.LASF237
 7351 1136 15       		.byte	0x15
 7352 1137 FC02     		.2byte	0x2fc
 7353 1139 B9000000 		.4byte	0xb9
 7354 113d 98       		.byte	0x98
 7355 113e 0A       		.uleb128 0xa
 7356 113f 46080000 		.4byte	.LASF238
 7357 1143 15       		.byte	0x15
 7358 1144 FD02     		.2byte	0x2fd
 7359 1146 25000000 		.4byte	0x25
 7360 114a 9C       		.byte	0x9c
 7361 114b 0A       		.uleb128 0xa
 7362 114c 47090000 		.4byte	.LASF239
 7363 1150 15       		.byte	0x15
 7364 1151 FE02     		.2byte	0x2fe
 7365 1153 B9000000 		.4byte	0xb9
 7366 1157 A0       		.byte	0xa0
 7367 1158 0A       		.uleb128 0xa
 7368 1159 9B0B0000 		.4byte	.LASF240
 7369 115d 15       		.byte	0x15
 7370 115e FF02     		.2byte	0x2ff
 7371 1160 B9000000 		.4byte	0xb9
 7372 1164 A2       		.byte	0xa2
 7373 1165 0A       		.uleb128 0xa
 7374 1166 401C0000 		.4byte	.LASF241
 7375 116a 15       		.byte	0x15
 7376 116b 0003     		.2byte	0x300
 7377 116d 25000000 		.4byte	0x25
 7378 1171 A4       		.byte	0xa4
 7379 1172 0A       		.uleb128 0xa
 7380 1173 811F0000 		.4byte	.LASF242
 7381 1177 15       		.byte	0x15
 7382 1178 0103     		.2byte	0x301
 7383 117a 25000000 		.4byte	0x25
 7384 117e A8       		.byte	0xa8
 7385 117f 0A       		.uleb128 0xa
 7386 1180 7B050000 		.4byte	.LASF243
 7387 1184 15       		.byte	0x15
ARM GAS  /tmp/ccIHdayg.s 			page 132


 7388 1185 0203     		.2byte	0x302
 7389 1187 25000000 		.4byte	0x25
 7390 118b AC       		.byte	0xac
 7391 118c 0A       		.uleb128 0xa
 7392 118d 10210000 		.4byte	.LASF244
 7393 1191 15       		.byte	0x15
 7394 1192 0303     		.2byte	0x303
 7395 1194 25000000 		.4byte	0x25
 7396 1198 B0       		.byte	0xb0
 7397 1199 0A       		.uleb128 0xa
 7398 119a 69040000 		.4byte	.LASF245
 7399 119e 15       		.byte	0x15
 7400 119f 0403     		.2byte	0x304
 7401 11a1 25000000 		.4byte	0x25
 7402 11a5 B4       		.byte	0xb4
 7403 11a6 0A       		.uleb128 0xa
 7404 11a7 91000000 		.4byte	.LASF246
 7405 11ab 15       		.byte	0x15
 7406 11ac 0503     		.2byte	0x305
 7407 11ae 25000000 		.4byte	0x25
 7408 11b2 B8       		.byte	0xb8
 7409 11b3 0A       		.uleb128 0xa
 7410 11b4 D32C0000 		.4byte	.LASF247
 7411 11b8 15       		.byte	0x15
 7412 11b9 0603     		.2byte	0x306
 7413 11bb 25000000 		.4byte	0x25
 7414 11bf BC       		.byte	0xbc
 7415 11c0 0A       		.uleb128 0xa
 7416 11c1 31260000 		.4byte	.LASF248
 7417 11c5 15       		.byte	0x15
 7418 11c6 0703     		.2byte	0x307
 7419 11c8 25000000 		.4byte	0x25
 7420 11cc C0       		.byte	0xc0
 7421 11cd 0A       		.uleb128 0xa
 7422 11ce 680E0000 		.4byte	.LASF249
 7423 11d2 15       		.byte	0x15
 7424 11d3 0803     		.2byte	0x308
 7425 11d5 25000000 		.4byte	0x25
 7426 11d9 C4       		.byte	0xc4
 7427 11da 0A       		.uleb128 0xa
 7428 11db 20040000 		.4byte	.LASF250
 7429 11df 15       		.byte	0x15
 7430 11e0 0903     		.2byte	0x309
 7431 11e2 25000000 		.4byte	0x25
 7432 11e6 C8       		.byte	0xc8
 7433 11e7 0A       		.uleb128 0xa
 7434 11e8 B22C0000 		.4byte	.LASF251
 7435 11ec 15       		.byte	0x15
 7436 11ed 0A03     		.2byte	0x30a
 7437 11ef 25000000 		.4byte	0x25
 7438 11f3 CC       		.byte	0xcc
 7439 11f4 0A       		.uleb128 0xa
 7440 11f5 09030000 		.4byte	.LASF252
 7441 11f9 15       		.byte	0x15
 7442 11fa 0B03     		.2byte	0x30b
 7443 11fc 25000000 		.4byte	0x25
 7444 1200 D0       		.byte	0xd0
ARM GAS  /tmp/ccIHdayg.s 			page 133


 7445 1201 0A       		.uleb128 0xa
 7446 1202 1D150000 		.4byte	.LASF253
 7447 1206 15       		.byte	0x15
 7448 1207 0C03     		.2byte	0x30c
 7449 1209 25000000 		.4byte	0x25
 7450 120d D4       		.byte	0xd4
 7451 120e 0A       		.uleb128 0xa
 7452 120f F3230000 		.4byte	.LASF254
 7453 1213 15       		.byte	0x15
 7454 1214 0D03     		.2byte	0x30d
 7455 1216 25000000 		.4byte	0x25
 7456 121a D8       		.byte	0xd8
 7457 121b 0A       		.uleb128 0xa
 7458 121c 0C0C0000 		.4byte	.LASF255
 7459 1220 15       		.byte	0x15
 7460 1221 0E03     		.2byte	0x30e
 7461 1223 B9000000 		.4byte	0xb9
 7462 1227 DC       		.byte	0xdc
 7463 1228 0A       		.uleb128 0xa
 7464 1229 C8180000 		.4byte	.LASF256
 7465 122d 15       		.byte	0x15
 7466 122e 0F03     		.2byte	0x30f
 7467 1230 25000000 		.4byte	0x25
 7468 1234 E0       		.byte	0xe0
 7469 1235 0A       		.uleb128 0xa
 7470 1236 49030000 		.4byte	.LASF257
 7471 123a 15       		.byte	0x15
 7472 123b 1003     		.2byte	0x310
 7473 123d B9000000 		.4byte	0xb9
 7474 1241 E4       		.byte	0xe4
 7475 1242 0A       		.uleb128 0xa
 7476 1243 4D2C0000 		.4byte	.LASF258
 7477 1247 15       		.byte	0x15
 7478 1248 1103     		.2byte	0x311
 7479 124a B9000000 		.4byte	0xb9
 7480 124e E6       		.byte	0xe6
 7481 124f 00       		.byte	0
 7482 1250 18       		.uleb128 0x18
 7483 1251 DC040000 		.4byte	.LASF259
 7484 1255 15       		.byte	0x15
 7485 1256 1203     		.2byte	0x312
 7486 1258 090F0000 		.4byte	0xf09
 7487 125c 06       		.uleb128 0x6
 7488 125d 50120000 		.4byte	0x1250
 7489 1261 20       		.uleb128 0x20
 7490 1262 07       		.byte	0x7
 7491 1263 01       		.byte	0x1
 7492 1264 45000000 		.4byte	0x45
 7493 1268 15       		.byte	0x15
 7494 1269 2B03     		.2byte	0x32b
 7495 126b 94120000 		.4byte	0x1294
 7496 126f 21       		.uleb128 0x21
 7497 1270 E7240000 		.4byte	.LASF260
 7498 1274 00       		.byte	0
 7499 1275 21       		.uleb128 0x21
 7500 1276 5D110000 		.4byte	.LASF261
 7501 127a 01       		.byte	0x1
ARM GAS  /tmp/ccIHdayg.s 			page 134


 7502 127b 21       		.uleb128 0x21
 7503 127c 4E0C0000 		.4byte	.LASF262
 7504 1280 02       		.byte	0x2
 7505 1281 21       		.uleb128 0x21
 7506 1282 AB030000 		.4byte	.LASF263
 7507 1286 03       		.byte	0x3
 7508 1287 21       		.uleb128 0x21
 7509 1288 070D0000 		.4byte	.LASF264
 7510 128c 04       		.byte	0x4
 7511 128d 21       		.uleb128 0x21
 7512 128e 9B010000 		.4byte	.LASF265
 7513 1292 05       		.byte	0x5
 7514 1293 00       		.byte	0
 7515 1294 18       		.uleb128 0x18
 7516 1295 CA110000 		.4byte	.LASF266
 7517 1299 15       		.byte	0x15
 7518 129a 3203     		.2byte	0x332
 7519 129c 61120000 		.4byte	0x1261
 7520 12a0 20       		.uleb128 0x20
 7521 12a1 07       		.byte	0x7
 7522 12a2 01       		.byte	0x1
 7523 12a3 45000000 		.4byte	0x45
 7524 12a7 15       		.byte	0x15
 7525 12a8 3403     		.2byte	0x334
 7526 12aa C1120000 		.4byte	0x12c1
 7527 12ae 21       		.uleb128 0x21
 7528 12af 03120000 		.4byte	.LASF267
 7529 12b3 00       		.byte	0
 7530 12b4 21       		.uleb128 0x21
 7531 12b5 8E270000 		.4byte	.LASF268
 7532 12b9 01       		.byte	0x1
 7533 12ba 21       		.uleb128 0x21
 7534 12bb 83250000 		.4byte	.LASF269
 7535 12bf 02       		.byte	0x2
 7536 12c0 00       		.byte	0
 7537 12c1 18       		.uleb128 0x18
 7538 12c2 7C100000 		.4byte	.LASF270
 7539 12c6 15       		.byte	0x15
 7540 12c7 3803     		.2byte	0x338
 7541 12c9 A0120000 		.4byte	0x12a0
 7542 12cd 17       		.uleb128 0x17
 7543 12ce 3C       		.byte	0x3c
 7544 12cf 15       		.byte	0x15
 7545 12d0 3A03     		.2byte	0x33a
 7546 12d2 73130000 		.4byte	0x1373
 7547 12d6 0A       		.uleb128 0xa
 7548 12d7 B6090000 		.4byte	.LASF271
 7549 12db 15       		.byte	0x15
 7550 12dc 3B03     		.2byte	0x33b
 7551 12de 94120000 		.4byte	0x1294
 7552 12e2 00       		.byte	0
 7553 12e3 0A       		.uleb128 0xa
 7554 12e4 980A0000 		.4byte	.LASF272
 7555 12e8 15       		.byte	0x15
 7556 12e9 3C03     		.2byte	0x33c
 7557 12eb C1120000 		.4byte	0x12c1
 7558 12ef 01       		.byte	0x1
ARM GAS  /tmp/ccIHdayg.s 			page 135


 7559 12f0 0A       		.uleb128 0xa
 7560 12f1 F4050000 		.4byte	.LASF273
 7561 12f5 15       		.byte	0x15
 7562 12f6 3D03     		.2byte	0x33d
 7563 12f8 2C000000 		.4byte	0x2c
 7564 12fc 04       		.byte	0x4
 7565 12fd 0A       		.uleb128 0xa
 7566 12fe 172B0000 		.4byte	.LASF274
 7567 1302 15       		.byte	0x15
 7568 1303 3E03     		.2byte	0x33e
 7569 1305 25000000 		.4byte	0x25
 7570 1309 08       		.byte	0x8
 7571 130a 0A       		.uleb128 0xa
 7572 130b 87030000 		.4byte	.LASF275
 7573 130f 15       		.byte	0x15
 7574 1310 3F03     		.2byte	0x33f
 7575 1312 25000000 		.4byte	0x25
 7576 1316 0C       		.byte	0xc
 7577 1317 0A       		.uleb128 0xa
 7578 1318 64030000 		.4byte	.LASF276
 7579 131c 15       		.byte	0x15
 7580 131d 4003     		.2byte	0x340
 7581 131f 25000000 		.4byte	0x25
 7582 1323 10       		.byte	0x10
 7583 1324 0A       		.uleb128 0xa
 7584 1325 760B0000 		.4byte	.LASF277
 7585 1329 15       		.byte	0x15
 7586 132a 4103     		.2byte	0x341
 7587 132c 25000000 		.4byte	0x25
 7588 1330 14       		.byte	0x14
 7589 1331 0A       		.uleb128 0xa
 7590 1332 68050000 		.4byte	.LASF278
 7591 1336 15       		.byte	0x15
 7592 1337 4203     		.2byte	0x342
 7593 1339 25000000 		.4byte	0x25
 7594 133d 18       		.byte	0x18
 7595 133e 0A       		.uleb128 0xa
 7596 133f 71050000 		.4byte	.LASF279
 7597 1343 15       		.byte	0x15
 7598 1344 4303     		.2byte	0x343
 7599 1346 25000000 		.4byte	0x25
 7600 134a 1C       		.byte	0x1c
 7601 134b 0A       		.uleb128 0xa
 7602 134c 5B210000 		.4byte	.LASF280
 7603 1350 15       		.byte	0x15
 7604 1351 4403     		.2byte	0x344
 7605 1353 25000000 		.4byte	0x25
 7606 1357 20       		.byte	0x20
 7607 1358 0A       		.uleb128 0xa
 7608 1359 CF1E0000 		.4byte	.LASF281
 7609 135d 15       		.byte	0x15
 7610 135e 4503     		.2byte	0x345
 7611 1360 E90E0000 		.4byte	0xee9
 7612 1364 24       		.byte	0x24
 7613 1365 0A       		.uleb128 0xa
 7614 1366 A6240000 		.4byte	.LASF282
 7615 136a 15       		.byte	0x15
ARM GAS  /tmp/ccIHdayg.s 			page 136


 7616 136b 4603     		.2byte	0x346
 7617 136d E90E0000 		.4byte	0xee9
 7618 1371 30       		.byte	0x30
 7619 1372 00       		.byte	0
 7620 1373 18       		.uleb128 0x18
 7621 1374 DF190000 		.4byte	.LASF283
 7622 1378 15       		.byte	0x15
 7623 1379 4703     		.2byte	0x347
 7624 137b CD120000 		.4byte	0x12cd
 7625 137f 06       		.uleb128 0x6
 7626 1380 73130000 		.4byte	0x1373
 7627 1384 17       		.uleb128 0x17
 7628 1385 14       		.byte	0x14
 7629 1386 15       		.byte	0x15
 7630 1387 9804     		.2byte	0x498
 7631 1389 CE130000 		.4byte	0x13ce
 7632 138d 09       		.uleb128 0x9
 7633 138e 696400   		.ascii	"id\000"
 7634 1391 15       		.byte	0x15
 7635 1392 9904     		.2byte	0x499
 7636 1394 2C000000 		.4byte	0x2c
 7637 1398 00       		.byte	0
 7638 1399 0A       		.uleb128 0xa
 7639 139a EC2A0000 		.4byte	.LASF284
 7640 139e 15       		.byte	0x15
 7641 139f 9A04     		.2byte	0x49a
 7642 13a1 72010000 		.4byte	0x172
 7643 13a5 04       		.byte	0x4
 7644 13a6 09       		.uleb128 0x9
 7645 13a7 72706D00 		.ascii	"rpm\000"
 7646 13ab 15       		.byte	0x15
 7647 13ac 9B04     		.2byte	0x49b
 7648 13ae 25000000 		.4byte	0x25
 7649 13b2 08       		.byte	0x8
 7650 13b3 0A       		.uleb128 0xa
 7651 13b4 C9190000 		.4byte	.LASF285
 7652 13b8 15       		.byte	0x15
 7653 13b9 9C04     		.2byte	0x49c
 7654 13bb 25000000 		.4byte	0x25
 7655 13bf 0C       		.byte	0xc
 7656 13c0 0A       		.uleb128 0xa
 7657 13c1 99200000 		.4byte	.LASF286
 7658 13c5 15       		.byte	0x15
 7659 13c6 9D04     		.2byte	0x49d
 7660 13c8 25000000 		.4byte	0x25
 7661 13cc 10       		.byte	0x10
 7662 13cd 00       		.byte	0
 7663 13ce 18       		.uleb128 0x18
 7664 13cf DD080000 		.4byte	.LASF287
 7665 13d3 15       		.byte	0x15
 7666 13d4 9E04     		.2byte	0x49e
 7667 13d6 84130000 		.4byte	0x1384
 7668 13da 02       		.uleb128 0x2
 7669 13db 08       		.byte	0x8
 7670 13dc 04       		.byte	0x4
 7671 13dd 3E220000 		.4byte	.LASF288
 7672 13e1 17       		.uleb128 0x17
ARM GAS  /tmp/ccIHdayg.s 			page 137


 7673 13e2 18       		.byte	0x18
 7674 13e3 15       		.byte	0x15
 7675 13e4 3D05     		.2byte	0x53d
 7676 13e6 1F140000 		.4byte	0x141f
 7677 13ea 0A       		.uleb128 0xa
 7678 13eb 9E1A0000 		.4byte	.LASF289
 7679 13ef 15       		.byte	0x15
 7680 13f0 3E05     		.2byte	0x53e
 7681 13f2 D9000000 		.4byte	0xd9
 7682 13f6 00       		.byte	0
 7683 13f7 0A       		.uleb128 0xa
 7684 13f8 A4130000 		.4byte	.LASF290
 7685 13fc 15       		.byte	0x15
 7686 13fd 3F05     		.2byte	0x53f
 7687 13ff E9000000 		.4byte	0xe9
 7688 1403 04       		.byte	0x4
 7689 1404 0A       		.uleb128 0xa
 7690 1405 B01E0000 		.4byte	.LASF291
 7691 1409 15       		.byte	0x15
 7692 140a 4105     		.2byte	0x541
 7693 140c D9000000 		.4byte	0xd9
 7694 1410 0C       		.byte	0xc
 7695 1411 0A       		.uleb128 0xa
 7696 1412 E30C0000 		.4byte	.LASF292
 7697 1416 15       		.byte	0x15
 7698 1417 4205     		.2byte	0x542
 7699 1419 E9000000 		.4byte	0xe9
 7700 141d 10       		.byte	0x10
 7701 141e 00       		.byte	0
 7702 141f 18       		.uleb128 0x18
 7703 1420 3A1B0000 		.4byte	.LASF293
 7704 1424 15       		.byte	0x15
 7705 1425 4305     		.2byte	0x543
 7706 1427 E1130000 		.4byte	0x13e1
 7707 142b 06       		.uleb128 0x6
 7708 142c 1F140000 		.4byte	0x141f
 7709 1430 13       		.uleb128 0x13
 7710 1431 361D0000 		.4byte	.LASF294
 7711 1435 16       		.byte	0x16
 7712 1436 6201     		.2byte	0x162
 7713 1438 D20E0000 		.4byte	0xed2
 7714 143c 13       		.uleb128 0x13
 7715 143d 2A130000 		.4byte	.LASF295
 7716 1441 16       		.byte	0x16
 7717 1442 6301     		.2byte	0x163
 7718 1444 2B140000 		.4byte	0x142b
 7719 1448 15       		.uleb128 0x15
 7720 1449 0C       		.byte	0xc
 7721 144a 17       		.byte	0x17
 7722 144b DA       		.byte	0xda
 7723 144c 8D140000 		.4byte	0x148d
 7724 1450 08       		.uleb128 0x8
 7725 1451 972B0000 		.4byte	.LASF296
 7726 1455 17       		.byte	0x17
 7727 1456 DB       		.byte	0xdb
 7728 1457 8D140000 		.4byte	0x148d
 7729 145b 00       		.byte	0
ARM GAS  /tmp/ccIHdayg.s 			page 138


 7730 145c 08       		.uleb128 0x8
 7731 145d 5C140000 		.4byte	.LASF297
 7732 1461 17       		.byte	0x17
 7733 1462 DC       		.byte	0xdc
 7734 1463 93140000 		.4byte	0x1493
 7735 1467 04       		.byte	0x4
 7736 1468 08       		.uleb128 0x8
 7737 1469 24060000 		.4byte	.LASF298
 7738 146d 17       		.byte	0x17
 7739 146e DD       		.byte	0xdd
 7740 146f A9000000 		.4byte	0xa9
 7741 1473 08       		.byte	0x8
 7742 1474 08       		.uleb128 0x8
 7743 1475 CB230000 		.4byte	.LASF299
 7744 1479 17       		.byte	0x17
 7745 147a DF       		.byte	0xdf
 7746 147b A9000000 		.4byte	0xa9
 7747 147f 09       		.byte	0x9
 7748 1480 08       		.uleb128 0x8
 7749 1481 0E050000 		.4byte	.LASF300
 7750 1485 17       		.byte	0x17
 7751 1486 E0       		.byte	0xe0
 7752 1487 A9000000 		.4byte	0xa9
 7753 148b 0A       		.byte	0xa
 7754 148c 00       		.byte	0
 7755 148d 0B       		.uleb128 0xb
 7756 148e 04       		.byte	0x4
 7757 148f 91070000 		.4byte	0x791
 7758 1493 0B       		.uleb128 0xb
 7759 1494 04       		.byte	0x4
 7760 1495 E4000000 		.4byte	0xe4
 7761 1499 04       		.uleb128 0x4
 7762 149a F9160000 		.4byte	.LASF301
 7763 149e 17       		.byte	0x17
 7764 149f E1       		.byte	0xe1
 7765 14a0 48140000 		.4byte	0x1448
 7766 14a4 05       		.uleb128 0x5
 7767 14a5 99140000 		.4byte	0x1499
 7768 14a9 11       		.uleb128 0x11
 7769 14aa A4140000 		.4byte	0x14a4
 7770 14ae B9140000 		.4byte	0x14b9
 7771 14b2 12       		.uleb128 0x12
 7772 14b3 A2000000 		.4byte	0xa2
 7773 14b7 0F       		.byte	0xf
 7774 14b8 00       		.byte	0
 7775 14b9 05       		.uleb128 0x5
 7776 14ba A9140000 		.4byte	0x14a9
 7777 14be 13       		.uleb128 0x13
 7778 14bf 3F200000 		.4byte	.LASF302
 7779 14c3 17       		.byte	0x17
 7780 14c4 BB01     		.2byte	0x1bb
 7781 14c6 B9140000 		.4byte	0x14b9
 7782 14ca 1F       		.uleb128 0x1f
 7783 14cb 46010000 		.4byte	0x146
 7784 14cf E3140000 		.4byte	0x14e3
 7785 14d3 0E       		.uleb128 0xe
 7786 14d4 93030000 		.4byte	0x393
ARM GAS  /tmp/ccIHdayg.s 			page 139


 7787 14d8 0E       		.uleb128 0xe
 7788 14d9 A9000000 		.4byte	0xa9
 7789 14dd 0E       		.uleb128 0xe
 7790 14de 72010000 		.4byte	0x172
 7791 14e2 00       		.byte	0
 7792 14e3 0B       		.uleb128 0xb
 7793 14e4 04       		.byte	0x4
 7794 14e5 CA140000 		.4byte	0x14ca
 7795 14e9 1F       		.uleb128 0x1f
 7796 14ea 46010000 		.4byte	0x146
 7797 14ee FD140000 		.4byte	0x14fd
 7798 14f2 0E       		.uleb128 0xe
 7799 14f3 93030000 		.4byte	0x393
 7800 14f7 0E       		.uleb128 0xe
 7801 14f8 72010000 		.4byte	0x172
 7802 14fc 00       		.byte	0
 7803 14fd 0B       		.uleb128 0xb
 7804 14fe 04       		.byte	0x4
 7805 14ff E9140000 		.4byte	0x14e9
 7806 1503 1F       		.uleb128 0x1f
 7807 1504 F4000000 		.4byte	0xf4
 7808 1508 21150000 		.4byte	0x1521
 7809 150c 0E       		.uleb128 0xe
 7810 150d 93030000 		.4byte	0x393
 7811 1511 0E       		.uleb128 0xe
 7812 1512 6E0E0000 		.4byte	0xe6e
 7813 1516 0E       		.uleb128 0xe
 7814 1517 F4000000 		.4byte	0xf4
 7815 151b 0E       		.uleb128 0xe
 7816 151c 72010000 		.4byte	0x172
 7817 1520 00       		.byte	0
 7818 1521 0B       		.uleb128 0xb
 7819 1522 04       		.byte	0x4
 7820 1523 03150000 		.4byte	0x1503
 7821 1527 1F       		.uleb128 0x1f
 7822 1528 F4000000 		.4byte	0xf4
 7823 152c 45150000 		.4byte	0x1545
 7824 1530 0E       		.uleb128 0xe
 7825 1531 93030000 		.4byte	0x393
 7826 1535 0E       		.uleb128 0xe
 7827 1536 390E0000 		.4byte	0xe39
 7828 153a 0E       		.uleb128 0xe
 7829 153b F4000000 		.4byte	0xf4
 7830 153f 0E       		.uleb128 0xe
 7831 1540 72010000 		.4byte	0x172
 7832 1544 00       		.byte	0
 7833 1545 0B       		.uleb128 0xb
 7834 1546 04       		.byte	0x4
 7835 1547 27150000 		.4byte	0x1527
 7836 154b 15       		.uleb128 0x15
 7837 154c 04       		.byte	0x4
 7838 154d 18       		.byte	0x18
 7839 154e B3       		.byte	0xb3
 7840 154f 6C150000 		.4byte	0x156c
 7841 1553 16       		.uleb128 0x16
 7842 1554 73657400 		.ascii	"set\000"
 7843 1558 18       		.byte	0x18
ARM GAS  /tmp/ccIHdayg.s 			page 140


 7844 1559 B4       		.byte	0xb4
 7845 155a B9000000 		.4byte	0xb9
 7846 155e 00       		.byte	0
 7847 155f 08       		.uleb128 0x8
 7848 1560 BF110000 		.4byte	.LASF303
 7849 1564 18       		.byte	0x18
 7850 1565 B5       		.byte	0xb5
 7851 1566 B9000000 		.4byte	0xb9
 7852 156a 02       		.byte	0x2
 7853 156b 00       		.byte	0
 7854 156c 1C       		.uleb128 0x1c
 7855 156d 04       		.byte	0x4
 7856 156e 18       		.byte	0x18
 7857 156f B1       		.byte	0xb1
 7858 1570 87150000 		.4byte	0x1587
 7859 1574 22       		.uleb128 0x22
 7860 1575 5700     		.ascii	"W\000"
 7861 1577 18       		.byte	0x18
 7862 1578 B2       		.byte	0xb2
 7863 1579 D9000000 		.4byte	0xd9
 7864 157d 22       		.uleb128 0x22
 7865 157e 4800     		.ascii	"H\000"
 7866 1580 18       		.byte	0x18
 7867 1581 B6       		.byte	0xb6
 7868 1582 4B150000 		.4byte	0x154b
 7869 1586 00       		.byte	0
 7870 1587 06       		.uleb128 0x6
 7871 1588 6C150000 		.4byte	0x156c
 7872 158c 15       		.uleb128 0x15
 7873 158d 2C       		.byte	0x2c
 7874 158e 18       		.byte	0x18
 7875 158f A9       		.byte	0xa9
 7876 1590 19160000 		.4byte	0x1619
 7877 1594 08       		.uleb128 0x8
 7878 1595 ED230000 		.4byte	.LASF304
 7879 1599 18       		.byte	0x18
 7880 159a AB       		.byte	0xab
 7881 159b E4000000 		.4byte	0xe4
 7882 159f 00       		.byte	0
 7883 15a0 08       		.uleb128 0x8
 7884 15a1 79040000 		.4byte	.LASF305
 7885 15a5 18       		.byte	0x18
 7886 15a6 AC       		.byte	0xac
 7887 15a7 E4000000 		.4byte	0xe4
 7888 15ab 04       		.byte	0x4
 7889 15ac 08       		.uleb128 0x8
 7890 15ad 51130000 		.4byte	.LASF306
 7891 15b1 18       		.byte	0x18
 7892 15b2 AD       		.byte	0xad
 7893 15b3 E4000000 		.4byte	0xe4
 7894 15b7 08       		.byte	0x8
 7895 15b8 08       		.uleb128 0x8
 7896 15b9 FB220000 		.4byte	.LASF307
 7897 15bd 18       		.byte	0x18
 7898 15be AE       		.byte	0xae
 7899 15bf E4000000 		.4byte	0xe4
 7900 15c3 0C       		.byte	0xc
ARM GAS  /tmp/ccIHdayg.s 			page 141


 7901 15c4 16       		.uleb128 0x16
 7902 15c5 49445200 		.ascii	"IDR\000"
 7903 15c9 18       		.byte	0x18
 7904 15ca AF       		.byte	0xaf
 7905 15cb E4000000 		.4byte	0xe4
 7906 15cf 10       		.byte	0x10
 7907 15d0 16       		.uleb128 0x16
 7908 15d1 4F445200 		.ascii	"ODR\000"
 7909 15d5 18       		.byte	0x18
 7910 15d6 B0       		.byte	0xb0
 7911 15d7 E4000000 		.4byte	0xe4
 7912 15db 14       		.byte	0x14
 7913 15dc 08       		.uleb128 0x8
 7914 15dd F4160000 		.4byte	.LASF308
 7915 15e1 18       		.byte	0x18
 7916 15e2 B7       		.byte	0xb7
 7917 15e3 87150000 		.4byte	0x1587
 7918 15e7 18       		.byte	0x18
 7919 15e8 08       		.uleb128 0x8
 7920 15e9 0B1D0000 		.4byte	.LASF309
 7921 15ed 18       		.byte	0x18
 7922 15ee B8       		.byte	0xb8
 7923 15ef E4000000 		.4byte	0xe4
 7924 15f3 1C       		.byte	0x1c
 7925 15f4 08       		.uleb128 0x8
 7926 15f5 D3200000 		.4byte	.LASF310
 7927 15f9 18       		.byte	0x18
 7928 15fa B9       		.byte	0xb9
 7929 15fb E4000000 		.4byte	0xe4
 7930 15ff 20       		.byte	0x20
 7931 1600 08       		.uleb128 0x8
 7932 1601 BB200000 		.4byte	.LASF311
 7933 1605 18       		.byte	0x18
 7934 1606 BA       		.byte	0xba
 7935 1607 E4000000 		.4byte	0xe4
 7936 160b 24       		.byte	0x24
 7937 160c 16       		.uleb128 0x16
 7938 160d 42525200 		.ascii	"BRR\000"
 7939 1611 18       		.byte	0x18
 7940 1612 BB       		.byte	0xbb
 7941 1613 E4000000 		.4byte	0xe4
 7942 1617 28       		.byte	0x28
 7943 1618 00       		.byte	0
 7944 1619 04       		.uleb128 0x4
 7945 161a 6D140000 		.4byte	.LASF312
 7946 161e 18       		.byte	0x18
 7947 161f BC       		.byte	0xbc
 7948 1620 8C150000 		.4byte	0x158c
 7949 1624 15       		.uleb128 0x15
 7950 1625 1C       		.byte	0x1c
 7951 1626 18       		.byte	0x18
 7952 1627 C1       		.byte	0xc1
 7953 1628 81160000 		.4byte	0x1681
 7954 162c 08       		.uleb128 0x8
 7955 162d 8C280000 		.4byte	.LASF313
 7956 1631 18       		.byte	0x18
 7957 1632 C3       		.byte	0xc3
ARM GAS  /tmp/ccIHdayg.s 			page 142


 7958 1633 D9000000 		.4byte	0xd9
 7959 1637 00       		.byte	0
 7960 1638 08       		.uleb128 0x8
 7961 1639 62040000 		.4byte	.LASF314
 7962 163d 18       		.byte	0x18
 7963 163e C5       		.byte	0xc5
 7964 163f D9000000 		.4byte	0xd9
 7965 1643 04       		.byte	0x4
 7966 1644 08       		.uleb128 0x8
 7967 1645 7F030000 		.4byte	.LASF315
 7968 1649 18       		.byte	0x18
 7969 164a C7       		.byte	0xc7
 7970 164b D9000000 		.4byte	0xd9
 7971 164f 08       		.byte	0x8
 7972 1650 08       		.uleb128 0x8
 7973 1651 DB270000 		.4byte	.LASF316
 7974 1655 18       		.byte	0x18
 7975 1656 C9       		.byte	0xc9
 7976 1657 D9000000 		.4byte	0xd9
 7977 165b 0C       		.byte	0xc
 7978 165c 16       		.uleb128 0x16
 7979 165d 6F647200 		.ascii	"odr\000"
 7980 1661 18       		.byte	0x18
 7981 1662 CB       		.byte	0xcb
 7982 1663 D9000000 		.4byte	0xd9
 7983 1667 10       		.byte	0x10
 7984 1668 08       		.uleb128 0x8
 7985 1669 A2230000 		.4byte	.LASF317
 7986 166d 18       		.byte	0x18
 7987 166e CD       		.byte	0xcd
 7988 166f D9000000 		.4byte	0xd9
 7989 1673 14       		.byte	0x14
 7990 1674 08       		.uleb128 0x8
 7991 1675 94230000 		.4byte	.LASF318
 7992 1679 18       		.byte	0x18
 7993 167a CF       		.byte	0xcf
 7994 167b D9000000 		.4byte	0xd9
 7995 167f 18       		.byte	0x18
 7996 1680 00       		.byte	0
 7997 1681 04       		.uleb128 0x4
 7998 1682 17200000 		.4byte	.LASF319
 7999 1686 18       		.byte	0x18
 8000 1687 D0       		.byte	0xd0
 8001 1688 24160000 		.4byte	0x1624
 8002 168c 15       		.uleb128 0x15
 8003 168d FC       		.byte	0xfc
 8004 168e 18       		.byte	0x18
 8005 168f D9       		.byte	0xd9
 8006 1690 01170000 		.4byte	0x1701
 8007 1694 08       		.uleb128 0x8
 8008 1695 EB140000 		.4byte	.LASF320
 8009 1699 18       		.byte	0x18
 8010 169a DC       		.byte	0xdc
 8011 169b 81160000 		.4byte	0x1681
 8012 169f 00       		.byte	0
 8013 16a0 08       		.uleb128 0x8
 8014 16a1 4B040000 		.4byte	.LASF321
ARM GAS  /tmp/ccIHdayg.s 			page 143


 8015 16a5 18       		.byte	0x18
 8016 16a6 E0       		.byte	0xe0
 8017 16a7 81160000 		.4byte	0x1681
 8018 16ab 1C       		.byte	0x1c
 8019 16ac 08       		.uleb128 0x8
 8020 16ad ED020000 		.4byte	.LASF322
 8021 16b1 18       		.byte	0x18
 8022 16b2 E4       		.byte	0xe4
 8023 16b3 81160000 		.4byte	0x1681
 8024 16b7 38       		.byte	0x38
 8025 16b8 08       		.uleb128 0x8
 8026 16b9 C1120000 		.4byte	.LASF323
 8027 16bd 18       		.byte	0x18
 8028 16be E8       		.byte	0xe8
 8029 16bf 81160000 		.4byte	0x1681
 8030 16c3 54       		.byte	0x54
 8031 16c4 08       		.uleb128 0x8
 8032 16c5 041F0000 		.4byte	.LASF324
 8033 16c9 18       		.byte	0x18
 8034 16ca EC       		.byte	0xec
 8035 16cb 81160000 		.4byte	0x1681
 8036 16cf 70       		.byte	0x70
 8037 16d0 08       		.uleb128 0x8
 8038 16d1 C42C0000 		.4byte	.LASF325
 8039 16d5 18       		.byte	0x18
 8040 16d6 F0       		.byte	0xf0
 8041 16d7 81160000 		.4byte	0x1681
 8042 16db 8C       		.byte	0x8c
 8043 16dc 08       		.uleb128 0x8
 8044 16dd 430F0000 		.4byte	.LASF326
 8045 16e1 18       		.byte	0x18
 8046 16e2 F4       		.byte	0xf4
 8047 16e3 81160000 		.4byte	0x1681
 8048 16e7 A8       		.byte	0xa8
 8049 16e8 08       		.uleb128 0x8
 8050 16e9 7D1C0000 		.4byte	.LASF327
 8051 16ed 18       		.byte	0x18
 8052 16ee F8       		.byte	0xf8
 8053 16ef 81160000 		.4byte	0x1681
 8054 16f3 C4       		.byte	0xc4
 8055 16f4 08       		.uleb128 0x8
 8056 16f5 2E2A0000 		.4byte	.LASF328
 8057 16f9 18       		.byte	0x18
 8058 16fa FC       		.byte	0xfc
 8059 16fb 81160000 		.4byte	0x1681
 8060 16ff E0       		.byte	0xe0
 8061 1700 00       		.byte	0
 8062 1701 04       		.uleb128 0x4
 8063 1702 7D0E0000 		.4byte	.LASF329
 8064 1706 18       		.byte	0x18
 8065 1707 FE       		.byte	0xfe
 8066 1708 8C160000 		.4byte	0x168c
 8067 170c 05       		.uleb128 0x5
 8068 170d 01170000 		.4byte	0x1701
 8069 1711 18       		.uleb128 0x18
 8070 1712 841C0000 		.4byte	.LASF330
 8071 1716 18       		.byte	0x18
ARM GAS  /tmp/ccIHdayg.s 			page 144


 8072 1717 1B01     		.2byte	0x11b
 8073 1719 1D170000 		.4byte	0x171d
 8074 171d 0B       		.uleb128 0xb
 8075 171e 04       		.byte	0x4
 8076 171f 19160000 		.4byte	0x1619
 8077 1723 13       		.uleb128 0x13
 8078 1724 74240000 		.4byte	.LASF331
 8079 1728 18       		.byte	0x18
 8080 1729 DA01     		.2byte	0x1da
 8081 172b 0C170000 		.4byte	0x170c
 8082 172f 23       		.uleb128 0x23
 8083 1730 07       		.byte	0x7
 8084 1731 01       		.byte	0x1
 8085 1732 45000000 		.4byte	0x45
 8086 1736 19       		.byte	0x19
 8087 1737 5F       		.byte	0x5f
 8088 1738 5B170000 		.4byte	0x175b
 8089 173c 21       		.uleb128 0x21
 8090 173d FC0C0000 		.4byte	.LASF332
 8091 1741 00       		.byte	0
 8092 1742 21       		.uleb128 0x21
 8093 1743 63010000 		.4byte	.LASF333
 8094 1747 01       		.byte	0x1
 8095 1748 21       		.uleb128 0x21
 8096 1749 52000000 		.4byte	.LASF334
 8097 174d 02       		.byte	0x2
 8098 174e 21       		.uleb128 0x21
 8099 174f B2070000 		.4byte	.LASF335
 8100 1753 03       		.byte	0x3
 8101 1754 21       		.uleb128 0x21
 8102 1755 D90C0000 		.4byte	.LASF336
 8103 1759 04       		.byte	0x4
 8104 175a 00       		.byte	0
 8105 175b 04       		.uleb128 0x4
 8106 175c ED070000 		.4byte	.LASF337
 8107 1760 19       		.byte	0x19
 8108 1761 65       		.byte	0x65
 8109 1762 2F170000 		.4byte	0x172f
 8110 1766 15       		.uleb128 0x15
 8111 1767 08       		.byte	0x8
 8112 1768 1A       		.byte	0x1a
 8113 1769 F4       		.byte	0xf4
 8114 176a 88170000 		.4byte	0x1788
 8115 176e 16       		.uleb128 0x16
 8116 176f 6D637200 		.ascii	"mcr\000"
 8117 1773 1A       		.byte	0x1a
 8118 1774 FA       		.byte	0xfa
 8119 1775 D9000000 		.4byte	0xd9
 8120 1779 00       		.byte	0
 8121 177a 09       		.uleb128 0x9
 8122 177b 62747200 		.ascii	"btr\000"
 8123 177f 1A       		.byte	0x1a
 8124 1780 0001     		.2byte	0x100
 8125 1782 D9000000 		.4byte	0xd9
 8126 1786 04       		.byte	0x4
 8127 1787 00       		.byte	0
 8128 1788 18       		.uleb128 0x18
ARM GAS  /tmp/ccIHdayg.s 			page 145


 8129 1789 FA1E0000 		.4byte	.LASF338
 8130 178d 1A       		.byte	0x1a
 8131 178e 0101     		.2byte	0x101
 8132 1790 66170000 		.4byte	0x1766
 8133 1794 05       		.uleb128 0x5
 8134 1795 88170000 		.4byte	0x1788
 8135 1799 17       		.uleb128 0x17
 8136 179a 30       		.byte	0x30
 8137 179b 1A       		.byte	0x1a
 8138 179c 0601     		.2byte	0x106
 8139 179e 25180000 		.4byte	0x1825
 8140 17a2 0A       		.uleb128 0xa
 8141 17a3 8D1A0000 		.4byte	.LASF339
 8142 17a7 1A       		.byte	0x1a
 8143 17a8 0A01     		.2byte	0x10a
 8144 17aa 5B170000 		.4byte	0x175b
 8145 17ae 00       		.byte	0
 8146 17af 0A       		.uleb128 0xa
 8147 17b0 2C210000 		.4byte	.LASF340
 8148 17b4 1A       		.byte	0x1a
 8149 17b5 0E01     		.2byte	0x10e
 8150 17b7 25180000 		.4byte	0x1825
 8151 17bb 04       		.byte	0x4
 8152 17bc 0A       		.uleb128 0xa
 8153 17bd 040C0000 		.4byte	.LASF341
 8154 17c1 1A       		.byte	0x1a
 8155 17c2 1201     		.2byte	0x112
 8156 17c4 E0020000 		.4byte	0x2e0
 8157 17c8 08       		.byte	0x8
 8158 17c9 0A       		.uleb128 0xa
 8159 17ca 63240000 		.4byte	.LASF342
 8160 17ce 1A       		.byte	0x1a
 8161 17cf 1601     		.2byte	0x116
 8162 17d1 E0020000 		.4byte	0x2e0
 8163 17d5 10       		.byte	0x10
 8164 17d6 0A       		.uleb128 0xa
 8165 17d7 C21E0000 		.4byte	.LASF343
 8166 17db 1A       		.byte	0x1a
 8167 17dc 2301     		.2byte	0x123
 8168 17de 940D0000 		.4byte	0xd94
 8169 17e2 18       		.byte	0x18
 8170 17e3 0A       		.uleb128 0xa
 8171 17e4 350F0000 		.4byte	.LASF344
 8172 17e8 1A       		.byte	0x1a
 8173 17e9 2A01     		.2byte	0x12a
 8174 17eb 940D0000 		.4byte	0xd94
 8175 17ef 1C       		.byte	0x1c
 8176 17f0 0A       		.uleb128 0xa
 8177 17f1 33130000 		.4byte	.LASF345
 8178 17f5 1A       		.byte	0x1a
 8179 17f6 3001     		.2byte	0x130
 8180 17f8 940D0000 		.4byte	0xd94
 8181 17fc 20       		.byte	0x20
 8182 17fd 0A       		.uleb128 0xa
 8183 17fe EB040000 		.4byte	.LASF346
 8184 1802 1A       		.byte	0x1a
 8185 1803 3501     		.2byte	0x135
ARM GAS  /tmp/ccIHdayg.s 			page 146


 8186 1805 940D0000 		.4byte	0xd94
 8187 1809 24       		.byte	0x24
 8188 180a 0A       		.uleb128 0xa
 8189 180b 8E0B0000 		.4byte	.LASF347
 8190 180f 1A       		.byte	0x1a
 8191 1810 3901     		.2byte	0x139
 8192 1812 940D0000 		.4byte	0xd94
 8193 1816 28       		.byte	0x28
 8194 1817 09       		.uleb128 0x9
 8195 1818 63616E00 		.ascii	"can\000"
 8196 181c 1A       		.byte	0x1a
 8197 181d 3F01     		.2byte	0x13f
 8198 181f 2B180000 		.4byte	0x182b
 8199 1823 2C       		.byte	0x2c
 8200 1824 00       		.byte	0
 8201 1825 0B       		.uleb128 0xb
 8202 1826 04       		.byte	0x4
 8203 1827 94170000 		.4byte	0x1794
 8204 182b 0B       		.uleb128 0xb
 8205 182c 04       		.byte	0x4
 8206 182d 2E070000 		.4byte	0x72e
 8207 1831 18       		.uleb128 0x18
 8208 1832 41050000 		.4byte	.LASF348
 8209 1836 1A       		.byte	0x1a
 8210 1837 4001     		.2byte	0x140
 8211 1839 99170000 		.4byte	0x1799
 8212 183d 13       		.uleb128 0x13
 8213 183e 83270000 		.4byte	.LASF349
 8214 1842 1A       		.byte	0x1a
 8215 1843 4B01     		.2byte	0x14b
 8216 1845 31180000 		.4byte	0x1831
 8217 1849 13       		.uleb128 0x13
 8218 184a E30D0000 		.4byte	.LASF350
 8219 184e 1A       		.byte	0x1a
 8220 184f 4F01     		.2byte	0x14f
 8221 1851 31180000 		.4byte	0x1831
 8222 1855 23       		.uleb128 0x23
 8223 1856 07       		.byte	0x7
 8224 1857 01       		.byte	0x1
 8225 1858 45000000 		.4byte	0x45
 8226 185c 1B       		.byte	0x1b
 8227 185d 4C       		.byte	0x4c
 8228 185e 87180000 		.4byte	0x1887
 8229 1862 21       		.uleb128 0x21
 8230 1863 83080000 		.4byte	.LASF351
 8231 1867 00       		.byte	0
 8232 1868 21       		.uleb128 0x21
 8233 1869 17130000 		.4byte	.LASF352
 8234 186d 01       		.byte	0x1
 8235 186e 21       		.uleb128 0x21
 8236 186f D3080000 		.4byte	.LASF353
 8237 1873 02       		.byte	0x2
 8238 1874 21       		.uleb128 0x21
 8239 1875 53060000 		.4byte	.LASF354
 8240 1879 03       		.byte	0x3
 8241 187a 21       		.uleb128 0x21
 8242 187b BB040000 		.4byte	.LASF355
ARM GAS  /tmp/ccIHdayg.s 			page 147


 8243 187f 04       		.byte	0x4
 8244 1880 21       		.uleb128 0x21
 8245 1881 86170000 		.4byte	.LASF356
 8246 1885 05       		.byte	0x5
 8247 1886 00       		.byte	0
 8248 1887 04       		.uleb128 0x4
 8249 1888 5C150000 		.4byte	.LASF357
 8250 188c 1B       		.byte	0x1b
 8251 188d 53       		.byte	0x53
 8252 188e 55180000 		.4byte	0x1855
 8253 1892 18       		.uleb128 0x18
 8254 1893 D2060000 		.4byte	.LASF358
 8255 1897 1C       		.byte	0x1c
 8256 1898 6A01     		.2byte	0x16a
 8257 189a B9000000 		.4byte	0xb9
 8258 189e 18       		.uleb128 0x18
 8259 189f 0D080000 		.4byte	.LASF359
 8260 18a3 1C       		.byte	0x1c
 8261 18a4 6F01     		.2byte	0x16f
 8262 18a6 D9000000 		.4byte	0xd9
 8263 18aa 20       		.uleb128 0x20
 8264 18ab 07       		.byte	0x7
 8265 18ac 01       		.byte	0x1
 8266 18ad 45000000 		.4byte	0x45
 8267 18b1 1C       		.byte	0x1c
 8268 18b2 7401     		.2byte	0x174
 8269 18b4 CB180000 		.4byte	0x18cb
 8270 18b8 21       		.uleb128 0x21
 8271 18b9 61060000 		.4byte	.LASF360
 8272 18bd 01       		.byte	0x1
 8273 18be 21       		.uleb128 0x21
 8274 18bf CA000000 		.4byte	.LASF361
 8275 18c3 02       		.byte	0x2
 8276 18c4 21       		.uleb128 0x21
 8277 18c5 C51A0000 		.4byte	.LASF362
 8278 18c9 03       		.byte	0x3
 8279 18ca 00       		.byte	0
 8280 18cb 18       		.uleb128 0x18
 8281 18cc B62B0000 		.4byte	.LASF363
 8282 18d0 1C       		.byte	0x1c
 8283 18d1 7801     		.2byte	0x178
 8284 18d3 AA180000 		.4byte	0x18aa
 8285 18d7 20       		.uleb128 0x20
 8286 18d8 07       		.byte	0x7
 8287 18d9 01       		.byte	0x1
 8288 18da 45000000 		.4byte	0x45
 8289 18de 1C       		.byte	0x1c
 8290 18df 7D01     		.2byte	0x17d
 8291 18e1 F8180000 		.4byte	0x18f8
 8292 18e5 21       		.uleb128 0x21
 8293 18e6 A3070000 		.4byte	.LASF364
 8294 18ea 01       		.byte	0x1
 8295 18eb 21       		.uleb128 0x21
 8296 18ec 052B0000 		.4byte	.LASF365
 8297 18f0 02       		.byte	0x2
 8298 18f1 21       		.uleb128 0x21
 8299 18f2 0C0E0000 		.4byte	.LASF366
ARM GAS  /tmp/ccIHdayg.s 			page 148


 8300 18f6 03       		.byte	0x3
 8301 18f7 00       		.byte	0
 8302 18f8 18       		.uleb128 0x18
 8303 18f9 F5080000 		.4byte	.LASF367
 8304 18fd 1C       		.byte	0x1c
 8305 18fe 8101     		.2byte	0x181
 8306 1900 D7180000 		.4byte	0x18d7
 8307 1904 17       		.uleb128 0x17
 8308 1905 0C       		.byte	0xc
 8309 1906 1C       		.byte	0x1c
 8310 1907 8601     		.2byte	0x186
 8311 1909 35190000 		.4byte	0x1935
 8312 190d 0A       		.uleb128 0xa
 8313 190e 30080000 		.4byte	.LASF368
 8314 1912 1C       		.byte	0x1c
 8315 1913 8801     		.2byte	0x188
 8316 1915 CB180000 		.4byte	0x18cb
 8317 1919 00       		.byte	0
 8318 191a 0A       		.uleb128 0xa
 8319 191b 2B050000 		.4byte	.LASF369
 8320 191f 1C       		.byte	0x1c
 8321 1920 8901     		.2byte	0x189
 8322 1922 D9000000 		.4byte	0xd9
 8323 1926 04       		.byte	0x4
 8324 1927 0A       		.uleb128 0xa
 8325 1928 942C0000 		.4byte	.LASF370
 8326 192c 1C       		.byte	0x1c
 8327 192d 8C01     		.2byte	0x18c
 8328 192f F8180000 		.4byte	0x18f8
 8329 1933 08       		.byte	0x8
 8330 1934 00       		.byte	0
 8331 1935 18       		.uleb128 0x18
 8332 1936 20030000 		.4byte	.LASF371
 8333 193a 1C       		.byte	0x1c
 8334 193b 8E01     		.2byte	0x18e
 8335 193d 04190000 		.4byte	0x1904
 8336 1941 05       		.uleb128 0x5
 8337 1942 35190000 		.4byte	0x1935
 8338 1946 18       		.uleb128 0x18
 8339 1947 49060000 		.4byte	.LASF372
 8340 194b 1C       		.byte	0x1c
 8341 194c 9301     		.2byte	0x193
 8342 194e 52190000 		.4byte	0x1952
 8343 1952 0C       		.uleb128 0xc
 8344 1953 49060000 		.4byte	.LASF372
 8345 1957 38       		.byte	0x38
 8346 1958 1C       		.byte	0x1c
 8347 1959 9801     		.2byte	0x198
 8348 195b EF190000 		.4byte	0x19ef
 8349 195f 0A       		.uleb128 0xa
 8350 1960 8D1A0000 		.4byte	.LASF339
 8351 1964 1C       		.byte	0x1c
 8352 1965 9C01     		.2byte	0x19c
 8353 1967 87180000 		.4byte	0x1887
 8354 196b 00       		.byte	0
 8355 196c 0A       		.uleb128 0xa
 8356 196d 2C210000 		.4byte	.LASF340
ARM GAS  /tmp/ccIHdayg.s 			page 149


 8357 1971 1C       		.byte	0x1c
 8358 1972 A001     		.2byte	0x1a0
 8359 1974 EF190000 		.4byte	0x19ef
 8360 1978 04       		.byte	0x4
 8361 1979 0A       		.uleb128 0xa
 8362 197a A5020000 		.4byte	.LASF373
 8363 197e 1C       		.byte	0x1c
 8364 197f A401     		.2byte	0x1a4
 8365 1981 9E180000 		.4byte	0x189e
 8366 1985 08       		.byte	0x8
 8367 1986 0A       		.uleb128 0xa
 8368 1987 77110000 		.4byte	.LASF374
 8369 198b 1C       		.byte	0x1c
 8370 198c A901     		.2byte	0x1a9
 8371 198e 100D0000 		.4byte	0xd10
 8372 1992 0C       		.byte	0xc
 8373 1993 0A       		.uleb128 0xa
 8374 1994 0D090000 		.4byte	.LASF375
 8375 1998 1C       		.byte	0x1c
 8376 1999 B201     		.2byte	0x1b2
 8377 199b AB020000 		.4byte	0x2ab
 8378 199f 1C       		.byte	0x1c
 8379 19a0 0A       		.uleb128 0xa
 8380 19a1 20130000 		.4byte	.LASF376
 8381 19a5 1C       		.byte	0x1c
 8382 19a6 B601     		.2byte	0x1b6
 8383 19a8 92180000 		.4byte	0x1892
 8384 19ac 20       		.byte	0x20
 8385 19ad 0A       		.uleb128 0xa
 8386 19ae 840A0000 		.4byte	.LASF377
 8387 19b2 1C       		.byte	0x1c
 8388 19b3 BA01     		.2byte	0x1ba
 8389 19b5 D9000000 		.4byte	0xd9
 8390 19b9 24       		.byte	0x24
 8391 19ba 0A       		.uleb128 0xa
 8392 19bb 2B0B0000 		.4byte	.LASF378
 8393 19bf 1C       		.byte	0x1c
 8394 19c0 BE01     		.2byte	0x1be
 8395 19c2 D9000000 		.4byte	0xd9
 8396 19c6 28       		.byte	0x28
 8397 19c7 0A       		.uleb128 0xa
 8398 19c8 14020000 		.4byte	.LASF379
 8399 19cc 1C       		.byte	0x1c
 8400 19cd C201     		.2byte	0x1c2
 8401 19cf F5190000 		.4byte	0x19f5
 8402 19d3 2C       		.byte	0x2c
 8403 19d4 0A       		.uleb128 0xa
 8404 19d5 3C030000 		.4byte	.LASF380
 8405 19d9 1C       		.byte	0x1c
 8406 19da C601     		.2byte	0x1c6
 8407 19dc F5190000 		.4byte	0x19f5
 8408 19e0 30       		.byte	0x30
 8409 19e1 09       		.uleb128 0x9
 8410 19e2 69326300 		.ascii	"i2c\000"
 8411 19e6 1C       		.byte	0x1c
 8412 19e7 CA01     		.2byte	0x1ca
 8413 19e9 FB190000 		.4byte	0x19fb
ARM GAS  /tmp/ccIHdayg.s 			page 150


 8414 19ed 34       		.byte	0x34
 8415 19ee 00       		.byte	0
 8416 19ef 0B       		.uleb128 0xb
 8417 19f0 04       		.byte	0x4
 8418 19f1 41190000 		.4byte	0x1941
 8419 19f5 0B       		.uleb128 0xb
 8420 19f6 04       		.byte	0x4
 8421 19f7 A4140000 		.4byte	0x14a4
 8422 19fb 0B       		.uleb128 0xb
 8423 19fc 04       		.byte	0x4
 8424 19fd 52080000 		.4byte	0x852
 8425 1a01 13       		.uleb128 0x13
 8426 1a02 A3150000 		.4byte	.LASF381
 8427 1a06 1C       		.byte	0x1c
 8428 1a07 E401     		.2byte	0x1e4
 8429 1a09 46190000 		.4byte	0x1946
 8430 1a0d 23       		.uleb128 0x23
 8431 1a0e 07       		.byte	0x7
 8432 1a0f 01       		.byte	0x1
 8433 1a10 45000000 		.4byte	0x45
 8434 1a14 1D       		.byte	0x1d
 8435 1a15 31       		.byte	0x31
 8436 1a16 391A0000 		.4byte	0x1a39
 8437 1a1a 21       		.uleb128 0x21
 8438 1a1b 7E2A0000 		.4byte	.LASF382
 8439 1a1f 00       		.byte	0
 8440 1a20 21       		.uleb128 0x21
 8441 1a21 99230000 		.4byte	.LASF383
 8442 1a25 01       		.byte	0x1
 8443 1a26 21       		.uleb128 0x21
 8444 1a27 E3060000 		.4byte	.LASF384
 8445 1a2b 02       		.byte	0x2
 8446 1a2c 21       		.uleb128 0x21
 8447 1a2d 21180000 		.4byte	.LASF385
 8448 1a31 03       		.byte	0x3
 8449 1a32 21       		.uleb128 0x21
 8450 1a33 BA210000 		.4byte	.LASF386
 8451 1a37 04       		.byte	0x4
 8452 1a38 00       		.byte	0
 8453 1a39 04       		.uleb128 0x4
 8454 1a3a 80260000 		.4byte	.LASF387
 8455 1a3e 1D       		.byte	0x1d
 8456 1a3f 37       		.byte	0x37
 8457 1a40 0D1A0000 		.4byte	0x1a0d
 8458 1a44 04       		.uleb128 0x4
 8459 1a45 781E0000 		.4byte	.LASF388
 8460 1a49 1D       		.byte	0x1d
 8461 1a4a 3C       		.byte	0x3c
 8462 1a4b 4F1A0000 		.4byte	0x1a4f
 8463 1a4f 0C       		.uleb128 0xc
 8464 1a50 781E0000 		.4byte	.LASF388
 8465 1a54 18       		.byte	0x18
 8466 1a55 1E       		.byte	0x1e
 8467 1a56 3101     		.2byte	0x131
 8468 1a58 AB1A0000 		.4byte	0x1aab
 8469 1a5c 0A       		.uleb128 0xa
 8470 1a5d 8D1A0000 		.4byte	.LASF339
ARM GAS  /tmp/ccIHdayg.s 			page 151


 8471 1a61 1E       		.byte	0x1e
 8472 1a62 3501     		.2byte	0x135
 8473 1a64 391A0000 		.4byte	0x1a39
 8474 1a68 00       		.byte	0
 8475 1a69 0A       		.uleb128 0xa
 8476 1a6a 2C210000 		.4byte	.LASF340
 8477 1a6e 1E       		.byte	0x1e
 8478 1a6f 3901     		.2byte	0x139
 8479 1a71 B01C0000 		.4byte	0x1cb0
 8480 1a75 04       		.byte	0x4
 8481 1a76 0A       		.uleb128 0xa
 8482 1a77 B9110000 		.4byte	.LASF389
 8483 1a7b 1E       		.byte	0x1e
 8484 1a7c 4101     		.2byte	0x141
 8485 1a7e D9000000 		.4byte	0xd9
 8486 1a82 08       		.byte	0x8
 8487 1a83 09       		.uleb128 0x9
 8488 1a84 74696D00 		.ascii	"tim\000"
 8489 1a88 1E       		.byte	0x1e
 8490 1a89 4501     		.2byte	0x145
 8491 1a8b B61C0000 		.4byte	0x1cb6
 8492 1a8f 0C       		.byte	0xc
 8493 1a90 0A       		.uleb128 0xa
 8494 1a91 28230000 		.4byte	.LASF390
 8495 1a95 1E       		.byte	0x1e
 8496 1a96 4901     		.2byte	0x149
 8497 1a98 93140000 		.4byte	0x1493
 8498 1a9c 10       		.byte	0x10
 8499 1a9d 0A       		.uleb128 0xa
 8500 1a9e 22070000 		.4byte	.LASF391
 8501 1aa2 1E       		.byte	0x1e
 8502 1aa3 4D01     		.2byte	0x14d
 8503 1aa5 93140000 		.4byte	0x1493
 8504 1aa9 14       		.byte	0x14
 8505 1aaa 00       		.byte	0
 8506 1aab 04       		.uleb128 0x4
 8507 1aac D31F0000 		.4byte	.LASF392
 8508 1ab0 1D       		.byte	0x1d
 8509 1ab1 43       		.byte	0x43
 8510 1ab2 B61A0000 		.4byte	0x1ab6
 8511 1ab6 0B       		.uleb128 0xb
 8512 1ab7 04       		.byte	0x4
 8513 1ab8 BC1A0000 		.4byte	0x1abc
 8514 1abc 0D       		.uleb128 0xd
 8515 1abd C71A0000 		.4byte	0x1ac7
 8516 1ac1 0E       		.uleb128 0xe
 8517 1ac2 C71A0000 		.4byte	0x1ac7
 8518 1ac6 00       		.byte	0
 8519 1ac7 0B       		.uleb128 0xb
 8520 1ac8 04       		.byte	0x4
 8521 1ac9 441A0000 		.4byte	0x1a44
 8522 1acd 17       		.uleb128 0x17
 8523 1ace 60       		.byte	0x60
 8524 1acf 1F       		.byte	0x1f
 8525 1ad0 9E01     		.2byte	0x19e
 8526 1ad2 D91B0000 		.4byte	0x1bd9
 8527 1ad6 09       		.uleb128 0x9
ARM GAS  /tmp/ccIHdayg.s 			page 152


 8528 1ad7 43523100 		.ascii	"CR1\000"
 8529 1adb 1F       		.byte	0x1f
 8530 1adc 9F01     		.2byte	0x19f
 8531 1ade E4000000 		.4byte	0xe4
 8532 1ae2 00       		.byte	0
 8533 1ae3 09       		.uleb128 0x9
 8534 1ae4 43523200 		.ascii	"CR2\000"
 8535 1ae8 1F       		.byte	0x1f
 8536 1ae9 A001     		.2byte	0x1a0
 8537 1aeb E4000000 		.4byte	0xe4
 8538 1aef 04       		.byte	0x4
 8539 1af0 0A       		.uleb128 0xa
 8540 1af1 AE260000 		.4byte	.LASF393
 8541 1af5 1F       		.byte	0x1f
 8542 1af6 A101     		.2byte	0x1a1
 8543 1af8 E4000000 		.4byte	0xe4
 8544 1afc 08       		.byte	0x8
 8545 1afd 0A       		.uleb128 0xa
 8546 1afe 470D0000 		.4byte	.LASF394
 8547 1b02 1F       		.byte	0x1f
 8548 1b03 A201     		.2byte	0x1a2
 8549 1b05 E4000000 		.4byte	0xe4
 8550 1b09 0C       		.byte	0xc
 8551 1b0a 09       		.uleb128 0x9
 8552 1b0b 535200   		.ascii	"SR\000"
 8553 1b0e 1F       		.byte	0x1f
 8554 1b0f A301     		.2byte	0x1a3
 8555 1b11 E4000000 		.4byte	0xe4
 8556 1b15 10       		.byte	0x10
 8557 1b16 09       		.uleb128 0x9
 8558 1b17 45475200 		.ascii	"EGR\000"
 8559 1b1b 1F       		.byte	0x1f
 8560 1b1c A401     		.2byte	0x1a4
 8561 1b1e E4000000 		.4byte	0xe4
 8562 1b22 14       		.byte	0x14
 8563 1b23 0A       		.uleb128 0xa
 8564 1b24 5C2B0000 		.4byte	.LASF395
 8565 1b28 1F       		.byte	0x1f
 8566 1b29 A501     		.2byte	0x1a5
 8567 1b2b E4000000 		.4byte	0xe4
 8568 1b2f 18       		.byte	0x18
 8569 1b30 0A       		.uleb128 0xa
 8570 1b31 622B0000 		.4byte	.LASF396
 8571 1b35 1F       		.byte	0x1f
 8572 1b36 A601     		.2byte	0x1a6
 8573 1b38 E4000000 		.4byte	0xe4
 8574 1b3c 1C       		.byte	0x1c
 8575 1b3d 0A       		.uleb128 0xa
 8576 1b3e 6A090000 		.4byte	.LASF397
 8577 1b42 1F       		.byte	0x1f
 8578 1b43 A701     		.2byte	0x1a7
 8579 1b45 E4000000 		.4byte	0xe4
 8580 1b49 20       		.byte	0x20
 8581 1b4a 09       		.uleb128 0x9
 8582 1b4b 434E5400 		.ascii	"CNT\000"
 8583 1b4f 1F       		.byte	0x1f
 8584 1b50 A801     		.2byte	0x1a8
ARM GAS  /tmp/ccIHdayg.s 			page 153


 8585 1b52 E4000000 		.4byte	0xe4
 8586 1b56 24       		.byte	0x24
 8587 1b57 09       		.uleb128 0x9
 8588 1b58 50534300 		.ascii	"PSC\000"
 8589 1b5c 1F       		.byte	0x1f
 8590 1b5d A901     		.2byte	0x1a9
 8591 1b5f E4000000 		.4byte	0xe4
 8592 1b63 28       		.byte	0x28
 8593 1b64 09       		.uleb128 0x9
 8594 1b65 41525200 		.ascii	"ARR\000"
 8595 1b69 1F       		.byte	0x1f
 8596 1b6a AA01     		.2byte	0x1aa
 8597 1b6c E4000000 		.4byte	0xe4
 8598 1b70 2C       		.byte	0x2c
 8599 1b71 09       		.uleb128 0x9
 8600 1b72 52435200 		.ascii	"RCR\000"
 8601 1b76 1F       		.byte	0x1f
 8602 1b77 AB01     		.2byte	0x1ab
 8603 1b79 E4000000 		.4byte	0xe4
 8604 1b7d 30       		.byte	0x30
 8605 1b7e 09       		.uleb128 0x9
 8606 1b7f 43435200 		.ascii	"CCR\000"
 8607 1b83 1F       		.byte	0x1f
 8608 1b84 AC01     		.2byte	0x1ac
 8609 1b86 C2070000 		.4byte	0x7c2
 8610 1b8a 34       		.byte	0x34
 8611 1b8b 0A       		.uleb128 0xa
 8612 1b8c 1B030000 		.4byte	.LASF398
 8613 1b90 1F       		.byte	0x1f
 8614 1b91 AD01     		.2byte	0x1ad
 8615 1b93 E4000000 		.4byte	0xe4
 8616 1b97 44       		.byte	0x44
 8617 1b98 09       		.uleb128 0x9
 8618 1b99 44435200 		.ascii	"DCR\000"
 8619 1b9d 1F       		.byte	0x1f
 8620 1b9e AE01     		.2byte	0x1ae
 8621 1ba0 E4000000 		.4byte	0xe4
 8622 1ba4 48       		.byte	0x48
 8623 1ba5 0A       		.uleb128 0xa
 8624 1ba6 011B0000 		.4byte	.LASF399
 8625 1baa 1F       		.byte	0x1f
 8626 1bab AF01     		.2byte	0x1af
 8627 1bad E4000000 		.4byte	0xe4
 8628 1bb1 4C       		.byte	0x4c
 8629 1bb2 09       		.uleb128 0x9
 8630 1bb3 4F5200   		.ascii	"OR\000"
 8631 1bb6 1F       		.byte	0x1f
 8632 1bb7 B001     		.2byte	0x1b0
 8633 1bb9 E4000000 		.4byte	0xe4
 8634 1bbd 50       		.byte	0x50
 8635 1bbe 0A       		.uleb128 0xa
 8636 1bbf 682B0000 		.4byte	.LASF400
 8637 1bc3 1F       		.byte	0x1f
 8638 1bc4 B101     		.2byte	0x1b1
 8639 1bc6 E4000000 		.4byte	0xe4
 8640 1bca 54       		.byte	0x54
 8641 1bcb 0A       		.uleb128 0xa
ARM GAS  /tmp/ccIHdayg.s 			page 154


 8642 1bcc D3110000 		.4byte	.LASF401
 8643 1bd0 1F       		.byte	0x1f
 8644 1bd1 B201     		.2byte	0x1b2
 8645 1bd3 AD070000 		.4byte	0x7ad
 8646 1bd7 58       		.byte	0x58
 8647 1bd8 00       		.byte	0
 8648 1bd9 18       		.uleb128 0x18
 8649 1bda BE240000 		.4byte	.LASF402
 8650 1bde 1F       		.byte	0x1f
 8651 1bdf B301     		.2byte	0x1b3
 8652 1be1 CD1A0000 		.4byte	0x1acd
 8653 1be5 23       		.uleb128 0x23
 8654 1be6 07       		.byte	0x7
 8655 1be7 01       		.byte	0x1
 8656 1be8 45000000 		.4byte	0x45
 8657 1bec 1E       		.byte	0x1e
 8658 1bed EE       		.byte	0xee
 8659 1bee FF1B0000 		.4byte	0x1bff
 8660 1bf2 21       		.uleb128 0x21
 8661 1bf3 AD0A0000 		.4byte	.LASF403
 8662 1bf7 00       		.byte	0
 8663 1bf8 21       		.uleb128 0x21
 8664 1bf9 2A200000 		.4byte	.LASF404
 8665 1bfd 01       		.byte	0x1
 8666 1bfe 00       		.byte	0
 8667 1bff 04       		.uleb128 0x4
 8668 1c00 2A290000 		.4byte	.LASF405
 8669 1c04 1E       		.byte	0x1e
 8670 1c05 F1       		.byte	0xf1
 8671 1c06 E51B0000 		.4byte	0x1be5
 8672 1c0a 04       		.uleb128 0x4
 8673 1c0b 5F200000 		.4byte	.LASF406
 8674 1c0f 1E       		.byte	0x1e
 8675 1c10 F6       		.byte	0xf6
 8676 1c11 D9000000 		.4byte	0xd9
 8677 1c15 23       		.uleb128 0x23
 8678 1c16 07       		.byte	0x7
 8679 1c17 01       		.byte	0x1
 8680 1c18 45000000 		.4byte	0x45
 8681 1c1c 1E       		.byte	0x1e
 8682 1c1d FB       		.byte	0xfb
 8683 1c1e 2F1C0000 		.4byte	0x1c2f
 8684 1c22 21       		.uleb128 0x21
 8685 1c23 731F0000 		.4byte	.LASF407
 8686 1c27 00       		.byte	0
 8687 1c28 21       		.uleb128 0x21
 8688 1c29 17250000 		.4byte	.LASF408
 8689 1c2d 01       		.byte	0x1
 8690 1c2e 00       		.byte	0
 8691 1c2f 04       		.uleb128 0x4
 8692 1c30 E0070000 		.4byte	.LASF409
 8693 1c34 1E       		.byte	0x1e
 8694 1c35 FE       		.byte	0xfe
 8695 1c36 151C0000 		.4byte	0x1c15
 8696 1c3a 17       		.uleb128 0x17
 8697 1c3b 1C       		.byte	0x1c
 8698 1c3c 1E       		.byte	0x1e
ARM GAS  /tmp/ccIHdayg.s 			page 155


 8699 1c3d 0901     		.2byte	0x109
 8700 1c3f 9F1C0000 		.4byte	0x1c9f
 8701 1c43 0A       		.uleb128 0xa
 8702 1c44 980A0000 		.4byte	.LASF272
 8703 1c48 1E       		.byte	0x1e
 8704 1c49 0D01     		.2byte	0x10d
 8705 1c4b FF1B0000 		.4byte	0x1bff
 8706 1c4f 00       		.byte	0
 8707 1c50 0A       		.uleb128 0xa
 8708 1c51 B72A0000 		.4byte	.LASF410
 8709 1c55 1E       		.byte	0x1e
 8710 1c56 1301     		.2byte	0x113
 8711 1c58 0A1C0000 		.4byte	0x1c0a
 8712 1c5c 04       		.byte	0x4
 8713 1c5d 0A       		.uleb128 0xa
 8714 1c5e 91170000 		.4byte	.LASF411
 8715 1c62 1E       		.byte	0x1e
 8716 1c63 1701     		.2byte	0x117
 8717 1c65 AB1A0000 		.4byte	0x1aab
 8718 1c69 08       		.byte	0x8
 8719 1c6a 0A       		.uleb128 0xa
 8720 1c6b 52150000 		.4byte	.LASF412
 8721 1c6f 1E       		.byte	0x1e
 8722 1c70 1B01     		.2byte	0x11b
 8723 1c72 AB1A0000 		.4byte	0x1aab
 8724 1c76 0C       		.byte	0xc
 8725 1c77 0A       		.uleb128 0xa
 8726 1c78 210E0000 		.4byte	.LASF413
 8727 1c7c 1E       		.byte	0x1e
 8728 1c7d 1F01     		.2byte	0x11f
 8729 1c7f AB1A0000 		.4byte	0x1aab
 8730 1c83 10       		.byte	0x10
 8731 1c84 0A       		.uleb128 0xa
 8732 1c85 FA150000 		.4byte	.LASF414
 8733 1c89 1E       		.byte	0x1e
 8734 1c8a 2501     		.2byte	0x125
 8735 1c8c 2F1C0000 		.4byte	0x1c2f
 8736 1c90 14       		.byte	0x14
 8737 1c91 0A       		.uleb128 0xa
 8738 1c92 0B110000 		.4byte	.LASF415
 8739 1c96 1E       		.byte	0x1e
 8740 1c97 2B01     		.2byte	0x12b
 8741 1c99 D9000000 		.4byte	0xd9
 8742 1c9d 18       		.byte	0x18
 8743 1c9e 00       		.byte	0
 8744 1c9f 18       		.uleb128 0x18
 8745 1ca0 821E0000 		.4byte	.LASF416
 8746 1ca4 1E       		.byte	0x1e
 8747 1ca5 2C01     		.2byte	0x12c
 8748 1ca7 3A1C0000 		.4byte	0x1c3a
 8749 1cab 05       		.uleb128 0x5
 8750 1cac 9F1C0000 		.4byte	0x1c9f
 8751 1cb0 0B       		.uleb128 0xb
 8752 1cb1 04       		.byte	0x4
 8753 1cb2 AB1C0000 		.4byte	0x1cab
 8754 1cb6 0B       		.uleb128 0xb
 8755 1cb7 04       		.byte	0x4
ARM GAS  /tmp/ccIHdayg.s 			page 156


 8756 1cb8 D91B0000 		.4byte	0x1bd9
 8757 1cbc 13       		.uleb128 0x13
 8758 1cbd 70130000 		.4byte	.LASF417
 8759 1cc1 1E       		.byte	0x1e
 8760 1cc2 8A01     		.2byte	0x18a
 8761 1cc4 441A0000 		.4byte	0x1a44
 8762 1cc8 13       		.uleb128 0x13
 8763 1cc9 80130000 		.4byte	.LASF418
 8764 1ccd 1E       		.byte	0x1e
 8765 1cce 9601     		.2byte	0x196
 8766 1cd0 441A0000 		.4byte	0x1a44
 8767 1cd4 23       		.uleb128 0x23
 8768 1cd5 07       		.byte	0x7
 8769 1cd6 01       		.byte	0x1
 8770 1cd7 45000000 		.4byte	0x45
 8771 1cdb 20       		.byte	0x20
 8772 1cdc 55       		.byte	0x55
 8773 1cdd F41C0000 		.4byte	0x1cf4
 8774 1ce1 21       		.uleb128 0x21
 8775 1ce2 8E080000 		.4byte	.LASF419
 8776 1ce6 00       		.byte	0
 8777 1ce7 21       		.uleb128 0x21
 8778 1ce8 FB110000 		.4byte	.LASF420
 8779 1cec 01       		.byte	0x1
 8780 1ced 21       		.uleb128 0x21
 8781 1cee 042D0000 		.4byte	.LASF421
 8782 1cf2 02       		.byte	0x2
 8783 1cf3 00       		.byte	0
 8784 1cf4 04       		.uleb128 0x4
 8785 1cf5 101D0000 		.4byte	.LASF422
 8786 1cf9 20       		.byte	0x20
 8787 1cfa 59       		.byte	0x59
 8788 1cfb D41C0000 		.4byte	0x1cd4
 8789 1cff 04       		.uleb128 0x4
 8790 1d00 1F280000 		.4byte	.LASF423
 8791 1d04 20       		.byte	0x20
 8792 1d05 5E       		.byte	0x5e
 8793 1d06 0A1D0000 		.4byte	0x1d0a
 8794 1d0a 24       		.uleb128 0x24
 8795 1d0b 1F280000 		.4byte	.LASF423
 8796 1d0f 5801     		.2byte	0x158
 8797 1d11 20       		.byte	0x20
 8798 1d12 78       		.byte	0x78
 8799 1d13 771D0000 		.4byte	0x1d77
 8800 1d17 16       		.uleb128 0x16
 8801 1d18 766D7400 		.ascii	"vmt\000"
 8802 1d1c 20       		.byte	0x20
 8803 1d1d 7A       		.byte	0x7a
 8804 1d1e 311E0000 		.4byte	0x1e31
 8805 1d22 00       		.byte	0
 8806 1d23 08       		.uleb128 0x8
 8807 1d24 2A000000 		.4byte	.LASF424
 8808 1d28 20       		.byte	0x20
 8809 1d29 7B       		.byte	0x7b
 8810 1d2a 940D0000 		.4byte	0xd94
 8811 1d2e 04       		.byte	0x4
 8812 1d2f 08       		.uleb128 0x8
ARM GAS  /tmp/ccIHdayg.s 			page 157


 8813 1d30 8D1A0000 		.4byte	.LASF339
 8814 1d34 20       		.byte	0x20
 8815 1d35 7B       		.byte	0x7b
 8816 1d36 F41C0000 		.4byte	0x1cf4
 8817 1d3a 08       		.byte	0x8
 8818 1d3b 08       		.uleb128 0x8
 8819 1d3c DE1C0000 		.4byte	.LASF425
 8820 1d40 20       		.byte	0x20
 8821 1d41 7B       		.byte	0x7b
 8822 1d42 3F0E0000 		.4byte	0xe3f
 8823 1d46 0C       		.byte	0xc
 8824 1d47 08       		.uleb128 0x8
 8825 1d48 42160000 		.4byte	.LASF426
 8826 1d4c 20       		.byte	0x20
 8827 1d4d 7B       		.byte	0x7b
 8828 1d4e 4A0E0000 		.4byte	0xe4a
 8829 1d52 30       		.byte	0x30
 8830 1d53 16       		.uleb128 0x16
 8831 1d54 696200   		.ascii	"ib\000"
 8832 1d57 20       		.byte	0x20
 8833 1d58 7B       		.byte	0x7b
 8834 1d59 371E0000 		.4byte	0x1e37
 8835 1d5d 54       		.byte	0x54
 8836 1d5e 16       		.uleb128 0x16
 8837 1d5f 6F6200   		.ascii	"ob\000"
 8838 1d62 20       		.byte	0x20
 8839 1d63 7B       		.byte	0x7b
 8840 1d64 371E0000 		.4byte	0x1e37
 8841 1d68 D4       		.byte	0xd4
 8842 1d69 25       		.uleb128 0x25
 8843 1d6a 4B1F0000 		.4byte	.LASF427
 8844 1d6e 20       		.byte	0x20
 8845 1d6f 7B       		.byte	0x7b
 8846 1d70 471E0000 		.4byte	0x1e47
 8847 1d74 5401     		.2byte	0x154
 8848 1d76 00       		.byte	0
 8849 1d77 1E       		.uleb128 0x1e
 8850 1d78 53443100 		.ascii	"SD1\000"
 8851 1d7c 21       		.byte	0x21
 8852 1d7d 0F01     		.2byte	0x10f
 8853 1d7f FF1C0000 		.4byte	0x1cff
 8854 1d83 1E       		.uleb128 0x1e
 8855 1d84 53443200 		.ascii	"SD2\000"
 8856 1d88 21       		.byte	0x21
 8857 1d89 1201     		.2byte	0x112
 8858 1d8b FF1C0000 		.4byte	0x1cff
 8859 1d8f 1E       		.uleb128 0x1e
 8860 1d90 53443300 		.ascii	"SD3\000"
 8861 1d94 21       		.byte	0x21
 8862 1d95 1501     		.2byte	0x115
 8863 1d97 FF1C0000 		.4byte	0x1cff
 8864 1d9b 1E       		.uleb128 0x1e
 8865 1d9c 53443400 		.ascii	"SD4\000"
 8866 1da0 21       		.byte	0x21
 8867 1da1 1801     		.2byte	0x118
 8868 1da3 FF1C0000 		.4byte	0x1cff
 8869 1da7 1E       		.uleb128 0x1e
ARM GAS  /tmp/ccIHdayg.s 			page 158


 8870 1da8 53443500 		.ascii	"SD5\000"
 8871 1dac 21       		.byte	0x21
 8872 1dad 1B01     		.2byte	0x11b
 8873 1daf FF1C0000 		.4byte	0x1cff
 8874 1db3 1E       		.uleb128 0x1e
 8875 1db4 53443600 		.ascii	"SD6\000"
 8876 1db8 21       		.byte	0x21
 8877 1db9 1E01     		.2byte	0x11e
 8878 1dbb FF1C0000 		.4byte	0x1cff
 8879 1dbf 07       		.uleb128 0x7
 8880 1dc0 86130000 		.4byte	.LASF428
 8881 1dc4 20       		.byte	0x20
 8882 1dc5 20       		.byte	0x20
 8883 1dc6 6D       		.byte	0x6d
 8884 1dc7 2C1E0000 		.4byte	0x1e2c
 8885 1dcb 08       		.uleb128 0x8
 8886 1dcc CD1C0000 		.4byte	.LASF429
 8887 1dd0 20       		.byte	0x20
 8888 1dd1 6E       		.byte	0x6e
 8889 1dd2 740E0000 		.4byte	0xe74
 8890 1dd6 00       		.byte	0
 8891 1dd7 08       		.uleb128 0x8
 8892 1dd8 FE020000 		.4byte	.LASF430
 8893 1ddc 20       		.byte	0x20
 8894 1ddd 6E       		.byte	0x6e
 8895 1dde 930E0000 		.4byte	0xe93
 8896 1de2 04       		.byte	0x4
 8897 1de3 16       		.uleb128 0x16
 8898 1de4 70757400 		.ascii	"put\000"
 8899 1de8 20       		.byte	0x20
 8900 1de9 6E       		.byte	0x6e
 8901 1dea AD0E0000 		.4byte	0xead
 8902 1dee 08       		.byte	0x8
 8903 1def 16       		.uleb128 0x16
 8904 1df0 67657400 		.ascii	"get\000"
 8905 1df4 20       		.byte	0x20
 8906 1df5 6E       		.byte	0x6e
 8907 1df6 C20E0000 		.4byte	0xec2
 8908 1dfa 0C       		.byte	0xc
 8909 1dfb 08       		.uleb128 0x8
 8910 1dfc 49180000 		.4byte	.LASF431
 8911 1e00 20       		.byte	0x20
 8912 1e01 6E       		.byte	0x6e
 8913 1e02 E3140000 		.4byte	0x14e3
 8914 1e06 10       		.byte	0x10
 8915 1e07 08       		.uleb128 0x8
 8916 1e08 AC1C0000 		.4byte	.LASF432
 8917 1e0c 20       		.byte	0x20
 8918 1e0d 6E       		.byte	0x6e
 8919 1e0e FD140000 		.4byte	0x14fd
 8920 1e12 14       		.byte	0x14
 8921 1e13 08       		.uleb128 0x8
 8922 1e14 D6280000 		.4byte	.LASF433
 8923 1e18 20       		.byte	0x20
 8924 1e19 6E       		.byte	0x6e
 8925 1e1a 21150000 		.4byte	0x1521
 8926 1e1e 18       		.byte	0x18
ARM GAS  /tmp/ccIHdayg.s 			page 159


 8927 1e1f 08       		.uleb128 0x8
 8928 1e20 A4170000 		.4byte	.LASF434
 8929 1e24 20       		.byte	0x20
 8930 1e25 6E       		.byte	0x6e
 8931 1e26 45150000 		.4byte	0x1545
 8932 1e2a 1C       		.byte	0x1c
 8933 1e2b 00       		.byte	0
 8934 1e2c 05       		.uleb128 0x5
 8935 1e2d BF1D0000 		.4byte	0x1dbf
 8936 1e31 0B       		.uleb128 0xb
 8937 1e32 04       		.byte	0x4
 8938 1e33 2C1E0000 		.4byte	0x1e2c
 8939 1e37 11       		.uleb128 0x11
 8940 1e38 A9000000 		.4byte	0xa9
 8941 1e3c 471E0000 		.4byte	0x1e47
 8942 1e40 12       		.uleb128 0x12
 8943 1e41 A2000000 		.4byte	0xa2
 8944 1e45 7F       		.byte	0x7f
 8945 1e46 00       		.byte	0
 8946 1e47 0B       		.uleb128 0xb
 8947 1e48 04       		.byte	0x4
 8948 1e49 4A090000 		.4byte	0x94a
 8949 1e4d 23       		.uleb128 0x23
 8950 1e4e 07       		.byte	0x7
 8951 1e4f 01       		.byte	0x1
 8952 1e50 45000000 		.4byte	0x45
 8953 1e54 22       		.byte	0x22
 8954 1e55 46       		.byte	0x46
 8955 1e56 791E0000 		.4byte	0x1e79
 8956 1e5a 21       		.uleb128 0x21
 8957 1e5b 25090000 		.4byte	.LASF435
 8958 1e5f 00       		.byte	0
 8959 1e60 21       		.uleb128 0x21
 8960 1e61 3A040000 		.4byte	.LASF436
 8961 1e65 01       		.byte	0x1
 8962 1e66 21       		.uleb128 0x21
 8963 1e67 61290000 		.4byte	.LASF437
 8964 1e6b 02       		.byte	0x2
 8965 1e6c 21       		.uleb128 0x21
 8966 1e6d 88150000 		.4byte	.LASF438
 8967 1e71 03       		.byte	0x3
 8968 1e72 21       		.uleb128 0x21
 8969 1e73 DD170000 		.4byte	.LASF439
 8970 1e77 04       		.byte	0x4
 8971 1e78 00       		.byte	0
 8972 1e79 04       		.uleb128 0x4
 8973 1e7a 80040000 		.4byte	.LASF440
 8974 1e7e 22       		.byte	0x22
 8975 1e7f 4C       		.byte	0x4c
 8976 1e80 4D1E0000 		.4byte	0x1e4d
 8977 1e84 18       		.uleb128 0x18
 8978 1e85 A8270000 		.4byte	.LASF441
 8979 1e89 23       		.byte	0x23
 8980 1e8a 9601     		.2byte	0x196
 8981 1e8c 901E0000 		.4byte	0x1e90
 8982 1e90 0C       		.uleb128 0xc
 8983 1e91 A8270000 		.4byte	.LASF441
ARM GAS  /tmp/ccIHdayg.s 			page 160


 8984 1e95 30       		.byte	0x30
 8985 1e96 23       		.byte	0x23
 8986 1e97 BA01     		.2byte	0x1ba
 8987 1e99 131F0000 		.4byte	0x1f13
 8988 1e9d 0A       		.uleb128 0xa
 8989 1e9e 8D1A0000 		.4byte	.LASF339
 8990 1ea2 23       		.byte	0x23
 8991 1ea3 BE01     		.2byte	0x1be
 8992 1ea5 791E0000 		.4byte	0x1e79
 8993 1ea9 00       		.byte	0
 8994 1eaa 0A       		.uleb128 0xa
 8995 1eab 2C210000 		.4byte	.LASF340
 8996 1eaf 23       		.byte	0x23
 8997 1eb0 C201     		.2byte	0x1c2
 8998 1eb2 851F0000 		.4byte	0x1f85
 8999 1eb6 04       		.byte	0x4
 9000 1eb7 0A       		.uleb128 0xa
 9001 1eb8 0D090000 		.4byte	.LASF375
 9002 1ebc 23       		.byte	0x23
 9003 1ebd C701     		.2byte	0x1c7
 9004 1ebf AB020000 		.4byte	0x2ab
 9005 1ec3 08       		.byte	0x8
 9006 1ec4 0A       		.uleb128 0xa
 9007 1ec5 77110000 		.4byte	.LASF374
 9008 1ec9 23       		.byte	0x23
 9009 1eca CD01     		.2byte	0x1cd
 9010 1ecc 100D0000 		.4byte	0xd10
 9011 1ed0 0C       		.byte	0xc
 9012 1ed1 09       		.uleb128 0x9
 9013 1ed2 73706900 		.ascii	"spi\000"
 9014 1ed6 23       		.byte	0x23
 9015 1ed7 D601     		.2byte	0x1d6
 9016 1ed9 8B1F0000 		.4byte	0x1f8b
 9017 1edd 1C       		.byte	0x1c
 9018 1ede 0A       		.uleb128 0xa
 9019 1edf 14020000 		.4byte	.LASF379
 9020 1ee3 23       		.byte	0x23
 9021 1ee4 DA01     		.2byte	0x1da
 9022 1ee6 F5190000 		.4byte	0x19f5
 9023 1eea 20       		.byte	0x20
 9024 1eeb 0A       		.uleb128 0xa
 9025 1eec 3C030000 		.4byte	.LASF380
 9026 1ef0 23       		.byte	0x23
 9027 1ef1 DE01     		.2byte	0x1de
 9028 1ef3 F5190000 		.4byte	0x19f5
 9029 1ef7 24       		.byte	0x24
 9030 1ef8 0A       		.uleb128 0xa
 9031 1ef9 840A0000 		.4byte	.LASF377
 9032 1efd 23       		.byte	0x23
 9033 1efe E201     		.2byte	0x1e2
 9034 1f00 D9000000 		.4byte	0xd9
 9035 1f04 28       		.byte	0x28
 9036 1f05 0A       		.uleb128 0xa
 9037 1f06 2B0B0000 		.4byte	.LASF378
 9038 1f0a 23       		.byte	0x23
 9039 1f0b E601     		.2byte	0x1e6
 9040 1f0d D9000000 		.4byte	0xd9
ARM GAS  /tmp/ccIHdayg.s 			page 161


 9041 1f11 2C       		.byte	0x2c
 9042 1f12 00       		.byte	0
 9043 1f13 18       		.uleb128 0x18
 9044 1f14 AC020000 		.4byte	.LASF442
 9045 1f18 23       		.byte	0x23
 9046 1f19 9E01     		.2byte	0x19e
 9047 1f1b 1F1F0000 		.4byte	0x1f1f
 9048 1f1f 0B       		.uleb128 0xb
 9049 1f20 04       		.byte	0x4
 9050 1f21 251F0000 		.4byte	0x1f25
 9051 1f25 0D       		.uleb128 0xd
 9052 1f26 301F0000 		.4byte	0x1f30
 9053 1f2a 0E       		.uleb128 0xe
 9054 1f2b 301F0000 		.4byte	0x1f30
 9055 1f2f 00       		.byte	0
 9056 1f30 0B       		.uleb128 0xb
 9057 1f31 04       		.byte	0x4
 9058 1f32 841E0000 		.4byte	0x1e84
 9059 1f36 17       		.uleb128 0x17
 9060 1f37 0C       		.byte	0xc
 9061 1f38 23       		.byte	0x23
 9062 1f39 A301     		.2byte	0x1a3
 9063 1f3b 741F0000 		.4byte	0x1f74
 9064 1f3f 0A       		.uleb128 0xa
 9065 1f40 BD0B0000 		.4byte	.LASF443
 9066 1f44 23       		.byte	0x23
 9067 1f45 A701     		.2byte	0x1a7
 9068 1f47 131F0000 		.4byte	0x1f13
 9069 1f4b 00       		.byte	0
 9070 1f4c 0A       		.uleb128 0xa
 9071 1f4d 682A0000 		.4byte	.LASF444
 9072 1f51 23       		.byte	0x23
 9073 1f52 AC01     		.2byte	0x1ac
 9074 1f54 11170000 		.4byte	0x1711
 9075 1f58 04       		.byte	0x4
 9076 1f59 0A       		.uleb128 0xa
 9077 1f5a 250B0000 		.4byte	.LASF445
 9078 1f5e 23       		.byte	0x23
 9079 1f5f B001     		.2byte	0x1b0
 9080 1f61 B9000000 		.4byte	0xb9
 9081 1f65 08       		.byte	0x8
 9082 1f66 09       		.uleb128 0x9
 9083 1f67 63723100 		.ascii	"cr1\000"
 9084 1f6b 23       		.byte	0x23
 9085 1f6c B401     		.2byte	0x1b4
 9086 1f6e B9000000 		.4byte	0xb9
 9087 1f72 0A       		.byte	0xa
 9088 1f73 00       		.byte	0
 9089 1f74 18       		.uleb128 0x18
 9090 1f75 B8270000 		.4byte	.LASF446
 9091 1f79 23       		.byte	0x23
 9092 1f7a B501     		.2byte	0x1b5
 9093 1f7c 361F0000 		.4byte	0x1f36
 9094 1f80 05       		.uleb128 0x5
 9095 1f81 741F0000 		.4byte	0x1f74
 9096 1f85 0B       		.uleb128 0xb
 9097 1f86 04       		.byte	0x4
ARM GAS  /tmp/ccIHdayg.s 			page 162


 9098 1f87 801F0000 		.4byte	0x1f80
 9099 1f8b 0B       		.uleb128 0xb
 9100 1f8c 04       		.byte	0x4
 9101 1f8d DB080000 		.4byte	0x8db
 9102 1f91 13       		.uleb128 0x13
 9103 1f92 A61C0000 		.4byte	.LASF447
 9104 1f96 23       		.byte	0x23
 9105 1f97 F201     		.2byte	0x1f2
 9106 1f99 841E0000 		.4byte	0x1e84
 9107 1f9d 13       		.uleb128 0x13
 9108 1f9e B11C0000 		.4byte	.LASF448
 9109 1fa2 23       		.byte	0x23
 9110 1fa3 FA01     		.2byte	0x1fa
 9111 1fa5 841E0000 		.4byte	0x1e84
 9112 1fa9 04       		.uleb128 0x4
 9113 1faa BB150000 		.4byte	.LASF449
 9114 1fae 24       		.byte	0x24
 9115 1faf FA       		.byte	0xfa
 9116 1fb0 B41F0000 		.4byte	0x1fb4
 9117 1fb4 10       		.uleb128 0x10
 9118 1fb5 BB150000 		.4byte	.LASF449
 9119 1fb9 8802     		.2byte	0x288
 9120 1fbb 25       		.byte	0x25
 9121 1fbc 7701     		.2byte	0x177
 9122 1fbe E0200000 		.4byte	0x20e0
 9123 1fc2 0A       		.uleb128 0xa
 9124 1fc3 8D1A0000 		.4byte	.LASF339
 9125 1fc7 25       		.byte	0x25
 9126 1fc8 7B01     		.2byte	0x17b
 9127 1fca 1E210000 		.4byte	0x211e
 9128 1fce 00       		.byte	0
 9129 1fcf 0A       		.uleb128 0xa
 9130 1fd0 2C210000 		.4byte	.LASF340
 9131 1fd4 25       		.byte	0x25
 9132 1fd5 7F01     		.2byte	0x17f
 9133 1fd7 412A0000 		.4byte	0x2a41
 9134 1fdb 04       		.byte	0x4
 9135 1fdc 0A       		.uleb128 0xa
 9136 1fdd F7270000 		.4byte	.LASF450
 9137 1fe1 25       		.byte	0x25
 9138 1fe2 8301     		.2byte	0x183
 9139 1fe4 B9000000 		.4byte	0xb9
 9140 1fe8 08       		.byte	0x8
 9141 1fe9 0A       		.uleb128 0xa
 9142 1fea 9C2A0000 		.4byte	.LASF451
 9143 1fee 25       		.byte	0x25
 9144 1fef 8701     		.2byte	0x187
 9145 1ff1 B9000000 		.4byte	0xb9
 9146 1ff5 0A       		.byte	0xa
 9147 1ff6 09       		.uleb128 0x9
 9148 1ff7 65706300 		.ascii	"epc\000"
 9149 1ffb 25       		.byte	0x25
 9150 1ffc 8B01     		.2byte	0x18b
 9151 1ffe 472A0000 		.4byte	0x2a47
 9152 2002 0C       		.byte	0xc
 9153 2003 0A       		.uleb128 0xa
 9154 2004 A1030000 		.4byte	.LASF452
ARM GAS  /tmp/ccIHdayg.s 			page 163


 9155 2008 25       		.byte	0x25
 9156 2009 9201     		.2byte	0x192
 9157 200b 5D2A0000 		.4byte	0x2a5d
 9158 200f 1C       		.byte	0x1c
 9159 2010 0A       		.uleb128 0xa
 9160 2011 E0100000 		.4byte	.LASF453
 9161 2015 25       		.byte	0x25
 9162 2016 9901     		.2byte	0x199
 9163 2018 5D2A0000 		.4byte	0x2a5d
 9164 201c 28       		.byte	0x28
 9165 201d 0A       		.uleb128 0xa
 9166 201e 49140000 		.4byte	.LASF454
 9167 2022 25       		.byte	0x25
 9168 2023 9D01     		.2byte	0x19d
 9169 2025 63210000 		.4byte	0x2163
 9170 2029 34       		.byte	0x34
 9171 202a 0A       		.uleb128 0xa
 9172 202b 9E200000 		.4byte	.LASF455
 9173 202f 25       		.byte	0x25
 9174 2030 A101     		.2byte	0x1a1
 9175 2032 390E0000 		.4byte	0xe39
 9176 2036 38       		.byte	0x38
 9177 2037 0A       		.uleb128 0xa
 9178 2038 331C0000 		.4byte	.LASF456
 9179 203c 25       		.byte	0x25
 9180 203d A501     		.2byte	0x1a5
 9181 203f F4000000 		.4byte	0xf4
 9182 2043 3C       		.byte	0x3c
 9183 2044 0A       		.uleb128 0xa
 9184 2045 BB230000 		.4byte	.LASF457
 9185 2049 25       		.byte	0x25
 9186 204a A901     		.2byte	0x1a9
 9187 204c E3210000 		.4byte	0x21e3
 9188 2050 40       		.byte	0x40
 9189 2051 0A       		.uleb128 0xa
 9190 2052 1F090000 		.4byte	.LASF458
 9191 2056 25       		.byte	0x25
 9192 2057 AD01     		.2byte	0x1ad
 9193 2059 D90E0000 		.4byte	0xed9
 9194 205d 44       		.byte	0x44
 9195 205e 0A       		.uleb128 0xa
 9196 205f EA190000 		.4byte	.LASF459
 9197 2063 25       		.byte	0x25
 9198 2064 B101     		.2byte	0x1b1
 9199 2066 B9000000 		.4byte	0xb9
 9200 206a 4C       		.byte	0x4c
 9201 206b 0A       		.uleb128 0xa
 9202 206c 291A0000 		.4byte	.LASF460
 9203 2070 25       		.byte	0x25
 9204 2071 B501     		.2byte	0x1b5
 9205 2073 A9000000 		.4byte	0xa9
 9206 2077 4E       		.byte	0x4e
 9207 2078 0A       		.uleb128 0xa
 9208 2079 00200000 		.4byte	.LASF461
 9209 207d 25       		.byte	0x25
 9210 207e B901     		.2byte	0x1b9
 9211 2080 A9000000 		.4byte	0xa9
ARM GAS  /tmp/ccIHdayg.s 			page 164


 9212 2084 4F       		.byte	0x4f
 9213 2085 09       		.uleb128 0x9
 9214 2086 6F746700 		.ascii	"otg\000"
 9215 208a 25       		.byte	0x25
 9216 208b C101     		.2byte	0x1c1
 9217 208d 6D2A0000 		.4byte	0x2a6d
 9218 2091 50       		.byte	0x50
 9219 2092 0A       		.uleb128 0xa
 9220 2093 AE120000 		.4byte	.LASF462
 9221 2097 25       		.byte	0x25
 9222 2098 C501     		.2byte	0x1c5
 9223 209a 732A0000 		.4byte	0x2a73
 9224 209e 54       		.byte	0x54
 9225 209f 0A       		.uleb128 0xa
 9226 20a0 1A1E0000 		.4byte	.LASF463
 9227 20a4 25       		.byte	0x25
 9228 20a5 C901     		.2byte	0x1c9
 9229 20a7 D9000000 		.4byte	0xd9
 9230 20ab 58       		.byte	0x58
 9231 20ac 0A       		.uleb128 0xa
 9232 20ad AF110000 		.4byte	.LASF464
 9233 20b1 25       		.byte	0x25
 9234 20b2 CD01     		.2byte	0x1cd
 9235 20b4 D9000000 		.4byte	0xd9
 9236 20b8 5C       		.byte	0x5c
 9237 20b9 0A       		.uleb128 0xa
 9238 20ba 320A0000 		.4byte	.LASF465
 9239 20be 25       		.byte	0x25
 9240 20bf D101     		.2byte	0x1d1
 9241 20c1 AB020000 		.4byte	0x2ab
 9242 20c5 60       		.byte	0x60
 9243 20c6 09       		.uleb128 0x9
 9244 20c7 747200   		.ascii	"tr\000"
 9245 20ca 25       		.byte	0x25
 9246 20cb D601     		.2byte	0x1d6
 9247 20cd AB020000 		.4byte	0x2ab
 9248 20d1 64       		.byte	0x64
 9249 20d2 0A       		.uleb128 0xa
 9250 20d3 53210000 		.4byte	.LASF466
 9251 20d7 25       		.byte	0x25
 9252 20d8 DA01     		.2byte	0x1da
 9253 20da 792A0000 		.4byte	0x2a79
 9254 20de 68       		.byte	0x68
 9255 20df 00       		.byte	0
 9256 20e0 04       		.uleb128 0x4
 9257 20e1 C5020000 		.4byte	.LASF467
 9258 20e5 24       		.byte	0x24
 9259 20e6 FF       		.byte	0xff
 9260 20e7 A9000000 		.4byte	0xa9
 9261 20eb 20       		.uleb128 0x20
 9262 20ec 07       		.byte	0x7
 9263 20ed 01       		.byte	0x1
 9264 20ee 45000000 		.4byte	0x45
 9265 20f2 24       		.byte	0x24
 9266 20f3 0401     		.2byte	0x104
 9267 20f5 1E210000 		.4byte	0x211e
 9268 20f9 21       		.uleb128 0x21
ARM GAS  /tmp/ccIHdayg.s 			page 165


 9269 20fa 8C2B0000 		.4byte	.LASF468
 9270 20fe 00       		.byte	0
 9271 20ff 21       		.uleb128 0x21
 9272 2100 00000000 		.4byte	.LASF469
 9273 2104 01       		.byte	0x1
 9274 2105 21       		.uleb128 0x21
 9275 2106 9A170000 		.4byte	.LASF470
 9276 210a 02       		.byte	0x2
 9277 210b 21       		.uleb128 0x21
 9278 210c FB1D0000 		.4byte	.LASF471
 9279 2110 03       		.byte	0x3
 9280 2111 21       		.uleb128 0x21
 9281 2112 4A0A0000 		.4byte	.LASF472
 9282 2116 04       		.byte	0x4
 9283 2117 21       		.uleb128 0x21
 9284 2118 7E280000 		.4byte	.LASF473
 9285 211c 05       		.byte	0x5
 9286 211d 00       		.byte	0
 9287 211e 18       		.uleb128 0x18
 9288 211f 3B280000 		.4byte	.LASF474
 9289 2123 24       		.byte	0x24
 9290 2124 0B01     		.2byte	0x10b
 9291 2126 EB200000 		.4byte	0x20eb
 9292 212a 20       		.uleb128 0x20
 9293 212b 07       		.byte	0x7
 9294 212c 01       		.byte	0x1
 9295 212d 45000000 		.4byte	0x45
 9296 2131 24       		.byte	0x24
 9297 2132 1901     		.2byte	0x119
 9298 2134 63210000 		.4byte	0x2163
 9299 2138 21       		.uleb128 0x21
 9300 2139 69230000 		.4byte	.LASF475
 9301 213d 00       		.byte	0
 9302 213e 21       		.uleb128 0x21
 9303 213f 3E140000 		.4byte	.LASF476
 9304 2143 01       		.byte	0x1
 9305 2144 21       		.uleb128 0x21
 9306 2145 85200000 		.4byte	.LASF477
 9307 2149 02       		.byte	0x2
 9308 214a 21       		.uleb128 0x21
 9309 214b D71A0000 		.4byte	.LASF478
 9310 214f 03       		.byte	0x3
 9311 2150 21       		.uleb128 0x21
 9312 2151 BE190000 		.4byte	.LASF479
 9313 2155 04       		.byte	0x4
 9314 2156 21       		.uleb128 0x21
 9315 2157 32150000 		.4byte	.LASF480
 9316 215b 05       		.byte	0x5
 9317 215c 21       		.uleb128 0x21
 9318 215d 96130000 		.4byte	.LASF481
 9319 2161 06       		.byte	0x6
 9320 2162 00       		.byte	0
 9321 2163 18       		.uleb128 0x18
 9322 2164 6F150000 		.4byte	.LASF482
 9323 2168 24       		.byte	0x24
 9324 2169 2101     		.2byte	0x121
 9325 216b 2A210000 		.4byte	0x212a
ARM GAS  /tmp/ccIHdayg.s 			page 166


 9326 216f 20       		.uleb128 0x20
 9327 2170 07       		.byte	0x7
 9328 2171 01       		.byte	0x1
 9329 2172 45000000 		.4byte	0x45
 9330 2176 24       		.byte	0x24
 9331 2177 2601     		.2byte	0x126
 9332 2179 A2210000 		.4byte	0x21a2
 9333 217d 21       		.uleb128 0x21
 9334 217e C71D0000 		.4byte	.LASF483
 9335 2182 00       		.byte	0
 9336 2183 21       		.uleb128 0x21
 9337 2184 9E1E0000 		.4byte	.LASF484
 9338 2188 01       		.byte	0x1
 9339 2189 21       		.uleb128 0x21
 9340 218a 34180000 		.4byte	.LASF485
 9341 218e 02       		.byte	0x2
 9342 218f 21       		.uleb128 0x21
 9343 2190 3B190000 		.4byte	.LASF486
 9344 2194 03       		.byte	0x3
 9345 2195 21       		.uleb128 0x21
 9346 2196 E22B0000 		.4byte	.LASF487
 9347 219a 04       		.byte	0x4
 9348 219b 21       		.uleb128 0x21
 9349 219c FE170000 		.4byte	.LASF488
 9350 21a0 05       		.byte	0x5
 9351 21a1 00       		.byte	0
 9352 21a2 18       		.uleb128 0x18
 9353 21a3 E31E0000 		.4byte	.LASF489
 9354 21a7 24       		.byte	0x24
 9355 21a8 2D01     		.2byte	0x12d
 9356 21aa 6F210000 		.4byte	0x216f
 9357 21ae 17       		.uleb128 0x17
 9358 21af 08       		.byte	0x8
 9359 21b0 24       		.byte	0x24
 9360 21b1 3201     		.2byte	0x132
 9361 21b3 D2210000 		.4byte	0x21d2
 9362 21b7 0A       		.uleb128 0xa
 9363 21b8 9F2C0000 		.4byte	.LASF490
 9364 21bc 24       		.byte	0x24
 9365 21bd 3601     		.2byte	0x136
 9366 21bf F4000000 		.4byte	0xf4
 9367 21c3 00       		.byte	0
 9368 21c4 0A       		.uleb128 0xa
 9369 21c5 3F060000 		.4byte	.LASF491
 9370 21c9 24       		.byte	0x24
 9371 21ca 3A01     		.2byte	0x13a
 9372 21cc 6E0E0000 		.4byte	0xe6e
 9373 21d0 04       		.byte	0x4
 9374 21d1 00       		.byte	0
 9375 21d2 18       		.uleb128 0x18
 9376 21d3 111A0000 		.4byte	.LASF492
 9377 21d7 24       		.byte	0x24
 9378 21d8 3B01     		.2byte	0x13b
 9379 21da AE210000 		.4byte	0x21ae
 9380 21de 05       		.uleb128 0x5
 9381 21df D2210000 		.4byte	0x21d2
 9382 21e3 18       		.uleb128 0x18
ARM GAS  /tmp/ccIHdayg.s 			page 167


 9383 21e4 FD2B0000 		.4byte	.LASF493
 9384 21e8 24       		.byte	0x24
 9385 21e9 4301     		.2byte	0x143
 9386 21eb EF210000 		.4byte	0x21ef
 9387 21ef 0B       		.uleb128 0xb
 9388 21f0 04       		.byte	0x4
 9389 21f1 F5210000 		.4byte	0x21f5
 9390 21f5 0D       		.uleb128 0xd
 9391 21f6 00220000 		.4byte	0x2200
 9392 21fa 0E       		.uleb128 0xe
 9393 21fb 00220000 		.4byte	0x2200
 9394 21ff 00       		.byte	0
 9395 2200 0B       		.uleb128 0xb
 9396 2201 04       		.byte	0x4
 9397 2202 A91F0000 		.4byte	0x1fa9
 9398 2206 18       		.uleb128 0x18
 9399 2207 C2060000 		.4byte	.LASF494
 9400 220b 24       		.byte	0x24
 9401 220c 4C01     		.2byte	0x14c
 9402 220e 12220000 		.4byte	0x2212
 9403 2212 0B       		.uleb128 0xb
 9404 2213 04       		.byte	0x4
 9405 2214 18220000 		.4byte	0x2218
 9406 2218 0D       		.uleb128 0xd
 9407 2219 28220000 		.4byte	0x2228
 9408 221d 0E       		.uleb128 0xe
 9409 221e 00220000 		.4byte	0x2200
 9410 2222 0E       		.uleb128 0xe
 9411 2223 E0200000 		.4byte	0x20e0
 9412 2227 00       		.byte	0
 9413 2228 18       		.uleb128 0x18
 9414 2229 980E0000 		.4byte	.LASF495
 9415 222d 24       		.byte	0x24
 9416 222e 5501     		.2byte	0x155
 9417 2230 34220000 		.4byte	0x2234
 9418 2234 0B       		.uleb128 0xb
 9419 2235 04       		.byte	0x4
 9420 2236 3A220000 		.4byte	0x223a
 9421 223a 0D       		.uleb128 0xd
 9422 223b 4A220000 		.4byte	0x224a
 9423 223f 0E       		.uleb128 0xe
 9424 2240 00220000 		.4byte	0x2200
 9425 2244 0E       		.uleb128 0xe
 9426 2245 A2210000 		.4byte	0x21a2
 9427 2249 00       		.byte	0
 9428 224a 18       		.uleb128 0x18
 9429 224b 5F1D0000 		.4byte	.LASF496
 9430 224f 24       		.byte	0x24
 9431 2250 6101     		.2byte	0x161
 9432 2252 56220000 		.4byte	0x2256
 9433 2256 0B       		.uleb128 0xb
 9434 2257 04       		.byte	0x4
 9435 2258 5C220000 		.4byte	0x225c
 9436 225c 1F       		.uleb128 0x1f
 9437 225d D20E0000 		.4byte	0xed2
 9438 2261 6B220000 		.4byte	0x226b
 9439 2265 0E       		.uleb128 0xe
ARM GAS  /tmp/ccIHdayg.s 			page 168


 9440 2266 00220000 		.4byte	0x2200
 9441 226a 00       		.byte	0
 9442 226b 18       		.uleb128 0x18
 9443 226c 24140000 		.4byte	.LASF497
 9444 2270 24       		.byte	0x24
 9445 2271 6601     		.2byte	0x166
 9446 2273 77220000 		.4byte	0x2277
 9447 2277 0B       		.uleb128 0xb
 9448 2278 04       		.byte	0x4
 9449 2279 7D220000 		.4byte	0x227d
 9450 227d 1F       		.uleb128 0x1f
 9451 227e 9B220000 		.4byte	0x229b
 9452 2282 9B220000 		.4byte	0x229b
 9453 2286 0E       		.uleb128 0xe
 9454 2287 00220000 		.4byte	0x2200
 9455 228b 0E       		.uleb128 0xe
 9456 228c A9000000 		.4byte	0xa9
 9457 2290 0E       		.uleb128 0xe
 9458 2291 A9000000 		.4byte	0xa9
 9459 2295 0E       		.uleb128 0xe
 9460 2296 B9000000 		.4byte	0xb9
 9461 229a 00       		.byte	0
 9462 229b 0B       		.uleb128 0xb
 9463 229c 04       		.byte	0x4
 9464 229d DE210000 		.4byte	0x21de
 9465 22a1 15       		.uleb128 0x15
 9466 22a2 20       		.byte	0x20
 9467 22a3 26       		.byte	0x26
 9468 22a4 35       		.byte	0x35
 9469 22a5 0A230000 		.4byte	0x230a
 9470 22a9 08       		.uleb128 0x8
 9471 22aa 91040000 		.4byte	.LASF498
 9472 22ae 26       		.byte	0x26
 9473 22af 36       		.byte	0x36
 9474 22b0 E4000000 		.4byte	0xe4
 9475 22b4 00       		.byte	0
 9476 22b5 08       		.uleb128 0x8
 9477 22b6 16120000 		.4byte	.LASF499
 9478 22ba 26       		.byte	0x26
 9479 22bb 38       		.byte	0x38
 9480 22bc E4000000 		.4byte	0xe4
 9481 22c0 04       		.byte	0x4
 9482 22c1 08       		.uleb128 0x8
 9483 22c2 0D040000 		.4byte	.LASF500
 9484 22c6 26       		.byte	0x26
 9485 22c7 39       		.byte	0x39
 9486 22c8 E4000000 		.4byte	0xe4
 9487 22cc 08       		.byte	0x8
 9488 22cd 08       		.uleb128 0x8
 9489 22ce 1D210000 		.4byte	.LASF501
 9490 22d2 26       		.byte	0x26
 9491 22d3 3A       		.byte	0x3a
 9492 22d4 E4000000 		.4byte	0xe4
 9493 22d8 0C       		.byte	0xc
 9494 22d9 08       		.uleb128 0x8
 9495 22da 2D180000 		.4byte	.LASF502
 9496 22de 26       		.byte	0x26
ARM GAS  /tmp/ccIHdayg.s 			page 169


 9497 22df 3C       		.byte	0x3c
 9498 22e0 E4000000 		.4byte	0xe4
 9499 22e4 10       		.byte	0x10
 9500 22e5 08       		.uleb128 0x8
 9501 22e6 4C120000 		.4byte	.LASF503
 9502 22ea 26       		.byte	0x26
 9503 22eb 3E       		.byte	0x3e
 9504 22ec E4000000 		.4byte	0xe4
 9505 22f0 14       		.byte	0x14
 9506 22f1 08       		.uleb128 0x8
 9507 22f2 68120000 		.4byte	.LASF504
 9508 22f6 26       		.byte	0x26
 9509 22f7 3F       		.byte	0x3f
 9510 22f8 E4000000 		.4byte	0xe4
 9511 22fc 18       		.byte	0x18
 9512 22fd 08       		.uleb128 0x8
 9513 22fe 60050000 		.4byte	.LASF505
 9514 2302 26       		.byte	0x26
 9515 2303 40       		.byte	0x40
 9516 2304 E4000000 		.4byte	0xe4
 9517 2308 1C       		.byte	0x1c
 9518 2309 00       		.byte	0
 9519 230a 04       		.uleb128 0x4
 9520 230b A6200000 		.4byte	.LASF506
 9521 230f 26       		.byte	0x26
 9522 2310 41       		.byte	0x41
 9523 2311 A1220000 		.4byte	0x22a1
 9524 2315 15       		.uleb128 0x15
 9525 2316 20       		.byte	0x20
 9526 2317 26       		.byte	0x26
 9527 2318 46       		.byte	0x46
 9528 2319 7E230000 		.4byte	0x237e
 9529 231d 08       		.uleb128 0x8
 9530 231e 9C120000 		.4byte	.LASF507
 9531 2322 26       		.byte	0x26
 9532 2323 47       		.byte	0x47
 9533 2324 E4000000 		.4byte	0xe4
 9534 2328 00       		.byte	0
 9535 2329 08       		.uleb128 0x8
 9536 232a F4110000 		.4byte	.LASF508
 9537 232e 26       		.byte	0x26
 9538 232f 49       		.byte	0x49
 9539 2330 E4000000 		.4byte	0xe4
 9540 2334 04       		.byte	0x4
 9541 2335 08       		.uleb128 0x8
 9542 2336 78260000 		.4byte	.LASF509
 9543 233a 26       		.byte	0x26
 9544 233b 4A       		.byte	0x4a
 9545 233c E4000000 		.4byte	0xe4
 9546 2340 08       		.byte	0x8
 9547 2341 08       		.uleb128 0x8
 9548 2342 F3150000 		.4byte	.LASF510
 9549 2346 26       		.byte	0x26
 9550 2347 4C       		.byte	0x4c
 9551 2348 E4000000 		.4byte	0xe4
 9552 234c 0C       		.byte	0xc
 9553 234d 08       		.uleb128 0x8
ARM GAS  /tmp/ccIHdayg.s 			page 170


 9554 234e B61B0000 		.4byte	.LASF511
 9555 2352 26       		.byte	0x26
 9556 2353 4D       		.byte	0x4d
 9557 2354 E4000000 		.4byte	0xe4
 9558 2358 10       		.byte	0x10
 9559 2359 08       		.uleb128 0x8
 9560 235a 4C120000 		.4byte	.LASF503
 9561 235e 26       		.byte	0x26
 9562 235f 4F       		.byte	0x4f
 9563 2360 E4000000 		.4byte	0xe4
 9564 2364 14       		.byte	0x14
 9565 2365 08       		.uleb128 0x8
 9566 2366 30090000 		.4byte	.LASF512
 9567 236a 26       		.byte	0x26
 9568 236b 50       		.byte	0x50
 9569 236c E4000000 		.4byte	0xe4
 9570 2370 18       		.byte	0x18
 9571 2371 08       		.uleb128 0x8
 9572 2372 61260000 		.4byte	.LASF513
 9573 2376 26       		.byte	0x26
 9574 2377 52       		.byte	0x52
 9575 2378 E4000000 		.4byte	0xe4
 9576 237c 1C       		.byte	0x1c
 9577 237d 00       		.byte	0
 9578 237e 04       		.uleb128 0x4
 9579 237f 550A0000 		.4byte	.LASF514
 9580 2383 26       		.byte	0x26
 9581 2384 53       		.byte	0x53
 9582 2385 15230000 		.4byte	0x2315
 9583 2389 15       		.uleb128 0x15
 9584 238a 20       		.byte	0x20
 9585 238b 26       		.byte	0x26
 9586 238c 58       		.byte	0x58
 9587 238d F2230000 		.4byte	0x23f2
 9588 2391 08       		.uleb128 0x8
 9589 2392 5B190000 		.4byte	.LASF515
 9590 2396 26       		.byte	0x26
 9591 2397 59       		.byte	0x59
 9592 2398 E4000000 		.4byte	0xe4
 9593 239c 00       		.byte	0
 9594 239d 08       		.uleb128 0x8
 9595 239e F4110000 		.4byte	.LASF508
 9596 23a2 26       		.byte	0x26
 9597 23a3 5B       		.byte	0x5b
 9598 23a4 E4000000 		.4byte	0xe4
 9599 23a8 04       		.byte	0x4
 9600 23a9 08       		.uleb128 0x8
 9601 23aa 031D0000 		.4byte	.LASF516
 9602 23ae 26       		.byte	0x26
 9603 23af 5C       		.byte	0x5c
 9604 23b0 E4000000 		.4byte	0xe4
 9605 23b4 08       		.byte	0x8
 9606 23b5 08       		.uleb128 0x8
 9607 23b6 F3150000 		.4byte	.LASF510
 9608 23ba 26       		.byte	0x26
 9609 23bb 5E       		.byte	0x5e
 9610 23bc E4000000 		.4byte	0xe4
ARM GAS  /tmp/ccIHdayg.s 			page 171


 9611 23c0 0C       		.byte	0xc
 9612 23c1 08       		.uleb128 0x8
 9613 23c2 46280000 		.4byte	.LASF517
 9614 23c6 26       		.byte	0x26
 9615 23c7 5F       		.byte	0x5f
 9616 23c8 E4000000 		.4byte	0xe4
 9617 23cc 10       		.byte	0x10
 9618 23cd 08       		.uleb128 0x8
 9619 23ce 4C120000 		.4byte	.LASF503
 9620 23d2 26       		.byte	0x26
 9621 23d3 61       		.byte	0x61
 9622 23d4 E4000000 		.4byte	0xe4
 9623 23d8 14       		.byte	0x14
 9624 23d9 08       		.uleb128 0x8
 9625 23da 68120000 		.4byte	.LASF504
 9626 23de 26       		.byte	0x26
 9627 23df 62       		.byte	0x62
 9628 23e0 E4000000 		.4byte	0xe4
 9629 23e4 18       		.byte	0x18
 9630 23e5 08       		.uleb128 0x8
 9631 23e6 61260000 		.4byte	.LASF513
 9632 23ea 26       		.byte	0x26
 9633 23eb 63       		.byte	0x63
 9634 23ec E4000000 		.4byte	0xe4
 9635 23f0 1C       		.byte	0x1c
 9636 23f1 00       		.byte	0
 9637 23f2 04       		.uleb128 0x4
 9638 23f3 F91B0000 		.4byte	.LASF518
 9639 23f7 26       		.byte	0x26
 9640 23f8 64       		.byte	0x64
 9641 23f9 89230000 		.4byte	0x2389
 9642 23fd 26       		.uleb128 0x26
 9643 23fe 00100100 		.4byte	0x11000
 9644 2402 26       		.byte	0x26
 9645 2403 69       		.byte	0x69
 9646 2404 DA260000 		.4byte	0x26da
 9647 2408 08       		.uleb128 0x8
 9648 2409 A4060000 		.4byte	.LASF519
 9649 240d 26       		.byte	0x26
 9650 240e 6A       		.byte	0x6a
 9651 240f E4000000 		.4byte	0xe4
 9652 2413 00       		.byte	0
 9653 2414 08       		.uleb128 0x8
 9654 2415 BE100000 		.4byte	.LASF520
 9655 2419 26       		.byte	0x26
 9656 241a 6B       		.byte	0x6b
 9657 241b E4000000 		.4byte	0xe4
 9658 241f 04       		.byte	0x4
 9659 2420 08       		.uleb128 0x8
 9660 2421 BB090000 		.4byte	.LASF521
 9661 2425 26       		.byte	0x26
 9662 2426 6C       		.byte	0x6c
 9663 2427 E4000000 		.4byte	0xe4
 9664 242b 08       		.byte	0x8
 9665 242c 08       		.uleb128 0x8
 9666 242d 282C0000 		.4byte	.LASF522
 9667 2431 26       		.byte	0x26
ARM GAS  /tmp/ccIHdayg.s 			page 172


 9668 2432 6D       		.byte	0x6d
 9669 2433 E4000000 		.4byte	0xe4
 9670 2437 0C       		.byte	0xc
 9671 2438 08       		.uleb128 0x8
 9672 2439 AA170000 		.4byte	.LASF523
 9673 243d 26       		.byte	0x26
 9674 243e 6E       		.byte	0x6e
 9675 243f E4000000 		.4byte	0xe4
 9676 2443 10       		.byte	0x10
 9677 2444 08       		.uleb128 0x8
 9678 2445 240F0000 		.4byte	.LASF524
 9679 2449 26       		.byte	0x26
 9680 244a 6F       		.byte	0x6f
 9681 244b E4000000 		.4byte	0xe4
 9682 244f 14       		.byte	0x14
 9683 2450 08       		.uleb128 0x8
 9684 2451 CB1F0000 		.4byte	.LASF525
 9685 2455 26       		.byte	0x26
 9686 2456 70       		.byte	0x70
 9687 2457 E4000000 		.4byte	0xe4
 9688 245b 18       		.byte	0x18
 9689 245c 08       		.uleb128 0x8
 9690 245d 250A0000 		.4byte	.LASF526
 9691 2461 26       		.byte	0x26
 9692 2462 71       		.byte	0x71
 9693 2463 E4000000 		.4byte	0xe4
 9694 2467 1C       		.byte	0x1c
 9695 2468 08       		.uleb128 0x8
 9696 2469 1D0A0000 		.4byte	.LASF527
 9697 246d 26       		.byte	0x26
 9698 246e 73       		.byte	0x73
 9699 246f E4000000 		.4byte	0xe4
 9700 2473 20       		.byte	0x20
 9701 2474 08       		.uleb128 0x8
 9702 2475 251F0000 		.4byte	.LASF528
 9703 2479 26       		.byte	0x26
 9704 247a 75       		.byte	0x75
 9705 247b E4000000 		.4byte	0xe4
 9706 247f 24       		.byte	0x24
 9707 2480 08       		.uleb128 0x8
 9708 2481 54010000 		.4byte	.LASF529
 9709 2485 26       		.byte	0x26
 9710 2486 76       		.byte	0x76
 9711 2487 E4000000 		.4byte	0xe4
 9712 248b 28       		.byte	0x28
 9713 248c 08       		.uleb128 0x8
 9714 248d F71F0000 		.4byte	.LASF530
 9715 2491 26       		.byte	0x26
 9716 2492 78       		.byte	0x78
 9717 2493 E4000000 		.4byte	0xe4
 9718 2497 2C       		.byte	0x2c
 9719 2498 08       		.uleb128 0x8
 9720 2499 59130000 		.4byte	.LASF531
 9721 249d 26       		.byte	0x26
 9722 249e 7A       		.byte	0x7a
 9723 249f E4000000 		.4byte	0xe4
 9724 24a3 30       		.byte	0x30
ARM GAS  /tmp/ccIHdayg.s 			page 173


 9725 24a4 08       		.uleb128 0x8
 9726 24a5 68130000 		.4byte	.LASF532
 9727 24a9 26       		.byte	0x26
 9728 24aa 7B       		.byte	0x7b
 9729 24ab E4000000 		.4byte	0xe4
 9730 24af 34       		.byte	0x34
 9731 24b0 08       		.uleb128 0x8
 9732 24b1 03030000 		.4byte	.LASF533
 9733 24b5 26       		.byte	0x26
 9734 24b6 7C       		.byte	0x7c
 9735 24b7 E4000000 		.4byte	0xe4
 9736 24bb 38       		.byte	0x38
 9737 24bc 16       		.uleb128 0x16
 9738 24bd 43494400 		.ascii	"CID\000"
 9739 24c1 26       		.byte	0x26
 9740 24c2 7D       		.byte	0x7d
 9741 24c3 E4000000 		.4byte	0xe4
 9742 24c7 3C       		.byte	0x3c
 9743 24c8 08       		.uleb128 0x8
 9744 24c9 A9140000 		.4byte	.LASF534
 9745 24cd 26       		.byte	0x26
 9746 24ce 7E       		.byte	0x7e
 9747 24cf EA260000 		.4byte	0x26ea
 9748 24d3 40       		.byte	0x40
 9749 24d4 25       		.uleb128 0x25
 9750 24d5 EB280000 		.4byte	.LASF535
 9751 24d9 26       		.byte	0x26
 9752 24da 7F       		.byte	0x7f
 9753 24db E4000000 		.4byte	0xe4
 9754 24df 0001     		.2byte	0x100
 9755 24e1 25       		.uleb128 0x25
 9756 24e2 91030000 		.4byte	.LASF536
 9757 24e6 26       		.byte	0x26
 9758 24e7 81       		.byte	0x81
 9759 24e8 66090000 		.4byte	0x966
 9760 24ec 0401     		.2byte	0x104
 9761 24ee 25       		.uleb128 0x25
 9762 24ef E6180000 		.4byte	.LASF537
 9763 24f3 26       		.byte	0x26
 9764 24f4 83       		.byte	0x83
 9765 24f5 FF260000 		.4byte	0x26ff
 9766 24f9 4001     		.2byte	0x140
 9767 24fb 25       		.uleb128 0x25
 9768 24fc 9B1C0000 		.4byte	.LASF538
 9769 2500 26       		.byte	0x26
 9770 2501 84       		.byte	0x84
 9771 2502 E4000000 		.4byte	0xe4
 9772 2506 0004     		.2byte	0x400
 9773 2508 25       		.uleb128 0x25
 9774 2509 802B0000 		.4byte	.LASF539
 9775 250d 26       		.byte	0x26
 9776 250e 85       		.byte	0x85
 9777 250f E4000000 		.4byte	0xe4
 9778 2513 0404     		.2byte	0x404
 9779 2515 25       		.uleb128 0x25
 9780 2516 D6050000 		.4byte	.LASF540
 9781 251a 26       		.byte	0x26
ARM GAS  /tmp/ccIHdayg.s 			page 174


 9782 251b 86       		.byte	0x86
 9783 251c E4000000 		.4byte	0xe4
 9784 2520 0804     		.2byte	0x408
 9785 2522 25       		.uleb128 0x25
 9786 2523 10110000 		.4byte	.LASF541
 9787 2527 26       		.byte	0x26
 9788 2528 88       		.byte	0x88
 9789 2529 E4000000 		.4byte	0xe4
 9790 252d 0C04     		.2byte	0x40c
 9791 252f 25       		.uleb128 0x25
 9792 2530 5A040000 		.4byte	.LASF542
 9793 2534 26       		.byte	0x26
 9794 2535 89       		.byte	0x89
 9795 2536 E4000000 		.4byte	0xe4
 9796 253a 1004     		.2byte	0x410
 9797 253c 25       		.uleb128 0x25
 9798 253d F8170000 		.4byte	.LASF543
 9799 2541 26       		.byte	0x26
 9800 2542 8B       		.byte	0x8b
 9801 2543 E4000000 		.4byte	0xe4
 9802 2547 1404     		.2byte	0x414
 9803 2549 25       		.uleb128 0x25
 9804 254a CD100000 		.4byte	.LASF544
 9805 254e 26       		.byte	0x26
 9806 254f 8D       		.byte	0x8d
 9807 2550 E4000000 		.4byte	0xe4
 9808 2554 1804     		.2byte	0x418
 9809 2556 25       		.uleb128 0x25
 9810 2557 93220000 		.4byte	.LASF545
 9811 255b 26       		.byte	0x26
 9812 255c 8F       		.byte	0x8f
 9813 255d 14270000 		.4byte	0x2714
 9814 2561 1C04     		.2byte	0x41c
 9815 2563 25       		.uleb128 0x25
 9816 2564 08040000 		.4byte	.LASF546
 9817 2568 26       		.byte	0x26
 9818 2569 90       		.byte	0x90
 9819 256a E4000000 		.4byte	0xe4
 9820 256e 4004     		.2byte	0x440
 9821 2570 25       		.uleb128 0x25
 9822 2571 6B240000 		.4byte	.LASF547
 9823 2575 26       		.byte	0x26
 9824 2576 92       		.byte	0x92
 9825 2577 29270000 		.4byte	0x2729
 9826 257b 4404     		.2byte	0x444
 9827 257d 27       		.uleb128 0x27
 9828 257e 686300   		.ascii	"hc\000"
 9829 2581 26       		.byte	0x26
 9830 2582 93       		.byte	0x93
 9831 2583 2E270000 		.4byte	0x272e
 9832 2587 0005     		.2byte	0x500
 9833 2589 25       		.uleb128 0x25
 9834 258a 7D020000 		.4byte	.LASF548
 9835 258e 26       		.byte	0x26
 9836 258f 94       		.byte	0x94
 9837 2590 4E270000 		.4byte	0x274e
 9838 2594 0007     		.2byte	0x700
ARM GAS  /tmp/ccIHdayg.s 			page 175


 9839 2596 25       		.uleb128 0x25
 9840 2597 63210000 		.4byte	.LASF549
 9841 259b 26       		.byte	0x26
 9842 259c 95       		.byte	0x95
 9843 259d E4000000 		.4byte	0xe4
 9844 25a1 0008     		.2byte	0x800
 9845 25a3 25       		.uleb128 0x25
 9846 25a4 E8290000 		.4byte	.LASF550
 9847 25a8 26       		.byte	0x26
 9848 25a9 96       		.byte	0x96
 9849 25aa E4000000 		.4byte	0xe4
 9850 25ae 0408     		.2byte	0x804
 9851 25b0 25       		.uleb128 0x25
 9852 25b1 EF160000 		.4byte	.LASF551
 9853 25b5 26       		.byte	0x26
 9854 25b6 97       		.byte	0x97
 9855 25b7 E4000000 		.4byte	0xe4
 9856 25bb 0808     		.2byte	0x808
 9857 25bd 25       		.uleb128 0x25
 9858 25be 6C060000 		.4byte	.LASF552
 9859 25c2 26       		.byte	0x26
 9860 25c3 98       		.byte	0x98
 9861 25c4 E4000000 		.4byte	0xe4
 9862 25c8 0C08     		.2byte	0x80c
 9863 25ca 25       		.uleb128 0x25
 9864 25cb B6100000 		.4byte	.LASF553
 9865 25cf 26       		.byte	0x26
 9866 25d0 99       		.byte	0x99
 9867 25d1 E4000000 		.4byte	0xe4
 9868 25d5 1008     		.2byte	0x810
 9869 25d7 25       		.uleb128 0x25
 9870 25d8 E3260000 		.4byte	.LASF554
 9871 25dc 26       		.byte	0x26
 9872 25dd 9B       		.byte	0x9b
 9873 25de E4000000 		.4byte	0xe4
 9874 25e2 1408     		.2byte	0x814
 9875 25e4 25       		.uleb128 0x25
 9876 25e5 B2270000 		.4byte	.LASF555
 9877 25e9 26       		.byte	0x26
 9878 25ea 9D       		.byte	0x9d
 9879 25eb E4000000 		.4byte	0xe4
 9880 25ef 1808     		.2byte	0x818
 9881 25f1 25       		.uleb128 0x25
 9882 25f2 3E230000 		.4byte	.LASF556
 9883 25f6 26       		.byte	0x26
 9884 25f7 9F       		.byte	0x9f
 9885 25f8 E4000000 		.4byte	0xe4
 9886 25fc 1C08     		.2byte	0x81c
 9887 25fe 25       		.uleb128 0x25
 9888 25ff 18080000 		.4byte	.LASF557
 9889 2603 26       		.byte	0x26
 9890 2604 A1       		.byte	0xa1
 9891 2605 E4000000 		.4byte	0xe4
 9892 2609 2008     		.2byte	0x820
 9893 260b 25       		.uleb128 0x25
 9894 260c 09070000 		.4byte	.LASF558
 9895 2610 26       		.byte	0x26
ARM GAS  /tmp/ccIHdayg.s 			page 176


 9896 2611 A2       		.byte	0xa2
 9897 2612 E4000000 		.4byte	0xe4
 9898 2616 2408     		.2byte	0x824
 9899 2618 25       		.uleb128 0x25
 9900 2619 9C020000 		.4byte	.LASF559
 9901 261d 26       		.byte	0x26
 9902 261e A3       		.byte	0xa3
 9903 261f E4000000 		.4byte	0xe4
 9904 2623 2808     		.2byte	0x828
 9905 2625 25       		.uleb128 0x25
 9906 2626 14090000 		.4byte	.LASF560
 9907 262a 26       		.byte	0x26
 9908 262b A5       		.byte	0xa5
 9909 262c E4000000 		.4byte	0xe4
 9910 2630 2C08     		.2byte	0x82c
 9911 2632 25       		.uleb128 0x25
 9912 2633 CA080000 		.4byte	.LASF561
 9913 2637 26       		.byte	0x26
 9914 2638 A7       		.byte	0xa7
 9915 2639 E4000000 		.4byte	0xe4
 9916 263d 3008     		.2byte	0x830
 9917 263f 25       		.uleb128 0x25
 9918 2640 8B120000 		.4byte	.LASF562
 9919 2644 26       		.byte	0x26
 9920 2645 A8       		.byte	0xa8
 9921 2646 E4000000 		.4byte	0xe4
 9922 264a 3408     		.2byte	0x834
 9923 264c 25       		.uleb128 0x25
 9924 264d EC080000 		.4byte	.LASF563
 9925 2651 26       		.byte	0x26
 9926 2652 AA       		.byte	0xaa
 9927 2653 E4000000 		.4byte	0xe4
 9928 2657 3808     		.2byte	0x838
 9929 2659 25       		.uleb128 0x25
 9930 265a 04090000 		.4byte	.LASF564
 9931 265e 26       		.byte	0x26
 9932 265f AB       		.byte	0xab
 9933 2660 E4000000 		.4byte	0xe4
 9934 2664 3C08     		.2byte	0x83c
 9935 2666 25       		.uleb128 0x25
 9936 2667 CB090000 		.4byte	.LASF565
 9937 266b 26       		.byte	0x26
 9938 266c AC       		.byte	0xac
 9939 266d 63270000 		.4byte	0x2763
 9940 2671 4008     		.2byte	0x840
 9941 2673 25       		.uleb128 0x25
 9942 2674 33120000 		.4byte	.LASF566
 9943 2678 26       		.byte	0x26
 9944 2679 AD       		.byte	0xad
 9945 267a 63270000 		.4byte	0x2763
 9946 267e 8008     		.2byte	0x880
 9947 2680 25       		.uleb128 0x25
 9948 2681 C5150000 		.4byte	.LASF567
 9949 2685 26       		.byte	0x26
 9950 2686 AE       		.byte	0xae
 9951 2687 63270000 		.4byte	0x2763
 9952 268b C008     		.2byte	0x8c0
ARM GAS  /tmp/ccIHdayg.s 			page 177


 9953 268d 27       		.uleb128 0x27
 9954 268e 696500   		.ascii	"ie\000"
 9955 2691 26       		.byte	0x26
 9956 2692 AF       		.byte	0xaf
 9957 2693 68270000 		.4byte	0x2768
 9958 2697 0009     		.2byte	0x900
 9959 2699 27       		.uleb128 0x27
 9960 269a 6F6500   		.ascii	"oe\000"
 9961 269d 26       		.byte	0x26
 9962 269e B0       		.byte	0xb0
 9963 269f 78270000 		.4byte	0x2778
 9964 26a3 000B     		.2byte	0xb00
 9965 26a5 25       		.uleb128 0x25
 9966 26a6 0E0F0000 		.4byte	.LASF568
 9967 26aa 26       		.byte	0x26
 9968 26ab B1       		.byte	0xb1
 9969 26ac 4E270000 		.4byte	0x274e
 9970 26b0 000D     		.2byte	0xd00
 9971 26b2 25       		.uleb128 0x25
 9972 26b3 F3290000 		.4byte	.LASF569
 9973 26b7 26       		.byte	0x26
 9974 26b8 B2       		.byte	0xb2
 9975 26b9 E4000000 		.4byte	0xe4
 9976 26bd 000E     		.2byte	0xe00
 9977 26bf 25       		.uleb128 0x25
 9978 26c0 B9130000 		.4byte	.LASF570
 9979 26c4 26       		.byte	0x26
 9980 26c5 B4       		.byte	0xb4
 9981 26c6 98270000 		.4byte	0x2798
 9982 26ca 040E     		.2byte	0xe04
 9983 26cc 25       		.uleb128 0x25
 9984 26cd AD290000 		.4byte	.LASF571
 9985 26d1 26       		.byte	0x26
 9986 26d2 B5       		.byte	0xb5
 9987 26d3 B4270000 		.4byte	0x27b4
 9988 26d7 0010     		.2byte	0x1000
 9989 26d9 00       		.byte	0
 9990 26da 11       		.uleb128 0x11
 9991 26db E4000000 		.4byte	0xe4
 9992 26df EA260000 		.4byte	0x26ea
 9993 26e3 12       		.uleb128 0x12
 9994 26e4 A2000000 		.4byte	0xa2
 9995 26e8 2F       		.byte	0x2f
 9996 26e9 00       		.byte	0
 9997 26ea 06       		.uleb128 0x6
 9998 26eb DA260000 		.4byte	0x26da
 9999 26ef 11       		.uleb128 0x11
 10000 26f0 E4000000 		.4byte	0xe4
 10001 26f4 FF260000 		.4byte	0x26ff
 10002 26f8 12       		.uleb128 0x12
 10003 26f9 A2000000 		.4byte	0xa2
 10004 26fd AF       		.byte	0xaf
 10005 26fe 00       		.byte	0
 10006 26ff 06       		.uleb128 0x6
 10007 2700 EF260000 		.4byte	0x26ef
 10008 2704 11       		.uleb128 0x11
 10009 2705 E4000000 		.4byte	0xe4
ARM GAS  /tmp/ccIHdayg.s 			page 178


 10010 2709 14270000 		.4byte	0x2714
 10011 270d 12       		.uleb128 0x12
 10012 270e A2000000 		.4byte	0xa2
 10013 2712 08       		.byte	0x8
 10014 2713 00       		.byte	0
 10015 2714 06       		.uleb128 0x6
 10016 2715 04270000 		.4byte	0x2704
 10017 2719 11       		.uleb128 0x11
 10018 271a E4000000 		.4byte	0xe4
 10019 271e 29270000 		.4byte	0x2729
 10020 2722 12       		.uleb128 0x12
 10021 2723 A2000000 		.4byte	0xa2
 10022 2727 2E       		.byte	0x2e
 10023 2728 00       		.byte	0
 10024 2729 06       		.uleb128 0x6
 10025 272a 19270000 		.4byte	0x2719
 10026 272e 11       		.uleb128 0x11
 10027 272f 0A230000 		.4byte	0x230a
 10028 2733 3E270000 		.4byte	0x273e
 10029 2737 12       		.uleb128 0x12
 10030 2738 A2000000 		.4byte	0xa2
 10031 273c 0F       		.byte	0xf
 10032 273d 00       		.byte	0
 10033 273e 11       		.uleb128 0x11
 10034 273f E4000000 		.4byte	0xe4
 10035 2743 4E270000 		.4byte	0x274e
 10036 2747 12       		.uleb128 0x12
 10037 2748 A2000000 		.4byte	0xa2
 10038 274c 3F       		.byte	0x3f
 10039 274d 00       		.byte	0
 10040 274e 06       		.uleb128 0x6
 10041 274f 3E270000 		.4byte	0x273e
 10042 2753 11       		.uleb128 0x11
 10043 2754 E4000000 		.4byte	0xe4
 10044 2758 63270000 		.4byte	0x2763
 10045 275c 12       		.uleb128 0x12
 10046 275d A2000000 		.4byte	0xa2
 10047 2761 0F       		.byte	0xf
 10048 2762 00       		.byte	0
 10049 2763 06       		.uleb128 0x6
 10050 2764 53270000 		.4byte	0x2753
 10051 2768 11       		.uleb128 0x11
 10052 2769 7E230000 		.4byte	0x237e
 10053 276d 78270000 		.4byte	0x2778
 10054 2771 12       		.uleb128 0x12
 10055 2772 A2000000 		.4byte	0xa2
 10056 2776 0F       		.byte	0xf
 10057 2777 00       		.byte	0
 10058 2778 11       		.uleb128 0x11
 10059 2779 F2230000 		.4byte	0x23f2
 10060 277d 88270000 		.4byte	0x2788
 10061 2781 12       		.uleb128 0x12
 10062 2782 A2000000 		.4byte	0xa2
 10063 2786 0F       		.byte	0xf
 10064 2787 00       		.byte	0
 10065 2788 11       		.uleb128 0x11
 10066 2789 E4000000 		.4byte	0xe4
ARM GAS  /tmp/ccIHdayg.s 			page 179


 10067 278d 98270000 		.4byte	0x2798
 10068 2791 12       		.uleb128 0x12
 10069 2792 A2000000 		.4byte	0xa2
 10070 2796 7E       		.byte	0x7e
 10071 2797 00       		.byte	0
 10072 2798 06       		.uleb128 0x6
 10073 2799 88270000 		.4byte	0x2788
 10074 279d 11       		.uleb128 0x11
 10075 279e E4000000 		.4byte	0xe4
 10076 27a2 B4270000 		.4byte	0x27b4
 10077 27a6 12       		.uleb128 0x12
 10078 27a7 A2000000 		.4byte	0xa2
 10079 27ab 0F       		.byte	0xf
 10080 27ac 28       		.uleb128 0x28
 10081 27ad A2000000 		.4byte	0xa2
 10082 27b1 FF03     		.2byte	0x3ff
 10083 27b3 00       		.byte	0
 10084 27b4 06       		.uleb128 0x6
 10085 27b5 9D270000 		.4byte	0x279d
 10086 27b9 04       		.uleb128 0x4
 10087 27ba 6D2C0000 		.4byte	.LASF572
 10088 27be 26       		.byte	0x26
 10089 27bf B6       		.byte	0xb6
 10090 27c0 FD230000 		.4byte	0x23fd
 10091 27c4 15       		.uleb128 0x15
 10092 27c5 0C       		.byte	0xc
 10093 27c6 25       		.byte	0x25
 10094 27c7 C6       		.byte	0xc6
 10095 27c8 F1270000 		.4byte	0x27f1
 10096 27cc 08       		.uleb128 0x8
 10097 27cd 690B0000 		.4byte	.LASF573
 10098 27d1 25       		.byte	0x25
 10099 27d2 C7       		.byte	0xc7
 10100 27d3 D9000000 		.4byte	0xd9
 10101 27d7 00       		.byte	0
 10102 27d8 08       		.uleb128 0x8
 10103 27d9 DB0E0000 		.4byte	.LASF574
 10104 27dd 25       		.byte	0x25
 10105 27de C8       		.byte	0xc8
 10106 27df D9000000 		.4byte	0xd9
 10107 27e3 04       		.byte	0x4
 10108 27e4 08       		.uleb128 0x8
 10109 27e5 D2070000 		.4byte	.LASF575
 10110 27e9 25       		.byte	0x25
 10111 27ea C9       		.byte	0xc9
 10112 27eb D9000000 		.4byte	0xd9
 10113 27ef 08       		.byte	0x8
 10114 27f0 00       		.byte	0
 10115 27f1 04       		.uleb128 0x4
 10116 27f2 FB0E0000 		.4byte	.LASF576
 10117 27f6 25       		.byte	0x25
 10118 27f7 CA       		.byte	0xca
 10119 27f8 C4270000 		.4byte	0x27c4
 10120 27fc 05       		.uleb128 0x5
 10121 27fd F1270000 		.4byte	0x27f1
 10122 2801 15       		.uleb128 0x15
 10123 2802 04       		.byte	0x4
ARM GAS  /tmp/ccIHdayg.s 			page 180


 10124 2803 25       		.byte	0x25
 10125 2804 DD       		.byte	0xdd
 10126 2805 16280000 		.4byte	0x2816
 10127 2809 08       		.uleb128 0x8
 10128 280a ED290000 		.4byte	.LASF577
 10129 280e 25       		.byte	0x25
 10130 280f E1       		.byte	0xe1
 10131 2810 6E0E0000 		.4byte	0xe6e
 10132 2814 00       		.byte	0
 10133 2815 00       		.byte	0
 10134 2816 15       		.uleb128 0x15
 10135 2817 04       		.byte	0x4
 10136 2818 25       		.byte	0x25
 10137 2819 E3       		.byte	0xe3
 10138 281a 2B280000 		.4byte	0x282b
 10139 281e 08       		.uleb128 0x8
 10140 281f 040C0000 		.4byte	.LASF341
 10141 2823 25       		.byte	0x25
 10142 2824 E7       		.byte	0xe7
 10143 2825 2B280000 		.4byte	0x282b
 10144 2829 00       		.byte	0
 10145 282a 00       		.byte	0
 10146 282b 0B       		.uleb128 0xb
 10147 282c 04       		.byte	0x4
 10148 282d 4A0E0000 		.4byte	0xe4a
 10149 2831 1C       		.uleb128 0x1c
 10150 2832 04       		.byte	0x4
 10151 2833 25       		.byte	0x25
 10152 2834 DC       		.byte	0xdc
 10153 2835 50280000 		.4byte	0x2850
 10154 2839 29       		.uleb128 0x29
 10155 283a 852B0000 		.4byte	.LASF578
 10156 283e 25       		.byte	0x25
 10157 283f E2       		.byte	0xe2
 10158 2840 01280000 		.4byte	0x2801
 10159 2844 29       		.uleb128 0x29
 10160 2845 AE230000 		.4byte	.LASF579
 10161 2849 25       		.byte	0x25
 10162 284a E8       		.byte	0xe8
 10163 284b 16280000 		.4byte	0x2816
 10164 284f 00       		.byte	0
 10165 2850 15       		.uleb128 0x15
 10166 2851 14       		.byte	0x14
 10167 2852 25       		.byte	0x25
 10168 2853 CF       		.byte	0xcf
 10169 2854 95280000 		.4byte	0x2895
 10170 2858 08       		.uleb128 0x8
 10171 2859 010A0000 		.4byte	.LASF580
 10172 285d 25       		.byte	0x25
 10173 285e D3       		.byte	0xd3
 10174 285f D20E0000 		.4byte	0xed2
 10175 2863 00       		.byte	0
 10176 2864 08       		.uleb128 0x8
 10177 2865 3D170000 		.4byte	.LASF581
 10178 2869 25       		.byte	0x25
 10179 286a D7       		.byte	0xd7
 10180 286b F4000000 		.4byte	0xf4
ARM GAS  /tmp/ccIHdayg.s 			page 181


 10181 286f 04       		.byte	0x4
 10182 2870 08       		.uleb128 0x8
 10183 2871 34290000 		.4byte	.LASF582
 10184 2875 25       		.byte	0x25
 10185 2876 DB       		.byte	0xdb
 10186 2877 F4000000 		.4byte	0xf4
 10187 287b 08       		.byte	0x8
 10188 287c 08       		.uleb128 0x8
 10189 287d 980A0000 		.4byte	.LASF272
 10190 2881 25       		.byte	0x25
 10191 2882 E9       		.byte	0xe9
 10192 2883 31280000 		.4byte	0x2831
 10193 2887 0C       		.byte	0xc
 10194 2888 08       		.uleb128 0x8
 10195 2889 F0130000 		.4byte	.LASF583
 10196 288d 25       		.byte	0x25
 10197 288e ED       		.byte	0xed
 10198 288f F4000000 		.4byte	0xf4
 10199 2893 10       		.byte	0x10
 10200 2894 00       		.byte	0
 10201 2895 04       		.uleb128 0x4
 10202 2896 B1140000 		.4byte	.LASF584
 10203 289a 25       		.byte	0x25
 10204 289b EE       		.byte	0xee
 10205 289c 50280000 		.4byte	0x2850
 10206 28a0 17       		.uleb128 0x17
 10207 28a1 04       		.byte	0x4
 10208 28a2 25       		.byte	0x25
 10209 28a3 0101     		.2byte	0x101
 10210 28a5 B7280000 		.4byte	0x28b7
 10211 28a9 0A       		.uleb128 0xa
 10212 28aa 1E0F0000 		.4byte	.LASF585
 10213 28ae 25       		.byte	0x25
 10214 28af 0501     		.2byte	0x105
 10215 28b1 390E0000 		.4byte	0xe39
 10216 28b5 00       		.byte	0
 10217 28b6 00       		.byte	0
 10218 28b7 17       		.uleb128 0x17
 10219 28b8 04       		.byte	0x4
 10220 28b9 25       		.byte	0x25
 10221 28ba 0701     		.2byte	0x107
 10222 28bc CE280000 		.4byte	0x28ce
 10223 28c0 0A       		.uleb128 0xa
 10224 28c1 63240000 		.4byte	.LASF342
 10225 28c5 25       		.byte	0x25
 10226 28c6 0B01     		.2byte	0x10b
 10227 28c8 CE280000 		.4byte	0x28ce
 10228 28cc 00       		.byte	0
 10229 28cd 00       		.byte	0
 10230 28ce 0B       		.uleb128 0xb
 10231 28cf 04       		.byte	0x4
 10232 28d0 3F0E0000 		.4byte	0xe3f
 10233 28d4 2A       		.uleb128 0x2a
 10234 28d5 04       		.byte	0x4
 10235 28d6 25       		.byte	0x25
 10236 28d7 0001     		.2byte	0x100
 10237 28d9 F6280000 		.4byte	0x28f6
ARM GAS  /tmp/ccIHdayg.s 			page 182


 10238 28dd 1D       		.uleb128 0x1d
 10239 28de 852B0000 		.4byte	.LASF578
 10240 28e2 25       		.byte	0x25
 10241 28e3 0601     		.2byte	0x106
 10242 28e5 A0280000 		.4byte	0x28a0
 10243 28e9 1D       		.uleb128 0x1d
 10244 28ea AE230000 		.4byte	.LASF579
 10245 28ee 25       		.byte	0x25
 10246 28ef 0C01     		.2byte	0x10c
 10247 28f1 B7280000 		.4byte	0x28b7
 10248 28f5 00       		.byte	0
 10249 28f6 15       		.uleb128 0x15
 10250 28f7 14       		.byte	0x14
 10251 28f8 25       		.byte	0x25
 10252 28f9 F3       		.byte	0xf3
 10253 28fa 3D290000 		.4byte	0x293d
 10254 28fe 08       		.uleb128 0x8
 10255 28ff C9070000 		.4byte	.LASF586
 10256 2903 25       		.byte	0x25
 10257 2904 F7       		.byte	0xf7
 10258 2905 D20E0000 		.4byte	0xed2
 10259 2909 00       		.byte	0
 10260 290a 08       		.uleb128 0x8
 10261 290b 1A180000 		.4byte	.LASF587
 10262 290f 25       		.byte	0x25
 10263 2910 FB       		.byte	0xfb
 10264 2911 F4000000 		.4byte	0xf4
 10265 2915 04       		.byte	0x4
 10266 2916 08       		.uleb128 0x8
 10267 2917 670A0000 		.4byte	.LASF588
 10268 291b 25       		.byte	0x25
 10269 291c FF       		.byte	0xff
 10270 291d F4000000 		.4byte	0xf4
 10271 2921 08       		.byte	0x8
 10272 2922 0A       		.uleb128 0xa
 10273 2923 980A0000 		.4byte	.LASF272
 10274 2927 25       		.byte	0x25
 10275 2928 0D01     		.2byte	0x10d
 10276 292a D4280000 		.4byte	0x28d4
 10277 292e 0C       		.byte	0xc
 10278 292f 0A       		.uleb128 0xa
 10279 2930 F0130000 		.4byte	.LASF583
 10280 2934 25       		.byte	0x25
 10281 2935 1101     		.2byte	0x111
 10282 2937 F4000000 		.4byte	0xf4
 10283 293b 10       		.byte	0x10
 10284 293c 00       		.byte	0
 10285 293d 18       		.uleb128 0x18
 10286 293e 6E220000 		.4byte	.LASF589
 10287 2942 25       		.byte	0x25
 10288 2943 1201     		.2byte	0x112
 10289 2945 F6280000 		.4byte	0x28f6
 10290 2949 17       		.uleb128 0x17
 10291 294a 24       		.byte	0x24
 10292 294b 25       		.byte	0x25
 10293 294c 1801     		.2byte	0x118
 10294 294e D5290000 		.4byte	0x29d5
ARM GAS  /tmp/ccIHdayg.s 			page 183


 10295 2952 0A       		.uleb128 0xa
 10296 2953 F11B0000 		.4byte	.LASF590
 10297 2957 25       		.byte	0x25
 10298 2958 1C01     		.2byte	0x11c
 10299 295a D9000000 		.4byte	0xd9
 10300 295e 00       		.byte	0
 10301 295f 0A       		.uleb128 0xa
 10302 2960 D60B0000 		.4byte	.LASF591
 10303 2964 25       		.byte	0x25
 10304 2965 2701     		.2byte	0x127
 10305 2967 06220000 		.4byte	0x2206
 10306 296b 04       		.byte	0x4
 10307 296c 0A       		.uleb128 0xa
 10308 296d FD1C0000 		.4byte	.LASF592
 10309 2971 25       		.byte	0x25
 10310 2972 2D01     		.2byte	0x12d
 10311 2974 06220000 		.4byte	0x2206
 10312 2978 08       		.byte	0x8
 10313 2979 0A       		.uleb128 0xa
 10314 297a C6100000 		.4byte	.LASF593
 10315 297e 25       		.byte	0x25
 10316 297f 3301     		.2byte	0x133
 10317 2981 06220000 		.4byte	0x2206
 10318 2985 0C       		.byte	0xc
 10319 2986 0A       		.uleb128 0xa
 10320 2987 A72C0000 		.4byte	.LASF594
 10321 298b 25       		.byte	0x25
 10322 298c 3901     		.2byte	0x139
 10323 298e B9000000 		.4byte	0xb9
 10324 2992 10       		.byte	0x10
 10325 2993 0A       		.uleb128 0xa
 10326 2994 61140000 		.4byte	.LASF595
 10327 2998 25       		.byte	0x25
 10328 2999 3F01     		.2byte	0x13f
 10329 299b B9000000 		.4byte	0xb9
 10330 299f 12       		.byte	0x12
 10331 29a0 0A       		.uleb128 0xa
 10332 29a1 E32A0000 		.4byte	.LASF596
 10333 29a5 25       		.byte	0x25
 10334 29a6 4401     		.2byte	0x144
 10335 29a8 D5290000 		.4byte	0x29d5
 10336 29ac 14       		.byte	0x14
 10337 29ad 0A       		.uleb128 0xa
 10338 29ae DF120000 		.4byte	.LASF597
 10339 29b2 25       		.byte	0x25
 10340 29b3 4901     		.2byte	0x149
 10341 29b5 DB290000 		.4byte	0x29db
 10342 29b9 18       		.byte	0x18
 10343 29ba 0A       		.uleb128 0xa
 10344 29bb 81160000 		.4byte	.LASF598
 10345 29bf 25       		.byte	0x25
 10346 29c0 5001     		.2byte	0x150
 10347 29c2 B9000000 		.4byte	0xb9
 10348 29c6 1C       		.byte	0x1c
 10349 29c7 0A       		.uleb128 0xa
 10350 29c8 472A0000 		.4byte	.LASF599
 10351 29cc 25       		.byte	0x25
ARM GAS  /tmp/ccIHdayg.s 			page 184


 10352 29cd 5601     		.2byte	0x156
 10353 29cf 390E0000 		.4byte	0xe39
 10354 29d3 20       		.byte	0x20
 10355 29d4 00       		.byte	0
 10356 29d5 0B       		.uleb128 0xb
 10357 29d6 04       		.byte	0x4
 10358 29d7 95280000 		.4byte	0x2895
 10359 29db 0B       		.uleb128 0xb
 10360 29dc 04       		.byte	0x4
 10361 29dd 3D290000 		.4byte	0x293d
 10362 29e1 18       		.uleb128 0x18
 10363 29e2 51240000 		.4byte	.LASF600
 10364 29e6 25       		.byte	0x25
 10365 29e7 5701     		.2byte	0x157
 10366 29e9 49290000 		.4byte	0x2949
 10367 29ed 05       		.uleb128 0x5
 10368 29ee E1290000 		.4byte	0x29e1
 10369 29f2 17       		.uleb128 0x17
 10370 29f3 10       		.byte	0x10
 10371 29f4 25       		.byte	0x25
 10372 29f5 5C01     		.2byte	0x15c
 10373 29f7 302A0000 		.4byte	0x2a30
 10374 29fb 0A       		.uleb128 0xa
 10375 29fc 75060000 		.4byte	.LASF601
 10376 2a00 25       		.byte	0x25
 10377 2a01 6101     		.2byte	0x161
 10378 2a03 28220000 		.4byte	0x2228
 10379 2a07 00       		.byte	0
 10380 2a08 0A       		.uleb128 0xa
 10381 2a09 3A290000 		.4byte	.LASF602
 10382 2a0d 25       		.byte	0x25
 10383 2a0e 6601     		.2byte	0x166
 10384 2a10 6B220000 		.4byte	0x226b
 10385 2a14 04       		.byte	0x4
 10386 2a15 0A       		.uleb128 0xa
 10387 2a16 0C170000 		.4byte	.LASF603
 10388 2a1a 25       		.byte	0x25
 10389 2a1b 6C01     		.2byte	0x16c
 10390 2a1d 4A220000 		.4byte	0x224a
 10391 2a21 08       		.byte	0x8
 10392 2a22 0A       		.uleb128 0xa
 10393 2a23 42030000 		.4byte	.LASF604
 10394 2a27 25       		.byte	0x25
 10395 2a28 7001     		.2byte	0x170
 10396 2a2a E3210000 		.4byte	0x21e3
 10397 2a2e 0C       		.byte	0xc
 10398 2a2f 00       		.byte	0
 10399 2a30 18       		.uleb128 0x18
 10400 2a31 CE150000 		.4byte	.LASF605
 10401 2a35 25       		.byte	0x25
 10402 2a36 7201     		.2byte	0x172
 10403 2a38 F2290000 		.4byte	0x29f2
 10404 2a3c 05       		.uleb128 0x5
 10405 2a3d 302A0000 		.4byte	0x2a30
 10406 2a41 0B       		.uleb128 0xb
 10407 2a42 04       		.byte	0x4
 10408 2a43 3C2A0000 		.4byte	0x2a3c
ARM GAS  /tmp/ccIHdayg.s 			page 185


 10409 2a47 11       		.uleb128 0x11
 10410 2a48 572A0000 		.4byte	0x2a57
 10411 2a4c 572A0000 		.4byte	0x2a57
 10412 2a50 12       		.uleb128 0x12
 10413 2a51 A2000000 		.4byte	0xa2
 10414 2a55 03       		.byte	0x3
 10415 2a56 00       		.byte	0
 10416 2a57 0B       		.uleb128 0xb
 10417 2a58 04       		.byte	0x4
 10418 2a59 ED290000 		.4byte	0x29ed
 10419 2a5d 11       		.uleb128 0x11
 10420 2a5e 93030000 		.4byte	0x393
 10421 2a62 6D2A0000 		.4byte	0x2a6d
 10422 2a66 12       		.uleb128 0x12
 10423 2a67 A2000000 		.4byte	0xa2
 10424 2a6b 02       		.byte	0x2
 10425 2a6c 00       		.byte	0
 10426 2a6d 0B       		.uleb128 0xb
 10427 2a6e 04       		.byte	0x4
 10428 2a6f B9270000 		.4byte	0x27b9
 10429 2a73 0B       		.uleb128 0xb
 10430 2a74 04       		.byte	0x4
 10431 2a75 FC270000 		.4byte	0x27fc
 10432 2a79 11       		.uleb128 0x11
 10433 2a7a 76090000 		.4byte	0x976
 10434 2a7e 892A0000 		.4byte	0x2a89
 10435 2a82 12       		.uleb128 0x12
 10436 2a83 A2000000 		.4byte	0xa2
 10437 2a87 43       		.byte	0x43
 10438 2a88 00       		.byte	0
 10439 2a89 13       		.uleb128 0x13
 10440 2a8a 5D010000 		.4byte	.LASF606
 10441 2a8e 25       		.byte	0x25
 10442 2a8f 0602     		.2byte	0x206
 10443 2a91 A91F0000 		.4byte	0x1fa9
 10444 2a95 11       		.uleb128 0x11
 10445 2a96 C4000000 		.4byte	0xc4
 10446 2a9a A02A0000 		.4byte	0x2aa0
 10447 2a9e 2B       		.uleb128 0x2b
 10448 2a9f 00       		.byte	0
 10449 2aa0 06       		.uleb128 0x6
 10450 2aa1 952A0000 		.4byte	0x2a95
 10451 2aa5 14       		.uleb128 0x14
 10452 2aa6 E01B0000 		.4byte	.LASF607
 10453 2aaa 27       		.byte	0x27
 10454 2aab 7F       		.byte	0x7f
 10455 2aac A02A0000 		.4byte	0x2aa0
 10456 2ab0 11       		.uleb128 0x11
 10457 2ab1 C80E0000 		.4byte	0xec8
 10458 2ab5 BB2A0000 		.4byte	0x2abb
 10459 2ab9 2B       		.uleb128 0x2b
 10460 2aba 00       		.byte	0
 10461 2abb 06       		.uleb128 0x6
 10462 2abc B02A0000 		.4byte	0x2ab0
 10463 2ac0 14       		.uleb128 0x14
 10464 2ac1 2E160000 		.4byte	.LASF608
 10465 2ac5 27       		.byte	0x27
ARM GAS  /tmp/ccIHdayg.s 			page 186


 10466 2ac6 80       		.byte	0x80
 10467 2ac7 BB2A0000 		.4byte	0x2abb
 10468 2acb 11       		.uleb128 0x11
 10469 2acc A9000000 		.4byte	0xa9
 10470 2ad0 D62A0000 		.4byte	0x2ad6
 10471 2ad4 2B       		.uleb128 0x2b
 10472 2ad5 00       		.byte	0
 10473 2ad6 14       		.uleb128 0x14
 10474 2ad7 AD180000 		.4byte	.LASF609
 10475 2adb 28       		.byte	0x28
 10476 2adc 1A       		.byte	0x1a
 10477 2add CB2A0000 		.4byte	0x2acb
 10478 2ae1 14       		.uleb128 0x14
 10479 2ae2 B40D0000 		.4byte	.LASF610
 10480 2ae6 28       		.byte	0x28
 10481 2ae7 1B       		.byte	0x1b
 10482 2ae8 100D0000 		.4byte	0xd10
 10483 2aec 11       		.uleb128 0x11
 10484 2aed CD0E0000 		.4byte	0xecd
 10485 2af1 F72A0000 		.4byte	0x2af7
 10486 2af5 2B       		.uleb128 0x2b
 10487 2af6 00       		.byte	0
 10488 2af7 05       		.uleb128 0x5
 10489 2af8 EC2A0000 		.4byte	0x2aec
 10490 2afc 14       		.uleb128 0x14
 10491 2afd 28070000 		.4byte	.LASF611
 10492 2b01 29       		.byte	0x29
 10493 2b02 81       		.byte	0x81
 10494 2b03 F72A0000 		.4byte	0x2af7
 10495 2b07 14       		.uleb128 0x14
 10496 2b08 3B070000 		.4byte	.LASF612
 10497 2b0c 29       		.byte	0x29
 10498 2b0d 82       		.byte	0x82
 10499 2b0e F72A0000 		.4byte	0x2af7
 10500 2b12 14       		.uleb128 0x14
 10501 2b13 1A1D0000 		.4byte	.LASF613
 10502 2b17 29       		.byte	0x29
 10503 2b18 83       		.byte	0x83
 10504 2b19 F72A0000 		.4byte	0x2af7
 10505 2b1d 14       		.uleb128 0x14
 10506 2b1e 30000000 		.4byte	.LASF614
 10507 2b22 29       		.byte	0x29
 10508 2b23 84       		.byte	0x84
 10509 2b24 F72A0000 		.4byte	0x2af7
 10510 2b28 04       		.uleb128 0x4
 10511 2b29 C3090000 		.4byte	.LASF615
 10512 2b2d 2A       		.byte	0x2a
 10513 2b2e 22       		.byte	0x22
 10514 2b2f 332B0000 		.4byte	0x2b33
 10515 2b33 0B       		.uleb128 0xb
 10516 2b34 04       		.byte	0x4
 10517 2b35 392B0000 		.4byte	0x2b39
 10518 2b39 2C       		.uleb128 0x2c
 10519 2b3a 9C070000 		.4byte	.LASF721
 10520 2b3e 04       		.uleb128 0x4
 10521 2b3f ED110000 		.4byte	.LASF616
 10522 2b43 2B       		.byte	0x2b
ARM GAS  /tmp/ccIHdayg.s 			page 187


 10523 2b44 2C       		.byte	0x2c
 10524 2b45 70000000 		.4byte	0x70
 10525 2b49 04       		.uleb128 0x4
 10526 2b4a 0D220000 		.4byte	.LASF617
 10527 2b4e 2B       		.byte	0x2b
 10528 2b4f 72       		.byte	0x72
 10529 2b50 70000000 		.4byte	0x70
 10530 2b54 18       		.uleb128 0x18
 10531 2b55 AD130000 		.4byte	.LASF618
 10532 2b59 07       		.byte	0x7
 10533 2b5a 6501     		.2byte	0x165
 10534 2b5c A2000000 		.4byte	0xa2
 10535 2b60 1C       		.uleb128 0x1c
 10536 2b61 04       		.byte	0x4
 10537 2b62 2B       		.byte	0x2b
 10538 2b63 A6       		.byte	0xa6
 10539 2b64 7F2B0000 		.4byte	0x2b7f
 10540 2b68 29       		.uleb128 0x29
 10541 2b69 571B0000 		.4byte	.LASF619
 10542 2b6d 2B       		.byte	0x2b
 10543 2b6e A8       		.byte	0xa8
 10544 2b6f 542B0000 		.4byte	0x2b54
 10545 2b73 29       		.uleb128 0x29
 10546 2b74 61130000 		.4byte	.LASF620
 10547 2b78 2B       		.byte	0x2b
 10548 2b79 A9       		.byte	0xa9
 10549 2b7a 7F2B0000 		.4byte	0x2b7f
 10550 2b7e 00       		.byte	0
 10551 2b7f 11       		.uleb128 0x11
 10552 2b80 45000000 		.4byte	0x45
 10553 2b84 8F2B0000 		.4byte	0x2b8f
 10554 2b88 12       		.uleb128 0x12
 10555 2b89 A2000000 		.4byte	0xa2
 10556 2b8d 03       		.byte	0x3
 10557 2b8e 00       		.byte	0
 10558 2b8f 15       		.uleb128 0x15
 10559 2b90 08       		.byte	0x8
 10560 2b91 2B       		.byte	0x2b
 10561 2b92 A3       		.byte	0xa3
 10562 2b93 B02B0000 		.4byte	0x2bb0
 10563 2b97 08       		.uleb128 0x8
 10564 2b98 3C120000 		.4byte	.LASF621
 10565 2b9c 2B       		.byte	0x2b
 10566 2b9d A5       		.byte	0xa5
 10567 2b9e 2C000000 		.4byte	0x2c
 10568 2ba2 00       		.byte	0
 10569 2ba3 08       		.uleb128 0x8
 10570 2ba4 5D1B0000 		.4byte	.LASF622
 10571 2ba8 2B       		.byte	0x2b
 10572 2ba9 AA       		.byte	0xaa
 10573 2baa 602B0000 		.4byte	0x2b60
 10574 2bae 04       		.byte	0x4
 10575 2baf 00       		.byte	0
 10576 2bb0 04       		.uleb128 0x4
 10577 2bb1 9C220000 		.4byte	.LASF623
 10578 2bb5 2B       		.byte	0x2b
 10579 2bb6 AB       		.byte	0xab
ARM GAS  /tmp/ccIHdayg.s 			page 188


 10580 2bb7 8F2B0000 		.4byte	0x2b8f
 10581 2bbb 04       		.uleb128 0x4
 10582 2bbc 54280000 		.4byte	.LASF624
 10583 2bc0 2B       		.byte	0x2b
 10584 2bc1 AF       		.byte	0xaf
 10585 2bc2 282B0000 		.4byte	0x2b28
 10586 2bc6 0B       		.uleb128 0xb
 10587 2bc7 04       		.byte	0x4
 10588 2bc8 D10B0000 		.4byte	0xbd1
 10589 2bcc 04       		.uleb128 0x4
 10590 2bcd CB170000 		.4byte	.LASF625
 10591 2bd1 2C       		.byte	0x2c
 10592 2bd2 16       		.byte	0x16
 10593 2bd3 82000000 		.4byte	0x82
 10594 2bd7 07       		.uleb128 0x7
 10595 2bd8 9A1F0000 		.4byte	.LASF626
 10596 2bdc 18       		.byte	0x18
 10597 2bdd 2C       		.byte	0x2c
 10598 2bde 2F       		.byte	0x2f
 10599 2bdf 2A2C0000 		.4byte	0x2c2a
 10600 2be3 08       		.uleb128 0x8
 10601 2be4 FD140000 		.4byte	.LASF627
 10602 2be8 2C       		.byte	0x2c
 10603 2be9 31       		.byte	0x31
 10604 2bea 2A2C0000 		.4byte	0x2c2a
 10605 2bee 00       		.byte	0
 10606 2bef 16       		.uleb128 0x16
 10607 2bf0 5F6B00   		.ascii	"_k\000"
 10608 2bf3 2C       		.byte	0x2c
 10609 2bf4 32       		.byte	0x32
 10610 2bf5 2C000000 		.4byte	0x2c
 10611 2bf9 04       		.byte	0x4
 10612 2bfa 08       		.uleb128 0x8
 10613 2bfb 571D0000 		.4byte	.LASF628
 10614 2bff 2C       		.byte	0x2c
 10615 2c00 32       		.byte	0x32
 10616 2c01 2C000000 		.4byte	0x2c
 10617 2c05 08       		.byte	0x8
 10618 2c06 08       		.uleb128 0x8
 10619 2c07 741D0000 		.4byte	.LASF629
 10620 2c0b 2C       		.byte	0x2c
 10621 2c0c 32       		.byte	0x32
 10622 2c0d 2C000000 		.4byte	0x2c
 10623 2c11 0C       		.byte	0xc
 10624 2c12 08       		.uleb128 0x8
 10625 2c13 AC0C0000 		.4byte	.LASF630
 10626 2c17 2C       		.byte	0x2c
 10627 2c18 32       		.byte	0x32
 10628 2c19 2C000000 		.4byte	0x2c
 10629 2c1d 10       		.byte	0x10
 10630 2c1e 16       		.uleb128 0x16
 10631 2c1f 5F7800   		.ascii	"_x\000"
 10632 2c22 2C       		.byte	0x2c
 10633 2c23 33       		.byte	0x33
 10634 2c24 302C0000 		.4byte	0x2c30
 10635 2c28 14       		.byte	0x14
 10636 2c29 00       		.byte	0
ARM GAS  /tmp/ccIHdayg.s 			page 189


 10637 2c2a 0B       		.uleb128 0xb
 10638 2c2b 04       		.byte	0x4
 10639 2c2c D72B0000 		.4byte	0x2bd7
 10640 2c30 11       		.uleb128 0x11
 10641 2c31 CC2B0000 		.4byte	0x2bcc
 10642 2c35 402C0000 		.4byte	0x2c40
 10643 2c39 12       		.uleb128 0x12
 10644 2c3a A2000000 		.4byte	0xa2
 10645 2c3e 00       		.byte	0
 10646 2c3f 00       		.byte	0
 10647 2c40 07       		.uleb128 0x7
 10648 2c41 69200000 		.4byte	.LASF631
 10649 2c45 24       		.byte	0x24
 10650 2c46 2C       		.byte	0x2c
 10651 2c47 37       		.byte	0x37
 10652 2c48 B92C0000 		.4byte	0x2cb9
 10653 2c4c 08       		.uleb128 0x8
 10654 2c4d 78160000 		.4byte	.LASF632
 10655 2c51 2C       		.byte	0x2c
 10656 2c52 39       		.byte	0x39
 10657 2c53 2C000000 		.4byte	0x2c
 10658 2c57 00       		.byte	0
 10659 2c58 08       		.uleb128 0x8
 10660 2c59 440E0000 		.4byte	.LASF633
 10661 2c5d 2C       		.byte	0x2c
 10662 2c5e 3A       		.byte	0x3a
 10663 2c5f 2C000000 		.4byte	0x2c
 10664 2c63 04       		.byte	0x4
 10665 2c64 08       		.uleb128 0x8
 10666 2c65 76130000 		.4byte	.LASF634
 10667 2c69 2C       		.byte	0x2c
 10668 2c6a 3B       		.byte	0x3b
 10669 2c6b 2C000000 		.4byte	0x2c
 10670 2c6f 08       		.byte	0x8
 10671 2c70 08       		.uleb128 0x8
 10672 2c71 52140000 		.4byte	.LASF635
 10673 2c75 2C       		.byte	0x2c
 10674 2c76 3C       		.byte	0x3c
 10675 2c77 2C000000 		.4byte	0x2c
 10676 2c7b 0C       		.byte	0xc
 10677 2c7c 08       		.uleb128 0x8
 10678 2c7d D4020000 		.4byte	.LASF636
 10679 2c81 2C       		.byte	0x2c
 10680 2c82 3D       		.byte	0x3d
 10681 2c83 2C000000 		.4byte	0x2c
 10682 2c87 10       		.byte	0x10
 10683 2c88 08       		.uleb128 0x8
 10684 2c89 B70E0000 		.4byte	.LASF637
 10685 2c8d 2C       		.byte	0x2c
 10686 2c8e 3E       		.byte	0x3e
 10687 2c8f 2C000000 		.4byte	0x2c
 10688 2c93 14       		.byte	0x14
 10689 2c94 08       		.uleb128 0x8
 10690 2c95 490B0000 		.4byte	.LASF638
 10691 2c99 2C       		.byte	0x2c
 10692 2c9a 3F       		.byte	0x3f
 10693 2c9b 2C000000 		.4byte	0x2c
ARM GAS  /tmp/ccIHdayg.s 			page 190


 10694 2c9f 18       		.byte	0x18
 10695 2ca0 08       		.uleb128 0x8
 10696 2ca1 60090000 		.4byte	.LASF639
 10697 2ca5 2C       		.byte	0x2c
 10698 2ca6 40       		.byte	0x40
 10699 2ca7 2C000000 		.4byte	0x2c
 10700 2cab 1C       		.byte	0x1c
 10701 2cac 08       		.uleb128 0x8
 10702 2cad 530B0000 		.4byte	.LASF640
 10703 2cb1 2C       		.byte	0x2c
 10704 2cb2 41       		.byte	0x41
 10705 2cb3 2C000000 		.4byte	0x2c
 10706 2cb7 20       		.byte	0x20
 10707 2cb8 00       		.byte	0
 10708 2cb9 24       		.uleb128 0x24
 10709 2cba 9C160000 		.4byte	.LASF641
 10710 2cbe 0801     		.2byte	0x108
 10711 2cc0 2C       		.byte	0x2c
 10712 2cc1 4A       		.byte	0x4a
 10713 2cc2 F92C0000 		.4byte	0x2cf9
 10714 2cc6 08       		.uleb128 0x8
 10715 2cc7 81140000 		.4byte	.LASF642
 10716 2ccb 2C       		.byte	0x2c
 10717 2ccc 4B       		.byte	0x4b
 10718 2ccd F92C0000 		.4byte	0x2cf9
 10719 2cd1 00       		.byte	0
 10720 2cd2 08       		.uleb128 0x8
 10721 2cd3 AF040000 		.4byte	.LASF643
 10722 2cd7 2C       		.byte	0x2c
 10723 2cd8 4C       		.byte	0x4c
 10724 2cd9 F92C0000 		.4byte	0x2cf9
 10725 2cdd 80       		.byte	0x80
 10726 2cde 25       		.uleb128 0x25
 10727 2cdf DD020000 		.4byte	.LASF644
 10728 2ce3 2C       		.byte	0x2c
 10729 2ce4 4E       		.byte	0x4e
 10730 2ce5 CC2B0000 		.4byte	0x2bcc
 10731 2ce9 0001     		.2byte	0x100
 10732 2ceb 25       		.uleb128 0x25
 10733 2cec 7F230000 		.4byte	.LASF645
 10734 2cf0 2C       		.byte	0x2c
 10735 2cf1 51       		.byte	0x51
 10736 2cf2 CC2B0000 		.4byte	0x2bcc
 10737 2cf6 0401     		.2byte	0x104
 10738 2cf8 00       		.byte	0
 10739 2cf9 11       		.uleb128 0x11
 10740 2cfa 93030000 		.4byte	0x393
 10741 2cfe 092D0000 		.4byte	0x2d09
 10742 2d02 12       		.uleb128 0x12
 10743 2d03 A2000000 		.4byte	0xa2
 10744 2d07 1F       		.byte	0x1f
 10745 2d08 00       		.byte	0
 10746 2d09 24       		.uleb128 0x24
 10747 2d0a 3E020000 		.4byte	.LASF646
 10748 2d0e 9001     		.2byte	0x190
 10749 2d10 2C       		.byte	0x2c
 10750 2d11 5D       		.byte	0x5d
ARM GAS  /tmp/ccIHdayg.s 			page 191


 10751 2d12 472D0000 		.4byte	0x2d47
 10752 2d16 08       		.uleb128 0x8
 10753 2d17 FD140000 		.4byte	.LASF627
 10754 2d1b 2C       		.byte	0x2c
 10755 2d1c 5E       		.byte	0x5e
 10756 2d1d 472D0000 		.4byte	0x2d47
 10757 2d21 00       		.byte	0
 10758 2d22 08       		.uleb128 0x8
 10759 2d23 F9020000 		.4byte	.LASF647
 10760 2d27 2C       		.byte	0x2c
 10761 2d28 5F       		.byte	0x5f
 10762 2d29 2C000000 		.4byte	0x2c
 10763 2d2d 04       		.byte	0x4
 10764 2d2e 08       		.uleb128 0x8
 10765 2d2f 45220000 		.4byte	.LASF648
 10766 2d33 2C       		.byte	0x2c
 10767 2d34 61       		.byte	0x61
 10768 2d35 4D2D0000 		.4byte	0x2d4d
 10769 2d39 08       		.byte	0x8
 10770 2d3a 08       		.uleb128 0x8
 10771 2d3b 9C160000 		.4byte	.LASF641
 10772 2d3f 2C       		.byte	0x2c
 10773 2d40 62       		.byte	0x62
 10774 2d41 B92C0000 		.4byte	0x2cb9
 10775 2d45 88       		.byte	0x88
 10776 2d46 00       		.byte	0
 10777 2d47 0B       		.uleb128 0xb
 10778 2d48 04       		.byte	0x4
 10779 2d49 092D0000 		.4byte	0x2d09
 10780 2d4d 11       		.uleb128 0x11
 10781 2d4e 5D2D0000 		.4byte	0x2d5d
 10782 2d52 5D2D0000 		.4byte	0x2d5d
 10783 2d56 12       		.uleb128 0x12
 10784 2d57 A2000000 		.4byte	0xa2
 10785 2d5b 1F       		.byte	0x1f
 10786 2d5c 00       		.byte	0
 10787 2d5d 0B       		.uleb128 0xb
 10788 2d5e 04       		.byte	0x4
 10789 2d5f 632D0000 		.4byte	0x2d63
 10790 2d63 2D       		.uleb128 0x2d
 10791 2d64 07       		.uleb128 0x7
 10792 2d65 B11A0000 		.4byte	.LASF649
 10793 2d69 08       		.byte	0x8
 10794 2d6a 2C       		.byte	0x2c
 10795 2d6b 75       		.byte	0x75
 10796 2d6c 892D0000 		.4byte	0x2d89
 10797 2d70 08       		.uleb128 0x8
 10798 2d71 E9160000 		.4byte	.LASF650
 10799 2d75 2C       		.byte	0x2c
 10800 2d76 76       		.byte	0x76
 10801 2d77 892D0000 		.4byte	0x2d89
 10802 2d7b 00       		.byte	0
 10803 2d7c 08       		.uleb128 0x8
 10804 2d7d A00D0000 		.4byte	.LASF651
 10805 2d81 2C       		.byte	0x2c
 10806 2d82 77       		.byte	0x77
 10807 2d83 2C000000 		.4byte	0x2c
ARM GAS  /tmp/ccIHdayg.s 			page 192


 10808 2d87 04       		.byte	0x4
 10809 2d88 00       		.byte	0
 10810 2d89 0B       		.uleb128 0xb
 10811 2d8a 04       		.byte	0x4
 10812 2d8b 45000000 		.4byte	0x45
 10813 2d8f 07       		.uleb128 0x7
 10814 2d90 36220000 		.4byte	.LASF652
 10815 2d94 68       		.byte	0x68
 10816 2d95 2C       		.byte	0x2c
 10817 2d96 B5       		.byte	0xb5
 10818 2d97 B92E0000 		.4byte	0x2eb9
 10819 2d9b 16       		.uleb128 0x16
 10820 2d9c 5F7000   		.ascii	"_p\000"
 10821 2d9f 2C       		.byte	0x2c
 10822 2da0 B6       		.byte	0xb6
 10823 2da1 892D0000 		.4byte	0x2d89
 10824 2da5 00       		.byte	0
 10825 2da6 16       		.uleb128 0x16
 10826 2da7 5F7200   		.ascii	"_r\000"
 10827 2daa 2C       		.byte	0x2c
 10828 2dab B7       		.byte	0xb7
 10829 2dac 2C000000 		.4byte	0x2c
 10830 2db0 04       		.byte	0x4
 10831 2db1 16       		.uleb128 0x16
 10832 2db2 5F7700   		.ascii	"_w\000"
 10833 2db5 2C       		.byte	0x2c
 10834 2db6 B8       		.byte	0xb8
 10835 2db7 2C000000 		.4byte	0x2c
 10836 2dbb 08       		.byte	0x8
 10837 2dbc 08       		.uleb128 0x8
 10838 2dbd 5D030000 		.4byte	.LASF653
 10839 2dc1 2C       		.byte	0x2c
 10840 2dc2 B9       		.byte	0xb9
 10841 2dc3 4C000000 		.4byte	0x4c
 10842 2dc7 0C       		.byte	0xc
 10843 2dc8 08       		.uleb128 0x8
 10844 2dc9 15220000 		.4byte	.LASF654
 10845 2dcd 2C       		.byte	0x2c
 10846 2dce BA       		.byte	0xba
 10847 2dcf 4C000000 		.4byte	0x4c
 10848 2dd3 0E       		.byte	0xe
 10849 2dd4 16       		.uleb128 0x16
 10850 2dd5 5F626600 		.ascii	"_bf\000"
 10851 2dd9 2C       		.byte	0x2c
 10852 2dda BB       		.byte	0xbb
 10853 2ddb 642D0000 		.4byte	0x2d64
 10854 2ddf 10       		.byte	0x10
 10855 2de0 08       		.uleb128 0x8
 10856 2de1 36060000 		.4byte	.LASF655
 10857 2de5 2C       		.byte	0x2c
 10858 2de6 BC       		.byte	0xbc
 10859 2de7 2C000000 		.4byte	0x2c
 10860 2deb 18       		.byte	0x18
 10861 2dec 08       		.uleb128 0x8
 10862 2ded 67150000 		.4byte	.LASF656
 10863 2df1 2C       		.byte	0x2c
 10864 2df2 C3       		.byte	0xc3
ARM GAS  /tmp/ccIHdayg.s 			page 193


 10865 2df3 93030000 		.4byte	0x393
 10866 2df7 1C       		.byte	0x1c
 10867 2df8 08       		.uleb128 0x8
 10868 2df9 222C0000 		.4byte	.LASF657
 10869 2dfd 2C       		.byte	0x2c
 10870 2dfe C5       		.byte	0xc5
 10871 2dff 14300000 		.4byte	0x3014
 10872 2e03 20       		.byte	0x20
 10873 2e04 08       		.uleb128 0x8
 10874 2e05 A60D0000 		.4byte	.LASF658
 10875 2e09 2C       		.byte	0x2c
 10876 2e0a C7       		.byte	0xc7
 10877 2e0b 38300000 		.4byte	0x3038
 10878 2e0f 24       		.byte	0x24
 10879 2e10 08       		.uleb128 0x8
 10880 2e11 35190000 		.4byte	.LASF659
 10881 2e15 2C       		.byte	0x2c
 10882 2e16 CA       		.byte	0xca
 10883 2e17 5C300000 		.4byte	0x305c
 10884 2e1b 28       		.byte	0x28
 10885 2e1c 08       		.uleb128 0x8
 10886 2e1d EE1E0000 		.4byte	.LASF660
 10887 2e21 2C       		.byte	0x2c
 10888 2e22 CB       		.byte	0xcb
 10889 2e23 76300000 		.4byte	0x3076
 10890 2e27 2C       		.byte	0x2c
 10891 2e28 16       		.uleb128 0x16
 10892 2e29 5F756200 		.ascii	"_ub\000"
 10893 2e2d 2C       		.byte	0x2c
 10894 2e2e CE       		.byte	0xce
 10895 2e2f 642D0000 		.4byte	0x2d64
 10896 2e33 30       		.byte	0x30
 10897 2e34 16       		.uleb128 0x16
 10898 2e35 5F757000 		.ascii	"_up\000"
 10899 2e39 2C       		.byte	0x2c
 10900 2e3a CF       		.byte	0xcf
 10901 2e3b 892D0000 		.4byte	0x2d89
 10902 2e3f 38       		.byte	0x38
 10903 2e40 16       		.uleb128 0x16
 10904 2e41 5F757200 		.ascii	"_ur\000"
 10905 2e45 2C       		.byte	0x2c
 10906 2e46 D0       		.byte	0xd0
 10907 2e47 2C000000 		.4byte	0x2c
 10908 2e4b 3C       		.byte	0x3c
 10909 2e4c 08       		.uleb128 0x8
 10910 2e4d 26210000 		.4byte	.LASF661
 10911 2e51 2C       		.byte	0x2c
 10912 2e52 D3       		.byte	0xd3
 10913 2e53 F90E0000 		.4byte	0xef9
 10914 2e57 40       		.byte	0x40
 10915 2e58 08       		.uleb128 0x8
 10916 2e59 34040000 		.4byte	.LASF662
 10917 2e5d 2C       		.byte	0x2c
 10918 2e5e D4       		.byte	0xd4
 10919 2e5f 7C300000 		.4byte	0x307c
 10920 2e63 43       		.byte	0x43
 10921 2e64 16       		.uleb128 0x16
ARM GAS  /tmp/ccIHdayg.s 			page 194


 10922 2e65 5F6C6200 		.ascii	"_lb\000"
 10923 2e69 2C       		.byte	0x2c
 10924 2e6a D7       		.byte	0xd7
 10925 2e6b 642D0000 		.4byte	0x2d64
 10926 2e6f 44       		.byte	0x44
 10927 2e70 08       		.uleb128 0x8
 10928 2e71 D20E0000 		.4byte	.LASF663
 10929 2e75 2C       		.byte	0x2c
 10930 2e76 DA       		.byte	0xda
 10931 2e77 2C000000 		.4byte	0x2c
 10932 2e7b 4C       		.byte	0x4c
 10933 2e7c 08       		.uleb128 0x8
 10934 2e7d 751A0000 		.4byte	.LASF664
 10935 2e81 2C       		.byte	0x2c
 10936 2e82 DB       		.byte	0xdb
 10937 2e83 3E2B0000 		.4byte	0x2b3e
 10938 2e87 50       		.byte	0x50
 10939 2e88 08       		.uleb128 0x8
 10940 2e89 EA170000 		.4byte	.LASF665
 10941 2e8d 2C       		.byte	0x2c
 10942 2e8e DE       		.byte	0xde
 10943 2e8f D72E0000 		.4byte	0x2ed7
 10944 2e93 54       		.byte	0x54
 10945 2e94 08       		.uleb128 0x8
 10946 2e95 DD1E0000 		.4byte	.LASF666
 10947 2e99 2C       		.byte	0x2c
 10948 2e9a E2       		.byte	0xe2
 10949 2e9b BB2B0000 		.4byte	0x2bbb
 10950 2e9f 58       		.byte	0x58
 10951 2ea0 08       		.uleb128 0x8
 10952 2ea1 1A020000 		.4byte	.LASF667
 10953 2ea5 2C       		.byte	0x2c
 10954 2ea6 E4       		.byte	0xe4
 10955 2ea7 B02B0000 		.4byte	0x2bb0
 10956 2eab 5C       		.byte	0x5c
 10957 2eac 08       		.uleb128 0x8
 10958 2ead 00290000 		.4byte	.LASF668
 10959 2eb1 2C       		.byte	0x2c
 10960 2eb2 E5       		.byte	0xe5
 10961 2eb3 2C000000 		.4byte	0x2c
 10962 2eb7 64       		.byte	0x64
 10963 2eb8 00       		.byte	0
 10964 2eb9 1F       		.uleb128 0x1f
 10965 2eba 2C000000 		.4byte	0x2c
 10966 2ebe D72E0000 		.4byte	0x2ed7
 10967 2ec2 0E       		.uleb128 0xe
 10968 2ec3 D72E0000 		.4byte	0x2ed7
 10969 2ec7 0E       		.uleb128 0xe
 10970 2ec8 93030000 		.4byte	0x393
 10971 2ecc 0E       		.uleb128 0xe
 10972 2ecd C62B0000 		.4byte	0x2bc6
 10973 2ed1 0E       		.uleb128 0xe
 10974 2ed2 2C000000 		.4byte	0x2c
 10975 2ed6 00       		.byte	0
 10976 2ed7 0B       		.uleb128 0xb
 10977 2ed8 04       		.byte	0x4
 10978 2ed9 E22E0000 		.4byte	0x2ee2
ARM GAS  /tmp/ccIHdayg.s 			page 195


 10979 2edd 05       		.uleb128 0x5
 10980 2ede D72E0000 		.4byte	0x2ed7
 10981 2ee2 10       		.uleb128 0x10
 10982 2ee3 101B0000 		.4byte	.LASF669
 10983 2ee7 2804     		.2byte	0x428
 10984 2ee9 2C       		.byte	0x2c
 10985 2eea 6002     		.2byte	0x260
 10986 2eec 14300000 		.4byte	0x3014
 10987 2ef0 0A       		.uleb128 0xa
 10988 2ef1 37140000 		.4byte	.LASF670
 10989 2ef5 2C       		.byte	0x2c
 10990 2ef6 6202     		.2byte	0x262
 10991 2ef8 2C000000 		.4byte	0x2c
 10992 2efc 00       		.byte	0
 10993 2efd 0A       		.uleb128 0xa
 10994 2efe FB100000 		.4byte	.LASF671
 10995 2f02 2C       		.byte	0x2c
 10996 2f03 6702     		.2byte	0x267
 10997 2f05 D3300000 		.4byte	0x30d3
 10998 2f09 04       		.byte	0x4
 10999 2f0a 0A       		.uleb128 0xa
 11000 2f0b ED0B0000 		.4byte	.LASF672
 11001 2f0f 2C       		.byte	0x2c
 11002 2f10 6702     		.2byte	0x267
 11003 2f12 D3300000 		.4byte	0x30d3
 11004 2f16 08       		.byte	0x8
 11005 2f17 0A       		.uleb128 0xa
 11006 2f18 9D0A0000 		.4byte	.LASF673
 11007 2f1c 2C       		.byte	0x2c
 11008 2f1d 6702     		.2byte	0x267
 11009 2f1f D3300000 		.4byte	0x30d3
 11010 2f23 0C       		.byte	0xc
 11011 2f24 0A       		.uleb128 0xa
 11012 2f25 F4020000 		.4byte	.LASF674
 11013 2f29 2C       		.byte	0x2c
 11014 2f2a 6902     		.2byte	0x269
 11015 2f2c 2C000000 		.4byte	0x2c
 11016 2f30 10       		.byte	0x10
 11017 2f31 0A       		.uleb128 0xa
 11018 2f32 F4120000 		.4byte	.LASF675
 11019 2f36 2C       		.byte	0x2c
 11020 2f37 6A02     		.2byte	0x26a
 11021 2f39 B5320000 		.4byte	0x32b5
 11022 2f3d 14       		.byte	0x14
 11023 2f3e 0A       		.uleb128 0xa
 11024 2f3f C2270000 		.4byte	.LASF676
 11025 2f43 2C       		.byte	0x2c
 11026 2f44 6D02     		.2byte	0x26d
 11027 2f46 2C000000 		.4byte	0x2c
 11028 2f4a 30       		.byte	0x30
 11029 2f4b 0A       		.uleb128 0xa
 11030 2f4c 4C290000 		.4byte	.LASF677
 11031 2f50 2C       		.byte	0x2c
 11032 2f51 6E02     		.2byte	0x26e
 11033 2f53 CA320000 		.4byte	0x32ca
 11034 2f57 34       		.byte	0x34
 11035 2f58 0A       		.uleb128 0xa
ARM GAS  /tmp/ccIHdayg.s 			page 196


 11036 2f59 14280000 		.4byte	.LASF678
 11037 2f5d 2C       		.byte	0x2c
 11038 2f5e 7002     		.2byte	0x270
 11039 2f60 2C000000 		.4byte	0x2c
 11040 2f64 38       		.byte	0x38
 11041 2f65 0A       		.uleb128 0xa
 11042 2f66 B2160000 		.4byte	.LASF679
 11043 2f6a 2C       		.byte	0x2c
 11044 2f6b 7202     		.2byte	0x272
 11045 2f6d DB320000 		.4byte	0x32db
 11046 2f71 3C       		.byte	0x3c
 11047 2f72 0A       		.uleb128 0xa
 11048 2f73 A50A0000 		.4byte	.LASF680
 11049 2f77 2C       		.byte	0x2c
 11050 2f78 7502     		.2byte	0x275
 11051 2f7a 2A2C0000 		.4byte	0x2c2a
 11052 2f7e 40       		.byte	0x40
 11053 2f7f 0A       		.uleb128 0xa
 11054 2f80 8E0A0000 		.4byte	.LASF681
 11055 2f84 2C       		.byte	0x2c
 11056 2f85 7602     		.2byte	0x276
 11057 2f87 2C000000 		.4byte	0x2c
 11058 2f8b 44       		.byte	0x44
 11059 2f8c 0A       		.uleb128 0xa
 11060 2f8d DD230000 		.4byte	.LASF682
 11061 2f91 2C       		.byte	0x2c
 11062 2f92 7702     		.2byte	0x277
 11063 2f94 2A2C0000 		.4byte	0x2c2a
 11064 2f98 48       		.byte	0x48
 11065 2f99 0A       		.uleb128 0xa
 11066 2f9a 1F1A0000 		.4byte	.LASF683
 11067 2f9e 2C       		.byte	0x2c
 11068 2f9f 7802     		.2byte	0x278
 11069 2fa1 E1320000 		.4byte	0x32e1
 11070 2fa5 4C       		.byte	0x4c
 11071 2fa6 0A       		.uleb128 0xa
 11072 2fa7 C6030000 		.4byte	.LASF684
 11073 2fab 2C       		.byte	0x2c
 11074 2fac 7B02     		.2byte	0x27b
 11075 2fae 2C000000 		.4byte	0x2c
 11076 2fb2 50       		.byte	0x50
 11077 2fb3 0A       		.uleb128 0xa
 11078 2fb4 D7120000 		.4byte	.LASF685
 11079 2fb8 2C       		.byte	0x2c
 11080 2fb9 7C02     		.2byte	0x27c
 11081 2fbb C62B0000 		.4byte	0x2bc6
 11082 2fbf 54       		.byte	0x54
 11083 2fc0 0A       		.uleb128 0xa
 11084 2fc1 9F060000 		.4byte	.LASF686
 11085 2fc5 2C       		.byte	0x2c
 11086 2fc6 9F02     		.2byte	0x29f
 11087 2fc8 93320000 		.4byte	0x3293
 11088 2fcc 58       		.byte	0x58
 11089 2fcd 1A       		.uleb128 0x1a
 11090 2fce 3E020000 		.4byte	.LASF646
 11091 2fd2 2C       		.byte	0x2c
 11092 2fd3 A302     		.2byte	0x2a3
ARM GAS  /tmp/ccIHdayg.s 			page 197


 11093 2fd5 472D0000 		.4byte	0x2d47
 11094 2fd9 4801     		.2byte	0x148
 11095 2fdb 1A       		.uleb128 0x1a
 11096 2fdc 0E200000 		.4byte	.LASF687
 11097 2fe0 2C       		.byte	0x2c
 11098 2fe1 A402     		.2byte	0x2a4
 11099 2fe3 092D0000 		.4byte	0x2d09
 11100 2fe7 4C01     		.2byte	0x14c
 11101 2fe9 1A       		.uleb128 0x1a
 11102 2fea 5D1F0000 		.4byte	.LASF688
 11103 2fee 2C       		.byte	0x2c
 11104 2fef A802     		.2byte	0x2a8
 11105 2ff1 F2320000 		.4byte	0x32f2
 11106 2ff5 DC02     		.2byte	0x2dc
 11107 2ff7 1A       		.uleb128 0x1a
 11108 2ff8 40210000 		.4byte	.LASF689
 11109 2ffc 2C       		.byte	0x2c
 11110 2ffd AD02     		.2byte	0x2ad
 11111 2fff 98300000 		.4byte	0x3098
 11112 3003 E002     		.2byte	0x2e0
 11113 3005 1A       		.uleb128 0x1a
 11114 3006 08080000 		.4byte	.LASF690
 11115 300a 2C       		.byte	0x2c
 11116 300b AF02     		.2byte	0x2af
 11117 300d FE320000 		.4byte	0x32fe
 11118 3011 EC02     		.2byte	0x2ec
 11119 3013 00       		.byte	0
 11120 3014 0B       		.uleb128 0xb
 11121 3015 04       		.byte	0x4
 11122 3016 B92E0000 		.4byte	0x2eb9
 11123 301a 1F       		.uleb128 0x1f
 11124 301b 2C000000 		.4byte	0x2c
 11125 301f 38300000 		.4byte	0x3038
 11126 3023 0E       		.uleb128 0xe
 11127 3024 D72E0000 		.4byte	0x2ed7
 11128 3028 0E       		.uleb128 0xe
 11129 3029 93030000 		.4byte	0x393
 11130 302d 0E       		.uleb128 0xe
 11131 302e C60B0000 		.4byte	0xbc6
 11132 3032 0E       		.uleb128 0xe
 11133 3033 2C000000 		.4byte	0x2c
 11134 3037 00       		.byte	0
 11135 3038 0B       		.uleb128 0xb
 11136 3039 04       		.byte	0x4
 11137 303a 1A300000 		.4byte	0x301a
 11138 303e 1F       		.uleb128 0x1f
 11139 303f 492B0000 		.4byte	0x2b49
 11140 3043 5C300000 		.4byte	0x305c
 11141 3047 0E       		.uleb128 0xe
 11142 3048 D72E0000 		.4byte	0x2ed7
 11143 304c 0E       		.uleb128 0xe
 11144 304d 93030000 		.4byte	0x393
 11145 3051 0E       		.uleb128 0xe
 11146 3052 492B0000 		.4byte	0x2b49
 11147 3056 0E       		.uleb128 0xe
 11148 3057 2C000000 		.4byte	0x2c
 11149 305b 00       		.byte	0
ARM GAS  /tmp/ccIHdayg.s 			page 198


 11150 305c 0B       		.uleb128 0xb
 11151 305d 04       		.byte	0x4
 11152 305e 3E300000 		.4byte	0x303e
 11153 3062 1F       		.uleb128 0x1f
 11154 3063 2C000000 		.4byte	0x2c
 11155 3067 76300000 		.4byte	0x3076
 11156 306b 0E       		.uleb128 0xe
 11157 306c D72E0000 		.4byte	0x2ed7
 11158 3070 0E       		.uleb128 0xe
 11159 3071 93030000 		.4byte	0x393
 11160 3075 00       		.byte	0
 11161 3076 0B       		.uleb128 0xb
 11162 3077 04       		.byte	0x4
 11163 3078 62300000 		.4byte	0x3062
 11164 307c 11       		.uleb128 0x11
 11165 307d 45000000 		.4byte	0x45
 11166 3081 8C300000 		.4byte	0x308c
 11167 3085 12       		.uleb128 0x12
 11168 3086 A2000000 		.4byte	0xa2
 11169 308a 00       		.byte	0
 11170 308b 00       		.byte	0
 11171 308c 18       		.uleb128 0x18
 11172 308d B02A0000 		.4byte	.LASF691
 11173 3091 2C       		.byte	0x2c
 11174 3092 1F01     		.2byte	0x11f
 11175 3094 8F2D0000 		.4byte	0x2d8f
 11176 3098 0C       		.uleb128 0xc
 11177 3099 131F0000 		.4byte	.LASF692
 11178 309d 0C       		.byte	0xc
 11179 309e 2C       		.byte	0x2c
 11180 309f 2301     		.2byte	0x123
 11181 30a1 CD300000 		.4byte	0x30cd
 11182 30a5 0A       		.uleb128 0xa
 11183 30a6 FD140000 		.4byte	.LASF627
 11184 30aa 2C       		.byte	0x2c
 11185 30ab 2501     		.2byte	0x125
 11186 30ad CD300000 		.4byte	0x30cd
 11187 30b1 00       		.byte	0
 11188 30b2 0A       		.uleb128 0xa
 11189 30b3 F8130000 		.4byte	.LASF693
 11190 30b7 2C       		.byte	0x2c
 11191 30b8 2601     		.2byte	0x126
 11192 30ba 2C000000 		.4byte	0x2c
 11193 30be 04       		.byte	0x4
 11194 30bf 0A       		.uleb128 0xa
 11195 30c0 A01C0000 		.4byte	.LASF694
 11196 30c4 2C       		.byte	0x2c
 11197 30c5 2701     		.2byte	0x127
 11198 30c7 D3300000 		.4byte	0x30d3
 11199 30cb 08       		.byte	0x8
 11200 30cc 00       		.byte	0
 11201 30cd 0B       		.uleb128 0xb
 11202 30ce 04       		.byte	0x4
 11203 30cf 98300000 		.4byte	0x3098
 11204 30d3 0B       		.uleb128 0xb
 11205 30d4 04       		.byte	0x4
 11206 30d5 8C300000 		.4byte	0x308c
ARM GAS  /tmp/ccIHdayg.s 			page 199


 11207 30d9 0C       		.uleb128 0xc
 11208 30da 652C0000 		.4byte	.LASF695
 11209 30de 0E       		.byte	0xe
 11210 30df 2C       		.byte	0x2c
 11211 30e0 3F01     		.2byte	0x13f
 11212 30e2 0E310000 		.4byte	0x310e
 11213 30e6 0A       		.uleb128 0xa
 11214 30e7 F8180000 		.4byte	.LASF696
 11215 30eb 2C       		.byte	0x2c
 11216 30ec 4001     		.2byte	0x140
 11217 30ee 0E310000 		.4byte	0x310e
 11218 30f2 00       		.byte	0
 11219 30f3 0A       		.uleb128 0xa
 11220 30f4 AC1D0000 		.4byte	.LASF697
 11221 30f8 2C       		.byte	0x2c
 11222 30f9 4101     		.2byte	0x141
 11223 30fb 0E310000 		.4byte	0x310e
 11224 30ff 06       		.byte	0x6
 11225 3100 0A       		.uleb128 0xa
 11226 3101 FC1A0000 		.4byte	.LASF698
 11227 3105 2C       		.byte	0x2c
 11228 3106 4201     		.2byte	0x142
 11229 3108 5E000000 		.4byte	0x5e
 11230 310c 0C       		.byte	0xc
 11231 310d 00       		.byte	0
 11232 310e 11       		.uleb128 0x11
 11233 310f 5E000000 		.4byte	0x5e
 11234 3113 1E310000 		.4byte	0x311e
 11235 3117 12       		.uleb128 0x12
 11236 3118 A2000000 		.4byte	0xa2
 11237 311c 02       		.byte	0x2
 11238 311d 00       		.byte	0
 11239 311e 17       		.uleb128 0x17
 11240 311f D0       		.byte	0xd0
 11241 3120 2C       		.byte	0x2c
 11242 3121 8002     		.2byte	0x280
 11243 3123 1F320000 		.4byte	0x321f
 11244 3127 0A       		.uleb128 0xa
 11245 3128 100A0000 		.4byte	.LASF699
 11246 312c 2C       		.byte	0x2c
 11247 312d 8202     		.2byte	0x282
 11248 312f A2000000 		.4byte	0xa2
 11249 3133 00       		.byte	0
 11250 3134 0A       		.uleb128 0xa
 11251 3135 6E180000 		.4byte	.LASF700
 11252 3139 2C       		.byte	0x2c
 11253 313a 8302     		.2byte	0x283
 11254 313c C62B0000 		.4byte	0x2bc6
 11255 3140 04       		.byte	0x4
 11256 3141 0A       		.uleb128 0xa
 11257 3142 2D1B0000 		.4byte	.LASF701
 11258 3146 2C       		.byte	0x2c
 11259 3147 8402     		.2byte	0x284
 11260 3149 1F320000 		.4byte	0x321f
 11261 314d 08       		.byte	0x8
 11262 314e 0A       		.uleb128 0xa
 11263 314f 24120000 		.4byte	.LASF702
ARM GAS  /tmp/ccIHdayg.s 			page 200


 11264 3153 2C       		.byte	0x2c
 11265 3154 8502     		.2byte	0x285
 11266 3156 402C0000 		.4byte	0x2c40
 11267 315a 24       		.byte	0x24
 11268 315b 0A       		.uleb128 0xa
 11269 315c 52260000 		.4byte	.LASF703
 11270 3160 2C       		.byte	0x2c
 11271 3161 8602     		.2byte	0x286
 11272 3163 2C000000 		.4byte	0x2c
 11273 3167 48       		.byte	0x48
 11274 3168 0A       		.uleb128 0xa
 11275 3169 D31C0000 		.4byte	.LASF704
 11276 316d 2C       		.byte	0x2c
 11277 316e 8702     		.2byte	0x287
 11278 3170 9B000000 		.4byte	0x9b
 11279 3174 50       		.byte	0x50
 11280 3175 0A       		.uleb128 0xa
 11281 3176 7B2B0000 		.4byte	.LASF705
 11282 317a 2C       		.byte	0x2c
 11283 317b 8802     		.2byte	0x288
 11284 317d D9300000 		.4byte	0x30d9
 11285 3181 58       		.byte	0x58
 11286 3182 0A       		.uleb128 0xa
 11287 3183 33210000 		.4byte	.LASF706
 11288 3187 2C       		.byte	0x2c
 11289 3188 8902     		.2byte	0x289
 11290 318a B02B0000 		.4byte	0x2bb0
 11291 318e 68       		.byte	0x68
 11292 318f 0A       		.uleb128 0xa
 11293 3190 38080000 		.4byte	.LASF707
 11294 3194 2C       		.byte	0x2c
 11295 3195 8A02     		.2byte	0x28a
 11296 3197 B02B0000 		.4byte	0x2bb0
 11297 319b 70       		.byte	0x70
 11298 319c 0A       		.uleb128 0xa
 11299 319d 1D050000 		.4byte	.LASF708
 11300 31a1 2C       		.byte	0x2c
 11301 31a2 8B02     		.2byte	0x28b
 11302 31a4 B02B0000 		.4byte	0x2bb0
 11303 31a8 78       		.byte	0x78
 11304 31a9 0A       		.uleb128 0xa
 11305 31aa 231B0000 		.4byte	.LASF709
 11306 31ae 2C       		.byte	0x2c
 11307 31af 8C02     		.2byte	0x28c
 11308 31b1 2F320000 		.4byte	0x322f
 11309 31b5 80       		.byte	0x80
 11310 31b6 0A       		.uleb128 0xa
 11311 31b7 46150000 		.4byte	.LASF710
 11312 31bb 2C       		.byte	0x2c
 11313 31bc 8D02     		.2byte	0x28d
 11314 31be 3F320000 		.4byte	0x323f
 11315 31c2 88       		.byte	0x88
 11316 31c3 0A       		.uleb128 0xa
 11317 31c4 52200000 		.4byte	.LASF711
 11318 31c8 2C       		.byte	0x2c
 11319 31c9 8E02     		.2byte	0x28e
 11320 31cb 2C000000 		.4byte	0x2c
ARM GAS  /tmp/ccIHdayg.s 			page 201


 11321 31cf A0       		.byte	0xa0
 11322 31d0 0A       		.uleb128 0xa
 11323 31d1 6E100000 		.4byte	.LASF712
 11324 31d5 2C       		.byte	0x2c
 11325 31d6 8F02     		.2byte	0x28f
 11326 31d8 B02B0000 		.4byte	0x2bb0
 11327 31dc A4       		.byte	0xa4
 11328 31dd 0A       		.uleb128 0xa
 11329 31de 43000000 		.4byte	.LASF713
 11330 31e2 2C       		.byte	0x2c
 11331 31e3 9002     		.2byte	0x290
 11332 31e5 B02B0000 		.4byte	0x2bb0
 11333 31e9 AC       		.byte	0xac
 11334 31ea 0A       		.uleb128 0xa
 11335 31eb 8D0C0000 		.4byte	.LASF714
 11336 31ef 2C       		.byte	0x2c
 11337 31f0 9102     		.2byte	0x291
 11338 31f2 B02B0000 		.4byte	0x2bb0
 11339 31f6 B4       		.byte	0xb4
 11340 31f7 0A       		.uleb128 0xa
 11341 31f8 2E170000 		.4byte	.LASF715
 11342 31fc 2C       		.byte	0x2c
 11343 31fd 9202     		.2byte	0x292
 11344 31ff B02B0000 		.4byte	0x2bb0
 11345 3203 BC       		.byte	0xbc
 11346 3204 0A       		.uleb128 0xa
 11347 3205 721B0000 		.4byte	.LASF716
 11348 3209 2C       		.byte	0x2c
 11349 320a 9302     		.2byte	0x293
 11350 320c B02B0000 		.4byte	0x2bb0
 11351 3210 C4       		.byte	0xc4
 11352 3211 0A       		.uleb128 0xa
 11353 3212 A7220000 		.4byte	.LASF717
 11354 3216 2C       		.byte	0x2c
 11355 3217 9402     		.2byte	0x294
 11356 3219 2C000000 		.4byte	0x2c
 11357 321d CC       		.byte	0xcc
 11358 321e 00       		.byte	0
 11359 321f 11       		.uleb128 0x11
 11360 3220 D10B0000 		.4byte	0xbd1
 11361 3224 2F320000 		.4byte	0x322f
 11362 3228 12       		.uleb128 0x12
 11363 3229 A2000000 		.4byte	0xa2
 11364 322d 19       		.byte	0x19
 11365 322e 00       		.byte	0
 11366 322f 11       		.uleb128 0x11
 11367 3230 D10B0000 		.4byte	0xbd1
 11368 3234 3F320000 		.4byte	0x323f
 11369 3238 12       		.uleb128 0x12
 11370 3239 A2000000 		.4byte	0xa2
 11371 323d 07       		.byte	0x7
 11372 323e 00       		.byte	0
 11373 323f 11       		.uleb128 0x11
 11374 3240 D10B0000 		.4byte	0xbd1
 11375 3244 4F320000 		.4byte	0x324f
 11376 3248 12       		.uleb128 0x12
 11377 3249 A2000000 		.4byte	0xa2
ARM GAS  /tmp/ccIHdayg.s 			page 202


 11378 324d 17       		.byte	0x17
 11379 324e 00       		.byte	0
 11380 324f 17       		.uleb128 0x17
 11381 3250 F0       		.byte	0xf0
 11382 3251 2C       		.byte	0x2c
 11383 3252 9902     		.2byte	0x299
 11384 3254 73320000 		.4byte	0x3273
 11385 3258 0A       		.uleb128 0xa
 11386 3259 08290000 		.4byte	.LASF718
 11387 325d 2C       		.byte	0x2c
 11388 325e 9C02     		.2byte	0x29c
 11389 3260 73320000 		.4byte	0x3273
 11390 3264 00       		.byte	0
 11391 3265 0A       		.uleb128 0xa
 11392 3266 02110000 		.4byte	.LASF719
 11393 326a 2C       		.byte	0x2c
 11394 326b 9D02     		.2byte	0x29d
 11395 326d 83320000 		.4byte	0x3283
 11396 3271 78       		.byte	0x78
 11397 3272 00       		.byte	0
 11398 3273 11       		.uleb128 0x11
 11399 3274 892D0000 		.4byte	0x2d89
 11400 3278 83320000 		.4byte	0x3283
 11401 327c 12       		.uleb128 0x12
 11402 327d A2000000 		.4byte	0xa2
 11403 3281 1D       		.byte	0x1d
 11404 3282 00       		.byte	0
 11405 3283 11       		.uleb128 0x11
 11406 3284 A2000000 		.4byte	0xa2
 11407 3288 93320000 		.4byte	0x3293
 11408 328c 12       		.uleb128 0x12
 11409 328d A2000000 		.4byte	0xa2
 11410 3291 1D       		.byte	0x1d
 11411 3292 00       		.byte	0
 11412 3293 2A       		.uleb128 0x2a
 11413 3294 F0       		.byte	0xf0
 11414 3295 2C       		.byte	0x2c
 11415 3296 7E02     		.2byte	0x27e
 11416 3298 B5320000 		.4byte	0x32b5
 11417 329c 1D       		.uleb128 0x1d
 11418 329d 101B0000 		.4byte	.LASF669
 11419 32a1 2C       		.byte	0x2c
 11420 32a2 9502     		.2byte	0x295
 11421 32a4 1E310000 		.4byte	0x311e
 11422 32a8 1D       		.uleb128 0x1d
 11423 32a9 43040000 		.4byte	.LASF720
 11424 32ad 2C       		.byte	0x2c
 11425 32ae 9E02     		.2byte	0x29e
 11426 32b0 4F320000 		.4byte	0x324f
 11427 32b4 00       		.byte	0
 11428 32b5 11       		.uleb128 0x11
 11429 32b6 D10B0000 		.4byte	0xbd1
 11430 32ba C5320000 		.4byte	0x32c5
 11431 32be 12       		.uleb128 0x12
 11432 32bf A2000000 		.4byte	0xa2
 11433 32c3 18       		.byte	0x18
 11434 32c4 00       		.byte	0
ARM GAS  /tmp/ccIHdayg.s 			page 203


 11435 32c5 2C       		.uleb128 0x2c
 11436 32c6 48210000 		.4byte	.LASF722
 11437 32ca 0B       		.uleb128 0xb
 11438 32cb 04       		.byte	0x4
 11439 32cc C5320000 		.4byte	0x32c5
 11440 32d0 0D       		.uleb128 0xd
 11441 32d1 DB320000 		.4byte	0x32db
 11442 32d5 0E       		.uleb128 0xe
 11443 32d6 D72E0000 		.4byte	0x2ed7
 11444 32da 00       		.byte	0
 11445 32db 0B       		.uleb128 0xb
 11446 32dc 04       		.byte	0x4
 11447 32dd D0320000 		.4byte	0x32d0
 11448 32e1 0B       		.uleb128 0xb
 11449 32e2 04       		.byte	0x4
 11450 32e3 2A2C0000 		.4byte	0x2c2a
 11451 32e7 0D       		.uleb128 0xd
 11452 32e8 F2320000 		.4byte	0x32f2
 11453 32ec 0E       		.uleb128 0xe
 11454 32ed 2C000000 		.4byte	0x2c
 11455 32f1 00       		.byte	0
 11456 32f2 0B       		.uleb128 0xb
 11457 32f3 04       		.byte	0x4
 11458 32f4 F8320000 		.4byte	0x32f8
 11459 32f8 0B       		.uleb128 0xb
 11460 32f9 04       		.byte	0x4
 11461 32fa E7320000 		.4byte	0x32e7
 11462 32fe 11       		.uleb128 0x11
 11463 32ff 8C300000 		.4byte	0x308c
 11464 3303 0E330000 		.4byte	0x330e
 11465 3307 12       		.uleb128 0x12
 11466 3308 A2000000 		.4byte	0xa2
 11467 330c 02       		.byte	0x2
 11468 330d 00       		.byte	0
 11469 330e 13       		.uleb128 0x13
 11470 330f DF200000 		.4byte	.LASF723
 11471 3313 2C       		.byte	0x2c
 11472 3314 2E03     		.2byte	0x32e
 11473 3316 D72E0000 		.4byte	0x2ed7
 11474 331a 13       		.uleb128 0x13
 11475 331b 87240000 		.4byte	.LASF724
 11476 331f 2C       		.byte	0x2c
 11477 3320 2F03     		.2byte	0x32f
 11478 3322 DD2E0000 		.4byte	0x2edd
 11479 3326 2E       		.uleb128 0x2e
 11480 3327 CF1B0000 		.4byte	.LASF926
 11481 332b 05       		.byte	0x5
 11482 332c 01       		.byte	0x1
 11483 332d 33000000 		.4byte	0x33
 11484 3331 2D       		.byte	0x2d
 11485 3332 8202     		.2byte	0x282
 11486 3334 51330000 		.4byte	0x3351
 11487 3338 2F       		.uleb128 0x2f
 11488 3339 D1190000 		.4byte	.LASF725
 11489 333d 7F       		.sleb128 -1
 11490 333e 21       		.uleb128 0x21
 11491 333f DF030000 		.4byte	.LASF726
ARM GAS  /tmp/ccIHdayg.s 			page 204


 11492 3343 00       		.byte	0
 11493 3344 21       		.uleb128 0x21
 11494 3345 C8220000 		.4byte	.LASF727
 11495 3349 01       		.byte	0x1
 11496 334a 21       		.uleb128 0x21
 11497 334b 2C280000 		.4byte	.LASF728
 11498 334f 02       		.byte	0x2
 11499 3350 00       		.byte	0
 11500 3351 13       		.uleb128 0x13
 11501 3352 4C2B0000 		.4byte	.LASF729
 11502 3356 2D       		.byte	0x2d
 11503 3357 8D02     		.2byte	0x28d
 11504 3359 26330000 		.4byte	0x3326
 11505 335d 23       		.uleb128 0x23
 11506 335e 07       		.byte	0x7
 11507 335f 01       		.byte	0x1
 11508 3360 45000000 		.4byte	0x45
 11509 3364 01       		.byte	0x1
 11510 3365 2B       		.byte	0x2b
 11511 3366 AD330000 		.4byte	0x33ad
 11512 336a 21       		.uleb128 0x21
 11513 336b C0180000 		.4byte	.LASF730
 11514 336f 00       		.byte	0
 11515 3370 21       		.uleb128 0x21
 11516 3371 66220000 		.4byte	.LASF731
 11517 3375 01       		.byte	0x1
 11518 3376 21       		.uleb128 0x21
 11519 3377 FA200000 		.4byte	.LASF732
 11520 337b 02       		.byte	0x2
 11521 337c 21       		.uleb128 0x21
 11522 337d D71D0000 		.4byte	.LASF733
 11523 3381 03       		.byte	0x3
 11524 3382 21       		.uleb128 0x21
 11525 3383 C4250000 		.4byte	.LASF734
 11526 3387 04       		.byte	0x4
 11527 3388 21       		.uleb128 0x21
 11528 3389 3F130000 		.4byte	.LASF735
 11529 338d 06       		.byte	0x6
 11530 338e 21       		.uleb128 0x21
 11531 338f 5A0D0000 		.4byte	.LASF736
 11532 3393 07       		.byte	0x7
 11533 3394 21       		.uleb128 0x21
 11534 3395 12060000 		.4byte	.LASF737
 11535 3399 08       		.byte	0x8
 11536 339a 21       		.uleb128 0x21
 11537 339b 9D040000 		.4byte	.LASF738
 11538 339f 09       		.byte	0x9
 11539 33a0 21       		.uleb128 0x21
 11540 33a1 F10C0000 		.4byte	.LASF739
 11541 33a5 0A       		.byte	0xa
 11542 33a6 21       		.uleb128 0x21
 11543 33a7 9E0C0000 		.4byte	.LASF740
 11544 33ab 0B       		.byte	0xb
 11545 33ac 00       		.byte	0
 11546 33ad 04       		.uleb128 0x4
 11547 33ae 08240000 		.4byte	.LASF741
 11548 33b2 01       		.byte	0x1
ARM GAS  /tmp/ccIHdayg.s 			page 205


 11549 33b3 37       		.byte	0x37
 11550 33b4 5D330000 		.4byte	0x335d
 11551 33b8 23       		.uleb128 0x23
 11552 33b9 07       		.byte	0x7
 11553 33ba 01       		.byte	0x1
 11554 33bb 45000000 		.4byte	0x45
 11555 33bf 01       		.byte	0x1
 11556 33c0 39       		.byte	0x39
 11557 33c1 E4330000 		.4byte	0x33e4
 11558 33c5 21       		.uleb128 0x21
 11559 33c6 3F0B0000 		.4byte	.LASF742
 11560 33ca 00       		.byte	0
 11561 33cb 21       		.uleb128 0x21
 11562 33cc 251C0000 		.4byte	.LASF743
 11563 33d0 01       		.byte	0x1
 11564 33d1 21       		.uleb128 0x21
 11565 33d2 A1180000 		.4byte	.LASF744
 11566 33d6 02       		.byte	0x2
 11567 33d7 21       		.uleb128 0x21
 11568 33d8 171B0000 		.4byte	.LASF745
 11569 33dc 03       		.byte	0x3
 11570 33dd 21       		.uleb128 0x21
 11571 33de 98210000 		.4byte	.LASF746
 11572 33e2 04       		.byte	0x4
 11573 33e3 00       		.byte	0
 11574 33e4 04       		.uleb128 0x4
 11575 33e5 CB140000 		.4byte	.LASF747
 11576 33e9 01       		.byte	0x1
 11577 33ea 3F       		.byte	0x3f
 11578 33eb B8330000 		.4byte	0x33b8
 11579 33ef 23       		.uleb128 0x23
 11580 33f0 07       		.byte	0x7
 11581 33f1 01       		.byte	0x1
 11582 33f2 45000000 		.4byte	0x45
 11583 33f6 01       		.byte	0x1
 11584 33f7 41       		.byte	0x41
 11585 33f8 0E340000 		.4byte	0x340e
 11586 33fc 30       		.uleb128 0x30
 11587 33fd 4F464600 		.ascii	"OFF\000"
 11588 3401 00       		.byte	0
 11589 3402 21       		.uleb128 0x21
 11590 3403 311A0000 		.4byte	.LASF748
 11591 3407 01       		.byte	0x1
 11592 3408 30       		.uleb128 0x30
 11593 3409 4F4E00   		.ascii	"ON\000"
 11594 340c 02       		.byte	0x2
 11595 340d 00       		.byte	0
 11596 340e 04       		.uleb128 0x4
 11597 340f D8150000 		.4byte	.LASF749
 11598 3413 01       		.byte	0x1
 11599 3414 45       		.byte	0x45
 11600 3415 EF330000 		.4byte	0x33ef
 11601 3419 15       		.uleb128 0x15
 11602 341a 1C       		.byte	0x1c
 11603 341b 01       		.byte	0x1
 11604 341c 47       		.byte	0x47
 11605 341d 6F340000 		.4byte	0x346f
ARM GAS  /tmp/ccIHdayg.s 			page 206


 11606 3421 16       		.uleb128 0x16
 11607 3422 613000   		.ascii	"a0\000"
 11608 3425 01       		.byte	0x1
 11609 3426 48       		.byte	0x48
 11610 3427 25000000 		.4byte	0x25
 11611 342b 00       		.byte	0
 11612 342c 16       		.uleb128 0x16
 11613 342d 613100   		.ascii	"a1\000"
 11614 3430 01       		.byte	0x1
 11615 3431 48       		.byte	0x48
 11616 3432 25000000 		.4byte	0x25
 11617 3436 04       		.byte	0x4
 11618 3437 16       		.uleb128 0x16
 11619 3438 613200   		.ascii	"a2\000"
 11620 343b 01       		.byte	0x1
 11621 343c 48       		.byte	0x48
 11622 343d 25000000 		.4byte	0x25
 11623 3441 08       		.byte	0x8
 11624 3442 16       		.uleb128 0x16
 11625 3443 623100   		.ascii	"b1\000"
 11626 3446 01       		.byte	0x1
 11627 3447 48       		.byte	0x48
 11628 3448 25000000 		.4byte	0x25
 11629 344c 0C       		.byte	0xc
 11630 344d 16       		.uleb128 0x16
 11631 344e 623200   		.ascii	"b2\000"
 11632 3451 01       		.byte	0x1
 11633 3452 48       		.byte	0x48
 11634 3453 25000000 		.4byte	0x25
 11635 3457 10       		.byte	0x10
 11636 3458 16       		.uleb128 0x16
 11637 3459 7A3100   		.ascii	"z1\000"
 11638 345c 01       		.byte	0x1
 11639 345d 49       		.byte	0x49
 11640 345e 25000000 		.4byte	0x25
 11641 3462 14       		.byte	0x14
 11642 3463 16       		.uleb128 0x16
 11643 3464 7A3200   		.ascii	"z2\000"
 11644 3467 01       		.byte	0x1
 11645 3468 49       		.byte	0x49
 11646 3469 25000000 		.4byte	0x25
 11647 346d 18       		.byte	0x18
 11648 346e 00       		.byte	0
 11649 346f 04       		.uleb128 0x4
 11650 3470 D8200000 		.4byte	.LASF750
 11651 3474 01       		.byte	0x1
 11652 3475 4A       		.byte	0x4a
 11653 3476 19340000 		.4byte	0x3419
 11654 347a 23       		.uleb128 0x23
 11655 347b 07       		.byte	0x7
 11656 347c 01       		.byte	0x1
 11657 347d 45000000 		.4byte	0x45
 11658 3481 01       		.byte	0x1
 11659 3482 4C       		.byte	0x4c
 11660 3483 94340000 		.4byte	0x3494
 11661 3487 21       		.uleb128 0x21
 11662 3488 EB090000 		.4byte	.LASF751
ARM GAS  /tmp/ccIHdayg.s 			page 207


 11663 348c 00       		.byte	0
 11664 348d 21       		.uleb128 0x21
 11665 348e 780D0000 		.4byte	.LASF752
 11666 3492 01       		.byte	0x1
 11667 3493 00       		.byte	0
 11668 3494 04       		.uleb128 0x4
 11669 3495 0F270000 		.4byte	.LASF753
 11670 3499 01       		.byte	0x1
 11671 349a 4F       		.byte	0x4f
 11672 349b 7A340000 		.4byte	0x347a
 11673 349f 11       		.uleb128 0x11
 11674 34a0 76090000 		.4byte	0x976
 11675 34a4 AF340000 		.4byte	0x34af
 11676 34a8 12       		.uleb128 0x12
 11677 34a9 A2000000 		.4byte	0xa2
 11678 34ad B3       		.byte	0xb3
 11679 34ae 00       		.byte	0
 11680 34af 31       		.uleb128 0x31
 11681 34b0 A50E0000 		.4byte	.LASF754
 11682 34b4 01       		.byte	0x1
 11683 34b5 53       		.byte	0x53
 11684 34b6 9F340000 		.4byte	0x349f
 11685 34ba 05       		.uleb128 0x5
 11686 34bb 03       		.byte	0x3
 11687 34bc 00000000 		.4byte	balance_thread_wa
 11688 34c0 31       		.uleb128 0x31
 11689 34c1 73280000 		.4byte	.LASF755
 11690 34c5 01       		.byte	0x1
 11691 34c6 55       		.byte	0x55
 11692 34c7 B6020000 		.4byte	0x2b6
 11693 34cb 05       		.uleb128 0x5
 11694 34cc 03       		.byte	0x3
 11695 34cd 00000000 		.4byte	app_thread
 11696 34d1 31       		.uleb128 0x31
 11697 34d2 87230000 		.4byte	.LASF756
 11698 34d6 01       		.byte	0x1
 11699 34d7 58       		.byte	0x58
 11700 34d8 5C120000 		.4byte	0x125c
 11701 34dc 05       		.uleb128 0x5
 11702 34dd 03       		.byte	0x3
 11703 34de 00000000 		.4byte	balance_conf
 11704 34e2 31       		.uleb128 0x31
 11705 34e3 5C250000 		.4byte	.LASF757
 11706 34e7 01       		.byte	0x1
 11707 34e8 59       		.byte	0x59
 11708 34e9 7F130000 		.4byte	0x137f
 11709 34ed 05       		.uleb128 0x5
 11710 34ee 03       		.byte	0x3
 11711 34ef 00000000 		.4byte	imu_conf
 11712 34f3 31       		.uleb128 0x31
 11713 34f4 D6100000 		.4byte	.LASF758
 11714 34f8 01       		.byte	0x1
 11715 34f9 5A       		.byte	0x5a
 11716 34fa 72010000 		.4byte	0x172
 11717 34fe 05       		.uleb128 0x5
 11718 34ff 03       		.byte	0x3
 11719 3500 00000000 		.4byte	loop_time
ARM GAS  /tmp/ccIHdayg.s 			page 208


 11720 3504 31       		.uleb128 0x31
 11721 3505 A9150000 		.4byte	.LASF759
 11722 3509 01       		.byte	0x1
 11723 350a 5B       		.byte	0x5b
 11724 350b 25000000 		.4byte	0x25
 11725 350f 05       		.uleb128 0x5
 11726 3510 03       		.byte	0x3
 11727 3511 00000000 		.4byte	startup_step_size
 11728 3515 31       		.uleb128 0x31
 11729 3516 FF130000 		.4byte	.LASF760
 11730 351a 01       		.byte	0x1
 11731 351b 5C       		.byte	0x5c
 11732 351c 25000000 		.4byte	0x25
 11733 3520 05       		.uleb128 0x5
 11734 3521 03       		.byte	0x3
 11735 3522 00000000 		.4byte	tiltback_duty_step_size
 11736 3526 31       		.uleb128 0x31
 11737 3527 86020000 		.4byte	.LASF761
 11738 352b 01       		.byte	0x1
 11739 352c 5C       		.byte	0x5c
 11740 352d 25000000 		.4byte	0x25
 11741 3531 05       		.uleb128 0x5
 11742 3532 03       		.byte	0x3
 11743 3533 00000000 		.4byte	tiltback_hv_step_size
 11744 3537 31       		.uleb128 0x31
 11745 3538 E11F0000 		.4byte	.LASF762
 11746 353c 01       		.byte	0x1
 11747 353d 5C       		.byte	0x5c
 11748 353e 25000000 		.4byte	0x25
 11749 3542 05       		.uleb128 0x5
 11750 3543 03       		.byte	0x3
 11751 3544 00000000 		.4byte	tiltback_lv_step_size
 11752 3548 31       		.uleb128 0x31
 11753 3549 61170000 		.4byte	.LASF763
 11754 354d 01       		.byte	0x1
 11755 354e 5C       		.byte	0x5c
 11756 354f 25000000 		.4byte	0x25
 11757 3553 05       		.uleb128 0x5
 11758 3554 03       		.byte	0x3
 11759 3555 00000000 		.4byte	tiltback_return_step_size
 11760 3559 31       		.uleb128 0x31
 11761 355a 97110000 		.4byte	.LASF764
 11762 355e 01       		.byte	0x1
 11763 355f 5D       		.byte	0x5d
 11764 3560 25000000 		.4byte	0x25
 11765 3564 05       		.uleb128 0x5
 11766 3565 03       		.byte	0x3
 11767 3566 00000000 		.4byte	torquetilt_on_step_size
 11768 356a 31       		.uleb128 0x31
 11769 356b B2170000 		.4byte	.LASF765
 11770 356f 01       		.byte	0x1
 11771 3570 5D       		.byte	0x5d
 11772 3571 25000000 		.4byte	0x25
 11773 3575 05       		.uleb128 0x5
 11774 3576 03       		.byte	0x3
 11775 3577 00000000 		.4byte	torquetilt_off_step_size
 11776 357b 31       		.uleb128 0x31
ARM GAS  /tmp/ccIHdayg.s 			page 209


 11777 357c 1B2A0000 		.4byte	.LASF766
 11778 3580 01       		.byte	0x1
 11779 3581 5D       		.byte	0x5d
 11780 3582 25000000 		.4byte	0x25
 11781 3586 05       		.uleb128 0x5
 11782 3587 03       		.byte	0x3
 11783 3588 00000000 		.4byte	turntilt_step_size
 11784 358c 31       		.uleb128 0x31
 11785 358d 0B230000 		.4byte	.LASF223
 11786 3591 01       		.byte	0x1
 11787 3592 5E       		.byte	0x5e
 11788 3593 25000000 		.4byte	0x25
 11789 3597 05       		.uleb128 0x5
 11790 3598 03       		.byte	0x3
 11791 3599 00000000 		.4byte	tiltback_variable
 11792 359d 31       		.uleb128 0x31
 11793 359e 792C0000 		.4byte	.LASF767
 11794 35a2 01       		.byte	0x1
 11795 35a3 5E       		.byte	0x5e
 11796 35a4 25000000 		.4byte	0x25
 11797 35a8 05       		.uleb128 0x5
 11798 35a9 03       		.byte	0x3
 11799 35aa 00000000 		.4byte	tiltback_variable_max_erpm
 11800 35ae 31       		.uleb128 0x31
 11801 35af 7B000000 		.4byte	.LASF768
 11802 35b3 01       		.byte	0x1
 11803 35b4 5E       		.byte	0x5e
 11804 35b5 25000000 		.4byte	0x25
 11805 35b9 05       		.uleb128 0x5
 11806 35ba 03       		.byte	0x3
 11807 35bb 00000000 		.4byte	noseangling_step_size
 11808 35bf 31       		.uleb128 0x31
 11809 35c0 93060000 		.4byte	.LASF769
 11810 35c4 01       		.byte	0x1
 11811 35c5 61       		.byte	0x61
 11812 35c6 25000000 		.4byte	0x25
 11813 35ca 05       		.uleb128 0x5
 11814 35cb 03       		.byte	0x3
 11815 35cc 00000000 		.4byte	pitch_angle
 11816 35d0 31       		.uleb128 0x31
 11817 35d1 D2260000 		.4byte	.LASF770
 11818 35d5 01       		.byte	0x1
 11819 35d6 61       		.byte	0x61
 11820 35d7 25000000 		.4byte	0x25
 11821 35db 05       		.uleb128 0x5
 11822 35dc 03       		.byte	0x3
 11823 35dd 00000000 		.4byte	last_pitch_angle
 11824 35e1 31       		.uleb128 0x31
 11825 35e2 401F0000 		.4byte	.LASF771
 11826 35e6 01       		.byte	0x1
 11827 35e7 61       		.byte	0x61
 11828 35e8 25000000 		.4byte	0x25
 11829 35ec 05       		.uleb128 0x5
 11830 35ed 03       		.byte	0x3
 11831 35ee 00000000 		.4byte	roll_angle
 11832 35f2 31       		.uleb128 0x31
 11833 35f3 91090000 		.4byte	.LASF772
ARM GAS  /tmp/ccIHdayg.s 			page 210


 11834 35f7 01       		.byte	0x1
 11835 35f8 61       		.byte	0x61
 11836 35f9 25000000 		.4byte	0x25
 11837 35fd 05       		.uleb128 0x5
 11838 35fe 03       		.byte	0x3
 11839 35ff 00000000 		.4byte	abs_roll_angle
 11840 3603 31       		.uleb128 0x31
 11841 3604 391E0000 		.4byte	.LASF773
 11842 3608 01       		.byte	0x1
 11843 3609 61       		.byte	0x61
 11844 360a 25000000 		.4byte	0x25
 11845 360e 05       		.uleb128 0x5
 11846 360f 03       		.byte	0x3
 11847 3610 00000000 		.4byte	abs_roll_angle_sin
 11848 3614 31       		.uleb128 0x31
 11849 3615 FE180000 		.4byte	.LASF774
 11850 3619 01       		.byte	0x1
 11851 361a 62       		.byte	0x62
 11852 361b E90E0000 		.4byte	0xee9
 11853 361f 05       		.uleb128 0x5
 11854 3620 03       		.byte	0x3
 11855 3621 00000000 		.4byte	gyro
 11856 3625 32       		.uleb128 0x32
 11857 3626 942C0000 		.4byte	.LASF370
 11858 362a 01       		.byte	0x1
 11859 362b 63       		.byte	0x63
 11860 362c 25000000 		.4byte	0x25
 11861 3630 31       		.uleb128 0x31
 11862 3631 03060000 		.4byte	.LASF775
 11863 3635 01       		.byte	0x1
 11864 3636 63       		.byte	0x63
 11865 3637 25000000 		.4byte	0x25
 11866 363b 05       		.uleb128 0x5
 11867 363c 03       		.byte	0x3
 11868 363d 00000000 		.4byte	abs_duty_cycle
 11869 3641 31       		.uleb128 0x31
 11870 3642 EB260000 		.4byte	.LASF776
 11871 3646 01       		.byte	0x1
 11872 3647 64       		.byte	0x64
 11873 3648 25000000 		.4byte	0x25
 11874 364c 05       		.uleb128 0x5
 11875 364d 03       		.byte	0x3
 11876 364e 00000000 		.4byte	erpm
 11877 3652 31       		.uleb128 0x31
 11878 3653 FD210000 		.4byte	.LASF777
 11879 3657 01       		.byte	0x1
 11880 3658 64       		.byte	0x64
 11881 3659 25000000 		.4byte	0x25
 11882 365d 05       		.uleb128 0x5
 11883 365e 03       		.byte	0x3
 11884 365f 00000000 		.4byte	abs_erpm
 11885 3663 31       		.uleb128 0x31
 11886 3664 33030000 		.4byte	.LASF778
 11887 3668 01       		.byte	0x1
 11888 3669 64       		.byte	0x64
 11889 366a 25000000 		.4byte	0x25
 11890 366e 05       		.uleb128 0x5
ARM GAS  /tmp/ccIHdayg.s 			page 211


 11891 366f 03       		.byte	0x3
 11892 3670 00000000 		.4byte	avg_erpm
 11893 3674 31       		.uleb128 0x31
 11894 3675 4D190000 		.4byte	.LASF779
 11895 3679 01       		.byte	0x1
 11896 367a 65       		.byte	0x65
 11897 367b 25000000 		.4byte	0x25
 11898 367f 05       		.uleb128 0x5
 11899 3680 03       		.byte	0x3
 11900 3681 00000000 		.4byte	motor_current
 11901 3685 31       		.uleb128 0x31
 11902 3686 F4060000 		.4byte	.LASF780
 11903 368a 01       		.byte	0x1
 11904 368b 66       		.byte	0x66
 11905 368c 25000000 		.4byte	0x25
 11906 3690 05       		.uleb128 0x5
 11907 3691 03       		.byte	0x3
 11908 3692 00000000 		.4byte	motor_position
 11909 3696 31       		.uleb128 0x31
 11910 3697 98040000 		.4byte	.LASF781
 11911 369b 01       		.byte	0x1
 11912 369c 67       		.byte	0x67
 11913 369d 25000000 		.4byte	0x25
 11914 36a1 05       		.uleb128 0x5
 11915 36a2 03       		.byte	0x3
 11916 36a3 00000000 		.4byte	adc1
 11917 36a7 31       		.uleb128 0x31
 11918 36a8 C5110000 		.4byte	.LASF782
 11919 36ac 01       		.byte	0x1
 11920 36ad 67       		.byte	0x67
 11921 36ae 25000000 		.4byte	0x25
 11922 36b2 05       		.uleb128 0x5
 11923 36b3 03       		.byte	0x3
 11924 36b4 00000000 		.4byte	adc2
 11925 36b8 31       		.uleb128 0x31
 11926 36b9 17140000 		.4byte	.LASF783
 11927 36bd 01       		.byte	0x1
 11928 36be 68       		.byte	0x68
 11929 36bf 0E340000 		.4byte	0x340e
 11930 36c3 05       		.uleb128 0x5
 11931 36c4 03       		.byte	0x3
 11932 36c5 00000000 		.4byte	switch_state
 11933 36c9 31       		.uleb128 0x31
 11934 36ca 8D1A0000 		.4byte	.LASF339
 11935 36ce 01       		.byte	0x1
 11936 36cf 6B       		.byte	0x6b
 11937 36d0 AD330000 		.4byte	0x33ad
 11938 36d4 05       		.uleb128 0x5
 11939 36d5 03       		.byte	0x3
 11940 36d6 00000000 		.4byte	state
 11941 36da 32       		.uleb128 0x32
 11942 36db FF250000 		.4byte	.LASF784
 11943 36df 01       		.byte	0x1
 11944 36e0 6C       		.byte	0x6c
 11945 36e1 25000000 		.4byte	0x25
 11946 36e5 31       		.uleb128 0x31
 11947 36e6 04280000 		.4byte	.LASF785
ARM GAS  /tmp/ccIHdayg.s 			page 212


 11948 36ea 01       		.byte	0x1
 11949 36eb 6C       		.byte	0x6c
 11950 36ec 25000000 		.4byte	0x25
 11951 36f0 05       		.uleb128 0x5
 11952 36f1 03       		.byte	0x3
 11953 36f2 00000000 		.4byte	integral
 11954 36f6 31       		.uleb128 0x31
 11955 36f7 7B170000 		.4byte	.LASF786
 11956 36fb 01       		.byte	0x1
 11957 36fc 6C       		.byte	0x6c
 11958 36fd 25000000 		.4byte	0x25
 11959 3701 05       		.uleb128 0x5
 11960 3702 03       		.byte	0x3
 11961 3703 00000000 		.4byte	derivative
 11962 3707 32       		.uleb128 0x32
 11963 3708 840D0000 		.4byte	.LASF787
 11964 370c 01       		.byte	0x1
 11965 370d 6D       		.byte	0x6d
 11966 370e 25000000 		.4byte	0x25
 11967 3712 32       		.uleb128 0x32
 11968 3713 C12A0000 		.4byte	.LASF788
 11969 3717 01       		.byte	0x1
 11970 3718 6D       		.byte	0x6d
 11971 3719 25000000 		.4byte	0x25
 11972 371d 31       		.uleb128 0x31
 11973 371e 840B0000 		.4byte	.LASF789
 11974 3722 01       		.byte	0x1
 11975 3723 6E       		.byte	0x6e
 11976 3724 25000000 		.4byte	0x25
 11977 3728 05       		.uleb128 0x5
 11978 3729 03       		.byte	0x3
 11979 372a 00000000 		.4byte	pid_value
 11980 372e 31       		.uleb128 0x31
 11981 372f D8110000 		.4byte	.LASF790
 11982 3733 01       		.byte	0x1
 11983 3734 6F       		.byte	0x6f
 11984 3735 25000000 		.4byte	0x25
 11985 3739 05       		.uleb128 0x5
 11986 373a 03       		.byte	0x3
 11987 373b 00000000 		.4byte	setpoint
 11988 373f 31       		.uleb128 0x31
 11989 3740 A61B0000 		.4byte	.LASF791
 11990 3744 01       		.byte	0x1
 11991 3745 6F       		.byte	0x6f
 11992 3746 25000000 		.4byte	0x25
 11993 374a 05       		.uleb128 0x5
 11994 374b 03       		.byte	0x3
 11995 374c 00000000 		.4byte	setpoint_target
 11996 3750 31       		.uleb128 0x31
 11997 3751 F0000000 		.4byte	.LASF792
 11998 3755 01       		.byte	0x1
 11999 3756 6F       		.byte	0x6f
 12000 3757 25000000 		.4byte	0x25
 12001 375b 05       		.uleb128 0x5
 12002 375c 03       		.byte	0x3
 12003 375d 00000000 		.4byte	setpoint_target_interpolated
 12004 3761 31       		.uleb128 0x31
ARM GAS  /tmp/ccIHdayg.s 			page 213


 12005 3762 94290000 		.4byte	.LASF793
 12006 3766 01       		.byte	0x1
 12007 3767 70       		.byte	0x70
 12008 3768 25000000 		.4byte	0x25
 12009 376c 05       		.uleb128 0x5
 12010 376d 03       		.byte	0x3
 12011 376e 00000000 		.4byte	noseangling_interpolated
 12012 3772 31       		.uleb128 0x31
 12013 3773 6F090000 		.4byte	.LASF794
 12014 3777 01       		.byte	0x1
 12015 3778 71       		.byte	0x71
 12016 3779 25000000 		.4byte	0x25
 12017 377d 05       		.uleb128 0x5
 12018 377e 03       		.byte	0x3
 12019 377f 00000000 		.4byte	torquetilt_filtered_current
 12020 3783 32       		.uleb128 0x32
 12021 3784 8C1E0000 		.4byte	.LASF795
 12022 3788 01       		.byte	0x1
 12023 3789 71       		.byte	0x71
 12024 378a 25000000 		.4byte	0x25
 12025 378e 31       		.uleb128 0x31
 12026 378f 21270000 		.4byte	.LASF796
 12027 3793 01       		.byte	0x1
 12028 3794 71       		.byte	0x71
 12029 3795 25000000 		.4byte	0x25
 12030 3799 05       		.uleb128 0x5
 12031 379a 03       		.byte	0x3
 12032 379b 00000000 		.4byte	torquetilt_interpolated
 12033 379f 31       		.uleb128 0x31
 12034 37a0 BC160000 		.4byte	.LASF797
 12035 37a4 01       		.byte	0x1
 12036 37a5 72       		.byte	0x72
 12037 37a6 6F340000 		.4byte	0x346f
 12038 37aa 05       		.uleb128 0x5
 12039 37ab 03       		.byte	0x3
 12040 37ac 00000000 		.4byte	torquetilt_current_biquad
 12041 37b0 31       		.uleb128 0x31
 12042 37b1 B4250000 		.4byte	.LASF798
 12043 37b5 01       		.byte	0x1
 12044 37b6 73       		.byte	0x73
 12045 37b7 25000000 		.4byte	0x25
 12046 37bb 05       		.uleb128 0x5
 12047 37bc 03       		.byte	0x3
 12048 37bd 00000000 		.4byte	turntilt_target
 12049 37c1 31       		.uleb128 0x31
 12050 37c2 E1270000 		.4byte	.LASF799
 12051 37c6 01       		.byte	0x1
 12052 37c7 73       		.byte	0x73
 12053 37c8 25000000 		.4byte	0x25
 12054 37cc 05       		.uleb128 0x5
 12055 37cd 03       		.byte	0x3
 12056 37ce 00000000 		.4byte	turntilt_interpolated
 12057 37d2 31       		.uleb128 0x31
 12058 37d3 6D0A0000 		.4byte	.LASF800
 12059 37d7 01       		.byte	0x1
 12060 37d8 74       		.byte	0x74
 12061 37d9 E4330000 		.4byte	0x33e4
ARM GAS  /tmp/ccIHdayg.s 			page 214


 12062 37dd 05       		.uleb128 0x5
 12063 37de 03       		.byte	0x3
 12064 37df 00000000 		.4byte	setpointAdjustmentType
 12065 37e3 32       		.uleb128 0x32
 12066 37e4 870E0000 		.4byte	.LASF801
 12067 37e8 01       		.byte	0x1
 12068 37e9 75       		.byte	0x75
 12069 37ea 25000000 		.4byte	0x25
 12070 37ee 31       		.uleb128 0x31
 12071 37ef BB280000 		.4byte	.LASF802
 12072 37f3 01       		.byte	0x1
 12073 37f4 75       		.byte	0x75
 12074 37f5 25000000 		.4byte	0x25
 12075 37f9 05       		.uleb128 0x5
 12076 37fa 03       		.byte	0x3
 12077 37fb 00000000 		.4byte	yaw_integral
 12078 37ff 32       		.uleb128 0x32
 12079 3800 4D250000 		.4byte	.LASF803
 12080 3804 01       		.byte	0x1
 12081 3805 75       		.byte	0x75
 12082 3806 25000000 		.4byte	0x25
 12083 380a 31       		.uleb128 0x31
 12084 380b 4E180000 		.4byte	.LASF804
 12085 380f 01       		.byte	0x1
 12086 3810 75       		.byte	0x75
 12087 3811 25000000 		.4byte	0x25
 12088 3815 05       		.uleb128 0x5
 12089 3816 03       		.byte	0x3
 12090 3817 00000000 		.4byte	yaw_last_proportional
 12091 381b 31       		.uleb128 0x31
 12092 381c 052A0000 		.4byte	.LASF805
 12093 3820 01       		.byte	0x1
 12094 3821 75       		.byte	0x75
 12095 3822 25000000 		.4byte	0x25
 12096 3826 05       		.uleb128 0x5
 12097 3827 03       		.byte	0x3
 12098 3828 00000000 		.4byte	yaw_pid_value
 12099 382c 31       		.uleb128 0x31
 12100 382d AA000000 		.4byte	.LASF806
 12101 3831 01       		.byte	0x1
 12102 3832 75       		.byte	0x75
 12103 3833 25000000 		.4byte	0x25
 12104 3837 05       		.uleb128 0x5
 12105 3838 03       		.byte	0x3
 12106 3839 00000000 		.4byte	yaw_setpoint
 12107 383d 31       		.uleb128 0x31
 12108 383e F90A0000 		.4byte	.LASF807
 12109 3842 01       		.byte	0x1
 12110 3843 76       		.byte	0x76
 12111 3844 72010000 		.4byte	0x172
 12112 3848 05       		.uleb128 0x5
 12113 3849 03       		.byte	0x3
 12114 384a 00000000 		.4byte	current_time
 12115 384e 31       		.uleb128 0x31
 12116 384f 8D190000 		.4byte	.LASF808
 12117 3853 01       		.byte	0x1
 12118 3854 76       		.byte	0x76
ARM GAS  /tmp/ccIHdayg.s 			page 215


 12119 3855 72010000 		.4byte	0x172
 12120 3859 05       		.uleb128 0x5
 12121 385a 03       		.byte	0x3
 12122 385b 00000000 		.4byte	last_time
 12123 385f 31       		.uleb128 0x31
 12124 3860 A62A0000 		.4byte	.LASF809
 12125 3864 01       		.byte	0x1
 12126 3865 76       		.byte	0x76
 12127 3866 72010000 		.4byte	0x172
 12128 386a 05       		.uleb128 0x5
 12129 386b 03       		.byte	0x3
 12130 386c 00000000 		.4byte	diff_time
 12131 3870 31       		.uleb128 0x31
 12132 3871 21080000 		.4byte	.LASF810
 12133 3875 01       		.byte	0x1
 12134 3876 76       		.byte	0x76
 12135 3877 72010000 		.4byte	0x172
 12136 387b 05       		.uleb128 0x5
 12137 387c 03       		.byte	0x3
 12138 387d 00000000 		.4byte	loop_overshoot
 12139 3881 31       		.uleb128 0x31
 12140 3882 6B080000 		.4byte	.LASF811
 12141 3886 01       		.byte	0x1
 12142 3887 77       		.byte	0x77
 12143 3888 25000000 		.4byte	0x25
 12144 388c 05       		.uleb128 0x5
 12145 388d 03       		.byte	0x3
 12146 388e 00000000 		.4byte	filtered_loop_overshoot
 12147 3892 31       		.uleb128 0x31
 12148 3893 7F290000 		.4byte	.LASF812
 12149 3897 01       		.byte	0x1
 12150 3898 77       		.byte	0x77
 12151 3899 25000000 		.4byte	0x25
 12152 389d 05       		.uleb128 0x5
 12153 389e 03       		.byte	0x3
 12154 389f 00000000 		.4byte	loop_overshoot_alpha
 12155 38a3 31       		.uleb128 0x31
 12156 38a4 47230000 		.4byte	.LASF813
 12157 38a8 01       		.byte	0x1
 12158 38a9 77       		.byte	0x77
 12159 38aa 25000000 		.4byte	0x25
 12160 38ae 05       		.uleb128 0x5
 12161 38af 03       		.byte	0x3
 12162 38b0 00000000 		.4byte	filtered_diff_time
 12163 38b4 31       		.uleb128 0x31
 12164 38b5 2F0D0000 		.4byte	.LASF814
 12165 38b9 01       		.byte	0x1
 12166 38ba 78       		.byte	0x78
 12167 38bb 72010000 		.4byte	0x172
 12168 38bf 05       		.uleb128 0x5
 12169 38c0 03       		.byte	0x3
 12170 38c1 00000000 		.4byte	fault_angle_pitch_timer
 12171 38c5 31       		.uleb128 0x31
 12172 38c6 0B2C0000 		.4byte	.LASF815
 12173 38ca 01       		.byte	0x1
 12174 38cb 78       		.byte	0x78
 12175 38cc 72010000 		.4byte	0x172
ARM GAS  /tmp/ccIHdayg.s 			page 216


 12176 38d0 05       		.uleb128 0x5
 12177 38d1 03       		.byte	0x3
 12178 38d2 00000000 		.4byte	fault_angle_roll_timer
 12179 38d6 31       		.uleb128 0x31
 12180 38d7 F90D0000 		.4byte	.LASF816
 12181 38db 01       		.byte	0x1
 12182 38dc 78       		.byte	0x78
 12183 38dd 72010000 		.4byte	0x172
 12184 38e1 05       		.uleb128 0x5
 12185 38e2 03       		.byte	0x3
 12186 38e3 00000000 		.4byte	fault_switch_timer
 12187 38e7 31       		.uleb128 0x31
 12188 38e8 9E2B0000 		.4byte	.LASF817
 12189 38ec 01       		.byte	0x1
 12190 38ed 78       		.byte	0x78
 12191 38ee 72010000 		.4byte	0x172
 12192 38f2 05       		.uleb128 0x5
 12193 38f3 03       		.byte	0x3
 12194 38f4 00000000 		.4byte	fault_switch_half_timer
 12195 38f8 31       		.uleb128 0x31
 12196 38f9 6E030000 		.4byte	.LASF818
 12197 38fd 01       		.byte	0x1
 12198 38fe 78       		.byte	0x78
 12199 38ff 72010000 		.4byte	0x172
 12200 3903 05       		.uleb128 0x5
 12201 3904 03       		.byte	0x3
 12202 3905 00000000 		.4byte	fault_duty_timer
 12203 3909 31       		.uleb128 0x31
 12204 390a 54120000 		.4byte	.LASF819
 12205 390e 01       		.byte	0x1
 12206 390f 79       		.byte	0x79
 12207 3910 25000000 		.4byte	0x25
 12208 3914 05       		.uleb128 0x5
 12209 3915 03       		.byte	0x3
 12210 3916 00000000 		.4byte	d_pt1_lowpass_state
 12211 391a 31       		.uleb128 0x31
 12212 391b E90D0000 		.4byte	.LASF820
 12213 391f 01       		.byte	0x1
 12214 3920 79       		.byte	0x79
 12215 3921 25000000 		.4byte	0x25
 12216 3925 05       		.uleb128 0x5
 12217 3926 03       		.byte	0x3
 12218 3927 00000000 		.4byte	d_pt1_lowpass_k
 12219 392b 31       		.uleb128 0x31
 12220 392c 7E060000 		.4byte	.LASF821
 12221 3930 01       		.byte	0x1
 12222 3931 79       		.byte	0x79
 12223 3932 25000000 		.4byte	0x25
 12224 3936 05       		.uleb128 0x5
 12225 3937 03       		.byte	0x3
 12226 3938 00000000 		.4byte	d_pt1_highpass_state
 12227 393c 31       		.uleb128 0x31
 12228 393d 9D080000 		.4byte	.LASF822
 12229 3941 01       		.byte	0x1
 12230 3942 79       		.byte	0x79
 12231 3943 25000000 		.4byte	0x25
 12232 3947 05       		.uleb128 0x5
ARM GAS  /tmp/ccIHdayg.s 			page 217


 12233 3948 03       		.byte	0x3
 12234 3949 00000000 		.4byte	d_pt1_highpass_k
 12235 394d 31       		.uleb128 0x31
 12236 394e 461B0000 		.4byte	.LASF823
 12237 3952 01       		.byte	0x1
 12238 3953 7A       		.byte	0x7a
 12239 3954 6F340000 		.4byte	0x346f
 12240 3958 05       		.uleb128 0x5
 12241 3959 03       		.byte	0x3
 12242 395a 00000000 		.4byte	d_biquad_lowpass
 12243 395e 31       		.uleb128 0x31
 12244 395f 941B0000 		.4byte	.LASF824
 12245 3963 01       		.byte	0x1
 12246 3964 7A       		.byte	0x7a
 12247 3965 6F340000 		.4byte	0x346f
 12248 3969 05       		.uleb128 0x5
 12249 396a 03       		.byte	0x3
 12250 396b 00000000 		.4byte	d_biquad_highpass
 12251 396f 31       		.uleb128 0x31
 12252 3970 4C0D0000 		.4byte	.LASF825
 12253 3974 01       		.byte	0x1
 12254 3975 7B       		.byte	0x7b
 12255 3976 25000000 		.4byte	0x25
 12256 397a 05       		.uleb128 0x5
 12257 397b 03       		.byte	0x3
 12258 397c 00000000 		.4byte	motor_timeout
 12259 3980 31       		.uleb128 0x31
 12260 3981 C2130000 		.4byte	.LASF237
 12261 3985 01       		.byte	0x1
 12262 3986 7C       		.byte	0x7c
 12263 3987 72010000 		.4byte	0x172
 12264 398b 05       		.uleb128 0x5
 12265 398c 03       		.byte	0x3
 12266 398d 00000000 		.4byte	brake_timeout
 12267 3991 31       		.uleb128 0x31
 12268 3992 E1250000 		.4byte	.LASF826
 12269 3996 01       		.byte	0x1
 12270 3997 7F       		.byte	0x7f
 12271 3998 2C000000 		.4byte	0x2c
 12272 399c 05       		.uleb128 0x5
 12273 399d 03       		.byte	0x3
 12274 399e 00000000 		.4byte	debug_render_1
 12275 39a2 31       		.uleb128 0x31
 12276 39a3 F0250000 		.4byte	.LASF827
 12277 39a7 01       		.byte	0x1
 12278 39a8 7F       		.byte	0x7f
 12279 39a9 2C000000 		.4byte	0x2c
 12280 39ad 05       		.uleb128 0x5
 12281 39ae 03       		.byte	0x3
 12282 39af 00000000 		.4byte	debug_render_2
 12283 39b3 31       		.uleb128 0x31
 12284 39b4 C0200000 		.4byte	.LASF828
 12285 39b8 01       		.byte	0x1
 12286 39b9 80       		.byte	0x80
 12287 39ba 2C000000 		.4byte	0x2c
 12288 39be 05       		.uleb128 0x5
 12289 39bf 03       		.byte	0x3
ARM GAS  /tmp/ccIHdayg.s 			page 218


 12290 39c0 00000000 		.4byte	debug_sample_field
 12291 39c4 31       		.uleb128 0x31
 12292 39c5 ED030000 		.4byte	.LASF829
 12293 39c9 01       		.byte	0x1
 12294 39ca 80       		.byte	0x80
 12295 39cb 2C000000 		.4byte	0x2c
 12296 39cf 05       		.uleb128 0x5
 12297 39d0 03       		.byte	0x3
 12298 39d1 00000000 		.4byte	debug_sample_count
 12299 39d5 31       		.uleb128 0x31
 12300 39d6 2D1F0000 		.4byte	.LASF830
 12301 39da 01       		.byte	0x1
 12302 39db 80       		.byte	0x80
 12303 39dc 2C000000 		.4byte	0x2c
 12304 39e0 05       		.uleb128 0x5
 12305 39e1 03       		.byte	0x3
 12306 39e2 00000000 		.4byte	debug_sample_index
 12307 39e6 31       		.uleb128 0x31
 12308 39e7 B5010000 		.4byte	.LASF831
 12309 39eb 01       		.byte	0x1
 12310 39ec 81       		.byte	0x81
 12311 39ed 2C000000 		.4byte	0x2c
 12312 39f1 05       		.uleb128 0x5
 12313 39f2 03       		.byte	0x3
 12314 39f3 00000000 		.4byte	debug_experiment_1
 12315 39f7 31       		.uleb128 0x31
 12316 39f8 C8010000 		.4byte	.LASF832
 12317 39fc 01       		.byte	0x1
 12318 39fd 81       		.byte	0x81
 12319 39fe 2C000000 		.4byte	0x2c
 12320 3a02 05       		.uleb128 0x5
 12321 3a03 03       		.byte	0x3
 12322 3a04 00000000 		.4byte	debug_experiment_2
 12323 3a08 31       		.uleb128 0x31
 12324 3a09 DB010000 		.4byte	.LASF833
 12325 3a0d 01       		.byte	0x1
 12326 3a0e 81       		.byte	0x81
 12327 3a0f 2C000000 		.4byte	0x2c
 12328 3a13 05       		.uleb128 0x5
 12329 3a14 03       		.byte	0x3
 12330 3a15 00000000 		.4byte	debug_experiment_3
 12331 3a19 31       		.uleb128 0x31
 12332 3a1a EE010000 		.4byte	.LASF834
 12333 3a1e 01       		.byte	0x1
 12334 3a1f 81       		.byte	0x81
 12335 3a20 2C000000 		.4byte	0x2c
 12336 3a24 05       		.uleb128 0x5
 12337 3a25 03       		.byte	0x3
 12338 3a26 00000000 		.4byte	debug_experiment_4
 12339 3a2a 31       		.uleb128 0x31
 12340 3a2b 01020000 		.4byte	.LASF835
 12341 3a2f 01       		.byte	0x1
 12342 3a30 81       		.byte	0x81
 12343 3a31 2C000000 		.4byte	0x2c
 12344 3a35 05       		.uleb128 0x5
 12345 3a36 03       		.byte	0x3
 12346 3a37 00000000 		.4byte	debug_experiment_5
ARM GAS  /tmp/ccIHdayg.s 			page 219


 12347 3a3b 31       		.uleb128 0x31
 12348 3a3c C30A0000 		.4byte	.LASF836
 12349 3a40 01       		.byte	0x1
 12350 3a41 81       		.byte	0x81
 12351 3a42 2C000000 		.4byte	0x2c
 12352 3a46 05       		.uleb128 0x5
 12353 3a47 03       		.byte	0x3
 12354 3a48 00000000 		.4byte	debug_experiment_6
 12355 3a4c 33       		.uleb128 0x33
 12356 3a4d C5210000 		.4byte	.LASF837
 12357 3a51 01       		.byte	0x1
 12358 3a52 9A03     		.2byte	0x39a
 12359 3a54 01       		.byte	0x1
 12360 3a55 33       		.uleb128 0x33
 12361 3a56 68210000 		.4byte	.LASF838
 12362 3a5a 01       		.byte	0x1
 12363 3a5b 9403     		.2byte	0x394
 12364 3a5d 01       		.byte	0x1
 12365 3a5e 34       		.uleb128 0x34
 12366 3a5f A0090000 		.4byte	.LASF858
 12367 3a63 01       		.byte	0x1
 12368 3a64 7403     		.2byte	0x374
 12369 3a66 25000000 		.4byte	0x25
 12370 3a6a 00000000 		.4byte	.LFB291
 12371 3a6e D8000000 		.4byte	.LFE291-.LFB291
 12372 3a72 01       		.uleb128 0x1
 12373 3a73 9C       		.byte	0x9c
 12374 3a74 893A0000 		.4byte	0x3a89
 12375 3a78 35       		.uleb128 0x35
 12376 3a79 1C070000 		.4byte	.LASF846
 12377 3a7d 01       		.byte	0x1
 12378 3a7e 7403     		.2byte	0x374
 12379 3a80 2C000000 		.4byte	0x2c
 12380 3a84 00000000 		.4byte	.LLST3
 12381 3a88 00       		.byte	0
 12382 3a89 36       		.uleb128 0x36
 12383 3a8a 6B290000 		.4byte	.LASF843
 12384 3a8e 01       		.byte	0x1
 12385 3a8f 4D03     		.2byte	0x34d
 12386 3a91 01       		.byte	0x1
 12387 3a92 C93A0000 		.4byte	0x3ac9
 12388 3a96 37       		.uleb128 0x37
 12389 3a97 98080000 		.4byte	.LASF839
 12390 3a9b 01       		.byte	0x1
 12391 3a9c 4D03     		.2byte	0x34d
 12392 3a9e 2C000000 		.4byte	0x2c
 12393 3aa2 37       		.uleb128 0x37
 12394 3aa3 B5220000 		.4byte	.LASF840
 12395 3aa7 01       		.byte	0x1
 12396 3aa8 4D03     		.2byte	0x34d
 12397 3aaa C93A0000 		.4byte	0x3ac9
 12398 3aae 38       		.uleb128 0x38
 12399 3aaf 39       		.uleb128 0x39
 12400 3ab0 EB0C0000 		.4byte	.LASF841
 12401 3ab4 01       		.byte	0x1
 12402 3ab5 4F03     		.2byte	0x34f
 12403 3ab7 2C000000 		.4byte	0x2c
ARM GAS  /tmp/ccIHdayg.s 			page 220


 12404 3abb 39       		.uleb128 0x39
 12405 3abc FF2A0000 		.4byte	.LASF842
 12406 3ac0 01       		.byte	0x1
 12407 3ac1 5003     		.2byte	0x350
 12408 3ac3 2C000000 		.4byte	0x2c
 12409 3ac7 00       		.byte	0
 12410 3ac8 00       		.byte	0
 12411 3ac9 0B       		.uleb128 0xb
 12412 3aca 04       		.byte	0x4
 12413 3acb C60B0000 		.4byte	0xbc6
 12414 3acf 36       		.uleb128 0x36
 12415 3ad0 86100000 		.4byte	.LASF844
 12416 3ad4 01       		.byte	0x1
 12417 3ad5 4103     		.2byte	0x341
 12418 3ad7 01       		.byte	0x1
 12419 3ad8 F53A0000 		.4byte	0x3af5
 12420 3adc 37       		.uleb128 0x37
 12421 3add 98080000 		.4byte	.LASF839
 12422 3ae1 01       		.byte	0x1
 12423 3ae2 4103     		.2byte	0x341
 12424 3ae4 2C000000 		.4byte	0x2c
 12425 3ae8 37       		.uleb128 0x37
 12426 3ae9 B5220000 		.4byte	.LASF840
 12427 3aed 01       		.byte	0x1
 12428 3aee 4103     		.2byte	0x341
 12429 3af0 C93A0000 		.4byte	0x3ac9
 12430 3af4 00       		.byte	0
 12431 3af5 36       		.uleb128 0x36
 12432 3af6 EB100000 		.4byte	.LASF845
 12433 3afa 01       		.byte	0x1
 12434 3afb 2C03     		.2byte	0x32c
 12435 3afd 01       		.byte	0x1
 12436 3afe 353B0000 		.4byte	0x3b35
 12437 3b02 37       		.uleb128 0x37
 12438 3b03 98080000 		.4byte	.LASF839
 12439 3b07 01       		.byte	0x1
 12440 3b08 2C03     		.2byte	0x32c
 12441 3b0a 2C000000 		.4byte	0x2c
 12442 3b0e 37       		.uleb128 0x37
 12443 3b0f B5220000 		.4byte	.LASF840
 12444 3b13 01       		.byte	0x1
 12445 3b14 2C03     		.2byte	0x32c
 12446 3b16 C93A0000 		.4byte	0x3ac9
 12447 3b1a 38       		.uleb128 0x38
 12448 3b1b 39       		.uleb128 0x39
 12449 3b1c EB0C0000 		.4byte	.LASF841
 12450 3b20 01       		.byte	0x1
 12451 3b21 2E03     		.2byte	0x32e
 12452 3b23 2C000000 		.4byte	0x2c
 12453 3b27 39       		.uleb128 0x39
 12454 3b28 FF2A0000 		.4byte	.LASF842
 12455 3b2c 01       		.byte	0x1
 12456 3b2d 2F03     		.2byte	0x32f
 12457 3b2f 2C000000 		.4byte	0x2c
 12458 3b33 00       		.byte	0
 12459 3b34 00       		.byte	0
 12460 3b35 3A       		.uleb128 0x3a
ARM GAS  /tmp/ccIHdayg.s 			page 221


 12461 3b36 E4150000 		.4byte	.LASF861
 12462 3b3a 01       		.byte	0x1
 12463 3b3b 5D02     		.2byte	0x25d
 12464 3b3d 00000000 		.4byte	.LFB287
 12465 3b41 EC0E0000 		.4byte	.LFE287-.LFB287
 12466 3b45 01       		.uleb128 0x1
 12467 3b46 9C       		.byte	0x9c
 12468 3b47 8A3F0000 		.4byte	0x3f8a
 12469 3b4b 3B       		.uleb128 0x3b
 12470 3b4c 61726700 		.ascii	"arg\000"
 12471 3b50 01       		.byte	0x1
 12472 3b51 5D02     		.2byte	0x25d
 12473 3b53 93030000 		.4byte	0x393
 12474 3b57 20000000 		.4byte	.LLST14
 12475 3b5b 3C       		.uleb128 0x3c
 12476 3b5c 28010000 		.4byte	.Ldebug_ranges0+0x128
 12477 3b60 C73B0000 		.4byte	0x3bc7
 12478 3b64 3D       		.uleb128 0x3d
 12479 3b65 6900     		.ascii	"i\000"
 12480 3b67 01       		.byte	0x1
 12481 3b68 8002     		.2byte	0x280
 12482 3b6a 2C000000 		.4byte	0x2c
 12483 3b6e 41000000 		.4byte	.LLST15
 12484 3b72 3E       		.uleb128 0x3e
 12485 3b73 48010000 		.4byte	.Ldebug_ranges0+0x148
 12486 3b77 3D       		.uleb128 0x3d
 12487 3b78 6D736700 		.ascii	"msg\000"
 12488 3b7c 01       		.byte	0x1
 12489 3b7d 8102     		.2byte	0x281
 12490 3b7f 8A3F0000 		.4byte	0x3f8a
 12491 3b83 60000000 		.4byte	.LLST16
 12492 3b87 3F       		.uleb128 0x3f
 12493 3b88 B3450000 		.4byte	0x45b3
 12494 3b8c 52090000 		.4byte	.LBB163
 12495 3b90 06000000 		.4byte	.LBE163-.LBB163
 12496 3b94 01       		.byte	0x1
 12497 3b95 8202     		.2byte	0x282
 12498 3b97 B53B0000 		.4byte	0x3bb5
 12499 3b9b 40       		.uleb128 0x40
 12500 3b9c C4450000 		.4byte	0x45c4
 12501 3ba0 73000000 		.4byte	.LLST17
 12502 3ba4 41       		.uleb128 0x41
 12503 3ba5 D1450000 		.4byte	0x45d1
 12504 3ba9 52090000 		.4byte	.LBB165
 12505 3bad 02000000 		.4byte	.LBE165-.LBB165
 12506 3bb1 02       		.byte	0x2
 12507 3bb2 0B01     		.2byte	0x10b
 12508 3bb4 00       		.byte	0
 12509 3bb5 42       		.uleb128 0x42
 12510 3bb6 48090000 		.4byte	.LVL97
 12511 3bba 5E4A0000 		.4byte	0x4a5e
 12512 3bbe 43       		.uleb128 0x43
 12513 3bbf 01       		.uleb128 0x1
 12514 3bc0 50       		.byte	0x50
 12515 3bc1 02       		.uleb128 0x2
 12516 3bc2 76       		.byte	0x76
 12517 3bc3 00       		.sleb128 0
ARM GAS  /tmp/ccIHdayg.s 			page 222


 12518 3bc4 00       		.byte	0
 12519 3bc5 00       		.byte	0
 12520 3bc6 00       		.byte	0
 12521 3bc7 44       		.uleb128 0x44
 12522 3bc8 83450000 		.4byte	0x4583
 12523 3bcc 04000000 		.4byte	.LBB157
 12524 3bd0 10010000 		.4byte	.Ldebug_ranges0+0x110
 12525 3bd4 01       		.byte	0x1
 12526 3bd5 5F02     		.2byte	0x25f
 12527 3bd7 E83B0000 		.4byte	0x3be8
 12528 3bdb 45       		.uleb128 0x45
 12529 3bdc 8F450000 		.4byte	0x458f
 12530 3be0 06       		.uleb128 0x6
 12531 3be1 03       		.byte	0x3
 12532 3be2 00000000 		.4byte	.LC0
 12533 3be6 9F       		.byte	0x9f
 12534 3be7 00       		.byte	0
 12535 3be8 41       		.uleb128 0x41
 12536 3be9 D1450000 		.4byte	0x45d1
 12537 3bed 3E000000 		.4byte	.LBB170
 12538 3bf1 02000000 		.4byte	.LBE170-.LBB170
 12539 3bf5 01       		.byte	0x1
 12540 3bf6 6302     		.2byte	0x263
 12541 3bf8 3F       		.uleb128 0x3f
 12542 3bf9 553A0000 		.4byte	0x3a55
 12543 3bfd D4010000 		.4byte	.LBB172
 12544 3c01 30000000 		.4byte	.LBE172-.LBB172
 12545 3c05 01       		.byte	0x1
 12546 3c06 2003     		.2byte	0x320
 12547 3c08 293C0000 		.4byte	0x3c29
 12548 3c0c 46       		.uleb128 0x46
 12549 3c0d E8010000 		.4byte	.LVL57
 12550 3c11 5E3A0000 		.4byte	0x3a5e
 12551 3c15 42       		.uleb128 0x42
 12552 3c16 FA010000 		.4byte	.LVL59
 12553 3c1a 694A0000 		.4byte	0x4a69
 12554 3c1e 43       		.uleb128 0x43
 12555 3c1f 01       		.uleb128 0x1
 12556 3c20 50       		.byte	0x50
 12557 3c21 05       		.uleb128 0x5
 12558 3c22 03       		.byte	0x3
 12559 3c23 0C000000 		.4byte	.LC1
 12560 3c27 00       		.byte	0
 12561 3c28 00       		.byte	0
 12562 3c29 44       		.uleb128 0x44
 12563 3c2a 4C3A0000 		.4byte	0x3a4c
 12564 3c2e 04020000 		.4byte	.LBB174
 12565 3c32 70010000 		.4byte	.Ldebug_ranges0+0x170
 12566 3c36 01       		.byte	0x1
 12567 3c37 2103     		.2byte	0x321
 12568 3c39 1C3D0000 		.4byte	0x3d1c
 12569 3c3d 47       		.uleb128 0x47
 12570 3c3e 42020000 		.4byte	.LVL60
 12571 3c42 744A0000 		.4byte	0x4a74
 12572 3c46 503C0000 		.4byte	0x3c50
 12573 3c4a 43       		.uleb128 0x43
 12574 3c4b 01       		.uleb128 0x1
ARM GAS  /tmp/ccIHdayg.s 			page 223


 12575 3c4c 50       		.byte	0x50
 12576 3c4d 01       		.uleb128 0x1
 12577 3c4e 35       		.byte	0x35
 12578 3c4f 00       		.byte	0
 12579 3c50 46       		.uleb128 0x46
 12580 3c51 4A020000 		.4byte	.LVL61
 12581 3c55 5E3A0000 		.4byte	0x3a5e
 12582 3c59 46       		.uleb128 0x46
 12583 3c5a 70020000 		.4byte	.LVL62
 12584 3c5e 7F4A0000 		.4byte	0x4a7f
 12585 3c62 47       		.uleb128 0x47
 12586 3c63 9C090000 		.4byte	.LVL101
 12587 3c67 744A0000 		.4byte	0x4a74
 12588 3c6b 753C0000 		.4byte	0x3c75
 12589 3c6f 43       		.uleb128 0x43
 12590 3c70 01       		.uleb128 0x1
 12591 3c71 50       		.byte	0x50
 12592 3c72 01       		.uleb128 0x1
 12593 3c73 34       		.byte	0x34
 12594 3c74 00       		.byte	0
 12595 3c75 46       		.uleb128 0x46
 12596 3c76 A4090000 		.4byte	.LVL102
 12597 3c7a 5E3A0000 		.4byte	0x3a5e
 12598 3c7e 46       		.uleb128 0x46
 12599 3c7f CA090000 		.4byte	.LVL103
 12600 3c83 7F4A0000 		.4byte	0x4a7f
 12601 3c87 47       		.uleb128 0x47
 12602 3c88 D2090000 		.4byte	.LVL104
 12603 3c8c 744A0000 		.4byte	0x4a74
 12604 3c90 9A3C0000 		.4byte	0x3c9a
 12605 3c94 43       		.uleb128 0x43
 12606 3c95 01       		.uleb128 0x1
 12607 3c96 50       		.byte	0x50
 12608 3c97 01       		.uleb128 0x1
 12609 3c98 33       		.byte	0x33
 12610 3c99 00       		.byte	0
 12611 3c9a 46       		.uleb128 0x46
 12612 3c9b DA090000 		.4byte	.LVL105
 12613 3c9f 5E3A0000 		.4byte	0x3a5e
 12614 3ca3 46       		.uleb128 0x46
 12615 3ca4 000A0000 		.4byte	.LVL106
 12616 3ca8 7F4A0000 		.4byte	0x4a7f
 12617 3cac 47       		.uleb128 0x47
 12618 3cad 080A0000 		.4byte	.LVL107
 12619 3cb1 744A0000 		.4byte	0x4a74
 12620 3cb5 BF3C0000 		.4byte	0x3cbf
 12621 3cb9 43       		.uleb128 0x43
 12622 3cba 01       		.uleb128 0x1
 12623 3cbb 50       		.byte	0x50
 12624 3cbc 01       		.uleb128 0x1
 12625 3cbd 32       		.byte	0x32
 12626 3cbe 00       		.byte	0
 12627 3cbf 46       		.uleb128 0x46
 12628 3cc0 100A0000 		.4byte	.LVL108
 12629 3cc4 5E3A0000 		.4byte	0x3a5e
 12630 3cc8 46       		.uleb128 0x46
 12631 3cc9 360A0000 		.4byte	.LVL109
ARM GAS  /tmp/ccIHdayg.s 			page 224


 12632 3ccd 7F4A0000 		.4byte	0x4a7f
 12633 3cd1 47       		.uleb128 0x47
 12634 3cd2 400A0000 		.4byte	.LVL110
 12635 3cd6 744A0000 		.4byte	0x4a74
 12636 3cda E43C0000 		.4byte	0x3ce4
 12637 3cde 43       		.uleb128 0x43
 12638 3cdf 01       		.uleb128 0x1
 12639 3ce0 50       		.byte	0x50
 12640 3ce1 01       		.uleb128 0x1
 12641 3ce2 31       		.byte	0x31
 12642 3ce3 00       		.byte	0
 12643 3ce4 46       		.uleb128 0x46
 12644 3ce5 480A0000 		.4byte	.LVL111
 12645 3ce9 5E3A0000 		.4byte	0x3a5e
 12646 3ced 46       		.uleb128 0x46
 12647 3cee 6E0A0000 		.4byte	.LVL112
 12648 3cf2 7F4A0000 		.4byte	0x4a7f
 12649 3cf6 47       		.uleb128 0x47
 12650 3cf7 780A0000 		.4byte	.LVL113
 12651 3cfb 744A0000 		.4byte	0x4a74
 12652 3cff 093D0000 		.4byte	0x3d09
 12653 3d03 43       		.uleb128 0x43
 12654 3d04 01       		.uleb128 0x1
 12655 3d05 50       		.byte	0x50
 12656 3d06 01       		.uleb128 0x1
 12657 3d07 30       		.byte	0x30
 12658 3d08 00       		.byte	0
 12659 3d09 46       		.uleb128 0x46
 12660 3d0a 800A0000 		.4byte	.LVL114
 12661 3d0e 5E3A0000 		.4byte	0x3a5e
 12662 3d12 46       		.uleb128 0x46
 12663 3d13 A60A0000 		.4byte	.LVL115
 12664 3d17 7F4A0000 		.4byte	0x4a7f
 12665 3d1b 00       		.byte	0
 12666 3d1c 41       		.uleb128 0x41
 12667 3d1d 9B450000 		.4byte	0x459b
 12668 3d21 98020000 		.4byte	.LBB177
 12669 3d25 02000000 		.4byte	.LBE177-.LBB177
 12670 3d29 01       		.byte	0x1
 12671 3d2a 6102     		.2byte	0x261
 12672 3d2c 48       		.uleb128 0x48
 12673 3d2d 5C400000 		.4byte	0x405c
 12674 3d31 D0030000 		.4byte	.LBB179
 12675 3d35 88010000 		.4byte	.Ldebug_ranges0+0x188
 12676 3d39 01       		.byte	0x1
 12677 3d3a BE02     		.2byte	0x2be
 12678 3d3c 44       		.uleb128 0x44
 12679 3d3d 53400000 		.4byte	0x4053
 12680 3d41 14040000 		.4byte	.LBB195
 12681 3d45 08020000 		.4byte	.Ldebug_ranges0+0x208
 12682 3d49 01       		.byte	0x1
 12683 3d4a BF02     		.2byte	0x2bf
 12684 3d4c 613D0000 		.4byte	0x3d61
 12685 3d50 48       		.uleb128 0x48
 12686 3d51 90400000 		.4byte	0x4090
 12687 3d55 0C0B0000 		.4byte	.LBB197
 12688 3d59 98020000 		.4byte	.Ldebug_ranges0+0x298
ARM GAS  /tmp/ccIHdayg.s 			page 225


 12689 3d5d 01       		.byte	0x1
 12690 3d5e B601     		.2byte	0x1b6
 12691 3d60 00       		.byte	0
 12692 3d61 44       		.uleb128 0x44
 12693 3d62 39400000 		.4byte	0x4039
 12694 3d66 2C040000 		.4byte	.LBB237
 12695 3d6a F0020000 		.4byte	.Ldebug_ranges0+0x2f0
 12696 3d6e 01       		.byte	0x1
 12697 3d6f C102     		.2byte	0x2c1
 12698 3d71 853D0000 		.4byte	0x3d85
 12699 3d75 3E       		.uleb128 0x3e
 12700 3d76 F0020000 		.4byte	.Ldebug_ranges0+0x2f0
 12701 3d7a 49       		.uleb128 0x49
 12702 3d7b 46400000 		.4byte	0x4046
 12703 3d7f 87000000 		.4byte	.LLST18
 12704 3d83 00       		.byte	0
 12705 3d84 00       		.byte	0
 12706 3d85 44       		.uleb128 0x44
 12707 3d86 1F400000 		.4byte	0x401f
 12708 3d8a B6040000 		.4byte	.LBB247
 12709 3d8e 30030000 		.4byte	.Ldebug_ranges0+0x330
 12710 3d92 01       		.byte	0x1
 12711 3d93 C202     		.2byte	0x2c2
 12712 3d95 FE3D0000 		.4byte	0x3dfe
 12713 3d99 3E       		.uleb128 0x3e
 12714 3d9a 30030000 		.4byte	.Ldebug_ranges0+0x330
 12715 3d9e 49       		.uleb128 0x49
 12716 3d9f 2C400000 		.4byte	0x402c
 12717 3da3 DF000000 		.4byte	.LLST19
 12718 3da7 44       		.uleb128 0x44
 12719 3da8 52450000 		.4byte	0x4552
 12720 3dac D0040000 		.4byte	.LBB249
 12721 3db0 78030000 		.4byte	.Ldebug_ranges0+0x378
 12722 3db4 01       		.byte	0x1
 12723 3db5 DC01     		.2byte	0x1dc
 12724 3db7 DD3D0000 		.4byte	0x3ddd
 12725 3dbb 40       		.uleb128 0x40
 12726 3dbc 6D450000 		.4byte	0x456d
 12727 3dc0 0B010000 		.4byte	.LLST20
 12728 3dc4 40       		.uleb128 0x40
 12729 3dc5 62450000 		.4byte	0x4562
 12730 3dc9 1F010000 		.4byte	.LLST21
 12731 3dcd 3E       		.uleb128 0x3e
 12732 3dce 78030000 		.4byte	.Ldebug_ranges0+0x378
 12733 3dd2 49       		.uleb128 0x49
 12734 3dd3 77450000 		.4byte	0x4577
 12735 3dd7 37010000 		.4byte	.LLST22
 12736 3ddb 00       		.byte	0
 12737 3ddc 00       		.byte	0
 12738 3ddd 47       		.uleb128 0x47
 12739 3dde 24050000 		.4byte	.LVL78
 12740 3de2 8A4A0000 		.4byte	0x4a8a
 12741 3de6 F33D0000 		.4byte	0x3df3
 12742 3dea 43       		.uleb128 0x43
 12743 3deb 02       		.uleb128 0x2
 12744 3dec 90       		.byte	0x90
 12745 3ded 41       		.uleb128 0x41
ARM GAS  /tmp/ccIHdayg.s 			page 226


 12746 3dee 03       		.uleb128 0x3
 12747 3def F5       		.byte	0xf5
 12748 3df0 52       		.uleb128 0x52
 12749 3df1 25       		.uleb128 0x25
 12750 3df2 00       		.byte	0
 12751 3df3 46       		.uleb128 0x46
 12752 3df4 34050000 		.4byte	.LVL79
 12753 3df8 964A0000 		.4byte	0x4a96
 12754 3dfc 00       		.byte	0
 12755 3dfd 00       		.byte	0
 12756 3dfe 44       		.uleb128 0x44
 12757 3dff 16400000 		.4byte	0x4016
 12758 3e03 92050000 		.4byte	.LBB264
 12759 3e07 98030000 		.4byte	.Ldebug_ranges0+0x398
 12760 3e0b 01       		.byte	0x1
 12761 3e0c C302     		.2byte	0x2c3
 12762 3e0e 1C3E0000 		.4byte	0x3e1c
 12763 3e12 46       		.uleb128 0x46
 12764 3e13 3E060000 		.4byte	.LVL82
 12765 3e17 964A0000 		.4byte	0x4a96
 12766 3e1b 00       		.byte	0
 12767 3e1c 44       		.uleb128 0x44
 12768 3e1d F83F0000 		.4byte	0x3ff8
 12769 3e21 76060000 		.4byte	.LBB276
 12770 3e25 D8030000 		.4byte	.Ldebug_ranges0+0x3d8
 12771 3e29 01       		.byte	0x1
 12772 3e2a C802     		.2byte	0x2c8
 12773 3e2c 3A3E0000 		.4byte	0x3e3a
 12774 3e30 40       		.uleb128 0x40
 12775 3e31 09400000 		.4byte	0x4009
 12776 3e35 4B010000 		.4byte	.LLST23
 12777 3e39 00       		.byte	0
 12778 3e3a 44       		.uleb128 0x44
 12779 3e3b 52450000 		.4byte	0x4552
 12780 3e3f 4E070000 		.4byte	.LBB285
 12781 3e43 00040000 		.4byte	.Ldebug_ranges0+0x400
 12782 3e47 01       		.byte	0x1
 12783 3e48 D702     		.2byte	0x2d7
 12784 3e4a 703E0000 		.4byte	0x3e70
 12785 3e4e 40       		.uleb128 0x40
 12786 3e4f 6D450000 		.4byte	0x456d
 12787 3e53 AD010000 		.4byte	.LLST24
 12788 3e57 40       		.uleb128 0x40
 12789 3e58 62450000 		.4byte	0x4562
 12790 3e5c C4010000 		.4byte	.LLST25
 12791 3e60 3E       		.uleb128 0x3e
 12792 3e61 00040000 		.4byte	.Ldebug_ranges0+0x400
 12793 3e65 49       		.uleb128 0x49
 12794 3e66 77450000 		.4byte	0x4577
 12795 3e6a DC010000 		.4byte	.LLST26
 12796 3e6e 00       		.byte	0
 12797 3e6f 00       		.byte	0
 12798 3e70 44       		.uleb128 0x44
 12799 3e71 52450000 		.4byte	0x4552
 12800 3e75 1A080000 		.4byte	.LBB289
 12801 3e79 18040000 		.4byte	.Ldebug_ranges0+0x418
 12802 3e7d 01       		.byte	0x1
ARM GAS  /tmp/ccIHdayg.s 			page 227


 12803 3e7e DA02     		.2byte	0x2da
 12804 3e80 A63E0000 		.4byte	0x3ea6
 12805 3e84 40       		.uleb128 0x40
 12806 3e85 6D450000 		.4byte	0x456d
 12807 3e89 F0010000 		.4byte	.LLST27
 12808 3e8d 40       		.uleb128 0x40
 12809 3e8e 62450000 		.4byte	0x4562
 12810 3e92 07020000 		.4byte	.LLST28
 12811 3e96 3E       		.uleb128 0x3e
 12812 3e97 18040000 		.4byte	.Ldebug_ranges0+0x418
 12813 3e9b 49       		.uleb128 0x49
 12814 3e9c 77450000 		.4byte	0x4577
 12815 3ea0 1F020000 		.4byte	.LLST29
 12816 3ea4 00       		.byte	0
 12817 3ea5 00       		.byte	0
 12818 3ea6 47       		.uleb128 0x47
 12819 3ea7 80000000 		.4byte	.LVL46
 12820 3eab A24A0000 		.4byte	0x4aa2
 12821 3eaf BC3E0000 		.4byte	0x3ebc
 12822 3eb3 43       		.uleb128 0x43
 12823 3eb4 02       		.uleb128 0x2
 12824 3eb5 90       		.byte	0x90
 12825 3eb6 40       		.uleb128 0x40
 12826 3eb7 03       		.uleb128 0x3
 12827 3eb8 F5       		.byte	0xf5
 12828 3eb9 55       		.uleb128 0x55
 12829 3eba 25       		.uleb128 0x25
 12830 3ebb 00       		.byte	0
 12831 3ebc 46       		.uleb128 0x46
 12832 3ebd C2000000 		.4byte	.LVL47
 12833 3ec1 AE4A0000 		.4byte	0x4aae
 12834 3ec5 46       		.uleb128 0x46
 12835 3ec6 D0000000 		.4byte	.LVL48
 12836 3eca B94A0000 		.4byte	0x4ab9
 12837 3ece 46       		.uleb128 0x46
 12838 3ecf E2000000 		.4byte	.LVL49
 12839 3ed3 C44A0000 		.4byte	0x4ac4
 12840 3ed7 46       		.uleb128 0x46
 12841 3ed8 EE000000 		.4byte	.LVL50
 12842 3edc CF4A0000 		.4byte	0x4acf
 12843 3ee0 46       		.uleb128 0x46
 12844 3ee1 0E010000 		.4byte	.LVL51
 12845 3ee5 DA4A0000 		.4byte	0x4ada
 12846 3ee9 47       		.uleb128 0x47
 12847 3eea 1A010000 		.4byte	.LVL52
 12848 3eee E64A0000 		.4byte	0x4ae6
 12849 3ef2 003F0000 		.4byte	0x3f00
 12850 3ef6 43       		.uleb128 0x43
 12851 3ef7 01       		.uleb128 0x1
 12852 3ef8 50       		.byte	0x50
 12853 3ef9 05       		.uleb128 0x5
 12854 3efa 03       		.byte	0x3
 12855 3efb 00000000 		.4byte	.LANCHOR47
 12856 3eff 00       		.byte	0
 12857 3f00 46       		.uleb128 0x46
 12858 3f01 1E010000 		.4byte	.LVL53
 12859 3f05 F14A0000 		.4byte	0x4af1
ARM GAS  /tmp/ccIHdayg.s 			page 228


 12860 3f09 46       		.uleb128 0x46
 12861 3f0a 2C010000 		.4byte	.LVL54
 12862 3f0e FC4A0000 		.4byte	0x4afc
 12863 3f12 47       		.uleb128 0x47
 12864 3f13 D0010000 		.4byte	.LVL55
 12865 3f17 65400000 		.4byte	0x4065
 12866 3f1b 253F0000 		.4byte	0x3f25
 12867 3f1f 43       		.uleb128 0x43
 12868 3f20 01       		.uleb128 0x1
 12869 3f21 50       		.byte	0x50
 12870 3f22 01       		.uleb128 0x1
 12871 3f23 31       		.byte	0x31
 12872 3f24 00       		.byte	0
 12873 3f25 46       		.uleb128 0x46
 12874 3f26 D4010000 		.4byte	.LVL56
 12875 3f2a D03F0000 		.4byte	0x3fd0
 12876 3f2e 46       		.uleb128 0x46
 12877 3f2f 7A020000 		.4byte	.LVL63
 12878 3f33 A24A0000 		.4byte	0x4aa2
 12879 3f37 46       		.uleb128 0x46
 12880 3f38 98020000 		.4byte	.LVL64
 12881 3f3c 074B0000 		.4byte	0x4b07
 12882 3f40 4A       		.uleb128 0x4a
 12883 3f41 B2020000 		.4byte	.LVL65
 12884 3f45 D03F0000 		.4byte	0x3fd0
 12885 3f49 46       		.uleb128 0x46
 12886 3f4a F0020000 		.4byte	.LVL66
 12887 3f4e 9D400000 		.4byte	0x409d
 12888 3f52 46       		.uleb128 0x46
 12889 3f53 F6020000 		.4byte	.LVL67
 12890 3f57 D03F0000 		.4byte	0x3fd0
 12891 3f5b 46       		.uleb128 0x46
 12892 3f5c FA020000 		.4byte	.LVL68
 12893 3f60 124B0000 		.4byte	0x4b12
 12894 3f64 46       		.uleb128 0x46
 12895 3f65 04030000 		.4byte	.LVL69
 12896 3f69 9D400000 		.4byte	0x409d
 12897 3f6d 47       		.uleb128 0x47
 12898 3f6e CA030000 		.4byte	.LVL70
 12899 3f72 65400000 		.4byte	0x4065
 12900 3f76 803F0000 		.4byte	0x3f80
 12901 3f7a 43       		.uleb128 0x43
 12902 3f7b 01       		.uleb128 0x1
 12903 3f7c 50       		.byte	0x50
 12904 3f7d 01       		.uleb128 0x1
 12905 3f7e 30       		.byte	0x30
 12906 3f7f 00       		.byte	0
 12907 3f80 46       		.uleb128 0x46
 12908 3f81 DE080000 		.4byte	.LVL94
 12909 3f85 903F0000 		.4byte	0x3f90
 12910 3f89 00       		.byte	0
 12911 3f8a 0B       		.uleb128 0xb
 12912 3f8b 04       		.byte	0x4
 12913 3f8c CE130000 		.4byte	0x13ce
 12914 3f90 36       		.uleb128 0x36
 12915 3f91 11150000 		.4byte	.LASF847
 12916 3f95 01       		.byte	0x1
ARM GAS  /tmp/ccIHdayg.s 			page 229


 12917 3f96 4402     		.2byte	0x244
 12918 3f98 01       		.byte	0x1
 12919 3f99 D03F0000 		.4byte	0x3fd0
 12920 3f9d 37       		.uleb128 0x37
 12921 3f9e C9190000 		.4byte	.LASF285
 12922 3fa2 01       		.byte	0x1
 12923 3fa3 4402     		.2byte	0x244
 12924 3fa5 25000000 		.4byte	0x25
 12925 3fa9 37       		.uleb128 0x37
 12926 3faa 191F0000 		.4byte	.LASF848
 12927 3fae 01       		.byte	0x1
 12928 3faf 4402     		.2byte	0x244
 12929 3fb1 25000000 		.4byte	0x25
 12930 3fb5 38       		.uleb128 0x38
 12931 3fb6 4B       		.uleb128 0x4b
 12932 3fb7 6900     		.ascii	"i\000"
 12933 3fb9 01       		.byte	0x1
 12934 3fba 4E02     		.2byte	0x24e
 12935 3fbc 2C000000 		.4byte	0x2c
 12936 3fc0 38       		.uleb128 0x38
 12937 3fc1 4B       		.uleb128 0x4b
 12938 3fc2 6D736700 		.ascii	"msg\000"
 12939 3fc6 01       		.byte	0x1
 12940 3fc7 4F02     		.2byte	0x24f
 12941 3fc9 8A3F0000 		.4byte	0x3f8a
 12942 3fcd 00       		.byte	0
 12943 3fce 00       		.byte	0
 12944 3fcf 00       		.byte	0
 12945 3fd0 36       		.uleb128 0x36
 12946 3fd1 941F0000 		.4byte	.LASF849
 12947 3fd5 01       		.byte	0x1
 12948 3fd6 2D02     		.2byte	0x22d
 12949 3fd8 01       		.byte	0x1
 12950 3fd9 F83F0000 		.4byte	0x3ff8
 12951 3fdd 38       		.uleb128 0x38
 12952 3fde 4B       		.uleb128 0x4b
 12953 3fdf 6900     		.ascii	"i\000"
 12954 3fe1 01       		.byte	0x1
 12955 3fe2 3B02     		.2byte	0x23b
 12956 3fe4 2C000000 		.4byte	0x2c
 12957 3fe8 38       		.uleb128 0x38
 12958 3fe9 4B       		.uleb128 0x4b
 12959 3fea 6D736700 		.ascii	"msg\000"
 12960 3fee 01       		.byte	0x1
 12961 3fef 3C02     		.2byte	0x23c
 12962 3ff1 8A3F0000 		.4byte	0x3f8a
 12963 3ff5 00       		.byte	0
 12964 3ff6 00       		.byte	0
 12965 3ff7 00       		.byte	0
 12966 3ff8 4C       		.uleb128 0x4c
 12967 3ff9 C8120000 		.4byte	.LASF887
 12968 3ffd 01       		.byte	0x1
 12969 3ffe 1F02     		.2byte	0x21f
 12970 4000 25000000 		.4byte	0x25
 12971 4004 01       		.byte	0x1
 12972 4005 16400000 		.4byte	0x4016
 12973 4009 37       		.uleb128 0x37
ARM GAS  /tmp/ccIHdayg.s 			page 230


 12974 400a 09270000 		.4byte	.LASF850
 12975 400e 01       		.byte	0x1
 12976 400f 1F02     		.2byte	0x21f
 12977 4011 25000000 		.4byte	0x25
 12978 4015 00       		.byte	0
 12979 4016 33       		.uleb128 0x33
 12980 4017 8B260000 		.4byte	.LASF851
 12981 401b 01       		.byte	0x1
 12982 401c F901     		.2byte	0x1f9
 12983 401e 01       		.byte	0x1
 12984 401f 36       		.uleb128 0x36
 12985 4020 1D170000 		.4byte	.LASF852
 12986 4024 01       		.byte	0x1
 12987 4025 D901     		.2byte	0x1d9
 12988 4027 01       		.byte	0x1
 12989 4028 39400000 		.4byte	0x4039
 12990 402c 39       		.uleb128 0x39
 12991 402d 09000000 		.4byte	.LASF853
 12992 4031 01       		.byte	0x1
 12993 4032 E801     		.2byte	0x1e8
 12994 4034 25000000 		.4byte	0x25
 12995 4038 00       		.byte	0
 12996 4039 36       		.uleb128 0x36
 12997 403a 352A0000 		.4byte	.LASF854
 12998 403e 01       		.byte	0x1
 12999 403f C001     		.2byte	0x1c0
 13000 4041 01       		.byte	0x1
 13001 4042 53400000 		.4byte	0x4053
 13002 4046 39       		.uleb128 0x39
 13003 4047 58080000 		.4byte	.LASF855
 13004 404b 01       		.byte	0x1
 13005 404c C201     		.2byte	0x1c2
 13006 404e 25000000 		.4byte	0x25
 13007 4052 00       		.byte	0
 13008 4053 33       		.uleb128 0x33
 13009 4054 551A0000 		.4byte	.LASF856
 13010 4058 01       		.byte	0x1
 13011 4059 B301     		.2byte	0x1b3
 13012 405b 01       		.byte	0x1
 13013 405c 33       		.uleb128 0x33
 13014 405d 631C0000 		.4byte	.LASF857
 13015 4061 01       		.byte	0x1
 13016 4062 9001     		.2byte	0x190
 13017 4064 01       		.byte	0x1
 13018 4065 34       		.uleb128 0x34
 13019 4066 8F160000 		.4byte	.LASF859
 13020 406a 01       		.byte	0x1
 13021 406b 5901     		.2byte	0x159
 13022 406d D20E0000 		.4byte	0xed2
 13023 4071 00000000 		.4byte	.LFB278
 13024 4075 A8010000 		.4byte	.LFE278-.LFB278
 13025 4079 01       		.uleb128 0x1
 13026 407a 9C       		.byte	0x9c
 13027 407b 90400000 		.4byte	0x4090
 13028 407f 35       		.uleb128 0x35
 13029 4080 7D110000 		.4byte	.LASF860
 13030 4084 01       		.byte	0x1
ARM GAS  /tmp/ccIHdayg.s 			page 231


 13031 4085 5901     		.2byte	0x159
 13032 4087 D20E0000 		.4byte	0xed2
 13033 408b 33020000 		.4byte	.LLST2
 13034 408f 00       		.byte	0
 13035 4090 4D       		.uleb128 0x4d
 13036 4091 B70C0000 		.4byte	.LASF884
 13037 4095 01       		.byte	0x1
 13038 4096 4601     		.2byte	0x146
 13039 4098 25000000 		.4byte	0x25
 13040 409c 01       		.byte	0x1
 13041 409d 4E       		.uleb128 0x4e
 13042 409e FF240000 		.4byte	.LASF862
 13043 40a2 01       		.byte	0x1
 13044 40a3 2801     		.2byte	0x128
 13045 40a5 00000000 		.4byte	.LFB276
 13046 40a9 D4000000 		.4byte	.LFE276-.LFB276
 13047 40ad 01       		.uleb128 0x1
 13048 40ae 9C       		.byte	0x9c
 13049 40af 06410000 		.4byte	0x4106
 13050 40b3 44       		.uleb128 0x44
 13051 40b4 AD440000 		.4byte	0x44ad
 13052 40b8 3A000000 		.4byte	.LBB60
 13053 40bc 00000000 		.4byte	.Ldebug_ranges0+0
 13054 40c0 01       		.byte	0x1
 13055 40c1 3001     		.2byte	0x130
 13056 40c3 D1400000 		.4byte	0x40d1
 13057 40c7 40       		.uleb128 0x40
 13058 40c8 B9440000 		.4byte	0x44b9
 13059 40cc D1020000 		.4byte	.LLST0
 13060 40d0 00       		.byte	0
 13061 40d1 44       		.uleb128 0x44
 13062 40d2 AD440000 		.4byte	0x44ad
 13063 40d6 3C000000 		.4byte	.LBB63
 13064 40da 18000000 		.4byte	.Ldebug_ranges0+0x18
 13065 40de 01       		.byte	0x1
 13066 40df 3A01     		.2byte	0x13a
 13067 40e1 EB400000 		.4byte	0x40eb
 13068 40e5 4F       		.uleb128 0x4f
 13069 40e6 B9440000 		.4byte	0x44b9
 13070 40ea 00       		.byte	0
 13071 40eb 50       		.uleb128 0x50
 13072 40ec AD440000 		.4byte	0x44ad
 13073 40f0 44000000 		.4byte	.LBB66
 13074 40f4 30000000 		.4byte	.Ldebug_ranges0+0x30
 13075 40f8 01       		.byte	0x1
 13076 40f9 3101     		.2byte	0x131
 13077 40fb 40       		.uleb128 0x40
 13078 40fc B9440000 		.4byte	0x44b9
 13079 4100 E9020000 		.4byte	.LLST1
 13080 4104 00       		.byte	0
 13081 4105 00       		.byte	0
 13082 4106 51       		.uleb128 0x51
 13083 4107 81210000 		.4byte	.LASF863
 13084 410b 01       		.byte	0x1
 13085 410c 2301     		.2byte	0x123
 13086 410e 25000000 		.4byte	0x25
 13087 4112 00000000 		.4byte	.LFB275
ARM GAS  /tmp/ccIHdayg.s 			page 232


 13088 4116 0C000000 		.4byte	.LFE275-.LFB275
 13089 411a 01       		.uleb128 0x1
 13090 411b 9C       		.byte	0x9c
 13091 411c 2A410000 		.4byte	0x412a
 13092 4120 4A       		.uleb128 0x4a
 13093 4121 08000000 		.4byte	.LVL210
 13094 4125 5E3A0000 		.4byte	0x3a5e
 13095 4129 00       		.byte	0
 13096 412a 51       		.uleb128 0x51
 13097 412b 9D250000 		.4byte	.LASF864
 13098 412f 01       		.byte	0x1
 13099 4130 2001     		.2byte	0x120
 13100 4132 25000000 		.4byte	0x25
 13101 4136 00000000 		.4byte	.LFB274
 13102 413a 0C000000 		.4byte	.LFE274-.LFB274
 13103 413e 01       		.uleb128 0x1
 13104 413f 9C       		.byte	0x9c
 13105 4140 4E410000 		.4byte	0x414e
 13106 4144 4A       		.uleb128 0x4a
 13107 4145 08000000 		.4byte	.LVL209
 13108 4149 5E3A0000 		.4byte	0x3a5e
 13109 414d 00       		.byte	0
 13110 414e 52       		.uleb128 0x52
 13111 414f A3050000 		.4byte	.LASF865
 13112 4153 01       		.byte	0x1
 13113 4154 1D01     		.2byte	0x11d
 13114 4156 25000000 		.4byte	0x25
 13115 415a 00000000 		.4byte	.LFB273
 13116 415e 0C000000 		.4byte	.LFE273-.LFB273
 13117 4162 01       		.uleb128 0x1
 13118 4163 9C       		.byte	0x9c
 13119 4164 52       		.uleb128 0x52
 13120 4165 8E050000 		.4byte	.LASF866
 13121 4169 01       		.byte	0x1
 13122 416a 1A01     		.2byte	0x11a
 13123 416c 25000000 		.4byte	0x25
 13124 4170 00000000 		.4byte	.LFB272
 13125 4174 0C000000 		.4byte	.LFE272-.LFB272
 13126 4178 01       		.uleb128 0x1
 13127 4179 9C       		.byte	0x9c
 13128 417a 52       		.uleb128 0x52
 13129 417b 7A1D0000 		.4byte	.LASF867
 13130 417f 01       		.byte	0x1
 13131 4180 1701     		.2byte	0x117
 13132 4182 B9000000 		.4byte	0xb9
 13133 4186 00000000 		.4byte	.LFB271
 13134 418a 0C000000 		.4byte	.LFE271-.LFB271
 13135 418e 01       		.uleb128 0x1
 13136 418f 9C       		.byte	0x9c
 13137 4190 52       		.uleb128 0x52
 13138 4191 0D010000 		.4byte	.LASF868
 13139 4195 01       		.byte	0x1
 13140 4196 1401     		.2byte	0x114
 13141 4198 B9000000 		.4byte	0xb9
 13142 419c 00000000 		.4byte	.LFB270
 13143 41a0 0C000000 		.4byte	.LFE270-.LFB270
 13144 41a4 01       		.uleb128 0x1
ARM GAS  /tmp/ccIHdayg.s 			page 233


 13145 41a5 9C       		.byte	0x9c
 13146 41a6 52       		.uleb128 0x52
 13147 41a7 6F0C0000 		.4byte	.LASF869
 13148 41ab 01       		.byte	0x1
 13149 41ac 1101     		.2byte	0x111
 13150 41ae 25000000 		.4byte	0x25
 13151 41b2 00000000 		.4byte	.LFB269
 13152 41b6 0C000000 		.4byte	.LFE269-.LFB269
 13153 41ba 01       		.uleb128 0x1
 13154 41bb 9C       		.byte	0x9c
 13155 41bc 52       		.uleb128 0x52
 13156 41bd 7B180000 		.4byte	.LASF870
 13157 41c1 01       		.byte	0x1
 13158 41c2 0E01     		.2byte	0x10e
 13159 41c4 D9000000 		.4byte	0xd9
 13160 41c8 00000000 		.4byte	.LFB268
 13161 41cc 24000000 		.4byte	.LFE268-.LFB268
 13162 41d0 01       		.uleb128 0x1
 13163 41d1 9C       		.byte	0x9c
 13164 41d2 52       		.uleb128 0x52
 13165 41d3 B01F0000 		.4byte	.LASF871
 13166 41d7 01       		.byte	0x1
 13167 41d8 0B01     		.2byte	0x10b
 13168 41da 25000000 		.4byte	0x25
 13169 41de 00000000 		.4byte	.LFB267
 13170 41e2 0C000000 		.4byte	.LFE267-.LFB267
 13171 41e6 01       		.uleb128 0x1
 13172 41e7 9C       		.byte	0x9c
 13173 41e8 52       		.uleb128 0x52
 13174 41e9 4A220000 		.4byte	.LASF872
 13175 41ed 01       		.byte	0x1
 13176 41ee 0801     		.2byte	0x108
 13177 41f0 25000000 		.4byte	0x25
 13178 41f4 00000000 		.4byte	.LFB266
 13179 41f8 0C000000 		.4byte	.LFE266-.LFB266
 13180 41fc 01       		.uleb128 0x1
 13181 41fd 9C       		.byte	0x9c
 13182 41fe 52       		.uleb128 0x52
 13183 41ff 23020000 		.4byte	.LASF873
 13184 4203 01       		.byte	0x1
 13185 4204 0501     		.2byte	0x105
 13186 4206 25000000 		.4byte	0x25
 13187 420a 00000000 		.4byte	.LFB265
 13188 420e 0C000000 		.4byte	.LFE265-.LFB265
 13189 4212 01       		.uleb128 0x1
 13190 4213 9C       		.byte	0x9c
 13191 4214 53       		.uleb128 0x53
 13192 4215 A1190000 		.4byte	.LASF874
 13193 4219 01       		.byte	0x1
 13194 421a FB       		.byte	0xfb
 13195 421b 00000000 		.4byte	.LFB264
 13196 421f 40000000 		.4byte	.LFE264-.LFB264
 13197 4223 01       		.uleb128 0x1
 13198 4224 9C       		.byte	0x9c
 13199 4225 8C420000 		.4byte	0x428c
 13200 4229 46       		.uleb128 0x46
 13201 422a 0C000000 		.4byte	.LVL204
ARM GAS  /tmp/ccIHdayg.s 			page 234


 13202 422e 1D4B0000 		.4byte	0x4b1d
 13203 4232 46       		.uleb128 0x46
 13204 4233 12000000 		.4byte	.LVL205
 13205 4237 284B0000 		.4byte	0x4b28
 13206 423b 47       		.uleb128 0x47
 13207 423c 1E000000 		.4byte	.LVL206
 13208 4240 903F0000 		.4byte	0x3f90
 13209 4244 61420000 		.4byte	0x4261
 13210 4248 43       		.uleb128 0x43
 13211 4249 02       		.uleb128 0x2
 13212 424a 90       		.byte	0x90
 13213 424b 40       		.uleb128 0x40
 13214 424c 07       		.uleb128 0x7
 13215 424d F4       		.byte	0xf4
 13216 424e 25       		.uleb128 0x25
 13217 424f 04       		.byte	0x4
 13218 4250 00000000 		.4byte	0
 13219 4254 43       		.uleb128 0x43
 13220 4255 02       		.uleb128 0x2
 13221 4256 90       		.byte	0x90
 13222 4257 41       		.uleb128 0x41
 13223 4258 07       		.uleb128 0x7
 13224 4259 F4       		.byte	0xf4
 13225 425a 25       		.uleb128 0x25
 13226 425b 04       		.byte	0x4
 13227 425c 00000000 		.4byte	0
 13228 4260 00       		.byte	0
 13229 4261 47       		.uleb128 0x47
 13230 4262 24000000 		.4byte	.LVL207
 13231 4266 334B0000 		.4byte	0x4b33
 13232 426a 78420000 		.4byte	0x4278
 13233 426e 43       		.uleb128 0x43
 13234 426f 01       		.uleb128 0x1
 13235 4270 50       		.byte	0x50
 13236 4271 05       		.uleb128 0x5
 13237 4272 03       		.byte	0x3
 13238 4273 00000000 		.4byte	terminal_render
 13239 4277 00       		.byte	0
 13240 4278 54       		.uleb128 0x54
 13241 4279 2E000000 		.4byte	.LVL208
 13242 427d 334B0000 		.4byte	0x4b33
 13243 4281 43       		.uleb128 0x43
 13244 4282 01       		.uleb128 0x1
 13245 4283 50       		.byte	0x50
 13246 4284 05       		.uleb128 0x5
 13247 4285 03       		.byte	0x3
 13248 4286 00000000 		.4byte	terminal_sample
 13249 428a 00       		.byte	0
 13250 428b 00       		.byte	0
 13251 428c 53       		.uleb128 0x53
 13252 428d 25250000 		.4byte	.LASF875
 13253 4291 01       		.byte	0x1
 13254 4292 E4       		.byte	0xe4
 13255 4293 00000000 		.4byte	.LFB263
 13256 4297 88000000 		.4byte	.LFE263-.LFB263
 13257 429b 01       		.uleb128 0x1
 13258 429c 9C       		.byte	0x9c
ARM GAS  /tmp/ccIHdayg.s 			page 235


 13259 429d 68430000 		.4byte	0x4368
 13260 42a1 47       		.uleb128 0x47
 13261 42a2 16000000 		.4byte	.LVL200
 13262 42a6 3E4B0000 		.4byte	0x4b3e
 13263 42aa D3420000 		.4byte	0x42d3
 13264 42ae 43       		.uleb128 0x43
 13265 42af 01       		.uleb128 0x1
 13266 42b0 50       		.byte	0x50
 13267 42b1 05       		.uleb128 0x5
 13268 42b2 03       		.byte	0x3
 13269 42b3 60000000 		.4byte	.LC15
 13270 42b7 43       		.uleb128 0x43
 13271 42b8 01       		.uleb128 0x1
 13272 42b9 51       		.byte	0x51
 13273 42ba 05       		.uleb128 0x5
 13274 42bb 03       		.byte	0x3
 13275 42bc 28000000 		.4byte	.LC14
 13276 42c0 43       		.uleb128 0x43
 13277 42c1 01       		.uleb128 0x1
 13278 42c2 52       		.byte	0x52
 13279 42c3 05       		.uleb128 0x5
 13280 42c4 03       		.byte	0x3
 13281 42c5 00000000 		.4byte	.LC13
 13282 42c9 43       		.uleb128 0x43
 13283 42ca 01       		.uleb128 0x1
 13284 42cb 53       		.byte	0x53
 13285 42cc 05       		.uleb128 0x5
 13286 42cd 03       		.byte	0x3
 13287 42ce 00000000 		.4byte	terminal_render
 13288 42d2 00       		.byte	0
 13289 42d3 47       		.uleb128 0x47
 13290 42d4 22000000 		.4byte	.LVL201
 13291 42d8 3E4B0000 		.4byte	0x4b3e
 13292 42dc 05430000 		.4byte	0x4305
 13293 42e0 43       		.uleb128 0x43
 13294 42e1 01       		.uleb128 0x1
 13295 42e2 50       		.byte	0x50
 13296 42e3 05       		.uleb128 0x5
 13297 42e4 03       		.byte	0x3
 13298 42e5 BC000000 		.4byte	.LC18
 13299 42e9 43       		.uleb128 0x43
 13300 42ea 01       		.uleb128 0x1
 13301 42eb 51       		.byte	0x51
 13302 42ec 05       		.uleb128 0x5
 13303 42ed 03       		.byte	0x3
 13304 42ee 94000000 		.4byte	.LC17
 13305 42f2 43       		.uleb128 0x43
 13306 42f3 01       		.uleb128 0x1
 13307 42f4 52       		.byte	0x52
 13308 42f5 05       		.uleb128 0x5
 13309 42f6 03       		.byte	0x3
 13310 42f7 74000000 		.4byte	.LC16
 13311 42fb 43       		.uleb128 0x43
 13312 42fc 01       		.uleb128 0x1
 13313 42fd 53       		.byte	0x53
 13314 42fe 05       		.uleb128 0x5
 13315 42ff 03       		.byte	0x3
ARM GAS  /tmp/ccIHdayg.s 			page 236


 13316 4300 00000000 		.4byte	terminal_sample
 13317 4304 00       		.byte	0
 13318 4305 47       		.uleb128 0x47
 13319 4306 2E000000 		.4byte	.LVL202
 13320 430a 3E4B0000 		.4byte	0x4b3e
 13321 430e 37430000 		.4byte	0x4337
 13322 4312 43       		.uleb128 0x43
 13323 4313 01       		.uleb128 0x1
 13324 4314 50       		.byte	0x50
 13325 4315 05       		.uleb128 0x5
 13326 4316 03       		.byte	0x3
 13327 4317 20010000 		.4byte	.LC21
 13328 431b 43       		.uleb128 0x43
 13329 431c 01       		.uleb128 0x1
 13330 431d 51       		.byte	0x51
 13331 431e 05       		.uleb128 0x5
 13332 431f 03       		.byte	0x3
 13333 4320 EC000000 		.4byte	.LC20
 13334 4324 43       		.uleb128 0x43
 13335 4325 01       		.uleb128 0x1
 13336 4326 52       		.byte	0x52
 13337 4327 05       		.uleb128 0x5
 13338 4328 03       		.byte	0x3
 13339 4329 D0000000 		.4byte	.LC19
 13340 432d 43       		.uleb128 0x43
 13341 432e 01       		.uleb128 0x1
 13342 432f 53       		.byte	0x53
 13343 4330 05       		.uleb128 0x5
 13344 4331 03       		.byte	0x3
 13345 4332 00000000 		.4byte	terminal_experiment
 13346 4336 00       		.byte	0
 13347 4337 42       		.uleb128 0x42
 13348 4338 3E000000 		.4byte	.LVL203
 13349 433c 494B0000 		.4byte	0x4b49
 13350 4340 43       		.uleb128 0x43
 13351 4341 01       		.uleb128 0x1
 13352 4342 50       		.byte	0x50
 13353 4343 05       		.uleb128 0x5
 13354 4344 03       		.byte	0x3
 13355 4345 00000000 		.4byte	.LANCHOR78
 13356 4349 43       		.uleb128 0x43
 13357 434a 01       		.uleb128 0x1
 13358 434b 51       		.byte	0x51
 13359 434c 03       		.uleb128 0x3
 13360 434d 0A       		.byte	0xa
 13361 434e A005     		.2byte	0x5a0
 13362 4350 43       		.uleb128 0x43
 13363 4351 01       		.uleb128 0x1
 13364 4352 52       		.byte	0x52
 13365 4353 02       		.uleb128 0x2
 13366 4354 08       		.byte	0x8
 13367 4355 40       		.byte	0x40
 13368 4356 43       		.uleb128 0x43
 13369 4357 01       		.uleb128 0x1
 13370 4358 53       		.byte	0x53
 13371 4359 05       		.uleb128 0x5
 13372 435a 03       		.byte	0x3
ARM GAS  /tmp/ccIHdayg.s 			page 237


 13373 435b 00000000 		.4byte	balance_thread
 13374 435f 43       		.uleb128 0x43
 13375 4360 02       		.uleb128 0x2
 13376 4361 7D       		.byte	0x7d
 13377 4362 00       		.sleb128 0
 13378 4363 02       		.uleb128 0x2
 13379 4364 74       		.byte	0x74
 13380 4365 00       		.sleb128 0
 13381 4366 00       		.byte	0
 13382 4367 00       		.byte	0
 13383 4368 53       		.uleb128 0x53
 13384 4369 4C1E0000 		.4byte	.LASF876
 13385 436d 01       		.byte	0x1
 13386 436e AA       		.byte	0xaa
 13387 436f 00000000 		.4byte	.LFB262
 13388 4373 64030000 		.4byte	.LFE262-.LFB262
 13389 4377 01       		.uleb128 0x1
 13390 4378 9C       		.byte	0x9c
 13391 4379 A1440000 		.4byte	0x44a1
 13392 437d 55       		.uleb128 0x55
 13393 437e 6E1F0000 		.4byte	.LASF877
 13394 4382 01       		.byte	0x1
 13395 4383 AA       		.byte	0xaa
 13396 4384 A1440000 		.4byte	0x44a1
 13397 4388 01030000 		.4byte	.LLST44
 13398 438c 55       		.uleb128 0x55
 13399 438d 7F200000 		.4byte	.LASF878
 13400 4391 01       		.byte	0x1
 13401 4392 AA       		.byte	0xaa
 13402 4393 A7440000 		.4byte	0x44a7
 13403 4397 2D030000 		.4byte	.LLST45
 13404 439b 56       		.uleb128 0x56
 13405 439c C0010000 		.4byte	.LBB350
 13406 43a0 38000000 		.4byte	.LBE350-.LBB350
 13407 43a4 C1430000 		.4byte	0x43c1
 13408 43a8 57       		.uleb128 0x57
 13409 43a9 645400   		.ascii	"dT\000"
 13410 43ac 01       		.byte	0x1
 13411 43ad C1       		.byte	0xc1
 13412 43ae 25000000 		.4byte	0x25
 13413 43b2 80030000 		.4byte	.LLST46
 13414 43b6 58       		.uleb128 0x58
 13415 43b7 524300   		.ascii	"RC\000"
 13416 43ba 01       		.byte	0x1
 13417 43bb C2       		.byte	0xc2
 13418 43bc 25000000 		.4byte	0x25
 13419 43c0 00       		.byte	0
 13420 43c1 56       		.uleb128 0x56
 13421 43c2 00020000 		.4byte	.LBB351
 13422 43c6 38000000 		.4byte	.LBE351-.LBB351
 13423 43ca E7430000 		.4byte	0x43e7
 13424 43ce 57       		.uleb128 0x57
 13425 43cf 645400   		.ascii	"dT\000"
 13426 43d2 01       		.byte	0x1
 13427 43d3 C6       		.byte	0xc6
 13428 43d4 25000000 		.4byte	0x25
 13429 43d8 94030000 		.4byte	.LLST47
ARM GAS  /tmp/ccIHdayg.s 			page 238


 13430 43dc 58       		.uleb128 0x58
 13431 43dd 524300   		.ascii	"RC\000"
 13432 43e0 01       		.byte	0x1
 13433 43e1 C7       		.byte	0xc7
 13434 43e2 25000000 		.4byte	0x25
 13435 43e6 00       		.byte	0
 13436 43e7 56       		.uleb128 0x56
 13437 43e8 46020000 		.4byte	.LBB352
 13438 43ec 1A000000 		.4byte	.LBE352-.LBB352
 13439 43f0 1B440000 		.4byte	0x441b
 13440 43f4 57       		.uleb128 0x57
 13441 43f5 466300   		.ascii	"Fc\000"
 13442 43f8 01       		.byte	0x1
 13443 43f9 CB       		.byte	0xcb
 13444 43fa 25000000 		.4byte	0x25
 13445 43fe A8030000 		.4byte	.LLST48
 13446 4402 42       		.uleb128 0x42
 13447 4403 60020000 		.4byte	.LVL193
 13448 4407 CB440000 		.4byte	0x44cb
 13449 440b 43       		.uleb128 0x43
 13450 440c 01       		.uleb128 0x1
 13451 440d 50       		.byte	0x50
 13452 440e 05       		.uleb128 0x5
 13453 440f 03       		.byte	0x3
 13454 4410 00000000 		.4byte	.LANCHOR5
 13455 4414 43       		.uleb128 0x43
 13456 4415 01       		.uleb128 0x1
 13457 4416 51       		.byte	0x51
 13458 4417 01       		.uleb128 0x1
 13459 4418 30       		.byte	0x30
 13460 4419 00       		.byte	0
 13461 441a 00       		.byte	0
 13462 441b 56       		.uleb128 0x56
 13463 441c 6E020000 		.4byte	.LBB353
 13464 4420 1A000000 		.4byte	.LBE353-.LBB353
 13465 4424 4F440000 		.4byte	0x444f
 13466 4428 57       		.uleb128 0x57
 13467 4429 466300   		.ascii	"Fc\000"
 13468 442c 01       		.byte	0x1
 13469 442d CF       		.byte	0xcf
 13470 442e 25000000 		.4byte	0x25
 13471 4432 C9030000 		.4byte	.LLST49
 13472 4436 42       		.uleb128 0x42
 13473 4437 88020000 		.4byte	.LVL196
 13474 443b CB440000 		.4byte	0x44cb
 13475 443f 43       		.uleb128 0x43
 13476 4440 01       		.uleb128 0x1
 13477 4441 50       		.byte	0x50
 13478 4442 05       		.uleb128 0x5
 13479 4443 03       		.byte	0x3
 13480 4444 00000000 		.4byte	.LANCHOR6
 13481 4448 43       		.uleb128 0x43
 13482 4449 01       		.uleb128 0x1
 13483 444a 51       		.byte	0x51
 13484 444b 01       		.uleb128 0x1
 13485 444c 31       		.byte	0x31
 13486 444d 00       		.byte	0
ARM GAS  /tmp/ccIHdayg.s 			page 239


 13487 444e 00       		.byte	0
 13488 444f 56       		.uleb128 0x56
 13489 4450 96020000 		.4byte	.LBB354
 13490 4454 1A000000 		.4byte	.LBE354-.LBB354
 13491 4458 83440000 		.4byte	0x4483
 13492 445c 57       		.uleb128 0x57
 13493 445d 466300   		.ascii	"Fc\000"
 13494 4460 01       		.byte	0x1
 13495 4461 D3       		.byte	0xd3
 13496 4462 25000000 		.4byte	0x25
 13497 4466 EA030000 		.4byte	.LLST50
 13498 446a 42       		.uleb128 0x42
 13499 446b B0020000 		.4byte	.LVL199
 13500 446f CB440000 		.4byte	0x44cb
 13501 4473 43       		.uleb128 0x43
 13502 4474 01       		.uleb128 0x1
 13503 4475 50       		.byte	0x50
 13504 4476 05       		.uleb128 0x5
 13505 4477 03       		.byte	0x3
 13506 4478 00000000 		.4byte	.LANCHOR14
 13507 447c 43       		.uleb128 0x43
 13508 447d 01       		.uleb128 0x1
 13509 447e 51       		.byte	0x51
 13510 447f 01       		.uleb128 0x1
 13511 4480 30       		.byte	0x30
 13512 4481 00       		.byte	0
 13513 4482 00       		.byte	0
 13514 4483 42       		.uleb128 0x42
 13515 4484 18000000 		.4byte	.LVL182
 13516 4488 544B0000 		.4byte	0x4b54
 13517 448c 43       		.uleb128 0x43
 13518 448d 01       		.uleb128 0x1
 13519 448e 50       		.byte	0x50
 13520 448f 02       		.uleb128 0x2
 13521 4490 74       		.byte	0x74
 13522 4491 00       		.sleb128 0
 13523 4492 43       		.uleb128 0x43
 13524 4493 01       		.uleb128 0x1
 13525 4494 51       		.byte	0x51
 13526 4495 03       		.uleb128 0x3
 13527 4496 F3       		.byte	0xf3
 13528 4497 01       		.uleb128 0x1
 13529 4498 50       		.byte	0x50
 13530 4499 43       		.uleb128 0x43
 13531 449a 01       		.uleb128 0x1
 13532 449b 52       		.byte	0x52
 13533 449c 02       		.uleb128 0x2
 13534 449d 08       		.byte	0x8
 13535 449e E8       		.byte	0xe8
 13536 449f 00       		.byte	0
 13537 44a0 00       		.byte	0
 13538 44a1 0B       		.uleb128 0xb
 13539 44a2 04       		.byte	0x4
 13540 44a3 50120000 		.4byte	0x1250
 13541 44a7 0B       		.uleb128 0xb
 13542 44a8 04       		.byte	0x4
 13543 44a9 73130000 		.4byte	0x1373
ARM GAS  /tmp/ccIHdayg.s 			page 240


 13544 44ad 59       		.uleb128 0x59
 13545 44ae B7000000 		.4byte	.LASF927
 13546 44b2 01       		.byte	0x1
 13547 44b3 A4       		.byte	0xa4
 13548 44b4 01       		.byte	0x1
 13549 44b5 C5440000 		.4byte	0x44c5
 13550 44b9 5A       		.uleb128 0x5a
 13551 44ba CD020000 		.4byte	.LASF879
 13552 44be 01       		.byte	0x1
 13553 44bf A4       		.byte	0xa4
 13554 44c0 C5440000 		.4byte	0x44c5
 13555 44c4 00       		.byte	0
 13556 44c5 0B       		.uleb128 0xb
 13557 44c6 04       		.byte	0x4
 13558 44c7 6F340000 		.4byte	0x346f
 13559 44cb 53       		.uleb128 0x53
 13560 44cc AC210000 		.4byte	.LASF880
 13561 44d0 01       		.byte	0x1
 13562 44d1 93       		.byte	0x93
 13563 44d2 00000000 		.4byte	.LFB260
 13564 44d6 90000000 		.4byte	.LFE260-.LFB260
 13565 44da 01       		.uleb128 0x1
 13566 44db 9C       		.byte	0x9c
 13567 44dc 52450000 		.4byte	0x4552
 13568 44e0 55       		.uleb128 0x55
 13569 44e1 CD020000 		.4byte	.LASF879
 13570 44e5 01       		.byte	0x1
 13571 44e6 93       		.byte	0x93
 13572 44e7 C5440000 		.4byte	0x44c5
 13573 44eb 0B040000 		.4byte	.LLST40
 13574 44ef 55       		.uleb128 0x55
 13575 44f0 B6090000 		.4byte	.LASF271
 13576 44f4 01       		.byte	0x1
 13577 44f5 93       		.byte	0x93
 13578 44f6 94340000 		.4byte	0x3494
 13579 44fa 29040000 		.4byte	.LLST41
 13580 44fe 5B       		.uleb128 0x5b
 13581 44ff 466300   		.ascii	"Fc\000"
 13582 4502 01       		.byte	0x1
 13583 4503 93       		.byte	0x93
 13584 4504 25000000 		.4byte	0x25
 13585 4508 4A040000 		.4byte	.LLST42
 13586 450c 57       		.uleb128 0x57
 13587 450d 4B00     		.ascii	"K\000"
 13588 450f 01       		.byte	0x1
 13589 4510 94       		.byte	0x94
 13590 4511 25000000 		.4byte	0x25
 13591 4515 6E040000 		.4byte	.LLST43
 13592 4519 5C       		.uleb128 0x5c
 13593 451a 5100     		.ascii	"Q\000"
 13594 451c 01       		.byte	0x1
 13595 451d 95       		.byte	0x95
 13596 451e 25000000 		.4byte	0x25
 13597 4522 04       		.byte	0x4
 13598 4523 F4FD343F 		.4byte	0x3f34fdf4
 13599 4527 31       		.uleb128 0x31
 13600 4528 632A0000 		.4byte	.LASF881
ARM GAS  /tmp/ccIHdayg.s 			page 241


 13601 452c 01       		.byte	0x1
 13602 452d 96       		.byte	0x96
 13603 452e 25000000 		.4byte	0x25
 13604 4532 02       		.uleb128 0x2
 13605 4533 90       		.byte	0x90
 13606 4534 4D       		.uleb128 0x4d
 13607 4535 42       		.uleb128 0x42
 13608 4536 12000000 		.4byte	.LVL174
 13609 453a 634B0000 		.4byte	0x4b63
 13610 453e 43       		.uleb128 0x43
 13611 453f 02       		.uleb128 0x2
 13612 4540 90       		.byte	0x90
 13613 4541 40       		.uleb128 0x40
 13614 4542 0D       		.uleb128 0xd
 13615 4543 F3       		.byte	0xf3
 13616 4544 03       		.uleb128 0x3
 13617 4545 F5       		.byte	0xf5
 13618 4546 40       		.uleb128 0x40
 13619 4547 25       		.uleb128 0x25
 13620 4548 F4       		.byte	0xf4
 13621 4549 25       		.uleb128 0x25
 13622 454a 04       		.byte	0x4
 13623 454b DB0F4940 		.4byte	0x40490fdb
 13624 454f 1E       		.byte	0x1e
 13625 4550 00       		.byte	0
 13626 4551 00       		.byte	0
 13627 4552 5D       		.uleb128 0x5d
 13628 4553 6F2A0000 		.4byte	.LASF928
 13629 4557 01       		.byte	0x1
 13630 4558 8D       		.byte	0x8d
 13631 4559 25000000 		.4byte	0x25
 13632 455d 01       		.byte	0x1
 13633 455e 83450000 		.4byte	0x4583
 13634 4562 5A       		.uleb128 0x5a
 13635 4563 CD020000 		.4byte	.LASF879
 13636 4567 01       		.byte	0x1
 13637 4568 8D       		.byte	0x8d
 13638 4569 C5440000 		.4byte	0x44c5
 13639 456d 5E       		.uleb128 0x5e
 13640 456e 696E00   		.ascii	"in\000"
 13641 4571 01       		.byte	0x1
 13642 4572 8D       		.byte	0x8d
 13643 4573 25000000 		.4byte	0x25
 13644 4577 58       		.uleb128 0x58
 13645 4578 6F757400 		.ascii	"out\000"
 13646 457c 01       		.byte	0x1
 13647 457d 8E       		.byte	0x8e
 13648 457e 25000000 		.4byte	0x25
 13649 4582 00       		.byte	0
 13650 4583 5F       		.uleb128 0x5f
 13651 4584 0C260000 		.4byte	.LASF882
 13652 4588 03       		.byte	0x3
 13653 4589 84       		.byte	0x84
 13654 458a 03       		.byte	0x3
 13655 458b 9B450000 		.4byte	0x459b
 13656 458f 5A       		.uleb128 0x5a
 13657 4590 4F280000 		.4byte	.LASF883
ARM GAS  /tmp/ccIHdayg.s 			page 242


 13658 4594 03       		.byte	0x3
 13659 4595 84       		.byte	0x84
 13660 4596 C60B0000 		.4byte	0xbc6
 13661 459a 00       		.byte	0
 13662 459b 60       		.uleb128 0x60
 13663 459c 37250000 		.4byte	.LASF885
 13664 45a0 04       		.byte	0x4
 13665 45a1 E7       		.byte	0xe7
 13666 45a2 D20E0000 		.4byte	0xed2
 13667 45a6 03       		.byte	0x3
 13668 45a7 60       		.uleb128 0x60
 13669 45a8 A21F0000 		.4byte	.LASF886
 13670 45ac 04       		.byte	0x4
 13671 45ad AE       		.byte	0xae
 13672 45ae B6020000 		.4byte	0x2b6
 13673 45b2 03       		.byte	0x3
 13674 45b3 4C       		.uleb128 0x4c
 13675 45b4 E5220000 		.4byte	.LASF888
 13676 45b8 02       		.byte	0x2
 13677 45b9 0901     		.2byte	0x109
 13678 45bb 72010000 		.4byte	0x172
 13679 45bf 03       		.byte	0x3
 13680 45c0 D1450000 		.4byte	0x45d1
 13681 45c4 37       		.uleb128 0x37
 13682 45c5 02160000 		.4byte	.LASF889
 13683 45c9 02       		.byte	0x2
 13684 45ca 0901     		.2byte	0x109
 13685 45cc 72010000 		.4byte	0x172
 13686 45d0 00       		.byte	0
 13687 45d1 60       		.uleb128 0x60
 13688 45d2 D6160000 		.4byte	.LASF890
 13689 45d6 02       		.byte	0x2
 13690 45d7 E4       		.byte	0xe4
 13691 45d8 72010000 		.4byte	0x172
 13692 45dc 03       		.byte	0x3
 13693 45dd 61       		.uleb128 0x61
 13694 45de 903F0000 		.4byte	0x3f90
 13695 45e2 00000000 		.4byte	.LFB286
 13696 45e6 B0000000 		.4byte	.LFE286-.LFB286
 13697 45ea 01       		.uleb128 0x1
 13698 45eb 9C       		.byte	0x9c
 13699 45ec EE460000 		.4byte	0x46ee
 13700 45f0 40       		.uleb128 0x40
 13701 45f1 9D3F0000 		.4byte	0x3f9d
 13702 45f5 82040000 		.4byte	.LLST4
 13703 45f9 40       		.uleb128 0x40
 13704 45fa A93F0000 		.4byte	0x3fa9
 13705 45fe DA040000 		.4byte	.LLST5
 13706 4602 62       		.uleb128 0x62
 13707 4603 903F0000 		.4byte	0x3f90
 13708 4607 1A000000 		.4byte	.LBB80
 13709 460b 62000000 		.4byte	.LBE80-.LBB80
 13710 460f C7460000 		.4byte	0x46c7
 13711 4613 40       		.uleb128 0x40
 13712 4614 A93F0000 		.4byte	0x3fa9
 13713 4618 FA040000 		.4byte	.LLST6
 13714 461c 40       		.uleb128 0x40
ARM GAS  /tmp/ccIHdayg.s 			page 243


 13715 461d 9D3F0000 		.4byte	0x3f9d
 13716 4621 0E050000 		.4byte	.LLST7
 13717 4625 63       		.uleb128 0x63
 13718 4626 B53F0000 		.4byte	0x3fb5
 13719 462a 48000000 		.4byte	.Ldebug_ranges0+0x48
 13720 462e A7460000 		.4byte	0x46a7
 13721 4632 49       		.uleb128 0x49
 13722 4633 B63F0000 		.4byte	0x3fb6
 13723 4637 32050000 		.4byte	.LLST8
 13724 463b 64       		.uleb128 0x64
 13725 463c C03F0000 		.4byte	0x3fc0
 13726 4640 68000000 		.4byte	.Ldebug_ranges0+0x68
 13727 4644 49       		.uleb128 0x49
 13728 4645 C13F0000 		.4byte	0x3fc1
 13729 4649 69050000 		.4byte	.LLST9
 13730 464d 44       		.uleb128 0x44
 13731 464e B3450000 		.4byte	0x45b3
 13732 4652 1C000000 		.4byte	.LBB84
 13733 4656 90000000 		.4byte	.Ldebug_ranges0+0x90
 13734 465a 01       		.byte	0x1
 13735 465b 5102     		.2byte	0x251
 13736 465d 7B460000 		.4byte	0x467b
 13737 4661 40       		.uleb128 0x40
 13738 4662 C4450000 		.4byte	0x45c4
 13739 4666 87050000 		.4byte	.LLST10
 13740 466a 48       		.uleb128 0x48
 13741 466b D1450000 		.4byte	0x45d1
 13742 466f 1C000000 		.4byte	.LBB86
 13743 4673 A8000000 		.4byte	.Ldebug_ranges0+0xa8
 13744 4677 02       		.byte	0x2
 13745 4678 0B01     		.2byte	0x10b
 13746 467a 00       		.byte	0
 13747 467b 47       		.uleb128 0x47
 13748 467c 44000000 		.4byte	.LVL24
 13749 4680 5E4A0000 		.4byte	0x4a5e
 13750 4684 8F460000 		.4byte	0x468f
 13751 4688 43       		.uleb128 0x43
 13752 4689 01       		.uleb128 0x1
 13753 468a 50       		.byte	0x50
 13754 468b 02       		.uleb128 0x2
 13755 468c 74       		.byte	0x74
 13756 468d 00       		.sleb128 0
 13757 468e 00       		.byte	0
 13758 468f 42       		.uleb128 0x42
 13759 4690 78000000 		.4byte	.LVL28
 13760 4694 6F4B0000 		.4byte	0x4b6f
 13761 4698 43       		.uleb128 0x43
 13762 4699 02       		.uleb128 0x2
 13763 469a 90       		.byte	0x90
 13764 469b 40       		.uleb128 0x40
 13765 469c 07       		.uleb128 0x7
 13766 469d F5       		.byte	0xf5
 13767 469e 52       		.uleb128 0x52
 13768 469f 25       		.uleb128 0x25
 13769 46a0 F5       		.byte	0xf5
 13770 46a1 53       		.uleb128 0x53
 13771 46a2 25       		.uleb128 0x25
ARM GAS  /tmp/ccIHdayg.s 			page 244


 13772 46a3 1C       		.byte	0x1c
 13773 46a4 00       		.byte	0
 13774 46a5 00       		.byte	0
 13775 46a6 00       		.byte	0
 13776 46a7 46       		.uleb128 0x46
 13777 46a8 2E000000 		.4byte	.LVL20
 13778 46ac 7A4B0000 		.4byte	0x4b7a
 13779 46b0 42       		.uleb128 0x42
 13780 46b1 36000000 		.4byte	.LVL21
 13781 46b5 854B0000 		.4byte	0x4b85
 13782 46b9 43       		.uleb128 0x43
 13783 46ba 02       		.uleb128 0x2
 13784 46bb 90       		.byte	0x90
 13785 46bc 40       		.uleb128 0x40
 13786 46bd 07       		.uleb128 0x7
 13787 46be F5       		.byte	0xf5
 13788 46bf 52       		.uleb128 0x52
 13789 46c0 25       		.uleb128 0x25
 13790 46c1 F5       		.byte	0xf5
 13791 46c2 53       		.uleb128 0x53
 13792 46c3 25       		.uleb128 0x25
 13793 46c4 22       		.byte	0x22
 13794 46c5 00       		.byte	0
 13795 46c6 00       		.byte	0
 13796 46c7 46       		.uleb128 0x46
 13797 46c8 12000000 		.4byte	.LVL18
 13798 46cc 904B0000 		.4byte	0x4b90
 13799 46d0 46       		.uleb128 0x46
 13800 46d1 8C000000 		.4byte	.LVL31
 13801 46d5 7A4B0000 		.4byte	0x4b7a
 13802 46d9 54       		.uleb128 0x54
 13803 46da 9C000000 		.4byte	.LVL33
 13804 46de 854B0000 		.4byte	0x4b85
 13805 46e2 43       		.uleb128 0x43
 13806 46e3 02       		.uleb128 0x2
 13807 46e4 90       		.byte	0x90
 13808 46e5 40       		.uleb128 0x40
 13809 46e6 05       		.uleb128 0x5
 13810 46e7 F3       		.byte	0xf3
 13811 46e8 03       		.uleb128 0x3
 13812 46e9 F5       		.byte	0xf5
 13813 46ea 40       		.uleb128 0x40
 13814 46eb 25       		.uleb128 0x25
 13815 46ec 00       		.byte	0
 13816 46ed 00       		.byte	0
 13817 46ee 61       		.uleb128 0x61
 13818 46ef D03F0000 		.4byte	0x3fd0
 13819 46f3 00000000 		.4byte	.LFB285
 13820 46f7 D4000000 		.4byte	.LFE285-.LFB285
 13821 46fb 01       		.uleb128 0x1
 13822 46fc 9C       		.byte	0x9c
 13823 46fd 8D470000 		.4byte	0x478d
 13824 4701 62       		.uleb128 0x62
 13825 4702 DD3F0000 		.4byte	0x3fdd
 13826 4706 32000000 		.4byte	.LBB107
 13827 470a 4C000000 		.4byte	.LBE107-.LBB107
 13828 470e 7A470000 		.4byte	0x477a
ARM GAS  /tmp/ccIHdayg.s 			page 245


 13829 4712 49       		.uleb128 0x49
 13830 4713 DE3F0000 		.4byte	0x3fde
 13831 4717 9B050000 		.4byte	.LLST11
 13832 471b 64       		.uleb128 0x64
 13833 471c E83F0000 		.4byte	0x3fe8
 13834 4720 C0000000 		.4byte	.Ldebug_ranges0+0xc0
 13835 4724 49       		.uleb128 0x49
 13836 4725 E93F0000 		.4byte	0x3fe9
 13837 4729 C6050000 		.4byte	.LLST12
 13838 472d 44       		.uleb128 0x44
 13839 472e B3450000 		.4byte	0x45b3
 13840 4732 32000000 		.4byte	.LBB109
 13841 4736 E0000000 		.4byte	.Ldebug_ranges0+0xe0
 13842 473a 01       		.byte	0x1
 13843 473b 3D02     		.2byte	0x23d
 13844 473d 5B470000 		.4byte	0x475b
 13845 4741 40       		.uleb128 0x40
 13846 4742 C4450000 		.4byte	0x45c4
 13847 4746 E4050000 		.4byte	.LLST13
 13848 474a 48       		.uleb128 0x48
 13849 474b D1450000 		.4byte	0x45d1
 13850 474f 32000000 		.4byte	.LBB111
 13851 4753 F8000000 		.4byte	.Ldebug_ranges0+0xf8
 13852 4757 02       		.byte	0x2
 13853 4758 0B01     		.2byte	0x10b
 13854 475a 00       		.byte	0
 13855 475b 47       		.uleb128 0x47
 13856 475c 4A000000 		.4byte	.LVL38
 13857 4760 5E4A0000 		.4byte	0x4a5e
 13858 4764 6F470000 		.4byte	0x476f
 13859 4768 43       		.uleb128 0x43
 13860 4769 01       		.uleb128 0x1
 13861 476a 50       		.byte	0x50
 13862 476b 02       		.uleb128 0x2
 13863 476c 74       		.byte	0x74
 13864 476d 00       		.sleb128 0
 13865 476e 00       		.byte	0
 13866 476f 46       		.uleb128 0x46
 13867 4770 7A000000 		.4byte	.LVL42
 13868 4774 9B4B0000 		.4byte	0x4b9b
 13869 4778 00       		.byte	0
 13870 4779 00       		.byte	0
 13871 477a 46       		.uleb128 0x46
 13872 477b 24000000 		.4byte	.LVL34
 13873 477f 904B0000 		.4byte	0x4b90
 13874 4783 46       		.uleb128 0x46
 13875 4784 2C000000 		.4byte	.LVL35
 13876 4788 A64B0000 		.4byte	0x4ba6
 13877 478c 00       		.byte	0
 13878 478d 61       		.uleb128 0x61
 13879 478e CF3A0000 		.4byte	0x3acf
 13880 4792 00000000 		.4byte	.LFB289
 13881 4796 48000000 		.4byte	.LFE289-.LFB289
 13882 479a 01       		.uleb128 0x1
 13883 479b 9C       		.byte	0x9c
 13884 479c 20480000 		.4byte	0x4820
 13885 47a0 40       		.uleb128 0x40
ARM GAS  /tmp/ccIHdayg.s 			page 246


 13886 47a1 DC3A0000 		.4byte	0x3adc
 13887 47a5 F8050000 		.4byte	.LLST30
 13888 47a9 40       		.uleb128 0x40
 13889 47aa E83A0000 		.4byte	0x3ae8
 13890 47ae 32060000 		.4byte	.LLST31
 13891 47b2 62       		.uleb128 0x62
 13892 47b3 CF3A0000 		.4byte	0x3acf
 13893 47b7 0C000000 		.4byte	.LBB334
 13894 47bb 24000000 		.4byte	.LBE334-.LBB334
 13895 47bf 0C480000 		.4byte	0x480c
 13896 47c3 65       		.uleb128 0x65
 13897 47c4 DC3A0000 		.4byte	0x3adc
 13898 47c8 03       		.byte	0x3
 13899 47c9 40       		.uleb128 0x40
 13900 47ca E83A0000 		.4byte	0x3ae8
 13901 47ce 77060000 		.4byte	.LLST32
 13902 47d2 47       		.uleb128 0x47
 13903 47d3 22000000 		.4byte	.LVL139
 13904 47d7 B14B0000 		.4byte	0x4bb1
 13905 47db F2470000 		.4byte	0x47f2
 13906 47df 43       		.uleb128 0x43
 13907 47e0 01       		.uleb128 0x1
 13908 47e1 51       		.byte	0x51
 13909 47e2 05       		.uleb128 0x5
 13910 47e3 03       		.byte	0x3
 13911 47e4 00000000 		.4byte	.LC2
 13912 47e8 43       		.uleb128 0x43
 13913 47e9 01       		.uleb128 0x1
 13914 47ea 52       		.byte	0x52
 13915 47eb 05       		.uleb128 0x5
 13916 47ec 03       		.byte	0x3
 13917 47ed 00000000 		.4byte	.LANCHOR64
 13918 47f1 00       		.byte	0
 13919 47f2 42       		.uleb128 0x42
 13920 47f3 2C000000 		.4byte	.LVL140
 13921 47f7 B14B0000 		.4byte	0x4bb1
 13922 47fb 43       		.uleb128 0x43
 13923 47fc 01       		.uleb128 0x1
 13924 47fd 51       		.byte	0x51
 13925 47fe 05       		.uleb128 0x5
 13926 47ff 03       		.byte	0x3
 13927 4800 00000000 		.4byte	.LC2
 13928 4804 43       		.uleb128 0x43
 13929 4805 01       		.uleb128 0x1
 13930 4806 52       		.byte	0x52
 13931 4807 02       		.uleb128 0x2
 13932 4808 76       		.byte	0x76
 13933 4809 00       		.sleb128 0
 13934 480a 00       		.byte	0
 13935 480b 00       		.byte	0
 13936 480c 54       		.uleb128 0x54
 13937 480d 0A000000 		.4byte	.LVL135
 13938 4811 694A0000 		.4byte	0x4a69
 13939 4815 43       		.uleb128 0x43
 13940 4816 01       		.uleb128 0x1
 13941 4817 50       		.byte	0x50
 13942 4818 05       		.uleb128 0x5
ARM GAS  /tmp/ccIHdayg.s 			page 247


 13943 4819 03       		.byte	0x3
 13944 481a 04000000 		.4byte	.LC3
 13945 481e 00       		.byte	0
 13946 481f 00       		.byte	0
 13947 4820 61       		.uleb128 0x61
 13948 4821 F53A0000 		.4byte	0x3af5
 13949 4825 00000000 		.4byte	.LFB288
 13950 4829 6C000000 		.4byte	.LFE288-.LFB288
 13951 482d 01       		.uleb128 0x1
 13952 482e 9C       		.byte	0x9c
 13953 482f C9480000 		.4byte	0x48c9
 13954 4833 40       		.uleb128 0x40
 13955 4834 023B0000 		.4byte	0x3b02
 13956 4838 98060000 		.4byte	.LLST33
 13957 483c 40       		.uleb128 0x40
 13958 483d 0E3B0000 		.4byte	0x3b0e
 13959 4841 EA060000 		.4byte	.LLST34
 13960 4845 63       		.uleb128 0x63
 13961 4846 F53A0000 		.4byte	0x3af5
 13962 484a 30040000 		.4byte	.Ldebug_ranges0+0x430
 13963 484e B5480000 		.4byte	0x48b5
 13964 4852 40       		.uleb128 0x40
 13965 4853 0E3B0000 		.4byte	0x3b0e
 13966 4857 2F070000 		.4byte	.LLST35
 13967 485b 40       		.uleb128 0x40
 13968 485c 023B0000 		.4byte	0x3b02
 13969 4860 50070000 		.4byte	.LLST36
 13970 4864 64       		.uleb128 0x64
 13971 4865 1A3B0000 		.4byte	0x3b1a
 13972 4869 30040000 		.4byte	.Ldebug_ranges0+0x430
 13973 486d 66       		.uleb128 0x66
 13974 486e 1B3B0000 		.4byte	0x3b1b
 13975 4872 02       		.uleb128 0x2
 13976 4873 91       		.byte	0x91
 13977 4874 68       		.sleb128 -24
 13978 4875 66       		.uleb128 0x66
 13979 4876 273B0000 		.4byte	0x3b27
 13980 487a 02       		.uleb128 0x2
 13981 487b 91       		.byte	0x91
 13982 487c 6C       		.sleb128 -20
 13983 487d 47       		.uleb128 0x47
 13984 487e 2A000000 		.4byte	.LVL149
 13985 4882 B14B0000 		.4byte	0x4bb1
 13986 4886 9A480000 		.4byte	0x489a
 13987 488a 43       		.uleb128 0x43
 13988 488b 01       		.uleb128 0x1
 13989 488c 51       		.byte	0x51
 13990 488d 05       		.uleb128 0x5
 13991 488e 03       		.byte	0x3
 13992 488f 00000000 		.4byte	.LC2
 13993 4893 43       		.uleb128 0x43
 13994 4894 01       		.uleb128 0x1
 13995 4895 52       		.byte	0x52
 13996 4896 02       		.uleb128 0x2
 13997 4897 7D       		.byte	0x7d
 13998 4898 00       		.sleb128 0
 13999 4899 00       		.byte	0
ARM GAS  /tmp/ccIHdayg.s 			page 248


 14000 489a 42       		.uleb128 0x42
 14001 489b 48000000 		.4byte	.LVL151
 14002 489f B14B0000 		.4byte	0x4bb1
 14003 48a3 43       		.uleb128 0x43
 14004 48a4 01       		.uleb128 0x1
 14005 48a5 51       		.byte	0x51
 14006 48a6 05       		.uleb128 0x5
 14007 48a7 03       		.byte	0x3
 14008 48a8 00000000 		.4byte	.LC2
 14009 48ac 43       		.uleb128 0x43
 14010 48ad 01       		.uleb128 0x1
 14011 48ae 52       		.byte	0x52
 14012 48af 02       		.uleb128 0x2
 14013 48b0 91       		.byte	0x91
 14014 48b1 6C       		.sleb128 -20
 14015 48b2 00       		.byte	0
 14016 48b3 00       		.byte	0
 14017 48b4 00       		.byte	0
 14018 48b5 42       		.uleb128 0x42
 14019 48b6 10000000 		.4byte	.LVL144
 14020 48ba 694A0000 		.4byte	0x4a69
 14021 48be 43       		.uleb128 0x43
 14022 48bf 01       		.uleb128 0x1
 14023 48c0 50       		.byte	0x50
 14024 48c1 05       		.uleb128 0x5
 14025 48c2 03       		.byte	0x3
 14026 48c3 00000000 		.4byte	.LC4
 14027 48c7 00       		.byte	0
 14028 48c8 00       		.byte	0
 14029 48c9 61       		.uleb128 0x61
 14030 48ca 893A0000 		.4byte	0x3a89
 14031 48ce 00000000 		.4byte	.LFB290
 14032 48d2 E0000000 		.4byte	.LFE290-.LFB290
 14033 48d6 01       		.uleb128 0x1
 14034 48d7 9C       		.byte	0x9c
 14035 48d8 174A0000 		.4byte	0x4a17
 14036 48dc 40       		.uleb128 0x40
 14037 48dd 963A0000 		.4byte	0x3a96
 14038 48e1 71070000 		.4byte	.LLST37
 14039 48e5 40       		.uleb128 0x40
 14040 48e6 A23A0000 		.4byte	0x3aa2
 14041 48ea AB070000 		.4byte	.LLST38
 14042 48ee 63       		.uleb128 0x63
 14043 48ef 893A0000 		.4byte	0x3a89
 14044 48f3 48040000 		.4byte	.Ldebug_ranges0+0x448
 14045 48f7 034A0000 		.4byte	0x4a03
 14046 48fb 65       		.uleb128 0x65
 14047 48fc 963A0000 		.4byte	0x3a96
 14048 4900 03       		.byte	0x3
 14049 4901 45       		.uleb128 0x45
 14050 4902 A23A0000 		.4byte	0x3aa2
 14051 4906 01       		.uleb128 0x1
 14052 4907 54       		.byte	0x54
 14053 4908 64       		.uleb128 0x64
 14054 4909 AE3A0000 		.4byte	0x3aae
 14055 490d 48040000 		.4byte	.Ldebug_ranges0+0x448
 14056 4911 66       		.uleb128 0x66
ARM GAS  /tmp/ccIHdayg.s 			page 249


 14057 4912 AF3A0000 		.4byte	0x3aaf
 14058 4916 02       		.uleb128 0x2
 14059 4917 91       		.byte	0x91
 14060 4918 68       		.sleb128 -24
 14061 4919 66       		.uleb128 0x66
 14062 491a BB3A0000 		.4byte	0x3abb
 14063 491e 02       		.uleb128 0x2
 14064 491f 91       		.byte	0x91
 14065 4920 6C       		.sleb128 -20
 14066 4921 47       		.uleb128 0x47
 14067 4922 26000000 		.4byte	.LVL160
 14068 4926 B14B0000 		.4byte	0x4bb1
 14069 492a 3E490000 		.4byte	0x493e
 14070 492e 43       		.uleb128 0x43
 14071 492f 01       		.uleb128 0x1
 14072 4930 51       		.byte	0x51
 14073 4931 05       		.uleb128 0x5
 14074 4932 03       		.byte	0x3
 14075 4933 00000000 		.4byte	.LC2
 14076 4937 43       		.uleb128 0x43
 14077 4938 01       		.uleb128 0x1
 14078 4939 52       		.byte	0x52
 14079 493a 02       		.uleb128 0x2
 14080 493b 7D       		.byte	0x7d
 14081 493c 00       		.sleb128 0
 14082 493d 00       		.byte	0
 14083 493e 47       		.uleb128 0x47
 14084 493f 30000000 		.4byte	.LVL161
 14085 4943 B14B0000 		.4byte	0x4bb1
 14086 4947 5B490000 		.4byte	0x495b
 14087 494b 43       		.uleb128 0x43
 14088 494c 01       		.uleb128 0x1
 14089 494d 51       		.byte	0x51
 14090 494e 05       		.uleb128 0x5
 14091 494f 03       		.byte	0x3
 14092 4950 00000000 		.4byte	.LC2
 14093 4954 43       		.uleb128 0x43
 14094 4955 01       		.uleb128 0x1
 14095 4956 52       		.byte	0x52
 14096 4957 02       		.uleb128 0x2
 14097 4958 91       		.byte	0x91
 14098 4959 6C       		.sleb128 -20
 14099 495a 00       		.byte	0
 14100 495b 47       		.uleb128 0x47
 14101 495c 50000000 		.4byte	.LVL162
 14102 4960 BC4B0000 		.4byte	0x4bbc
 14103 4964 7B490000 		.4byte	0x497b
 14104 4968 43       		.uleb128 0x43
 14105 4969 01       		.uleb128 0x1
 14106 496a 50       		.byte	0x50
 14107 496b 05       		.uleb128 0x5
 14108 496c 03       		.byte	0x3
 14109 496d 18000000 		.4byte	.LC6
 14110 4971 43       		.uleb128 0x43
 14111 4972 01       		.uleb128 0x1
 14112 4973 51       		.byte	0x51
 14113 4974 05       		.uleb128 0x5
ARM GAS  /tmp/ccIHdayg.s 			page 250


 14114 4975 03       		.byte	0x3
 14115 4976 00000000 		.4byte	.LC5
 14116 497a 00       		.byte	0
 14117 497b 47       		.uleb128 0x47
 14118 497c 56000000 		.4byte	.LVL163
 14119 4980 C74B0000 		.4byte	0x4bc7
 14120 4984 92490000 		.4byte	0x4992
 14121 4988 43       		.uleb128 0x43
 14122 4989 01       		.uleb128 0x1
 14123 498a 50       		.byte	0x50
 14124 498b 05       		.uleb128 0x5
 14125 498c 03       		.byte	0x3
 14126 498d 28000000 		.4byte	.LC7
 14127 4991 00       		.byte	0
 14128 4992 47       		.uleb128 0x47
 14129 4993 5C000000 		.4byte	.LVL164
 14130 4997 C74B0000 		.4byte	0x4bc7
 14131 499b A9490000 		.4byte	0x49a9
 14132 499f 43       		.uleb128 0x43
 14133 49a0 01       		.uleb128 0x1
 14134 49a1 50       		.byte	0x50
 14135 49a2 05       		.uleb128 0x5
 14136 49a3 03       		.byte	0x3
 14137 49a4 2C000000 		.4byte	.LC8
 14138 49a8 00       		.byte	0
 14139 49a9 47       		.uleb128 0x47
 14140 49aa 62000000 		.4byte	.LVL165
 14141 49ae C74B0000 		.4byte	0x4bc7
 14142 49b2 C0490000 		.4byte	0x49c0
 14143 49b6 43       		.uleb128 0x43
 14144 49b7 01       		.uleb128 0x1
 14145 49b8 50       		.byte	0x50
 14146 49b9 05       		.uleb128 0x5
 14147 49ba 03       		.byte	0x3
 14148 49bb 30000000 		.4byte	.LC9
 14149 49bf 00       		.byte	0
 14150 49c0 47       		.uleb128 0x47
 14151 49c1 68000000 		.4byte	.LVL166
 14152 49c5 C74B0000 		.4byte	0x4bc7
 14153 49c9 D7490000 		.4byte	0x49d7
 14154 49cd 43       		.uleb128 0x43
 14155 49ce 01       		.uleb128 0x1
 14156 49cf 50       		.byte	0x50
 14157 49d0 05       		.uleb128 0x5
 14158 49d1 03       		.byte	0x3
 14159 49d2 34000000 		.4byte	.LC10
 14160 49d6 00       		.byte	0
 14161 49d7 47       		.uleb128 0x47
 14162 49d8 6E000000 		.4byte	.LVL167
 14163 49dc C74B0000 		.4byte	0x4bc7
 14164 49e0 EE490000 		.4byte	0x49ee
 14165 49e4 43       		.uleb128 0x43
 14166 49e5 01       		.uleb128 0x1
 14167 49e6 50       		.byte	0x50
 14168 49e7 05       		.uleb128 0x5
 14169 49e8 03       		.byte	0x3
 14170 49e9 38000000 		.4byte	.LC11
ARM GAS  /tmp/ccIHdayg.s 			page 251


 14171 49ed 00       		.byte	0
 14172 49ee 42       		.uleb128 0x42
 14173 49ef 74000000 		.4byte	.LVL168
 14174 49f3 C74B0000 		.4byte	0x4bc7
 14175 49f7 43       		.uleb128 0x43
 14176 49f8 01       		.uleb128 0x1
 14177 49f9 50       		.byte	0x50
 14178 49fa 05       		.uleb128 0x5
 14179 49fb 03       		.byte	0x3
 14180 49fc 3C000000 		.4byte	.LC12
 14181 4a00 00       		.byte	0
 14182 4a01 00       		.byte	0
 14183 4a02 00       		.byte	0
 14184 4a03 42       		.uleb128 0x42
 14185 4a04 0E000000 		.4byte	.LVL155
 14186 4a08 694A0000 		.4byte	0x4a69
 14187 4a0c 43       		.uleb128 0x43
 14188 4a0d 01       		.uleb128 0x1
 14189 4a0e 50       		.byte	0x50
 14190 4a0f 05       		.uleb128 0x5
 14191 4a10 03       		.byte	0x3
 14192 4a11 04000000 		.4byte	.LC3
 14193 4a15 00       		.byte	0
 14194 4a16 00       		.byte	0
 14195 4a17 61       		.uleb128 0x61
 14196 4a18 52450000 		.4byte	0x4552
 14197 4a1c 00000000 		.4byte	.LFB259
 14198 4a20 46000000 		.4byte	.LFE259-.LFB259
 14199 4a24 01       		.uleb128 0x1
 14200 4a25 9C       		.byte	0x9c
 14201 4a26 434A0000 		.4byte	0x4a43
 14202 4a2a 45       		.uleb128 0x45
 14203 4a2b 62450000 		.4byte	0x4562
 14204 4a2f 01       		.uleb128 0x1
 14205 4a30 50       		.byte	0x50
 14206 4a31 40       		.uleb128 0x40
 14207 4a32 6D450000 		.4byte	0x456d
 14208 4a36 E2070000 		.4byte	.LLST39
 14209 4a3a 66       		.uleb128 0x66
 14210 4a3b 77450000 		.4byte	0x4577
 14211 4a3f 02       		.uleb128 0x2
 14212 4a40 90       		.byte	0x90
 14213 4a41 40       		.uleb128 0x40
 14214 4a42 00       		.byte	0
 14215 4a43 61       		.uleb128 0x61
 14216 4a44 AD440000 		.4byte	0x44ad
 14217 4a48 00000000 		.4byte	.LFB261
 14218 4a4c 08000000 		.4byte	.LFE261-.LFB261
 14219 4a50 01       		.uleb128 0x1
 14220 4a51 9C       		.byte	0x9c
 14221 4a52 5E4A0000 		.4byte	0x4a5e
 14222 4a56 45       		.uleb128 0x45
 14223 4a57 B9440000 		.4byte	0x44b9
 14224 4a5b 01       		.uleb128 0x1
 14225 4a5c 50       		.byte	0x50
 14226 4a5d 00       		.byte	0
 14227 4a5e 67       		.uleb128 0x67
ARM GAS  /tmp/ccIHdayg.s 			page 252


 14228 4a5f BF290000 		.4byte	.LASF891
 14229 4a63 BF290000 		.4byte	.LASF891
 14230 4a67 2E       		.byte	0x2e
 14231 4a68 3D       		.byte	0x3d
 14232 4a69 67       		.uleb128 0x67
 14233 4a6a 5F000000 		.4byte	.LASF892
 14234 4a6e 5F000000 		.4byte	.LASF892
 14235 4a72 28       		.byte	0x28
 14236 4a73 26       		.byte	0x26
 14237 4a74 67       		.uleb128 0x67
 14238 4a75 FF120000 		.4byte	.LASF893
 14239 4a79 FF120000 		.4byte	.LASF893
 14240 4a7d 28       		.byte	0x28
 14241 4a7e 36       		.byte	0x36
 14242 4a7f 67       		.uleb128 0x67
 14243 4a80 23010000 		.4byte	.LASF894
 14244 4a84 23010000 		.4byte	.LASF894
 14245 4a88 28       		.byte	0x28
 14246 4a89 37       		.byte	0x37
 14247 4a8a 68       		.uleb128 0x68
 14248 4a8b A6210000 		.4byte	.LASF895
 14249 4a8f A6210000 		.4byte	.LASF895
 14250 4a93 2D       		.byte	0x2d
 14251 4a94 8001     		.2byte	0x180
 14252 4a96 68       		.uleb128 0x68
 14253 4a97 96120000 		.4byte	.LASF896
 14254 4a9b 96120000 		.4byte	.LASF896
 14255 4a9f 2D       		.byte	0x2d
 14256 4aa0 8101     		.2byte	0x181
 14257 4aa2 68       		.uleb128 0x68
 14258 4aa3 ED060000 		.4byte	.LASF897
 14259 4aa7 ED060000 		.4byte	.LASF897
 14260 4aab 2D       		.byte	0x2d
 14261 4aac 7A01     		.2byte	0x17a
 14262 4aae 67       		.uleb128 0x67
 14263 4aaf 03190000 		.4byte	.LASF898
 14264 4ab3 03190000 		.4byte	.LASF898
 14265 4ab7 27       		.byte	0x27
 14266 4ab8 44       		.byte	0x44
 14267 4ab9 67       		.uleb128 0x67
 14268 4aba 44170000 		.4byte	.LASF899
 14269 4abe 44170000 		.4byte	.LASF899
 14270 4ac2 27       		.byte	0x27
 14271 4ac3 52       		.byte	0x52
 14272 4ac4 67       		.uleb128 0x67
 14273 4ac5 031A0000 		.4byte	.LASF900
 14274 4ac9 031A0000 		.4byte	.LASF900
 14275 4acd 2F       		.byte	0x2f
 14276 4ace 2F       		.byte	0x2f
 14277 4acf 67       		.uleb128 0x67
 14278 4ad0 B81A0000 		.4byte	.LASF901
 14279 4ad4 B81A0000 		.4byte	.LASF901
 14280 4ad8 2F       		.byte	0x2f
 14281 4ad9 2E       		.byte	0x2e
 14282 4ada 68       		.uleb128 0x68
 14283 4adb 2B060000 		.4byte	.LASF902
 14284 4adf 2B060000 		.4byte	.LASF902
ARM GAS  /tmp/ccIHdayg.s 			page 253


 14285 4ae3 2D       		.byte	0x2d
 14286 4ae4 5A01     		.2byte	0x15a
 14287 4ae6 67       		.uleb128 0x67
 14288 4ae7 8A110000 		.4byte	.LASF903
 14289 4aeb 8A110000 		.4byte	.LASF903
 14290 4aef 2F       		.byte	0x2f
 14291 4af0 33       		.byte	0x33
 14292 4af1 67       		.uleb128 0x67
 14293 4af2 D0130000 		.4byte	.LASF904
 14294 4af6 D0130000 		.4byte	.LASF904
 14295 4afa 27       		.byte	0x27
 14296 4afb 3A       		.byte	0x3a
 14297 4afc 67       		.uleb128 0x67
 14298 4afd 971D0000 		.4byte	.LASF905
 14299 4b01 971D0000 		.4byte	.LASF905
 14300 4b05 27       		.byte	0x27
 14301 4b06 3C       		.byte	0x3c
 14302 4b07 67       		.uleb128 0x67
 14303 4b08 B3240000 		.4byte	.LASF906
 14304 4b0c B3240000 		.4byte	.LASF906
 14305 4b10 04       		.byte	0x4
 14306 4b11 96       		.byte	0x96
 14307 4b12 67       		.uleb128 0x67
 14308 4b13 521C0000 		.4byte	.LASF907
 14309 4b17 521C0000 		.4byte	.LASF907
 14310 4b1b 2F       		.byte	0x2f
 14311 4b1c 2D       		.byte	0x2d
 14312 4b1d 67       		.uleb128 0x67
 14313 4b1e 39270000 		.4byte	.LASF908
 14314 4b22 39270000 		.4byte	.LASF908
 14315 4b26 04       		.byte	0x4
 14316 4b27 95       		.byte	0x95
 14317 4b28 67       		.uleb128 0x67
 14318 4b29 350B0000 		.4byte	.LASF909
 14319 4b2d 350B0000 		.4byte	.LASF909
 14320 4b31 04       		.byte	0x4
 14321 4b32 9D       		.byte	0x9d
 14322 4b33 67       		.uleb128 0x67
 14323 4b34 C60D0000 		.4byte	.LASF910
 14324 4b38 C60D0000 		.4byte	.LASF910
 14325 4b3c 30       		.byte	0x30
 14326 4b3d 22       		.byte	0x22
 14327 4b3e 67       		.uleb128 0x67
 14328 4b3f D60A0000 		.4byte	.LASF911
 14329 4b43 D60A0000 		.4byte	.LASF911
 14330 4b47 30       		.byte	0x30
 14331 4b48 1D       		.byte	0x1d
 14332 4b49 67       		.uleb128 0x67
 14333 4b4a C40B0000 		.4byte	.LASF912
 14334 4b4e C40B0000 		.4byte	.LASF912
 14335 4b52 04       		.byte	0x4
 14336 4b53 89       		.byte	0x89
 14337 4b54 69       		.uleb128 0x69
 14338 4b55 B8050000 		.4byte	.LASF929
 14339 4b59 82220000 		.4byte	.LASF930
 14340 4b5d 33       		.byte	0x33
 14341 4b5e 00       		.byte	0
ARM GAS  /tmp/ccIHdayg.s 			page 254


 14342 4b5f B8050000 		.4byte	.LASF929
 14343 4b63 68       		.uleb128 0x68
 14344 4b64 5A230000 		.4byte	.LASF913
 14345 4b68 5A230000 		.4byte	.LASF913
 14346 4b6c 2D       		.byte	0x2d
 14347 4b6d 5B01     		.2byte	0x15b
 14348 4b6f 67       		.uleb128 0x67
 14349 4b70 59160000 		.4byte	.LASF914
 14350 4b74 59160000 		.4byte	.LASF914
 14351 4b78 2E       		.byte	0x2e
 14352 4b79 28       		.byte	0x28
 14353 4b7a 67       		.uleb128 0x67
 14354 4b7b 5A020000 		.4byte	.LASF915
 14355 4b7f 5A020000 		.4byte	.LASF915
 14356 4b83 27       		.byte	0x27
 14357 4b84 66       		.byte	0x66
 14358 4b85 67       		.uleb128 0x67
 14359 4b86 9A280000 		.4byte	.LASF916
 14360 4b8a 9A280000 		.4byte	.LASF916
 14361 4b8e 27       		.byte	0x27
 14362 4b8f 2E       		.byte	0x2e
 14363 4b90 67       		.uleb128 0x67
 14364 4b91 03150000 		.4byte	.LASF917
 14365 4b95 03150000 		.4byte	.LASF917
 14366 4b99 31       		.byte	0x31
 14367 4b9a 29       		.byte	0x29
 14368 4b9b 67       		.uleb128 0x67
 14369 4b9c 68270000 		.4byte	.LASF918
 14370 4ba0 68270000 		.4byte	.LASF918
 14371 4ba4 2E       		.byte	0x2e
 14372 4ba5 29       		.byte	0x29
 14373 4ba6 67       		.uleb128 0x67
 14374 4ba7 B3260000 		.4byte	.LASF919
 14375 4bab B3260000 		.4byte	.LASF919
 14376 4baf 27       		.byte	0x27
 14377 4bb0 2F       		.byte	0x2f
 14378 4bb1 67       		.uleb128 0x67
 14379 4bb2 680C0000 		.4byte	.LASF920
 14380 4bb6 680C0000 		.4byte	.LASF920
 14381 4bba 32       		.byte	0x32
 14382 4bbb CC       		.byte	0xcc
 14383 4bbc 67       		.uleb128 0x67
 14384 4bbd 96100000 		.4byte	.LASF921
 14385 4bc1 96100000 		.4byte	.LASF921
 14386 4bc5 28       		.byte	0x28
 14387 4bc6 34       		.byte	0x34
 14388 4bc7 67       		.uleb128 0x67
 14389 4bc8 16160000 		.4byte	.LASF922
 14390 4bcc 16160000 		.4byte	.LASF922
 14391 4bd0 28       		.byte	0x28
 14392 4bd1 35       		.byte	0x35
 14393 4bd2 00       		.byte	0
 14394              		.section	.debug_abbrev,"",%progbits
 14395              	.Ldebug_abbrev0:
 14396 0000 01       		.uleb128 0x1
 14397 0001 11       		.uleb128 0x11
 14398 0002 01       		.byte	0x1
ARM GAS  /tmp/ccIHdayg.s 			page 255


 14399 0003 25       		.uleb128 0x25
 14400 0004 0E       		.uleb128 0xe
 14401 0005 13       		.uleb128 0x13
 14402 0006 0B       		.uleb128 0xb
 14403 0007 03       		.uleb128 0x3
 14404 0008 0E       		.uleb128 0xe
 14405 0009 1B       		.uleb128 0x1b
 14406 000a 0E       		.uleb128 0xe
 14407 000b 55       		.uleb128 0x55
 14408 000c 17       		.uleb128 0x17
 14409 000d 11       		.uleb128 0x11
 14410 000e 01       		.uleb128 0x1
 14411 000f 10       		.uleb128 0x10
 14412 0010 17       		.uleb128 0x17
 14413 0011 00       		.byte	0
 14414 0012 00       		.byte	0
 14415 0013 02       		.uleb128 0x2
 14416 0014 24       		.uleb128 0x24
 14417 0015 00       		.byte	0
 14418 0016 0B       		.uleb128 0xb
 14419 0017 0B       		.uleb128 0xb
 14420 0018 3E       		.uleb128 0x3e
 14421 0019 0B       		.uleb128 0xb
 14422 001a 03       		.uleb128 0x3
 14423 001b 0E       		.uleb128 0xe
 14424 001c 00       		.byte	0
 14425 001d 00       		.byte	0
 14426 001e 03       		.uleb128 0x3
 14427 001f 24       		.uleb128 0x24
 14428 0020 00       		.byte	0
 14429 0021 0B       		.uleb128 0xb
 14430 0022 0B       		.uleb128 0xb
 14431 0023 3E       		.uleb128 0x3e
 14432 0024 0B       		.uleb128 0xb
 14433 0025 03       		.uleb128 0x3
 14434 0026 08       		.uleb128 0x8
 14435 0027 00       		.byte	0
 14436 0028 00       		.byte	0
 14437 0029 04       		.uleb128 0x4
 14438 002a 16       		.uleb128 0x16
 14439 002b 00       		.byte	0
 14440 002c 03       		.uleb128 0x3
 14441 002d 0E       		.uleb128 0xe
 14442 002e 3A       		.uleb128 0x3a
 14443 002f 0B       		.uleb128 0xb
 14444 0030 3B       		.uleb128 0x3b
 14445 0031 0B       		.uleb128 0xb
 14446 0032 49       		.uleb128 0x49
 14447 0033 13       		.uleb128 0x13
 14448 0034 00       		.byte	0
 14449 0035 00       		.byte	0
 14450 0036 05       		.uleb128 0x5
 14451 0037 26       		.uleb128 0x26
 14452 0038 00       		.byte	0
 14453 0039 49       		.uleb128 0x49
 14454 003a 13       		.uleb128 0x13
 14455 003b 00       		.byte	0
ARM GAS  /tmp/ccIHdayg.s 			page 256


 14456 003c 00       		.byte	0
 14457 003d 06       		.uleb128 0x6
 14458 003e 35       		.uleb128 0x35
 14459 003f 00       		.byte	0
 14460 0040 49       		.uleb128 0x49
 14461 0041 13       		.uleb128 0x13
 14462 0042 00       		.byte	0
 14463 0043 00       		.byte	0
 14464 0044 07       		.uleb128 0x7
 14465 0045 13       		.uleb128 0x13
 14466 0046 01       		.byte	0x1
 14467 0047 03       		.uleb128 0x3
 14468 0048 0E       		.uleb128 0xe
 14469 0049 0B       		.uleb128 0xb
 14470 004a 0B       		.uleb128 0xb
 14471 004b 3A       		.uleb128 0x3a
 14472 004c 0B       		.uleb128 0xb
 14473 004d 3B       		.uleb128 0x3b
 14474 004e 0B       		.uleb128 0xb
 14475 004f 01       		.uleb128 0x1
 14476 0050 13       		.uleb128 0x13
 14477 0051 00       		.byte	0
 14478 0052 00       		.byte	0
 14479 0053 08       		.uleb128 0x8
 14480 0054 0D       		.uleb128 0xd
 14481 0055 00       		.byte	0
 14482 0056 03       		.uleb128 0x3
 14483 0057 0E       		.uleb128 0xe
 14484 0058 3A       		.uleb128 0x3a
 14485 0059 0B       		.uleb128 0xb
 14486 005a 3B       		.uleb128 0x3b
 14487 005b 0B       		.uleb128 0xb
 14488 005c 49       		.uleb128 0x49
 14489 005d 13       		.uleb128 0x13
 14490 005e 38       		.uleb128 0x38
 14491 005f 0B       		.uleb128 0xb
 14492 0060 00       		.byte	0
 14493 0061 00       		.byte	0
 14494 0062 09       		.uleb128 0x9
 14495 0063 0D       		.uleb128 0xd
 14496 0064 00       		.byte	0
 14497 0065 03       		.uleb128 0x3
 14498 0066 08       		.uleb128 0x8
 14499 0067 3A       		.uleb128 0x3a
 14500 0068 0B       		.uleb128 0xb
 14501 0069 3B       		.uleb128 0x3b
 14502 006a 05       		.uleb128 0x5
 14503 006b 49       		.uleb128 0x49
 14504 006c 13       		.uleb128 0x13
 14505 006d 38       		.uleb128 0x38
 14506 006e 0B       		.uleb128 0xb
 14507 006f 00       		.byte	0
 14508 0070 00       		.byte	0
 14509 0071 0A       		.uleb128 0xa
 14510 0072 0D       		.uleb128 0xd
 14511 0073 00       		.byte	0
 14512 0074 03       		.uleb128 0x3
ARM GAS  /tmp/ccIHdayg.s 			page 257


 14513 0075 0E       		.uleb128 0xe
 14514 0076 3A       		.uleb128 0x3a
 14515 0077 0B       		.uleb128 0xb
 14516 0078 3B       		.uleb128 0x3b
 14517 0079 05       		.uleb128 0x5
 14518 007a 49       		.uleb128 0x49
 14519 007b 13       		.uleb128 0x13
 14520 007c 38       		.uleb128 0x38
 14521 007d 0B       		.uleb128 0xb
 14522 007e 00       		.byte	0
 14523 007f 00       		.byte	0
 14524 0080 0B       		.uleb128 0xb
 14525 0081 0F       		.uleb128 0xf
 14526 0082 00       		.byte	0
 14527 0083 0B       		.uleb128 0xb
 14528 0084 0B       		.uleb128 0xb
 14529 0085 49       		.uleb128 0x49
 14530 0086 13       		.uleb128 0x13
 14531 0087 00       		.byte	0
 14532 0088 00       		.byte	0
 14533 0089 0C       		.uleb128 0xc
 14534 008a 13       		.uleb128 0x13
 14535 008b 01       		.byte	0x1
 14536 008c 03       		.uleb128 0x3
 14537 008d 0E       		.uleb128 0xe
 14538 008e 0B       		.uleb128 0xb
 14539 008f 0B       		.uleb128 0xb
 14540 0090 3A       		.uleb128 0x3a
 14541 0091 0B       		.uleb128 0xb
 14542 0092 3B       		.uleb128 0x3b
 14543 0093 05       		.uleb128 0x5
 14544 0094 01       		.uleb128 0x1
 14545 0095 13       		.uleb128 0x13
 14546 0096 00       		.byte	0
 14547 0097 00       		.byte	0
 14548 0098 0D       		.uleb128 0xd
 14549 0099 15       		.uleb128 0x15
 14550 009a 01       		.byte	0x1
 14551 009b 27       		.uleb128 0x27
 14552 009c 19       		.uleb128 0x19
 14553 009d 01       		.uleb128 0x1
 14554 009e 13       		.uleb128 0x13
 14555 009f 00       		.byte	0
 14556 00a0 00       		.byte	0
 14557 00a1 0E       		.uleb128 0xe
 14558 00a2 05       		.uleb128 0x5
 14559 00a3 00       		.byte	0
 14560 00a4 49       		.uleb128 0x49
 14561 00a5 13       		.uleb128 0x13
 14562 00a6 00       		.byte	0
 14563 00a7 00       		.byte	0
 14564 00a8 0F       		.uleb128 0xf
 14565 00a9 0F       		.uleb128 0xf
 14566 00aa 00       		.byte	0
 14567 00ab 0B       		.uleb128 0xb
 14568 00ac 0B       		.uleb128 0xb
 14569 00ad 00       		.byte	0
ARM GAS  /tmp/ccIHdayg.s 			page 258


 14570 00ae 00       		.byte	0
 14571 00af 10       		.uleb128 0x10
 14572 00b0 13       		.uleb128 0x13
 14573 00b1 01       		.byte	0x1
 14574 00b2 03       		.uleb128 0x3
 14575 00b3 0E       		.uleb128 0xe
 14576 00b4 0B       		.uleb128 0xb
 14577 00b5 05       		.uleb128 0x5
 14578 00b6 3A       		.uleb128 0x3a
 14579 00b7 0B       		.uleb128 0xb
 14580 00b8 3B       		.uleb128 0x3b
 14581 00b9 05       		.uleb128 0x5
 14582 00ba 01       		.uleb128 0x1
 14583 00bb 13       		.uleb128 0x13
 14584 00bc 00       		.byte	0
 14585 00bd 00       		.byte	0
 14586 00be 11       		.uleb128 0x11
 14587 00bf 01       		.uleb128 0x1
 14588 00c0 01       		.byte	0x1
 14589 00c1 49       		.uleb128 0x49
 14590 00c2 13       		.uleb128 0x13
 14591 00c3 01       		.uleb128 0x1
 14592 00c4 13       		.uleb128 0x13
 14593 00c5 00       		.byte	0
 14594 00c6 00       		.byte	0
 14595 00c7 12       		.uleb128 0x12
 14596 00c8 21       		.uleb128 0x21
 14597 00c9 00       		.byte	0
 14598 00ca 49       		.uleb128 0x49
 14599 00cb 13       		.uleb128 0x13
 14600 00cc 2F       		.uleb128 0x2f
 14601 00cd 0B       		.uleb128 0xb
 14602 00ce 00       		.byte	0
 14603 00cf 00       		.byte	0
 14604 00d0 13       		.uleb128 0x13
 14605 00d1 34       		.uleb128 0x34
 14606 00d2 00       		.byte	0
 14607 00d3 03       		.uleb128 0x3
 14608 00d4 0E       		.uleb128 0xe
 14609 00d5 3A       		.uleb128 0x3a
 14610 00d6 0B       		.uleb128 0xb
 14611 00d7 3B       		.uleb128 0x3b
 14612 00d8 05       		.uleb128 0x5
 14613 00d9 49       		.uleb128 0x49
 14614 00da 13       		.uleb128 0x13
 14615 00db 3F       		.uleb128 0x3f
 14616 00dc 19       		.uleb128 0x19
 14617 00dd 3C       		.uleb128 0x3c
 14618 00de 19       		.uleb128 0x19
 14619 00df 00       		.byte	0
 14620 00e0 00       		.byte	0
 14621 00e1 14       		.uleb128 0x14
 14622 00e2 34       		.uleb128 0x34
 14623 00e3 00       		.byte	0
 14624 00e4 03       		.uleb128 0x3
 14625 00e5 0E       		.uleb128 0xe
 14626 00e6 3A       		.uleb128 0x3a
ARM GAS  /tmp/ccIHdayg.s 			page 259


 14627 00e7 0B       		.uleb128 0xb
 14628 00e8 3B       		.uleb128 0x3b
 14629 00e9 0B       		.uleb128 0xb
 14630 00ea 49       		.uleb128 0x49
 14631 00eb 13       		.uleb128 0x13
 14632 00ec 3F       		.uleb128 0x3f
 14633 00ed 19       		.uleb128 0x19
 14634 00ee 3C       		.uleb128 0x3c
 14635 00ef 19       		.uleb128 0x19
 14636 00f0 00       		.byte	0
 14637 00f1 00       		.byte	0
 14638 00f2 15       		.uleb128 0x15
 14639 00f3 13       		.uleb128 0x13
 14640 00f4 01       		.byte	0x1
 14641 00f5 0B       		.uleb128 0xb
 14642 00f6 0B       		.uleb128 0xb
 14643 00f7 3A       		.uleb128 0x3a
 14644 00f8 0B       		.uleb128 0xb
 14645 00f9 3B       		.uleb128 0x3b
 14646 00fa 0B       		.uleb128 0xb
 14647 00fb 01       		.uleb128 0x1
 14648 00fc 13       		.uleb128 0x13
 14649 00fd 00       		.byte	0
 14650 00fe 00       		.byte	0
 14651 00ff 16       		.uleb128 0x16
 14652 0100 0D       		.uleb128 0xd
 14653 0101 00       		.byte	0
 14654 0102 03       		.uleb128 0x3
 14655 0103 08       		.uleb128 0x8
 14656 0104 3A       		.uleb128 0x3a
 14657 0105 0B       		.uleb128 0xb
 14658 0106 3B       		.uleb128 0x3b
 14659 0107 0B       		.uleb128 0xb
 14660 0108 49       		.uleb128 0x49
 14661 0109 13       		.uleb128 0x13
 14662 010a 38       		.uleb128 0x38
 14663 010b 0B       		.uleb128 0xb
 14664 010c 00       		.byte	0
 14665 010d 00       		.byte	0
 14666 010e 17       		.uleb128 0x17
 14667 010f 13       		.uleb128 0x13
 14668 0110 01       		.byte	0x1
 14669 0111 0B       		.uleb128 0xb
 14670 0112 0B       		.uleb128 0xb
 14671 0113 3A       		.uleb128 0x3a
 14672 0114 0B       		.uleb128 0xb
 14673 0115 3B       		.uleb128 0x3b
 14674 0116 05       		.uleb128 0x5
 14675 0117 01       		.uleb128 0x1
 14676 0118 13       		.uleb128 0x13
 14677 0119 00       		.byte	0
 14678 011a 00       		.byte	0
 14679 011b 18       		.uleb128 0x18
 14680 011c 16       		.uleb128 0x16
 14681 011d 00       		.byte	0
 14682 011e 03       		.uleb128 0x3
 14683 011f 0E       		.uleb128 0xe
ARM GAS  /tmp/ccIHdayg.s 			page 260


 14684 0120 3A       		.uleb128 0x3a
 14685 0121 0B       		.uleb128 0xb
 14686 0122 3B       		.uleb128 0x3b
 14687 0123 05       		.uleb128 0x5
 14688 0124 49       		.uleb128 0x49
 14689 0125 13       		.uleb128 0x13
 14690 0126 00       		.byte	0
 14691 0127 00       		.byte	0
 14692 0128 19       		.uleb128 0x19
 14693 0129 13       		.uleb128 0x13
 14694 012a 01       		.byte	0x1
 14695 012b 0B       		.uleb128 0xb
 14696 012c 05       		.uleb128 0x5
 14697 012d 3A       		.uleb128 0x3a
 14698 012e 0B       		.uleb128 0xb
 14699 012f 3B       		.uleb128 0x3b
 14700 0130 05       		.uleb128 0x5
 14701 0131 01       		.uleb128 0x1
 14702 0132 13       		.uleb128 0x13
 14703 0133 00       		.byte	0
 14704 0134 00       		.byte	0
 14705 0135 1A       		.uleb128 0x1a
 14706 0136 0D       		.uleb128 0xd
 14707 0137 00       		.byte	0
 14708 0138 03       		.uleb128 0x3
 14709 0139 0E       		.uleb128 0xe
 14710 013a 3A       		.uleb128 0x3a
 14711 013b 0B       		.uleb128 0xb
 14712 013c 3B       		.uleb128 0x3b
 14713 013d 05       		.uleb128 0x5
 14714 013e 49       		.uleb128 0x49
 14715 013f 13       		.uleb128 0x13
 14716 0140 38       		.uleb128 0x38
 14717 0141 05       		.uleb128 0x5
 14718 0142 00       		.byte	0
 14719 0143 00       		.byte	0
 14720 0144 1B       		.uleb128 0x1b
 14721 0145 0D       		.uleb128 0xd
 14722 0146 00       		.byte	0
 14723 0147 03       		.uleb128 0x3
 14724 0148 08       		.uleb128 0x8
 14725 0149 3A       		.uleb128 0x3a
 14726 014a 0B       		.uleb128 0xb
 14727 014b 3B       		.uleb128 0x3b
 14728 014c 05       		.uleb128 0x5
 14729 014d 49       		.uleb128 0x49
 14730 014e 13       		.uleb128 0x13
 14731 014f 38       		.uleb128 0x38
 14732 0150 05       		.uleb128 0x5
 14733 0151 00       		.byte	0
 14734 0152 00       		.byte	0
 14735 0153 1C       		.uleb128 0x1c
 14736 0154 17       		.uleb128 0x17
 14737 0155 01       		.byte	0x1
 14738 0156 0B       		.uleb128 0xb
 14739 0157 0B       		.uleb128 0xb
 14740 0158 3A       		.uleb128 0x3a
ARM GAS  /tmp/ccIHdayg.s 			page 261


 14741 0159 0B       		.uleb128 0xb
 14742 015a 3B       		.uleb128 0x3b
 14743 015b 0B       		.uleb128 0xb
 14744 015c 01       		.uleb128 0x1
 14745 015d 13       		.uleb128 0x13
 14746 015e 00       		.byte	0
 14747 015f 00       		.byte	0
 14748 0160 1D       		.uleb128 0x1d
 14749 0161 0D       		.uleb128 0xd
 14750 0162 00       		.byte	0
 14751 0163 03       		.uleb128 0x3
 14752 0164 0E       		.uleb128 0xe
 14753 0165 3A       		.uleb128 0x3a
 14754 0166 0B       		.uleb128 0xb
 14755 0167 3B       		.uleb128 0x3b
 14756 0168 05       		.uleb128 0x5
 14757 0169 49       		.uleb128 0x49
 14758 016a 13       		.uleb128 0x13
 14759 016b 00       		.byte	0
 14760 016c 00       		.byte	0
 14761 016d 1E       		.uleb128 0x1e
 14762 016e 34       		.uleb128 0x34
 14763 016f 00       		.byte	0
 14764 0170 03       		.uleb128 0x3
 14765 0171 08       		.uleb128 0x8
 14766 0172 3A       		.uleb128 0x3a
 14767 0173 0B       		.uleb128 0xb
 14768 0174 3B       		.uleb128 0x3b
 14769 0175 05       		.uleb128 0x5
 14770 0176 49       		.uleb128 0x49
 14771 0177 13       		.uleb128 0x13
 14772 0178 3F       		.uleb128 0x3f
 14773 0179 19       		.uleb128 0x19
 14774 017a 3C       		.uleb128 0x3c
 14775 017b 19       		.uleb128 0x19
 14776 017c 00       		.byte	0
 14777 017d 00       		.byte	0
 14778 017e 1F       		.uleb128 0x1f
 14779 017f 15       		.uleb128 0x15
 14780 0180 01       		.byte	0x1
 14781 0181 27       		.uleb128 0x27
 14782 0182 19       		.uleb128 0x19
 14783 0183 49       		.uleb128 0x49
 14784 0184 13       		.uleb128 0x13
 14785 0185 01       		.uleb128 0x1
 14786 0186 13       		.uleb128 0x13
 14787 0187 00       		.byte	0
 14788 0188 00       		.byte	0
 14789 0189 20       		.uleb128 0x20
 14790 018a 04       		.uleb128 0x4
 14791 018b 01       		.byte	0x1
 14792 018c 3E       		.uleb128 0x3e
 14793 018d 0B       		.uleb128 0xb
 14794 018e 0B       		.uleb128 0xb
 14795 018f 0B       		.uleb128 0xb
 14796 0190 49       		.uleb128 0x49
 14797 0191 13       		.uleb128 0x13
ARM GAS  /tmp/ccIHdayg.s 			page 262


 14798 0192 3A       		.uleb128 0x3a
 14799 0193 0B       		.uleb128 0xb
 14800 0194 3B       		.uleb128 0x3b
 14801 0195 05       		.uleb128 0x5
 14802 0196 01       		.uleb128 0x1
 14803 0197 13       		.uleb128 0x13
 14804 0198 00       		.byte	0
 14805 0199 00       		.byte	0
 14806 019a 21       		.uleb128 0x21
 14807 019b 28       		.uleb128 0x28
 14808 019c 00       		.byte	0
 14809 019d 03       		.uleb128 0x3
 14810 019e 0E       		.uleb128 0xe
 14811 019f 1C       		.uleb128 0x1c
 14812 01a0 0B       		.uleb128 0xb
 14813 01a1 00       		.byte	0
 14814 01a2 00       		.byte	0
 14815 01a3 22       		.uleb128 0x22
 14816 01a4 0D       		.uleb128 0xd
 14817 01a5 00       		.byte	0
 14818 01a6 03       		.uleb128 0x3
 14819 01a7 08       		.uleb128 0x8
 14820 01a8 3A       		.uleb128 0x3a
 14821 01a9 0B       		.uleb128 0xb
 14822 01aa 3B       		.uleb128 0x3b
 14823 01ab 0B       		.uleb128 0xb
 14824 01ac 49       		.uleb128 0x49
 14825 01ad 13       		.uleb128 0x13
 14826 01ae 00       		.byte	0
 14827 01af 00       		.byte	0
 14828 01b0 23       		.uleb128 0x23
 14829 01b1 04       		.uleb128 0x4
 14830 01b2 01       		.byte	0x1
 14831 01b3 3E       		.uleb128 0x3e
 14832 01b4 0B       		.uleb128 0xb
 14833 01b5 0B       		.uleb128 0xb
 14834 01b6 0B       		.uleb128 0xb
 14835 01b7 49       		.uleb128 0x49
 14836 01b8 13       		.uleb128 0x13
 14837 01b9 3A       		.uleb128 0x3a
 14838 01ba 0B       		.uleb128 0xb
 14839 01bb 3B       		.uleb128 0x3b
 14840 01bc 0B       		.uleb128 0xb
 14841 01bd 01       		.uleb128 0x1
 14842 01be 13       		.uleb128 0x13
 14843 01bf 00       		.byte	0
 14844 01c0 00       		.byte	0
 14845 01c1 24       		.uleb128 0x24
 14846 01c2 13       		.uleb128 0x13
 14847 01c3 01       		.byte	0x1
 14848 01c4 03       		.uleb128 0x3
 14849 01c5 0E       		.uleb128 0xe
 14850 01c6 0B       		.uleb128 0xb
 14851 01c7 05       		.uleb128 0x5
 14852 01c8 3A       		.uleb128 0x3a
 14853 01c9 0B       		.uleb128 0xb
 14854 01ca 3B       		.uleb128 0x3b
ARM GAS  /tmp/ccIHdayg.s 			page 263


 14855 01cb 0B       		.uleb128 0xb
 14856 01cc 01       		.uleb128 0x1
 14857 01cd 13       		.uleb128 0x13
 14858 01ce 00       		.byte	0
 14859 01cf 00       		.byte	0
 14860 01d0 25       		.uleb128 0x25
 14861 01d1 0D       		.uleb128 0xd
 14862 01d2 00       		.byte	0
 14863 01d3 03       		.uleb128 0x3
 14864 01d4 0E       		.uleb128 0xe
 14865 01d5 3A       		.uleb128 0x3a
 14866 01d6 0B       		.uleb128 0xb
 14867 01d7 3B       		.uleb128 0x3b
 14868 01d8 0B       		.uleb128 0xb
 14869 01d9 49       		.uleb128 0x49
 14870 01da 13       		.uleb128 0x13
 14871 01db 38       		.uleb128 0x38
 14872 01dc 05       		.uleb128 0x5
 14873 01dd 00       		.byte	0
 14874 01de 00       		.byte	0
 14875 01df 26       		.uleb128 0x26
 14876 01e0 13       		.uleb128 0x13
 14877 01e1 01       		.byte	0x1
 14878 01e2 0B       		.uleb128 0xb
 14879 01e3 06       		.uleb128 0x6
 14880 01e4 3A       		.uleb128 0x3a
 14881 01e5 0B       		.uleb128 0xb
 14882 01e6 3B       		.uleb128 0x3b
 14883 01e7 0B       		.uleb128 0xb
 14884 01e8 01       		.uleb128 0x1
 14885 01e9 13       		.uleb128 0x13
 14886 01ea 00       		.byte	0
 14887 01eb 00       		.byte	0
 14888 01ec 27       		.uleb128 0x27
 14889 01ed 0D       		.uleb128 0xd
 14890 01ee 00       		.byte	0
 14891 01ef 03       		.uleb128 0x3
 14892 01f0 08       		.uleb128 0x8
 14893 01f1 3A       		.uleb128 0x3a
 14894 01f2 0B       		.uleb128 0xb
 14895 01f3 3B       		.uleb128 0x3b
 14896 01f4 0B       		.uleb128 0xb
 14897 01f5 49       		.uleb128 0x49
 14898 01f6 13       		.uleb128 0x13
 14899 01f7 38       		.uleb128 0x38
 14900 01f8 05       		.uleb128 0x5
 14901 01f9 00       		.byte	0
 14902 01fa 00       		.byte	0
 14903 01fb 28       		.uleb128 0x28
 14904 01fc 21       		.uleb128 0x21
 14905 01fd 00       		.byte	0
 14906 01fe 49       		.uleb128 0x49
 14907 01ff 13       		.uleb128 0x13
 14908 0200 2F       		.uleb128 0x2f
 14909 0201 05       		.uleb128 0x5
 14910 0202 00       		.byte	0
 14911 0203 00       		.byte	0
ARM GAS  /tmp/ccIHdayg.s 			page 264


 14912 0204 29       		.uleb128 0x29
 14913 0205 0D       		.uleb128 0xd
 14914 0206 00       		.byte	0
 14915 0207 03       		.uleb128 0x3
 14916 0208 0E       		.uleb128 0xe
 14917 0209 3A       		.uleb128 0x3a
 14918 020a 0B       		.uleb128 0xb
 14919 020b 3B       		.uleb128 0x3b
 14920 020c 0B       		.uleb128 0xb
 14921 020d 49       		.uleb128 0x49
 14922 020e 13       		.uleb128 0x13
 14923 020f 00       		.byte	0
 14924 0210 00       		.byte	0
 14925 0211 2A       		.uleb128 0x2a
 14926 0212 17       		.uleb128 0x17
 14927 0213 01       		.byte	0x1
 14928 0214 0B       		.uleb128 0xb
 14929 0215 0B       		.uleb128 0xb
 14930 0216 3A       		.uleb128 0x3a
 14931 0217 0B       		.uleb128 0xb
 14932 0218 3B       		.uleb128 0x3b
 14933 0219 05       		.uleb128 0x5
 14934 021a 01       		.uleb128 0x1
 14935 021b 13       		.uleb128 0x13
 14936 021c 00       		.byte	0
 14937 021d 00       		.byte	0
 14938 021e 2B       		.uleb128 0x2b
 14939 021f 21       		.uleb128 0x21
 14940 0220 00       		.byte	0
 14941 0221 00       		.byte	0
 14942 0222 00       		.byte	0
 14943 0223 2C       		.uleb128 0x2c
 14944 0224 13       		.uleb128 0x13
 14945 0225 00       		.byte	0
 14946 0226 03       		.uleb128 0x3
 14947 0227 0E       		.uleb128 0xe
 14948 0228 3C       		.uleb128 0x3c
 14949 0229 19       		.uleb128 0x19
 14950 022a 00       		.byte	0
 14951 022b 00       		.byte	0
 14952 022c 2D       		.uleb128 0x2d
 14953 022d 15       		.uleb128 0x15
 14954 022e 00       		.byte	0
 14955 022f 27       		.uleb128 0x27
 14956 0230 19       		.uleb128 0x19
 14957 0231 00       		.byte	0
 14958 0232 00       		.byte	0
 14959 0233 2E       		.uleb128 0x2e
 14960 0234 04       		.uleb128 0x4
 14961 0235 01       		.byte	0x1
 14962 0236 03       		.uleb128 0x3
 14963 0237 0E       		.uleb128 0xe
 14964 0238 3E       		.uleb128 0x3e
 14965 0239 0B       		.uleb128 0xb
 14966 023a 0B       		.uleb128 0xb
 14967 023b 0B       		.uleb128 0xb
 14968 023c 49       		.uleb128 0x49
ARM GAS  /tmp/ccIHdayg.s 			page 265


 14969 023d 13       		.uleb128 0x13
 14970 023e 3A       		.uleb128 0x3a
 14971 023f 0B       		.uleb128 0xb
 14972 0240 3B       		.uleb128 0x3b
 14973 0241 05       		.uleb128 0x5
 14974 0242 01       		.uleb128 0x1
 14975 0243 13       		.uleb128 0x13
 14976 0244 00       		.byte	0
 14977 0245 00       		.byte	0
 14978 0246 2F       		.uleb128 0x2f
 14979 0247 28       		.uleb128 0x28
 14980 0248 00       		.byte	0
 14981 0249 03       		.uleb128 0x3
 14982 024a 0E       		.uleb128 0xe
 14983 024b 1C       		.uleb128 0x1c
 14984 024c 0D       		.uleb128 0xd
 14985 024d 00       		.byte	0
 14986 024e 00       		.byte	0
 14987 024f 30       		.uleb128 0x30
 14988 0250 28       		.uleb128 0x28
 14989 0251 00       		.byte	0
 14990 0252 03       		.uleb128 0x3
 14991 0253 08       		.uleb128 0x8
 14992 0254 1C       		.uleb128 0x1c
 14993 0255 0B       		.uleb128 0xb
 14994 0256 00       		.byte	0
 14995 0257 00       		.byte	0
 14996 0258 31       		.uleb128 0x31
 14997 0259 34       		.uleb128 0x34
 14998 025a 00       		.byte	0
 14999 025b 03       		.uleb128 0x3
 15000 025c 0E       		.uleb128 0xe
 15001 025d 3A       		.uleb128 0x3a
 15002 025e 0B       		.uleb128 0xb
 15003 025f 3B       		.uleb128 0x3b
 15004 0260 0B       		.uleb128 0xb
 15005 0261 49       		.uleb128 0x49
 15006 0262 13       		.uleb128 0x13
 15007 0263 02       		.uleb128 0x2
 15008 0264 18       		.uleb128 0x18
 15009 0265 00       		.byte	0
 15010 0266 00       		.byte	0
 15011 0267 32       		.uleb128 0x32
 15012 0268 34       		.uleb128 0x34
 15013 0269 00       		.byte	0
 15014 026a 03       		.uleb128 0x3
 15015 026b 0E       		.uleb128 0xe
 15016 026c 3A       		.uleb128 0x3a
 15017 026d 0B       		.uleb128 0xb
 15018 026e 3B       		.uleb128 0x3b
 15019 026f 0B       		.uleb128 0xb
 15020 0270 49       		.uleb128 0x49
 15021 0271 13       		.uleb128 0x13
 15022 0272 00       		.byte	0
 15023 0273 00       		.byte	0
 15024 0274 33       		.uleb128 0x33
 15025 0275 2E       		.uleb128 0x2e
ARM GAS  /tmp/ccIHdayg.s 			page 266


 15026 0276 00       		.byte	0
 15027 0277 03       		.uleb128 0x3
 15028 0278 0E       		.uleb128 0xe
 15029 0279 3A       		.uleb128 0x3a
 15030 027a 0B       		.uleb128 0xb
 15031 027b 3B       		.uleb128 0x3b
 15032 027c 05       		.uleb128 0x5
 15033 027d 27       		.uleb128 0x27
 15034 027e 19       		.uleb128 0x19
 15035 027f 20       		.uleb128 0x20
 15036 0280 0B       		.uleb128 0xb
 15037 0281 00       		.byte	0
 15038 0282 00       		.byte	0
 15039 0283 34       		.uleb128 0x34
 15040 0284 2E       		.uleb128 0x2e
 15041 0285 01       		.byte	0x1
 15042 0286 03       		.uleb128 0x3
 15043 0287 0E       		.uleb128 0xe
 15044 0288 3A       		.uleb128 0x3a
 15045 0289 0B       		.uleb128 0xb
 15046 028a 3B       		.uleb128 0x3b
 15047 028b 05       		.uleb128 0x5
 15048 028c 27       		.uleb128 0x27
 15049 028d 19       		.uleb128 0x19
 15050 028e 49       		.uleb128 0x49
 15051 028f 13       		.uleb128 0x13
 15052 0290 11       		.uleb128 0x11
 15053 0291 01       		.uleb128 0x1
 15054 0292 12       		.uleb128 0x12
 15055 0293 06       		.uleb128 0x6
 15056 0294 40       		.uleb128 0x40
 15057 0295 18       		.uleb128 0x18
 15058 0296 9742     		.uleb128 0x2117
 15059 0298 19       		.uleb128 0x19
 15060 0299 01       		.uleb128 0x1
 15061 029a 13       		.uleb128 0x13
 15062 029b 00       		.byte	0
 15063 029c 00       		.byte	0
 15064 029d 35       		.uleb128 0x35
 15065 029e 05       		.uleb128 0x5
 15066 029f 00       		.byte	0
 15067 02a0 03       		.uleb128 0x3
 15068 02a1 0E       		.uleb128 0xe
 15069 02a2 3A       		.uleb128 0x3a
 15070 02a3 0B       		.uleb128 0xb
 15071 02a4 3B       		.uleb128 0x3b
 15072 02a5 05       		.uleb128 0x5
 15073 02a6 49       		.uleb128 0x49
 15074 02a7 13       		.uleb128 0x13
 15075 02a8 02       		.uleb128 0x2
 15076 02a9 17       		.uleb128 0x17
 15077 02aa 00       		.byte	0
 15078 02ab 00       		.byte	0
 15079 02ac 36       		.uleb128 0x36
 15080 02ad 2E       		.uleb128 0x2e
 15081 02ae 01       		.byte	0x1
 15082 02af 03       		.uleb128 0x3
ARM GAS  /tmp/ccIHdayg.s 			page 267


 15083 02b0 0E       		.uleb128 0xe
 15084 02b1 3A       		.uleb128 0x3a
 15085 02b2 0B       		.uleb128 0xb
 15086 02b3 3B       		.uleb128 0x3b
 15087 02b4 05       		.uleb128 0x5
 15088 02b5 27       		.uleb128 0x27
 15089 02b6 19       		.uleb128 0x19
 15090 02b7 20       		.uleb128 0x20
 15091 02b8 0B       		.uleb128 0xb
 15092 02b9 01       		.uleb128 0x1
 15093 02ba 13       		.uleb128 0x13
 15094 02bb 00       		.byte	0
 15095 02bc 00       		.byte	0
 15096 02bd 37       		.uleb128 0x37
 15097 02be 05       		.uleb128 0x5
 15098 02bf 00       		.byte	0
 15099 02c0 03       		.uleb128 0x3
 15100 02c1 0E       		.uleb128 0xe
 15101 02c2 3A       		.uleb128 0x3a
 15102 02c3 0B       		.uleb128 0xb
 15103 02c4 3B       		.uleb128 0x3b
 15104 02c5 05       		.uleb128 0x5
 15105 02c6 49       		.uleb128 0x49
 15106 02c7 13       		.uleb128 0x13
 15107 02c8 00       		.byte	0
 15108 02c9 00       		.byte	0
 15109 02ca 38       		.uleb128 0x38
 15110 02cb 0B       		.uleb128 0xb
 15111 02cc 01       		.byte	0x1
 15112 02cd 00       		.byte	0
 15113 02ce 00       		.byte	0
 15114 02cf 39       		.uleb128 0x39
 15115 02d0 34       		.uleb128 0x34
 15116 02d1 00       		.byte	0
 15117 02d2 03       		.uleb128 0x3
 15118 02d3 0E       		.uleb128 0xe
 15119 02d4 3A       		.uleb128 0x3a
 15120 02d5 0B       		.uleb128 0xb
 15121 02d6 3B       		.uleb128 0x3b
 15122 02d7 05       		.uleb128 0x5
 15123 02d8 49       		.uleb128 0x49
 15124 02d9 13       		.uleb128 0x13
 15125 02da 00       		.byte	0
 15126 02db 00       		.byte	0
 15127 02dc 3A       		.uleb128 0x3a
 15128 02dd 2E       		.uleb128 0x2e
 15129 02de 01       		.byte	0x1
 15130 02df 03       		.uleb128 0x3
 15131 02e0 0E       		.uleb128 0xe
 15132 02e1 3A       		.uleb128 0x3a
 15133 02e2 0B       		.uleb128 0xb
 15134 02e3 3B       		.uleb128 0x3b
 15135 02e4 05       		.uleb128 0x5
 15136 02e5 27       		.uleb128 0x27
 15137 02e6 19       		.uleb128 0x19
 15138 02e7 11       		.uleb128 0x11
 15139 02e8 01       		.uleb128 0x1
ARM GAS  /tmp/ccIHdayg.s 			page 268


 15140 02e9 12       		.uleb128 0x12
 15141 02ea 06       		.uleb128 0x6
 15142 02eb 40       		.uleb128 0x40
 15143 02ec 18       		.uleb128 0x18
 15144 02ed 9642     		.uleb128 0x2116
 15145 02ef 19       		.uleb128 0x19
 15146 02f0 01       		.uleb128 0x1
 15147 02f1 13       		.uleb128 0x13
 15148 02f2 00       		.byte	0
 15149 02f3 00       		.byte	0
 15150 02f4 3B       		.uleb128 0x3b
 15151 02f5 05       		.uleb128 0x5
 15152 02f6 00       		.byte	0
 15153 02f7 03       		.uleb128 0x3
 15154 02f8 08       		.uleb128 0x8
 15155 02f9 3A       		.uleb128 0x3a
 15156 02fa 0B       		.uleb128 0xb
 15157 02fb 3B       		.uleb128 0x3b
 15158 02fc 05       		.uleb128 0x5
 15159 02fd 49       		.uleb128 0x49
 15160 02fe 13       		.uleb128 0x13
 15161 02ff 02       		.uleb128 0x2
 15162 0300 17       		.uleb128 0x17
 15163 0301 00       		.byte	0
 15164 0302 00       		.byte	0
 15165 0303 3C       		.uleb128 0x3c
 15166 0304 0B       		.uleb128 0xb
 15167 0305 01       		.byte	0x1
 15168 0306 55       		.uleb128 0x55
 15169 0307 17       		.uleb128 0x17
 15170 0308 01       		.uleb128 0x1
 15171 0309 13       		.uleb128 0x13
 15172 030a 00       		.byte	0
 15173 030b 00       		.byte	0
 15174 030c 3D       		.uleb128 0x3d
 15175 030d 34       		.uleb128 0x34
 15176 030e 00       		.byte	0
 15177 030f 03       		.uleb128 0x3
 15178 0310 08       		.uleb128 0x8
 15179 0311 3A       		.uleb128 0x3a
 15180 0312 0B       		.uleb128 0xb
 15181 0313 3B       		.uleb128 0x3b
 15182 0314 05       		.uleb128 0x5
 15183 0315 49       		.uleb128 0x49
 15184 0316 13       		.uleb128 0x13
 15185 0317 02       		.uleb128 0x2
 15186 0318 17       		.uleb128 0x17
 15187 0319 00       		.byte	0
 15188 031a 00       		.byte	0
 15189 031b 3E       		.uleb128 0x3e
 15190 031c 0B       		.uleb128 0xb
 15191 031d 01       		.byte	0x1
 15192 031e 55       		.uleb128 0x55
 15193 031f 17       		.uleb128 0x17
 15194 0320 00       		.byte	0
 15195 0321 00       		.byte	0
 15196 0322 3F       		.uleb128 0x3f
ARM GAS  /tmp/ccIHdayg.s 			page 269


 15197 0323 1D       		.uleb128 0x1d
 15198 0324 01       		.byte	0x1
 15199 0325 31       		.uleb128 0x31
 15200 0326 13       		.uleb128 0x13
 15201 0327 11       		.uleb128 0x11
 15202 0328 01       		.uleb128 0x1
 15203 0329 12       		.uleb128 0x12
 15204 032a 06       		.uleb128 0x6
 15205 032b 58       		.uleb128 0x58
 15206 032c 0B       		.uleb128 0xb
 15207 032d 59       		.uleb128 0x59
 15208 032e 05       		.uleb128 0x5
 15209 032f 01       		.uleb128 0x1
 15210 0330 13       		.uleb128 0x13
 15211 0331 00       		.byte	0
 15212 0332 00       		.byte	0
 15213 0333 40       		.uleb128 0x40
 15214 0334 05       		.uleb128 0x5
 15215 0335 00       		.byte	0
 15216 0336 31       		.uleb128 0x31
 15217 0337 13       		.uleb128 0x13
 15218 0338 02       		.uleb128 0x2
 15219 0339 17       		.uleb128 0x17
 15220 033a 00       		.byte	0
 15221 033b 00       		.byte	0
 15222 033c 41       		.uleb128 0x41
 15223 033d 1D       		.uleb128 0x1d
 15224 033e 00       		.byte	0
 15225 033f 31       		.uleb128 0x31
 15226 0340 13       		.uleb128 0x13
 15227 0341 11       		.uleb128 0x11
 15228 0342 01       		.uleb128 0x1
 15229 0343 12       		.uleb128 0x12
 15230 0344 06       		.uleb128 0x6
 15231 0345 58       		.uleb128 0x58
 15232 0346 0B       		.uleb128 0xb
 15233 0347 59       		.uleb128 0x59
 15234 0348 05       		.uleb128 0x5
 15235 0349 00       		.byte	0
 15236 034a 00       		.byte	0
 15237 034b 42       		.uleb128 0x42
 15238 034c 898201   		.uleb128 0x4109
 15239 034f 01       		.byte	0x1
 15240 0350 11       		.uleb128 0x11
 15241 0351 01       		.uleb128 0x1
 15242 0352 31       		.uleb128 0x31
 15243 0353 13       		.uleb128 0x13
 15244 0354 00       		.byte	0
 15245 0355 00       		.byte	0
 15246 0356 43       		.uleb128 0x43
 15247 0357 8A8201   		.uleb128 0x410a
 15248 035a 00       		.byte	0
 15249 035b 02       		.uleb128 0x2
 15250 035c 18       		.uleb128 0x18
 15251 035d 9142     		.uleb128 0x2111
 15252 035f 18       		.uleb128 0x18
 15253 0360 00       		.byte	0
ARM GAS  /tmp/ccIHdayg.s 			page 270


 15254 0361 00       		.byte	0
 15255 0362 44       		.uleb128 0x44
 15256 0363 1D       		.uleb128 0x1d
 15257 0364 01       		.byte	0x1
 15258 0365 31       		.uleb128 0x31
 15259 0366 13       		.uleb128 0x13
 15260 0367 52       		.uleb128 0x52
 15261 0368 01       		.uleb128 0x1
 15262 0369 55       		.uleb128 0x55
 15263 036a 17       		.uleb128 0x17
 15264 036b 58       		.uleb128 0x58
 15265 036c 0B       		.uleb128 0xb
 15266 036d 59       		.uleb128 0x59
 15267 036e 05       		.uleb128 0x5
 15268 036f 01       		.uleb128 0x1
 15269 0370 13       		.uleb128 0x13
 15270 0371 00       		.byte	0
 15271 0372 00       		.byte	0
 15272 0373 45       		.uleb128 0x45
 15273 0374 05       		.uleb128 0x5
 15274 0375 00       		.byte	0
 15275 0376 31       		.uleb128 0x31
 15276 0377 13       		.uleb128 0x13
 15277 0378 02       		.uleb128 0x2
 15278 0379 18       		.uleb128 0x18
 15279 037a 00       		.byte	0
 15280 037b 00       		.byte	0
 15281 037c 46       		.uleb128 0x46
 15282 037d 898201   		.uleb128 0x4109
 15283 0380 00       		.byte	0
 15284 0381 11       		.uleb128 0x11
 15285 0382 01       		.uleb128 0x1
 15286 0383 31       		.uleb128 0x31
 15287 0384 13       		.uleb128 0x13
 15288 0385 00       		.byte	0
 15289 0386 00       		.byte	0
 15290 0387 47       		.uleb128 0x47
 15291 0388 898201   		.uleb128 0x4109
 15292 038b 01       		.byte	0x1
 15293 038c 11       		.uleb128 0x11
 15294 038d 01       		.uleb128 0x1
 15295 038e 31       		.uleb128 0x31
 15296 038f 13       		.uleb128 0x13
 15297 0390 01       		.uleb128 0x1
 15298 0391 13       		.uleb128 0x13
 15299 0392 00       		.byte	0
 15300 0393 00       		.byte	0
 15301 0394 48       		.uleb128 0x48
 15302 0395 1D       		.uleb128 0x1d
 15303 0396 00       		.byte	0
 15304 0397 31       		.uleb128 0x31
 15305 0398 13       		.uleb128 0x13
 15306 0399 52       		.uleb128 0x52
 15307 039a 01       		.uleb128 0x1
 15308 039b 55       		.uleb128 0x55
 15309 039c 17       		.uleb128 0x17
 15310 039d 58       		.uleb128 0x58
ARM GAS  /tmp/ccIHdayg.s 			page 271


 15311 039e 0B       		.uleb128 0xb
 15312 039f 59       		.uleb128 0x59
 15313 03a0 05       		.uleb128 0x5
 15314 03a1 00       		.byte	0
 15315 03a2 00       		.byte	0
 15316 03a3 49       		.uleb128 0x49
 15317 03a4 34       		.uleb128 0x34
 15318 03a5 00       		.byte	0
 15319 03a6 31       		.uleb128 0x31
 15320 03a7 13       		.uleb128 0x13
 15321 03a8 02       		.uleb128 0x2
 15322 03a9 17       		.uleb128 0x17
 15323 03aa 00       		.byte	0
 15324 03ab 00       		.byte	0
 15325 03ac 4A       		.uleb128 0x4a
 15326 03ad 898201   		.uleb128 0x4109
 15327 03b0 00       		.byte	0
 15328 03b1 11       		.uleb128 0x11
 15329 03b2 01       		.uleb128 0x1
 15330 03b3 9542     		.uleb128 0x2115
 15331 03b5 19       		.uleb128 0x19
 15332 03b6 31       		.uleb128 0x31
 15333 03b7 13       		.uleb128 0x13
 15334 03b8 00       		.byte	0
 15335 03b9 00       		.byte	0
 15336 03ba 4B       		.uleb128 0x4b
 15337 03bb 34       		.uleb128 0x34
 15338 03bc 00       		.byte	0
 15339 03bd 03       		.uleb128 0x3
 15340 03be 08       		.uleb128 0x8
 15341 03bf 3A       		.uleb128 0x3a
 15342 03c0 0B       		.uleb128 0xb
 15343 03c1 3B       		.uleb128 0x3b
 15344 03c2 05       		.uleb128 0x5
 15345 03c3 49       		.uleb128 0x49
 15346 03c4 13       		.uleb128 0x13
 15347 03c5 00       		.byte	0
 15348 03c6 00       		.byte	0
 15349 03c7 4C       		.uleb128 0x4c
 15350 03c8 2E       		.uleb128 0x2e
 15351 03c9 01       		.byte	0x1
 15352 03ca 03       		.uleb128 0x3
 15353 03cb 0E       		.uleb128 0xe
 15354 03cc 3A       		.uleb128 0x3a
 15355 03cd 0B       		.uleb128 0xb
 15356 03ce 3B       		.uleb128 0x3b
 15357 03cf 05       		.uleb128 0x5
 15358 03d0 27       		.uleb128 0x27
 15359 03d1 19       		.uleb128 0x19
 15360 03d2 49       		.uleb128 0x49
 15361 03d3 13       		.uleb128 0x13
 15362 03d4 20       		.uleb128 0x20
 15363 03d5 0B       		.uleb128 0xb
 15364 03d6 01       		.uleb128 0x1
 15365 03d7 13       		.uleb128 0x13
 15366 03d8 00       		.byte	0
 15367 03d9 00       		.byte	0
ARM GAS  /tmp/ccIHdayg.s 			page 272


 15368 03da 4D       		.uleb128 0x4d
 15369 03db 2E       		.uleb128 0x2e
 15370 03dc 00       		.byte	0
 15371 03dd 03       		.uleb128 0x3
 15372 03de 0E       		.uleb128 0xe
 15373 03df 3A       		.uleb128 0x3a
 15374 03e0 0B       		.uleb128 0xb
 15375 03e1 3B       		.uleb128 0x3b
 15376 03e2 05       		.uleb128 0x5
 15377 03e3 27       		.uleb128 0x27
 15378 03e4 19       		.uleb128 0x19
 15379 03e5 49       		.uleb128 0x49
 15380 03e6 13       		.uleb128 0x13
 15381 03e7 20       		.uleb128 0x20
 15382 03e8 0B       		.uleb128 0xb
 15383 03e9 00       		.byte	0
 15384 03ea 00       		.byte	0
 15385 03eb 4E       		.uleb128 0x4e
 15386 03ec 2E       		.uleb128 0x2e
 15387 03ed 01       		.byte	0x1
 15388 03ee 03       		.uleb128 0x3
 15389 03ef 0E       		.uleb128 0xe
 15390 03f0 3A       		.uleb128 0x3a
 15391 03f1 0B       		.uleb128 0xb
 15392 03f2 3B       		.uleb128 0x3b
 15393 03f3 05       		.uleb128 0x5
 15394 03f4 27       		.uleb128 0x27
 15395 03f5 19       		.uleb128 0x19
 15396 03f6 11       		.uleb128 0x11
 15397 03f7 01       		.uleb128 0x1
 15398 03f8 12       		.uleb128 0x12
 15399 03f9 06       		.uleb128 0x6
 15400 03fa 40       		.uleb128 0x40
 15401 03fb 18       		.uleb128 0x18
 15402 03fc 9742     		.uleb128 0x2117
 15403 03fe 19       		.uleb128 0x19
 15404 03ff 01       		.uleb128 0x1
 15405 0400 13       		.uleb128 0x13
 15406 0401 00       		.byte	0
 15407 0402 00       		.byte	0
 15408 0403 4F       		.uleb128 0x4f
 15409 0404 05       		.uleb128 0x5
 15410 0405 00       		.byte	0
 15411 0406 31       		.uleb128 0x31
 15412 0407 13       		.uleb128 0x13
 15413 0408 00       		.byte	0
 15414 0409 00       		.byte	0
 15415 040a 50       		.uleb128 0x50
 15416 040b 1D       		.uleb128 0x1d
 15417 040c 01       		.byte	0x1
 15418 040d 31       		.uleb128 0x31
 15419 040e 13       		.uleb128 0x13
 15420 040f 52       		.uleb128 0x52
 15421 0410 01       		.uleb128 0x1
 15422 0411 55       		.uleb128 0x55
 15423 0412 17       		.uleb128 0x17
 15424 0413 58       		.uleb128 0x58
ARM GAS  /tmp/ccIHdayg.s 			page 273


 15425 0414 0B       		.uleb128 0xb
 15426 0415 59       		.uleb128 0x59
 15427 0416 05       		.uleb128 0x5
 15428 0417 00       		.byte	0
 15429 0418 00       		.byte	0
 15430 0419 51       		.uleb128 0x51
 15431 041a 2E       		.uleb128 0x2e
 15432 041b 01       		.byte	0x1
 15433 041c 3F       		.uleb128 0x3f
 15434 041d 19       		.uleb128 0x19
 15435 041e 03       		.uleb128 0x3
 15436 041f 0E       		.uleb128 0xe
 15437 0420 3A       		.uleb128 0x3a
 15438 0421 0B       		.uleb128 0xb
 15439 0422 3B       		.uleb128 0x3b
 15440 0423 05       		.uleb128 0x5
 15441 0424 27       		.uleb128 0x27
 15442 0425 19       		.uleb128 0x19
 15443 0426 49       		.uleb128 0x49
 15444 0427 13       		.uleb128 0x13
 15445 0428 11       		.uleb128 0x11
 15446 0429 01       		.uleb128 0x1
 15447 042a 12       		.uleb128 0x12
 15448 042b 06       		.uleb128 0x6
 15449 042c 40       		.uleb128 0x40
 15450 042d 18       		.uleb128 0x18
 15451 042e 9742     		.uleb128 0x2117
 15452 0430 19       		.uleb128 0x19
 15453 0431 01       		.uleb128 0x1
 15454 0432 13       		.uleb128 0x13
 15455 0433 00       		.byte	0
 15456 0434 00       		.byte	0
 15457 0435 52       		.uleb128 0x52
 15458 0436 2E       		.uleb128 0x2e
 15459 0437 00       		.byte	0
 15460 0438 3F       		.uleb128 0x3f
 15461 0439 19       		.uleb128 0x19
 15462 043a 03       		.uleb128 0x3
 15463 043b 0E       		.uleb128 0xe
 15464 043c 3A       		.uleb128 0x3a
 15465 043d 0B       		.uleb128 0xb
 15466 043e 3B       		.uleb128 0x3b
 15467 043f 05       		.uleb128 0x5
 15468 0440 27       		.uleb128 0x27
 15469 0441 19       		.uleb128 0x19
 15470 0442 49       		.uleb128 0x49
 15471 0443 13       		.uleb128 0x13
 15472 0444 11       		.uleb128 0x11
 15473 0445 01       		.uleb128 0x1
 15474 0446 12       		.uleb128 0x12
 15475 0447 06       		.uleb128 0x6
 15476 0448 40       		.uleb128 0x40
 15477 0449 18       		.uleb128 0x18
 15478 044a 9742     		.uleb128 0x2117
 15479 044c 19       		.uleb128 0x19
 15480 044d 00       		.byte	0
 15481 044e 00       		.byte	0
ARM GAS  /tmp/ccIHdayg.s 			page 274


 15482 044f 53       		.uleb128 0x53
 15483 0450 2E       		.uleb128 0x2e
 15484 0451 01       		.byte	0x1
 15485 0452 3F       		.uleb128 0x3f
 15486 0453 19       		.uleb128 0x19
 15487 0454 03       		.uleb128 0x3
 15488 0455 0E       		.uleb128 0xe
 15489 0456 3A       		.uleb128 0x3a
 15490 0457 0B       		.uleb128 0xb
 15491 0458 3B       		.uleb128 0x3b
 15492 0459 0B       		.uleb128 0xb
 15493 045a 27       		.uleb128 0x27
 15494 045b 19       		.uleb128 0x19
 15495 045c 11       		.uleb128 0x11
 15496 045d 01       		.uleb128 0x1
 15497 045e 12       		.uleb128 0x12
 15498 045f 06       		.uleb128 0x6
 15499 0460 40       		.uleb128 0x40
 15500 0461 18       		.uleb128 0x18
 15501 0462 9742     		.uleb128 0x2117
 15502 0464 19       		.uleb128 0x19
 15503 0465 01       		.uleb128 0x1
 15504 0466 13       		.uleb128 0x13
 15505 0467 00       		.byte	0
 15506 0468 00       		.byte	0
 15507 0469 54       		.uleb128 0x54
 15508 046a 898201   		.uleb128 0x4109
 15509 046d 01       		.byte	0x1
 15510 046e 11       		.uleb128 0x11
 15511 046f 01       		.uleb128 0x1
 15512 0470 9542     		.uleb128 0x2115
 15513 0472 19       		.uleb128 0x19
 15514 0473 31       		.uleb128 0x31
 15515 0474 13       		.uleb128 0x13
 15516 0475 00       		.byte	0
 15517 0476 00       		.byte	0
 15518 0477 55       		.uleb128 0x55
 15519 0478 05       		.uleb128 0x5
 15520 0479 00       		.byte	0
 15521 047a 03       		.uleb128 0x3
 15522 047b 0E       		.uleb128 0xe
 15523 047c 3A       		.uleb128 0x3a
 15524 047d 0B       		.uleb128 0xb
 15525 047e 3B       		.uleb128 0x3b
 15526 047f 0B       		.uleb128 0xb
 15527 0480 49       		.uleb128 0x49
 15528 0481 13       		.uleb128 0x13
 15529 0482 02       		.uleb128 0x2
 15530 0483 17       		.uleb128 0x17
 15531 0484 00       		.byte	0
 15532 0485 00       		.byte	0
 15533 0486 56       		.uleb128 0x56
 15534 0487 0B       		.uleb128 0xb
 15535 0488 01       		.byte	0x1
 15536 0489 11       		.uleb128 0x11
 15537 048a 01       		.uleb128 0x1
 15538 048b 12       		.uleb128 0x12
ARM GAS  /tmp/ccIHdayg.s 			page 275


 15539 048c 06       		.uleb128 0x6
 15540 048d 01       		.uleb128 0x1
 15541 048e 13       		.uleb128 0x13
 15542 048f 00       		.byte	0
 15543 0490 00       		.byte	0
 15544 0491 57       		.uleb128 0x57
 15545 0492 34       		.uleb128 0x34
 15546 0493 00       		.byte	0
 15547 0494 03       		.uleb128 0x3
 15548 0495 08       		.uleb128 0x8
 15549 0496 3A       		.uleb128 0x3a
 15550 0497 0B       		.uleb128 0xb
 15551 0498 3B       		.uleb128 0x3b
 15552 0499 0B       		.uleb128 0xb
 15553 049a 49       		.uleb128 0x49
 15554 049b 13       		.uleb128 0x13
 15555 049c 02       		.uleb128 0x2
 15556 049d 17       		.uleb128 0x17
 15557 049e 00       		.byte	0
 15558 049f 00       		.byte	0
 15559 04a0 58       		.uleb128 0x58
 15560 04a1 34       		.uleb128 0x34
 15561 04a2 00       		.byte	0
 15562 04a3 03       		.uleb128 0x3
 15563 04a4 08       		.uleb128 0x8
 15564 04a5 3A       		.uleb128 0x3a
 15565 04a6 0B       		.uleb128 0xb
 15566 04a7 3B       		.uleb128 0x3b
 15567 04a8 0B       		.uleb128 0xb
 15568 04a9 49       		.uleb128 0x49
 15569 04aa 13       		.uleb128 0x13
 15570 04ab 00       		.byte	0
 15571 04ac 00       		.byte	0
 15572 04ad 59       		.uleb128 0x59
 15573 04ae 2E       		.uleb128 0x2e
 15574 04af 01       		.byte	0x1
 15575 04b0 3F       		.uleb128 0x3f
 15576 04b1 19       		.uleb128 0x19
 15577 04b2 03       		.uleb128 0x3
 15578 04b3 0E       		.uleb128 0xe
 15579 04b4 3A       		.uleb128 0x3a
 15580 04b5 0B       		.uleb128 0xb
 15581 04b6 3B       		.uleb128 0x3b
 15582 04b7 0B       		.uleb128 0xb
 15583 04b8 27       		.uleb128 0x27
 15584 04b9 19       		.uleb128 0x19
 15585 04ba 20       		.uleb128 0x20
 15586 04bb 0B       		.uleb128 0xb
 15587 04bc 01       		.uleb128 0x1
 15588 04bd 13       		.uleb128 0x13
 15589 04be 00       		.byte	0
 15590 04bf 00       		.byte	0
 15591 04c0 5A       		.uleb128 0x5a
 15592 04c1 05       		.uleb128 0x5
 15593 04c2 00       		.byte	0
 15594 04c3 03       		.uleb128 0x3
 15595 04c4 0E       		.uleb128 0xe
ARM GAS  /tmp/ccIHdayg.s 			page 276


 15596 04c5 3A       		.uleb128 0x3a
 15597 04c6 0B       		.uleb128 0xb
 15598 04c7 3B       		.uleb128 0x3b
 15599 04c8 0B       		.uleb128 0xb
 15600 04c9 49       		.uleb128 0x49
 15601 04ca 13       		.uleb128 0x13
 15602 04cb 00       		.byte	0
 15603 04cc 00       		.byte	0
 15604 04cd 5B       		.uleb128 0x5b
 15605 04ce 05       		.uleb128 0x5
 15606 04cf 00       		.byte	0
 15607 04d0 03       		.uleb128 0x3
 15608 04d1 08       		.uleb128 0x8
 15609 04d2 3A       		.uleb128 0x3a
 15610 04d3 0B       		.uleb128 0xb
 15611 04d4 3B       		.uleb128 0x3b
 15612 04d5 0B       		.uleb128 0xb
 15613 04d6 49       		.uleb128 0x49
 15614 04d7 13       		.uleb128 0x13
 15615 04d8 02       		.uleb128 0x2
 15616 04d9 17       		.uleb128 0x17
 15617 04da 00       		.byte	0
 15618 04db 00       		.byte	0
 15619 04dc 5C       		.uleb128 0x5c
 15620 04dd 34       		.uleb128 0x34
 15621 04de 00       		.byte	0
 15622 04df 03       		.uleb128 0x3
 15623 04e0 08       		.uleb128 0x8
 15624 04e1 3A       		.uleb128 0x3a
 15625 04e2 0B       		.uleb128 0xb
 15626 04e3 3B       		.uleb128 0x3b
 15627 04e4 0B       		.uleb128 0xb
 15628 04e5 49       		.uleb128 0x49
 15629 04e6 13       		.uleb128 0x13
 15630 04e7 1C       		.uleb128 0x1c
 15631 04e8 0A       		.uleb128 0xa
 15632 04e9 00       		.byte	0
 15633 04ea 00       		.byte	0
 15634 04eb 5D       		.uleb128 0x5d
 15635 04ec 2E       		.uleb128 0x2e
 15636 04ed 01       		.byte	0x1
 15637 04ee 3F       		.uleb128 0x3f
 15638 04ef 19       		.uleb128 0x19
 15639 04f0 03       		.uleb128 0x3
 15640 04f1 0E       		.uleb128 0xe
 15641 04f2 3A       		.uleb128 0x3a
 15642 04f3 0B       		.uleb128 0xb
 15643 04f4 3B       		.uleb128 0x3b
 15644 04f5 0B       		.uleb128 0xb
 15645 04f6 27       		.uleb128 0x27
 15646 04f7 19       		.uleb128 0x19
 15647 04f8 49       		.uleb128 0x49
 15648 04f9 13       		.uleb128 0x13
 15649 04fa 20       		.uleb128 0x20
 15650 04fb 0B       		.uleb128 0xb
 15651 04fc 01       		.uleb128 0x1
 15652 04fd 13       		.uleb128 0x13
ARM GAS  /tmp/ccIHdayg.s 			page 277


 15653 04fe 00       		.byte	0
 15654 04ff 00       		.byte	0
 15655 0500 5E       		.uleb128 0x5e
 15656 0501 05       		.uleb128 0x5
 15657 0502 00       		.byte	0
 15658 0503 03       		.uleb128 0x3
 15659 0504 08       		.uleb128 0x8
 15660 0505 3A       		.uleb128 0x3a
 15661 0506 0B       		.uleb128 0xb
 15662 0507 3B       		.uleb128 0x3b
 15663 0508 0B       		.uleb128 0xb
 15664 0509 49       		.uleb128 0x49
 15665 050a 13       		.uleb128 0x13
 15666 050b 00       		.byte	0
 15667 050c 00       		.byte	0
 15668 050d 5F       		.uleb128 0x5f
 15669 050e 2E       		.uleb128 0x2e
 15670 050f 01       		.byte	0x1
 15671 0510 03       		.uleb128 0x3
 15672 0511 0E       		.uleb128 0xe
 15673 0512 3A       		.uleb128 0x3a
 15674 0513 0B       		.uleb128 0xb
 15675 0514 3B       		.uleb128 0x3b
 15676 0515 0B       		.uleb128 0xb
 15677 0516 27       		.uleb128 0x27
 15678 0517 19       		.uleb128 0x19
 15679 0518 20       		.uleb128 0x20
 15680 0519 0B       		.uleb128 0xb
 15681 051a 01       		.uleb128 0x1
 15682 051b 13       		.uleb128 0x13
 15683 051c 00       		.byte	0
 15684 051d 00       		.byte	0
 15685 051e 60       		.uleb128 0x60
 15686 051f 2E       		.uleb128 0x2e
 15687 0520 00       		.byte	0
 15688 0521 03       		.uleb128 0x3
 15689 0522 0E       		.uleb128 0xe
 15690 0523 3A       		.uleb128 0x3a
 15691 0524 0B       		.uleb128 0xb
 15692 0525 3B       		.uleb128 0x3b
 15693 0526 0B       		.uleb128 0xb
 15694 0527 27       		.uleb128 0x27
 15695 0528 19       		.uleb128 0x19
 15696 0529 49       		.uleb128 0x49
 15697 052a 13       		.uleb128 0x13
 15698 052b 20       		.uleb128 0x20
 15699 052c 0B       		.uleb128 0xb
 15700 052d 00       		.byte	0
 15701 052e 00       		.byte	0
 15702 052f 61       		.uleb128 0x61
 15703 0530 2E       		.uleb128 0x2e
 15704 0531 01       		.byte	0x1
 15705 0532 31       		.uleb128 0x31
 15706 0533 13       		.uleb128 0x13
 15707 0534 11       		.uleb128 0x11
 15708 0535 01       		.uleb128 0x1
 15709 0536 12       		.uleb128 0x12
ARM GAS  /tmp/ccIHdayg.s 			page 278


 15710 0537 06       		.uleb128 0x6
 15711 0538 40       		.uleb128 0x40
 15712 0539 18       		.uleb128 0x18
 15713 053a 9742     		.uleb128 0x2117
 15714 053c 19       		.uleb128 0x19
 15715 053d 01       		.uleb128 0x1
 15716 053e 13       		.uleb128 0x13
 15717 053f 00       		.byte	0
 15718 0540 00       		.byte	0
 15719 0541 62       		.uleb128 0x62
 15720 0542 0B       		.uleb128 0xb
 15721 0543 01       		.byte	0x1
 15722 0544 31       		.uleb128 0x31
 15723 0545 13       		.uleb128 0x13
 15724 0546 11       		.uleb128 0x11
 15725 0547 01       		.uleb128 0x1
 15726 0548 12       		.uleb128 0x12
 15727 0549 06       		.uleb128 0x6
 15728 054a 01       		.uleb128 0x1
 15729 054b 13       		.uleb128 0x13
 15730 054c 00       		.byte	0
 15731 054d 00       		.byte	0
 15732 054e 63       		.uleb128 0x63
 15733 054f 0B       		.uleb128 0xb
 15734 0550 01       		.byte	0x1
 15735 0551 31       		.uleb128 0x31
 15736 0552 13       		.uleb128 0x13
 15737 0553 55       		.uleb128 0x55
 15738 0554 17       		.uleb128 0x17
 15739 0555 01       		.uleb128 0x1
 15740 0556 13       		.uleb128 0x13
 15741 0557 00       		.byte	0
 15742 0558 00       		.byte	0
 15743 0559 64       		.uleb128 0x64
 15744 055a 0B       		.uleb128 0xb
 15745 055b 01       		.byte	0x1
 15746 055c 31       		.uleb128 0x31
 15747 055d 13       		.uleb128 0x13
 15748 055e 55       		.uleb128 0x55
 15749 055f 17       		.uleb128 0x17
 15750 0560 00       		.byte	0
 15751 0561 00       		.byte	0
 15752 0562 65       		.uleb128 0x65
 15753 0563 05       		.uleb128 0x5
 15754 0564 00       		.byte	0
 15755 0565 31       		.uleb128 0x31
 15756 0566 13       		.uleb128 0x13
 15757 0567 1C       		.uleb128 0x1c
 15758 0568 0B       		.uleb128 0xb
 15759 0569 00       		.byte	0
 15760 056a 00       		.byte	0
 15761 056b 66       		.uleb128 0x66
 15762 056c 34       		.uleb128 0x34
 15763 056d 00       		.byte	0
 15764 056e 31       		.uleb128 0x31
 15765 056f 13       		.uleb128 0x13
 15766 0570 02       		.uleb128 0x2
ARM GAS  /tmp/ccIHdayg.s 			page 279


 15767 0571 18       		.uleb128 0x18
 15768 0572 00       		.byte	0
 15769 0573 00       		.byte	0
 15770 0574 67       		.uleb128 0x67
 15771 0575 2E       		.uleb128 0x2e
 15772 0576 00       		.byte	0
 15773 0577 3F       		.uleb128 0x3f
 15774 0578 19       		.uleb128 0x19
 15775 0579 3C       		.uleb128 0x3c
 15776 057a 19       		.uleb128 0x19
 15777 057b 6E       		.uleb128 0x6e
 15778 057c 0E       		.uleb128 0xe
 15779 057d 03       		.uleb128 0x3
 15780 057e 0E       		.uleb128 0xe
 15781 057f 3A       		.uleb128 0x3a
 15782 0580 0B       		.uleb128 0xb
 15783 0581 3B       		.uleb128 0x3b
 15784 0582 0B       		.uleb128 0xb
 15785 0583 00       		.byte	0
 15786 0584 00       		.byte	0
 15787 0585 68       		.uleb128 0x68
 15788 0586 2E       		.uleb128 0x2e
 15789 0587 00       		.byte	0
 15790 0588 3F       		.uleb128 0x3f
 15791 0589 19       		.uleb128 0x19
 15792 058a 3C       		.uleb128 0x3c
 15793 058b 19       		.uleb128 0x19
 15794 058c 6E       		.uleb128 0x6e
 15795 058d 0E       		.uleb128 0xe
 15796 058e 03       		.uleb128 0x3
 15797 058f 0E       		.uleb128 0xe
 15798 0590 3A       		.uleb128 0x3a
 15799 0591 0B       		.uleb128 0xb
 15800 0592 3B       		.uleb128 0x3b
 15801 0593 05       		.uleb128 0x5
 15802 0594 00       		.byte	0
 15803 0595 00       		.byte	0
 15804 0596 69       		.uleb128 0x69
 15805 0597 2E       		.uleb128 0x2e
 15806 0598 00       		.byte	0
 15807 0599 3F       		.uleb128 0x3f
 15808 059a 19       		.uleb128 0x19
 15809 059b 3C       		.uleb128 0x3c
 15810 059c 19       		.uleb128 0x19
 15811 059d 6E       		.uleb128 0x6e
 15812 059e 0E       		.uleb128 0xe
 15813 059f 03       		.uleb128 0x3
 15814 05a0 0E       		.uleb128 0xe
 15815 05a1 3A       		.uleb128 0x3a
 15816 05a2 0B       		.uleb128 0xb
 15817 05a3 3B       		.uleb128 0x3b
 15818 05a4 0B       		.uleb128 0xb
 15819 05a5 6E       		.uleb128 0x6e
 15820 05a6 0E       		.uleb128 0xe
 15821 05a7 00       		.byte	0
 15822 05a8 00       		.byte	0
 15823 05a9 00       		.byte	0
ARM GAS  /tmp/ccIHdayg.s 			page 280


 15824              		.section	.debug_loc,"",%progbits
 15825              	.Ldebug_loc0:
 15826              	.LLST3:
 15827 0000 00000000 		.4byte	.LVL15
 15828 0004 02000000 		.4byte	.LVL16
 15829 0008 0100     		.2byte	0x1
 15830 000a 50       		.byte	0x50
 15831 000b 02000000 		.4byte	.LVL16
 15832 000f D8000000 		.4byte	.LFE291
 15833 0013 0300     		.2byte	0x3
 15834 0015 70       		.byte	0x70
 15835 0016 01       		.sleb128 1
 15836 0017 9F       		.byte	0x9f
 15837 0018 00000000 		.4byte	0
 15838 001c 00000000 		.4byte	0
 15839              	.LLST14:
 15840 0020 00000000 		.4byte	.LVL44
 15841 0024 3C000000 		.4byte	.LVL45
 15842 0028 0100     		.2byte	0x1
 15843 002a 50       		.byte	0x50
 15844 002b 3C000000 		.4byte	.LVL45
 15845 002f EC0E0000 		.4byte	.LFE287
 15846 0033 0400     		.2byte	0x4
 15847 0035 F3       		.byte	0xf3
 15848 0036 01       		.uleb128 0x1
 15849 0037 50       		.byte	0x50
 15850 0038 9F       		.byte	0x9f
 15851 0039 00000000 		.4byte	0
 15852 003d 00000000 		.4byte	0
 15853              	.LLST15:
 15854 0041 40090000 		.4byte	.LVL95
 15855 0045 42090000 		.4byte	.LVL96
 15856 0049 0200     		.2byte	0x2
 15857 004b 30       		.byte	0x30
 15858 004c 9F       		.byte	0x9f
 15859 004d 42090000 		.4byte	.LVL96
 15860 0051 96090000 		.4byte	.LVL100
 15861 0055 0100     		.2byte	0x1
 15862 0057 56       		.byte	0x56
 15863 0058 00000000 		.4byte	0
 15864 005c 00000000 		.4byte	0
 15865              	.LLST16:
 15866 0060 48090000 		.4byte	.LVL97
 15867 0064 96090000 		.4byte	.LVL100
 15868 0068 0100     		.2byte	0x1
 15869 006a 50       		.byte	0x50
 15870 006b 00000000 		.4byte	0
 15871 006f 00000000 		.4byte	0
 15872              	.LLST17:
 15873 0073 48090000 		.4byte	.LVL97
 15874 0077 54090000 		.4byte	.LVL99
 15875 007b 0200     		.2byte	0x2
 15876 007d 70       		.byte	0x70
 15877 007e 04       		.sleb128 4
 15878 007f 00000000 		.4byte	0
 15879 0083 00000000 		.4byte	0
 15880              	.LLST18:
ARM GAS  /tmp/ccIHdayg.s 			page 281


 15881 0087 38040000 		.4byte	.LVL71
 15882 008b 5E040000 		.4byte	.LVL72
 15883 008f 0600     		.2byte	0x6
 15884 0091 9E       		.byte	0x9e
 15885 0092 04       		.uleb128 0x4
 15886 0093 00000000 		.4byte	0
 15887 0097 5E040000 		.4byte	.LVL72
 15888 009b AE040000 		.4byte	.LVL74
 15889 009f 0200     		.2byte	0x2
 15890 00a1 90       		.byte	0x90
 15891 00a2 4F       		.uleb128 0x4f
 15892 00a3 5E0B0000 		.4byte	.LVL118
 15893 00a7 620B0000 		.4byte	.LVL119
 15894 00ab 0200     		.2byte	0x2
 15895 00ad 90       		.byte	0x90
 15896 00ae 4F       		.uleb128 0x4f
 15897 00af 3E0C0000 		.4byte	.LVL122
 15898 00b3 480C0000 		.4byte	.LVL123
 15899 00b7 0600     		.2byte	0x6
 15900 00b9 9E       		.byte	0x9e
 15901 00ba 04       		.uleb128 0x4
 15902 00bb 00000000 		.4byte	0
 15903 00bf 480C0000 		.4byte	.LVL123
 15904 00c3 4A0C0000 		.4byte	.LVL124
 15905 00c7 0200     		.2byte	0x2
 15906 00c9 90       		.byte	0x90
 15907 00ca 4F       		.uleb128 0x4f
 15908 00cb 920C0000 		.4byte	.LVL125
 15909 00cf B60C0000 		.4byte	.LVL127
 15910 00d3 0200     		.2byte	0x2
 15911 00d5 90       		.byte	0x90
 15912 00d6 4F       		.uleb128 0x4f
 15913 00d7 00000000 		.4byte	0
 15914 00db 00000000 		.4byte	0
 15915              	.LLST19:
 15916 00df 6A050000 		.4byte	.LVL80
 15917 00e3 A6050000 		.4byte	.LVL81
 15918 00e7 0200     		.2byte	0x2
 15919 00e9 90       		.byte	0x90
 15920 00ea 4D       		.uleb128 0x4d
 15921 00eb 4A0B0000 		.4byte	.LVL116
 15922 00ef 540B0000 		.4byte	.LVL117
 15923 00f3 0200     		.2byte	0x2
 15924 00f5 90       		.byte	0x90
 15925 00f6 4D       		.uleb128 0x4d
 15926 00f7 7A0B0000 		.4byte	.LVL120
 15927 00fb C00B0000 		.4byte	.LVL121
 15928 00ff 0200     		.2byte	0x2
 15929 0101 90       		.byte	0x90
 15930 0102 4D       		.uleb128 0x4d
 15931 0103 00000000 		.4byte	0
 15932 0107 00000000 		.4byte	0
 15933              	.LLST20:
 15934 010b D0040000 		.4byte	.LVL75
 15935 010f 10050000 		.4byte	.LVL77
 15936 0113 0200     		.2byte	0x2
 15937 0115 90       		.byte	0x90
ARM GAS  /tmp/ccIHdayg.s 			page 282


 15938 0116 4D       		.uleb128 0x4d
 15939 0117 00000000 		.4byte	0
 15940 011b 00000000 		.4byte	0
 15941              	.LLST21:
 15942 011f D0040000 		.4byte	.LVL75
 15943 0123 10050000 		.4byte	.LVL77
 15944 0127 0600     		.2byte	0x6
 15945 0129 03       		.byte	0x3
 15946 012a 00000000 		.4byte	torquetilt_current_biquad
 15947 012e 9F       		.byte	0x9f
 15948 012f 00000000 		.4byte	0
 15949 0133 00000000 		.4byte	0
 15950              	.LLST22:
 15951 0137 F4040000 		.4byte	.LVL76
 15952 013b 10050000 		.4byte	.LVL77
 15953 013f 0200     		.2byte	0x2
 15954 0141 90       		.byte	0x90
 15955 0142 55       		.uleb128 0x55
 15956 0143 00000000 		.4byte	0
 15957 0147 00000000 		.4byte	0
 15958              	.LLST23:
 15959 014b 92060000 		.4byte	.LVL83
 15960 014f CE060000 		.4byte	.LVL84
 15961 0153 0200     		.2byte	0x2
 15962 0155 90       		.byte	0x90
 15963 0156 4E       		.uleb128 0x4e
 15964 0157 CE060000 		.4byte	.LVL84
 15965 015b D2060000 		.4byte	.LVL85
 15966 015f 0800     		.2byte	0x8
 15967 0161 F5       		.byte	0xf5
 15968 0162 40       		.uleb128 0x40
 15969 0163 25       		.uleb128 0x25
 15970 0164 F5       		.byte	0xf5
 15971 0165 4D       		.uleb128 0x4d
 15972 0166 25       		.uleb128 0x25
 15973 0167 1C       		.byte	0x1c
 15974 0168 9F       		.byte	0x9f
 15975 0169 580E0000 		.4byte	.LVL128
 15976 016d 5C0E0000 		.4byte	.LVL129
 15977 0171 0200     		.2byte	0x2
 15978 0173 90       		.byte	0x90
 15979 0174 4E       		.uleb128 0x4e
 15980 0175 5C0E0000 		.4byte	.LVL129
 15981 0179 620E0000 		.4byte	.LVL130
 15982 017d 0800     		.2byte	0x8
 15983 017f F5       		.byte	0xf5
 15984 0180 40       		.uleb128 0x40
 15985 0181 25       		.uleb128 0x25
 15986 0182 F5       		.byte	0xf5
 15987 0183 4D       		.uleb128 0x4d
 15988 0184 25       		.uleb128 0x25
 15989 0185 1C       		.byte	0x1c
 15990 0186 9F       		.byte	0x9f
 15991 0187 620E0000 		.4byte	.LVL130
 15992 018b 6A0E0000 		.4byte	.LVL131
 15993 018f 0200     		.2byte	0x2
 15994 0191 90       		.byte	0x90
ARM GAS  /tmp/ccIHdayg.s 			page 283


 15995 0192 4E       		.uleb128 0x4e
 15996 0193 6A0E0000 		.4byte	.LVL131
 15997 0197 6C0E0000 		.4byte	.LVL132
 15998 019b 0800     		.2byte	0x8
 15999 019d F5       		.byte	0xf5
 16000 019e 40       		.uleb128 0x40
 16001 019f 25       		.uleb128 0x25
 16002 01a0 F5       		.byte	0xf5
 16003 01a1 4D       		.uleb128 0x4d
 16004 01a2 25       		.uleb128 0x25
 16005 01a3 1C       		.byte	0x1c
 16006 01a4 9F       		.byte	0x9f
 16007 01a5 00000000 		.4byte	0
 16008 01a9 00000000 		.4byte	0
 16009              	.LLST24:
 16010 01ad 4E070000 		.4byte	.LVL86
 16011 01b1 00080000 		.4byte	.LVL88
 16012 01b5 0500     		.2byte	0x5
 16013 01b7 03       		.byte	0x3
 16014 01b8 00000000 		.4byte	derivative
 16015 01bc 00000000 		.4byte	0
 16016 01c0 00000000 		.4byte	0
 16017              	.LLST25:
 16018 01c4 4E070000 		.4byte	.LVL86
 16019 01c8 0C080000 		.4byte	.LVL89
 16020 01cc 0600     		.2byte	0x6
 16021 01ce 03       		.byte	0x3
 16022 01cf 00000000 		.4byte	d_biquad_lowpass
 16023 01d3 9F       		.byte	0x9f
 16024 01d4 00000000 		.4byte	0
 16025 01d8 00000000 		.4byte	0
 16026              	.LLST26:
 16027 01dc 70070000 		.4byte	.LVL87
 16028 01e0 0C080000 		.4byte	.LVL89
 16029 01e4 0200     		.2byte	0x2
 16030 01e6 90       		.byte	0x90
 16031 01e7 4F       		.uleb128 0x4f
 16032 01e8 00000000 		.4byte	0
 16033 01ec 00000000 		.4byte	0
 16034              	.LLST27:
 16035 01f0 1A080000 		.4byte	.LVL90
 16036 01f4 50080000 		.4byte	.LVL92
 16037 01f8 0500     		.2byte	0x5
 16038 01fa 03       		.byte	0x3
 16039 01fb 00000000 		.4byte	derivative
 16040 01ff 00000000 		.4byte	0
 16041 0203 00000000 		.4byte	0
 16042              	.LLST28:
 16043 0207 1A080000 		.4byte	.LVL90
 16044 020b 5C080000 		.4byte	.LVL93
 16045 020f 0600     		.2byte	0x6
 16046 0211 03       		.byte	0x3
 16047 0212 00000000 		.4byte	d_biquad_highpass
 16048 0216 9F       		.byte	0x9f
 16049 0217 00000000 		.4byte	0
 16050 021b 00000000 		.4byte	0
 16051              	.LLST29:
ARM GAS  /tmp/ccIHdayg.s 			page 284


 16052 021f 3C080000 		.4byte	.LVL91
 16053 0223 5C080000 		.4byte	.LVL93
 16054 0227 0200     		.2byte	0x2
 16055 0229 90       		.byte	0x90
 16056 022a 4F       		.uleb128 0x4f
 16057 022b 00000000 		.4byte	0
 16058 022f 00000000 		.4byte	0
 16059              	.LLST2:
 16060 0233 00000000 		.4byte	.LVL3
 16061 0237 78000000 		.4byte	.LVL4
 16062 023b 0100     		.2byte	0x1
 16063 023d 50       		.byte	0x50
 16064 023e 78000000 		.4byte	.LVL4
 16065 0242 7A000000 		.4byte	.LVL5
 16066 0246 0400     		.2byte	0x4
 16067 0248 F3       		.byte	0xf3
 16068 0249 01       		.uleb128 0x1
 16069 024a 50       		.byte	0x50
 16070 024b 9F       		.byte	0x9f
 16071 024c 7A000000 		.4byte	.LVL5
 16072 0250 FE000000 		.4byte	.LVL6
 16073 0254 0100     		.2byte	0x1
 16074 0256 50       		.byte	0x50
 16075 0257 FE000000 		.4byte	.LVL6
 16076 025b 00010000 		.4byte	.LVL7
 16077 025f 0400     		.2byte	0x4
 16078 0261 F3       		.byte	0xf3
 16079 0262 01       		.uleb128 0x1
 16080 0263 50       		.byte	0x50
 16081 0264 9F       		.byte	0x9f
 16082 0265 00010000 		.4byte	.LVL7
 16083 0269 28010000 		.4byte	.LVL8
 16084 026d 0100     		.2byte	0x1
 16085 026f 50       		.byte	0x50
 16086 0270 28010000 		.4byte	.LVL8
 16087 0274 2E010000 		.4byte	.LVL9
 16088 0278 0400     		.2byte	0x4
 16089 027a F3       		.byte	0xf3
 16090 027b 01       		.uleb128 0x1
 16091 027c 50       		.byte	0x50
 16092 027d 9F       		.byte	0x9f
 16093 027e 2E010000 		.4byte	.LVL9
 16094 0282 36010000 		.4byte	.LVL10
 16095 0286 0100     		.2byte	0x1
 16096 0288 50       		.byte	0x50
 16097 0289 36010000 		.4byte	.LVL10
 16098 028d 3A010000 		.4byte	.LVL11
 16099 0291 0400     		.2byte	0x4
 16100 0293 F3       		.byte	0xf3
 16101 0294 01       		.uleb128 0x1
 16102 0295 50       		.byte	0x50
 16103 0296 9F       		.byte	0x9f
 16104 0297 3A010000 		.4byte	.LVL11
 16105 029b 62010000 		.4byte	.LVL12
 16106 029f 0100     		.2byte	0x1
 16107 02a1 50       		.byte	0x50
 16108 02a2 62010000 		.4byte	.LVL12
ARM GAS  /tmp/ccIHdayg.s 			page 285


 16109 02a6 68010000 		.4byte	.LVL13
 16110 02aa 0400     		.2byte	0x4
 16111 02ac F3       		.byte	0xf3
 16112 02ad 01       		.uleb128 0x1
 16113 02ae 50       		.byte	0x50
 16114 02af 9F       		.byte	0x9f
 16115 02b0 68010000 		.4byte	.LVL13
 16116 02b4 6A010000 		.4byte	.LVL14
 16117 02b8 0100     		.2byte	0x1
 16118 02ba 50       		.byte	0x50
 16119 02bb 6A010000 		.4byte	.LVL14
 16120 02bf A8010000 		.4byte	.LFE278
 16121 02c3 0400     		.2byte	0x4
 16122 02c5 F3       		.byte	0xf3
 16123 02c6 01       		.uleb128 0x1
 16124 02c7 50       		.byte	0x50
 16125 02c8 9F       		.byte	0x9f
 16126 02c9 00000000 		.4byte	0
 16127 02cd 00000000 		.4byte	0
 16128              	.LLST0:
 16129 02d1 26000000 		.4byte	.LVL0
 16130 02d5 50000000 		.4byte	.LVL1
 16131 02d9 0600     		.2byte	0x6
 16132 02db 03       		.byte	0x3
 16133 02dc 00000000 		.4byte	d_biquad_lowpass
 16134 02e0 9F       		.byte	0x9f
 16135 02e1 00000000 		.4byte	0
 16136 02e5 00000000 		.4byte	0
 16137              	.LLST1:
 16138 02e9 50000000 		.4byte	.LVL1
 16139 02ed 5E000000 		.4byte	.LVL2
 16140 02f1 0600     		.2byte	0x6
 16141 02f3 03       		.byte	0x3
 16142 02f4 00000000 		.4byte	d_biquad_highpass
 16143 02f8 9F       		.byte	0x9f
 16144 02f9 00000000 		.4byte	0
 16145 02fd 00000000 		.4byte	0
 16146              	.LLST44:
 16147 0301 00000000 		.4byte	.LVL179
 16148 0305 14000000 		.4byte	.LVL181
 16149 0309 0100     		.2byte	0x1
 16150 030b 50       		.byte	0x50
 16151 030c 14000000 		.4byte	.LVL181
 16152 0310 17000000 		.4byte	.LVL182-1
 16153 0314 0100     		.2byte	0x1
 16154 0316 51       		.byte	0x51
 16155 0317 17000000 		.4byte	.LVL182-1
 16156 031b 64030000 		.4byte	.LFE262
 16157 031f 0400     		.2byte	0x4
 16158 0321 F3       		.byte	0xf3
 16159 0322 01       		.uleb128 0x1
 16160 0323 50       		.byte	0x50
 16161 0324 9F       		.byte	0x9f
 16162 0325 00000000 		.4byte	0
 16163 0329 00000000 		.4byte	0
 16164              	.LLST45:
 16165 032d 00000000 		.4byte	.LVL179
ARM GAS  /tmp/ccIHdayg.s 			page 286


 16166 0331 12000000 		.4byte	.LVL180
 16167 0335 0100     		.2byte	0x1
 16168 0337 51       		.byte	0x51
 16169 0338 12000000 		.4byte	.LVL180
 16170 033c 1A000000 		.4byte	.LVL183
 16171 0340 0100     		.2byte	0x1
 16172 0342 55       		.byte	0x55
 16173 0343 1A000000 		.4byte	.LVL183
 16174 0347 1E000000 		.4byte	.LVL184
 16175 034b 0300     		.2byte	0x3
 16176 034d 75       		.byte	0x75
 16177 034e 70       		.sleb128 -16
 16178 034f 9F       		.byte	0x9f
 16179 0350 1E000000 		.4byte	.LVL184
 16180 0354 22000000 		.4byte	.LVL185
 16181 0358 0300     		.2byte	0x3
 16182 035a 75       		.byte	0x75
 16183 035b 60       		.sleb128 -32
 16184 035c 9F       		.byte	0x9f
 16185 035d 22000000 		.4byte	.LVL185
 16186 0361 3A000000 		.4byte	.LVL186
 16187 0365 0300     		.2byte	0x3
 16188 0367 75       		.byte	0x75
 16189 0368 50       		.sleb128 -48
 16190 0369 9F       		.byte	0x9f
 16191 036a 3A000000 		.4byte	.LVL186
 16192 036e 64030000 		.4byte	.LFE262
 16193 0372 0400     		.2byte	0x4
 16194 0374 F3       		.byte	0xf3
 16195 0375 01       		.uleb128 0x1
 16196 0376 51       		.byte	0x51
 16197 0377 9F       		.byte	0x9f
 16198 0378 00000000 		.4byte	0
 16199 037c 00000000 		.4byte	0
 16200              	.LLST46:
 16201 0380 EC010000 		.4byte	.LVL187
 16202 0384 F8010000 		.4byte	.LVL188
 16203 0388 0200     		.2byte	0x2
 16204 038a 90       		.byte	0x90
 16205 038b 4C       		.uleb128 0x4c
 16206 038c 00000000 		.4byte	0
 16207 0390 00000000 		.4byte	0
 16208              	.LLST47:
 16209 0394 2C020000 		.4byte	.LVL189
 16210 0398 38020000 		.4byte	.LVL190
 16211 039c 0200     		.2byte	0x2
 16212 039e 90       		.byte	0x90
 16213 039f 4C       		.uleb128 0x4c
 16214 03a0 00000000 		.4byte	0
 16215 03a4 00000000 		.4byte	0
 16216              	.LLST48:
 16217 03a8 52020000 		.4byte	.LVL191
 16218 03ac 5C020000 		.4byte	.LVL192
 16219 03b0 0F00     		.2byte	0xf
 16220 03b2 F5       		.byte	0xf5
 16221 03b3 40       		.uleb128 0x40
 16222 03b4 25       		.uleb128 0x25
ARM GAS  /tmp/ccIHdayg.s 			page 287


 16223 03b5 73       		.byte	0x73
 16224 03b6 00       		.sleb128 0
 16225 03b7 0A       		.byte	0xa
 16226 03b8 FFFF     		.2byte	0xffff
 16227 03ba 1A       		.byte	0x1a
 16228 03bb F7       		.byte	0xf7
 16229 03bc 2C       		.uleb128 0x2c
 16230 03bd F7       		.byte	0xf7
 16231 03be 25       		.uleb128 0x25
 16232 03bf 1B       		.byte	0x1b
 16233 03c0 9F       		.byte	0x9f
 16234 03c1 00000000 		.4byte	0
 16235 03c5 00000000 		.4byte	0
 16236              	.LLST49:
 16237 03c9 7A020000 		.4byte	.LVL194
 16238 03cd 84020000 		.4byte	.LVL195
 16239 03d1 0F00     		.2byte	0xf
 16240 03d3 F5       		.byte	0xf5
 16241 03d4 40       		.uleb128 0x40
 16242 03d5 25       		.uleb128 0x25
 16243 03d6 73       		.byte	0x73
 16244 03d7 00       		.sleb128 0
 16245 03d8 0A       		.byte	0xa
 16246 03d9 FFFF     		.2byte	0xffff
 16247 03db 1A       		.byte	0x1a
 16248 03dc F7       		.byte	0xf7
 16249 03dd 2C       		.uleb128 0x2c
 16250 03de F7       		.byte	0xf7
 16251 03df 25       		.uleb128 0x25
 16252 03e0 1B       		.byte	0x1b
 16253 03e1 9F       		.byte	0x9f
 16254 03e2 00000000 		.4byte	0
 16255 03e6 00000000 		.4byte	0
 16256              	.LLST50:
 16257 03ea A2020000 		.4byte	.LVL197
 16258 03ee AC020000 		.4byte	.LVL198
 16259 03f2 0F00     		.2byte	0xf
 16260 03f4 F5       		.byte	0xf5
 16261 03f5 40       		.uleb128 0x40
 16262 03f6 25       		.uleb128 0x25
 16263 03f7 73       		.byte	0x73
 16264 03f8 00       		.sleb128 0
 16265 03f9 0A       		.byte	0xa
 16266 03fa FFFF     		.2byte	0xffff
 16267 03fc 1A       		.byte	0x1a
 16268 03fd F7       		.byte	0xf7
 16269 03fe 2C       		.uleb128 0x2c
 16270 03ff F7       		.byte	0xf7
 16271 0400 25       		.uleb128 0x25
 16272 0401 1B       		.byte	0x1b
 16273 0402 9F       		.byte	0x9f
 16274 0403 00000000 		.4byte	0
 16275 0407 00000000 		.4byte	0
 16276              	.LLST40:
 16277 040b 00000000 		.4byte	.LVL172
 16278 040f 11000000 		.4byte	.LVL174-1
 16279 0413 0100     		.2byte	0x1
ARM GAS  /tmp/ccIHdayg.s 			page 288


 16280 0415 50       		.byte	0x50
 16281 0416 11000000 		.4byte	.LVL174-1
 16282 041a 90000000 		.4byte	.LFE260
 16283 041e 0100     		.2byte	0x1
 16284 0420 54       		.byte	0x54
 16285 0421 00000000 		.4byte	0
 16286 0425 00000000 		.4byte	0
 16287              	.LLST41:
 16288 0429 00000000 		.4byte	.LVL172
 16289 042d 11000000 		.4byte	.LVL174-1
 16290 0431 0100     		.2byte	0x1
 16291 0433 51       		.byte	0x51
 16292 0434 11000000 		.4byte	.LVL174-1
 16293 0438 90000000 		.4byte	.LFE260
 16294 043c 0400     		.2byte	0x4
 16295 043e F3       		.byte	0xf3
 16296 043f 01       		.uleb128 0x1
 16297 0440 51       		.byte	0x51
 16298 0441 9F       		.byte	0x9f
 16299 0442 00000000 		.4byte	0
 16300 0446 00000000 		.4byte	0
 16301              	.LLST42:
 16302 044a 00000000 		.4byte	.LVL172
 16303 044e 0A000000 		.4byte	.LVL173
 16304 0452 0200     		.2byte	0x2
 16305 0454 90       		.byte	0x90
 16306 0455 40       		.uleb128 0x40
 16307 0456 0A000000 		.4byte	.LVL173
 16308 045a 90000000 		.4byte	.LFE260
 16309 045e 0600     		.2byte	0x6
 16310 0460 F3       		.byte	0xf3
 16311 0461 03       		.uleb128 0x3
 16312 0462 F5       		.byte	0xf5
 16313 0463 40       		.uleb128 0x40
 16314 0464 25       		.uleb128 0x25
 16315 0465 9F       		.byte	0x9f
 16316 0466 00000000 		.4byte	0
 16317 046a 00000000 		.4byte	0
 16318              	.LLST43:
 16319 046e 12000000 		.4byte	.LVL174
 16320 0472 22000000 		.4byte	.LVL175
 16321 0476 0200     		.2byte	0x2
 16322 0478 90       		.byte	0x90
 16323 0479 40       		.uleb128 0x40
 16324 047a 00000000 		.4byte	0
 16325 047e 00000000 		.4byte	0
 16326              	.LLST4:
 16327 0482 00000000 		.4byte	.LVL17
 16328 0486 11000000 		.4byte	.LVL18-1
 16329 048a 0200     		.2byte	0x2
 16330 048c 90       		.byte	0x90
 16331 048d 40       		.uleb128 0x40
 16332 048e 11000000 		.4byte	.LVL18-1
 16333 0492 80000000 		.4byte	.LVL29
 16334 0496 0200     		.2byte	0x2
 16335 0498 90       		.byte	0x90
 16336 0499 52       		.uleb128 0x52
ARM GAS  /tmp/ccIHdayg.s 			page 289


 16337 049a 80000000 		.4byte	.LVL29
 16338 049e 82000000 		.4byte	.LVL30
 16339 04a2 0600     		.2byte	0x6
 16340 04a4 F3       		.byte	0xf3
 16341 04a5 03       		.uleb128 0x3
 16342 04a6 F5       		.byte	0xf5
 16343 04a7 40       		.uleb128 0x40
 16344 04a8 25       		.uleb128 0x25
 16345 04a9 9F       		.byte	0x9f
 16346 04aa 82000000 		.4byte	.LVL30
 16347 04ae 94000000 		.4byte	.LVL32
 16348 04b2 0200     		.2byte	0x2
 16349 04b4 90       		.byte	0x90
 16350 04b5 52       		.uleb128 0x52
 16351 04b6 94000000 		.4byte	.LVL32
 16352 04ba 9B000000 		.4byte	.LVL33-1
 16353 04be 0200     		.2byte	0x2
 16354 04c0 90       		.byte	0x90
 16355 04c1 40       		.uleb128 0x40
 16356 04c2 9B000000 		.4byte	.LVL33-1
 16357 04c6 B0000000 		.4byte	.LFE286
 16358 04ca 0600     		.2byte	0x6
 16359 04cc F3       		.byte	0xf3
 16360 04cd 03       		.uleb128 0x3
 16361 04ce F5       		.byte	0xf5
 16362 04cf 40       		.uleb128 0x40
 16363 04d0 25       		.uleb128 0x25
 16364 04d1 9F       		.byte	0x9f
 16365 04d2 00000000 		.4byte	0
 16366 04d6 00000000 		.4byte	0
 16367              	.LLST5:
 16368 04da 00000000 		.4byte	.LVL17
 16369 04de 11000000 		.4byte	.LVL18-1
 16370 04e2 0200     		.2byte	0x2
 16371 04e4 90       		.byte	0x90
 16372 04e5 41       		.uleb128 0x41
 16373 04e6 11000000 		.4byte	.LVL18-1
 16374 04ea B0000000 		.4byte	.LFE286
 16375 04ee 0200     		.2byte	0x2
 16376 04f0 90       		.byte	0x90
 16377 04f1 53       		.uleb128 0x53
 16378 04f2 00000000 		.4byte	0
 16379 04f6 00000000 		.4byte	0
 16380              	.LLST6:
 16381 04fa 1A000000 		.4byte	.LVL19
 16382 04fe 82000000 		.4byte	.LVL30
 16383 0502 0200     		.2byte	0x2
 16384 0504 90       		.byte	0x90
 16385 0505 53       		.uleb128 0x53
 16386 0506 00000000 		.4byte	0
 16387 050a 00000000 		.4byte	0
 16388              	.LLST7:
 16389 050e 1A000000 		.4byte	.LVL19
 16390 0512 80000000 		.4byte	.LVL29
 16391 0516 0200     		.2byte	0x2
 16392 0518 90       		.byte	0x90
 16393 0519 52       		.uleb128 0x52
ARM GAS  /tmp/ccIHdayg.s 			page 290


 16394 051a 80000000 		.4byte	.LVL29
 16395 051e 82000000 		.4byte	.LVL30
 16396 0522 0600     		.2byte	0x6
 16397 0524 F3       		.byte	0xf3
 16398 0525 03       		.uleb128 0x3
 16399 0526 F5       		.byte	0xf5
 16400 0527 40       		.uleb128 0x40
 16401 0528 25       		.uleb128 0x25
 16402 0529 9F       		.byte	0x9f
 16403 052a 00000000 		.4byte	0
 16404 052e 00000000 		.4byte	0
 16405              	.LLST8:
 16406 0532 36000000 		.4byte	.LVL21
 16407 0536 3A000000 		.4byte	.LVL22
 16408 053a 0200     		.2byte	0x2
 16409 053c 30       		.byte	0x30
 16410 053d 9F       		.byte	0x9f
 16411 053e 3A000000 		.4byte	.LVL22
 16412 0542 4C000000 		.4byte	.LVL25
 16413 0546 0100     		.2byte	0x1
 16414 0548 54       		.byte	0x54
 16415 0549 4C000000 		.4byte	.LVL25
 16416 054d 78000000 		.4byte	.LVL28
 16417 0551 0300     		.2byte	0x3
 16418 0553 74       		.byte	0x74
 16419 0554 7F       		.sleb128 -1
 16420 0555 9F       		.byte	0x9f
 16421 0556 78000000 		.4byte	.LVL28
 16422 055a 82000000 		.4byte	.LVL30
 16423 055e 0100     		.2byte	0x1
 16424 0560 54       		.byte	0x54
 16425 0561 00000000 		.4byte	0
 16426 0565 00000000 		.4byte	0
 16427              	.LLST9:
 16428 0569 3A000000 		.4byte	.LVL22
 16429 056d 3E000000 		.4byte	.LVL23
 16430 0571 0100     		.2byte	0x1
 16431 0573 50       		.byte	0x50
 16432 0574 44000000 		.4byte	.LVL24
 16433 0578 6C000000 		.4byte	.LVL27
 16434 057c 0100     		.2byte	0x1
 16435 057e 50       		.byte	0x50
 16436 057f 00000000 		.4byte	0
 16437 0583 00000000 		.4byte	0
 16438              	.LLST10:
 16439 0587 44000000 		.4byte	.LVL24
 16440 058b 52000000 		.4byte	.LVL26
 16441 058f 0200     		.2byte	0x2
 16442 0591 70       		.byte	0x70
 16443 0592 04       		.sleb128 4
 16444 0593 00000000 		.4byte	0
 16445 0597 00000000 		.4byte	0
 16446              	.LLST11:
 16447 059b 40000000 		.4byte	.LVL36
 16448 059f 52000000 		.4byte	.LVL39
 16449 05a3 0100     		.2byte	0x1
 16450 05a5 54       		.byte	0x54
ARM GAS  /tmp/ccIHdayg.s 			page 291


 16451 05a6 52000000 		.4byte	.LVL39
 16452 05aa 7A000000 		.4byte	.LVL42
 16453 05ae 0300     		.2byte	0x3
 16454 05b0 74       		.byte	0x74
 16455 05b1 7F       		.sleb128 -1
 16456 05b2 9F       		.byte	0x9f
 16457 05b3 7A000000 		.4byte	.LVL42
 16458 05b7 7E000000 		.4byte	.LVL43
 16459 05bb 0100     		.2byte	0x1
 16460 05bd 54       		.byte	0x54
 16461 05be 00000000 		.4byte	0
 16462 05c2 00000000 		.4byte	0
 16463              	.LLST12:
 16464 05c6 40000000 		.4byte	.LVL36
 16465 05ca 44000000 		.4byte	.LVL37
 16466 05ce 0100     		.2byte	0x1
 16467 05d0 50       		.byte	0x50
 16468 05d1 4A000000 		.4byte	.LVL38
 16469 05d5 76000000 		.4byte	.LVL41
 16470 05d9 0100     		.2byte	0x1
 16471 05db 50       		.byte	0x50
 16472 05dc 00000000 		.4byte	0
 16473 05e0 00000000 		.4byte	0
 16474              	.LLST13:
 16475 05e4 4A000000 		.4byte	.LVL38
 16476 05e8 58000000 		.4byte	.LVL40
 16477 05ec 0200     		.2byte	0x2
 16478 05ee 70       		.byte	0x70
 16479 05ef 04       		.sleb128 4
 16480 05f0 00000000 		.4byte	0
 16481 05f4 00000000 		.4byte	0
 16482              	.LLST30:
 16483 05f8 00000000 		.4byte	.LVL133
 16484 05fc 06000000 		.4byte	.LVL134
 16485 0600 0100     		.2byte	0x1
 16486 0602 50       		.byte	0x50
 16487 0603 06000000 		.4byte	.LVL134
 16488 0607 0A000000 		.4byte	.LVL135
 16489 060b 0400     		.2byte	0x4
 16490 060d F3       		.byte	0xf3
 16491 060e 01       		.uleb128 0x1
 16492 060f 50       		.byte	0x50
 16493 0610 9F       		.byte	0x9f
 16494 0611 0A000000 		.4byte	.LVL135
 16495 0615 1A000000 		.4byte	.LVL138
 16496 0619 0100     		.2byte	0x1
 16497 061b 50       		.byte	0x50
 16498 061c 1A000000 		.4byte	.LVL138
 16499 0620 48000000 		.4byte	.LFE289
 16500 0624 0400     		.2byte	0x4
 16501 0626 F3       		.byte	0xf3
 16502 0627 01       		.uleb128 0x1
 16503 0628 50       		.byte	0x50
 16504 0629 9F       		.byte	0x9f
 16505 062a 00000000 		.4byte	0
 16506 062e 00000000 		.4byte	0
 16507              	.LLST31:
ARM GAS  /tmp/ccIHdayg.s 			page 292


 16508 0632 00000000 		.4byte	.LVL133
 16509 0636 09000000 		.4byte	.LVL135-1
 16510 063a 0100     		.2byte	0x1
 16511 063c 51       		.byte	0x51
 16512 063d 09000000 		.4byte	.LVL135-1
 16513 0641 0A000000 		.4byte	.LVL135
 16514 0645 0400     		.2byte	0x4
 16515 0647 F3       		.byte	0xf3
 16516 0648 01       		.uleb128 0x1
 16517 0649 51       		.byte	0x51
 16518 064a 9F       		.byte	0x9f
 16519 064b 0A000000 		.4byte	.LVL135
 16520 064f 18000000 		.4byte	.LVL137
 16521 0653 0100     		.2byte	0x1
 16522 0655 51       		.byte	0x51
 16523 0656 18000000 		.4byte	.LVL137
 16524 065a 32000000 		.4byte	.LVL141
 16525 065e 0100     		.2byte	0x1
 16526 0660 54       		.byte	0x54
 16527 0661 32000000 		.4byte	.LVL141
 16528 0665 48000000 		.4byte	.LFE289
 16529 0669 0400     		.2byte	0x4
 16530 066b F3       		.byte	0xf3
 16531 066c 01       		.uleb128 0x1
 16532 066d 51       		.byte	0x51
 16533 066e 9F       		.byte	0x9f
 16534 066f 00000000 		.4byte	0
 16535 0673 00000000 		.4byte	0
 16536              	.LLST32:
 16537 0677 12000000 		.4byte	.LVL136
 16538 067b 32000000 		.4byte	.LVL141
 16539 067f 0100     		.2byte	0x1
 16540 0681 54       		.byte	0x54
 16541 0682 32000000 		.4byte	.LVL141
 16542 0686 48000000 		.4byte	.LFE289
 16543 068a 0400     		.2byte	0x4
 16544 068c F3       		.byte	0xf3
 16545 068d 01       		.uleb128 0x1
 16546 068e 51       		.byte	0x51
 16547 068f 9F       		.byte	0x9f
 16548 0690 00000000 		.4byte	0
 16549 0694 00000000 		.4byte	0
 16550              	.LLST33:
 16551 0698 00000000 		.4byte	.LVL142
 16552 069c 0C000000 		.4byte	.LVL143
 16553 06a0 0100     		.2byte	0x1
 16554 06a2 50       		.byte	0x50
 16555 06a3 0C000000 		.4byte	.LVL143
 16556 06a7 0F000000 		.4byte	.LVL144-1
 16557 06ab 0300     		.2byte	0x3
 16558 06ad 73       		.byte	0x73
 16559 06ae 02       		.sleb128 2
 16560 06af 9F       		.byte	0x9f
 16561 06b0 0F000000 		.4byte	.LVL144-1
 16562 06b4 14000000 		.4byte	.LVL145
 16563 06b8 0400     		.2byte	0x4
 16564 06ba F3       		.byte	0xf3
ARM GAS  /tmp/ccIHdayg.s 			page 293


 16565 06bb 01       		.uleb128 0x1
 16566 06bc 50       		.byte	0x50
 16567 06bd 9F       		.byte	0x9f
 16568 06be 14000000 		.4byte	.LVL145
 16569 06c2 1A000000 		.4byte	.LVL147
 16570 06c6 0100     		.2byte	0x1
 16571 06c8 50       		.byte	0x50
 16572 06c9 1A000000 		.4byte	.LVL147
 16573 06cd 5A000000 		.4byte	.LVL152
 16574 06d1 0100     		.2byte	0x1
 16575 06d3 54       		.byte	0x54
 16576 06d4 5A000000 		.4byte	.LVL152
 16577 06d8 6C000000 		.4byte	.LFE288
 16578 06dc 0400     		.2byte	0x4
 16579 06de F3       		.byte	0xf3
 16580 06df 01       		.uleb128 0x1
 16581 06e0 50       		.byte	0x50
 16582 06e1 9F       		.byte	0x9f
 16583 06e2 00000000 		.4byte	0
 16584 06e6 00000000 		.4byte	0
 16585              	.LLST34:
 16586 06ea 00000000 		.4byte	.LVL142
 16587 06ee 0F000000 		.4byte	.LVL144-1
 16588 06f2 0100     		.2byte	0x1
 16589 06f4 51       		.byte	0x51
 16590 06f5 0F000000 		.4byte	.LVL144-1
 16591 06f9 14000000 		.4byte	.LVL145
 16592 06fd 0400     		.2byte	0x4
 16593 06ff F3       		.byte	0xf3
 16594 0700 01       		.uleb128 0x1
 16595 0701 51       		.byte	0x51
 16596 0702 9F       		.byte	0x9f
 16597 0703 14000000 		.4byte	.LVL145
 16598 0707 22000000 		.4byte	.LVL148
 16599 070b 0100     		.2byte	0x1
 16600 070d 51       		.byte	0x51
 16601 070e 22000000 		.4byte	.LVL148
 16602 0712 5A000000 		.4byte	.LVL152
 16603 0716 0100     		.2byte	0x1
 16604 0718 55       		.byte	0x55
 16605 0719 5A000000 		.4byte	.LVL152
 16606 071d 6C000000 		.4byte	.LFE288
 16607 0721 0400     		.2byte	0x4
 16608 0723 F3       		.byte	0xf3
 16609 0724 01       		.uleb128 0x1
 16610 0725 51       		.byte	0x51
 16611 0726 9F       		.byte	0x9f
 16612 0727 00000000 		.4byte	0
 16613 072b 00000000 		.4byte	0
 16614              	.LLST35:
 16615 072f 18000000 		.4byte	.LVL146
 16616 0733 5A000000 		.4byte	.LVL152
 16617 0737 0100     		.2byte	0x1
 16618 0739 55       		.byte	0x55
 16619 073a 5A000000 		.4byte	.LVL152
 16620 073e 6C000000 		.4byte	.LFE288
 16621 0742 0400     		.2byte	0x4
ARM GAS  /tmp/ccIHdayg.s 			page 294


 16622 0744 F3       		.byte	0xf3
 16623 0745 01       		.uleb128 0x1
 16624 0746 51       		.byte	0x51
 16625 0747 9F       		.byte	0x9f
 16626 0748 00000000 		.4byte	0
 16627 074c 00000000 		.4byte	0
 16628              	.LLST36:
 16629 0750 18000000 		.4byte	.LVL146
 16630 0754 5A000000 		.4byte	.LVL152
 16631 0758 0100     		.2byte	0x1
 16632 075a 54       		.byte	0x54
 16633 075b 5A000000 		.4byte	.LVL152
 16634 075f 6C000000 		.4byte	.LFE288
 16635 0763 0400     		.2byte	0x4
 16636 0765 F3       		.byte	0xf3
 16637 0766 01       		.uleb128 0x1
 16638 0767 50       		.byte	0x50
 16639 0768 9F       		.byte	0x9f
 16640 0769 00000000 		.4byte	0
 16641 076d 00000000 		.4byte	0
 16642              	.LLST37:
 16643 0771 00000000 		.4byte	.LVL153
 16644 0775 0A000000 		.4byte	.LVL154
 16645 0779 0100     		.2byte	0x1
 16646 077b 50       		.byte	0x50
 16647 077c 0A000000 		.4byte	.LVL154
 16648 0780 12000000 		.4byte	.LVL156
 16649 0784 0400     		.2byte	0x4
 16650 0786 F3       		.byte	0xf3
 16651 0787 01       		.uleb128 0x1
 16652 0788 50       		.byte	0x50
 16653 0789 9F       		.byte	0x9f
 16654 078a 12000000 		.4byte	.LVL156
 16655 078e 1C000000 		.4byte	.LVL159
 16656 0792 0100     		.2byte	0x1
 16657 0794 50       		.byte	0x50
 16658 0795 1C000000 		.4byte	.LVL159
 16659 0799 E0000000 		.4byte	.LFE290
 16660 079d 0400     		.2byte	0x4
 16661 079f F3       		.byte	0xf3
 16662 07a0 01       		.uleb128 0x1
 16663 07a1 50       		.byte	0x50
 16664 07a2 9F       		.byte	0x9f
 16665 07a3 00000000 		.4byte	0
 16666 07a7 00000000 		.4byte	0
 16667              	.LLST38:
 16668 07ab 00000000 		.4byte	.LVL153
 16669 07af 0D000000 		.4byte	.LVL155-1
 16670 07b3 0100     		.2byte	0x1
 16671 07b5 51       		.byte	0x51
 16672 07b6 0D000000 		.4byte	.LVL155-1
 16673 07ba 12000000 		.4byte	.LVL156
 16674 07be 0400     		.2byte	0x4
 16675 07c0 F3       		.byte	0xf3
 16676 07c1 01       		.uleb128 0x1
 16677 07c2 51       		.byte	0x51
 16678 07c3 9F       		.byte	0x9f
ARM GAS  /tmp/ccIHdayg.s 			page 295


 16679 07c4 12000000 		.4byte	.LVL156
 16680 07c8 1A000000 		.4byte	.LVL158
 16681 07cc 0100     		.2byte	0x1
 16682 07ce 51       		.byte	0x51
 16683 07cf 1A000000 		.4byte	.LVL158
 16684 07d3 E0000000 		.4byte	.LFE290
 16685 07d7 0100     		.2byte	0x1
 16686 07d9 54       		.byte	0x54
 16687 07da 00000000 		.4byte	0
 16688 07de 00000000 		.4byte	0
 16689              	.LLST39:
 16690 07e2 00000000 		.4byte	.LVL170
 16691 07e6 28000000 		.4byte	.LVL171
 16692 07ea 0200     		.2byte	0x2
 16693 07ec 90       		.byte	0x90
 16694 07ed 40       		.uleb128 0x40
 16695 07ee 28000000 		.4byte	.LVL171
 16696 07f2 46000000 		.4byte	.LFE259
 16697 07f6 0200     		.2byte	0x2
 16698 07f8 90       		.byte	0x90
 16699 07f9 4C       		.uleb128 0x4c
 16700 07fa 00000000 		.4byte	0
 16701 07fe 00000000 		.4byte	0
 16702              		.section	.debug_aranges,"",%progbits
 16703 0000 E4000000 		.4byte	0xe4
 16704 0004 0200     		.2byte	0x2
 16705 0006 00000000 		.4byte	.Ldebug_info0
 16706 000a 04       		.byte	0x4
 16707 000b 00       		.byte	0
 16708 000c 0000     		.2byte	0
 16709 000e 0000     		.2byte	0
 16710 0010 00000000 		.4byte	.LFB276
 16711 0014 D4000000 		.4byte	.LFE276-.LFB276
 16712 0018 00000000 		.4byte	.LFB278
 16713 001c A8010000 		.4byte	.LFE278-.LFB278
 16714 0020 00000000 		.4byte	.LFB291
 16715 0024 D8000000 		.4byte	.LFE291-.LFB291
 16716 0028 00000000 		.4byte	.LFB286
 16717 002c B0000000 		.4byte	.LFE286-.LFB286
 16718 0030 00000000 		.4byte	.LFB285
 16719 0034 D4000000 		.4byte	.LFE285-.LFB285
 16720 0038 00000000 		.4byte	.LFB287
 16721 003c EC0E0000 		.4byte	.LFE287-.LFB287
 16722 0040 00000000 		.4byte	.LFB289
 16723 0044 48000000 		.4byte	.LFE289-.LFB289
 16724 0048 00000000 		.4byte	.LFB288
 16725 004c 6C000000 		.4byte	.LFE288-.LFB288
 16726 0050 00000000 		.4byte	.LFB290
 16727 0054 E0000000 		.4byte	.LFE290-.LFB290
 16728 0058 00000000 		.4byte	.LFB259
 16729 005c 46000000 		.4byte	.LFE259-.LFB259
 16730 0060 00000000 		.4byte	.LFB260
 16731 0064 90000000 		.4byte	.LFE260-.LFB260
 16732 0068 00000000 		.4byte	.LFB261
 16733 006c 08000000 		.4byte	.LFE261-.LFB261
 16734 0070 00000000 		.4byte	.LFB262
 16735 0074 64030000 		.4byte	.LFE262-.LFB262
ARM GAS  /tmp/ccIHdayg.s 			page 296


 16736 0078 00000000 		.4byte	.LFB263
 16737 007c 88000000 		.4byte	.LFE263-.LFB263
 16738 0080 00000000 		.4byte	.LFB264
 16739 0084 40000000 		.4byte	.LFE264-.LFB264
 16740 0088 00000000 		.4byte	.LFB265
 16741 008c 0C000000 		.4byte	.LFE265-.LFB265
 16742 0090 00000000 		.4byte	.LFB266
 16743 0094 0C000000 		.4byte	.LFE266-.LFB266
 16744 0098 00000000 		.4byte	.LFB267
 16745 009c 0C000000 		.4byte	.LFE267-.LFB267
 16746 00a0 00000000 		.4byte	.LFB268
 16747 00a4 24000000 		.4byte	.LFE268-.LFB268
 16748 00a8 00000000 		.4byte	.LFB269
 16749 00ac 0C000000 		.4byte	.LFE269-.LFB269
 16750 00b0 00000000 		.4byte	.LFB270
 16751 00b4 0C000000 		.4byte	.LFE270-.LFB270
 16752 00b8 00000000 		.4byte	.LFB271
 16753 00bc 0C000000 		.4byte	.LFE271-.LFB271
 16754 00c0 00000000 		.4byte	.LFB272
 16755 00c4 0C000000 		.4byte	.LFE272-.LFB272
 16756 00c8 00000000 		.4byte	.LFB273
 16757 00cc 0C000000 		.4byte	.LFE273-.LFB273
 16758 00d0 00000000 		.4byte	.LFB274
 16759 00d4 0C000000 		.4byte	.LFE274-.LFB274
 16760 00d8 00000000 		.4byte	.LFB275
 16761 00dc 0C000000 		.4byte	.LFE275-.LFB275
 16762 00e0 00000000 		.4byte	0
 16763 00e4 00000000 		.4byte	0
 16764              		.section	.debug_ranges,"",%progbits
 16765              	.Ldebug_ranges0:
 16766 0000 3A000000 		.4byte	.LBB60
 16767 0004 3C000000 		.4byte	.LBE60
 16768 0008 4C000000 		.4byte	.LBB69
 16769 000c 50000000 		.4byte	.LBE69
 16770 0010 00000000 		.4byte	0
 16771 0014 00000000 		.4byte	0
 16772 0018 3C000000 		.4byte	.LBB63
 16773 001c 3E000000 		.4byte	.LBE63
 16774 0020 52000000 		.4byte	.LBB70
 16775 0024 56000000 		.4byte	.LBE70
 16776 0028 00000000 		.4byte	0
 16777 002c 00000000 		.4byte	0
 16778 0030 44000000 		.4byte	.LBB66
 16779 0034 46000000 		.4byte	.LBE66
 16780 0038 5A000000 		.4byte	.LBB71
 16781 003c 5E000000 		.4byte	.LBE71
 16782 0040 00000000 		.4byte	0
 16783 0044 00000000 		.4byte	0
 16784 0048 1C000000 		.4byte	.LBB82
 16785 004c 1E000000 		.4byte	.LBE82
 16786 0050 22000000 		.4byte	.LBB95
 16787 0054 2A000000 		.4byte	.LBE95
 16788 0058 36000000 		.4byte	.LBB96
 16789 005c 7C000000 		.4byte	.LBE96
 16790 0060 00000000 		.4byte	0
 16791 0064 00000000 		.4byte	0
 16792 0068 1C000000 		.4byte	.LBB83
ARM GAS  /tmp/ccIHdayg.s 			page 297


 16793 006c 1E000000 		.4byte	.LBE83
 16794 0070 22000000 		.4byte	.LBB92
 16795 0074 2A000000 		.4byte	.LBE92
 16796 0078 3E000000 		.4byte	.LBB93
 16797 007c 48000000 		.4byte	.LBE93
 16798 0080 4C000000 		.4byte	.LBB94
 16799 0084 78000000 		.4byte	.LBE94
 16800 0088 00000000 		.4byte	0
 16801 008c 00000000 		.4byte	0
 16802 0090 1C000000 		.4byte	.LBB84
 16803 0094 1E000000 		.4byte	.LBE84
 16804 0098 4E000000 		.4byte	.LBB91
 16805 009c 54000000 		.4byte	.LBE91
 16806 00a0 00000000 		.4byte	0
 16807 00a4 00000000 		.4byte	0
 16808 00a8 1C000000 		.4byte	.LBB86
 16809 00ac 1E000000 		.4byte	.LBE86
 16810 00b0 50000000 		.4byte	.LBB89
 16811 00b4 52000000 		.4byte	.LBE89
 16812 00b8 00000000 		.4byte	0
 16813 00bc 00000000 		.4byte	0
 16814 00c0 32000000 		.4byte	.LBB108
 16815 00c4 3C000000 		.4byte	.LBE108
 16816 00c8 44000000 		.4byte	.LBB117
 16817 00cc 4E000000 		.4byte	.LBE117
 16818 00d0 52000000 		.4byte	.LBB118
 16819 00d4 7A000000 		.4byte	.LBE118
 16820 00d8 00000000 		.4byte	0
 16821 00dc 00000000 		.4byte	0
 16822 00e0 32000000 		.4byte	.LBB109
 16823 00e4 34000000 		.4byte	.LBE109
 16824 00e8 54000000 		.4byte	.LBB116
 16825 00ec 5A000000 		.4byte	.LBE116
 16826 00f0 00000000 		.4byte	0
 16827 00f4 00000000 		.4byte	0
 16828 00f8 32000000 		.4byte	.LBB111
 16829 00fc 34000000 		.4byte	.LBE111
 16830 0100 56000000 		.4byte	.LBB114
 16831 0104 58000000 		.4byte	.LBE114
 16832 0108 00000000 		.4byte	0
 16833 010c 00000000 		.4byte	0
 16834 0110 04000000 		.4byte	.LBB157
 16835 0114 0A000000 		.4byte	.LBE157
 16836 0118 12000000 		.4byte	.LBB160
 16837 011c 14000000 		.4byte	.LBE160
 16838 0120 00000000 		.4byte	0
 16839 0124 00000000 		.4byte	0
 16840 0128 38000000 		.4byte	.LBB161
 16841 012c 3C000000 		.4byte	.LBE161
 16842 0130 38090000 		.4byte	.LBB293
 16843 0134 3C090000 		.4byte	.LBE293
 16844 0138 40090000 		.4byte	.LBB294
 16845 013c 82090000 		.4byte	.LBE294
 16846 0140 00000000 		.4byte	0
 16847 0144 00000000 		.4byte	0
 16848 0148 38000000 		.4byte	.LBB162
 16849 014c 3C000000 		.4byte	.LBE162
ARM GAS  /tmp/ccIHdayg.s 			page 298


 16850 0150 38090000 		.4byte	.LBB167
 16851 0154 3C090000 		.4byte	.LBE167
 16852 0158 42090000 		.4byte	.LBB168
 16853 015c 4C090000 		.4byte	.LBE168
 16854 0160 50090000 		.4byte	.LBB169
 16855 0164 7E090000 		.4byte	.LBE169
 16856 0168 00000000 		.4byte	0
 16857 016c 00000000 		.4byte	0
 16858 0170 04020000 		.4byte	.LBB174
 16859 0174 70020000 		.4byte	.LBE174
 16860 0178 96090000 		.4byte	.LBB295
 16861 017c AA0A0000 		.4byte	.LBE295
 16862 0180 00000000 		.4byte	0
 16863 0184 00000000 		.4byte	0
 16864 0188 D0030000 		.4byte	.LBB179
 16865 018c 14040000 		.4byte	.LBE179
 16866 0190 18040000 		.4byte	.LBB233
 16867 0194 1E040000 		.4byte	.LBE233
 16868 0198 22040000 		.4byte	.LBB235
 16869 019c 28040000 		.4byte	.LBE235
 16870 01a0 FA0A0000 		.4byte	.LBB296
 16871 01a4 0C0B0000 		.4byte	.LBE296
 16872 01a8 160B0000 		.4byte	.LBB298
 16873 01ac 1A0B0000 		.4byte	.LBE298
 16874 01b0 1E0B0000 		.4byte	.LBB300
 16875 01b4 200B0000 		.4byte	.LBE300
 16876 01b8 B60C0000 		.4byte	.LBB309
 16877 01bc 0A0D0000 		.4byte	.LBE309
 16878 01c0 0E0D0000 		.4byte	.LBB311
 16879 01c4 140D0000 		.4byte	.LBE311
 16880 01c8 180D0000 		.4byte	.LBB313
 16881 01cc 1E0D0000 		.4byte	.LBE313
 16882 01d0 320D0000 		.4byte	.LBB315
 16883 01d4 700D0000 		.4byte	.LBE315
 16884 01d8 740D0000 		.4byte	.LBB317
 16885 01dc 7A0D0000 		.4byte	.LBE317
 16886 01e0 7E0D0000 		.4byte	.LBB319
 16887 01e4 840D0000 		.4byte	.LBE319
 16888 01e8 980D0000 		.4byte	.LBB321
 16889 01ec 9C0D0000 		.4byte	.LBE321
 16890 01f0 A00D0000 		.4byte	.LBB323
 16891 01f4 A60D0000 		.4byte	.LBE323
 16892 01f8 AA0D0000 		.4byte	.LBB325
 16893 01fc B00D0000 		.4byte	.LBE325
 16894 0200 00000000 		.4byte	0
 16895 0204 00000000 		.4byte	0
 16896 0208 14040000 		.4byte	.LBB195
 16897 020c 18040000 		.4byte	.LBE195
 16898 0210 1E040000 		.4byte	.LBB234
 16899 0214 22040000 		.4byte	.LBE234
 16900 0218 28040000 		.4byte	.LBB236
 16901 021c 2C040000 		.4byte	.LBE236
 16902 0220 0C0B0000 		.4byte	.LBB297
 16903 0224 160B0000 		.4byte	.LBE297
 16904 0228 1A0B0000 		.4byte	.LBB299
 16905 022c 1E0B0000 		.4byte	.LBE299
 16906 0230 200B0000 		.4byte	.LBB301
ARM GAS  /tmp/ccIHdayg.s 			page 299


 16907 0234 4A0B0000 		.4byte	.LBE301
 16908 0238 0A0D0000 		.4byte	.LBB310
 16909 023c 0E0D0000 		.4byte	.LBE310
 16910 0240 140D0000 		.4byte	.LBB312
 16911 0244 180D0000 		.4byte	.LBE312
 16912 0248 1E0D0000 		.4byte	.LBB314
 16913 024c 320D0000 		.4byte	.LBE314
 16914 0250 700D0000 		.4byte	.LBB316
 16915 0254 740D0000 		.4byte	.LBE316
 16916 0258 7A0D0000 		.4byte	.LBB318
 16917 025c 7E0D0000 		.4byte	.LBE318
 16918 0260 840D0000 		.4byte	.LBB320
 16919 0264 980D0000 		.4byte	.LBE320
 16920 0268 9C0D0000 		.4byte	.LBB322
 16921 026c A00D0000 		.4byte	.LBE322
 16922 0270 A60D0000 		.4byte	.LBB324
 16923 0274 AA0D0000 		.4byte	.LBE324
 16924 0278 B00D0000 		.4byte	.LBB326
 16925 027c BC0D0000 		.4byte	.LBE326
 16926 0280 CA0D0000 		.4byte	.LBB328
 16927 0284 D40D0000 		.4byte	.LBE328
 16928 0288 6C0E0000 		.4byte	.LBB331
 16929 028c EC0E0000 		.4byte	.LBE331
 16930 0290 00000000 		.4byte	0
 16931 0294 00000000 		.4byte	0
 16932 0298 0C0B0000 		.4byte	.LBB197
 16933 029c 0E0B0000 		.4byte	.LBE197
 16934 02a0 120B0000 		.4byte	.LBB208
 16935 02a4 160B0000 		.4byte	.LBE208
 16936 02a8 260D0000 		.4byte	.LBB209
 16937 02ac 280D0000 		.4byte	.LBE209
 16938 02b0 2C0D0000 		.4byte	.LBB210
 16939 02b4 320D0000 		.4byte	.LBE210
 16940 02b8 8C0D0000 		.4byte	.LBB211
 16941 02bc 8E0D0000 		.4byte	.LBE211
 16942 02c0 920D0000 		.4byte	.LBB212
 16943 02c4 980D0000 		.4byte	.LBE212
 16944 02c8 700E0000 		.4byte	.LBB213
 16945 02cc 720E0000 		.4byte	.LBE213
 16946 02d0 760E0000 		.4byte	.LBB214
 16947 02d4 800E0000 		.4byte	.LBE214
 16948 02d8 840E0000 		.4byte	.LBB215
 16949 02dc 860E0000 		.4byte	.LBE215
 16950 02e0 8A0E0000 		.4byte	.LBB216
 16951 02e4 EC0E0000 		.4byte	.LBE216
 16952 02e8 00000000 		.4byte	0
 16953 02ec 00000000 		.4byte	0
 16954 02f0 2C040000 		.4byte	.LBB237
 16955 02f4 2E040000 		.4byte	.LBE237
 16956 02f8 30040000 		.4byte	.LBB245
 16957 02fc 34040000 		.4byte	.LBE245
 16958 0300 38040000 		.4byte	.LBB246
 16959 0304 B6040000 		.4byte	.LBE246
 16960 0308 BC040000 		.4byte	.LBB262
 16961 030c C0040000 		.4byte	.LBE262
 16962 0310 5E0B0000 		.4byte	.LBB304
 16963 0314 680B0000 		.4byte	.LBE304
ARM GAS  /tmp/ccIHdayg.s 			page 300


 16964 0318 3E0C0000 		.4byte	.LBB306
 16965 031c 4A0C0000 		.4byte	.LBE306
 16966 0320 920C0000 		.4byte	.LBB308
 16967 0324 B60C0000 		.4byte	.LBE308
 16968 0328 00000000 		.4byte	0
 16969 032c 00000000 		.4byte	0
 16970 0330 B6040000 		.4byte	.LBB247
 16971 0334 BC040000 		.4byte	.LBE247
 16972 0338 C0040000 		.4byte	.LBB263
 16973 033c 92050000 		.4byte	.LBE263
 16974 0340 CC050000 		.4byte	.LBB272
 16975 0344 D0050000 		.4byte	.LBE272
 16976 0348 DE050000 		.4byte	.LBB274
 16977 034c E2050000 		.4byte	.LBE274
 16978 0350 4A0B0000 		.4byte	.LBB302
 16979 0354 540B0000 		.4byte	.LBE302
 16980 0358 680B0000 		.4byte	.LBB305
 16981 035c C00B0000 		.4byte	.LBE305
 16982 0360 BC0D0000 		.4byte	.LBB327
 16983 0364 CA0D0000 		.4byte	.LBE327
 16984 0368 480E0000 		.4byte	.LBB329
 16985 036c 580E0000 		.4byte	.LBE329
 16986 0370 00000000 		.4byte	0
 16987 0374 00000000 		.4byte	0
 16988 0378 D0040000 		.4byte	.LBB249
 16989 037c D2040000 		.4byte	.LBE249
 16990 0380 D4040000 		.4byte	.LBB253
 16991 0384 08050000 		.4byte	.LBE253
 16992 0388 0C050000 		.4byte	.LBB254
 16993 038c 10050000 		.4byte	.LBE254
 16994 0390 00000000 		.4byte	0
 16995 0394 00000000 		.4byte	0
 16996 0398 92050000 		.4byte	.LBB264
 16997 039c CC050000 		.4byte	.LBE264
 16998 03a0 D0050000 		.4byte	.LBB273
 16999 03a4 DE050000 		.4byte	.LBE273
 17000 03a8 E2050000 		.4byte	.LBB275
 17001 03ac 76060000 		.4byte	.LBE275
 17002 03b0 7E060000 		.4byte	.LBB281
 17003 03b4 82060000 		.4byte	.LBE281
 17004 03b8 8A060000 		.4byte	.LBB283
 17005 03bc 8E060000 		.4byte	.LBE283
 17006 03c0 540B0000 		.4byte	.LBB303
 17007 03c4 5E0B0000 		.4byte	.LBE303
 17008 03c8 4A0C0000 		.4byte	.LBB307
 17009 03cc 920C0000 		.4byte	.LBE307
 17010 03d0 00000000 		.4byte	0
 17011 03d4 00000000 		.4byte	0
 17012 03d8 76060000 		.4byte	.LBB276
 17013 03dc 7A060000 		.4byte	.LBE276
 17014 03e0 82060000 		.4byte	.LBB282
 17015 03e4 8A060000 		.4byte	.LBE282
 17016 03e8 92060000 		.4byte	.LBB284
 17017 03ec D2060000 		.4byte	.LBE284
 17018 03f0 580E0000 		.4byte	.LBB330
 17019 03f4 6C0E0000 		.4byte	.LBE330
 17020 03f8 00000000 		.4byte	0
ARM GAS  /tmp/ccIHdayg.s 			page 301


 17021 03fc 00000000 		.4byte	0
 17022 0400 4E070000 		.4byte	.LBB285
 17023 0404 FC070000 		.4byte	.LBE285
 17024 0408 04080000 		.4byte	.LBB288
 17025 040c 0C080000 		.4byte	.LBE288
 17026 0410 00000000 		.4byte	0
 17027 0414 00000000 		.4byte	0
 17028 0418 1A080000 		.4byte	.LBB289
 17029 041c 4C080000 		.4byte	.LBE289
 17030 0420 54080000 		.4byte	.LBB292
 17031 0424 5C080000 		.4byte	.LBE292
 17032 0428 00000000 		.4byte	0
 17033 042c 00000000 		.4byte	0
 17034 0430 18000000 		.4byte	.LBB339
 17035 0434 3A000000 		.4byte	.LBE339
 17036 0438 3E000000 		.4byte	.LBB342
 17037 043c 56000000 		.4byte	.LBE342
 17038 0440 00000000 		.4byte	0
 17039 0444 00000000 		.4byte	0
 17040 0448 14000000 		.4byte	.LBB346
 17041 044c 74000000 		.4byte	.LBE346
 17042 0450 78000000 		.4byte	.LBB349
 17043 0454 E0000000 		.4byte	.LBE349
 17044 0458 00000000 		.4byte	0
 17045 045c 00000000 		.4byte	0
 17046 0460 00000000 		.4byte	.LFB276
 17047 0464 D4000000 		.4byte	.LFE276
 17048 0468 00000000 		.4byte	.LFB278
 17049 046c A8010000 		.4byte	.LFE278
 17050 0470 00000000 		.4byte	.LFB291
 17051 0474 D8000000 		.4byte	.LFE291
 17052 0478 00000000 		.4byte	.LFB286
 17053 047c B0000000 		.4byte	.LFE286
 17054 0480 00000000 		.4byte	.LFB285
 17055 0484 D4000000 		.4byte	.LFE285
 17056 0488 00000000 		.4byte	.LFB287
 17057 048c EC0E0000 		.4byte	.LFE287
 17058 0490 00000000 		.4byte	.LFB289
 17059 0494 48000000 		.4byte	.LFE289
 17060 0498 00000000 		.4byte	.LFB288
 17061 049c 6C000000 		.4byte	.LFE288
 17062 04a0 00000000 		.4byte	.LFB290
 17063 04a4 E0000000 		.4byte	.LFE290
 17064 04a8 00000000 		.4byte	.LFB259
 17065 04ac 46000000 		.4byte	.LFE259
 17066 04b0 00000000 		.4byte	.LFB260
 17067 04b4 90000000 		.4byte	.LFE260
 17068 04b8 00000000 		.4byte	.LFB261
 17069 04bc 08000000 		.4byte	.LFE261
 17070 04c0 00000000 		.4byte	.LFB262
 17071 04c4 64030000 		.4byte	.LFE262
 17072 04c8 00000000 		.4byte	.LFB263
 17073 04cc 88000000 		.4byte	.LFE263
 17074 04d0 00000000 		.4byte	.LFB264
 17075 04d4 40000000 		.4byte	.LFE264
 17076 04d8 00000000 		.4byte	.LFB265
 17077 04dc 0C000000 		.4byte	.LFE265
ARM GAS  /tmp/ccIHdayg.s 			page 302


 17078 04e0 00000000 		.4byte	.LFB266
 17079 04e4 0C000000 		.4byte	.LFE266
 17080 04e8 00000000 		.4byte	.LFB267
 17081 04ec 0C000000 		.4byte	.LFE267
 17082 04f0 00000000 		.4byte	.LFB268
 17083 04f4 24000000 		.4byte	.LFE268
 17084 04f8 00000000 		.4byte	.LFB269
 17085 04fc 0C000000 		.4byte	.LFE269
 17086 0500 00000000 		.4byte	.LFB270
 17087 0504 0C000000 		.4byte	.LFE270
 17088 0508 00000000 		.4byte	.LFB271
 17089 050c 0C000000 		.4byte	.LFE271
 17090 0510 00000000 		.4byte	.LFB272
 17091 0514 0C000000 		.4byte	.LFE272
 17092 0518 00000000 		.4byte	.LFB273
 17093 051c 0C000000 		.4byte	.LFE273
 17094 0520 00000000 		.4byte	.LFB274
 17095 0524 0C000000 		.4byte	.LFE274
 17096 0528 00000000 		.4byte	.LFB275
 17097 052c 0C000000 		.4byte	.LFE275
 17098 0530 00000000 		.4byte	0
 17099 0534 00000000 		.4byte	0
 17100              		.section	.debug_line,"",%progbits
 17101              	.Ldebug_line0:
 17102 0000 BF0C0000 		.section	.debug_str,"MS",%progbits,1
 17102      02007005 
 17102      00000201 
 17102      FB0E0D00 
 17102      01010101 
 17103              	.LASF469:
 17104 0000 5553425F 		.ascii	"USB_STOP\000"
 17104      53544F50 
 17104      00
 17105              	.LASF853:
 17106 0009 73746570 		.ascii	"step_size\000"
 17106      5F73697A 
 17106      6500
 17107              	.LASF135:
 17108 0013 706F7274 		.ascii	"port_intctx\000"
 17108      5F696E74 
 17108      63747800 
 17109              	.LASF157:
 17110 001f 63685F70 		.ascii	"ch_ptrsize\000"
 17110      74727369 
 17110      7A6500
 17111              	.LASF424:
 17112 002a 6576656E 		.ascii	"event\000"
 17112      7400
 17113              	.LASF614:
 17114 0030 7574696C 		.ascii	"utils_tab_cos_32_2\000"
 17114      735F7461 
 17114      625F636F 
 17114      735F3332 
 17114      5F3200
 17115              	.LASF713:
 17116 0043 5F6D6272 		.ascii	"_mbrtowc_state\000"
 17116      746F7763 
ARM GAS  /tmp/ccIHdayg.s 			page 303


 17116      5F737461 
 17116      746500
 17117              	.LASF334:
 17118 0052 43414E5F 		.ascii	"CAN_STARTING\000"
 17118      53544152 
 17118      54494E47 
 17118      00
 17119              	.LASF892:
 17120 005f 636F6D6D 		.ascii	"commands_printf\000"
 17120      616E6473 
 17120      5F707269 
 17120      6E746600 
 17121              	.LASF200:
 17122 006f 6661756C 		.ascii	"fault_pitch\000"
 17122      745F7069 
 17122      74636800 
 17123              	.LASF768:
 17124 007b 6E6F7365 		.ascii	"noseangling_step_size\000"
 17124      616E676C 
 17124      696E675F 
 17124      73746570 
 17124      5F73697A 
 17125              	.LASF246:
 17126 0091 746F7271 		.ascii	"torquetilt_start_current\000"
 17126      75657469 
 17126      6C745F73 
 17126      74617274 
 17126      5F637572 
 17127              	.LASF806:
 17128 00aa 7961775F 		.ascii	"yaw_setpoint\000"
 17128      73657470 
 17128      6F696E74 
 17128      00
 17129              	.LASF927:
 17130 00b7 62697175 		.ascii	"biquad_reset\000"
 17130      61645F72 
 17130      65736574 
 17130      00
 17131              	.LASF27:
 17132 00c4 6D73675F 		.ascii	"msg_t\000"
 17132      7400
 17133              	.LASF361:
 17134 00ca 4F504D4F 		.ascii	"OPMODE_SMBUS_DEVICE\000"
 17134      44455F53 
 17134      4D425553 
 17134      5F444556 
 17134      49434500 
 17135              	.LASF215:
 17136 00de 74696C74 		.ascii	"tiltback_hv_speed\000"
 17136      6261636B 
 17136      5F68765F 
 17136      73706565 
 17136      6400
 17137              	.LASF792:
 17138 00f0 73657470 		.ascii	"setpoint_target_interpolated\000"
 17138      6F696E74 
 17138      5F746172 
ARM GAS  /tmp/ccIHdayg.s 			page 304


 17138      6765745F 
 17138      696E7465 
 17139              	.LASF868:
 17140 010d 6170705F 		.ascii	"app_balance_get_state\000"
 17140      62616C61 
 17140      6E63655F 
 17140      6765745F 
 17140      73746174 
 17141              	.LASF894:
 17142 0123 636F6D6D 		.ascii	"commands_send_plot_points\000"
 17142      616E6473 
 17142      5F73656E 
 17142      645F706C 
 17142      6F745F70 
 17143              	.LASF222:
 17144 013d 74696C74 		.ascii	"tiltback_constant_erpm\000"
 17144      6261636B 
 17144      5F636F6E 
 17144      7374616E 
 17144      745F6572 
 17145              	.LASF529:
 17146 0154 44494550 		.ascii	"DIEPTXF0\000"
 17146      54584630 
 17146      00
 17147              	.LASF606:
 17148 015d 55534244 		.ascii	"USBD1\000"
 17148      3100
 17149              	.LASF333:
 17150 0163 43414E5F 		.ascii	"CAN_STOP\000"
 17150      53544F50 
 17150      00
 17151              	.LASF170:
 17152 016c 63665F6F 		.ascii	"cf_off_time\000"
 17152      66665F74 
 17152      696D6500 
 17153              	.LASF82:
 17154 0178 63685F73 		.ascii	"ch_system_t\000"
 17154      79737465 
 17154      6D5F7400 
 17155              	.LASF4:
 17156 0184 5F5F7569 		.ascii	"__uint8_t\000"
 17156      6E74385F 
 17156      7400
 17157              	.LASF142:
 17158 018e 77747365 		.ascii	"wtsemp\000"
 17158      6D7000
 17159              	.LASF197:
 17160 0195 5F426F6F 		.ascii	"_Bool\000"
 17160      6C00
 17161              	.LASF265:
 17162 019b 494D555F 		.ascii	"IMU_TYPE_EXTERNAL_LSM6DS3\000"
 17162      54595045 
 17162      5F455854 
 17162      45524E41 
 17162      4C5F4C53 
 17163              	.LASF831:
 17164 01b5 64656275 		.ascii	"debug_experiment_1\000"
ARM GAS  /tmp/ccIHdayg.s 			page 305


 17164      675F6578 
 17164      70657269 
 17164      6D656E74 
 17164      5F3100
 17165              	.LASF832:
 17166 01c8 64656275 		.ascii	"debug_experiment_2\000"
 17166      675F6578 
 17166      70657269 
 17166      6D656E74 
 17166      5F3200
 17167              	.LASF833:
 17168 01db 64656275 		.ascii	"debug_experiment_3\000"
 17168      675F6578 
 17168      70657269 
 17168      6D656E74 
 17168      5F3300
 17169              	.LASF834:
 17170 01ee 64656275 		.ascii	"debug_experiment_4\000"
 17170      675F6578 
 17170      70657269 
 17170      6D656E74 
 17170      5F3400
 17171              	.LASF835:
 17172 0201 64656275 		.ascii	"debug_experiment_5\000"
 17172      675F6578 
 17172      70657269 
 17172      6D656E74 
 17172      5F3500
 17173              	.LASF379:
 17174 0214 646D6172 		.ascii	"dmarx\000"
 17174      7800
 17175              	.LASF667:
 17176 021a 5F6D6273 		.ascii	"_mbstate\000"
 17176      74617465 
 17176      00
 17177              	.LASF873:
 17178 0223 6170705F 		.ascii	"app_balance_get_pid_output\000"
 17178      62616C61 
 17178      6E63655F 
 17178      6765745F 
 17178      7069645F 
 17179              	.LASF646:
 17180 023e 5F617465 		.ascii	"_atexit\000"
 17180      78697400 
 17181              	.LASF211:
 17182 0246 74696C74 		.ascii	"tiltback_duty_angle\000"
 17182      6261636B 
 17182      5F647574 
 17182      795F616E 
 17182      676C6500 
 17183              	.LASF915:
 17184 025a 6D635F69 		.ascii	"mc_interface_set_current_off_delay\000"
 17184      6E746572 
 17184      66616365 
 17184      5F736574 
 17184      5F637572 
 17185              	.LASF548:
ARM GAS  /tmp/ccIHdayg.s 			page 306


 17186 027d 72657376 		.ascii	"resvd700\000"
 17186      64373030 
 17186      00
 17187              	.LASF761:
 17188 0286 74696C74 		.ascii	"tiltback_hv_step_size\000"
 17188      6261636B 
 17188      5F68765F 
 17188      73746570 
 17188      5F73697A 
 17189              	.LASF559:
 17190 029c 44564255 		.ascii	"DVBUSDIS\000"
 17190      53444953 
 17190      00
 17191              	.LASF373:
 17192 02a5 6572726F 		.ascii	"errors\000"
 17192      727300
 17193              	.LASF442:
 17194 02ac 73706963 		.ascii	"spicallback_t\000"
 17194      616C6C62 
 17194      61636B5F 
 17194      7400
 17195              	.LASF78:
 17196 02ba 76745F73 		.ascii	"vt_systime\000"
 17196      79737469 
 17196      6D6500
 17197              	.LASF467:
 17198 02c5 75736265 		.ascii	"usbep_t\000"
 17198      705F7400 
 17199              	.LASF879:
 17200 02cd 62697175 		.ascii	"biquad\000"
 17200      616400
 17201              	.LASF636:
 17202 02d4 5F5F746D 		.ascii	"__tm_mon\000"
 17202      5F6D6F6E 
 17202      00
 17203              	.LASF644:
 17204 02dd 5F666E74 		.ascii	"_fntypes\000"
 17204      79706573 
 17204      00
 17205              	.LASF151:
 17206 02e6 6D5F6E65 		.ascii	"m_next\000"
 17206      787400
 17207              	.LASF322:
 17208 02ed 50434461 		.ascii	"PCData\000"
 17208      746100
 17209              	.LASF674:
 17210 02f4 5F696E63 		.ascii	"_inc\000"
 17210      00
 17211              	.LASF647:
 17212 02f9 5F696E64 		.ascii	"_ind\000"
 17212      00
 17213              	.LASF430:
 17214 02fe 72656164 		.ascii	"read\000"
 17214      00
 17215              	.LASF533:
 17216 0303 47434346 		.ascii	"GCCFG\000"
 17216      4700
ARM GAS  /tmp/ccIHdayg.s 			page 307


 17217              	.LASF252:
 17218 0309 7475726E 		.ascii	"turntilt_strength\000"
 17218      74696C74 
 17218      5F737472 
 17218      656E6774 
 17218      6800
 17219              	.LASF398:
 17220 031b 42445452 		.ascii	"BDTR\000"
 17220      00
 17221              	.LASF371:
 17222 0320 49324343 		.ascii	"I2CConfig\000"
 17222      6F6E6669 
 17222      6700
 17223              	.LASF16:
 17224 032a 75696E74 		.ascii	"uint16_t\000"
 17224      31365F74 
 17224      00
 17225              	.LASF778:
 17226 0333 6176675F 		.ascii	"avg_erpm\000"
 17226      6572706D 
 17226      00
 17227              	.LASF380:
 17228 033c 646D6174 		.ascii	"dmatx\000"
 17228      7800
 17229              	.LASF604:
 17230 0342 736F665F 		.ascii	"sof_cb\000"
 17230      636200
 17231              	.LASF257:
 17232 0349 7475726E 		.ascii	"turntilt_erpm_boost\000"
 17232      74696C74 
 17232      5F657270 
 17232      6D5F626F 
 17232      6F737400 
 17233              	.LASF653:
 17234 035d 5F666C61 		.ascii	"_flags\000"
 17234      677300
 17235              	.LASF276:
 17236 0364 6D61686F 		.ascii	"mahony_ki\000"
 17236      6E795F6B 
 17236      6900
 17237              	.LASF818:
 17238 036e 6661756C 		.ascii	"fault_duty_timer\000"
 17238      745F6475 
 17238      74795F74 
 17238      696D6572 
 17238      00
 17239              	.LASF315:
 17240 037f 6F737065 		.ascii	"ospeedr\000"
 17240      65647200 
 17241              	.LASF275:
 17242 0387 6D61686F 		.ascii	"mahony_kp\000"
 17242      6E795F6B 
 17242      7000
 17243              	.LASF536:
 17244 0391 44494550 		.ascii	"DIEPTXF\000"
 17244      54584600 
 17245              	.LASF176:
ARM GAS  /tmp/ccIHdayg.s 			page 308


 17246 0399 656C5F6E 		.ascii	"el_next\000"
 17246      65787400 
 17247              	.LASF452:
 17248 03a1 696E5F70 		.ascii	"in_params\000"
 17248      6172616D 
 17248      7300
 17249              	.LASF263:
 17250 03ab 494D555F 		.ascii	"IMU_TYPE_EXTERNAL_ICM20948\000"
 17250      54595045 
 17250      5F455854 
 17250      45524E41 
 17250      4C5F4943 
 17251              	.LASF684:
 17252 03c6 5F637674 		.ascii	"_cvtlen\000"
 17252      6C656E00 
 17253              	.LASF59:
 17254 03ce 63685F74 		.ascii	"ch_threads_queue\000"
 17254      68726561 
 17254      64735F71 
 17254      75657565 
 17254      00
 17255              	.LASF726:
 17256 03df 5F5F6664 		.ascii	"__fdlibm_svid\000"
 17256      6C69626D 
 17256      5F737669 
 17256      6400
 17257              	.LASF829:
 17258 03ed 64656275 		.ascii	"debug_sample_count\000"
 17258      675F7361 
 17258      6D706C65 
 17258      5F636F75 
 17258      6E7400
 17259              	.LASF37:
 17260 0400 705F6E65 		.ascii	"p_newer\000"
 17260      77657200 
 17261              	.LASF546:
 17262 0408 48505254 		.ascii	"HPRT\000"
 17262      00
 17263              	.LASF500:
 17264 040d 4843494E 		.ascii	"HCINT\000"
 17264      5400
 17265              	.LASF167:
 17266 0413 63665F6F 		.ascii	"cf_off_flags\000"
 17266      66665F66 
 17266      6C616773 
 17266      00
 17267              	.LASF250:
 17268 0420 746F7271 		.ascii	"torquetilt_strength\000"
 17268      75657469 
 17268      6C745F73 
 17268      7472656E 
 17268      67746800 
 17269              	.LASF662:
 17270 0434 5F6E6275 		.ascii	"_nbuf\000"
 17270      6600
 17271              	.LASF436:
 17272 043a 5350495F 		.ascii	"SPI_STOP\000"
ARM GAS  /tmp/ccIHdayg.s 			page 309


 17272      53544F50 
 17272      00
 17273              	.LASF720:
 17274 0443 5F756E75 		.ascii	"_unused\000"
 17274      73656400 
 17275              	.LASF321:
 17276 044b 50424461 		.ascii	"PBData\000"
 17276      746100
 17277              	.LASF155:
 17278 0452 63685F73 		.ascii	"ch_size\000"
 17278      697A6500 
 17279              	.LASF542:
 17280 045a 48505458 		.ascii	"HPTXSTS\000"
 17280      53545300 
 17281              	.LASF314:
 17282 0462 6F747970 		.ascii	"otyper\000"
 17282      657200
 17283              	.LASF245:
 17284 0469 626F6F73 		.ascii	"booster_current\000"
 17284      7465725F 
 17284      63757272 
 17284      656E7400 
 17285              	.LASF305:
 17286 0479 4F545950 		.ascii	"OTYPER\000"
 17286      455200
 17287              	.LASF440:
 17288 0480 73706973 		.ascii	"spistate_t\000"
 17288      74617465 
 17288      5F7400
 17289              	.LASF198:
 17290 048b 68657274 		.ascii	"hertz\000"
 17290      7A00
 17291              	.LASF498:
 17292 0491 48434348 		.ascii	"HCCHAR\000"
 17292      415200
 17293              	.LASF781:
 17294 0498 61646331 		.ascii	"adc1\000"
 17294      00
 17295              	.LASF738:
 17296 049d 4641554C 		.ascii	"FAULT_SWITCH_FULL\000"
 17296      545F5357 
 17296      49544348 
 17296      5F46554C 
 17296      4C00
 17297              	.LASF643:
 17298 04af 5F64736F 		.ascii	"_dso_handle\000"
 17298      5F68616E 
 17298      646C6500 
 17299              	.LASF355:
 17300 04bb 4932435F 		.ascii	"I2C_ACTIVE_RX\000"
 17300      41435449 
 17300      56455F52 
 17300      5800
 17301              	.LASF32:
 17302 04c9 74687265 		.ascii	"thread_t\000"
 17302      61645F74 
 17302      00
ARM GAS  /tmp/ccIHdayg.s 			page 310


 17303              	.LASF178:
 17304 04d2 656C5F65 		.ascii	"el_events\000"
 17304      76656E74 
 17304      7300
 17305              	.LASF259:
 17306 04dc 62616C61 		.ascii	"balance_config\000"
 17306      6E63655F 
 17306      636F6E66 
 17306      696700
 17307              	.LASF346:
 17308 04eb 736C6565 		.ascii	"sleep_event\000"
 17308      705F6576 
 17308      656E7400 
 17309              	.LASF77:
 17310 04f7 63685F76 		.ascii	"ch_virtual_timers_list\000"
 17310      69727475 
 17310      616C5F74 
 17310      696D6572 
 17310      735F6C69 
 17311              	.LASF300:
 17312 050e 76656374 		.ascii	"vector\000"
 17312      6F7200
 17313              	.LASF17:
 17314 0515 696E7433 		.ascii	"int32_t\000"
 17314      325F7400 
 17315              	.LASF708:
 17316 051d 5F776374 		.ascii	"_wctomb_state\000"
 17316      6F6D625F 
 17316      73746174 
 17316      6500
 17317              	.LASF369:
 17318 052b 636C6F63 		.ascii	"clock_speed\000"
 17318      6B5F7370 
 17318      65656400 
 17319              	.LASF31:
 17320 0537 73797374 		.ascii	"systime_t\000"
 17320      696D655F 
 17320      7400
 17321              	.LASF348:
 17322 0541 43414E44 		.ascii	"CANDriver\000"
 17322      72697665 
 17322      7200
 17323              	.LASF165:
 17324 054b 63665F6F 		.ascii	"cf_off_stklimit\000"
 17324      66665F73 
 17324      746B6C69 
 17324      6D697400 
 17325              	.LASF116:
 17326 055b 4D304152 		.ascii	"M0AR\000"
 17326      00
 17327              	.LASF505:
 17328 0560 72657376 		.ascii	"resvd1c\000"
 17328      64316300 
 17329              	.LASF278:
 17330 0568 726F745F 		.ascii	"rot_roll\000"
 17330      726F6C6C 
 17330      00
ARM GAS  /tmp/ccIHdayg.s 			page 311


 17331              	.LASF279:
 17332 0571 726F745F 		.ascii	"rot_pitch\000"
 17332      70697463 
 17332      6800
 17333              	.LASF243:
 17334 057b 626F6F73 		.ascii	"booster_angle\000"
 17334      7465725F 
 17334      616E676C 
 17334      6500
 17335              	.LASF111:
 17336 0589 46413152 		.ascii	"FA1R\000"
 17336      00
 17337              	.LASF866:
 17338 058e 6170705F 		.ascii	"app_balance_get_adc1\000"
 17338      62616C61 
 17338      6E63655F 
 17338      6765745F 
 17338      61646331 
 17339              	.LASF865:
 17340 05a3 6170705F 		.ascii	"app_balance_get_adc2\000"
 17340      62616C61 
 17340      6E63655F 
 17340      6765745F 
 17340      61646332 
 17341              	.LASF929:
 17342 05b8 6D656D63 		.ascii	"memcpy\000"
 17342      707900
 17343              	.LASF227:
 17344 05bf 73746172 		.ascii	"startup_roll_tolerance\000"
 17344      7475705F 
 17344      726F6C6C 
 17344      5F746F6C 
 17344      6572616E 
 17345              	.LASF540:
 17346 05d6 48464E55 		.ascii	"HFNUM\000"
 17346      4D00
 17347              	.LASF194:
 17348 05dc 716E6F74 		.ascii	"qnotify_t\000"
 17348      6966795F 
 17348      7400
 17349              	.LASF228:
 17350 05e6 73746172 		.ascii	"startup_speed\000"
 17350      7475705F 
 17350      73706565 
 17350      6400
 17351              	.LASF273:
 17352 05f4 73616D70 		.ascii	"sample_rate_hz\000"
 17352      6C655F72 
 17352      6174655F 
 17352      687A00
 17353              	.LASF775:
 17354 0603 6162735F 		.ascii	"abs_duty_cycle\000"
 17354      64757479 
 17354      5F637963 
 17354      6C6500
 17355              	.LASF737:
 17356 0612 4641554C 		.ascii	"FAULT_SWITCH_HALF\000"
ARM GAS  /tmp/ccIHdayg.s 			page 312


 17356      545F5357 
 17356      49544348 
 17356      5F48414C 
 17356      4600
 17357              	.LASF298:
 17358 0624 69736869 		.ascii	"ishift\000"
 17358      667400
 17359              	.LASF902:
 17360 062b 73696E66 		.ascii	"sinf\000"
 17360      00
 17361              	.LASF189:
 17362 0630 715F746F 		.ascii	"q_top\000"
 17362      7000
 17363              	.LASF655:
 17364 0636 5F6C6266 		.ascii	"_lbfsize\000"
 17364      73697A65 
 17364      00
 17365              	.LASF491:
 17366 063f 75645F73 		.ascii	"ud_string\000"
 17366      7472696E 
 17366      6700
 17367              	.LASF372:
 17368 0649 49324344 		.ascii	"I2CDriver\000"
 17368      72697665 
 17368      7200
 17369              	.LASF354:
 17370 0653 4932435F 		.ascii	"I2C_ACTIVE_TX\000"
 17370      41435449 
 17370      56455F54 
 17370      5800
 17371              	.LASF360:
 17372 0661 4F504D4F 		.ascii	"OPMODE_I2C\000"
 17372      44455F49 
 17372      324300
 17373              	.LASF552:
 17374 066c 72657376 		.ascii	"resvd80C\000"
 17374      64383043 
 17374      00
 17375              	.LASF601:
 17376 0675 6576656E 		.ascii	"event_cb\000"
 17376      745F6362 
 17376      00
 17377              	.LASF821:
 17378 067e 645F7074 		.ascii	"d_pt1_highpass_state\000"
 17378      315F6869 
 17378      67687061 
 17378      73735F73 
 17378      74617465 
 17379              	.LASF769:
 17380 0693 70697463 		.ascii	"pitch_angle\000"
 17380      685F616E 
 17380      676C6500 
 17381              	.LASF686:
 17382 069f 5F6E6577 		.ascii	"_new\000"
 17382      00
 17383              	.LASF519:
 17384 06a4 474F5447 		.ascii	"GOTGCTL\000"
ARM GAS  /tmp/ccIHdayg.s 			page 313


 17384      43544C00 
 17385              	.LASF220:
 17386 06ac 74696C74 		.ascii	"tiltback_return_speed\000"
 17386      6261636B 
 17386      5F726574 
 17386      75726E5F 
 17386      73706565 
 17387              	.LASF494:
 17388 06c2 75736265 		.ascii	"usbepcallback_t\000"
 17388      7063616C 
 17388      6C626163 
 17388      6B5F7400 
 17389              	.LASF358:
 17390 06d2 69326361 		.ascii	"i2caddr_t\000"
 17390      6464725F 
 17390      7400
 17391              	.LASF85:
 17392 06dc 76746C69 		.ascii	"vtlist\000"
 17392      737400
 17393              	.LASF384:
 17394 06e3 4943555F 		.ascii	"ICU_READY\000"
 17394      52454144 
 17394      5900
 17395              	.LASF897:
 17396 06ed 726F756E 		.ascii	"roundf\000"
 17396      646600
 17397              	.LASF780:
 17398 06f4 6D6F746F 		.ascii	"motor_position\000"
 17398      725F706F 
 17398      73697469 
 17398      6F6E00
 17399              	.LASF121:
 17400 0703 54524953 		.ascii	"TRISE\000"
 17400      4500
 17401              	.LASF558:
 17402 0709 72657376 		.ascii	"resvd824\000"
 17402      64383234 
 17402      00
 17403              	.LASF46:
 17404 0712 705F7761 		.ascii	"p_waiting\000"
 17404      6974696E 
 17404      6700
 17405              	.LASF846:
 17406 071c 696E6465 		.ascii	"index\000"
 17406      7800
 17407              	.LASF391:
 17408 0722 70636372 		.ascii	"pccrp\000"
 17408      7000
 17409              	.LASF611:
 17410 0728 7574696C 		.ascii	"utils_tab_sin_32_1\000"
 17410      735F7461 
 17410      625F7369 
 17410      6E5F3332 
 17410      5F3100
 17411              	.LASF612:
 17412 073b 7574696C 		.ascii	"utils_tab_sin_32_2\000"
 17412      735F7461 
ARM GAS  /tmp/ccIHdayg.s 			page 314


 17412      625F7369 
 17412      6E5F3332 
 17412      5F3200
 17413              	.LASF186:
 17414 074e 715F7761 		.ascii	"q_waiting\000"
 17414      6974696E 
 17414      6700
 17415              	.LASF93:
 17416 0758 43414E5F 		.ascii	"CAN_TxMailBox_TypeDef\000"
 17416      54784D61 
 17416      696C426F 
 17416      785F5479 
 17416      70654465 
 17417              	.LASF84:
 17418 076e 726C6973 		.ascii	"rlist\000"
 17418      7400
 17419              	.LASF55:
 17420 0774 74687265 		.ascii	"threads_list_t\000"
 17420      6164735F 
 17420      6C697374 
 17420      5F7400
 17421              	.LASF161:
 17422 0783 63665F6F 		.ascii	"cf_off_ctx\000"
 17422      66665F63 
 17422      747800
 17423              	.LASF195:
 17424 078e 696E7075 		.ascii	"input_queue_t\000"
 17424      745F7175 
 17424      6575655F 
 17424      7400
 17425              	.LASF721:
 17426 079c 5F5F6C6F 		.ascii	"__lock\000"
 17426      636B00
 17427              	.LASF364:
 17428 07a3 5354445F 		.ascii	"STD_DUTY_CYCLE\000"
 17428      44555459 
 17428      5F435943 
 17428      4C4500
 17429              	.LASF335:
 17430 07b2 43414E5F 		.ascii	"CAN_READY\000"
 17430      52454144 
 17430      5900
 17431              	.LASF163:
 17432 07bc 63665F6F 		.ascii	"cf_off_older\000"
 17432      66665F6F 
 17432      6C646572 
 17432      00
 17433              	.LASF586:
 17434 07c9 72787175 		.ascii	"rxqueued\000"
 17434      65756564 
 17434      00
 17435              	.LASF575:
 17436 07d2 6E756D5F 		.ascii	"num_endpoints\000"
 17436      656E6470 
 17436      6F696E74 
 17436      7300
 17437              	.LASF409:
ARM GAS  /tmp/ccIHdayg.s 			page 315


 17438 07e0 69637563 		.ascii	"icuchannel_t\000"
 17438      68616E6E 
 17438      656C5F74 
 17438      00
 17439              	.LASF337:
 17440 07ed 63616E73 		.ascii	"canstate_t\000"
 17440      74617465 
 17440      5F7400
 17441              	.LASF113:
 17442 07f8 7346696C 		.ascii	"sFilterRegister\000"
 17442      74657252 
 17442      65676973 
 17442      74657200 
 17443              	.LASF690:
 17444 0808 5F5F7366 		.ascii	"__sf\000"
 17444      00
 17445              	.LASF359:
 17446 080d 69326366 		.ascii	"i2cflags_t\000"
 17446      6C616773 
 17446      5F7400
 17447              	.LASF557:
 17448 0818 72657376 		.ascii	"resvd820\000"
 17448      64383230 
 17448      00
 17449              	.LASF810:
 17450 0821 6C6F6F70 		.ascii	"loop_overshoot\000"
 17450      5F6F7665 
 17450      7273686F 
 17450      6F7400
 17451              	.LASF368:
 17452 0830 6F705F6D 		.ascii	"op_mode\000"
 17452      6F646500 
 17453              	.LASF707:
 17454 0838 5F6D6274 		.ascii	"_mbtowc_state\000"
 17454      6F77635F 
 17454      73746174 
 17454      6500
 17455              	.LASF238:
 17456 0846 7961775F 		.ascii	"yaw_current_clamp\000"
 17456      63757272 
 17456      656E745F 
 17456      636C616D 
 17456      7000
 17457              	.LASF855:
 17458 0858 6E6F7365 		.ascii	"noseangling_target\000"
 17458      616E676C 
 17458      696E675F 
 17458      74617267 
 17458      657400
 17459              	.LASF811:
 17460 086b 66696C74 		.ascii	"filtered_loop_overshoot\000"
 17460      65726564 
 17460      5F6C6F6F 
 17460      705F6F76 
 17460      65727368 
 17461              	.LASF351:
 17462 0883 4932435F 		.ascii	"I2C_UNINIT\000"
ARM GAS  /tmp/ccIHdayg.s 			page 316


 17462      554E494E 
 17462      495400
 17463              	.LASF419:
 17464 088e 53445F55 		.ascii	"SD_UNINIT\000"
 17464      4E494E49 
 17464      5400
 17465              	.LASF839:
 17466 0898 61726763 		.ascii	"argc\000"
 17466      00
 17467              	.LASF822:
 17468 089d 645F7074 		.ascii	"d_pt1_highpass_k\000"
 17468      315F6869 
 17468      67687061 
 17468      73735F6B 
 17468      00
 17469              	.LASF26:
 17470 08ae 74707269 		.ascii	"tprio_t\000"
 17470      6F5F7400 
 17471              	.LASF210:
 17472 08b6 6661756C 		.ascii	"fault_adc_half_erpm\000"
 17472      745F6164 
 17472      635F6861 
 17472      6C665F65 
 17472      72706D00 
 17473              	.LASF561:
 17474 08ca 72657376 		.ascii	"resvd830\000"
 17474      64383330 
 17474      00
 17475              	.LASF353:
 17476 08d3 4932435F 		.ascii	"I2C_READY\000"
 17476      52454144 
 17476      5900
 17477              	.LASF287:
 17478 08dd 63616E5F 		.ascii	"can_status_msg\000"
 17478      73746174 
 17478      75735F6D 
 17478      736700
 17479              	.LASF563:
 17480 08ec 72657376 		.ascii	"resvd838\000"
 17480      64383338 
 17480      00
 17481              	.LASF367:
 17482 08f5 69326364 		.ascii	"i2cdutycycle_t\000"
 17482      75747963 
 17482      79636C65 
 17482      5F7400
 17483              	.LASF564:
 17484 0904 72657376 		.ascii	"resvd83C\000"
 17484      64383343 
 17484      00
 17485              	.LASF375:
 17486 090d 74687265 		.ascii	"thread\000"
 17486      616400
 17487              	.LASF560:
 17488 0914 44564255 		.ascii	"DVBUSPULSE\000"
 17488      5350554C 
 17488      534500
ARM GAS  /tmp/ccIHdayg.s 			page 317


 17489              	.LASF458:
 17490 091f 73657475 		.ascii	"setup\000"
 17490      7000
 17491              	.LASF435:
 17492 0925 5350495F 		.ascii	"SPI_UNINIT\000"
 17492      554E494E 
 17492      495400
 17493              	.LASF512:
 17494 0930 44545846 		.ascii	"DTXFSTS\000"
 17494      53545300 
 17495              	.LASF53:
 17496 0938 6D6F746F 		.ascii	"motor_selected\000"
 17496      725F7365 
 17496      6C656374 
 17496      656400
 17497              	.LASF239:
 17498 0947 6B645F70 		.ascii	"kd_pt1_lowpass_frequency\000"
 17498      74315F6C 
 17498      6F777061 
 17498      73735F66 
 17498      72657175 
 17499              	.LASF639:
 17500 0960 5F5F746D 		.ascii	"__tm_yday\000"
 17500      5F796461 
 17500      7900
 17501              	.LASF397:
 17502 096a 43434552 		.ascii	"CCER\000"
 17502      00
 17503              	.LASF794:
 17504 096f 746F7271 		.ascii	"torquetilt_filtered_current\000"
 17504      75657469 
 17504      6C745F66 
 17504      696C7465 
 17504      7265645F 
 17505              	.LASF128:
 17506 098b 49325350 		.ascii	"I2SPR\000"
 17506      5200
 17507              	.LASF772:
 17508 0991 6162735F 		.ascii	"abs_roll_angle\000"
 17508      726F6C6C 
 17508      5F616E67 
 17508      6C6500
 17509              	.LASF858:
 17510 09a0 6170705F 		.ascii	"app_balance_get_debug\000"
 17510      62616C61 
 17510      6E63655F 
 17510      6765745F 
 17510      64656275 
 17511              	.LASF271:
 17512 09b6 74797065 		.ascii	"type\000"
 17512      00
 17513              	.LASF521:
 17514 09bb 47414842 		.ascii	"GAHBCFG\000"
 17514      43464700 
 17515              	.LASF615:
 17516 09c3 5F4C4F43 		.ascii	"_LOCK_T\000"
 17516      4B5F5400 
ARM GAS  /tmp/ccIHdayg.s 			page 318


 17517              	.LASF565:
 17518 09cb 72657376 		.ascii	"resvd840\000"
 17518      64383430 
 17518      00
 17519              	.LASF124:
 17520 09d4 43524350 		.ascii	"CRCPR\000"
 17520      5200
 17521              	.LASF207:
 17522 09da 6661756C 		.ascii	"fault_delay_duty\000"
 17522      745F6465 
 17522      6C61795F 
 17522      64757479 
 17522      00
 17523              	.LASF751:
 17524 09eb 42515F4C 		.ascii	"BQ_LOWPASS\000"
 17524      4F575041 
 17524      535300
 17525              	.LASF5:
 17526 09f6 5F5F7569 		.ascii	"__uint16_t\000"
 17526      6E743136 
 17526      5F7400
 17527              	.LASF580:
 17528 0a01 74787175 		.ascii	"txqueued\000"
 17528      65756564 
 17528      00
 17529              	.LASF48:
 17530 0a0a 705F6D73 		.ascii	"p_msg\000"
 17530      6700
 17531              	.LASF699:
 17532 0a10 5F756E75 		.ascii	"_unused_rand\000"
 17532      7365645F 
 17532      72616E64 
 17532      00
 17533              	.LASF527:
 17534 0a1d 47525853 		.ascii	"GRXSTSP\000"
 17534      54535000 
 17535              	.LASF526:
 17536 0a25 47525853 		.ascii	"GRXSTSR\000"
 17536      54535200 
 17537              	.LASF117:
 17538 0a2d 4D314152 		.ascii	"M1AR\000"
 17538      00
 17539              	.LASF465:
 17540 0a32 77616974 		.ascii	"wait\000"
 17540      00
 17541              	.LASF118:
 17542 0a37 444D415F 		.ascii	"DMA_Stream_TypeDef\000"
 17542      53747265 
 17542      616D5F54 
 17542      79706544 
 17542      656600
 17543              	.LASF472:
 17544 0a4a 5553425F 		.ascii	"USB_ACTIVE\000"
 17544      41435449 
 17544      564500
 17545              	.LASF514:
 17546 0a55 73746D33 		.ascii	"stm32_otg_in_ep_t\000"
ARM GAS  /tmp/ccIHdayg.s 			page 319


 17546      325F6F74 
 17546      675F696E 
 17546      5F65705F 
 17546      7400
 17547              	.LASF588:
 17548 0a67 7278636E 		.ascii	"rxcnt\000"
 17548      7400
 17549              	.LASF800:
 17550 0a6d 73657470 		.ascii	"setpointAdjustmentType\000"
 17550      6F696E74 
 17550      41646A75 
 17550      73746D65 
 17550      6E745479 
 17551              	.LASF377:
 17552 0a84 7278646D 		.ascii	"rxdmamode\000"
 17552      616D6F64 
 17552      6500
 17553              	.LASF681:
 17554 0a8e 5F726573 		.ascii	"_result_k\000"
 17554      756C745F 
 17554      6B00
 17555              	.LASF272:
 17556 0a98 6D6F6465 		.ascii	"mode\000"
 17556      00
 17557              	.LASF673:
 17558 0a9d 5F737464 		.ascii	"_stderr\000"
 17558      65727200 
 17559              	.LASF680:
 17560 0aa5 5F726573 		.ascii	"_result\000"
 17560      756C7400 
 17561              	.LASF403:
 17562 0aad 4943555F 		.ascii	"ICU_INPUT_ACTIVE_HIGH\000"
 17562      494E5055 
 17562      545F4143 
 17562      54495645 
 17562      5F484947 
 17563              	.LASF836:
 17564 0ac3 64656275 		.ascii	"debug_experiment_6\000"
 17564      675F6578 
 17564      70657269 
 17564      6D656E74 
 17564      5F3600
 17565              	.LASF911:
 17566 0ad6 7465726D 		.ascii	"terminal_register_command_callback\000"
 17566      696E616C 
 17566      5F726567 
 17566      69737465 
 17566      725F636F 
 17567              	.LASF807:
 17568 0af9 63757272 		.ascii	"current_time\000"
 17568      656E745F 
 17568      74696D65 
 17568      00
 17569              	.LASF166:
 17570 0b06 63665F6F 		.ascii	"cf_off_state\000"
 17570      66665F73 
 17570      74617465 
ARM GAS  /tmp/ccIHdayg.s 			page 320


 17570      00
 17571              	.LASF218:
 17572 0b13 74696C74 		.ascii	"tiltback_lv_speed\000"
 17572      6261636B 
 17572      5F6C765F 
 17572      73706565 
 17572      6400
 17573              	.LASF445:
 17574 0b25 73737061 		.ascii	"sspad\000"
 17574      6400
 17575              	.LASF378:
 17576 0b2b 7478646D 		.ascii	"txdmamode\000"
 17576      616D6F64 
 17576      6500
 17577              	.LASF909:
 17578 0b35 63685468 		.ascii	"chThdWait\000"
 17578      64576169 
 17578      7400
 17579              	.LASF742:
 17580 0b3f 43454E54 		.ascii	"CENTERING\000"
 17580      4552494E 
 17580      4700
 17581              	.LASF638:
 17582 0b49 5F5F746D 		.ascii	"__tm_wday\000"
 17582      5F776461 
 17582      7900
 17583              	.LASF640:
 17584 0b53 5F5F746D 		.ascii	"__tm_isdst\000"
 17584      5F697364 
 17584      737400
 17585              	.LASF133:
 17586 0b5e 73746B61 		.ascii	"stkalign_t\000"
 17586      6C69676E 
 17586      5F7400
 17587              	.LASF573:
 17588 0b69 72785F66 		.ascii	"rx_fifo_size\000"
 17588      69666F5F 
 17588      73697A65 
 17588      00
 17589              	.LASF277:
 17590 0b76 6D616467 		.ascii	"madgwick_beta\000"
 17590      7769636B 
 17590      5F626574 
 17590      6100
 17591              	.LASF789:
 17592 0b84 7069645F 		.ascii	"pid_value\000"
 17592      76616C75 
 17592      6500
 17593              	.LASF347:
 17594 0b8e 77616B65 		.ascii	"wakeup_event\000"
 17594      75705F65 
 17594      76656E74 
 17594      00
 17595              	.LASF240:
 17596 0b9b 6B645F70 		.ascii	"kd_pt1_highpass_frequency\000"
 17596      74315F68 
 17596      69676870 
ARM GAS  /tmp/ccIHdayg.s 			page 321


 17596      6173735F 
 17596      66726571 
 17597              	.LASF72:
 17598 0bb5 76745F70 		.ascii	"vt_prev\000"
 17598      72657600 
 17599              	.LASF443:
 17600 0bbd 656E645F 		.ascii	"end_cb\000"
 17600      636200
 17601              	.LASF912:
 17602 0bc4 63685468 		.ascii	"chThdCreateStatic\000"
 17602      64437265 
 17602      61746553 
 17602      74617469 
 17602      6300
 17603              	.LASF591:
 17604 0bd6 73657475 		.ascii	"setup_cb\000"
 17604      705F6362 
 17604      00
 17605              	.LASF2:
 17606 0bdf 756E7369 		.ascii	"unsigned char\000"
 17606      676E6564 
 17606      20636861 
 17606      7200
 17607              	.LASF672:
 17608 0bed 5F737464 		.ascii	"_stdout\000"
 17608      6F757400 
 17609              	.LASF175:
 17610 0bf5 6576656E 		.ascii	"event_listener\000"
 17610      745F6C69 
 17610      7374656E 
 17610      657200
 17611              	.LASF341:
 17612 0c04 74787175 		.ascii	"txqueue\000"
 17612      65756500 
 17613              	.LASF255:
 17614 0c0c 7475726E 		.ascii	"turntilt_start_erpm\000"
 17614      74696C74 
 17614      5F737461 
 17614      72745F65 
 17614      72706D00 
 17615              	.LASF206:
 17616 0c20 6661756C 		.ascii	"fault_delay_roll\000"
 17616      745F6465 
 17616      6C61795F 
 17616      726F6C6C 
 17616      00
 17617              	.LASF147:
 17618 0c31 735F636E 		.ascii	"s_cnt\000"
 17618      7400
 17619              	.LASF60:
 17620 0c37 72656164 		.ascii	"ready_list_t\000"
 17620      795F6C69 
 17620      73745F74 
 17620      00
 17621              	.LASF56:
 17622 0c44 63685F74 		.ascii	"ch_thread\000"
 17622      68726561 
ARM GAS  /tmp/ccIHdayg.s 			page 322


 17622      6400
 17623              	.LASF262:
 17624 0c4e 494D555F 		.ascii	"IMU_TYPE_EXTERNAL_MPU9X50\000"
 17624      54595045 
 17624      5F455854 
 17624      45524E41 
 17624      4C5F4D50 
 17625              	.LASF920:
 17626 0c68 73736361 		.ascii	"sscanf\000"
 17626      6E6600
 17627              	.LASF869:
 17628 0c6f 6170705F 		.ascii	"app_balance_get_motor_current\000"
 17628      62616C61 
 17628      6E63655F 
 17628      6765745F 
 17628      6D6F746F 
 17629              	.LASF714:
 17630 0c8d 5F6D6273 		.ascii	"_mbsrtowcs_state\000"
 17630      72746F77 
 17630      63735F73 
 17630      74617465 
 17630      00
 17631              	.LASF740:
 17632 0c9e 4641554C 		.ascii	"FAULT_STARTUP\000"
 17632      545F5354 
 17632      41525455 
 17632      5000
 17633              	.LASF630:
 17634 0cac 5F776473 		.ascii	"_wds\000"
 17634      00
 17635              	.LASF0:
 17636 0cb1 666C6F61 		.ascii	"float\000"
 17636      7400
 17637              	.LASF884:
 17638 0cb7 6765745F 		.ascii	"get_setpoint_adjustment_step_size\000"
 17638      73657470 
 17638      6F696E74 
 17638      5F61646A 
 17638      7573746D 
 17639              	.LASF336:
 17640 0cd9 43414E5F 		.ascii	"CAN_SLEEP\000"
 17640      534C4545 
 17640      5000
 17641              	.LASF292:
 17642 0ce3 72756E74 		.ascii	"runtime\000"
 17642      696D6500 
 17643              	.LASF841:
 17644 0ceb 6669656C 		.ascii	"field\000"
 17644      6400
 17645              	.LASF739:
 17646 0cf1 4641554C 		.ascii	"FAULT_DUTY\000"
 17646      545F4455 
 17646      545900
 17647              	.LASF332:
 17648 0cfc 43414E5F 		.ascii	"CAN_UNINIT\000"
 17648      554E494E 
 17648      495400
ARM GAS  /tmp/ccIHdayg.s 			page 323


 17649              	.LASF264:
 17650 0d07 494D555F 		.ascii	"IMU_TYPE_EXTERNAL_BMI160\000"
 17650      54595045 
 17650      5F455854 
 17650      45524E41 
 17650      4C5F424D 
 17651              	.LASF79:
 17652 0d20 73797374 		.ascii	"system_debug_t\000"
 17652      656D5F64 
 17652      65627567 
 17652      5F7400
 17653              	.LASF814:
 17654 0d2f 6661756C 		.ascii	"fault_angle_pitch_timer\000"
 17654      745F616E 
 17654      676C655F 
 17654      70697463 
 17654      685F7469 
 17655              	.LASF394:
 17656 0d47 44494552 		.ascii	"DIER\000"
 17656      00
 17657              	.LASF825:
 17658 0d4c 6D6F746F 		.ascii	"motor_timeout\000"
 17658      725F7469 
 17658      6D656F75 
 17658      7400
 17659              	.LASF736:
 17660 0d5a 4641554C 		.ascii	"FAULT_ANGLE_ROLL\000"
 17660      545F414E 
 17660      474C455F 
 17660      524F4C4C 
 17660      00
 17661              	.LASF36:
 17662 0d6b 705F6374 		.ascii	"p_ctx\000"
 17662      7800
 17663              	.LASF75:
 17664 0d71 76745F70 		.ascii	"vt_par\000"
 17664      617200
 17665              	.LASF752:
 17666 0d78 42515F48 		.ascii	"BQ_HIGHPASS\000"
 17666      49474850 
 17666      41535300 
 17667              	.LASF787:
 17668 0d84 6C617374 		.ascii	"last_proportional\000"
 17668      5F70726F 
 17668      706F7274 
 17668      696F6E61 
 17668      6C00
 17669              	.LASF67:
 17670 0d96 725F6375 		.ascii	"r_current\000"
 17670      7272656E 
 17670      7400
 17671              	.LASF651:
 17672 0da0 5F73697A 		.ascii	"_size\000"
 17672      6500
 17673              	.LASF658:
 17674 0da6 5F777269 		.ascii	"_write\000"
 17674      746500
ARM GAS  /tmp/ccIHdayg.s 			page 324


 17675              	.LASF126:
 17676 0dad 54584352 		.ascii	"TXCRCR\000"
 17676      435200
 17677              	.LASF610:
 17678 0db4 73656E64 		.ascii	"send_buffer_mutex\000"
 17678      5F627566 
 17678      6665725F 
 17678      6D757465 
 17678      7800
 17679              	.LASF910:
 17680 0dc6 7465726D 		.ascii	"terminal_unregister_callback\000"
 17680      696E616C 
 17680      5F756E72 
 17680      65676973 
 17680      7465725F 
 17681              	.LASF350:
 17682 0de3 43414E44 		.ascii	"CAND2\000"
 17682      3200
 17683              	.LASF820:
 17684 0de9 645F7074 		.ascii	"d_pt1_lowpass_k\000"
 17684      315F6C6F 
 17684      77706173 
 17684      735F6B00 
 17685              	.LASF816:
 17686 0df9 6661756C 		.ascii	"fault_switch_timer\000"
 17686      745F7377 
 17686      69746368 
 17686      5F74696D 
 17686      657200
 17687              	.LASF366:
 17688 0e0c 46415354 		.ascii	"FAST_DUTY_CYCLE_16_9\000"
 17688      5F445554 
 17688      595F4359 
 17688      434C455F 
 17688      31365F39 
 17689              	.LASF413:
 17690 0e21 6F766572 		.ascii	"overflow_cb\000"
 17690      666C6F77 
 17690      5F636200 
 17691              	.LASF19:
 17692 0e2d 75696E74 		.ascii	"uint64_t\000"
 17692      36345F74 
 17692      00
 17693              	.LASF172:
 17694 0e36 63685F64 		.ascii	"ch_debug\000"
 17694      65627567 
 17694      00
 17695              	.LASF105:
 17696 0e3f 464D3152 		.ascii	"FM1R\000"
 17696      00
 17697              	.LASF633:
 17698 0e44 5F5F746D 		.ascii	"__tm_min\000"
 17698      5F6D696E 
 17698      00
 17699              	.LASF924:
 17700 0e4d 6170706C 		.ascii	"applications/app_balance.c\000"
 17700      69636174 
ARM GAS  /tmp/ccIHdayg.s 			page 325


 17700      696F6E73 
 17700      2F617070 
 17700      5F62616C 
 17701              	.LASF249:
 17702 0e68 746F7271 		.ascii	"torquetilt_off_speed\000"
 17702      75657469 
 17702      6C745F6F 
 17702      66665F73 
 17702      70656564 
 17703              	.LASF329:
 17704 0e7d 50414C43 		.ascii	"PALConfig\000"
 17704      6F6E6669 
 17704      6700
 17705              	.LASF801:
 17706 0e87 7961775F 		.ascii	"yaw_proportional\000"
 17706      70726F70 
 17706      6F727469 
 17706      6F6E616C 
 17706      00
 17707              	.LASF495:
 17708 0e98 75736265 		.ascii	"usbeventcb_t\000"
 17708      76656E74 
 17708      63625F74 
 17708      00
 17709              	.LASF754:
 17710 0ea5 62616C61 		.ascii	"balance_thread_wa\000"
 17710      6E63655F 
 17710      74687265 
 17710      61645F77 
 17710      6100
 17711              	.LASF637:
 17712 0eb7 5F5F746D 		.ascii	"__tm_year\000"
 17712      5F796561 
 17712      7200
 17713              	.LASF174:
 17714 0ec1 6576656E 		.ascii	"event_listener_t\000"
 17714      745F6C69 
 17714      7374656E 
 17714      65725F74 
 17714      00
 17715              	.LASF663:
 17716 0ed2 5F626C6B 		.ascii	"_blksize\000"
 17716      73697A65 
 17716      00
 17717              	.LASF574:
 17718 0edb 6F74675F 		.ascii	"otg_ram_size\000"
 17718      72616D5F 
 17718      73697A65 
 17718      00
 17719              	.LASF235:
 17720 0ee8 726F6C6C 		.ascii	"roll_steer_erpm_kp\000"
 17720      5F737465 
 17720      65725F65 
 17720      72706D5F 
 17720      6B7000
 17721              	.LASF576:
 17722 0efb 73746D33 		.ascii	"stm32_otg_params_t\000"
ARM GAS  /tmp/ccIHdayg.s 			page 326


 17722      325F6F74 
 17722      675F7061 
 17722      72616D73 
 17722      5F7400
 17723              	.LASF568:
 17724 0f0e 72657376 		.ascii	"resvdD00\000"
 17724      64443030 
 17724      00
 17725              	.LASF125:
 17726 0f17 52584352 		.ascii	"RXCRCR\000"
 17726      435200
 17727              	.LASF585:
 17728 0f1e 72786275 		.ascii	"rxbuf\000"
 17728      6600
 17729              	.LASF524:
 17730 0f24 47494E54 		.ascii	"GINTSTS\000"
 17730      53545300 
 17731              	.LASF148:
 17732 0f2c 63685F6D 		.ascii	"ch_mutex\000"
 17732      75746578 
 17732      00
 17733              	.LASF344:
 17734 0f35 7478656D 		.ascii	"txempty_event\000"
 17734      7074795F 
 17734      6576656E 
 17734      7400
 17735              	.LASF326:
 17736 0f43 50474461 		.ascii	"PGData\000"
 17736      746100
 17737              	.LASF923:
 17738 0f4a 474E5520 		.ascii	"GNU C99 7.3.1 20180622 (release) [ARM/embedded-7-br"
 17738      43393920 
 17738      372E332E 
 17738      31203230 
 17738      31383036 
 17739 0f7d 616E6368 		.ascii	"anch revision 261907] -mcpu=cortex-m4 -mfloat-abi=h"
 17739      20726576 
 17739      6973696F 
 17739      6E203236 
 17739      31393037 
 17740 0fb0 61726420 		.ascii	"ard -mfpu=fpv4-sp-d16 -mno-thumb-interwork -mthumb "
 17740      2D6D6670 
 17740      753D6670 
 17740      76342D73 
 17740      702D6431 
 17741 0fe3 2D676764 		.ascii	"-ggdb -O2 -std=gnu99 -fomit-frame-pointer -falign-f"
 17741      62202D4F 
 17741      32202D73 
 17741      74643D67 
 17741      6E753939 
 17742 1016 756E6374 		.ascii	"unctions=16 -ffunction-sections -fdata-sections -fn"
 17742      696F6E73 
 17742      3D313620 
 17742      2D666675 
 17742      6E637469 
 17743 1049 6F2D636F 		.ascii	"o-common -fsingle-precision-constant\000"
 17743      6D6D6F6E 
ARM GAS  /tmp/ccIHdayg.s 			page 327


 17743      202D6673 
 17743      696E676C 
 17743      652D7072 
 17744              	.LASF712:
 17745 106e 5F6D6272 		.ascii	"_mbrlen_state\000"
 17745      6C656E5F 
 17745      73746174 
 17745      6500
 17746              	.LASF270:
 17747 107c 41485253 		.ascii	"AHRS_MODE\000"
 17747      5F4D4F44 
 17747      4500
 17748              	.LASF844:
 17749 1086 7465726D 		.ascii	"terminal_sample\000"
 17749      696E616C 
 17749      5F73616D 
 17749      706C6500 
 17750              	.LASF921:
 17751 1096 636F6D6D 		.ascii	"commands_init_plot\000"
 17751      616E6473 
 17751      5F696E69 
 17751      745F706C 
 17751      6F7400
 17752              	.LASF162:
 17753 10a9 63665F6F 		.ascii	"cf_off_newer\000"
 17753      66665F6E 
 17753      65776572 
 17753      00
 17754              	.LASF553:
 17755 10b6 44494550 		.ascii	"DIEPMSK\000"
 17755      4D534B00 
 17756              	.LASF520:
 17757 10be 474F5447 		.ascii	"GOTGINT\000"
 17757      494E5400 
 17758              	.LASF593:
 17759 10c6 6F75745F 		.ascii	"out_cb\000"
 17759      636200
 17760              	.LASF544:
 17761 10cd 4841494E 		.ascii	"HAINTMSK\000"
 17761      544D534B 
 17761      00
 17762              	.LASF758:
 17763 10d6 6C6F6F70 		.ascii	"loop_time\000"
 17763      5F74696D 
 17763      6500
 17764              	.LASF453:
 17765 10e0 6F75745F 		.ascii	"out_params\000"
 17765      70617261 
 17765      6D7300
 17766              	.LASF845:
 17767 10eb 7465726D 		.ascii	"terminal_render\000"
 17767      696E616C 
 17767      5F72656E 
 17767      64657200 
 17768              	.LASF671:
 17769 10fb 5F737464 		.ascii	"_stdin\000"
 17769      696E00
ARM GAS  /tmp/ccIHdayg.s 			page 328


 17770              	.LASF719:
 17771 1102 5F6E6D61 		.ascii	"_nmalloc\000"
 17771      6C6C6F63 
 17771      00
 17772              	.LASF415:
 17773 110b 64696572 		.ascii	"dier\000"
 17773      00
 17774              	.LASF541:
 17775 1110 72657376 		.ascii	"resvd40C\000"
 17775      64343043 
 17775      00
 17776              	.LASF221:
 17777 1119 74696C74 		.ascii	"tiltback_constant\000"
 17777      6261636B 
 17777      5F636F6E 
 17777      7374616E 
 17777      7400
 17778              	.LASF69:
 17779 112b 76697274 		.ascii	"virtual_timer_t\000"
 17779      75616C5F 
 17779      74696D65 
 17779      725F7400 
 17780              	.LASF64:
 17781 113b 725F6374 		.ascii	"r_ctx\000"
 17781      7800
 17782              	.LASF71:
 17783 1141 76745F6E 		.ascii	"vt_next\000"
 17783      65787400 
 17784              	.LASF212:
 17785 1149 74696C74 		.ascii	"tiltback_duty_speed\000"
 17785      6261636B 
 17785      5F647574 
 17785      795F7370 
 17785      65656400 
 17786              	.LASF261:
 17787 115d 494D555F 		.ascii	"IMU_TYPE_INTERNAL\000"
 17787      54595045 
 17787      5F494E54 
 17787      45524E41 
 17787      4C00
 17788              	.LASF21:
 17789 116f 7274636E 		.ascii	"rtcnt_t\000"
 17789      745F7400 
 17790              	.LASF374:
 17791 1177 6D757465 		.ascii	"mutex\000"
 17791      7800
 17792              	.LASF860:
 17793 117d 69676E6F 		.ascii	"ignoreTimers\000"
 17793      72655469 
 17793      6D657273 
 17793      00
 17794              	.LASF903:
 17795 118a 696D755F 		.ascii	"imu_get_gyro\000"
 17795      6765745F 
 17795      6779726F 
 17795      00
 17796              	.LASF764:
ARM GAS  /tmp/ccIHdayg.s 			page 329


 17797 1197 746F7271 		.ascii	"torquetilt_on_step_size\000"
 17797      75657469 
 17797      6C745F6F 
 17797      6E5F7374 
 17797      65705F73 
 17798              	.LASF464:
 17799 11af 74787065 		.ascii	"txpending\000"
 17799      6E64696E 
 17799      6700
 17800              	.LASF389:
 17801 11b9 636C6F63 		.ascii	"clock\000"
 17801      6B00
 17802              	.LASF303:
 17803 11bf 636C6561 		.ascii	"clear\000"
 17803      7200
 17804              	.LASF782:
 17805 11c5 61646332 		.ascii	"adc2\000"
 17805      00
 17806              	.LASF266:
 17807 11ca 494D555F 		.ascii	"IMU_TYPE\000"
 17807      54595045 
 17807      00
 17808              	.LASF401:
 17809 11d3 43435852 		.ascii	"CCXR\000"
 17809      00
 17810              	.LASF790:
 17811 11d8 73657470 		.ascii	"setpoint\000"
 17811      6F696E74 
 17811      00
 17812              	.LASF114:
 17813 11e1 43414E5F 		.ascii	"CAN_TypeDef\000"
 17813      54797065 
 17813      44656600 
 17814              	.LASF616:
 17815 11ed 5F6F6666 		.ascii	"_off_t\000"
 17815      5F7400
 17816              	.LASF508:
 17817 11f4 72657376 		.ascii	"resvd4\000"
 17817      643400
 17818              	.LASF420:
 17819 11fb 53445F53 		.ascii	"SD_STOP\000"
 17819      544F5000 
 17820              	.LASF267:
 17821 1203 41485253 		.ascii	"AHRS_MODE_MADGWICK\000"
 17821      5F4D4F44 
 17821      455F4D41 
 17821      44475749 
 17821      434B00
 17822              	.LASF499:
 17823 1216 72657376 		.ascii	"resvd8\000"
 17823      643800
 17824              	.LASF20:
 17825 121d 73697A65 		.ascii	"size_t\000"
 17825      5F7400
 17826              	.LASF702:
 17827 1224 5F6C6F63 		.ascii	"_localtime_buf\000"
 17827      616C7469 
ARM GAS  /tmp/ccIHdayg.s 			page 330


 17827      6D655F62 
 17827      756600
 17828              	.LASF566:
 17829 1233 72657376 		.ascii	"resvd880\000"
 17829      64383830 
 17829      00
 17830              	.LASF621:
 17831 123c 5F5F636F 		.ascii	"__count\000"
 17831      756E7400 
 17832              	.LASF15:
 17833 1244 75696E74 		.ascii	"uint8_t\000"
 17833      385F7400 
 17834              	.LASF503:
 17835 124c 72657376 		.ascii	"resvd14\000"
 17835      64313400 
 17836              	.LASF819:
 17837 1254 645F7074 		.ascii	"d_pt1_lowpass_state\000"
 17837      315F6C6F 
 17837      77706173 
 17837      735F7374 
 17837      61746500 
 17838              	.LASF504:
 17839 1268 72657376 		.ascii	"resvd18\000"
 17839      64313800 
 17840              	.LASF66:
 17841 1270 725F6F6C 		.ascii	"r_older\000"
 17841      64657200 
 17842              	.LASF34:
 17843 1278 705F7072 		.ascii	"p_prev\000"
 17843      657600
 17844              	.LASF164:
 17845 127f 63665F6F 		.ascii	"cf_off_name\000"
 17845      66665F6E 
 17845      616D6500 
 17846              	.LASF562:
 17847 128b 44494550 		.ascii	"DIEPEMPMSK\000"
 17847      454D504D 
 17847      534B00
 17848              	.LASF896:
 17849 1296 666D696E 		.ascii	"fminf\000"
 17849      6600
 17850              	.LASF507:
 17851 129c 44494550 		.ascii	"DIEPCTL\000"
 17851      43544C00 
 17852              	.LASF180:
 17853 12a4 656C5F77 		.ascii	"el_wflags\000"
 17853      666C6167 
 17853      7300
 17854              	.LASF462:
 17855 12ae 6F746770 		.ascii	"otgparams\000"
 17855      6172616D 
 17855      7300
 17856              	.LASF139:
 17857 12b8 65786974 		.ascii	"exitcode\000"
 17857      636F6465 
 17857      00
 17858              	.LASF323:
ARM GAS  /tmp/ccIHdayg.s 			page 331


 17859 12c1 50444461 		.ascii	"PDData\000"
 17859      746100
 17860              	.LASF887:
 17861 12c8 6170706C 		.ascii	"apply_deadzone\000"
 17861      795F6465 
 17861      61647A6F 
 17861      6E6500
 17862              	.LASF685:
 17863 12d7 5F637674 		.ascii	"_cvtbuf\000"
 17863      62756600 
 17864              	.LASF597:
 17865 12df 6F75745F 		.ascii	"out_state\000"
 17865      73746174 
 17865      6500
 17866              	.LASF184:
 17867 12e9 696F5F71 		.ascii	"io_queue_t\000"
 17867      75657565 
 17867      5F7400
 17868              	.LASF675:
 17869 12f4 5F656D65 		.ascii	"_emergency\000"
 17869      7267656E 
 17869      637900
 17870              	.LASF893:
 17871 12ff 636F6D6D 		.ascii	"commands_plot_set_graph\000"
 17871      616E6473 
 17871      5F706C6F 
 17871      745F7365 
 17871      745F6772 
 17872              	.LASF352:
 17873 1317 4932435F 		.ascii	"I2C_STOP\000"
 17873      53544F50 
 17873      00
 17874              	.LASF376:
 17875 1320 61646472 		.ascii	"addr\000"
 17875      00
 17876              	.LASF99:
 17877 1325 52463052 		.ascii	"RF0R\000"
 17877      00
 17878              	.LASF295:
 17879 132a 675F6261 		.ascii	"g_backup\000"
 17879      636B7570 
 17879      00
 17880              	.LASF345:
 17881 1333 6572726F 		.ascii	"error_event\000"
 17881      725F6576 
 17881      656E7400 
 17882              	.LASF735:
 17883 133f 4641554C 		.ascii	"FAULT_ANGLE_PITCH\000"
 17883      545F414E 
 17883      474C455F 
 17883      50495443 
 17883      4800
 17884              	.LASF306:
 17885 1351 4F535045 		.ascii	"OSPEEDR\000"
 17885      45445200 
 17886              	.LASF531:
 17887 1359 72657376 		.ascii	"resvd30\000"
ARM GAS  /tmp/ccIHdayg.s 			page 332


 17887      64333000 
 17888              	.LASF620:
 17889 1361 5F5F7763 		.ascii	"__wchb\000"
 17889      686200
 17890              	.LASF532:
 17891 1368 72657376 		.ascii	"resvd34\000"
 17891      64333400 
 17892              	.LASF417:
 17893 1370 49435544 		.ascii	"ICUD4\000"
 17893      3400
 17894              	.LASF634:
 17895 1376 5F5F746D 		.ascii	"__tm_hour\000"
 17895      5F686F75 
 17895      7200
 17896              	.LASF418:
 17897 1380 49435544 		.ascii	"ICUD9\000"
 17897      3900
 17898              	.LASF428:
 17899 1386 53657269 		.ascii	"SerialDriverVMT\000"
 17899      616C4472 
 17899      69766572 
 17899      564D5400 
 17900              	.LASF481:
 17901 1396 5553425F 		.ascii	"USB_EP0_ERROR\000"
 17901      4550305F 
 17901      4552524F 
 17901      5200
 17902              	.LASF290:
 17903 13a4 6F646F6D 		.ascii	"odometer\000"
 17903      65746572 
 17903      00
 17904              	.LASF618:
 17905 13ad 77696E74 		.ascii	"wint_t\000"
 17905      5F7400
 17906              	.LASF100:
 17907 13b4 52463152 		.ascii	"RF1R\000"
 17907      00
 17908              	.LASF570:
 17909 13b9 72657376 		.ascii	"resvdE04\000"
 17909      64453034 
 17909      00
 17910              	.LASF237:
 17911 13c2 6272616B 		.ascii	"brake_timeout\000"
 17911      655F7469 
 17911      6D656F75 
 17911      7400
 17912              	.LASF904:
 17913 13d0 6D635F69 		.ascii	"mc_interface_get_duty_cycle_now\000"
 17913      6E746572 
 17913      66616365 
 17913      5F676574 
 17913      5F647574 
 17914              	.LASF583:
 17915 13f0 746F7473 		.ascii	"totsize\000"
 17915      697A6500 
 17916              	.LASF693:
 17917 13f8 5F6E696F 		.ascii	"_niobs\000"
ARM GAS  /tmp/ccIHdayg.s 			page 333


 17917      627300
 17918              	.LASF760:
 17919 13ff 74696C74 		.ascii	"tiltback_duty_step_size\000"
 17919      6261636B 
 17919      5F647574 
 17919      795F7374 
 17919      65705F73 
 17920              	.LASF783:
 17921 1417 73776974 		.ascii	"switch_state\000"
 17921      63685F73 
 17921      74617465 
 17921      00
 17922              	.LASF497:
 17923 1424 75736267 		.ascii	"usbgetdescriptor_t\000"
 17923      65746465 
 17923      73637269 
 17923      70746F72 
 17923      5F7400
 17924              	.LASF670:
 17925 1437 5F657272 		.ascii	"_errno\000"
 17925      6E6F00
 17926              	.LASF476:
 17927 143e 5553425F 		.ascii	"USB_EP0_TX\000"
 17927      4550305F 
 17927      545800
 17928              	.LASF454:
 17929 1449 65703073 		.ascii	"ep0state\000"
 17929      74617465 
 17929      00
 17930              	.LASF635:
 17931 1452 5F5F746D 		.ascii	"__tm_mday\000"
 17931      5F6D6461 
 17931      7900
 17932              	.LASF297:
 17933 145c 69666372 		.ascii	"ifcr\000"
 17933      00
 17934              	.LASF595:
 17935 1461 6F75745F 		.ascii	"out_maxsize\000"
 17935      6D617873 
 17935      697A6500 
 17936              	.LASF312:
 17937 146d 73746D33 		.ascii	"stm32_gpio_t\000"
 17937      325F6770 
 17937      696F5F74 
 17937      00
 17938              	.LASF138:
 17939 147a 7264796D 		.ascii	"rdymsg\000"
 17939      736700
 17940              	.LASF642:
 17941 1481 5F666E61 		.ascii	"_fnargs\000"
 17941      72677300 
 17942              	.LASF90:
 17943 1489 54445452 		.ascii	"TDTR\000"
 17943      00
 17944              	.LASF98:
 17945 148e 43414E5F 		.ascii	"CAN_FilterRegister_TypeDef\000"
 17945      46696C74 
ARM GAS  /tmp/ccIHdayg.s 			page 334


 17945      65725265 
 17945      67697374 
 17945      65725F54 
 17946              	.LASF534:
 17947 14a9 72657376 		.ascii	"resvd58\000"
 17947      64353800 
 17948              	.LASF584:
 17949 14b1 55534249 		.ascii	"USBInEndpointState\000"
 17949      6E456E64 
 17949      706F696E 
 17949      74537461 
 17949      746500
 17950              	.LASF35:
 17951 14c4 705F7072 		.ascii	"p_prio\000"
 17951      696F00
 17952              	.LASF747:
 17953 14cb 53657470 		.ascii	"SetpointAdjustmentType\000"
 17953      6F696E74 
 17953      41646A75 
 17953      73746D65 
 17953      6E745479 
 17954              	.LASF185:
 17955 14e2 696F5F71 		.ascii	"io_queue\000"
 17955      75657565 
 17955      00
 17956              	.LASF320:
 17957 14eb 50414461 		.ascii	"PAData\000"
 17957      746100
 17958              	.LASF12:
 17959 14f2 5F5F7569 		.ascii	"__uint64_t\000"
 17959      6E743634 
 17959      5F7400
 17960              	.LASF627:
 17961 14fd 5F6E6578 		.ascii	"_next\000"
 17961      7400
 17962              	.LASF917:
 17963 1503 74696D65 		.ascii	"timeout_reset\000"
 17963      6F75745F 
 17963      72657365 
 17963      7400
 17964              	.LASF847:
 17965 1511 7365745F 		.ascii	"set_current\000"
 17965      63757272 
 17965      656E7400 
 17966              	.LASF253:
 17967 151d 7475726E 		.ascii	"turntilt_angle_limit\000"
 17967      74696C74 
 17967      5F616E67 
 17967      6C655F6C 
 17967      696D6974 
 17968              	.LASF480:
 17969 1532 5553425F 		.ascii	"USB_EP0_SENDING_STS\000"
 17969      4550305F 
 17969      53454E44 
 17969      494E475F 
 17969      53545300 
 17970              	.LASF710:
ARM GAS  /tmp/ccIHdayg.s 			page 335


 17971 1546 5F736967 		.ascii	"_signal_buf\000"
 17971      6E616C5F 
 17971      62756600 
 17972              	.LASF412:
 17973 1552 70657269 		.ascii	"period_cb\000"
 17973      6F645F63 
 17973      6200
 17974              	.LASF357:
 17975 155c 69326373 		.ascii	"i2cstate_t\000"
 17975      74617465 
 17975      5F7400
 17976              	.LASF656:
 17977 1567 5F636F6F 		.ascii	"_cookie\000"
 17977      6B696500 
 17978              	.LASF482:
 17979 156f 75736265 		.ascii	"usbep0state_t\000"
 17979      70307374 
 17979      6174655F 
 17979      7400
 17980              	.LASF102:
 17981 157d 7354784D 		.ascii	"sTxMailBox\000"
 17981      61696C42 
 17981      6F7800
 17982              	.LASF438:
 17983 1588 5350495F 		.ascii	"SPI_ACTIVE\000"
 17983      41435449 
 17983      564500
 17984              	.LASF188:
 17985 1593 715F6275 		.ascii	"q_buffer\000"
 17985      66666572 
 17985      00
 17986              	.LASF33:
 17987 159c 705F6E65 		.ascii	"p_next\000"
 17987      787400
 17988              	.LASF381:
 17989 15a3 49324344 		.ascii	"I2CD2\000"
 17989      3200
 17990              	.LASF759:
 17991 15a9 73746172 		.ascii	"startup_step_size\000"
 17991      7475705F 
 17991      73746570 
 17991      5F73697A 
 17991      6500
 17992              	.LASF449:
 17993 15bb 55534244 		.ascii	"USBDriver\000"
 17993      72697665 
 17993      7200
 17994              	.LASF567:
 17995 15c5 72657376 		.ascii	"resvd8C0\000"
 17995      64384330 
 17995      00
 17996              	.LASF605:
 17997 15ce 55534243 		.ascii	"USBConfig\000"
 17997      6F6E6669 
 17997      6700
 17998              	.LASF749:
 17999 15d8 53776974 		.ascii	"SwitchState\000"
ARM GAS  /tmp/ccIHdayg.s 			page 336


 17999      63685374 
 17999      61746500 
 18000              	.LASF861:
 18001 15e4 62616C61 		.ascii	"balance_thread\000"
 18001      6E63655F 
 18001      74687265 
 18001      616400
 18002              	.LASF510:
 18003 15f3 72657376 		.ascii	"resvdC\000"
 18003      644300
 18004              	.LASF414:
 18005 15fa 6368616E 		.ascii	"channel\000"
 18005      6E656C00 
 18006              	.LASF889:
 18007 1602 73746172 		.ascii	"start\000"
 18007      7400
 18008              	.LASF213:
 18009 1608 74696C74 		.ascii	"tiltback_duty\000"
 18009      6261636B 
 18009      5F647574 
 18009      7900
 18010              	.LASF922:
 18011 1616 636F6D6D 		.ascii	"commands_plot_add_graph\000"
 18011      616E6473 
 18011      5F706C6F 
 18011      745F6164 
 18011      645F6772 
 18012              	.LASF608:
 18013 162e 4144435F 		.ascii	"ADC_curr_norm_value\000"
 18013      63757272 
 18013      5F6E6F72 
 18013      6D5F7661 
 18013      6C756500 
 18014              	.LASF426:
 18015 1642 6F717565 		.ascii	"oqueue\000"
 18015      756500
 18016              	.LASF24:
 18017 1649 74726566 		.ascii	"trefs_t\000"
 18017      735F7400 
 18018              	.LASF52:
 18019 1651 705F6D70 		.ascii	"p_mpool\000"
 18019      6F6F6C00 
 18020              	.LASF914:
 18021 1659 636F6D6D 		.ascii	"comm_can_set_current_off_delay\000"
 18021      5F63616E 
 18021      5F736574 
 18021      5F637572 
 18021      72656E74 
 18022              	.LASF632:
 18023 1678 5F5F746D 		.ascii	"__tm_sec\000"
 18023      5F736563 
 18023      00
 18024              	.LASF598:
 18025 1681 696E5F6D 		.ascii	"in_multiplier\000"
 18025      756C7469 
 18025      706C6965 
 18025      7200
ARM GAS  /tmp/ccIHdayg.s 			page 337


 18026              	.LASF859:
 18027 168f 63686563 		.ascii	"check_faults\000"
 18027      6B5F6661 
 18027      756C7473 
 18027      00
 18028              	.LASF641:
 18029 169c 5F6F6E5F 		.ascii	"_on_exit_args\000"
 18029      65786974 
 18029      5F617267 
 18029      7300
 18030              	.LASF22:
 18031 16aa 746D6F64 		.ascii	"tmode_t\000"
 18031      655F7400 
 18032              	.LASF679:
 18033 16b2 5F5F636C 		.ascii	"__cleanup\000"
 18033      65616E75 
 18033      7000
 18034              	.LASF797:
 18035 16bc 746F7271 		.ascii	"torquetilt_current_biquad\000"
 18035      75657469 
 18035      6C745F63 
 18035      75727265 
 18035      6E745F62 
 18036              	.LASF890:
 18037 16d6 63685654 		.ascii	"chVTGetSystemTimeX\000"
 18037      47657453 
 18037      79737465 
 18037      6D54696D 
 18037      655800
 18038              	.LASF650:
 18039 16e9 5F626173 		.ascii	"_base\000"
 18039      6500
 18040              	.LASF551:
 18041 16ef 44535453 		.ascii	"DSTS\000"
 18041      00
 18042              	.LASF308:
 18043 16f4 42535252 		.ascii	"BSRR\000"
 18043      00
 18044              	.LASF301:
 18045 16f9 73746D33 		.ascii	"stm32_dma_stream_t\000"
 18045      325F646D 
 18045      615F7374 
 18045      7265616D 
 18045      5F7400
 18046              	.LASF603:
 18047 170c 72657175 		.ascii	"requests_hook_cb\000"
 18047      65737473 
 18047      5F686F6F 
 18047      6B5F6362 
 18047      00
 18048              	.LASF852:
 18049 171d 6170706C 		.ascii	"apply_torquetilt\000"
 18049      795F746F 
 18049      72717565 
 18049      74696C74 
 18049      00
 18050              	.LASF715:
ARM GAS  /tmp/ccIHdayg.s 			page 338


 18051 172e 5F776372 		.ascii	"_wcrtomb_state\000"
 18051      746F6D62 
 18051      5F737461 
 18051      746500
 18052              	.LASF581:
 18053 173d 74787369 		.ascii	"txsize\000"
 18053      7A6500
 18054              	.LASF899:
 18055 1744 6D635F69 		.ascii	"mc_interface_get_pid_pos_now\000"
 18055      6E746572 
 18055      66616365 
 18055      5F676574 
 18055      5F706964 
 18056              	.LASF763:
 18057 1761 74696C74 		.ascii	"tiltback_return_step_size\000"
 18057      6261636B 
 18057      5F726574 
 18057      75726E5F 
 18057      73746570 
 18058              	.LASF786:
 18059 177b 64657269 		.ascii	"derivative\000"
 18059      76617469 
 18059      766500
 18060              	.LASF356:
 18061 1786 4932435F 		.ascii	"I2C_LOCKED\000"
 18061      4C4F434B 
 18061      454400
 18062              	.LASF411:
 18063 1791 77696474 		.ascii	"width_cb\000"
 18063      685F6362 
 18063      00
 18064              	.LASF470:
 18065 179a 5553425F 		.ascii	"USB_READY\000"
 18065      52454144 
 18065      5900
 18066              	.LASF434:
 18067 17a4 72656164 		.ascii	"readt\000"
 18067      7400
 18068              	.LASF523:
 18069 17aa 47525354 		.ascii	"GRSTCTL\000"
 18069      43544C00 
 18070              	.LASF765:
 18071 17b2 746F7271 		.ascii	"torquetilt_off_step_size\000"
 18071      75657469 
 18071      6C745F6F 
 18071      66665F73 
 18071      7465705F 
 18072              	.LASF625:
 18073 17cb 5F5F554C 		.ascii	"__ULong\000"
 18073      6F6E6700 
 18074              	.LASF81:
 18075 17d3 70616E69 		.ascii	"panic_msg\000"
 18075      635F6D73 
 18075      6700
 18076              	.LASF439:
 18077 17dd 5350495F 		.ascii	"SPI_COMPLETE\000"
 18077      434F4D50 
ARM GAS  /tmp/ccIHdayg.s 			page 339


 18077      4C455445 
 18077      00
 18078              	.LASF665:
 18079 17ea 5F646174 		.ascii	"_data\000"
 18079      6100
 18080              	.LASF65:
 18081 17f0 725F6E65 		.ascii	"r_newer\000"
 18081      77657200 
 18082              	.LASF543:
 18083 17f8 4841494E 		.ascii	"HAINT\000"
 18083      5400
 18084              	.LASF488:
 18085 17fe 5553425F 		.ascii	"USB_EVENT_STALLED\000"
 18085      4556454E 
 18085      545F5354 
 18085      414C4C45 
 18085      4400
 18086              	.LASF171:
 18087 1810 63686465 		.ascii	"chdebug_t\000"
 18087      6275675F 
 18087      7400
 18088              	.LASF587:
 18089 181a 72787369 		.ascii	"rxsize\000"
 18089      7A6500
 18090              	.LASF385:
 18091 1821 4943555F 		.ascii	"ICU_WAITING\000"
 18091      57414954 
 18091      494E4700 
 18092              	.LASF502:
 18093 182d 48435453 		.ascii	"HCTSIZ\000"
 18093      495A00
 18094              	.LASF485:
 18095 1834 5553425F 		.ascii	"USB_EVENT_CONFIGURED\000"
 18095      4556454E 
 18095      545F434F 
 18095      4E464947 
 18095      55524544 
 18096              	.LASF431:
 18097 1849 70757474 		.ascii	"putt\000"
 18097      00
 18098              	.LASF804:
 18099 184e 7961775F 		.ascii	"yaw_last_proportional\000"
 18099      6C617374 
 18099      5F70726F 
 18099      706F7274 
 18099      696F6E61 
 18100              	.LASF25:
 18101 1864 74736C69 		.ascii	"tslices_t\000"
 18101      6365735F 
 18101      7400
 18102              	.LASF700:
 18103 186e 5F737472 		.ascii	"_strtok_last\000"
 18103      746F6B5F 
 18103      6C617374 
 18103      00
 18104              	.LASF870:
 18105 187b 6170705F 		.ascii	"app_balance_get_diff_time\000"
ARM GAS  /tmp/ccIHdayg.s 			page 340


 18105      62616C61 
 18105      6E63655F 
 18105      6765745F 
 18105      64696666 
 18106              	.LASF158:
 18107 1895 63685F74 		.ascii	"ch_timesize\000"
 18107      696D6573 
 18107      697A6500 
 18108              	.LASF744:
 18109 18a1 54494C54 		.ascii	"TILTBACK_HV\000"
 18109      4241434B 
 18109      5F485600 
 18110              	.LASF609:
 18111 18ad 73656E64 		.ascii	"send_buffer_global\000"
 18111      5F627566 
 18111      6665725F 
 18111      676C6F62 
 18111      616C00
 18112              	.LASF730:
 18113 18c0 53544152 		.ascii	"STARTUP\000"
 18113      54555000 
 18114              	.LASF256:
 18115 18c8 7475726E 		.ascii	"turntilt_speed\000"
 18115      74696C74 
 18115      5F737065 
 18115      656400
 18116              	.LASF183:
 18117 18d7 6576656E 		.ascii	"event_source_t\000"
 18117      745F736F 
 18117      75726365 
 18117      5F7400
 18118              	.LASF537:
 18119 18e6 72657376 		.ascii	"resvd140\000"
 18119      64313430 
 18119      00
 18120              	.LASF73:
 18121 18ef 76745F64 		.ascii	"vt_delta\000"
 18121      656C7461 
 18121      00
 18122              	.LASF696:
 18123 18f8 5F736565 		.ascii	"_seed\000"
 18123      6400
 18124              	.LASF774:
 18125 18fe 6779726F 		.ascii	"gyro\000"
 18125      00
 18126              	.LASF898:
 18127 1903 6D635F69 		.ascii	"mc_interface_get_tot_current_directional_filtered\000"
 18127      6E746572 
 18127      66616365 
 18127      5F676574 
 18127      5F746F74 
 18128              	.LASF659:
 18129 1935 5F736565 		.ascii	"_seek\000"
 18129      6B00
 18130              	.LASF486:
 18131 193b 5553425F 		.ascii	"USB_EVENT_SUSPEND\000"
 18131      4556454E 
ARM GAS  /tmp/ccIHdayg.s 			page 341


 18131      545F5355 
 18131      5350454E 
 18131      4400
 18132              	.LASF779:
 18133 194d 6D6F746F 		.ascii	"motor_current\000"
 18133      725F6375 
 18133      7272656E 
 18133      7400
 18134              	.LASF515:
 18135 195b 444F4550 		.ascii	"DOEPCTL\000"
 18135      43544C00 
 18136              	.LASF6:
 18137 1963 73686F72 		.ascii	"short unsigned int\000"
 18137      7420756E 
 18137      7369676E 
 18137      65642069 
 18137      6E7400
 18138              	.LASF204:
 18139 1976 6661756C 		.ascii	"fault_adc2\000"
 18139      745F6164 
 18139      633200
 18140              	.LASF1:
 18141 1981 7369676E 		.ascii	"signed char\000"
 18141      65642063 
 18141      68617200 
 18142              	.LASF808:
 18143 198d 6C617374 		.ascii	"last_time\000"
 18143      5F74696D 
 18143      6500
 18144              	.LASF44:
 18145 1997 705F7072 		.ascii	"p_preempt\000"
 18145      65656D70 
 18145      7400
 18146              	.LASF874:
 18147 19a1 6170705F 		.ascii	"app_balance_stop\000"
 18147      62616C61 
 18147      6E63655F 
 18147      73746F70 
 18147      00
 18148              	.LASF45:
 18149 19b2 705F7469 		.ascii	"p_time\000"
 18149      6D6500
 18150              	.LASF92:
 18151 19b9 54444852 		.ascii	"TDHR\000"
 18151      00
 18152              	.LASF479:
 18153 19be 5553425F 		.ascii	"USB_EP0_RX\000"
 18153      4550305F 
 18153      525800
 18154              	.LASF285:
 18155 19c9 63757272 		.ascii	"current\000"
 18155      656E7400 
 18156              	.LASF725:
 18157 19d1 5F5F6664 		.ascii	"__fdlibm_ieee\000"
 18157      6C69626D 
 18157      5F696565 
 18157      6500
ARM GAS  /tmp/ccIHdayg.s 			page 342


 18158              	.LASF283:
 18159 19df 696D755F 		.ascii	"imu_config\000"
 18159      636F6E66 
 18159      696700
 18160              	.LASF459:
 18161 19ea 73746174 		.ascii	"status\000"
 18161      757300
 18162              	.LASF225:
 18163 19f1 6E6F7365 		.ascii	"noseangling_speed\000"
 18163      616E676C 
 18163      696E675F 
 18163      73706565 
 18163      6400
 18164              	.LASF900:
 18165 1a03 696D755F 		.ascii	"imu_get_pitch\000"
 18165      6765745F 
 18165      70697463 
 18165      6800
 18166              	.LASF492:
 18167 1a11 55534244 		.ascii	"USBDescriptor\000"
 18167      65736372 
 18167      6970746F 
 18167      7200
 18168              	.LASF683:
 18169 1a1f 5F667265 		.ascii	"_freelist\000"
 18169      656C6973 
 18169      7400
 18170              	.LASF460:
 18171 1a29 61646472 		.ascii	"address\000"
 18171      65737300 
 18172              	.LASF748:
 18173 1a31 48414C46 		.ascii	"HALF\000"
 18173      00
 18174              	.LASF47:
 18175 1a36 705F6D73 		.ascii	"p_msgqueue\000"
 18175      67717565 
 18175      756500
 18176              	.LASF168:
 18177 1a41 63665F6F 		.ascii	"cf_off_refs\000"
 18177      66665F72 
 18177      65667300 
 18178              	.LASF150:
 18179 1a4d 6D5F6F77 		.ascii	"m_owner\000"
 18179      6E657200 
 18180              	.LASF856:
 18181 1a55 63616C63 		.ascii	"calculate_setpoint_interpolated\000"
 18181      756C6174 
 18181      655F7365 
 18181      74706F69 
 18181      6E745F69 
 18182              	.LASF664:
 18183 1a75 5F6F6666 		.ascii	"_offset\000"
 18183      73657400 
 18184              	.LASF89:
 18185 1a7d 53797374 		.ascii	"SystemCoreClock\000"
 18185      656D436F 
 18185      7265436C 
ARM GAS  /tmp/ccIHdayg.s 			page 343


 18185      6F636B00 
 18186              	.LASF339:
 18187 1a8d 73746174 		.ascii	"state\000"
 18187      6500
 18188              	.LASF156:
 18189 1a93 63685F76 		.ascii	"ch_version\000"
 18189      65727369 
 18189      6F6E00
 18190              	.LASF289:
 18191 1a9e 6F646F6D 		.ascii	"odometer_init_flag\000"
 18191      65746572 
 18191      5F696E69 
 18191      745F666C 
 18191      616700
 18192              	.LASF649:
 18193 1ab1 5F5F7362 		.ascii	"__sbuf\000"
 18193      756600
 18194              	.LASF901:
 18195 1ab8 696D755F 		.ascii	"imu_get_roll\000"
 18195      6765745F 
 18195      726F6C6C 
 18195      00
 18196              	.LASF362:
 18197 1ac5 4F504D4F 		.ascii	"OPMODE_SMBUS_HOST\000"
 18197      44455F53 
 18197      4D425553 
 18197      5F484F53 
 18197      5400
 18198              	.LASF478:
 18199 1ad7 5553425F 		.ascii	"USB_EP0_WAITING_STS\000"
 18199      4550305F 
 18199      57414954 
 18199      494E475F 
 18199      53545300 
 18200              	.LASF123:
 18201 1aeb 4932435F 		.ascii	"I2C_TypeDef\000"
 18201      54797065 
 18201      44656600 
 18202              	.LASF96:
 18203 1af7 52444852 		.ascii	"RDHR\000"
 18203      00
 18204              	.LASF698:
 18205 1afc 5F616464 		.ascii	"_add\000"
 18205      00
 18206              	.LASF399:
 18207 1b01 444D4152 		.ascii	"DMAR\000"
 18207      00
 18208              	.LASF83:
 18209 1b06 63685F73 		.ascii	"ch_system\000"
 18209      79737465 
 18209      6D00
 18210              	.LASF669:
 18211 1b10 5F726565 		.ascii	"_reent\000"
 18211      6E7400
 18212              	.LASF745:
 18213 1b17 54494C54 		.ascii	"TILTBACK_LV\000"
 18213      4241434B 
ARM GAS  /tmp/ccIHdayg.s 			page 344


 18213      5F4C5600 
 18214              	.LASF709:
 18215 1b23 5F6C3634 		.ascii	"_l64a_buf\000"
 18215      615F6275 
 18215      6600
 18216              	.LASF701:
 18217 1b2d 5F617363 		.ascii	"_asctime_buf\000"
 18217      74696D65 
 18217      5F627566 
 18217      00
 18218              	.LASF293:
 18219 1b3a 6261636B 		.ascii	"backup_data\000"
 18219      75705F64 
 18219      61746100 
 18220              	.LASF823:
 18221 1b46 645F6269 		.ascii	"d_biquad_lowpass\000"
 18221      71756164 
 18221      5F6C6F77 
 18221      70617373 
 18221      00
 18222              	.LASF619:
 18223 1b57 5F5F7763 		.ascii	"__wch\000"
 18223      6800
 18224              	.LASF622:
 18225 1b5d 5F5F7661 		.ascii	"__value\000"
 18225      6C756500 
 18226              	.LASF145:
 18227 1b65 63685F73 		.ascii	"ch_semaphore\000"
 18227      656D6170 
 18227      686F7265 
 18227      00
 18228              	.LASF716:
 18229 1b72 5F776373 		.ascii	"_wcsrtombs_state\000"
 18229      72746F6D 
 18229      62735F73 
 18229      74617465 
 18229      00
 18230              	.LASF199:
 18231 1b83 6C6F6F70 		.ascii	"loop_time_filter\000"
 18231      5F74696D 
 18231      655F6669 
 18231      6C746572 
 18231      00
 18232              	.LASF824:
 18233 1b94 645F6269 		.ascii	"d_biquad_highpass\000"
 18233      71756164 
 18233      5F686967 
 18233      68706173 
 18233      7300
 18234              	.LASF791:
 18235 1ba6 73657470 		.ascii	"setpoint_target\000"
 18235      6F696E74 
 18235      5F746172 
 18235      67657400 
 18236              	.LASF511:
 18237 1bb6 44494550 		.ascii	"DIEPTSIZ\000"
 18237      5453495A 
ARM GAS  /tmp/ccIHdayg.s 			page 345


 18237      00
 18238              	.LASF58:
 18239 1bbf 74687265 		.ascii	"threads_queue_t\000"
 18239      6164735F 
 18239      71756575 
 18239      655F7400 
 18240              	.LASF926:
 18241 1bcf 5F5F6664 		.ascii	"__fdlibm_version\000"
 18241      6C69626D 
 18241      5F766572 
 18241      73696F6E 
 18241      00
 18242              	.LASF607:
 18243 1be0 4144435F 		.ascii	"ADC_Value\000"
 18243      56616C75 
 18243      6500
 18244              	.LASF43:
 18245 1bea 705F7265 		.ascii	"p_refs\000"
 18245      667300
 18246              	.LASF590:
 18247 1bf1 65705F6D 		.ascii	"ep_mode\000"
 18247      6F646500 
 18248              	.LASF518:
 18249 1bf9 73746D33 		.ascii	"stm32_otg_out_ep_t\000"
 18249      325F6F74 
 18249      675F6F75 
 18249      745F6570 
 18249      5F7400
 18250              	.LASF91:
 18251 1c0c 54444C52 		.ascii	"TDLR\000"
 18251      00
 18252              	.LASF8:
 18253 1c11 6C6F6E67 		.ascii	"long int\000"
 18253      20696E74 
 18253      00
 18254              	.LASF86:
 18255 1c1a 6D61696E 		.ascii	"mainthread\000"
 18255      74687265 
 18255      616400
 18256              	.LASF743:
 18257 1c25 54494C54 		.ascii	"TILTBACK_DUTY\000"
 18257      4241434B 
 18257      5F445554 
 18257      5900
 18258              	.LASF456:
 18259 1c33 6570306E 		.ascii	"ep0n\000"
 18259      00
 18260              	.LASF149:
 18261 1c38 6D5F7175 		.ascii	"m_queue\000"
 18261      65756500 
 18262              	.LASF241:
 18263 1c40 6B645F62 		.ascii	"kd_biquad_lowpass\000"
 18263      69717561 
 18263      645F6C6F 
 18263      77706173 
 18263      7300
 18264              	.LASF907:
ARM GAS  /tmp/ccIHdayg.s 			page 346


 18265 1c52 696D755F 		.ascii	"imu_startup_done\000"
 18265      73746172 
 18265      7475705F 
 18265      646F6E65 
 18265      00
 18266              	.LASF857:
 18267 1c63 63616C63 		.ascii	"calculate_setpoint_target\000"
 18267      756C6174 
 18267      655F7365 
 18267      74706F69 
 18267      6E745F74 
 18268              	.LASF327:
 18269 1c7d 50484461 		.ascii	"PHData\000"
 18269      746100
 18270              	.LASF330:
 18271 1c84 696F706F 		.ascii	"ioportid_t\000"
 18271      72746964 
 18271      5F7400
 18272              	.LASF216:
 18273 1c8f 74696C74 		.ascii	"tiltback_hv\000"
 18273      6261636B 
 18273      5F687600 
 18274              	.LASF538:
 18275 1c9b 48434647 		.ascii	"HCFG\000"
 18275      00
 18276              	.LASF694:
 18277 1ca0 5F696F62 		.ascii	"_iobs\000"
 18277      7300
 18278              	.LASF447:
 18279 1ca6 53504944 		.ascii	"SPID1\000"
 18279      3100
 18280              	.LASF432:
 18281 1cac 67657474 		.ascii	"gett\000"
 18281      00
 18282              	.LASF448:
 18283 1cb1 53504944 		.ascii	"SPID3\000"
 18283      3300
 18284              	.LASF141:
 18285 1cb7 77747472 		.ascii	"wttrp\000"
 18285      7000
 18286              	.LASF191:
 18287 1cbd 715F7264 		.ascii	"q_rdptr\000"
 18287      70747200 
 18288              	.LASF134:
 18289 1cc5 636F6E74 		.ascii	"context\000"
 18289      65787400 
 18290              	.LASF429:
 18291 1ccd 77726974 		.ascii	"write\000"
 18291      6500
 18292              	.LASF704:
 18293 1cd3 5F72616E 		.ascii	"_rand_next\000"
 18293      645F6E65 
 18293      787400
 18294              	.LASF425:
 18295 1cde 69717565 		.ascii	"iqueue\000"
 18295      756500
 18296              	.LASF209:
ARM GAS  /tmp/ccIHdayg.s 			page 347


 18297 1ce5 6661756C 		.ascii	"fault_delay_switch_full\000"
 18297      745F6465 
 18297      6C61795F 
 18297      73776974 
 18297      63685F66 
 18298              	.LASF592:
 18299 1cfd 696E5F63 		.ascii	"in_cb\000"
 18299      6200
 18300              	.LASF516:
 18301 1d03 444F4550 		.ascii	"DOEPINT\000"
 18301      494E5400 
 18302              	.LASF309:
 18303 1d0b 4C434B52 		.ascii	"LCKR\000"
 18303      00
 18304              	.LASF422:
 18305 1d10 73647374 		.ascii	"sdstate_t\000"
 18305      6174655F 
 18305      7400
 18306              	.LASF613:
 18307 1d1a 7574696C 		.ascii	"utils_tab_cos_32_1\000"
 18307      735F7461 
 18307      625F636F 
 18307      735F3332 
 18307      5F3100
 18308              	.LASF18:
 18309 1d2d 75696E74 		.ascii	"uint32_t\000"
 18309      33325F74 
 18309      00
 18310              	.LASF294:
 18311 1d36 636F6E66 		.ascii	"conf_general_permanent_nrf_found\000"
 18311      5F67656E 
 18311      6572616C 
 18311      5F706572 
 18311      6D616E65 
 18312              	.LASF628:
 18313 1d57 5F6D6178 		.ascii	"_maxwds\000"
 18313      77647300 
 18314              	.LASF496:
 18315 1d5f 75736272 		.ascii	"usbreqhandler_t\000"
 18315      65716861 
 18315      6E646C65 
 18315      725F7400 
 18316              	.LASF95:
 18317 1d6f 52444C52 		.ascii	"RDLR\000"
 18317      00
 18318              	.LASF629:
 18319 1d74 5F736967 		.ascii	"_sign\000"
 18319      6E00
 18320              	.LASF867:
 18321 1d7a 6170705F 		.ascii	"app_balance_get_switch_state\000"
 18321      62616C61 
 18321      6E63655F 
 18321      6765745F 
 18321      73776974 
 18322              	.LASF905:
 18323 1d97 6D635F69 		.ascii	"mc_interface_get_rpm\000"
 18323      6E746572 
ARM GAS  /tmp/ccIHdayg.s 			page 348


 18323      66616365 
 18323      5F676574 
 18323      5F72706D 
 18324              	.LASF697:
 18325 1dac 5F6D756C 		.ascii	"_mult\000"
 18325      7400
 18326              	.LASF132:
 18327 1db2 72656761 		.ascii	"regarm_t\000"
 18327      726D5F74 
 18327      00
 18328              	.LASF28:
 18329 1dbb 6576656E 		.ascii	"eventmask_t\000"
 18329      746D6173 
 18329      6B5F7400 
 18330              	.LASF483:
 18331 1dc7 5553425F 		.ascii	"USB_EVENT_RESET\000"
 18331      4556454E 
 18331      545F5245 
 18331      53455400 
 18332              	.LASF733:
 18333 1dd7 52554E4E 		.ascii	"RUNNING_TILTBACK_HIGH_VOLTAGE\000"
 18333      494E475F 
 18333      54494C54 
 18333      4241434B 
 18333      5F484947 
 18334              	.LASF109:
 18335 1df5 46464131 		.ascii	"FFA1R\000"
 18335      5200
 18336              	.LASF471:
 18337 1dfb 5553425F 		.ascii	"USB_SELECTED\000"
 18337      53454C45 
 18337      43544544 
 18337      00
 18338              	.LASF10:
 18339 1e08 6C6F6E67 		.ascii	"long unsigned int\000"
 18339      20756E73 
 18339      69676E65 
 18339      6420696E 
 18339      7400
 18340              	.LASF463:
 18341 1e1a 706D6E65 		.ascii	"pmnext\000"
 18341      787400
 18342              	.LASF208:
 18343 1e21 6661756C 		.ascii	"fault_delay_switch_half\000"
 18343      745F6465 
 18343      6C61795F 
 18343      73776974 
 18343      63685F68 
 18344              	.LASF773:
 18345 1e39 6162735F 		.ascii	"abs_roll_angle_sin\000"
 18345      726F6C6C 
 18345      5F616E67 
 18345      6C655F73 
 18345      696E00
 18346              	.LASF876:
 18347 1e4c 6170705F 		.ascii	"app_balance_configure\000"
 18347      62616C61 
ARM GAS  /tmp/ccIHdayg.s 			page 349


 18347      6E63655F 
 18347      636F6E66 
 18347      69677572 
 18348              	.LASF190:
 18349 1e62 715F7772 		.ascii	"q_wrptr\000"
 18349      70747200 
 18350              	.LASF236:
 18351 1e6a 6272616B 		.ascii	"brake_current\000"
 18351      655F6375 
 18351      7272656E 
 18351      7400
 18352              	.LASF388:
 18353 1e78 49435544 		.ascii	"ICUDriver\000"
 18353      72697665 
 18353      7200
 18354              	.LASF416:
 18355 1e82 49435543 		.ascii	"ICUConfig\000"
 18355      6F6E6669 
 18355      6700
 18356              	.LASF795:
 18357 1e8c 746F7271 		.ascii	"torquetilt_target\000"
 18357      75657469 
 18357      6C745F74 
 18357      61726765 
 18357      7400
 18358              	.LASF484:
 18359 1e9e 5553425F 		.ascii	"USB_EVENT_ADDRESS\000"
 18359      4556454E 
 18359      545F4144 
 18359      44524553 
 18359      5300
 18360              	.LASF291:
 18361 1eb0 72756E74 		.ascii	"runtime_init_flag\000"
 18361      696D655F 
 18361      696E6974 
 18361      5F666C61 
 18361      6700
 18362              	.LASF343:
 18363 1ec2 72786675 		.ascii	"rxfull_event\000"
 18363      6C6C5F65 
 18363      76656E74 
 18363      00
 18364              	.LASF281:
 18365 1ecf 61636365 		.ascii	"accel_offsets\000"
 18365      6C5F6F66 
 18365      66736574 
 18365      7300
 18366              	.LASF666:
 18367 1edd 5F6C6F63 		.ascii	"_lock\000"
 18367      6B00
 18368              	.LASF489:
 18369 1ee3 75736265 		.ascii	"usbevent_t\000"
 18369      76656E74 
 18369      5F7400
 18370              	.LASF660:
 18371 1eee 5F636C6F 		.ascii	"_close\000"
 18371      736500
ARM GAS  /tmp/ccIHdayg.s 			page 350


 18372              	.LASF152:
 18373 1ef5 63686172 		.ascii	"char\000"
 18373      00
 18374              	.LASF338:
 18375 1efa 43414E43 		.ascii	"CANConfig\000"
 18375      6F6E6669 
 18375      6700
 18376              	.LASF324:
 18377 1f04 50454461 		.ascii	"PEData\000"
 18377      746100
 18378              	.LASF62:
 18379 1f0b 725F7175 		.ascii	"r_queue\000"
 18379      65756500 
 18380              	.LASF692:
 18381 1f13 5F676C75 		.ascii	"_glue\000"
 18381      6500
 18382              	.LASF848:
 18383 1f19 7961775F 		.ascii	"yaw_current\000"
 18383      63757272 
 18383      656E7400 
 18384              	.LASF528:
 18385 1f25 47525846 		.ascii	"GRXFSIZ\000"
 18385      53495A00 
 18386              	.LASF830:
 18387 1f2d 64656275 		.ascii	"debug_sample_index\000"
 18387      675F7361 
 18387      6D706C65 
 18387      5F696E64 
 18387      657800
 18388              	.LASF771:
 18389 1f40 726F6C6C 		.ascii	"roll_angle\000"
 18389      5F616E67 
 18389      6C6500
 18390              	.LASF427:
 18391 1f4b 75736172 		.ascii	"usart\000"
 18391      7400
 18392              	.LASF219:
 18393 1f51 74696C74 		.ascii	"tiltback_lv\000"
 18393      6261636B 
 18393      5F6C7600 
 18394              	.LASF688:
 18395 1f5d 5F736967 		.ascii	"_sig_func\000"
 18395      5F66756E 
 18395      6300
 18396              	.LASF193:
 18397 1f67 715F6C69 		.ascii	"q_link\000"
 18397      6E6B00
 18398              	.LASF877:
 18399 1f6e 636F6E66 		.ascii	"conf\000"
 18399      00
 18400              	.LASF407:
 18401 1f73 4943555F 		.ascii	"ICU_CHANNEL_1\000"
 18401      4348414E 
 18401      4E454C5F 
 18401      3100
 18402              	.LASF242:
 18403 1f81 6B645F62 		.ascii	"kd_biquad_highpass\000"
ARM GAS  /tmp/ccIHdayg.s 			page 351


 18403      69717561 
 18403      645F6869 
 18403      67687061 
 18403      737300
 18404              	.LASF849:
 18405 1f94 6272616B 		.ascii	"brake\000"
 18405      6500
 18406              	.LASF626:
 18407 1f9a 5F426967 		.ascii	"_Bigint\000"
 18407      696E7400 
 18408              	.LASF886:
 18409 1fa2 63685468 		.ascii	"chThdGetSelfX\000"
 18409      64476574 
 18409      53656C66 
 18409      5800
 18410              	.LASF871:
 18411 1fb0 6170705F 		.ascii	"app_balance_get_roll_angle\000"
 18411      62616C61 
 18411      6E63655F 
 18411      6765745F 
 18411      726F6C6C 
 18412              	.LASF525:
 18413 1fcb 47494E54 		.ascii	"GINTMSK\000"
 18413      4D534B00 
 18414              	.LASF392:
 18415 1fd3 69637563 		.ascii	"icucallback_t\000"
 18415      616C6C62 
 18415      61636B5F 
 18415      7400
 18416              	.LASF762:
 18417 1fe1 74696C74 		.ascii	"tiltback_lv_step_size\000"
 18417      6261636B 
 18417      5F6C765F 
 18417      73746570 
 18417      5F73697A 
 18418              	.LASF530:
 18419 1ff7 484E5054 		.ascii	"HNPTXSTS\000"
 18419      58535453 
 18419      00
 18420              	.LASF461:
 18421 2000 636F6E66 		.ascii	"configuration\000"
 18421      69677572 
 18421      6174696F 
 18421      6E00
 18422              	.LASF687:
 18423 200e 5F617465 		.ascii	"_atexit0\000"
 18423      78697430 
 18423      00
 18424              	.LASF319:
 18425 2017 73746D33 		.ascii	"stm32_gpio_setup_t\000"
 18425      325F6770 
 18425      696F5F73 
 18425      65747570 
 18425      5F7400
 18426              	.LASF404:
 18427 202a 4943555F 		.ascii	"ICU_INPUT_ACTIVE_LOW\000"
 18427      494E5055 
ARM GAS  /tmp/ccIHdayg.s 			page 352


 18427      545F4143 
 18427      54495645 
 18427      5F4C4F57 
 18428              	.LASF302:
 18429 203f 5F73746D 		.ascii	"_stm32_dma_streams\000"
 18429      33325F64 
 18429      6D615F73 
 18429      74726561 
 18429      6D7300
 18430              	.LASF711:
 18431 2052 5F676574 		.ascii	"_getdate_err\000"
 18431      64617465 
 18431      5F657272 
 18431      00
 18432              	.LASF406:
 18433 205f 69637566 		.ascii	"icufreq_t\000"
 18433      7265715F 
 18433      7400
 18434              	.LASF631:
 18435 2069 5F5F746D 		.ascii	"__tm\000"
 18435      00
 18436              	.LASF40:
 18437 206e 705F7374 		.ascii	"p_stklimit\000"
 18437      6B6C696D 
 18437      697400
 18438              	.LASF30:
 18439 2079 636E745F 		.ascii	"cnt_t\000"
 18439      7400
 18440              	.LASF878:
 18441 207f 636F6E66 		.ascii	"conf2\000"
 18441      3200
 18442              	.LASF477:
 18443 2085 5553425F 		.ascii	"USB_EP0_WAITING_TX0\000"
 18443      4550305F 
 18443      57414954 
 18443      494E475F 
 18443      54583000 
 18444              	.LASF286:
 18445 2099 64757479 		.ascii	"duty\000"
 18445      00
 18446              	.LASF455:
 18447 209e 6570306E 		.ascii	"ep0next\000"
 18447      65787400 
 18448              	.LASF506:
 18449 20a6 73746D33 		.ascii	"stm32_otg_host_chn_t\000"
 18449      325F6F74 
 18449      675F686F 
 18449      73745F63 
 18449      686E5F74 
 18450              	.LASF311:
 18451 20bb 41465248 		.ascii	"AFRH\000"
 18451      00
 18452              	.LASF828:
 18453 20c0 64656275 		.ascii	"debug_sample_field\000"
 18453      675F7361 
 18453      6D706C65 
 18453      5F666965 
ARM GAS  /tmp/ccIHdayg.s 			page 353


 18453      6C6400
 18454              	.LASF310:
 18455 20d3 4146524C 		.ascii	"AFRL\000"
 18455      00
 18456              	.LASF750:
 18457 20d8 42697175 		.ascii	"Biquad\000"
 18457      616400
 18458              	.LASF723:
 18459 20df 5F696D70 		.ascii	"_impure_ptr\000"
 18459      7572655F 
 18459      70747200 
 18460              	.LASF169:
 18461 20eb 63665F6F 		.ascii	"cf_off_preempt\000"
 18461      66665F70 
 18461      7265656D 
 18461      707400
 18462              	.LASF732:
 18463 20fa 52554E4E 		.ascii	"RUNNING_TILTBACK_DUTY\000"
 18463      494E475F 
 18463      54494C54 
 18463      4241434B 
 18463      5F445554 
 18464              	.LASF244:
 18465 2110 626F6F73 		.ascii	"booster_ramp\000"
 18465      7465725F 
 18465      72616D70 
 18465      00
 18466              	.LASF501:
 18467 211d 4843494E 		.ascii	"HCINTMSK\000"
 18467      544D534B 
 18467      00
 18468              	.LASF661:
 18469 2126 5F756275 		.ascii	"_ubuf\000"
 18469      6600
 18470              	.LASF340:
 18471 212c 636F6E66 		.ascii	"config\000"
 18471      696700
 18472              	.LASF706:
 18473 2133 5F6D626C 		.ascii	"_mblen_state\000"
 18473      656E5F73 
 18473      74617465 
 18473      00
 18474              	.LASF689:
 18475 2140 5F5F7367 		.ascii	"__sglue\000"
 18475      6C756500 
 18476              	.LASF722:
 18477 2148 5F5F6C6F 		.ascii	"__locale_t\000"
 18477      63616C65 
 18477      5F7400
 18478              	.LASF466:
 18479 2153 77615F70 		.ascii	"wa_pump\000"
 18479      756D7000 
 18480              	.LASF280:
 18481 215b 726F745F 		.ascii	"rot_yaw\000"
 18481      79617700 
 18482              	.LASF549:
 18483 2163 44434647 		.ascii	"DCFG\000"
ARM GAS  /tmp/ccIHdayg.s 			page 354


 18483      00
 18484              	.LASF838:
 18485 2168 6170705F 		.ascii	"app_balance_sample_debug\000"
 18485      62616C61 
 18485      6E63655F 
 18485      73616D70 
 18485      6C655F64 
 18486              	.LASF863:
 18487 2181 6170705F 		.ascii	"app_balance_get_debug2\000"
 18487      62616C61 
 18487      6E63655F 
 18487      6765745F 
 18487      64656275 
 18488              	.LASF746:
 18489 2198 54494C54 		.ascii	"TILTBACK_NONE\000"
 18489      4241434B 
 18489      5F4E4F4E 
 18489      4500
 18490              	.LASF895:
 18491 21a6 666D6178 		.ascii	"fmaxf\000"
 18491      6600
 18492              	.LASF880:
 18493 21ac 62697175 		.ascii	"biquad_config\000"
 18493      61645F63 
 18493      6F6E6669 
 18493      6700
 18494              	.LASF386:
 18495 21ba 4943555F 		.ascii	"ICU_ACTIVE\000"
 18495      41435449 
 18495      564500
 18496              	.LASF837:
 18497 21c5 6170705F 		.ascii	"app_balance_experiment\000"
 18497      62616C61 
 18497      6E63655F 
 18497      65787065 
 18497      72696D65 
 18498              	.LASF68:
 18499 21dc 76746675 		.ascii	"vtfunc_t\000"
 18499      6E635F74 
 18499      00
 18500              	.LASF97:
 18501 21e5 43414E5F 		.ascii	"CAN_FIFOMailBox_TypeDef\000"
 18501      4649464F 
 18501      4D61696C 
 18501      426F785F 
 18501      54797065 
 18502              	.LASF777:
 18503 21fd 6162735F 		.ascii	"abs_erpm\000"
 18503      6572706D 
 18503      00
 18504              	.LASF140:
 18505 2206 77746F62 		.ascii	"wtobjp\000"
 18505      6A7000
 18506              	.LASF617:
 18507 220d 5F66706F 		.ascii	"_fpos_t\000"
 18507      735F7400 
 18508              	.LASF654:
ARM GAS  /tmp/ccIHdayg.s 			page 355


 18509 2215 5F66696C 		.ascii	"_file\000"
 18509      6500
 18510              	.LASF51:
 18511 221b 705F7265 		.ascii	"p_realprio\000"
 18511      616C7072 
 18511      696F00
 18512              	.LASF192:
 18513 2226 715F6E6F 		.ascii	"q_notify\000"
 18513      74696679 
 18513      00
 18514              	.LASF143:
 18515 222f 77746D74 		.ascii	"wtmtxp\000"
 18515      787000
 18516              	.LASF652:
 18517 2236 5F5F7346 		.ascii	"__sFILE\000"
 18517      494C4500 
 18518              	.LASF288:
 18519 223e 646F7562 		.ascii	"double\000"
 18519      6C6500
 18520              	.LASF648:
 18521 2245 5F666E73 		.ascii	"_fns\000"
 18521      00
 18522              	.LASF872:
 18523 224a 6170705F 		.ascii	"app_balance_get_pitch_angle\000"
 18523      62616C61 
 18523      6E63655F 
 18523      6765745F 
 18523      70697463 
 18524              	.LASF731:
 18525 2266 52554E4E 		.ascii	"RUNNING\000"
 18525      494E4700 
 18526              	.LASF589:
 18527 226e 5553424F 		.ascii	"USBOutEndpointState\000"
 18527      7574456E 
 18527      64706F69 
 18527      6E745374 
 18527      61746500 
 18528              	.LASF930:
 18529 2282 5F5F6275 		.ascii	"__builtin_memcpy\000"
 18529      696C7469 
 18529      6E5F6D65 
 18529      6D637079 
 18529      00
 18530              	.LASF545:
 18531 2293 72657376 		.ascii	"resvd41C\000"
 18531      64343143 
 18531      00
 18532              	.LASF623:
 18533 229c 5F6D6273 		.ascii	"_mbstate_t\000"
 18533      74617465 
 18533      5F7400
 18534              	.LASF717:
 18535 22a7 5F685F65 		.ascii	"_h_errno\000"
 18535      72726E6F 
 18535      00
 18536              	.LASF94:
 18537 22b0 52445452 		.ascii	"RDTR\000"
ARM GAS  /tmp/ccIHdayg.s 			page 356


 18537      00
 18538              	.LASF840:
 18539 22b5 61726776 		.ascii	"argv\000"
 18539      00
 18540              	.LASF234:
 18541 22ba 726F6C6C 		.ascii	"roll_steer_kp\000"
 18541      5F737465 
 18541      65725F6B 
 18541      7000
 18542              	.LASF727:
 18543 22c8 5F5F6664 		.ascii	"__fdlibm_xopen\000"
 18543      6C69626D 
 18543      5F786F70 
 18543      656E00
 18544              	.LASF61:
 18545 22d7 63685F72 		.ascii	"ch_ready_list\000"
 18545      65616479 
 18545      5F6C6973 
 18545      7400
 18546              	.LASF888:
 18547 22e5 63685654 		.ascii	"chVTTimeElapsedSinceX\000"
 18547      54696D65 
 18547      456C6170 
 18547      73656453 
 18547      696E6365 
 18548              	.LASF307:
 18549 22fb 50555044 		.ascii	"PUPDR\000"
 18549      5200
 18550              	.LASF7:
 18551 2301 5F5F696E 		.ascii	"__int32_t\000"
 18551      7433325F 
 18551      7400
 18552              	.LASF223:
 18553 230b 74696C74 		.ascii	"tiltback_variable\000"
 18553      6261636B 
 18553      5F766172 
 18553      6961626C 
 18553      6500
 18554              	.LASF9:
 18555 231d 5F5F7569 		.ascii	"__uint32_t\000"
 18555      6E743332 
 18555      5F7400
 18556              	.LASF390:
 18557 2328 77636372 		.ascii	"wccrp\000"
 18557      7000
 18558              	.LASF80:
 18559 232e 63685F73 		.ascii	"ch_system_debug\000"
 18559      79737465 
 18559      6D5F6465 
 18559      62756700 
 18560              	.LASF556:
 18561 233e 4441494E 		.ascii	"DAINTMSK\000"
 18561      544D534B 
 18561      00
 18562              	.LASF813:
 18563 2347 66696C74 		.ascii	"filtered_diff_time\000"
 18563      65726564 
ARM GAS  /tmp/ccIHdayg.s 			page 357


 18563      5F646966 
 18563      665F7469 
 18563      6D6500
 18564              	.LASF913:
 18565 235a 74616E66 		.ascii	"tanf\000"
 18565      00
 18566              	.LASF187:
 18567 235f 715F636F 		.ascii	"q_counter\000"
 18567      756E7465 
 18567      7200
 18568              	.LASF475:
 18569 2369 5553425F 		.ascii	"USB_EP0_WAITING_SETUP\000"
 18569      4550305F 
 18569      57414954 
 18569      494E475F 
 18569      53455455 
 18570              	.LASF645:
 18571 237f 5F69735F 		.ascii	"_is_cxa\000"
 18571      63786100 
 18572              	.LASF756:
 18573 2387 62616C61 		.ascii	"balance_conf\000"
 18573      6E63655F 
 18573      636F6E66 
 18573      00
 18574              	.LASF318:
 18575 2394 61667268 		.ascii	"afrh\000"
 18575      00
 18576              	.LASF383:
 18577 2399 4943555F 		.ascii	"ICU_STOP\000"
 18577      53544F50 
 18577      00
 18578              	.LASF317:
 18579 23a2 6166726C 		.ascii	"afrl\000"
 18579      00
 18580              	.LASF233:
 18581 23a7 7961775F 		.ascii	"yaw_kd\000"
 18581      6B6400
 18582              	.LASF579:
 18583 23ae 71756575 		.ascii	"queue\000"
 18583      6500
 18584              	.LASF232:
 18585 23b4 7961775F 		.ascii	"yaw_ki\000"
 18585      6B6900
 18586              	.LASF457:
 18587 23bb 65703065 		.ascii	"ep0endcb\000"
 18587      6E646362 
 18587      00
 18588              	.LASF231:
 18589 23c4 7961775F 		.ascii	"yaw_kp\000"
 18589      6B7000
 18590              	.LASF299:
 18591 23cb 73656C66 		.ascii	"selfindex\000"
 18591      696E6465 
 18591      7800
 18592              	.LASF173:
 18593 23d5 6D757465 		.ascii	"mutex_t\000"
 18593      785F7400 
ARM GAS  /tmp/ccIHdayg.s 			page 358


 18594              	.LASF682:
 18595 23dd 5F703573 		.ascii	"_p5s\000"
 18595      00
 18596              	.LASF49:
 18597 23e2 705F6570 		.ascii	"p_epending\000"
 18597      656E6469 
 18597      6E6700
 18598              	.LASF304:
 18599 23ed 4D4F4445 		.ascii	"MODER\000"
 18599      5200
 18600              	.LASF254:
 18601 23f3 7475726E 		.ascii	"turntilt_start_angle\000"
 18601      74696C74 
 18601      5F737461 
 18601      72745F61 
 18601      6E676C65 
 18602              	.LASF741:
 18603 2408 42616C61 		.ascii	"BalanceState\000"
 18603      6E636553 
 18603      74617465 
 18603      00
 18604              	.LASF101:
 18605 2415 52455345 		.ascii	"RESERVED0\000"
 18605      52564544 
 18605      3000
 18606              	.LASF104:
 18607 241f 52455345 		.ascii	"RESERVED1\000"
 18607      52564544 
 18607      3100
 18608              	.LASF106:
 18609 2429 52455345 		.ascii	"RESERVED2\000"
 18609      52564544 
 18609      3200
 18610              	.LASF108:
 18611 2433 52455345 		.ascii	"RESERVED3\000"
 18611      52564544 
 18611      3300
 18612              	.LASF110:
 18613 243d 52455345 		.ascii	"RESERVED4\000"
 18613      52564544 
 18613      3400
 18614              	.LASF112:
 18615 2447 52455345 		.ascii	"RESERVED5\000"
 18615      52564544 
 18615      3500
 18616              	.LASF600:
 18617 2451 55534245 		.ascii	"USBEndpointConfig\000"
 18617      6E64706F 
 18617      696E7443 
 18617      6F6E6669 
 18617      6700
 18618              	.LASF342:
 18619 2463 72787175 		.ascii	"rxqueue\000"
 18619      65756500 
 18620              	.LASF547:
 18621 246b 72657376 		.ascii	"resvd444\000"
 18621      64343434 
ARM GAS  /tmp/ccIHdayg.s 			page 359


 18621      00
 18622              	.LASF331:
 18623 2474 70616C5F 		.ascii	"pal_default_config\000"
 18623      64656661 
 18623      756C745F 
 18623      636F6E66 
 18623      696700
 18624              	.LASF724:
 18625 2487 5F676C6F 		.ascii	"_global_impure_ptr\000"
 18625      62616C5F 
 18625      696D7075 
 18625      72655F70 
 18625      747200
 18626              	.LASF177:
 18627 249a 656C5F6C 		.ascii	"el_listener\000"
 18627      69737465 
 18627      6E657200 
 18628              	.LASF282:
 18629 24a6 6779726F 		.ascii	"gyro_offsets\000"
 18629      5F6F6666 
 18629      73657473 
 18629      00
 18630              	.LASF906:
 18631 24b3 63685468 		.ascii	"chThdSleep\000"
 18631      64536C65 
 18631      657000
 18632              	.LASF402:
 18633 24be 73746D33 		.ascii	"stm32_tim_t\000"
 18633      325F7469 
 18633      6D5F7400 
 18634              	.LASF224:
 18635 24ca 74696C74 		.ascii	"tiltback_variable_max\000"
 18635      6261636B 
 18635      5F766172 
 18635      6961626C 
 18635      655F6D61 
 18636              	.LASF63:
 18637 24e0 725F7072 		.ascii	"r_prio\000"
 18637      696F00
 18638              	.LASF260:
 18639 24e7 494D555F 		.ascii	"IMU_TYPE_OFF\000"
 18639      54595045 
 18639      5F4F4646 
 18639      00
 18640              	.LASF203:
 18641 24f4 6661756C 		.ascii	"fault_adc1\000"
 18641      745F6164 
 18641      633100
 18642              	.LASF862:
 18643 24ff 72657365 		.ascii	"reset_vars\000"
 18643      745F7661 
 18643      727300
 18644              	.LASF88:
 18645 250a 49544D5F 		.ascii	"ITM_RxBuffer\000"
 18645      52784275 
 18645      66666572 
 18645      00
ARM GAS  /tmp/ccIHdayg.s 			page 360


 18646              	.LASF408:
 18647 2517 4943555F 		.ascii	"ICU_CHANNEL_2\000"
 18647      4348414E 
 18647      4E454C5F 
 18647      3200
 18648              	.LASF875:
 18649 2525 6170705F 		.ascii	"app_balance_start\000"
 18649      62616C61 
 18649      6E63655F 
 18649      73746172 
 18649      7400
 18650              	.LASF885:
 18651 2537 63685468 		.ascii	"chThdShouldTerminateX\000"
 18651      6453686F 
 18651      756C6454 
 18651      65726D69 
 18651      6E617465 
 18652              	.LASF803:
 18653 254d 7961775F 		.ascii	"yaw_derivative\000"
 18653      64657269 
 18653      76617469 
 18653      766500
 18654              	.LASF757:
 18655 255c 696D755F 		.ascii	"imu_conf\000"
 18655      636F6E66 
 18655      00
 18656              	.LASF13:
 18657 2565 6C6F6E67 		.ascii	"long long unsigned int\000"
 18657      206C6F6E 
 18657      6720756E 
 18657      7369676E 
 18657      65642069 
 18658              	.LASF136:
 18659 257c 6F666673 		.ascii	"offset\000"
 18659      657400
 18660              	.LASF269:
 18661 2583 41485253 		.ascii	"AHRS_MODE_MADGWICK_FUSION\000"
 18661      5F4D4F44 
 18661      455F4D41 
 18661      44475749 
 18661      434B5F46 
 18662              	.LASF864:
 18663 259d 6170705F 		.ascii	"app_balance_get_debug1\000"
 18663      62616C61 
 18663      6E63655F 
 18663      6765745F 
 18663      64656275 
 18664              	.LASF798:
 18665 25b4 7475726E 		.ascii	"turntilt_target\000"
 18665      74696C74 
 18665      5F746172 
 18665      67657400 
 18666              	.LASF734:
 18667 25c4 52554E4E 		.ascii	"RUNNING_TILTBACK_LOW_VOLTAGE\000"
 18667      494E475F 
 18667      54494C54 
 18667      4241434B 
ARM GAS  /tmp/ccIHdayg.s 			page 361


 18667      5F4C4F57 
 18668              	.LASF826:
 18669 25e1 64656275 		.ascii	"debug_render_1\000"
 18669      675F7265 
 18669      6E646572 
 18669      5F3100
 18670              	.LASF827:
 18671 25f0 64656275 		.ascii	"debug_render_2\000"
 18671      675F7265 
 18671      6E646572 
 18671      5F3200
 18672              	.LASF784:
 18673 25ff 70726F70 		.ascii	"proportional\000"
 18673      6F727469 
 18673      6F6E616C 
 18673      00
 18674              	.LASF882:
 18675 260c 63685265 		.ascii	"chRegSetThreadName\000"
 18675      67536574 
 18675      54687265 
 18675      61644E61 
 18675      6D6500
 18676              	.LASF214:
 18677 261f 74696C74 		.ascii	"tiltback_hv_angle\000"
 18677      6261636B 
 18677      5F68765F 
 18677      616E676C 
 18677      6500
 18678              	.LASF248:
 18679 2631 746F7271 		.ascii	"torquetilt_on_speed\000"
 18679      75657469 
 18679      6C745F6F 
 18679      6E5F7370 
 18679      65656400 
 18680              	.LASF115:
 18681 2645 4E445452 		.ascii	"NDTR\000"
 18681      00
 18682              	.LASF182:
 18683 264a 65735F6E 		.ascii	"es_next\000"
 18683      65787400 
 18684              	.LASF703:
 18685 2652 5F67616D 		.ascii	"_gamma_signgam\000"
 18685      6D615F73 
 18685      69676E67 
 18685      616D00
 18686              	.LASF513:
 18687 2661 72657376 		.ascii	"resvd1C\000"
 18687      64314300 
 18688              	.LASF87:
 18689 2669 69646C65 		.ascii	"idle_thread_wa\000"
 18689      5F746872 
 18689      6561645F 
 18689      776100
 18690              	.LASF509:
 18691 2678 44494550 		.ascii	"DIEPINT\000"
 18691      494E5400 
 18692              	.LASF387:
ARM GAS  /tmp/ccIHdayg.s 			page 362


 18693 2680 69637573 		.ascii	"icustate_t\000"
 18693      74617465 
 18693      5F7400
 18694              	.LASF851:
 18695 268b 6170706C 		.ascii	"apply_turntilt\000"
 18695      795F7475 
 18695      726E7469 
 18695      6C7400
 18696              	.LASF129:
 18697 269a 5350495F 		.ascii	"SPI_TypeDef\000"
 18697      54797065 
 18697      44656600 
 18698              	.LASF74:
 18699 26a6 76745F66 		.ascii	"vt_func\000"
 18699      756E6300 
 18700              	.LASF393:
 18701 26ae 534D4352 		.ascii	"SMCR\000"
 18701      00
 18702              	.LASF919:
 18703 26b3 6D635F69 		.ascii	"mc_interface_set_brake_current\000"
 18703      6E746572 
 18703      66616365 
 18703      5F736574 
 18703      5F627261 
 18704              	.LASF770:
 18705 26d2 6C617374 		.ascii	"last_pitch_angle\000"
 18705      5F706974 
 18705      63685F61 
 18705      6E676C65 
 18705      00
 18706              	.LASF554:
 18707 26e3 444F4550 		.ascii	"DOEPMSK\000"
 18707      4D534B00 
 18708              	.LASF776:
 18709 26eb 6572706D 		.ascii	"erpm\000"
 18709      00
 18710              	.LASF70:
 18711 26f0 63685F76 		.ascii	"ch_virtual_timer\000"
 18711      69727475 
 18711      616C5F74 
 18711      696D6572 
 18711      00
 18712              	.LASF42:
 18713 2701 705F666C 		.ascii	"p_flags\000"
 18713      61677300 
 18714              	.LASF850:
 18715 2709 6572726F 		.ascii	"error\000"
 18715      7200
 18716              	.LASF753:
 18717 270f 42697175 		.ascii	"BiquadType\000"
 18717      61645479 
 18717      706500
 18718              	.LASF144:
 18719 271a 65776D61 		.ascii	"ewmask\000"
 18719      736B00
 18720              	.LASF796:
 18721 2721 746F7271 		.ascii	"torquetilt_interpolated\000"
ARM GAS  /tmp/ccIHdayg.s 			page 363


 18721      75657469 
 18721      6C745F69 
 18721      6E746572 
 18721      706F6C61 
 18722              	.LASF908:
 18723 2739 63685468 		.ascii	"chThdTerminate\000"
 18723      64546572 
 18723      6D696E61 
 18723      746500
 18724              	.LASF179:
 18725 2748 656C5F66 		.ascii	"el_flags\000"
 18725      6C616773 
 18725      00
 18726              	.LASF181:
 18727 2751 6576656E 		.ascii	"event_source\000"
 18727      745F736F 
 18727      75726365 
 18727      00
 18728              	.LASF50:
 18729 275e 705F6D74 		.ascii	"p_mtxlist\000"
 18729      786C6973 
 18729      7400
 18730              	.LASF918:
 18731 2768 636F6D6D 		.ascii	"comm_can_set_current_brake\000"
 18731      5F63616E 
 18731      5F736574 
 18731      5F637572 
 18731      72656E74 
 18732              	.LASF349:
 18733 2783 43414E44 		.ascii	"CAND1\000"
 18733      3100
 18734              	.LASF107:
 18735 2789 46533152 		.ascii	"FS1R\000"
 18735      00
 18736              	.LASF268:
 18737 278e 41485253 		.ascii	"AHRS_MODE_MAHONY\000"
 18737      5F4D4F44 
 18737      455F4D41 
 18737      484F4E59 
 18737      00
 18738              	.LASF23:
 18739 279f 74737461 		.ascii	"tstate_t\000"
 18739      74655F74 
 18739      00
 18740              	.LASF441:
 18741 27a8 53504944 		.ascii	"SPIDriver\000"
 18741      72697665 
 18741      7200
 18742              	.LASF555:
 18743 27b2 4441494E 		.ascii	"DAINT\000"
 18743      5400
 18744              	.LASF446:
 18745 27b8 53504943 		.ascii	"SPIConfig\000"
 18745      6F6E6669 
 18745      6700
 18746              	.LASF676:
 18747 27c2 5F756E73 		.ascii	"_unspecified_locale_info\000"
ARM GAS  /tmp/ccIHdayg.s 			page 364


 18747      70656369 
 18747      66696564 
 18747      5F6C6F63 
 18747      616C655F 
 18748              	.LASF316:
 18749 27db 70757064 		.ascii	"pupdr\000"
 18749      7200
 18750              	.LASF799:
 18751 27e1 7475726E 		.ascii	"turntilt_interpolated\000"
 18751      74696C74 
 18751      5F696E74 
 18751      6572706F 
 18751      6C617465 
 18752              	.LASF450:
 18753 27f7 7472616E 		.ascii	"transmitting\000"
 18753      736D6974 
 18753      74696E67 
 18753      00
 18754              	.LASF785:
 18755 2804 696E7465 		.ascii	"integral\000"
 18755      6772616C 
 18755      00
 18756              	.LASF39:
 18757 280d 705F6E61 		.ascii	"p_name\000"
 18757      6D6500
 18758              	.LASF678:
 18759 2814 5F5F7364 		.ascii	"__sdidinit\000"
 18759      6964696E 
 18759      697400
 18760              	.LASF423:
 18761 281f 53657269 		.ascii	"SerialDriver\000"
 18761      616C4472 
 18761      69766572 
 18761      00
 18762              	.LASF728:
 18763 282c 5F5F6664 		.ascii	"__fdlibm_posix\000"
 18763      6C69626D 
 18763      5F706F73 
 18763      697800
 18764              	.LASF474:
 18765 283b 75736273 		.ascii	"usbstate_t\000"
 18765      74617465 
 18765      5F7400
 18766              	.LASF517:
 18767 2846 444F4550 		.ascii	"DOEPTSIZ\000"
 18767      5453495A 
 18767      00
 18768              	.LASF883:
 18769 284f 6E616D65 		.ascii	"name\000"
 18769      00
 18770              	.LASF624:
 18771 2854 5F666C6F 		.ascii	"_flock_t\000"
 18771      636B5F74 
 18771      00
 18772              	.LASF76:
 18773 285d 76697274 		.ascii	"virtual_timers_list_t\000"
 18773      75616C5F 
ARM GAS  /tmp/ccIHdayg.s 			page 365


 18773      74696D65 
 18773      72735F6C 
 18773      6973745F 
 18774              	.LASF755:
 18775 2873 6170705F 		.ascii	"app_thread\000"
 18775      74687265 
 18775      616400
 18776              	.LASF473:
 18777 287e 5553425F 		.ascii	"USB_SUSPENDED\000"
 18777      53555350 
 18777      454E4445 
 18777      4400
 18778              	.LASF313:
 18779 288c 6D6F6465 		.ascii	"moder\000"
 18779      7200
 18780              	.LASF146:
 18781 2892 735F7175 		.ascii	"s_queue\000"
 18781      65756500 
 18782              	.LASF916:
 18783 289a 6D635F69 		.ascii	"mc_interface_set_current\000"
 18783      6E746572 
 18783      66616365 
 18783      5F736574 
 18783      5F637572 
 18784              	.LASF127:
 18785 28b3 49325343 		.ascii	"I2SCFGR\000"
 18785      46475200 
 18786              	.LASF802:
 18787 28bb 7961775F 		.ascii	"yaw_integral\000"
 18787      696E7465 
 18787      6772616C 
 18787      00
 18788              	.LASF153:
 18789 28c8 63685F69 		.ascii	"ch_identifier\000"
 18789      64656E74 
 18789      69666965 
 18789      7200
 18790              	.LASF433:
 18791 28d6 77726974 		.ascii	"writet\000"
 18791      657400
 18792              	.LASF11:
 18793 28dd 6C6F6E67 		.ascii	"long long int\000"
 18793      206C6F6E 
 18793      6720696E 
 18793      7400
 18794              	.LASF535:
 18795 28eb 48505458 		.ascii	"HPTXFSIZ\000"
 18795      4653495A 
 18795      00
 18796              	.LASF160:
 18797 28f4 63665F6F 		.ascii	"cf_off_prio\000"
 18797      66665F70 
 18797      72696F00 
 18798              	.LASF668:
 18799 2900 5F666C61 		.ascii	"_flags2\000"
 18799      67733200 
 18800              	.LASF718:
ARM GAS  /tmp/ccIHdayg.s 			page 366


 18801 2908 5F6E6578 		.ascii	"_nextf\000"
 18801      746600
 18802              	.LASF205:
 18803 290f 6661756C 		.ascii	"fault_delay_pitch\000"
 18803      745F6465 
 18803      6C61795F 
 18803      70697463 
 18803      6800
 18804              	.LASF229:
 18805 2921 64656164 		.ascii	"deadzone\000"
 18805      7A6F6E65 
 18805      00
 18806              	.LASF405:
 18807 292a 6963756D 		.ascii	"icumode_t\000"
 18807      6F64655F 
 18807      7400
 18808              	.LASF582:
 18809 2934 7478636E 		.ascii	"txcnt\000"
 18809      7400
 18810              	.LASF602:
 18811 293a 6765745F 		.ascii	"get_descriptor_cb\000"
 18811      64657363 
 18811      72697074 
 18811      6F725F63 
 18811      6200
 18812              	.LASF677:
 18813 294c 5F6C6F63 		.ascii	"_locale\000"
 18813      616C6500 
 18814              	.LASF29:
 18815 2954 6576656E 		.ascii	"eventflags_t\000"
 18815      74666C61 
 18815      67735F74 
 18815      00
 18816              	.LASF437:
 18817 2961 5350495F 		.ascii	"SPI_READY\000"
 18817      52454144 
 18817      5900
 18818              	.LASF843:
 18819 296b 7465726D 		.ascii	"terminal_experiment\000"
 18819      696E616C 
 18819      5F657870 
 18819      6572696D 
 18819      656E7400 
 18820              	.LASF812:
 18821 297f 6C6F6F70 		.ascii	"loop_overshoot_alpha\000"
 18821      5F6F7665 
 18821      7273686F 
 18821      6F745F61 
 18821      6C706861 
 18822              	.LASF793:
 18823 2994 6E6F7365 		.ascii	"noseangling_interpolated\000"
 18823      616E676C 
 18823      696E675F 
 18823      696E7465 
 18823      72706F6C 
 18824              	.LASF571:
 18825 29ad 4649464F 		.ascii	"FIFO\000"
ARM GAS  /tmp/ccIHdayg.s 			page 367


 18825      00
 18826              	.LASF103:
 18827 29b2 73464946 		.ascii	"sFIFOMailBox\000"
 18827      4F4D6169 
 18827      6C426F78 
 18827      00
 18828              	.LASF891:
 18829 29bf 636F6D6D 		.ascii	"comm_can_get_status_msg_index\000"
 18829      5F63616E 
 18829      5F676574 
 18829      5F737461 
 18829      7475735F 
 18830              	.LASF202:
 18831 29dd 6661756C 		.ascii	"fault_duty\000"
 18831      745F6475 
 18831      747900
 18832              	.LASF550:
 18833 29e8 4443544C 		.ascii	"DCTL\000"
 18833      00
 18834              	.LASF577:
 18835 29ed 74786275 		.ascii	"txbuf\000"
 18835      6600
 18836              	.LASF569:
 18837 29f3 50434743 		.ascii	"PCGCCTL\000"
 18837      43544C00 
 18838              	.LASF230:
 18839 29fb 6D756C74 		.ascii	"multi_esc\000"
 18839      695F6573 
 18839      6300
 18840              	.LASF805:
 18841 2a05 7961775F 		.ascii	"yaw_pid_value\000"
 18841      7069645F 
 18841      76616C75 
 18841      6500
 18842              	.LASF38:
 18843 2a13 705F6F6C 		.ascii	"p_older\000"
 18843      64657200 
 18844              	.LASF766:
 18845 2a1b 7475726E 		.ascii	"turntilt_step_size\000"
 18845      74696C74 
 18845      5F737465 
 18845      705F7369 
 18845      7A6500
 18846              	.LASF328:
 18847 2a2e 50494461 		.ascii	"PIData\000"
 18847      746100
 18848              	.LASF854:
 18849 2a35 6170706C 		.ascii	"apply_noseangling\000"
 18849      795F6E6F 
 18849      7365616E 
 18849      676C696E 
 18849      6700
 18850              	.LASF599:
 18851 2a47 73657475 		.ascii	"setup_buf\000"
 18851      705F6275 
 18851      6600
 18852              	.LASF217:
ARM GAS  /tmp/ccIHdayg.s 			page 368


 18853 2a51 74696C74 		.ascii	"tiltback_lv_angle\000"
 18853      6261636B 
 18853      5F6C765F 
 18853      616E676C 
 18853      6500
 18854              	.LASF881:
 18855 2a63 6E6F726D 		.ascii	"norm\000"
 18855      00
 18856              	.LASF444:
 18857 2a68 7373706F 		.ascii	"ssport\000"
 18857      727400
 18858              	.LASF928:
 18859 2a6f 62697175 		.ascii	"biquad_process\000"
 18859      61645F70 
 18859      726F6365 
 18859      737300
 18860              	.LASF382:
 18861 2a7e 4943555F 		.ascii	"ICU_UNINIT\000"
 18861      554E494E 
 18861      495400
 18862              	.LASF54:
 18863 2a89 74687265 		.ascii	"thread_reference_t\000"
 18863      61645F72 
 18863      65666572 
 18863      656E6365 
 18863      5F7400
 18864              	.LASF451:
 18865 2a9c 72656365 		.ascii	"receiving\000"
 18865      6976696E 
 18865      6700
 18866              	.LASF809:
 18867 2aa6 64696666 		.ascii	"diff_time\000"
 18867      5F74696D 
 18867      6500
 18868              	.LASF691:
 18869 2ab0 5F5F4649 		.ascii	"__FILE\000"
 18869      4C4500
 18870              	.LASF410:
 18871 2ab7 66726571 		.ascii	"frequency\000"
 18871      75656E63 
 18871      7900
 18872              	.LASF788:
 18873 2ac1 6162735F 		.ascii	"abs_proportional\000"
 18873      70726F70 
 18873      6F727469 
 18873      6F6E616C 
 18873      00
 18874              	.LASF137:
 18875 2ad2 746D5F63 		.ascii	"tm_calibration_t\000"
 18875      616C6962 
 18875      72617469 
 18875      6F6E5F74 
 18875      00
 18876              	.LASF596:
 18877 2ae3 696E5F73 		.ascii	"in_state\000"
 18877      74617465 
 18877      00
ARM GAS  /tmp/ccIHdayg.s 			page 369


 18878              	.LASF284:
 18879 2aec 72785F74 		.ascii	"rx_time\000"
 18879      696D6500 
 18880              	.LASF130:
 18881 2af4 47545052 		.ascii	"GTPR\000"
 18881      00
 18882              	.LASF925:
 18883 2af9 2F626C64 		.ascii	"/bldc\000"
 18883      6300
 18884              	.LASF842:
 18885 2aff 67726170 		.ascii	"graph\000"
 18885      6800
 18886              	.LASF365:
 18887 2b05 46415354 		.ascii	"FAST_DUTY_CYCLE_2\000"
 18887      5F445554 
 18887      595F4359 
 18887      434C455F 
 18887      3200
 18888              	.LASF274:
 18889 2b17 61636365 		.ascii	"accel_confidence_decay\000"
 18889      6C5F636F 
 18889      6E666964 
 18889      656E6365 
 18889      5F646563 
 18890              	.LASF159:
 18891 2b2e 63685F74 		.ascii	"ch_threadsize\000"
 18891      68726561 
 18891      6473697A 
 18891      6500
 18892              	.LASF122:
 18893 2b3c 464C5452 		.ascii	"FLTR\000"
 18893      00
 18894              	.LASF201:
 18895 2b41 6661756C 		.ascii	"fault_roll\000"
 18895      745F726F 
 18895      6C6C00
 18896              	.LASF729:
 18897 2b4c 5F5F6664 		.ascii	"__fdlib_version\000"
 18897      6C69625F 
 18897      76657273 
 18897      696F6E00 
 18898              	.LASF395:
 18899 2b5c 43434D52 		.ascii	"CCMR1\000"
 18899      3100
 18900              	.LASF396:
 18901 2b62 43434D52 		.ascii	"CCMR2\000"
 18901      3200
 18902              	.LASF400:
 18903 2b68 43434D52 		.ascii	"CCMR3\000"
 18903      3300
 18904              	.LASF14:
 18905 2b6e 756E7369 		.ascii	"unsigned int\000"
 18905      676E6564 
 18905      20696E74 
 18905      00
 18906              	.LASF705:
 18907 2b7b 5F723438 		.ascii	"_r48\000"
ARM GAS  /tmp/ccIHdayg.s 			page 370


 18907      00
 18908              	.LASF539:
 18909 2b80 48464952 		.ascii	"HFIR\000"
 18909      00
 18910              	.LASF578:
 18911 2b85 6C696E65 		.ascii	"linear\000"
 18911      617200
 18912              	.LASF468:
 18913 2b8c 5553425F 		.ascii	"USB_UNINIT\000"
 18913      554E494E 
 18913      495400
 18914              	.LASF296:
 18915 2b97 73747265 		.ascii	"stream\000"
 18915      616D00
 18916              	.LASF817:
 18917 2b9e 6661756C 		.ascii	"fault_switch_half_timer\000"
 18917      745F7377 
 18917      69746368 
 18917      5F68616C 
 18917      665F7469 
 18918              	.LASF363:
 18919 2bb6 6932636F 		.ascii	"i2copmode_t\000"
 18919      706D6F64 
 18919      655F7400 
 18920              	.LASF226:
 18921 2bc2 73746172 		.ascii	"startup_pitch_tolerance\000"
 18921      7475705F 
 18921      70697463 
 18921      685F746F 
 18921      6C657261 
 18922              	.LASF154:
 18923 2bda 63685F7A 		.ascii	"ch_zero\000"
 18923      65726F00 
 18924              	.LASF487:
 18925 2be2 5553425F 		.ascii	"USB_EVENT_WAKEUP\000"
 18925      4556454E 
 18925      545F5741 
 18925      4B455550 
 18925      00
 18926              	.LASF3:
 18927 2bf3 73686F72 		.ascii	"short int\000"
 18927      7420696E 
 18927      7400
 18928              	.LASF493:
 18929 2bfd 75736263 		.ascii	"usbcallback_t\000"
 18929      616C6C62 
 18929      61636B5F 
 18929      7400
 18930              	.LASF815:
 18931 2c0b 6661756C 		.ascii	"fault_angle_roll_timer\000"
 18931      745F616E 
 18931      676C655F 
 18931      726F6C6C 
 18931      5F74696D 
 18932              	.LASF657:
 18933 2c22 5F726561 		.ascii	"_read\000"
 18933      6400
ARM GAS  /tmp/ccIHdayg.s 			page 371


 18934              	.LASF522:
 18935 2c28 47555342 		.ascii	"GUSBCFG\000"
 18935      43464700 
 18936              	.LASF131:
 18937 2c30 55534152 		.ascii	"USART_TypeDef\000"
 18937      545F5479 
 18937      70654465 
 18937      6600
 18938              	.LASF196:
 18939 2c3e 6F757470 		.ascii	"output_queue_t\000"
 18939      75745F71 
 18939      75657565 
 18939      5F7400
 18940              	.LASF258:
 18941 2c4d 7475726E 		.ascii	"turntilt_erpm_boost_end\000"
 18941      74696C74 
 18941      5F657270 
 18941      6D5F626F 
 18941      6F73745F 
 18942              	.LASF695:
 18943 2c65 5F72616E 		.ascii	"_rand48\000"
 18943      64343800 
 18944              	.LASF572:
 18945 2c6d 73746D33 		.ascii	"stm32_otg_t\000"
 18945      325F6F74 
 18945      675F7400 
 18946              	.LASF767:
 18947 2c79 74696C74 		.ascii	"tiltback_variable_max_erpm\000"
 18947      6261636B 
 18947      5F766172 
 18947      6961626C 
 18947      655F6D61 
 18948              	.LASF370:
 18949 2c94 64757479 		.ascii	"duty_cycle\000"
 18949      5F637963 
 18949      6C6500
 18950              	.LASF490:
 18951 2c9f 75645F73 		.ascii	"ud_size\000"
 18951      697A6500 
 18952              	.LASF594:
 18953 2ca7 696E5F6D 		.ascii	"in_maxsize\000"
 18953      61787369 
 18953      7A6500
 18954              	.LASF251:
 18955 2cb2 746F7271 		.ascii	"torquetilt_filter\000"
 18955      75657469 
 18955      6C745F66 
 18955      696C7465 
 18955      7200
 18956              	.LASF325:
 18957 2cc4 50464461 		.ascii	"PFData\000"
 18957      746100
 18958              	.LASF41:
 18959 2ccb 705F7374 		.ascii	"p_state\000"
 18959      61746500 
 18960              	.LASF247:
 18961 2cd3 746F7271 		.ascii	"torquetilt_angle_limit\000"
ARM GAS  /tmp/ccIHdayg.s 			page 372


 18961      75657469 
 18961      6C745F61 
 18961      6E676C65 
 18961      5F6C696D 
 18962              	.LASF57:
 18963 2cea 63685F74 		.ascii	"ch_threads_list\000"
 18963      68726561 
 18963      64735F6C 
 18963      69737400 
 18964              	.LASF119:
 18965 2cfa 4F415231 		.ascii	"OAR1\000"
 18965      00
 18966              	.LASF120:
 18967 2cff 4F415232 		.ascii	"OAR2\000"
 18967      00
 18968              	.LASF421:
 18969 2d04 53445F52 		.ascii	"SD_READY\000"
 18969      45414459 
 18969      00
 18970              		.ident	"GCC: (GNU Tools for Arm Embedded Processors 7-2018-q3-update) 7.3.1 20180622 (release) [AR
ARM GAS  /tmp/ccIHdayg.s 			page 373


DEFINED SYMBOLS
                            *ABS*:0000000000000000 app_balance.c
     /tmp/ccIHdayg.s:18     .text.reset_vars:0000000000000000 $t
     /tmp/ccIHdayg.s:25     .text.reset_vars:0000000000000000 reset_vars
     /tmp/ccIHdayg.s:183    .text.reset_vars:0000000000000074 $d
     /tmp/ccIHdayg.s:211    .text.check_faults:0000000000000000 $t
     /tmp/ccIHdayg.s:218    .text.check_faults:0000000000000000 check_faults
     /tmp/ccIHdayg.s:469    .text.check_faults:0000000000000170 $d
     /tmp/ccIHdayg.s:487    .text.app_balance_get_debug:0000000000000000 $t
     /tmp/ccIHdayg.s:494    .text.app_balance_get_debug:0000000000000000 app_balance_get_debug
     /tmp/ccIHdayg.s:509    .text.app_balance_get_debug:000000000000000a $d
     /tmp/ccIHdayg.s:602    .text.app_balance_get_debug:000000000000009c $d
     /tmp/ccIHdayg.s:621    .text.set_current:0000000000000000 $t
     /tmp/ccIHdayg.s:628    .text.set_current:0000000000000000 set_current
     /tmp/ccIHdayg.s:795    .text.set_current:000000000000009c $d
     /tmp/ccIHdayg.s:804    .text.brake:0000000000000000 $t
     /tmp/ccIHdayg.s:811    .text.brake:0000000000000000 brake
     /tmp/ccIHdayg.s:969    .text.brake:00000000000000b8 $d
     /tmp/ccIHdayg.s:981    .text.balance_thread:0000000000000000 $t
     /tmp/ccIHdayg.s:988    .text.balance_thread:0000000000000000 balance_thread
     /tmp/ccIHdayg.s:1262   .text.balance_thread:00000000000001b2 $d
     /tmp/ccIHdayg.s:1274   .text.balance_thread:00000000000001ca $t
     /tmp/ccIHdayg.s:1474   .text.balance_thread:000000000000030c $d
     /tmp/ccIHdayg.s:1522   .text.balance_thread:00000000000003c4 $t
     /tmp/ccIHdayg.s:2039   .text.balance_thread:0000000000000778 $d
     /tmp/ccIHdayg.s:2071   .text.balance_thread:00000000000007f0 $t
     /tmp/ccIHdayg.s:2567   .text.balance_thread:0000000000000b7c $d
     /tmp/ccIHdayg.s:2589   .text.balance_thread:0000000000000bc0 $t
     /tmp/ccIHdayg.s:3058   .text.balance_thread:0000000000000e90 $d
     /tmp/ccIHdayg.s:3089   .text.terminal_sample:0000000000000000 $t
     /tmp/ccIHdayg.s:3096   .text.terminal_sample:0000000000000000 terminal_sample
     /tmp/ccIHdayg.s:3160   .text.terminal_sample:0000000000000034 $d
     /tmp/ccIHdayg.s:3169   .text.terminal_render:0000000000000000 $t
     /tmp/ccIHdayg.s:3176   .text.terminal_render:0000000000000000 terminal_render
     /tmp/ccIHdayg.s:3284   .text.terminal_render:000000000000005c $d
     /tmp/ccIHdayg.s:3292   .text.terminal_experiment:0000000000000000 $t
     /tmp/ccIHdayg.s:3299   .text.terminal_experiment:0000000000000000 terminal_experiment
     /tmp/ccIHdayg.s:3364   .text.terminal_experiment:000000000000003c $d
     /tmp/ccIHdayg.s:3370   .text.terminal_experiment:0000000000000042 $t
     /tmp/ccIHdayg.s:3451   .text.terminal_experiment:00000000000000a0 $d
     /tmp/ccIHdayg.s:3473   .text.biquad_process:0000000000000000 $t
     /tmp/ccIHdayg.s:3481   .text.biquad_process:0000000000000000 biquad_process
     /tmp/ccIHdayg.s:3527   .text.biquad_config:0000000000000000 $t
     /tmp/ccIHdayg.s:3535   .text.biquad_config:0000000000000000 biquad_config
     /tmp/ccIHdayg.s:3623   .text.biquad_config:0000000000000088 $d
     /tmp/ccIHdayg.s:3629   .text.biquad_reset:0000000000000000 $t
     /tmp/ccIHdayg.s:3637   .text.biquad_reset:0000000000000000 biquad_reset
     /tmp/ccIHdayg.s:3656   .text.app_balance_configure:0000000000000000 $t
     /tmp/ccIHdayg.s:3664   .text.app_balance_configure:0000000000000000 app_balance_configure
     /tmp/ccIHdayg.s:4099   .text.app_balance_configure:00000000000002f8 $d
     /tmp/ccIHdayg.s:4130   .text.app_balance_start:0000000000000000 $t
     /tmp/ccIHdayg.s:4138   .text.app_balance_start:0000000000000000 app_balance_start
     /tmp/ccIHdayg.s:4197   .text.app_balance_start:0000000000000048 $d
     /tmp/ccIHdayg.s:4217   .text.app_balance_stop:0000000000000000 $t
     /tmp/ccIHdayg.s:4225   .text.app_balance_stop:0000000000000000 app_balance_stop
     /tmp/ccIHdayg.s:4269   .text.app_balance_stop:0000000000000030 $d
     /tmp/ccIHdayg.s:4277   .text.app_balance_get_pid_output:0000000000000000 $t
ARM GAS  /tmp/ccIHdayg.s 			page 374


     /tmp/ccIHdayg.s:4285   .text.app_balance_get_pid_output:0000000000000000 app_balance_get_pid_output
     /tmp/ccIHdayg.s:4300   .text.app_balance_get_pid_output:0000000000000008 $d
     /tmp/ccIHdayg.s:4305   .text.app_balance_get_pitch_angle:0000000000000000 $t
     /tmp/ccIHdayg.s:4313   .text.app_balance_get_pitch_angle:0000000000000000 app_balance_get_pitch_angle
     /tmp/ccIHdayg.s:4328   .text.app_balance_get_pitch_angle:0000000000000008 $d
     /tmp/ccIHdayg.s:4333   .text.app_balance_get_roll_angle:0000000000000000 $t
     /tmp/ccIHdayg.s:4341   .text.app_balance_get_roll_angle:0000000000000000 app_balance_get_roll_angle
     /tmp/ccIHdayg.s:4356   .text.app_balance_get_roll_angle:0000000000000008 $d
     /tmp/ccIHdayg.s:4361   .text.app_balance_get_diff_time:0000000000000000 $t
     /tmp/ccIHdayg.s:4369   .text.app_balance_get_diff_time:0000000000000000 app_balance_get_diff_time
     /tmp/ccIHdayg.s:4390   .text.app_balance_get_diff_time:0000000000000018 $d
     /tmp/ccIHdayg.s:4397   .text.app_balance_get_motor_current:0000000000000000 $t
     /tmp/ccIHdayg.s:4405   .text.app_balance_get_motor_current:0000000000000000 app_balance_get_motor_current
     /tmp/ccIHdayg.s:4420   .text.app_balance_get_motor_current:0000000000000008 $d
     /tmp/ccIHdayg.s:4425   .text.app_balance_get_state:0000000000000000 $t
     /tmp/ccIHdayg.s:4433   .text.app_balance_get_state:0000000000000000 app_balance_get_state
     /tmp/ccIHdayg.s:4448   .text.app_balance_get_state:0000000000000008 $d
     /tmp/ccIHdayg.s:4453   .text.app_balance_get_switch_state:0000000000000000 $t
     /tmp/ccIHdayg.s:4461   .text.app_balance_get_switch_state:0000000000000000 app_balance_get_switch_state
     /tmp/ccIHdayg.s:4476   .text.app_balance_get_switch_state:0000000000000008 $d
     /tmp/ccIHdayg.s:4481   .text.app_balance_get_adc1:0000000000000000 $t
     /tmp/ccIHdayg.s:4489   .text.app_balance_get_adc1:0000000000000000 app_balance_get_adc1
     /tmp/ccIHdayg.s:4504   .text.app_balance_get_adc1:0000000000000008 $d
     /tmp/ccIHdayg.s:4509   .text.app_balance_get_adc2:0000000000000000 $t
     /tmp/ccIHdayg.s:4517   .text.app_balance_get_adc2:0000000000000000 app_balance_get_adc2
     /tmp/ccIHdayg.s:4532   .text.app_balance_get_adc2:0000000000000008 $d
     /tmp/ccIHdayg.s:4537   .text.app_balance_get_debug1:0000000000000000 $t
     /tmp/ccIHdayg.s:4545   .text.app_balance_get_debug1:0000000000000000 app_balance_get_debug1
     /tmp/ccIHdayg.s:4560   .text.app_balance_get_debug1:0000000000000008 $d
     /tmp/ccIHdayg.s:4565   .text.app_balance_get_debug2:0000000000000000 $t
     /tmp/ccIHdayg.s:4573   .text.app_balance_get_debug2:0000000000000000 app_balance_get_debug2
     /tmp/ccIHdayg.s:4588   .text.app_balance_get_debug2:0000000000000008 $d
     /tmp/ccIHdayg.s:4593   .bss.abs_duty_cycle:0000000000000000 $d
     /tmp/ccIHdayg.s:4597   .bss.abs_duty_cycle:0000000000000000 abs_duty_cycle
     /tmp/ccIHdayg.s:4600   .bss.abs_erpm:0000000000000000 $d
     /tmp/ccIHdayg.s:4604   .bss.abs_erpm:0000000000000000 abs_erpm
     /tmp/ccIHdayg.s:4607   .bss.abs_roll_angle:0000000000000000 $d
     /tmp/ccIHdayg.s:4611   .bss.abs_roll_angle:0000000000000000 abs_roll_angle
     /tmp/ccIHdayg.s:4614   .bss.abs_roll_angle_sin:0000000000000000 $d
     /tmp/ccIHdayg.s:4618   .bss.abs_roll_angle_sin:0000000000000000 abs_roll_angle_sin
     /tmp/ccIHdayg.s:4621   .bss.adc1:0000000000000000 $d
     /tmp/ccIHdayg.s:4625   .bss.adc1:0000000000000000 adc1
     /tmp/ccIHdayg.s:4628   .bss.adc2:0000000000000000 $d
     /tmp/ccIHdayg.s:4632   .bss.adc2:0000000000000000 adc2
     /tmp/ccIHdayg.s:4635   .bss.app_thread:0000000000000000 $d
     /tmp/ccIHdayg.s:4639   .bss.app_thread:0000000000000000 app_thread
     /tmp/ccIHdayg.s:4642   .bss.avg_erpm:0000000000000000 $d
     /tmp/ccIHdayg.s:4646   .bss.avg_erpm:0000000000000000 avg_erpm
     /tmp/ccIHdayg.s:4649   .bss.balance_conf:0000000000000000 $d
     /tmp/ccIHdayg.s:4653   .bss.balance_conf:0000000000000000 balance_conf
     /tmp/ccIHdayg.s:4656   .bss.balance_thread_wa:0000000000000000 $d
     /tmp/ccIHdayg.s:4660   .bss.balance_thread_wa:0000000000000000 balance_thread_wa
     /tmp/ccIHdayg.s:4663   .bss.brake_timeout:0000000000000000 $d
     /tmp/ccIHdayg.s:4667   .bss.brake_timeout:0000000000000000 brake_timeout
     /tmp/ccIHdayg.s:4670   .bss.current_time:0000000000000000 $d
     /tmp/ccIHdayg.s:4674   .bss.current_time:0000000000000000 current_time
     /tmp/ccIHdayg.s:4677   .bss.d_biquad_highpass:0000000000000000 $d
ARM GAS  /tmp/ccIHdayg.s 			page 375


     /tmp/ccIHdayg.s:4681   .bss.d_biquad_highpass:0000000000000000 d_biquad_highpass
     /tmp/ccIHdayg.s:4684   .bss.d_biquad_lowpass:0000000000000000 $d
     /tmp/ccIHdayg.s:4688   .bss.d_biquad_lowpass:0000000000000000 d_biquad_lowpass
     /tmp/ccIHdayg.s:4691   .bss.d_pt1_highpass_k:0000000000000000 $d
     /tmp/ccIHdayg.s:4695   .bss.d_pt1_highpass_k:0000000000000000 d_pt1_highpass_k
     /tmp/ccIHdayg.s:4698   .bss.d_pt1_highpass_state:0000000000000000 $d
     /tmp/ccIHdayg.s:4702   .bss.d_pt1_highpass_state:0000000000000000 d_pt1_highpass_state
     /tmp/ccIHdayg.s:4705   .bss.d_pt1_lowpass_k:0000000000000000 $d
     /tmp/ccIHdayg.s:4709   .bss.d_pt1_lowpass_k:0000000000000000 d_pt1_lowpass_k
     /tmp/ccIHdayg.s:4712   .bss.d_pt1_lowpass_state:0000000000000000 $d
     /tmp/ccIHdayg.s:4716   .bss.d_pt1_lowpass_state:0000000000000000 d_pt1_lowpass_state
     /tmp/ccIHdayg.s:4719   .bss.debug_experiment_1:0000000000000000 $d
     /tmp/ccIHdayg.s:4723   .bss.debug_experiment_1:0000000000000000 debug_experiment_1
     /tmp/ccIHdayg.s:4726   .bss.debug_experiment_2:0000000000000000 $d
     /tmp/ccIHdayg.s:4730   .bss.debug_experiment_2:0000000000000000 debug_experiment_2
     /tmp/ccIHdayg.s:4733   .bss.debug_experiment_3:0000000000000000 $d
     /tmp/ccIHdayg.s:4737   .bss.debug_experiment_3:0000000000000000 debug_experiment_3
     /tmp/ccIHdayg.s:4740   .bss.debug_experiment_4:0000000000000000 $d
     /tmp/ccIHdayg.s:4744   .bss.debug_experiment_4:0000000000000000 debug_experiment_4
     /tmp/ccIHdayg.s:4747   .bss.debug_experiment_5:0000000000000000 $d
     /tmp/ccIHdayg.s:4751   .bss.debug_experiment_5:0000000000000000 debug_experiment_5
     /tmp/ccIHdayg.s:4754   .bss.debug_experiment_6:0000000000000000 $d
     /tmp/ccIHdayg.s:4758   .bss.debug_experiment_6:0000000000000000 debug_experiment_6
     /tmp/ccIHdayg.s:4761   .bss.debug_render_1:0000000000000000 $d
     /tmp/ccIHdayg.s:4765   .bss.debug_render_1:0000000000000000 debug_render_1
     /tmp/ccIHdayg.s:4768   .bss.debug_render_2:0000000000000000 $d
     /tmp/ccIHdayg.s:4772   .bss.debug_render_2:0000000000000000 debug_render_2
     /tmp/ccIHdayg.s:4775   .bss.debug_sample_count:0000000000000000 $d
     /tmp/ccIHdayg.s:4779   .bss.debug_sample_count:0000000000000000 debug_sample_count
     /tmp/ccIHdayg.s:4782   .bss.debug_sample_field:0000000000000000 $d
     /tmp/ccIHdayg.s:4786   .bss.debug_sample_field:0000000000000000 debug_sample_field
     /tmp/ccIHdayg.s:4789   .bss.debug_sample_index:0000000000000000 $d
     /tmp/ccIHdayg.s:4793   .bss.debug_sample_index:0000000000000000 debug_sample_index
     /tmp/ccIHdayg.s:4796   .bss.derivative:0000000000000000 $d
     /tmp/ccIHdayg.s:4800   .bss.derivative:0000000000000000 derivative
     /tmp/ccIHdayg.s:4803   .bss.diff_time:0000000000000000 $d
     /tmp/ccIHdayg.s:4807   .bss.diff_time:0000000000000000 diff_time
     /tmp/ccIHdayg.s:4810   .bss.erpm:0000000000000000 $d
     /tmp/ccIHdayg.s:4814   .bss.erpm:0000000000000000 erpm
     /tmp/ccIHdayg.s:4817   .bss.fault_angle_pitch_timer:0000000000000000 $d
     /tmp/ccIHdayg.s:4821   .bss.fault_angle_pitch_timer:0000000000000000 fault_angle_pitch_timer
     /tmp/ccIHdayg.s:4824   .bss.fault_angle_roll_timer:0000000000000000 $d
     /tmp/ccIHdayg.s:4828   .bss.fault_angle_roll_timer:0000000000000000 fault_angle_roll_timer
     /tmp/ccIHdayg.s:4831   .bss.fault_duty_timer:0000000000000000 $d
     /tmp/ccIHdayg.s:4835   .bss.fault_duty_timer:0000000000000000 fault_duty_timer
     /tmp/ccIHdayg.s:4838   .bss.fault_switch_half_timer:0000000000000000 $d
     /tmp/ccIHdayg.s:4842   .bss.fault_switch_half_timer:0000000000000000 fault_switch_half_timer
     /tmp/ccIHdayg.s:4845   .bss.fault_switch_timer:0000000000000000 $d
     /tmp/ccIHdayg.s:4849   .bss.fault_switch_timer:0000000000000000 fault_switch_timer
     /tmp/ccIHdayg.s:4852   .bss.filtered_diff_time:0000000000000000 $d
     /tmp/ccIHdayg.s:4856   .bss.filtered_diff_time:0000000000000000 filtered_diff_time
     /tmp/ccIHdayg.s:4859   .bss.filtered_loop_overshoot:0000000000000000 $d
     /tmp/ccIHdayg.s:4863   .bss.filtered_loop_overshoot:0000000000000000 filtered_loop_overshoot
     /tmp/ccIHdayg.s:4866   .bss.gyro:0000000000000000 $d
     /tmp/ccIHdayg.s:4870   .bss.gyro:0000000000000000 gyro
     /tmp/ccIHdayg.s:4873   .bss.imu_conf:0000000000000000 $d
     /tmp/ccIHdayg.s:4877   .bss.imu_conf:0000000000000000 imu_conf
ARM GAS  /tmp/ccIHdayg.s 			page 376


     /tmp/ccIHdayg.s:4880   .bss.integral:0000000000000000 $d
     /tmp/ccIHdayg.s:4884   .bss.integral:0000000000000000 integral
     /tmp/ccIHdayg.s:4887   .bss.last_pitch_angle:0000000000000000 $d
     /tmp/ccIHdayg.s:4891   .bss.last_pitch_angle:0000000000000000 last_pitch_angle
     /tmp/ccIHdayg.s:4894   .bss.last_time:0000000000000000 $d
     /tmp/ccIHdayg.s:4898   .bss.last_time:0000000000000000 last_time
     /tmp/ccIHdayg.s:4901   .bss.loop_overshoot:0000000000000000 $d
     /tmp/ccIHdayg.s:4905   .bss.loop_overshoot:0000000000000000 loop_overshoot
     /tmp/ccIHdayg.s:4908   .bss.loop_overshoot_alpha:0000000000000000 $d
     /tmp/ccIHdayg.s:4912   .bss.loop_overshoot_alpha:0000000000000000 loop_overshoot_alpha
     /tmp/ccIHdayg.s:4915   .bss.loop_time:0000000000000000 $d
     /tmp/ccIHdayg.s:4919   .bss.loop_time:0000000000000000 loop_time
     /tmp/ccIHdayg.s:4922   .bss.motor_current:0000000000000000 $d
     /tmp/ccIHdayg.s:4926   .bss.motor_current:0000000000000000 motor_current
     /tmp/ccIHdayg.s:4929   .bss.motor_position:0000000000000000 $d
     /tmp/ccIHdayg.s:4933   .bss.motor_position:0000000000000000 motor_position
     /tmp/ccIHdayg.s:4936   .bss.motor_timeout:0000000000000000 $d
     /tmp/ccIHdayg.s:4940   .bss.motor_timeout:0000000000000000 motor_timeout
     /tmp/ccIHdayg.s:4943   .bss.noseangling_interpolated:0000000000000000 $d
     /tmp/ccIHdayg.s:4947   .bss.noseangling_interpolated:0000000000000000 noseangling_interpolated
     /tmp/ccIHdayg.s:4950   .bss.noseangling_step_size:0000000000000000 $d
     /tmp/ccIHdayg.s:4954   .bss.noseangling_step_size:0000000000000000 noseangling_step_size
     /tmp/ccIHdayg.s:4957   .bss.pid_value:0000000000000000 $d
     /tmp/ccIHdayg.s:4961   .bss.pid_value:0000000000000000 pid_value
     /tmp/ccIHdayg.s:4964   .bss.pitch_angle:0000000000000000 $d
     /tmp/ccIHdayg.s:4968   .bss.pitch_angle:0000000000000000 pitch_angle
     /tmp/ccIHdayg.s:4971   .bss.roll_angle:0000000000000000 $d
     /tmp/ccIHdayg.s:4975   .bss.roll_angle:0000000000000000 roll_angle
     /tmp/ccIHdayg.s:4978   .bss.setpoint:0000000000000000 $d
     /tmp/ccIHdayg.s:4982   .bss.setpoint:0000000000000000 setpoint
     /tmp/ccIHdayg.s:4988   .bss.setpointAdjustmentType:0000000000000000 setpointAdjustmentType
     /tmp/ccIHdayg.s:4989   .bss.setpointAdjustmentType:0000000000000000 $d
     /tmp/ccIHdayg.s:4991   .bss.setpoint_target:0000000000000000 $d
     /tmp/ccIHdayg.s:4995   .bss.setpoint_target:0000000000000000 setpoint_target
     /tmp/ccIHdayg.s:4998   .bss.setpoint_target_interpolated:0000000000000000 $d
     /tmp/ccIHdayg.s:5002   .bss.setpoint_target_interpolated:0000000000000000 setpoint_target_interpolated
     /tmp/ccIHdayg.s:5005   .bss.startup_step_size:0000000000000000 $d
     /tmp/ccIHdayg.s:5009   .bss.startup_step_size:0000000000000000 startup_step_size
     /tmp/ccIHdayg.s:5015   .bss.state:0000000000000000 state
     /tmp/ccIHdayg.s:5016   .bss.state:0000000000000000 $d
     /tmp/ccIHdayg.s:5021   .bss.switch_state:0000000000000000 switch_state
     /tmp/ccIHdayg.s:5022   .bss.switch_state:0000000000000000 $d
     /tmp/ccIHdayg.s:5024   .bss.tiltback_duty_step_size:0000000000000000 $d
     /tmp/ccIHdayg.s:5028   .bss.tiltback_duty_step_size:0000000000000000 tiltback_duty_step_size
     /tmp/ccIHdayg.s:5031   .bss.tiltback_hv_step_size:0000000000000000 $d
     /tmp/ccIHdayg.s:5035   .bss.tiltback_hv_step_size:0000000000000000 tiltback_hv_step_size
     /tmp/ccIHdayg.s:5038   .bss.tiltback_lv_step_size:0000000000000000 $d
     /tmp/ccIHdayg.s:5042   .bss.tiltback_lv_step_size:0000000000000000 tiltback_lv_step_size
     /tmp/ccIHdayg.s:5045   .bss.tiltback_return_step_size:0000000000000000 $d
     /tmp/ccIHdayg.s:5049   .bss.tiltback_return_step_size:0000000000000000 tiltback_return_step_size
     /tmp/ccIHdayg.s:5052   .bss.tiltback_variable:0000000000000000 $d
     /tmp/ccIHdayg.s:5056   .bss.tiltback_variable:0000000000000000 tiltback_variable
     /tmp/ccIHdayg.s:5059   .bss.tiltback_variable_max_erpm:0000000000000000 $d
     /tmp/ccIHdayg.s:5063   .bss.tiltback_variable_max_erpm:0000000000000000 tiltback_variable_max_erpm
     /tmp/ccIHdayg.s:5066   .bss.torquetilt_current_biquad:0000000000000000 $d
     /tmp/ccIHdayg.s:5070   .bss.torquetilt_current_biquad:0000000000000000 torquetilt_current_biquad
     /tmp/ccIHdayg.s:5073   .bss.torquetilt_filtered_current:0000000000000000 $d
ARM GAS  /tmp/ccIHdayg.s 			page 377


     /tmp/ccIHdayg.s:5077   .bss.torquetilt_filtered_current:0000000000000000 torquetilt_filtered_current
     /tmp/ccIHdayg.s:5080   .bss.torquetilt_interpolated:0000000000000000 $d
     /tmp/ccIHdayg.s:5084   .bss.torquetilt_interpolated:0000000000000000 torquetilt_interpolated
     /tmp/ccIHdayg.s:5087   .bss.torquetilt_off_step_size:0000000000000000 $d
     /tmp/ccIHdayg.s:5091   .bss.torquetilt_off_step_size:0000000000000000 torquetilt_off_step_size
     /tmp/ccIHdayg.s:5094   .bss.torquetilt_on_step_size:0000000000000000 $d
     /tmp/ccIHdayg.s:5098   .bss.torquetilt_on_step_size:0000000000000000 torquetilt_on_step_size
     /tmp/ccIHdayg.s:5101   .bss.turntilt_interpolated:0000000000000000 $d
     /tmp/ccIHdayg.s:5105   .bss.turntilt_interpolated:0000000000000000 turntilt_interpolated
     /tmp/ccIHdayg.s:5108   .bss.turntilt_step_size:0000000000000000 $d
     /tmp/ccIHdayg.s:5112   .bss.turntilt_step_size:0000000000000000 turntilt_step_size
     /tmp/ccIHdayg.s:5115   .bss.turntilt_target:0000000000000000 $d
     /tmp/ccIHdayg.s:5119   .bss.turntilt_target:0000000000000000 turntilt_target
     /tmp/ccIHdayg.s:5122   .bss.yaw_integral:0000000000000000 $d
     /tmp/ccIHdayg.s:5126   .bss.yaw_integral:0000000000000000 yaw_integral
     /tmp/ccIHdayg.s:5129   .bss.yaw_last_proportional:0000000000000000 $d
     /tmp/ccIHdayg.s:5133   .bss.yaw_last_proportional:0000000000000000 yaw_last_proportional
     /tmp/ccIHdayg.s:5136   .bss.yaw_pid_value:0000000000000000 $d
     /tmp/ccIHdayg.s:5140   .bss.yaw_pid_value:0000000000000000 yaw_pid_value
     /tmp/ccIHdayg.s:5143   .bss.yaw_setpoint:0000000000000000 $d
     /tmp/ccIHdayg.s:5147   .bss.yaw_setpoint:0000000000000000 yaw_setpoint
     /tmp/ccIHdayg.s:5150   .rodata.app_balance_start.str1.4:0000000000000000 $d
     /tmp/ccIHdayg.s:5176   .rodata.balance_thread.str1.4:0000000000000000 $d
     /tmp/ccIHdayg.s:5182   .rodata.terminal_experiment.str1.4:0000000000000000 $d
     /tmp/ccIHdayg.s:5207   .rodata.terminal_render.str1.4:0000000000000000 $d
     /tmp/ccIHdayg.s:5211   .rodata.terminal_sample.str1.4:0000000000000000 $d
     /tmp/ccIHdayg.s:522    .text.app_balance_get_debug:0000000000000017 $d
     /tmp/ccIHdayg.s:522    .text.app_balance_get_debug:0000000000000018 $t

UNDEFINED SYMBOLS
timeout_reset
mc_interface_set_current_off_delay
mc_interface_set_current
comm_can_get_status_msg_index
comm_can_set_current_off_delay
ch
mc_interface_set_brake_current
comm_can_set_current_brake
__aeabi_f2d
roundf
mc_interface_get_tot_current_directional_filtered
mc_interface_get_pid_pos_now
imu_get_pitch
imu_get_roll
sinf
imu_get_gyro
mc_interface_get_duty_cycle_now
mc_interface_get_rpm
commands_printf
commands_plot_set_graph
commands_send_plot_points
chThdSleep
imu_startup_done
ADC_Value
fmaxf
fminf
sscanf
ARM GAS  /tmp/ccIHdayg.s 			page 378


commands_init_plot
commands_plot_add_graph
tanf
memcpy
terminal_register_command_callback
chThdCreateStatic
chThdTerminate
chThdWait
terminal_unregister_callback
