ARM GAS  /tmp/ccIHdayg.s 			page 1


   1              		.cpu cortex-m4
   2              		.eabi_attribute 27, 1
   3              		.eabi_attribute 28, 1
   4              		.eabi_attribute 20, 1
   5              		.eabi_attribute 21, 1
   6              		.eabi_attribute 23, 3
   7              		.eabi_attribute 24, 1
   8              		.eabi_attribute 25, 1
   9              		.eabi_attribute 26, 1
  10              		.eabi_attribute 30, 2
  11              		.eabi_attribute 34, 1
  12              		.eabi_attribute 18, 4
  13              		.file	"app_balance.c"
  14              		.text
  15              	.Ltext0:
  16              		.cfi_sections	.debug_frame
  17              		.section	.text.reset_vars,"ax",%progbits
  18              		.align	1
  19              		.p2align 4,,15
  20              		.syntax unified
  21              		.thumb
  22              		.thumb_func
  23              		.fpu fpv4-sp-d16
  24              		.type	reset_vars, %function
  25              	reset_vars:
  26              	.LFB276:
  27              		.file 1 "applications/app_balance.c"
  28              		.loc 1 296 0
  29              		.cfi_startproc
  30              		@ args = 0, pretend = 0, frame = 0
  31              		@ frame_needed = 0, uses_anonymous_args = 0
  32              		@ link register save eliminated.
  33              		.loc 1 307 0
  34 0000 1C4B     		ldr	r3, .L4
  35 0002 1D48     		ldr	r0, .L4+4
  36              		.loc 1 308 0
  37 0004 1D49     		ldr	r1, .L4+8
  38              		.loc 1 307 0
  39 0006 1A68     		ldr	r2, [r3]	@ float
  40              		.loc 1 296 0
  41 0008 F0B4     		push	{r4, r5, r6, r7}
  42              		.cfi_def_cfa_offset 16
  43              		.cfi_offset 4, -16
  44              		.cfi_offset 5, -12
  45              		.cfi_offset 6, -8
  46              		.cfi_offset 7, -4
  47              		.loc 1 307 0
  48 000a 0260     		str	r2, [r0]	@ float
  49              		.loc 1 308 0
  50 000c 0A60     		str	r2, [r1]	@ float
  51              		.loc 1 298 0
  52 000e 1C4D     		ldr	r5, .L4+12
  53              		.loc 1 300 0
  54 0010 1C4C     		ldr	r4, .L4+16
  55              		.loc 1 301 0
  56 0012 1D48     		ldr	r0, .L4+20
  57              		.loc 1 303 0
ARM GAS  /tmp/ccIHdayg.s 			page 2


  58 0014 1D4A     		ldr	r2, .L4+24
  59              		.loc 1 302 0
  60 0016 1E49     		ldr	r1, .L4+28
  61              		.loc 1 317 0
  62 0018 1E4F     		ldr	r7, .L4+32
  63              		.loc 1 320 0
  64 001a 1F4E     		ldr	r6, .L4+36
  65              		.loc 1 298 0
  66 001c 0023     		movs	r3, #0
  67 001e 2B60     		str	r3, [r5]	@ float
  68              		.loc 1 300 0
  69 0020 2360     		str	r3, [r4]	@ float
  70              		.loc 1 301 0
  71 0022 0360     		str	r3, [r0]	@ float
  72              		.loc 1 303 0
  73 0024 1360     		str	r3, [r2]	@ float
  74              	.LVL0:
  75              		.loc 1 309 0
  76 0026 1D4D     		ldr	r5, .L4+40
  77              		.loc 1 310 0
  78 0028 1D4C     		ldr	r4, .L4+44
  79              		.loc 1 312 0
  80 002a 1E48     		ldr	r0, .L4+48
  81              		.loc 1 315 0
  82 002c 1E4A     		ldr	r2, .L4+52
  83              		.loc 1 302 0
  84 002e 0B60     		str	r3, [r1]	@ float
  85              		.loc 1 313 0
  86 0030 1E49     		ldr	r1, .L4+56
  87              		.loc 1 309 0
  88 0032 2B60     		str	r3, [r5]	@ float
  89              		.loc 1 310 0
  90 0034 2360     		str	r3, [r4]	@ float
  91              		.loc 1 312 0
  92 0036 0360     		str	r3, [r0]	@ float
  93              		.loc 1 315 0
  94 0038 1360     		str	r3, [r2]	@ float
  95              	.LBB60:
  96              	.LBB61:
  97              		.loc 1 165 0
  98 003a 1D48     		ldr	r0, .L4+60
  99              	.LBE61:
 100              	.LBE60:
 101              	.LBB63:
 102              	.LBB64:
 103 003c 1D4A     		ldr	r2, .L4+64
 104              	.LBE64:
 105              	.LBE63:
 106              		.loc 1 316 0
 107 003e 1E4D     		ldr	r5, .L4+68
 108              		.loc 1 318 0
 109 0040 1E4C     		ldr	r4, .L4+72
 110              		.loc 1 313 0
 111 0042 0B60     		str	r3, [r1]	@ float
 112              	.LBB66:
 113              	.LBB67:
 114              		.loc 1 165 0
ARM GAS  /tmp/ccIHdayg.s 			page 3


 115 0044 1E49     		ldr	r1, .L4+76
 116              	.LBE67:
 117              	.LBE66:
 118              		.loc 1 316 0
 119 0046 2B60     		str	r3, [r5]	@ float
 120              		.loc 1 318 0
 121 0048 2360     		str	r3, [r4]	@ float
 122              		.loc 1 321 0
 123 004a 1E4D     		ldr	r5, .L4+80
 124              	.LBB69:
 125              	.LBB62:
 126              		.loc 1 165 0
 127 004c 4361     		str	r3, [r0, #20]	@ float
 128              		.loc 1 166 0
 129 004e 8361     		str	r3, [r0, #24]	@ float
 130              	.LVL1:
 131              	.LBE62:
 132              	.LBE69:
 133              		.loc 1 322 0
 134 0050 1D4C     		ldr	r4, .L4+84
 135              	.LBB70:
 136              	.LBB65:
 137              		.loc 1 165 0
 138 0052 5361     		str	r3, [r2, #20]	@ float
 139              		.loc 1 166 0
 140 0054 9361     		str	r3, [r2, #24]	@ float
 141              	.LBE65:
 142              	.LBE70:
 143              		.loc 1 323 0
 144 0056 1D48     		ldr	r0, .L4+88
 145              		.loc 1 319 0
 146 0058 1D4A     		ldr	r2, .L4+92
 147              	.LBB71:
 148              	.LBB68:
 149              		.loc 1 165 0
 150 005a 4B61     		str	r3, [r1, #20]	@ float
 151              		.loc 1 166 0
 152 005c 8B61     		str	r3, [r1, #24]	@ float
 153              	.LVL2:
 154              	.LBE68:
 155              	.LBE71:
 156              		.loc 1 317 0
 157 005e 0023     		movs	r3, #0
 158              		.loc 1 319 0
 159 0060 0121     		movs	r1, #1
 160              		.loc 1 317 0
 161 0062 3B70     		strb	r3, [r7]
 162              		.loc 1 320 0
 163 0064 3360     		str	r3, [r6]
 164              		.loc 1 321 0
 165 0066 2B60     		str	r3, [r5]
 166              		.loc 1 322 0
 167 0068 2360     		str	r3, [r4]
 168              		.loc 1 323 0
 169 006a 0360     		str	r3, [r0]
 170              		.loc 1 319 0
 171 006c 1170     		strb	r1, [r2]
ARM GAS  /tmp/ccIHdayg.s 			page 4


 172              		.loc 1 324 0
 173 006e F0BC     		pop	{r4, r5, r6, r7}
 174              		.cfi_restore 7
 175              		.cfi_restore 6
 176              		.cfi_restore 5
 177              		.cfi_restore 4
 178              		.cfi_def_cfa_offset 0
 179 0070 7047     		bx	lr
 180              	.L5:
 181 0072 00BF     		.align	2
 182              	.L4:
 183 0074 00000000 		.word	.LANCHOR7
 184 0078 00000000 		.word	.LANCHOR8
 185 007c 00000000 		.word	.LANCHOR9
 186 0080 00000000 		.word	.LANCHOR0
 187 0084 00000000 		.word	.LANCHOR1
 188 0088 00000000 		.word	.LANCHOR2
 189 008c 00000000 		.word	.LANCHOR4
 190 0090 00000000 		.word	.LANCHOR3
 191 0094 00000000 		.word	.LANCHOR17
 192 0098 00000000 		.word	.LANCHOR20
 193 009c 00000000 		.word	.LANCHOR10
 194 00a0 00000000 		.word	.LANCHOR11
 195 00a4 00000000 		.word	.LANCHOR12
 196 00a8 00000000 		.word	.LANCHOR15
 197 00ac 00000000 		.word	.LANCHOR13
 198 00b0 00000000 		.word	.LANCHOR5
 199 00b4 00000000 		.word	.LANCHOR14
 200 00b8 00000000 		.word	.LANCHOR16
 201 00bc 00000000 		.word	.LANCHOR18
 202 00c0 00000000 		.word	.LANCHOR6
 203 00c4 00000000 		.word	.LANCHOR21
 204 00c8 00000000 		.word	.LANCHOR22
 205 00cc 00000000 		.word	.LANCHOR23
 206 00d0 00000000 		.word	.LANCHOR19
 207              		.cfi_endproc
 208              	.LFE276:
 209              		.size	reset_vars, .-reset_vars
 210              		.section	.text.check_faults,"ax",%progbits
 211              		.align	1
 212              		.p2align 4,,15
 213              		.syntax unified
 214              		.thumb
 215              		.thumb_func
 216              		.fpu fpv4-sp-d16
 217              		.type	check_faults, %function
 218              	check_faults:
 219              	.LFB278:
 220              		.loc 1 345 0
 221              		.cfi_startproc
 222              		@ args = 0, pretend = 0, frame = 0
 223              		@ frame_needed = 0, uses_anonymous_args = 0
 224              		@ link register save eliminated.
 225              	.LVL3:
 226              		.loc 1 348 0
 227 0000 5B4B     		ldr	r3, .L46
 228 0002 5C4A     		ldr	r2, .L46+4
ARM GAS  /tmp/ccIHdayg.s 			page 5


 229 0004 1B78     		ldrb	r3, [r3]	@ zero_extendqisi2
 230 0006 1268     		ldr	r2, [r2]
 231              		.loc 1 345 0
 232 0008 70B4     		push	{r4, r5, r6}
 233              		.cfi_def_cfa_offset 12
 234              		.cfi_offset 4, -12
 235              		.cfi_offset 5, -8
 236              		.cfi_offset 6, -4
 237              		.loc 1 348 0
 238 000a 002B     		cmp	r3, #0
 239 000c 35D1     		bne	.L7
 240              		.loc 1 349 0
 241 000e 5A4B     		ldr	r3, .L46+8
 242 0010 5A49     		ldr	r1, .L46+12
 243 0012 1B68     		ldr	r3, [r3]
 244 0014 5A4D     		ldr	r5, .L46+16
 245 0016 42F20F74 		movw	r4, #9999
 246 001a D31A     		subs	r3, r2, r3
 247 001c 4FF47A76 		mov	r6, #1000
 248 0020 06FB0343 		mla	r3, r6, r3, r4
 249 0024 8C8D     		ldrh	r4, [r1, #44]
 250 0026 A5FB0353 		umull	r5, r3, r5, r3
 251 002a B4EB533F 		cmp	r4, r3, lsr #13
 252 002e 7ED3     		bcc	.L8
 253              		.loc 1 349 0 is_stmt 0 discriminator 1
 254 0030 0028     		cmp	r0, #0
 255 0032 7CD1     		bne	.L8
 256              	.L12:
 257              		.loc 1 358 0 is_stmt 1
 258 0034 CB8D     		ldrh	r3, [r1, #46]
 259 0036 07EE903A 		vmov	s15, r3	@ int
 260 003a 524B     		ldr	r3, .L46+20
 261 003c F8EEE77A 		vcvt.f32.s32	s15, s15
 262 0040 93ED007A 		vldr.32	s14, [r3]
 263 0044 F4EEC77A 		vcmpe.f32	s15, s14
 264 0048 F1EE10FA 		vmrs	APSR_nzcv, FPSCR
 265 004c 1ADD     		ble	.L10
 266              		.loc 1 359 0
 267 004e 4E4B     		ldr	r3, .L46+24
 268 0050 4B4D     		ldr	r5, .L46+16
 269 0052 1B68     		ldr	r3, [r3]
 270 0054 42F20F74 		movw	r4, #9999
 271 0058 4FF47A76 		mov	r6, #1000
 272 005c D31A     		subs	r3, r2, r3
 273 005e 06FB0343 		mla	r3, r6, r3, r4
 274 0062 4C8D     		ldrh	r4, [r1, #42]
 275 0064 A5FB0353 		umull	r5, r3, r5, r3
 276 0068 B4EB533F 		cmp	r4, r3, lsr #13
 277 006c 00D3     		bcc	.L13
 278              		.loc 1 359 0 is_stmt 0 discriminator 1
 279 006e 58B1     		cbz	r0, .L14
 280              	.L13:
 281              		.loc 1 360 0 is_stmt 1
 282 0070 464B     		ldr	r3, .L46+28
 283 0072 0822     		movs	r2, #8
 284 0074 1A70     		strb	r2, [r3]
 285              		.loc 1 361 0
ARM GAS  /tmp/ccIHdayg.s 			page 6


 286 0076 0120     		movs	r0, #1
 287              	.LVL4:
 288 0078 5DE0     		b	.L11
 289              	.LVL5:
 290              	.L7:
 291              		.loc 1 354 0
 292 007a 3F49     		ldr	r1, .L46+8
 293              		.loc 1 358 0
 294 007c 012B     		cmp	r3, #1
 295              		.loc 1 354 0
 296 007e 0A60     		str	r2, [r1]
 297 0080 3E49     		ldr	r1, .L46+12
 298              		.loc 1 358 0
 299 0082 D7D9     		bls	.L12
 300              	.L10:
 301              		.loc 1 364 0
 302 0084 404B     		ldr	r3, .L46+24
 303 0086 1A60     		str	r2, [r3]
 304              	.L14:
 305              		.loc 1 368 0
 306 0088 414B     		ldr	r3, .L46+32
 307 008a 91ED047A 		vldr.32	s14, [r1, #16]
 308 008e D3ED007A 		vldr.32	s15, [r3]
 309              		.loc 1 369 0
 310 0092 404B     		ldr	r3, .L46+36
 311              		.loc 1 368 0
 312 0094 F0EEE77A 		vabs.f32	s15, s15
 313 0098 F4EEC77A 		vcmpe.f32	s15, s14
 314 009c F1EE10FA 		vmrs	APSR_nzcv, FPSCR
 315 00a0 2EDC     		bgt	.L44
 316              		.loc 1 374 0
 317 00a2 1A60     		str	r2, [r3]
 318              	.L18:
 319              		.loc 1 378 0
 320 00a4 3C4B     		ldr	r3, .L46+40
 321 00a6 91ED057A 		vldr.32	s14, [r1, #20]
 322 00aa D3ED007A 		vldr.32	s15, [r3]
 323              		.loc 1 379 0
 324 00ae 3B4B     		ldr	r3, .L46+44
 325              		.loc 1 378 0
 326 00b0 F0EEE77A 		vabs.f32	s15, s15
 327 00b4 F4EEC77A 		vcmpe.f32	s15, s14
 328 00b8 F1EE10FA 		vmrs	APSR_nzcv, FPSCR
 329 00bc 3DDC     		bgt	.L45
 330              		.loc 1 384 0
 331 00be 1A60     		str	r2, [r3]
 332              	.L22:
 333              		.loc 1 388 0
 334 00c0 374B     		ldr	r3, .L46+48
 335 00c2 91ED067A 		vldr.32	s14, [r1, #24]
 336 00c6 D3ED007A 		vldr.32	s15, [r3]
 337              		.loc 1 389 0
 338 00ca 364B     		ldr	r3, .L46+52
 339              		.loc 1 388 0
 340 00cc B4EEE77A 		vcmpe.f32	s14, s15
 341 00d0 F1EE10FA 		vmrs	APSR_nzcv, FPSCR
 342 00d4 48D5     		bpl	.L42
ARM GAS  /tmp/ccIHdayg.s 			page 7


 343              		.loc 1 389 0
 344 00d6 1B68     		ldr	r3, [r3]
 345 00d8 294C     		ldr	r4, .L46+16
 346 00da 098D     		ldrh	r1, [r1, #40]
 347 00dc D21A     		subs	r2, r2, r3
 348 00de 4FF47A75 		mov	r5, #1000
 349 00e2 42F20F73 		movw	r3, #9999
 350 00e6 05FB0232 		mla	r2, r5, r2, r3
 351 00ea A4FB0232 		umull	r3, r2, r4, r2
 352 00ee B1EB523F 		cmp	r1, r2, lsr #13
 353 00f2 00D3     		bcc	.L25
 354              		.loc 1 389 0 is_stmt 0 discriminator 1
 355 00f4 F8B1     		cbz	r0, .L11
 356              	.L25:
 357              		.loc 1 390 0 is_stmt 1
 358 00f6 254B     		ldr	r3, .L46+28
 359 00f8 0A22     		movs	r2, #10
 360 00fa 1A70     		strb	r2, [r3]
 361              		.loc 1 391 0
 362 00fc 0120     		movs	r0, #1
 363              	.LVL6:
 364 00fe 1AE0     		b	.L11
 365              	.LVL7:
 366              	.L44:
 367              		.loc 1 369 0
 368 0100 1B68     		ldr	r3, [r3]
 369 0102 1F4D     		ldr	r5, .L46+16
 370 0104 42F20F74 		movw	r4, #9999
 371 0108 4FF47A76 		mov	r6, #1000
 372 010c D31A     		subs	r3, r2, r3
 373 010e 06FB0343 		mla	r3, r6, r3, r4
 374 0112 8C8C     		ldrh	r4, [r1, #36]
 375 0114 A5FB0353 		umull	r5, r3, r5, r3
 376 0118 B4EB533F 		cmp	r4, r3, lsr #13
 377 011c 01D3     		bcc	.L17
 378              		.loc 1 369 0 is_stmt 0 discriminator 1
 379 011e 0028     		cmp	r0, #0
 380 0120 C0D0     		beq	.L18
 381              	.L17:
 382              		.loc 1 370 0 is_stmt 1
 383 0122 1A4B     		ldr	r3, .L46+28
 384 0124 0622     		movs	r2, #6
 385              		.loc 1 371 0
 386 0126 0120     		movs	r0, #1
 387              	.LVL8:
 388              		.loc 1 370 0
 389 0128 1A70     		strb	r2, [r3]
 390              		.loc 1 398 0
 391 012a 70BC     		pop	{r4, r5, r6}
 392              		.cfi_remember_state
 393              		.cfi_restore 6
 394              		.cfi_restore 5
 395              		.cfi_restore 4
 396              		.cfi_def_cfa_offset 0
 397 012c 7047     		bx	lr
 398              	.LVL9:
 399              	.L8:
ARM GAS  /tmp/ccIHdayg.s 			page 8


 400              		.cfi_restore_state
 401              		.loc 1 350 0
 402 012e 174B     		ldr	r3, .L46+28
 403 0130 0922     		movs	r2, #9
 404 0132 1A70     		strb	r2, [r3]
 405              		.loc 1 351 0
 406 0134 0120     		movs	r0, #1
 407              	.LVL10:
 408              	.L11:
 409              		.loc 1 398 0
 410 0136 70BC     		pop	{r4, r5, r6}
 411              		.cfi_remember_state
 412              		.cfi_restore 6
 413              		.cfi_restore 5
 414              		.cfi_restore 4
 415              		.cfi_def_cfa_offset 0
 416 0138 7047     		bx	lr
 417              	.LVL11:
 418              	.L45:
 419              		.cfi_restore_state
 420              		.loc 1 379 0
 421 013a 1B68     		ldr	r3, [r3]
 422 013c 104D     		ldr	r5, .L46+16
 423 013e 42F20F74 		movw	r4, #9999
 424 0142 4FF47A76 		mov	r6, #1000
 425 0146 D31A     		subs	r3, r2, r3
 426 0148 06FB0343 		mla	r3, r6, r3, r4
 427 014c CC8C     		ldrh	r4, [r1, #38]
 428 014e A5FB0353 		umull	r5, r3, r5, r3
 429 0152 B4EB533F 		cmp	r4, r3, lsr #13
 430 0156 01D3     		bcc	.L21
 431              		.loc 1 379 0 is_stmt 0 discriminator 1
 432 0158 0028     		cmp	r0, #0
 433 015a B1D0     		beq	.L22
 434              	.L21:
 435              		.loc 1 380 0 is_stmt 1
 436 015c 0B4B     		ldr	r3, .L46+28
 437 015e 0722     		movs	r2, #7
 438              		.loc 1 381 0
 439 0160 0120     		movs	r0, #1
 440              	.LVL12:
 441              		.loc 1 380 0
 442 0162 1A70     		strb	r2, [r3]
 443              		.loc 1 398 0
 444 0164 70BC     		pop	{r4, r5, r6}
 445              		.cfi_remember_state
 446              		.cfi_restore 6
 447              		.cfi_restore 5
 448              		.cfi_restore 4
 449              		.cfi_def_cfa_offset 0
 450 0166 7047     		bx	lr
 451              	.LVL13:
 452              	.L42:
 453              		.cfi_restore_state
 454              		.loc 1 397 0
 455 0168 0020     		movs	r0, #0
 456              	.LVL14:
ARM GAS  /tmp/ccIHdayg.s 			page 9


 457              		.loc 1 394 0
 458 016a 1A60     		str	r2, [r3]
 459              		.loc 1 398 0
 460 016c 70BC     		pop	{r4, r5, r6}
 461              		.cfi_restore 6
 462              		.cfi_restore 5
 463              		.cfi_restore 4
 464              		.cfi_def_cfa_offset 0
 465 016e 7047     		bx	lr
 466              	.L47:
 467              		.align	2
 468              	.L46:
 469 0170 00000000 		.word	.LANCHOR24
 470 0174 00000000 		.word	.LANCHOR20
 471 0178 00000000 		.word	.LANCHOR26
 472 017c 00000000 		.word	.LANCHOR25
 473 0180 5917B7D1 		.word	-776530087
 474 0184 00000000 		.word	.LANCHOR27
 475 0188 00000000 		.word	.LANCHOR28
 476 018c 00000000 		.word	.LANCHOR19
 477 0190 00000000 		.word	.LANCHOR7
 478 0194 00000000 		.word	.LANCHOR29
 479 0198 00000000 		.word	.LANCHOR30
 480 019c 00000000 		.word	.LANCHOR31
 481 01a0 00000000 		.word	.LANCHOR32
 482 01a4 00000000 		.word	.LANCHOR33
 483              		.cfi_endproc
 484              	.LFE278:
 485              		.size	check_faults, .-check_faults
 486              		.section	.text.app_balance_get_debug,"ax",%progbits
 487              		.align	1
 488              		.p2align 4,,15
 489              		.syntax unified
 490              		.thumb
 491              		.thumb_func
 492              		.fpu fpv4-sp-d16
 493              		.type	app_balance_get_debug, %function
 494              	app_balance_get_debug:
 495              	.LFB291:
 496              		.loc 1 884 0
 497              		.cfi_startproc
 498              		@ args = 0, pretend = 0, frame = 0
 499              		@ frame_needed = 0, uses_anonymous_args = 0
 500              		@ link register save eliminated.
 501              	.LVL15:
 502              		.loc 1 885 0
 503 0000 0138     		subs	r0, r0, #1
 504              	.LVL16:
 505 0002 0C28     		cmp	r0, #12
 506 0004 47D8     		bhi	.L64
 507 0006 DFE800F0 		tbb	[pc, r0]
 508              	.L51:
 509 000a 0B       		.byte	(.L50-.L51)/2
 510 000b 0F       		.byte	(.L52-.L51)/2
 511 000c 13       		.byte	(.L53-.L51)/2
 512 000d 17       		.byte	(.L54-.L51)/2
 513 000e 1B       		.byte	(.L55-.L51)/2
ARM GAS  /tmp/ccIHdayg.s 			page 10


 514 000f 24       		.byte	(.L56-.L51)/2
 515 0010 28       		.byte	(.L57-.L51)/2
 516 0011 2C       		.byte	(.L58-.L51)/2
 517 0012 30       		.byte	(.L59-.L51)/2
 518 0013 36       		.byte	(.L60-.L51)/2
 519 0014 3C       		.byte	(.L61-.L51)/2
 520 0015 42       		.byte	(.L62-.L51)/2
 521 0016 07       		.byte	(.L63-.L51)/2
 522 0017 00       		.p2align 1
 523              	.L63:
 524              		.loc 1 911 0
 525 0018 204B     		ldr	r3, .L65
 526 001a 93ED000A 		vldr.32	s0, [r3]
 527 001e 7047     		bx	lr
 528              	.L50:
 529              		.loc 1 887 0
 530 0020 1F4B     		ldr	r3, .L65+4
 531 0022 93ED000A 		vldr.32	s0, [r3]
 532 0026 7047     		bx	lr
 533              	.L52:
 534              		.loc 1 889 0
 535 0028 1E4B     		ldr	r3, .L65+8
 536 002a 93ED000A 		vldr.32	s0, [r3]
 537 002e 7047     		bx	lr
 538              	.L53:
 539              		.loc 1 891 0
 540 0030 1D4B     		ldr	r3, .L65+12
 541 0032 93ED000A 		vldr.32	s0, [r3]
 542 0036 7047     		bx	lr
 543              	.L54:
 544              		.loc 1 893 0
 545 0038 1C4B     		ldr	r3, .L65+16
 546 003a 93ED000A 		vldr.32	s0, [r3]
 547 003e 7047     		bx	lr
 548              	.L55:
 549              		.loc 1 895 0
 550 0040 1B4A     		ldr	r2, .L65+20
 551 0042 1C4B     		ldr	r3, .L65+24
 552 0044 92ED000A 		vldr.32	s0, [r2]
 553 0048 D3ED007A 		vldr.32	s15, [r3]
 554 004c 30EE670A 		vsub.f32	s0, s0, s15
 555 0050 7047     		bx	lr
 556              	.L56:
 557              		.loc 1 897 0
 558 0052 194B     		ldr	r3, .L65+28
 559 0054 93ED000A 		vldr.32	s0, [r3]
 560 0058 7047     		bx	lr
 561              	.L57:
 562              		.loc 1 899 0
 563 005a 184B     		ldr	r3, .L65+32
 564 005c 93ED000A 		vldr.32	s0, [r3]
 565 0060 7047     		bx	lr
 566              	.L58:
 567              		.loc 1 901 0
 568 0062 174B     		ldr	r3, .L65+36
 569 0064 93ED000A 		vldr.32	s0, [r3]
 570 0068 7047     		bx	lr
ARM GAS  /tmp/ccIHdayg.s 			page 11


 571              	.L59:
 572              		.loc 1 903 0
 573 006a 164B     		ldr	r3, .L65+40
 574 006c 93ED000A 		vldr.32	s0, [r3]	@ int
 575 0070 B8EE400A 		vcvt.f32.u32	s0, s0
 576 0074 7047     		bx	lr
 577              	.L60:
 578              		.loc 1 905 0
 579 0076 144B     		ldr	r3, .L65+44
 580 0078 93ED000A 		vldr.32	s0, [r3]	@ int
 581 007c B8EE400A 		vcvt.f32.u32	s0, s0
 582 0080 7047     		bx	lr
 583              	.L61:
 584              		.loc 1 907 0
 585 0082 124B     		ldr	r3, .L65+48
 586 0084 93ED000A 		vldr.32	s0, [r3]	@ int
 587 0088 B8EE400A 		vcvt.f32.u32	s0, s0
 588 008c 7047     		bx	lr
 589              	.L62:
 590              		.loc 1 909 0
 591 008e 104B     		ldr	r3, .L65+52
 592 0090 93ED000A 		vldr.32	s0, [r3]
 593 0094 7047     		bx	lr
 594              	.L64:
 595              		.loc 1 913 0
 596 0096 9FED0F0A 		vldr.32	s0, .L65+56
 597              		.loc 1 915 0
 598 009a 7047     		bx	lr
 599              	.L66:
 600              		.align	2
 601              	.L65:
 602 009c 00000000 		.word	.LANCHOR42
 603 00a0 00000000 		.word	.LANCHOR34
 604 00a4 00000000 		.word	.LANCHOR8
 605 00a8 00000000 		.word	.LANCHOR13
 606 00ac 00000000 		.word	.LANCHOR35
 607 00b0 00000000 		.word	.LANCHOR36
 608 00b4 00000000 		.word	.LANCHOR7
 609 00b8 00000000 		.word	.LANCHOR37
 610 00bc 00000000 		.word	.LANCHOR38
 611 00c0 00000000 		.word	.LANCHOR27
 612 00c4 00000000 		.word	.LANCHOR39
 613 00c8 00000000 		.word	.LANCHOR22
 614 00cc 00000000 		.word	.LANCHOR40
 615 00d0 00000000 		.word	.LANCHOR41
 616 00d4 00000000 		.word	0
 617              		.cfi_endproc
 618              	.LFE291:
 619              		.size	app_balance_get_debug, .-app_balance_get_debug
 620              		.section	.text.set_current,"ax",%progbits
 621              		.align	1
 622              		.p2align 4,,15
 623              		.syntax unified
 624              		.thumb
 625              		.thumb_func
 626              		.fpu fpv4-sp-d16
 627              		.type	set_current, %function
ARM GAS  /tmp/ccIHdayg.s 			page 12


 628              	set_current:
 629              	.LFB286:
 630              		.loc 1 580 0
 631              		.cfi_startproc
 632              		@ args = 0, pretend = 0, frame = 0
 633              		@ frame_needed = 0, uses_anonymous_args = 0
 634              	.LVL17:
 635 0000 70B5     		push	{r4, r5, r6, lr}
 636              		.cfi_def_cfa_offset 16
 637              		.cfi_offset 4, -16
 638              		.cfi_offset 5, -12
 639              		.cfi_offset 6, -8
 640              		.cfi_offset 14, -4
 641 0002 2DED048B 		vpush.64	{d8, d9}
 642              		.cfi_def_cfa_offset 32
 643              		.cfi_offset 80, -32
 644              		.cfi_offset 81, -28
 645              		.cfi_offset 82, -24
 646              		.cfi_offset 83, -20
 647              		.loc 1 580 0
 648 0006 B0EE409A 		vmov.f32	s18, s0
 649 000a F0EE609A 		vmov.f32	s19, s1
 650              		.loc 1 582 0
 651 000e FFF7FEFF 		bl	timeout_reset
 652              	.LVL18:
 653              		.loc 1 584 0
 654 0012 224B     		ldr	r3, .L78
 655 0014 93F87C30 		ldrb	r3, [r3, #124]	@ zero_extendqisi2
 656 0018 9BB3     		cbz	r3, .L68
 657              	.LVL19:
 658              	.LBB80:
 659              	.LBB81:
 660              		.loc 1 586 0
 661 001a 214E     		ldr	r6, .L78+4
 662              	.LBB82:
 663              	.LBB83:
 664              	.LBB84:
 665              	.LBB85:
 666              	.LBB86:
 667              	.LBB87:
 668              		.file 2 "ChibiOS_3.0.5/os/rt/include/chvt.h"
 669              		.loc 2 231 0
 670 001c 214D     		ldr	r5, .L78+8
 671              	.LBE87:
 672              	.LBE86:
 673              	.LBE85:
 674              	.LBE84:
 675              	.LBE83:
 676              	.LBE82:
 677              		.loc 1 586 0
 678 001e 96ED000A 		vldr.32	s0, [r6]
 679              	.LBB95:
 680              	.LBB92:
 681              		.loc 1 593 0
 682 0022 DFED218A 		vldr.32	s17, .L78+12
 683 0026 9FED218A 		vldr.32	s16, .L78+16
 684              	.LBE92:
ARM GAS  /tmp/ccIHdayg.s 			page 13


 685              	.LBE95:
 686              		.loc 1 586 0
 687 002a FFF7FEFF 		bl	mc_interface_set_current_off_delay
 688              	.LVL20:
 689              		.loc 1 588 0
 690 002e 39EE290A 		vadd.f32	s0, s18, s19
 691 0032 FFF7FEFF 		bl	mc_interface_set_current
 692              	.LVL21:
 693              	.LBB96:
 694              		.loc 1 590 0
 695 0036 0024     		movs	r4, #0
 696 0038 01E0     		b	.L71
 697              	.LVL22:
 698              	.L69:
 699 003a 0A2C     		cmp	r4, #10
 700 003c 1ED0     		beq	.L77
 701              	.LVL23:
 702              	.L71:
 703              	.LBB93:
 704              		.loc 1 591 0
 705 003e 2046     		mov	r0, r4
 706 0040 FFF7FEFF 		bl	comm_can_get_status_msg_index
 707              	.LVL24:
 708              		.loc 1 593 0
 709 0044 0268     		ldr	r2, [r0]
 710 0046 002A     		cmp	r2, #0
 711              	.LBE93:
 712              		.loc 1 590 0
 713 0048 04F10104 		add	r4, r4, #1
 714              	.LVL25:
 715              	.LBB94:
 716              		.loc 1 593 0
 717 004c F5DB     		blt	.L69
 718              	.LBB91:
 719              	.LBB90:
 720              		.loc 2 267 0
 721 004e 4168     		ldr	r1, [r0, #4]
 722              	.LBB89:
 723              	.LBB88:
 724              		.loc 2 231 0
 725 0050 AB6A     		ldr	r3, [r5, #40]
 726              	.LVL26:
 727              	.LBE88:
 728              	.LBE89:
 729              		.loc 2 267 0
 730 0052 5B1A     		subs	r3, r3, r1
 731              	.LBE90:
 732              	.LBE91:
 733              		.loc 1 593 0
 734 0054 07EE903A 		vmov	s15, r3	@ int
 735 0058 F8EE677A 		vcvt.f32.u32	s15, s15
 736 005c 87EEA87A 		vdiv.f32	s14, s15, s17
 737 0060 B4EEC87A 		vcmpe.f32	s14, s16
 738 0064 F1EE10FA 		vmrs	APSR_nzcv, FPSCR
 739 0068 E7D5     		bpl	.L69
 740              		.loc 1 594 0
 741 006a D0B2     		uxtb	r0, r2
ARM GAS  /tmp/ccIHdayg.s 			page 14


 742              	.LVL27:
 743 006c D6ED000A 		vldr.32	s1, [r6]
 744 0070 39EE690A 		vsub.f32	s0, s18, s19
 745 0074 FFF7FEFF 		bl	comm_can_set_current_off_delay
 746              	.LVL28:
 747              	.LBE94:
 748              		.loc 1 590 0
 749 0078 0A2C     		cmp	r4, #10
 750 007a E0D1     		bne	.L71
 751              	.L77:
 752              	.LBE96:
 753              	.LBE81:
 754              	.LBE80:
 755              		.loc 1 603 0
 756 007c BDEC048B 		vldm	sp!, {d8-d9}
 757              		.cfi_remember_state
 758              		.cfi_restore 82
 759              		.cfi_restore 83
 760              		.cfi_restore 80
 761              		.cfi_restore 81
 762              		.cfi_def_cfa_offset 16
 763              	.LVL29:
 764 0080 70BD     		pop	{r4, r5, r6, pc}
 765              	.LVL30:
 766              	.L68:
 767              		.cfi_restore_state
 768              		.loc 1 599 0
 769 0082 074B     		ldr	r3, .L78+4
 770 0084 93ED000A 		vldr.32	s0, [r3]
 771 0088 FFF7FEFF 		bl	mc_interface_set_current_off_delay
 772              	.LVL31:
 773              		.loc 1 601 0
 774 008c B0EE490A 		vmov.f32	s0, s18
 775              		.loc 1 603 0
 776 0090 BDEC048B 		vldm	sp!, {d8-d9}
 777              		.cfi_restore 82
 778              		.cfi_restore 83
 779              		.cfi_restore 80
 780              		.cfi_restore 81
 781              		.cfi_def_cfa_offset 16
 782              	.LVL32:
 783 0094 BDE87040 		pop	{r4, r5, r6, lr}
 784              		.cfi_restore 14
 785              		.cfi_restore 6
 786              		.cfi_restore 5
 787              		.cfi_restore 4
 788              		.cfi_def_cfa_offset 0
 789              		.loc 1 601 0
 790 0098 FFF7FEBF 		b	mc_interface_set_current
 791              	.LVL33:
 792              	.L79:
 793              		.align	2
 794              	.L78:
 795 009c 00000000 		.word	.LANCHOR25
 796 00a0 00000000 		.word	.LANCHOR43
 797 00a4 00000000 		.word	ch
 798 00a8 00401C46 		.word	1176256512
ARM GAS  /tmp/ccIHdayg.s 			page 15


 799 00ac CDCCCC3D 		.word	1036831949
 800              		.cfi_endproc
 801              	.LFE286:
 802              		.size	set_current, .-set_current
 803              		.section	.text.brake,"ax",%progbits
 804              		.align	1
 805              		.p2align 4,,15
 806              		.syntax unified
 807              		.thumb
 808              		.thumb_func
 809              		.fpu fpv4-sp-d16
 810              		.type	brake, %function
 811              	brake:
 812              	.LFB285:
 813              		.loc 1 557 0
 814              		.cfi_startproc
 815              		@ args = 0, pretend = 0, frame = 0
 816              		@ frame_needed = 0, uses_anonymous_args = 0
 817 0000 70B5     		push	{r4, r5, r6, lr}
 818              		.cfi_def_cfa_offset 16
 819              		.cfi_offset 4, -16
 820              		.cfi_offset 5, -12
 821              		.cfi_offset 6, -8
 822              		.cfi_offset 14, -4
 823              		.loc 1 559 0
 824 0002 2D4D     		ldr	r5, .L96
 825 0004 B5F89830 		ldrh	r3, [r5, #152]
 826 0008 9BB2     		uxth	r3, r3
 827              		.loc 1 557 0
 828 000a 2DED028B 		vpush.64	{d8}
 829              		.cfi_def_cfa_offset 24
 830              		.cfi_offset 80, -24
 831              		.cfi_offset 81, -20
 832              		.loc 1 559 0
 833 000e 002B     		cmp	r3, #0
 834 0010 38D1     		bne	.L81
 835 0012 2A4B     		ldr	r3, .L96+4
 836 0014 1B68     		ldr	r3, [r3]
 837              	.L82:
 838              		.loc 1 562 0
 839 0016 1BB1     		cbz	r3, .L87
 840              	.L84:
 841              		.loc 1 562 0 is_stmt 0 discriminator 1
 842 0018 294A     		ldr	r2, .L96+8
 843 001a 1268     		ldr	r2, [r2]
 844 001c 9A42     		cmp	r2, r3
 845 001e 2ED8     		bhi	.L80
 846              	.L87:
 847              		.loc 1 567 0 is_stmt 1
 848 0020 FFF7FEFF 		bl	timeout_reset
 849              	.LVL34:
 850              		.loc 1 569 0
 851 0024 95ED250A 		vldr.32	s0, [r5, #148]
 852 0028 FFF7FEFF 		bl	mc_interface_set_brake_current
 853              	.LVL35:
 854              		.loc 1 570 0
 855 002c 95F87C30 		ldrb	r3, [r5, #124]	@ zero_extendqisi2
ARM GAS  /tmp/ccIHdayg.s 			page 16


 856 0030 2BB3     		cbz	r3, .L80
 857              	.LBB106:
 858              	.LBB107:
 859              	.LBB108:
 860              	.LBB109:
 861              	.LBB110:
 862              	.LBB111:
 863              	.LBB112:
 864              		.loc 2 231 0
 865 0032 244E     		ldr	r6, .L96+12
 866              	.LBE112:
 867              	.LBE111:
 868              	.LBE110:
 869              	.LBE109:
 870              		.loc 1 573 0
 871 0034 DFED248A 		vldr.32	s17, .L96+16
 872 0038 9FED248A 		vldr.32	s16, .L96+20
 873              	.LBE108:
 874              		.loc 1 571 0
 875 003c 0024     		movs	r4, #0
 876 003e 01E0     		b	.L85
 877              	.LVL36:
 878              	.L88:
 879 0040 0A2C     		cmp	r4, #10
 880 0042 1CD0     		beq	.L80
 881              	.LVL37:
 882              	.L85:
 883              	.LBB117:
 884              		.loc 1 572 0
 885 0044 2046     		mov	r0, r4
 886 0046 FFF7FEFF 		bl	comm_can_get_status_msg_index
 887              	.LVL38:
 888              		.loc 1 573 0
 889 004a 0268     		ldr	r2, [r0]
 890 004c 002A     		cmp	r2, #0
 891              	.LBE117:
 892              		.loc 1 571 0
 893 004e 04F10104 		add	r4, r4, #1
 894              	.LVL39:
 895              	.LBB118:
 896              		.loc 1 573 0
 897 0052 F5DB     		blt	.L88
 898              	.LBB116:
 899              	.LBB115:
 900              		.loc 2 267 0
 901 0054 4168     		ldr	r1, [r0, #4]
 902              	.LBB114:
 903              	.LBB113:
 904              		.loc 2 231 0
 905 0056 B36A     		ldr	r3, [r6, #40]
 906              	.LVL40:
 907              	.LBE113:
 908              	.LBE114:
 909              		.loc 2 267 0
 910 0058 5B1A     		subs	r3, r3, r1
 911              	.LBE115:
 912              	.LBE116:
ARM GAS  /tmp/ccIHdayg.s 			page 17


 913              		.loc 1 573 0
 914 005a 07EE903A 		vmov	s15, r3	@ int
 915 005e F8EE677A 		vcvt.f32.u32	s15, s15
 916 0062 87EEA87A 		vdiv.f32	s14, s15, s17
 917 0066 B4EEC87A 		vcmpe.f32	s14, s16
 918 006a F1EE10FA 		vmrs	APSR_nzcv, FPSCR
 919 006e E7D5     		bpl	.L88
 920              		.loc 1 574 0
 921 0070 95ED250A 		vldr.32	s0, [r5, #148]
 922 0074 D0B2     		uxtb	r0, r2
 923              	.LVL41:
 924 0076 FFF7FEFF 		bl	comm_can_set_current_brake
 925              	.LVL42:
 926              	.LBE118:
 927              		.loc 1 571 0
 928 007a 0A2C     		cmp	r4, #10
 929 007c E2D1     		bne	.L85
 930              	.LVL43:
 931              	.L80:
 932              	.LBE107:
 933              	.LBE106:
 934              		.loc 1 578 0
 935 007e BDEC028B 		vldm	sp!, {d8}
 936              		.cfi_remember_state
 937              		.cfi_restore 80
 938              		.cfi_restore 81
 939              		.cfi_def_cfa_offset 16
 940 0082 70BD     		pop	{r4, r5, r6, pc}
 941              	.L81:
 942              		.cfi_restore_state
 943              		.loc 1 559 0 discriminator 1
 944 0084 124B     		ldr	r3, .L96+24
 945 0086 0D4A     		ldr	r2, .L96+4
 946 0088 93ED007A 		vldr.32	s14, [r3]
 947 008c F7EE007A 		vmov.f32	s15, #1.0e+0
 948 0090 B4EEE77A 		vcmpe.f32	s14, s15
 949 0094 F1EE10FA 		vmrs	APSR_nzcv, FPSCR
 950 0098 09DD     		ble	.L94
 951              	.L83:
 952              		.loc 1 560 0
 953 009a 0949     		ldr	r1, .L96+8
 954 009c B5F89830 		ldrh	r3, [r5, #152]
 955 00a0 0968     		ldr	r1, [r1]
 956 00a2 42F21070 		movw	r0, #10000
 957 00a6 00FB0313 		mla	r3, r0, r3, r1
 958 00aa 1360     		str	r3, [r2]
 959 00ac B3E7     		b	.L82
 960              	.L94:
 961              		.loc 1 559 0 discriminator 2
 962 00ae 1368     		ldr	r3, [r2]
 963 00b0 002B     		cmp	r3, #0
 964 00b2 B1D1     		bne	.L84
 965 00b4 F1E7     		b	.L83
 966              	.L97:
 967 00b6 00BF     		.align	2
 968              	.L96:
 969 00b8 00000000 		.word	.LANCHOR25
ARM GAS  /tmp/ccIHdayg.s 			page 18


 970 00bc 00000000 		.word	.LANCHOR23
 971 00c0 00000000 		.word	.LANCHOR20
 972 00c4 00000000 		.word	ch
 973 00c8 00401C46 		.word	1176256512
 974 00cc CDCCCC3D 		.word	1036831949
 975 00d0 00000000 		.word	.LANCHOR27
 976              		.cfi_endproc
 977              	.LFE285:
 978              		.size	brake, .-brake
 979              		.global	__aeabi_f2d
 980              		.section	.text.balance_thread,"ax",%progbits
 981              		.align	1
 982              		.p2align 4,,15
 983              		.syntax unified
 984              		.thumb
 985              		.thumb_func
 986              		.fpu fpv4-sp-d16
 987              		.type	balance_thread, %function
 988              	balance_thread:
 989              	.LFB287:
 990              		.loc 1 605 0
 991              		.cfi_startproc
 992              		@ args = 0, pretend = 0, frame = 8
 993              		@ frame_needed = 0, uses_anonymous_args = 0
 994              	.LVL44:
 995 0000 2DE9F04F 		push	{r4, r5, r6, r7, r8, r9, r10, fp, lr}
 996              		.cfi_def_cfa_offset 36
 997              		.cfi_offset 4, -36
 998              		.cfi_offset 5, -32
 999              		.cfi_offset 6, -28
 1000              		.cfi_offset 7, -24
 1001              		.cfi_offset 8, -20
 1002              		.cfi_offset 9, -16
 1003              		.cfi_offset 10, -12
 1004              		.cfi_offset 11, -8
 1005              		.cfi_offset 14, -4
 1006              	.LBB157:
 1007              	.LBB158:
 1008              		.file 3 "ChibiOS_3.0.5/os/rt/include/chregistry.h"
 1009              		.loc 3 135 0
 1010 0004 C14D     		ldr	r5, .L363
 1011 0006 C249     		ldr	r1, .L363+4
 1012 0008 AB69     		ldr	r3, [r5, #24]
 1013              	.LBE158:
 1014              	.LBE157:
 1015              		.loc 1 605 0
 1016 000a 2DED068B 		vpush.64	{d8, d9, d10}
 1017              		.cfi_def_cfa_offset 60
 1018              		.cfi_offset 80, -60
 1019              		.cfi_offset 81, -56
 1020              		.cfi_offset 82, -52
 1021              		.cfi_offset 83, -48
 1022              		.cfi_offset 84, -44
 1023              		.cfi_offset 85, -40
 1024              		.loc 1 609 0
 1025 000e 93F82120 		ldrb	r2, [r3, #33]	@ zero_extendqisi2
 1026              	.LBB160:
ARM GAS  /tmp/ccIHdayg.s 			page 19


 1027              	.LBB159:
 1028              		.loc 3 135 0
 1029 0012 9961     		str	r1, [r3, #24]
 1030              	.LBE159:
 1031              	.LBE160:
 1032              		.loc 1 609 0
 1033 0014 5207     		lsls	r2, r2, #29
 1034              		.loc 1 605 0
 1035 0016 83B0     		sub	sp, sp, #12
 1036              		.cfi_def_cfa_offset 72
 1037              		.loc 1 609 0
 1038 0018 00F14481 		bmi	.L99
 1039 001c BD4F     		ldr	r7, .L363+8
 1040 001e DFF89893 		ldr	r9, .L363+172
 1041 0022 BD4C     		ldr	r4, .L363+12
 1042 0024 DFF89483 		ldr	r8, .L363+176
 1043 0028 DFF894A3 		ldr	r10, .L363+180
 1044 002c 9FEDBB9A 		vldr.32	s18, .L363+16
 1045 0030 9FEDBBAA 		vldr.32	s20, .L363+20
 1046              		.loc 1 616 0
 1047 0034 DFEDBB9A 		vldr.32	s19, .L363+24
 1048              	.LBB161:
 1049              	.LBB162:
 1050              		.loc 1 642 0
 1051 0038 DFEDBB8A 		vldr.32	s17, .L363+28
 1052              	.LVL45:
 1053              	.L238:
 1054              	.LBE162:
 1055              	.LBE161:
 1056              		.loc 1 612 0
 1057 003c BB4B     		ldr	r3, .L363+32
 1058              	.LBB170:
 1059              	.LBB171:
 1060              		.loc 2 231 0
 1061 003e AA6A     		ldr	r2, [r5, #40]
 1062              	.LBE171:
 1063              	.LBE170:
 1064              		.loc 1 612 0
 1065 0040 1B68     		ldr	r3, [r3]
 1066              		.loc 1 611 0
 1067 0042 3A60     		str	r2, [r7]
 1068              		.loc 1 612 0
 1069 0044 002B     		cmp	r3, #0
 1070 0046 00F05E84 		beq	.L239
 1071 004a D31A     		subs	r3, r2, r3
 1072 004c 07EE903A 		vmov	s15, r3	@ int
 1073 0050 B8EE678A 		vcvt.f32.u32	s16, s15
 1074 0054 68EE0A7A 		vmul.f32	s15, s16, s20
 1075              	.L100:
 1076              		.loc 1 616 0
 1077 0058 99ED007A 		vldr.32	s14, [r9]
 1078              		.loc 1 615 0
 1079 005c B449     		ldr	r1, .L363+36
 1080              		.loc 1 616 0
 1081 005e E7EE297A 		vfma.f32	s15, s14, s19
 1082              		.loc 1 615 0
 1083 0062 0B60     		str	r3, [r1]
ARM GAS  /tmp/ccIHdayg.s 			page 20


 1084              		.loc 1 618 0
 1085 0064 E389     		ldrh	r3, [r4, #14]
 1086              		.loc 1 617 0
 1087 0066 B149     		ldr	r1, .L363+32
 1088              		.loc 1 616 0
 1089 0068 C9ED007A 		vstr.32	s15, [r9]
 1090              		.loc 1 618 0
 1091 006c 9BB2     		uxth	r3, r3
 1092              		.loc 1 617 0
 1093 006e 0A60     		str	r2, [r1]
 1094              		.loc 1 618 0
 1095 0070 2BB3     		cbz	r3, .L101
 1096              		.loc 1 619 0
 1097 0072 B04E     		ldr	r6, .L363+40
 1098 0074 D6ED00AA 		vldr.32	s21, [r6]
 1099 0078 B0EE6A0A 		vmov.f32	s0, s21
 1100 007c FFF7FEFF 		bl	roundf
 1101              	.LVL46:
 1102 0080 AD4B     		ldr	r3, .L363+44
 1103 0082 1B68     		ldr	r3, [r3]
 1104 0084 0193     		str	r3, [sp, #4]
 1105 0086 DDED017A 		vldr.32	s15, [sp, #4]	@ int
 1106              		.loc 1 620 0
 1107 008a AC4B     		ldr	r3, .L363+48
 1108              		.loc 1 619 0
 1109 008c F8EE677A 		vcvt.f32.u32	s15, s15
 1110              		.loc 1 620 0
 1111 0090 93ED007A 		vldr.32	s14, [r3]
 1112              		.loc 1 619 0
 1113 0094 AA4B     		ldr	r3, .L363+52
 1114 0096 37EEC00A 		vsub.f32	s0, s15, s0
 1115              		.loc 1 620 0
 1116 009a F7EE007A 		vmov.f32	s15, #1.0e+0
 1117              		.loc 1 619 0
 1118 009e 38EE408A 		vsub.f32	s16, s16, s0
 1119              		.loc 1 620 0
 1120 00a2 77EEC77A 		vsub.f32	s15, s15, s14
 1121              		.loc 1 619 0
 1122 00a6 BCEEC88A 		vcvt.u32.f32	s16, s16
 1123              		.loc 1 620 0
 1124 00aa 67EEAAAA 		vmul.f32	s21, s15, s21
 1125 00ae F8EE487A 		vcvt.f32.u32	s15, s16
 1126              		.loc 1 619 0
 1127 00b2 83ED008A 		vstr.32	s16, [r3]	@ int
 1128              		.loc 1 620 0
 1129 00b6 E7EE87AA 		vfma.f32	s21, s15, s14
 1130 00ba C6ED00AA 		vstr.32	s21, [r6]
 1131              	.L101:
 1132              		.loc 1 624 0
 1133 00be FFF7FEFF 		bl	mc_interface_get_tot_current_directional_filtered
 1134              	.LVL47:
 1135 00c2 A04B     		ldr	r3, .L363+56
 1136              		.loc 1 629 0
 1137 00c4 9FEDA08A 		vldr.32	s16, .L363+60
 1138              		.loc 1 624 0
 1139 00c8 83ED000A 		vstr.32	s0, [r3]
 1140              		.loc 1 625 0
ARM GAS  /tmp/ccIHdayg.s 			page 21


 1141 00cc FFF7FEFF 		bl	mc_interface_get_pid_pos_now
 1142              	.LVL48:
 1143 00d0 9E4A     		ldr	r2, .L363+64
 1144              		.loc 1 628 0
 1145 00d2 D8F80030 		ldr	r3, [r8]	@ float
 1146              		.loc 1 625 0
 1147 00d6 82ED000A 		vstr.32	s0, [r2]
 1148              		.loc 1 628 0
 1149 00da 9D4A     		ldr	r2, .L363+68
 1150 00dc 1360     		str	r3, [r2]	@ float
 1151              		.loc 1 629 0
 1152 00de FFF7FEFF 		bl	imu_get_pitch
 1153              	.LVL49:
 1154 00e2 20EE080A 		vmul.f32	s0, s0, s16
 1155 00e6 88ED000A 		vstr.32	s0, [r8]
 1156              		.loc 1 630 0
 1157 00ea FFF7FEFF 		bl	imu_get_roll
 1158              	.LVL50:
 1159 00ee 994B     		ldr	r3, .L363+72
 1160 00f0 60EE087A 		vmul.f32	s15, s0, s16
 1161              		.loc 1 632 0
 1162 00f4 9FED980A 		vldr.32	s0, .L363+76
 1163              		.loc 1 630 0
 1164 00f8 C3ED007A 		vstr.32	s15, [r3]
 1165              		.loc 1 631 0
 1166 00fc F0EEE77A 		vabs.f32	s15, s15
 1167 0100 964B     		ldr	r3, .L363+80
 1168              		.loc 1 632 0
 1169 0102 27EE800A 		vmul.f32	s0, s15, s0
 1170              		.loc 1 631 0
 1171 0106 C3ED007A 		vstr.32	s15, [r3]
 1172              		.loc 1 632 0
 1173 010a FFF7FEFF 		bl	sinf
 1174              	.LVL51:
 1175 010e 944B     		ldr	r3, .L363+84
 1176              		.loc 1 633 0
 1177 0110 9448     		ldr	r0, .L363+88
 1178              		.loc 1 632 0
 1179 0112 83ED000A 		vstr.32	s0, [r3]
 1180              		.loc 1 633 0
 1181 0116 FFF7FEFF 		bl	imu_get_gyro
 1182              	.LVL52:
 1183              		.loc 1 634 0
 1184 011a FFF7FEFF 		bl	mc_interface_get_duty_cycle_now
 1185              	.LVL53:
 1186              		.loc 1 635 0
 1187 011e 924B     		ldr	r3, .L363+92
 1188 0120 B0EEC00A 		vabs.f32	s0, s0
 1189 0124 83ED000A 		vstr.32	s0, [r3]
 1190              		.loc 1 636 0
 1191 0128 FFF7FEFF 		bl	mc_interface_get_rpm
 1192              	.LVL54:
 1193 012c 8F4A     		ldr	r2, .L363+96
 1194              		.loc 1 638 0
 1195 012e 94F87C30 		ldrb	r3, [r4, #124]	@ zero_extendqisi2
 1196              		.loc 1 636 0
 1197 0132 82ED000A 		vstr.32	s0, [r2]
ARM GAS  /tmp/ccIHdayg.s 			page 22


 1198              		.loc 1 637 0
 1199 0136 8E4A     		ldr	r2, .L363+100
 1200 0138 F0EEC07A 		vabs.f32	s15, s0
 1201 013c C2ED007A 		vstr.32	s15, [r2]
 1202              		.loc 1 638 0
 1203 0140 002B     		cmp	r3, #0
 1204 0142 40F0F783 		bne	.L353
 1205              	.L102:
 1206              		.loc 1 648 0
 1207 0146 8B4B     		ldr	r3, .L363+104
 1208 0148 DFED8B5A 		vldr.32	s11, .L363+108
 1209 014c 9A89     		ldrh	r2, [r3, #12]
 1210              		.loc 1 650 0
 1211 014e DB89     		ldrh	r3, [r3, #14]
 1212              		.loc 1 648 0
 1213 0150 DFED8A7A 		vldr.32	s15, .L363+112
 1214              		.loc 1 656 0
 1215 0154 94ED075A 		vldr.32	s10, [r4, #28]
 1216              		.loc 1 648 0
 1217 0158 07EE102A 		vmov	s14, r2	@ int
 1218              		.loc 1 650 0
 1219 015c 06EE103A 		vmov	s12, r3	@ int
 1220              		.loc 1 648 0
 1221 0160 B8EE477A 		vcvt.f32.u32	s14, s14
 1222              		.loc 1 650 0
 1223 0164 B8EE466A 		vcvt.f32.u32	s12, s12
 1224              		.loc 1 648 0
 1225 0168 C7EE256A 		vdiv.f32	s13, s14, s11
 1226 016c 844B     		ldr	r3, .L363+116
 1227              		.loc 1 650 0
 1228 016e 86EE257A 		vdiv.f32	s14, s12, s11
 1229              		.loc 1 648 0
 1230 0172 66EEA76A 		vmul.f32	s13, s13, s15
 1231              		.loc 1 656 0
 1232 0176 B5EE405A 		vcmp.f32	s10, #0
 1233              		.loc 1 648 0
 1234 017a C3ED006A 		vstr.32	s13, [r3]
 1235              		.loc 1 650 0
 1236 017e 67EE277A 		vmul.f32	s15, s14, s15
 1237 0182 804B     		ldr	r3, .L363+120
 1238              		.loc 1 656 0
 1239 0184 F1EE10FA 		vmrs	APSR_nzcv, FPSCR
 1240              		.loc 1 650 0
 1241 0188 C3ED007A 		vstr.32	s15, [r3]
 1242              		.loc 1 656 0
 1243 018c 40F0A883 		bne	.L106
 1244              		.loc 1 656 0 is_stmt 0 discriminator 1
 1245 0190 94ED087A 		vldr.32	s14, [r4, #32]
 1246 0194 B5EE407A 		vcmp.f32	s14, #0
 1247 0198 F1EE10FA 		vmrs	APSR_nzcv, FPSCR
 1248 019c 40F0A083 		bne	.L106
 1249              	.L109:
 1250              		.loc 1 657 0 is_stmt 1
 1251 01a0 794A     		ldr	r2, .L363+124
 1252 01a2 0223     		movs	r3, #2
 1253 01a4 1370     		strb	r3, [r2]
 1254              	.L107:
ARM GAS  /tmp/ccIHdayg.s 			page 23


 1255              		.loc 1 682 0
 1256 01a6 794B     		ldr	r3, .L363+128
 1257 01a8 1B78     		ldrb	r3, [r3]	@ zero_extendqisi2
 1258 01aa 0B2B     		cmp	r3, #11
 1259 01ac 12D8     		bhi	.L116
 1260 01ae DFE813F0 		tbh	[pc, r3, lsl #1]
 1261              	.L118:
 1262 01b2 A000     		.2byte	(.L117-.L118)/2
 1263 01b4 0901     		.2byte	(.L119-.L118)/2
 1264 01b6 0901     		.2byte	(.L119-.L118)/2
 1265 01b8 0901     		.2byte	(.L119-.L118)/2
 1266 01ba 0901     		.2byte	(.L119-.L118)/2
 1267 01bc 1100     		.2byte	(.L116-.L118)/2
 1268 01be 8000     		.2byte	(.L120-.L118)/2
 1269 01c0 8000     		.2byte	(.L120-.L118)/2
 1270 01c2 8000     		.2byte	(.L120-.L118)/2
 1271 01c4 8000     		.2byte	(.L120-.L118)/2
 1272 01c6 0C00     		.2byte	(.L121-.L118)/2
 1273 01c8 8000     		.2byte	(.L120-.L118)/2
 1274              		.p2align 1
 1275              	.L121:
 1276              		.loc 1 793 0
 1277 01ca 0120     		movs	r0, #1
 1278 01cc FFF7FEFF 		bl	check_faults
 1279              	.LVL55:
 1280              	.L352:
 1281              		.loc 1 795 0
 1282 01d0 FFF7FEFF 		bl	brake
 1283              	.LVL56:
 1284              	.L116:
 1285              	.LBB172:
 1286              	.LBB173:
 1287              		.loc 1 917 0
 1288 01d4 6E4B     		ldr	r3, .L363+132
 1289 01d6 DAF80020 		ldr	r2, [r10]
 1290 01da 1B68     		ldr	r3, [r3]
 1291 01dc 9A42     		cmp	r2, r3
 1292 01de 11DA     		bge	.L231
 1293              		.loc 1 918 0
 1294 01e0 6C4B     		ldr	r3, .L363+136
 1295 01e2 1868     		ldr	r0, [r3]
 1296 01e4 FFF7FEFF 		bl	app_balance_get_debug
 1297              	.LVL57:
 1298 01e8 10EE100A 		vmov	r0, s0
 1299 01ec FFF7FEFF 		bl	__aeabi_f2d
 1300              	.LVL58:
 1301 01f0 0246     		mov	r2, r0
 1302 01f2 0B46     		mov	r3, r1
 1303 01f4 6848     		ldr	r0, .L363+140
 1304 01f6 FFF7FEFF 		bl	commands_printf
 1305              	.LVL59:
 1306              		.loc 1 919 0
 1307 01fa DAF80030 		ldr	r3, [r10]
 1308 01fe 0133     		adds	r3, r3, #1
 1309 0200 CAF80030 		str	r3, [r10]
 1310              	.L231:
 1311              	.LBE173:
ARM GAS  /tmp/ccIHdayg.s 			page 24


 1312              	.LBE172:
 1313              	.LBB174:
 1314              	.LBB175:
 1315              		.loc 1 923 0
 1316 0204 654B     		ldr	r3, .L363+144
 1317 0206 1B68     		ldr	r3, [r3]
 1318 0208 002B     		cmp	r3, #0
 1319 020a 40F03284 		bne	.L354
 1320              	.L232:
 1321              		.loc 1 927 0
 1322 020e 644B     		ldr	r3, .L363+148
 1323 0210 1B68     		ldr	r3, [r3]
 1324 0212 002B     		cmp	r3, #0
 1325 0214 40F01184 		bne	.L355
 1326              	.L233:
 1327              		.loc 1 931 0
 1328 0218 624B     		ldr	r3, .L363+152
 1329 021a 1B68     		ldr	r3, [r3]
 1330 021c 002B     		cmp	r3, #0
 1331 021e 40F0F083 		bne	.L356
 1332              	.L234:
 1333              		.loc 1 935 0
 1334 0222 614B     		ldr	r3, .L363+156
 1335 0224 1B68     		ldr	r3, [r3]
 1336 0226 002B     		cmp	r3, #0
 1337 0228 40F0D083 		bne	.L357
 1338              	.L235:
 1339              		.loc 1 939 0
 1340 022c 5F4B     		ldr	r3, .L363+160
 1341 022e 1B68     		ldr	r3, [r3]
 1342 0230 002B     		cmp	r3, #0
 1343 0232 40F0B083 		bne	.L358
 1344              	.L236:
 1345              		.loc 1 943 0
 1346 0236 5E4B     		ldr	r3, .L363+164
 1347 0238 1B68     		ldr	r3, [r3]
 1348 023a CBB1     		cbz	r3, .L237
 1349              		.loc 1 944 0
 1350 023c 0520     		movs	r0, #5
 1351 023e FFF7FEFF 		bl	commands_plot_set_graph
 1352              	.LVL60:
 1353              		.loc 1 945 0
 1354 0242 5B4B     		ldr	r3, .L363+164
 1355 0244 1868     		ldr	r0, [r3]
 1356 0246 FFF7FEFF 		bl	app_balance_get_debug
 1357              	.LVL61:
 1358 024a 3B68     		ldr	r3, [r7]
 1359 024c 594A     		ldr	r2, .L363+168
 1360 024e 4FF47A70 		mov	r0, #1000
 1361 0252 42F20F71 		movw	r1, #9999
 1362 0256 00FB0313 		mla	r3, r0, r3, r1
 1363 025a A2FB0323 		umull	r2, r3, r2, r3
 1364 025e 5B0B     		lsrs	r3, r3, #13
 1365 0260 07EE903A 		vmov	s15, r3	@ int
 1366 0264 F0EE400A 		vmov.f32	s1, s0
 1367 0268 B8EEE70A 		vcvt.f32.s32	s0, s15
 1368 026c FFF7FEFF 		bl	commands_send_plot_points
ARM GAS  /tmp/ccIHdayg.s 			page 25


 1369              	.LVL62:
 1370              	.L237:
 1371              	.LBE175:
 1372              	.LBE174:
 1373              		.loc 1 804 0
 1374 0270 304B     		ldr	r3, .L363+40
 1375 0272 93ED000A 		vldr.32	s0, [r3]
 1376 0276 FFF7FEFF 		bl	roundf
 1377              	.LVL63:
 1378 027a 2F4B     		ldr	r3, .L363+44
 1379 027c 1B68     		ldr	r3, [r3]
 1380 027e 0193     		str	r3, [sp, #4]
 1381 0280 07EE903A 		vmov	s15, r3	@ int
 1382 0284 F8EE677A 		vcvt.f32.u32	s15, s15
 1383 0288 37EEC00A 		vsub.f32	s0, s15, s0
 1384 028c FCEEC07A 		vcvt.u32.f32	s15, s0
 1385 0290 17EE900A 		vmov	r0, s15	@ int
 1386 0294 FFF7FEFF 		bl	chThdSleep
 1387              	.LVL64:
 1388              	.LBB177:
 1389              	.LBB178:
 1390              		.file 4 "ChibiOS_3.0.5/os/rt/include/chthreads.h"
 1391              		.loc 4 233 0
 1392 0298 AB69     		ldr	r3, [r5, #24]
 1393              	.LBE178:
 1394              	.LBE177:
 1395              		.loc 1 609 0
 1396 029a 93F82130 		ldrb	r3, [r3, #33]	@ zero_extendqisi2
 1397 029e 5B07     		lsls	r3, r3, #29
 1398 02a0 7FF5CCAE 		bpl	.L238
 1399              	.L99:
 1400              		.loc 1 809 0
 1401 02a4 03B0     		add	sp, sp, #12
 1402              		.cfi_remember_state
 1403              		.cfi_def_cfa_offset 60
 1404              		@ sp needed
 1405 02a6 BDEC068B 		vldm	sp!, {d8-d10}
 1406              		.cfi_restore 84
 1407              		.cfi_restore 85
 1408              		.cfi_restore 82
 1409              		.cfi_restore 83
 1410              		.cfi_restore 80
 1411              		.cfi_restore 81
 1412              		.cfi_def_cfa_offset 36
 1413 02aa BDE8F04F 		pop	{r4, r5, r6, r7, r8, r9, r10, fp, lr}
 1414              		.cfi_restore 14
 1415              		.cfi_restore 11
 1416              		.cfi_restore 10
 1417              		.cfi_restore 9
 1418              		.cfi_restore 8
 1419              		.cfi_restore 7
 1420              		.cfi_restore 6
 1421              		.cfi_restore 5
 1422              		.cfi_restore 4
 1423              		.cfi_def_cfa_offset 0
 1424              		.loc 1 808 0
 1425 02ae FFF7FEBF 		b	brake
ARM GAS  /tmp/ccIHdayg.s 			page 26


 1426              	.LVL65:
 1427              	.L120:
 1428              		.cfi_restore_state
 1429              		.loc 1 782 0
 1430 02b2 D8ED007A 		vldr.32	s15, [r8]
 1431 02b6 94ED1B7A 		vldr.32	s14, [r4, #108]
 1432 02ba F0EEE77A 		vabs.f32	s15, s15
 1433 02be F4EEC77A 		vcmpe.f32	s15, s14
 1434 02c2 F1EE10FA 		vmrs	APSR_nzcv, FPSCR
 1435 02c6 83D5     		bpl	.L352
 1436              		.loc 1 782 0 is_stmt 0 discriminator 1
 1437 02c8 224B     		ldr	r3, .L363+72
 1438 02ca 94ED1C7A 		vldr.32	s14, [r4, #112]
 1439 02ce D3ED007A 		vldr.32	s15, [r3]
 1440 02d2 F0EEE77A 		vabs.f32	s15, s15
 1441 02d6 F4EEC77A 		vcmpe.f32	s15, s14
 1442 02da F1EE10FA 		vmrs	APSR_nzcv, FPSCR
 1443 02de 7FF577AF 		bpl	.L352
 1444              		.loc 1 782 0 discriminator 2
 1445 02e2 294B     		ldr	r3, .L363+124
 1446 02e4 1B78     		ldrb	r3, [r3]	@ zero_extendqisi2
 1447 02e6 022B     		cmp	r3, #2
 1448 02e8 7FF472AF 		bne	.L352
 1449              		.loc 1 783 0 is_stmt 1
 1450 02ec FFF7FEFF 		bl	reset_vars
 1451              	.LVL66:
 1452              		.loc 1 784 0
 1453 02f0 70E7     		b	.L116
 1454              	.L117:
 1455              		.loc 1 685 0
 1456 02f2 FFF7FEFF 		bl	brake
 1457              	.LVL67:
 1458              		.loc 1 686 0
 1459 02f6 FFF7FEFF 		bl	imu_startup_done
 1460              	.LVL68:
 1461 02fa 0028     		cmp	r0, #0
 1462 02fc 3FF46AAF 		beq	.L116
 1463              		.loc 1 687 0
 1464 0300 FFF7FEFF 		bl	reset_vars
 1465              	.LVL69:
 1466              		.loc 1 688 0
 1467 0304 214A     		ldr	r2, .L363+128
 1468 0306 0B23     		movs	r3, #11
 1469 0308 1370     		strb	r3, [r2]
 1470 030a 63E7     		b	.L116
 1471              	.L364:
 1472              		.align	2
 1473              	.L363:
 1474 030c 00000000 		.word	ch
 1475 0310 00000000 		.word	.LC0
 1476 0314 00000000 		.word	.LANCHOR20
 1477 0318 00000000 		.word	.LANCHOR25
 1478 031c 00000000 		.word	0
 1479 0320 8FC2F53C 		.word	1022739087
 1480 0324 EC51783F 		.word	1064849900
 1481 0328 00401C46 		.word	1176256512
 1482 032c 00000000 		.word	.LANCHOR21
ARM GAS  /tmp/ccIHdayg.s 			page 27


 1483 0330 00000000 		.word	.LANCHOR22
 1484 0334 00000000 		.word	.LANCHOR41
 1485 0338 00000000 		.word	.LANCHOR39
 1486 033c 00000000 		.word	.LANCHOR44
 1487 0340 00000000 		.word	.LANCHOR40
 1488 0344 00000000 		.word	.LANCHOR37
 1489 0348 E02E6542 		.word	1113927392
 1490 034c 00000000 		.word	.LANCHOR34
 1491 0350 00000000 		.word	.LANCHOR36
 1492 0354 00000000 		.word	.LANCHOR30
 1493 0358 35FA8E3C 		.word	1016003125
 1494 035c 00000000 		.word	.LANCHOR45
 1495 0360 00000000 		.word	.LANCHOR46
 1496 0364 00000000 		.word	.LANCHOR47
 1497 0368 00000000 		.word	.LANCHOR32
 1498 036c 00000000 		.word	.LANCHOR38
 1499 0370 00000000 		.word	.LANCHOR27
 1500 0374 00000000 		.word	ADC_Value
 1501 0378 00F07F45 		.word	1166012416
 1502 037c 33335340 		.word	1079194419
 1503 0380 00000000 		.word	.LANCHOR49
 1504 0384 00000000 		.word	.LANCHOR50
 1505 0388 00000000 		.word	.LANCHOR24
 1506 038c 00000000 		.word	.LANCHOR19
 1507 0390 00000000 		.word	.LANCHOR63
 1508 0394 00000000 		.word	.LANCHOR64
 1509 0398 0C000000 		.word	.LC1
 1510 039c 00000000 		.word	.LANCHOR65
 1511 03a0 00000000 		.word	.LANCHOR66
 1512 03a4 00000000 		.word	.LANCHOR67
 1513 03a8 00000000 		.word	.LANCHOR68
 1514 03ac 00000000 		.word	.LANCHOR69
 1515 03b0 00000000 		.word	.LANCHOR70
 1516 03b4 5917B7D1 		.word	-776530087
 1517 03b8 00000000 		.word	.LANCHOR42
 1518 03bc 00000000 		.word	.LANCHOR7
 1519 03c0 00000000 		.word	.LANCHOR62
 1520              	.L119:
 1521              		.loc 1 697 0
 1522 03c4 0020     		movs	r0, #0
 1523 03c6 FFF7FEFF 		bl	check_faults
 1524              	.LVL70:
 1525 03ca 0028     		cmp	r0, #0
 1526 03cc 7FF402AF 		bne	.L116
 1527              	.LBB179:
 1528              	.LBB180:
 1529              		.loc 1 401 0
 1530 03d0 E94B     		ldr	r3, .L365
 1531 03d2 EA4A     		ldr	r2, .L365+4
 1532 03d4 1978     		ldrb	r1, [r3]	@ zero_extendqisi2
 1533 03d6 92ED007A 		vldr.32	s14, [r2]
 1534 03da 0029     		cmp	r1, #0
 1535 03dc 00F08D83 		beq	.L319
 1536 03e0 E749     		ldr	r1, .L365+8
 1537              	.L124:
 1538              		.loc 1 404 0
 1539 03e2 E848     		ldr	r0, .L365+12
ARM GAS  /tmp/ccIHdayg.s 			page 28


 1540 03e4 D4ED0E6A 		vldr.32	s13, [r4, #56]
 1541 03e8 D0ED007A 		vldr.32	s15, [r0]
 1542 03ec F4EEE76A 		vcmpe.f32	s13, s15
 1543 03f0 F1EE10FA 		vmrs	APSR_nzcv, FPSCR
 1544 03f4 40F15F84 		bpl	.L320
 1545              		.loc 1 405 0
 1546 03f8 E348     		ldr	r0, .L365+16
 1547              		.loc 1 406 0
 1548 03fa D4ED0C7A 		vldr.32	s15, [r4, #48]
 1549              		.loc 1 405 0
 1550 03fe D0ED006A 		vldr.32	s13, [r0]
 1551 0402 F5EEC06A 		vcmpe.f32	s13, #0
 1552 0406 F1EE10FA 		vmrs	APSR_nzcv, FPSCR
 1553              		.loc 1 408 0
 1554 040a D8BF     		it	le
 1555 040c F1EE677A 		vnegle.f32	s15, s15
 1556              		.loc 1 410 0
 1557 0410 0120     		movs	r0, #1
 1558 0412 1870     		strb	r0, [r3]
 1559              	.LBE180:
 1560              	.LBE179:
 1561              	.LBB195:
 1562              	.LBB196:
 1563              		.loc 1 436 0
 1564 0414 B4EE677A 		vcmp.f32	s14, s15
 1565              	.LBE196:
 1566              	.LBE195:
 1567              	.LBB233:
 1568              	.LBB181:
 1569              		.loc 1 411 0
 1570 0418 DC4B     		ldr	r3, .L365+20
 1571              		.loc 1 408 0
 1572 041a C1ED007A 		vstr.32	s15, [r1]
 1573              	.LBE181:
 1574              	.LBE233:
 1575              	.LBB234:
 1576              	.LBB217:
 1577              		.loc 1 436 0
 1578 041e F1EE10FA 		vmrs	APSR_nzcv, FPSCR
 1579              	.LBE217:
 1580              	.LBE234:
 1581              	.LBB235:
 1582              	.LBB182:
 1583              		.loc 1 411 0
 1584 0422 4FF00201 		mov	r1, #2
 1585 0426 1970     		strb	r1, [r3]
 1586              	.LBE182:
 1587              	.LBE235:
 1588              	.LBB236:
 1589              	.LBB218:
 1590              		.loc 1 436 0
 1591 0428 40F02A85 		bne	.L359
 1592              	.L132:
 1593              	.LBE218:
 1594              	.LBE236:
 1595              	.LBB237:
 1596              	.LBB238:
ARM GAS  /tmp/ccIHdayg.s 			page 29


 1597              		.loc 1 451 0
 1598 042c D84B     		ldr	r3, .L365+24
 1599              	.LBE238:
 1600              	.LBE237:
 1601              		.loc 1 704 0
 1602 042e D94E     		ldr	r6, .L365+28
 1603              	.LBB245:
 1604              	.LBB239:
 1605              		.loc 1 451 0
 1606 0430 D3ED007A 		vldr.32	s15, [r3]
 1607              	.LBE239:
 1608              	.LBE245:
 1609              		.loc 1 704 0
 1610 0434 86ED007A 		vstr.32	s14, [r6]
 1611              	.LVL71:
 1612              	.LBB246:
 1613              	.LBB240:
 1614              		.loc 1 451 0
 1615 0438 B0EEE66A 		vabs.f32	s12, s13
 1616 043c B4EEE76A 		vcmpe.f32	s12, s15
 1617 0440 F1EE10FA 		vmrs	APSR_nzcv, FPSCR
 1618 0444 40F3FB83 		ble	.L327
 1619              		.loc 1 452 0
 1620 0448 D4ED197A 		vldr.32	s15, [r4, #100]
 1621 044c F5EEC06A 		vcmpe.f32	s13, #0
 1622 0450 F1EE10FA 		vmrs	APSR_nzcv, FPSCR
 1623 0454 F0EEE77A 		vabs.f32	s15, s15
 1624 0458 01D5     		bpl	.L155
 1625 045a F1EE677A 		vneg.f32	s15, s15
 1626              	.LVL72:
 1627              	.L155:
 1628              		.loc 1 457 0
 1629 045e B4F85C30 		ldrh	r3, [r4, #92]
 1630 0462 06EE103A 		vmov	s12, r3	@ int
 1631 0466 B8EEC66A 		vcvt.f32.s32	s12, s12
 1632 046a B4EEE66A 		vcmpe.f32	s12, s13
 1633 046e F1EE10FA 		vmrs	APSR_nzcv, FPSCR
 1634 0472 40F10E84 		bpl	.L328
 1635              		.loc 1 458 0
 1636 0476 D4ED166A 		vldr.32	s13, [r4, #88]
 1637 047a 77EEA67A 		vadd.f32	s15, s15, s13
 1638              	.LVL73:
 1639              	.L158:
 1640              		.loc 1 463 0
 1641 047e C64B     		ldr	r3, .L365+32
 1642 0480 C64A     		ldr	r2, .L365+36
 1643 0482 D3ED005A 		vldr.32	s11, [r3]
 1644 0486 92ED006A 		vldr.32	s12, [r2]
 1645 048a 77EEE56A 		vsub.f32	s13, s15, s11
 1646 048e B0EEE65A 		vabs.f32	s10, s13
 1647 0492 B4EEC65A 		vcmpe.f32	s10, s12
 1648 0496 F1EE10FA 		vmrs	APSR_nzcv, FPSCR
 1649 049a 00F16283 		bmi	.L348
 1650              		.loc 1 465 0
 1651 049e F5EEC06A 		vcmpe.f32	s13, #0
 1652 04a2 F1EE10FA 		vmrs	APSR_nzcv, FPSCR
 1653 04a6 40F35A83 		ble	.L330
ARM GAS  /tmp/ccIHdayg.s 			page 30


 1654              		.loc 1 466 0
 1655 04aa 75EE867A 		vadd.f32	s15, s11, s12
 1656              	.LVL74:
 1657 04ae C3ED007A 		vstr.32	s15, [r3]
 1658              	.L162:
 1659              		.loc 1 470 0
 1660 04b2 37EE278A 		vadd.f32	s16, s14, s15
 1661              	.LBE240:
 1662              	.LBE246:
 1663              	.LBB247:
 1664              	.LBB248:
 1665              		.loc 1 475 0
 1666 04b6 D4ED337A 		vldr.32	s15, [r4, #204]
 1667 04ba B94B     		ldr	r3, .L365+40
 1668              	.LBE248:
 1669              	.LBE247:
 1670              	.LBB262:
 1671              	.LBB241:
 1672              		.loc 1 470 0
 1673 04bc 86ED008A 		vstr.32	s16, [r6]
 1674              	.LBE241:
 1675              	.LBE262:
 1676              	.LBB263:
 1677              	.LBB255:
 1678              		.loc 1 475 0
 1679 04c0 F5EEC07A 		vcmpe.f32	s15, #0
 1680 04c4 F1EE10FA 		vmrs	APSR_nzcv, FPSCR
 1681 04c8 D3ED006A 		vldr.32	s13, [r3]
 1682 04cc 40F37684 		ble	.L331
 1683              	.LVL75:
 1684              	.LBB249:
 1685              	.LBB250:
 1686              		.loc 1 142 0
 1687 04d0 B44B     		ldr	r3, .L365+44
 1688              	.LBE250:
 1689              	.LBE249:
 1690              		.loc 1 476 0
 1691 04d2 B54A     		ldr	r2, .L365+48
 1692              	.LBB253:
 1693              	.LBB251:
 1694              		.loc 1 142 0
 1695 04d4 D3ED05AA 		vldr.32	s21, [r3, #20]
 1696 04d8 D3ED004A 		vldr.32	s9, [r3]
 1697              		.loc 1 143 0
 1698 04dc 93ED067A 		vldr.32	s14, [r3, #24]
 1699 04e0 93ED015A 		vldr.32	s10, [r3, #4]
 1700              		.loc 1 144 0
 1701 04e4 D3ED047A 		vldr.32	s15, [r3, #16]
 1702              		.loc 1 143 0
 1703 04e8 D3ED035A 		vldr.32	s11, [r3, #12]
 1704              		.loc 1 144 0
 1705 04ec 93ED026A 		vldr.32	s12, [r3, #8]
 1706              		.loc 1 142 0
 1707 04f0 E4EEA6AA 		vfma.f32	s21, s9, s13
 1708              	.LVL76:
 1709              		.loc 1 143 0
 1710 04f4 A5EE267A 		vfma.f32	s14, s10, s13
ARM GAS  /tmp/ccIHdayg.s 			page 31


 1711              		.loc 1 144 0
 1712 04f8 67EEEA7A 		vnmul.f32	s15, s15, s21
 1713              		.loc 1 143 0
 1714 04fc AAEEE57A 		vfms.f32	s14, s21, s11
 1715              		.loc 1 144 0
 1716 0500 E6EE267A 		vfma.f32	s15, s12, s13
 1717              		.loc 1 143 0
 1718 0504 83ED057A 		vstr.32	s14, [r3, #20]
 1719              	.LBE251:
 1720              	.LBE253:
 1721              		.loc 1 476 0
 1722 0508 C2ED00AA 		vstr.32	s21, [r2]
 1723              	.LBB254:
 1724              	.LBB252:
 1725              		.loc 1 144 0
 1726 050c C3ED067A 		vstr.32	s15, [r3, #24]
 1727              	.LVL77:
 1728              	.L167:
 1729              	.LBE252:
 1730              	.LBE254:
 1731              		.loc 1 486 0
 1732 0510 D4ED2E7A 		vldr.32	s15, [r4, #184]
 1733 0514 B0EEEA0A 		vabs.f32	s0, s21
 1734 0518 30EE670A 		vsub.f32	s0, s0, s15
 1735 051c F0EE490A 		vmov.f32	s1, s18
 1736 0520 FFF7FEFF 		bl	fmaxf
 1737              	.LVL78:
 1738 0524 D4ED327A 		vldr.32	s15, [r4, #200]
 1739 0528 D4ED2F0A 		vldr.32	s1, [r4, #188]
 1740 052c 20EE270A 		vmul.f32	s0, s0, s15
 1741 0530 FFF7FEFF 		bl	fminf
 1742              	.LVL79:
 1743              		.loc 1 489 0
 1744 0534 9D4B     		ldr	r3, .L365+52
 1745              		.loc 1 486 0
 1746 0536 F5EEC0AA 		vcmpe.f32	s21, #0
 1747 053a F1EE10FA 		vmrs	APSR_nzcv, FPSCR
 1748              		.loc 1 489 0
 1749 053e D3ED007A 		vldr.32	s15, [r3]
 1750 0542 48BF     		it	mi
 1751 0544 B1EE400A 		vnegmi.f32	s0, s0
 1752 0548 37EEC07A 		vsub.f32	s14, s15, s0
 1753 054c B5EEC07A 		vcmpe.f32	s14, #0
 1754 0550 F1EE10FA 		vmrs	APSR_nzcv, FPSCR
 1755 0554 40F30883 		ble	.L170
 1756 0558 B5EEC00A 		vcmpe.f32	s0, #0
 1757 055c F1EE10FA 		vmrs	APSR_nzcv, FPSCR
 1758 0560 40F30283 		ble	.L170
 1759              	.L172:
 1760              		.loc 1 490 0
 1761 0564 924A     		ldr	r2, .L365+56
 1762 0566 D2ED006A 		vldr.32	s13, [r2]
 1763              	.LVL80:
 1764              	.L176:
 1765              		.loc 1 495 0
 1766 056a 30EE677A 		vsub.f32	s14, s0, s15
 1767 056e B0EEC76A 		vabs.f32	s12, s14
ARM GAS  /tmp/ccIHdayg.s 			page 32


 1768 0572 B4EEE66A 		vcmpe.f32	s12, s13
 1769 0576 F1EE10FA 		vmrs	APSR_nzcv, FPSCR
 1770 057a 00F1E882 		bmi	.L349
 1771              		.loc 1 497 0
 1772 057e B5EEC07A 		vcmpe.f32	s14, #0
 1773 0582 F1EE10FA 		vmrs	APSR_nzcv, FPSCR
 1774 0586 40F3E082 		ble	.L333
 1775              		.loc 1 498 0
 1776 058a 37EEA60A 		vadd.f32	s0, s15, s13
 1777 058e 83ED000A 		vstr.32	s0, [r3]
 1778              	.L179:
 1779              	.LBE255:
 1780              	.LBE263:
 1781              	.LBB264:
 1782              	.LBB265:
 1783              		.loc 1 507 0
 1784 0592 884B     		ldr	r3, .L365+60
 1785 0594 D4ED347A 		vldr.32	s15, [r4, #208]
 1786 0598 93ED007A 		vldr.32	s14, [r3]
 1787              		.loc 1 510 0
 1788 059c 864B     		ldr	r3, .L365+64
 1789              		.loc 1 507 0
 1790 059e DFF84CB2 		ldr	fp, .L365+116
 1791              		.loc 1 510 0
 1792 05a2 D3ED006A 		vldr.32	s13, [r3]
 1793              	.LVL81:
 1794 05a6 94ED366A 		vldr.32	s12, [r4, #216]
 1795              		.loc 1 515 0
 1796 05aa B4F8DC30 		ldrh	r3, [r4, #220]
 1797              		.loc 1 507 0
 1798 05ae 67EE277A 		vmul.f32	s15, s14, s15
 1799              		.loc 1 510 0
 1800 05b2 B4EEE66A 		vcmpe.f32	s12, s13
 1801              		.loc 1 507 0
 1802 05b6 CBED007A 		vstr.32	s15, [fp]
 1803              		.loc 1 515 0
 1804 05ba 07EE903A 		vmov	s15, r3	@ int
 1805 05be 7F4B     		ldr	r3, .L365+68
 1806 05c0 F8EEE77A 		vcvt.f32.s32	s15, s15
 1807 05c4 D3ED006A 		vldr.32	s13, [r3]
 1808              		.loc 1 510 0
 1809 05c8 F1EE10FA 		vmrs	APSR_nzcv, FPSCR
 1810              	.LBE265:
 1811              	.LBE264:
 1812              	.LBB272:
 1813              	.LBB256:
 1814              		.loc 1 502 0
 1815 05cc 38EE008A 		vadd.f32	s16, s16, s0
 1816              	.LBE256:
 1817              	.LBE272:
 1818              	.LBB273:
 1819              	.LBB266:
 1820              		.loc 1 515 0
 1821 05d0 F4EEE67A 		vcmpe.f32	s15, s13
 1822              		.loc 1 511 0
 1823 05d4 C8BF     		it	gt
 1824 05d6 8BED009A 		vstrgt.32	s18, [fp]
ARM GAS  /tmp/ccIHdayg.s 			page 33


 1825              		.loc 1 515 0
 1826 05da F1EE10FA 		vmrs	APSR_nzcv, FPSCR
 1827              	.LBE266:
 1828              	.LBE273:
 1829              	.LBB274:
 1830              	.LBB257:
 1831              		.loc 1 502 0
 1832 05de 86ED008A 		vstr.32	s16, [r6]
 1833              	.LBE257:
 1834              	.LBE274:
 1835              	.LBB275:
 1836              	.LBB267:
 1837              		.loc 1 515 0
 1838 05e2 40F33283 		ble	.L334
 1839              		.loc 1 516 0
 1840 05e6 8BED009A 		vstr.32	s18, [fp]
 1841 05ea B0EE490A 		vmov.f32	s0, s18
 1842              	.L186:
 1843              		.loc 1 522 0
 1844 05ee B4F8E630 		ldrh	r3, [r4, #230]
 1845 05f2 07EE903A 		vmov	s15, r3	@ int
 1846 05f6 F8EEE77A 		vcvt.f32.s32	s15, s15
 1847              		.loc 1 523 0
 1848 05fa B4F8E430 		ldrh	r3, [r4, #228]
 1849              		.loc 1 522 0
 1850 05fe F4EEE76A 		vcmpe.f32	s13, s15
 1851 0602 F1EE10FA 		vmrs	APSR_nzcv, FPSCR
 1852 0606 40F13583 		bpl	.L335
 1853              		.loc 1 523 0
 1854 060a 07EE103A 		vmov	s14, r3	@ int
 1855 060e B4F8E630 		ldrh	r3, [r4, #230]
 1856 0612 DFED6B5A 		vldr.32	s11, .L365+72
 1857 0616 07EE903A 		vmov	s15, r3	@ int
 1858 061a B8EEC77A 		vcvt.f32.s32	s14, s14
 1859 061e F8EEE77A 		vcvt.f32.s32	s15, s15
 1860 0622 87EE256A 		vdiv.f32	s12, s14, s11
 1861 0626 86EEA77A 		vdiv.f32	s14, s13, s15
 1862 062a F7EE007A 		vmov.f32	s15, #1.0e+0
 1863 062e E6EE077A 		vfma.f32	s15, s12, s14
 1864 0632 27EE800A 		vmul.f32	s0, s15, s0
 1865              	.L191:
 1866              		.loc 1 529 0
 1867 0636 D4ED350A 		vldr.32	s1, [r4, #212]
 1868 063a FFF7FEFF 		bl	fminf
 1869              	.LVL82:
 1870              		.loc 1 532 0
 1871 063e 614B     		ldr	r3, .L365+76
 1872 0640 614A     		ldr	r2, .L365+80
 1873 0642 D3ED006A 		vldr.32	s13, [r3]
 1874 0646 92ED007A 		vldr.32	s14, [r2]
 1875              		.loc 1 529 0
 1876 064a 8BED000A 		vstr.32	s0, [fp]
 1877              		.loc 1 532 0
 1878 064e 70EE667A 		vsub.f32	s15, s0, s13
 1879 0652 B0EEE76A 		vabs.f32	s12, s15
 1880 0656 B4EEC76A 		vcmpe.f32	s12, s14
 1881 065a F1EE10FA 		vmrs	APSR_nzcv, FPSCR
ARM GAS  /tmp/ccIHdayg.s 			page 34


 1882 065e 00F17B82 		bmi	.L350
 1883              		.loc 1 534 0
 1884 0662 F5EEC07A 		vcmpe.f32	s15, #0
 1885 0666 F1EE10FA 		vmrs	APSR_nzcv, FPSCR
 1886 066a 40F37382 		ble	.L337
 1887              		.loc 1 535 0
 1888 066e 36EE870A 		vadd.f32	s0, s13, s14
 1889 0672 83ED000A 		vstr.32	s0, [r3]
 1890              	.L194:
 1891              	.LBE267:
 1892              	.LBE275:
 1893              	.LBB276:
 1894              	.LBB277:
 1895              		.loc 1 544 0
 1896 0676 D4ED1E7A 		vldr.32	s15, [r4, #120]
 1897              	.LBE277:
 1898              	.LBE276:
 1899              		.loc 1 710 0
 1900 067a D8ED006A 		vldr.32	s13, [r8]
 1901              	.LBB281:
 1902              	.LBB268:
 1903              		.loc 1 539 0
 1904 067e 38EE000A 		vadd.f32	s0, s16, s0
 1905              	.LBE268:
 1906              	.LBE281:
 1907              	.LBB282:
 1908              	.LBB278:
 1909              		.loc 1 544 0
 1910 0682 F5EE407A 		vcmp.f32	s15, #0
 1911 0686 F1EE10FA 		vmrs	APSR_nzcv, FPSCR
 1912              	.LBE278:
 1913              	.LBE282:
 1914              	.LBB283:
 1915              	.LBB269:
 1916              		.loc 1 539 0
 1917 068a 86ED000A 		vstr.32	s0, [r6]
 1918              	.LBE269:
 1919              	.LBE283:
 1920              		.loc 1 710 0
 1921 068e 30EE667A 		vsub.f32	s14, s0, s13
 1922              	.LVL83:
 1923              	.LBB284:
 1924              	.LBB279:
 1925              		.loc 1 544 0
 1926 0692 1CD0     		beq	.L351
 1927              		.loc 1 548 0
 1928 0694 D4ED1E7A 		vldr.32	s15, [r4, #120]
 1929 0698 B4EEE77A 		vcmpe.f32	s14, s15
 1930 069c F1EE10FA 		vmrs	APSR_nzcv, FPSCR
 1931 06a0 09D5     		bpl	.L199
 1932 06a2 D4ED1E7A 		vldr.32	s15, [r4, #120]
 1933 06a6 F1EE677A 		vneg.f32	s15, s15
 1934 06aa B4EEE77A 		vcmpe.f32	s14, s15
 1935 06ae F1EE10FA 		vmrs	APSR_nzcv, FPSCR
 1936 06b2 00F3D683 		bgt	.L241
 1937              	.L199:
 1938              		.loc 1 550 0
ARM GAS  /tmp/ccIHdayg.s 			page 35


 1939 06b6 D4ED1E7A 		vldr.32	s15, [r4, #120]
 1940 06ba B4EEE77A 		vcmpe.f32	s14, s15
 1941 06be F1EE10FA 		vmrs	APSR_nzcv, FPSCR
 1942              		.loc 1 551 0
 1943 06c2 D4ED1E7A 		vldr.32	s15, [r4, #120]
 1944              		.loc 1 550 0
 1945 06c6 40F3C783 		ble	.L338
 1946              		.loc 1 551 0
 1947 06ca 37EE677A 		vsub.f32	s14, s14, s15
 1948              	.LVL84:
 1949              	.L351:
 1950 06ce B0EEC75A 		vabs.f32	s10, s14
 1951              	.L198:
 1952              	.LVL85:
 1953              	.LBE279:
 1954              	.LBE284:
 1955              		.loc 1 714 0
 1956 06d2 3E49     		ldr	r1, .L365+84
 1957              		.loc 1 715 0
 1958 06d4 3E4B     		ldr	r3, .L365+88
 1959              		.loc 1 714 0
 1960 06d6 91ED000A 		vldr.32	s0, [r1]
 1961              		.loc 1 715 0
 1962 06da D3ED007A 		vldr.32	s15, [r3]
 1963              		.loc 1 718 0
 1964 06de B4F8A030 		ldrh	r3, [r4, #160]
 1965              		.loc 1 715 0
 1966 06e2 3C4A     		ldr	r2, .L365+92
 1967              		.loc 1 714 0
 1968 06e4 37EE000A 		vadd.f32	s0, s14, s0
 1969              		.loc 1 715 0
 1970 06e8 77EEE66A 		vsub.f32	s13, s15, s13
 1971              		.loc 1 718 0
 1972 06ec 9BB2     		uxth	r3, r3
 1973              		.loc 1 714 0
 1974 06ee 81ED000A 		vstr.32	s0, [r1]
 1975              		.loc 1 715 0
 1976 06f2 C2ED006A 		vstr.32	s13, [r2]
 1977              		.loc 1 718 0
 1978 06f6 7BB1     		cbz	r3, .L203
 1979              		.loc 1 719 0
 1980 06f8 374B     		ldr	r3, .L365+96
 1981 06fa 3849     		ldr	r1, .L365+100
 1982 06fc D3ED007A 		vldr.32	s15, [r3]
 1983 0700 91ED006A 		vldr.32	s12, [r1]
 1984 0704 76EEE76A 		vsub.f32	s13, s13, s15
 1985 0708 E6EE867A 		vfma.f32	s15, s13, s12
 1986 070c F0EE676A 		vmov.f32	s13, s15
 1987 0710 C3ED007A 		vstr.32	s15, [r3]
 1988              		.loc 1 720 0
 1989 0714 C2ED007A 		vstr.32	s15, [r2]
 1990              	.L203:
 1991              		.loc 1 722 0
 1992 0718 B4F8A230 		ldrh	r3, [r4, #162]
 1993 071c 9BB2     		uxth	r3, r3
 1994 071e 7BB1     		cbz	r3, .L204
 1995              		.loc 1 723 0
ARM GAS  /tmp/ccIHdayg.s 			page 36


 1996 0720 2F4B     		ldr	r3, .L365+104
 1997 0722 3049     		ldr	r1, .L365+108
 1998 0724 D3ED007A 		vldr.32	s15, [r3]
 1999 0728 91ED006A 		vldr.32	s12, [r1]
 2000 072c 76EEE75A 		vsub.f32	s11, s13, s15
 2001 0730 E5EE867A 		vfma.f32	s15, s11, s12
 2002              		.loc 1 724 0
 2003 0734 76EEE76A 		vsub.f32	s13, s13, s15
 2004              		.loc 1 723 0
 2005 0738 C3ED007A 		vstr.32	s15, [r3]
 2006              		.loc 1 724 0
 2007 073c C2ED006A 		vstr.32	s13, [r2]
 2008              	.L204:
 2009              		.loc 1 726 0
 2010 0740 D4ED297A 		vldr.32	s15, [r4, #164]
 2011 0744 F5EEC07A 		vcmpe.f32	s15, #0
 2012 0748 F1EE10FA 		vmrs	APSR_nzcv, FPSCR
 2013 074c 5EDD     		ble	.L205
 2014              	.LVL86:
 2015              	.LBB285:
 2016              	.LBB286:
 2017              		.loc 1 142 0
 2018 074e 264B     		ldr	r3, .L365+112
 2019 0750 D3ED057A 		vldr.32	s15, [r3, #20]
 2020 0754 93ED003A 		vldr.32	s6, [r3]
 2021              		.loc 1 143 0
 2022 0758 D3ED065A 		vldr.32	s11, [r3, #24]
 2023 075c D3ED013A 		vldr.32	s7, [r3, #4]
 2024              		.loc 1 144 0
 2025 0760 93ED046A 		vldr.32	s12, [r3, #16]
 2026              		.loc 1 143 0
 2027 0764 93ED034A 		vldr.32	s8, [r3, #12]
 2028              		.loc 1 144 0
 2029 0768 D3ED024A 		vldr.32	s9, [r3, #8]
 2030              		.loc 1 142 0
 2031 076c E3EE267A 		vfma.f32	s15, s6, s13
 2032              	.LVL87:
 2033              		.loc 1 143 0
 2034 0770 E3EEA65A 		vfma.f32	s11, s7, s13
 2035 0774 3CE0     		b	.L366
 2036              	.L367:
 2037 0776 00BF     		.align	2
 2038              	.L365:
 2039 0778 00000000 		.word	.LANCHOR17
 2040 077c 00000000 		.word	.LANCHOR9
 2041 0780 00000000 		.word	.LANCHOR10
 2042 0784 00000000 		.word	.LANCHOR32
 2043 0788 00000000 		.word	.LANCHOR38
 2044 078c 00000000 		.word	.LANCHOR19
 2045 0790 00000000 		.word	.LANCHOR52
 2046 0794 00000000 		.word	.LANCHOR8
 2047 0798 00000000 		.word	.LANCHOR11
 2048 079c 00000000 		.word	.LANCHOR54
 2049 07a0 00000000 		.word	.LANCHOR37
 2050 07a4 00000000 		.word	.LANCHOR14
 2051 07a8 00000000 		.word	.LANCHOR13
 2052 07ac 00000000 		.word	.LANCHOR12
ARM GAS  /tmp/ccIHdayg.s 			page 37


 2053 07b0 00000000 		.word	.LANCHOR55
 2054 07b4 00000000 		.word	.LANCHOR46
 2055 07b8 00000000 		.word	.LANCHOR45
 2056 07bc 00000000 		.word	.LANCHOR27
 2057 07c0 0000C842 		.word	1120403456
 2058 07c4 00000000 		.word	.LANCHOR16
 2059 07c8 00000000 		.word	.LANCHOR57
 2060 07cc 00000000 		.word	.LANCHOR0
 2061 07d0 00000000 		.word	.LANCHOR36
 2062 07d4 00000000 		.word	.LANCHOR35
 2063 07d8 00000000 		.word	.LANCHOR3
 2064 07dc 00000000 		.word	.LANCHOR58
 2065 07e0 00000000 		.word	.LANCHOR4
 2066 07e4 00000000 		.word	.LANCHOR59
 2067 07e8 00000000 		.word	.LANCHOR5
 2068 07ec 00000000 		.word	.LANCHOR15
 2069              	.L366:
 2070              		.loc 1 144 0
 2071 07f0 26EE676A 		vnmul.f32	s12, s12, s15
 2072              		.loc 1 143 0
 2073 07f4 E7EEC45A 		vfms.f32	s11, s15, s8
 2074              		.loc 1 144 0
 2075 07f8 A4EEA66A 		vfma.f32	s12, s9, s13
 2076              	.LBE286:
 2077              	.LBE285:
 2078              		.loc 1 727 0
 2079 07fc C2ED007A 		vstr.32	s15, [r2]
 2080              	.LVL88:
 2081 0800 F0EE676A 		vmov.f32	s13, s15
 2082              	.LBB288:
 2083              	.LBB287:
 2084              		.loc 1 143 0
 2085 0804 C3ED055A 		vstr.32	s11, [r3, #20]
 2086              		.loc 1 144 0
 2087 0808 83ED066A 		vstr.32	s12, [r3, #24]
 2088              	.LVL89:
 2089              	.L205:
 2090              	.LBE287:
 2091              	.LBE288:
 2092              		.loc 1 729 0
 2093 080c D4ED2A7A 		vldr.32	s15, [r4, #168]
 2094 0810 F5EEC07A 		vcmpe.f32	s15, #0
 2095 0814 F1EE10FA 		vmrs	APSR_nzcv, FPSCR
 2096 0818 20DD     		ble	.L207
 2097              	.LVL90:
 2098              	.LBB289:
 2099              	.LBB290:
 2100              		.loc 1 142 0
 2101 081a D84B     		ldr	r3, .L368
 2102 081c D3ED057A 		vldr.32	s15, [r3, #20]
 2103 0820 93ED003A 		vldr.32	s6, [r3]
 2104              		.loc 1 143 0
 2105 0824 D3ED065A 		vldr.32	s11, [r3, #24]
 2106 0828 D3ED013A 		vldr.32	s7, [r3, #4]
 2107              		.loc 1 144 0
 2108 082c 93ED046A 		vldr.32	s12, [r3, #16]
 2109              		.loc 1 143 0
ARM GAS  /tmp/ccIHdayg.s 			page 38


 2110 0830 93ED034A 		vldr.32	s8, [r3, #12]
 2111              		.loc 1 144 0
 2112 0834 D3ED024A 		vldr.32	s9, [r3, #8]
 2113              		.loc 1 142 0
 2114 0838 E3EE267A 		vfma.f32	s15, s6, s13
 2115              	.LVL91:
 2116              		.loc 1 143 0
 2117 083c E3EEA65A 		vfma.f32	s11, s7, s13
 2118              		.loc 1 144 0
 2119 0840 26EE676A 		vnmul.f32	s12, s12, s15
 2120              		.loc 1 143 0
 2121 0844 E7EEC45A 		vfms.f32	s11, s15, s8
 2122              		.loc 1 144 0
 2123 0848 A4EEA66A 		vfma.f32	s12, s9, s13
 2124              	.LBE290:
 2125              	.LBE289:
 2126              		.loc 1 730 0
 2127 084c C2ED007A 		vstr.32	s15, [r2]
 2128              	.LVL92:
 2129 0850 F0EE676A 		vmov.f32	s13, s15
 2130              	.LBB292:
 2131              	.LBB291:
 2132              		.loc 1 143 0
 2133 0854 C3ED055A 		vstr.32	s11, [r3, #20]
 2134              		.loc 1 144 0
 2135 0858 83ED066A 		vstr.32	s12, [r3, #24]
 2136              	.LVL93:
 2137              	.L207:
 2138              	.LBE291:
 2139              	.LBE292:
 2140              		.loc 1 733 0
 2141 085c D4ED004A 		vldr.32	s9, [r4]
 2142 0860 D4ED017A 		vldr.32	s15, [r4, #4]
 2143 0864 D4ED025A 		vldr.32	s11, [r4, #8]
 2144              		.loc 1 739 0
 2145 0868 94ED2B6A 		vldr.32	s12, [r4, #172]
 2146              		.loc 1 733 0
 2147 086c C44B     		ldr	r3, .L368+4
 2148 086e 20EE270A 		vmul.f32	s0, s0, s15
 2149              		.loc 1 739 0
 2150 0872 B4EEC56A 		vcmpe.f32	s12, s10
 2151              		.loc 1 733 0
 2152 0876 A4EE870A 		vfma.f32	s0, s9, s14
 2153              		.loc 1 739 0
 2154 087a F1EE10FA 		vmrs	APSR_nzcv, FPSCR
 2155              		.loc 1 733 0
 2156 087e A5EEA60A 		vfma.f32	s0, s11, s13
 2157 0882 83ED000A 		vstr.32	s0, [r3]
 2158              		.loc 1 739 0
 2159 0886 20D5     		bpl	.L209
 2160              		.loc 1 740 0
 2161 0888 D4ED2B7A 		vldr.32	s15, [r4, #172]
 2162 088c D4ED2C6A 		vldr.32	s13, [r4, #176]
 2163 0890 75EE677A 		vsub.f32	s15, s10, s15
 2164 0894 F4EEE67A 		vcmpe.f32	s15, s13
 2165 0898 F1EE10FA 		vmrs	APSR_nzcv, FPSCR
 2166 089c 40F19A82 		bpl	.L339
ARM GAS  /tmp/ccIHdayg.s 			page 39


 2167              		.loc 1 741 0
 2168 08a0 D4ED2D6A 		vldr.32	s13, [r4, #180]
 2169 08a4 D4ED2B7A 		vldr.32	s15, [r4, #172]
 2170 08a8 94ED2C6A 		vldr.32	s12, [r4, #176]
 2171 08ac 75EE677A 		vsub.f32	s15, s10, s15
 2172 08b0 B5EEC07A 		vcmpe.f32	s14, #0
 2173 08b4 87EE867A 		vdiv.f32	s14, s15, s12
 2174 08b8 F1EE10FA 		vmrs	APSR_nzcv, FPSCR
 2175 08bc 48BF     		it	mi
 2176 08be F1EE666A 		vnegmi.f32	s13, s13
 2177 08c2 A7EE260A 		vfma.f32	s0, s14, s13
 2178 08c6 83ED000A 		vstr.32	s0, [r3]
 2179              	.L209:
 2180              		.loc 1 748 0
 2181 08ca 94F87C30 		ldrb	r3, [r4, #124]	@ zero_extendqisi2
 2182 08ce 002B     		cmp	r3, #0
 2183 08d0 40F07681 		bne	.L217
 2184 08d4 AB4B     		ldr	r3, .L368+8
 2185 08d6 D3ED000A 		vldr.32	s1, [r3]
 2186              	.L218:
 2187              		.loc 1 774 0
 2188 08da FFF7FEFF 		bl	set_current
 2189              	.LVL94:
 2190              		.loc 1 775 0
 2191 08de 79E4     		b	.L116
 2192              	.L106:
 2193              		.loc 1 658 0
 2194 08e0 94ED087A 		vldr.32	s14, [r4, #32]
 2195 08e4 B5EE407A 		vcmp.f32	s14, #0
 2196 08e8 F1EE10FA 		vmrs	APSR_nzcv, FPSCR
 2197 08ec 11D1     		bne	.L108
 2198              		.loc 1 659 0
 2199 08ee D4ED077A 		vldr.32	s15, [r4, #28]
 2200 08f2 F4EEE76A 		vcmpe.f32	s13, s15
 2201 08f6 F1EE10FA 		vmrs	APSR_nzcv, FPSCR
 2202 08fa 3FF751AC 		bgt	.L109
 2203              	.L111:
 2204              		.loc 1 662 0
 2205 08fe A24A     		ldr	r2, .L368+12
 2206 0900 0023     		movs	r3, #0
 2207 0902 1370     		strb	r3, [r2]
 2208 0904 4FE4     		b	.L107
 2209              	.L239:
 2210 0906 F0EE497A 		vmov.f32	s15, s18
 2211 090a B0EE498A 		vmov.f32	s16, s18
 2212 090e FFF7A3BB 		b	.L100
 2213              	.L108:
 2214              		.loc 1 664 0
 2215 0912 94ED077A 		vldr.32	s14, [r4, #28]
 2216 0916 B5EE407A 		vcmp.f32	s14, #0
 2217 091a F1EE10FA 		vmrs	APSR_nzcv, FPSCR
 2218 091e 40F0C480 		bne	.L110
 2219              		.loc 1 665 0
 2220 0922 94ED087A 		vldr.32	s14, [r4, #32]
 2221 0926 F4EEC77A 		vcmpe.f32	s15, s14
 2222 092a F1EE10FA 		vmrs	APSR_nzcv, FPSCR
 2223 092e 3FF737AC 		bgt	.L109
ARM GAS  /tmp/ccIHdayg.s 			page 40


 2224 0932 E4E7     		b	.L111
 2225              	.L353:
 2226              		.loc 1 639 0
 2227 0934 DFF884B2 		ldr	fp, .L368+64
 2228              	.LBB293:
 2229              	.LBB167:
 2230              		.loc 1 642 0
 2231 0938 9FED948A 		vldr.32	s16, .L368+16
 2232              	.LBE167:
 2233              	.LBE293:
 2234              		.loc 1 639 0
 2235 093c 8BED000A 		vstr.32	s0, [fp]
 2236              	.LVL95:
 2237              	.LBB294:
 2238              		.loc 1 640 0
 2239 0940 0026     		movs	r6, #0
 2240              	.LVL96:
 2241              	.L105:
 2242              	.LBB168:
 2243              		.loc 1 641 0
 2244 0942 3046     		mov	r0, r6
 2245 0944 FFF7FEFF 		bl	comm_can_get_status_msg_index
 2246              	.LVL97:
 2247              		.loc 1 642 0
 2248 0948 0368     		ldr	r3, [r0]
 2249 094a 002B     		cmp	r3, #0
 2250              	.LBE168:
 2251              		.loc 1 640 0
 2252 094c 06F10106 		add	r6, r6, #1
 2253              	.LVL98:
 2254              	.LBB169:
 2255              		.loc 1 642 0
 2256 0950 15DB     		blt	.L103
 2257              	.LBB163:
 2258              	.LBB164:
 2259              	.LBB165:
 2260              	.LBB166:
 2261              		.loc 2 231 0 discriminator 1
 2262 0952 AB6A     		ldr	r3, [r5, #40]
 2263              	.LVL99:
 2264              	.LBE166:
 2265              	.LBE165:
 2266              		.loc 2 267 0 discriminator 1
 2267 0954 4268     		ldr	r2, [r0, #4]
 2268 0956 9B1A     		subs	r3, r3, r2
 2269              	.LBE164:
 2270              	.LBE163:
 2271              		.loc 1 642 0 discriminator 1
 2272 0958 07EE903A 		vmov	s15, r3	@ int
 2273 095c F8EE677A 		vcvt.f32.u32	s15, s15
 2274 0960 87EEA87A 		vdiv.f32	s14, s15, s17
 2275 0964 B4EEC87A 		vcmpe.f32	s14, s16
 2276 0968 F1EE10FA 		vmrs	APSR_nzcv, FPSCR
 2277 096c 07D5     		bpl	.L103
 2278              		.loc 1 643 0
 2279 096e DBED007A 		vldr.32	s15, [fp]
 2280 0972 90ED027A 		vldr.32	s14, [r0, #8]
ARM GAS  /tmp/ccIHdayg.s 			page 41


 2281 0976 77EE277A 		vadd.f32	s15, s14, s15
 2282 097a CBED007A 		vstr.32	s15, [fp]
 2283              	.L103:
 2284              	.LBE169:
 2285              		.loc 1 640 0 discriminator 2
 2286 097e 0A2E     		cmp	r6, #10
 2287 0980 DFD1     		bne	.L105
 2288              	.LBE294:
 2289              		.loc 1 646 0
 2290 0982 9BED007A 		vldr.32	s14, [fp]
 2291 0986 F6EE007A 		vmov.f32	s15, #5.0e-1
 2292 098a 67EE277A 		vmul.f32	s15, s14, s15
 2293 098e CBED007A 		vstr.32	s15, [fp]
 2294 0992 FFF7D8BB 		b	.L102
 2295              	.LVL100:
 2296              	.L358:
 2297              	.LBB295:
 2298              	.LBB176:
 2299              		.loc 1 940 0
 2300 0996 0420     		movs	r0, #4
 2301 0998 FFF7FEFF 		bl	commands_plot_set_graph
 2302              	.LVL101:
 2303              		.loc 1 941 0
 2304 099c 7C4B     		ldr	r3, .L368+20
 2305 099e 1868     		ldr	r0, [r3]
 2306 09a0 FFF7FEFF 		bl	app_balance_get_debug
 2307              	.LVL102:
 2308 09a4 3B68     		ldr	r3, [r7]
 2309 09a6 7B4A     		ldr	r2, .L368+24
 2310 09a8 4FF47A70 		mov	r0, #1000
 2311 09ac 42F20F71 		movw	r1, #9999
 2312 09b0 00FB0313 		mla	r3, r0, r3, r1
 2313 09b4 A2FB0323 		umull	r2, r3, r2, r3
 2314 09b8 5B0B     		lsrs	r3, r3, #13
 2315 09ba 07EE903A 		vmov	s15, r3	@ int
 2316 09be F0EE400A 		vmov.f32	s1, s0
 2317 09c2 B8EEE70A 		vcvt.f32.s32	s0, s15
 2318 09c6 FFF7FEFF 		bl	commands_send_plot_points
 2319              	.LVL103:
 2320 09ca 34E4     		b	.L236
 2321              	.L357:
 2322              		.loc 1 936 0
 2323 09cc 0320     		movs	r0, #3
 2324 09ce FFF7FEFF 		bl	commands_plot_set_graph
 2325              	.LVL104:
 2326              		.loc 1 937 0
 2327 09d2 714B     		ldr	r3, .L368+28
 2328 09d4 1868     		ldr	r0, [r3]
 2329 09d6 FFF7FEFF 		bl	app_balance_get_debug
 2330              	.LVL105:
 2331 09da 3B68     		ldr	r3, [r7]
 2332 09dc 6D4A     		ldr	r2, .L368+24
 2333 09de 4FF47A70 		mov	r0, #1000
 2334 09e2 42F20F71 		movw	r1, #9999
 2335 09e6 00FB0313 		mla	r3, r0, r3, r1
 2336 09ea A2FB0323 		umull	r2, r3, r2, r3
 2337 09ee 5B0B     		lsrs	r3, r3, #13
ARM GAS  /tmp/ccIHdayg.s 			page 42


 2338 09f0 07EE903A 		vmov	s15, r3	@ int
 2339 09f4 F0EE400A 		vmov.f32	s1, s0
 2340 09f8 B8EEE70A 		vcvt.f32.s32	s0, s15
 2341 09fc FFF7FEFF 		bl	commands_send_plot_points
 2342              	.LVL106:
 2343 0a00 14E4     		b	.L235
 2344              	.L356:
 2345              		.loc 1 932 0
 2346 0a02 0220     		movs	r0, #2
 2347 0a04 FFF7FEFF 		bl	commands_plot_set_graph
 2348              	.LVL107:
 2349              		.loc 1 933 0
 2350 0a08 644B     		ldr	r3, .L368+32
 2351 0a0a 1868     		ldr	r0, [r3]
 2352 0a0c FFF7FEFF 		bl	app_balance_get_debug
 2353              	.LVL108:
 2354 0a10 3B68     		ldr	r3, [r7]
 2355 0a12 604A     		ldr	r2, .L368+24
 2356 0a14 4FF47A70 		mov	r0, #1000
 2357 0a18 42F20F71 		movw	r1, #9999
 2358 0a1c 00FB0313 		mla	r3, r0, r3, r1
 2359 0a20 A2FB0323 		umull	r2, r3, r2, r3
 2360 0a24 5B0B     		lsrs	r3, r3, #13
 2361 0a26 07EE903A 		vmov	s15, r3	@ int
 2362 0a2a F0EE400A 		vmov.f32	s1, s0
 2363 0a2e B8EEE70A 		vcvt.f32.s32	s0, s15
 2364 0a32 FFF7FEFF 		bl	commands_send_plot_points
 2365              	.LVL109:
 2366 0a36 FFF7F4BB 		b	.L234
 2367              	.L355:
 2368              		.loc 1 928 0
 2369 0a3a 0120     		movs	r0, #1
 2370 0a3c FFF7FEFF 		bl	commands_plot_set_graph
 2371              	.LVL110:
 2372              		.loc 1 929 0
 2373 0a40 574B     		ldr	r3, .L368+36
 2374 0a42 1868     		ldr	r0, [r3]
 2375 0a44 FFF7FEFF 		bl	app_balance_get_debug
 2376              	.LVL111:
 2377 0a48 3B68     		ldr	r3, [r7]
 2378 0a4a 524A     		ldr	r2, .L368+24
 2379 0a4c 4FF47A70 		mov	r0, #1000
 2380 0a50 42F20F71 		movw	r1, #9999
 2381 0a54 00FB0313 		mla	r3, r0, r3, r1
 2382 0a58 A2FB0323 		umull	r2, r3, r2, r3
 2383 0a5c 5B0B     		lsrs	r3, r3, #13
 2384 0a5e 07EE903A 		vmov	s15, r3	@ int
 2385 0a62 F0EE400A 		vmov.f32	s1, s0
 2386 0a66 B8EEE70A 		vcvt.f32.s32	s0, s15
 2387 0a6a FFF7FEFF 		bl	commands_send_plot_points
 2388              	.LVL112:
 2389 0a6e FFF7D3BB 		b	.L233
 2390              	.L354:
 2391              		.loc 1 924 0
 2392 0a72 0020     		movs	r0, #0
 2393 0a74 FFF7FEFF 		bl	commands_plot_set_graph
 2394              	.LVL113:
ARM GAS  /tmp/ccIHdayg.s 			page 43


 2395              		.loc 1 925 0
 2396 0a78 4A4B     		ldr	r3, .L368+40
 2397 0a7a 1868     		ldr	r0, [r3]
 2398 0a7c FFF7FEFF 		bl	app_balance_get_debug
 2399              	.LVL114:
 2400 0a80 3B68     		ldr	r3, [r7]
 2401 0a82 444A     		ldr	r2, .L368+24
 2402 0a84 4FF47A70 		mov	r0, #1000
 2403 0a88 42F20F71 		movw	r1, #9999
 2404 0a8c 00FB0313 		mla	r3, r0, r3, r1
 2405 0a90 A2FB0323 		umull	r2, r3, r2, r3
 2406 0a94 5B0B     		lsrs	r3, r3, #13
 2407 0a96 07EE903A 		vmov	s15, r3	@ int
 2408 0a9a F0EE400A 		vmov.f32	s1, s0
 2409 0a9e B8EEE70A 		vcvt.f32.s32	s0, s15
 2410 0aa2 FFF7FEFF 		bl	commands_send_plot_points
 2411              	.LVL115:
 2412 0aa6 FFF7B2BB 		b	.L232
 2413              	.L110:
 2414              	.LBE176:
 2415              	.LBE295:
 2416              		.loc 1 671 0
 2417 0aaa 94ED077A 		vldr.32	s14, [r4, #28]
 2418 0aae F4EEC76A 		vcmpe.f32	s13, s14
 2419 0ab2 F1EE10FA 		vmrs	APSR_nzcv, FPSCR
 2420 0ab6 07DD     		ble	.L112
 2421              		.loc 1 671 0 is_stmt 0 discriminator 1
 2422 0ab8 94ED087A 		vldr.32	s14, [r4, #32]
 2423 0abc F4EEC77A 		vcmpe.f32	s15, s14
 2424 0ac0 F1EE10FA 		vmrs	APSR_nzcv, FPSCR
 2425 0ac4 3FF76CAB 		bgt	.L109
 2426              	.L112:
 2427              		.loc 1 673 0 is_stmt 1
 2428 0ac8 94ED077A 		vldr.32	s14, [r4, #28]
 2429 0acc F4EEC76A 		vcmpe.f32	s13, s14
 2430 0ad0 F1EE10FA 		vmrs	APSR_nzcv, FPSCR
 2431 0ad4 04DD     		ble	.L360
 2432              		.loc 1 674 0
 2433 0ad6 2C4A     		ldr	r2, .L368+12
 2434 0ad8 0123     		movs	r3, #1
 2435 0ada 1370     		strb	r3, [r2]
 2436 0adc FFF763BB 		b	.L107
 2437              	.L360:
 2438              		.loc 1 673 0 discriminator 1
 2439 0ae0 94ED087A 		vldr.32	s14, [r4, #32]
 2440 0ae4 F4EEC77A 		vcmpe.f32	s15, s14
 2441 0ae8 F1EE10FA 		vmrs	APSR_nzcv, FPSCR
 2442 0aec 7FF707AF 		ble	.L111
 2443              		.loc 1 674 0
 2444 0af0 254A     		ldr	r2, .L368+12
 2445 0af2 0123     		movs	r3, #1
 2446 0af4 1370     		strb	r3, [r2]
 2447 0af6 FFF756BB 		b	.L107
 2448              	.L319:
 2449              	.LBB296:
 2450              	.LBB183:
 2451              		.loc 1 401 0
ARM GAS  /tmp/ccIHdayg.s 			page 44


 2452 0afa 2B49     		ldr	r1, .L368+44
 2453 0afc D1ED007A 		vldr.32	s15, [r1]
 2454 0b00 F4EE477A 		vcmp.f32	s15, s14
 2455 0b04 F1EE10FA 		vmrs	APSR_nzcv, FPSCR
 2456 0b08 3FF46BAC 		beq	.L124
 2457              	.LBE183:
 2458              	.LBE296:
 2459              	.LBB297:
 2460              	.LBB219:
 2461              	.LBB197:
 2462              	.LBB198:
 2463              		.loc 1 329 0
 2464 0b0c 2749     		ldr	r1, .L368+48
 2465              	.LBE198:
 2466              	.LBE197:
 2467              		.loc 1 438 0
 2468 0b0e 37EEC76A 		vsub.f32	s12, s15, s14
 2469              	.LBB208:
 2470              	.LBB199:
 2471              		.loc 1 329 0
 2472 0b12 D1ED006A 		vldr.32	s13, [r1]
 2473              	.LBE199:
 2474              	.LBE208:
 2475              	.LBE219:
 2476              	.LBE297:
 2477              	.LBB298:
 2478              	.LBB184:
 2479              		.loc 1 403 0
 2480 0b16 2649     		ldr	r1, .L368+52
 2481 0b18 0123     		movs	r3, #1
 2482              	.LBE184:
 2483              	.LBE298:
 2484              	.LBB299:
 2485              	.LBB220:
 2486              		.loc 1 438 0
 2487 0b1a F0EEC65A 		vabs.f32	s11, s12
 2488              	.LBE220:
 2489              	.LBE299:
 2490              	.LBB300:
 2491              	.LBB185:
 2492              		.loc 1 403 0
 2493 0b1e 0B70     		strb	r3, [r1]
 2494              	.L125:
 2495              	.LBE185:
 2496              	.LBE300:
 2497              	.LBB301:
 2498              	.LBB221:
 2499              		.loc 1 438 0
 2500 0b20 F4EEE56A 		vcmpe.f32	s13, s11
 2501 0b24 F1EE10FA 		vmrs	APSR_nzcv, FPSCR
 2502 0b28 00F34F81 		bgt	.L361
 2503              		.loc 1 440 0
 2504 0b2c B5EEC06A 		vcmpe.f32	s12, #0
 2505 0b30 F1EE10FA 		vmrs	APSR_nzcv, FPSCR
 2506              		.loc 1 441 0
 2507 0b34 CCBF     		ite	gt
 2508 0b36 37EE267A 		vaddgt.f32	s14, s14, s13
ARM GAS  /tmp/ccIHdayg.s 			page 45


 2509              		.loc 1 443 0
 2510 0b3a 37EE667A 		vsuble.f32	s14, s14, s13
 2511 0b3e 1D4B     		ldr	r3, .L368+56
 2512 0b40 82ED007A 		vstr.32	s14, [r2]
 2513 0b44 D3ED006A 		vldr.32	s13, [r3]
 2514 0b48 70E4     		b	.L132
 2515              	.LVL116:
 2516              	.L333:
 2517              	.LBE221:
 2518              	.LBE301:
 2519              	.LBB302:
 2520              	.LBB258:
 2521              		.loc 1 500 0
 2522 0b4a 37EEE60A 		vsub.f32	s0, s15, s13
 2523              	.L349:
 2524 0b4e 83ED000A 		vstr.32	s0, [r3]
 2525 0b52 1EE5     		b	.L179
 2526              	.LVL117:
 2527              	.L337:
 2528              	.LBE258:
 2529              	.LBE302:
 2530              	.LBB303:
 2531              	.LBB270:
 2532              		.loc 1 537 0
 2533 0b54 36EEC70A 		vsub.f32	s0, s13, s14
 2534              	.L350:
 2535 0b58 83ED000A 		vstr.32	s0, [r3]
 2536 0b5c 8BE5     		b	.L194
 2537              	.LVL118:
 2538              	.L330:
 2539              	.LBE270:
 2540              	.LBE303:
 2541              	.LBB304:
 2542              	.LBB242:
 2543              		.loc 1 468 0
 2544 0b5e 75EEC67A 		vsub.f32	s15, s11, s12
 2545              	.LVL119:
 2546              	.L348:
 2547 0b62 C3ED007A 		vstr.32	s15, [r3]
 2548 0b66 A4E4     		b	.L162
 2549              	.L170:
 2550              	.LBE242:
 2551              	.LBE304:
 2552              	.LBB305:
 2553              	.LBB259:
 2554              		.loc 1 489 0
 2555 0b68 B5EEC07A 		vcmpe.f32	s14, #0
 2556 0b6c F1EE10FA 		vmrs	APSR_nzcv, FPSCR
 2557 0b70 00F16A81 		bmi	.L362
 2558              	.L173:
 2559              		.loc 1 492 0
 2560 0b74 104A     		ldr	r2, .L368+60
 2561 0b76 D2ED006A 		vldr.32	s13, [r2]
 2562              	.LVL120:
 2563 0b7a F6E4     		b	.L176
 2564              	.L369:
 2565              		.align	2
ARM GAS  /tmp/ccIHdayg.s 			page 46


 2566              	.L368:
 2567 0b7c 00000000 		.word	.LANCHOR6
 2568 0b80 00000000 		.word	.LANCHOR60
 2569 0b84 00000000 		.word	.LANCHOR61
 2570 0b88 00000000 		.word	.LANCHOR24
 2571 0b8c CDCCCC3D 		.word	1036831949
 2572 0b90 00000000 		.word	.LANCHOR69
 2573 0b94 5917B7D1 		.word	-776530087
 2574 0b98 00000000 		.word	.LANCHOR68
 2575 0b9c 00000000 		.word	.LANCHOR67
 2576 0ba0 00000000 		.word	.LANCHOR66
 2577 0ba4 00000000 		.word	.LANCHOR65
 2578 0ba8 00000000 		.word	.LANCHOR10
 2579 0bac 00000000 		.word	.LANCHOR51
 2580 0bb0 00000000 		.word	.LANCHOR19
 2581 0bb4 00000000 		.word	.LANCHOR38
 2582 0bb8 00000000 		.word	.LANCHOR56
 2583 0bbc 00000000 		.word	.LANCHOR48
 2584              	.LVL121:
 2585              	.L217:
 2586              	.LBE259:
 2587              	.LBE305:
 2588              		.loc 1 750 0
 2589 0bc0 B34B     		ldr	r3, .L370
 2590 0bc2 DFEDB47A 		vldr.32	s15, .L370+4
 2591 0bc6 93ED007A 		vldr.32	s14, [r3]
 2592 0bca B4EEE77A 		vcmpe.f32	s14, s15
 2593 0bce F1EE10FA 		vmrs	APSR_nzcv, FPSCR
 2594 0bd2 40F11E81 		bpl	.L340
 2595              		.loc 1 751 0
 2596 0bd6 B04B     		ldr	r3, .L370+8
 2597 0bd8 F0EE497A 		vmov.f32	s15, s18
 2598 0bdc 83ED009A 		vstr.32	s18, [r3]
 2599              	.L221:
 2600              		.loc 1 758 0
 2601 0be0 AE4B     		ldr	r3, .L370+12
 2602              		.loc 1 759 0
 2603 0be2 AF4A     		ldr	r2, .L370+16
 2604              		.loc 1 758 0
 2605 0be4 93ED027A 		vldr.32	s14, [r3, #8]
 2606              		.loc 1 759 0
 2607 0be8 D2ED006A 		vldr.32	s13, [r2]
 2608              		.loc 1 762 0
 2609 0bec D4ED204A 		vldr.32	s9, [r4, #128]
 2610 0bf0 D4ED210A 		vldr.32	s1, [r4, #132]
 2611              		.loc 1 760 0
 2612 0bf4 AB4B     		ldr	r3, .L370+20
 2613              		.loc 1 762 0
 2614 0bf6 94ED225A 		vldr.32	s10, [r4, #136]
 2615              		.loc 1 760 0
 2616 0bfa 93ED006A 		vldr.32	s12, [r3]
 2617              		.loc 1 764 0
 2618 0bfe D4ED275A 		vldr.32	s11, [r4, #156]
 2619              		.loc 1 762 0
 2620 0c02 A949     		ldr	r1, .L370+24
 2621              		.loc 1 758 0
 2622 0c04 77EEC77A 		vsub.f32	s15, s15, s14
ARM GAS  /tmp/ccIHdayg.s 			page 47


 2623              		.loc 1 759 0
 2624 0c08 37EEA67A 		vadd.f32	s14, s15, s13
 2625              		.loc 1 760 0
 2626 0c0c 77EEC66A 		vsub.f32	s13, s15, s12
 2627              		.loc 1 762 0
 2628 0c10 67EE200A 		vmul.f32	s1, s14, s1
 2629              		.loc 1 759 0
 2630 0c14 82ED007A 		vstr.32	s14, [r2]
 2631              		.loc 1 762 0
 2632 0c18 E7EEA40A 		vfma.f32	s1, s15, s9
 2633 0c1c E6EE850A 		vfma.f32	s1, s13, s10
 2634              		.loc 1 764 0
 2635 0c20 F4EEE50A 		vcmpe.f32	s1, s11
 2636 0c24 F1EE10FA 		vmrs	APSR_nzcv, FPSCR
 2637              		.loc 1 762 0
 2638 0c28 C1ED000A 		vstr.32	s1, [r1]
 2639              		.loc 1 764 0
 2640 0c2c 40F3E080 		ble	.L342
 2641              		.loc 1 765 0
 2642 0c30 D4ED270A 		vldr.32	s1, [r4, #156]
 2643 0c34 C1ED000A 		vstr.32	s1, [r1]
 2644              	.L226:
 2645              		.loc 1 770 0
 2646 0c38 C3ED007A 		vstr.32	s15, [r3]
 2647 0c3c 4DE6     		b	.L218
 2648              	.LVL122:
 2649              	.L327:
 2650              	.LBB306:
 2651              	.LBB243:
 2652              		.loc 1 454 0
 2653 0c3e 9B4B     		ldr	r3, .L370+28
 2654 0c40 D3ED007A 		vldr.32	s15, [r3]
 2655 0c44 66EEA77A 		vmul.f32	s15, s13, s15
 2656              	.LVL123:
 2657 0c48 09E4     		b	.L155
 2658              	.LVL124:
 2659              	.L334:
 2660              	.LBE243:
 2661              	.LBE306:
 2662              	.LBB307:
 2663              	.LBB271:
 2664              		.loc 1 518 0
 2665 0c4a 994B     		ldr	r3, .L370+32
 2666 0c4c DBED007A 		vldr.32	s15, [fp]
 2667 0c50 93ED007A 		vldr.32	s14, [r3]
 2668 0c54 B5EEC07A 		vcmpe.f32	s14, #0
 2669 0c58 F1EE10FA 		vmrs	APSR_nzcv, FPSCR
 2670 0c5c BFEE000A 		vmov.f32	s0, #-1.0e+0
 2671 0c60 B7EE007A 		vmov.f32	s14, #1.0e+0
 2672 0c64 58BF     		it	pl
 2673 0c66 B0EE470A 		vmovpl.f32	s0, s14
 2674 0c6a 20EE270A 		vmul.f32	s0, s0, s15
 2675 0c6e 8BED000A 		vstr.32	s0, [fp]
 2676 0c72 BCE4     		b	.L186
 2677              	.L335:
 2678              		.loc 1 525 0
 2679 0c74 06EE903A 		vmov	s13, r3	@ int
ARM GAS  /tmp/ccIHdayg.s 			page 48


 2680 0c78 9FED8E6A 		vldr.32	s12, .L370+36
 2681 0c7c F8EEE66A 		vcvt.f32.s32	s13, s13
 2682 0c80 F7EE007A 		vmov.f32	s15, #1.0e+0
 2683 0c84 86EE867A 		vdiv.f32	s14, s13, s12
 2684 0c88 77EE277A 		vadd.f32	s15, s14, s15
 2685 0c8c 27EE800A 		vmul.f32	s0, s15, s0
 2686 0c90 D1E4     		b	.L191
 2687              	.LVL125:
 2688              	.L328:
 2689              	.LBE271:
 2690              	.LBE307:
 2691              	.LBB308:
 2692              	.LBB244:
 2693              		.loc 1 459 0
 2694 0c92 B4F85C30 		ldrh	r3, [r4, #92]
 2695 0c96 5B42     		negs	r3, r3
 2696 0c98 06EE103A 		vmov	s12, r3	@ int
 2697 0c9c B8EEC66A 		vcvt.f32.s32	s12, s12
 2698 0ca0 B4EEE66A 		vcmpe.f32	s12, s13
 2699 0ca4 F1EE10FA 		vmrs	APSR_nzcv, FPSCR
 2700              		.loc 1 460 0
 2701 0ca8 C4BF     		itt	gt
 2702 0caa D4ED166A 		vldrgt.32	s13, [r4, #88]
 2703 0cae 77EEE67A 		vsubgt.f32	s15, s15, s13
 2704              	.LVL126:
 2705 0cb2 FFF7E4BB 		b	.L158
 2706              	.LVL127:
 2707              	.L320:
 2708              	.LBE244:
 2709              	.LBE308:
 2710              	.LBB309:
 2711              	.LBB186:
 2712              		.loc 1 412 0
 2713 0cb6 DFED806A 		vldr.32	s13, .L370+40
 2714 0cba F4EEE67A 		vcmpe.f32	s15, s13
 2715 0cbe F1EE10FA 		vmrs	APSR_nzcv, FPSCR
 2716 0cc2 69DD     		ble	.L133
 2717 0cc4 7D48     		ldr	r0, .L370+44
 2718 0cc6 DFED7E6A 		vldr.32	s13, .L370+48
 2719 0cca C08A     		ldrh	r0, [r0, #22]
 2720 0ccc DFED7D7A 		vldr.32	s15, .L370+52
 2721 0cd0 D4ED115A 		vldr.32	s11, [r4, #68]
 2722 0cd4 06EE100A 		vmov	s12, r0	@ int
 2723 0cd8 B8EE466A 		vcvt.f32.u32	s12, s12
 2724 0cdc 26EE266A 		vmul.f32	s12, s12, s13
 2725 0ce0 26EE276A 		vmul.f32	s12, s12, s15
 2726 0ce4 B4EEE56A 		vcmpe.f32	s12, s11
 2727 0ce8 F1EE10FA 		vmrs	APSR_nzcv, FPSCR
 2728 0cec 21DD     		ble	.L322
 2729              		.loc 1 413 0
 2730 0cee 7048     		ldr	r0, .L370+32
 2731              		.loc 1 414 0
 2732 0cf0 D4ED0F7A 		vldr.32	s15, [r4, #60]
 2733              		.loc 1 413 0
 2734 0cf4 D0ED006A 		vldr.32	s13, [r0]
 2735 0cf8 F5EEC06A 		vcmpe.f32	s13, #0
 2736 0cfc F1EE10FA 		vmrs	APSR_nzcv, FPSCR
ARM GAS  /tmp/ccIHdayg.s 			page 49


 2737              		.loc 1 416 0
 2738 0d00 D8BF     		it	le
 2739 0d02 F1EE677A 		vnegle.f32	s15, s15
 2740              		.loc 1 418 0
 2741 0d06 0220     		movs	r0, #2
 2742 0d08 1870     		strb	r0, [r3]
 2743              	.LBE186:
 2744              	.LBE309:
 2745              	.LBB310:
 2746              	.LBB222:
 2747              		.loc 1 436 0
 2748 0d0a B4EE677A 		vcmp.f32	s14, s15
 2749              	.LBE222:
 2750              	.LBE310:
 2751              	.LBB311:
 2752              	.LBB187:
 2753              		.loc 1 419 0
 2754 0d0e 6E4B     		ldr	r3, .L370+56
 2755              		.loc 1 416 0
 2756 0d10 C1ED007A 		vstr.32	s15, [r1]
 2757              	.LBE187:
 2758              	.LBE311:
 2759              	.LBB312:
 2760              	.LBB223:
 2761              		.loc 1 436 0
 2762 0d14 F1EE10FA 		vmrs	APSR_nzcv, FPSCR
 2763              	.LBE223:
 2764              	.LBE312:
 2765              	.LBB313:
 2766              	.LBB188:
 2767              		.loc 1 419 0
 2768 0d18 4FF00301 		mov	r1, #3
 2769 0d1c 1970     		strb	r1, [r3]
 2770              	.LBE188:
 2771              	.LBE313:
 2772              	.LBB314:
 2773              	.LBB224:
 2774              		.loc 1 436 0
 2775 0d1e 3FF485AB 		beq	.L132
 2776              		.loc 1 438 0
 2777 0d22 37EEC76A 		vsub.f32	s12, s15, s14
 2778              	.LBB209:
 2779              	.LBB200:
 2780              		.loc 1 333 0
 2781 0d26 694B     		ldr	r3, .L370+60
 2782              	.LBE200:
 2783              	.LBE209:
 2784              		.loc 1 438 0
 2785 0d28 F0EEC65A 		vabs.f32	s11, s12
 2786              	.LBB210:
 2787              	.LBB201:
 2788              		.loc 1 333 0
 2789 0d2c D3ED006A 		vldr.32	s13, [r3]
 2790 0d30 F6E6     		b	.L125
 2791              	.L322:
 2792              	.LBE201:
 2793              	.LBE210:
ARM GAS  /tmp/ccIHdayg.s 			page 50


 2794              	.LBE224:
 2795              	.LBE314:
 2796              	.LBB315:
 2797              	.LBB189:
 2798              		.loc 1 420 0
 2799 0d32 6248     		ldr	r0, .L370+44
 2800 0d34 C08A     		ldrh	r0, [r0, #22]
 2801 0d36 D4ED145A 		vldr.32	s11, [r4, #80]
 2802 0d3a 06EE100A 		vmov	s12, r0	@ int
 2803 0d3e B8EE466A 		vcvt.f32.u32	s12, s12
 2804 0d42 66EE266A 		vmul.f32	s13, s12, s13
 2805 0d46 66EEA77A 		vmul.f32	s15, s13, s15
 2806 0d4a F4EEE57A 		vcmpe.f32	s15, s11
 2807 0d4e F1EE10FA 		vmrs	APSR_nzcv, FPSCR
 2808 0d52 21D5     		bpl	.L133
 2809              		.loc 1 421 0
 2810 0d54 5648     		ldr	r0, .L370+32
 2811              		.loc 1 422 0
 2812 0d56 D4ED127A 		vldr.32	s15, [r4, #72]
 2813              		.loc 1 421 0
 2814 0d5a D0ED006A 		vldr.32	s13, [r0]
 2815 0d5e F5EEC06A 		vcmpe.f32	s13, #0
 2816 0d62 F1EE10FA 		vmrs	APSR_nzcv, FPSCR
 2817              		.loc 1 424 0
 2818 0d66 D8BF     		it	le
 2819 0d68 F1EE677A 		vnegle.f32	s15, s15
 2820              		.loc 1 426 0
 2821 0d6c 0320     		movs	r0, #3
 2822 0d6e 1870     		strb	r0, [r3]
 2823              	.LBE189:
 2824              	.LBE315:
 2825              	.LBB316:
 2826              	.LBB225:
 2827              		.loc 1 436 0
 2828 0d70 B4EE677A 		vcmp.f32	s14, s15
 2829              	.LBE225:
 2830              	.LBE316:
 2831              	.LBB317:
 2832              	.LBB190:
 2833              		.loc 1 427 0
 2834 0d74 544B     		ldr	r3, .L370+56
 2835              		.loc 1 424 0
 2836 0d76 C1ED007A 		vstr.32	s15, [r1]
 2837              	.LBE190:
 2838              	.LBE317:
 2839              	.LBB318:
 2840              	.LBB226:
 2841              		.loc 1 436 0
 2842 0d7a F1EE10FA 		vmrs	APSR_nzcv, FPSCR
 2843              	.LBE226:
 2844              	.LBE318:
 2845              	.LBB319:
 2846              	.LBB191:
 2847              		.loc 1 427 0
 2848 0d7e 4FF00401 		mov	r1, #4
 2849 0d82 1970     		strb	r1, [r3]
 2850              	.LBE191:
ARM GAS  /tmp/ccIHdayg.s 			page 51


 2851              	.LBE319:
 2852              	.LBB320:
 2853              	.LBB227:
 2854              		.loc 1 436 0
 2855 0d84 3FF452AB 		beq	.L132
 2856              		.loc 1 438 0
 2857 0d88 37EEC76A 		vsub.f32	s12, s15, s14
 2858              	.LBB211:
 2859              	.LBB202:
 2860              		.loc 1 335 0
 2861 0d8c 504B     		ldr	r3, .L370+64
 2862              	.LBE202:
 2863              	.LBE211:
 2864              		.loc 1 438 0
 2865 0d8e F0EEC65A 		vabs.f32	s11, s12
 2866              	.LBB212:
 2867              	.LBB203:
 2868              		.loc 1 335 0
 2869 0d92 D3ED006A 		vldr.32	s13, [r3]
 2870 0d96 C3E6     		b	.L125
 2871              	.L133:
 2872              	.LBE203:
 2873              	.LBE212:
 2874              	.LBE227:
 2875              	.LBE320:
 2876              	.LBB321:
 2877              	.LBB192:
 2878              		.loc 1 429 0
 2879 0d98 0420     		movs	r0, #4
 2880 0d9a 1870     		strb	r0, [r3]
 2881              	.LBE192:
 2882              	.LBE321:
 2883              	.LBB322:
 2884              	.LBB228:
 2885              		.loc 1 436 0
 2886 0d9c B5EE407A 		vcmp.f32	s14, #0
 2887              	.LBE228:
 2888              	.LBE322:
 2889              	.LBB323:
 2890              	.LBB193:
 2891              		.loc 1 431 0
 2892 0da0 494B     		ldr	r3, .L370+56
 2893              		.loc 1 430 0
 2894 0da2 81ED009A 		vstr.32	s18, [r1]
 2895              	.LBE193:
 2896              	.LBE323:
 2897              	.LBB324:
 2898              	.LBB229:
 2899              		.loc 1 436 0
 2900 0da6 F1EE10FA 		vmrs	APSR_nzcv, FPSCR
 2901              	.LBE229:
 2902              	.LBE324:
 2903              	.LBB325:
 2904              	.LBB194:
 2905              		.loc 1 431 0
 2906 0daa 4FF00101 		mov	r1, #1
 2907 0dae 1970     		strb	r1, [r3]
ARM GAS  /tmp/ccIHdayg.s 			page 52


 2908              	.LBE194:
 2909              	.LBE325:
 2910              	.LBB326:
 2911              	.LBB230:
 2912              		.loc 1 436 0
 2913 0db0 5CD1     		bne	.L146
 2914              	.L347:
 2915 0db2 3F4B     		ldr	r3, .L370+32
 2916 0db4 D3ED006A 		vldr.32	s13, [r3]
 2917 0db8 FFF738BB 		b	.L132
 2918              	.L331:
 2919              	.LBE230:
 2920              	.LBE326:
 2921              	.LBB327:
 2922              	.LBB260:
 2923              		.loc 1 478 0
 2924 0dbc 454B     		ldr	r3, .L370+68
 2925 0dbe F0EE66AA 		vmov.f32	s21, s13
 2926 0dc2 C3ED006A 		vstr.32	s13, [r3]
 2927 0dc6 FFF7A3BB 		b	.L167
 2928              	.L361:
 2929              	.LBE260:
 2930              	.LBE327:
 2931              	.LBB328:
 2932              	.LBB231:
 2933              		.loc 1 439 0
 2934 0dca C2ED007A 		vstr.32	s15, [r2]
 2935 0dce B0EE677A 		vmov.f32	s14, s15
 2936 0dd2 EEE7     		b	.L347
 2937              	.L339:
 2938              	.LBE231:
 2939              	.LBE328:
 2940              		.loc 1 743 0
 2941 0dd4 D4ED2D7A 		vldr.32	s15, [r4, #180]
 2942 0dd8 B5EEC07A 		vcmpe.f32	s14, #0
 2943 0ddc F1EE10FA 		vmrs	APSR_nzcv, FPSCR
 2944 0de0 48BF     		it	mi
 2945 0de2 F1EE677A 		vnegmi.f32	s15, s15
 2946 0de6 30EE270A 		vadd.f32	s0, s0, s15
 2947 0dea 83ED000A 		vstr.32	s0, [r3]
 2948 0dee 6CE5     		b	.L209
 2949              	.L342:
 2950              		.loc 1 766 0
 2951 0df0 94ED277A 		vldr.32	s14, [r4, #156]
 2952 0df4 B1EE477A 		vneg.f32	s14, s14
 2953 0df8 F4EEC70A 		vcmpe.f32	s1, s14
 2954 0dfc F1EE10FA 		vmrs	APSR_nzcv, FPSCR
 2955 0e00 7FF51AAF 		bpl	.L226
 2956              		.loc 1 767 0
 2957 0e04 D4ED270A 		vldr.32	s1, [r4, #156]
 2958 0e08 F1EE600A 		vneg.f32	s1, s1
 2959 0e0c C1ED000A 		vstr.32	s1, [r1]
 2960 0e10 12E7     		b	.L226
 2961              	.L340:
 2962 0e12 314A     		ldr	r2, .L370+72
 2963              		.loc 1 753 0
 2964 0e14 94ED236A 		vldr.32	s12, [r4, #140]
ARM GAS  /tmp/ccIHdayg.s 			page 53


 2965 0e18 D2ED006A 		vldr.32	s13, [r2]
 2966              		.loc 1 752 0
 2967 0e1c 2F4B     		ldr	r3, .L370+76
 2968              		.loc 1 753 0
 2969 0e1e 94ED247A 		vldr.32	s14, [r4, #144]
 2970              		.loc 1 752 0
 2971 0e22 D3ED007A 		vldr.32	s15, [r3]
 2972              		.loc 1 753 0
 2973 0e26 1C4B     		ldr	r3, .L370+8
 2974 0e28 27EE267A 		vmul.f32	s14, s14, s13
 2975              		.loc 1 752 0
 2976 0e2c F5EEC07A 		vcmpe.f32	s15, #0
 2977              		.loc 1 753 0
 2978 0e30 67EE277A 		vmul.f32	s15, s14, s15
 2979              		.loc 1 752 0
 2980 0e34 F1EE10FA 		vmrs	APSR_nzcv, FPSCR
 2981              		.loc 1 753 0
 2982 0e38 4CBF     		ite	mi
 2983 0e3a E6EE667A 		vfmsmi.f32	s15, s12, s13
 2984              		.loc 1 755 0
 2985 0e3e E6EE267A 		vfmapl.f32	s15, s12, s13
 2986 0e42 C3ED007A 		vstr.32	s15, [r3]
 2987 0e46 CBE6     		b	.L221
 2988              	.L362:
 2989              	.LBB329:
 2990              	.LBB261:
 2991              		.loc 1 489 0
 2992 0e48 B5EEC00A 		vcmpe.f32	s0, #0
 2993 0e4c F1EE10FA 		vmrs	APSR_nzcv, FPSCR
 2994 0e50 7FF590AE 		bpl	.L173
 2995 0e54 FFF786BB 		b	.L172
 2996              	.LVL128:
 2997              	.L338:
 2998              	.LBE261:
 2999              	.LBE329:
 3000              	.LBB330:
 3001              	.LBB280:
 3002              		.loc 1 553 0
 3003 0e58 37EE277A 		vadd.f32	s14, s14, s15
 3004              	.LVL129:
 3005 0e5c B0EEC75A 		vabs.f32	s10, s14
 3006 0e60 37E4     		b	.L198
 3007              	.LVL130:
 3008              	.L241:
 3009              		.loc 1 548 0
 3010 0e62 B0EE495A 		vmov.f32	s10, s18
 3011              		.loc 1 549 0
 3012 0e66 9FED1E7A 		vldr.32	s14, .L370+80
 3013              	.LVL131:
 3014 0e6a 32E4     		b	.L198
 3015              	.LVL132:
 3016              	.L146:
 3017              	.LBE280:
 3018              	.LBE330:
 3019              	.LBB331:
 3020              	.LBB232:
 3021              		.loc 1 438 0
ARM GAS  /tmp/ccIHdayg.s 			page 54


 3022 0e6c 39EE476A 		vsub.f32	s12, s18, s14
 3023              	.LBB213:
 3024              	.LBB204:
 3025              		.loc 1 337 0
 3026 0e70 1C4B     		ldr	r3, .L370+84
 3027              	.LBE204:
 3028              	.LBE213:
 3029              		.loc 1 438 0
 3030 0e72 F0EEC65A 		vabs.f32	s11, s12
 3031              	.LBB214:
 3032              	.LBB205:
 3033              		.loc 1 337 0
 3034 0e76 D3ED006A 		vldr.32	s13, [r3]
 3035 0e7a F0EE497A 		vmov.f32	s15, s18
 3036 0e7e 4FE6     		b	.L125
 3037              	.L359:
 3038              	.LBE205:
 3039              	.LBE214:
 3040              		.loc 1 438 0
 3041 0e80 37EEC76A 		vsub.f32	s12, s15, s14
 3042              	.LBB215:
 3043              	.LBB206:
 3044              		.loc 1 331 0
 3045 0e84 184B     		ldr	r3, .L370+88
 3046              	.LBE206:
 3047              	.LBE215:
 3048              		.loc 1 438 0
 3049 0e86 F0EEC65A 		vabs.f32	s11, s12
 3050              	.LBB216:
 3051              	.LBB207:
 3052              		.loc 1 331 0
 3053 0e8a D3ED006A 		vldr.32	s13, [r3]
 3054 0e8e 47E6     		b	.L125
 3055              	.L371:
 3056              		.align	2
 3057              	.L370:
 3058 0e90 00000000 		.word	.LANCHOR32
 3059 0e94 0AD7A33C 		.word	1017370378
 3060 0e98 00000000 		.word	.LANCHOR18
 3061 0e9c 00000000 		.word	.LANCHOR47
 3062 0ea0 00000000 		.word	.LANCHOR1
 3063 0ea4 00000000 		.word	.LANCHOR2
 3064 0ea8 00000000 		.word	.LANCHOR61
 3065 0eac 00000000 		.word	.LANCHOR53
 3066 0eb0 00000000 		.word	.LANCHOR38
 3067 0eb4 0000C842 		.word	1120403456
 3068 0eb8 CDCC4C3D 		.word	1028443341
 3069 0ebc 00000000 		.word	ADC_Value
 3070 0ec0 6740533A 		.word	978534503
 3071 0ec4 ABAA5E42 		.word	1113500331
 3072 0ec8 00000000 		.word	.LANCHOR19
 3073 0ecc 00000000 		.word	.LANCHOR73
 3074 0ed0 00000000 		.word	.LANCHOR74
 3075 0ed4 00000000 		.word	.LANCHOR13
 3076 0ed8 00000000 		.word	.LANCHOR30
 3077 0edc 00000000 		.word	.LANCHOR48
 3078 0ee0 00000000 		.word	0
ARM GAS  /tmp/ccIHdayg.s 			page 55


 3079 0ee4 00000000 		.word	.LANCHOR71
 3080 0ee8 00000000 		.word	.LANCHOR72
 3081              	.LBE207:
 3082              	.LBE216:
 3083              	.LBE232:
 3084              	.LBE331:
 3085              		.cfi_endproc
 3086              	.LFE287:
 3087              		.size	balance_thread, .-balance_thread
 3088              		.section	.text.terminal_sample,"ax",%progbits
 3089              		.align	1
 3090              		.p2align 4,,15
 3091              		.syntax unified
 3092              		.thumb
 3093              		.thumb_func
 3094              		.fpu fpv4-sp-d16
 3095              		.type	terminal_sample, %function
 3096              	terminal_sample:
 3097              	.LFB289:
 3098              		.loc 1 833 0
 3099              		.cfi_startproc
 3100              		@ args = 0, pretend = 0, frame = 0
 3101              		@ frame_needed = 0, uses_anonymous_args = 0
 3102              	.LVL133:
 3103              		.loc 1 834 0
 3104 0000 0328     		cmp	r0, #3
 3105 0002 02D0     		beq	.L379
 3106              		.loc 1 841 0
 3107 0004 0B48     		ldr	r0, .L380
 3108              	.LVL134:
 3109 0006 FFF7FEBF 		b	commands_printf
 3110              	.LVL135:
 3111              	.L379:
 3112              		.loc 1 833 0
 3113 000a 70B5     		push	{r4, r5, r6, lr}
 3114              		.cfi_def_cfa_offset 16
 3115              		.cfi_offset 4, -16
 3116              		.cfi_offset 5, -12
 3117              		.cfi_offset 6, -8
 3118              		.cfi_offset 14, -4
 3119              	.LBB334:
 3120              	.LBB335:
 3121              		.loc 1 835 0
 3122 000c 0A4B     		ldr	r3, .L380+4
 3123              		.loc 1 836 0
 3124 000e 0B4E     		ldr	r6, .L380+8
 3125 0010 0C46     		mov	r4, r1
 3126              	.LVL136:
 3127              		.loc 1 837 0
 3128 0012 1A46     		mov	r2, r3
 3129              		.loc 1 835 0
 3130 0014 0025     		movs	r5, #0
 3131              		.loc 1 837 0
 3132 0016 0A49     		ldr	r1, .L380+12
 3133              	.LVL137:
 3134 0018 6068     		ldr	r0, [r4, #4]
 3135              	.LVL138:
ARM GAS  /tmp/ccIHdayg.s 			page 56


 3136              		.loc 1 835 0
 3137 001a 1D60     		str	r5, [r3]
 3138              		.loc 1 836 0
 3139 001c 3560     		str	r5, [r6]
 3140              		.loc 1 837 0
 3141 001e FFF7FEFF 		bl	sscanf
 3142              	.LVL139:
 3143              		.loc 1 838 0
 3144 0022 3246     		mov	r2, r6
 3145 0024 A068     		ldr	r0, [r4, #8]
 3146 0026 0649     		ldr	r1, .L380+12
 3147 0028 FFF7FEFF 		bl	sscanf
 3148              	.LVL140:
 3149              		.loc 1 839 0
 3150 002c 054B     		ldr	r3, .L380+16
 3151 002e 1D60     		str	r5, [r3]
 3152              	.LBE335:
 3153              	.LBE334:
 3154              		.loc 1 843 0
 3155 0030 70BD     		pop	{r4, r5, r6, pc}
 3156              	.LVL141:
 3157              	.L381:
 3158 0032 00BF     		.align	2
 3159              	.L380:
 3160 0034 04000000 		.word	.LC3
 3161 0038 00000000 		.word	.LANCHOR64
 3162 003c 00000000 		.word	.LANCHOR63
 3163 0040 00000000 		.word	.LC2
 3164 0044 00000000 		.word	.LANCHOR62
 3165              		.cfi_endproc
 3166              	.LFE289:
 3167              		.size	terminal_sample, .-terminal_sample
 3168              		.section	.text.terminal_render,"ax",%progbits
 3169              		.align	1
 3170              		.p2align 4,,15
 3171              		.syntax unified
 3172              		.thumb
 3173              		.thumb_func
 3174              		.fpu fpv4-sp-d16
 3175              		.type	terminal_render, %function
 3176              	terminal_render:
 3177              	.LFB288:
 3178              		.loc 1 812 0
 3179              		.cfi_startproc
 3180              		@ args = 0, pretend = 0, frame = 8
 3181              		@ frame_needed = 0, uses_anonymous_args = 0
 3182              	.LVL142:
 3183 0000 30B5     		push	{r4, r5, lr}
 3184              		.cfi_def_cfa_offset 12
 3185              		.cfi_offset 4, -12
 3186              		.cfi_offset 5, -8
 3187              		.cfi_offset 14, -4
 3188              		.loc 1 813 0
 3189 0002 831E     		subs	r3, r0, #2
 3190 0004 012B     		cmp	r3, #1
 3191              		.loc 1 812 0
 3192 0006 83B0     		sub	sp, sp, #12
ARM GAS  /tmp/ccIHdayg.s 			page 57


 3193              		.cfi_def_cfa_offset 24
 3194              		.loc 1 813 0
 3195 0008 04D9     		bls	.L391
 3196              		.loc 1 829 0
 3197 000a 1448     		ldr	r0, .L393
 3198              	.LVL143:
 3199 000c FFF7FEFF 		bl	commands_printf
 3200              	.LVL144:
 3201              		.loc 1 831 0
 3202 0010 03B0     		add	sp, sp, #12
 3203              		.cfi_remember_state
 3204              		.cfi_def_cfa_offset 12
 3205              		@ sp needed
 3206 0012 30BD     		pop	{r4, r5, pc}
 3207              	.LVL145:
 3208              	.L391:
 3209              		.cfi_restore_state
 3210 0014 0D46     		mov	r5, r1
 3211 0016 0446     		mov	r4, r0
 3212              	.LVL146:
 3213              	.LBB339:
 3214              	.LBB340:
 3215              		.loc 1 814 0
 3216 0018 0020     		movs	r0, #0
 3217              	.LVL147:
 3218              		.loc 1 815 0
 3219 001a 0123     		movs	r3, #1
 3220              		.loc 1 814 0
 3221 001c 0090     		str	r0, [sp]
 3222              		.loc 1 816 0
 3223 001e 6A46     		mov	r2, sp
 3224 0020 0F49     		ldr	r1, .L393+4
 3225              	.LVL148:
 3226 0022 6868     		ldr	r0, [r5, #4]
 3227              		.loc 1 815 0
 3228 0024 0193     		str	r3, [sp, #4]
 3229              		.loc 1 816 0
 3230 0026 FFF7FEFF 		bl	sscanf
 3231              	.LVL149:
 3232              		.loc 1 817 0
 3233 002a 032C     		cmp	r4, #3
 3234 002c 07D0     		beq	.L392
 3235 002e 019B     		ldr	r3, [sp, #4]
 3236              	.L385:
 3237 0030 009A     		ldr	r2, [sp]
 3238              		.loc 1 823 0
 3239 0032 012B     		cmp	r3, #1
 3240 0034 0DD0     		beq	.L386
 3241              		.loc 1 826 0
 3242 0036 0B4B     		ldr	r3, .L393+8
 3243 0038 1A60     		str	r2, [r3]
 3244              	.LBE340:
 3245              	.LBE339:
 3246              		.loc 1 831 0
 3247 003a 03B0     		add	sp, sp, #12
 3248              		.cfi_remember_state
 3249              		.cfi_def_cfa_offset 12
ARM GAS  /tmp/ccIHdayg.s 			page 58


 3250              		@ sp needed
 3251 003c 30BD     		pop	{r4, r5, pc}
 3252              	.LVL150:
 3253              	.L392:
 3254              		.cfi_restore_state
 3255              	.LBB342:
 3256              	.LBB341:
 3257              		.loc 1 818 0
 3258 003e 01AA     		add	r2, sp, #4
 3259 0040 A868     		ldr	r0, [r5, #8]
 3260 0042 0749     		ldr	r1, .L393+4
 3261 0044 FFF7FEFF 		bl	sscanf
 3262              	.LVL151:
 3263              		.loc 1 819 0
 3264 0048 019B     		ldr	r3, [sp, #4]
 3265 004a 5A1E     		subs	r2, r3, #1
 3266 004c 012A     		cmp	r2, #1
 3267 004e EFD9     		bls	.L385
 3268 0050 009A     		ldr	r2, [sp]
 3269              	.L386:
 3270              		.loc 1 824 0
 3271 0052 054B     		ldr	r3, .L393+12
 3272 0054 1A60     		str	r2, [r3]
 3273              	.LBE341:
 3274              	.LBE342:
 3275              		.loc 1 831 0
 3276 0056 03B0     		add	sp, sp, #12
 3277              		.cfi_def_cfa_offset 12
 3278              		@ sp needed
 3279 0058 30BD     		pop	{r4, r5, pc}
 3280              	.LVL152:
 3281              	.L394:
 3282 005a 00BF     		.align	2
 3283              	.L393:
 3284 005c 00000000 		.word	.LC4
 3285 0060 00000000 		.word	.LC2
 3286 0064 00000000 		.word	.LANCHOR76
 3287 0068 00000000 		.word	.LANCHOR75
 3288              		.cfi_endproc
 3289              	.LFE288:
 3290              		.size	terminal_render, .-terminal_render
 3291              		.section	.text.terminal_experiment,"ax",%progbits
 3292              		.align	1
 3293              		.p2align 4,,15
 3294              		.syntax unified
 3295              		.thumb
 3296              		.thumb_func
 3297              		.fpu fpv4-sp-d16
 3298              		.type	terminal_experiment, %function
 3299              	terminal_experiment:
 3300              	.LFB290:
 3301              		.loc 1 845 0
 3302              		.cfi_startproc
 3303              		@ args = 0, pretend = 0, frame = 8
 3304              		@ frame_needed = 0, uses_anonymous_args = 0
 3305              	.LVL153:
 3306 0000 30B5     		push	{r4, r5, lr}
ARM GAS  /tmp/ccIHdayg.s 			page 59


 3307              		.cfi_def_cfa_offset 12
 3308              		.cfi_offset 4, -12
 3309              		.cfi_offset 5, -8
 3310              		.cfi_offset 14, -4
 3311              		.loc 1 846 0
 3312 0002 0328     		cmp	r0, #3
 3313              		.loc 1 845 0
 3314 0004 83B0     		sub	sp, sp, #12
 3315              		.cfi_def_cfa_offset 24
 3316              		.loc 1 846 0
 3317 0006 04D0     		beq	.L407
 3318              		.loc 1 879 0
 3319 0008 2548     		ldr	r0, .L408
 3320              	.LVL154:
 3321 000a FFF7FEFF 		bl	commands_printf
 3322              	.LVL155:
 3323              		.loc 1 881 0
 3324 000e 03B0     		add	sp, sp, #12
 3325              		.cfi_remember_state
 3326              		.cfi_def_cfa_offset 12
 3327              		@ sp needed
 3328 0010 30BD     		pop	{r4, r5, pc}
 3329              	.LVL156:
 3330              	.L407:
 3331              		.cfi_restore_state
 3332 0012 0C46     		mov	r4, r1
 3333              	.LVL157:
 3334              	.LBB346:
 3335              	.LBB347:
 3336              		.loc 1 848 0
 3337 0014 0123     		movs	r3, #1
 3338              		.loc 1 849 0
 3339 0016 6A46     		mov	r2, sp
 3340 0018 2249     		ldr	r1, .L408+4
 3341              	.LVL158:
 3342 001a 6068     		ldr	r0, [r4, #4]
 3343              	.LVL159:
 3344              		.loc 1 847 0
 3345 001c 0025     		movs	r5, #0
 3346              		.loc 1 848 0
 3347 001e CDE90053 		strd	r5, r3, [sp]
 3348              		.loc 1 849 0
 3349 0022 FFF7FEFF 		bl	sscanf
 3350              	.LVL160:
 3351              		.loc 1 850 0
 3352 0026 A068     		ldr	r0, [r4, #8]
 3353 0028 1E49     		ldr	r1, .L408+4
 3354 002a 01AA     		add	r2, sp, #4
 3355 002c FFF7FEFF 		bl	sscanf
 3356              	.LVL161:
 3357              		.loc 1 851 0
 3358 0030 019B     		ldr	r3, [sp, #4]
 3359 0032 013B     		subs	r3, r3, #1
 3360 0034 052B     		cmp	r3, #5
 3361 0036 07D8     		bhi	.L397
 3362 0038 DFE803F0 		tbb	[pc, r3]
 3363              	.L399:
ARM GAS  /tmp/ccIHdayg.s 			page 60


 3364 003c 1E       		.byte	(.L398-.L399)/2
 3365 003d 22       		.byte	(.L400-.L399)/2
 3366 003e 26       		.byte	(.L401-.L399)/2
 3367 003f 2A       		.byte	(.L402-.L399)/2
 3368 0040 2E       		.byte	(.L403-.L399)/2
 3369 0041 03       		.byte	(.L404-.L399)/2
 3370              		.p2align 1
 3371              	.L404:
 3372              		.loc 1 868 0
 3373 0042 194B     		ldr	r3, .L408+8
 3374 0044 009A     		ldr	r2, [sp]
 3375 0046 1A60     		str	r2, [r3]
 3376              	.L397:
 3377              		.loc 1 871 0
 3378 0048 1849     		ldr	r1, .L408+12
 3379 004a 1948     		ldr	r0, .L408+16
 3380 004c FFF7FEFF 		bl	commands_init_plot
 3381              	.LVL162:
 3382              		.loc 1 872 0
 3383 0050 1848     		ldr	r0, .L408+20
 3384 0052 FFF7FEFF 		bl	commands_plot_add_graph
 3385              	.LVL163:
 3386              		.loc 1 873 0
 3387 0056 1848     		ldr	r0, .L408+24
 3388 0058 FFF7FEFF 		bl	commands_plot_add_graph
 3389              	.LVL164:
 3390              		.loc 1 874 0
 3391 005c 1748     		ldr	r0, .L408+28
 3392 005e FFF7FEFF 		bl	commands_plot_add_graph
 3393              	.LVL165:
 3394              		.loc 1 875 0
 3395 0062 1748     		ldr	r0, .L408+32
 3396 0064 FFF7FEFF 		bl	commands_plot_add_graph
 3397              	.LVL166:
 3398              		.loc 1 876 0
 3399 0068 1648     		ldr	r0, .L408+36
 3400 006a FFF7FEFF 		bl	commands_plot_add_graph
 3401              	.LVL167:
 3402              		.loc 1 877 0
 3403 006e 1648     		ldr	r0, .L408+40
 3404 0070 FFF7FEFF 		bl	commands_plot_add_graph
 3405              	.LVL168:
 3406              	.LBE347:
 3407              	.LBE346:
 3408              		.loc 1 881 0
 3409 0074 03B0     		add	sp, sp, #12
 3410              		.cfi_remember_state
 3411              		.cfi_def_cfa_offset 12
 3412              		@ sp needed
 3413 0076 30BD     		pop	{r4, r5, pc}
 3414              	.LVL169:
 3415              	.L398:
 3416              		.cfi_restore_state
 3417              	.LBB349:
 3418              	.LBB348:
 3419              		.loc 1 853 0
 3420 0078 144B     		ldr	r3, .L408+44
ARM GAS  /tmp/ccIHdayg.s 			page 61


 3421 007a 009A     		ldr	r2, [sp]
 3422 007c 1A60     		str	r2, [r3]
 3423 007e E3E7     		b	.L397
 3424              	.L400:
 3425              		.loc 1 856 0
 3426 0080 134B     		ldr	r3, .L408+48
 3427 0082 009A     		ldr	r2, [sp]
 3428 0084 1A60     		str	r2, [r3]
 3429 0086 DFE7     		b	.L397
 3430              	.L401:
 3431              		.loc 1 859 0
 3432 0088 124B     		ldr	r3, .L408+52
 3433 008a 009A     		ldr	r2, [sp]
 3434 008c 1A60     		str	r2, [r3]
 3435 008e DBE7     		b	.L397
 3436              	.L402:
 3437              		.loc 1 862 0
 3438 0090 114B     		ldr	r3, .L408+56
 3439 0092 009A     		ldr	r2, [sp]
 3440 0094 1A60     		str	r2, [r3]
 3441 0096 D7E7     		b	.L397
 3442              	.L403:
 3443              		.loc 1 865 0
 3444 0098 104B     		ldr	r3, .L408+60
 3445 009a 009A     		ldr	r2, [sp]
 3446 009c 1A60     		str	r2, [r3]
 3447 009e D3E7     		b	.L397
 3448              	.L409:
 3449              		.align	2
 3450              	.L408:
 3451 00a0 04000000 		.word	.LC3
 3452 00a4 00000000 		.word	.LC2
 3453 00a8 00000000 		.word	.LANCHOR70
 3454 00ac 00000000 		.word	.LC5
 3455 00b0 18000000 		.word	.LC6
 3456 00b4 28000000 		.word	.LC7
 3457 00b8 2C000000 		.word	.LC8
 3458 00bc 30000000 		.word	.LC9
 3459 00c0 34000000 		.word	.LC10
 3460 00c4 38000000 		.word	.LC11
 3461 00c8 3C000000 		.word	.LC12
 3462 00cc 00000000 		.word	.LANCHOR65
 3463 00d0 00000000 		.word	.LANCHOR66
 3464 00d4 00000000 		.word	.LANCHOR67
 3465 00d8 00000000 		.word	.LANCHOR68
 3466 00dc 00000000 		.word	.LANCHOR69
 3467              	.LBE348:
 3468              	.LBE349:
 3469              		.cfi_endproc
 3470              	.LFE290:
 3471              		.size	terminal_experiment, .-terminal_experiment
 3472              		.section	.text.biquad_process,"ax",%progbits
 3473              		.align	1
 3474              		.p2align 4,,15
 3475              		.global	biquad_process
 3476              		.syntax unified
 3477              		.thumb
ARM GAS  /tmp/ccIHdayg.s 			page 62


 3478              		.thumb_func
 3479              		.fpu fpv4-sp-d16
 3480              		.type	biquad_process, %function
 3481              	biquad_process:
 3482              	.LFB259:
 3483              		.loc 1 141 0
 3484              		.cfi_startproc
 3485              		@ args = 0, pretend = 0, frame = 0
 3486              		@ frame_needed = 0, uses_anonymous_args = 0
 3487              		@ link register save eliminated.
 3488              	.LVL170:
 3489              		.loc 1 142 0
 3490 0000 90ED057A 		vldr.32	s14, [r0, #20]
 3491 0004 90ED004A 		vldr.32	s8, [r0]
 3492              		.loc 1 143 0
 3493 0008 D0ED066A 		vldr.32	s13, [r0, #24]
 3494 000c D0ED014A 		vldr.32	s9, [r0, #4]
 3495              		.loc 1 144 0
 3496 0010 D0ED047A 		vldr.32	s15, [r0, #16]
 3497              		.loc 1 143 0
 3498 0014 90ED035A 		vldr.32	s10, [r0, #12]
 3499              		.loc 1 144 0
 3500 0018 D0ED025A 		vldr.32	s11, [r0, #8]
 3501              		.loc 1 142 0
 3502 001c A4EE007A 		vfma.f32	s14, s8, s0
 3503              		.loc 1 141 0
 3504 0020 B0EE406A 		vmov.f32	s12, s0
 3505              		.loc 1 142 0
 3506 0024 B0EE470A 		vmov.f32	s0, s14
 3507              	.LVL171:
 3508              		.loc 1 143 0
 3509 0028 B0EE667A 		vmov.f32	s14, s13
 3510 002c A4EE867A 		vfma.f32	s14, s9, s12
 3511              		.loc 1 144 0
 3512 0030 67EEC07A 		vnmul.f32	s15, s15, s0
 3513              		.loc 1 143 0
 3514 0034 A5EE407A 		vfms.f32	s14, s10, s0
 3515              		.loc 1 144 0
 3516 0038 E5EE867A 		vfma.f32	s15, s11, s12
 3517              		.loc 1 143 0
 3518 003c 80ED057A 		vstr.32	s14, [r0, #20]
 3519              		.loc 1 144 0
 3520 0040 C0ED067A 		vstr.32	s15, [r0, #24]
 3521              		.loc 1 146 0
 3522 0044 7047     		bx	lr
 3523              		.cfi_endproc
 3524              	.LFE259:
 3525              		.size	biquad_process, .-biquad_process
 3526 0046 00BF     		.section	.text.biquad_config,"ax",%progbits
 3527              		.align	1
 3528              		.p2align 4,,15
 3529              		.global	biquad_config
 3530              		.syntax unified
 3531              		.thumb
 3532              		.thumb_func
 3533              		.fpu fpv4-sp-d16
 3534              		.type	biquad_config, %function
ARM GAS  /tmp/ccIHdayg.s 			page 63


 3535              	biquad_config:
 3536              	.LFB260:
 3537              		.loc 1 147 0
 3538              		.cfi_startproc
 3539              		@ args = 0, pretend = 0, frame = 0
 3540              		@ frame_needed = 0, uses_anonymous_args = 0
 3541              	.LVL172:
 3542              		.loc 1 148 0
 3543 0000 DFED217A 		vldr.32	s15, .L417
 3544              		.loc 1 147 0
 3545 0004 38B5     		push	{r3, r4, r5, lr}
 3546              		.cfi_def_cfa_offset 16
 3547              		.cfi_offset 3, -16
 3548              		.cfi_offset 4, -12
 3549              		.cfi_offset 5, -8
 3550              		.cfi_offset 14, -4
 3551              		.loc 1 148 0
 3552 0006 20EE270A 		vmul.f32	s0, s0, s15
 3553              	.LVL173:
 3554              		.loc 1 147 0
 3555 000a 0446     		mov	r4, r0
 3556 000c 0D46     		mov	r5, r1
 3557              		.loc 1 148 0
 3558 000e FFF7FEFF 		bl	tanf
 3559              	.LVL174:
 3560              		.loc 1 150 0
 3561 0012 DFED1E7A 		vldr.32	s15, .L417+4
 3562 0016 80EE277A 		vdiv.f32	s14, s0, s15
 3563 001a B7EE006A 		vmov.f32	s12, #1.0e+0
 3564 001e 20EE000A 		vmul.f32	s0, s0, s0
 3565              	.LVL175:
 3566 0022 77EE067A 		vadd.f32	s15, s14, s12
 3567 0026 77EE807A 		vadd.f32	s15, s15, s0
 3568 002a C6EE276A 		vdiv.f32	s13, s12, s15
 3569              	.LVL176:
 3570              		.loc 1 151 0
 3571 002e FDB1     		cbz	r5, .L415
 3572              		.loc 1 156 0
 3573 0030 012D     		cmp	r5, #1
 3574 0032 12D0     		beq	.L416
 3575              	.L413:
 3576              		.loc 1 161 0
 3577 0034 F7EE007A 		vmov.f32	s15, #1.0e+0
 3578              		.loc 1 162 0
 3579 0038 37EEC77A 		vsub.f32	s14, s15, s14
 3580              		.loc 1 161 0
 3581 003c 70EE677A 		vsub.f32	s15, s0, s15
 3582              		.loc 1 162 0
 3583 0040 37EE007A 		vadd.f32	s14, s14, s0
 3584              		.loc 1 161 0
 3585 0044 77EEA77A 		vadd.f32	s15, s15, s15
 3586              		.loc 1 162 0
 3587 0048 27EE267A 		vmul.f32	s14, s14, s13
 3588              		.loc 1 161 0
 3589 004c 67EEA67A 		vmul.f32	s15, s15, s13
 3590              		.loc 1 162 0
 3591 0050 84ED047A 		vstr.32	s14, [r4, #16]
ARM GAS  /tmp/ccIHdayg.s 			page 64


 3592              		.loc 1 161 0
 3593 0054 C4ED037A 		vstr.32	s15, [r4, #12]
 3594              		.loc 1 163 0
 3595 0058 38BD     		pop	{r3, r4, r5, pc}
 3596              	.LVL177:
 3597              	.L416:
 3598              		.loc 1 158 0
 3599 005a F8EE007A 		vmov.f32	s15, #-2.0e+0
 3600 005e 66EEA77A 		vmul.f32	s15, s13, s15
 3601              		.loc 1 157 0
 3602 0062 C4ED006A 		vstr.32	s13, [r4]
 3603              		.loc 1 159 0
 3604 0066 C4ED026A 		vstr.32	s13, [r4, #8]
 3605              		.loc 1 158 0
 3606 006a C4ED017A 		vstr.32	s15, [r4, #4]
 3607 006e E1E7     		b	.L413
 3608              	.L415:
 3609              		.loc 1 152 0
 3610 0070 60EE267A 		vmul.f32	s15, s0, s13
 3611              		.loc 1 153 0
 3612 0074 37EEA76A 		vadd.f32	s12, s15, s15
 3613              		.loc 1 152 0
 3614 0078 C4ED007A 		vstr.32	s15, [r4]
 3615              		.loc 1 154 0
 3616 007c C4ED027A 		vstr.32	s15, [r4, #8]
 3617              		.loc 1 153 0
 3618 0080 84ED016A 		vstr.32	s12, [r4, #4]
 3619 0084 D6E7     		b	.L413
 3620              	.L418:
 3621 0086 00BF     		.align	2
 3622              	.L417:
 3623 0088 DB0F4940 		.word	1078530011
 3624 008c F4FD343F 		.word	1060437492
 3625              		.cfi_endproc
 3626              	.LFE260:
 3627              		.size	biquad_config, .-biquad_config
 3628              		.section	.text.biquad_reset,"ax",%progbits
 3629              		.align	1
 3630              		.p2align 4,,15
 3631              		.global	biquad_reset
 3632              		.syntax unified
 3633              		.thumb
 3634              		.thumb_func
 3635              		.fpu fpv4-sp-d16
 3636              		.type	biquad_reset, %function
 3637              	biquad_reset:
 3638              	.LFB261:
 3639              		.loc 1 164 0
 3640              		.cfi_startproc
 3641              		@ args = 0, pretend = 0, frame = 0
 3642              		@ frame_needed = 0, uses_anonymous_args = 0
 3643              		@ link register save eliminated.
 3644              	.LVL178:
 3645              		.loc 1 165 0
 3646 0000 0023     		movs	r3, #0
 3647 0002 4361     		str	r3, [r0, #20]	@ float
 3648              		.loc 1 166 0
ARM GAS  /tmp/ccIHdayg.s 			page 65


 3649 0004 8361     		str	r3, [r0, #24]	@ float
 3650              		.loc 1 167 0
 3651 0006 7047     		bx	lr
 3652              		.cfi_endproc
 3653              	.LFE261:
 3654              		.size	biquad_reset, .-biquad_reset
 3655              		.section	.text.app_balance_configure,"ax",%progbits
 3656              		.align	1
 3657              		.p2align 4,,15
 3658              		.global	app_balance_configure
 3659              		.syntax unified
 3660              		.thumb
 3661              		.thumb_func
 3662              		.fpu fpv4-sp-d16
 3663              		.type	app_balance_configure, %function
 3664              	app_balance_configure:
 3665              	.LFB262:
 3666              		.loc 1 170 0
 3667              		.cfi_startproc
 3668              		@ args = 0, pretend = 0, frame = 0
 3669              		@ frame_needed = 0, uses_anonymous_args = 0
 3670              	.LVL179:
 3671 0000 F8B5     		push	{r3, r4, r5, r6, r7, lr}
 3672              		.cfi_def_cfa_offset 24
 3673              		.cfi_offset 3, -24
 3674              		.cfi_offset 4, -20
 3675              		.cfi_offset 5, -16
 3676              		.cfi_offset 6, -12
 3677              		.cfi_offset 7, -8
 3678              		.cfi_offset 14, -4
 3679              		.loc 1 171 0
 3680 0002 BD4C     		ldr	r4, .L448
 3681              		.loc 1 172 0
 3682 0004 BD4E     		ldr	r6, .L448+4
 3683              		.loc 1 174 0
 3684 0006 BE4F     		ldr	r7, .L448+8
 3685              		.loc 1 170 0
 3686 0008 2DED068B 		vpush.64	{d8, d9, d10}
 3687              		.cfi_def_cfa_offset 48
 3688              		.cfi_offset 80, -48
 3689              		.cfi_offset 81, -44
 3690              		.cfi_offset 82, -40
 3691              		.cfi_offset 83, -36
 3692              		.cfi_offset 84, -32
 3693              		.cfi_offset 85, -28
 3694              		.loc 1 170 0
 3695 000c 0D46     		mov	r5, r1
 3696              		.loc 1 171 0
 3697 000e E822     		movs	r2, #232
 3698 0010 0146     		mov	r1, r0
 3699              	.LVL180:
 3700 0012 2046     		mov	r0, r4
 3701              	.LVL181:
 3702 0014 FFF7FEFF 		bl	memcpy
 3703              	.LVL182:
 3704              		.loc 1 172 0
 3705 0018 0FCD     		ldmia	r5!, {r0, r1, r2, r3}
ARM GAS  /tmp/ccIHdayg.s 			page 66


 3706              	.LVL183:
 3707 001a 0FC6     		stmia	r6!, {r0, r1, r2, r3}
 3708 001c 0FCD     		ldmia	r5!, {r0, r1, r2, r3}
 3709              	.LVL184:
 3710 001e 0FC6     		stmia	r6!, {r0, r1, r2, r3}
 3711 0020 0FCD     		ldmia	r5!, {r0, r1, r2, r3}
 3712              	.LVL185:
 3713 0022 0FC6     		stmia	r6!, {r0, r1, r2, r3}
 3714 0024 95E80700 		ldm	r5, {r0, r1, r2}
 3715 0028 86E80700 		stm	r6, {r0, r1, r2}
 3716              		.loc 1 174 0
 3717 002c A389     		ldrh	r3, [r4, #12]
 3718 002e 9FEDB57A 		vldr.32	s14, .L448+12
 3719 0032 B54E     		ldr	r6, .L448+16
 3720              		.loc 1 179 0
 3721 0034 B548     		ldr	r0, .L448+20
 3722              		.loc 1 180 0
 3723 0036 B649     		ldr	r1, .L448+24
 3724              		.loc 1 178 0
 3725 0038 B64D     		ldr	r5, .L448+28
 3726              	.LVL186:
 3727              		.loc 1 182 0
 3728 003a DFF820E3 		ldr	lr, .L448+100
 3729              		.loc 1 176 0
 3730 003e DFF820C3 		ldr	ip, .L448+104
 3731              		.loc 1 174 0
 3732 0042 06EE903A 		vmov	s13, r3	@ int
 3733 0046 F8EEE66A 		vcvt.f32.s32	s13, s13
 3734 004a 42F21072 		movw	r2, #10000
 3735 004e C7EE267A 		vdiv.f32	s15, s14, s13
 3736              		.loc 1 176 0
 3737 0052 F3EE042A 		vmov.f32	s5, #2.0e+1
 3738              		.loc 1 174 0
 3739 0056 67EE877A 		vmul.f32	s15, s15, s14
 3740 005a FDEEE77A 		vcvt.s32.f32	s15, s15
 3741 005e 17EE903A 		vmov	r3, s15	@ int
 3742 0062 02FB03F3 		mul	r3, r2, r3
 3743 0066 03F57423 		add	r3, r3, #999424
 3744 006a 03F23F23 		addw	r3, r3, #575
 3745 006e A7FB0323 		umull	r2, r3, r7, r3
 3746 0072 9B0C     		lsrs	r3, r3, #18
 3747 0074 3360     		str	r3, [r6]
 3748              		.loc 1 176 0
 3749 0076 A389     		ldrh	r3, [r4, #12]
 3750              		.loc 1 178 0
 3751 0078 94ED1DAA 		vldr.32	s20, [r4, #116]
 3752              		.loc 1 181 0
 3753 007c A64E     		ldr	r6, .L448+32
 3754              		.loc 1 183 0
 3755 007e A74F     		ldr	r7, .L448+36
 3756              		.loc 1 176 0
 3757 0080 06EE903A 		vmov	s13, r3	@ int
 3758 0084 F8EEE66A 		vcvt.f32.s32	s13, s13
 3759              		.loc 1 178 0
 3760 0088 A389     		ldrh	r3, [r4, #12]
 3761              		.loc 1 179 0
 3762 008a D4ED0D9A 		vldr.32	s19, [r4, #52]
ARM GAS  /tmp/ccIHdayg.s 			page 67


 3763              		.loc 1 176 0
 3764 008e 87EE262A 		vdiv.f32	s4, s14, s13
 3765              		.loc 1 178 0
 3766 0092 03EE103A 		vmov	s6, r3	@ int
 3767              		.loc 1 179 0
 3768 0096 A389     		ldrh	r3, [r4, #12]
 3769              		.loc 1 180 0
 3770 0098 D4ED108A 		vldr.32	s17, [r4, #64]
 3771              		.loc 1 179 0
 3772 009c 03EE903A 		vmov	s7, r3	@ int
 3773              		.loc 1 180 0
 3774 00a0 A389     		ldrh	r3, [r4, #12]
 3775              		.loc 1 181 0
 3776 00a2 94ED138A 		vldr.32	s16, [r4, #76]
 3777              		.loc 1 180 0
 3778 00a6 04EE103A 		vmov	s8, r3	@ int
 3779              		.loc 1 181 0
 3780 00aa A389     		ldrh	r3, [r4, #12]
 3781              		.loc 1 182 0
 3782 00ac 94ED159A 		vldr.32	s18, [r4, #84]
 3783              		.loc 1 181 0
 3784 00b0 04EE903A 		vmov	s9, r3	@ int
 3785              		.loc 1 182 0
 3786 00b4 A389     		ldrh	r3, [r4, #12]
 3787              		.loc 1 183 0
 3788 00b6 94ED300A 		vldr.32	s0, [r4, #192]
 3789              		.loc 1 182 0
 3790 00ba 05EE103A 		vmov	s10, r3	@ int
 3791              		.loc 1 183 0
 3792 00be A389     		ldrh	r3, [r4, #12]
 3793              		.loc 1 184 0
 3794 00c0 D4ED310A 		vldr.32	s1, [r4, #196]
 3795              		.loc 1 183 0
 3796 00c4 05EE903A 		vmov	s11, r3	@ int
 3797              		.loc 1 184 0
 3798 00c8 A389     		ldrh	r3, [r4, #12]
 3799              		.loc 1 185 0
 3800 00ca 94ED381A 		vldr.32	s2, [r4, #224]
 3801              		.loc 1 184 0
 3802 00ce 06EE103A 		vmov	s12, r3	@ int
 3803              		.loc 1 185 0
 3804 00d2 A389     		ldrh	r3, [r4, #12]
 3805              		.loc 1 186 0
 3806 00d4 D4ED1A1A 		vldr.32	s3, [r4, #104]
 3807 00d8 A289     		ldrh	r2, [r4, #12]
 3808              		.loc 1 176 0
 3809 00da C2EE077A 		vdiv.f32	s15, s4, s14
 3810              		.loc 1 178 0
 3811 00de B8EEC33A 		vcvt.f32.s32	s6, s6
 3812              		.loc 1 179 0
 3813 00e2 F8EEE33A 		vcvt.f32.s32	s7, s7
 3814              		.loc 1 180 0
 3815 00e6 B8EEC44A 		vcvt.f32.s32	s8, s8
 3816              		.loc 1 185 0
 3817 00ea 06EE903A 		vmov	s13, r3	@ int
 3818              		.loc 1 186 0
 3819 00ee 07EE102A 		vmov	s14, r2	@ int
ARM GAS  /tmp/ccIHdayg.s 			page 68


 3820              		.loc 1 181 0
 3821 00f2 F8EEE44A 		vcvt.f32.s32	s9, s9
 3822              		.loc 1 182 0
 3823 00f6 B8EEC55A 		vcvt.f32.s32	s10, s10
 3824              		.loc 1 183 0
 3825 00fa F8EEE55A 		vcvt.f32.s32	s11, s11
 3826              		.loc 1 184 0
 3827 00fe B8EEC66A 		vcvt.f32.s32	s12, s12
 3828              		.loc 1 178 0
 3829 0102 8AEE032A 		vdiv.f32	s4, s20, s6
 3830              		.loc 1 189 0
 3831 0106 E389     		ldrh	r3, [r4, #14]
 3832              		.loc 1 186 0
 3833 0108 854A     		ldr	r2, .L448+40
 3834              		.loc 1 189 0
 3835 010a 9BB2     		uxth	r3, r3
 3836              		.loc 1 185 0
 3837 010c F8EEE66A 		vcvt.f32.s32	s13, s13
 3838              		.loc 1 179 0
 3839 0110 89EEA33A 		vdiv.f32	s6, s19, s7
 3840              		.loc 1 186 0
 3841 0114 B8EEC77A 		vcvt.f32.s32	s14, s14
 3842              		.loc 1 180 0
 3843 0118 C8EE843A 		vdiv.f32	s7, s17, s8
 3844              		.loc 1 181 0
 3845 011c 88EE244A 		vdiv.f32	s8, s16, s9
 3846              		.loc 1 182 0
 3847 0120 C9EE054A 		vdiv.f32	s9, s18, s10
 3848              		.loc 1 183 0
 3849 0124 80EE255A 		vdiv.f32	s10, s0, s11
 3850              		.loc 1 184 0
 3851 0128 C0EE865A 		vdiv.f32	s11, s1, s12
 3852              		.loc 1 185 0
 3853 012c 81EE266A 		vdiv.f32	s12, s2, s13
 3854              		.loc 1 186 0
 3855 0130 C1EE876A 		vdiv.f32	s13, s3, s14
 3856              		.loc 1 179 0
 3857 0134 80ED003A 		vstr.32	s6, [r0]
 3858              		.loc 1 180 0
 3859 0138 C1ED003A 		vstr.32	s7, [r1]
 3860              		.loc 1 176 0
 3861 013c 67EEA27A 		vmul.f32	s15, s15, s5
 3862              		.loc 1 184 0
 3863 0140 7848     		ldr	r0, .L448+44
 3864              		.loc 1 185 0
 3865 0142 7949     		ldr	r1, .L448+48
 3866              		.loc 1 178 0
 3867 0144 85ED002A 		vstr.32	s4, [r5]
 3868              		.loc 1 181 0
 3869 0148 86ED004A 		vstr.32	s8, [r6]
 3870              		.loc 1 182 0
 3871 014c CEED004A 		vstr.32	s9, [lr]
 3872              		.loc 1 176 0
 3873 0150 CCED007A 		vstr.32	s15, [ip]
 3874              		.loc 1 183 0
 3875 0154 87ED005A 		vstr.32	s10, [r7]
 3876              		.loc 1 184 0
ARM GAS  /tmp/ccIHdayg.s 			page 69


 3877 0158 C0ED005A 		vstr.32	s11, [r0]
 3878              		.loc 1 185 0
 3879 015c 81ED006A 		vstr.32	s12, [r1]
 3880              		.loc 1 186 0
 3881 0160 C2ED006A 		vstr.32	s13, [r2]
 3882              		.loc 1 189 0
 3883 0164 43B3     		cbz	r3, .L421
 3884              		.loc 1 190 0
 3885 0166 A389     		ldrh	r3, [r4, #12]
 3886 0168 9FED704A 		vldr.32	s8, .L448+52
 3887 016c 05EE103A 		vmov	s10, r3	@ int
 3888 0170 E389     		ldrh	r3, [r4, #14]
 3889 0172 07EE103A 		vmov	s14, r3	@ int
 3890 0176 A389     		ldrh	r3, [r4, #12]
 3891 0178 04EE903A 		vmov	s9, r3	@ int
 3892 017c F8EEE44A 		vcvt.f32.s32	s9, s9
 3893 0180 F7EE007A 		vmov.f32	s15, #1.0e+0
 3894 0184 C7EEA45A 		vdiv.f32	s11, s15, s9
 3895 0188 E389     		ldrh	r3, [r4, #14]
 3896 018a B8EEC55A 		vcvt.f32.s32	s10, s10
 3897 018e 06EE103A 		vmov	s12, r3	@ int
 3898 0192 C7EE856A 		vdiv.f32	s13, s15, s10
 3899 0196 664B     		ldr	r3, .L448+56
 3900 0198 65EE845A 		vmul.f32	s11, s11, s8
 3901 019c B8EEC66A 		vcvt.f32.s32	s12, s12
 3902 01a0 66EE846A 		vmul.f32	s13, s13, s8
 3903 01a4 E5EE867A 		vfma.f32	s15, s11, s12
 3904 01a8 B8EEC77A 		vcvt.f32.s32	s14, s14
 3905 01ac 26EE877A 		vmul.f32	s14, s13, s14
 3906 01b0 C7EE276A 		vdiv.f32	s13, s14, s15
 3907 01b4 C3ED006A 		vstr.32	s13, [r3]
 3908              	.L421:
 3909              		.loc 1 192 0
 3910 01b8 B4F8A030 		ldrh	r3, [r4, #160]
 3911 01bc 9BB2     		uxth	r3, r3
 3912 01be DBB1     		cbz	r3, .L422
 3913              	.LBB350:
 3914              		.loc 1 193 0
 3915 01c0 A389     		ldrh	r3, [r4, #12]
 3916              		.loc 1 194 0
 3917 01c2 9FED5A7A 		vldr.32	s14, .L448+52
 3918              		.loc 1 193 0
 3919 01c6 06EE903A 		vmov	s13, r3	@ int
 3920              		.loc 1 194 0
 3921 01ca B4F8A030 		ldrh	r3, [r4, #160]
 3922 01ce 07EE903A 		vmov	s15, r3	@ int
 3923 01d2 F8EEE77A 		vcvt.f32.s32	s15, s15
 3924              		.loc 1 193 0
 3925 01d6 F8EEE66A 		vcvt.f32.s32	s13, s13
 3926              		.loc 1 194 0
 3927 01da 67EE877A 		vmul.f32	s15, s15, s14
 3928              		.loc 1 193 0
 3929 01de F7EE005A 		vmov.f32	s11, #1.0e+0
 3930              		.loc 1 194 0
 3931 01e2 85EEA77A 		vdiv.f32	s14, s11, s15
 3932              		.loc 1 195 0
 3933 01e6 534B     		ldr	r3, .L448+60
ARM GAS  /tmp/ccIHdayg.s 			page 70


 3934              		.loc 1 193 0
 3935 01e8 85EEA66A 		vdiv.f32	s12, s11, s13
 3936              	.LVL187:
 3937              		.loc 1 195 0
 3938 01ec 77EE067A 		vadd.f32	s15, s14, s12
 3939 01f0 86EE277A 		vdiv.f32	s14, s12, s15
 3940 01f4 83ED007A 		vstr.32	s14, [r3]
 3941              	.LVL188:
 3942              	.L422:
 3943              	.LBE350:
 3944              		.loc 1 197 0
 3945 01f8 B4F8A230 		ldrh	r3, [r4, #162]
 3946 01fc 9BB2     		uxth	r3, r3
 3947 01fe DBB1     		cbz	r3, .L423
 3948              	.LBB351:
 3949              		.loc 1 198 0
 3950 0200 A389     		ldrh	r3, [r4, #12]
 3951              		.loc 1 199 0
 3952 0202 9FED4A7A 		vldr.32	s14, .L448+52
 3953              		.loc 1 198 0
 3954 0206 06EE903A 		vmov	s13, r3	@ int
 3955              		.loc 1 199 0
 3956 020a B4F8A230 		ldrh	r3, [r4, #162]
 3957 020e 07EE903A 		vmov	s15, r3	@ int
 3958 0212 F8EEE77A 		vcvt.f32.s32	s15, s15
 3959              		.loc 1 198 0
 3960 0216 F8EEE66A 		vcvt.f32.s32	s13, s13
 3961              		.loc 1 199 0
 3962 021a 67EE877A 		vmul.f32	s15, s15, s14
 3963              		.loc 1 198 0
 3964 021e F7EE005A 		vmov.f32	s11, #1.0e+0
 3965              		.loc 1 199 0
 3966 0222 85EEA77A 		vdiv.f32	s14, s11, s15
 3967              		.loc 1 200 0
 3968 0226 444B     		ldr	r3, .L448+64
 3969              		.loc 1 198 0
 3970 0228 85EEA66A 		vdiv.f32	s12, s11, s13
 3971              	.LVL189:
 3972              		.loc 1 200 0
 3973 022c 77EE067A 		vadd.f32	s15, s14, s12
 3974 0230 86EE277A 		vdiv.f32	s14, s12, s15
 3975 0234 83ED007A 		vstr.32	s14, [r3]
 3976              	.LVL190:
 3977              	.L423:
 3978              	.LBE351:
 3979              		.loc 1 202 0
 3980 0238 D4ED297A 		vldr.32	s15, [r4, #164]
 3981 023c F5EEC07A 		vcmpe.f32	s15, #0
 3982 0240 F1EE10FA 		vmrs	APSR_nzcv, FPSCR
 3983 0244 0CDD     		ble	.L424
 3984              	.LBB352:
 3985              		.loc 1 203 0
 3986 0246 94ED290A 		vldr.32	s0, [r4, #164]
 3987 024a A389     		ldrh	r3, [r4, #12]
 3988              		.loc 1 204 0
 3989 024c 3B48     		ldr	r0, .L448+68
 3990              		.loc 1 203 0
ARM GAS  /tmp/ccIHdayg.s 			page 71


 3991 024e 07EE903A 		vmov	s15, r3	@ int
 3992              	.LVL191:
 3993 0252 F8EEE77A 		vcvt.f32.s32	s15, s15
 3994              		.loc 1 204 0
 3995 0256 0021     		movs	r1, #0
 3996 0258 80EE270A 		vdiv.f32	s0, s0, s15
 3997              	.LVL192:
 3998 025c FFF7FEFF 		bl	biquad_config
 3999              	.LVL193:
 4000              	.L424:
 4001              	.LBE352:
 4002              		.loc 1 206 0
 4003 0260 D4ED2A7A 		vldr.32	s15, [r4, #168]
 4004 0264 F5EEC07A 		vcmpe.f32	s15, #0
 4005 0268 F1EE10FA 		vmrs	APSR_nzcv, FPSCR
 4006 026c 0CDD     		ble	.L426
 4007              	.LBB353:
 4008              		.loc 1 207 0
 4009 026e 94ED2A0A 		vldr.32	s0, [r4, #168]
 4010 0272 A389     		ldrh	r3, [r4, #12]
 4011              		.loc 1 208 0
 4012 0274 3248     		ldr	r0, .L448+72
 4013              		.loc 1 207 0
 4014 0276 07EE903A 		vmov	s15, r3	@ int
 4015              	.LVL194:
 4016 027a F8EEE77A 		vcvt.f32.s32	s15, s15
 4017              		.loc 1 208 0
 4018 027e 0121     		movs	r1, #1
 4019 0280 80EE270A 		vdiv.f32	s0, s0, s15
 4020              	.LVL195:
 4021 0284 FFF7FEFF 		bl	biquad_config
 4022              	.LVL196:
 4023              	.L426:
 4024              	.LBE353:
 4025              		.loc 1 210 0
 4026 0288 D4ED337A 		vldr.32	s15, [r4, #204]
 4027 028c F5EEC07A 		vcmpe.f32	s15, #0
 4028 0290 F1EE10FA 		vmrs	APSR_nzcv, FPSCR
 4029 0294 0CDD     		ble	.L428
 4030              	.LBB354:
 4031              		.loc 1 211 0
 4032 0296 94ED330A 		vldr.32	s0, [r4, #204]
 4033 029a A389     		ldrh	r3, [r4, #12]
 4034              		.loc 1 212 0
 4035 029c 2948     		ldr	r0, .L448+76
 4036              		.loc 1 211 0
 4037 029e 07EE903A 		vmov	s15, r3	@ int
 4038              	.LVL197:
 4039 02a2 F8EEE77A 		vcvt.f32.s32	s15, s15
 4040              		.loc 1 212 0
 4041 02a6 0021     		movs	r1, #0
 4042 02a8 80EE270A 		vdiv.f32	s0, s0, s15
 4043              	.LVL198:
 4044 02ac FFF7FEFF 		bl	biquad_config
 4045              	.LVL199:
 4046              	.L428:
 4047              	.LBE354:
ARM GAS  /tmp/ccIHdayg.s 			page 72


 4048              		.loc 1 216 0
 4049 02b0 254B     		ldr	r3, .L448+80
 4050 02b2 D4ED186A 		vldr.32	s13, [r4, #96]
 4051 02b6 9FED137A 		vldr.32	s14, .L448+12
 4052 02ba C6EE877A 		vdiv.f32	s15, s13, s14
 4053              		.loc 1 217 0
 4054 02be F5EEC07A 		vcmpe.f32	s15, #0
 4055 02c2 F1EE10FA 		vmrs	APSR_nzcv, FPSCR
 4056              		.loc 1 216 0
 4057 02c6 C3ED007A 		vstr.32	s15, [r3]
 4058              		.loc 1 217 0
 4059 02ca 11DD     		ble	.L446
 4060              		.loc 1 218 0
 4061 02cc D4ED196A 		vldr.32	s13, [r4, #100]
 4062 02d0 1E4B     		ldr	r3, .L448+84
 4063 02d2 86EEA77A 		vdiv.f32	s14, s13, s15
 4064 02d6 F0EEC77A 		vabs.f32	s15, s14
 4065 02da C3ED007A 		vstr.32	s15, [r3]
 4066              	.L432:
 4067              		.loc 1 226 0
 4068 02de BDEC068B 		vldm	sp!, {d8-d10}
 4069              		.cfi_remember_state
 4070              		.cfi_restore 84
 4071              		.cfi_restore 85
 4072              		.cfi_restore 82
 4073              		.cfi_restore 83
 4074              		.cfi_restore 80
 4075              		.cfi_restore 81
 4076              		.cfi_def_cfa_offset 24
 4077              		.loc 1 224 0
 4078 02e2 1B49     		ldr	r1, .L448+88
 4079              		.loc 1 225 0
 4080 02e4 1B4B     		ldr	r3, .L448+92
 4081 02e6 0022     		movs	r2, #0
 4082              		.loc 1 224 0
 4083 02e8 0020     		movs	r0, #0
 4084 02ea 0860     		str	r0, [r1]
 4085              		.loc 1 225 0
 4086 02ec 1A60     		str	r2, [r3]	@ float
 4087              		.loc 1 226 0
 4088 02ee F8BD     		pop	{r3, r4, r5, r6, r7, pc}
 4089              	.L446:
 4090              		.cfi_restore_state
 4091              		.loc 1 220 0
 4092 02f0 164B     		ldr	r3, .L448+84
 4093 02f2 194A     		ldr	r2, .L448+96
 4094 02f4 1A60     		str	r2, [r3]	@ float
 4095 02f6 F2E7     		b	.L432
 4096              	.L449:
 4097              		.align	2
 4098              	.L448:
 4099 02f8 00000000 		.word	.LANCHOR25
 4100 02fc 00000000 		.word	.LANCHOR77
 4101 0300 83DE1B43 		.word	1125899907
 4102 0304 00007A44 		.word	1148846080
 4103 0308 00000000 		.word	.LANCHOR39
 4104 030c 00000000 		.word	.LANCHOR72
ARM GAS  /tmp/ccIHdayg.s 			page 73


 4105 0310 00000000 		.word	.LANCHOR73
 4106 0314 00000000 		.word	.LANCHOR51
 4107 0318 00000000 		.word	.LANCHOR74
 4108 031c 00000000 		.word	.LANCHOR56
 4109 0320 00000000 		.word	.LANCHOR54
 4110 0324 00000000 		.word	.LANCHOR55
 4111 0328 00000000 		.word	.LANCHOR57
 4112 032c DB0FC940 		.word	1086918619
 4113 0330 00000000 		.word	.LANCHOR44
 4114 0334 00000000 		.word	.LANCHOR58
 4115 0338 00000000 		.word	.LANCHOR59
 4116 033c 00000000 		.word	.LANCHOR5
 4117 0340 00000000 		.word	.LANCHOR6
 4118 0344 00000000 		.word	.LANCHOR14
 4119 0348 00000000 		.word	.LANCHOR53
 4120 034c 00000000 		.word	.LANCHOR52
 4121 0350 00000000 		.word	.LANCHOR21
 4122 0354 00000000 		.word	.LANCHOR41
 4123 0358 0050C347 		.word	1203982336
 4124 035c 00000000 		.word	.LANCHOR71
 4125 0360 00000000 		.word	.LANCHOR43
 4126              		.cfi_endproc
 4127              	.LFE262:
 4128              		.size	app_balance_configure, .-app_balance_configure
 4129              		.section	.text.app_balance_start,"ax",%progbits
 4130              		.align	1
 4131              		.p2align 4,,15
 4132              		.global	app_balance_start
 4133              		.syntax unified
 4134              		.thumb
 4135              		.thumb_func
 4136              		.fpu fpv4-sp-d16
 4137              		.type	app_balance_start, %function
 4138              	app_balance_start:
 4139              	.LFB263:
 4140              		.loc 1 228 0
 4141              		.cfi_startproc
 4142              		@ args = 0, pretend = 0, frame = 0
 4143              		@ frame_needed = 0, uses_anonymous_args = 0
 4144 0000 30B5     		push	{r4, r5, lr}
 4145              		.cfi_def_cfa_offset 12
 4146              		.cfi_offset 4, -12
 4147              		.cfi_offset 5, -8
 4148              		.cfi_offset 14, -4
 4149              		.loc 1 230 0
 4150 0002 114D     		ldr	r5, .L452
 4151              		.loc 1 232 0
 4152 0004 114B     		ldr	r3, .L452+4
 4153 0006 124A     		ldr	r2, .L452+8
 4154 0008 1249     		ldr	r1, .L452+12
 4155 000a 1348     		ldr	r0, .L452+16
 4156              		.loc 1 228 0
 4157 000c 83B0     		sub	sp, sp, #12
 4158              		.cfi_def_cfa_offset 24
 4159              		.loc 1 230 0
 4160 000e 0024     		movs	r4, #0
 4161 0010 2C70     		strb	r4, [r5]
ARM GAS  /tmp/ccIHdayg.s 			page 74


 4162              		.loc 1 232 0
 4163 0012 FFF7FEFF 		bl	terminal_register_command_callback
 4164              	.LVL200:
 4165              		.loc 1 237 0
 4166 0016 114B     		ldr	r3, .L452+20
 4167 0018 114A     		ldr	r2, .L452+24
 4168 001a 1249     		ldr	r1, .L452+28
 4169 001c 1248     		ldr	r0, .L452+32
 4170 001e FFF7FEFF 		bl	terminal_register_command_callback
 4171              	.LVL201:
 4172              		.loc 1 242 0
 4173 0022 124B     		ldr	r3, .L452+36
 4174 0024 124A     		ldr	r2, .L452+40
 4175 0026 1349     		ldr	r1, .L452+44
 4176 0028 1348     		ldr	r0, .L452+48
 4177 002a FFF7FEFF 		bl	terminal_register_command_callback
 4178              	.LVL202:
 4179              		.loc 1 248 0
 4180 002e 0094     		str	r4, [sp]
 4181 0030 124B     		ldr	r3, .L452+52
 4182 0032 1348     		ldr	r0, .L452+56
 4183 0034 4022     		movs	r2, #64
 4184 0036 4FF4B461 		mov	r1, #1440
 4185 003a FFF7FEFF 		bl	chThdCreateStatic
 4186              	.LVL203:
 4187 003e 114B     		ldr	r3, .L452+60
 4188 0040 1860     		str	r0, [r3]
 4189              		.loc 1 249 0
 4190 0042 03B0     		add	sp, sp, #12
 4191              		.cfi_def_cfa_offset 12
 4192              		@ sp needed
 4193 0044 30BD     		pop	{r4, r5, pc}
 4194              	.L453:
 4195 0046 00BF     		.align	2
 4196              	.L452:
 4197 0048 00000000 		.word	.LANCHOR19
 4198 004c 00000000 		.word	terminal_render
 4199 0050 00000000 		.word	.LC13
 4200 0054 28000000 		.word	.LC14
 4201 0058 60000000 		.word	.LC15
 4202 005c 00000000 		.word	terminal_sample
 4203 0060 74000000 		.word	.LC16
 4204 0064 94000000 		.word	.LC17
 4205 0068 BC000000 		.word	.LC18
 4206 006c 00000000 		.word	terminal_experiment
 4207 0070 D0000000 		.word	.LC19
 4208 0074 EC000000 		.word	.LC20
 4209 0078 20010000 		.word	.LC21
 4210 007c 00000000 		.word	balance_thread
 4211 0080 00000000 		.word	.LANCHOR78
 4212 0084 00000000 		.word	.LANCHOR79
 4213              		.cfi_endproc
 4214              	.LFE263:
 4215              		.size	app_balance_start, .-app_balance_start
 4216              		.section	.text.app_balance_stop,"ax",%progbits
 4217              		.align	1
 4218              		.p2align 4,,15
ARM GAS  /tmp/ccIHdayg.s 			page 75


 4219              		.global	app_balance_stop
 4220              		.syntax unified
 4221              		.thumb
 4222              		.thumb_func
 4223              		.fpu fpv4-sp-d16
 4224              		.type	app_balance_stop, %function
 4225              	app_balance_stop:
 4226              	.LFB264:
 4227              		.loc 1 251 0
 4228              		.cfi_startproc
 4229              		@ args = 0, pretend = 0, frame = 0
 4230              		@ frame_needed = 0, uses_anonymous_args = 0
 4231 0000 10B5     		push	{r4, lr}
 4232              		.cfi_def_cfa_offset 8
 4233              		.cfi_offset 4, -8
 4234              		.cfi_offset 14, -4
 4235              		.loc 1 252 0
 4236 0002 0B4C     		ldr	r4, .L460
 4237 0004 2068     		ldr	r0, [r4]
 4238 0006 20B1     		cbz	r0, .L455
 4239              		.loc 1 253 0
 4240 0008 FFF7FEFF 		bl	chThdTerminate
 4241              	.LVL204:
 4242              		.loc 1 254 0
 4243 000c 2068     		ldr	r0, [r4]
 4244 000e FFF7FEFF 		bl	chThdWait
 4245              	.LVL205:
 4246              	.L455:
 4247              		.loc 1 256 0
 4248 0012 DFED080A 		vldr.32	s1, .L460+4
 4249 0016 B0EE600A 		vmov.f32	s0, s1
 4250 001a FFF7FEFF 		bl	set_current
 4251              	.LVL206:
 4252              		.loc 1 257 0
 4253 001e 0648     		ldr	r0, .L460+8
 4254 0020 FFF7FEFF 		bl	terminal_unregister_callback
 4255              	.LVL207:
 4256              		.loc 1 258 0
 4257 0024 0548     		ldr	r0, .L460+12
 4258              		.loc 1 259 0
 4259 0026 BDE81040 		pop	{r4, lr}
 4260              		.cfi_restore 14
 4261              		.cfi_restore 4
 4262              		.cfi_def_cfa_offset 0
 4263              		.loc 1 258 0
 4264 002a FFF7FEBF 		b	terminal_unregister_callback
 4265              	.LVL208:
 4266              	.L461:
 4267 002e 00BF     		.align	2
 4268              	.L460:
 4269 0030 00000000 		.word	.LANCHOR79
 4270 0034 00000000 		.word	0
 4271 0038 00000000 		.word	terminal_render
 4272 003c 00000000 		.word	terminal_sample
 4273              		.cfi_endproc
 4274              	.LFE264:
 4275              		.size	app_balance_stop, .-app_balance_stop
ARM GAS  /tmp/ccIHdayg.s 			page 76


 4276              		.section	.text.app_balance_get_pid_output,"ax",%progbits
 4277              		.align	1
 4278              		.p2align 4,,15
 4279              		.global	app_balance_get_pid_output
 4280              		.syntax unified
 4281              		.thumb
 4282              		.thumb_func
 4283              		.fpu fpv4-sp-d16
 4284              		.type	app_balance_get_pid_output, %function
 4285              	app_balance_get_pid_output:
 4286              	.LFB265:
 4287              		.loc 1 261 0
 4288              		.cfi_startproc
 4289              		@ args = 0, pretend = 0, frame = 0
 4290              		@ frame_needed = 0, uses_anonymous_args = 0
 4291              		@ link register save eliminated.
 4292              		.loc 1 262 0
 4293 0000 014B     		ldr	r3, .L463
 4294              		.loc 1 263 0
 4295 0002 93ED000A 		vldr.32	s0, [r3]
 4296 0006 7047     		bx	lr
 4297              	.L464:
 4298              		.align	2
 4299              	.L463:
 4300 0008 00000000 		.word	.LANCHOR60
 4301              		.cfi_endproc
 4302              	.LFE265:
 4303              		.size	app_balance_get_pid_output, .-app_balance_get_pid_output
 4304              		.section	.text.app_balance_get_pitch_angle,"ax",%progbits
 4305              		.align	1
 4306              		.p2align 4,,15
 4307              		.global	app_balance_get_pitch_angle
 4308              		.syntax unified
 4309              		.thumb
 4310              		.thumb_func
 4311              		.fpu fpv4-sp-d16
 4312              		.type	app_balance_get_pitch_angle, %function
 4313              	app_balance_get_pitch_angle:
 4314              	.LFB266:
 4315              		.loc 1 264 0
 4316              		.cfi_startproc
 4317              		@ args = 0, pretend = 0, frame = 0
 4318              		@ frame_needed = 0, uses_anonymous_args = 0
 4319              		@ link register save eliminated.
 4320              		.loc 1 265 0
 4321 0000 014B     		ldr	r3, .L466
 4322              		.loc 1 266 0
 4323 0002 93ED000A 		vldr.32	s0, [r3]
 4324 0006 7047     		bx	lr
 4325              	.L467:
 4326              		.align	2
 4327              	.L466:
 4328 0008 00000000 		.word	.LANCHOR7
 4329              		.cfi_endproc
 4330              	.LFE266:
 4331              		.size	app_balance_get_pitch_angle, .-app_balance_get_pitch_angle
 4332              		.section	.text.app_balance_get_roll_angle,"ax",%progbits
ARM GAS  /tmp/ccIHdayg.s 			page 77


 4333              		.align	1
 4334              		.p2align 4,,15
 4335              		.global	app_balance_get_roll_angle
 4336              		.syntax unified
 4337              		.thumb
 4338              		.thumb_func
 4339              		.fpu fpv4-sp-d16
 4340              		.type	app_balance_get_roll_angle, %function
 4341              	app_balance_get_roll_angle:
 4342              	.LFB267:
 4343              		.loc 1 267 0
 4344              		.cfi_startproc
 4345              		@ args = 0, pretend = 0, frame = 0
 4346              		@ frame_needed = 0, uses_anonymous_args = 0
 4347              		@ link register save eliminated.
 4348              		.loc 1 268 0
 4349 0000 014B     		ldr	r3, .L469
 4350              		.loc 1 269 0
 4351 0002 93ED000A 		vldr.32	s0, [r3]
 4352 0006 7047     		bx	lr
 4353              	.L470:
 4354              		.align	2
 4355              	.L469:
 4356 0008 00000000 		.word	.LANCHOR30
 4357              		.cfi_endproc
 4358              	.LFE267:
 4359              		.size	app_balance_get_roll_angle, .-app_balance_get_roll_angle
 4360              		.section	.text.app_balance_get_diff_time,"ax",%progbits
 4361              		.align	1
 4362              		.p2align 4,,15
 4363              		.global	app_balance_get_diff_time
 4364              		.syntax unified
 4365              		.thumb
 4366              		.thumb_func
 4367              		.fpu fpv4-sp-d16
 4368              		.type	app_balance_get_diff_time, %function
 4369              	app_balance_get_diff_time:
 4370              	.LFB268:
 4371              		.loc 1 270 0
 4372              		.cfi_startproc
 4373              		@ args = 0, pretend = 0, frame = 0
 4374              		@ frame_needed = 0, uses_anonymous_args = 0
 4375              		@ link register save eliminated.
 4376              		.loc 1 271 0
 4377 0000 054B     		ldr	r3, .L472
 4378 0002 0649     		ldr	r1, .L472+4
 4379 0004 1868     		ldr	r0, [r3]
 4380 0006 064B     		ldr	r3, .L472+8
 4381 0008 42F20F72 		movw	r2, #9999
 4382 000c 01FB0020 		mla	r0, r1, r0, r2
 4383 0010 A3FB0030 		umull	r3, r0, r3, r0
 4384              		.loc 1 272 0
 4385 0014 400B     		lsrs	r0, r0, #13
 4386 0016 7047     		bx	lr
 4387              	.L473:
 4388              		.align	2
 4389              	.L472:
ARM GAS  /tmp/ccIHdayg.s 			page 78


 4390 0018 00000000 		.word	.LANCHOR22
 4391 001c 40420F00 		.word	1000000
 4392 0020 5917B7D1 		.word	-776530087
 4393              		.cfi_endproc
 4394              	.LFE268:
 4395              		.size	app_balance_get_diff_time, .-app_balance_get_diff_time
 4396              		.section	.text.app_balance_get_motor_current,"ax",%progbits
 4397              		.align	1
 4398              		.p2align 4,,15
 4399              		.global	app_balance_get_motor_current
 4400              		.syntax unified
 4401              		.thumb
 4402              		.thumb_func
 4403              		.fpu fpv4-sp-d16
 4404              		.type	app_balance_get_motor_current, %function
 4405              	app_balance_get_motor_current:
 4406              	.LFB269:
 4407              		.loc 1 273 0
 4408              		.cfi_startproc
 4409              		@ args = 0, pretend = 0, frame = 0
 4410              		@ frame_needed = 0, uses_anonymous_args = 0
 4411              		@ link register save eliminated.
 4412              		.loc 1 274 0
 4413 0000 014B     		ldr	r3, .L475
 4414              		.loc 1 275 0
 4415 0002 93ED000A 		vldr.32	s0, [r3]
 4416 0006 7047     		bx	lr
 4417              	.L476:
 4418              		.align	2
 4419              	.L475:
 4420 0008 00000000 		.word	.LANCHOR37
 4421              		.cfi_endproc
 4422              	.LFE269:
 4423              		.size	app_balance_get_motor_current, .-app_balance_get_motor_current
 4424              		.section	.text.app_balance_get_state,"ax",%progbits
 4425              		.align	1
 4426              		.p2align 4,,15
 4427              		.global	app_balance_get_state
 4428              		.syntax unified
 4429              		.thumb
 4430              		.thumb_func
 4431              		.fpu fpv4-sp-d16
 4432              		.type	app_balance_get_state, %function
 4433              	app_balance_get_state:
 4434              	.LFB270:
 4435              		.loc 1 276 0
 4436              		.cfi_startproc
 4437              		@ args = 0, pretend = 0, frame = 0
 4438              		@ frame_needed = 0, uses_anonymous_args = 0
 4439              		@ link register save eliminated.
 4440              		.loc 1 277 0
 4441 0000 014B     		ldr	r3, .L478
 4442              		.loc 1 278 0
 4443 0002 1878     		ldrb	r0, [r3]	@ zero_extendqisi2
 4444 0004 7047     		bx	lr
 4445              	.L479:
 4446 0006 00BF     		.align	2
ARM GAS  /tmp/ccIHdayg.s 			page 79


 4447              	.L478:
 4448 0008 00000000 		.word	.LANCHOR19
 4449              		.cfi_endproc
 4450              	.LFE270:
 4451              		.size	app_balance_get_state, .-app_balance_get_state
 4452              		.section	.text.app_balance_get_switch_state,"ax",%progbits
 4453              		.align	1
 4454              		.p2align 4,,15
 4455              		.global	app_balance_get_switch_state
 4456              		.syntax unified
 4457              		.thumb
 4458              		.thumb_func
 4459              		.fpu fpv4-sp-d16
 4460              		.type	app_balance_get_switch_state, %function
 4461              	app_balance_get_switch_state:
 4462              	.LFB271:
 4463              		.loc 1 279 0
 4464              		.cfi_startproc
 4465              		@ args = 0, pretend = 0, frame = 0
 4466              		@ frame_needed = 0, uses_anonymous_args = 0
 4467              		@ link register save eliminated.
 4468              		.loc 1 280 0
 4469 0000 014B     		ldr	r3, .L481
 4470              		.loc 1 281 0
 4471 0002 1878     		ldrb	r0, [r3]	@ zero_extendqisi2
 4472 0004 7047     		bx	lr
 4473              	.L482:
 4474 0006 00BF     		.align	2
 4475              	.L481:
 4476 0008 00000000 		.word	.LANCHOR24
 4477              		.cfi_endproc
 4478              	.LFE271:
 4479              		.size	app_balance_get_switch_state, .-app_balance_get_switch_state
 4480              		.section	.text.app_balance_get_adc1,"ax",%progbits
 4481              		.align	1
 4482              		.p2align 4,,15
 4483              		.global	app_balance_get_adc1
 4484              		.syntax unified
 4485              		.thumb
 4486              		.thumb_func
 4487              		.fpu fpv4-sp-d16
 4488              		.type	app_balance_get_adc1, %function
 4489              	app_balance_get_adc1:
 4490              	.LFB272:
 4491              		.loc 1 282 0
 4492              		.cfi_startproc
 4493              		@ args = 0, pretend = 0, frame = 0
 4494              		@ frame_needed = 0, uses_anonymous_args = 0
 4495              		@ link register save eliminated.
 4496              		.loc 1 283 0
 4497 0000 014B     		ldr	r3, .L484
 4498              		.loc 1 284 0
 4499 0002 93ED000A 		vldr.32	s0, [r3]
 4500 0006 7047     		bx	lr
 4501              	.L485:
 4502              		.align	2
 4503              	.L484:
ARM GAS  /tmp/ccIHdayg.s 			page 80


 4504 0008 00000000 		.word	.LANCHOR49
 4505              		.cfi_endproc
 4506              	.LFE272:
 4507              		.size	app_balance_get_adc1, .-app_balance_get_adc1
 4508              		.section	.text.app_balance_get_adc2,"ax",%progbits
 4509              		.align	1
 4510              		.p2align 4,,15
 4511              		.global	app_balance_get_adc2
 4512              		.syntax unified
 4513              		.thumb
 4514              		.thumb_func
 4515              		.fpu fpv4-sp-d16
 4516              		.type	app_balance_get_adc2, %function
 4517              	app_balance_get_adc2:
 4518              	.LFB273:
 4519              		.loc 1 285 0
 4520              		.cfi_startproc
 4521              		@ args = 0, pretend = 0, frame = 0
 4522              		@ frame_needed = 0, uses_anonymous_args = 0
 4523              		@ link register save eliminated.
 4524              		.loc 1 286 0
 4525 0000 014B     		ldr	r3, .L487
 4526              		.loc 1 287 0
 4527 0002 93ED000A 		vldr.32	s0, [r3]
 4528 0006 7047     		bx	lr
 4529              	.L488:
 4530              		.align	2
 4531              	.L487:
 4532 0008 00000000 		.word	.LANCHOR50
 4533              		.cfi_endproc
 4534              	.LFE273:
 4535              		.size	app_balance_get_adc2, .-app_balance_get_adc2
 4536              		.section	.text.app_balance_get_debug1,"ax",%progbits
 4537              		.align	1
 4538              		.p2align 4,,15
 4539              		.global	app_balance_get_debug1
 4540              		.syntax unified
 4541              		.thumb
 4542              		.thumb_func
 4543              		.fpu fpv4-sp-d16
 4544              		.type	app_balance_get_debug1, %function
 4545              	app_balance_get_debug1:
 4546              	.LFB274:
 4547              		.loc 1 288 0
 4548              		.cfi_startproc
 4549              		@ args = 0, pretend = 0, frame = 0
 4550              		@ frame_needed = 0, uses_anonymous_args = 0
 4551              		@ link register save eliminated.
 4552              		.loc 1 289 0
 4553 0000 014B     		ldr	r3, .L490
 4554 0002 1868     		ldr	r0, [r3]
 4555 0004 FFF7FEBF 		b	app_balance_get_debug
 4556              	.LVL209:
 4557              	.L491:
 4558              		.align	2
 4559              	.L490:
 4560 0008 00000000 		.word	.LANCHOR75
ARM GAS  /tmp/ccIHdayg.s 			page 81


 4561              		.cfi_endproc
 4562              	.LFE274:
 4563              		.size	app_balance_get_debug1, .-app_balance_get_debug1
 4564              		.section	.text.app_balance_get_debug2,"ax",%progbits
 4565              		.align	1
 4566              		.p2align 4,,15
 4567              		.global	app_balance_get_debug2
 4568              		.syntax unified
 4569              		.thumb
 4570              		.thumb_func
 4571              		.fpu fpv4-sp-d16
 4572              		.type	app_balance_get_debug2, %function
 4573              	app_balance_get_debug2:
 4574              	.LFB275:
 4575              		.loc 1 291 0
 4576              		.cfi_startproc
 4577              		@ args = 0, pretend = 0, frame = 0
 4578              		@ frame_needed = 0, uses_anonymous_args = 0
 4579              		@ link register save eliminated.
 4580              		.loc 1 292 0
 4581 0000 014B     		ldr	r3, .L493
 4582 0002 1868     		ldr	r0, [r3]
 4583 0004 FFF7FEBF 		b	app_balance_get_debug
 4584              	.LVL210:
 4585              	.L494:
 4586              		.align	2
 4587              	.L493:
 4588 0008 00000000 		.word	.LANCHOR76
 4589              		.cfi_endproc
 4590              	.LFE275:
 4591              		.size	app_balance_get_debug2, .-app_balance_get_debug2
 4592              		.section	.bss.abs_duty_cycle,"aw",%nobits
 4593              		.align	2
 4594              		.set	.LANCHOR32,. + 0
 4595              		.type	abs_duty_cycle, %object
 4596              		.size	abs_duty_cycle, 4
 4597              	abs_duty_cycle:
 4598 0000 00000000 		.space	4
 4599              		.section	.bss.abs_erpm,"aw",%nobits
 4600              		.align	2
 4601              		.set	.LANCHOR27,. + 0
 4602              		.type	abs_erpm, %object
 4603              		.size	abs_erpm, 4
 4604              	abs_erpm:
 4605 0000 00000000 		.space	4
 4606              		.section	.bss.abs_roll_angle,"aw",%nobits
 4607              		.align	2
 4608              		.set	.LANCHOR45,. + 0
 4609              		.type	abs_roll_angle, %object
 4610              		.size	abs_roll_angle, 4
 4611              	abs_roll_angle:
 4612 0000 00000000 		.space	4
 4613              		.section	.bss.abs_roll_angle_sin,"aw",%nobits
 4614              		.align	2
 4615              		.set	.LANCHOR46,. + 0
 4616              		.type	abs_roll_angle_sin, %object
 4617              		.size	abs_roll_angle_sin, 4
ARM GAS  /tmp/ccIHdayg.s 			page 82


 4618              	abs_roll_angle_sin:
 4619 0000 00000000 		.space	4
 4620              		.section	.bss.adc1,"aw",%nobits
 4621              		.align	2
 4622              		.set	.LANCHOR49,. + 0
 4623              		.type	adc1, %object
 4624              		.size	adc1, 4
 4625              	adc1:
 4626 0000 00000000 		.space	4
 4627              		.section	.bss.adc2,"aw",%nobits
 4628              		.align	2
 4629              		.set	.LANCHOR50,. + 0
 4630              		.type	adc2, %object
 4631              		.size	adc2, 4
 4632              	adc2:
 4633 0000 00000000 		.space	4
 4634              		.section	.bss.app_thread,"aw",%nobits
 4635              		.align	2
 4636              		.set	.LANCHOR79,. + 0
 4637              		.type	app_thread, %object
 4638              		.size	app_thread, 4
 4639              	app_thread:
 4640 0000 00000000 		.space	4
 4641              		.section	.bss.avg_erpm,"aw",%nobits
 4642              		.align	2
 4643              		.set	.LANCHOR48,. + 0
 4644              		.type	avg_erpm, %object
 4645              		.size	avg_erpm, 4
 4646              	avg_erpm:
 4647 0000 00000000 		.space	4
 4648              		.section	.bss.balance_conf,"aw",%nobits
 4649              		.align	2
 4650              		.set	.LANCHOR25,. + 0
 4651              		.type	balance_conf, %object
 4652              		.size	balance_conf, 232
 4653              	balance_conf:
 4654 0000 00000000 		.space	232
 4654      00000000 
 4654      00000000 
 4654      00000000 
 4654      00000000 
 4655              		.section	.bss.balance_thread_wa,"aw",%nobits
 4656              		.align	3
 4657              		.set	.LANCHOR78,. + 0
 4658              		.type	balance_thread_wa, %object
 4659              		.size	balance_thread_wa, 1440
 4660              	balance_thread_wa:
 4661 0000 00000000 		.space	1440
 4661      00000000 
 4661      00000000 
 4661      00000000 
 4661      00000000 
 4662              		.section	.bss.brake_timeout,"aw",%nobits
 4663              		.align	2
 4664              		.set	.LANCHOR23,. + 0
 4665              		.type	brake_timeout, %object
 4666              		.size	brake_timeout, 4
ARM GAS  /tmp/ccIHdayg.s 			page 83


 4667              	brake_timeout:
 4668 0000 00000000 		.space	4
 4669              		.section	.bss.current_time,"aw",%nobits
 4670              		.align	2
 4671              		.set	.LANCHOR20,. + 0
 4672              		.type	current_time, %object
 4673              		.size	current_time, 4
 4674              	current_time:
 4675 0000 00000000 		.space	4
 4676              		.section	.bss.d_biquad_highpass,"aw",%nobits
 4677              		.align	2
 4678              		.set	.LANCHOR6,. + 0
 4679              		.type	d_biquad_highpass, %object
 4680              		.size	d_biquad_highpass, 28
 4681              	d_biquad_highpass:
 4682 0000 00000000 		.space	28
 4682      00000000 
 4682      00000000 
 4682      00000000 
 4682      00000000 
 4683              		.section	.bss.d_biquad_lowpass,"aw",%nobits
 4684              		.align	2
 4685              		.set	.LANCHOR5,. + 0
 4686              		.type	d_biquad_lowpass, %object
 4687              		.size	d_biquad_lowpass, 28
 4688              	d_biquad_lowpass:
 4689 0000 00000000 		.space	28
 4689      00000000 
 4689      00000000 
 4689      00000000 
 4689      00000000 
 4690              		.section	.bss.d_pt1_highpass_k,"aw",%nobits
 4691              		.align	2
 4692              		.set	.LANCHOR59,. + 0
 4693              		.type	d_pt1_highpass_k, %object
 4694              		.size	d_pt1_highpass_k, 4
 4695              	d_pt1_highpass_k:
 4696 0000 00000000 		.space	4
 4697              		.section	.bss.d_pt1_highpass_state,"aw",%nobits
 4698              		.align	2
 4699              		.set	.LANCHOR4,. + 0
 4700              		.type	d_pt1_highpass_state, %object
 4701              		.size	d_pt1_highpass_state, 4
 4702              	d_pt1_highpass_state:
 4703 0000 00000000 		.space	4
 4704              		.section	.bss.d_pt1_lowpass_k,"aw",%nobits
 4705              		.align	2
 4706              		.set	.LANCHOR58,. + 0
 4707              		.type	d_pt1_lowpass_k, %object
 4708              		.size	d_pt1_lowpass_k, 4
 4709              	d_pt1_lowpass_k:
 4710 0000 00000000 		.space	4
 4711              		.section	.bss.d_pt1_lowpass_state,"aw",%nobits
 4712              		.align	2
 4713              		.set	.LANCHOR3,. + 0
 4714              		.type	d_pt1_lowpass_state, %object
 4715              		.size	d_pt1_lowpass_state, 4
ARM GAS  /tmp/ccIHdayg.s 			page 84


 4716              	d_pt1_lowpass_state:
 4717 0000 00000000 		.space	4
 4718              		.section	.bss.debug_experiment_1,"aw",%nobits
 4719              		.align	2
 4720              		.set	.LANCHOR65,. + 0
 4721              		.type	debug_experiment_1, %object
 4722              		.size	debug_experiment_1, 4
 4723              	debug_experiment_1:
 4724 0000 00000000 		.space	4
 4725              		.section	.bss.debug_experiment_2,"aw",%nobits
 4726              		.align	2
 4727              		.set	.LANCHOR66,. + 0
 4728              		.type	debug_experiment_2, %object
 4729              		.size	debug_experiment_2, 4
 4730              	debug_experiment_2:
 4731 0000 00000000 		.space	4
 4732              		.section	.bss.debug_experiment_3,"aw",%nobits
 4733              		.align	2
 4734              		.set	.LANCHOR67,. + 0
 4735              		.type	debug_experiment_3, %object
 4736              		.size	debug_experiment_3, 4
 4737              	debug_experiment_3:
 4738 0000 00000000 		.space	4
 4739              		.section	.bss.debug_experiment_4,"aw",%nobits
 4740              		.align	2
 4741              		.set	.LANCHOR68,. + 0
 4742              		.type	debug_experiment_4, %object
 4743              		.size	debug_experiment_4, 4
 4744              	debug_experiment_4:
 4745 0000 00000000 		.space	4
 4746              		.section	.bss.debug_experiment_5,"aw",%nobits
 4747              		.align	2
 4748              		.set	.LANCHOR69,. + 0
 4749              		.type	debug_experiment_5, %object
 4750              		.size	debug_experiment_5, 4
 4751              	debug_experiment_5:
 4752 0000 00000000 		.space	4
 4753              		.section	.bss.debug_experiment_6,"aw",%nobits
 4754              		.align	2
 4755              		.set	.LANCHOR70,. + 0
 4756              		.type	debug_experiment_6, %object
 4757              		.size	debug_experiment_6, 4
 4758              	debug_experiment_6:
 4759 0000 00000000 		.space	4
 4760              		.section	.bss.debug_render_1,"aw",%nobits
 4761              		.align	2
 4762              		.set	.LANCHOR75,. + 0
 4763              		.type	debug_render_1, %object
 4764              		.size	debug_render_1, 4
 4765              	debug_render_1:
 4766 0000 00000000 		.space	4
 4767              		.section	.bss.debug_render_2,"aw",%nobits
 4768              		.align	2
 4769              		.set	.LANCHOR76,. + 0
 4770              		.type	debug_render_2, %object
 4771              		.size	debug_render_2, 4
 4772              	debug_render_2:
ARM GAS  /tmp/ccIHdayg.s 			page 85


 4773 0000 00000000 		.space	4
 4774              		.section	.bss.debug_sample_count,"aw",%nobits
 4775              		.align	2
 4776              		.set	.LANCHOR63,. + 0
 4777              		.type	debug_sample_count, %object
 4778              		.size	debug_sample_count, 4
 4779              	debug_sample_count:
 4780 0000 00000000 		.space	4
 4781              		.section	.bss.debug_sample_field,"aw",%nobits
 4782              		.align	2
 4783              		.set	.LANCHOR64,. + 0
 4784              		.type	debug_sample_field, %object
 4785              		.size	debug_sample_field, 4
 4786              	debug_sample_field:
 4787 0000 00000000 		.space	4
 4788              		.section	.bss.debug_sample_index,"aw",%nobits
 4789              		.align	2
 4790              		.set	.LANCHOR62,. + 0
 4791              		.type	debug_sample_index, %object
 4792              		.size	debug_sample_index, 4
 4793              	debug_sample_index:
 4794 0000 00000000 		.space	4
 4795              		.section	.bss.derivative,"aw",%nobits
 4796              		.align	2
 4797              		.set	.LANCHOR35,. + 0
 4798              		.type	derivative, %object
 4799              		.size	derivative, 4
 4800              	derivative:
 4801 0000 00000000 		.space	4
 4802              		.section	.bss.diff_time,"aw",%nobits
 4803              		.align	2
 4804              		.set	.LANCHOR22,. + 0
 4805              		.type	diff_time, %object
 4806              		.size	diff_time, 4
 4807              	diff_time:
 4808 0000 00000000 		.space	4
 4809              		.section	.bss.erpm,"aw",%nobits
 4810              		.align	2
 4811              		.set	.LANCHOR38,. + 0
 4812              		.type	erpm, %object
 4813              		.size	erpm, 4
 4814              	erpm:
 4815 0000 00000000 		.space	4
 4816              		.section	.bss.fault_angle_pitch_timer,"aw",%nobits
 4817              		.align	2
 4818              		.set	.LANCHOR29,. + 0
 4819              		.type	fault_angle_pitch_timer, %object
 4820              		.size	fault_angle_pitch_timer, 4
 4821              	fault_angle_pitch_timer:
 4822 0000 00000000 		.space	4
 4823              		.section	.bss.fault_angle_roll_timer,"aw",%nobits
 4824              		.align	2
 4825              		.set	.LANCHOR31,. + 0
 4826              		.type	fault_angle_roll_timer, %object
 4827              		.size	fault_angle_roll_timer, 4
 4828              	fault_angle_roll_timer:
 4829 0000 00000000 		.space	4
ARM GAS  /tmp/ccIHdayg.s 			page 86


 4830              		.section	.bss.fault_duty_timer,"aw",%nobits
 4831              		.align	2
 4832              		.set	.LANCHOR33,. + 0
 4833              		.type	fault_duty_timer, %object
 4834              		.size	fault_duty_timer, 4
 4835              	fault_duty_timer:
 4836 0000 00000000 		.space	4
 4837              		.section	.bss.fault_switch_half_timer,"aw",%nobits
 4838              		.align	2
 4839              		.set	.LANCHOR28,. + 0
 4840              		.type	fault_switch_half_timer, %object
 4841              		.size	fault_switch_half_timer, 4
 4842              	fault_switch_half_timer:
 4843 0000 00000000 		.space	4
 4844              		.section	.bss.fault_switch_timer,"aw",%nobits
 4845              		.align	2
 4846              		.set	.LANCHOR26,. + 0
 4847              		.type	fault_switch_timer, %object
 4848              		.size	fault_switch_timer, 4
 4849              	fault_switch_timer:
 4850 0000 00000000 		.space	4
 4851              		.section	.bss.filtered_diff_time,"aw",%nobits
 4852              		.align	2
 4853              		.set	.LANCHOR42,. + 0
 4854              		.type	filtered_diff_time, %object
 4855              		.size	filtered_diff_time, 4
 4856              	filtered_diff_time:
 4857 0000 00000000 		.space	4
 4858              		.section	.bss.filtered_loop_overshoot,"aw",%nobits
 4859              		.align	2
 4860              		.set	.LANCHOR41,. + 0
 4861              		.type	filtered_loop_overshoot, %object
 4862              		.size	filtered_loop_overshoot, 4
 4863              	filtered_loop_overshoot:
 4864 0000 00000000 		.space	4
 4865              		.section	.bss.gyro,"aw",%nobits
 4866              		.align	2
 4867              		.set	.LANCHOR47,. + 0
 4868              		.type	gyro, %object
 4869              		.size	gyro, 12
 4870              	gyro:
 4871 0000 00000000 		.space	12
 4871      00000000 
 4871      00000000 
 4872              		.section	.bss.imu_conf,"aw",%nobits
 4873              		.align	2
 4874              		.set	.LANCHOR77,. + 0
 4875              		.type	imu_conf, %object
 4876              		.size	imu_conf, 60
 4877              	imu_conf:
 4878 0000 00000000 		.space	60
 4878      00000000 
 4878      00000000 
 4878      00000000 
 4878      00000000 
 4879              		.section	.bss.integral,"aw",%nobits
 4880              		.align	2
ARM GAS  /tmp/ccIHdayg.s 			page 87


 4881              		.set	.LANCHOR0,. + 0
 4882              		.type	integral, %object
 4883              		.size	integral, 4
 4884              	integral:
 4885 0000 00000000 		.space	4
 4886              		.section	.bss.last_pitch_angle,"aw",%nobits
 4887              		.align	2
 4888              		.set	.LANCHOR36,. + 0
 4889              		.type	last_pitch_angle, %object
 4890              		.size	last_pitch_angle, 4
 4891              	last_pitch_angle:
 4892 0000 00000000 		.space	4
 4893              		.section	.bss.last_time,"aw",%nobits
 4894              		.align	2
 4895              		.set	.LANCHOR21,. + 0
 4896              		.type	last_time, %object
 4897              		.size	last_time, 4
 4898              	last_time:
 4899 0000 00000000 		.space	4
 4900              		.section	.bss.loop_overshoot,"aw",%nobits
 4901              		.align	2
 4902              		.set	.LANCHOR40,. + 0
 4903              		.type	loop_overshoot, %object
 4904              		.size	loop_overshoot, 4
 4905              	loop_overshoot:
 4906 0000 00000000 		.space	4
 4907              		.section	.bss.loop_overshoot_alpha,"aw",%nobits
 4908              		.align	2
 4909              		.set	.LANCHOR44,. + 0
 4910              		.type	loop_overshoot_alpha, %object
 4911              		.size	loop_overshoot_alpha, 4
 4912              	loop_overshoot_alpha:
 4913 0000 00000000 		.space	4
 4914              		.section	.bss.loop_time,"aw",%nobits
 4915              		.align	2
 4916              		.set	.LANCHOR39,. + 0
 4917              		.type	loop_time, %object
 4918              		.size	loop_time, 4
 4919              	loop_time:
 4920 0000 00000000 		.space	4
 4921              		.section	.bss.motor_current,"aw",%nobits
 4922              		.align	2
 4923              		.set	.LANCHOR37,. + 0
 4924              		.type	motor_current, %object
 4925              		.size	motor_current, 4
 4926              	motor_current:
 4927 0000 00000000 		.space	4
 4928              		.section	.bss.motor_position,"aw",%nobits
 4929              		.align	2
 4930              		.set	.LANCHOR34,. + 0
 4931              		.type	motor_position, %object
 4932              		.size	motor_position, 4
 4933              	motor_position:
 4934 0000 00000000 		.space	4
 4935              		.section	.bss.motor_timeout,"aw",%nobits
 4936              		.align	2
 4937              		.set	.LANCHOR43,. + 0
ARM GAS  /tmp/ccIHdayg.s 			page 88


 4938              		.type	motor_timeout, %object
 4939              		.size	motor_timeout, 4
 4940              	motor_timeout:
 4941 0000 00000000 		.space	4
 4942              		.section	.bss.noseangling_interpolated,"aw",%nobits
 4943              		.align	2
 4944              		.set	.LANCHOR11,. + 0
 4945              		.type	noseangling_interpolated, %object
 4946              		.size	noseangling_interpolated, 4
 4947              	noseangling_interpolated:
 4948 0000 00000000 		.space	4
 4949              		.section	.bss.noseangling_step_size,"aw",%nobits
 4950              		.align	2
 4951              		.set	.LANCHOR54,. + 0
 4952              		.type	noseangling_step_size, %object
 4953              		.size	noseangling_step_size, 4
 4954              	noseangling_step_size:
 4955 0000 00000000 		.space	4
 4956              		.section	.bss.pid_value,"aw",%nobits
 4957              		.align	2
 4958              		.set	.LANCHOR60,. + 0
 4959              		.type	pid_value, %object
 4960              		.size	pid_value, 4
 4961              	pid_value:
 4962 0000 00000000 		.space	4
 4963              		.section	.bss.pitch_angle,"aw",%nobits
 4964              		.align	2
 4965              		.set	.LANCHOR7,. + 0
 4966              		.type	pitch_angle, %object
 4967              		.size	pitch_angle, 4
 4968              	pitch_angle:
 4969 0000 00000000 		.space	4
 4970              		.section	.bss.roll_angle,"aw",%nobits
 4971              		.align	2
 4972              		.set	.LANCHOR30,. + 0
 4973              		.type	roll_angle, %object
 4974              		.size	roll_angle, 4
 4975              	roll_angle:
 4976 0000 00000000 		.space	4
 4977              		.section	.bss.setpoint,"aw",%nobits
 4978              		.align	2
 4979              		.set	.LANCHOR8,. + 0
 4980              		.type	setpoint, %object
 4981              		.size	setpoint, 4
 4982              	setpoint:
 4983 0000 00000000 		.space	4
 4984              		.section	.bss.setpointAdjustmentType,"aw",%nobits
 4985              		.set	.LANCHOR17,. + 0
 4986              		.type	setpointAdjustmentType, %object
 4987              		.size	setpointAdjustmentType, 1
 4988              	setpointAdjustmentType:
 4989 0000 00       		.space	1
 4990              		.section	.bss.setpoint_target,"aw",%nobits
 4991              		.align	2
 4992              		.set	.LANCHOR10,. + 0
 4993              		.type	setpoint_target, %object
 4994              		.size	setpoint_target, 4
ARM GAS  /tmp/ccIHdayg.s 			page 89


 4995              	setpoint_target:
 4996 0000 00000000 		.space	4
 4997              		.section	.bss.setpoint_target_interpolated,"aw",%nobits
 4998              		.align	2
 4999              		.set	.LANCHOR9,. + 0
 5000              		.type	setpoint_target_interpolated, %object
 5001              		.size	setpoint_target_interpolated, 4
 5002              	setpoint_target_interpolated:
 5003 0000 00000000 		.space	4
 5004              		.section	.bss.startup_step_size,"aw",%nobits
 5005              		.align	2
 5006              		.set	.LANCHOR51,. + 0
 5007              		.type	startup_step_size, %object
 5008              		.size	startup_step_size, 4
 5009              	startup_step_size:
 5010 0000 00000000 		.space	4
 5011              		.section	.bss.state,"aw",%nobits
 5012              		.set	.LANCHOR19,. + 0
 5013              		.type	state, %object
 5014              		.size	state, 1
 5015              	state:
 5016 0000 00       		.space	1
 5017              		.section	.bss.switch_state,"aw",%nobits
 5018              		.set	.LANCHOR24,. + 0
 5019              		.type	switch_state, %object
 5020              		.size	switch_state, 1
 5021              	switch_state:
 5022 0000 00       		.space	1
 5023              		.section	.bss.tiltback_duty_step_size,"aw",%nobits
 5024              		.align	2
 5025              		.set	.LANCHOR72,. + 0
 5026              		.type	tiltback_duty_step_size, %object
 5027              		.size	tiltback_duty_step_size, 4
 5028              	tiltback_duty_step_size:
 5029 0000 00000000 		.space	4
 5030              		.section	.bss.tiltback_hv_step_size,"aw",%nobits
 5031              		.align	2
 5032              		.set	.LANCHOR73,. + 0
 5033              		.type	tiltback_hv_step_size, %object
 5034              		.size	tiltback_hv_step_size, 4
 5035              	tiltback_hv_step_size:
 5036 0000 00000000 		.space	4
 5037              		.section	.bss.tiltback_lv_step_size,"aw",%nobits
 5038              		.align	2
 5039              		.set	.LANCHOR74,. + 0
 5040              		.type	tiltback_lv_step_size, %object
 5041              		.size	tiltback_lv_step_size, 4
 5042              	tiltback_lv_step_size:
 5043 0000 00000000 		.space	4
 5044              		.section	.bss.tiltback_return_step_size,"aw",%nobits
 5045              		.align	2
 5046              		.set	.LANCHOR71,. + 0
 5047              		.type	tiltback_return_step_size, %object
 5048              		.size	tiltback_return_step_size, 4
 5049              	tiltback_return_step_size:
 5050 0000 00000000 		.space	4
 5051              		.section	.bss.tiltback_variable,"aw",%nobits
ARM GAS  /tmp/ccIHdayg.s 			page 90


 5052              		.align	2
 5053              		.set	.LANCHOR53,. + 0
 5054              		.type	tiltback_variable, %object
 5055              		.size	tiltback_variable, 4
 5056              	tiltback_variable:
 5057 0000 00000000 		.space	4
 5058              		.section	.bss.tiltback_variable_max_erpm,"aw",%nobits
 5059              		.align	2
 5060              		.set	.LANCHOR52,. + 0
 5061              		.type	tiltback_variable_max_erpm, %object
 5062              		.size	tiltback_variable_max_erpm, 4
 5063              	tiltback_variable_max_erpm:
 5064 0000 00000000 		.space	4
 5065              		.section	.bss.torquetilt_current_biquad,"aw",%nobits
 5066              		.align	2
 5067              		.set	.LANCHOR14,. + 0
 5068              		.type	torquetilt_current_biquad, %object
 5069              		.size	torquetilt_current_biquad, 28
 5070              	torquetilt_current_biquad:
 5071 0000 00000000 		.space	28
 5071      00000000 
 5071      00000000 
 5071      00000000 
 5071      00000000 
 5072              		.section	.bss.torquetilt_filtered_current,"aw",%nobits
 5073              		.align	2
 5074              		.set	.LANCHOR13,. + 0
 5075              		.type	torquetilt_filtered_current, %object
 5076              		.size	torquetilt_filtered_current, 4
 5077              	torquetilt_filtered_current:
 5078 0000 00000000 		.space	4
 5079              		.section	.bss.torquetilt_interpolated,"aw",%nobits
 5080              		.align	2
 5081              		.set	.LANCHOR12,. + 0
 5082              		.type	torquetilt_interpolated, %object
 5083              		.size	torquetilt_interpolated, 4
 5084              	torquetilt_interpolated:
 5085 0000 00000000 		.space	4
 5086              		.section	.bss.torquetilt_off_step_size,"aw",%nobits
 5087              		.align	2
 5088              		.set	.LANCHOR55,. + 0
 5089              		.type	torquetilt_off_step_size, %object
 5090              		.size	torquetilt_off_step_size, 4
 5091              	torquetilt_off_step_size:
 5092 0000 00000000 		.space	4
 5093              		.section	.bss.torquetilt_on_step_size,"aw",%nobits
 5094              		.align	2
 5095              		.set	.LANCHOR56,. + 0
 5096              		.type	torquetilt_on_step_size, %object
 5097              		.size	torquetilt_on_step_size, 4
 5098              	torquetilt_on_step_size:
 5099 0000 00000000 		.space	4
 5100              		.section	.bss.turntilt_interpolated,"aw",%nobits
 5101              		.align	2
 5102              		.set	.LANCHOR16,. + 0
 5103              		.type	turntilt_interpolated, %object
 5104              		.size	turntilt_interpolated, 4
ARM GAS  /tmp/ccIHdayg.s 			page 91


 5105              	turntilt_interpolated:
 5106 0000 00000000 		.space	4
 5107              		.section	.bss.turntilt_step_size,"aw",%nobits
 5108              		.align	2
 5109              		.set	.LANCHOR57,. + 0
 5110              		.type	turntilt_step_size, %object
 5111              		.size	turntilt_step_size, 4
 5112              	turntilt_step_size:
 5113 0000 00000000 		.space	4
 5114              		.section	.bss.turntilt_target,"aw",%nobits
 5115              		.align	2
 5116              		.set	.LANCHOR15,. + 0
 5117              		.type	turntilt_target, %object
 5118              		.size	turntilt_target, 4
 5119              	turntilt_target:
 5120 0000 00000000 		.space	4
 5121              		.section	.bss.yaw_integral,"aw",%nobits
 5122              		.align	2
 5123              		.set	.LANCHOR1,. + 0
 5124              		.type	yaw_integral, %object
 5125              		.size	yaw_integral, 4
 5126              	yaw_integral:
 5127 0000 00000000 		.space	4
 5128              		.section	.bss.yaw_last_proportional,"aw",%nobits
 5129              		.align	2
 5130              		.set	.LANCHOR2,. + 0
 5131              		.type	yaw_last_proportional, %object
 5132              		.size	yaw_last_proportional, 4
 5133              	yaw_last_proportional:
 5134 0000 00000000 		.space	4
 5135              		.section	.bss.yaw_pid_value,"aw",%nobits
 5136              		.align	2
 5137              		.set	.LANCHOR61,. + 0
 5138              		.type	yaw_pid_value, %object
 5139              		.size	yaw_pid_value, 4
 5140              	yaw_pid_value:
 5141 0000 00000000 		.space	4
 5142              		.section	.bss.yaw_setpoint,"aw",%nobits
 5143              		.align	2
 5144              		.set	.LANCHOR18,. + 0
 5145              		.type	yaw_setpoint, %object
 5146              		.size	yaw_setpoint, 4
 5147              	yaw_setpoint:
 5148 0000 00000000 		.space	4
 5149              		.section	.rodata.app_balance_start.str1.4,"aMS",%progbits,1
 5150              		.align	2
 5151              	.LC13:
 5152 0000 5B466965 		.ascii	"[Field Number] [Plot (Optional 1 or 2)]\000"
 5152      6C64204E 
 5152      756D6265 
 5152      725D205B 
 5152      506C6F74 
 5153              	.LC14:
 5154 0028 52656E64 		.ascii	"Render debug values on the balance real time data g"
 5154      65722064 
 5154      65627567 
 5154      2076616C 
ARM GAS  /tmp/ccIHdayg.s 			page 92


 5154      75657320 
 5155 005b 72617068 		.ascii	"raph\000"
 5155      00
 5156              	.LC15:
 5157 0060 6170705F 		.ascii	"app_balance_render\000"
 5157      62616C61 
 5157      6E63655F 
 5157      72656E64 
 5157      657200
 5158 0073 00       		.space	1
 5159              	.LC16:
 5160 0074 5B466965 		.ascii	"[Field Number] [Sample Count]\000"
 5160      6C64204E 
 5160      756D6265 
 5160      725D205B 
 5160      53616D70 
 5161 0092 0000     		.space	2
 5162              	.LC17:
 5163 0094 4F757470 		.ascii	"Output real time values to the terminal\000"
 5163      75742072 
 5163      65616C20 
 5163      74696D65 
 5163      2076616C 
 5164              	.LC18:
 5165 00bc 6170705F 		.ascii	"app_balance_sample\000"
 5165      62616C61 
 5165      6E63655F 
 5165      73616D70 
 5165      6C6500
 5166 00cf 00       		.space	1
 5167              	.LC19:
 5168 00d0 5B466965 		.ascii	"[Field Number] [Plot 1-6]\000"
 5168      6C64204E 
 5168      756D6265 
 5168      725D205B 
 5168      506C6F74 
 5169 00ea 0000     		.space	2
 5170              	.LC20:
 5171 00ec 4F757470 		.ascii	"Output real time values to the experiments graph\000"
 5171      75742072 
 5171      65616C20 
 5171      74696D65 
 5171      2076616C 
 5172 011d 000000   		.space	3
 5173              	.LC21:
 5174 0120 6170705F 		.ascii	"app_balance_experiment\000"
 5174      62616C61 
 5174      6E63655F 
 5174      65787065 
 5174      72696D65 
 5175              		.section	.rodata.balance_thread.str1.4,"aMS",%progbits,1
 5176              		.align	2
 5177              	.LC0:
 5178 0000 4150505F 		.ascii	"APP_BALANCE\000"
 5178      42414C41 
 5178      4E434500 
 5179              	.LC1:
ARM GAS  /tmp/ccIHdayg.s 			page 93


 5180 000c 256600   		.ascii	"%f\000"
 5181              		.section	.rodata.terminal_experiment.str1.4,"aMS",%progbits,1
 5182              		.align	2
 5183              	.LC5:
 5184 0000 42616C61 		.ascii	"Balance App Debug Data\000"
 5184      6E636520 
 5184      41707020 
 5184      44656275 
 5184      67204461 
 5185 0017 00       		.space	1
 5186              	.LC6:
 5187 0018 4D696372 		.ascii	"Microseconds\000"
 5187      6F736563 
 5187      6F6E6473 
 5187      00
 5188 0025 000000   		.space	3
 5189              	.LC7:
 5190 0028 3100     		.ascii	"1\000"
 5191 002a 0000     		.space	2
 5192              	.LC8:
 5193 002c 3200     		.ascii	"2\000"
 5194 002e 0000     		.space	2
 5195              	.LC9:
 5196 0030 3300     		.ascii	"3\000"
 5197 0032 0000     		.space	2
 5198              	.LC10:
 5199 0034 3400     		.ascii	"4\000"
 5200 0036 0000     		.space	2
 5201              	.LC11:
 5202 0038 3500     		.ascii	"5\000"
 5203 003a 0000     		.space	2
 5204              	.LC12:
 5205 003c 3600     		.ascii	"6\000"
 5206              		.section	.rodata.terminal_render.str1.4,"aMS",%progbits,1
 5207              		.align	2
 5208              	.LC4:
 5209 0000 54686973 		.ascii	"This command requires one or two argument(s).\012\000"
 5209      20636F6D 
 5209      6D616E64 
 5209      20726571 
 5209      75697265 
 5210              		.section	.rodata.terminal_sample.str1.4,"aMS",%progbits,1
 5211              		.align	2
 5212              	.LC2:
 5213 0000 256400   		.ascii	"%d\000"
 5214 0003 00       		.space	1
 5215              	.LC3:
 5216 0004 54686973 		.ascii	"This command requires two arguments.\012\000"
 5216      20636F6D 
 5216      6D616E64 
 5216      20726571 
 5216      75697265 
 5217              		.text
 5218              	.Letext0:
 5219              		.file 5 "/usr/arm-none-eabi/include/machine/_default_types.h"
 5220              		.file 6 "/usr/arm-none-eabi/include/sys/_stdint.h"
 5221              		.file 7 "/usr/lib/gcc/arm-none-eabi/7.3.1/include/stddef.h"
ARM GAS  /tmp/ccIHdayg.s 			page 94


 5222              		.file 8 "ChibiOS_3.0.5/os/rt/ports/ARMCMx/compilers/GCC/chtypes.h"
 5223              		.file 9 "ChibiOS_3.0.5/os/rt/include/chsystypes.h"
 5224              		.file 10 "ChibiOS_3.0.5/os/rt/include/chschd.h"
 5225              		.file 11 "ChibiOS_3.0.5/os/ext/CMSIS/include/core_cm4.h"
 5226              		.file 12 "ChibiOS_3.0.5/os/ext/CMSIS/ST/system_stm32f4xx.h"
 5227              		.file 13 "ChibiOS_3.0.5/os/ext/CMSIS/ST/stm32f407xx.h"
 5228              		.file 14 "ChibiOS_3.0.5/os/rt/ports/ARMCMx/chcore.h"
 5229              		.file 15 "ChibiOS_3.0.5/os/rt/ports/ARMCMx/chcore_v7m.h"
 5230              		.file 16 "ChibiOS_3.0.5/os/rt/include/chtm.h"
 5231              		.file 17 "ChibiOS_3.0.5/os/rt/include/chsem.h"
 5232              		.file 18 "ChibiOS_3.0.5/os/rt/include/chmtx.h"
 5233              		.file 19 "ChibiOS_3.0.5/os/rt/include/chevents.h"
 5234              		.file 20 "ChibiOS_3.0.5/os/rt/include/chqueues.h"
 5235              		.file 21 "./datatypes.h"
 5236              		.file 22 "./conf_general.h"
 5237              		.file 23 "ChibiOS_3.0.5/os/hal/ports/STM32/STM32F4xx/stm32_dma.h"
 5238              		.file 24 "ChibiOS_3.0.5/os/hal/ports/STM32/LLD/GPIOv2/pal_lld.h"
 5239              		.file 25 "ChibiOS_3.0.5/os/hal/include/can.h"
 5240              		.file 26 "ChibiOS_3.0.5/os/hal/ports/STM32/LLD/can_lld.h"
 5241              		.file 27 "ChibiOS_3.0.5/os/hal/include/i2c.h"
 5242              		.file 28 "ChibiOS_3.0.5/os/hal/ports/STM32/LLD/I2Cv1/i2c_lld.h"
 5243              		.file 29 "ChibiOS_3.0.5/os/hal/include/icu.h"
 5244              		.file 30 "ChibiOS_3.0.5/os/hal/ports/STM32/LLD/TIMv1/icu_lld.h"
 5245              		.file 31 "ChibiOS_3.0.5/os/hal/ports/STM32/LLD/TIMv1/stm32_tim.h"
 5246              		.file 32 "ChibiOS_3.0.5/os/hal/include/serial.h"
 5247              		.file 33 "ChibiOS_3.0.5/os/hal/ports/STM32/LLD/USARTv1/serial_lld.h"
 5248              		.file 34 "ChibiOS_3.0.5/os/hal/include/spi.h"
 5249              		.file 35 "ChibiOS_3.0.5/os/hal/ports/STM32/LLD/SPIv1/spi_lld.h"
 5250              		.file 36 "ChibiOS_3.0.5/os/hal/include/usb.h"
 5251              		.file 37 "ChibiOS_3.0.5/os/hal/ports/STM32/LLD/OTGv1/usb_lld.h"
 5252              		.file 38 "ChibiOS_3.0.5/os/hal/ports/STM32/LLD/OTGv1/stm32_otg.h"
 5253              		.file 39 "./mc_interface.h"
 5254              		.file 40 "./commands.h"
 5255              		.file 41 "./utils.h"
 5256              		.file 42 "/usr/arm-none-eabi/include/sys/lock.h"
 5257              		.file 43 "/usr/arm-none-eabi/include/sys/_types.h"
 5258              		.file 44 "/usr/arm-none-eabi/include/sys/reent.h"
 5259              		.file 45 "/usr/arm-none-eabi/include/math.h"
 5260              		.file 46 "./comm_can.h"
 5261              		.file 47 "./imu/imu.h"
 5262              		.file 48 "./terminal.h"
 5263              		.file 49 "./timeout.h"
 5264              		.file 50 "/usr/arm-none-eabi/include/stdio.h"
 5265              		.file 51 "<built-in>"