ARM GAS  /tmp/ccgEXwoi.s 			page 1


   1              		.cpu cortex-m4
   2              		.eabi_attribute 27, 1
   3              		.eabi_attribute 28, 1
   4              		.eabi_attribute 20, 1
   5              		.eabi_attribute 21, 1
   6              		.eabi_attribute 23, 3
   7              		.eabi_attribute 24, 1
   8              		.eabi_attribute 25, 1
   9              		.eabi_attribute 26, 1
  10              		.eabi_attribute 30, 2
  11              		.eabi_attribute 34, 1
  12              		.eabi_attribute 18, 4
  13              		.file	"app_pas.c"
  14              		.text
  15              	.Ltext0:
  16              		.cfi_sections	.debug_frame
  17              		.section	.text.app_pas_configure,"ax",%progbits
  18              		.align	1
  19              		.p2align 4,,15
  20              		.global	app_pas_configure
  21              		.syntax unified
  22              		.thumb
  23              		.thumb_func
  24              		.fpu fpv4-sp-d16
  25              		.type	app_pas_configure, %function
  26              	app_pas_configure:
  27              	.LFB256:
  28              		.file 1 "applications/app_pas.c"
  29              		.loc 1 64 0
  30              		.cfi_startproc
  31              		@ args = 0, pretend = 0, frame = 0
  32              		@ frame_needed = 0, uses_anonymous_args = 0
  33              		@ link register save eliminated.
  34              	.LVL0:
  35 0000 F0B4     		push	{r4, r5, r6, r7}
  36              		.cfi_def_cfa_offset 16
  37              		.cfi_offset 4, -16
  38              		.cfi_offset 5, -12
  39              		.cfi_offset 6, -8
  40              		.cfi_offset 7, -4
  41              		.loc 1 65 0
  42 0002 0546     		mov	r5, r0
  43 0004 0FCD     		ldmia	r5!, {r0, r1, r2, r3}
  44              	.LVL1:
  45 0006 1E4E     		ldr	r6, .L7
  46              		.loc 1 66 0
  47 0008 1E4F     		ldr	r7, .L7+4
  48              		.loc 1 70 0
  49 000a DFED1F5A 		vldr.32	s11, .L7+8
  50 000e DFED1F4A 		vldr.32	s9, .L7+12
  51              		.loc 1 65 0
  52 0012 3446     		mov	r4, r6
  53 0014 0FC4     		stmia	r4!, {r0, r1, r2, r3}
  54 0016 95E80F00 		ldm	r5, {r0, r1, r2, r3}
  55 001a 84E80F00 		stm	r4, {r0, r1, r2, r3}
  56              		.loc 1 67 0
  57 001e 1C4A     		ldr	r2, .L7+16
ARM GAS  /tmp/ccgEXwoi.s 			page 2


  58              		.loc 1 66 0
  59 0020 0023     		movs	r3, #0
  60 0022 3B60     		str	r3, [r7]	@ float
  61              		.loc 1 67 0
  62 0024 1360     		str	r3, [r2]	@ float
  63              		.loc 1 70 0
  64 0026 96ED027A 		vldr.32	s14, [r6, #8]
  65 002a 737C     		ldrb	r3, [r6, #17]	@ zero_extendqisi2
  66 002c 194A     		ldr	r2, .L7+20
  67 002e C7EE257A 		vdiv.f32	s15, s14, s11
  68 0032 06EE903A 		vmov	s13, r3	@ int
  69 0036 F8EEE66A 		vcvt.f32.s32	s13, s13
  70 003a B7EE006A 		vmov.f32	s12, #1.0e+0
  71 003e 67EEA66A 		vmul.f32	s13, s15, s13
  72              		.loc 1 73 0
  73 0042 B0EE085A 		vmov.f32	s10, #3.0e+0
  74              		.loc 1 70 0
  75 0046 86EE267A 		vdiv.f32	s14, s12, s13
  76              		.loc 1 73 0
  77 004a 134B     		ldr	r3, .L7+24
  78              		.loc 1 70 0
  79 004c 27EE247A 		vmul.f32	s14, s14, s9
  80 0050 82ED007A 		vstr.32	s14, [r2]
  81              		.loc 1 73 0
  82 0054 D6ED037A 		vldr.32	s15, [r6, #12]
  83 0058 67EE857A 		vmul.f32	s15, s15, s10
  84 005c 87EEA57A 		vdiv.f32	s14, s15, s11
  85 0060 C6EE077A 		vdiv.f32	s15, s12, s14
  86 0064 C3ED007A 		vstr.32	s15, [r3]
  87              		.loc 1 75 0
  88 0068 337C     		ldrb	r3, [r6, #16]	@ zero_extendqisi2
  89 006a 23B9     		cbnz	r3, .L6
  90              		.loc 1 75 0 is_stmt 0 discriminator 2
  91 006c 0B4B     		ldr	r3, .L7+28
  92              		.loc 1 76 0 is_stmt 1 discriminator 2
  93 006e F0BC     		pop	{r4, r5, r6, r7}
  94              		.cfi_remember_state
  95              		.cfi_restore 7
  96              		.cfi_restore 6
  97              		.cfi_restore 5
  98              		.cfi_restore 4
  99              		.cfi_def_cfa_offset 0
 100              	.LVL2:
 101              		.loc 1 75 0 discriminator 2
 102 0070 83ED006A 		vstr.32	s12, [r3]
 103              		.loc 1 76 0 discriminator 2
 104 0074 7047     		bx	lr
 105              	.L6:
 106              		.cfi_restore_state
 107              		.loc 1 75 0 discriminator 1
 108 0076 094B     		ldr	r3, .L7+28
 109 0078 094A     		ldr	r2, .L7+32
 110 007a 1A60     		str	r2, [r3]	@ float
 111              		.loc 1 76 0 discriminator 1
 112 007c F0BC     		pop	{r4, r5, r6, r7}
 113              		.cfi_restore 7
 114              		.cfi_restore 6
ARM GAS  /tmp/ccgEXwoi.s 			page 3


 115              		.cfi_restore 5
 116              		.cfi_restore 4
 117              		.cfi_def_cfa_offset 0
 118 007e 7047     		bx	lr
 119              	.L8:
 120              		.align	2
 121              	.L7:
 122 0080 00000000 		.word	.LANCHOR0
 123 0084 00000000 		.word	.LANCHOR1
 124 0088 00007042 		.word	1114636288
 125 008c 9A99993F 		.word	1067030938
 126 0090 00000000 		.word	.LANCHOR2
 127 0094 00000000 		.word	.LANCHOR3
 128 0098 00000000 		.word	.LANCHOR4
 129 009c 00000000 		.word	.LANCHOR5
 130 00a0 000080BF 		.word	-1082130432
 131              		.cfi_endproc
 132              	.LFE256:
 133              		.size	app_pas_configure, .-app_pas_configure
 134              		.section	.text.app_pas_start,"ax",%progbits
 135              		.align	1
 136              		.p2align 4,,15
 137              		.global	app_pas_start
 138              		.syntax unified
 139              		.thumb
 140              		.thumb_func
 141              		.fpu fpv4-sp-d16
 142              		.type	app_pas_start, %function
 143              	app_pas_start:
 144              	.LFB257:
 145              		.loc 1 85 0
 146              		.cfi_startproc
 147              		@ args = 0, pretend = 0, frame = 0
 148              		@ frame_needed = 0, uses_anonymous_args = 0
 149              	.LVL3:
 150 0000 70B5     		push	{r4, r5, r6, lr}
 151              		.cfi_def_cfa_offset 16
 152              		.cfi_offset 4, -16
 153              		.cfi_offset 5, -12
 154              		.cfi_offset 6, -8
 155              		.cfi_offset 14, -4
 156 0002 82B0     		sub	sp, sp, #8
 157              		.cfi_def_cfa_offset 24
 158              		.loc 1 86 0
 159 0004 0024     		movs	r4, #0
 160 0006 074E     		ldr	r6, .L11
 161              		.loc 1 87 0
 162 0008 074B     		ldr	r3, .L11+4
 163 000a 0094     		str	r4, [sp]
 164              		.loc 1 85 0
 165 000c 0546     		mov	r5, r0
 166              		.loc 1 87 0
 167 000e 4022     		movs	r2, #64
 168 0010 4FF46871 		mov	r1, #928
 169 0014 0548     		ldr	r0, .L11+8
 170              	.LVL4:
 171              		.loc 1 86 0
ARM GAS  /tmp/ccgEXwoi.s 			page 4


 172 0016 3470     		strb	r4, [r6]
 173              		.loc 1 87 0
 174 0018 FFF7FEFF 		bl	chThdCreateStatic
 175              	.LVL5:
 176              		.loc 1 89 0
 177 001c 044B     		ldr	r3, .L11+12
 178 001e 1D70     		strb	r5, [r3]
 179              		.loc 1 90 0
 180 0020 02B0     		add	sp, sp, #8
 181              		.cfi_def_cfa_offset 16
 182              		@ sp needed
 183 0022 70BD     		pop	{r4, r5, r6, pc}
 184              	.L12:
 185              		.align	2
 186              	.L11:
 187 0024 00000000 		.word	.LANCHOR6
 188 0028 00000000 		.word	pas_thread
 189 002c 00000000 		.word	.LANCHOR7
 190 0030 00000000 		.word	.LANCHOR8
 191              		.cfi_endproc
 192              	.LFE257:
 193              		.size	app_pas_start, .-app_pas_start
 194              		.section	.text.app_pas_is_running,"ax",%progbits
 195              		.align	1
 196              		.p2align 4,,15
 197              		.global	app_pas_is_running
 198              		.syntax unified
 199              		.thumb
 200              		.thumb_func
 201              		.fpu fpv4-sp-d16
 202              		.type	app_pas_is_running, %function
 203              	app_pas_is_running:
 204              	.LFB258:
 205              		.loc 1 92 0
 206              		.cfi_startproc
 207              		@ args = 0, pretend = 0, frame = 0
 208              		@ frame_needed = 0, uses_anonymous_args = 0
 209              		@ link register save eliminated.
 210              		.loc 1 93 0
 211 0000 014B     		ldr	r3, .L14
 212 0002 1878     		ldrb	r0, [r3]	@ zero_extendqisi2
 213              		.loc 1 94 0
 214 0004 7047     		bx	lr
 215              	.L15:
 216 0006 00BF     		.align	2
 217              	.L14:
 218 0008 00000000 		.word	.LANCHOR9
 219              		.cfi_endproc
 220              	.LFE258:
 221              		.size	app_pas_is_running, .-app_pas_is_running
 222              		.section	.text.app_pas_stop,"ax",%progbits
 223              		.align	1
 224              		.p2align 4,,15
 225              		.global	app_pas_stop
 226              		.syntax unified
 227              		.thumb
 228              		.thumb_func
ARM GAS  /tmp/ccgEXwoi.s 			page 5


 229              		.fpu fpv4-sp-d16
 230              		.type	app_pas_stop, %function
 231              	app_pas_stop:
 232              	.LFB259:
 233              		.loc 1 96 0
 234              		.cfi_startproc
 235              		@ args = 0, pretend = 0, frame = 0
 236              		@ frame_needed = 0, uses_anonymous_args = 0
 237              		.loc 1 97 0
 238 0000 0C4B     		ldr	r3, .L26
 239              		.loc 1 96 0
 240 0002 10B5     		push	{r4, lr}
 241              		.cfi_def_cfa_offset 8
 242              		.cfi_offset 4, -8
 243              		.cfi_offset 14, -4
 244              		.loc 1 97 0
 245 0004 0122     		movs	r2, #1
 246              		.loc 1 98 0
 247 0006 0C4C     		ldr	r4, .L26+4
 248              		.loc 1 97 0
 249 0008 1A70     		strb	r2, [r3]
 250              		.loc 1 98 0
 251 000a 2378     		ldrb	r3, [r4]	@ zero_extendqisi2
 252 000c 2BB1     		cbz	r3, .L17
 253              	.L18:
 254              		.loc 1 99 0
 255 000e 0A20     		movs	r0, #10
 256 0010 FFF7FEFF 		bl	chThdSleep
 257              	.LVL6:
 258              		.loc 1 98 0
 259 0014 2378     		ldrb	r3, [r4]	@ zero_extendqisi2
 260 0016 002B     		cmp	r3, #0
 261 0018 F9D1     		bne	.L18
 262              	.L17:
 263              		.loc 1 102 0
 264 001a 084B     		ldr	r3, .L26+8
 265 001c 1B78     		ldrb	r3, [r3]	@ zero_extendqisi2
 266 001e 1BB9     		cbnz	r3, .L25
 267              		.loc 1 106 0
 268 0020 074B     		ldr	r3, .L26+12
 269 0022 0022     		movs	r2, #0
 270 0024 1A60     		str	r2, [r3]	@ float
 271              		.loc 1 108 0
 272 0026 10BD     		pop	{r4, pc}
 273              	.L25:
 274              		.loc 1 103 0
 275 0028 9FED060A 		vldr.32	s0, .L26+16
 276              		.loc 1 108 0
 277 002c BDE81040 		pop	{r4, lr}
 278              		.cfi_restore 14
 279              		.cfi_restore 4
 280              		.cfi_def_cfa_offset 0
 281              		.loc 1 103 0
 282 0030 FFF7FEBF 		b	mc_interface_set_current_rel
 283              	.LVL7:
 284              	.L27:
 285              		.align	2
ARM GAS  /tmp/ccgEXwoi.s 			page 6


 286              	.L26:
 287 0034 00000000 		.word	.LANCHOR6
 288 0038 00000000 		.word	.LANCHOR9
 289 003c 00000000 		.word	.LANCHOR8
 290 0040 00000000 		.word	.LANCHOR2
 291 0044 00000000 		.word	0
 292              		.cfi_endproc
 293              	.LFE259:
 294              		.size	app_pas_stop, .-app_pas_stop
 295              		.section	.text.app_pas_set_current_sub_scaling,"ax",%progbits
 296              		.align	1
 297              		.p2align 4,,15
 298              		.global	app_pas_set_current_sub_scaling
 299              		.syntax unified
 300              		.thumb
 301              		.thumb_func
 302              		.fpu fpv4-sp-d16
 303              		.type	app_pas_set_current_sub_scaling, %function
 304              	app_pas_set_current_sub_scaling:
 305              	.LFB260:
 306              		.loc 1 110 0
 307              		.cfi_startproc
 308              		@ args = 0, pretend = 0, frame = 0
 309              		@ frame_needed = 0, uses_anonymous_args = 0
 310              		@ link register save eliminated.
 311              	.LVL8:
 312              		.loc 1 111 0
 313 0000 014B     		ldr	r3, .L29
 314 0002 83ED000A 		vstr.32	s0, [r3]
 315              		.loc 1 112 0
 316 0006 7047     		bx	lr
 317              	.L30:
 318              		.align	2
 319              	.L29:
 320 0008 00000000 		.word	.LANCHOR10
 321              		.cfi_endproc
 322              	.LFE260:
 323              		.size	app_pas_set_current_sub_scaling, .-app_pas_set_current_sub_scaling
 324              		.section	.text.app_pas_get_current_target_rel,"ax",%progbits
 325              		.align	1
 326              		.p2align 4,,15
 327              		.global	app_pas_get_current_target_rel
 328              		.syntax unified
 329              		.thumb
 330              		.thumb_func
 331              		.fpu fpv4-sp-d16
 332              		.type	app_pas_get_current_target_rel, %function
 333              	app_pas_get_current_target_rel:
 334              	.LFB261:
 335              		.loc 1 114 0
 336              		.cfi_startproc
 337              		@ args = 0, pretend = 0, frame = 0
 338              		@ frame_needed = 0, uses_anonymous_args = 0
 339              		@ link register save eliminated.
 340              		.loc 1 115 0
 341 0000 014B     		ldr	r3, .L32
 342 0002 93ED000A 		vldr.32	s0, [r3]
ARM GAS  /tmp/ccgEXwoi.s 			page 7


 343              		.loc 1 116 0
 344 0006 7047     		bx	lr
 345              	.L33:
 346              		.align	2
 347              	.L32:
 348 0008 00000000 		.word	.LANCHOR2
 349              		.cfi_endproc
 350              	.LFE261:
 351              		.size	app_pas_get_current_target_rel, .-app_pas_get_current_target_rel
 352              		.section	.text.pas_event_handler,"ax",%progbits
 353              		.align	1
 354              		.p2align 4,,15
 355              		.global	pas_event_handler
 356              		.syntax unified
 357              		.thumb
 358              		.thumb_func
 359              		.fpu fpv4-sp-d16
 360              		.type	pas_event_handler, %function
 361              	pas_event_handler:
 362              	.LFB262:
 363              		.loc 1 118 0
 364              		.cfi_startproc
 365              		@ args = 0, pretend = 0, frame = 24
 366              		@ frame_needed = 0, uses_anonymous_args = 0
 367              		@ link register save eliminated.
 368 0000 30B4     		push	{r4, r5}
 369              		.cfi_def_cfa_offset 8
 370              		.cfi_offset 4, -8
 371              		.cfi_offset 5, -4
 372              		.loc 1 120 0
 373 0002 4C4B     		ldr	r3, .L44
 374              		.loc 1 129 0
 375 0004 4C4D     		ldr	r5, .L44+4
 376              		.loc 1 133 0
 377 0006 4D4C     		ldr	r4, .L44+8
 378              		.loc 1 120 0
 379 0008 0FCB     		ldm	r3, {r0, r1, r2, r3}
 380              		.loc 1 118 0
 381 000a 86B0     		sub	sp, sp, #24
 382              		.cfi_def_cfa_offset 32
 383              		.loc 1 120 0
 384 000c 0DF1180C 		add	ip, sp, #24
 385 0010 0CE90F00 		stmdb	ip, {r0, r1, r2, r3}
 386              		.loc 1 129 0
 387 0014 2B69     		ldr	r3, [r5, #16]
 388              	.LVL9:
 389              		.loc 1 130 0
 390 0016 2969     		ldr	r1, [r5, #16]
 391              	.LVL10:
 392              		.loc 1 133 0
 393 0018 2278     		ldrb	r2, [r4]	@ zero_extendqisi2
 394              		.loc 1 138 0
 395 001a 4948     		ldr	r0, .L44+12
 396              		.loc 1 130 0
 397 001c C1F38021 		ubfx	r1, r1, #10, #1
 398              	.LVL11:
 399              		.loc 1 129 0
ARM GAS  /tmp/ccgEXwoi.s 			page 8


 400 0020 C3F3C023 		ubfx	r3, r3, #11, #1
 401              	.LVL12:
 402              		.loc 1 132 0
 403 0024 03EB4103 		add	r3, r3, r1, lsl #1
 404              	.LVL13:
 405              		.loc 1 133 0
 406 0028 03EB8202 		add	r2, r3, r2, lsl #2
 407 002c 6244     		add	r2, r2, ip
 408              		.loc 1 138 0
 409 002e 90ED007A 		vldr.32	s14, [r0]
 410              		.loc 1 133 0
 411 0032 12F9102C 		ldrsb	r2, [r2, #-16]
 412              		.loc 1 134 0
 413 0036 2370     		strb	r3, [r4]
 414              		.loc 1 133 0
 415 0038 07EE902A 		vmov	s15, r2	@ int
 416 003c F8EEE77A 		vcvt.f32.s32	s15, s15
 417              	.LVL14:
 418              		.loc 1 138 0
 419 0040 27EE877A 		vmul.f32	s14, s15, s14
 420              	.LVL15:
 421 0044 BDEEC77A 		vcvt.s32.f32	s14, s14
 422 0048 8DED017A 		vstr.32	s14, [sp, #4]	@ int
 423              		.loc 1 140 0
 424 004c 9DF90420 		ldrsb	r2, [sp, #4]
 425 0050 511C     		adds	r1, r2, #1
 426 0052 68D0     		beq	.L36
 427 0054 012A     		cmp	r2, #1
 428 0056 03D1     		bne	.L35
 429              		.loc 1 141 0
 430 0058 3A49     		ldr	r1, .L44+16
 431 005a 0A68     		ldr	r2, [r1]
 432 005c 0132     		adds	r2, r2, #1
 433 005e 0A60     		str	r2, [r1]
 434              	.L35:
 435              	.LBB18:
 436              	.LBB19:
 437              		.file 2 "ChibiOS_3.0.5/os/rt/include/chvt.h"
 438              		.loc 2 231 0
 439 0060 394A     		ldr	r2, .L44+20
 440              	.LBE19:
 441              	.LBE18:
 442              		.loc 1 148 0
 443 0062 032B     		cmp	r3, #3
 444              	.LBB23:
 445              	.LBB20:
 446              		.loc 2 231 0
 447 0064 926A     		ldr	r2, [r2, #40]
 448              	.LVL16:
 449              	.LBE20:
 450              	.LBE23:
 451              		.loc 1 148 0
 452 0066 1DD0     		beq	.L43
 453              	.LVL17:
 454              	.L38:
 455              		.loc 1 162 0
 456 0068 384A     		ldr	r2, .L44+24
ARM GAS  /tmp/ccgEXwoi.s 			page 9


 457 006a 394B     		ldr	r3, .L44+28
 458 006c 92ED077A 		vldr.32	s14, [r2, #28]	@ int
 459 0070 D3ED006A 		vldr.32	s13, [r3]
 460              		.loc 1 165 0
 461 0074 374A     		ldr	r2, .L44+32
 462              		.loc 1 162 0
 463 0076 B8EE477A 		vcvt.f32.u32	s14, s14
 464 007a B7EE006A 		vmov.f32	s12, #1.0e+0
 465 007e C6EE077A 		vdiv.f32	s15, s12, s14
 466              		.loc 1 165 0
 467 0082 92ED007A 		vldr.32	s14, [r2]
 468              		.loc 1 162 0
 469 0086 77EEA67A 		vadd.f32	s15, s15, s13
 470              		.loc 1 165 0
 471 008a F4EEC77A 		vcmpe.f32	s15, s14
 472 008e F1EE10FA 		vmrs	APSR_nzcv, FPSCR
 473              		.loc 1 162 0
 474 0092 C3ED007A 		vstr.32	s15, [r3]
 475              		.loc 1 165 0
 476 0096 02DD     		ble	.L34
 477              		.loc 1 166 0
 478 0098 2F4B     		ldr	r3, .L44+36
 479 009a 0022     		movs	r2, #0
 480 009c 1A60     		str	r2, [r3]	@ float
 481              	.L34:
 482              		.loc 1 170 0
 483 009e 06B0     		add	sp, sp, #24
 484              		.cfi_remember_state
 485              		.cfi_def_cfa_offset 8
 486              		@ sp needed
 487 00a0 30BC     		pop	{r4, r5}
 488              		.cfi_restore 5
 489              		.cfi_restore 4
 490              		.cfi_def_cfa_offset 0
 491 00a2 7047     		bx	lr
 492              	.LVL18:
 493              	.L43:
 494              		.cfi_restore_state
 495              		.loc 1 148 0 discriminator 1
 496 00a4 274B     		ldr	r3, .L44+16
 497              	.LVL19:
 498 00a6 1B68     		ldr	r3, [r3]
 499 00a8 032B     		cmp	r3, #3
 500 00aa DDDD     		ble	.L38
 501              		.loc 1 145 0
 502 00ac 07EE102A 		vmov	s14, r2	@ int
 503 00b0 DFED2A4A 		vldr.32	s9, .L44+40
 504              	.LBB24:
 505              		.loc 1 149 0
 506 00b4 254B     		ldr	r3, .L44+24
 507 00b6 2A49     		ldr	r1, .L44+44
 508 00b8 5B7C     		ldrb	r3, [r3, #17]	@ zero_extendqisi2
 509              		.loc 1 152 0
 510 00ba 2A4A     		ldr	r2, .L44+48
 511              	.LVL20:
 512              		.loc 1 149 0
 513 00bc 91ED006A 		vldr.32	s12, [r1]
ARM GAS  /tmp/ccgEXwoi.s 			page 10


 514              		.loc 1 152 0
 515 00c0 D2ED006A 		vldr.32	s13, [r2]
 516              		.loc 1 154 0
 517 00c4 284C     		ldr	r4, .L44+52
 518              	.LBE24:
 519              		.loc 1 145 0
 520 00c6 B8EE477A 		vcvt.f32.u32	s14, s14
 521              	.LVL21:
 522              	.LBB25:
 523              		.loc 1 154 0
 524 00ca 94ED005A 		vldr.32	s10, [r4]
 525              	.LBE25:
 526              		.loc 1 145 0
 527 00ce C7EE245A 		vdiv.f32	s11, s14, s9
 528              	.LBB26:
 529              		.loc 1 149 0
 530 00d2 07EE103A 		vmov	s14, r3	@ int
 531 00d6 35EEC66A 		vsub.f32	s12, s11, s12
 532              	.LVL22:
 533 00da B8EE477A 		vcvt.f32.u32	s14, s14
 534              		.loc 1 150 0
 535 00de C1ED005A 		vstr.32	s11, [r1]
 536              		.loc 1 152 0
 537 00e2 F0EE665A 		vmov.f32	s11, s13
 538 00e6 E6EE475A 		vfms.f32	s11, s12, s14
 539 00ea 36EEE57A 		vsub.f32	s14, s13, s11
 540              		.loc 1 154 0
 541 00ee B4EEC57A 		vcmpe.f32	s14, s10
 542 00f2 F1EE10FA 		vmrs	APSR_nzcv, FPSCR
 543              		.loc 1 152 0
 544 00f6 82ED007A 		vstr.32	s14, [r2]
 545              		.loc 1 154 0
 546 00fa D0D4     		bmi	.L34
 547              		.loc 1 157 0
 548 00fc 9FED1B6A 		vldr.32	s12, .L44+56
 549              	.LVL23:
 550 0100 154B     		ldr	r3, .L44+36
 551              		.loc 1 159 0
 552 0102 134A     		ldr	r2, .L44+28
 553              		.loc 1 157 0
 554 0104 C6EE076A 		vdiv.f32	s13, s12, s14
 555              		.loc 1 159 0
 556 0108 0021     		movs	r1, #0
 557 010a 1160     		str	r1, [r2]	@ float
 558              		.loc 1 157 0
 559 010c C3ED006A 		vstr.32	s13, [r3]
 560              		.loc 1 158 0
 561 0110 D0ED006A 		vldr.32	s13, [r0]
 562 0114 93ED007A 		vldr.32	s14, [r3]
 563 0118 67EEA67A 		vmul.f32	s15, s15, s13
 564 011c 67EE877A 		vmul.f32	s15, s15, s14
 565 0120 C3ED007A 		vstr.32	s15, [r3]
 566              	.LBE26:
 567              		.loc 1 148 0
 568 0124 BBE7     		b	.L34
 569              	.LVL24:
 570              	.L36:
ARM GAS  /tmp/ccgEXwoi.s 			page 11


 571              		.loc 1 142 0
 572 0126 074A     		ldr	r2, .L44+16
 573              	.LBB27:
 574              	.LBB21:
 575              		.loc 2 231 0
 576 0128 074B     		ldr	r3, .L44+20
 577              	.LVL25:
 578              	.LBE21:
 579              	.LBE27:
 580              		.loc 1 142 0
 581 012a 0021     		movs	r1, #0
 582 012c 1160     		str	r1, [r2]
 583              	.LBB28:
 584              	.LBB22:
 585              		.loc 2 231 0
 586 012e 9B6A     		ldr	r3, [r3, #40]
 587 0130 9AE7     		b	.L38
 588              	.L45:
 589 0132 00BF     		.align	2
 590              	.L44:
 591 0134 00000000 		.word	.LANCHOR11
 592 0138 00040240 		.word	1073873920
 593 013c 00000000 		.word	.LANCHOR12
 594 0140 00000000 		.word	.LANCHOR5
 595 0144 00000000 		.word	.LANCHOR13
 596 0148 00000000 		.word	ch
 597 014c 00000000 		.word	.LANCHOR0
 598 0150 00000000 		.word	.LANCHOR17
 599 0154 00000000 		.word	.LANCHOR3
 600 0158 00000000 		.word	.LANCHOR16
 601 015c 00401C46 		.word	1176256512
 602 0160 00000000 		.word	.LANCHOR14
 603 0164 00000000 		.word	.LANCHOR15
 604 0168 00000000 		.word	.LANCHOR4
 605 016c 00007042 		.word	1114636288
 606              	.LBE22:
 607              	.LBE28:
 608              		.cfi_endproc
 609              	.LFE262:
 610              		.size	pas_event_handler, .-pas_event_handler
 611              		.section	.text.pas_thread,"ax",%progbits
 612              		.align	1
 613              		.p2align 4,,15
 614              		.syntax unified
 615              		.thumb
 616              		.thumb_func
 617              		.fpu fpv4-sp-d16
 618              		.type	pas_thread, %function
 619              	pas_thread:
 620              	.LFB263:
 621              		.loc 1 172 0
 622              		.cfi_startproc
 623              		@ args = 0, pretend = 0, frame = 8
 624              		@ frame_needed = 0, uses_anonymous_args = 0
 625              	.LVL26:
 626 0000 2DE9F04F 		push	{r4, r5, r6, r7, r8, r9, r10, fp, lr}
 627              		.cfi_def_cfa_offset 36
ARM GAS  /tmp/ccgEXwoi.s 			page 12


 628              		.cfi_offset 4, -36
 629              		.cfi_offset 5, -32
 630              		.cfi_offset 6, -28
 631              		.cfi_offset 7, -24
 632              		.cfi_offset 8, -20
 633              		.cfi_offset 9, -16
 634              		.cfi_offset 10, -12
 635              		.cfi_offset 11, -8
 636              		.cfi_offset 14, -4
 637              	.LBB29:
 638              	.LBB30:
 639              		.file 3 "ChibiOS_3.0.5/os/rt/include/chregistry.h"
 640              		.loc 3 135 0
 641 0004 984F     		ldr	r7, .L95
 642 0006 994A     		ldr	r2, .L95+4
 643 0008 BB69     		ldr	r3, [r7, #24]
 644              	.LBE30:
 645              	.LBE29:
 646              		.loc 1 179 0
 647 000a 9948     		ldr	r0, .L95+8
 648              	.LVL27:
 649              		.loc 1 183 0
 650 000c DFF8A082 		ldr	r8, .L95+72
 651 0010 984D     		ldr	r5, .L95+12
 652 0012 994E     		ldr	r6, .L95+16
 653              	.LBB32:
 654              	.LBB33:
 655              		.loc 1 265 0
 656 0014 DFF89C92 		ldr	r9, .L95+76
 657              	.LBE33:
 658              	.LBE32:
 659              		.loc 1 172 0
 660 0018 2DED068B 		vpush.64	{d8, d9, d10}
 661              		.cfi_def_cfa_offset 60
 662              		.cfi_offset 80, -60
 663              		.cfi_offset 81, -56
 664              		.cfi_offset 82, -52
 665              		.cfi_offset 83, -48
 666              		.cfi_offset 84, -44
 667              		.cfi_offset 85, -40
 668              		.loc 1 175 0
 669 001c DFED979A 		vldr.32	s19, .L95+20
 670              	.LBB45:
 671              	.LBB31:
 672              		.loc 3 135 0
 673 0020 9A61     		str	r2, [r3, #24]
 674              	.LBE31:
 675              	.LBE45:
 676              		.loc 1 172 0
 677 0022 83B0     		sub	sp, sp, #12
 678              		.cfi_def_cfa_offset 72
 679              		.loc 1 179 0
 680 0024 2022     		movs	r2, #32
 681 0026 4FF40061 		mov	r1, #2048
 682              		.loc 1 175 0
 683 002a CDED019A 		vstr.32	s19, [sp, #4]
 684              		.loc 1 179 0
ARM GAS  /tmp/ccgEXwoi.s 			page 13


 685 002e FFF7FEFF 		bl	_pal_lld_setgroupmode
 686              	.LVL28:
 687              		.loc 1 180 0
 688 0032 2022     		movs	r2, #32
 689 0034 4FF48061 		mov	r1, #1024
 690 0038 8D48     		ldr	r0, .L95+8
 691              	.LBB46:
 692              		.loc 1 264 0
 693 003a 9FED919A 		vldr.32	s18, .L95+24
 694              	.LBB42:
 695              		.loc 1 265 0
 696 003e 9FED91AA 		vldr.32	s20, .L95+28
 697              	.LBE42:
 698              		.loc 1 273 0
 699 0042 DFED918A 		vldr.32	s17, .L95+32
 700              	.LBE46:
 701              		.loc 1 180 0
 702 0046 FFF7FEFF 		bl	_pal_lld_setgroupmode
 703              	.LVL29:
 704              		.loc 1 183 0
 705 004a 0123     		movs	r3, #1
 706              	.LBB47:
 707              		.loc 1 204 0
 708 004c B0EE698A 		vmov.f32	s16, s19
 709              	.LBE47:
 710              		.loc 1 183 0
 711 0050 88F80030 		strb	r3, [r8]
 712              	.L47:
 713              	.LBB48:
 714              		.loc 1 204 0
 715 0054 DFF838B2 		ldr	fp, .L95+40
 716              		.loc 1 187 0
 717 0058 42F2107A 		movw	r10, #10000
 718              	.L51:
 719 005c EC69     		ldr	r4, [r5, #28]
 720 005e BAFBF4F4 		udiv	r4, r10, r4
 721              	.LVL30:
 722              		.loc 1 191 0
 723 0062 002C     		cmp	r4, #0
 724 0064 08BF     		it	eq
 725 0066 0124     		moveq	r4, #1
 726              	.LVL31:
 727              		.loc 1 193 0
 728 0068 2046     		mov	r0, r4
 729 006a FFF7FEFF 		bl	chThdSleep
 730              	.LVL32:
 731              		.loc 1 195 0
 732 006e 3378     		ldrb	r3, [r6]	@ zero_extendqisi2
 733 0070 002B     		cmp	r3, #0
 734 0072 40F0BF80 		bne	.L89
 735              		.loc 1 200 0
 736 0076 FFF7FEFF 		bl	pas_event_handler
 737              	.LVL33:
 738              		.loc 1 203 0
 739 007a FFF7FEFF 		bl	mc_interface_get_fault
 740              	.LVL34:
 741 007e 08B1     		cbz	r0, .L50
ARM GAS  /tmp/ccgEXwoi.s 			page 14


 742              		.loc 1 204 0
 743 0080 8BED008A 		vstr.32	s16, [fp]
 744              	.L50:
 745              		.loc 1 207 0
 746 0084 FFF7FEFF 		bl	app_is_output_disabled
 747              	.LVL35:
 748 0088 0028     		cmp	r0, #0
 749 008a E7D1     		bne	.L51
 750              		.loc 1 211 0
 751 008c 2B78     		ldrb	r3, [r5]	@ zero_extendqisi2
 752 008e 03F0FF02 		and	r2, r3, #255
 753 0092 D3B1     		cbz	r3, .L86
 754 0094 012A     		cmp	r2, #1
 755 0096 68D1     		bne	.L90
 756              		.loc 1 220 0
 757 0098 95ED037A 		vldr.32	s14, [r5, #12]
 758 009c D5ED027A 		vldr.32	s15, [r5, #8]
 759              		.loc 1 221 0
 760 00a0 7A4B     		ldr	r3, .L95+36
 761              		.loc 1 220 0
 762 00a2 F7EE006A 		vmov.f32	s13, #1.0e+0
 763 00a6 77EEA67A 		vadd.f32	s15, s15, s13
 764 00aa B4EEE77A 		vcmpe.f32	s14, s15
 765 00ae F1EE10FA 		vmrs	APSR_nzcv, FPSCR
 766 00b2 00F3B680 		bgt	.L91
 767              		.loc 1 224 0
 768 00b6 95ED037A 		vldr.32	s14, [r5, #12]
 769 00ba D3ED007A 		vldr.32	s15, [r3]
 770 00be B4EEE77A 		vcmpe.f32	s14, s15
 771 00c2 F1EE10FA 		vmrs	APSR_nzcv, FPSCR
 772 00c6 00F1A280 		bmi	.L92
 773              	.L86:
 774              		.loc 1 227 0
 775 00ca CDED019A 		vstr.32	s19, [sp, #4]
 776              		.loc 1 262 0
 777 00ce B0EE480A 		vmov.f32	s0, s16
 778              	.L61:
 779              		.loc 1 262 0 is_stmt 0 discriminator 2
 780 00d2 D5ED060A 		vldr.32	s1, [r5, #24]
 781              	.LVL36:
 782              		.loc 1 264 0 is_stmt 1 discriminator 2
 783 00d6 F4EEC90A 		vcmpe.f32	s1, s18
 784 00da F1EE10FA 		vmrs	APSR_nzcv, FPSCR
 785 00de 59DC     		bgt	.L64
 786              	.L94:
 787 00e0 DDED017A 		vldr.32	s15, [sp, #4]
 788              	.LVL37:
 789              	.L65:
 790              		.loc 1 273 0
 791 00e4 F4EEE87A 		vcmpe.f32	s15, s17
 792 00e8 F1EE10FA 		vmrs	APSR_nzcv, FPSCR
 793 00ec 21D4     		bmi	.L77
 794 00ee 684B     		ldr	r3, .L95+40
 795              	.L66:
 796              		.loc 1 278 0
 797 00f0 93ED007A 		vldr.32	s14, [r3]
 798 00f4 DFED677A 		vldr.32	s15, .L95+44
ARM GAS  /tmp/ccgEXwoi.s 			page 15


 799 00f8 B4EEE77A 		vcmpe.f32	s14, s15
 800 00fc F1EE10FA 		vmrs	APSR_nzcv, FPSCR
 801 0100 29D5     		bpl	.L87
 802              	.LBB43:
 803              		.loc 1 280 0
 804 0102 654A     		ldr	r2, .L95+48
 805 0104 93ED007A 		vldr.32	s14, [r3]
 806 0108 D2ED007A 		vldr.32	s15, [r2]	@ int
 807 010c F8EEE77A 		vcvt.f32.s32	s15, s15
 808 0110 F4EE477A 		vcmp.f32	s15, s14
 809 0114 F1EE10FA 		vmrs	APSR_nzcv, FPSCR
 810              		.loc 1 281 0
 811 0118 08BF     		it	eq
 812 011a 83ED008A 		vstreq.32	s16, [r3]
 813              		.loc 1 283 0
 814 011e D3ED007A 		vldr.32	s15, [r3]
 815              		.loc 1 284 0
 816 0122 5E4B     		ldr	r3, .L95+52
 817              		.loc 1 283 0
 818 0124 FDEEE77A 		vcvt.s32.f32	s15, s15
 819              		.loc 1 284 0
 820 0128 83ED008A 		vstr.32	s16, [r3]
 821              		.loc 1 283 0
 822 012c C2ED007A 		vstr.32	s15, [r2]	@ int
 823              		.loc 1 285 0
 824 0130 90E7     		b	.L47
 825              	.L77:
 826              	.LBE43:
 827              		.loc 1 274 0
 828 0132 07EE904A 		vmov	s15, r4	@ int
 829 0136 B8EEE77A 		vcvt.f32.s32	s14, s15
 830 013a 9FED596A 		vldr.32	s12, .L95+56
 831 013e 544B     		ldr	r3, .L95+40
 832 0140 27EE0A7A 		vmul.f32	s14, s14, s20
 833 0144 D3ED006A 		vldr.32	s13, [r3]
 834 0148 C7EE067A 		vdiv.f32	s15, s14, s12
 835 014c 77EEA67A 		vadd.f32	s15, s15, s13
 836 0150 C3ED007A 		vstr.32	s15, [r3]
 837 0154 CCE7     		b	.L66
 838              	.L87:
 839              		.loc 1 289 0
 840 0156 FFF7FEFF 		bl	timeout_reset
 841              	.LVL38:
 842              		.loc 1 291 0
 843 015a 524B     		ldr	r3, .L95+60
 844 015c 1B78     		ldrb	r3, [r3]	@ zero_extendqisi2
 845 015e 002B     		cmp	r3, #0
 846 0160 50D1     		bne	.L93
 847              		.loc 1 295 0
 848 0162 4E4B     		ldr	r3, .L95+52
 849 0164 019A     		ldr	r2, [sp, #4]	@ float
 850 0166 1A60     		str	r2, [r3]	@ float
 851 0168 74E7     		b	.L47
 852              	.L90:
 853 016a 9DED010A 		vldr.32	s0, [sp, #4]
 854              	.L58:
 855              		.loc 1 262 0
ARM GAS  /tmp/ccgEXwoi.s 			page 16


 856 016e 4E4B     		ldr	r3, .L95+64
 857 0170 D3ED007A 		vldr.32	s15, [r3]
 858 0174 B0EEC07A 		vabs.f32	s14, s0
 859 0178 F0EEE77A 		vabs.f32	s15, s15
 860 017c B4EEE77A 		vcmpe.f32	s14, s15
 861 0180 F1EE10FA 		vmrs	APSR_nzcv, FPSCR
 862 0184 A5DD     		ble	.L61
 863              		.loc 1 262 0 is_stmt 0 discriminator 1
 864 0186 D5ED050A 		vldr.32	s1, [r5, #20]
 865              	.LVL39:
 866              		.loc 1 264 0 is_stmt 1 discriminator 1
 867 018a F4EEC90A 		vcmpe.f32	s1, s18
 868 018e F1EE10FA 		vmrs	APSR_nzcv, FPSCR
 869 0192 A5DD     		ble	.L94
 870              	.L64:
 871              	.LVL40:
 872              	.LBB44:
 873              		.loc 1 265 0
 874 0194 DFF820B1 		ldr	fp, .L95+80
 875              	.LBB34:
 876              	.LBB35:
 877              	.LBB36:
 878              	.LBB37:
 879              		.loc 2 231 0
 880 0198 BB6A     		ldr	r3, [r7, #40]
 881              	.LVL41:
 882              	.LBE37:
 883              	.LBE36:
 884              		.loc 2 267 0
 885 019a DBF80020 		ldr	r2, [fp]
 886              	.LBE35:
 887              	.LBE34:
 888              		.loc 1 266 0
 889 019e DFF808A1 		ldr	r10, .L95+64
 890              		.loc 1 265 0
 891 01a2 4FF47A71 		mov	r1, #1000
 892              	.LBB39:
 893              	.LBB38:
 894              		.loc 2 267 0
 895 01a6 9B1A     		subs	r3, r3, r2
 896              	.LVL42:
 897              	.LBE38:
 898              	.LBE39:
 899              		.loc 1 265 0
 900 01a8 42F20F72 		movw	r2, #9999
 901 01ac 01FB0323 		mla	r3, r1, r3, r2
 902 01b0 A9FB0323 		umull	r2, r3, r9, r3
 903 01b4 5B0B     		lsrs	r3, r3, #13
 904 01b6 07EE903A 		vmov	s15, r3	@ int
 905 01ba 60EE8A0A 		vmul.f32	s1, s1, s20
 906              	.LVL43:
 907 01be F8EEE77A 		vcvt.f32.s32	s15, s15
 908              		.loc 1 266 0
 909 01c2 5046     		mov	r0, r10
 910 01c4 C7EEA00A 		vdiv.f32	s1, s15, s1
 911 01c8 FFF7FEFF 		bl	utils_step_towards
 912              	.LVL44:
ARM GAS  /tmp/ccgEXwoi.s 			page 17


 913              		.loc 1 267 0
 914 01cc 374B     		ldr	r3, .L95+68
 915 01ce 5046     		mov	r0, r10
 916 01d0 D5ED010A 		vldr.32	s1, [r5, #4]
 917 01d4 D3ED007A 		vldr.32	s15, [r3]
 918 01d8 B0EE480A 		vmov.f32	s0, s16
 919 01dc 60EEA70A 		vmul.f32	s1, s1, s15
 920 01e0 FFF7FEFF 		bl	utils_truncate_number
 921              	.LVL45:
 922              		.loc 1 270 0
 923 01e4 DAED007A 		vldr.32	s15, [r10]
 924              	.LBB40:
 925              	.LBB41:
 926              		.loc 2 231 0
 927 01e8 BB6A     		ldr	r3, [r7, #40]
 928              	.LBE41:
 929              	.LBE40:
 930              		.loc 1 269 0
 931 01ea CBF80030 		str	r3, [fp]
 932              		.loc 1 270 0
 933 01ee CDED017A 		vstr.32	s15, [sp, #4]
 934 01f2 77E7     		b	.L65
 935              	.L89:
 936              	.LBE44:
 937              		.loc 1 196 0
 938 01f4 0023     		movs	r3, #0
 939 01f6 88F80030 		strb	r3, [r8]
 940              	.LBE48:
 941              		.loc 1 298 0
 942 01fa 03B0     		add	sp, sp, #12
 943              		.cfi_remember_state
 944              		.cfi_def_cfa_offset 60
 945              		@ sp needed
 946 01fc BDEC068B 		vldm	sp!, {d8-d10}
 947              		.cfi_restore 84
 948              		.cfi_restore 85
 949              		.cfi_restore 82
 950              		.cfi_restore 83
 951              		.cfi_restore 80
 952              		.cfi_restore 81
 953              		.cfi_def_cfa_offset 36
 954 0200 BDE8F08F 		pop	{r4, r5, r6, r7, r8, r9, r10, fp, pc}
 955              	.LVL46:
 956              	.L93:
 957              		.cfi_restore_state
 958              	.LBB49:
 959              		.loc 1 292 0
 960 0204 9DED010A 		vldr.32	s0, [sp, #4]
 961 0208 FFF7FEFF 		bl	mc_interface_set_current_rel
 962              	.LVL47:
 963 020c 22E7     		b	.L47
 964              	.L92:
 965              		.loc 1 225 0
 966 020e 274B     		ldr	r3, .L95+68
 967 0210 95ED010A 		vldr.32	s0, [r5, #4]
 968 0214 D3ED007A 		vldr.32	s15, [r3]
 969 0218 20EE270A 		vmul.f32	s0, s0, s15
ARM GAS  /tmp/ccgEXwoi.s 			page 18


 970 021c 8DED010A 		vstr.32	s0, [sp, #4]
 971 0220 A5E7     		b	.L58
 972              	.L91:
 973              		.loc 1 221 0
 974 0222 DFF888A0 		ldr	r10, .L95+68
 975 0226 93ED000A 		vldr.32	s0, [r3]
 976 022a D5ED020A 		vldr.32	s1, [r5, #8]
 977 022e 95ED031A 		vldr.32	s2, [r5, #12]
 978 0232 95ED012A 		vldr.32	s4, [r5, #4]
 979 0236 DAED007A 		vldr.32	s15, [r10]
 980 023a F0EE481A 		vmov.f32	s3, s16
 981 023e 22EE272A 		vmul.f32	s4, s4, s15
 982 0242 FFF7FEFF 		bl	utils_map
 983              	.LVL48:
 984              		.loc 1 222 0
 985 0246 D5ED010A 		vldr.32	s1, [r5, #4]
 986 024a DAED007A 		vldr.32	s15, [r10]
 987              		.loc 1 221 0
 988 024e 02A8     		add	r0, sp, #8
 989 0250 20ED010A 		vstmdb.32	r0!, {s0}
 990              		.loc 1 222 0
 991 0254 60EEA70A 		vmul.f32	s1, s1, s15
 992 0258 B0EE480A 		vmov.f32	s0, s16
 993 025c FFF7FEFF 		bl	utils_truncate_number
 994              	.LVL49:
 995 0260 9DED010A 		vldr.32	s0, [sp, #4]
 996 0264 83E7     		b	.L58
 997              	.L96:
 998 0266 00BF     		.align	2
 999              	.L95:
 1000 0268 00000000 		.word	ch
 1001 026c 00000000 		.word	.LC1
 1002 0270 00040240 		.word	1073873920
 1003 0274 00000000 		.word	.LANCHOR0
 1004 0278 00000000 		.word	.LANCHOR6
 1005 027c 00000000 		.word	0
 1006 0280 0AD7233C 		.word	1008981770
 1007 0284 00007A44 		.word	1148846080
 1008 0288 6F12833A 		.word	981668463
 1009 028c 00000000 		.word	.LANCHOR16
 1010 0290 00000000 		.word	.LANCHOR1
 1011 0294 0000FA43 		.word	1140457472
 1012 0298 00000000 		.word	.LANCHOR20
 1013 029c 00000000 		.word	.LANCHOR2
 1014 02a0 00401C46 		.word	1176256512
 1015 02a4 00000000 		.word	.LANCHOR8
 1016 02a8 00000000 		.word	.LANCHOR18
 1017 02ac 00000000 		.word	.LANCHOR10
 1018 02b0 00000000 		.word	.LANCHOR9
 1019 02b4 5917B7D1 		.word	-776530087
 1020 02b8 00000000 		.word	.LANCHOR19
 1021              	.LBE49:
 1022              		.cfi_endproc
 1023              	.LFE263:
 1024              		.size	pas_thread, .-pas_thread
 1025              		.section	.rodata
 1026              		.align	2
ARM GAS  /tmp/ccgEXwoi.s 			page 19


 1027              		.set	.LANCHOR11,. + 0
 1028              	.LC0:
 1029 0000 00       		.byte	0
 1030 0001 FF       		.byte	-1
 1031 0002 01       		.byte	1
 1032 0003 02       		.byte	2
 1033 0004 01       		.byte	1
 1034 0005 00       		.byte	0
 1035 0006 02       		.byte	2
 1036 0007 FF       		.byte	-1
 1037 0008 FF       		.byte	-1
 1038 0009 02       		.byte	2
 1039 000a 00       		.byte	0
 1040 000b 01       		.byte	1
 1041 000c 02       		.byte	2
 1042 000d 01       		.byte	1
 1043 000e FF       		.byte	-1
 1044 000f 00       		.byte	0
 1045              		.section	.bss.config,"aw",%nobits
 1046              		.align	2
 1047              		.set	.LANCHOR0,. + 0
 1048              		.type	config, %object
 1049              		.size	config, 32
 1050              	config:
 1051 0000 00000000 		.space	32
 1051      00000000 
 1051      00000000 
 1051      00000000 
 1051      00000000 
 1052              		.section	.bss.correct_direction_counter.12547,"aw",%nobits
 1053              		.align	2
 1054              		.set	.LANCHOR13,. + 0
 1055              		.type	correct_direction_counter.12547, %object
 1056              		.size	correct_direction_counter.12547, 4
 1057              	correct_direction_counter.12547:
 1058 0000 00000000 		.space	4
 1059              		.section	.bss.direction_conf,"aw",%nobits
 1060              		.align	2
 1061              		.set	.LANCHOR5,. + 0
 1062              		.type	direction_conf, %object
 1063              		.size	direction_conf, 4
 1064              	direction_conf:
 1065 0000 00000000 		.space	4
 1066              		.section	.bss.inactivity_time.12545,"aw",%nobits
 1067              		.align	2
 1068              		.set	.LANCHOR17,. + 0
 1069              		.type	inactivity_time.12545, %object
 1070              		.size	inactivity_time.12545, 4
 1071              	inactivity_time.12545:
 1072 0000 00000000 		.space	4
 1073              		.section	.bss.is_running,"aw",%nobits
 1074              		.set	.LANCHOR9,. + 0
 1075              		.type	is_running, %object
 1076              		.size	is_running, 1
 1077              	is_running:
 1078 0000 00       		.space	1
 1079              		.section	.bss.last_time.12566,"aw",%nobits
ARM GAS  /tmp/ccgEXwoi.s 			page 20


 1080              		.align	2
 1081              		.set	.LANCHOR19,. + 0
 1082              		.type	last_time.12566, %object
 1083              		.size	last_time.12566, 4
 1084              	last_time.12566:
 1085 0000 00000000 		.space	4
 1086              		.section	.bss.max_pulse_period,"aw",%nobits
 1087              		.align	2
 1088              		.set	.LANCHOR3,. + 0
 1089              		.type	max_pulse_period, %object
 1090              		.size	max_pulse_period, 4
 1091              	max_pulse_period:
 1092 0000 00000000 		.space	4
 1093              		.section	.bss.min_pedal_period,"aw",%nobits
 1094              		.align	2
 1095              		.set	.LANCHOR4,. + 0
 1096              		.type	min_pedal_period, %object
 1097              		.size	min_pedal_period, 4
 1098              	min_pedal_period:
 1099 0000 00000000 		.space	4
 1100              		.section	.bss.ms_without_power,"aw",%nobits
 1101              		.align	2
 1102              		.set	.LANCHOR1,. + 0
 1103              		.type	ms_without_power, %object
 1104              		.size	ms_without_power, 4
 1105              	ms_without_power:
 1106 0000 00000000 		.space	4
 1107              		.section	.bss.old_state.12543,"aw",%nobits
 1108              		.set	.LANCHOR12,. + 0
 1109              		.type	old_state.12543, %object
 1110              		.size	old_state.12543, 1
 1111              	old_state.12543:
 1112 0000 00       		.space	1
 1113              		.section	.bss.old_timestamp.12544,"aw",%nobits
 1114              		.align	2
 1115              		.set	.LANCHOR14,. + 0
 1116              		.type	old_timestamp.12544, %object
 1117              		.size	old_timestamp.12544, 4
 1118              	old_timestamp.12544:
 1119 0000 00000000 		.space	4
 1120              		.section	.bss.output_current_rel,"aw",%nobits
 1121              		.align	2
 1122              		.set	.LANCHOR2,. + 0
 1123              		.type	output_current_rel, %object
 1124              		.size	output_current_rel, 4
 1125              	output_current_rel:
 1126 0000 00000000 		.space	4
 1127              		.section	.bss.output_ramp.12567,"aw",%nobits
 1128              		.align	2
 1129              		.set	.LANCHOR18,. + 0
 1130              		.type	output_ramp.12567, %object
 1131              		.size	output_ramp.12567, 4
 1132              	output_ramp.12567:
 1133 0000 00000000 		.space	4
 1134              		.section	.bss.pas_thread_wa,"aw",%nobits
 1135              		.align	3
 1136              		.set	.LANCHOR7,. + 0
ARM GAS  /tmp/ccgEXwoi.s 			page 21


 1137              		.type	pas_thread_wa, %object
 1138              		.size	pas_thread_wa, 928
 1139              	pas_thread_wa:
 1140 0000 00000000 		.space	928
 1140      00000000 
 1140      00000000 
 1140      00000000 
 1140      00000000 
 1141              		.section	.bss.pedal_rpm,"aw",%nobits
 1142              		.align	2
 1143              		.set	.LANCHOR16,. + 0
 1144              		.type	pedal_rpm, %object
 1145              		.size	pedal_rpm, 4
 1146              	pedal_rpm:
 1147 0000 00000000 		.space	4
 1148              		.section	.bss.period_filtered.12546,"aw",%nobits
 1149              		.align	2
 1150              		.set	.LANCHOR15,. + 0
 1151              		.type	period_filtered.12546, %object
 1152              		.size	period_filtered.12546, 4
 1153              	period_filtered.12546:
 1154 0000 00000000 		.space	4
 1155              		.section	.bss.primary_output,"aw",%nobits
 1156              		.set	.LANCHOR8,. + 0
 1157              		.type	primary_output, %object
 1158              		.size	primary_output, 1
 1159              	primary_output:
 1160 0000 00       		.space	1
 1161              		.section	.bss.pulses_without_power_before.12570,"aw",%nobits
 1162              		.align	2
 1163              		.set	.LANCHOR20,. + 0
 1164              		.type	pulses_without_power_before.12570, %object
 1165              		.size	pulses_without_power_before.12570, 4
 1166              	pulses_without_power_before.12570:
 1167 0000 00000000 		.space	4
 1168              		.section	.bss.torque_ratio,"aw",%nobits
 1169              		.align	2
 1170              		.type	torque_ratio, %object
 1171              		.size	torque_ratio, 4
 1172              	torque_ratio:
 1173 0000 00000000 		.space	4
 1174              		.section	.data.stop_now,"aw",%progbits
 1175              		.set	.LANCHOR6,. + 0
 1176              		.type	stop_now, %object
 1177              		.size	stop_now, 1
 1178              	stop_now:
 1179 0000 01       		.byte	1
 1180              		.section	.data.sub_scaling,"aw",%progbits
 1181              		.align	2
 1182              		.set	.LANCHOR10,. + 0
 1183              		.type	sub_scaling, %object
 1184              		.size	sub_scaling, 4
 1185              	sub_scaling:
 1186 0000 0000803F 		.word	1065353216
 1187              		.section	.rodata.pas_thread.str1.4,"aMS",%progbits,1
 1188              		.align	2
 1189              	.LC1:
ARM GAS  /tmp/ccgEXwoi.s 			page 22


 1190 0000 4150505F 		.ascii	"APP_PAS\000"
 1190      50415300 
 1191              		.text
 1192              	.Letext0:
 1193              		.file 4 "/usr/arm-none-eabi/include/machine/_default_types.h"
 1194              		.file 5 "/usr/arm-none-eabi/include/sys/_stdint.h"
 1195              		.file 6 "/usr/lib/gcc/arm-none-eabi/7.3.1/include/stddef.h"
 1196              		.file 7 "ChibiOS_3.0.5/os/rt/ports/ARMCMx/compilers/GCC/chtypes.h"
 1197              		.file 8 "ChibiOS_3.0.5/os/rt/include/chsystypes.h"
 1198              		.file 9 "ChibiOS_3.0.5/os/rt/include/chschd.h"
 1199              		.file 10 "ChibiOS_3.0.5/os/ext/CMSIS/include/core_cm4.h"
 1200              		.file 11 "ChibiOS_3.0.5/os/ext/CMSIS/ST/system_stm32f4xx.h"
 1201              		.file 12 "ChibiOS_3.0.5/os/ext/CMSIS/ST/stm32f407xx.h"
 1202              		.file 13 "ChibiOS_3.0.5/os/rt/ports/ARMCMx/chcore.h"
 1203              		.file 14 "ChibiOS_3.0.5/os/rt/ports/ARMCMx/chcore_v7m.h"
 1204              		.file 15 "ChibiOS_3.0.5/os/rt/include/chtm.h"
 1205              		.file 16 "ChibiOS_3.0.5/os/rt/include/chsem.h"
 1206              		.file 17 "ChibiOS_3.0.5/os/rt/include/chmtx.h"
 1207              		.file 18 "ChibiOS_3.0.5/os/rt/include/chevents.h"
 1208              		.file 19 "ChibiOS_3.0.5/os/rt/include/chqueues.h"
 1209              		.file 20 "./datatypes.h"
 1210              		.file 21 "./conf_general.h"
 1211              		.file 22 "ChibiOS_3.0.5/os/hal/ports/STM32/STM32F4xx/stm32_dma.h"
 1212              		.file 23 "ChibiOS_3.0.5/os/hal/ports/STM32/LLD/GPIOv2/pal_lld.h"
 1213              		.file 24 "ChibiOS_3.0.5/os/hal/include/can.h"
 1214              		.file 25 "ChibiOS_3.0.5/os/hal/ports/STM32/LLD/can_lld.h"
 1215              		.file 26 "ChibiOS_3.0.5/os/hal/include/i2c.h"
 1216              		.file 27 "ChibiOS_3.0.5/os/hal/ports/STM32/LLD/I2Cv1/i2c_lld.h"
 1217              		.file 28 "ChibiOS_3.0.5/os/hal/include/icu.h"
 1218              		.file 29 "ChibiOS_3.0.5/os/hal/ports/STM32/LLD/TIMv1/icu_lld.h"
 1219              		.file 30 "ChibiOS_3.0.5/os/hal/ports/STM32/LLD/TIMv1/stm32_tim.h"
 1220              		.file 31 "ChibiOS_3.0.5/os/hal/include/serial.h"
 1221              		.file 32 "ChibiOS_3.0.5/os/hal/ports/STM32/LLD/USARTv1/serial_lld.h"
 1222              		.file 33 "ChibiOS_3.0.5/os/hal/include/spi.h"
 1223              		.file 34 "ChibiOS_3.0.5/os/hal/ports/STM32/LLD/SPIv1/spi_lld.h"
 1224              		.file 35 "ChibiOS_3.0.5/os/hal/include/usb.h"
 1225              		.file 36 "ChibiOS_3.0.5/os/hal/ports/STM32/LLD/OTGv1/usb_lld.h"
 1226              		.file 37 "ChibiOS_3.0.5/os/hal/ports/STM32/LLD/OTGv1/stm32_otg.h"
 1227              		.file 38 "./mc_interface.h"
 1228              		.file 39 "./utils.h"
 1229              		.file 40 "/usr/arm-none-eabi/include/sys/lock.h"
 1230              		.file 41 "/usr/arm-none-eabi/include/sys/_types.h"
 1231              		.file 42 "/usr/arm-none-eabi/include/sys/reent.h"
 1232              		.file 43 "/usr/arm-none-eabi/include/math.h"
 1233              		.file 44 "ChibiOS_3.0.5/os/rt/include/chthreads.h"
 1234              		.file 45 "applications/app.h"
 1235              		.file 46 "./timeout.h"