ARM GAS  /tmp/cc1xzFgq.s 			page 1


   1              		.cpu cortex-m4
   2              		.eabi_attribute 27, 1
   3              		.eabi_attribute 28, 1
   4              		.eabi_attribute 20, 1
   5              		.eabi_attribute 21, 1
   6              		.eabi_attribute 23, 3
   7              		.eabi_attribute 24, 1
   8              		.eabi_attribute 25, 1
   9              		.eabi_attribute 26, 1
  10              		.eabi_attribute 30, 2
  11              		.eabi_attribute 34, 1
  12              		.eabi_attribute 18, 4
  13              		.file	"app_uartcomm.c"
  14              		.text
  15              	.Ltext0:
  16              		.cfi_sections	.debug_frame
  17              		.section	.text.process_packet_3,"ax",%progbits
  18              		.align	1
  19              		.p2align 4,,15
  20              		.syntax unified
  21              		.thumb
  22              		.thumb_func
  23              		.fpu fpv4-sp-d16
  24              		.type	process_packet_3, %function
  25              	process_packet_3:
  26              	.LFB262:
  27              		.file 1 "applications/app_uartcomm.c"
  28              		.loc 1 81 0
  29              		.cfi_startproc
  30              		@ args = 0, pretend = 0, frame = 0
  31              		@ frame_needed = 0, uses_anonymous_args = 0
  32              		@ link register save eliminated.
  33              	.LVL0:
  34              		.loc 1 81 0
  35 0000 7047     		bx	lr
  36              		.cfi_endproc
  37              	.LFE262:
  38              		.size	process_packet_3, .-process_packet_3
  39 0002 00BF     		.section	.text.packet_process_thread,"ax",%progbits
  40              		.align	1
  41              		.p2align 4,,15
  42              		.syntax unified
  43              		.thumb
  44              		.thumb_func
  45              		.fpu fpv4-sp-d16
  46              		.type	packet_process_thread, %function
  47              	packet_process_thread:
  48              	.LFB272:
  49              		.loc 1 221 0
  50              		.cfi_startproc
  51              		@ args = 0, pretend = 0, frame = 40
  52              		@ frame_needed = 0, uses_anonymous_args = 0
  53              	.LVL1:
  54 0000 F0B5     		push	{r4, r5, r6, r7, lr}
  55              		.cfi_def_cfa_offset 20
  56              		.cfi_offset 4, -20
  57              		.cfi_offset 5, -16
ARM GAS  /tmp/cc1xzFgq.s 			page 2


  58              		.cfi_offset 6, -12
  59              		.cfi_offset 7, -8
  60              		.cfi_offset 14, -4
  61              	.LBB26:
  62              	.LBB27:
  63              		.file 2 "ChibiOS_3.0.5/os/rt/include/chregistry.h"
  64              		.loc 2 135 0
  65 0002 254B     		ldr	r3, .L17
  66              	.LBE27:
  67              	.LBE26:
  68              	.LBB30:
  69              		.loc 1 228 0
  70 0004 254D     		ldr	r5, .L17+4
  71              	.LBE30:
  72              	.LBB31:
  73              	.LBB28:
  74              		.loc 2 135 0
  75 0006 9B69     		ldr	r3, [r3, #24]
  76              	.LBE28:
  77              	.LBE31:
  78              	.LBB32:
  79              		.loc 1 228 0
  80 0008 2868     		ldr	r0, [r5]
  81              	.LVL2:
  82              	.LBE32:
  83              	.LBB33:
  84              	.LBB29:
  85              		.loc 2 135 0
  86 000a 254A     		ldr	r2, .L17+8
  87 000c 9A61     		str	r2, [r3, #24]
  88              	.LVL3:
  89              	.LBE29:
  90              	.LBE33:
  91              		.loc 1 221 0
  92 000e 8BB0     		sub	sp, sp, #44
  93              		.cfi_def_cfa_offset 64
  94              	.LBB34:
  95              		.loc 1 228 0
  96 0010 0430     		adds	r0, r0, #4
  97 0012 0423     		movs	r3, #4
  98 0014 0122     		movs	r2, #1
  99 0016 6946     		mov	r1, sp
 100 0018 FFF7FEFF 		bl	chEvtRegisterMaskWithFlags
 101              	.LVL4:
 102 001c 6868     		ldr	r0, [r5, #4]
 103              	.LBE34:
 104              	.LBB35:
 105              	.LBB36:
 106              	.LBB37:
 107              		.loc 1 241 0
 108 001e 214E     		ldr	r6, .L17+12
 109 0020 214C     		ldr	r4, .L17+16
 110              	.LBE37:
 111              	.LBE36:
 112              	.LBE35:
 113              	.LBB44:
 114              		.loc 1 228 0
ARM GAS  /tmp/cc1xzFgq.s 			page 3


 115 0022 0430     		adds	r0, r0, #4
 116 0024 0423     		movs	r3, #4
 117 0026 0122     		movs	r2, #1
 118 0028 05A9     		add	r1, sp, #20
 119 002a FFF7FEFF 		bl	chEvtRegisterMaskWithFlags
 120              	.LVL5:
 121              	.LBE44:
 122              	.LBB45:
 123              	.LBB42:
 124              	.LBB38:
 125              		.loc 1 241 0
 126 002e 06F22447 		addw	r7, r6, #1060
 127              	.L4:
 128              	.LBE38:
 129              	.LBE42:
 130              		.loc 1 232 0
 131 0032 0121     		movs	r1, #1
 132 0034 4FF0FF30 		mov	r0, #-1
 133 0038 FFF7FEFF 		bl	chEvtWaitAnyTimeout
 134              	.LVL6:
 135              	.L5:
 136              	.LBB43:
 137              		.loc 1 238 0
 138 003c 2378     		ldrb	r3, [r4]	@ zero_extendqisi2
 139 003e 83B9     		cbnz	r3, .L6
 140              	.L9:
 141              	.LVL7:
 142 0040 6378     		ldrb	r3, [r4, #1]	@ zero_extendqisi2
 143 0042 002B     		cmp	r3, #0
 144 0044 F5D0     		beq	.L4
 145              	.LBB39:
 146              		.loc 1 239 0
 147 0046 6868     		ldr	r0, [r5, #4]
 148 0048 0021     		movs	r1, #0
 149 004a 0C30     		adds	r0, r0, #12
 150 004c FFF7FEFF 		bl	chIQGetTimeout
 151              	.LVL8:
 152              		.loc 1 240 0
 153 0050 431C     		adds	r3, r0, #1
 154 0052 EED0     		beq	.L4
 155              		.loc 1 241 0
 156 0054 C0B2     		uxtb	r0, r0
 157              	.LVL9:
 158 0056 3946     		mov	r1, r7
 159 0058 FFF7FEFF 		bl	packet_process_byte
 160              	.LVL10:
 161              	.L16:
 162              	.LBE39:
 163              		.loc 1 238 0
 164 005c 2378     		ldrb	r3, [r4]	@ zero_extendqisi2
 165 005e 002B     		cmp	r3, #0
 166 0060 EED0     		beq	.L9
 167              	.L6:
 168              	.LBB40:
 169              		.loc 1 239 0
 170 0062 2868     		ldr	r0, [r5]
 171 0064 0021     		movs	r1, #0
ARM GAS  /tmp/cc1xzFgq.s 			page 4


 172 0066 0C30     		adds	r0, r0, #12
 173 0068 FFF7FEFF 		bl	chIQGetTimeout
 174              	.LVL11:
 175              		.loc 1 240 0
 176 006c 411C     		adds	r1, r0, #1
 177 006e E7D0     		beq	.L9
 178              		.loc 1 241 0
 179 0070 C0B2     		uxtb	r0, r0
 180              	.LVL12:
 181 0072 3146     		mov	r1, r6
 182              	.LVL13:
 183 0074 FFF7FEFF 		bl	packet_process_byte
 184              	.LVL14:
 185              	.LBE40:
 186              		.loc 1 238 0
 187 0078 6378     		ldrb	r3, [r4, #1]	@ zero_extendqisi2
 188 007a 002B     		cmp	r3, #0
 189 007c DED0     		beq	.L5
 190              	.LBB41:
 191              		.loc 1 239 0
 192 007e 6868     		ldr	r0, [r5, #4]
 193 0080 0021     		movs	r1, #0
 194 0082 0C30     		adds	r0, r0, #12
 195 0084 FFF7FEFF 		bl	chIQGetTimeout
 196              	.LVL15:
 197              		.loc 1 240 0
 198 0088 421C     		adds	r2, r0, #1
 199 008a D7D0     		beq	.L5
 200              		.loc 1 241 0
 201 008c C0B2     		uxtb	r0, r0
 202              	.LVL16:
 203 008e 3946     		mov	r1, r7
 204 0090 FFF7FEFF 		bl	packet_process_byte
 205              	.LVL17:
 206 0094 E2E7     		b	.L16
 207              	.L18:
 208 0096 00BF     		.align	2
 209              	.L17:
 210 0098 00000000 		.word	ch
 211 009c 00000000 		.word	.LANCHOR0
 212 00a0 00000000 		.word	.LC0
 213 00a4 00000000 		.word	.LANCHOR1
 214 00a8 00000000 		.word	.LANCHOR2
 215              	.LBE41:
 216              	.LBE43:
 217              	.LBE45:
 218              		.cfi_endproc
 219              	.LFE272:
 220              		.size	packet_process_thread, .-packet_process_thread
 221              		.section	.text.process_packet_2,"ax",%progbits
 222              		.align	1
 223              		.p2align 4,,15
 224              		.syntax unified
 225              		.thumb
 226              		.thumb_func
 227              		.fpu fpv4-sp-d16
 228              		.type	process_packet_2, %function
ARM GAS  /tmp/cc1xzFgq.s 			page 5


 229              	process_packet_2:
 230              	.LFB259:
 231              		.loc 1 77 0
 232              		.cfi_startproc
 233              		@ args = 0, pretend = 0, frame = 0
 234              		@ frame_needed = 0, uses_anonymous_args = 0
 235              		@ link register save eliminated.
 236              	.LVL18:
 237              	.LBB46:
 238              	.LBB47:
 239              		.loc 1 105 0
 240 0000 014A     		ldr	r2, .L20
 241 0002 FFF7FEBF 		b	commands_process_packet
 242              	.LVL19:
 243              	.L21:
 244 0006 00BF     		.align	2
 245              	.L20:
 246 0008 00000000 		.word	send_packet_2
 247              	.LBE47:
 248              	.LBE46:
 249              		.cfi_endproc
 250              	.LFE259:
 251              		.size	process_packet_2, .-process_packet_2
 252              		.section	.text.process_packet_1,"ax",%progbits
 253              		.align	1
 254              		.p2align 4,,15
 255              		.syntax unified
 256              		.thumb
 257              		.thumb_func
 258              		.fpu fpv4-sp-d16
 259              		.type	process_packet_1, %function
 260              	process_packet_1:
 261              	.LFB256:
 262              		.loc 1 73 0
 263              		.cfi_startproc
 264              		@ args = 0, pretend = 0, frame = 0
 265              		@ frame_needed = 0, uses_anonymous_args = 0
 266              		@ link register save eliminated.
 267              	.LVL20:
 268              	.LBB48:
 269              	.LBB49:
 270              		.loc 1 105 0
 271 0000 014A     		ldr	r2, .L23
 272 0002 FFF7FEBF 		b	commands_process_packet
 273              	.LVL21:
 274              	.L24:
 275 0006 00BF     		.align	2
 276              	.L23:
 277 0008 00000000 		.word	send_packet_1
 278              	.LBE49:
 279              	.LBE48:
 280              		.cfi_endproc
 281              	.LFE256:
 282              		.size	process_packet_1, .-process_packet_1
 283              		.section	.text.write_packet_2,"ax",%progbits
 284              		.align	1
 285              		.p2align 4,,15
ARM GAS  /tmp/cc1xzFgq.s 			page 6


 286              		.syntax unified
 287              		.thumb
 288              		.thumb_func
 289              		.fpu fpv4-sp-d16
 290              		.type	write_packet_2, %function
 291              	write_packet_2:
 292              	.LFB260:
 293              		.loc 1 78 0
 294              		.cfi_startproc
 295              		@ args = 0, pretend = 0, frame = 0
 296              		@ frame_needed = 0, uses_anonymous_args = 0
 297              		@ link register save eliminated.
 298              	.LVL22:
 299              	.LBB54:
 300              	.LBB55:
 301              		.loc 1 95 0
 302 0000 064B     		ldr	r3, .L28
 303 0002 5B78     		ldrb	r3, [r3, #1]	@ zero_extendqisi2
 304              	.LVL23:
 305 0004 03B9     		cbnz	r3, .L27
 306              	.LBE55:
 307              	.LBE54:
 308              		.loc 1 78 0
 309 0006 7047     		bx	lr
 310              	.L27:
 311              	.LVL24:
 312              	.LBB59:
 313              	.LBB58:
 314              	.LBB56:
 315              	.LBB57:
 316              		.loc 1 96 0
 317 0008 054B     		ldr	r3, .L28+4
 318 000a 5B68     		ldr	r3, [r3, #4]
 319 000c 0A46     		mov	r2, r1
 320 000e 0146     		mov	r1, r0
 321              	.LVL25:
 322 0010 03F13000 		add	r0, r3, #48
 323              	.LVL26:
 324 0014 4FF0FF33 		mov	r3, #-1
 325 0018 FFF7FEBF 		b	chOQWriteTimeout
 326              	.LVL27:
 327              	.L29:
 328              		.align	2
 329              	.L28:
 330 001c 00000000 		.word	.LANCHOR2
 331 0020 00000000 		.word	.LANCHOR3
 332              	.LBE57:
 333              	.LBE56:
 334              	.LBE58:
 335              	.LBE59:
 336              		.cfi_endproc
 337              	.LFE260:
 338              		.size	write_packet_2, .-write_packet_2
 339              		.section	.text.app_uartcomm_send_packet.part.1,"ax",%progbits
 340              		.align	1
 341              		.p2align 4,,15
 342              		.syntax unified
ARM GAS  /tmp/cc1xzFgq.s 			page 7


 343              		.thumb
 344              		.thumb_func
 345              		.fpu fpv4-sp-d16
 346              		.type	app_uartcomm_send_packet.part.1, %function
 347              	app_uartcomm_send_packet.part.1:
 348              	.LFB274:
 349              		.loc 1 178 0
 350              		.cfi_startproc
 351              		@ args = 0, pretend = 0, frame = 0
 352              		@ frame_needed = 0, uses_anonymous_args = 0
 353              	.LVL28:
 354 0000 2DE9F041 		push	{r4, r5, r6, r7, r8, lr}
 355              		.cfi_def_cfa_offset 24
 356              		.cfi_offset 4, -24
 357              		.cfi_offset 5, -20
 358              		.cfi_offset 6, -16
 359              		.cfi_offset 7, -12
 360              		.cfi_offset 8, -8
 361              		.cfi_offset 14, -4
 362              		.loc 1 183 0
 363 0004 0F4E     		ldr	r6, .L34
 364 0006 104C     		ldr	r4, .L34+4
 365 0008 B35C     		ldrb	r3, [r6, r2]	@ zero_extendqisi2
 366              		.loc 1 178 0
 367 000a 1546     		mov	r5, r2
 368 000c 0746     		mov	r7, r0
 369 000e 8846     		mov	r8, r1
 370 0010 04EB0214 		add	r4, r4, r2, lsl #4
 371              		.loc 1 183 0
 372 0014 83B1     		cbz	r3, .L33
 373              	.LVL29:
 374              	.L31:
 375              		.loc 1 188 0
 376 0016 2046     		mov	r0, r4
 377 0018 FFF7FEFF 		bl	chMtxLock
 378              	.LVL30:
 379              		.loc 1 189 0
 380 001c 0B4B     		ldr	r3, .L34+8
 381 001e 40F22442 		movw	r2, #1060
 382 0022 3846     		mov	r0, r7
 383 0024 4146     		mov	r1, r8
 384 0026 02FB0532 		mla	r2, r2, r5, r3
 385 002a FFF7FEFF 		bl	packet_send_packet
 386              	.LVL31:
 387              		.loc 1 190 0
 388 002e 2046     		mov	r0, r4
 389              		.loc 1 191 0
 390 0030 BDE8F041 		pop	{r4, r5, r6, r7, r8, lr}
 391              		.cfi_remember_state
 392              		.cfi_restore 14
 393              		.cfi_restore 8
 394              		.cfi_restore 7
 395              		.cfi_restore 6
 396              		.cfi_restore 5
 397              		.cfi_restore 4
 398              		.cfi_def_cfa_offset 0
 399              	.LVL32:
ARM GAS  /tmp/cc1xzFgq.s 			page 8


 400              		.loc 1 190 0
 401 0034 FFF7FEBF 		b	chMtxUnlock
 402              	.LVL33:
 403              	.L33:
 404              		.cfi_restore_state
 405              		.loc 1 184 0
 406 0038 2046     		mov	r0, r4
 407              	.LVL34:
 408 003a FFF7FEFF 		bl	chMtxObjectInit
 409              	.LVL35:
 410              		.loc 1 185 0
 411 003e 0123     		movs	r3, #1
 412 0040 7355     		strb	r3, [r6, r5]
 413 0042 E8E7     		b	.L31
 414              	.L35:
 415              		.align	2
 416              	.L34:
 417 0044 00000000 		.word	.LANCHOR5
 418 0048 00000000 		.word	.LANCHOR4
 419 004c 00000000 		.word	.LANCHOR1
 420              		.cfi_endproc
 421              	.LFE274:
 422              		.size	app_uartcomm_send_packet.part.1, .-app_uartcomm_send_packet.part.1
 423              		.section	.text.send_packet_2,"ax",%progbits
 424              		.align	1
 425              		.p2align 4,,15
 426              		.syntax unified
 427              		.thumb
 428              		.thumb_func
 429              		.fpu fpv4-sp-d16
 430              		.type	send_packet_2, %function
 431              	send_packet_2:
 432              	.LFB261:
 433              		.loc 1 79 0
 434              		.cfi_startproc
 435              		@ args = 0, pretend = 0, frame = 0
 436              		@ frame_needed = 0, uses_anonymous_args = 0
 437              		@ link register save eliminated.
 438              	.LVL36:
 439              	.LBB60:
 440              	.LBB61:
 441 0000 0122     		movs	r2, #1
 442 0002 FFF7FEBF 		b	app_uartcomm_send_packet.part.1
 443              	.LVL37:
 444              	.LBE61:
 445              	.LBE60:
 446              		.cfi_endproc
 447              	.LFE261:
 448              		.size	send_packet_2, .-send_packet_2
 449 0006 00BF     		.section	.text.send_packet_1,"ax",%progbits
 450              		.align	1
 451              		.p2align 4,,15
 452              		.syntax unified
 453              		.thumb
 454              		.thumb_func
 455              		.fpu fpv4-sp-d16
 456              		.type	send_packet_1, %function
ARM GAS  /tmp/cc1xzFgq.s 			page 9


 457              	send_packet_1:
 458              	.LFB258:
 459              		.loc 1 75 0
 460              		.cfi_startproc
 461              		@ args = 0, pretend = 0, frame = 0
 462              		@ frame_needed = 0, uses_anonymous_args = 0
 463              		@ link register save eliminated.
 464              	.LVL38:
 465              	.LBB62:
 466              	.LBB63:
 467 0000 0022     		movs	r2, #0
 468 0002 FFF7FEBF 		b	app_uartcomm_send_packet.part.1
 469              	.LVL39:
 470              	.LBE63:
 471              	.LBE62:
 472              		.cfi_endproc
 473              	.LFE258:
 474              		.size	send_packet_1, .-send_packet_1
 475 0006 00BF     		.section	.text.write_packet_3,"ax",%progbits
 476              		.align	1
 477              		.p2align 4,,15
 478              		.syntax unified
 479              		.thumb
 480              		.thumb_func
 481              		.fpu fpv4-sp-d16
 482              		.type	write_packet_3, %function
 483              	write_packet_3:
 484              	.LFB276:
 485              		.cfi_startproc
 486              		@ args = 0, pretend = 0, frame = 0
 487              		@ frame_needed = 0, uses_anonymous_args = 0
 488              		@ link register save eliminated.
 489 0000 7047     		bx	lr
 490              		.cfi_endproc
 491              	.LFE276:
 492              		.size	write_packet_3, .-write_packet_3
 493 0002 00BF     		.section	.text.send_packet_3,"ax",%progbits
 494              		.align	1
 495              		.p2align 4,,15
 496              		.syntax unified
 497              		.thumb
 498              		.thumb_func
 499              		.fpu fpv4-sp-d16
 500              		.type	send_packet_3, %function
 501              	send_packet_3:
 502              	.LFB278:
 503              		.cfi_startproc
 504              		@ args = 0, pretend = 0, frame = 0
 505              		@ frame_needed = 0, uses_anonymous_args = 0
 506              		@ link register save eliminated.
 507 0000 7047     		bx	lr
 508              		.cfi_endproc
 509              	.LFE278:
 510              		.size	send_packet_3, .-send_packet_3
 511 0002 00BF     		.section	.text.write_packet_1,"ax",%progbits
 512              		.align	1
 513              		.p2align 4,,15
ARM GAS  /tmp/cc1xzFgq.s 			page 10


 514              		.syntax unified
 515              		.thumb
 516              		.thumb_func
 517              		.fpu fpv4-sp-d16
 518              		.type	write_packet_1, %function
 519              	write_packet_1:
 520              	.LFB257:
 521              		.loc 1 74 0
 522              		.cfi_startproc
 523              		@ args = 0, pretend = 0, frame = 0
 524              		@ frame_needed = 0, uses_anonymous_args = 0
 525              		@ link register save eliminated.
 526              	.LVL40:
 527              	.LBB68:
 528              	.LBB69:
 529              		.loc 1 95 0
 530 0000 064B     		ldr	r3, .L43
 531 0002 1B78     		ldrb	r3, [r3]	@ zero_extendqisi2
 532              	.LVL41:
 533 0004 03B9     		cbnz	r3, .L42
 534              	.LBE69:
 535              	.LBE68:
 536              		.loc 1 74 0
 537 0006 7047     		bx	lr
 538              	.L42:
 539              	.LVL42:
 540              	.LBB73:
 541              	.LBB72:
 542              	.LBB70:
 543              	.LBB71:
 544              		.loc 1 96 0
 545 0008 054B     		ldr	r3, .L43+4
 546 000a 1B68     		ldr	r3, [r3]
 547 000c 0A46     		mov	r2, r1
 548 000e 0146     		mov	r1, r0
 549              	.LVL43:
 550 0010 03F13000 		add	r0, r3, #48
 551              	.LVL44:
 552 0014 4FF0FF33 		mov	r3, #-1
 553 0018 FFF7FEBF 		b	chOQWriteTimeout
 554              	.LVL45:
 555              	.L44:
 556              		.align	2
 557              	.L43:
 558 001c 00000000 		.word	.LANCHOR2
 559 0020 00000000 		.word	.LANCHOR3
 560              	.LBE71:
 561              	.LBE70:
 562              	.LBE72:
 563              	.LBE73:
 564              		.cfi_endproc
 565              	.LFE257:
 566              		.size	write_packet_1, .-write_packet_1
 567              		.section	.text.app_uartcomm_initialize,"ax",%progbits
 568              		.align	1
 569              		.p2align 4,,15
 570              		.global	app_uartcomm_initialize
ARM GAS  /tmp/cc1xzFgq.s 			page 11


 571              		.syntax unified
 572              		.thumb
 573              		.thumb_func
 574              		.fpu fpv4-sp-d16
 575              		.type	app_uartcomm_initialize, %function
 576              	app_uartcomm_initialize:
 577              	.LFB267:
 578              		.loc 1 108 0
 579              		.cfi_startproc
 580              		@ args = 0, pretend = 0, frame = 0
 581              		@ frame_needed = 0, uses_anonymous_args = 0
 582              		@ link register save eliminated.
 583 0000 70B4     		push	{r4, r5, r6}
 584              		.cfi_def_cfa_offset 12
 585              		.cfi_offset 4, -12
 586              		.cfi_offset 5, -8
 587              		.cfi_offset 6, -4
 588              		.loc 1 110 0
 589 0002 1248     		ldr	r0, .L47
 590              		.loc 1 109 0
 591 0004 124D     		ldr	r5, .L47+4
 592 0006 134C     		ldr	r4, .L47+8
 593              		.loc 1 111 0
 594 0008 134A     		ldr	r2, .L47+12
 595              		.loc 1 109 0
 596 000a 2C60     		str	r4, [r5]
 597              		.loc 1 110 0
 598 000c 0460     		str	r4, [r0]
 599              		.loc 1 120 0
 600 000e 134C     		ldr	r4, .L47+16
 601              		.loc 1 122 0
 602 0010 4460     		str	r4, [r0, #4]
 603              		.loc 1 111 0
 604 0012 4FF4E130 		mov	r0, #115200
 605              		.loc 1 112 0
 606 0016 1249     		ldr	r1, .L47+20
 607              		.loc 1 113 0
 608 0018 124B     		ldr	r3, .L47+24
 609              		.loc 1 111 0
 610 001a 1060     		str	r0, [r2]
 611              		.loc 1 123 0
 612 001c D060     		str	r0, [r2, #12]
 613              		.loc 1 112 0
 614 001e 124A     		ldr	r2, .L47+28
 615              		.loc 1 120 0
 616 0020 6C60     		str	r4, [r5, #4]
 617              		.loc 1 112 0
 618 0022 0A60     		str	r2, [r1]
 619              		.loc 1 113 0
 620 0024 114D     		ldr	r5, .L47+32
 621              		.loc 1 114 0
 622 0026 124C     		ldr	r4, .L47+36
 623              		.loc 1 113 0
 624 0028 1A60     		str	r2, [r3]
 625              		.loc 1 124 0
 626 002a 02F58062 		add	r2, r2, #1024
 627              		.loc 1 112 0
ARM GAS  /tmp/cc1xzFgq.s 			page 12


 628 002e 114E     		ldr	r6, .L47+40
 629              		.loc 1 124 0
 630 0030 4A60     		str	r2, [r1, #4]
 631              		.loc 1 125 0
 632 0032 5A60     		str	r2, [r3, #4]
 633              		.loc 1 113 0
 634 0034 40F60A22 		movw	r2, #2570
 635              		.loc 1 114 0
 636 0038 40F60703 		movw	r3, #2055
 637              		.loc 1 112 0
 638 003c 40F60B31 		movw	r1, #2827
 639              		.loc 1 113 0
 640 0040 2A80     		strh	r2, [r5]	@ movhi
 641              		.loc 1 114 0
 642 0042 2380     		strh	r3, [r4]	@ movhi
 643              		.loc 1 112 0
 644 0044 3180     		strh	r1, [r6]	@ movhi
 645              		.loc 1 137 0
 646 0046 70BC     		pop	{r4, r5, r6}
 647              		.cfi_restore 6
 648              		.cfi_restore 5
 649              		.cfi_restore 4
 650              		.cfi_def_cfa_offset 0
 651 0048 7047     		bx	lr
 652              	.L48:
 653 004a 00BF     		.align	2
 654              	.L47:
 655 004c 00000000 		.word	.LANCHOR0
 656 0050 00000000 		.word	.LANCHOR3
 657 0054 00000000 		.word	SD3
 658 0058 00000000 		.word	.LANCHOR6
 659 005c 00000000 		.word	SD4
 660 0060 00000000 		.word	.LANCHOR7
 661 0064 00000000 		.word	.LANCHOR8
 662 0068 00040240 		.word	1073873920
 663 006c 00000000 		.word	.LANCHOR10
 664 0070 00000000 		.word	.LANCHOR11
 665 0074 00000000 		.word	.LANCHOR9
 666              		.cfi_endproc
 667              	.LFE267:
 668              		.size	app_uartcomm_initialize, .-app_uartcomm_initialize
 669              		.section	.text.app_uartcomm_start,"ax",%progbits
 670              		.align	1
 671              		.p2align 4,,15
 672              		.global	app_uartcomm_start
 673              		.syntax unified
 674              		.thumb
 675              		.thumb_func
 676              		.fpu fpv4-sp-d16
 677              		.type	app_uartcomm_start, %function
 678              	app_uartcomm_start:
 679              	.LFB268:
 680              		.loc 1 139 0
 681              		.cfi_startproc
 682              		@ args = 0, pretend = 0, frame = 0
 683              		@ frame_needed = 0, uses_anonymous_args = 0
 684              	.LVL46:
ARM GAS  /tmp/cc1xzFgq.s 			page 13


 685              		.loc 1 140 0
 686 0000 0128     		cmp	r0, #1
 687 0002 00D9     		bls	.L56
 688 0004 7047     		bx	lr
 689              	.L56:
 690              		.loc 1 139 0
 691 0006 70B5     		push	{r4, r5, r6, lr}
 692              		.cfi_def_cfa_offset 16
 693              		.cfi_offset 4, -16
 694              		.cfi_offset 5, -12
 695              		.cfi_offset 6, -8
 696              		.cfi_offset 14, -4
 697              		.loc 1 144 0
 698 0008 294A     		ldr	r2, .L58
 699 000a 2A49     		ldr	r1, .L58+4
 700 000c 2A4B     		ldr	r3, .L58+8
 701 000e 51F82010 		ldr	r1, [r1, r0, lsl #2]
 702              		.loc 1 146 0
 703 0012 2A4D     		ldr	r5, .L58+12
 704 0014 0446     		mov	r4, r0
 705              		.loc 1 144 0
 706 0016 52F82000 		ldr	r0, [r2, r0, lsl #2]
 707              	.LVL47:
 708 001a 40F22442 		movw	r2, #1060
 709 001e 02FB0432 		mla	r2, r2, r4, r3
 710              		.loc 1 139 0
 711 0022 82B0     		sub	sp, sp, #8
 712              		.cfi_def_cfa_offset 24
 713              		.loc 1 144 0
 714 0024 FFF7FEFF 		bl	packet_init
 715              	.LVL48:
 716              		.loc 1 146 0
 717 0028 2B78     		ldrb	r3, [r5]	@ zero_extendqisi2
 718 002a 03F0FF02 		and	r2, r3, #255
 719 002e 002B     		cmp	r3, #0
 720 0030 32D0     		beq	.L57
 721              	.L51:
 722              		.loc 1 152 0
 723 0032 234B     		ldr	r3, .L58+16
 724 0034 234D     		ldr	r5, .L58+20
 725 0036 53F82400 		ldr	r0, [r3, r4, lsl #2]
 726              		.loc 1 156 0
 727 003a 234E     		ldr	r6, .L58+24
 728              		.loc 1 152 0
 729 003c 04EB4403 		add	r3, r4, r4, lsl #1
 730 0040 05EB8305 		add	r5, r5, r3, lsl #2
 731 0044 2946     		mov	r1, r5
 732 0046 FFF7FEFF 		bl	sdStart
 733              	.LVL49:
 734              		.loc 1 153 0
 735 004a 204B     		ldr	r3, .L58+28
 736 004c 2946     		mov	r1, r5
 737 004e 53F82400 		ldr	r0, [r3, r4, lsl #2]
 738 0052 FFF7FEFF 		bl	sdStart
 739              	.LVL50:
 740              		.loc 1 156 0
 741 0056 1E4B     		ldr	r3, .L58+32
ARM GAS  /tmp/cc1xzFgq.s 			page 14


 742 0058 325D     		ldrb	r2, [r6, r4]	@ zero_extendqisi2
 743 005a 195D     		ldrb	r1, [r3, r4]	@ zero_extendqisi2
 744 005c 1D48     		ldr	r0, .L58+36
 745              		.loc 1 154 0
 746 005e 1E4B     		ldr	r3, .L58+40
 747              		.loc 1 156 0
 748 0060 50F82400 		ldr	r0, [r0, r4, lsl #2]
 749              		.loc 1 154 0
 750 0064 0125     		movs	r5, #1
 751              		.loc 1 156 0
 752 0066 D201     		lsls	r2, r2, #7
 753 0068 05FA01F1 		lsl	r1, r5, r1
 754 006c 42F03A02 		orr	r2, r2, #58
 755              		.loc 1 154 0
 756 0070 1D55     		strb	r5, [r3, r4]
 757              		.loc 1 156 0
 758 0072 FFF7FEFF 		bl	_pal_lld_setgroupmode
 759              	.LVL51:
 760              		.loc 1 158 0
 761 0076 194B     		ldr	r3, .L58+44
 762 0078 325D     		ldrb	r2, [r6, r4]	@ zero_extendqisi2
 763 007a 195D     		ldrb	r1, [r3, r4]	@ zero_extendqisi2
 764 007c 184B     		ldr	r3, .L58+48
 765 007e D201     		lsls	r2, r2, #7
 766 0080 53F82400 		ldr	r0, [r3, r4, lsl #2]
 767 0084 42F03A02 		orr	r2, r2, #58
 768 0088 05FA01F1 		lsl	r1, r5, r1
 769 008c FFF7FEFF 		bl	_pal_lld_setgroupmode
 770              	.LVL52:
 771              		.loc 1 160 0
 772 0090 144B     		ldr	r3, .L58+52
 773 0092 1D55     		strb	r5, [r3, r4]
 774              		.loc 1 161 0
 775 0094 02B0     		add	sp, sp, #8
 776              		.cfi_remember_state
 777              		.cfi_def_cfa_offset 16
 778              		@ sp needed
 779 0096 70BD     		pop	{r4, r5, r6, pc}
 780              	.L57:
 781              		.cfi_restore_state
 782              		.loc 1 147 0
 783 0098 0092     		str	r2, [sp]
 784 009a 134B     		ldr	r3, .L58+56
 785 009c 1348     		ldr	r0, .L58+60
 786 009e 4022     		movs	r2, #64
 787 00a0 4FF41A61 		mov	r1, #2464
 788 00a4 FFF7FEFF 		bl	chThdCreateStatic
 789              	.LVL53:
 790              		.loc 1 149 0
 791 00a8 0123     		movs	r3, #1
 792 00aa 2B70     		strb	r3, [r5]
 793 00ac C1E7     		b	.L51
 794              	.L59:
 795 00ae 00BF     		.align	2
 796              	.L58:
 797 00b0 00000000 		.word	.LANCHOR13
 798 00b4 00000000 		.word	.LANCHOR12
ARM GAS  /tmp/cc1xzFgq.s 			page 15


 799 00b8 00000000 		.word	.LANCHOR1
 800 00bc 00000000 		.word	.LANCHOR14
 801 00c0 00000000 		.word	.LANCHOR0
 802 00c4 00000000 		.word	.LANCHOR6
 803 00c8 00000000 		.word	.LANCHOR11
 804 00cc 00000000 		.word	.LANCHOR3
 805 00d0 00000000 		.word	.LANCHOR10
 806 00d4 00000000 		.word	.LANCHOR8
 807 00d8 00000000 		.word	.LANCHOR2
 808 00dc 00000000 		.word	.LANCHOR9
 809 00e0 00000000 		.word	.LANCHOR7
 810 00e4 00000000 		.word	.LANCHOR16
 811 00e8 00000000 		.word	packet_process_thread
 812 00ec 00000000 		.word	.LANCHOR15
 813              		.cfi_endproc
 814              	.LFE268:
 815              		.size	app_uartcomm_start, .-app_uartcomm_start
 816              		.section	.text.app_uartcomm_stop,"ax",%progbits
 817              		.align	1
 818              		.p2align 4,,15
 819              		.global	app_uartcomm_stop
 820              		.syntax unified
 821              		.thumb
 822              		.thumb_func
 823              		.fpu fpv4-sp-d16
 824              		.type	app_uartcomm_stop, %function
 825              	app_uartcomm_stop:
 826              	.LFB269:
 827              		.loc 1 163 0
 828              		.cfi_startproc
 829              		@ args = 0, pretend = 0, frame = 0
 830              		@ frame_needed = 0, uses_anonymous_args = 0
 831              	.LVL54:
 832              		.loc 1 164 0
 833 0000 0128     		cmp	r0, #1
 834 0002 00D9     		bls	.L69
 835 0004 7047     		bx	lr
 836              	.L69:
 837              		.loc 1 163 0
 838 0006 70B5     		push	{r4, r5, r6, lr}
 839              		.cfi_def_cfa_offset 16
 840              		.cfi_offset 4, -16
 841              		.cfi_offset 5, -12
 842              		.cfi_offset 6, -8
 843              		.cfi_offset 14, -4
 844              		.loc 1 168 0
 845 0008 134D     		ldr	r5, .L71
 846 000a 2B5C     		ldrb	r3, [r5, r0]	@ zero_extendqisi2
 847 000c 03B9     		cbnz	r3, .L70
 848              		.loc 1 176 0
 849 000e 70BD     		pop	{r4, r5, r6, pc}
 850              	.L70:
 851              		.loc 1 169 0
 852 0010 124B     		ldr	r3, .L71+4
 853 0012 0446     		mov	r4, r0
 854 0014 53F82000 		ldr	r0, [r3, r0, lsl #2]
 855              	.LVL55:
ARM GAS  /tmp/cc1xzFgq.s 			page 16


 856 0018 FFF7FEFF 		bl	sdStop
 857              	.LVL56:
 858              		.loc 1 170 0
 859 001c 104B     		ldr	r3, .L71+8
 860 001e 53F82400 		ldr	r0, [r3, r4, lsl #2]
 861 0022 FFF7FEFF 		bl	sdStop
 862              	.LVL57:
 863              		.loc 1 171 0
 864 0026 0F4A     		ldr	r2, .L71+12
 865 0028 0F4B     		ldr	r3, .L71+16
 866 002a 115D     		ldrb	r1, [r2, r4]	@ zero_extendqisi2
 867 002c 53F82400 		ldr	r0, [r3, r4, lsl #2]
 868 0030 0126     		movs	r6, #1
 869 0032 06FA01F1 		lsl	r1, r6, r1
 870 0036 2022     		movs	r2, #32
 871 0038 FFF7FEFF 		bl	_pal_lld_setgroupmode
 872              	.LVL58:
 873              		.loc 1 172 0
 874 003c 0B4A     		ldr	r2, .L71+20
 875 003e 0C4B     		ldr	r3, .L71+24
 876 0040 115D     		ldrb	r1, [r2, r4]	@ zero_extendqisi2
 877 0042 53F82400 		ldr	r0, [r3, r4, lsl #2]
 878 0046 06FA01F1 		lsl	r1, r6, r1
 879 004a 2022     		movs	r2, #32
 880 004c FFF7FEFF 		bl	_pal_lld_setgroupmode
 881              	.LVL59:
 882              		.loc 1 173 0
 883 0050 0023     		movs	r3, #0
 884 0052 2B55     		strb	r3, [r5, r4]
 885              		.loc 1 176 0
 886 0054 70BD     		pop	{r4, r5, r6, pc}
 887              	.L72:
 888 0056 00BF     		.align	2
 889              	.L71:
 890 0058 00000000 		.word	.LANCHOR2
 891 005c 00000000 		.word	.LANCHOR0
 892 0060 00000000 		.word	.LANCHOR3
 893 0064 00000000 		.word	.LANCHOR10
 894 0068 00000000 		.word	.LANCHOR8
 895 006c 00000000 		.word	.LANCHOR9
 896 0070 00000000 		.word	.LANCHOR7
 897              		.cfi_endproc
 898              	.LFE269:
 899              		.size	app_uartcomm_stop, .-app_uartcomm_stop
 900              		.section	.text.app_uartcomm_send_packet,"ax",%progbits
 901              		.align	1
 902              		.p2align 4,,15
 903              		.global	app_uartcomm_send_packet
 904              		.syntax unified
 905              		.thumb
 906              		.thumb_func
 907              		.fpu fpv4-sp-d16
 908              		.type	app_uartcomm_send_packet, %function
 909              	app_uartcomm_send_packet:
 910              	.LFB270:
 911              		.loc 1 178 0
 912              		.cfi_startproc
ARM GAS  /tmp/cc1xzFgq.s 			page 17


 913              		@ args = 0, pretend = 0, frame = 0
 914              		@ frame_needed = 0, uses_anonymous_args = 0
 915              		@ link register save eliminated.
 916              	.LVL60:
 917              		.loc 1 179 0
 918 0000 012A     		cmp	r2, #1
 919 0002 00D9     		bls	.L75
 920              		.loc 1 191 0
 921 0004 7047     		bx	lr
 922              	.L75:
 923 0006 FFF7FEBF 		b	app_uartcomm_send_packet.part.1
 924              	.LVL61:
 925              		.cfi_endproc
 926              	.LFE270:
 927              		.size	app_uartcomm_send_packet, .-app_uartcomm_send_packet
 928 000a 00BF     		.section	.text.app_uartcomm_configure,"ax",%progbits
 929              		.align	1
 930              		.p2align 4,,15
 931              		.global	app_uartcomm_configure
 932              		.syntax unified
 933              		.thumb
 934              		.thumb_func
 935              		.fpu fpv4-sp-d16
 936              		.type	app_uartcomm_configure, %function
 937              	app_uartcomm_configure:
 938              	.LFB271:
 939              		.loc 1 193 0
 940              		.cfi_startproc
 941              		@ args = 0, pretend = 0, frame = 0
 942              		@ frame_needed = 0, uses_anonymous_args = 0
 943              	.LVL62:
 944              		.loc 1 194 0
 945 0000 012A     		cmp	r2, #1
 946 0002 00D9     		bls	.L98
 947 0004 7047     		bx	lr
 948              	.L98:
 949              		.loc 1 193 0
 950 0006 F8B5     		push	{r3, r4, r5, r6, r7, lr}
 951              		.cfi_def_cfa_offset 24
 952              		.cfi_offset 3, -24
 953              		.cfi_offset 4, -20
 954              		.cfi_offset 5, -16
 955              		.cfi_offset 6, -12
 956              		.cfi_offset 7, -8
 957              		.cfi_offset 14, -4
 958              		.loc 1 198 0
 959 0008 30B9     		cbnz	r0, .L99
 960              	.L79:
 961              		.loc 1 202 0
 962 000a 2B4B     		ldr	r3, .L101
 963 000c 1B78     		ldrb	r3, [r3]	@ zero_extendqisi2
 964 000e 13B1     		cbz	r3, .L76
 965              		.loc 1 202 0 is_stmt 0 discriminator 1
 966 0010 2A4B     		ldr	r3, .L101+4
 967 0012 9B5C     		ldrb	r3, [r3, r2]	@ zero_extendqisi2
 968 0014 33B9     		cbnz	r3, .L100
 969              	.LVL63:
ARM GAS  /tmp/cc1xzFgq.s 			page 18


 970              	.L76:
 971              		.loc 1 219 0 is_stmt 1
 972 0016 F8BD     		pop	{r3, r4, r5, r6, r7, pc}
 973              	.LVL64:
 974              	.L99:
 975              		.loc 1 199 0
 976 0018 294B     		ldr	r3, .L101+8
 977 001a 02EB4204 		add	r4, r2, r2, lsl #1
 978 001e 43F82400 		str	r0, [r3, r4, lsl #2]
 979 0022 F2E7     		b	.L79
 980              	.L100:
 981 0024 1446     		mov	r4, r2
 982              		.loc 1 203 0
 983 0026 274B     		ldr	r3, .L101+12
 984 0028 254A     		ldr	r2, .L101+8
 985              	.LVL65:
 986 002a 53F82400 		ldr	r0, [r3, r4, lsl #2]
 987              	.LVL66:
 988 002e 0D46     		mov	r5, r1
 989 0030 04EB4401 		add	r1, r4, r4, lsl #1
 990              	.LVL67:
 991 0034 02EB8101 		add	r1, r2, r1, lsl #2
 992 0038 FFF7FEFF 		bl	sdStart
 993              	.LVL68:
 994              		.loc 1 205 0
 995 003c 0DB3     		cbz	r5, .L81
 996              		.loc 1 205 0 is_stmt 0 discriminator 1
 997 003e 224D     		ldr	r5, .L101+16
 998 0040 2B5D     		ldrb	r3, [r5, r4]	@ zero_extendqisi2
 999 0042 002B     		cmp	r3, #0
 1000 0044 E7D1     		bne	.L76
 1001              		.loc 1 206 0 is_stmt 1
 1002 0046 214F     		ldr	r7, .L101+20
 1003 0048 214B     		ldr	r3, .L101+24
 1004 004a 3A5D     		ldrb	r2, [r7, r4]	@ zero_extendqisi2
 1005 004c 195D     		ldrb	r1, [r3, r4]	@ zero_extendqisi2
 1006 004e 214B     		ldr	r3, .L101+28
 1007 0050 0126     		movs	r6, #1
 1008 0052 D201     		lsls	r2, r2, #7
 1009 0054 53F82400 		ldr	r0, [r3, r4, lsl #2]
 1010 0058 42F03A02 		orr	r2, r2, #58
 1011 005c 06FA01F1 		lsl	r1, r6, r1
 1012 0060 FFF7FEFF 		bl	_pal_lld_setgroupmode
 1013              	.LVL69:
 1014              		.loc 1 209 0
 1015 0064 1C4B     		ldr	r3, .L101+32
 1016 0066 3A5D     		ldrb	r2, [r7, r4]	@ zero_extendqisi2
 1017 0068 195D     		ldrb	r1, [r3, r4]	@ zero_extendqisi2
 1018 006a 1C4B     		ldr	r3, .L101+36
 1019 006c D201     		lsls	r2, r2, #7
 1020 006e 42F03A02 		orr	r2, r2, #58
 1021 0072 06FA01F1 		lsl	r1, r6, r1
 1022 0076 53F82400 		ldr	r0, [r3, r4, lsl #2]
 1023 007a FFF7FEFF 		bl	_pal_lld_setgroupmode
 1024              	.LVL70:
 1025              		.loc 1 212 0
 1026 007e 2E55     		strb	r6, [r5, r4]
ARM GAS  /tmp/cc1xzFgq.s 			page 19


 1027              		.loc 1 219 0
 1028 0080 F8BD     		pop	{r3, r4, r5, r6, r7, pc}
 1029              	.L81:
 1030              		.loc 1 213 0 discriminator 1
 1031 0082 114E     		ldr	r6, .L101+16
 1032 0084 335D     		ldrb	r3, [r6, r4]	@ zero_extendqisi2
 1033 0086 002B     		cmp	r3, #0
 1034 0088 C5D0     		beq	.L76
 1035              		.loc 1 214 0
 1036 008a 114A     		ldr	r2, .L101+24
 1037 008c 114B     		ldr	r3, .L101+28
 1038 008e 115D     		ldrb	r1, [r2, r4]	@ zero_extendqisi2
 1039 0090 53F82400 		ldr	r0, [r3, r4, lsl #2]
 1040 0094 0127     		movs	r7, #1
 1041 0096 07FA01F1 		lsl	r1, r7, r1
 1042 009a 2A46     		mov	r2, r5
 1043 009c FFF7FEFF 		bl	_pal_lld_setgroupmode
 1044              	.LVL71:
 1045              		.loc 1 215 0
 1046 00a0 0D4A     		ldr	r2, .L101+32
 1047 00a2 0E4B     		ldr	r3, .L101+36
 1048 00a4 115D     		ldrb	r1, [r2, r4]	@ zero_extendqisi2
 1049 00a6 53F82400 		ldr	r0, [r3, r4, lsl #2]
 1050 00aa 07FA01F1 		lsl	r1, r7, r1
 1051 00ae 2A46     		mov	r2, r5
 1052 00b0 FFF7FEFF 		bl	_pal_lld_setgroupmode
 1053              	.LVL72:
 1054              		.loc 1 216 0
 1055 00b4 3555     		strb	r5, [r6, r4]
 1056              		.loc 1 219 0
 1057 00b6 F8BD     		pop	{r3, r4, r5, r6, r7, pc}
 1058              	.L102:
 1059              		.align	2
 1060              	.L101:
 1061 00b8 00000000 		.word	.LANCHOR14
 1062 00bc 00000000 		.word	.LANCHOR2
 1063 00c0 00000000 		.word	.LANCHOR6
 1064 00c4 00000000 		.word	.LANCHOR0
 1065 00c8 00000000 		.word	.LANCHOR16
 1066 00cc 00000000 		.word	.LANCHOR11
 1067 00d0 00000000 		.word	.LANCHOR10
 1068 00d4 00000000 		.word	.LANCHOR8
 1069 00d8 00000000 		.word	.LANCHOR9
 1070 00dc 00000000 		.word	.LANCHOR7
 1071              		.cfi_endproc
 1072              	.LFE271:
 1073              		.size	app_uartcomm_configure, .-app_uartcomm_configure
 1074              		.section	.bss.RxGpioPin,"aw",%nobits
 1075              		.align	2
 1076              		.set	.LANCHOR9,. + 0
 1077              		.type	RxGpioPin, %object
 1078              		.size	RxGpioPin, 2
 1079              	RxGpioPin:
 1080 0000 0000     		.space	2
 1081              		.section	.bss.RxGpioPort,"aw",%nobits
 1082              		.align	2
 1083              		.set	.LANCHOR7,. + 0
ARM GAS  /tmp/cc1xzFgq.s 			page 20


 1084              		.type	RxGpioPort, %object
 1085              		.size	RxGpioPort, 8
 1086              	RxGpioPort:
 1087 0000 00000000 		.space	8
 1087      00000000 
 1088              		.section	.bss.TxGpioPin,"aw",%nobits
 1089              		.align	2
 1090              		.set	.LANCHOR10,. + 0
 1091              		.type	TxGpioPin, %object
 1092              		.size	TxGpioPin, 2
 1093              	TxGpioPin:
 1094 0000 0000     		.space	2
 1095              		.section	.bss.TxGpioPort,"aw",%nobits
 1096              		.align	2
 1097              		.set	.LANCHOR8,. + 0
 1098              		.type	TxGpioPort, %object
 1099              		.size	TxGpioPort, 8
 1100              	TxGpioPort:
 1101 0000 00000000 		.space	8
 1101      00000000 
 1102              		.section	.bss.gpioAF,"aw",%nobits
 1103              		.align	2
 1104              		.set	.LANCHOR11,. + 0
 1105              		.type	gpioAF, %object
 1106              		.size	gpioAF, 2
 1107              	gpioAF:
 1108 0000 0000     		.space	2
 1109              		.section	.bss.packet_process_thread_wa,"aw",%nobits
 1110              		.align	3
 1111              		.set	.LANCHOR15,. + 0
 1112              		.type	packet_process_thread_wa, %object
 1113              		.size	packet_process_thread_wa, 2464
 1114              	packet_process_thread_wa:
 1115 0000 00000000 		.space	2464
 1115      00000000 
 1115      00000000 
 1115      00000000 
 1115      00000000 
 1116              		.section	.bss.packet_state,"aw",%nobits
 1117              		.align	2
 1118              		.set	.LANCHOR1,. + 0
 1119              		.type	packet_state, %object
 1120              		.size	packet_state, 2120
 1121              	packet_state:
 1122 0000 00000000 		.space	2120
 1122      00000000 
 1122      00000000 
 1122      00000000 
 1122      00000000 
 1123              		.section	.bss.pins_enabled,"aw",%nobits
 1124              		.align	2
 1125              		.set	.LANCHOR16,. + 0
 1126              		.type	pins_enabled, %object
 1127              		.size	pins_enabled, 2
 1128              	pins_enabled:
 1129 0000 0000     		.space	2
 1130              		.section	.bss.send_mutex,"aw",%nobits
ARM GAS  /tmp/cc1xzFgq.s 			page 21


 1131              		.align	2
 1132              		.set	.LANCHOR4,. + 0
 1133              		.type	send_mutex, %object
 1134              		.size	send_mutex, 32
 1135              	send_mutex:
 1136 0000 00000000 		.space	32
 1136      00000000 
 1136      00000000 
 1136      00000000 
 1136      00000000 
 1137              		.section	.bss.send_mutex_init_done,"aw",%nobits
 1138              		.align	2
 1139              		.set	.LANCHOR5,. + 0
 1140              		.type	send_mutex_init_done, %object
 1141              		.size	send_mutex_init_done, 2
 1142              	send_mutex_init_done:
 1143 0000 0000     		.space	2
 1144              		.section	.bss.serialPortDriverRx,"aw",%nobits
 1145              		.align	2
 1146              		.set	.LANCHOR0,. + 0
 1147              		.type	serialPortDriverRx, %object
 1148              		.size	serialPortDriverRx, 8
 1149              	serialPortDriverRx:
 1150 0000 00000000 		.space	8
 1150      00000000 
 1151              		.section	.bss.serialPortDriverTx,"aw",%nobits
 1152              		.align	2
 1153              		.set	.LANCHOR3,. + 0
 1154              		.type	serialPortDriverTx, %object
 1155              		.size	serialPortDriverTx, 8
 1156              	serialPortDriverTx:
 1157 0000 00000000 		.space	8
 1157      00000000 
 1158              		.section	.bss.thread_is_running,"aw",%nobits
 1159              		.set	.LANCHOR14,. + 0
 1160              		.type	thread_is_running, %object
 1161              		.size	thread_is_running, 1
 1162              	thread_is_running:
 1163 0000 00       		.space	1
 1164              		.section	.bss.uart_is_running,"aw",%nobits
 1165              		.align	2
 1166              		.set	.LANCHOR2,. + 0
 1167              		.type	uart_is_running, %object
 1168              		.size	uart_is_running, 2
 1169              	uart_is_running:
 1170 0000 0000     		.space	2
 1171              		.section	.data.uart_cfg,"aw",%progbits
 1172              		.align	2
 1173              		.set	.LANCHOR6,. + 0
 1174              		.type	uart_cfg, %object
 1175              		.size	uart_cfg, 24
 1176              	uart_cfg:
 1177 0000 00C20100 		.word	115200
 1178 0004 0000     		.short	0
 1179 0006 0040     		.short	16384
 1180 0008 0000     		.short	0
 1181 000a 0000     		.space	2
ARM GAS  /tmp/cc1xzFgq.s 			page 22


 1182 000c 00000000 		.space	12
 1182      00000000 
 1182      00000000 
 1183              		.section	.rodata.packet_process_thread.str1.4,"aMS",%progbits,1
 1184              		.align	2
 1185              	.LC0:
 1186 0000 75617274 		.ascii	"uartcomm proc\000"
 1186      636F6D6D 
 1186      2070726F 
 1186      6300
 1187              		.section	.rodata.process_functions,"a",%progbits
 1188              		.align	2
 1189              		.set	.LANCHOR12,. + 0
 1190              		.type	process_functions, %object
 1191              		.size	process_functions, 12
 1192              	process_functions:
 1193 0000 00000000 		.word	process_packet_1
 1194 0004 00000000 		.word	process_packet_2
 1195 0008 00000000 		.word	process_packet_3
 1196              		.section	.rodata.write_functions,"a",%progbits
 1197              		.align	2
 1198              		.set	.LANCHOR13,. + 0
 1199              		.type	write_functions, %object
 1200              		.size	write_functions, 12
 1201              	write_functions:
 1202 0000 00000000 		.word	write_packet_1
 1203 0004 00000000 		.word	write_packet_2
 1204 0008 00000000 		.word	write_packet_3
 1205              		.text
 1206              	.Letext0:
 1207              		.file 3 "/usr/arm-none-eabi/include/machine/_default_types.h"
 1208              		.file 4 "/usr/arm-none-eabi/include/sys/_stdint.h"
 1209              		.file 5 "/usr/lib/gcc/arm-none-eabi/7.3.1/include/stddef.h"
 1210              		.file 6 "ChibiOS_3.0.5/os/rt/ports/ARMCMx/compilers/GCC/chtypes.h"
 1211              		.file 7 "ChibiOS_3.0.5/os/rt/include/chsystypes.h"
 1212              		.file 8 "ChibiOS_3.0.5/os/rt/include/chschd.h"
 1213              		.file 9 "ChibiOS_3.0.5/os/ext/CMSIS/include/core_cm4.h"
 1214              		.file 10 "ChibiOS_3.0.5/os/ext/CMSIS/ST/system_stm32f4xx.h"
 1215              		.file 11 "ChibiOS_3.0.5/os/ext/CMSIS/ST/stm32f407xx.h"
 1216              		.file 12 "ChibiOS_3.0.5/os/rt/ports/ARMCMx/chcore.h"
 1217              		.file 13 "ChibiOS_3.0.5/os/rt/ports/ARMCMx/chcore_v7m.h"
 1218              		.file 14 "ChibiOS_3.0.5/os/rt/include/chtm.h"
 1219              		.file 15 "ChibiOS_3.0.5/os/rt/include/chsem.h"
 1220              		.file 16 "ChibiOS_3.0.5/os/rt/include/chmtx.h"
 1221              		.file 17 "ChibiOS_3.0.5/os/rt/include/chevents.h"
 1222              		.file 18 "ChibiOS_3.0.5/os/rt/include/chqueues.h"
 1223              		.file 19 "./datatypes.h"
 1224              		.file 20 "./conf_general.h"
 1225              		.file 21 "applications/app.h"
 1226              		.file 22 "ChibiOS_3.0.5/os/hal/ports/STM32/STM32F4xx/stm32_dma.h"
 1227              		.file 23 "ChibiOS_3.0.5/os/hal/ports/STM32/LLD/GPIOv2/pal_lld.h"
 1228              		.file 24 "ChibiOS_3.0.5/os/hal/include/can.h"
 1229              		.file 25 "ChibiOS_3.0.5/os/hal/ports/STM32/LLD/can_lld.h"
 1230              		.file 26 "ChibiOS_3.0.5/os/hal/include/i2c.h"
 1231              		.file 27 "ChibiOS_3.0.5/os/hal/ports/STM32/LLD/I2Cv1/i2c_lld.h"
 1232              		.file 28 "ChibiOS_3.0.5/os/hal/include/icu.h"
 1233              		.file 29 "ChibiOS_3.0.5/os/hal/ports/STM32/LLD/TIMv1/icu_lld.h"
ARM GAS  /tmp/cc1xzFgq.s 			page 23


 1234              		.file 30 "ChibiOS_3.0.5/os/hal/ports/STM32/LLD/TIMv1/stm32_tim.h"
 1235              		.file 31 "ChibiOS_3.0.5/os/hal/include/serial.h"
 1236              		.file 32 "ChibiOS_3.0.5/os/hal/ports/STM32/LLD/USARTv1/serial_lld.h"
 1237              		.file 33 "ChibiOS_3.0.5/os/hal/include/spi.h"
 1238              		.file 34 "ChibiOS_3.0.5/os/hal/ports/STM32/LLD/SPIv1/spi_lld.h"
 1239              		.file 35 "ChibiOS_3.0.5/os/hal/include/usb.h"
 1240              		.file 36 "ChibiOS_3.0.5/os/hal/ports/STM32/LLD/OTGv1/usb_lld.h"
 1241              		.file 37 "ChibiOS_3.0.5/os/hal/ports/STM32/LLD/OTGv1/stm32_otg.h"
 1242              		.file 38 "./packet.h"
 1243              		.file 39 "./commands.h"
 1244              		.file 40 "ChibiOS_3.0.5/os/rt/include/chthreads.h"