ARM GAS  /tmp/ccAm8JJK.s 			page 1


   1              		.cpu cortex-m4
   2              		.eabi_attribute 27, 1
   3              		.eabi_attribute 28, 1
   4              		.eabi_attribute 20, 1
   5              		.eabi_attribute 21, 1
   6              		.eabi_attribute 23, 3
   7              		.eabi_attribute 24, 1
   8              		.eabi_attribute 25, 1
   9              		.eabi_attribute 26, 1
  10              		.eabi_attribute 30, 2
  11              		.eabi_attribute 34, 1
  12              		.eabi_attribute 18, 4
  13              		.file	"app_adc.c"
  14              		.text
  15              	.Ltext0:
  16              		.cfi_sections	.debug_frame
  17              		.section	.text.adc_thread,"ax",%progbits
  18              		.align	1
  19              		.p2align 4,,15
  20              		.syntax unified
  21              		.thumb
  22              		.thumb_func
  23              		.fpu fpv4-sp-d16
  24              		.type	adc_thread, %function
  25              	adc_thread:
  26              	.LFB263:
  27              		.file 1 "applications/app_adc.c"
  28              		.loc 1 89 0
  29              		.cfi_startproc
  30              		@ args = 0, pretend = 0, frame = 16
  31              		@ frame_needed = 0, uses_anonymous_args = 0
  32              	.LVL0:
  33 0000 2DE9F04F 		push	{r4, r5, r6, r7, r8, r9, r10, fp, lr}
  34              		.cfi_def_cfa_offset 36
  35              		.cfi_offset 4, -36
  36              		.cfi_offset 5, -32
  37              		.cfi_offset 6, -28
  38              		.cfi_offset 7, -24
  39              		.cfi_offset 8, -20
  40              		.cfi_offset 9, -16
  41              		.cfi_offset 10, -12
  42              		.cfi_offset 11, -8
  43              		.cfi_offset 14, -4
  44              	.LBB59:
  45              	.LBB60:
  46              		.file 2 "ChibiOS_3.0.5/os/rt/include/chregistry.h"
  47              		.loc 2 135 0
  48 0004 DFF89C93 		ldr	r9, .L247+88
  49              	.LBE60:
  50              	.LBE59:
  51              		.loc 1 95 0
  52 0008 DFF89CA3 		ldr	r10, .L247+92
  53              	.LBB64:
  54              	.LBB61:
  55              		.loc 2 135 0
  56 000c D9F81820 		ldr	r2, [r9, #24]
  57              	.LBE61:
ARM GAS  /tmp/ccAm8JJK.s 			page 2


  58              	.LBE64:
  59              		.loc 1 95 0
  60 0010 9AF80030 		ldrb	r3, [r10]	@ zero_extendqisi2
  61              	.LBB65:
  62              	.LBB62:
  63              		.loc 2 135 0
  64 0014 CD49     		ldr	r1, .L247
  65              	.LBE62:
  66              	.LBE65:
  67              		.loc 1 89 0
  68 0016 2DED0A8B 		vpush.64	{d8, d9, d10, d11, d12}
  69              		.cfi_def_cfa_offset 76
  70              		.cfi_offset 80, -76
  71              		.cfi_offset 81, -72
  72              		.cfi_offset 82, -68
  73              		.cfi_offset 83, -64
  74              		.cfi_offset 84, -60
  75              		.cfi_offset 85, -56
  76              		.cfi_offset 86, -52
  77              		.cfi_offset 87, -48
  78              		.cfi_offset 88, -44
  79              		.cfi_offset 89, -40
  80              	.LBB66:
  81              	.LBB63:
  82              		.loc 2 135 0
  83 001a 9161     		str	r1, [r2, #24]
  84              	.LVL1:
  85              	.LBE63:
  86              	.LBE66:
  87              		.loc 1 89 0
  88 001c 85B0     		sub	sp, sp, #20
  89              		.cfi_def_cfa_offset 96
  90              		.loc 1 96 0
  91 001e 2022     		movs	r2, #32
  92              		.loc 1 95 0
  93 0020 002B     		cmp	r3, #0
  94 0022 00F0FD82 		beq	.L2
  95              		.loc 1 96 0
  96 0026 4FF48061 		mov	r1, #1024
  97 002a C948     		ldr	r0, .L247+4
  98              	.LVL2:
  99 002c FFF7FEFF 		bl	_pal_lld_setgroupmode
 100              	.LVL3:
 101              		.loc 1 97 0
 102 0030 2022     		movs	r2, #32
 103 0032 4FF40061 		mov	r1, #2048
 104 0036 C648     		ldr	r0, .L247+4
 105 0038 FFF7FEFF 		bl	_pal_lld_setgroupmode
 106              	.LVL4:
 107              	.L3:
 108              		.loc 1 102 0
 109 003c C54A     		ldr	r2, .L247+8
 110 003e C64C     		ldr	r4, .L247+12
 111              	.LBB67:
 112              		.loc 1 121 0
 113 0040 9FEDC68A 		vldr.32	s16, .L247+16
 114              		.loc 1 125 0
ARM GAS  /tmp/ccAm8JJK.s 			page 3


 115 0044 9FEDC69A 		vldr.32	s18, .L247+20
 116              	.LBB68:
 117              	.LBB69:
 118              	.LBB70:
 119              		.loc 1 495 0
 120 0048 DFEDC68A 		vldr.32	s17, .L247+24
 121 004c DFEDC69A 		vldr.32	s19, .L247+28
 122              	.LBE70:
 123              	.LBE69:
 124              	.LBE68:
 125              	.LBE67:
 126              		.loc 1 102 0
 127 0050 0123     		movs	r3, #1
 128 0052 1370     		strb	r3, [r2]
 129              	.L4:
 130              	.LBB146:
 131              		.loc 1 106 0
 132 0054 236C     		ldr	r3, [r4, #64]
 133 0056 42F21075 		movw	r5, #10000
 134 005a B5FBF3F5 		udiv	r5, r5, r3
 135              	.LVL5:
 136              		.loc 1 110 0
 137 005e 002D     		cmp	r5, #0
 138 0060 08BF     		it	eq
 139 0062 0125     		moveq	r5, #1
 140              	.LVL6:
 141              		.loc 1 112 0
 142 0064 2846     		mov	r0, r5
 143 0066 FFF7FEFF 		bl	chThdSleep
 144              	.LVL7:
 145              		.loc 1 114 0
 146 006a C04B     		ldr	r3, .L247+32
 147 006c 1B78     		ldrb	r3, [r3]	@ zero_extendqisi2
 148 006e 002B     		cmp	r3, #0
 149 0070 40F0B782 		bne	.L234
 150              		.loc 1 120 0
 151 0074 FFF7FEFF 		bl	mc_interface_get_fault
 152              	.LVL8:
 153 0078 28B1     		cbz	r0, .L7
 154              		.loc 1 120 0 is_stmt 0 discriminator 1
 155 007a 637F     		ldrb	r3, [r4, #29]	@ zero_extendqisi2
 156 007c 022B     		cmp	r3, #2
 157              		.loc 1 121 0 is_stmt 1 discriminator 1
 158 007e 1CBF     		itt	ne
 159 0080 BB4B     		ldrne	r3, .L247+36
 160 0082 83ED008A 		vstrne.32	s16, [r3]
 161              	.L7:
 162              		.loc 1 125 0
 163 0086 BB4E     		ldr	r6, .L247+40
 164 0088 DFEDBB7A 		vldr.32	s15, .L247+44
 165 008c B389     		ldrh	r3, [r6, #12]
 166              		.loc 1 130 0
 167 008e DFEDBB6A 		vldr.32	s13, .L247+48
 168              		.loc 1 126 0
 169 0092 BB4A     		ldr	r2, .L247+52
 170              		.loc 1 125 0
 171 0094 00EE103A 		vmov	s0, r3	@ int
ARM GAS  /tmp/ccAm8JJK.s 			page 4


 172 0098 B8EE400A 		vcvt.f32.u32	s0, s0
 173              		.loc 1 130 0
 174 009c B94B     		ldr	r3, .L247+56
 175              		.loc 1 125 0
 176 009e 20EE090A 		vmul.f32	s0, s0, s18
 177              		.loc 1 130 0
 178 00a2 93ED007A 		vldr.32	s14, [r3]
 179              		.loc 1 125 0
 180 00a6 20EE270A 		vmul.f32	s0, s0, s15
 181              		.loc 1 130 0
 182 00aa 77EE407A 		vsub.f32	s15, s14, s0
 183              		.loc 1 126 0
 184 00ae 82ED000A 		vstr.32	s0, [r2]
 185              		.loc 1 130 0
 186 00b2 A7EEE67A 		vfms.f32	s14, s15, s13
 187              		.loc 1 132 0
 188 00b6 227F     		ldrb	r2, [r4, #28]	@ zero_extendqisi2
 189              		.loc 1 125 0
 190 00b8 8DED020A 		vstr.32	s0, [sp, #8]
 191              		.loc 1 130 0
 192 00bc 83ED007A 		vstr.32	s14, [r3]
 193              		.loc 1 132 0
 194 00c0 1AB1     		cbz	r2, .L8
 195              		.loc 1 133 0
 196 00c2 B0EE470A 		vmov.f32	s0, s14
 197 00c6 8DED027A 		vstr.32	s14, [sp, #8]
 198              	.L8:
 199              		.loc 1 137 0
 200 00ca 2378     		ldrb	r3, [r4]	@ zero_extendqisi2
 201 00cc DBB2     		uxtb	r3, r3
 202 00ce 0D2B     		cmp	r3, #13
 203 00d0 00F2F080 		bhi	.L9
 204 00d4 0122     		movs	r2, #1
 205 00d6 02FA03F3 		lsl	r3, r2, r3
 206 00da 42F26442 		movw	r2, #9316
 207 00de 1342     		tst	r3, r2
 208 00e0 00F0E880 		beq	.L9
 209              		.loc 1 144 0
 210 00e4 D4ED047A 		vldr.32	s15, [r4, #16]
 211 00e8 F4EEC07A 		vcmpe.f32	s15, s0
 212 00ec F1EE10FA 		vmrs	APSR_nzcv, FPSCR
 213 00f0 40F38982 		ble	.L224
 214              		.loc 1 145 0
 215 00f4 D4ED020A 		vldr.32	s1, [r4, #8]
 216 00f8 94ED041A 		vldr.32	s2, [r4, #16]
 217 00fc B6EE002A 		vmov.f32	s4, #5.0e-1
 218 0100 F0EE481A 		vmov.f32	s3, s16
 219 0104 FFF7FEFF 		bl	utils_map
 220              	.LVL9:
 221 0108 8DED020A 		vstr.32	s0, [sp, #8]
 222              	.L12:
 223              		.loc 1 160 0
 224 010c 02A8     		add	r0, sp, #8
 225 010e F7EE000A 		vmov.f32	s1, #1.0e+0
 226 0112 B0EE480A 		vmov.f32	s0, s16
 227 0116 FFF7FEFF 		bl	utils_truncate_number
 228              	.LVL10:
ARM GAS  /tmp/ccAm8JJK.s 			page 5


 229              		.loc 1 163 0
 230 011a 94F82030 		ldrb	r3, [r4, #32]	@ zero_extendqisi2
 231 011e 002B     		cmp	r3, #0
 232 0120 40F02E82 		bne	.L13
 233 0124 9DED027A 		vldr.32	s14, [sp, #8]
 234              	.L14:
 235              		.loc 1 167 0
 236 0128 974B     		ldr	r3, .L247+60
 237              		.loc 1 171 0
 238 012a DFED937A 		vldr.32	s15, .L247+44
 239              		.loc 1 167 0
 240 012e 83ED007A 		vstr.32	s14, [r3]
 241              		.loc 1 171 0
 242 0132 F389     		ldrh	r3, [r6, #14]
 243              		.loc 1 183 0
 244 0134 DFED916A 		vldr.32	s13, .L247+48
 245              		.loc 1 179 0
 246 0138 944A     		ldr	r2, .L247+64
 247              		.loc 1 171 0
 248 013a 00EE103A 		vmov	s0, r3	@ int
 249 013e B8EE400A 		vcvt.f32.u32	s0, s0
 250              		.loc 1 183 0
 251 0142 934B     		ldr	r3, .L247+68
 252              		.loc 1 171 0
 253 0144 20EE090A 		vmul.f32	s0, s0, s18
 254              		.loc 1 183 0
 255 0148 93ED007A 		vldr.32	s14, [r3]
 256              		.loc 1 171 0
 257 014c 20EE270A 		vmul.f32	s0, s0, s15
 258              		.loc 1 183 0
 259 0150 77EE407A 		vsub.f32	s15, s14, s0
 260              		.loc 1 179 0
 261 0154 82ED000A 		vstr.32	s0, [r2]
 262              		.loc 1 183 0
 263 0158 A7EEE67A 		vfms.f32	s14, s15, s13
 264              		.loc 1 185 0
 265 015c 227F     		ldrb	r2, [r4, #28]	@ zero_extendqisi2
 266              		.loc 1 171 0
 267 015e 8DED030A 		vstr.32	s0, [sp, #12]
 268              		.loc 1 183 0
 269 0162 83ED007A 		vstr.32	s14, [r3]
 270              		.loc 1 185 0
 271 0166 1AB1     		cbz	r2, .L15
 272              		.loc 1 186 0
 273 0168 B0EE470A 		vmov.f32	s0, s14
 274 016c 8DED037A 		vstr.32	s14, [sp, #12]
 275              	.L15:
 276              		.loc 1 190 0
 277 0170 D4ED050A 		vldr.32	s1, [r4, #20]
 278 0174 94ED061A 		vldr.32	s2, [r4, #24]
 279 0178 B7EE002A 		vmov.f32	s4, #1.0e+0
 280 017c F0EE481A 		vmov.f32	s3, s16
 281 0180 FFF7FEFF 		bl	utils_map
 282              	.LVL11:
 283 0184 04A8     		add	r0, sp, #16
 284 0186 20ED010A 		vstmdb.32	r0!, {s0}
 285              		.loc 1 191 0
ARM GAS  /tmp/ccAm8JJK.s 			page 6


 286 018a F7EE000A 		vmov.f32	s1, #1.0e+0
 287 018e B0EE480A 		vmov.f32	s0, s16
 288 0192 FFF7FEFF 		bl	utils_truncate_number
 289              	.LVL12:
 290              		.loc 1 194 0
 291 0196 94F82130 		ldrb	r3, [r4, #33]	@ zero_extendqisi2
 292              		.loc 1 195 0
 293 019a DDED037A 		vldr.32	s15, [sp, #12]
 294              		.loc 1 194 0
 295 019e 2BB1     		cbz	r3, .L17
 296              		.loc 1 195 0
 297 01a0 B7EE007A 		vmov.f32	s14, #1.0e+0
 298 01a4 77EE677A 		vsub.f32	s15, s14, s15
 299 01a8 CDED037A 		vstr.32	s15, [sp, #12]
 300              	.L17:
 301              		.loc 1 198 0
 302 01ac 794B     		ldr	r3, .L247+72
 303 01ae C3ED007A 		vstr.32	s15, [r3]
 304              	.LVL13:
 305              		.loc 1 203 0
 306 01b2 9AF80030 		ldrb	r3, [r10]	@ zero_extendqisi2
 307 01b6 03F0FF02 		and	r2, r3, #255
 308 01ba 002B     		cmp	r3, #0
 309 01bc 00F0B781 		beq	.L18
 310              		.loc 1 204 0
 311 01c0 634B     		ldr	r3, .L247+4
 312 01c2 1F69     		ldr	r7, [r3, #16]
 313              		.loc 1 205 0
 314 01c4 A37F     		ldrb	r3, [r4, #30]	@ zero_extendqisi2
 315              		.loc 1 204 0
 316 01c6 BF0A     		lsrs	r7, r7, #10
 317              	.LVL14:
 318              		.loc 1 205 0
 319 01c8 03B9     		cbnz	r3, .L231
 320 01ca FF43     		mvns	r7, r7
 321              	.LVL15:
 322              	.L231:
 323              		.loc 1 208 0
 324 01cc 604B     		ldr	r3, .L247+4
 325 01ce 1E69     		ldr	r6, [r3, #16]
 326              		.loc 1 209 0
 327 01d0 E37F     		ldrb	r3, [r4, #31]	@ zero_extendqisi2
 328              		.loc 1 208 0
 329 01d2 F60A     		lsrs	r6, r6, #11
 330 01d4 07F00107 		and	r7, r7, #1
 331              	.LVL16:
 332 01d8 F243     		mvns	r2, r6
 333              	.LVL17:
 334              		.loc 1 209 0
 335 01da 002B     		cmp	r3, #0
 336 01dc 00F0D981 		beq	.L232
 337              		.loc 1 210 0
 338 01e0 06F00106 		and	r6, r6, #1
 339              	.LVL18:
 340              	.L22:
 341              		.loc 1 233 0
 342 01e4 FFF7FEFF 		bl	app_is_output_disabled
ARM GAS  /tmp/ccAm8JJK.s 			page 7


 343              	.LVL19:
 344 01e8 8046     		mov	r8, r0
 345 01ea 0028     		cmp	r0, #0
 346 01ec 7FF432AF 		bne	.L4
 347              		.loc 1 237 0
 348 01f0 2378     		ldrb	r3, [r4]	@ zero_extendqisi2
 349 01f2 DBB2     		uxtb	r3, r3
 350 01f4 0E2B     		cmp	r3, #14
 351 01f6 17D8     		bhi	.L28
 352 01f8 0122     		movs	r2, #1
 353 01fa 02FA03F3 		lsl	r3, r2, r3
 354 01fe 44F68802 		movw	r2, #18568
 355 0202 1342     		tst	r3, r2
 356 0204 40F0F581 		bne	.L29
 357 0208 42F26442 		movw	r2, #9316
 358 020c 1342     		tst	r3, r2
 359 020e 40F00C82 		bne	.L30
 360 0212 13F4887F 		tst	r3, #272
 361 0216 07D0     		beq	.L28
 362              		.loc 1 250 0
 363 0218 9DED027A 		vldr.32	s14, [sp, #8]
 364 021c DDED037A 		vldr.32	s15, [sp, #12]
 365 0220 77EE677A 		vsub.f32	s15, s14, s15
 366 0224 CDED027A 		vstr.32	s15, [sp, #8]
 367              	.L28:
 368              		.loc 1 268 0
 369 0228 94ED010A 		vldr.32	s0, [r4, #4]
 370              		.loc 1 276 0
 371 022c DFF87CB1 		ldr	fp, .L247+96
 372              		.loc 1 268 0
 373 0230 02A8     		add	r0, sp, #8
 374 0232 F7EE000A 		vmov.f32	s1, #1.0e+0
 375 0236 FFF7FEFF 		bl	utils_deadband
 376              	.LVL20:
 377              		.loc 1 271 0
 378 023a D4ED090A 		vldr.32	s1, [r4, #36]
 379 023e 9DED020A 		vldr.32	s0, [sp, #8]
 380 0242 94ED0A1A 		vldr.32	s2, [r4, #40]
 381 0246 94F82C00 		ldrb	r0, [r4, #44]	@ zero_extendqisi2
 382 024a FFF7FEFF 		bl	utils_throttle_curve
 383              	.LVL21:
 384              		.loc 1 276 0
 385 024e DBED007A 		vldr.32	s15, [fp]
 386              		.loc 1 271 0
 387 0252 8DED020A 		vstr.32	s0, [sp, #8]
 388              		.loc 1 276 0
 389 0256 F0EEE77A 		vabs.f32	s15, s15
 390 025a B0EEC07A 		vabs.f32	s14, s0
 391 025e B4EEE77A 		vcmpe.f32	s14, s15
 392 0262 F1EE10FA 		vmrs	APSR_nzcv, FPSCR
 393 0266 CCBF     		ite	gt
 394 0268 D4ED0C0A 		vldrgt.32	s1, [r4, #48]
 395 026c D4ED0D0A 		vldrle.32	s1, [r4, #52]
 396              	.LVL22:
 397              		.loc 1 278 0
 398 0270 DFED497A 		vldr.32	s15, .L247+76
 399 0274 F4EEE70A 		vcmpe.f32	s1, s15
ARM GAS  /tmp/ccAm8JJK.s 			page 8


 400 0278 F1EE10FA 		vmrs	APSR_nzcv, FPSCR
 401 027c 00F38C81 		bgt	.L235
 402              	.LVL23:
 403              	.L35:
 404              		.loc 1 288 0
 405 0280 FFF7FEFF 		bl	mc_interface_get_configuration
 406              	.LVL24:
 407 0284 8346     		mov	fp, r0
 408              	.LVL25:
 409              		.loc 1 289 0
 410 0286 FFF7FEFF 		bl	mc_interface_get_rpm
 411              	.LVL26:
 412              		.loc 1 293 0
 413 028a 2378     		ldrb	r3, [r4]	@ zero_extendqisi2
 414 028c 013B     		subs	r3, r3, #1
 415 028e 0D2B     		cmp	r3, #13
 416 0290 3FF6E0AE 		bhi	.L4
 417 0294 DFE813F0 		tbh	[pc, r3, lsl #1]
 418              	.L39:
 419 0298 2A01     		.2byte	(.L38-.L39)/2
 420 029a 2A01     		.2byte	(.L38-.L39)/2
 421 029c 2A01     		.2byte	(.L38-.L39)/2
 422 029e AE00     		.2byte	(.L40-.L39)/2
 423 02a0 AE00     		.2byte	(.L40-.L39)/2
 424 02a2 AE00     		.2byte	(.L40-.L39)/2
 425 02a4 AE00     		.2byte	(.L40-.L39)/2
 426 02a6 AE00     		.2byte	(.L40-.L39)/2
 427 02a8 8E00     		.2byte	(.L41-.L39)/2
 428 02aa 8E00     		.2byte	(.L41-.L39)/2
 429 02ac 8E00     		.2byte	(.L41-.L39)/2
 430 02ae 1B00     		.2byte	(.L42-.L39)/2
 431 02b0 1B00     		.2byte	(.L42-.L39)/2
 432 02b2 1B00     		.2byte	(.L42-.L39)/2
 433              	.LVL27:
 434              		.p2align 1
 435              	.L9:
 436              		.loc 1 155 0
 437 02b4 D4ED020A 		vldr.32	s1, [r4, #8]
 438 02b8 94ED031A 		vldr.32	s2, [r4, #12]
 439 02bc B7EE002A 		vmov.f32	s4, #1.0e+0
 440 02c0 F0EE481A 		vmov.f32	s3, s16
 441 02c4 FFF7FEFF 		bl	utils_map
 442              	.LVL28:
 443 02c8 8DED020A 		vstr.32	s0, [sp, #8]
 444              		.loc 1 156 0
 445 02cc 1EE7     		b	.L12
 446              	.LVL29:
 447              	.L42:
 448              		.loc 1 354 0
 449 02ce 284B     		ldr	r3, .L247+36
 450 02d0 DFED327A 		vldr.32	s15, .L247+80
 451 02d4 93ED007A 		vldr.32	s14, [r3]
 452              		.loc 1 348 0
 453 02d8 9DED02BA 		vldr.32	s22, [sp, #8]
 454              	.LVL30:
 455              		.loc 1 354 0
 456 02dc B4EEE77A 		vcmpe.f32	s14, s15
ARM GAS  /tmp/ccAm8JJK.s 			page 9


 457 02e0 F1EE10FA 		vmrs	APSR_nzcv, FPSCR
 458 02e4 00F1ED81 		bmi	.L236
 459              	.L57:
 460              	.LVL31:
 461              	.LBB87:
 462              		.loc 1 356 0
 463 02e8 B5EEC0BA 		vcmpe.f32	s22, #0
 464 02ec F1EE10FA 		vmrs	APSR_nzcv, FPSCR
 465              		.loc 1 359 0
 466 02f0 B4BF     		ite	lt
 467 02f2 9BED050A 		vldrlt.32	s0, [fp, #20]
 468              		.loc 1 357 0
 469 02f6 9BED060A 		vldrge.32	s0, [fp, #24]
 470 02fa 0193     		str	r3, [sp, #4]
 471              		.loc 1 359 0
 472 02fc B8BF     		it	lt
 473 02fe B0EEC00A 		vabslt.f32	s0, s0
 474 0302 20EE0B0A 		vmul.f32	s0, s0, s22
 475              	.LVL32:
 476              		.loc 1 362 0
 477 0306 FFF7FEFF 		bl	mc_interface_set_pid_speed
 478              	.LVL33:
 479 030a DDED027A 		vldr.32	s15, [sp, #8]
 480 030e 019B     		ldr	r3, [sp, #4]
 481              		.loc 1 363 0
 482 0310 0126     		movs	r6, #1
 483              	.LVL34:
 484              	.L59:
 485              	.LBE87:
 486              		.loc 1 366 0
 487 0312 9FED277A 		vldr.32	s14, .L247+100
 488 0316 F0EEE77A 		vabs.f32	s15, s15
 489 031a F4EEC77A 		vcmpe.f32	s15, s14
 490 031e F1EE10FA 		vmrs	APSR_nzcv, FPSCR
 491 0322 40F1B481 		bpl	.L229
 492              		.loc 1 367 0
 493 0326 07EE905A 		vmov	s15, r5	@ int
 494 032a B8EEE77A 		vcvt.f32.s32	s14, s15
 495 032e DFED1C7A 		vldr.32	s15, .L247+84
 496 0332 D3ED006A 		vldr.32	s13, [r3]
 497 0336 67EE277A 		vmul.f32	s15, s14, s15
 498              		.loc 1 286 0
 499 033a 4FF0000B 		mov	fp, #0
 500              	.LVL35:
 501              		.loc 1 367 0
 502 033e 87EEA87A 		vdiv.f32	s14, s15, s17
 503 0342 77EE267A 		vadd.f32	s15, s14, s13
 504 0346 C3ED007A 		vstr.32	s15, [r3]
 505 034a 73E0     		b	.L43
 506              	.L248:
 507              		.align	2
 508              	.L247:
 509 034c 00000000 		.word	.LC0
 510 0350 00040240 		.word	1073873920
 511 0354 00000000 		.word	.LANCHOR1
 512 0358 00000000 		.word	.LANCHOR2
 513 035c 00000000 		.word	0
ARM GAS  /tmp/ccAm8JJK.s 			page 10


 514 0360 00008039 		.word	964689920
 515 0364 00401C46 		.word	1176256512
 516 0368 CDCCCC3D 		.word	1036831949
 517 036c 00000000 		.word	.LANCHOR3
 518 0370 00000000 		.word	.LANCHOR4
 519 0374 00000000 		.word	ADC_Value
 520 0378 33335340 		.word	1079194419
 521 037c ABAAAA3E 		.word	1051372203
 522 0380 00000000 		.word	.LANCHOR5
 523 0384 00000000 		.word	.LANCHOR6
 524 0388 00000000 		.word	.LANCHOR7
 525 038c 00000000 		.word	.LANCHOR8
 526 0390 00000000 		.word	.LANCHOR9
 527 0394 00000000 		.word	.LANCHOR10
 528 0398 0AD7233C 		.word	1008981770
 529 039c 0000FA43 		.word	1140457472
 530 03a0 00007A44 		.word	1148846080
 531 03a4 00000000 		.word	ch
 532 03a8 00000000 		.word	.LANCHOR0
 533 03ac 00000000 		.word	.LANCHOR11
 534 03b0 6F12833A 		.word	981668463
 535              	.LVL36:
 536              	.L41:
 537              		.loc 1 335 0
 538 03b4 9DED020A 		vldr.32	s0, [sp, #8]
 539 03b8 5FED037A 		vldr.32	s15, .L247+100
 540 03bc B0EEC07A 		vabs.f32	s14, s0
 541 03c0 B4EEE77A 		vcmpe.f32	s14, s15
 542 03c4 F1EE10FA 		vmrs	APSR_nzcv, FPSCR
 543 03c8 00F16981 		bmi	.L129
 544 03cc C14B     		ldr	r3, .L249
 545              	.L53:
 546              		.loc 1 339 0
 547 03ce 93ED007A 		vldr.32	s14, [r3]
 548 03d2 DFEDC17A 		vldr.32	s15, .L249+4
 549 03d6 B4EEE77A 		vcmpe.f32	s14, s15
 550 03da F1EE10FA 		vmrs	APSR_nzcv, FPSCR
 551 03de 40F12882 		bpl	.L55
 552              		.loc 1 339 0 is_stmt 0 discriminator 1
 553 03e2 627F     		ldrb	r2, [r4, #29]	@ zero_extendqisi2
 554 03e4 002A     		cmp	r2, #0
 555 03e6 00F02482 		beq	.L55
 556              		.loc 1 290 0 is_stmt 1
 557 03ea 0026     		movs	r6, #0
 558              	.LVL37:
 559              		.loc 1 286 0
 560 03ec B346     		mov	fp, r6
 561              	.LVL38:
 562              		.loc 1 285 0
 563 03ee 9FEDBBBA 		vldr.32	s22, .L249+8
 564 03f2 1FE0     		b	.L43
 565              	.LVL39:
 566              	.L40:
 567              		.loc 1 311 0
 568 03f4 DDED027A 		vldr.32	s15, [sp, #8]
 569 03f8 F5EEC07A 		vcmpe.f32	s15, #0
 570 03fc F1EE10FA 		vmrs	APSR_nzcv, FPSCR
ARM GAS  /tmp/ccAm8JJK.s 			page 11


 571 0400 80F28281 		bge	.L237
 572              		.loc 1 322 0
 573 0404 9FEDBE7A 		vldr.32	s14, .L249+44
 574 0408 F4EEC77A 		vcmpe.f32	s15, s14
 575 040c F1EE10FA 		vmrs	APSR_nzcv, FPSCR
 576              		.loc 1 318 0
 577 0410 B0EEE7BA 		vabs.f32	s22, s15
 578              	.LVL40:
 579              		.loc 1 319 0
 580 0414 4FF00108 		mov	r8, #1
 581              	.LVL41:
 582              		.loc 1 322 0
 583 0418 00F18981 		bmi	.L128
 584              	.L243:
 585              		.loc 1 326 0
 586 041c 2278     		ldrb	r2, [r4]	@ zero_extendqisi2
 587 041e AD4B     		ldr	r3, .L249
 588 0420 042A     		cmp	r2, #4
 589 0422 00F09981 		beq	.L52
 590              	.L244:
 591              		.loc 1 327 0 discriminator 1
 592 0426 2278     		ldrb	r2, [r4]	@ zero_extendqisi2
 593              		.loc 1 326 0 discriminator 1
 594 0428 052A     		cmp	r2, #5
 595 042a 00F09581 		beq	.L52
 596              		.loc 1 290 0
 597 042e 0026     		movs	r6, #0
 598              	.LVL42:
 599              		.loc 1 310 0
 600 0430 4FF0010B 		mov	fp, #1
 601              	.LVL43:
 602              	.L43:
 603              		.loc 1 376 0
 604 0434 93ED007A 		vldr.32	s14, [r3]
 605 0438 DFEDA77A 		vldr.32	s15, .L249+4
 606 043c B4EEE77A 		vcmpe.f32	s14, s15
 607 0440 F1EE10FA 		vmrs	APSR_nzcv, FPSCR
 608 0444 03D5     		bpl	.L64
 609              		.loc 1 376 0 is_stmt 0 discriminator 1
 610 0446 627F     		ldrb	r2, [r4, #29]	@ zero_extendqisi2
 611 0448 002A     		cmp	r2, #0
 612 044a 40F0B381 		bne	.L238
 613              	.L64:
 614              		.loc 1 405 0 is_stmt 1
 615 044e A44D     		ldr	r5, .L249+12
 616              	.LVL44:
 617              		.loc 1 398 0
 618 0450 FFF7FEFF 		bl	timeout_reset
 619              	.LVL45:
 620              		.loc 1 405 0
 621 0454 95ED00AA 		vldr.32	s20, [r5]
 622 0458 FFF7FEFF 		bl	mc_interface_get_rpm
 623              	.LVL46:
 624 045c D5ED007A 		vldr.32	s15, [r5]
 625 0460 9FEDA07A 		vldr.32	s14, .L249+16
 626 0464 3AEE400A 		vsub.f32	s0, s20, s0
 627 0468 E0EE477A 		vfms.f32	s15, s0, s14
ARM GAS  /tmp/ccAm8JJK.s 			page 12


 628 046c B0EE670A 		vmov.f32	s0, s15
 629 0470 C5ED007A 		vstr.32	s15, [r5]
 630              		.loc 1 407 0
 631 0474 BBF1000F 		cmp	fp, #0
 632 0478 0CD0     		beq	.L70
 633              		.loc 1 407 0 is_stmt 0 discriminator 1
 634 047a 5FB1     		cbz	r7, .L70
 635              		.loc 1 407 0 discriminator 2
 636 047c DDED027A 		vldr.32	s15, [sp, #8]
 637 0480 9FED9F7A 		vldr.32	s14, .L249+44
 638 0484 F0EEE77A 		vabs.f32	s15, s15
 639 0488 F4EEC77A 		vcmpe.f32	s15, s14
 640 048c F1EE10FA 		vmrs	APSR_nzcv, FPSCR
 641 0490 00F11082 		bmi	.L239
 642              	.L70:
 643              		.loc 1 433 0 is_stmt 1
 644 0494 944B     		ldr	r3, .L249+20
 645 0496 0025     		movs	r5, #0
 646 0498 1D70     		strb	r5, [r3]
 647              		.loc 1 436 0
 648 049a FFF7FEFF 		bl	mc_interface_get_rpm
 649              	.LVL47:
 650              		.loc 1 438 0
 651 049e 94F83830 		ldrb	r3, [r4, #56]	@ zero_extendqisi2
 652              		.loc 1 436 0
 653 04a2 F0EE40AA 		vmov.f32	s21, s0
 654              	.LVL48:
 655              		.loc 1 437 0
 656 04a6 B0EE40AA 		vmov.f32	s20, s0
 657              		.loc 1 438 0
 658 04aa 002B     		cmp	r3, #0
 659 04ac 40F0C880 		bne	.L80
 660              	.LVL49:
 661              	.L77:
 662              		.loc 1 453 0
 663 04b0 26B1     		cbz	r6, .L81
 664              		.loc 1 453 0 is_stmt 0 discriminator 1
 665 04b2 94F83830 		ldrb	r3, [r4, #56]	@ zero_extendqisi2
 666 04b6 002B     		cmp	r3, #0
 667 04b8 40F05681 		bne	.L240
 668              	.L81:
 669              		.loc 1 465 0 is_stmt 1
 670 04bc BBF1000F 		cmp	fp, #0
 671 04c0 3FF4C8AD 		beq	.L4
 672              		.loc 1 466 0
 673 04c4 B8F1000F 		cmp	r8, #0
 674 04c8 40F0C981 		bne	.L241
 675              	.LVL50:
 676              	.LBB88:
 677              		.loc 1 482 0
 678 04cc B5EEC0BA 		vcmpe.f32	s22, #0
 679 04d0 F1EE10FA 		vmrs	APSR_nzcv, FPSCR
 680              		.loc 1 491 0
 681 04d4 94F83830 		ldrb	r3, [r4, #56]	@ zero_extendqisi2
 682              		.loc 1 482 0
 683 04d8 00F12182 		bmi	.L92
 684              		.loc 1 491 0
ARM GAS  /tmp/ccAm8JJK.s 			page 13


 685 04dc 002B     		cmp	r3, #0
 686 04de 40F02D82 		bne	.L96
 687              	.LVL51:
 688              	.L93:
 689              		.loc 1 527 0
 690 04e2 B0EE4B0A 		vmov.f32	s0, s22
 691 04e6 FFF7FEFF 		bl	mc_interface_set_current_rel
 692              	.LVL52:
 693 04ea B3E5     		b	.L4
 694              	.LVL53:
 695              	.L38:
 696              	.LBE88:
 697              		.loc 1 298 0
 698 04ec 9DED02BA 		vldr.32	s22, [sp, #8]
 699              	.LVL54:
 700              		.loc 1 300 0
 701 04f0 DFED837A 		vldr.32	s15, .L249+44
 702 04f4 B0EECB7A 		vabs.f32	s14, s22
 703 04f8 B4EEE77A 		vcmpe.f32	s14, s15
 704 04fc F1EE10FA 		vmrs	APSR_nzcv, FPSCR
 705 0500 40F1C880 		bpl	.L226
 706              		.loc 1 301 0
 707 0504 07EE905A 		vmov	s15, r5	@ int
 708 0508 F8EEE76A 		vcvt.f32.s32	s13, s15
 709 050c DFED7D7A 		vldr.32	s15, .L249+48
 710 0510 704B     		ldr	r3, .L249
 711 0512 66EEA76A 		vmul.f32	s13, s13, s15
 712 0516 D3ED007A 		vldr.32	s15, [r3]
 713 051a 86EEA87A 		vdiv.f32	s14, s13, s17
 714              		.loc 1 290 0
 715 051e 0026     		movs	r6, #0
 716              	.LVL55:
 717              		.loc 1 297 0
 718 0520 4FF0010B 		mov	fp, #1
 719              	.LVL56:
 720              		.loc 1 301 0
 721 0524 77EE277A 		vadd.f32	s15, s14, s15
 722 0528 C3ED007A 		vstr.32	s15, [r3]
 723 052c 82E7     		b	.L43
 724              	.LVL57:
 725              	.L18:
 726              		.loc 1 214 0
 727 052e 2378     		ldrb	r3, [r4]	@ zero_extendqisi2
 728 0530 032B     		cmp	r3, #3
 729 0532 19D0     		beq	.L23
 730              		.loc 1 215 0 discriminator 1
 731 0534 2378     		ldrb	r3, [r4]	@ zero_extendqisi2
 732              		.loc 1 214 0 discriminator 1
 733 0536 052B     		cmp	r3, #5
 734 0538 16D0     		beq	.L23
 735              		.loc 1 216 0
 736 053a 2378     		ldrb	r3, [r4]	@ zero_extendqisi2
 737              		.loc 1 215 0
 738 053c 072B     		cmp	r3, #7
 739 053e 13D0     		beq	.L23
 740              		.loc 1 217 0
 741 0540 2378     		ldrb	r3, [r4]	@ zero_extendqisi2
ARM GAS  /tmp/ccAm8JJK.s 			page 14


 742              		.loc 1 216 0
 743 0542 0B2B     		cmp	r3, #11
 744 0544 10D0     		beq	.L23
 745              		.loc 1 218 0
 746 0546 2378     		ldrb	r3, [r4]	@ zero_extendqisi2
 747              		.loc 1 217 0
 748 0548 0E2B     		cmp	r3, #14
 749 054a 0DD0     		beq	.L23
 750              		.loc 1 224 0
 751 054c 674B     		ldr	r3, .L249+24
 752 054e 1F69     		ldr	r7, [r3, #16]
 753              		.loc 1 225 0
 754 0550 A37F     		ldrb	r3, [r4, #30]	@ zero_extendqisi2
 755              		.loc 1 224 0
 756 0552 BF09     		lsrs	r7, r7, #6
 757 0554 F943     		mvns	r1, r7
 758              	.LVL58:
 759              		.loc 1 225 0
 760 0556 03F0FF06 		and	r6, r3, #255
 761 055a 002B     		cmp	r3, #0
 762 055c 00F07482 		beq	.L242
 763              		.loc 1 226 0
 764 0560 07F00107 		and	r7, r7, #1
 765              	.LVL59:
 766              		.loc 1 202 0
 767 0564 1646     		mov	r6, r2
 768 0566 3DE6     		b	.L22
 769              	.LVL60:
 770              	.L23:
 771              		.loc 1 219 0
 772 0568 604B     		ldr	r3, .L249+24
 773 056a 1E69     		ldr	r6, [r3, #16]
 774              		.loc 1 220 0
 775 056c E37F     		ldrb	r3, [r4, #31]	@ zero_extendqisi2
 776              		.loc 1 219 0
 777 056e B609     		lsrs	r6, r6, #6
 778 0570 F243     		mvns	r2, r6
 779              	.LVL61:
 780              		.loc 1 220 0
 781 0572 03F0FF07 		and	r7, r3, #255
 782 0576 63B1     		cbz	r3, .L232
 783              		.loc 1 221 0
 784 0578 06F00106 		and	r6, r6, #1
 785              	.LVL62:
 786              		.loc 1 201 0
 787 057c 0027     		movs	r7, #0
 788 057e 31E6     		b	.L22
 789              	.LVL63:
 790              	.L13:
 791              		.loc 1 164 0
 792 0580 DDED027A 		vldr.32	s15, [sp, #8]
 793 0584 B7EE007A 		vmov.f32	s14, #1.0e+0
 794 0588 37EE677A 		vsub.f32	s14, s14, s15
 795 058c 8DED027A 		vstr.32	s14, [sp, #8]
 796 0590 CAE5     		b	.L14
 797              	.LVL64:
 798              	.L232:
ARM GAS  /tmp/ccAm8JJK.s 			page 15


 799              		.loc 1 219 0
 800 0592 02F00106 		and	r6, r2, #1
 801 0596 25E6     		b	.L22
 802              	.LVL65:
 803              	.L235:
 804              	.LBB89:
 805              		.loc 1 279 0
 806 0598 554A     		ldr	r2, .L249+28
 807              	.LBB90:
 808              	.LBB91:
 809              	.LBB92:
 810              	.LBB93:
 811              		.file 3 "ChibiOS_3.0.5/os/rt/include/chvt.h"
 812              		.loc 3 231 0
 813 059a D9F82830 		ldr	r3, [r9, #40]
 814              	.LVL66:
 815              	.LBE93:
 816              	.LBE92:
 817              		.loc 3 267 0
 818 059e 1168     		ldr	r1, [r2]
 819              	.LBE91:
 820              	.LBE90:
 821              		.loc 1 279 0
 822 05a0 5448     		ldr	r0, .L249+32
 823              	.LBB95:
 824              	.LBB94:
 825              		.loc 3 267 0
 826 05a2 0192     		str	r2, [sp, #4]
 827 05a4 5B1A     		subs	r3, r3, r1
 828              	.LVL67:
 829              	.LBE94:
 830              	.LBE95:
 831              		.loc 1 279 0
 832 05a6 4FF47A7C 		mov	ip, #1000
 833 05aa 42F20F71 		movw	r1, #9999
 834 05ae 0CFB0313 		mla	r3, ip, r3, r1
 835 05b2 A0FB0323 		umull	r2, r3, r0, r3
 836 05b6 5B0B     		lsrs	r3, r3, #13
 837 05b8 07EE903A 		vmov	s15, r3	@ int
 838 05bc 9FED517A 		vldr.32	s14, .L249+48
 839              		.loc 1 280 0
 840 05c0 4D48     		ldr	r0, .L249+36
 841              		.loc 1 279 0
 842 05c2 F8EEE77A 		vcvt.f32.s32	s15, s15
 843 05c6 60EE870A 		vmul.f32	s1, s1, s14
 844              	.LVL68:
 845              		.loc 1 280 0
 846 05ca C7EEA00A 		vdiv.f32	s1, s15, s1
 847 05ce FFF7FEFF 		bl	utils_step_towards
 848              	.LVL69:
 849              		.loc 1 281 0
 850 05d2 019A     		ldr	r2, [sp, #4]
 851              	.LBB96:
 852              	.LBB97:
 853              		.loc 3 231 0
 854 05d4 D9F82830 		ldr	r3, [r9, #40]
 855              	.LBE97:
ARM GAS  /tmp/ccAm8JJK.s 			page 16


 856              	.LBE96:
 857              		.loc 1 281 0
 858 05d8 1360     		str	r3, [r2]
 859              		.loc 1 282 0
 860 05da DBF80030 		ldr	r3, [fp]	@ float
 861 05de 0293     		str	r3, [sp, #8]	@ float
 862 05e0 4EE6     		b	.L35
 863              	.LVL70:
 864              	.L234:
 865              	.LBE89:
 866              		.loc 1 115 0
 867 05e2 464A     		ldr	r2, .L249+40
 868 05e4 0023     		movs	r3, #0
 869 05e6 1370     		strb	r3, [r2]
 870              	.LBE146:
 871              		.loc 1 532 0
 872 05e8 05B0     		add	sp, sp, #20
 873              		.cfi_remember_state
 874              		.cfi_def_cfa_offset 76
 875              		@ sp needed
 876 05ea BDEC0A8B 		vldm	sp!, {d8-d12}
 877              		.cfi_restore 88
 878              		.cfi_restore 89
 879              		.cfi_restore 86
 880              		.cfi_restore 87
 881              		.cfi_restore 84
 882              		.cfi_restore 85
 883              		.cfi_restore 82
 884              		.cfi_restore 83
 885              		.cfi_restore 80
 886              		.cfi_restore 81
 887              		.cfi_def_cfa_offset 36
 888 05ee BDE8F08F 		pop	{r4, r5, r6, r7, r8, r9, r10, fp, pc}
 889              	.LVL71:
 890              	.L29:
 891              		.cfi_restore_state
 892              	.LBB147:
 893              		.loc 1 258 0
 894 05f2 002E     		cmp	r6, #0
 895 05f4 3FF418AE 		beq	.L28
 896              		.loc 1 259 0
 897 05f8 DDED027A 		vldr.32	s15, [sp, #8]
 898 05fc F1EE677A 		vneg.f32	s15, s15
 899 0600 CDED027A 		vstr.32	s15, [sp, #8]
 900 0604 10E6     		b	.L28
 901              	.LVL72:
 902              	.L224:
 903              		.loc 1 148 0
 904 0606 D4ED040A 		vldr.32	s1, [r4, #16]
 905 060a 94ED031A 		vldr.32	s2, [r4, #12]
 906 060e B7EE002A 		vmov.f32	s4, #1.0e+0
 907 0612 F6EE001A 		vmov.f32	s3, #5.0e-1
 908 0616 FFF7FEFF 		bl	utils_map
 909              	.LVL73:
 910 061a 8DED020A 		vstr.32	s0, [sp, #8]
 911 061e 75E5     		b	.L12
 912              	.LVL74:
ARM GAS  /tmp/ccAm8JJK.s 			page 17


 913              	.L2:
 914              	.LBE147:
 915              		.loc 1 99 0
 916 0620 4021     		movs	r1, #64
 917 0622 3248     		ldr	r0, .L249+24
 918              	.LVL75:
 919 0624 FFF7FEFF 		bl	_pal_lld_setgroupmode
 920              	.LVL76:
 921 0628 08E5     		b	.L3
 922              	.LVL77:
 923              	.L30:
 924              	.LBB148:
 925              		.loc 1 245 0
 926 062a DDED026A 		vldr.32	s13, [sp, #8]
 927 062e B0EE007A 		vmov.f32	s14, #2.0e+0
 928 0632 FFEE007A 		vmov.f32	s15, #-1.0e+0
 929 0636 E6EE877A 		vfma.f32	s15, s13, s14
 930 063a CDED027A 		vstr.32	s15, [sp, #8]
 931              		.loc 1 246 0
 932 063e F3E5     		b	.L28
 933              	.LVL78:
 934              	.L80:
 935              	.LBB98:
 936              	.LBB99:
 937              		.loc 1 440 0
 938 0640 2846     		mov	r0, r5
 939 0642 FFF7FEFF 		bl	comm_can_get_status_msg_index
 940              	.LVL79:
 941              		.loc 1 442 0
 942 0646 0368     		ldr	r3, [r0]
 943 0648 002B     		cmp	r3, #0
 944              	.LBE99:
 945              		.loc 1 439 0
 946 064a 05F10105 		add	r5, r5, #1
 947              	.LVL80:
 948              	.LBB106:
 949              		.loc 1 442 0
 950 064e 1BDB     		blt	.L78
 951              	.LBB100:
 952              	.LBB101:
 953              	.LBB102:
 954              	.LBB103:
 955              		.loc 3 231 0 discriminator 1
 956 0650 D9F82830 		ldr	r3, [r9, #40]
 957              	.LVL81:
 958              	.LBE103:
 959              	.LBE102:
 960              		.loc 3 267 0 discriminator 1
 961 0654 4268     		ldr	r2, [r0, #4]
 962 0656 9B1A     		subs	r3, r3, r2
 963              	.LBE101:
 964              	.LBE100:
 965              		.loc 1 442 0 discriminator 1
 966 0658 07EE903A 		vmov	s15, r3	@ int
 967 065c F8EE677A 		vcvt.f32.u32	s15, s15
 968              	.LBB104:
 969              		.loc 1 445 0 discriminator 1
ARM GAS  /tmp/ccAm8JJK.s 			page 18


 970 0660 F0EECA6A 		vabs.f32	s13, s20
 971              	.LBE104:
 972              		.loc 1 442 0 discriminator 1
 973 0664 87EEA87A 		vdiv.f32	s14, s15, s17
 974 0668 B4EEE97A 		vcmpe.f32	s14, s19
 975 066c F1EE10FA 		vmrs	APSR_nzcv, FPSCR
 976 0670 0AD5     		bpl	.L78
 977              	.LBB105:
 978              		.loc 1 443 0
 979 0672 D0ED027A 		vldr.32	s15, [r0, #8]
 980              	.LVL82:
 981              		.loc 1 445 0
 982 0676 B0EEE77A 		vabs.f32	s14, s15
 983              		.loc 1 446 0
 984 067a B4EE667A 		vcmp.f32	s14, s13
 985 067e F1EE10FA 		vmrs	APSR_nzcv, FPSCR
 986 0682 48BF     		it	mi
 987 0684 B0EE67AA 		vmovmi.f32	s20, s15
 988              	.LVL83:
 989              	.L78:
 990              	.LBE105:
 991              	.LBE106:
 992              		.loc 1 439 0 discriminator 2
 993 0688 0A2D     		cmp	r5, #10
 994 068a D9D1     		bne	.L80
 995 068c 10E7     		b	.L77
 996              	.LVL84:
 997              	.L229:
 998              	.LBE98:
 999              		.loc 1 286 0
 1000 068e 4FF0000B 		mov	fp, #0
 1001              	.LVL85:
 1002 0692 CFE6     		b	.L43
 1003              	.LVL86:
 1004              	.L226:
 1005              		.loc 1 290 0
 1006 0694 0026     		movs	r6, #0
 1007              	.LVL87:
 1008              		.loc 1 297 0
 1009 0696 4FF0010B 		mov	fp, #1
 1010              	.LVL88:
 1011 069a 0E4B     		ldr	r3, .L249
 1012 069c CAE6     		b	.L43
 1013              	.LVL89:
 1014              	.L129:
 1015              		.loc 1 336 0
 1016 069e 07EE905A 		vmov	s15, r5	@ int
 1017 06a2 F8EEE76A 		vcvt.f32.s32	s13, s15
 1018 06a6 DFED177A 		vldr.32	s15, .L249+48
 1019 06aa 0A4B     		ldr	r3, .L249
 1020 06ac 66EEA76A 		vmul.f32	s13, s13, s15
 1021 06b0 D3ED007A 		vldr.32	s15, [r3]
 1022 06b4 86EEA87A 		vdiv.f32	s14, s13, s17
 1023 06b8 77EE277A 		vadd.f32	s15, s14, s15
 1024 06bc C3ED007A 		vstr.32	s15, [r3]
 1025 06c0 85E6     		b	.L53
 1026              	.LVL90:
ARM GAS  /tmp/ccAm8JJK.s 			page 19


 1027              	.L236:
 1028              		.loc 1 354 0 discriminator 1
 1029 06c2 627F     		ldrb	r2, [r4, #29]	@ zero_extendqisi2
 1030 06c4 002A     		cmp	r2, #0
 1031 06c6 3FF40FAE 		beq	.L57
 1032 06ca F0EE4B7A 		vmov.f32	s15, s22
 1033              		.loc 1 290 0
 1034 06ce 0026     		movs	r6, #0
 1035              	.LVL91:
 1036 06d0 1FE6     		b	.L59
 1037              	.L250:
 1038 06d2 00BF     		.align	2
 1039              	.L249:
 1040 06d4 00000000 		.word	.LANCHOR4
 1041 06d8 0000FA43 		.word	1140457472
 1042 06dc 00000000 		.word	0
 1043 06e0 00000000 		.word	.LANCHOR14
 1044 06e4 398E633E 		.word	1046711865
 1045 06e8 00000000 		.word	.LANCHOR15
 1046 06ec 00040240 		.word	1073873920
 1047 06f0 00000000 		.word	.LANCHOR12
 1048 06f4 5917B7D1 		.word	-776530087
 1049 06f8 00000000 		.word	.LANCHOR11
 1050 06fc 00000000 		.word	.LANCHOR1
 1051 0700 6F12833A 		.word	981668463
 1052 0704 00007A44 		.word	1148846080
 1053              	.LVL92:
 1054              	.L237:
 1055              		.loc 1 313 0
 1056 0708 FFF7FEFF 		bl	app_pas_is_running
 1057              	.LVL93:
 1058 070c 0028     		cmp	r0, #0
 1059 070e 40F0AF81 		bne	.L47
 1060 0712 9DED02BA 		vldr.32	s22, [sp, #8]
 1061              	.L48:
 1062              	.LVL94:
 1063              		.loc 1 322 0
 1064 0716 1FED067A 		vldr.32	s14, .L249+44
 1065 071a F0EE4B7A 		vmov.f32	s15, s22
 1066 071e F4EEC77A 		vcmpe.f32	s15, s14
 1067 0722 F1EE10FA 		vmrs	APSR_nzcv, FPSCR
 1068              		.loc 1 287 0
 1069 0726 4FF00008 		mov	r8, #0
 1070              	.LVL95:
 1071              		.loc 1 322 0
 1072 072a 7FF577AE 		bpl	.L243
 1073              	.LVL96:
 1074              	.L128:
 1075              		.loc 1 323 0
 1076 072e 07EE905A 		vmov	s15, r5	@ int
 1077 0732 F8EEE76A 		vcvt.f32.s32	s13, s15
 1078 0736 5FED0D7A 		vldr.32	s15, .L249+48
 1079 073a D54B     		ldr	r3, .L251
 1080 073c 66EEA76A 		vmul.f32	s13, s13, s15
 1081 0740 D3ED007A 		vldr.32	s15, [r3]
 1082 0744 86EEA87A 		vdiv.f32	s14, s13, s17
 1083 0748 77EE277A 		vadd.f32	s15, s14, s15
ARM GAS  /tmp/ccAm8JJK.s 			page 20


 1084 074c C3ED007A 		vstr.32	s15, [r3]
 1085              		.loc 1 326 0
 1086 0750 2278     		ldrb	r2, [r4]	@ zero_extendqisi2
 1087 0752 042A     		cmp	r2, #4
 1088 0754 7FF467AE 		bne	.L244
 1089              	.L52:
 1090              		.loc 1 327 0
 1091 0758 002E     		cmp	r6, #0
 1092 075a 00F07281 		beq	.L114
 1093              		.loc 1 310 0
 1094 075e B346     		mov	fp, r6
 1095              	.LVL97:
 1096              		.loc 1 328 0
 1097 0760 B1EE4BBA 		vneg.f32	s22, s22
 1098              	.LVL98:
 1099              		.loc 1 290 0
 1100 0764 0026     		movs	r6, #0
 1101              	.LVL99:
 1102 0766 65E6     		b	.L43
 1103              	.LVL100:
 1104              	.L240:
 1105              	.LBB107:
 1106              		.loc 1 454 0
 1107 0768 FFF7FEFF 		bl	mc_interface_get_duty_cycle_now
 1108              	.LVL101:
 1109              	.LBB108:
 1110              		.loc 1 456 0
 1111 076c 0025     		movs	r5, #0
 1112              	.LBE108:
 1113              		.loc 1 454 0
 1114 076e F0EE40BA 		vmov.f32	s23, s0
 1115              	.LVL102:
 1116 0772 02E0     		b	.L84
 1117              	.LVL103:
 1118              	.L82:
 1119              	.LBB115:
 1120              		.loc 1 456 0 discriminator 2
 1121 0774 0A2D     		cmp	r5, #10
 1122 0776 3FF4A1AE 		beq	.L81
 1123              	.LVL104:
 1124              	.L84:
 1125              	.LBB109:
 1126              		.loc 1 457 0
 1127 077a 2846     		mov	r0, r5
 1128 077c FFF7FEFF 		bl	comm_can_get_status_msg_index
 1129              	.LVL105:
 1130              		.loc 1 459 0
 1131 0780 0268     		ldr	r2, [r0]
 1132 0782 002A     		cmp	r2, #0
 1133              	.LBE109:
 1134              		.loc 1 456 0
 1135 0784 05F10105 		add	r5, r5, #1
 1136              	.LVL106:
 1137              	.LBB114:
 1138              		.loc 1 459 0
 1139 0788 F4DB     		blt	.L82
 1140              	.LBB110:
ARM GAS  /tmp/ccAm8JJK.s 			page 21


 1141              	.LBB111:
 1142              		.loc 3 267 0 discriminator 1
 1143 078a 4168     		ldr	r1, [r0, #4]
 1144              	.LBB112:
 1145              	.LBB113:
 1146              		.loc 3 231 0 discriminator 1
 1147 078c D9F82830 		ldr	r3, [r9, #40]
 1148              	.LVL107:
 1149              	.LBE113:
 1150              	.LBE112:
 1151              		.loc 3 267 0 discriminator 1
 1152 0790 5B1A     		subs	r3, r3, r1
 1153              	.LBE111:
 1154              	.LBE110:
 1155              		.loc 1 459 0 discriminator 1
 1156 0792 07EE903A 		vmov	s15, r3	@ int
 1157 0796 F8EE677A 		vcvt.f32.u32	s15, s15
 1158 079a 87EEA87A 		vdiv.f32	s14, s15, s17
 1159 079e B4EEE97A 		vcmpe.f32	s14, s19
 1160 07a2 F1EE10FA 		vmrs	APSR_nzcv, FPSCR
 1161 07a6 E5D5     		bpl	.L82
 1162              		.loc 1 460 0
 1163 07a8 D0B2     		uxtb	r0, r2
 1164              	.LVL108:
 1165 07aa B0EE6B0A 		vmov.f32	s0, s23
 1166 07ae FFF7FEFF 		bl	comm_can_set_duty
 1167              	.LVL109:
 1168 07b2 DFE7     		b	.L82
 1169              	.LVL110:
 1170              	.L238:
 1171              	.LBE114:
 1172              	.LBE115:
 1173              	.LBE107:
 1174              	.LBB116:
 1175              		.loc 1 378 0
 1176 07b4 B74A     		ldr	r2, .L251+4
 1177 07b6 93ED007A 		vldr.32	s14, [r3]
 1178 07ba D2ED007A 		vldr.32	s15, [r2]	@ int
 1179 07be F8EEE77A 		vcvt.f32.s32	s15, s15
 1180 07c2 F4EE477A 		vcmp.f32	s15, s14
 1181 07c6 F1EE10FA 		vmrs	APSR_nzcv, FPSCR
 1182              		.loc 1 379 0
 1183 07ca 08BF     		it	eq
 1184 07cc 83ED008A 		vstreq.32	s16, [r3]
 1185              		.loc 1 381 0
 1186 07d0 D3ED007A 		vldr.32	s15, [r3]
 1187 07d4 FDEEE77A 		vcvt.s32.f32	s15, s15
 1188 07d8 C2ED007A 		vstr.32	s15, [r2]	@ int
 1189              		.loc 1 382 0
 1190 07dc FFF7FEFF 		bl	timeout_get_brake_current
 1191              	.LVL111:
 1192 07e0 FFF7FEFF 		bl	mc_interface_set_brake_current
 1193              	.LVL112:
 1194              		.loc 1 384 0
 1195 07e4 94F83830 		ldrb	r3, [r4, #56]	@ zero_extendqisi2
 1196 07e8 002B     		cmp	r3, #0
 1197 07ea 3FF433AC 		beq	.L4
ARM GAS  /tmp/ccAm8JJK.s 			page 22


 1198              	.LBB117:
 1199              		.loc 1 385 0
 1200 07ee 0025     		movs	r5, #0
 1201              	.LVL113:
 1202 07f0 02E0     		b	.L69
 1203              	.LVL114:
 1204              	.L67:
 1205              		.loc 1 385 0 is_stmt 0 discriminator 2
 1206 07f2 0A2D     		cmp	r5, #10
 1207 07f4 3FF42EAC 		beq	.L4
 1208              	.LVL115:
 1209              	.L69:
 1210              	.LBB118:
 1211              		.loc 1 386 0 is_stmt 1
 1212 07f8 2846     		mov	r0, r5
 1213 07fa FFF7FEFF 		bl	comm_can_get_status_msg_index
 1214              	.LVL116:
 1215              		.loc 1 388 0
 1216 07fe 0668     		ldr	r6, [r0]
 1217 0800 002E     		cmp	r6, #0
 1218              	.LBE118:
 1219              		.loc 1 385 0
 1220 0802 05F10105 		add	r5, r5, #1
 1221              	.LVL117:
 1222              	.LBB123:
 1223              		.loc 1 388 0
 1224 0806 F4DB     		blt	.L67
 1225              	.LBB119:
 1226              	.LBB120:
 1227              		.loc 3 267 0 discriminator 1
 1228 0808 4268     		ldr	r2, [r0, #4]
 1229              	.LBB121:
 1230              	.LBB122:
 1231              		.loc 3 231 0 discriminator 1
 1232 080a D9F82830 		ldr	r3, [r9, #40]
 1233              	.LVL118:
 1234              	.LBE122:
 1235              	.LBE121:
 1236              		.loc 3 267 0 discriminator 1
 1237 080e 9B1A     		subs	r3, r3, r2
 1238              	.LBE120:
 1239              	.LBE119:
 1240              		.loc 1 388 0 discriminator 1
 1241 0810 07EE903A 		vmov	s15, r3	@ int
 1242 0814 F8EE677A 		vcvt.f32.u32	s15, s15
 1243 0818 87EEA87A 		vdiv.f32	s14, s15, s17
 1244 081c B4EEE97A 		vcmpe.f32	s14, s19
 1245 0820 F1EE10FA 		vmrs	APSR_nzcv, FPSCR
 1246 0824 E5D5     		bpl	.L67
 1247              		.loc 1 389 0
 1248 0826 FFF7FEFF 		bl	timeout_get_brake_current
 1249              	.LVL119:
 1250 082a F0B2     		uxtb	r0, r6
 1251 082c FFF7FEFF 		bl	comm_can_set_current_brake
 1252              	.LVL120:
 1253 0830 DFE7     		b	.L67
 1254              	.LVL121:
ARM GAS  /tmp/ccAm8JJK.s 			page 23


 1255              	.L55:
 1256              	.LBE123:
 1257              	.LBE117:
 1258              	.LBE116:
 1259              		.loc 1 340 0
 1260 0832 DBED151A 		vldr.32	s3, [fp, #84]
 1261 0836 9BED152A 		vldr.32	s4, [fp, #84]
 1262 083a 0193     		str	r3, [sp, #4]
 1263 083c F1EE611A 		vneg.f32	s3, s3
 1264 0840 B7EE001A 		vmov.f32	s2, #1.0e+0
 1265 0844 FFEE000A 		vmov.f32	s1, #-1.0e+0
 1266 0848 FFF7FEFF 		bl	utils_map
 1267              	.LVL122:
 1268 084c FFF7FEFF 		bl	mc_interface_set_duty
 1269              	.LVL123:
 1270              		.loc 1 285 0
 1271 0850 9FED91BA 		vldr.32	s22, .L251+8
 1272 0854 019B     		ldr	r3, [sp, #4]
 1273              		.loc 1 286 0
 1274 0856 4FF0000B 		mov	fp, #0
 1275              	.LVL124:
 1276              		.loc 1 341 0
 1277 085a 0126     		movs	r6, #1
 1278              	.LVL125:
 1279 085c EAE5     		b	.L43
 1280              	.LVL126:
 1281              	.L241:
 1282              		.loc 1 467 0
 1283 085e B0EE4B0A 		vmov.f32	s0, s22
 1284 0862 FFF7FEFF 		bl	mc_interface_set_brake_current_rel
 1285              	.LVL127:
 1286              		.loc 1 470 0
 1287 0866 94F83830 		ldrb	r3, [r4, #56]	@ zero_extendqisi2
 1288 086a 002B     		cmp	r3, #0
 1289 086c 3FF4F2AB 		beq	.L4
 1290              	.LBB124:
 1291              		.loc 1 471 0
 1292 0870 0025     		movs	r5, #0
 1293 0872 02E0     		b	.L91
 1294              	.LVL128:
 1295              	.L89:
 1296              		.loc 1 471 0 is_stmt 0 discriminator 2
 1297 0874 0A2D     		cmp	r5, #10
 1298 0876 3FF4EDAB 		beq	.L4
 1299              	.LVL129:
 1300              	.L91:
 1301              	.LBB125:
 1302              		.loc 1 472 0 is_stmt 1
 1303 087a 2846     		mov	r0, r5
 1304 087c FFF7FEFF 		bl	comm_can_get_status_msg_index
 1305              	.LVL130:
 1306              		.loc 1 474 0
 1307 0880 0268     		ldr	r2, [r0]
 1308 0882 002A     		cmp	r2, #0
 1309              	.LBE125:
 1310              		.loc 1 471 0
 1311 0884 05F10105 		add	r5, r5, #1
ARM GAS  /tmp/ccAm8JJK.s 			page 24


 1312              	.LVL131:
 1313              	.LBB130:
 1314              		.loc 1 474 0
 1315 0888 F4DB     		blt	.L89
 1316              	.LBB126:
 1317              	.LBB127:
 1318              		.loc 3 267 0 discriminator 1
 1319 088a 4168     		ldr	r1, [r0, #4]
 1320              	.LBB128:
 1321              	.LBB129:
 1322              		.loc 3 231 0 discriminator 1
 1323 088c D9F82830 		ldr	r3, [r9, #40]
 1324              	.LVL132:
 1325              	.LBE129:
 1326              	.LBE128:
 1327              		.loc 3 267 0 discriminator 1
 1328 0890 5B1A     		subs	r3, r3, r1
 1329              	.LBE127:
 1330              	.LBE126:
 1331              		.loc 1 474 0 discriminator 1
 1332 0892 07EE903A 		vmov	s15, r3	@ int
 1333 0896 F8EE677A 		vcvt.f32.u32	s15, s15
 1334 089a 87EEA87A 		vdiv.f32	s14, s15, s17
 1335 089e B4EEE97A 		vcmpe.f32	s14, s19
 1336 08a2 F1EE10FA 		vmrs	APSR_nzcv, FPSCR
 1337 08a6 E5D5     		bpl	.L89
 1338              		.loc 1 475 0
 1339 08a8 D0B2     		uxtb	r0, r2
 1340              	.LVL133:
 1341 08aa B0EE4B0A 		vmov.f32	s0, s22
 1342 08ae FFF7FEFF 		bl	comm_can_set_current_brake_rel
 1343              	.LVL134:
 1344 08b2 DFE7     		b	.L89
 1345              	.LVL135:
 1346              	.L239:
 1347              	.LBE130:
 1348              	.LBE124:
 1349              	.LBB131:
 1350              		.loc 1 410 0
 1351 08b4 794B     		ldr	r3, .L251+12
 1352 08b6 1A78     		ldrb	r2, [r3]	@ zero_extendqisi2
 1353 08b8 002A     		cmp	r2, #0
 1354 08ba 00F0C980 		beq	.L72
 1355 08be 784B     		ldr	r3, .L251+16
 1356 08c0 93ED000A 		vldr.32	s0, [r3]
 1357              	.L73:
 1358              		.loc 1 415 0
 1359 08c4 FFF7FEFF 		bl	mc_interface_set_pid_speed
 1360              	.LVL136:
 1361              		.loc 1 418 0
 1362 08c8 94F83830 		ldrb	r3, [r4, #56]	@ zero_extendqisi2
 1363 08cc 002B     		cmp	r3, #0
 1364 08ce 3FF4C1AB 		beq	.L4
 1365              	.LBB132:
 1366              		.loc 1 419 0
 1367 08d2 FFF7FEFF 		bl	mc_interface_get_tot_current_directional_filtered
 1368              	.LVL137:
ARM GAS  /tmp/ccAm8JJK.s 			page 25


 1369              	.LBB133:
 1370              		.loc 1 421 0
 1371 08d6 0025     		movs	r5, #0
 1372              	.LBE133:
 1373              		.loc 1 419 0
 1374 08d8 B0EE40AA 		vmov.f32	s20, s0
 1375              	.LVL138:
 1376 08dc 02E0     		b	.L76
 1377              	.LVL139:
 1378              	.L74:
 1379              	.LBB140:
 1380              		.loc 1 421 0 discriminator 2
 1381 08de 0A2D     		cmp	r5, #10
 1382 08e0 3FF4B8AB 		beq	.L4
 1383              	.LVL140:
 1384              	.L76:
 1385              	.LBB134:
 1386              		.loc 1 422 0
 1387 08e4 2846     		mov	r0, r5
 1388 08e6 FFF7FEFF 		bl	comm_can_get_status_msg_index
 1389              	.LVL141:
 1390              		.loc 1 424 0
 1391 08ea 0268     		ldr	r2, [r0]
 1392 08ec 002A     		cmp	r2, #0
 1393              	.LBE134:
 1394              		.loc 1 421 0
 1395 08ee 05F10105 		add	r5, r5, #1
 1396              	.LVL142:
 1397              	.LBB139:
 1398              		.loc 1 424 0
 1399 08f2 F4DB     		blt	.L74
 1400              	.LBB135:
 1401              	.LBB136:
 1402              		.loc 3 267 0 discriminator 1
 1403 08f4 4168     		ldr	r1, [r0, #4]
 1404              	.LBB137:
 1405              	.LBB138:
 1406              		.loc 3 231 0 discriminator 1
 1407 08f6 D9F82830 		ldr	r3, [r9, #40]
 1408              	.LVL143:
 1409              	.LBE138:
 1410              	.LBE137:
 1411              		.loc 3 267 0 discriminator 1
 1412 08fa 5B1A     		subs	r3, r3, r1
 1413              	.LBE136:
 1414              	.LBE135:
 1415              		.loc 1 424 0 discriminator 1
 1416 08fc 07EE903A 		vmov	s15, r3	@ int
 1417 0900 F8EE677A 		vcvt.f32.u32	s15, s15
 1418 0904 87EEA87A 		vdiv.f32	s14, s15, s17
 1419 0908 B4EEE97A 		vcmpe.f32	s14, s19
 1420 090c F1EE10FA 		vmrs	APSR_nzcv, FPSCR
 1421 0910 E5D5     		bpl	.L74
 1422              		.loc 1 425 0
 1423 0912 D0B2     		uxtb	r0, r2
 1424              	.LVL144:
 1425 0914 B0EE4A0A 		vmov.f32	s0, s20
ARM GAS  /tmp/ccAm8JJK.s 			page 26


 1426 0918 FFF7FEFF 		bl	comm_can_set_current
 1427              	.LVL145:
 1428 091c DFE7     		b	.L74
 1429              	.LVL146:
 1430              	.L92:
 1431              	.LBE139:
 1432              	.LBE140:
 1433              	.LBE132:
 1434              	.LBE131:
 1435              	.LBB141:
 1436              		.loc 1 484 0
 1437 091e B1EE4BBA 		vneg.f32	s22, s22
 1438              	.LVL147:
 1439              		.loc 1 491 0
 1440 0922 03F0FF08 		and	r8, r3, #255
 1441              	.LVL148:
 1442 0926 2BB9     		cbnz	r3, .L245
 1443              	.LVL149:
 1444              	.L95:
 1445              		.loc 1 525 0
 1446 0928 B1EE4B0A 		vneg.f32	s0, s22
 1447 092c FFF7FEFF 		bl	mc_interface_set_current_rel
 1448              	.LVL150:
 1449 0930 FFF790BB 		b	.L4
 1450              	.LVL151:
 1451              	.L245:
 1452              		.loc 1 486 0
 1453 0934 F1EE6AAA 		vneg.f32	s21, s21
 1454              	.LVL152:
 1455              		.loc 1 487 0
 1456 0938 B1EE4AAA 		vneg.f32	s20, s20
 1457              	.LVL153:
 1458              	.L96:
 1459              	.LBB82:
 1460              	.LBB78:
 1461              	.LBB71:
 1462              		.loc 1 503 0 discriminator 1
 1463 093c DFED59CA 		vldr.32	s25, .L251+20
 1464              	.LBE71:
 1465              	.LBE78:
 1466              	.LBE82:
 1467              	.LBE141:
 1468              	.LBB142:
 1469              		.loc 1 471 0 discriminator 1
 1470 0940 F0EE4BBA 		vmov.f32	s23, s22
 1471 0944 0025     		movs	r5, #0
 1472              	.LBE142:
 1473              	.LBB143:
 1474              	.LBB83:
 1475              	.LBB79:
 1476              		.loc 1 496 0 discriminator 1
 1477 0946 B7EE00CA 		vmov.f32	s24, #1.0e+0
 1478 094a 4646     		mov	r6, r8
 1479              	.LVL154:
 1480              	.L94:
 1481              		.loc 1 493 0
 1482 094c 2846     		mov	r0, r5
ARM GAS  /tmp/ccAm8JJK.s 			page 27


 1483 094e FFF7FEFF 		bl	comm_can_get_status_msg_index
 1484              	.LVL155:
 1485              		.loc 1 495 0
 1486 0952 0368     		ldr	r3, [r0]
 1487 0954 002B     		cmp	r3, #0
 1488 0956 43DB     		blt	.L97
 1489              	.LVL156:
 1490              	.LBB72:
 1491              	.LBB73:
 1492              	.LBB74:
 1493              	.LBB75:
 1494              		.loc 3 231 0 discriminator 1
 1495 0958 D9F82820 		ldr	r2, [r9, #40]
 1496              	.LVL157:
 1497              	.LBE75:
 1498              	.LBE74:
 1499              		.loc 3 267 0 discriminator 1
 1500 095c 4168     		ldr	r1, [r0, #4]
 1501 095e 521A     		subs	r2, r2, r1
 1502              	.LBE73:
 1503              	.LBE72:
 1504              		.loc 1 495 0 discriminator 1
 1505 0960 07EE902A 		vmov	s15, r2	@ int
 1506 0964 F8EE677A 		vcvt.f32.u32	s15, s15
 1507 0968 87EEA87A 		vdiv.f32	s14, s15, s17
 1508 096c B4EEE97A 		vcmpe.f32	s14, s19
 1509 0970 F1EE10FA 		vmrs	APSR_nzcv, FPSCR
 1510 0974 34D5     		bpl	.L97
 1511              		.loc 1 496 0
 1512 0976 94F83920 		ldrb	r2, [r4, #57]	@ zero_extendqisi2
 1513 097a 5AB3     		cbz	r2, .L99
 1514              		.loc 1 496 0 is_stmt 0 discriminator 1
 1515 097c D4ED0F7A 		vldr.32	s15, [r4, #60]
 1516 0980 F4EECC7A 		vcmpe.f32	s15, s24
 1517 0984 F1EE10FA 		vmrs	APSR_nzcv, FPSCR
 1518 0988 24DD     		ble	.L99
 1519              	.LBB76:
 1520              		.loc 1 497 0 is_stmt 1
 1521 098a 90ED020A 		vldr.32	s0, [r0, #8]
 1522              	.LVL158:
 1523              		.loc 1 498 0
 1524 098e 002E     		cmp	r6, #0
 1525 0990 64D1     		bne	.L246
 1526              	.L101:
 1527              		.loc 1 502 0
 1528 0992 30EE4A0A 		vsub.f32	s0, s0, s20
 1529              	.LVL159:
 1530              		.loc 1 504 0
 1531 0996 D4ED0F7A 		vldr.32	s15, [r4, #60]
 1532              		.loc 1 505 0
 1533 099a DFED3F0A 		vldr.32	s1, .L251+8
 1534 099e 0190     		str	r0, [sp, #4]
 1535              		.loc 1 503 0
 1536 09a0 B4EE6C0A 		vcmp.f32	s0, s25
 1537 09a4 F1EE10FA 		vmrs	APSR_nzcv, FPSCR
 1538 09a8 48BF     		it	mi
 1539 09aa B0EE480A 		vmovmi.f32	s0, s16
ARM GAS  /tmp/ccAm8JJK.s 			page 28


 1540              	.LVL160:
 1541              		.loc 1 504 0
 1542 09ae F4EEC07A 		vcmpe.f32	s15, s0
 1543 09b2 F1EE10FA 		vmrs	APSR_nzcv, FPSCR
 1544 09b6 48BF     		it	mi
 1545 09b8 94ED0F0A 		vldrmi.32	s0, [r4, #60]
 1546              	.LVL161:
 1547              		.loc 1 505 0
 1548 09bc 94ED0F1A 		vldr.32	s2, [r4, #60]
 1549 09c0 B0EE482A 		vmov.f32	s4, s16
 1550 09c4 F0EE4B1A 		vmov.f32	s3, s22
 1551 09c8 FFF7FEFF 		bl	utils_map
 1552              	.LVL162:
 1553 09cc 0198     		ldr	r0, [sp, #4]
 1554 09ce 0368     		ldr	r3, [r0]
 1555 09d0 F0EE40BA 		vmov.f32	s23, s0
 1556              	.LVL163:
 1557              	.L99:
 1558 09d4 D8B2     		uxtb	r0, r3
 1559              	.LBE76:
 1560              		.loc 1 508 0
 1561 09d6 7EB3     		cbz	r6, .L105
 1562              		.loc 1 509 0
 1563 09d8 B1EE6B0A 		vneg.f32	s0, s23
 1564 09dc FFF7FEFF 		bl	comm_can_set_current_rel
 1565              	.LVL164:
 1566              	.L97:
 1567              	.LBE79:
 1568              		.loc 1 492 0 discriminator 2
 1569 09e0 0135     		adds	r5, r5, #1
 1570              	.LVL165:
 1571 09e2 0A2D     		cmp	r5, #10
 1572 09e4 B2D1     		bne	.L94
 1573              	.LBE83:
 1574              		.loc 1 516 0
 1575 09e6 94F83930 		ldrb	r3, [r4, #57]	@ zero_extendqisi2
 1576 09ea B046     		mov	r8, r6
 1577 09ec CBB3     		cbz	r3, .L121
 1578              	.LBB84:
 1579              		.loc 1 517 0
 1580 09ee 3AEECA0A 		vsub.f32	s0, s21, s20
 1581              	.LVL166:
 1582              		.loc 1 518 0
 1583 09f2 9FED2C7A 		vldr.32	s14, .L251+20
 1584              		.loc 1 519 0
 1585 09f6 D4ED0F7A 		vldr.32	s15, [r4, #60]
 1586              		.loc 1 520 0
 1587 09fa DFED270A 		vldr.32	s1, .L251+8
 1588              		.loc 1 518 0
 1589 09fe B4EE470A 		vcmp.f32	s0, s14
 1590 0a02 F1EE10FA 		vmrs	APSR_nzcv, FPSCR
 1591 0a06 48BF     		it	mi
 1592 0a08 B0EE480A 		vmovmi.f32	s0, s16
 1593              	.LVL167:
 1594              		.loc 1 519 0
 1595 0a0c F4EEC07A 		vcmpe.f32	s15, s0
 1596 0a10 F1EE10FA 		vmrs	APSR_nzcv, FPSCR
ARM GAS  /tmp/ccAm8JJK.s 			page 29


 1597 0a14 48BF     		it	mi
 1598 0a16 94ED0F0A 		vldrmi.32	s0, [r4, #60]
 1599              	.LVL168:
 1600              		.loc 1 520 0
 1601 0a1a 94ED0F1A 		vldr.32	s2, [r4, #60]
 1602 0a1e F0EE4B1A 		vmov.f32	s3, s22
 1603 0a22 B0EE482A 		vmov.f32	s4, s16
 1604 0a26 FFF7FEFF 		bl	utils_map
 1605              	.LVL169:
 1606 0a2a B0EE40BA 		vmov.f32	s22, s0
 1607              	.LVL170:
 1608              	.LBE84:
 1609              		.loc 1 524 0
 1610 0a2e B8F1000F 		cmp	r8, #0
 1611 0a32 3FF456AD 		beq	.L93
 1612 0a36 77E7     		b	.L95
 1613              	.LVL171:
 1614              	.L105:
 1615              	.LBB85:
 1616              	.LBB80:
 1617              		.loc 1 511 0
 1618 0a38 B0EE6B0A 		vmov.f32	s0, s23
 1619 0a3c FFF7FEFF 		bl	comm_can_set_current_rel
 1620              	.LVL172:
 1621 0a40 CEE7     		b	.L97
 1622              	.LVL173:
 1623              	.L114:
 1624              	.LBE80:
 1625              	.LBE85:
 1626              	.LBE143:
 1627              		.loc 1 310 0
 1628 0a42 4FF0010B 		mov	fp, #1
 1629              	.LVL174:
 1630 0a46 F5E4     		b	.L43
 1631              	.LVL175:
 1632              	.L242:
 1633              		.loc 1 224 0
 1634 0a48 01F00107 		and	r7, r1, #1
 1635 0a4c FFF7CABB 		b	.L22
 1636              	.LVL176:
 1637              	.L72:
 1638              	.LBB144:
 1639              		.loc 1 412 0
 1640 0a50 1349     		ldr	r1, .L251+16
 1641              		.loc 1 411 0
 1642 0a52 0122     		movs	r2, #1
 1643              		.loc 1 412 0
 1644 0a54 81ED000A 		vstr.32	s0, [r1]
 1645              		.loc 1 411 0
 1646 0a58 1A70     		strb	r2, [r3]
 1647 0a5a 33E7     		b	.L73
 1648              	.LVL177:
 1649              	.L246:
 1650              	.LBE144:
 1651              	.LBB145:
 1652              	.LBB86:
 1653              	.LBB81:
ARM GAS  /tmp/ccAm8JJK.s 			page 30


 1654              	.LBB77:
 1655              		.loc 1 499 0
 1656 0a5c B1EE400A 		vneg.f32	s0, s0
 1657              	.LVL178:
 1658 0a60 97E7     		b	.L101
 1659              	.LVL179:
 1660              	.L121:
 1661              	.LBE77:
 1662              	.LBE81:
 1663              	.LBE86:
 1664 0a62 B0EE6BBA 		vmov.f32	s22, s23
 1665              	.LVL180:
 1666              		.loc 1 524 0
 1667 0a66 B8F1000F 		cmp	r8, #0
 1668 0a6a 3FF43AAD 		beq	.L93
 1669 0a6e 5BE7     		b	.L95
 1670              	.LVL181:
 1671              	.L47:
 1672              	.LBE145:
 1673              		.loc 1 314 0
 1674 0a70 9DED02AA 		vldr.32	s20, [sp, #8]
 1675 0a74 FFF7FEFF 		bl	app_pas_get_current_target_rel
 1676              	.LVL182:
 1677 0a78 F0EE400A 		vmov.f32	s1, s0
 1678 0a7c B0EE4A0A 		vmov.f32	s0, s20
 1679 0a80 FFF7FEFF 		bl	utils_max_abs
 1680              	.LVL183:
 1681 0a84 B0EE40BA 		vmov.f32	s22, s0
 1682 0a88 8DED020A 		vstr.32	s0, [sp, #8]
 1683 0a8c 43E6     		b	.L48
 1684              	.L252:
 1685 0a8e 00BF     		.align	2
 1686              	.L251:
 1687 0a90 00000000 		.word	.LANCHOR4
 1688 0a94 00000000 		.word	.LANCHOR13
 1689 0a98 00000000 		.word	0
 1690 0a9c 00000000 		.word	.LANCHOR15
 1691 0aa0 00000000 		.word	.LANCHOR16
 1692 0aa4 00007042 		.word	1114636288
 1693              	.LBE148:
 1694              		.cfi_endproc
 1695              	.LFE263:
 1696              		.size	adc_thread, .-adc_thread
 1697              		.section	.text.app_adc_configure,"ax",%progbits
 1698              		.align	1
 1699              		.p2align 4,,15
 1700              		.global	app_adc_configure
 1701              		.syntax unified
 1702              		.thumb
 1703              		.thumb_func
 1704              		.fpu fpv4-sp-d16
 1705              		.type	app_adc_configure, %function
 1706              	app_adc_configure:
 1707              	.LFB256:
 1708              		.loc 1 54 0
 1709              		.cfi_startproc
 1710              		@ args = 0, pretend = 0, frame = 0
ARM GAS  /tmp/ccAm8JJK.s 			page 31


 1711              		@ frame_needed = 0, uses_anonymous_args = 0
 1712              	.LVL184:
 1713 0000 08B5     		push	{r3, lr}
 1714              		.cfi_def_cfa_offset 8
 1715              		.cfi_offset 3, -8
 1716              		.cfi_offset 14, -4
 1717              		.loc 1 55 0
 1718 0002 0146     		mov	r1, r0
 1719 0004 4422     		movs	r2, #68
 1720 0006 0348     		ldr	r0, .L255
 1721              	.LVL185:
 1722 0008 FFF7FEFF 		bl	memcpy
 1723              	.LVL186:
 1724              		.loc 1 56 0
 1725 000c 024B     		ldr	r3, .L255+4
 1726 000e 0022     		movs	r2, #0
 1727 0010 1A60     		str	r2, [r3]	@ float
 1728              		.loc 1 57 0
 1729 0012 08BD     		pop	{r3, pc}
 1730              	.L256:
 1731              		.align	2
 1732              	.L255:
 1733 0014 00000000 		.word	.LANCHOR2
 1734 0018 00000000 		.word	.LANCHOR4
 1735              		.cfi_endproc
 1736              	.LFE256:
 1737              		.size	app_adc_configure, .-app_adc_configure
 1738              		.section	.text.app_adc_start,"ax",%progbits
 1739              		.align	1
 1740              		.p2align 4,,15
 1741              		.global	app_adc_start
 1742              		.syntax unified
 1743              		.thumb
 1744              		.thumb_func
 1745              		.fpu fpv4-sp-d16
 1746              		.type	app_adc_start, %function
 1747              	app_adc_start:
 1748              	.LFB257:
 1749              		.loc 1 59 0
 1750              		.cfi_startproc
 1751              		@ args = 0, pretend = 0, frame = 0
 1752              		@ frame_needed = 0, uses_anonymous_args = 0
 1753              	.LVL187:
 1754 0000 30B5     		push	{r4, r5, lr}
 1755              		.cfi_def_cfa_offset 12
 1756              		.cfi_offset 4, -12
 1757              		.cfi_offset 5, -8
 1758              		.cfi_offset 14, -4
 1759              		.loc 1 60 0
 1760 0002 0849     		ldr	r1, .L259
 1761              		.loc 1 61 0
 1762 0004 084D     		ldr	r5, .L259+4
 1763              		.loc 1 62 0
 1764 0006 094B     		ldr	r3, .L259+8
 1765              		.loc 1 59 0
 1766 0008 83B0     		sub	sp, sp, #12
 1767              		.cfi_def_cfa_offset 24
ARM GAS  /tmp/ccAm8JJK.s 			page 32


 1768              		.loc 1 61 0
 1769 000a 0024     		movs	r4, #0
 1770              		.loc 1 62 0
 1771 000c 0094     		str	r4, [sp]
 1772 000e 4022     		movs	r2, #64
 1773              		.loc 1 60 0
 1774 0010 0870     		strb	r0, [r1]
 1775              		.loc 1 62 0
 1776 0012 4FF46871 		mov	r1, #928
 1777 0016 0648     		ldr	r0, .L259+12
 1778              	.LVL188:
 1779              		.loc 1 61 0
 1780 0018 2C70     		strb	r4, [r5]
 1781              	.LVL189:
 1782              		.loc 1 62 0
 1783 001a FFF7FEFF 		bl	chThdCreateStatic
 1784              	.LVL190:
 1785              		.loc 1 63 0
 1786 001e 03B0     		add	sp, sp, #12
 1787              		.cfi_def_cfa_offset 12
 1788              		@ sp needed
 1789 0020 30BD     		pop	{r4, r5, pc}
 1790              	.L260:
 1791 0022 00BF     		.align	2
 1792              	.L259:
 1793 0024 00000000 		.word	.LANCHOR0
 1794 0028 00000000 		.word	.LANCHOR3
 1795 002c 00000000 		.word	adc_thread
 1796 0030 00000000 		.word	.LANCHOR17
 1797              		.cfi_endproc
 1798              	.LFE257:
 1799              		.size	app_adc_start, .-app_adc_start
 1800              		.section	.text.app_adc_stop,"ax",%progbits
 1801              		.align	1
 1802              		.p2align 4,,15
 1803              		.global	app_adc_stop
 1804              		.syntax unified
 1805              		.thumb
 1806              		.thumb_func
 1807              		.fpu fpv4-sp-d16
 1808              		.type	app_adc_stop, %function
 1809              	app_adc_stop:
 1810              	.LFB258:
 1811              		.loc 1 65 0
 1812              		.cfi_startproc
 1813              		@ args = 0, pretend = 0, frame = 0
 1814              		@ frame_needed = 0, uses_anonymous_args = 0
 1815              		.loc 1 66 0
 1816 0000 064B     		ldr	r3, .L269
 1817              		.loc 1 65 0
 1818 0002 10B5     		push	{r4, lr}
 1819              		.cfi_def_cfa_offset 8
 1820              		.cfi_offset 4, -8
 1821              		.cfi_offset 14, -4
 1822              		.loc 1 66 0
 1823 0004 0122     		movs	r2, #1
 1824              		.loc 1 67 0
ARM GAS  /tmp/ccAm8JJK.s 			page 33


 1825 0006 064C     		ldr	r4, .L269+4
 1826              		.loc 1 66 0
 1827 0008 1A70     		strb	r2, [r3]
 1828              		.loc 1 67 0
 1829 000a 2378     		ldrb	r3, [r4]	@ zero_extendqisi2
 1830 000c 2BB1     		cbz	r3, .L261
 1831              	.L263:
 1832              		.loc 1 68 0
 1833 000e 0A20     		movs	r0, #10
 1834 0010 FFF7FEFF 		bl	chThdSleep
 1835              	.LVL191:
 1836              		.loc 1 67 0
 1837 0014 2378     		ldrb	r3, [r4]	@ zero_extendqisi2
 1838 0016 002B     		cmp	r3, #0
 1839 0018 F9D1     		bne	.L263
 1840              	.L261:
 1841              		.loc 1 70 0
 1842 001a 10BD     		pop	{r4, pc}
 1843              	.L270:
 1844              		.align	2
 1845              	.L269:
 1846 001c 00000000 		.word	.LANCHOR3
 1847 0020 00000000 		.word	.LANCHOR1
 1848              		.cfi_endproc
 1849              	.LFE258:
 1850              		.size	app_adc_stop, .-app_adc_stop
 1851              		.section	.text.app_adc_get_decoded_level,"ax",%progbits
 1852              		.align	1
 1853              		.p2align 4,,15
 1854              		.global	app_adc_get_decoded_level
 1855              		.syntax unified
 1856              		.thumb
 1857              		.thumb_func
 1858              		.fpu fpv4-sp-d16
 1859              		.type	app_adc_get_decoded_level, %function
 1860              	app_adc_get_decoded_level:
 1861              	.LFB259:
 1862              		.loc 1 72 0
 1863              		.cfi_startproc
 1864              		@ args = 0, pretend = 0, frame = 0
 1865              		@ frame_needed = 0, uses_anonymous_args = 0
 1866              		@ link register save eliminated.
 1867              		.loc 1 73 0
 1868 0000 014B     		ldr	r3, .L272
 1869 0002 93ED000A 		vldr.32	s0, [r3]
 1870              		.loc 1 74 0
 1871 0006 7047     		bx	lr
 1872              	.L273:
 1873              		.align	2
 1874              	.L272:
 1875 0008 00000000 		.word	.LANCHOR7
 1876              		.cfi_endproc
 1877              	.LFE259:
 1878              		.size	app_adc_get_decoded_level, .-app_adc_get_decoded_level
 1879              		.section	.text.app_adc_get_voltage,"ax",%progbits
 1880              		.align	1
 1881              		.p2align 4,,15
ARM GAS  /tmp/ccAm8JJK.s 			page 34


 1882              		.global	app_adc_get_voltage
 1883              		.syntax unified
 1884              		.thumb
 1885              		.thumb_func
 1886              		.fpu fpv4-sp-d16
 1887              		.type	app_adc_get_voltage, %function
 1888              	app_adc_get_voltage:
 1889              	.LFB260:
 1890              		.loc 1 76 0
 1891              		.cfi_startproc
 1892              		@ args = 0, pretend = 0, frame = 0
 1893              		@ frame_needed = 0, uses_anonymous_args = 0
 1894              		@ link register save eliminated.
 1895              		.loc 1 77 0
 1896 0000 014B     		ldr	r3, .L275
 1897 0002 93ED000A 		vldr.32	s0, [r3]
 1898              		.loc 1 78 0
 1899 0006 7047     		bx	lr
 1900              	.L276:
 1901              		.align	2
 1902              	.L275:
 1903 0008 00000000 		.word	.LANCHOR5
 1904              		.cfi_endproc
 1905              	.LFE260:
 1906              		.size	app_adc_get_voltage, .-app_adc_get_voltage
 1907              		.section	.text.app_adc_get_decoded_level2,"ax",%progbits
 1908              		.align	1
 1909              		.p2align 4,,15
 1910              		.global	app_adc_get_decoded_level2
 1911              		.syntax unified
 1912              		.thumb
 1913              		.thumb_func
 1914              		.fpu fpv4-sp-d16
 1915              		.type	app_adc_get_decoded_level2, %function
 1916              	app_adc_get_decoded_level2:
 1917              	.LFB261:
 1918              		.loc 1 80 0
 1919              		.cfi_startproc
 1920              		@ args = 0, pretend = 0, frame = 0
 1921              		@ frame_needed = 0, uses_anonymous_args = 0
 1922              		@ link register save eliminated.
 1923              		.loc 1 81 0
 1924 0000 014B     		ldr	r3, .L278
 1925 0002 93ED000A 		vldr.32	s0, [r3]
 1926              		.loc 1 82 0
 1927 0006 7047     		bx	lr
 1928              	.L279:
 1929              		.align	2
 1930              	.L278:
 1931 0008 00000000 		.word	.LANCHOR10
 1932              		.cfi_endproc
 1933              	.LFE261:
 1934              		.size	app_adc_get_decoded_level2, .-app_adc_get_decoded_level2
 1935              		.section	.text.app_adc_get_voltage2,"ax",%progbits
 1936              		.align	1
 1937              		.p2align 4,,15
 1938              		.global	app_adc_get_voltage2
ARM GAS  /tmp/ccAm8JJK.s 			page 35


 1939              		.syntax unified
 1940              		.thumb
 1941              		.thumb_func
 1942              		.fpu fpv4-sp-d16
 1943              		.type	app_adc_get_voltage2, %function
 1944              	app_adc_get_voltage2:
 1945              	.LFB262:
 1946              		.loc 1 84 0
 1947              		.cfi_startproc
 1948              		@ args = 0, pretend = 0, frame = 0
 1949              		@ frame_needed = 0, uses_anonymous_args = 0
 1950              		@ link register save eliminated.
 1951              		.loc 1 85 0
 1952 0000 014B     		ldr	r3, .L281
 1953 0002 93ED000A 		vldr.32	s0, [r3]
 1954              		.loc 1 86 0
 1955 0006 7047     		bx	lr
 1956              	.L282:
 1957              		.align	2
 1958              	.L281:
 1959 0008 00000000 		.word	.LANCHOR8
 1960              		.cfi_endproc
 1961              	.LFE262:
 1962              		.size	app_adc_get_voltage2, .-app_adc_get_voltage2
 1963              		.section	.bss.adc_thread_wa,"aw",%nobits
 1964              		.align	3
 1965              		.set	.LANCHOR17,. + 0
 1966              		.type	adc_thread_wa, %object
 1967              		.size	adc_thread_wa, 928
 1968              	adc_thread_wa:
 1969 0000 00000000 		.space	928
 1969      00000000 
 1969      00000000 
 1969      00000000 
 1969      00000000 
 1970              		.section	.bss.config,"aw",%nobits
 1971              		.align	2
 1972              		.set	.LANCHOR2,. + 0
 1973              		.type	config, %object
 1974              		.size	config, 68
 1975              	config:
 1976 0000 00000000 		.space	68
 1976      00000000 
 1976      00000000 
 1976      00000000 
 1976      00000000 
 1977              		.section	.bss.decoded_level,"aw",%nobits
 1978              		.align	2
 1979              		.set	.LANCHOR7,. + 0
 1980              		.type	decoded_level, %object
 1981              		.size	decoded_level, 4
 1982              	decoded_level:
 1983 0000 00000000 		.space	4
 1984              		.section	.bss.decoded_level2,"aw",%nobits
 1985              		.align	2
 1986              		.set	.LANCHOR10,. + 0
 1987              		.type	decoded_level2, %object
ARM GAS  /tmp/ccAm8JJK.s 			page 36


 1988              		.size	decoded_level2, 4
 1989              	decoded_level2:
 1990 0000 00000000 		.space	4
 1991              		.section	.bss.filter_val.12542,"aw",%nobits
 1992              		.align	2
 1993              		.set	.LANCHOR6,. + 0
 1994              		.type	filter_val.12542, %object
 1995              		.size	filter_val.12542, 4
 1996              	filter_val.12542:
 1997 0000 00000000 		.space	4
 1998              		.section	.bss.filter_val_2.12551,"aw",%nobits
 1999              		.align	2
 2000              		.set	.LANCHOR9,. + 0
 2001              		.type	filter_val_2.12551, %object
 2002              		.size	filter_val_2.12551, 4
 2003              	filter_val_2.12551:
 2004 0000 00000000 		.space	4
 2005              		.section	.bss.is_running,"aw",%nobits
 2006              		.set	.LANCHOR1,. + 0
 2007              		.type	is_running, %object
 2008              		.size	is_running, 1
 2009              	is_running:
 2010 0000 00       		.space	1
 2011              		.section	.bss.last_time.12568,"aw",%nobits
 2012              		.align	2
 2013              		.set	.LANCHOR12,. + 0
 2014              		.type	last_time.12568, %object
 2015              		.size	last_time.12568, 4
 2016              	last_time.12568:
 2017 0000 00000000 		.space	4
 2018              		.section	.bss.ms_without_power,"aw",%nobits
 2019              		.align	2
 2020              		.set	.LANCHOR4,. + 0
 2021              		.type	ms_without_power, %object
 2022              		.size	ms_without_power, 4
 2023              	ms_without_power:
 2024 0000 00000000 		.space	4
 2025              		.section	.bss.pid_rpm.12603,"aw",%nobits
 2026              		.align	2
 2027              		.set	.LANCHOR16,. + 0
 2028              		.type	pid_rpm.12603, %object
 2029              		.size	pid_rpm.12603, 4
 2030              	pid_rpm.12603:
 2031 0000 00000000 		.space	4
 2032              		.section	.bss.pulses_without_power_before.12595,"aw",%nobits
 2033              		.align	2
 2034              		.set	.LANCHOR13,. + 0
 2035              		.type	pulses_without_power_before.12595, %object
 2036              		.size	pulses_without_power_before.12595, 4
 2037              	pulses_without_power_before.12595:
 2038 0000 00000000 		.space	4
 2039              		.section	.bss.pwr_ramp.12569,"aw",%nobits
 2040              		.align	2
 2041              		.set	.LANCHOR11,. + 0
 2042              		.type	pwr_ramp.12569, %object
 2043              		.size	pwr_ramp.12569, 4
 2044              	pwr_ramp.12569:
ARM GAS  /tmp/ccAm8JJK.s 			page 37


 2045 0000 00000000 		.space	4
 2046              		.section	.bss.read_voltage,"aw",%nobits
 2047              		.align	2
 2048              		.set	.LANCHOR5,. + 0
 2049              		.type	read_voltage, %object
 2050              		.size	read_voltage, 4
 2051              	read_voltage:
 2052 0000 00000000 		.space	4
 2053              		.section	.bss.read_voltage2,"aw",%nobits
 2054              		.align	2
 2055              		.set	.LANCHOR8,. + 0
 2056              		.type	read_voltage2, %object
 2057              		.size	read_voltage2, 4
 2058              	read_voltage2:
 2059 0000 00000000 		.space	4
 2060              		.section	.bss.rpm_filtered.12602,"aw",%nobits
 2061              		.align	2
 2062              		.set	.LANCHOR14,. + 0
 2063              		.type	rpm_filtered.12602, %object
 2064              		.size	rpm_filtered.12602, 4
 2065              	rpm_filtered.12602:
 2066 0000 00000000 		.space	4
 2067              		.section	.bss.use_rx_tx_as_buttons,"aw",%nobits
 2068              		.set	.LANCHOR0,. + 0
 2069              		.type	use_rx_tx_as_buttons, %object
 2070              		.size	use_rx_tx_as_buttons, 1
 2071              	use_rx_tx_as_buttons:
 2072 0000 00       		.space	1
 2073              		.section	.bss.was_pid.12601,"aw",%nobits
 2074              		.set	.LANCHOR15,. + 0
 2075              		.type	was_pid.12601, %object
 2076              		.size	was_pid.12601, 1
 2077              	was_pid.12601:
 2078 0000 00       		.space	1
 2079              		.section	.data.stop_now,"aw",%progbits
 2080              		.set	.LANCHOR3,. + 0
 2081              		.type	stop_now, %object
 2082              		.size	stop_now, 1
 2083              	stop_now:
 2084 0000 01       		.byte	1
 2085              		.section	.rodata.adc_thread.str1.4,"aMS",%progbits,1
 2086              		.align	2
 2087              	.LC0:
 2088 0000 4150505F 		.ascii	"APP_ADC\000"
 2088      41444300 
 2089              		.text
 2090              	.Letext0:
 2091              		.file 4 "/usr/arm-none-eabi/include/machine/_default_types.h"
 2092              		.file 5 "/usr/arm-none-eabi/include/sys/_stdint.h"
 2093              		.file 6 "/usr/lib/gcc/arm-none-eabi/7.3.1/include/stddef.h"
 2094              		.file 7 "ChibiOS_3.0.5/os/rt/ports/ARMCMx/compilers/GCC/chtypes.h"
 2095              		.file 8 "ChibiOS_3.0.5/os/rt/include/chsystypes.h"
 2096              		.file 9 "ChibiOS_3.0.5/os/rt/include/chschd.h"
 2097              		.file 10 "ChibiOS_3.0.5/os/ext/CMSIS/include/core_cm4.h"
 2098              		.file 11 "ChibiOS_3.0.5/os/ext/CMSIS/ST/system_stm32f4xx.h"
 2099              		.file 12 "ChibiOS_3.0.5/os/ext/CMSIS/ST/stm32f407xx.h"
 2100              		.file 13 "ChibiOS_3.0.5/os/rt/ports/ARMCMx/chcore.h"
ARM GAS  /tmp/ccAm8JJK.s 			page 38


 2101              		.file 14 "ChibiOS_3.0.5/os/rt/ports/ARMCMx/chcore_v7m.h"
 2102              		.file 15 "ChibiOS_3.0.5/os/rt/include/chtm.h"
 2103              		.file 16 "ChibiOS_3.0.5/os/rt/include/chsem.h"
 2104              		.file 17 "ChibiOS_3.0.5/os/rt/include/chmtx.h"
 2105              		.file 18 "ChibiOS_3.0.5/os/rt/include/chevents.h"
 2106              		.file 19 "ChibiOS_3.0.5/os/rt/include/chqueues.h"
 2107              		.file 20 "./datatypes.h"
 2108              		.file 21 "./conf_general.h"
 2109              		.file 22 "ChibiOS_3.0.5/os/hal/ports/STM32/STM32F4xx/stm32_dma.h"
 2110              		.file 23 "ChibiOS_3.0.5/os/hal/ports/STM32/LLD/GPIOv2/pal_lld.h"
 2111              		.file 24 "ChibiOS_3.0.5/os/hal/include/can.h"
 2112              		.file 25 "ChibiOS_3.0.5/os/hal/ports/STM32/LLD/can_lld.h"
 2113              		.file 26 "ChibiOS_3.0.5/os/hal/include/i2c.h"
 2114              		.file 27 "ChibiOS_3.0.5/os/hal/ports/STM32/LLD/I2Cv1/i2c_lld.h"
 2115              		.file 28 "ChibiOS_3.0.5/os/hal/include/icu.h"
 2116              		.file 29 "ChibiOS_3.0.5/os/hal/ports/STM32/LLD/TIMv1/icu_lld.h"
 2117              		.file 30 "ChibiOS_3.0.5/os/hal/ports/STM32/LLD/TIMv1/stm32_tim.h"
 2118              		.file 31 "ChibiOS_3.0.5/os/hal/include/serial.h"
 2119              		.file 32 "ChibiOS_3.0.5/os/hal/ports/STM32/LLD/USARTv1/serial_lld.h"
 2120              		.file 33 "ChibiOS_3.0.5/os/hal/include/spi.h"
 2121              		.file 34 "ChibiOS_3.0.5/os/hal/ports/STM32/LLD/SPIv1/spi_lld.h"
 2122              		.file 35 "ChibiOS_3.0.5/os/hal/include/usb.h"
 2123              		.file 36 "ChibiOS_3.0.5/os/hal/ports/STM32/LLD/OTGv1/usb_lld.h"
 2124              		.file 37 "ChibiOS_3.0.5/os/hal/ports/STM32/LLD/OTGv1/stm32_otg.h"
 2125              		.file 38 "./mc_interface.h"
 2126              		.file 39 "./utils.h"
 2127              		.file 40 "/usr/arm-none-eabi/include/sys/lock.h"
 2128              		.file 41 "/usr/arm-none-eabi/include/sys/_types.h"
 2129              		.file 42 "/usr/arm-none-eabi/include/sys/reent.h"
 2130              		.file 43 "/usr/arm-none-eabi/include/math.h"
 2131              		.file 44 "./comm_can.h"
 2132              		.file 45 "./timeout.h"
 2133              		.file 46 "ChibiOS_3.0.5/os/rt/include/chthreads.h"
 2134              		.file 47 "applications/app.h"
 2135              		.file 48 "<built-in>"