ARM GAS  /tmp/ccKiSKFh.s 			page 1


   1              		.cpu cortex-m4
   2              		.eabi_attribute 27, 1
   3              		.eabi_attribute 28, 1
   4              		.eabi_attribute 20, 1
   5              		.eabi_attribute 21, 1
   6              		.eabi_attribute 23, 3
   7              		.eabi_attribute 24, 1
   8              		.eabi_attribute 25, 1
   9              		.eabi_attribute 26, 1
  10              		.eabi_attribute 30, 2
  11              		.eabi_attribute 34, 1
  12              		.eabi_attribute 18, 4
  13              		.file	"bm_if.c"
  14              		.text
  15              	.Ltext0:
  16              		.cfi_sections	.debug_frame
  17              		.section	.text.target_destroy_callback,"ax",%progbits
  18              		.align	1
  19              		.p2align 4,,15
  20              		.syntax unified
  21              		.thumb
  22              		.thumb_func
  23              		.fpu fpv4-sp-d16
  24              		.type	target_destroy_callback, %function
  25              	target_destroy_callback:
  26              	.LFB263:
  27              		.file 1 "blackmagic/bm_if.c"
  28              		.loc 1 38 0
  29              		.cfi_startproc
  30              		@ args = 0, pretend = 0, frame = 0
  31              		@ frame_needed = 0, uses_anonymous_args = 0
  32              		@ link register save eliminated.
  33              	.LVL0:
  34              		.loc 1 41 0
  35 0000 034B     		ldr	r3, .L4
  36 0002 1A68     		ldr	r2, [r3]
  37 0004 8A42     		cmp	r2, r1
  38              		.loc 1 42 0
  39 0006 04BF     		itt	eq
  40 0008 0022     		moveq	r2, #0
  41 000a 1A60     		streq	r2, [r3]
  42              		.loc 1 44 0
  43 000c 7047     		bx	lr
  44              	.L5:
  45 000e 00BF     		.align	2
  46              	.L4:
  47 0010 00000000 		.word	.LANCHOR0
  48              		.cfi_endproc
  49              	.LFE263:
  50              		.size	target_destroy_callback, .-target_destroy_callback
  51              		.section	.text.terminal_reset,"ax",%progbits
  52              		.align	1
  53              		.p2align 4,,15
  54              		.syntax unified
  55              		.thumb
  56              		.thumb_func
  57              		.fpu fpv4-sp-d16
ARM GAS  /tmp/ccKiSKFh.s 			page 2


  58              		.type	terminal_reset, %function
  59              	terminal_reset:
  60              	.LFB273:
  61              		.loc 1 273 0
  62              		.cfi_startproc
  63              		@ args = 0, pretend = 0, frame = 0
  64              		@ frame_needed = 0, uses_anonymous_args = 0
  65              	.LVL1:
  66 0000 08B5     		push	{r3, lr}
  67              		.cfi_def_cfa_offset 8
  68              		.cfi_offset 3, -8
  69              		.cfi_offset 14, -4
  70              		.loc 1 277 0
  71 0002 074B     		ldr	r3, .L9
  72 0004 1868     		ldr	r0, [r3]
  73              	.LVL2:
  74 0006 30B1     		cbz	r0, .L7
  75              		.loc 1 278 0
  76 0008 FFF7FEFF 		bl	target_reset
  77              	.LVL3:
  78              		.loc 1 279 0
  79 000c 0548     		ldr	r0, .L9+4
  80              		.loc 1 283 0
  81 000e BDE80840 		pop	{r3, lr}
  82              		.cfi_remember_state
  83              		.cfi_restore 14
  84              		.cfi_restore 3
  85              		.cfi_def_cfa_offset 0
  86              		.loc 1 279 0
  87 0012 FFF7FEBF 		b	commands_printf
  88              	.LVL4:
  89              	.L7:
  90              		.cfi_restore_state
  91              		.loc 1 281 0
  92 0016 0448     		ldr	r0, .L9+8
  93              		.loc 1 283 0
  94 0018 BDE80840 		pop	{r3, lr}
  95              		.cfi_restore 14
  96              		.cfi_restore 3
  97              		.cfi_def_cfa_offset 0
  98              		.loc 1 281 0
  99 001c FFF7FEBF 		b	commands_printf
 100              	.LVL5:
 101              	.L10:
 102              		.align	2
 103              	.L9:
 104 0020 00000000 		.word	.LANCHOR0
 105 0024 00000000 		.word	.LC0
 106 0028 08000000 		.word	.LC1
 107              		.cfi_endproc
 108              	.LFE273:
 109              		.size	terminal_reset, .-terminal_reset
 110              		.section	.text.target_printf,"ax",%progbits
 111              		.align	1
 112              		.p2align 4,,15
 113              		.syntax unified
 114              		.thumb
ARM GAS  /tmp/ccKiSKFh.s 			page 3


 115              		.thumb_func
 116              		.fpu fpv4-sp-d16
 117              		.type	target_printf, %function
 118              	target_printf:
 119              	.LFB264:
 120              		.loc 1 46 0
 121              		.cfi_startproc
 122              		@ args = 0, pretend = 0, frame = 8
 123              		@ frame_needed = 0, uses_anonymous_args = 0
 124              	.LVL6:
 125              		.loc 1 49 0
 126 0000 094B     		ldr	r3, .L22
 127 0002 1B78     		ldrb	r3, [r3]	@ zero_extendqisi2
 128 0004 03B9     		cbnz	r3, .L21
 129 0006 7047     		bx	lr
 130              	.L21:
 131              		.loc 1 46 0
 132 0008 00B5     		push	{lr}
 133              		.cfi_def_cfa_offset 4
 134              		.cfi_offset 14, -4
 135 000a 83B0     		sub	sp, sp, #12
 136              		.cfi_def_cfa_offset 16
 137              	.LBB21:
 138              		.loc 1 51 0
 139 000c 01A8     		add	r0, sp, #4
 140              	.LVL7:
 141 000e FFF7FEFF 		bl	vasprintf
 142              	.LVL8:
 143 0012 0028     		cmp	r0, #0
 144 0014 05DB     		blt	.L11
 145              		.loc 1 54 0
 146 0016 0198     		ldr	r0, [sp, #4]
 147 0018 FFF7FEFF 		bl	commands_printf
 148              	.LVL9:
 149              		.loc 1 55 0
 150 001c 0198     		ldr	r0, [sp, #4]
 151 001e FFF7FEFF 		bl	free
 152              	.LVL10:
 153              	.L11:
 154              	.LBE21:
 155              		.loc 1 57 0
 156 0022 03B0     		add	sp, sp, #12
 157              		.cfi_def_cfa_offset 4
 158              		@ sp needed
 159 0024 5DF804FB 		ldr	pc, [sp], #4
 160              	.L23:
 161              		.align	2
 162              	.L22:
 163 0028 00000000 		.word	.LANCHOR1
 164              		.cfi_endproc
 165              	.LFE264:
 166              		.size	target_printf, .-target_printf
 167              		.section	.text.display_target,"ax",%progbits
 168              		.align	1
 169              		.p2align 4,,15
 170              		.syntax unified
 171              		.thumb
ARM GAS  /tmp/ccKiSKFh.s 			page 4


 172              		.thumb_func
 173              		.fpu fpv4-sp-d16
 174              		.type	display_target, %function
 175              	display_target:
 176              	.LFB265:
 177              		.loc 1 77 0
 178              		.cfi_startproc
 179              		@ args = 0, pretend = 0, frame = 0
 180              		@ frame_needed = 0, uses_anonymous_args = 0
 181              	.LVL11:
 182 0000 70B5     		push	{r4, r5, r6, lr}
 183              		.cfi_def_cfa_offset 16
 184              		.cfi_offset 4, -16
 185              		.cfi_offset 5, -12
 186              		.cfi_offset 6, -8
 187              		.cfi_offset 14, -4
 188              		.loc 1 77 0
 189 0002 0546     		mov	r5, r0
 190              		.loc 1 79 0
 191 0004 0846     		mov	r0, r1
 192              	.LVL12:
 193              		.loc 1 77 0
 194 0006 0C46     		mov	r4, r1
 195              		.loc 1 79 0
 196 0008 FFF7FEFF 		bl	target_attached
 197              	.LVL13:
 198 000c 0028     		cmp	r0, #0
 199 000e 2046     		mov	r0, r4
 200 0010 14BF     		ite	ne
 201 0012 2A26     		movne	r6, #42
 202 0014 2026     		moveq	r6, #32
 203 0016 FFF7FEFF 		bl	target_driver_name
 204              	.LVL14:
 205 001a 3246     		mov	r2, r6
 206 001c 0346     		mov	r3, r0
 207 001e 2946     		mov	r1, r5
 208 0020 0248     		ldr	r0, .L28
 209              		.loc 1 80 0
 210 0022 BDE87040 		pop	{r4, r5, r6, lr}
 211              		.cfi_restore 14
 212              		.cfi_restore 6
 213              		.cfi_restore 5
 214              		.cfi_restore 4
 215              		.cfi_def_cfa_offset 0
 216              	.LVL15:
 217              		.loc 1 79 0
 218 0026 FFF7FEBF 		b	commands_printf
 219              	.LVL16:
 220              	.L29:
 221 002a 00BF     		.align	2
 222              	.L28:
 223 002c 00000000 		.word	.LC2
 224              		.cfi_endproc
 225              	.LFE265:
 226              		.size	display_target, .-display_target
 227              		.section	.text.bm_init,"ax",%progbits
 228              		.align	1
ARM GAS  /tmp/ccKiSKFh.s 			page 5


 229              		.p2align 4,,15
 230              		.global	bm_init
 231              		.syntax unified
 232              		.thumb
 233              		.thumb_func
 234              		.fpu fpv4-sp-d16
 235              		.type	bm_init, %function
 236              	bm_init:
 237              	.LFB276:
 238              		.loc 1 323 0
 239              		.cfi_startproc
 240              		@ args = 0, pretend = 0, frame = 0
 241              		@ frame_needed = 0, uses_anonymous_args = 0
 242 0000 10B5     		push	{r4, lr}
 243              		.cfi_def_cfa_offset 8
 244              		.cfi_offset 4, -8
 245              		.cfi_offset 14, -4
 246              		.loc 1 324 0
 247 0002 194B     		ldr	r3, .L32
 248 0004 1949     		ldr	r1, .L32+4
 249 0006 1A48     		ldr	r0, .L32+8
 250 0008 0022     		movs	r2, #0
 251 000a FFF7FEFF 		bl	terminal_register_command_callback
 252              	.LVL17:
 253              		.loc 1 330 0
 254 000e 194B     		ldr	r3, .L32+12
 255 0010 194A     		ldr	r2, .L32+16
 256 0012 1A49     		ldr	r1, .L32+20
 257 0014 1A48     		ldr	r0, .L32+24
 258 0016 FFF7FEFF 		bl	terminal_register_command_callback
 259              	.LVL18:
 260              		.loc 1 336 0
 261 001a 1A4B     		ldr	r3, .L32+28
 262 001c 1A4A     		ldr	r2, .L32+32
 263 001e 1B49     		ldr	r1, .L32+36
 264 0020 1B48     		ldr	r0, .L32+40
 265 0022 FFF7FEFF 		bl	terminal_register_command_callback
 266              	.LVL19:
 267              		.loc 1 342 0
 268 0026 1B4B     		ldr	r3, .L32+44
 269 0028 1B49     		ldr	r1, .L32+48
 270 002a 1C48     		ldr	r0, .L32+52
 271 002c 0022     		movs	r2, #0
 272 002e FFF7FEFF 		bl	terminal_register_command_callback
 273              	.LVL20:
 274              		.loc 1 348 0
 275 0032 1B4B     		ldr	r3, .L32+56
 276 0034 1B4A     		ldr	r2, .L32+60
 277 0036 1C49     		ldr	r1, .L32+64
 278 0038 1C48     		ldr	r0, .L32+68
 279 003a FFF7FEFF 		bl	terminal_register_command_callback
 280              	.LVL21:
 281              		.loc 1 354 0
 282 003e 1C4B     		ldr	r3, .L32+72
 283 0040 1C49     		ldr	r1, .L32+76
 284 0042 1D48     		ldr	r0, .L32+80
 285 0044 0022     		movs	r2, #0
ARM GAS  /tmp/ccKiSKFh.s 			page 6


 286 0046 FFF7FEFF 		bl	terminal_register_command_callback
 287              	.LVL22:
 288              		.loc 1 360 0
 289 004a 1C4B     		ldr	r3, .L32+84
 290 004c 1C49     		ldr	r1, .L32+88
 291 004e 1D48     		ldr	r0, .L32+92
 292 0050 0022     		movs	r2, #0
 293 0052 FFF7FEFF 		bl	terminal_register_command_callback
 294              	.LVL23:
 295              		.loc 1 366 0
 296 0056 1C4B     		ldr	r3, .L32+96
 297 0058 1C4A     		ldr	r2, .L32+100
 298 005a 1D49     		ldr	r1, .L32+104
 299 005c 1D48     		ldr	r0, .L32+108
 300              		.loc 1 372 0
 301 005e BDE81040 		pop	{r4, lr}
 302              		.cfi_restore 14
 303              		.cfi_restore 4
 304              		.cfi_def_cfa_offset 0
 305              		.loc 1 366 0
 306 0062 FFF7FEBF 		b	terminal_register_command_callback
 307              	.LVL24:
 308              	.L33:
 309 0066 00BF     		.align	2
 310              	.L32:
 311 0068 00000000 		.word	terminal_swdp_scan
 312 006c 00000000 		.word	.LC3
 313 0070 18000000 		.word	.LC4
 314 0074 00000000 		.word	terminal_attach
 315 0078 28000000 		.word	.LC5
 316 007c 30000000 		.word	.LC6
 317 0080 4C000000 		.word	.LC7
 318 0084 00000000 		.word	terminal_flash_erase
 319 0088 58000000 		.word	.LC8
 320 008c 6C000000 		.word	.LC9
 321 0090 8C000000 		.word	.LC10
 322 0094 00000000 		.word	terminal_target_help
 323 0098 9C000000 		.word	.LC11
 324 009c C0000000 		.word	.LC12
 325 00a0 00000000 		.word	terminal_target_cmd
 326 00a4 D0000000 		.word	.LC13
 327 00a8 D8000000 		.word	.LC14
 328 00ac FC000000 		.word	.LC15
 329 00b0 00000000 		.word	terminal_reset
 330 00b4 0C010000 		.word	.LC16
 331 00b8 28010000 		.word	.LC17
 332 00bc 00000000 		.word	terminal_detach
 333 00c0 34010000 		.word	.LC18
 334 00c4 50010000 		.word	.LC19
 335 00c8 00000000 		.word	terminal_map_nrf5_pins
 336 00cc 5C010000 		.word	.LC20
 337 00d0 6C010000 		.word	.LC21
 338 00d4 94010000 		.word	.LC22
 339              		.cfi_endproc
 340              	.LFE276:
 341              		.size	bm_init, .-bm_init
 342              		.section	.text.bm_set_enabled,"ax",%progbits
ARM GAS  /tmp/ccKiSKFh.s 			page 7


 343              		.align	1
 344              		.p2align 4,,15
 345              		.global	bm_set_enabled
 346              		.syntax unified
 347              		.thumb
 348              		.thumb_func
 349              		.fpu fpv4-sp-d16
 350              		.type	bm_set_enabled, %function
 351              	bm_set_enabled:
 352              	.LFB277:
 353              		.loc 1 384 0
 354              		.cfi_startproc
 355              		@ args = 0, pretend = 0, frame = 0
 356              		@ frame_needed = 0, uses_anonymous_args = 0
 357              	.LVL25:
 358 0000 38B5     		push	{r3, r4, r5, lr}
 359              		.cfi_def_cfa_offset 16
 360              		.cfi_offset 3, -16
 361              		.cfi_offset 4, -12
 362              		.cfi_offset 5, -8
 363              		.cfi_offset 14, -4
 364              		.loc 1 387 0
 365 0002 1B4B     		ldr	r3, .L39
 366 0004 1A78     		ldrb	r2, [r3]	@ zero_extendqisi2
 367 0006 8242     		cmp	r2, r0
 368 0008 31D0     		beq	.L34
 369 000a 1A49     		ldr	r1, .L39+4
 370 000c 1A4A     		ldr	r2, .L39+8
 371 000e 0968     		ldr	r1, [r1]
 372              		.loc 1 390 0
 373 0010 1870     		strb	r0, [r3]
 374 0012 0446     		mov	r4, r0
 375 0014 0125     		movs	r5, #1
 376 0016 05FA01F1 		lsl	r1, r5, r1
 377 001a 1068     		ldr	r0, [r2]
 378              	.LVL26:
 379              		.loc 1 393 0
 380 001c CCB9     		cbnz	r4, .L38
 381              		.loc 1 397 0
 382 001e 2246     		mov	r2, r4
 383 0020 FFF7FEFF 		bl	_pal_lld_setgroupmode
 384              	.LVL27:
 385              		.loc 1 398 0
 386 0024 154A     		ldr	r2, .L39+12
 387 0026 164B     		ldr	r3, .L39+16
 388 0028 1168     		ldr	r1, [r2]
 389 002a 1868     		ldr	r0, [r3]
 390 002c 2246     		mov	r2, r4
 391 002e 05FA01F1 		lsl	r1, r5, r1
 392 0032 FFF7FEFF 		bl	_pal_lld_setgroupmode
 393              	.LVL28:
 394              		.loc 1 401 0
 395 0036 0222     		movs	r2, #2
 396 0038 4FF40051 		mov	r1, #8192
 397 003c 1148     		ldr	r0, .L39+20
 398 003e FFF7FEFF 		bl	_pal_lld_setgroupmode
 399              	.LVL29:
ARM GAS  /tmp/ccKiSKFh.s 			page 8


 400              		.loc 1 402 0
 401 0042 0222     		movs	r2, #2
 402 0044 4FF48041 		mov	r1, #16384
 403 0048 0E48     		ldr	r0, .L39+20
 404              		.loc 1 404 0
 405 004a BDE83840 		pop	{r3, r4, r5, lr}
 406              		.cfi_remember_state
 407              		.cfi_restore 14
 408              		.cfi_restore 5
 409              		.cfi_restore 4
 410              		.cfi_restore 3
 411              		.cfi_def_cfa_offset 0
 412              		.loc 1 402 0
 413 004e FFF7FEBF 		b	_pal_lld_setgroupmode
 414              	.LVL30:
 415              	.L38:
 416              		.cfi_restore_state
 417              	.LBB24:
 418              	.LBB25:
 419              		.loc 1 394 0
 420 0052 0022     		movs	r2, #0
 421 0054 FFF7FEFF 		bl	_pal_lld_setgroupmode
 422              	.LVL31:
 423              		.loc 1 395 0
 424 0058 084A     		ldr	r2, .L39+12
 425 005a 094B     		ldr	r3, .L39+16
 426 005c 1168     		ldr	r1, [r2]
 427 005e 1868     		ldr	r0, [r3]
 428 0060 05FA01F1 		lsl	r1, r5, r1
 429 0064 1922     		movs	r2, #25
 430              	.LBE25:
 431              	.LBE24:
 432              		.loc 1 404 0
 433 0066 BDE83840 		pop	{r3, r4, r5, lr}
 434              		.cfi_remember_state
 435              		.cfi_restore 14
 436              		.cfi_restore 5
 437              		.cfi_restore 4
 438              		.cfi_restore 3
 439              		.cfi_def_cfa_offset 0
 440              	.LBB27:
 441              	.LBB26:
 442              		.loc 1 395 0
 443 006a FFF7FEBF 		b	_pal_lld_setgroupmode
 444              	.LVL32:
 445              	.L34:
 446              		.cfi_restore_state
 447              	.LBE26:
 448              	.LBE27:
 449              		.loc 1 404 0
 450 006e 38BD     		pop	{r3, r4, r5, pc}
 451              	.L40:
 452              		.align	2
 453              	.L39:
 454 0070 00000000 		.word	.LANCHOR2
 455 0074 00000000 		.word	platform_swdio_pin
 456 0078 00000000 		.word	platform_swdio_port
ARM GAS  /tmp/ccKiSKFh.s 			page 9


 457 007c 00000000 		.word	platform_swclk_pin
 458 0080 00000000 		.word	platform_swclk_port
 459 0084 00000240 		.word	1073872896
 460              		.cfi_endproc
 461              	.LFE277:
 462              		.size	bm_set_enabled, .-bm_set_enabled
 463              		.section	.text.terminal_detach,"ax",%progbits
 464              		.align	1
 465              		.p2align 4,,15
 466              		.syntax unified
 467              		.thumb
 468              		.thumb_func
 469              		.fpu fpv4-sp-d16
 470              		.type	terminal_detach, %function
 471              	terminal_detach:
 472              	.LFB274:
 473              		.loc 1 285 0
 474              		.cfi_startproc
 475              		@ args = 0, pretend = 0, frame = 0
 476              		@ frame_needed = 0, uses_anonymous_args = 0
 477              	.LVL33:
 478 0000 10B5     		push	{r4, lr}
 479              		.cfi_def_cfa_offset 8
 480              		.cfi_offset 4, -8
 481              		.cfi_offset 14, -4
 482              		.loc 1 289 0
 483 0002 0A4C     		ldr	r4, .L44
 484 0004 2068     		ldr	r0, [r4]
 485              	.LVL34:
 486 0006 58B1     		cbz	r0, .L42
 487              		.loc 1 290 0
 488 0008 FFF7FEFF 		bl	target_detach
 489              	.LVL35:
 490              		.loc 1 291 0
 491 000c 0023     		movs	r3, #0
 492              		.loc 1 292 0
 493 000e 1846     		mov	r0, r3
 494              		.loc 1 291 0
 495 0010 2360     		str	r3, [r4]
 496              		.loc 1 292 0
 497 0012 FFF7FEFF 		bl	bm_set_enabled
 498              	.LVL36:
 499              		.loc 1 293 0
 500 0016 0648     		ldr	r0, .L44+4
 501              		.loc 1 297 0
 502 0018 BDE81040 		pop	{r4, lr}
 503              		.cfi_remember_state
 504              		.cfi_restore 14
 505              		.cfi_restore 4
 506              		.cfi_def_cfa_offset 0
 507              		.loc 1 293 0
 508 001c FFF7FEBF 		b	commands_printf
 509              	.LVL37:
 510              	.L42:
 511              		.cfi_restore_state
 512              		.loc 1 295 0
 513 0020 0448     		ldr	r0, .L44+8
ARM GAS  /tmp/ccKiSKFh.s 			page 10


 514              		.loc 1 297 0
 515 0022 BDE81040 		pop	{r4, lr}
 516              		.cfi_restore 14
 517              		.cfi_restore 4
 518              		.cfi_def_cfa_offset 0
 519              		.loc 1 295 0
 520 0026 FFF7FEBF 		b	commands_printf
 521              	.LVL38:
 522              	.L45:
 523 002a 00BF     		.align	2
 524              	.L44:
 525 002c 00000000 		.word	.LANCHOR0
 526 0030 00000000 		.word	.LC0
 527 0034 08000000 		.word	.LC1
 528              		.cfi_endproc
 529              	.LFE274:
 530              		.size	terminal_detach, .-terminal_detach
 531              		.section	.text.terminal_target_cmd,"ax",%progbits
 532              		.align	1
 533              		.p2align 4,,15
 534              		.syntax unified
 535              		.thumb
 536              		.thumb_func
 537              		.fpu fpv4-sp-d16
 538              		.type	terminal_target_cmd, %function
 539              	terminal_target_cmd:
 540              	.LFB272:
 541              		.loc 1 253 0
 542              		.cfi_startproc
 543              		@ args = 0, pretend = 0, frame = 0
 544              		@ frame_needed = 0, uses_anonymous_args = 0
 545              	.LVL39:
 546 0000 70B5     		push	{r4, r5, r6, lr}
 547              		.cfi_def_cfa_offset 16
 548              		.cfi_offset 4, -16
 549              		.cfi_offset 5, -12
 550              		.cfi_offset 6, -8
 551              		.cfi_offset 14, -4
 552              		.loc 1 254 0
 553 0002 134E     		ldr	r6, .L53
 554 0004 3368     		ldr	r3, [r6]
 555 0006 CBB1     		cbz	r3, .L47
 556              	.LBB28:
 557              		.loc 1 255 0
 558 0008 0123     		movs	r3, #1
 559 000a 124A     		ldr	r2, .L53+4
 560 000c 0D46     		mov	r5, r1
 561 000e 0446     		mov	r4, r0
 562              		.loc 1 257 0
 563 0010 1846     		mov	r0, r3
 564              	.LVL40:
 565              		.loc 1 255 0
 566 0012 1370     		strb	r3, [r2]
 567              		.loc 1 257 0
 568 0014 FFF7FEFF 		bl	bm_set_enabled
 569              	.LVL41:
 570              		.loc 1 259 0
ARM GAS  /tmp/ccKiSKFh.s 			page 11


 571 0018 611E     		subs	r1, r4, #1
 572 001a 2A1D     		adds	r2, r5, #4
 573 001c 3068     		ldr	r0, [r6]
 574 001e FFF7FEFF 		bl	target_command
 575              	.LVL42:
 576              		.loc 1 261 0
 577 0022 011E     		subs	r1, r0, #0
 578 0024 05D0     		beq	.L51
 579              		.loc 1 263 0
 580 0026 0EDB     		blt	.L52
 581              		.loc 1 266 0
 582 0028 0B48     		ldr	r0, .L53+8
 583              	.LVL43:
 584              	.LBE28:
 585              		.loc 1 271 0
 586 002a BDE87040 		pop	{r4, r5, r6, lr}
 587              		.cfi_remember_state
 588              		.cfi_restore 14
 589              		.cfi_restore 6
 590              		.cfi_restore 5
 591              		.cfi_restore 4
 592              		.cfi_def_cfa_offset 0
 593              	.LVL44:
 594              	.LBB29:
 595              		.loc 1 266 0
 596 002e FFF7FEBF 		b	commands_printf
 597              	.LVL45:
 598              	.L51:
 599              		.cfi_restore_state
 600              		.loc 1 262 0
 601 0032 0A48     		ldr	r0, .L53+12
 602              	.LVL46:
 603              	.LBE29:
 604              		.loc 1 271 0
 605 0034 BDE87040 		pop	{r4, r5, r6, lr}
 606              		.cfi_remember_state
 607              		.cfi_restore 14
 608              		.cfi_restore 6
 609              		.cfi_restore 5
 610              		.cfi_restore 4
 611              		.cfi_def_cfa_offset 0
 612              	.LVL47:
 613              	.LBB30:
 614              		.loc 1 262 0
 615 0038 FFF7FEBF 		b	commands_printf
 616              	.LVL48:
 617              	.L47:
 618              		.cfi_restore_state
 619              	.LBE30:
 620              		.loc 1 269 0
 621 003c 0848     		ldr	r0, .L53+16
 622              	.LVL49:
 623              		.loc 1 271 0
 624 003e BDE87040 		pop	{r4, r5, r6, lr}
 625              		.cfi_remember_state
 626              		.cfi_restore 14
 627              		.cfi_restore 6
ARM GAS  /tmp/ccKiSKFh.s 			page 12


 628              		.cfi_restore 5
 629              		.cfi_restore 4
 630              		.cfi_def_cfa_offset 0
 631              		.loc 1 269 0
 632 0042 FFF7FEBF 		b	commands_printf
 633              	.LVL50:
 634              	.L52:
 635              		.cfi_restore_state
 636              	.LBB31:
 637              		.loc 1 264 0
 638 0046 0748     		ldr	r0, .L53+20
 639              	.LVL51:
 640              	.LBE31:
 641              		.loc 1 271 0
 642 0048 BDE87040 		pop	{r4, r5, r6, lr}
 643              		.cfi_restore 14
 644              		.cfi_restore 6
 645              		.cfi_restore 5
 646              		.cfi_restore 4
 647              		.cfi_def_cfa_offset 0
 648              	.LVL52:
 649              	.LBB32:
 650              		.loc 1 264 0
 651 004c FFF7FEBF 		b	commands_printf
 652              	.LVL53:
 653              	.L54:
 654              		.align	2
 655              	.L53:
 656 0050 00000000 		.word	.LANCHOR0
 657 0054 00000000 		.word	.LANCHOR1
 658 0058 14000000 		.word	.LC24
 659 005c 00000000 		.word	.LC0
 660 0060 08000000 		.word	.LC1
 661 0064 00000000 		.word	.LC23
 662              	.LBE32:
 663              		.cfi_endproc
 664              	.LFE272:
 665              		.size	terminal_target_cmd, .-terminal_target_cmd
 666              		.section	.text.terminal_target_help,"ax",%progbits
 667              		.align	1
 668              		.p2align 4,,15
 669              		.syntax unified
 670              		.thumb
 671              		.thumb_func
 672              		.fpu fpv4-sp-d16
 673              		.type	terminal_target_help, %function
 674              	terminal_target_help:
 675              	.LFB271:
 676              		.loc 1 240 0
 677              		.cfi_startproc
 678              		@ args = 0, pretend = 0, frame = 0
 679              		@ frame_needed = 0, uses_anonymous_args = 0
 680              	.LVL54:
 681 0000 10B5     		push	{r4, lr}
 682              		.cfi_def_cfa_offset 8
 683              		.cfi_offset 4, -8
 684              		.cfi_offset 14, -4
ARM GAS  /tmp/ccKiSKFh.s 			page 13


 685              		.loc 1 244 0
 686 0002 094C     		ldr	r4, .L58
 687 0004 2368     		ldr	r3, [r4]
 688 0006 53B1     		cbz	r3, .L56
 689              	.LVL55:
 690              	.LBB35:
 691              	.LBB36:
 692              		.loc 1 245 0
 693 0008 0120     		movs	r0, #1
 694              	.LVL56:
 695 000a FFF7FEFF 		bl	bm_set_enabled
 696              	.LVL57:
 697              		.loc 1 246 0
 698 000e 074B     		ldr	r3, .L58+4
 699              		.loc 1 247 0
 700 0010 2068     		ldr	r0, [r4]
 701              		.loc 1 246 0
 702 0012 0122     		movs	r2, #1
 703              	.LBE36:
 704              	.LBE35:
 705              		.loc 1 251 0
 706 0014 BDE81040 		pop	{r4, lr}
 707              		.cfi_remember_state
 708              		.cfi_restore 14
 709              		.cfi_restore 4
 710              		.cfi_def_cfa_offset 0
 711              	.LBB38:
 712              	.LBB37:
 713              		.loc 1 246 0
 714 0018 1A70     		strb	r2, [r3]
 715              		.loc 1 247 0
 716 001a FFF7FEBF 		b	target_command_help
 717              	.LVL58:
 718              	.L56:
 719              		.cfi_restore_state
 720              	.LBE37:
 721              	.LBE38:
 722              		.loc 1 249 0
 723 001e 0448     		ldr	r0, .L58+8
 724              	.LVL59:
 725              		.loc 1 251 0
 726 0020 BDE81040 		pop	{r4, lr}
 727              		.cfi_restore 14
 728              		.cfi_restore 4
 729              		.cfi_def_cfa_offset 0
 730              		.loc 1 249 0
 731 0024 FFF7FEBF 		b	commands_printf
 732              	.LVL60:
 733              	.L59:
 734              		.align	2
 735              	.L58:
 736 0028 00000000 		.word	.LANCHOR0
 737 002c 00000000 		.word	.LANCHOR1
 738 0030 08000000 		.word	.LC1
 739              		.cfi_endproc
 740              	.LFE271:
 741              		.size	terminal_target_help, .-terminal_target_help
ARM GAS  /tmp/ccKiSKFh.s 			page 14


 742              		.section	.text.terminal_flash_erase,"ax",%progbits
 743              		.align	1
 744              		.p2align 4,,15
 745              		.syntax unified
 746              		.thumb
 747              		.thumb_func
 748              		.fpu fpv4-sp-d16
 749              		.type	terminal_flash_erase, %function
 750              	terminal_flash_erase:
 751              	.LFB270:
 752              		.loc 1 210 0
 753              		.cfi_startproc
 754              		@ args = 0, pretend = 0, frame = 8
 755              		@ frame_needed = 0, uses_anonymous_args = 0
 756              	.LVL61:
 757 0000 10B5     		push	{r4, lr}
 758              		.cfi_def_cfa_offset 8
 759              		.cfi_offset 4, -8
 760              		.cfi_offset 14, -4
 761              		.loc 1 211 0
 762 0002 0328     		cmp	r0, #3
 763              		.loc 1 210 0
 764 0004 82B0     		sub	sp, sp, #8
 765              		.cfi_def_cfa_offset 16
 766              		.loc 1 211 0
 767 0006 04D0     		beq	.L68
 768              		.loc 1 236 0
 769 0008 1C48     		ldr	r0, .L69
 770              	.LVL62:
 771 000a FFF7FEFF 		bl	commands_printf
 772              	.LVL63:
 773              	.L60:
 774              		.loc 1 238 0
 775 000e 02B0     		add	sp, sp, #8
 776              		.cfi_remember_state
 777              		.cfi_def_cfa_offset 8
 778              		@ sp needed
 779 0010 10BD     		pop	{r4, pc}
 780              	.LVL64:
 781              	.L68:
 782              		.cfi_restore_state
 783 0012 0C46     		mov	r4, r1
 784              	.LVL65:
 785              	.LBB43:
 786              	.LBB44:
 787              		.loc 1 212 0
 788 0014 4FF0FF33 		mov	r3, #-1
 789              		.loc 1 214 0
 790 0018 6A46     		mov	r2, sp
 791 001a 1949     		ldr	r1, .L69+4
 792              	.LVL66:
 793 001c 6068     		ldr	r0, [r4, #4]
 794              	.LVL67:
 795              		.loc 1 213 0
 796 001e CDE90033 		strd	r3, r3, [sp]
 797              		.loc 1 214 0
 798 0022 FFF7FEFF 		bl	sscanf
ARM GAS  /tmp/ccKiSKFh.s 			page 15


 799              	.LVL68:
 800              		.loc 1 215 0
 801 0026 A068     		ldr	r0, [r4, #8]
 802 0028 1649     		ldr	r1, .L69+8
 803 002a 01AA     		add	r2, sp, #4
 804 002c FFF7FEFF 		bl	sscanf
 805              	.LVL69:
 806              		.loc 1 217 0
 807 0030 019B     		ldr	r3, [sp, #4]
 808 0032 002B     		cmp	r3, #0
 809 0034 1DDB     		blt	.L62
 810              		.loc 1 218 0
 811 0036 144C     		ldr	r4, .L69+12
 812              	.LVL70:
 813 0038 2368     		ldr	r3, [r4]
 814 003a 93B1     		cbz	r3, .L63
 815              	.LBB45:
 816              		.loc 1 219 0
 817 003c 0120     		movs	r0, #1
 818 003e FFF7FEFF 		bl	bm_set_enabled
 819              	.LVL71:
 820              		.loc 1 220 0
 821 0042 124B     		ldr	r3, .L69+16
 822              		.loc 1 221 0
 823 0044 2068     		ldr	r0, [r4]
 824              		.loc 1 220 0
 825 0046 0122     		movs	r2, #1
 826 0048 1A70     		strb	r2, [r3]
 827              		.loc 1 221 0
 828 004a FFF7FEFF 		bl	target_reset
 829              	.LVL72:
 830              		.loc 1 222 0
 831 004e 2068     		ldr	r0, [r4]
 832 0050 DDE90012 		ldrd	r1, r2, [sp]
 833 0054 FFF7FEFF 		bl	target_flash_erase
 834              	.LVL73:
 835              		.loc 1 224 0
 836 0058 38B9     		cbnz	r0, .L64
 837              		.loc 1 225 0
 838 005a 0D48     		ldr	r0, .L69+20
 839              	.LVL74:
 840 005c FFF7FEFF 		bl	commands_printf
 841              	.LVL75:
 842 0060 D5E7     		b	.L60
 843              	.L63:
 844              	.LBE45:
 845              		.loc 1 230 0
 846 0062 0C48     		ldr	r0, .L69+24
 847 0064 FFF7FEFF 		bl	commands_printf
 848              	.LVL76:
 849 0068 D1E7     		b	.L60
 850              	.LVL77:
 851              	.L64:
 852              	.LBB46:
 853              		.loc 1 227 0
 854 006a 0B48     		ldr	r0, .L69+28
 855              	.LVL78:
ARM GAS  /tmp/ccKiSKFh.s 			page 16


 856 006c FFF7FEFF 		bl	commands_printf
 857              	.LVL79:
 858 0070 CDE7     		b	.L60
 859              	.LVL80:
 860              	.L62:
 861              	.LBE46:
 862              		.loc 1 233 0
 863 0072 0A48     		ldr	r0, .L69+32
 864 0074 FFF7FEFF 		bl	commands_printf
 865              	.LVL81:
 866 0078 C9E7     		b	.L60
 867              	.L70:
 868 007a 00BF     		.align	2
 869              	.L69:
 870 007c 3C000000 		.word	.LC30
 871 0080 00000000 		.word	.LC25
 872 0084 04000000 		.word	.LC26
 873 0088 00000000 		.word	.LANCHOR0
 874 008c 00000000 		.word	.LANCHOR1
 875 0090 08000000 		.word	.LC27
 876 0094 08000000 		.word	.LC1
 877 0098 10000000 		.word	.LC28
 878 009c 24000000 		.word	.LC29
 879              	.LBE44:
 880              	.LBE43:
 881              		.cfi_endproc
 882              	.LFE270:
 883              		.size	terminal_flash_erase, .-terminal_flash_erase
 884              		.section	.text.terminal_attach,"ax",%progbits
 885              		.align	1
 886              		.p2align 4,,15
 887              		.syntax unified
 888              		.thumb
 889              		.thumb_func
 890              		.fpu fpv4-sp-d16
 891              		.type	terminal_attach, %function
 892              	terminal_attach:
 893              	.LFB269:
 894              		.loc 1 187 0
 895              		.cfi_startproc
 896              		@ args = 0, pretend = 0, frame = 8
 897              		@ frame_needed = 0, uses_anonymous_args = 0
 898              	.LVL82:
 899 0000 00B5     		push	{lr}
 900              		.cfi_def_cfa_offset 4
 901              		.cfi_offset 14, -4
 902              		.loc 1 188 0
 903 0002 0228     		cmp	r0, #2
 904              		.loc 1 187 0
 905 0004 83B0     		sub	sp, sp, #12
 906              		.cfi_def_cfa_offset 16
 907              		.loc 1 188 0
 908 0006 05D0     		beq	.L78
 909              		.loc 1 206 0
 910 0008 1748     		ldr	r0, .L79
 911              	.LVL83:
 912 000a FFF7FEFF 		bl	commands_printf
ARM GAS  /tmp/ccKiSKFh.s 			page 17


 913              	.LVL84:
 914              	.L71:
 915              		.loc 1 208 0
 916 000e 03B0     		add	sp, sp, #12
 917              		.cfi_remember_state
 918              		.cfi_def_cfa_offset 4
 919              		@ sp needed
 920 0010 5DF804FB 		ldr	pc, [sp], #4
 921              	.LVL85:
 922              	.L78:
 923              		.cfi_restore_state
 924              	.LBB50:
 925              	.LBB51:
 926              		.loc 1 189 0
 927 0014 02AA     		add	r2, sp, #8
 928 0016 4FF0FF33 		mov	r3, #-1
 929 001a 42F8043D 		str	r3, [r2, #-4]!
 930              		.loc 1 190 0
 931 001e 4868     		ldr	r0, [r1, #4]
 932              	.LVL86:
 933 0020 1249     		ldr	r1, .L79+4
 934              	.LVL87:
 935 0022 FFF7FEFF 		bl	sscanf
 936              	.LVL88:
 937              		.loc 1 192 0
 938 0026 019B     		ldr	r3, [sp, #4]
 939 0028 002B     		cmp	r3, #0
 940 002a 16DB     		blt	.L73
 941              		.loc 1 193 0
 942 002c 0120     		movs	r0, #1
 943 002e FFF7FEFF 		bl	bm_set_enabled
 944              	.LVL89:
 945              		.loc 1 194 0
 946 0032 0F4B     		ldr	r3, .L79+8
 947              		.loc 1 195 0
 948 0034 0F49     		ldr	r1, .L79+12
 949 0036 0198     		ldr	r0, [sp, #4]
 950              		.loc 1 194 0
 951 0038 0122     		movs	r2, #1
 952 003a 1A70     		strb	r2, [r3]
 953              		.loc 1 195 0
 954 003c FFF7FEFF 		bl	target_attach_n
 955              	.LVL90:
 956 0040 0D4B     		ldr	r3, .L79+16
 957 0042 1860     		str	r0, [r3]
 958              		.loc 1 197 0
 959 0044 28B1     		cbz	r0, .L74
 960              		.loc 1 198 0
 961 0046 0D48     		ldr	r0, .L79+20
 962 0048 FFF7FEFF 		bl	commands_printf
 963              	.LVL91:
 964              	.LBE51:
 965              	.LBE50:
 966              		.loc 1 208 0
 967 004c 03B0     		add	sp, sp, #12
 968              		.cfi_remember_state
 969              		.cfi_def_cfa_offset 4
ARM GAS  /tmp/ccKiSKFh.s 			page 18


 970              		@ sp needed
 971 004e 5DF804FB 		ldr	pc, [sp], #4
 972              	.L74:
 973              		.cfi_restore_state
 974              	.LBB53:
 975              	.LBB52:
 976              		.loc 1 200 0
 977 0052 0B48     		ldr	r0, .L79+24
 978 0054 FFF7FEFF 		bl	commands_printf
 979              	.LVL92:
 980 0058 D9E7     		b	.L71
 981              	.L73:
 982              		.loc 1 203 0
 983 005a 0A48     		ldr	r0, .L79+28
 984 005c FFF7FEFF 		bl	commands_printf
 985              	.LVL93:
 986              	.LBE52:
 987              	.LBE53:
 988              		.loc 1 208 0
 989 0060 03B0     		add	sp, sp, #12
 990              		.cfi_def_cfa_offset 4
 991              		@ sp needed
 992 0062 5DF804FB 		ldr	pc, [sp], #4
 993              	.L80:
 994 0066 00BF     		.align	2
 995              	.L79:
 996 0068 30000000 		.word	.LC33
 997 006c 04000000 		.word	.LC26
 998 0070 00000000 		.word	.LANCHOR1
 999 0074 00000000 		.word	.LANCHOR3
 1000 0078 00000000 		.word	.LANCHOR0
 1001 007c 08000000 		.word	.LC27
 1002 0080 00000000 		.word	.LC31
 1003 0084 1C000000 		.word	.LC32
 1004              		.cfi_endproc
 1005              	.LFE269:
 1006              		.size	terminal_attach, .-terminal_attach
 1007              		.section	.text.terminal_swdp_scan,"ax",%progbits
 1008              		.align	1
 1009              		.p2align 4,,15
 1010              		.syntax unified
 1011              		.thumb
 1012              		.thumb_func
 1013              		.fpu fpv4-sp-d16
 1014              		.type	terminal_swdp_scan, %function
 1015              	terminal_swdp_scan:
 1016              	.LFB268:
 1017              		.loc 1 166 0
 1018              		.cfi_startproc
 1019              		@ args = 0, pretend = 0, frame = 0
 1020              		@ frame_needed = 0, uses_anonymous_args = 0
 1021              	.LVL94:
 1022 0000 08B5     		push	{r3, lr}
 1023              		.cfi_def_cfa_offset 8
 1024              		.cfi_offset 3, -8
 1025              		.cfi_offset 14, -4
 1026              		.loc 1 170 0
ARM GAS  /tmp/ccKiSKFh.s 			page 19


 1027 0002 124A     		ldr	r2, .L87
 1028 0004 0123     		movs	r3, #1
 1029              		.loc 1 171 0
 1030 0006 1846     		mov	r0, r3
 1031              	.LVL95:
 1032              		.loc 1 170 0
 1033 0008 1370     		strb	r3, [r2]
 1034              		.loc 1 171 0
 1035 000a FFF7FEFF 		bl	bm_set_enabled
 1036              	.LVL96:
 1037              	.LBB60:
 1038              	.LBB61:
 1039              		.loc 1 156 0
 1040 000e FFF7FEFF 		bl	adiv5_swdp_scan
 1041              	.LVL97:
 1042              		.loc 1 158 0
 1043 0012 0028     		cmp	r0, #0
 1044 0014 10DD     		ble	.L85
 1045              	.LVL98:
 1046              	.L82:
 1047              	.LBE61:
 1048              	.LBE60:
 1049              	.LBB63:
 1050              	.LBB64:
 1051              		.loc 1 178 0
 1052 0016 0E48     		ldr	r0, .L87+4
 1053 0018 FFF7FEFF 		bl	commands_printf
 1054              	.LVL99:
 1055              		.loc 1 179 0
 1056 001c 0D48     		ldr	r0, .L87+8
 1057 001e FFF7FEFF 		bl	commands_printf
 1058              	.LVL100:
 1059              		.loc 1 181 0
 1060 0022 0021     		movs	r1, #0
 1061 0024 0C48     		ldr	r0, .L87+12
 1062 0026 FFF7FEFF 		bl	target_foreach
 1063              	.LVL101:
 1064 002a 00B1     		cbz	r0, .L86
 1065              	.LBE64:
 1066              	.LBE63:
 1067              		.loc 1 185 0
 1068 002c 08BD     		pop	{r3, pc}
 1069              	.L86:
 1070              	.LBB67:
 1071              	.LBB65:
 1072              		.loc 1 182 0
 1073 002e 0B48     		ldr	r0, .L87+16
 1074              	.LBE65:
 1075              	.LBE67:
 1076              		.loc 1 185 0
 1077 0030 BDE80840 		pop	{r3, lr}
 1078              		.cfi_remember_state
 1079              		.cfi_restore 14
 1080              		.cfi_restore 3
 1081              		.cfi_def_cfa_offset 0
 1082              	.LBB68:
 1083              	.LBB66:
ARM GAS  /tmp/ccKiSKFh.s 			page 20


 1084              		.loc 1 182 0
 1085 0034 FFF7FEBF 		b	commands_printf
 1086              	.LVL102:
 1087              	.L85:
 1088              		.cfi_restore_state
 1089              	.LBE66:
 1090              	.LBE68:
 1091              	.LBB69:
 1092              	.LBB62:
 1093              		.loc 1 159 0
 1094 0038 FFF7FEFF 		bl	adiv5_swdp_scan
 1095              	.LVL103:
 1096              	.LBE62:
 1097              	.LBE69:
 1098              		.loc 1 175 0
 1099 003c 0028     		cmp	r0, #0
 1100 003e EADC     		bgt	.L82
 1101              		.loc 1 176 0
 1102 0040 0748     		ldr	r0, .L87+20
 1103              		.loc 1 185 0
 1104 0042 BDE80840 		pop	{r3, lr}
 1105              		.cfi_restore 14
 1106              		.cfi_restore 3
 1107              		.cfi_def_cfa_offset 0
 1108              		.loc 1 176 0
 1109 0046 FFF7FEBF 		b	commands_printf
 1110              	.LVL104:
 1111              	.L88:
 1112 004a 00BF     		.align	2
 1113              	.L87:
 1114 004c 00000000 		.word	.LANCHOR1
 1115 0050 14000000 		.word	.LC35
 1116 0054 28000000 		.word	.LC36
 1117 0058 00000000 		.word	display_target
 1118 005c 38000000 		.word	.LC37
 1119 0060 00000000 		.word	.LC34
 1120              		.cfi_endproc
 1121              	.LFE268:
 1122              		.size	terminal_swdp_scan, .-terminal_swdp_scan
 1123              		.section	.text.terminal_map_nrf5_pins,"ax",%progbits
 1124              		.align	1
 1125              		.p2align 4,,15
 1126              		.syntax unified
 1127              		.thumb
 1128              		.thumb_func
 1129              		.fpu fpv4-sp-d16
 1130              		.type	terminal_map_nrf5_pins, %function
 1131              	terminal_map_nrf5_pins:
 1132              	.LFB275:
 1133              		.loc 1 300 0
 1134              		.cfi_startproc
 1135              		@ args = 0, pretend = 0, frame = 8
 1136              		@ frame_needed = 0, uses_anonymous_args = 0
 1137              	.LVL105:
 1138 0000 30B5     		push	{r4, r5, lr}
 1139              		.cfi_def_cfa_offset 12
 1140              		.cfi_offset 4, -12
ARM GAS  /tmp/ccKiSKFh.s 			page 21


 1141              		.cfi_offset 5, -8
 1142              		.cfi_offset 14, -4
 1143              		.loc 1 304 0
 1144 0002 0228     		cmp	r0, #2
 1145              		.loc 1 300 0
 1146 0004 83B0     		sub	sp, sp, #12
 1147              		.cfi_def_cfa_offset 24
 1148              		.loc 1 304 0
 1149 0006 04D0     		beq	.L96
 1150              		.loc 1 318 0
 1151 0008 1E48     		ldr	r0, .L99
 1152              	.LVL106:
 1153 000a FFF7FEFF 		bl	commands_printf
 1154              	.LVL107:
 1155              	.L89:
 1156              		.loc 1 320 0
 1157 000e 03B0     		add	sp, sp, #12
 1158              		.cfi_remember_state
 1159              		.cfi_def_cfa_offset 12
 1160              		@ sp needed
 1161 0010 30BD     		pop	{r4, r5, pc}
 1162              	.LVL108:
 1163              	.L96:
 1164              		.cfi_restore_state
 1165              	.LBB77:
 1166              	.LBB78:
 1167              		.loc 1 305 0
 1168 0012 02AA     		add	r2, sp, #8
 1169 0014 4FF0FF33 		mov	r3, #-1
 1170 0018 0446     		mov	r4, r0
 1171 001a 42F8043D 		str	r3, [r2, #-4]!
 1172              		.loc 1 306 0
 1173 001e 4868     		ldr	r0, [r1, #4]
 1174              	.LVL109:
 1175 0020 1949     		ldr	r1, .L99+4
 1176              	.LVL110:
 1177 0022 FFF7FEFF 		bl	sscanf
 1178              	.LVL111:
 1179              		.loc 1 308 0
 1180 0026 0198     		ldr	r0, [sp, #4]
 1181 0028 C8B1     		cbz	r0, .L97
 1182              		.loc 1 311 0
 1183 002a 0128     		cmp	r0, #1
 1184 002c 04D0     		beq	.L98
 1185              		.loc 1 315 0
 1186 002e 1748     		ldr	r0, .L99+8
 1187 0030 FFF7FEFF 		bl	commands_printf
 1188              	.LVL112:
 1189              	.LBE78:
 1190              	.LBE77:
 1191              		.loc 1 320 0
 1192 0034 03B0     		add	sp, sp, #12
 1193              		.cfi_remember_state
 1194              		.cfi_def_cfa_offset 12
 1195              		@ sp needed
 1196 0036 30BD     		pop	{r4, r5, pc}
 1197              	.LVL113:
ARM GAS  /tmp/ccKiSKFh.s 			page 22


 1198              	.L98:
 1199              		.cfi_restore_state
 1200              	.LBB88:
 1201              	.LBB87:
 1202              	.LBB79:
 1203              	.LBB80:
 1204              		.loc 1 674 0
 1205 0038 0020     		movs	r0, #0
 1206 003a FFF7FEFF 		bl	bm_set_enabled
 1207              	.LVL114:
 1208              		.loc 1 675 0
 1209 003e 144D     		ldr	r5, .L99+12
 1210 0040 1448     		ldr	r0, .L99+16
 1211              		.loc 1 676 0
 1212 0042 154A     		ldr	r2, .L99+20
 1213              		.loc 1 677 0
 1214 0044 1549     		ldr	r1, .L99+24
 1215              		.loc 1 678 0
 1216 0046 164B     		ldr	r3, .L99+28
 1217              		.loc 1 675 0
 1218 0048 0560     		str	r5, [r0]
 1219              		.loc 1 676 0
 1220 004a 1460     		str	r4, [r2]
 1221              		.loc 1 677 0
 1222 004c A5F58065 		sub	r5, r5, #1024
 1223              		.loc 1 678 0
 1224 0050 0C22     		movs	r2, #12
 1225              	.LBE80:
 1226              	.LBE79:
 1227              		.loc 1 313 0
 1228 0052 1448     		ldr	r0, .L99+32
 1229              	.LBB82:
 1230              	.LBB81:
 1231              		.loc 1 677 0
 1232 0054 0D60     		str	r5, [r1]
 1233              		.loc 1 678 0
 1234 0056 1A60     		str	r2, [r3]
 1235              	.LVL115:
 1236              	.LBE81:
 1237              	.LBE82:
 1238              		.loc 1 313 0
 1239 0058 FFF7FEFF 		bl	commands_printf
 1240              	.LVL116:
 1241 005c D7E7     		b	.L89
 1242              	.L97:
 1243              	.LBB83:
 1244              	.LBB84:
 1245              		.loc 1 686 0
 1246 005e 0D4C     		ldr	r4, .L99+16
 1247              	.LVL117:
 1248              		.loc 1 688 0
 1249 0060 0E4D     		ldr	r5, .L99+24
 1250              		.loc 1 685 0
 1251 0062 FFF7FEFF 		bl	bm_set_enabled
 1252              	.LVL118:
 1253              		.loc 1 687 0
 1254 0066 0C49     		ldr	r1, .L99+20
ARM GAS  /tmp/ccKiSKFh.s 			page 23


 1255              		.loc 1 689 0
 1256 0068 0D4A     		ldr	r2, .L99+28
 1257              		.loc 1 686 0
 1258 006a 0F4B     		ldr	r3, .L99+36
 1259 006c 2360     		str	r3, [r4]
 1260              		.loc 1 688 0
 1261 006e 2B60     		str	r3, [r5]
 1262              	.LBE84:
 1263              	.LBE83:
 1264              		.loc 1 310 0
 1265 0070 0E48     		ldr	r0, .L99+40
 1266              	.LBB86:
 1267              	.LBB85:
 1268              		.loc 1 689 0
 1269 0072 0E23     		movs	r3, #14
 1270              		.loc 1 687 0
 1271 0074 0D24     		movs	r4, #13
 1272 0076 0C60     		str	r4, [r1]
 1273              		.loc 1 689 0
 1274 0078 1360     		str	r3, [r2]
 1275              	.LBE85:
 1276              	.LBE86:
 1277              		.loc 1 310 0
 1278 007a FFF7FEFF 		bl	commands_printf
 1279              	.LVL119:
 1280              	.LBE87:
 1281              	.LBE88:
 1282              		.loc 1 320 0
 1283 007e 03B0     		add	sp, sp, #12
 1284              		.cfi_def_cfa_offset 12
 1285              		@ sp needed
 1286 0080 30BD     		pop	{r4, r5, pc}
 1287              	.L100:
 1288 0082 00BF     		.align	2
 1289              	.L99:
 1290 0084 30000000 		.word	.LC33
 1291 0088 04000000 		.word	.LC26
 1292 008c 30000000 		.word	.LC40
 1293 0090 000C0240 		.word	1073875968
 1294 0094 00000000 		.word	platform_swdio_port
 1295 0098 00000000 		.word	platform_swdio_pin
 1296 009c 00000000 		.word	platform_swclk_port
 1297 00a0 00000000 		.word	platform_swclk_pin
 1298 00a4 1C000000 		.word	.LC39
 1299 00a8 00000240 		.word	1073872896
 1300 00ac 00000000 		.word	.LC38
 1301              		.cfi_endproc
 1302              	.LFE275:
 1303              		.size	terminal_map_nrf5_pins, .-terminal_map_nrf5_pins
 1304              		.section	.text.bm_erase_flash_all,"ax",%progbits
 1305              		.align	1
 1306              		.p2align 4,,15
 1307              		.global	bm_erase_flash_all
 1308              		.syntax unified
 1309              		.thumb
 1310              		.thumb_func
 1311              		.fpu fpv4-sp-d16
ARM GAS  /tmp/ccKiSKFh.s 			page 24


 1312              		.type	bm_erase_flash_all, %function
 1313              	bm_erase_flash_all:
 1314              	.LFB279:
 1315              		.loc 1 456 0
 1316              		.cfi_startproc
 1317              		@ args = 0, pretend = 0, frame = 8
 1318              		@ frame_needed = 0, uses_anonymous_args = 0
 1319              	.LVL120:
 1320 0000 10B5     		push	{r4, lr}
 1321              		.cfi_def_cfa_offset 8
 1322              		.cfi_offset 4, -8
 1323              		.cfi_offset 14, -4
 1324              		.loc 1 459 0
 1325 0002 0D4C     		ldr	r4, .L107
 1326 0004 2068     		ldr	r0, [r4]
 1327              		.loc 1 456 0
 1328 0006 82B0     		sub	sp, sp, #8
 1329              		.cfi_def_cfa_offset 16
 1330              		.loc 1 459 0
 1331 0008 98B1     		cbz	r0, .L104
 1332              	.LBB89:
 1333              		.loc 1 460 0
 1334 000a 0C4B     		ldr	r3, .L107+4
 1335 000c 0022     		movs	r2, #0
 1336 000e 1A70     		strb	r2, [r3]
 1337              		.loc 1 462 0
 1338 0010 FFF7FEFF 		bl	target_reset
 1339              	.LVL121:
 1340              		.loc 1 464 0
 1341 0014 02AA     		add	r2, sp, #8
 1342 0016 0A4B     		ldr	r3, .L107+8
 1343 0018 42F8043D 		str	r3, [r2, #-4]!
 1344              		.loc 1 465 0
 1345 001c 2068     		ldr	r0, [r4]
 1346 001e 0121     		movs	r1, #1
 1347 0020 FFF7FEFF 		bl	target_command
 1348              	.LVL122:
 1349 0024 0028     		cmp	r0, #0
 1350 0026 14BF     		ite	ne
 1351 0028 6FF00200 		mvnne	r0, #2
 1352 002c 0120     		moveq	r0, #1
 1353              	.L101:
 1354              	.LBE89:
 1355              		.loc 1 504 0
 1356 002e 02B0     		add	sp, sp, #8
 1357              		.cfi_remember_state
 1358              		.cfi_def_cfa_offset 8
 1359              		@ sp needed
 1360 0030 10BD     		pop	{r4, pc}
 1361              	.L104:
 1362              		.cfi_restore_state
 1363              		.loc 1 457 0
 1364 0032 4FF0FF30 		mov	r0, #-1
 1365              		.loc 1 503 0
 1366 0036 FAE7     		b	.L101
 1367              	.L108:
 1368              		.align	2
ARM GAS  /tmp/ccKiSKFh.s 			page 25


 1369              	.L107:
 1370 0038 00000000 		.word	.LANCHOR0
 1371 003c 00000000 		.word	.LANCHOR1
 1372 0040 00000000 		.word	.LC41
 1373              		.cfi_endproc
 1374              	.LFE279:
 1375              		.size	bm_erase_flash_all, .-bm_erase_flash_all
 1376              		.section	.text.bm_write_flash,"ax",%progbits
 1377              		.align	1
 1378              		.p2align 4,,15
 1379              		.global	bm_write_flash
 1380              		.syntax unified
 1381              		.thumb
 1382              		.thumb_func
 1383              		.fpu fpv4-sp-d16
 1384              		.type	bm_write_flash, %function
 1385              	bm_write_flash:
 1386              	.LFB280:
 1387              		.loc 1 523 0
 1388              		.cfi_startproc
 1389              		@ args = 0, pretend = 0, frame = 0
 1390              		@ frame_needed = 0, uses_anonymous_args = 0
 1391              	.LVL123:
 1392 0000 38B5     		push	{r3, r4, r5, lr}
 1393              		.cfi_def_cfa_offset 16
 1394              		.cfi_offset 3, -16
 1395              		.cfi_offset 4, -12
 1396              		.cfi_offset 5, -8
 1397              		.cfi_offset 14, -4
 1398              		.loc 1 526 0
 1399 0002 0A4B     		ldr	r3, .L114
 1400 0004 1C68     		ldr	r4, [r3]
 1401 0006 74B1     		cbz	r4, .L111
 1402              		.loc 1 527 0
 1403 0008 094D     		ldr	r5, .L114+4
 1404 000a 1346     		mov	r3, r2
 1405 000c 0A46     		mov	r2, r1
 1406              	.LVL124:
 1407 000e 0146     		mov	r1, r0
 1408              	.LVL125:
 1409              		.loc 1 528 0
 1410 0010 2046     		mov	r0, r4
 1411              	.LVL126:
 1412              		.loc 1 527 0
 1413 0012 0024     		movs	r4, #0
 1414 0014 2C70     		strb	r4, [r5]
 1415              		.loc 1 528 0
 1416 0016 FFF7FEFF 		bl	target_flash_write
 1417              	.LVL127:
 1418 001a A042     		cmp	r0, r4
 1419 001c 14BF     		ite	ne
 1420 001e 6FF00100 		mvnne	r0, #1
 1421 0022 0120     		moveq	r0, #1
 1422              		.loc 1 532 0
 1423 0024 38BD     		pop	{r3, r4, r5, pc}
 1424              	.LVL128:
 1425              	.L111:
ARM GAS  /tmp/ccKiSKFh.s 			page 26


 1426              		.loc 1 524 0
 1427 0026 4FF0FF30 		mov	r0, #-1
 1428              	.LVL129:
 1429              		.loc 1 532 0
 1430 002a 38BD     		pop	{r3, r4, r5, pc}
 1431              	.L115:
 1432              		.align	2
 1433              	.L114:
 1434 002c 00000000 		.word	.LANCHOR0
 1435 0030 00000000 		.word	.LANCHOR1
 1436              		.cfi_endproc
 1437              	.LFE280:
 1438              		.size	bm_write_flash, .-bm_write_flash
 1439              		.section	.text.bm_mem_write,"ax",%progbits
 1440              		.align	1
 1441              		.p2align 4,,15
 1442              		.global	bm_mem_write
 1443              		.syntax unified
 1444              		.thumb
 1445              		.thumb_func
 1446              		.fpu fpv4-sp-d16
 1447              		.type	bm_mem_write, %function
 1448              	bm_mem_write:
 1449              	.LFB281:
 1450              		.loc 1 551 0
 1451              		.cfi_startproc
 1452              		@ args = 0, pretend = 0, frame = 0
 1453              		@ frame_needed = 0, uses_anonymous_args = 0
 1454              	.LVL130:
 1455 0000 38B5     		push	{r3, r4, r5, lr}
 1456              		.cfi_def_cfa_offset 16
 1457              		.cfi_offset 3, -16
 1458              		.cfi_offset 4, -12
 1459              		.cfi_offset 5, -8
 1460              		.cfi_offset 14, -4
 1461              		.loc 1 554 0
 1462 0002 0A4B     		ldr	r3, .L121
 1463 0004 1C68     		ldr	r4, [r3]
 1464 0006 74B1     		cbz	r4, .L118
 1465              		.loc 1 555 0
 1466 0008 094D     		ldr	r5, .L121+4
 1467 000a 1346     		mov	r3, r2
 1468 000c 0A46     		mov	r2, r1
 1469              	.LVL131:
 1470 000e 0146     		mov	r1, r0
 1471              	.LVL132:
 1472              		.loc 1 556 0
 1473 0010 2046     		mov	r0, r4
 1474              	.LVL133:
 1475              		.loc 1 555 0
 1476 0012 0024     		movs	r4, #0
 1477 0014 2C70     		strb	r4, [r5]
 1478              		.loc 1 556 0
 1479 0016 FFF7FEFF 		bl	target_mem_write
 1480              	.LVL134:
 1481 001a A042     		cmp	r0, r4
 1482 001c 14BF     		ite	ne
ARM GAS  /tmp/ccKiSKFh.s 			page 27


 1483 001e 6FF00100 		mvnne	r0, #1
 1484 0022 0120     		moveq	r0, #1
 1485              		.loc 1 560 0
 1486 0024 38BD     		pop	{r3, r4, r5, pc}
 1487              	.LVL135:
 1488              	.L118:
 1489              		.loc 1 552 0
 1490 0026 4FF0FF30 		mov	r0, #-1
 1491              	.LVL136:
 1492              		.loc 1 560 0
 1493 002a 38BD     		pop	{r3, r4, r5, pc}
 1494              	.L122:
 1495              		.align	2
 1496              	.L121:
 1497 002c 00000000 		.word	.LANCHOR0
 1498 0030 00000000 		.word	.LANCHOR1
 1499              		.cfi_endproc
 1500              	.LFE281:
 1501              		.size	bm_mem_write, .-bm_mem_write
 1502              		.section	.text.bm_mem_read,"ax",%progbits
 1503              		.align	1
 1504              		.p2align 4,,15
 1505              		.global	bm_mem_read
 1506              		.syntax unified
 1507              		.thumb
 1508              		.thumb_func
 1509              		.fpu fpv4-sp-d16
 1510              		.type	bm_mem_read, %function
 1511              	bm_mem_read:
 1512              	.LFB282:
 1513              		.loc 1 579 0
 1514              		.cfi_startproc
 1515              		@ args = 0, pretend = 0, frame = 0
 1516              		@ frame_needed = 0, uses_anonymous_args = 0
 1517              	.LVL137:
 1518 0000 F8B5     		push	{r3, r4, r5, r6, r7, lr}
 1519              		.cfi_def_cfa_offset 24
 1520              		.cfi_offset 3, -24
 1521              		.cfi_offset 4, -20
 1522              		.cfi_offset 5, -16
 1523              		.cfi_offset 6, -12
 1524              		.cfi_offset 7, -8
 1525              		.cfi_offset 14, -4
 1526              		.loc 1 582 0
 1527 0002 0D4F     		ldr	r7, .L128
 1528 0004 3B68     		ldr	r3, [r7]
 1529 0006 A3B1     		cbz	r3, .L125
 1530 0008 1646     		mov	r6, r2
 1531              		.loc 1 583 0
 1532 000a 0C4A     		ldr	r2, .L128+4
 1533              	.LVL138:
 1534 000c 0C46     		mov	r4, r1
 1535 000e 0546     		mov	r5, r0
 1536              		.loc 1 584 0
 1537 0010 1846     		mov	r0, r3
 1538              	.LVL139:
 1539              		.loc 1 583 0
ARM GAS  /tmp/ccKiSKFh.s 			page 28


 1540 0012 0023     		movs	r3, #0
 1541 0014 1370     		strb	r3, [r2]
 1542              		.loc 1 584 0
 1543 0016 FFF7FEFF 		bl	target_flash_done
 1544              	.LVL140:
 1545              		.loc 1 585 0
 1546 001a 3346     		mov	r3, r6
 1547 001c 2A46     		mov	r2, r5
 1548 001e 2146     		mov	r1, r4
 1549 0020 3868     		ldr	r0, [r7]
 1550 0022 FFF7FEFF 		bl	target_mem_read
 1551              	.LVL141:
 1552 0026 0028     		cmp	r0, #0
 1553 0028 14BF     		ite	ne
 1554 002a 6FF00100 		mvnne	r0, #1
 1555 002e 0120     		moveq	r0, #1
 1556              		.loc 1 589 0
 1557 0030 F8BD     		pop	{r3, r4, r5, r6, r7, pc}
 1558              	.LVL142:
 1559              	.L125:
 1560              		.loc 1 580 0
 1561 0032 4FF0FF30 		mov	r0, #-1
 1562              	.LVL143:
 1563              		.loc 1 589 0
 1564 0036 F8BD     		pop	{r3, r4, r5, r6, r7, pc}
 1565              	.L129:
 1566              		.align	2
 1567              	.L128:
 1568 0038 00000000 		.word	.LANCHOR0
 1569 003c 00000000 		.word	.LANCHOR1
 1570              		.cfi_endproc
 1571              	.LFE282:
 1572              		.size	bm_mem_read, .-bm_mem_read
 1573              		.section	.text.bm_reboot,"ax",%progbits
 1574              		.align	1
 1575              		.p2align 4,,15
 1576              		.global	bm_reboot
 1577              		.syntax unified
 1578              		.thumb
 1579              		.thumb_func
 1580              		.fpu fpv4-sp-d16
 1581              		.type	bm_reboot, %function
 1582              	bm_reboot:
 1583              	.LFB283:
 1584              		.loc 1 599 0
 1585              		.cfi_startproc
 1586              		@ args = 0, pretend = 0, frame = 0
 1587              		@ frame_needed = 0, uses_anonymous_args = 0
 1588              	.LVL144:
 1589 0000 10B5     		push	{r4, lr}
 1590              		.cfi_def_cfa_offset 8
 1591              		.cfi_offset 4, -8
 1592              		.cfi_offset 14, -4
 1593              		.loc 1 602 0
 1594 0002 0A4C     		ldr	r4, .L136
 1595 0004 2068     		ldr	r0, [r4]
 1596 0006 70B1     		cbz	r0, .L133
ARM GAS  /tmp/ccKiSKFh.s 			page 29


 1597              		.loc 1 603 0
 1598 0008 094B     		ldr	r3, .L136+4
 1599 000a 0022     		movs	r2, #0
 1600 000c 1A70     		strb	r2, [r3]
 1601              		.loc 1 604 0
 1602 000e FFF7FEFF 		bl	target_flash_done
 1603              	.LVL145:
 1604 0012 0028     		cmp	r0, #0
 1605              		.loc 1 605 0
 1606 0014 2068     		ldr	r0, [r4]
 1607              		.loc 1 604 0
 1608 0016 14BF     		ite	ne
 1609 0018 6FF00104 		mvnne	r4, #1
 1610 001c 0124     		moveq	r4, #1
 1611              	.LVL146:
 1612              		.loc 1 605 0
 1613 001e FFF7FEFF 		bl	target_reset
 1614              	.LVL147:
 1615              	.L130:
 1616              		.loc 1 609 0
 1617 0022 2046     		mov	r0, r4
 1618 0024 10BD     		pop	{r4, pc}
 1619              	.LVL148:
 1620              	.L133:
 1621              		.loc 1 600 0
 1622 0026 4FF0FF34 		mov	r4, #-1
 1623              		.loc 1 608 0
 1624 002a FAE7     		b	.L130
 1625              	.L137:
 1626              		.align	2
 1627              	.L136:
 1628 002c 00000000 		.word	.LANCHOR0
 1629 0030 00000000 		.word	.LANCHOR1
 1630              		.cfi_endproc
 1631              	.LFE283:
 1632              		.size	bm_reboot, .-bm_reboot
 1633              		.section	.text.bm_halt_req,"ax",%progbits
 1634              		.align	1
 1635              		.p2align 4,,15
 1636              		.global	bm_halt_req
 1637              		.syntax unified
 1638              		.thumb
 1639              		.thumb_func
 1640              		.fpu fpv4-sp-d16
 1641              		.type	bm_halt_req, %function
 1642              	bm_halt_req:
 1643              	.LFB284:
 1644              		.loc 1 614 0
 1645              		.cfi_startproc
 1646              		@ args = 0, pretend = 0, frame = 0
 1647              		@ frame_needed = 0, uses_anonymous_args = 0
 1648              		@ link register save eliminated.
 1649              		.loc 1 615 0
 1650 0000 044B     		ldr	r3, .L140
 1651 0002 1868     		ldr	r0, [r3]
 1652 0004 20B1     		cbz	r0, .L138
 1653              		.loc 1 616 0
ARM GAS  /tmp/ccKiSKFh.s 			page 30


 1654 0006 044B     		ldr	r3, .L140+4
 1655 0008 0022     		movs	r2, #0
 1656 000a 1A70     		strb	r2, [r3]
 1657              		.loc 1 617 0
 1658 000c FFF7FEBF 		b	target_halt_request
 1659              	.LVL149:
 1660              	.L138:
 1661              		.loc 1 619 0
 1662 0010 7047     		bx	lr
 1663              	.L141:
 1664 0012 00BF     		.align	2
 1665              	.L140:
 1666 0014 00000000 		.word	.LANCHOR0
 1667 0018 00000000 		.word	.LANCHOR1
 1668              		.cfi_endproc
 1669              	.LFE284:
 1670              		.size	bm_halt_req, .-bm_halt_req
 1671              		.section	.text.bm_leave_nrf_debug_mode,"ax",%progbits
 1672              		.align	1
 1673              		.p2align 4,,15
 1674              		.global	bm_leave_nrf_debug_mode
 1675              		.syntax unified
 1676              		.thumb
 1677              		.thumb_func
 1678              		.fpu fpv4-sp-d16
 1679              		.type	bm_leave_nrf_debug_mode, %function
 1680              	bm_leave_nrf_debug_mode:
 1681              	.LFB285:
 1682              		.loc 1 625 0
 1683              		.cfi_startproc
 1684              		@ args = 0, pretend = 0, frame = 0
 1685              		@ frame_needed = 0, uses_anonymous_args = 0
 1686 0000 38B5     		push	{r3, r4, r5, lr}
 1687              		.cfi_def_cfa_offset 16
 1688              		.cfi_offset 3, -16
 1689              		.cfi_offset 4, -12
 1690              		.cfi_offset 5, -8
 1691              		.cfi_offset 14, -4
 1692              		.loc 1 628 0
 1693 0002 164D     		ldr	r5, .L152
 1694              		.loc 1 626 0
 1695 0004 0120     		movs	r0, #1
 1696 0006 FFF7FEFF 		bl	bm_set_enabled
 1697              	.LVL150:
 1698              		.loc 1 628 0
 1699 000a 2C68     		ldr	r4, [r5]
 1700 000c B4B1     		cbz	r4, .L149
 1701              	.L143:
 1702              		.loc 1 633 0
 1703 000e 0622     		movs	r2, #6
 1704 0010 1349     		ldr	r1, .L152+4
 1705 0012 206E     		ldr	r0, [r4, #96]
 1706 0014 FFF7FEFF 		bl	strncmp
 1707              	.LVL151:
 1708 0018 20B1     		cbz	r0, .L150
 1709              		.loc 1 638 0
 1710 001a 0020     		movs	r0, #0
ARM GAS  /tmp/ccKiSKFh.s 			page 31


 1711              		.loc 1 639 0
 1712 001c BDE83840 		pop	{r3, r4, r5, lr}
 1713              		.cfi_remember_state
 1714              		.cfi_restore 14
 1715              		.cfi_restore 5
 1716              		.cfi_restore 4
 1717              		.cfi_restore 3
 1718              		.cfi_def_cfa_offset 0
 1719              		.loc 1 638 0
 1720 0020 FFF7FEBF 		b	bm_set_enabled
 1721              	.LVL152:
 1722              	.L150:
 1723              		.cfi_restore_state
 1724              		.loc 1 634 0
 1725 0024 E36E     		ldr	r3, [r4, #108]
 1726 0026 1B68     		ldr	r3, [r3]
 1727 0028 0246     		mov	r2, r0
 1728 002a 0421     		movs	r1, #4
 1729 002c 5868     		ldr	r0, [r3, #4]
 1730 002e FFF7FEFF 		bl	adiv5_dp_write
 1731              	.LVL153:
 1732              		.loc 1 638 0
 1733 0032 0020     		movs	r0, #0
 1734              		.loc 1 639 0
 1735 0034 BDE83840 		pop	{r3, r4, r5, lr}
 1736              		.cfi_remember_state
 1737              		.cfi_restore 14
 1738              		.cfi_restore 5
 1739              		.cfi_restore 4
 1740              		.cfi_restore 3
 1741              		.cfi_def_cfa_offset 0
 1742              		.loc 1 638 0
 1743 0038 FFF7FEBF 		b	bm_set_enabled
 1744              	.LVL154:
 1745              	.L149:
 1746              		.cfi_restore_state
 1747              	.LBB92:
 1748              	.LBB93:
 1749              		.loc 1 156 0
 1750 003c FFF7FEFF 		bl	adiv5_swdp_scan
 1751              	.LVL155:
 1752              		.loc 1 158 0
 1753 0040 0028     		cmp	r0, #0
 1754 0042 07DD     		ble	.L151
 1755              	.LVL156:
 1756              	.L144:
 1757              	.LBE93:
 1758              	.LBE92:
 1759              		.loc 1 632 0
 1760 0044 2C68     		ldr	r4, [r5]
 1761 0046 002C     		cmp	r4, #0
 1762 0048 E1D1     		bne	.L143
 1763              		.loc 1 638 0
 1764 004a 0020     		movs	r0, #0
 1765              		.loc 1 639 0
 1766 004c BDE83840 		pop	{r3, r4, r5, lr}
 1767              		.cfi_remember_state
ARM GAS  /tmp/ccKiSKFh.s 			page 32


 1768              		.cfi_restore 14
 1769              		.cfi_restore 5
 1770              		.cfi_restore 4
 1771              		.cfi_restore 3
 1772              		.cfi_def_cfa_offset 0
 1773              		.loc 1 638 0
 1774 0050 FFF7FEBF 		b	bm_set_enabled
 1775              	.LVL157:
 1776              	.L151:
 1777              		.cfi_restore_state
 1778              	.LBB95:
 1779              	.LBB94:
 1780              		.loc 1 159 0
 1781 0054 FFF7FEFF 		bl	adiv5_swdp_scan
 1782              	.LVL158:
 1783 0058 F4E7     		b	.L144
 1784              	.L153:
 1785 005a 00BF     		.align	2
 1786              	.L152:
 1787 005c 00000000 		.word	target_list
 1788 0060 00000000 		.word	.LC42
 1789              	.LBE94:
 1790              	.LBE95:
 1791              		.cfi_endproc
 1792              	.LFE285:
 1793              		.size	bm_leave_nrf_debug_mode, .-bm_leave_nrf_debug_mode
 1794              		.section	.text.bm_disconnect,"ax",%progbits
 1795              		.align	1
 1796              		.p2align 4,,15
 1797              		.global	bm_disconnect
 1798              		.syntax unified
 1799              		.thumb
 1800              		.thumb_func
 1801              		.fpu fpv4-sp-d16
 1802              		.type	bm_disconnect, %function
 1803              	bm_disconnect:
 1804              	.LFB286:
 1805              		.loc 1 644 0
 1806              		.cfi_startproc
 1807              		@ args = 0, pretend = 0, frame = 0
 1808              		@ frame_needed = 0, uses_anonymous_args = 0
 1809 0000 38B5     		push	{r3, r4, r5, lr}
 1810              		.cfi_def_cfa_offset 16
 1811              		.cfi_offset 3, -16
 1812              		.cfi_offset 4, -12
 1813              		.cfi_offset 5, -8
 1814              		.cfi_offset 14, -4
 1815              		.loc 1 645 0
 1816 0002 094C     		ldr	r4, .L160
 1817 0004 2068     		ldr	r0, [r4]
 1818 0006 40B1     		cbz	r0, .L155
 1819              		.loc 1 646 0
 1820 0008 084B     		ldr	r3, .L160+4
 1821 000a 0025     		movs	r5, #0
 1822 000c 1D70     		strb	r5, [r3]
 1823              		.loc 1 647 0
 1824 000e FFF7FEFF 		bl	target_flash_done
ARM GAS  /tmp/ccKiSKFh.s 			page 33


 1825              	.LVL159:
 1826              		.loc 1 648 0
 1827 0012 2068     		ldr	r0, [r4]
 1828 0014 FFF7FEFF 		bl	target_detach
 1829              	.LVL160:
 1830              		.loc 1 649 0
 1831 0018 2560     		str	r5, [r4]
 1832              	.L155:
 1833              		.loc 1 652 0
 1834 001a FFF7FEFF 		bl	bm_leave_nrf_debug_mode
 1835              	.LVL161:
 1836              		.loc 1 654 0
 1837 001e 0020     		movs	r0, #0
 1838              		.loc 1 655 0
 1839 0020 BDE83840 		pop	{r3, r4, r5, lr}
 1840              		.cfi_restore 14
 1841              		.cfi_restore 5
 1842              		.cfi_restore 4
 1843              		.cfi_restore 3
 1844              		.cfi_def_cfa_offset 0
 1845              		.loc 1 654 0
 1846 0024 FFF7FEBF 		b	bm_set_enabled
 1847              	.LVL162:
 1848              	.L161:
 1849              		.align	2
 1850              	.L160:
 1851 0028 00000000 		.word	.LANCHOR0
 1852 002c 00000000 		.word	.LANCHOR1
 1853              		.cfi_endproc
 1854              	.LFE286:
 1855              		.size	bm_disconnect, .-bm_disconnect
 1856              		.section	.text.bm_connect,"ax",%progbits
 1857              		.align	1
 1858              		.p2align 4,,15
 1859              		.global	bm_connect
 1860              		.syntax unified
 1861              		.thumb
 1862              		.thumb_func
 1863              		.fpu fpv4-sp-d16
 1864              		.type	bm_connect, %function
 1865              	bm_connect:
 1866              	.LFB278:
 1867              		.loc 1 421 0
 1868              		.cfi_startproc
 1869              		@ args = 0, pretend = 0, frame = 0
 1870              		@ frame_needed = 0, uses_anonymous_args = 0
 1871              	.LVL163:
 1872 0000 10B5     		push	{r4, lr}
 1873              		.cfi_def_cfa_offset 8
 1874              		.cfi_offset 4, -8
 1875              		.cfi_offset 14, -4
 1876              		.loc 1 424 0
 1877 0002 0120     		movs	r0, #1
 1878 0004 FFF7FEFF 		bl	bm_set_enabled
 1879              	.LVL164:
 1880              		.loc 1 425 0
 1881 0008 5D4B     		ldr	r3, .L274
ARM GAS  /tmp/ccKiSKFh.s 			page 34


 1882 000a 0022     		movs	r2, #0
 1883 000c 1A70     		strb	r2, [r3]
 1884              	.LBB100:
 1885              	.LBB101:
 1886              		.loc 1 156 0
 1887 000e FFF7FEFF 		bl	adiv5_swdp_scan
 1888              	.LVL165:
 1889              		.loc 1 158 0
 1890 0012 0028     		cmp	r0, #0
 1891 0014 2BDD     		ble	.L163
 1892              	.LVL166:
 1893              	.L166:
 1894              	.LBE101:
 1895              	.LBE100:
 1896              		.loc 1 430 0
 1897 0016 5B49     		ldr	r1, .L274+4
 1898 0018 5B4C     		ldr	r4, .L274+8
 1899 001a 0120     		movs	r0, #1
 1900 001c FFF7FEFF 		bl	target_attach_n
 1901              	.LVL167:
 1902 0020 2060     		str	r0, [r4]
 1903              		.loc 1 432 0
 1904 0022 40B3     		cbz	r0, .L165
 1905              		.loc 1 433 0
 1906 0024 FFF7FEFF 		bl	target_idcode
 1907              	.LVL168:
 1908              	.LBB103:
 1909              	.LBB104:
 1910              		.loc 1 85 0
 1911 0028 7A28     		cmp	r0, #122
 1912 002a 34D9     		bls	.L265
 1913 002c B0F58A7F 		cmp	r0, #276
 1914 0030 54D0     		beq	.L169
 1915 0032 26D9     		bls	.L266
 1916 0034 B0F5A87F 		cmp	r0, #336
 1917 0038 47D0     		beq	.L183
 1918 003a 51D9     		bls	.L267
 1919 003c 40F21343 		movw	r3, #1043
 1920 0040 9842     		cmp	r0, r3
 1921 0042 5ED0     		beq	.L191
 1922 0044 6AD9     		bls	.L268
 1923 0046 40F21543 		movw	r3, #1045
 1924 004a 9842     		cmp	r0, r3
 1925 004c 34D0     		beq	.L188
 1926 004e 40F22243 		movw	r3, #1058
 1927 0052 9842     		cmp	r0, r3
 1928              		.loc 1 145 0
 1929 0054 08BF     		it	eq
 1930 0056 0924     		moveq	r4, #9
 1931              		.loc 1 85 0
 1932 0058 11D0     		beq	.L162
 1933              	.LVL169:
 1934              	.L167:
 1935              	.LBE104:
 1936              	.LBE103:
 1937              		.loc 1 435 0
 1938 005a 2068     		ldr	r0, [r4]
ARM GAS  /tmp/ccKiSKFh.s 			page 35


 1939 005c FFF7FEFF 		bl	target_idcode
 1940              	.LVL170:
 1941 0060 0146     		mov	r1, r0
 1942 0062 4A48     		ldr	r0, .L274+12
 1943 0064 FFF7FEFF 		bl	commands_printf
 1944              	.LVL171:
 1945              	.LBB108:
 1946              	.LBB105:
 1947              		.loc 1 149 0
 1948 0068 6FF00104 		mvn	r4, #1
 1949 006c 05E0     		b	.L190
 1950              	.LVL172:
 1951              	.L163:
 1952              	.LBE105:
 1953              	.LBE108:
 1954              	.LBB109:
 1955              	.LBB102:
 1956              		.loc 1 159 0
 1957 006e FFF7FEFF 		bl	adiv5_swdp_scan
 1958              	.LVL173:
 1959              	.LBE102:
 1960              	.LBE109:
 1961              		.loc 1 429 0
 1962 0072 0028     		cmp	r0, #0
 1963 0074 CFDC     		bgt	.L166
 1964              	.L165:
 1965              		.loc 1 422 0
 1966 0076 4FF0FF34 		mov	r4, #-1
 1967              	.LVL174:
 1968              	.L190:
 1969              		.loc 1 441 0
 1970 007a FFF7FEFF 		bl	bm_disconnect
 1971              	.LVL175:
 1972              	.L162:
 1973              		.loc 1 445 0
 1974 007e 2046     		mov	r0, r4
 1975 0080 10BD     		pop	{r4, pc}
 1976              	.LVL176:
 1977              	.L266:
 1978              	.LBB110:
 1979              	.LBB106:
 1980              		.loc 1 85 0
 1981 0082 8F28     		cmp	r0, #143
 1982 0084 2AD0     		beq	.L169
 1983 0086 19D8     		bhi	.L180
 1984 0088 7E28     		cmp	r0, #126
 1985 008a 13D9     		bls	.L172
 1986 008c 8338     		subs	r0, r0, #131
 1987              	.LVL177:
 1988 008e 0528     		cmp	r0, #5
 1989 0090 E3D8     		bhi	.L167
 1990              	.LVL178:
 1991              	.L177:
 1992              		.loc 1 130 0
 1993 0092 0424     		movs	r4, #4
 1994 0094 F3E7     		b	.L162
 1995              	.LVL179:
ARM GAS  /tmp/ccKiSKFh.s 			page 36


 1996              	.L265:
 1997              		.loc 1 85 0
 1998 0096 7928     		cmp	r0, #121
 1999 0098 20D2     		bcs	.L169
 2000 009a 4028     		cmp	r0, #64
 2001 009c 1ED0     		beq	.L169
 2002 009e 32D9     		bls	.L269
 2003 00a0 5028     		cmp	r0, #80
 2004 00a2 1BD0     		beq	.L169
 2005 00a4 13D9     		bls	.L270
 2006 00a6 7128     		cmp	r0, #113
 2007 00a8 F3D0     		beq	.L177
 2008 00aa 64D8     		bhi	.L178
 2009 00ac 5728     		cmp	r0, #87
 2010 00ae 15D0     		beq	.L169
 2011 00b0 6128     		cmp	r0, #97
 2012 00b2 D2D1     		bne	.L167
 2013              	.L172:
 2014              	.LVL180:
 2015              		.loc 1 122 0
 2016 00b4 0224     		movs	r4, #2
 2017 00b6 E2E7     		b	.L162
 2018              	.LVL181:
 2019              	.L188:
 2020              		.loc 1 147 0
 2021 00b8 0A24     		movs	r4, #10
 2022 00ba E0E7     		b	.L162
 2023              	.L180:
 2024              		.loc 1 85 0
 2025 00bc D128     		cmp	r0, #209
 2026 00be 0DD0     		beq	.L169
 2027 00c0 35D9     		bls	.L271
 2028 00c2 E328     		cmp	r0, #227
 2029 00c4 1BD0     		beq	.L182
 2030 00c6 EB28     		cmp	r0, #235
 2031 00c8 C7D1     		bne	.L167
 2032              	.L183:
 2033              	.LVL182:
 2034              		.loc 1 143 0
 2035 00ca 0824     		movs	r4, #8
 2036 00cc D7E7     		b	.L162
 2037              	.LVL183:
 2038              	.L270:
 2039              		.loc 1 85 0
 2040 00ce 4A28     		cmp	r0, #74
 2041 00d0 04D0     		beq	.L169
 2042 00d2 46D9     		bls	.L272
 2043 00d4 4C28     		cmp	r0, #76
 2044 00d6 EDD0     		beq	.L172
 2045 00d8 4D28     		cmp	r0, #77
 2046 00da BED1     		bne	.L167
 2047              	.LVL184:
 2048              	.L169:
 2049              		.loc 1 113 0
 2050 00dc 0324     		movs	r4, #3
 2051 00de CEE7     		b	.L162
 2052              	.LVL185:
ARM GAS  /tmp/ccKiSKFh.s 			page 37


 2053              	.L267:
 2054              		.loc 1 85 0
 2055 00e0 40F24113 		movw	r3, #321
 2056 00e4 9842     		cmp	r0, r3
 2057 00e6 0AD0     		beq	.L182
 2058 00e8 B0F5A17F 		cmp	r0, #322
 2059 00ec 2BD3     		bcc	.L273
 2060 00ee 40F24713 		movw	r3, #327
 2061 00f2 9842     		cmp	r0, r3
 2062 00f4 03D0     		beq	.L182
 2063 00f6 40F24F13 		movw	r3, #335
 2064 00fa 9842     		cmp	r0, r3
 2065 00fc ADD1     		bne	.L167
 2066              	.L182:
 2067              	.LVL186:
 2068              		.loc 1 138 0
 2069 00fe 0724     		movs	r4, #7
 2070 0100 BDE7     		b	.L162
 2071              	.LVL187:
 2072              	.L191:
 2073              		.loc 1 86 0
 2074 0102 0124     		movs	r4, #1
 2075              	.LBE106:
 2076              	.LBE110:
 2077              		.loc 1 444 0
 2078 0104 BBE7     		b	.L162
 2079              	.L269:
 2080              	.LBB111:
 2081              	.LBB107:
 2082              		.loc 1 85 0
 2083 0106 2728     		cmp	r0, #39
 2084 0108 16D8     		bhi	.L171
 2085 010a 2628     		cmp	r0, #38
 2086 010c D2D2     		bcs	.L172
 2087 010e 2028     		cmp	r0, #32
 2088 0110 E4D0     		beq	.L169
 2089 0112 2CD8     		bhi	.L173
 2090 0114 1D38     		subs	r0, r0, #29
 2091              	.LVL188:
 2092 0116 0128     		cmp	r0, #1
 2093 0118 9FD8     		bhi	.L167
 2094 011a DFE7     		b	.L169
 2095              	.LVL189:
 2096              	.L268:
 2097 011c 40F25B13 		movw	r3, #347
 2098 0120 9842     		cmp	r0, r3
 2099 0122 D2D0     		beq	.L183
 2100 0124 40F2EB13 		movw	r3, #491
 2101 0128 9842     		cmp	r0, r3
 2102 012a CED0     		beq	.L183
 2103 012c 95E7     		b	.L167
 2104              	.L271:
 2105 012e AC28     		cmp	r0, #172
 2106 0130 E5D0     		beq	.L182
 2107 0132 C728     		cmp	r0, #199
 2108 0134 E3D0     		beq	.L182
 2109 0136 90E7     		b	.L167
ARM GAS  /tmp/ccKiSKFh.s 			page 38


 2110              	.L171:
 2111 0138 2F28     		cmp	r0, #47
 2112 013a 0CD8     		bhi	.L174
 2113 013c 2D28     		cmp	r0, #45
 2114 013e CDD2     		bcs	.L169
 2115 0140 2A28     		cmp	r0, #42
 2116 0142 8AD1     		bne	.L167
 2117 0144 CAE7     		b	.L169
 2118              	.L273:
 2119 0146 B0F59C7F 		cmp	r0, #312
 2120 014a C7D0     		beq	.L169
 2121 014c 40F23913 		movw	r3, #313
 2122 0150 9842     		cmp	r0, r3
 2123 0152 D4D0     		beq	.L182
 2124 0154 81E7     		b	.L167
 2125              	.L174:
 2126 0156 3128     		cmp	r0, #49
 2127 0158 C0D0     		beq	.L169
 2128 015a 3C28     		cmp	r0, #60
 2129 015c 7FF47DAF 		bne	.L167
 2130 0160 BCE7     		b	.L169
 2131              	.L272:
 2132 0162 4428     		cmp	r0, #68
 2133 0164 BAD0     		beq	.L169
 2134 0166 4728     		cmp	r0, #71
 2135 0168 7FF477AF 		bne	.L167
 2136 016c B6E7     		b	.L169
 2137              	.L173:
 2138 016e 2428     		cmp	r0, #36
 2139 0170 7FF473AF 		bne	.L167
 2140 0174 B2E7     		b	.L169
 2141              	.L178:
 2142 0176 7328     		cmp	r0, #115
 2143 0178 3FF66FAF 		bhi	.L167
 2144 017c AEE7     		b	.L169
 2145              	.L275:
 2146 017e 00BF     		.align	2
 2147              	.L274:
 2148 0180 00000000 		.word	.LANCHOR1
 2149 0184 00000000 		.word	.LANCHOR3
 2150 0188 00000000 		.word	.LANCHOR0
 2151 018c 00000000 		.word	.LC43
 2152              	.LBE107:
 2153              	.LBE111:
 2154              		.cfi_endproc
 2155              	.LFE278:
 2156              		.size	bm_connect, .-bm_connect
 2157              		.section	.text.bm_change_swd_pins,"ax",%progbits
 2158              		.align	1
 2159              		.p2align 4,,15
 2160              		.global	bm_change_swd_pins
 2161              		.syntax unified
 2162              		.thumb
 2163              		.thumb_func
 2164              		.fpu fpv4-sp-d16
 2165              		.type	bm_change_swd_pins, %function
 2166              	bm_change_swd_pins:
ARM GAS  /tmp/ccKiSKFh.s 			page 39


 2167              	.LFB287:
 2168              		.loc 1 673 0
 2169              		.cfi_startproc
 2170              		@ args = 0, pretend = 0, frame = 0
 2171              		@ frame_needed = 0, uses_anonymous_args = 0
 2172              	.LVL190:
 2173 0000 F8B5     		push	{r3, r4, r5, r6, r7, lr}
 2174              		.cfi_def_cfa_offset 24
 2175              		.cfi_offset 3, -24
 2176              		.cfi_offset 4, -20
 2177              		.cfi_offset 5, -16
 2178              		.cfi_offset 6, -12
 2179              		.cfi_offset 7, -8
 2180              		.cfi_offset 14, -4
 2181              		.loc 1 673 0
 2182 0002 0746     		mov	r7, r0
 2183              		.loc 1 674 0
 2184 0004 0020     		movs	r0, #0
 2185              	.LVL191:
 2186              		.loc 1 673 0
 2187 0006 1546     		mov	r5, r2
 2188 0008 1C46     		mov	r4, r3
 2189 000a 0E46     		mov	r6, r1
 2190              		.loc 1 674 0
 2191 000c FFF7FEFF 		bl	bm_set_enabled
 2192              	.LVL192:
 2193              		.loc 1 675 0
 2194 0010 044B     		ldr	r3, .L278
 2195              		.loc 1 676 0
 2196 0012 054A     		ldr	r2, .L278+4
 2197              		.loc 1 675 0
 2198 0014 1F60     		str	r7, [r3]
 2199              		.loc 1 678 0
 2200 0016 0548     		ldr	r0, .L278+8
 2201              		.loc 1 677 0
 2202 0018 054B     		ldr	r3, .L278+12
 2203              		.loc 1 676 0
 2204 001a 1660     		str	r6, [r2]
 2205              		.loc 1 677 0
 2206 001c 1D60     		str	r5, [r3]
 2207              		.loc 1 678 0
 2208 001e 0460     		str	r4, [r0]
 2209              		.loc 1 679 0
 2210 0020 F8BD     		pop	{r3, r4, r5, r6, r7, pc}
 2211              	.LVL193:
 2212              	.L279:
 2213 0022 00BF     		.align	2
 2214              	.L278:
 2215 0024 00000000 		.word	platform_swdio_port
 2216 0028 00000000 		.word	platform_swdio_pin
 2217 002c 00000000 		.word	platform_swclk_pin
 2218 0030 00000000 		.word	platform_swclk_port
 2219              		.cfi_endproc
 2220              	.LFE287:
 2221              		.size	bm_change_swd_pins, .-bm_change_swd_pins
 2222              		.section	.text.bm_default_swd_pins,"ax",%progbits
 2223              		.align	1
ARM GAS  /tmp/ccKiSKFh.s 			page 40


 2224              		.p2align 4,,15
 2225              		.global	bm_default_swd_pins
 2226              		.syntax unified
 2227              		.thumb
 2228              		.thumb_func
 2229              		.fpu fpv4-sp-d16
 2230              		.type	bm_default_swd_pins, %function
 2231              	bm_default_swd_pins:
 2232              	.LFB288:
 2233              		.loc 1 684 0
 2234              		.cfi_startproc
 2235              		@ args = 0, pretend = 0, frame = 0
 2236              		@ frame_needed = 0, uses_anonymous_args = 0
 2237 0000 38B5     		push	{r3, r4, r5, lr}
 2238              		.cfi_def_cfa_offset 16
 2239              		.cfi_offset 3, -16
 2240              		.cfi_offset 4, -12
 2241              		.cfi_offset 5, -8
 2242              		.cfi_offset 14, -4
 2243              		.loc 1 685 0
 2244 0002 0020     		movs	r0, #0
 2245 0004 FFF7FEFF 		bl	bm_set_enabled
 2246              	.LVL194:
 2247              		.loc 1 686 0
 2248 0008 0549     		ldr	r1, .L282
 2249 000a 064B     		ldr	r3, .L282+4
 2250              		.loc 1 688 0
 2251 000c 064D     		ldr	r5, .L282+8
 2252              		.loc 1 687 0
 2253 000e 0748     		ldr	r0, .L282+12
 2254              		.loc 1 689 0
 2255 0010 074A     		ldr	r2, .L282+16
 2256              		.loc 1 686 0
 2257 0012 0B60     		str	r3, [r1]
 2258              		.loc 1 687 0
 2259 0014 0D24     		movs	r4, #13
 2260              		.loc 1 689 0
 2261 0016 0E21     		movs	r1, #14
 2262              		.loc 1 688 0
 2263 0018 2B60     		str	r3, [r5]
 2264              		.loc 1 687 0
 2265 001a 0460     		str	r4, [r0]
 2266              		.loc 1 689 0
 2267 001c 1160     		str	r1, [r2]
 2268              		.loc 1 690 0
 2269 001e 38BD     		pop	{r3, r4, r5, pc}
 2270              	.L283:
 2271              		.align	2
 2272              	.L282:
 2273 0020 00000000 		.word	platform_swdio_port
 2274 0024 00000240 		.word	1073872896
 2275 0028 00000000 		.word	platform_swclk_port
 2276 002c 00000000 		.word	platform_swdio_pin
 2277 0030 00000000 		.word	platform_swclk_pin
 2278              		.cfi_endproc
 2279              	.LFE288:
 2280              		.size	bm_default_swd_pins, .-bm_default_swd_pins
ARM GAS  /tmp/ccKiSKFh.s 			page 41


 2281              		.global	cortexm_wait_timeout
 2282              		.section	.bss.cur_target,"aw",%nobits
 2283              		.align	2
 2284              		.set	.LANCHOR0,. + 0
 2285              		.type	cur_target, %object
 2286              		.size	cur_target, 4
 2287              	cur_target:
 2288 0000 00000000 		.space	4
 2289              		.section	.bss.enabled_now.13807,"aw",%nobits
 2290              		.set	.LANCHOR2,. + 0
 2291              		.type	enabled_now.13807, %object
 2292              		.size	enabled_now.13807, 1
 2293              	enabled_now.13807:
 2294 0000 00       		.space	1
 2295              		.section	.data.cortexm_wait_timeout,"aw",%progbits
 2296              		.align	2
 2297              		.type	cortexm_wait_timeout, %object
 2298              		.size	cortexm_wait_timeout, 4
 2299              	cortexm_wait_timeout:
 2300 0000 D0070000 		.word	2000
 2301              		.section	.data.gdb_controller,"aw",%progbits
 2302              		.align	2
 2303              		.set	.LANCHOR3,. + 0
 2304              		.type	gdb_controller, %object
 2305              		.size	gdb_controller, 60
 2306              	gdb_controller:
 2307 0000 00000000 		.word	target_destroy_callback
 2308 0004 00000000 		.word	target_printf
 2309 0008 00000000 		.word	0
 2310 000c 00000000 		.word	0
 2311 0010 00000000 		.word	0
 2312 0014 00000000 		.word	0
 2313 0018 00000000 		.word	0
 2314 001c 00000000 		.word	0
 2315 0020 00000000 		.word	0
 2316 0024 00000000 		.word	0
 2317 0028 00000000 		.word	0
 2318 002c 00000000 		.word	0
 2319 0030 00000000 		.word	0
 2320 0034 00000000 		.word	0
 2321 0038 00000000 		.space	4
 2322              		.section	.data.target_print_en,"aw",%progbits
 2323              		.set	.LANCHOR1,. + 0
 2324              		.type	target_print_en, %object
 2325              		.size	target_print_en, 1
 2326              	target_print_en:
 2327 0000 01       		.byte	1
 2328              		.section	.rodata.bm_connect.str1.4,"aMS",%progbits,1
 2329              		.align	2
 2330              	.LC43:
 2331 0000 556E6B6E 		.ascii	"Unknown idcode: 0x%04X\012\000"
 2331      6F776E20 
 2331      6964636F 
 2331      64653A20 
 2331      30782530 
 2332              		.section	.rodata.bm_erase_flash_all.str1.4,"aMS",%progbits,1
 2333              		.align	2
ARM GAS  /tmp/ccKiSKFh.s 			page 42


 2334              	.LC41:
 2335 0000 65726173 		.ascii	"erase_mass\000"
 2335      655F6D61 
 2335      737300
 2336              		.section	.rodata.bm_init.str1.4,"aMS",%progbits,1
 2337              		.align	2
 2338              	.LC3:
 2339 0000 426C6163 		.ascii	"BlackMagic: Scan SWD\000"
 2339      6B4D6167 
 2339      69633A20 
 2339      5363616E 
 2339      20535744 
 2340 0015 000000   		.space	3
 2341              	.LC4:
 2342 0018 626D5F73 		.ascii	"bm_swdp_scan\000"
 2342      7764705F 
 2342      7363616E 
 2342      00
 2343 0025 000000   		.space	3
 2344              	.LC5:
 2345 0028 5B696E64 		.ascii	"[index]\000"
 2345      65785D00 
 2346              	.LC6:
 2347 0030 426C6163 		.ascii	"BlackMagic: Attach target\000"
 2347      6B4D6167 
 2347      69633A20 
 2347      41747461 
 2347      63682074 
 2348 004a 0000     		.space	2
 2349              	.LC7:
 2350 004c 626D5F61 		.ascii	"bm_attach\000"
 2350      74746163 
 2350      6800
 2351 0056 0000     		.space	2
 2352              	.LC8:
 2353 0058 5B686578 		.ascii	"[hex_addr] [len]\000"
 2353      5F616464 
 2353      725D205B 
 2353      6C656E5D 
 2353      00
 2354 0069 000000   		.space	3
 2355              	.LC9:
 2356 006c 426C6163 		.ascii	"BlackMagic: Erase flash memory\000"
 2356      6B4D6167 
 2356      69633A20 
 2356      45726173 
 2356      6520666C 
 2357 008b 00       		.space	1
 2358              	.LC10:
 2359 008c 626D5F66 		.ascii	"bm_flash_erase\000"
 2359      6C617368 
 2359      5F657261 
 2359      736500
 2360 009b 00       		.space	1
 2361              	.LC11:
 2362 009c 426C6163 		.ascii	"BlackMagic: Show target commands\000"
 2362      6B4D6167 
ARM GAS  /tmp/ccKiSKFh.s 			page 43


 2362      69633A20 
 2362      53686F77 
 2362      20746172 
 2363 00bd 000000   		.space	3
 2364              	.LC12:
 2365 00c0 626D5F74 		.ascii	"bm_target_help\000"
 2365      61726765 
 2365      745F6865 
 2365      6C7000
 2366 00cf 00       		.space	1
 2367              	.LC13:
 2368 00d0 5B2E2E2E 		.ascii	"[...]\000"
 2368      5D00
 2369 00d6 0000     		.space	2
 2370              	.LC14:
 2371 00d8 426C6163 		.ascii	"BlackMagic: Run command on target\000"
 2371      6B4D6167 
 2371      69633A20 
 2371      52756E20 
 2371      636F6D6D 
 2372 00fa 0000     		.space	2
 2373              	.LC15:
 2374 00fc 626D5F74 		.ascii	"bm_target_cmd\000"
 2374      61726765 
 2374      745F636D 
 2374      6400
 2375 010a 0000     		.space	2
 2376              	.LC16:
 2377 010c 426C6163 		.ascii	"BlackMagic: Reset target\000"
 2377      6B4D6167 
 2377      69633A20 
 2377      52657365 
 2377      74207461 
 2378 0125 000000   		.space	3
 2379              	.LC17:
 2380 0128 626D5F72 		.ascii	"bm_reset\000"
 2380      65736574 
 2380      00
 2381 0131 000000   		.space	3
 2382              	.LC18:
 2383 0134 426C6163 		.ascii	"BlackMagic: Detach target\000"
 2383      6B4D6167 
 2383      69633A20 
 2383      44657461 
 2383      63682074 
 2384 014e 0000     		.space	2
 2385              	.LC19:
 2386 0150 626D5F64 		.ascii	"bm_detach\000"
 2386      65746163 
 2386      6800
 2387 015a 0000     		.space	2
 2388              	.LC20:
 2389 015c 5B757365 		.ascii	"[use_pins 0,1]\000"
 2389      5F70696E 
 2389      7320302C 
 2389      315D00
 2390 016b 00       		.space	1
ARM GAS  /tmp/ccKiSKFh.s 			page 44


 2391              	.LC21:
 2392 016c 426C6163 		.ascii	"BlackMagic: Use built-in nrf5 swd pins\000"
 2392      6B4D6167 
 2392      69633A20 
 2392      55736520 
 2392      6275696C 
 2393 0193 00       		.space	1
 2394              	.LC22:
 2395 0194 626D5F6D 		.ascii	"bm_map_nrf5_pins\000"
 2395      61705F6E 
 2395      7266355F 
 2395      70696E73 
 2395      00
 2396              		.section	.rodata.bm_leave_nrf_debug_mode.str1.4,"aMS",%progbits,1
 2397              		.align	2
 2398              	.LC42:
 2399 0000 4E6F7264 		.ascii	"Nordic\000"
 2399      696300
 2400              		.section	.rodata.display_target.str1.4,"aMS",%progbits,1
 2401              		.align	2
 2402              	.LC2:
 2403 0000 25326420 		.ascii	"%2d   %c  %s\000"
 2403      20202563 
 2403      20202573 
 2403      00
 2404              		.section	.rodata.terminal_attach.str1.4,"aMS",%progbits,1
 2405              		.align	2
 2406              	.LC31:
 2407 0000 436F756C 		.ascii	"Could not attach target.\012\000"
 2407      64206E6F 
 2407      74206174 
 2407      74616368 
 2407      20746172 
 2408 001a 0000     		.space	2
 2409              	.LC32:
 2410 001c 496E7661 		.ascii	"Invalid argument.\012\000"
 2410      6C696420 
 2410      61726775 
 2410      6D656E74 
 2410      2E0A00
 2411 002f 00       		.space	1
 2412              	.LC33:
 2413 0030 54686973 		.ascii	"This command requires one argument.\012\000"
 2413      20636F6D 
 2413      6D616E64 
 2413      20726571 
 2413      75697265 
 2414              		.section	.rodata.terminal_flash_erase.str1.4,"aMS",%progbits,1
 2415              		.align	2
 2416              	.LC25:
 2417 0000 257800   		.ascii	"%x\000"
 2418 0003 00       		.space	1
 2419              	.LC26:
 2420 0004 256400   		.ascii	"%d\000"
 2421 0007 00       		.space	1
 2422              	.LC27:
 2423 0008 4F4B210A 		.ascii	"OK!\012\000"
ARM GAS  /tmp/ccKiSKFh.s 			page 45


 2423      00
 2424 000d 000000   		.space	3
 2425              	.LC28:
 2426 0010 436F756C 		.ascii	"Could erase flash.\012\000"
 2426      64206572 
 2426      61736520 
 2426      666C6173 
 2426      682E0A00 
 2427              	.LC29:
 2428 0024 496E7661 		.ascii	"Invalid argument(s).\012\000"
 2428      6C696420 
 2428      61726775 
 2428      6D656E74 
 2428      2873292E 
 2429 003a 0000     		.space	2
 2430              	.LC30:
 2431 003c 54686973 		.ascii	"This command requires two arguments.\012\000"
 2431      20636F6D 
 2431      6D616E64 
 2431      20726571 
 2431      75697265 
 2432              		.section	.rodata.terminal_map_nrf5_pins.str1.4,"aMS",%progbits,1
 2433              		.align	2
 2434              	.LC38:
 2435 0000 53657474 		.ascii	"Setting default SWD Pins\012\000"
 2435      696E6720 
 2435      64656661 
 2435      756C7420 
 2435      53574420 
 2436 001a 0000     		.space	2
 2437              	.LC39:
 2438 001c 53657474 		.ascii	"Setting NRF5 Pins\012\000"
 2438      696E6720 
 2438      4E524635 
 2438      2050696E 
 2438      730A00
 2439 002f 00       		.space	1
 2440              	.LC40:
 2441 0030 41726775 		.ascii	"Argument should be 1 or 0\012\000"
 2441      6D656E74 
 2441      2073686F 
 2441      756C6420 
 2441      62652031 
 2442              		.section	.rodata.terminal_reset.str1.4,"aMS",%progbits,1
 2443              		.align	2
 2444              	.LC0:
 2445 0000 446F6E65 		.ascii	"Done.\012\000"
 2445      2E0A00
 2446 0007 00       		.space	1
 2447              	.LC1:
 2448 0008 4E6F2074 		.ascii	"No target attached\012\000"
 2448      61726765 
 2448      74206174 
 2448      74616368 
 2448      65640A00 
 2449              		.section	.rodata.terminal_swdp_scan.str1.4,"aMS",%progbits,1
 2450              		.align	2
ARM GAS  /tmp/ccKiSKFh.s 			page 46


 2451              	.LC34:
 2452 0000 53572D44 		.ascii	"SW-DP scan failed!\000"
 2452      50207363 
 2452      616E2066 
 2452      61696C65 
 2452      642100
 2453 0013 00       		.space	1
 2454              	.LC35:
 2455 0014 41766169 		.ascii	"Available Targets:\000"
 2455      6C61626C 
 2455      65205461 
 2455      72676574 
 2455      733A00
 2456 0027 00       		.space	1
 2457              	.LC36:
 2458 0028 4E6F2E20 		.ascii	"No. Att Driver\000"
 2458      41747420 
 2458      44726976 
 2458      657200
 2459 0037 00       		.space	1
 2460              	.LC37:
 2461 0038 4E6F2075 		.ascii	"No usable targets found.\000"
 2461      7361626C 
 2461      65207461 
 2461      72676574 
 2461      7320666F 
 2462              		.section	.rodata.terminal_target_cmd.str1.4,"aMS",%progbits,1
 2463              		.align	2
 2464              	.LC23:
 2465 0000 496E7661 		.ascii	"Invalid command\012\000"
 2465      6C696420 
 2465      636F6D6D 
 2465      616E640A 
 2465      00
 2466 0011 000000   		.space	3
 2467              	.LC24:
 2468 0014 436F6D6D 		.ascii	"Command failed: %d\012\000"
 2468      616E6420 
 2468      6661696C 
 2468      65643A20 
 2468      25640A00 
 2469              		.text
 2470              	.Letext0:
 2471              		.file 2 "/usr/arm-none-eabi/include/machine/_default_types.h"
 2472              		.file 3 "/usr/arm-none-eabi/include/sys/_stdint.h"
 2473              		.file 4 "/usr/lib/gcc/arm-none-eabi/7.3.1/include/stddef.h"
 2474              		.file 5 "ChibiOS_3.0.5/os/rt/ports/ARMCMx/compilers/GCC/chtypes.h"
 2475              		.file 6 "ChibiOS_3.0.5/os/rt/include/chsystypes.h"
 2476              		.file 7 "ChibiOS_3.0.5/os/rt/include/chschd.h"
 2477              		.file 8 "ChibiOS_3.0.5/os/ext/CMSIS/include/core_cm4.h"
 2478              		.file 9 "ChibiOS_3.0.5/os/ext/CMSIS/ST/system_stm32f4xx.h"
 2479              		.file 10 "ChibiOS_3.0.5/os/ext/CMSIS/ST/stm32f407xx.h"
 2480              		.file 11 "ChibiOS_3.0.5/os/rt/ports/ARMCMx/chcore.h"
 2481              		.file 12 "ChibiOS_3.0.5/os/rt/ports/ARMCMx/chcore_v7m.h"
 2482              		.file 13 "ChibiOS_3.0.5/os/rt/include/chtm.h"
 2483              		.file 14 "ChibiOS_3.0.5/os/rt/include/chsem.h"
 2484              		.file 15 "ChibiOS_3.0.5/os/rt/include/chmtx.h"
ARM GAS  /tmp/ccKiSKFh.s 			page 47


 2485              		.file 16 "ChibiOS_3.0.5/os/rt/include/chregistry.h"
 2486              		.file 17 "ChibiOS_3.0.5/os/rt/include/chevents.h"
 2487              		.file 18 "ChibiOS_3.0.5/os/rt/include/chqueues.h"
 2488              		.file 19 "./datatypes.h"
 2489              		.file 20 "./conf_general.h"
 2490              		.file 21 "ChibiOS_3.0.5/os/hal/ports/STM32/STM32F4xx/stm32_dma.h"
 2491              		.file 22 "ChibiOS_3.0.5/os/hal/ports/STM32/LLD/GPIOv2/pal_lld.h"
 2492              		.file 23 "ChibiOS_3.0.5/os/hal/include/can.h"
 2493              		.file 24 "ChibiOS_3.0.5/os/hal/ports/STM32/LLD/can_lld.h"
 2494              		.file 25 "ChibiOS_3.0.5/os/hal/include/i2c.h"
 2495              		.file 26 "ChibiOS_3.0.5/os/hal/ports/STM32/LLD/I2Cv1/i2c_lld.h"
 2496              		.file 27 "ChibiOS_3.0.5/os/hal/include/icu.h"
 2497              		.file 28 "ChibiOS_3.0.5/os/hal/ports/STM32/LLD/TIMv1/icu_lld.h"
 2498              		.file 29 "ChibiOS_3.0.5/os/hal/ports/STM32/LLD/TIMv1/stm32_tim.h"
 2499              		.file 30 "ChibiOS_3.0.5/os/hal/include/serial.h"
 2500              		.file 31 "ChibiOS_3.0.5/os/hal/ports/STM32/LLD/USARTv1/serial_lld.h"
 2501              		.file 32 "ChibiOS_3.0.5/os/hal/include/spi.h"
 2502              		.file 33 "ChibiOS_3.0.5/os/hal/ports/STM32/LLD/SPIv1/spi_lld.h"
 2503              		.file 34 "ChibiOS_3.0.5/os/hal/include/usb.h"
 2504              		.file 35 "ChibiOS_3.0.5/os/hal/ports/STM32/LLD/OTGv1/usb_lld.h"
 2505              		.file 36 "ChibiOS_3.0.5/os/hal/ports/STM32/LLD/OTGv1/stm32_otg.h"
 2506              		.file 37 "./commands.h"
 2507              		.file 38 "blackmagic/platform.h"
 2508              		.file 39 "/usr/arm-none-eabi/include/sys/lock.h"
 2509              		.file 40 "/usr/arm-none-eabi/include/sys/_types.h"
 2510              		.file 41 "/usr/arm-none-eabi/include/sys/reent.h"
 2511              		.file 42 "/usr/arm-none-eabi/include/stdlib.h"
 2512              		.file 43 "/usr/lib/gcc/arm-none-eabi/7.3.1/include/stdarg.h"
 2513              		.file 44 "<built-in>"
 2514              		.file 45 "/usr/arm-none-eabi/include/stdio.h"
 2515              		.file 46 "/usr/arm-none-eabi/include/sys/types.h"
 2516              		.file 47 "blackmagic/target.h"
 2517              		.file 48 "blackmagic/target/target_internal.h"
 2518              		.file 49 "/usr/arm-none-eabi/include/machine/setjmp.h"
 2519              		.file 50 "blackmagic/exception.h"
 2520              		.file 51 "blackmagic/target/jtag_scan.h"
 2521              		.file 52 "blackmagic/target/adiv5.h"
 2522              		.file 53 "/usr/arm-none-eabi/include/string.h"
 2523              		.file 54 "./terminal.h"