ARM GAS  /tmp/cc4hEOZR.s 			page 1


   1              		.cpu cortex-m4
   2              		.eabi_attribute 27, 1
   3              		.eabi_attribute 28, 1
   4              		.eabi_attribute 20, 1
   5              		.eabi_attribute 21, 1
   6              		.eabi_attribute 23, 3
   7              		.eabi_attribute 24, 1
   8              		.eabi_attribute 25, 1
   9              		.eabi_attribute 26, 1
  10              		.eabi_attribute 30, 2
  11              		.eabi_attribute 34, 1
  12              		.eabi_attribute 18, 4
  13              		.file	"bmi160.c"
  14              		.text
  15              	.Ltext0:
  16              		.cfi_sections	.debug_frame
  17              		.section	.text.get_accel_data,"ax",%progbits
  18              		.align	1
  19              		.p2align 4,,15
  20              		.syntax unified
  21              		.thumb
  22              		.thumb_func
  23              		.fpu fpv4-sp-d16
  24              		.type	get_accel_data, %function
  25              	get_accel_data:
  26              	.LFB58:
  27              		.file 1 "imu/BMI160_driver/bmi160.c"
  28              		.loc 1 3542 0
  29              		.cfi_startproc
  30              		@ args = 0, pretend = 0, frame = 16
  31              		@ frame_needed = 0, uses_anonymous_args = 0
  32              	.LVL0:
  33 0000 F0B5     		push	{r4, r5, r6, r7, lr}
  34              		.cfi_def_cfa_offset 20
  35              		.cfi_offset 4, -20
  36              		.cfi_offset 5, -16
  37              		.cfi_offset 6, -12
  38              		.cfi_offset 7, -8
  39              		.cfi_offset 14, -4
  40 0002 85B0     		sub	sp, sp, #20
  41              		.cfi_def_cfa_offset 40
  42              		.loc 1 3545 0
  43 0004 0026     		movs	r6, #0
  44 0006 CDE90166 		strd	r6, r6, [sp, #4]
  45 000a 8DF80C60 		strb	r6, [sp, #12]
  46              	.LVL1:
  47              	.LBB263:
  48              	.LBB264:
  49              		.loc 1 1375 0
  50 000e 002A     		cmp	r2, #0
  51 0010 37D0     		beq	.L4
  52 0012 D669     		ldr	r6, [r2, #28]
  53 0014 002E     		cmp	r6, #0
  54 0016 34D0     		beq	.L4
  55 0018 0C46     		mov	r4, r1
  56              		.loc 1 1382 0
  57 001a 9178     		ldrb	r1, [r2, #2]	@ zero_extendqisi2
ARM GAS  /tmp/cc4hEOZR.s 			page 2


  58              	.LVL2:
  59              		.loc 1 1384 0
  60 001c 0129     		cmp	r1, #1
  61              	.LVL3:
  62 001e 00F10603 		add	r3, r0, #6
  63 0022 0546     		mov	r5, r0
  64              		.loc 1 1386 0
  65 0024 18BF     		it	ne
  66 0026 1221     		movne	r1, #18
  67 0028 5078     		ldrb	r0, [r2, #1]	@ zero_extendqisi2
  68              	.LVL4:
  69 002a 08BF     		it	eq
  70 002c 9221     		moveq	r1, #146
  71 002e 01AA     		add	r2, sp, #4
  72              	.LVL5:
  73 0030 B047     		blx	r6
  74              	.LVL6:
  75              		.loc 1 1388 0
  76 0032 30BB     		cbnz	r0, .L4
  77              	.LVL7:
  78              	.LBE264:
  79              	.LBE263:
  80              		.loc 1 3564 0
  81 0034 9DF80730 		ldrb	r3, [sp, #7]	@ zero_extendqisi2
  82 0038 9DF80620 		ldrb	r2, [sp, #6]	@ zero_extendqisi2
  83              		.loc 1 3560 0
  84 003c 9DF80570 		ldrb	r7, [sp, #5]	@ zero_extendqisi2
  85 0040 9DF80410 		ldrb	r1, [sp, #4]	@ zero_extendqisi2
  86              		.loc 1 3568 0
  87 0044 9DF80960 		ldrb	r6, [sp, #9]	@ zero_extendqisi2
  88              		.loc 1 3564 0
  89 0048 42EA0322 		orr	r2, r2, r3, lsl #8
  90              		.loc 1 3568 0
  91 004c 9DF80830 		ldrb	r3, [sp, #8]	@ zero_extendqisi2
  92              		.loc 1 3565 0
  93 0050 6280     		strh	r2, [r4, #2]	@ movhi
  94              		.loc 1 3560 0
  95 0052 41EA0721 		orr	r1, r1, r7, lsl #8
  96              		.loc 1 3568 0
  97 0056 43EA0623 		orr	r3, r3, r6, lsl #8
  98              		.loc 1 3570 0
  99 005a 032D     		cmp	r5, #3
 100              		.loc 1 3561 0
 101 005c 2180     		strh	r1, [r4]	@ movhi
 102              	.LVL8:
 103              		.loc 1 3569 0
 104 005e A380     		strh	r3, [r4, #4]	@ movhi
 105              		.loc 1 3570 0
 106 0060 02D0     		beq	.L13
 107              		.loc 1 3579 0
 108 0062 A060     		str	r0, [r4, #8]
 109              	.LVL9:
 110              	.L3:
 111              		.loc 1 3588 0
 112 0064 05B0     		add	sp, sp, #20
 113              		.cfi_remember_state
 114              		.cfi_def_cfa_offset 20
ARM GAS  /tmp/cc4hEOZR.s 			page 3


 115              		@ sp needed
 116 0066 F0BD     		pop	{r4, r5, r6, r7, pc}
 117              	.LVL10:
 118              	.L13:
 119              		.cfi_restore_state
 120              		.loc 1 3574 0
 121 0068 9DF80C30 		ldrb	r3, [sp, #12]	@ zero_extendqisi2
 122              		.loc 1 3573 0
 123 006c 9DF80B10 		ldrb	r1, [sp, #11]	@ zero_extendqisi2
 124              		.loc 1 3575 0
 125 0070 9DF80A20 		ldrb	r2, [sp, #10]	@ zero_extendqisi2
 126              		.loc 1 3574 0
 127 0074 1B04     		lsls	r3, r3, #16
 128              	.LVL11:
 129              		.loc 1 3575 0
 130 0076 43EA0123 		orr	r3, r3, r1, lsl #8
 131              	.LVL12:
 132 007a 1343     		orrs	r3, r3, r2
 133 007c A360     		str	r3, [r4, #8]
 134              	.LVL13:
 135              		.loc 1 3588 0
 136 007e 05B0     		add	sp, sp, #20
 137              		.cfi_remember_state
 138              		.cfi_def_cfa_offset 20
 139              		@ sp needed
 140 0080 F0BD     		pop	{r4, r5, r6, r7, pc}
 141              	.LVL14:
 142              	.L4:
 143              		.cfi_restore_state
 144              		.loc 1 3584 0
 145 0082 6FF00100 		mvn	r0, #1
 146 0086 EDE7     		b	.L3
 147              		.cfi_endproc
 148              	.LFE58:
 149              		.size	get_accel_data, .-get_accel_data
 150              		.section	.text.get_foc_status,"ax",%progbits
 151              		.align	1
 152              		.p2align 4,,15
 153              		.syntax unified
 154              		.thumb
 155              		.thumb_func
 156              		.fpu fpv4-sp-d16
 157              		.type	get_foc_status, %function
 158              	get_foc_status:
 159              	.LFB130:
 160              		.loc 1 6241 0
 161              		.cfi_startproc
 162              		@ args = 0, pretend = 0, frame = 8
 163              		@ frame_needed = 0, uses_anonymous_args = 0
 164              	.LVL15:
 165              	.LBB265:
 166              	.LBB266:
 167              		.loc 1 1375 0
 168 0000 D1B1     		cbz	r1, .L17
 169              	.LBE266:
 170              	.LBE265:
 171              		.loc 1 6241 0
ARM GAS  /tmp/cc4hEOZR.s 			page 4


 172 0002 30B5     		push	{r4, r5, lr}
 173              		.cfi_def_cfa_offset 12
 174              		.cfi_offset 4, -12
 175              		.cfi_offset 5, -8
 176              		.cfi_offset 14, -4
 177              	.LBB271:
 178              	.LBB267:
 179              		.loc 1 1375 0
 180 0004 CD69     		ldr	r5, [r1, #28]
 181              	.LBE267:
 182              	.LBE271:
 183              		.loc 1 6241 0
 184 0006 83B0     		sub	sp, sp, #12
 185              		.cfi_def_cfa_offset 24
 186              	.LBB272:
 187              	.LBB268:
 188              		.loc 1 1375 0
 189 0008 CDB1     		cbz	r5, .L18
 190              		.loc 1 1382 0
 191 000a 8B78     		ldrb	r3, [r1, #2]	@ zero_extendqisi2
 192 000c 012B     		cmp	r3, #1
 193              	.LVL16:
 194 000e 0446     		mov	r4, r0
 195              		.loc 1 1386 0
 196 0010 4FF00103 		mov	r3, #1
 197 0014 4878     		ldrb	r0, [r1, #1]	@ zero_extendqisi2
 198              	.LVL17:
 199 0016 0DF10702 		add	r2, sp, #7
 200 001a 14BF     		ite	ne
 201 001c 1B21     		movne	r1, #27
 202              	.LVL18:
 203 001e 9B21     		moveq	r1, #155
 204 0020 A847     		blx	r5
 205              	.LVL19:
 206              		.loc 1 1388 0
 207 0022 30B9     		cbnz	r0, .L20
 208              	.LVL20:
 209              	.LBE268:
 210              	.LBE272:
 211              		.loc 1 6250 0
 212 0024 9DF80730 		ldrb	r3, [sp, #7]	@ zero_extendqisi2
 213 0028 C3F3C003 		ubfx	r3, r3, #3, #1
 214 002c 2370     		strb	r3, [r4]
 215              	.LVL21:
 216              	.L15:
 217              		.loc 1 6254 0
 218 002e 03B0     		add	sp, sp, #12
 219              		.cfi_remember_state
 220              		.cfi_def_cfa_offset 12
 221              		@ sp needed
 222 0030 30BD     		pop	{r4, r5, pc}
 223              	.LVL22:
 224              	.L20:
 225              		.cfi_restore_state
 226              	.LBB273:
 227              	.LBB269:
 228              		.loc 1 1390 0
ARM GAS  /tmp/cc4hEOZR.s 			page 5


 229 0032 6FF00100 		mvn	r0, #1
 230              	.LVL23:
 231 0036 FAE7     		b	.L15
 232              	.LVL24:
 233              	.L17:
 234              		.cfi_def_cfa_offset 0
 235              		.cfi_restore 4
 236              		.cfi_restore 5
 237              		.cfi_restore 14
 238              		.loc 1 1377 0
 239 0038 4FF0FF30 		mov	r0, #-1
 240              	.LVL25:
 241              	.LBE269:
 242              	.LBE273:
 243              		.loc 1 6254 0
 244 003c 7047     		bx	lr
 245              	.LVL26:
 246              	.L18:
 247              		.cfi_def_cfa_offset 24
 248              		.cfi_offset 4, -12
 249              		.cfi_offset 5, -8
 250              		.cfi_offset 14, -4
 251              	.LBB274:
 252              	.LBB270:
 253              		.loc 1 1377 0
 254 003e 4FF0FF30 		mov	r0, #-1
 255              	.LVL27:
 256 0042 F4E7     		b	.L15
 257              	.LBE270:
 258              	.LBE274:
 259              		.cfi_endproc
 260              	.LFE130:
 261              		.size	get_foc_status, .-get_foc_status
 262              		.section	.text.unpack_accel_data.isra.8,"ax",%progbits
 263              		.align	1
 264              		.p2align 4,,15
 265              		.syntax unified
 266              		.thumb
 267              		.thumb_func
 268              		.fpu fpv4-sp-d16
 269              		.type	unpack_accel_data.isra.8, %function
 270              	unpack_accel_data.isra.8:
 271              	.LFB141:
 272              		.loc 1 5561 0
 273              		.cfi_startproc
 274              		@ args = 0, pretend = 0, frame = 0
 275              		@ frame_needed = 0, uses_anonymous_args = 0
 276              		@ link register save eliminated.
 277              	.LVL28:
 278 0000 30B4     		push	{r4, r5}
 279              		.cfi_def_cfa_offset 8
 280              		.cfi_offset 4, -8
 281              		.cfi_offset 5, -4
 282              		.loc 1 5569 0
 283 0002 4C1C     		adds	r4, r1, #1
 284 0004 1368     		ldr	r3, [r2]
 285              	.LVL29:
ARM GAS  /tmp/cc4hEOZR.s 			page 6


 286              		.loc 1 5570 0
 287 0006 A4B2     		uxth	r4, r4
 288              		.loc 1 5571 0
 289 0008 5A5C     		ldrb	r2, [r3, r1]	@ zero_extendqisi2
 290 000a 1D5D     		ldrb	r5, [r3, r4]	@ zero_extendqisi2
 291              		.loc 1 5574 0
 292 000c CC1C     		adds	r4, r1, #3
 293              		.loc 1 5571 0
 294 000e 42EA0525 		orr	r5, r2, r5, lsl #8
 295              		.loc 1 5570 0
 296 0012 8A1C     		adds	r2, r1, #2
 297              		.loc 1 5575 0
 298 0014 A4B2     		uxth	r4, r4
 299              		.loc 1 5574 0
 300 0016 92B2     		uxth	r2, r2
 301              		.loc 1 5571 0
 302 0018 0580     		strh	r5, [r0]	@ movhi
 303              	.LVL30:
 304              		.loc 1 5576 0
 305 001a 1D5D     		ldrb	r5, [r3, r4]	@ zero_extendqisi2
 306 001c 9C5C     		ldrb	r4, [r3, r2]	@ zero_extendqisi2
 307              		.loc 1 5579 0
 308 001e 4A1D     		adds	r2, r1, #5
 309              		.loc 1 5575 0
 310 0020 0431     		adds	r1, r1, #4
 311              	.LVL31:
 312              		.loc 1 5576 0
 313 0022 44EA0524 		orr	r4, r4, r5, lsl #8
 314              		.loc 1 5580 0
 315 0026 92B2     		uxth	r2, r2
 316              		.loc 1 5579 0
 317 0028 89B2     		uxth	r1, r1
 318              		.loc 1 5576 0
 319 002a 4480     		strh	r4, [r0, #2]	@ movhi
 320              	.LVL32:
 321              		.loc 1 5581 0
 322 002c 9A5C     		ldrb	r2, [r3, r2]	@ zero_extendqisi2
 323 002e 5B5C     		ldrb	r3, [r3, r1]	@ zero_extendqisi2
 324 0030 43EA0223 		orr	r3, r3, r2, lsl #8
 325 0034 8380     		strh	r3, [r0, #4]	@ movhi
 326              		.loc 1 5582 0
 327 0036 30BC     		pop	{r4, r5}
 328              		.cfi_restore 5
 329              		.cfi_restore 4
 330              		.cfi_def_cfa_offset 0
 331 0038 7047     		bx	lr
 332              		.cfi_endproc
 333              	.LFE141:
 334              		.size	unpack_accel_data.isra.8, .-unpack_accel_data.isra.8
 335              		.thumb_set unpack_gyro_data.isra.11,unpack_accel_data.isra.8
 336 003a 00BF     		.section	.text.unpack_accel_frame.isra.9,"ax",%progbits
 337              		.align	1
 338              		.p2align 4,,15
 339              		.syntax unified
 340              		.thumb
 341              		.thumb_func
 342              		.fpu fpv4-sp-d16
ARM GAS  /tmp/cc4hEOZR.s 			page 7


 343              		.type	unpack_accel_frame.isra.9, %function
 344              	unpack_accel_frame.isra.9:
 345              	.LFB142:
 346              		.loc 1 5460 0
 347              		.cfi_startproc
 348              		@ args = 4, pretend = 0, frame = 0
 349              		@ frame_needed = 0, uses_anonymous_args = 0
 350              	.LVL33:
 351              		.loc 1 5466 0
 352 0000 8C2B     		cmp	r3, #140
 353              		.loc 1 5460 0
 354 0002 70B5     		push	{r4, r5, r6, lr}
 355              		.cfi_def_cfa_offset 16
 356              		.cfi_offset 4, -16
 357              		.cfi_offset 5, -12
 358              		.cfi_offset 6, -8
 359              		.cfi_offset 14, -4
 360              		.loc 1 5460 0
 361 0004 0C46     		mov	r4, r1
 362 0006 1546     		mov	r5, r2
 363              		.loc 1 5466 0
 364 0008 2AD0     		beq	.L29
 365 000a 09D9     		bls	.L87
 366 000c 9C2B     		cmp	r3, #156
 367 000e 3FD0     		beq	.L36
 368 0010 13D8     		bhi	.L37
 369 0012 942B     		cmp	r3, #148
 370 0014 1AD0     		beq	.L31
 371 0016 982B     		cmp	r3, #152
 372 0018 15D0     		beq	.L38
 373 001a 902B     		cmp	r3, #144
 374 001c 69D0     		beq	.L33
 375              	.L27:
 376              		.loc 1 5555 0
 377 001e 70BD     		pop	{r4, r5, r6, pc}
 378              	.L87:
 379              		.loc 1 5466 0
 380 0020 602B     		cmp	r3, #96
 381 0022 13D0     		beq	.L31
 382 0024 4CD9     		bls	.L88
 383 0026 842B     		cmp	r3, #132
 384 0028 4ED0     		beq	.L34
 385 002a 882B     		cmp	r3, #136
 386 002c 01D0     		beq	.L35
 387 002e 802B     		cmp	r3, #128
 388 0030 F5D1     		bne	.L27
 389              	.L35:
 390              		.loc 1 5546 0
 391 0032 2388     		ldrh	r3, [r4]
 392              	.LVL34:
 393 0034 0633     		adds	r3, r3, #6
 394 0036 2380     		strh	r3, [r4]	@ movhi
 395              		.loc 1 5555 0
 396 0038 70BD     		pop	{r4, r5, r6, pc}
 397              	.LVL35:
 398              	.L37:
 399              		.loc 1 5466 0
ARM GAS  /tmp/cc4hEOZR.s 			page 8


 400 003a C02B     		cmp	r3, #192
 401 003c 10D0     		beq	.L29
 402 003e E02B     		cmp	r3, #224
 403 0040 26D0     		beq	.L36
 404 0042 A02B     		cmp	r3, #160
 405 0044 EBD1     		bne	.L27
 406              	.L38:
 407              		.loc 1 5550 0
 408 0046 2388     		ldrh	r3, [r4]
 409              	.LVL36:
 410 0048 0E33     		adds	r3, r3, #14
 411 004a 07E0     		b	.L86
 412              	.LVL37:
 413              	.L31:
 414              		.loc 1 5508 0
 415 004c 049B     		ldr	r3, [sp, #16]
 416              	.LVL38:
 417 004e 2188     		ldrh	r1, [r4]
 418              	.LVL39:
 419 0050 1A68     		ldr	r2, [r3]
 420              	.LVL40:
 421 0052 9388     		ldrh	r3, [r2, #4]
 422 0054 01F10D06 		add	r6, r1, #13
 423 0058 9E42     		cmp	r6, r3
 424 005a 4EDB     		blt	.L41
 425              	.L86:
 426              		.loc 1 5550 0
 427 005c 2380     		strh	r3, [r4]	@ movhi
 428              		.loc 1 5555 0
 429 005e 70BD     		pop	{r4, r5, r6, pc}
 430              	.LVL41:
 431              	.L29:
 432              		.loc 1 5490 0
 433 0060 049B     		ldr	r3, [sp, #16]
 434              	.LVL42:
 435 0062 2188     		ldrh	r1, [r4]
 436              	.LVL43:
 437 0064 1A68     		ldr	r2, [r3]
 438              	.LVL44:
 439 0066 9388     		ldrh	r3, [r2, #4]
 440 0068 01F10B06 		add	r6, r1, #11
 441 006c 9E42     		cmp	r6, r3
 442 006e F5DA     		bge	.L86
 443              		.loc 1 5498 0
 444 0070 2B78     		ldrb	r3, [r5]	@ zero_extendqisi2
 445 0072 0631     		adds	r1, r1, #6
 446 0074 03EB4303 		add	r3, r3, r3, lsl #1
 447 0078 00EB8300 		add	r0, r0, r3, lsl #2
 448              	.LVL45:
 449 007c 89B2     		uxth	r1, r1
 450 007e FFF7FEFF 		bl	unpack_accel_data.isra.8
 451              	.LVL46:
 452              		.loc 1 5501 0
 453 0082 2388     		ldrh	r3, [r4]
 454 0084 0C33     		adds	r3, r3, #12
 455 0086 2380     		strh	r3, [r4]	@ movhi
 456              		.loc 1 5502 0
ARM GAS  /tmp/cc4hEOZR.s 			page 9


 457 0088 2B78     		ldrb	r3, [r5]	@ zero_extendqisi2
 458 008a 0133     		adds	r3, r3, #1
 459 008c 2B70     		strb	r3, [r5]
 460              		.loc 1 5555 0
 461 008e 70BD     		pop	{r4, r5, r6, pc}
 462              	.LVL47:
 463              	.L36:
 464              		.loc 1 5526 0
 465 0090 049B     		ldr	r3, [sp, #16]
 466              	.LVL48:
 467 0092 2188     		ldrh	r1, [r4]
 468              	.LVL49:
 469 0094 1A68     		ldr	r2, [r3]
 470              	.LVL50:
 471 0096 9388     		ldrh	r3, [r2, #4]
 472 0098 01F11306 		add	r6, r1, #19
 473 009c 9E42     		cmp	r6, r3
 474 009e DDDA     		bge	.L86
 475              		.loc 1 5534 0
 476 00a0 2B78     		ldrb	r3, [r5]	@ zero_extendqisi2
 477 00a2 0E31     		adds	r1, r1, #14
 478 00a4 03EB4303 		add	r3, r3, r3, lsl #1
 479 00a8 00EB8300 		add	r0, r0, r3, lsl #2
 480              	.LVL51:
 481 00ac 89B2     		uxth	r1, r1
 482 00ae FFF7FEFF 		bl	unpack_accel_data.isra.8
 483              	.LVL52:
 484              		.loc 1 5537 0
 485 00b2 2388     		ldrh	r3, [r4]
 486 00b4 1433     		adds	r3, r3, #20
 487 00b6 2380     		strh	r3, [r4]	@ movhi
 488              		.loc 1 5538 0
 489 00b8 2B78     		ldrb	r3, [r5]	@ zero_extendqisi2
 490 00ba 0133     		adds	r3, r3, #1
 491 00bc 2B70     		strb	r3, [r5]
 492              		.loc 1 5555 0
 493 00be 70BD     		pop	{r4, r5, r6, pc}
 494              	.LVL53:
 495              	.L88:
 496              		.loc 1 5466 0
 497 00c0 202B     		cmp	r3, #32
 498 00c2 16D0     		beq	.L33
 499 00c4 402B     		cmp	r3, #64
 500 00c6 AAD1     		bne	.L27
 501              	.L34:
 502              		.loc 1 5472 0
 503 00c8 049B     		ldr	r3, [sp, #16]
 504              	.LVL54:
 505 00ca 2188     		ldrh	r1, [r4]
 506              	.LVL55:
 507 00cc 1A68     		ldr	r2, [r3]
 508              	.LVL56:
 509 00ce 9388     		ldrh	r3, [r2, #4]
 510 00d0 4E1D     		adds	r6, r1, #5
 511 00d2 9E42     		cmp	r6, r3
 512 00d4 C2DA     		bge	.L86
 513              		.loc 1 5480 0
ARM GAS  /tmp/cc4hEOZR.s 			page 10


 514 00d6 2B78     		ldrb	r3, [r5]	@ zero_extendqisi2
 515 00d8 03EB4303 		add	r3, r3, r3, lsl #1
 516 00dc 00EB8300 		add	r0, r0, r3, lsl #2
 517              	.LVL57:
 518 00e0 FFF7FEFF 		bl	unpack_accel_data.isra.8
 519              	.LVL58:
 520              		.loc 1 5483 0
 521 00e4 2388     		ldrh	r3, [r4]
 522 00e6 0633     		adds	r3, r3, #6
 523 00e8 2380     		strh	r3, [r4]	@ movhi
 524              		.loc 1 5484 0
 525 00ea 2B78     		ldrb	r3, [r5]	@ zero_extendqisi2
 526 00ec 0133     		adds	r3, r3, #1
 527 00ee 2B70     		strb	r3, [r5]
 528              		.loc 1 5555 0
 529 00f0 70BD     		pop	{r4, r5, r6, pc}
 530              	.LVL59:
 531              	.L33:
 532              		.loc 1 5542 0
 533 00f2 2388     		ldrh	r3, [r4]
 534              	.LVL60:
 535 00f4 0833     		adds	r3, r3, #8
 536 00f6 2380     		strh	r3, [r4]	@ movhi
 537              		.loc 1 5555 0
 538 00f8 70BD     		pop	{r4, r5, r6, pc}
 539              	.LVL61:
 540              	.L41:
 541              		.loc 1 5516 0
 542 00fa 2B78     		ldrb	r3, [r5]	@ zero_extendqisi2
 543 00fc 0831     		adds	r1, r1, #8
 544 00fe 03EB4303 		add	r3, r3, r3, lsl #1
 545 0102 00EB8300 		add	r0, r0, r3, lsl #2
 546              	.LVL62:
 547 0106 89B2     		uxth	r1, r1
 548 0108 FFF7FEFF 		bl	unpack_accel_data.isra.8
 549              	.LVL63:
 550              		.loc 1 5519 0
 551 010c 2388     		ldrh	r3, [r4]
 552 010e 0E33     		adds	r3, r3, #14
 553 0110 2380     		strh	r3, [r4]	@ movhi
 554              		.loc 1 5520 0
 555 0112 2B78     		ldrb	r3, [r5]	@ zero_extendqisi2
 556 0114 0133     		adds	r3, r3, #1
 557 0116 2B70     		strb	r3, [r5]
 558              		.loc 1 5555 0
 559 0118 70BD     		pop	{r4, r5, r6, pc}
 560              		.cfi_endproc
 561              	.LFE142:
 562              		.size	unpack_accel_frame.isra.9, .-unpack_accel_frame.isra.9
 563 011a 00BF     		.section	.text.unpack_gyro_frame.isra.12,"ax",%progbits
 564              		.align	1
 565              		.p2align 4,,15
 566              		.syntax unified
 567              		.thumb
 568              		.thumb_func
 569              		.fpu fpv4-sp-d16
 570              		.type	unpack_gyro_frame.isra.12, %function
ARM GAS  /tmp/cc4hEOZR.s 			page 11


 571              	unpack_gyro_frame.isra.12:
 572              	.LFB145:
 573              		.loc 1 5705 0
 574              		.cfi_startproc
 575              		@ args = 4, pretend = 0, frame = 0
 576              		@ frame_needed = 0, uses_anonymous_args = 0
 577              	.LVL64:
 578              		.loc 1 5711 0
 579 0000 8C2B     		cmp	r3, #140
 580              		.loc 1 5705 0
 581 0002 70B5     		push	{r4, r5, r6, lr}
 582              		.cfi_def_cfa_offset 16
 583              		.cfi_offset 4, -16
 584              		.cfi_offset 5, -12
 585              		.cfi_offset 6, -8
 586              		.cfi_offset 14, -4
 587              		.loc 1 5705 0
 588 0004 0C46     		mov	r4, r1
 589 0006 1546     		mov	r5, r2
 590              		.loc 1 5711 0
 591 0008 4AD0     		beq	.L91
 592 000a 09D9     		bls	.L149
 593 000c 9C2B     		cmp	r3, #156
 594 000e 51D0     		beq	.L98
 595 0010 24D8     		bhi	.L99
 596 0012 942B     		cmp	r3, #148
 597 0014 40D0     		beq	.L93
 598 0016 982B     		cmp	r3, #152
 599 0018 26D0     		beq	.L100
 600 001a 902B     		cmp	r3, #144
 601 001c 69D0     		beq	.L95
 602              	.L89:
 603              		.loc 1 5804 0
 604 001e 70BD     		pop	{r4, r5, r6, pc}
 605              	.L149:
 606              		.loc 1 5711 0
 607 0020 602B     		cmp	r3, #96
 608 0022 39D0     		beq	.L93
 609 0024 5ED9     		bls	.L150
 610 0026 842B     		cmp	r3, #132
 611 0028 60D0     		beq	.L96
 612 002a 882B     		cmp	r3, #136
 613 002c 01D0     		beq	.L97
 614 002e 802B     		cmp	r3, #128
 615 0030 F5D1     		bne	.L89
 616              	.L97:
 617              		.loc 1 5717 0
 618 0032 049B     		ldr	r3, [sp, #16]
 619              	.LVL65:
 620 0034 2188     		ldrh	r1, [r4]
 621              	.LVL66:
 622 0036 1A68     		ldr	r2, [r3]
 623              	.LVL67:
 624 0038 9388     		ldrh	r3, [r2, #4]
 625 003a 4E1D     		adds	r6, r1, #5
 626 003c 9E42     		cmp	r6, r3
 627 003e 37DA     		bge	.L148
ARM GAS  /tmp/cc4hEOZR.s 			page 12


 628              		.loc 1 5725 0
 629 0040 2B78     		ldrb	r3, [r5]	@ zero_extendqisi2
 630 0042 03EB4303 		add	r3, r3, r3, lsl #1
 631 0046 00EB8300 		add	r0, r0, r3, lsl #2
 632              	.LVL68:
 633 004a FFF7FEFF 		bl	unpack_gyro_data.isra.11
 634              	.LVL69:
 635              		.loc 1 5728 0
 636 004e 2388     		ldrh	r3, [r4]
 637 0050 0633     		adds	r3, r3, #6
 638 0052 2380     		strh	r3, [r4]	@ movhi
 639              		.loc 1 5729 0
 640 0054 2B78     		ldrb	r3, [r5]	@ zero_extendqisi2
 641 0056 0133     		adds	r3, r3, #1
 642 0058 2B70     		strb	r3, [r5]
 643              		.loc 1 5804 0
 644 005a 70BD     		pop	{r4, r5, r6, pc}
 645              	.LVL70:
 646              	.L99:
 647              		.loc 1 5711 0
 648 005c C02B     		cmp	r3, #192
 649 005e 1FD0     		beq	.L91
 650 0060 E02B     		cmp	r3, #224
 651 0062 27D0     		beq	.L98
 652 0064 A02B     		cmp	r3, #160
 653 0066 DAD1     		bne	.L89
 654              	.L100:
 655              		.loc 1 5781 0
 656 0068 049B     		ldr	r3, [sp, #16]
 657              	.LVL71:
 658 006a 2188     		ldrh	r1, [r4]
 659              	.LVL72:
 660 006c 1A68     		ldr	r2, [r3]
 661              	.LVL73:
 662 006e 9388     		ldrh	r3, [r2, #4]
 663 0070 01F10D06 		add	r6, r1, #13
 664 0074 9E42     		cmp	r6, r3
 665 0076 1BDA     		bge	.L148
 666              		.loc 1 5789 0
 667 0078 2B78     		ldrb	r3, [r5]	@ zero_extendqisi2
 668 007a 0831     		adds	r1, r1, #8
 669 007c 03EB4303 		add	r3, r3, r3, lsl #1
 670 0080 00EB8300 		add	r0, r0, r3, lsl #2
 671              	.LVL74:
 672 0084 89B2     		uxth	r1, r1
 673 0086 FFF7FEFF 		bl	unpack_gyro_data.isra.11
 674              	.LVL75:
 675              		.loc 1 5792 0
 676 008a 2388     		ldrh	r3, [r4]
 677 008c 0E33     		adds	r3, r3, #14
 678 008e 2380     		strh	r3, [r4]	@ movhi
 679              		.loc 1 5793 0
 680 0090 2B78     		ldrb	r3, [r5]	@ zero_extendqisi2
 681 0092 0133     		adds	r3, r3, #1
 682 0094 2B70     		strb	r3, [r5]
 683              		.loc 1 5804 0
 684 0096 70BD     		pop	{r4, r5, r6, pc}
ARM GAS  /tmp/cc4hEOZR.s 			page 13


 685              	.LVL76:
 686              	.L93:
 687              		.loc 1 5771 0
 688 0098 2388     		ldrh	r3, [r4]
 689              	.LVL77:
 690 009a 0E33     		adds	r3, r3, #14
 691 009c 2380     		strh	r3, [r4]	@ movhi
 692              		.loc 1 5804 0
 693 009e 70BD     		pop	{r4, r5, r6, pc}
 694              	.LVL78:
 695              	.L91:
 696              		.loc 1 5735 0
 697 00a0 049B     		ldr	r3, [sp, #16]
 698              	.LVL79:
 699 00a2 2188     		ldrh	r1, [r4]
 700              	.LVL80:
 701 00a4 1A68     		ldr	r2, [r3]
 702              	.LVL81:
 703 00a6 9388     		ldrh	r3, [r2, #4]
 704 00a8 01F10B06 		add	r6, r1, #11
 705 00ac 9E42     		cmp	r6, r3
 706 00ae 24DB     		blt	.L102
 707              	.L148:
 708              		.loc 1 5799 0
 709 00b0 2380     		strh	r3, [r4]	@ movhi
 710              		.loc 1 5804 0
 711 00b2 70BD     		pop	{r4, r5, r6, pc}
 712              	.LVL82:
 713              	.L98:
 714              		.loc 1 5753 0
 715 00b4 049B     		ldr	r3, [sp, #16]
 716              	.LVL83:
 717 00b6 2188     		ldrh	r1, [r4]
 718              	.LVL84:
 719 00b8 1A68     		ldr	r2, [r3]
 720              	.LVL85:
 721 00ba 9388     		ldrh	r3, [r2, #4]
 722 00bc 01F11306 		add	r6, r1, #19
 723 00c0 9E42     		cmp	r6, r3
 724 00c2 F5DA     		bge	.L148
 725              		.loc 1 5761 0
 726 00c4 2B78     		ldrb	r3, [r5]	@ zero_extendqisi2
 727 00c6 0831     		adds	r1, r1, #8
 728 00c8 03EB4303 		add	r3, r3, r3, lsl #1
 729 00cc 00EB8300 		add	r0, r0, r3, lsl #2
 730              	.LVL86:
 731 00d0 89B2     		uxth	r1, r1
 732 00d2 FFF7FEFF 		bl	unpack_gyro_data.isra.11
 733              	.LVL87:
 734              		.loc 1 5764 0
 735 00d6 2388     		ldrh	r3, [r4]
 736 00d8 1433     		adds	r3, r3, #20
 737 00da 2380     		strh	r3, [r4]	@ movhi
 738              		.loc 1 5765 0
 739 00dc 2B78     		ldrb	r3, [r5]	@ zero_extendqisi2
 740 00de 0133     		adds	r3, r3, #1
 741 00e0 2B70     		strb	r3, [r5]
ARM GAS  /tmp/cc4hEOZR.s 			page 14


 742              		.loc 1 5804 0
 743 00e2 70BD     		pop	{r4, r5, r6, pc}
 744              	.LVL88:
 745              	.L150:
 746              		.loc 1 5711 0
 747 00e4 202B     		cmp	r3, #32
 748 00e6 04D0     		beq	.L95
 749 00e8 402B     		cmp	r3, #64
 750 00ea 98D1     		bne	.L89
 751              	.L96:
 752              		.loc 1 5799 0
 753 00ec 2388     		ldrh	r3, [r4]
 754              	.LVL89:
 755 00ee 0633     		adds	r3, r3, #6
 756 00f0 DEE7     		b	.L148
 757              	.LVL90:
 758              	.L95:
 759              		.loc 1 5775 0
 760 00f2 2388     		ldrh	r3, [r4]
 761              	.LVL91:
 762 00f4 0833     		adds	r3, r3, #8
 763 00f6 2380     		strh	r3, [r4]	@ movhi
 764              		.loc 1 5804 0
 765 00f8 70BD     		pop	{r4, r5, r6, pc}
 766              	.LVL92:
 767              	.L102:
 768              		.loc 1 5743 0
 769 00fa 2B78     		ldrb	r3, [r5]	@ zero_extendqisi2
 770 00fc 03EB4303 		add	r3, r3, r3, lsl #1
 771 0100 00EB8300 		add	r0, r0, r3, lsl #2
 772              	.LVL93:
 773 0104 FFF7FEFF 		bl	unpack_gyro_data.isra.11
 774              	.LVL94:
 775              		.loc 1 5746 0
 776 0108 2388     		ldrh	r3, [r4]
 777 010a 0C33     		adds	r3, r3, #12
 778 010c 2380     		strh	r3, [r4]	@ movhi
 779              		.loc 1 5747 0
 780 010e 2B78     		ldrb	r3, [r5]	@ zero_extendqisi2
 781 0110 0133     		adds	r3, r3, #1
 782 0112 2B70     		strb	r3, [r5]
 783              		.loc 1 5804 0
 784 0114 70BD     		pop	{r4, r5, r6, pc}
 785              		.cfi_endproc
 786              	.LFE145:
 787              		.size	unpack_gyro_frame.isra.12, .-unpack_gyro_frame.isra.12
 788 0116 00BF     		.section	.text.unpack_aux_data.isra.14,"ax",%progbits
 789              		.align	1
 790              		.p2align 4,,15
 791              		.syntax unified
 792              		.thumb
 793              		.thumb_func
 794              		.fpu fpv4-sp-d16
 795              		.type	unpack_aux_data.isra.14, %function
 796              	unpack_aux_data.isra.14:
 797              	.LFB147:
 798              		.loc 1 6061 0
ARM GAS  /tmp/cc4hEOZR.s 			page 15


 799              		.cfi_startproc
 800              		@ args = 0, pretend = 0, frame = 0
 801              		@ frame_needed = 0, uses_anonymous_args = 0
 802              		@ link register save eliminated.
 803              	.LVL95:
 804 0000 10B4     		push	{r4}
 805              		.cfi_def_cfa_offset 4
 806              		.cfi_offset 4, -4
 807              		.loc 1 6064 0
 808 0002 1368     		ldr	r3, [r2]
 809              	.LVL96:
 810 0004 4C1C     		adds	r4, r1, #1
 811 0006 5A5C     		ldrb	r2, [r3, r1]	@ zero_extendqisi2
 812 0008 0270     		strb	r2, [r0]
 813              	.LVL97:
 814              		.loc 1 6065 0
 815 000a A4B2     		uxth	r4, r4
 816 000c 8A1C     		adds	r2, r1, #2
 817 000e 1C5D     		ldrb	r4, [r3, r4]	@ zero_extendqisi2
 818 0010 4470     		strb	r4, [r0, #1]
 819              	.LVL98:
 820              		.loc 1 6066 0
 821 0012 92B2     		uxth	r2, r2
 822 0014 CC1C     		adds	r4, r1, #3
 823 0016 9A5C     		ldrb	r2, [r3, r2]	@ zero_extendqisi2
 824 0018 8270     		strb	r2, [r0, #2]
 825              	.LVL99:
 826              		.loc 1 6067 0
 827 001a A4B2     		uxth	r4, r4
 828 001c 0A1D     		adds	r2, r1, #4
 829 001e 1C5D     		ldrb	r4, [r3, r4]	@ zero_extendqisi2
 830 0020 C470     		strb	r4, [r0, #3]
 831              	.LVL100:
 832              		.loc 1 6068 0
 833 0022 92B2     		uxth	r2, r2
 834 0024 4C1D     		adds	r4, r1, #5
 835 0026 9A5C     		ldrb	r2, [r3, r2]	@ zero_extendqisi2
 836 0028 0271     		strb	r2, [r0, #4]
 837              	.LVL101:
 838              		.loc 1 6069 0
 839 002a A4B2     		uxth	r4, r4
 840 002c 8A1D     		adds	r2, r1, #6
 841 002e 1C5D     		ldrb	r4, [r3, r4]	@ zero_extendqisi2
 842 0030 4471     		strb	r4, [r0, #5]
 843              	.LVL102:
 844              		.loc 1 6070 0
 845 0032 92B2     		uxth	r2, r2
 846 0034 0731     		adds	r1, r1, #7
 847              	.LVL103:
 848 0036 9A5C     		ldrb	r2, [r3, r2]	@ zero_extendqisi2
 849 0038 8271     		strb	r2, [r0, #6]
 850              	.LVL104:
 851              		.loc 1 6071 0
 852 003a 89B2     		uxth	r1, r1
 853              	.LVL105:
 854              		.loc 1 6072 0
 855 003c 5DF8044B 		ldr	r4, [sp], #4
ARM GAS  /tmp/cc4hEOZR.s 			page 16


 856              		.cfi_restore 4
 857              		.cfi_def_cfa_offset 0
 858              		.loc 1 6071 0
 859 0040 5B5C     		ldrb	r3, [r3, r1]	@ zero_extendqisi2
 860 0042 C371     		strb	r3, [r0, #7]
 861              		.loc 1 6072 0
 862 0044 7047     		bx	lr
 863              		.cfi_endproc
 864              	.LFE147:
 865              		.size	unpack_aux_data.isra.14, .-unpack_aux_data.isra.14
 866 0046 00BF     		.section	.text.unpack_aux_frame.isra.15,"ax",%progbits
 867              		.align	1
 868              		.p2align 4,,15
 869              		.syntax unified
 870              		.thumb
 871              		.thumb_func
 872              		.fpu fpv4-sp-d16
 873              		.type	unpack_aux_frame.isra.15, %function
 874              	unpack_aux_frame.isra.15:
 875              	.LFB148:
 876              		.loc 1 5954 0
 877              		.cfi_startproc
 878              		@ args = 4, pretend = 0, frame = 0
 879              		@ frame_needed = 0, uses_anonymous_args = 0
 880              	.LVL106:
 881              		.loc 1 5960 0
 882 0000 8C2B     		cmp	r3, #140
 883 0002 66D0     		beq	.L211
 884              		.loc 1 5954 0
 885 0004 70B5     		push	{r4, r5, r6, lr}
 886              		.cfi_def_cfa_offset 16
 887              		.cfi_offset 4, -16
 888              		.cfi_offset 5, -12
 889              		.cfi_offset 6, -8
 890              		.cfi_offset 14, -4
 891 0006 1446     		mov	r4, r2
 892 0008 0D46     		mov	r5, r1
 893              		.loc 1 5960 0
 894 000a 19D9     		bls	.L218
 895 000c 9C2B     		cmp	r3, #156
 896 000e 30D0     		beq	.L161
 897 0010 06D8     		bhi	.L162
 898 0012 942B     		cmp	r3, #148
 899 0014 0AD0     		beq	.L163
 900 0016 982B     		cmp	r3, #152
 901 0018 08D0     		beq	.L163
 902 001a 902B     		cmp	r3, #144
 903 001c 41D0     		beq	.L159
 904              	.L153:
 905              		.loc 1 6055 0
 906 001e 70BD     		pop	{r4, r5, r6, pc}
 907              	.L162:
 908              		.loc 1 5960 0
 909 0020 C02B     		cmp	r3, #192
 910 0022 3AD0     		beq	.L155
 911 0024 E02B     		cmp	r3, #224
 912 0026 24D0     		beq	.L161
ARM GAS  /tmp/cc4hEOZR.s 			page 17


 913 0028 A02B     		cmp	r3, #160
 914 002a F8D1     		bne	.L153
 915              	.L163:
 916              		.loc 1 6002 0
 917 002c 049B     		ldr	r3, [sp, #16]
 918              	.LVL107:
 919 002e 2988     		ldrh	r1, [r5]
 920              	.LVL108:
 921 0030 1A68     		ldr	r2, [r3]
 922              	.LVL109:
 923 0032 9388     		ldrh	r3, [r2, #4]
 924 0034 01F10D06 		add	r6, r1, #13
 925 0038 9E42     		cmp	r6, r3
 926 003a 0EDB     		blt	.L166
 927              	.L216:
 928              		.loc 1 6038 0
 929 003c 2B80     		strh	r3, [r5]	@ movhi
 930              	.L220:
 931              		.loc 1 6055 0
 932 003e 70BD     		pop	{r4, r5, r6, pc}
 933              	.LVL110:
 934              	.L218:
 935              		.loc 1 5960 0
 936 0040 602B     		cmp	r3, #96
 937 0042 F3D0     		beq	.L163
 938 0044 40D9     		bls	.L219
 939 0046 842B     		cmp	r3, #132
 940 0048 03D0     		beq	.L160
 941 004a 882B     		cmp	r3, #136
 942 004c 01D0     		beq	.L160
 943 004e 802B     		cmp	r3, #128
 944 0050 E5D1     		bne	.L153
 945              	.L160:
 946              		.loc 1 6038 0
 947 0052 2B88     		ldrh	r3, [r5]
 948              	.LVL111:
 949 0054 0633     		adds	r3, r3, #6
 950 0056 2B80     		strh	r3, [r5]	@ movhi
 951 0058 F1E7     		b	.L220
 952              	.LVL112:
 953              	.L166:
 954              		.loc 1 6010 0
 955 005a 2378     		ldrb	r3, [r4]	@ zero_extendqisi2
 956 005c 00EBC300 		add	r0, r0, r3, lsl #3
 957              	.LVL113:
 958 0060 FFF7FEFF 		bl	unpack_aux_data.isra.14
 959              	.LVL114:
 960              		.loc 1 6013 0
 961 0064 2B88     		ldrh	r3, [r5]
 962 0066 0E33     		adds	r3, r3, #14
 963 0068 2B80     		strh	r3, [r5]	@ movhi
 964              		.loc 1 6014 0
 965 006a 2378     		ldrb	r3, [r4]	@ zero_extendqisi2
 966 006c 0133     		adds	r3, r3, #1
 967 006e 2370     		strb	r3, [r4]
 968              		.loc 1 6055 0
 969 0070 70BD     		pop	{r4, r5, r6, pc}
ARM GAS  /tmp/cc4hEOZR.s 			page 18


 970              	.LVL115:
 971              	.L161:
 972              		.loc 1 6020 0
 973 0072 049B     		ldr	r3, [sp, #16]
 974              	.LVL116:
 975 0074 2988     		ldrh	r1, [r5]
 976              	.LVL117:
 977 0076 1A68     		ldr	r2, [r3]
 978              	.LVL118:
 979 0078 9388     		ldrh	r3, [r2, #4]
 980 007a 01F11306 		add	r6, r1, #19
 981 007e 9E42     		cmp	r6, r3
 982 0080 DCDA     		bge	.L216
 983              		.loc 1 6028 0
 984 0082 2378     		ldrb	r3, [r4]	@ zero_extendqisi2
 985 0084 00EBC300 		add	r0, r0, r3, lsl #3
 986              	.LVL119:
 987 0088 FFF7FEFF 		bl	unpack_aux_data.isra.14
 988              	.LVL120:
 989              		.loc 1 6031 0
 990 008c 2B88     		ldrh	r3, [r5]
 991 008e 1433     		adds	r3, r3, #20
 992 0090 2B80     		strh	r3, [r5]	@ movhi
 993              		.loc 1 6032 0
 994 0092 2378     		ldrb	r3, [r4]	@ zero_extendqisi2
 995 0094 0133     		adds	r3, r3, #1
 996 0096 2370     		strb	r3, [r4]
 997              		.loc 1 6055 0
 998 0098 70BD     		pop	{r4, r5, r6, pc}
 999              	.LVL121:
 1000              	.L155:
 1001              		.loc 1 6044 0
 1002 009a 0B88     		ldrh	r3, [r1]
 1003              	.LVL122:
 1004 009c 0C33     		adds	r3, r3, #12
 1005 009e 0B80     		strh	r3, [r1]	@ movhi
 1006              		.loc 1 6055 0
 1007 00a0 70BD     		pop	{r4, r5, r6, pc}
 1008              	.LVL123:
 1009              	.L159:
 1010              		.loc 1 5966 0
 1011 00a2 049B     		ldr	r3, [sp, #16]
 1012              	.LVL124:
 1013 00a4 2988     		ldrh	r1, [r5]
 1014              	.LVL125:
 1015 00a6 1A68     		ldr	r2, [r3]
 1016              	.LVL126:
 1017 00a8 9388     		ldrh	r3, [r2, #4]
 1018 00aa CE1D     		adds	r6, r1, #7
 1019 00ac 9E42     		cmp	r6, r3
 1020 00ae C5DA     		bge	.L216
 1021              		.loc 1 5974 0
 1022 00b0 2378     		ldrb	r3, [r4]	@ zero_extendqisi2
 1023 00b2 00EBC300 		add	r0, r0, r3, lsl #3
 1024              	.LVL127:
 1025 00b6 FFF7FEFF 		bl	unpack_aux_data.isra.14
 1026              	.LVL128:
ARM GAS  /tmp/cc4hEOZR.s 			page 19


 1027              		.loc 1 5977 0
 1028 00ba 2B88     		ldrh	r3, [r5]
 1029 00bc 0833     		adds	r3, r3, #8
 1030 00be 2B80     		strh	r3, [r5]	@ movhi
 1031              		.loc 1 5978 0
 1032 00c0 2378     		ldrb	r3, [r4]	@ zero_extendqisi2
 1033 00c2 0133     		adds	r3, r3, #1
 1034 00c4 2370     		strb	r3, [r4]
 1035              		.loc 1 6055 0
 1036 00c6 70BD     		pop	{r4, r5, r6, pc}
 1037              	.LVL129:
 1038              	.L219:
 1039              		.loc 1 5960 0
 1040 00c8 202B     		cmp	r3, #32
 1041 00ca EAD0     		beq	.L159
 1042 00cc 402B     		cmp	r3, #64
 1043 00ce C0D0     		beq	.L160
 1044 00d0 A5E7     		b	.L153
 1045              	.L211:
 1046              		.cfi_def_cfa_offset 0
 1047              		.cfi_restore 4
 1048              		.cfi_restore 5
 1049              		.cfi_restore 6
 1050              		.cfi_restore 14
 1051              		.loc 1 6044 0
 1052 00d2 0B88     		ldrh	r3, [r1]
 1053              	.LVL130:
 1054 00d4 0C33     		adds	r3, r3, #12
 1055 00d6 0B80     		strh	r3, [r1]	@ movhi
 1056 00d8 7047     		bx	lr
 1057              		.cfi_endproc
 1058              	.LFE148:
 1059              		.size	unpack_aux_frame.isra.15, .-unpack_aux_frame.isra.15
 1060 00da 00BF     		.section	.text.unpack_sensortime_frame.isra.18,"ax",%progbits
 1061              		.align	1
 1062              		.p2align 4,,15
 1063              		.syntax unified
 1064              		.thumb
 1065              		.thumb_func
 1066              		.fpu fpv4-sp-d16
 1067              		.type	unpack_sensortime_frame.isra.18, %function
 1068              	unpack_sensortime_frame.isra.18:
 1069              	.LFB151:
 1070              		.loc 1 6192 0
 1071              		.cfi_startproc
 1072              		@ args = 0, pretend = 0, frame = 0
 1073              		@ frame_needed = 0, uses_anonymous_args = 0
 1074              		@ link register save eliminated.
 1075              	.LVL131:
 1076              		.loc 1 6199 0
 1077 0000 0388     		ldrh	r3, [r0]
 1078 0002 8A88     		ldrh	r2, [r1, #4]
 1079              		.loc 1 6192 0
 1080 0004 30B4     		push	{r4, r5}
 1081              		.cfi_def_cfa_offset 8
 1082              		.cfi_offset 4, -8
 1083              		.cfi_offset 5, -4
ARM GAS  /tmp/cc4hEOZR.s 			page 20


 1084              		.loc 1 6199 0
 1085 0006 9C1C     		adds	r4, r3, #2
 1086 0008 9442     		cmp	r4, r2
 1087 000a 0DDA     		bge	.L225
 1088              		.loc 1 6206 0
 1089 000c 0A68     		ldr	r2, [r1]
 1090              	.LVL132:
 1091 000e D418     		adds	r4, r2, r3
 1092              	.LVL133:
 1093              		.loc 1 6211 0
 1094 0010 D55C     		ldrb	r5, [r2, r3]	@ zero_extendqisi2
 1095              		.loc 1 6207 0
 1096 0012 6278     		ldrb	r2, [r4, #1]	@ zero_extendqisi2
 1097              		.loc 1 6206 0
 1098 0014 A478     		ldrb	r4, [r4, #2]	@ zero_extendqisi2
 1099              	.LVL134:
 1100              		.loc 1 6211 0
 1101 0016 1202     		lsls	r2, r2, #8
 1102 0018 42EA0442 		orr	r2, r2, r4, lsl #16
 1103 001c 2A43     		orrs	r2, r2, r5
 1104              		.loc 1 6212 0
 1105 001e 0333     		adds	r3, r3, #3
 1106              	.LVL135:
 1107              		.loc 1 6211 0
 1108 0020 0A61     		str	r2, [r1, #16]
 1109              	.LVL136:
 1110              		.loc 1 6214 0
 1111 0022 30BC     		pop	{r4, r5}
 1112              		.cfi_remember_state
 1113              		.cfi_restore 5
 1114              		.cfi_restore 4
 1115              		.cfi_def_cfa_offset 0
 1116              	.LVL137:
 1117              		.loc 1 6212 0
 1118 0024 0380     		strh	r3, [r0]	@ movhi
 1119              		.loc 1 6214 0
 1120 0026 7047     		bx	lr
 1121              	.LVL138:
 1122              	.L225:
 1123              		.cfi_restore_state
 1124              		.loc 1 6202 0
 1125 0028 0280     		strh	r2, [r0]	@ movhi
 1126              		.loc 1 6214 0
 1127 002a 30BC     		pop	{r4, r5}
 1128              		.cfi_restore 5
 1129              		.cfi_restore 4
 1130              		.cfi_def_cfa_offset 0
 1131 002c 7047     		bx	lr
 1132              		.cfi_endproc
 1133              	.LFE151:
 1134              		.size	unpack_sensortime_frame.isra.18, .-unpack_sensortime_frame.isra.18
 1135 002e 00BF     		.section	.text.bmi160_get_regs,"ax",%progbits
 1136              		.align	1
 1137              		.p2align 4,,15
 1138              		.global	bmi160_get_regs
 1139              		.syntax unified
 1140              		.thumb
ARM GAS  /tmp/cc4hEOZR.s 			page 21


 1141              		.thumb_func
 1142              		.fpu fpv4-sp-d16
 1143              		.type	bmi160_get_regs, %function
 1144              	bmi160_get_regs:
 1145              	.LFB0:
 1146              		.loc 1 1371 0
 1147              		.cfi_startproc
 1148              		@ args = 0, pretend = 0, frame = 0
 1149              		@ frame_needed = 0, uses_anonymous_args = 0
 1150              	.LVL139:
 1151              		.loc 1 1375 0
 1152 0000 93B1     		cbz	r3, .L229
 1153              		.loc 1 1371 0 discriminator 1
 1154 0002 38B5     		push	{r3, r4, r5, lr}
 1155              		.cfi_def_cfa_offset 16
 1156              		.cfi_offset 3, -16
 1157              		.cfi_offset 4, -12
 1158              		.cfi_offset 5, -8
 1159              		.cfi_offset 14, -4
 1160              		.loc 1 1375 0 discriminator 1
 1161 0004 DD69     		ldr	r5, [r3, #28]
 1162 0006 1C46     		mov	r4, r3
 1163 0008 8DB1     		cbz	r5, .L230
 1164              		.loc 1 1382 0
 1165 000a 9B78     		ldrb	r3, [r3, #2]	@ zero_extendqisi2
 1166              	.LVL140:
 1167 000c 012B     		cmp	r3, #1
 1168              		.loc 1 1384 0
 1169 000e 08BF     		it	eq
 1170 0010 40F08000 		orreq	r0, r0, #128
 1171              	.LVL141:
 1172              		.loc 1 1386 0
 1173 0014 1346     		mov	r3, r2
 1174 0016 0A46     		mov	r2, r1
 1175              	.LVL142:
 1176 0018 0146     		mov	r1, r0
 1177              	.LVL143:
 1178 001a 6078     		ldrb	r0, [r4, #1]	@ zero_extendqisi2
 1179              	.LVL144:
 1180 001c A847     		blx	r5
 1181              	.LVL145:
 1182              		.loc 1 1388 0
 1183 001e 0028     		cmp	r0, #0
 1184              	.LVL146:
 1185              		.loc 1 1390 0
 1186 0020 18BF     		it	ne
 1187 0022 6FF00100 		mvnne	r0, #1
 1188              	.LVL147:
 1189              		.loc 1 1395 0
 1190 0026 38BD     		pop	{r3, r4, r5, pc}
 1191              	.LVL148:
 1192              	.L229:
 1193              		.cfi_def_cfa_offset 0
 1194              		.cfi_restore 3
 1195              		.cfi_restore 4
 1196              		.cfi_restore 5
 1197              		.cfi_restore 14
ARM GAS  /tmp/cc4hEOZR.s 			page 22


 1198              		.loc 1 1377 0
 1199 0028 4FF0FF30 		mov	r0, #-1
 1200              	.LVL149:
 1201              		.loc 1 1395 0
 1202 002c 7047     		bx	lr
 1203              	.LVL150:
 1204              	.L230:
 1205              		.cfi_def_cfa_offset 16
 1206              		.cfi_offset 3, -16
 1207              		.cfi_offset 4, -12
 1208              		.cfi_offset 5, -8
 1209              		.cfi_offset 14, -4
 1210              		.loc 1 1377 0
 1211 002e 4FF0FF30 		mov	r0, #-1
 1212              	.LVL151:
 1213              		.loc 1 1395 0
 1214 0032 38BD     		pop	{r3, r4, r5, pc}
 1215              		.cfi_endproc
 1216              	.LFE0:
 1217              		.size	bmi160_get_regs, .-bmi160_get_regs
 1218              		.section	.text.bmi160_set_regs,"ax",%progbits
 1219              		.align	1
 1220              		.p2align 4,,15
 1221              		.global	bmi160_set_regs
 1222              		.syntax unified
 1223              		.thumb
 1224              		.thumb_func
 1225              		.fpu fpv4-sp-d16
 1226              		.type	bmi160_set_regs, %function
 1227              	bmi160_set_regs:
 1228              	.LFB1:
 1229              		.loc 1 1402 0
 1230              		.cfi_startproc
 1231              		@ args = 0, pretend = 0, frame = 0
 1232              		@ frame_needed = 0, uses_anonymous_args = 0
 1233              	.LVL152:
 1234              		.loc 1 1407 0
 1235 0000 002B     		cmp	r3, #0
 1236 0002 41D0     		beq	.L243
 1237              		.loc 1 1402 0 discriminator 1
 1238 0004 2DE9F047 		push	{r4, r5, r6, r7, r8, r9, r10, lr}
 1239              		.cfi_def_cfa_offset 32
 1240              		.cfi_offset 4, -32
 1241              		.cfi_offset 5, -28
 1242              		.cfi_offset 6, -24
 1243              		.cfi_offset 7, -20
 1244              		.cfi_offset 8, -16
 1245              		.cfi_offset 9, -12
 1246              		.cfi_offset 10, -8
 1247              		.cfi_offset 14, -4
 1248              		.loc 1 1407 0 discriminator 1
 1249 0008 D3F820A0 		ldr	r10, [r3, #32]
 1250 000c 1C46     		mov	r4, r3
 1251 000e BAF1000F 		cmp	r10, #0
 1252 0012 3CD0     		beq	.L244
 1253              		.loc 1 1414 0
 1254 0014 9B78     		ldrb	r3, [r3, #2]	@ zero_extendqisi2
ARM GAS  /tmp/cc4hEOZR.s 			page 23


 1255              	.LVL153:
 1256 0016 012B     		cmp	r3, #1
 1257              		.loc 1 1418 0
 1258 0018 237A     		ldrb	r3, [r4, #8]	@ zero_extendqisi2
 1259 001a 0646     		mov	r6, r0
 1260              		.loc 1 1416 0
 1261 001c 08BF     		it	eq
 1262 001e 00F07F06 		andeq	r6, r0, #127
 1263              	.LVL154:
 1264              		.loc 1 1418 0
 1265 0022 112B     		cmp	r3, #17
 1266 0024 8946     		mov	r9, r1
 1267 0026 1746     		mov	r7, r2
 1268 0028 10D1     		bne	.L259
 1269              	.L239:
 1270              		.loc 1 1421 0
 1271 002a 3B46     		mov	r3, r7
 1272 002c 4A46     		mov	r2, r9
 1273              	.LVL155:
 1274 002e 3146     		mov	r1, r6
 1275              	.LVL156:
 1276 0030 6078     		ldrb	r0, [r4, #1]	@ zero_extendqisi2
 1277 0032 D047     		blx	r10
 1278              	.LVL157:
 1279              		.loc 1 1424 0
 1280 0034 636A     		ldr	r3, [r4, #36]
 1281              		.loc 1 1421 0
 1282 0036 8246     		mov	r10, r0
 1283              	.LVL158:
 1284              		.loc 1 1424 0
 1285 0038 0120     		movs	r0, #1
 1286 003a 9847     		blx	r3
 1287              	.LVL159:
 1288              	.L241:
 1289              		.loc 1 1443 0
 1290 003c 6FF00100 		mvn	r0, #1
 1291              		.loc 1 1441 0
 1292 0040 BAF1000F 		cmp	r10, #0
 1293 0044 00D1     		bne	.L237
 1294              	.LVL160:
 1295              	.L242:
 1296              		.loc 1 1409 0
 1297 0046 0020     		movs	r0, #0
 1298              	.LVL161:
 1299              	.L237:
 1300              		.loc 1 1448 0
 1301 0048 BDE8F087 		pop	{r4, r5, r6, r7, r8, r9, r10, pc}
 1302              	.LVL162:
 1303              	.L259:
 1304              		.loc 1 1418 0 discriminator 1
 1305 004c 237C     		ldrb	r3, [r4, #16]	@ zero_extendqisi2
 1306 004e 152B     		cmp	r3, #21
 1307 0050 EBD0     		beq	.L239
 1308              		.loc 1 1431 0
 1309 0052 002A     		cmp	r2, #0
 1310 0054 F7D0     		beq	.L242
 1311 0056 4FF00008 		mov	r8, #0
ARM GAS  /tmp/cc4hEOZR.s 			page 24


 1312 005a 01E0     		b	.L240
 1313              	.LVL163:
 1314              	.L260:
 1315 005c D4F820A0 		ldr	r10, [r4, #32]
 1316              	.LVL164:
 1317              	.L240:
 1318              		.loc 1 1433 0 discriminator 2
 1319 0060 6078     		ldrb	r0, [r4, #1]	@ zero_extendqisi2
 1320 0062 5FFA88F5 		uxtb	r5, r8
 1321              	.LVL165:
 1322 0066 7119     		adds	r1, r6, r5
 1323 0068 09EB0502 		add	r2, r9, r5
 1324 006c C9B2     		uxtb	r1, r1
 1325 006e 0123     		movs	r3, #1
 1326 0070 D047     		blx	r10
 1327              	.LVL166:
 1328              		.loc 1 1431 0 discriminator 2
 1329 0072 0135     		adds	r5, r5, #1
 1330              	.LVL167:
 1331              		.loc 1 1433 0 discriminator 2
 1332 0074 8246     		mov	r10, r0
 1333              	.LVL168:
 1334              		.loc 1 1437 0 discriminator 2
 1335 0076 636A     		ldr	r3, [r4, #36]
 1336 0078 0120     		movs	r0, #1
 1337              	.LVL169:
 1338              		.loc 1 1431 0 discriminator 2
 1339 007a EDB2     		uxtb	r5, r5
 1340              	.LVL170:
 1341              		.loc 1 1437 0 discriminator 2
 1342 007c 9847     		blx	r3
 1343              	.LVL171:
 1344              		.loc 1 1431 0 discriminator 2
 1345 007e BD42     		cmp	r5, r7
 1346 0080 08F10108 		add	r8, r8, #1
 1347              	.LVL172:
 1348 0084 EAD3     		bcc	.L260
 1349 0086 D9E7     		b	.L241
 1350              	.LVL173:
 1351              	.L243:
 1352              		.cfi_def_cfa_offset 0
 1353              		.cfi_restore 4
 1354              		.cfi_restore 5
 1355              		.cfi_restore 6
 1356              		.cfi_restore 7
 1357              		.cfi_restore 8
 1358              		.cfi_restore 9
 1359              		.cfi_restore 10
 1360              		.cfi_restore 14
 1361              		.loc 1 1409 0
 1362 0088 4FF0FF30 		mov	r0, #-1
 1363              	.LVL174:
 1364              		.loc 1 1448 0
 1365 008c 7047     		bx	lr
 1366              	.LVL175:
 1367              	.L244:
 1368              		.cfi_def_cfa_offset 32
ARM GAS  /tmp/cc4hEOZR.s 			page 25


 1369              		.cfi_offset 4, -32
 1370              		.cfi_offset 5, -28
 1371              		.cfi_offset 6, -24
 1372              		.cfi_offset 7, -20
 1373              		.cfi_offset 8, -16
 1374              		.cfi_offset 9, -12
 1375              		.cfi_offset 10, -8
 1376              		.cfi_offset 14, -4
 1377              		.loc 1 1409 0
 1378 008e 4FF0FF30 		mov	r0, #-1
 1379              	.LVL176:
 1380 0092 D9E7     		b	.L237
 1381              		.cfi_endproc
 1382              	.LFE1:
 1383              		.size	bmi160_set_regs, .-bmi160_set_regs
 1384              		.section	.text.map_feature_interrupt.isra.20,"ax",%progbits
 1385              		.align	1
 1386              		.p2align 4,,15
 1387              		.syntax unified
 1388              		.thumb
 1389              		.thumb_func
 1390              		.fpu fpv4-sp-d16
 1391              		.type	map_feature_interrupt.isra.20, %function
 1392              	map_feature_interrupt.isra.20:
 1393              	.LFB153:
 1394              		.loc 1 3818 0
 1395              		.cfi_startproc
 1396              		@ args = 0, pretend = 0, frame = 8
 1397              		@ frame_needed = 0, uses_anonymous_args = 0
 1398              	.LVL177:
 1399 0000 F0B5     		push	{r4, r5, r6, r7, lr}
 1400              		.cfi_def_cfa_offset 20
 1401              		.cfi_offset 4, -20
 1402              		.cfi_offset 5, -16
 1403              		.cfi_offset 6, -12
 1404              		.cfi_offset 7, -8
 1405              		.cfi_offset 14, -4
 1406 0002 83B0     		sub	sp, sp, #12
 1407              		.cfi_def_cfa_offset 32
 1408              		.loc 1 3821 0
 1409 0004 0023     		movs	r3, #0
 1410 0006 ADF80430 		strh	r3, [sp, #4]	@ movhi
 1411 000a 8DF80630 		strb	r3, [sp, #6]
 1412              	.LVL178:
 1413              	.LBB275:
 1414              	.LBB276:
 1415              		.loc 1 1375 0
 1416 000e 002A     		cmp	r2, #0
 1417 0010 3FD0     		beq	.L271
 1418 0012 D769     		ldr	r7, [r2, #28]
 1419 0014 002F     		cmp	r7, #0
 1420 0016 3CD0     		beq	.L271
 1421              		.loc 1 1382 0
 1422 0018 9378     		ldrb	r3, [r2, #2]	@ zero_extendqisi2
 1423 001a 012B     		cmp	r3, #1
 1424              	.LVL179:
 1425 001c 0E46     		mov	r6, r1
ARM GAS  /tmp/cc4hEOZR.s 			page 26


 1426 001e 1446     		mov	r4, r2
 1427 0020 0546     		mov	r5, r0
 1428              		.loc 1 1386 0
 1429 0022 18BF     		it	ne
 1430 0024 5521     		movne	r1, #85
 1431 0026 5078     		ldrb	r0, [r2, #1]	@ zero_extendqisi2
 1432 0028 08BF     		it	eq
 1433 002a D521     		moveq	r1, #213
 1434 002c 01AA     		add	r2, sp, #4
 1435              	.LVL180:
 1436 002e 0323     		movs	r3, #3
 1437 0030 B847     		blx	r7
 1438              	.LVL181:
 1439              		.loc 1 1388 0
 1440 0032 58BB     		cbnz	r0, .L273
 1441              	.LVL182:
 1442              	.LBE276:
 1443              	.LBE275:
 1444              		.loc 1 3827 0
 1445 0034 3378     		ldrb	r3, [r6]	@ zero_extendqisi2
 1446 0036 1A4A     		ldr	r2, .L277
 1447              		.loc 1 3829 0
 1448 0038 2878     		ldrb	r0, [r5]	@ zero_extendqisi2
 1449              		.loc 1 3827 0
 1450 003a D25C     		ldrb	r2, [r2, r3]	@ zero_extendqisi2
 1451 003c 9DF80410 		ldrb	r1, [sp, #4]	@ zero_extendqisi2
 1452              		.loc 1 3828 0
 1453 0040 9DF80650 		ldrb	r5, [sp, #6]	@ zero_extendqisi2
 1454              		.loc 1 3827 0
 1455 0044 D343     		mvns	r3, r2
 1456 0046 5BB2     		sxtb	r3, r3
 1457 0048 1940     		ands	r1, r1, r3
 1458              	.LVL183:
 1459              		.loc 1 3828 0
 1460 004a 2B40     		ands	r3, r3, r5
 1461              	.LVL184:
 1462              		.loc 1 3829 0
 1463 004c 0328     		cmp	r0, #3
 1464 004e 23D8     		bhi	.L274
 1465 0050 DFE800F0 		tbb	[pc, r0]
 1466              	.L265:
 1467 0054 04       		.byte	(.L276-.L265)/2
 1468 0055 10       		.byte	(.L266-.L265)/2
 1469 0056 16       		.byte	(.L267-.L265)/2
 1470 0057 02       		.byte	(.L268-.L265)/2
 1471              		.p2align 1
 1472              	.L268:
 1473              		.loc 1 3844 0
 1474 0058 1143     		orrs	r1, r1, r2
 1475              	.LVL185:
 1476              		.loc 1 3845 0
 1477 005a 1343     		orrs	r3, r3, r2
 1478              	.LVL186:
 1479              	.L276:
 1480              		.loc 1 3844 0
 1481 005c 8DF80410 		strb	r1, [sp, #4]
 1482              	.LVL187:
ARM GAS  /tmp/cc4hEOZR.s 			page 27


 1483              		.loc 1 3845 0
 1484 0060 8DF80630 		strb	r3, [sp, #6]
 1485              	.LVL188:
 1486              	.L269:
 1487              		.loc 1 3852 0
 1488 0064 2346     		mov	r3, r4
 1489 0066 01A9     		add	r1, sp, #4
 1490 0068 0322     		movs	r2, #3
 1491 006a 5520     		movs	r0, #85
 1492 006c FFF7FEFF 		bl	bmi160_set_regs
 1493              	.LVL189:
 1494              	.L262:
 1495              		.loc 1 3857 0
 1496 0070 03B0     		add	sp, sp, #12
 1497              		.cfi_remember_state
 1498              		.cfi_def_cfa_offset 20
 1499              		@ sp needed
 1500 0072 F0BD     		pop	{r4, r5, r6, r7, pc}
 1501              	.LVL190:
 1502              	.L266:
 1503              		.cfi_restore_state
 1504              		.loc 1 3836 0
 1505 0074 1143     		orrs	r1, r1, r2
 1506              	.LVL191:
 1507 0076 8DF80410 		strb	r1, [sp, #4]
 1508              	.LVL192:
 1509              		.loc 1 3837 0
 1510 007a 8DF80630 		strb	r3, [sp, #6]
 1511 007e F1E7     		b	.L269
 1512              	.LVL193:
 1513              	.L267:
 1514              		.loc 1 3840 0
 1515 0080 1343     		orrs	r3, r3, r2
 1516              	.LVL194:
 1517 0082 8DF80630 		strb	r3, [sp, #6]
 1518              	.LVL195:
 1519              		.loc 1 3841 0
 1520 0086 8DF80410 		strb	r1, [sp, #4]
 1521 008a EBE7     		b	.L269
 1522              	.LVL196:
 1523              	.L273:
 1524              	.LBB278:
 1525              	.LBB277:
 1526              		.loc 1 1390 0
 1527 008c 6FF00100 		mvn	r0, #1
 1528              	.LVL197:
 1529 0090 EEE7     		b	.L262
 1530              	.LVL198:
 1531              	.L271:
 1532              		.loc 1 1377 0
 1533 0092 4FF0FF30 		mov	r0, #-1
 1534 0096 EBE7     		b	.L262
 1535              	.LVL199:
 1536              	.L274:
 1537              	.LBE277:
 1538              	.LBE278:
 1539              		.loc 1 3848 0
ARM GAS  /tmp/cc4hEOZR.s 			page 28


 1540 0098 6FF00300 		mvn	r0, #3
 1541 009c E8E7     		b	.L262
 1542              	.L278:
 1543 009e 00BF     		.align	2
 1544              	.L277:
 1545 00a0 00000000 		.word	.LANCHOR0
 1546              		.cfi_endproc
 1547              	.LFE153:
 1548              		.size	map_feature_interrupt.isra.20, .-map_feature_interrupt.isra.20
 1549              		.section	.text.map_hardware_interrupt.isra.23,"ax",%progbits
 1550              		.align	1
 1551              		.p2align 4,,15
 1552              		.syntax unified
 1553              		.thumb
 1554              		.thumb_func
 1555              		.fpu fpv4-sp-d16
 1556              		.type	map_hardware_interrupt.isra.23, %function
 1557              	map_hardware_interrupt.isra.23:
 1558              	.LFB156:
 1559              		.loc 1 3863 0
 1560              		.cfi_startproc
 1561              		@ args = 0, pretend = 0, frame = 8
 1562              		@ frame_needed = 0, uses_anonymous_args = 0
 1563              	.LVL200:
 1564 0000 F0B5     		push	{r4, r5, r6, r7, lr}
 1565              		.cfi_def_cfa_offset 20
 1566              		.cfi_offset 4, -20
 1567              		.cfi_offset 5, -16
 1568              		.cfi_offset 6, -12
 1569              		.cfi_offset 7, -8
 1570              		.cfi_offset 14, -4
 1571 0002 83B0     		sub	sp, sp, #12
 1572              		.cfi_def_cfa_offset 32
 1573              		.loc 1 3866 0
 1574 0004 0023     		movs	r3, #0
 1575 0006 8DF80730 		strb	r3, [sp, #7]
 1576              	.LVL201:
 1577              	.LBB279:
 1578              	.LBB280:
 1579              		.loc 1 1375 0
 1580 000a 002A     		cmp	r2, #0
 1581 000c 37D0     		beq	.L289
 1582 000e D669     		ldr	r6, [r2, #28]
 1583 0010 002E     		cmp	r6, #0
 1584 0012 34D0     		beq	.L289
 1585              		.loc 1 1382 0
 1586 0014 9378     		ldrb	r3, [r2, #2]	@ zero_extendqisi2
 1587 0016 012B     		cmp	r3, #1
 1588              	.LVL202:
 1589 0018 0D46     		mov	r5, r1
 1590 001a 1446     		mov	r4, r2
 1591 001c 0746     		mov	r7, r0
 1592              		.loc 1 1386 0
 1593 001e 18BF     		it	ne
 1594 0020 5621     		movne	r1, #86
 1595 0022 5078     		ldrb	r0, [r2, #1]	@ zero_extendqisi2
 1596 0024 08BF     		it	eq
ARM GAS  /tmp/cc4hEOZR.s 			page 29


 1597 0026 D621     		moveq	r1, #214
 1598 0028 0DF10702 		add	r2, sp, #7
 1599              	.LVL203:
 1600 002c 0123     		movs	r3, #1
 1601 002e B047     		blx	r6
 1602              	.LVL204:
 1603              		.loc 1 1388 0
 1604 0030 10BB     		cbnz	r0, .L291
 1605              	.LVL205:
 1606              	.LBE280:
 1607              	.LBE279:
 1608              		.loc 1 3872 0
 1609 0032 2A78     		ldrb	r2, [r5]	@ zero_extendqisi2
 1610 0034 1549     		ldr	r1, .L296
 1611 0036 9DF80730 		ldrb	r3, [sp, #7]	@ zero_extendqisi2
 1612 003a 895C     		ldrb	r1, [r1, r2]	@ zero_extendqisi2
 1613              	.LVL206:
 1614              		.loc 1 3874 0
 1615 003c 3878     		ldrb	r0, [r7]	@ zero_extendqisi2
 1616              		.loc 1 3873 0
 1617 003e 0A01     		lsls	r2, r1, #4
 1618 0040 D2B2     		uxtb	r2, r2
 1619              		.loc 1 3872 0
 1620 0042 23EA0103 		bic	r3, r3, r1
 1621              		.loc 1 3873 0
 1622 0046 23EA0203 		bic	r3, r3, r2
 1623              	.LVL207:
 1624              		.loc 1 3874 0
 1625 004a 0328     		cmp	r0, #3
 1626 004c 1AD8     		bhi	.L292
 1627 004e DFE800F0 		tbb	[pc, r0]
 1628              	.L283:
 1629 0052 04       		.byte	(.L294-.L283)/2
 1630 0053 03       		.byte	(.L295-.L283)/2
 1631 0054 0F       		.byte	(.L285-.L283)/2
 1632 0055 02       		.byte	(.L286-.L283)/2
 1633              		.p2align 1
 1634              	.L286:
 1635              		.loc 1 3887 0
 1636 0056 0A43     		orrs	r2, r2, r1
 1637              	.L295:
 1638 0058 1343     		orrs	r3, r3, r2
 1639              	.LVL208:
 1640              	.L294:
 1641 005a 8DF80730 		strb	r3, [sp, #7]
 1642              	.LVL209:
 1643              	.L287:
 1644              		.loc 1 3894 0
 1645 005e 2346     		mov	r3, r4
 1646 0060 0DF10701 		add	r1, sp, #7
 1647 0064 0122     		movs	r2, #1
 1648 0066 5620     		movs	r0, #86
 1649 0068 FFF7FEFF 		bl	bmi160_set_regs
 1650              	.LVL210:
 1651              	.L280:
 1652              		.loc 1 3899 0
 1653 006c 03B0     		add	sp, sp, #12
ARM GAS  /tmp/cc4hEOZR.s 			page 30


 1654              		.cfi_remember_state
 1655              		.cfi_def_cfa_offset 20
 1656              		@ sp needed
 1657 006e F0BD     		pop	{r4, r5, r6, r7, pc}
 1658              	.LVL211:
 1659              	.L285:
 1660              		.cfi_restore_state
 1661              		.loc 1 3883 0
 1662 0070 0B43     		orrs	r3, r3, r1
 1663              	.LVL212:
 1664 0072 8DF80730 		strb	r3, [sp, #7]
 1665              	.LVL213:
 1666 0076 F2E7     		b	.L287
 1667              	.LVL214:
 1668              	.L291:
 1669              	.LBB282:
 1670              	.LBB281:
 1671              		.loc 1 1390 0
 1672 0078 6FF00100 		mvn	r0, #1
 1673              	.LVL215:
 1674 007c F6E7     		b	.L280
 1675              	.LVL216:
 1676              	.L289:
 1677              		.loc 1 1377 0
 1678 007e 4FF0FF30 		mov	r0, #-1
 1679 0082 F3E7     		b	.L280
 1680              	.LVL217:
 1681              	.L292:
 1682              	.LBE281:
 1683              	.LBE282:
 1684              		.loc 1 3890 0
 1685 0084 6FF00300 		mvn	r0, #3
 1686 0088 F0E7     		b	.L280
 1687              	.L297:
 1688 008a 00BF     		.align	2
 1689              	.L296:
 1690 008c 00000000 		.word	.LANCHOR0
 1691              		.cfi_endproc
 1692              	.LFE156:
 1693              		.size	map_hardware_interrupt.isra.23, .-map_hardware_interrupt.isra.23
 1694              		.section	.text.set_intr_pin_config,"ax",%progbits
 1695              		.align	1
 1696              		.p2align 4,,15
 1697              		.syntax unified
 1698              		.thumb
 1699              		.thumb_func
 1700              		.fpu fpv4-sp-d16
 1701              		.type	set_intr_pin_config, %function
 1702              	set_intr_pin_config:
 1703              	.LFB41:
 1704              		.loc 1 3050 0
 1705              		.cfi_startproc
 1706              		@ args = 0, pretend = 0, frame = 8
 1707              		@ frame_needed = 0, uses_anonymous_args = 0
 1708              	.LVL218:
 1709 0000 F0B5     		push	{r4, r5, r6, r7, lr}
 1710              		.cfi_def_cfa_offset 20
ARM GAS  /tmp/cc4hEOZR.s 			page 31


 1711              		.cfi_offset 4, -20
 1712              		.cfi_offset 5, -16
 1713              		.cfi_offset 6, -12
 1714              		.cfi_offset 7, -8
 1715              		.cfi_offset 14, -4
 1716 0002 83B0     		sub	sp, sp, #12
 1717              		.cfi_def_cfa_offset 32
 1718              	.LBB293:
 1719              	.LBB294:
 1720              		.loc 1 4984 0
 1721 0004 0023     		movs	r3, #0
 1722              	.LVL219:
 1723 0006 8DF80730 		strb	r3, [sp, #7]
 1724              	.LVL220:
 1725              	.LBB295:
 1726              	.LBB296:
 1727              		.loc 1 1375 0
 1728 000a 0029     		cmp	r1, #0
 1729 000c 00F08680 		beq	.L311
 1730 0010 CE69     		ldr	r6, [r1, #28]
 1731 0012 002E     		cmp	r6, #0
 1732 0014 00F08280 		beq	.L311
 1733              		.loc 1 1382 0
 1734 0018 8B78     		ldrb	r3, [r1, #2]	@ zero_extendqisi2
 1735 001a 012B     		cmp	r3, #1
 1736              	.LVL221:
 1737 001c 0C46     		mov	r4, r1
 1738 001e 0546     		mov	r5, r0
 1739              		.loc 1 1386 0
 1740 0020 0DF10702 		add	r2, sp, #7
 1741              	.LVL222:
 1742 0024 4878     		ldrb	r0, [r1, #1]	@ zero_extendqisi2
 1743              	.LVL223:
 1744 0026 4FF00103 		mov	r3, #1
 1745 002a 0CBF     		ite	eq
 1746 002c D321     		moveq	r1, #211
 1747              	.LVL224:
 1748 002e 5321     		movne	r1, #83
 1749 0030 B047     		blx	r6
 1750              	.LVL225:
 1751              		.loc 1 1388 0
 1752 0032 0028     		cmp	r0, #0
 1753 0034 6FD1     		bne	.L313
 1754              	.LVL226:
 1755 0036 A978     		ldrb	r1, [r5, #2]	@ zero_extendqisi2
 1756              	.LBE296:
 1757              	.LBE295:
 1758              	.LBB297:
 1759              		.loc 1 4995 0
 1760 0038 95F800C0 		ldrb	ip, [r5]	@ zero_extendqisi2
 1761 003c 9DF80730 		ldrb	r3, [sp, #7]	@ zero_extendqisi2
 1762 0040 C1F3C000 		ubfx	r0, r1, #3, #1
 1763 0044 BCF1010F 		cmp	ip, #1
 1764 0048 01F0010E 		and	lr, r1, #1
 1765 004c C1F34007 		ubfx	r7, r1, #1, #1
 1766 0050 C6B2     		uxtb	r6, r0
 1767 0052 C1F38001 		ubfx	r1, r1, #2, #1
ARM GAS  /tmp/cc4hEOZR.s 			page 32


 1768 0056 4CD0     		beq	.L318
 1769              	.LVL227:
 1770              		.loc 1 5017 0
 1771 0058 03F07F03 		and	r3, r3, #127
 1772              	.LVL228:
 1773              		.loc 1 5018 0
 1774 005c 43EACE13 		orr	r3, r3, lr, lsl #7
 1775              	.LVL229:
 1776              		.loc 1 5021 0
 1777 0060 23F04003 		bic	r3, r3, #64
 1778              	.LVL230:
 1779              		.loc 1 5022 0
 1780 0064 43EA8713 		orr	r3, r3, r7, lsl #6
 1781              	.LVL231:
 1782              		.loc 1 5025 0
 1783 0068 23F02003 		bic	r3, r3, #32
 1784              	.LVL232:
 1785              		.loc 1 5026 0
 1786 006c 43EA4113 		orr	r3, r3, r1, lsl #5
 1787              	.LVL233:
 1788              		.loc 1 5029 0
 1789 0070 23F01003 		bic	r3, r3, #16
 1790              	.LVL234:
 1791              		.loc 1 5030 0
 1792 0074 43EA0613 		orr	r3, r3, r6, lsl #4
 1793 0078 8DF80730 		strb	r3, [sp, #7]
 1794              	.LVL235:
 1795              	.L305:
 1796              		.loc 1 5032 0
 1797 007c 2346     		mov	r3, r4
 1798 007e 0122     		movs	r2, #1
 1799 0080 0DF10701 		add	r1, sp, #7
 1800 0084 5320     		movs	r0, #83
 1801 0086 FFF7FEFF 		bl	bmi160_set_regs
 1802              	.LVL236:
 1803              	.LBE297:
 1804              	.LBE294:
 1805              	.LBE293:
 1806              		.loc 1 3055 0
 1807 008a 08B1     		cbz	r0, .L319
 1808              	.LVL237:
 1809              	.L300:
 1810              		.loc 1 3061 0
 1811 008c 03B0     		add	sp, sp, #12
 1812              		.cfi_remember_state
 1813              		.cfi_def_cfa_offset 20
 1814              		@ sp needed
 1815 008e F0BD     		pop	{r4, r5, r6, r7, pc}
 1816              	.LVL238:
 1817              	.L319:
 1818              		.cfi_restore_state
 1819              	.LBB300:
 1820              	.LBB301:
 1821              	.LBB302:
 1822              	.LBB303:
 1823              		.loc 1 1375 0
 1824 0090 E669     		ldr	r6, [r4, #28]
ARM GAS  /tmp/cc4hEOZR.s 			page 33


 1825              	.LBE303:
 1826              	.LBE302:
 1827              		.loc 1 5045 0
 1828 0092 8DF80700 		strb	r0, [sp, #7]
 1829              	.LVL239:
 1830              	.LBB306:
 1831              	.LBB304:
 1832              		.loc 1 1375 0
 1833 0096 002E     		cmp	r6, #0
 1834 0098 40D0     		beq	.L311
 1835              		.loc 1 1382 0
 1836 009a A378     		ldrb	r3, [r4, #2]	@ zero_extendqisi2
 1837              		.loc 1 1386 0
 1838 009c 6078     		ldrb	r0, [r4, #1]	@ zero_extendqisi2
 1839              		.loc 1 1382 0
 1840 009e 012B     		cmp	r3, #1
 1841              	.LVL240:
 1842              		.loc 1 1386 0
 1843 00a0 0CBF     		ite	eq
 1844 00a2 D421     		moveq	r1, #212
 1845 00a4 5421     		movne	r1, #84
 1846 00a6 0123     		movs	r3, #1
 1847 00a8 0DF10702 		add	r2, sp, #7
 1848              	.LVL241:
 1849 00ac B047     		blx	r6
 1850              	.LVL242:
 1851              		.loc 1 1388 0
 1852 00ae 90BB     		cbnz	r0, .L313
 1853              	.LVL243:
 1854              	.LBE304:
 1855              	.LBE306:
 1856              	.LBB307:
 1857              		.loc 1 5054 0
 1858 00b0 2978     		ldrb	r1, [r5]	@ zero_extendqisi2
 1859 00b2 9DF80720 		ldrb	r2, [sp, #7]	@ zero_extendqisi2
 1860              	.LVL244:
 1861 00b6 AB78     		ldrb	r3, [r5, #2]	@ zero_extendqisi2
 1862 00b8 0129     		cmp	r1, #1
 1863 00ba C3F30013 		ubfx	r3, r3, #4, #1
 1864              		.loc 1 5058 0
 1865 00be 0BBF     		itete	eq
 1866 00c0 22F01002 		biceq	r2, r2, #16
 1867              	.LVL245:
 1868              		.loc 1 5065 0
 1869 00c4 22F02002 		bicne	r2, r2, #32
 1870              	.LVL246:
 1871              		.loc 1 5059 0
 1872 00c8 42EA0313 		orreq	r3, r2, r3, lsl #4
 1873              		.loc 1 5066 0
 1874 00cc 42EA4313 		orrne	r3, r2, r3, lsl #5
 1875              	.LVL247:
 1876              		.loc 1 5074 0
 1877 00d0 6A88     		ldrh	r2, [r5, #2]
 1878              		.loc 1 5073 0
 1879 00d2 23F00F05 		bic	r5, r3, #15
 1880              	.LVL248:
 1881              		.loc 1 5074 0
ARM GAS  /tmp/cc4hEOZR.s 			page 34


 1882 00d6 C2F34313 		ubfx	r3, r2, #5, #4
 1883              	.LVL249:
 1884 00da 1D43     		orrs	r5, r5, r3
 1885              		.loc 1 5078 0
 1886 00dc 0DF10701 		add	r1, sp, #7
 1887              	.LVL250:
 1888 00e0 2346     		mov	r3, r4
 1889 00e2 0122     		movs	r2, #1
 1890 00e4 5420     		movs	r0, #84
 1891              		.loc 1 5074 0
 1892 00e6 8DF80750 		strb	r5, [sp, #7]
 1893              	.LVL251:
 1894              		.loc 1 5078 0
 1895 00ea FFF7FEFF 		bl	bmi160_set_regs
 1896              	.LVL252:
 1897              	.LBE307:
 1898              	.LBE301:
 1899              	.LBE300:
 1900              		.loc 1 3061 0
 1901 00ee 03B0     		add	sp, sp, #12
 1902              		.cfi_remember_state
 1903              		.cfi_def_cfa_offset 20
 1904              		@ sp needed
 1905 00f0 F0BD     		pop	{r4, r5, r6, r7, pc}
 1906              	.LVL253:
 1907              	.L318:
 1908              		.cfi_restore_state
 1909              	.LBB310:
 1910              	.LBB299:
 1911              	.LBB298:
 1912              		.loc 1 4998 0
 1913 00f2 23F00802 		bic	r2, r3, #8
 1914              		.loc 1 4999 0
 1915 00f6 42EACE02 		orr	r2, r2, lr, lsl #3
 1916              	.LVL254:
 1917              		.loc 1 5002 0
 1918 00fa 22F00402 		bic	r2, r2, #4
 1919              	.LVL255:
 1920              		.loc 1 5003 0
 1921 00fe 42EA8703 		orr	r3, r2, r7, lsl #2
 1922              	.LVL256:
 1923              		.loc 1 5006 0
 1924 0102 23F00203 		bic	r3, r3, #2
 1925              	.LVL257:
 1926              		.loc 1 5007 0
 1927 0106 43EA4103 		orr	r3, r3, r1, lsl #1
 1928              	.LVL258:
 1929              		.loc 1 5010 0
 1930 010a 23F00103 		bic	r3, r3, #1
 1931              	.LVL259:
 1932              		.loc 1 5011 0
 1933 010e 0343     		orrs	r3, r3, r0
 1934 0110 8DF80730 		strb	r3, [sp, #7]
 1935 0114 B2E7     		b	.L305
 1936              	.LVL260:
 1937              	.L313:
 1938              	.LBE298:
ARM GAS  /tmp/cc4hEOZR.s 			page 35


 1939              	.LBE299:
 1940              	.LBE310:
 1941              	.LBB311:
 1942              	.LBB309:
 1943              	.LBB308:
 1944              	.LBB305:
 1945              		.loc 1 1390 0
 1946 0116 6FF00100 		mvn	r0, #1
 1947 011a B7E7     		b	.L300
 1948              	.LVL261:
 1949              	.L311:
 1950              		.loc 1 1377 0
 1951 011c 4FF0FF30 		mov	r0, #-1
 1952 0120 B4E7     		b	.L300
 1953              	.LBE305:
 1954              	.LBE308:
 1955              	.LBE309:
 1956              	.LBE311:
 1957              		.cfi_endproc
 1958              	.LFE41:
 1959              		.size	set_intr_pin_config, .-set_intr_pin_config
 1960 0122 00BF     		.section	.text.bmi160_soft_reset,"ax",%progbits
 1961              		.align	1
 1962              		.p2align 4,,15
 1963              		.global	bmi160_soft_reset
 1964              		.syntax unified
 1965              		.thumb
 1966              		.thumb_func
 1967              		.fpu fpv4-sp-d16
 1968              		.type	bmi160_soft_reset, %function
 1969              	bmi160_soft_reset:
 1970              	.LFB3:
 1971              		.loc 1 1500 0
 1972              		.cfi_startproc
 1973              		@ args = 0, pretend = 0, frame = 8
 1974              		@ frame_needed = 0, uses_anonymous_args = 0
 1975              	.LVL262:
 1976 0000 70B5     		push	{r4, r5, r6, lr}
 1977              		.cfi_def_cfa_offset 16
 1978              		.cfi_offset 4, -16
 1979              		.cfi_offset 5, -12
 1980              		.cfi_offset 6, -8
 1981              		.cfi_offset 14, -4
 1982 0002 82B0     		sub	sp, sp, #8
 1983              		.cfi_def_cfa_offset 24
 1984              		.loc 1 1502 0
 1985 0004 B623     		movs	r3, #182
 1986 0006 8DF80730 		strb	r3, [sp, #7]
 1987              		.loc 1 1505 0
 1988 000a 30B3     		cbz	r0, .L323
 1989              		.loc 1 1505 0 is_stmt 0 discriminator 1
 1990 000c 436A     		ldr	r3, [r0, #36]
 1991 000e 23B3     		cbz	r3, .L323
 1992              		.loc 1 1512 0 is_stmt 1
 1993 0010 0346     		mov	r3, r0
 1994 0012 0446     		mov	r4, r0
 1995 0014 0DF10701 		add	r1, sp, #7
ARM GAS  /tmp/cc4hEOZR.s 			page 36


 1996 0018 0122     		movs	r2, #1
 1997 001a 7E20     		movs	r0, #126
 1998              	.LVL263:
 1999 001c FFF7FEFF 		bl	bmi160_set_regs
 2000              	.LVL264:
 2001              		.loc 1 1513 0
 2002 0020 636A     		ldr	r3, [r4, #36]
 2003              		.loc 1 1512 0
 2004 0022 0546     		mov	r5, r0
 2005              	.LVL265:
 2006              		.loc 1 1513 0
 2007 0024 0120     		movs	r0, #1
 2008 0026 9847     		blx	r3
 2009              	.LVL266:
 2010              		.loc 1 1514 0
 2011 0028 45B9     		cbnz	r5, .L322
 2012              		.loc 1 1514 0 is_stmt 0 discriminator 1
 2013 002a A378     		ldrb	r3, [r4, #2]	@ zero_extendqisi2
 2014 002c 012B     		cmp	r3, #1
 2015 002e 08D0     		beq	.L324
 2016              	.L325:
 2017              	.LVL267:
 2018              	.LBB312:
 2019              	.LBB313:
 2020              		.loc 1 3094 0 is_stmt 1
 2021 0030 0B4A     		ldr	r2, .L336
 2022              		.loc 1 3098 0
 2023 0032 0C4B     		ldr	r3, .L336+4
 2024              		.loc 1 3102 0
 2025 0034 C4E90122 		strd	r2, r2, [r4, #4]
 2026              		.loc 1 3105 0
 2027 0038 C4E90333 		strd	r3, r3, [r4, #12]
 2028              	.LVL268:
 2029              	.L322:
 2030              	.LBE313:
 2031              	.LBE312:
 2032              		.loc 1 1528 0
 2033 003c 2846     		mov	r0, r5
 2034 003e 02B0     		add	sp, sp, #8
 2035              		.cfi_remember_state
 2036              		.cfi_def_cfa_offset 16
 2037              		@ sp needed
 2038 0040 70BD     		pop	{r4, r5, r6, pc}
 2039              	.LVL269:
 2040              	.L324:
 2041              		.cfi_restore_state
 2042              	.LBB314:
 2043              	.LBB315:
 2044              		.loc 1 1375 0
 2045 0042 E669     		ldr	r6, [r4, #28]
 2046 0044 4EB1     		cbz	r6, .L323
 2047              	.LVL270:
 2048              		.loc 1 1386 0
 2049 0046 0DF10702 		add	r2, sp, #7
 2050              	.LVL271:
 2051 004a FF21     		movs	r1, #255
 2052 004c 6078     		ldrb	r0, [r4, #1]	@ zero_extendqisi2
ARM GAS  /tmp/cc4hEOZR.s 			page 37


 2053 004e B047     		blx	r6
 2054              	.LVL272:
 2055              		.loc 1 1388 0
 2056 0050 0028     		cmp	r0, #0
 2057 0052 EDD0     		beq	.L325
 2058              		.loc 1 1390 0
 2059 0054 6FF00105 		mvn	r5, #1
 2060              	.LVL273:
 2061 0058 F0E7     		b	.L322
 2062              	.LVL274:
 2063              	.L323:
 2064              	.LBE315:
 2065              	.LBE314:
 2066              		.loc 1 1507 0
 2067 005a 4FF0FF35 		mov	r5, #-1
 2068 005e EDE7     		b	.L322
 2069              	.L337:
 2070              		.align	2
 2071              	.L336:
 2072 0060 10080302 		.word	33753104
 2073 0064 14080002 		.word	33556500
 2074              		.cfi_endproc
 2075              	.LFE3:
 2076              		.size	bmi160_soft_reset, .-bmi160_soft_reset
 2077              		.section	.text.bmi160_init,"ax",%progbits
 2078              		.align	1
 2079              		.p2align 4,,15
 2080              		.global	bmi160_init
 2081              		.syntax unified
 2082              		.thumb
 2083              		.thumb_func
 2084              		.fpu fpv4-sp-d16
 2085              		.type	bmi160_init, %function
 2086              	bmi160_init:
 2087              	.LFB2:
 2088              		.loc 1 1456 0
 2089              		.cfi_startproc
 2090              		@ args = 0, pretend = 0, frame = 8
 2091              		@ frame_needed = 0, uses_anonymous_args = 0
 2092              	.LVL275:
 2093              	.LBB316:
 2094              	.LBB317:
 2095              		.loc 1 3071 0
 2096 0000 0028     		cmp	r0, #0
 2097 0002 48D0     		beq	.L348
 2098              	.LBE317:
 2099              	.LBE316:
 2100              		.loc 1 1456 0
 2101 0004 70B5     		push	{r4, r5, r6, lr}
 2102              		.cfi_def_cfa_offset 16
 2103              		.cfi_offset 4, -16
 2104              		.cfi_offset 5, -12
 2105              		.cfi_offset 6, -8
 2106              		.cfi_offset 14, -4
 2107              	.LBB322:
 2108              	.LBB318:
 2109              		.loc 1 3071 0
ARM GAS  /tmp/cc4hEOZR.s 			page 38


 2110 0006 C669     		ldr	r6, [r0, #28]
 2111              	.LBE318:
 2112              	.LBE322:
 2113              		.loc 1 1456 0
 2114 0008 82B0     		sub	sp, sp, #8
 2115              		.cfi_def_cfa_offset 24
 2116              	.LBB323:
 2117              	.LBB319:
 2118              		.loc 1 3071 0
 2119 000a 002E     		cmp	r6, #0
 2120 000c 3FD0     		beq	.L351
 2121 000e 036A     		ldr	r3, [r0, #32]
 2122 0010 002B     		cmp	r3, #0
 2123 0012 3CD0     		beq	.L351
 2124 0014 436A     		ldr	r3, [r0, #36]
 2125 0016 002B     		cmp	r3, #0
 2126 0018 39D0     		beq	.L351
 2127              	.LBE319:
 2128              	.LBE323:
 2129              		.loc 1 1466 0
 2130 001a 8378     		ldrb	r3, [r0, #2]	@ zero_extendqisi2
 2131 001c 012B     		cmp	r3, #1
 2132 001e 0446     		mov	r4, r0
 2133              	.LVL276:
 2134 0020 07D1     		bne	.L342
 2135              	.LVL277:
 2136              	.LBB324:
 2137              	.LBB325:
 2138              		.loc 1 1386 0
 2139 0022 0DF10702 		add	r2, sp, #7
 2140              	.LVL278:
 2141 0026 FF21     		movs	r1, #255
 2142 0028 4078     		ldrb	r0, [r0, #1]	@ zero_extendqisi2
 2143              	.LVL279:
 2144 002a B047     		blx	r6
 2145              	.LVL280:
 2146              		.loc 1 1388 0
 2147 002c 0028     		cmp	r0, #0
 2148 002e 3AD1     		bne	.L352
 2149 0030 E669     		ldr	r6, [r4, #28]
 2150              	.LVL281:
 2151              	.L342:
 2152              	.LBE325:
 2153              	.LBE324:
 2154              		.loc 1 1473 0
 2155 0032 0023     		movs	r3, #0
 2156 0034 2370     		strb	r3, [r4]
 2157              	.LVL282:
 2158 0036 0325     		movs	r5, #3
 2159              	.LVL283:
 2160              	.LBB327:
 2161              	.LBB328:
 2162              		.loc 1 1386 0
 2163 0038 0123     		movs	r3, #1
 2164 003a 2246     		mov	r2, r4
 2165              		.loc 1 1375 0
 2166 003c B6B1     		cbz	r6, .L353
ARM GAS  /tmp/cc4hEOZR.s 			page 39


 2167              	.LVL284:
 2168              	.L370:
 2169              		.loc 1 1382 0
 2170 003e A178     		ldrb	r1, [r4, #2]	@ zero_extendqisi2
 2171              		.loc 1 1386 0
 2172 0040 6078     		ldrb	r0, [r4, #1]	@ zero_extendqisi2
 2173              		.loc 1 1382 0
 2174 0042 9942     		cmp	r1, r3
 2175              	.LVL285:
 2176              		.loc 1 1386 0
 2177 0044 0CBF     		ite	eq
 2178 0046 8021     		moveq	r1, #128
 2179 0048 0021     		movne	r1, #0
 2180 004a B047     		blx	r6
 2181              	.LVL286:
 2182 004c 6B1E     		subs	r3, r5, #1
 2183              		.loc 1 1390 0
 2184 004e 0028     		cmp	r0, #0
 2185              	.LVL287:
 2186 0050 18BF     		it	ne
 2187 0052 6FF00100 		mvnne	r0, #1
 2188              	.LBE328:
 2189              	.LBE327:
 2190              		.loc 1 1474 0
 2191 0056 13F0FF05 		ands	r5, r3, #255
 2192              	.LVL288:
 2193 005a 0DD0     		beq	.L345
 2194              	.LVL289:
 2195              	.L371:
 2196 005c 2378     		ldrb	r3, [r4]	@ zero_extendqisi2
 2197 005e D12B     		cmp	r3, #209
 2198 0060 1CD0     		beq	.L363
 2199 0062 E669     		ldr	r6, [r4, #28]
 2200              	.LVL290:
 2201              	.LBB331:
 2202              	.LBB329:
 2203              		.loc 1 1386 0
 2204 0064 0123     		movs	r3, #1
 2205 0066 2246     		mov	r2, r4
 2206              		.loc 1 1375 0
 2207 0068 002E     		cmp	r6, #0
 2208 006a E8D1     		bne	.L370
 2209              	.LVL291:
 2210              	.L353:
 2211 006c 6B1E     		subs	r3, r5, #1
 2212              	.LBE329:
 2213              	.LBE331:
 2214              		.loc 1 1474 0
 2215 006e 13F0FF05 		ands	r5, r3, #255
 2216              	.LBB332:
 2217              	.LBB330:
 2218              		.loc 1 1377 0
 2219 0072 4FF0FF30 		mov	r0, #-1
 2220              	.LVL292:
 2221              	.LBE330:
 2222              	.LBE332:
 2223              		.loc 1 1474 0
ARM GAS  /tmp/cc4hEOZR.s 			page 40


 2224 0076 F1D1     		bne	.L371
 2225              	.LVL293:
 2226              	.L345:
 2227              		.loc 1 1479 0
 2228 0078 90B9     		cbnz	r0, .L369
 2229              		.loc 1 1479 0 is_stmt 0 discriminator 1
 2230 007a 2378     		ldrb	r3, [r4]	@ zero_extendqisi2
 2231 007c D12B     		cmp	r3, #209
 2232 007e 0FD1     		bne	.L369
 2233              	.L347:
 2234              		.loc 1 1481 0 is_stmt 1
 2235 0080 FF23     		movs	r3, #255
 2236 0082 E370     		strb	r3, [r4, #3]
 2237              		.loc 1 1484 0
 2238 0084 2046     		mov	r0, r4
 2239 0086 FFF7FEFF 		bl	bmi160_soft_reset
 2240              	.LVL294:
 2241              		.loc 1 1493 0
 2242 008a 02B0     		add	sp, sp, #8
 2243              		.cfi_remember_state
 2244              		.cfi_def_cfa_offset 16
 2245              		@ sp needed
 2246 008c 70BD     		pop	{r4, r5, r6, pc}
 2247              	.LVL295:
 2248              	.L351:
 2249              		.cfi_restore_state
 2250              	.LBB333:
 2251              	.LBB320:
 2252              		.loc 1 3073 0
 2253 008e 4FF0FF30 		mov	r0, #-1
 2254              	.LVL296:
 2255              	.L364:
 2256              	.LBE320:
 2257              	.LBE333:
 2258              		.loc 1 1493 0
 2259 0092 02B0     		add	sp, sp, #8
 2260              		.cfi_def_cfa_offset 16
 2261              		@ sp needed
 2262 0094 70BD     		pop	{r4, r5, r6, pc}
 2263              	.LVL297:
 2264              	.L348:
 2265              		.cfi_def_cfa_offset 0
 2266              		.cfi_restore 4
 2267              		.cfi_restore 5
 2268              		.cfi_restore 6
 2269              		.cfi_restore 14
 2270              	.LBB334:
 2271              	.LBB321:
 2272              		.loc 1 3073 0
 2273 0096 4FF0FF30 		mov	r0, #-1
 2274              	.LVL298:
 2275              	.LBE321:
 2276              	.LBE334:
 2277              		.loc 1 1493 0
 2278 009a 7047     		bx	lr
 2279              	.LVL299:
 2280              	.L363:
ARM GAS  /tmp/cc4hEOZR.s 			page 41


 2281              		.cfi_def_cfa_offset 24
 2282              		.cfi_offset 4, -16
 2283              		.cfi_offset 5, -12
 2284              		.cfi_offset 6, -8
 2285              		.cfi_offset 14, -4
 2286              		.loc 1 1479 0
 2287 009c 0028     		cmp	r0, #0
 2288 009e EFD0     		beq	.L347
 2289              	.L369:
 2290              		.loc 1 1488 0
 2291 00a0 6FF00200 		mvn	r0, #2
 2292              	.LVL300:
 2293              		.loc 1 1492 0
 2294 00a4 F5E7     		b	.L364
 2295              	.LVL301:
 2296              	.L352:
 2297              	.LBB335:
 2298              	.LBB326:
 2299              		.loc 1 1390 0
 2300 00a6 6FF00100 		mvn	r0, #1
 2301              	.LVL302:
 2302 00aa F2E7     		b	.L364
 2303              	.LBE326:
 2304              	.LBE335:
 2305              		.cfi_endproc
 2306              	.LFE2:
 2307              		.size	bmi160_init, .-bmi160_init
 2308              		.section	.text.bmi160_set_power_mode,"ax",%progbits
 2309              		.align	1
 2310              		.p2align 4,,15
 2311              		.global	bmi160_set_power_mode
 2312              		.syntax unified
 2313              		.thumb
 2314              		.thumb_func
 2315              		.fpu fpv4-sp-d16
 2316              		.type	bmi160_set_power_mode, %function
 2317              	bmi160_set_power_mode:
 2318              	.LFB5:
 2319              		.loc 1 1568 0
 2320              		.cfi_startproc
 2321              		@ args = 0, pretend = 0, frame = 8
 2322              		@ frame_needed = 0, uses_anonymous_args = 0
 2323              	.LVL303:
 2324 0000 30B5     		push	{r4, r5, lr}
 2325              		.cfi_def_cfa_offset 12
 2326              		.cfi_offset 4, -12
 2327              		.cfi_offset 5, -8
 2328              		.cfi_offset 14, -4
 2329 0002 83B0     		sub	sp, sp, #12
 2330              		.cfi_def_cfa_offset 24
 2331              		.loc 1 1572 0
 2332 0004 0028     		cmp	r0, #0
 2333 0006 00F09080 		beq	.L393
 2334              		.loc 1 1572 0 is_stmt 0 discriminator 1
 2335 000a 436A     		ldr	r3, [r0, #36]
 2336 000c 002B     		cmp	r3, #0
 2337 000e 00F08C80 		beq	.L393
ARM GAS  /tmp/cc4hEOZR.s 			page 42


 2338              	.LVL304:
 2339              	.LBB344:
 2340              	.LBB345:
 2341              		.loc 1 3420 0 is_stmt 1
 2342 0012 0379     		ldrb	r3, [r0, #4]	@ zero_extendqisi2
 2343 0014 A3F11001 		sub	r1, r3, #16
 2344              		.loc 1 3418 0
 2345 0018 0022     		movs	r2, #0
 2346              		.loc 1 3420 0
 2347 001a 0229     		cmp	r1, #2
 2348              		.loc 1 3418 0
 2349 001c 8DF80620 		strb	r2, [sp, #6]
 2350              		.loc 1 3420 0
 2351 0020 00F28680 		bhi	.L395
 2352              		.loc 1 3422 0
 2353 0024 017A     		ldrb	r1, [r0, #8]	@ zero_extendqisi2
 2354 0026 9942     		cmp	r1, r3
 2355 0028 0446     		mov	r4, r0
 2356 002a 27D0     		beq	.L376
 2357              	.LVL305:
 2358              	.LBB346:
 2359              	.LBB347:
 2360              	.LBB348:
 2361              	.LBB349:
 2362              		.loc 1 1375 0
 2363 002c C569     		ldr	r5, [r0, #28]
 2364              	.LBE349:
 2365              	.LBE348:
 2366              		.loc 1 3454 0
 2367 002e 8DF80720 		strb	r2, [sp, #7]
 2368              	.LVL306:
 2369              	.LBB352:
 2370              	.LBB350:
 2371              		.loc 1 1375 0
 2372 0032 002D     		cmp	r5, #0
 2373 0034 79D0     		beq	.L393
 2374              		.loc 1 1382 0
 2375 0036 8378     		ldrb	r3, [r0, #2]	@ zero_extendqisi2
 2376              		.loc 1 1386 0
 2377 0038 4078     		ldrb	r0, [r0, #1]	@ zero_extendqisi2
 2378              	.LVL307:
 2379              		.loc 1 1382 0
 2380 003a 012B     		cmp	r3, #1
 2381              	.LVL308:
 2382              		.loc 1 1386 0
 2383 003c 0CBF     		ite	eq
 2384 003e C021     		moveq	r1, #192
 2385 0040 4021     		movne	r1, #64
 2386 0042 0DF10602 		add	r2, sp, #6
 2387              	.LVL309:
 2388 0046 0123     		movs	r3, #1
 2389 0048 A847     		blx	r5
 2390              	.LVL310:
 2391              		.loc 1 1388 0
 2392 004a 0028     		cmp	r0, #0
 2393 004c 5FD1     		bne	.L390
 2394              	.LVL311:
ARM GAS  /tmp/cc4hEOZR.s 			page 43


 2395              	.LBE350:
 2396              	.LBE352:
 2397              		.loc 1 3459 0
 2398 004e 2279     		ldrb	r2, [r4, #4]	@ zero_extendqisi2
 2399 0050 9DF80630 		ldrb	r3, [sp, #6]	@ zero_extendqisi2
 2400 0054 122A     		cmp	r2, #18
 2401 0056 32D0     		beq	.L399
 2402              		.loc 1 3479 0
 2403 0058 1A06     		lsls	r2, r3, #24
 2404 005a 49D4     		bmi	.L400
 2405              	.LVL312:
 2406              	.L385:
 2407              	.LBE347:
 2408              	.LBE346:
 2409              		.loc 1 3428 0
 2410 005c 2346     		mov	r3, r4
 2411 005e 0122     		movs	r2, #1
 2412 0060 211D     		adds	r1, r4, #4
 2413 0062 7E20     		movs	r0, #126
 2414 0064 FFF7FEFF 		bl	bmi160_set_regs
 2415              	.LVL313:
 2416              		.loc 1 3431 0
 2417 0068 237A     		ldrb	r3, [r4, #8]	@ zero_extendqisi2
 2418 006a 102B     		cmp	r3, #16
 2419              		.loc 1 3428 0
 2420 006c 0546     		mov	r5, r0
 2421              	.LVL314:
 2422              		.loc 1 3431 0
 2423 006e 02D1     		bne	.L386
 2424              		.loc 1 3433 0
 2425 0070 636A     		ldr	r3, [r4, #36]
 2426 0072 0520     		movs	r0, #5
 2427 0074 9847     		blx	r3
 2428              	.LVL315:
 2429              	.L386:
 2430              		.loc 1 3435 0
 2431 0076 2379     		ldrb	r3, [r4, #4]	@ zero_extendqisi2
 2432 0078 2372     		strb	r3, [r4, #8]
 2433              	.LVL316:
 2434              	.LBE345:
 2435              	.LBE344:
 2436              		.loc 1 1579 0
 2437 007a EDB9     		cbnz	r5, .L397
 2438              	.L376:
 2439              	.LVL317:
 2440              	.LBB361:
 2441              	.LBB362:
 2442              		.loc 1 3503 0
 2443 007c 237B     		ldrb	r3, [r4, #12]	@ zero_extendqisi2
 2444 007e A3F11402 		sub	r2, r3, #20
 2445 0082 012A     		cmp	r2, #1
 2446 0084 01D9     		bls	.L387
 2447 0086 172B     		cmp	r3, #23
 2448 0088 52D1     		bne	.L395
 2449              	.L387:
 2450              		.loc 1 3506 0
 2451 008a 227C     		ldrb	r2, [r4, #16]	@ zero_extendqisi2
ARM GAS  /tmp/cc4hEOZR.s 			page 44


 2452 008c 9A42     		cmp	r2, r3
 2453 008e 12D0     		beq	.L396
 2454              		.loc 1 3509 0
 2455 0090 2346     		mov	r3, r4
 2456 0092 0122     		movs	r2, #1
 2457 0094 04F10C01 		add	r1, r4, #12
 2458 0098 7E20     		movs	r0, #126
 2459 009a FFF7FEFF 		bl	bmi160_set_regs
 2460              	.LVL318:
 2461              		.loc 1 3510 0
 2462 009e 237C     		ldrb	r3, [r4, #16]	@ zero_extendqisi2
 2463 00a0 142B     		cmp	r3, #20
 2464              		.loc 1 3509 0
 2465 00a2 0546     		mov	r5, r0
 2466              	.LVL319:
 2467              		.loc 1 3510 0
 2468 00a4 36D1     		bne	.L388
 2469              		.loc 1 3513 0
 2470 00a6 636A     		ldr	r3, [r4, #36]
 2471 00a8 5120     		movs	r0, #81
 2472 00aa 9847     		blx	r3
 2473              	.LVL320:
 2474 00ac 227B     		ldrb	r2, [r4, #12]	@ zero_extendqisi2
 2475              	.L389:
 2476              		.loc 1 3526 0
 2477 00ae 2274     		strb	r2, [r4, #16]
 2478              	.L401:
 2479              	.LBE362:
 2480              	.LBE361:
 2481              		.loc 1 1586 0
 2482 00b0 2846     		mov	r0, r5
 2483 00b2 03B0     		add	sp, sp, #12
 2484              		.cfi_remember_state
 2485              		.cfi_def_cfa_offset 12
 2486              		@ sp needed
 2487 00b4 30BD     		pop	{r4, r5, pc}
 2488              	.LVL321:
 2489              	.L396:
 2490              		.cfi_restore_state
 2491              	.LBB366:
 2492              	.LBB363:
 2493              		.loc 1 3501 0
 2494 00b6 0025     		movs	r5, #0
 2495              	.LVL322:
 2496              	.L397:
 2497              	.LBE363:
 2498              	.LBE366:
 2499              		.loc 1 1586 0
 2500 00b8 2846     		mov	r0, r5
 2501 00ba 03B0     		add	sp, sp, #12
 2502              		.cfi_remember_state
 2503              		.cfi_def_cfa_offset 12
 2504              		@ sp needed
 2505 00bc 30BD     		pop	{r4, r5, pc}
 2506              	.LVL323:
 2507              	.L399:
 2508              		.cfi_restore_state
ARM GAS  /tmp/cc4hEOZR.s 			page 45


 2509              	.LBB367:
 2510              	.LBB360:
 2511              	.LBB357:
 2512              	.LBB354:
 2513              		.loc 1 3464 0
 2514 00be 63F07F05 		orn	r5, r3, #127
 2515              		.loc 1 3467 0
 2516 00c2 0DF10601 		add	r1, sp, #6
 2517              	.LVL324:
 2518 00c6 2346     		mov	r3, r4
 2519              	.LVL325:
 2520 00c8 0122     		movs	r2, #1
 2521 00ca 4020     		movs	r0, #64
 2522              		.loc 1 3464 0
 2523 00cc 8DF80650 		strb	r5, [sp, #6]
 2524              		.loc 1 3467 0
 2525 00d0 FFF7FEFF 		bl	bmi160_set_regs
 2526              	.LVL326:
 2527              		.loc 1 3471 0
 2528 00d4 0546     		mov	r5, r0
 2529 00d6 0028     		cmp	r0, #0
 2530 00d8 EED1     		bne	.L397
 2531              		.loc 1 3474 0
 2532 00da 2346     		mov	r3, r4
 2533 00dc 0222     		movs	r2, #2
 2534 00de 0DF10701 		add	r1, sp, #7
 2535 00e2 5820     		movs	r0, #88
 2536              	.LVL327:
 2537 00e4 FFF7FEFF 		bl	bmi160_set_regs
 2538              	.LVL328:
 2539 00e8 0546     		mov	r5, r0
 2540              	.LVL329:
 2541              	.LBE354:
 2542              	.LBE357:
 2543              		.loc 1 3425 0
 2544 00ea 002D     		cmp	r5, #0
 2545 00ec B6D0     		beq	.L385
 2546 00ee E3E7     		b	.L397
 2547              	.LVL330:
 2548              	.L400:
 2549              	.LBB358:
 2550              	.LBB355:
 2551              		.loc 1 3481 0
 2552 00f0 03F07F05 		and	r5, r3, #127
 2553              		.loc 1 3488 0
 2554 00f4 0DF10601 		add	r1, sp, #6
 2555              	.LVL331:
 2556 00f8 2346     		mov	r3, r4
 2557              	.LVL332:
 2558 00fa 0122     		movs	r2, #1
 2559 00fc 4020     		movs	r0, #64
 2560              		.loc 1 3485 0
 2561 00fe 8DF80650 		strb	r5, [sp, #6]
 2562              		.loc 1 3488 0
 2563 0102 FFF7FEFF 		bl	bmi160_set_regs
 2564              	.LVL333:
 2565 0106 0546     		mov	r5, r0
ARM GAS  /tmp/cc4hEOZR.s 			page 46


 2566              	.LVL334:
 2567              	.LBE355:
 2568              	.LBE358:
 2569              		.loc 1 3425 0
 2570 0108 002D     		cmp	r5, #0
 2571 010a A7D0     		beq	.L385
 2572 010c D4E7     		b	.L397
 2573              	.LVL335:
 2574              	.L390:
 2575              	.LBB359:
 2576              	.LBB356:
 2577              	.LBB353:
 2578              	.LBB351:
 2579              		.loc 1 1390 0
 2580 010e 6FF00105 		mvn	r5, #1
 2581              	.LVL336:
 2582              	.LBE351:
 2583              	.LBE353:
 2584              	.LBE356:
 2585              	.LBE359:
 2586              	.LBE360:
 2587              	.LBE367:
 2588              		.loc 1 1585 0
 2589 0112 D1E7     		b	.L397
 2590              	.LVL337:
 2591              	.L388:
 2592              	.LBB368:
 2593              	.LBB364:
 2594              		.loc 1 3515 0
 2595 0114 172B     		cmp	r3, #23
 2596 0116 227B     		ldrb	r2, [r4, #12]	@ zero_extendqisi2
 2597 0118 C9D1     		bne	.L389
 2598 011a 152A     		cmp	r2, #21
 2599 011c C7D1     		bne	.L389
 2600              		.loc 1 3520 0
 2601 011e 636A     		ldr	r3, [r4, #36]
 2602 0120 0A20     		movs	r0, #10
 2603 0122 9847     		blx	r3
 2604              	.LVL338:
 2605 0124 227B     		ldrb	r2, [r4, #12]	@ zero_extendqisi2
 2606              		.loc 1 3526 0
 2607 0126 2274     		strb	r2, [r4, #16]
 2608 0128 C2E7     		b	.L401
 2609              	.LVL339:
 2610              	.L393:
 2611              	.LBE364:
 2612              	.LBE368:
 2613              		.loc 1 1574 0
 2614 012a 4FF0FF35 		mov	r5, #-1
 2615 012e C3E7     		b	.L397
 2616              	.LVL340:
 2617              	.L395:
 2618              	.LBB369:
 2619              	.LBB365:
 2620              		.loc 1 3531 0
 2621 0130 6FF00305 		mvn	r5, #3
 2622 0134 C0E7     		b	.L397
ARM GAS  /tmp/cc4hEOZR.s 			page 47


 2623              	.LBE365:
 2624              	.LBE369:
 2625              		.cfi_endproc
 2626              	.LFE5:
 2627              		.size	bmi160_set_power_mode, .-bmi160_set_power_mode
 2628 0136 00BF     		.section	.text.bmi160_set_sens_conf,"ax",%progbits
 2629              		.align	1
 2630              		.p2align 4,,15
 2631              		.global	bmi160_set_sens_conf
 2632              		.syntax unified
 2633              		.thumb
 2634              		.thumb_func
 2635              		.fpu fpv4-sp-d16
 2636              		.type	bmi160_set_sens_conf, %function
 2637              	bmi160_set_sens_conf:
 2638              	.LFB4:
 2639              		.loc 1 1535 0
 2640              		.cfi_startproc
 2641              		@ args = 0, pretend = 0, frame = 8
 2642              		@ frame_needed = 0, uses_anonymous_args = 0
 2643              	.LVL341:
 2644              		.loc 1 1539 0
 2645 0000 0028     		cmp	r0, #0
 2646 0002 00F0D780 		beq	.L429
 2647              		.loc 1 1539 0 is_stmt 0 discriminator 1
 2648 0006 436A     		ldr	r3, [r0, #36]
 2649 0008 002B     		cmp	r3, #0
 2650 000a 00F0D380 		beq	.L429
 2651              	.LVL342:
 2652              		.loc 1 1535 0 is_stmt 1
 2653 000e 30B5     		push	{r4, r5, lr}
 2654              		.cfi_def_cfa_offset 12
 2655              		.cfi_offset 4, -12
 2656              		.cfi_offset 5, -8
 2657              		.cfi_offset 14, -4
 2658              	.LBB400:
 2659              	.LBB401:
 2660              	.LBB402:
 2661              	.LBB403:
 2662              	.LBB404:
 2663              	.LBB405:
 2664              		.loc 1 1375 0
 2665 0010 C569     		ldr	r5, [r0, #28]
 2666              	.LBE405:
 2667              	.LBE404:
 2668              	.LBE403:
 2669              	.LBE402:
 2670              	.LBE401:
 2671              	.LBE400:
 2672              		.loc 1 1535 0
 2673 0012 83B0     		sub	sp, sp, #12
 2674              		.cfi_def_cfa_offset 24
 2675              	.LBB420:
 2676              	.LBB416:
 2677              		.loc 1 3114 0
 2678 0014 0023     		movs	r3, #0
 2679 0016 ADF80430 		strh	r3, [sp, #4]	@ movhi
ARM GAS  /tmp/cc4hEOZR.s 			page 48


 2680              	.LVL343:
 2681              	.LBB415:
 2682              	.LBB414:
 2683              	.LBB407:
 2684              	.LBB406:
 2685              		.loc 1 1375 0
 2686 001a 002D     		cmp	r5, #0
 2687 001c 00F0CD80 		beq	.L411
 2688              		.loc 1 1382 0
 2689 0020 8378     		ldrb	r3, [r0, #2]	@ zero_extendqisi2
 2690 0022 012B     		cmp	r3, #1
 2691              	.LVL344:
 2692 0024 0446     		mov	r4, r0
 2693              		.loc 1 1386 0
 2694 0026 14BF     		ite	ne
 2695 0028 4021     		movne	r1, #64
 2696 002a C021     		moveq	r1, #192
 2697 002c 4078     		ldrb	r0, [r0, #1]	@ zero_extendqisi2
 2698              	.LVL345:
 2699 002e 01AA     		add	r2, sp, #4
 2700              	.LVL346:
 2701 0030 0223     		movs	r3, #2
 2702 0032 A847     		blx	r5
 2703              	.LVL347:
 2704              		.loc 1 1388 0
 2705 0034 0028     		cmp	r0, #0
 2706 0036 40F0C380 		bne	.L425
 2707              	.LVL348:
 2708              	.LBE406:
 2709              	.LBE407:
 2710              		.loc 1 3149 0
 2711 003a 6379     		ldrb	r3, [r4, #5]	@ zero_extendqisi2
 2712              	.LVL349:
 2713              	.LBB408:
 2714              	.LBB409:
 2715              		.loc 1 3172 0
 2716 003c 0F2B     		cmp	r3, #15
 2717 003e 00F2B680 		bhi	.L415
 2718              		.loc 1 3174 0
 2719 0042 627A     		ldrb	r2, [r4, #9]	@ zero_extendqisi2
 2720 0044 9A42     		cmp	r2, r3
 2721 0046 08D0     		beq	.L407
 2722              	.LVL350:
 2723              		.loc 1 3177 0
 2724 0048 9DF80420 		ldrb	r2, [sp, #4]	@ zero_extendqisi2
 2725              		.loc 1 3180 0
 2726 004c 03F00F03 		and	r3, r3, #15
 2727              	.LVL351:
 2728              		.loc 1 3177 0
 2729 0050 22F00F02 		bic	r2, r2, #15
 2730              		.loc 1 3180 0
 2731 0054 1343     		orrs	r3, r3, r2
 2732 0056 8DF80430 		strb	r3, [sp, #4]
 2733              	.LVL352:
 2734              	.L407:
 2735              	.LBE409:
 2736              	.LBE408:
ARM GAS  /tmp/cc4hEOZR.s 			page 49


 2737              		.loc 1 3152 0
 2738 005a E379     		ldrb	r3, [r4, #7]	@ zero_extendqisi2
 2739              	.LVL353:
 2740              	.LBB410:
 2741              	.LBB411:
 2742              		.loc 1 3200 0
 2743 005c 022B     		cmp	r3, #2
 2744 005e 00F2A680 		bhi	.L415
 2745              		.loc 1 3202 0
 2746 0062 E27A     		ldrb	r2, [r4, #11]	@ zero_extendqisi2
 2747 0064 9A42     		cmp	r2, r3
 2748 0066 05D0     		beq	.L408
 2749              	.LVL354:
 2750              		.loc 1 3205 0
 2751 0068 9DF80430 		ldrb	r3, [sp, #4]	@ zero_extendqisi2
 2752              	.LVL355:
 2753 006c 23F07003 		bic	r3, r3, #112
 2754              		.loc 1 3208 0
 2755 0070 8DF80430 		strb	r3, [sp, #4]
 2756              	.LVL356:
 2757              	.L408:
 2758              	.LBE411:
 2759              	.LBE410:
 2760              		.loc 1 3155 0
 2761 0074 A379     		ldrb	r3, [r4, #6]	@ zero_extendqisi2
 2762              	.LVL357:
 2763              	.LBB412:
 2764              	.LBB413:
 2765              		.loc 1 3228 0
 2766 0076 0C2B     		cmp	r3, #12
 2767 0078 00F29980 		bhi	.L415
 2768              		.loc 1 3230 0
 2769 007c A27A     		ldrb	r2, [r4, #10]	@ zero_extendqisi2
 2770 007e 9A42     		cmp	r2, r3
 2771 0080 08D0     		beq	.L409
 2772              	.LVL358:
 2773              		.loc 1 3233 0
 2774 0082 9DF80520 		ldrb	r2, [sp, #5]	@ zero_extendqisi2
 2775              		.loc 1 3236 0
 2776 0086 03F00F03 		and	r3, r3, #15
 2777              	.LVL359:
 2778              		.loc 1 3233 0
 2779 008a 22F00F02 		bic	r2, r2, #15
 2780              		.loc 1 3236 0
 2781 008e 1343     		orrs	r3, r3, r2
 2782 0090 8DF80530 		strb	r3, [sp, #5]
 2783              	.LVL360:
 2784              	.L409:
 2785              	.LBE413:
 2786              	.LBE412:
 2787              	.LBE414:
 2788              	.LBE415:
 2789              		.loc 1 3120 0
 2790 0094 2346     		mov	r3, r4
 2791 0096 0122     		movs	r2, #1
 2792 0098 01A9     		add	r1, sp, #4
 2793 009a 4020     		movs	r0, #64
ARM GAS  /tmp/cc4hEOZR.s 			page 50


 2794 009c FFF7FEFF 		bl	bmi160_set_regs
 2795              	.LVL361:
 2796              		.loc 1 3121 0
 2797 00a0 08B1     		cbz	r0, .L443
 2798              	.LVL362:
 2799              	.L438:
 2800              	.LBE416:
 2801              	.LBE420:
 2802              		.loc 1 1562 0
 2803 00a2 03B0     		add	sp, sp, #12
 2804              		.cfi_remember_state
 2805              		.cfi_def_cfa_offset 12
 2806              		@ sp needed
 2807 00a4 30BD     		pop	{r4, r5, pc}
 2808              	.LVL363:
 2809              	.L443:
 2810              		.cfi_restore_state
 2811              	.LBB421:
 2812              	.LBB417:
 2813              		.loc 1 3123 0
 2814 00a6 6279     		ldrb	r2, [r4, #5]	@ zero_extendqisi2
 2815              		.loc 1 3124 0
 2816 00a8 E379     		ldrb	r3, [r4, #7]	@ zero_extendqisi2
 2817              		.loc 1 3123 0
 2818 00aa 6272     		strb	r2, [r4, #9]
 2819              		.loc 1 3124 0
 2820 00ac E372     		strb	r3, [r4, #11]
 2821              		.loc 1 3127 0
 2822 00ae 0DF10501 		add	r1, sp, #5
 2823              	.LVL364:
 2824 00b2 2346     		mov	r3, r4
 2825 00b4 0122     		movs	r2, #1
 2826 00b6 4120     		movs	r0, #65
 2827              	.LVL365:
 2828 00b8 FFF7FEFF 		bl	bmi160_set_regs
 2829              	.LVL366:
 2830              		.loc 1 3128 0
 2831 00bc 0028     		cmp	r0, #0
 2832 00be F0D1     		bne	.L438
 2833              	.LBE417:
 2834              	.LBE421:
 2835              	.LBB422:
 2836              	.LBB423:
 2837              	.LBB424:
 2838              	.LBB425:
 2839              	.LBB426:
 2840              	.LBB427:
 2841              		.loc 1 1375 0
 2842 00c0 E569     		ldr	r5, [r4, #28]
 2843              	.LBE427:
 2844              	.LBE426:
 2845              	.LBE425:
 2846              	.LBE424:
 2847              	.LBE423:
 2848              	.LBE422:
 2849              	.LBB456:
 2850              	.LBB418:
ARM GAS  /tmp/cc4hEOZR.s 			page 51


 2851              		.loc 1 3130 0
 2852 00c2 A379     		ldrb	r3, [r4, #6]	@ zero_extendqisi2
 2853              	.LBE418:
 2854              	.LBE456:
 2855              	.LBB457:
 2856              	.LBB452:
 2857              		.loc 1 3282 0
 2858 00c4 ADF80400 		strh	r0, [sp, #4]	@ movhi
 2859              	.LBE452:
 2860              	.LBE457:
 2861              	.LBB458:
 2862              	.LBB419:
 2863              		.loc 1 3130 0
 2864 00c8 A372     		strb	r3, [r4, #10]
 2865              	.LVL367:
 2866              	.LBE419:
 2867              	.LBE458:
 2868              	.LBB459:
 2869              	.LBB453:
 2870              	.LBB449:
 2871              	.LBB446:
 2872              	.LBB430:
 2873              	.LBB428:
 2874              		.loc 1 1375 0
 2875 00ca 002D     		cmp	r5, #0
 2876 00cc 75D0     		beq	.L411
 2877              		.loc 1 1382 0
 2878 00ce A378     		ldrb	r3, [r4, #2]	@ zero_extendqisi2
 2879              		.loc 1 1386 0
 2880 00d0 6078     		ldrb	r0, [r4, #1]	@ zero_extendqisi2
 2881              		.loc 1 1382 0
 2882 00d2 012B     		cmp	r3, #1
 2883              	.LVL368:
 2884              		.loc 1 1386 0
 2885 00d4 14BF     		ite	ne
 2886 00d6 4221     		movne	r1, #66
 2887 00d8 C221     		moveq	r1, #194
 2888 00da 0223     		movs	r3, #2
 2889 00dc 01AA     		add	r2, sp, #4
 2890              	.LVL369:
 2891 00de A847     		blx	r5
 2892              	.LVL370:
 2893              		.loc 1 1388 0
 2894 00e0 0028     		cmp	r0, #0
 2895 00e2 6DD1     		bne	.L425
 2896              	.LVL371:
 2897              	.LBE428:
 2898              	.LBE430:
 2899              		.loc 1 3317 0
 2900 00e4 637B     		ldrb	r3, [r4, #13]	@ zero_extendqisi2
 2901              	.LVL372:
 2902              	.LBB431:
 2903              	.LBB432:
 2904              		.loc 1 3340 0
 2905 00e6 0D2B     		cmp	r3, #13
 2906 00e8 61D8     		bhi	.L415
 2907              		.loc 1 3342 0
ARM GAS  /tmp/cc4hEOZR.s 			page 52


 2908 00ea 627C     		ldrb	r2, [r4, #17]	@ zero_extendqisi2
 2909 00ec 9A42     		cmp	r2, r3
 2910 00ee 08D0     		beq	.L414
 2911              	.LVL373:
 2912              		.loc 1 3345 0
 2913 00f0 9DF80420 		ldrb	r2, [sp, #4]	@ zero_extendqisi2
 2914              		.loc 1 3348 0
 2915 00f4 03F00F03 		and	r3, r3, #15
 2916              	.LVL374:
 2917              		.loc 1 3345 0
 2918 00f8 22F00F02 		bic	r2, r2, #15
 2919              		.loc 1 3348 0
 2920 00fc 1343     		orrs	r3, r3, r2
 2921 00fe 8DF80430 		strb	r3, [sp, #4]
 2922              	.LVL375:
 2923              	.L414:
 2924              	.LBE432:
 2925              	.LBE431:
 2926              		.loc 1 3320 0
 2927 0102 E17B     		ldrb	r1, [r4, #15]	@ zero_extendqisi2
 2928              	.LVL376:
 2929              	.LBB434:
 2930              	.LBB435:
 2931              		.loc 1 3368 0
 2932 0104 0229     		cmp	r1, #2
 2933 0106 52D8     		bhi	.L415
 2934              	.LVL377:
 2935              		.loc 1 3371 0
 2936 0108 9DF80430 		ldrb	r3, [sp, #4]	@ zero_extendqisi2
 2937              	.LBE435:
 2938              	.LBE434:
 2939              		.loc 1 3323 0
 2940 010c A27B     		ldrb	r2, [r4, #14]	@ zero_extendqisi2
 2941              	.LBB438:
 2942              	.LBB436:
 2943              		.loc 1 3371 0
 2944 010e 23F03003 		bic	r3, r3, #48
 2945              		.loc 1 3374 0
 2946 0112 43EA0113 		orr	r3, r3, r1, lsl #4
 2947              	.LBE436:
 2948              	.LBE438:
 2949              	.LBB439:
 2950              	.LBB440:
 2951              		.loc 1 3393 0
 2952 0116 042A     		cmp	r2, #4
 2953              	.LBE440:
 2954              	.LBE439:
 2955              	.LBB442:
 2956              	.LBB437:
 2957              		.loc 1 3374 0
 2958 0118 8DF80430 		strb	r3, [sp, #4]
 2959              	.LVL378:
 2960              	.LBE437:
 2961              	.LBE442:
 2962              	.LBB443:
 2963              	.LBB441:
 2964              		.loc 1 3393 0
ARM GAS  /tmp/cc4hEOZR.s 			page 53


 2965 011c 47D8     		bhi	.L415
 2966              		.loc 1 3395 0
 2967 011e A37C     		ldrb	r3, [r4, #18]	@ zero_extendqisi2
 2968 0120 9342     		cmp	r3, r2
 2969 0122 08D0     		beq	.L416
 2970              	.LVL379:
 2971              		.loc 1 3398 0
 2972 0124 9DF80530 		ldrb	r3, [sp, #5]	@ zero_extendqisi2
 2973              		.loc 1 3401 0
 2974 0128 02F00702 		and	r2, r2, #7
 2975              	.LVL380:
 2976              		.loc 1 3398 0
 2977 012c 23F00703 		bic	r3, r3, #7
 2978              		.loc 1 3401 0
 2979 0130 1A43     		orrs	r2, r2, r3
 2980 0132 8DF80520 		strb	r2, [sp, #5]
 2981              	.LVL381:
 2982              	.L416:
 2983              	.LBE441:
 2984              	.LBE443:
 2985              	.LBE446:
 2986              	.LBE449:
 2987              		.loc 1 3288 0
 2988 0136 2346     		mov	r3, r4
 2989 0138 0122     		movs	r2, #1
 2990 013a 01A9     		add	r1, sp, #4
 2991              	.LVL382:
 2992 013c 4220     		movs	r0, #66
 2993 013e FFF7FEFF 		bl	bmi160_set_regs
 2994              	.LVL383:
 2995              		.loc 1 3289 0
 2996 0142 0028     		cmp	r0, #0
 2997 0144 ADD1     		bne	.L438
 2998              		.loc 1 3291 0
 2999 0146 627B     		ldrb	r2, [r4, #13]	@ zero_extendqisi2
 3000              		.loc 1 3292 0
 3001 0148 E37B     		ldrb	r3, [r4, #15]	@ zero_extendqisi2
 3002              		.loc 1 3291 0
 3003 014a 6274     		strb	r2, [r4, #17]
 3004              		.loc 1 3292 0
 3005 014c E374     		strb	r3, [r4, #19]
 3006              		.loc 1 3295 0
 3007 014e 0DF10501 		add	r1, sp, #5
 3008              	.LVL384:
 3009 0152 2346     		mov	r3, r4
 3010 0154 0122     		movs	r2, #1
 3011 0156 4320     		movs	r0, #67
 3012              	.LVL385:
 3013 0158 FFF7FEFF 		bl	bmi160_set_regs
 3014              	.LVL386:
 3015              		.loc 1 3296 0
 3016 015c 0028     		cmp	r0, #0
 3017 015e A0D1     		bne	.L438
 3018              		.loc 1 3298 0
 3019 0160 A37B     		ldrb	r3, [r4, #14]	@ zero_extendqisi2
 3020 0162 A374     		strb	r3, [r4, #18]
 3021              	.LVL387:
ARM GAS  /tmp/cc4hEOZR.s 			page 54


 3022              	.LBE453:
 3023              	.LBE459:
 3024              	.LBB460:
 3025              	.LBB461:
 3026              		.loc 1 1552 0
 3027 0164 2046     		mov	r0, r4
 3028 0166 FFF7FEFF 		bl	bmi160_set_power_mode
 3029              	.LVL388:
 3030              		.loc 1 1553 0
 3031 016a 0028     		cmp	r0, #0
 3032 016c 99D1     		bne	.L438
 3033              	.LVL389:
 3034              	.LBB462:
 3035              	.LBB463:
 3036              	.LBB464:
 3037              	.LBB465:
 3038              		.loc 1 1375 0
 3039 016e E569     		ldr	r5, [r4, #28]
 3040              	.LBE465:
 3041              	.LBE464:
 3042              		.loc 1 3254 0
 3043 0170 8DF80400 		strb	r0, [sp, #4]
 3044              	.LVL390:
 3045              	.LBB469:
 3046              	.LBB466:
 3047              		.loc 1 1375 0
 3048 0174 0DB3     		cbz	r5, .L411
 3049              		.loc 1 1382 0
 3050 0176 A378     		ldrb	r3, [r4, #2]	@ zero_extendqisi2
 3051              		.loc 1 1386 0
 3052 0178 6078     		ldrb	r0, [r4, #1]	@ zero_extendqisi2
 3053              	.LVL391:
 3054              		.loc 1 1382 0
 3055 017a 012B     		cmp	r3, #1
 3056              	.LVL392:
 3057              		.loc 1 1386 0
 3058 017c 14BF     		ite	ne
 3059 017e 0221     		movne	r1, #2
 3060 0180 8221     		moveq	r1, #130
 3061 0182 0123     		movs	r3, #1
 3062 0184 01AA     		add	r2, sp, #4
 3063              	.LVL393:
 3064 0186 A847     		blx	r5
 3065              	.LVL394:
 3066              	.LBE466:
 3067              	.LBE469:
 3068              		.loc 1 3258 0
 3069 0188 9DF80430 		ldrb	r3, [sp, #4]	@ zero_extendqisi2
 3070              	.LBB470:
 3071              	.LBB467:
 3072              		.loc 1 1388 0
 3073 018c 0028     		cmp	r0, #0
 3074              	.LVL395:
 3075              	.LBE467:
 3076              	.LBE470:
 3077              		.loc 1 3259 0
 3078 018e C3F34303 		ubfx	r3, r3, #1, #4
ARM GAS  /tmp/cc4hEOZR.s 			page 55


 3079              	.LBB471:
 3080              	.LBB468:
 3081              		.loc 1 1390 0
 3082 0192 18BF     		it	ne
 3083 0194 6FF00100 		mvnne	r0, #1
 3084              	.LVL396:
 3085              	.LBE468:
 3086              	.LBE471:
 3087              		.loc 1 3260 0
 3088 0198 012B     		cmp	r3, #1
 3089 019a 1AD0     		beq	.L435
 3090              		.loc 1 3264 0
 3091 019c 022B     		cmp	r3, #2
 3092 019e 15D0     		beq	.L436
 3093              		.loc 1 3268 0
 3094 01a0 032B     		cmp	r3, #3
 3095 01a2 10D0     		beq	.L437
 3096              		.loc 1 3272 0
 3097 01a4 072B     		cmp	r3, #7
 3098              		.loc 1 3274 0
 3099 01a6 08BF     		it	eq
 3100 01a8 6FF00800 		mvneq	r0, #8
 3101 01ac 79E7     		b	.L438
 3102              	.LVL397:
 3103              	.L415:
 3104              	.LBE463:
 3105              	.LBE462:
 3106              	.LBE461:
 3107              	.LBE460:
 3108              	.LBB475:
 3109              	.LBB454:
 3110              	.LBB450:
 3111              	.LBB447:
 3112              	.LBB444:
 3113              	.LBB433:
 3114              		.loc 1 3353 0
 3115 01ae 6FF00300 		mvn	r0, #3
 3116 01b2 76E7     		b	.L438
 3117              	.LVL398:
 3118              	.L429:
 3119              		.cfi_def_cfa_offset 0
 3120              		.cfi_restore 4
 3121              		.cfi_restore 5
 3122              		.cfi_restore 14
 3123              	.LBE433:
 3124              	.LBE444:
 3125              	.LBE447:
 3126              	.LBE450:
 3127              	.LBE454:
 3128              	.LBE475:
 3129              		.loc 1 1541 0
 3130 01b4 4FF0FF30 		mov	r0, #-1
 3131              	.LVL399:
 3132              		.loc 1 1562 0
 3133 01b8 7047     		bx	lr
 3134              	.LVL400:
 3135              	.L411:
ARM GAS  /tmp/cc4hEOZR.s 			page 56


 3136              		.cfi_def_cfa_offset 24
 3137              		.cfi_offset 4, -12
 3138              		.cfi_offset 5, -8
 3139              		.cfi_offset 14, -4
 3140              	.LBB476:
 3141              	.LBB455:
 3142              	.LBB451:
 3143              	.LBB448:
 3144              	.LBB445:
 3145              	.LBB429:
 3146              		.loc 1 1377 0
 3147 01ba 4FF0FF30 		mov	r0, #-1
 3148 01be 70E7     		b	.L438
 3149              	.LVL401:
 3150              	.L425:
 3151              		.loc 1 1390 0
 3152 01c0 6FF00100 		mvn	r0, #1
 3153              	.LVL402:
 3154              	.LBE429:
 3155              	.LBE445:
 3156              	.LBE448:
 3157              	.LBE451:
 3158              	.LBE455:
 3159              	.LBE476:
 3160              		.loc 1 1561 0
 3161 01c4 6DE7     		b	.L438
 3162              	.LVL403:
 3163              	.L437:
 3164              	.LBB477:
 3165              	.LBB474:
 3166              	.LBB473:
 3167              	.LBB472:
 3168              		.loc 1 3270 0
 3169 01c6 6FF00700 		mvn	r0, #7
 3170              	.LVL404:
 3171 01ca 6AE7     		b	.L438
 3172              	.LVL405:
 3173              	.L436:
 3174              		.loc 1 3266 0
 3175 01cc 6FF00600 		mvn	r0, #6
 3176 01d0 67E7     		b	.L438
 3177              	.L435:
 3178              		.loc 1 3262 0
 3179 01d2 6FF00500 		mvn	r0, #5
 3180 01d6 64E7     		b	.L438
 3181              	.LBE472:
 3182              	.LBE473:
 3183              	.LBE474:
 3184              	.LBE477:
 3185              		.cfi_endproc
 3186              	.LFE4:
 3187              		.size	bmi160_set_sens_conf, .-bmi160_set_sens_conf
 3188              		.section	.text.bmi160_get_power_mode,"ax",%progbits
 3189              		.align	1
 3190              		.p2align 4,,15
 3191              		.global	bmi160_get_power_mode
 3192              		.syntax unified
ARM GAS  /tmp/cc4hEOZR.s 			page 57


 3193              		.thumb
 3194              		.thumb_func
 3195              		.fpu fpv4-sp-d16
 3196              		.type	bmi160_get_power_mode, %function
 3197              	bmi160_get_power_mode:
 3198              	.LFB6:
 3199              		.loc 1 1592 0
 3200              		.cfi_startproc
 3201              		@ args = 0, pretend = 0, frame = 8
 3202              		@ frame_needed = 0, uses_anonymous_args = 0
 3203              	.LVL406:
 3204 0000 30B5     		push	{r4, r5, lr}
 3205              		.cfi_def_cfa_offset 12
 3206              		.cfi_offset 4, -12
 3207              		.cfi_offset 5, -8
 3208              		.cfi_offset 14, -4
 3209 0002 83B0     		sub	sp, sp, #12
 3210              		.cfi_def_cfa_offset 24
 3211              		.loc 1 1594 0
 3212 0004 0023     		movs	r3, #0
 3213 0006 8DF80730 		strb	r3, [sp, #7]
 3214              		.loc 1 1597 0
 3215 000a E9B1     		cbz	r1, .L449
 3216              		.loc 1 1597 0 is_stmt 0 discriminator 1
 3217 000c 4B6A     		ldr	r3, [r1, #36]
 3218 000e DBB1     		cbz	r3, .L449
 3219              	.LVL407:
 3220              	.LBB478:
 3221              	.LBB479:
 3222              		.loc 1 1375 0 is_stmt 1
 3223 0010 CD69     		ldr	r5, [r1, #28]
 3224 0012 CDB1     		cbz	r5, .L449
 3225              		.loc 1 1382 0
 3226 0014 8B78     		ldrb	r3, [r1, #2]	@ zero_extendqisi2
 3227 0016 012B     		cmp	r3, #1
 3228              	.LVL408:
 3229 0018 0446     		mov	r4, r0
 3230              		.loc 1 1386 0
 3231 001a 4FF00103 		mov	r3, #1
 3232 001e 4878     		ldrb	r0, [r1, #1]	@ zero_extendqisi2
 3233              	.LVL409:
 3234 0020 0DF10702 		add	r2, sp, #7
 3235              	.LVL410:
 3236 0024 14BF     		ite	ne
 3237 0026 0321     		movne	r1, #3
 3238              	.LVL411:
 3239 0028 8321     		moveq	r1, #131
 3240 002a A847     		blx	r5
 3241              	.LVL412:
 3242              		.loc 1 1388 0
 3243 002c 78B9     		cbnz	r0, .L451
 3244              	.LVL413:
 3245              	.LBE479:
 3246              	.LBE478:
 3247              		.loc 1 1607 0
 3248 002e 9DF80730 		ldrb	r3, [sp, #7]	@ zero_extendqisi2
 3249 0032 03F00301 		and	r1, r3, #3
ARM GAS  /tmp/cc4hEOZR.s 			page 58


 3250              		.loc 1 1608 0
 3251 0036 C3F38102 		ubfx	r2, r3, #2, #2
 3252              		.loc 1 1609 0
 3253 003a C3F30113 		ubfx	r3, r3, #4, #2
 3254              		.loc 1 1607 0
 3255 003e A170     		strb	r1, [r4, #2]
 3256              		.loc 1 1608 0
 3257 0040 6270     		strb	r2, [r4, #1]
 3258              		.loc 1 1609 0
 3259 0042 2370     		strb	r3, [r4]
 3260              	.LVL414:
 3261              	.L445:
 3262              		.loc 1 1614 0
 3263 0044 03B0     		add	sp, sp, #12
 3264              		.cfi_remember_state
 3265              		.cfi_def_cfa_offset 12
 3266              		@ sp needed
 3267 0046 30BD     		pop	{r4, r5, pc}
 3268              	.LVL415:
 3269              	.L449:
 3270              		.cfi_restore_state
 3271              		.loc 1 1599 0
 3272 0048 4FF0FF30 		mov	r0, #-1
 3273              	.LVL416:
 3274 004c FAE7     		b	.L445
 3275              	.LVL417:
 3276              	.L451:
 3277              	.LBB481:
 3278              	.LBB480:
 3279              		.loc 1 1390 0
 3280 004e 6FF00100 		mvn	r0, #1
 3281              	.LVL418:
 3282 0052 F7E7     		b	.L445
 3283              	.LBE480:
 3284              	.LBE481:
 3285              		.cfi_endproc
 3286              	.LFE6:
 3287              		.size	bmi160_get_power_mode, .-bmi160_get_power_mode
 3288              		.section	.text.bmi160_get_sensor_data,"ax",%progbits
 3289              		.align	1
 3290              		.p2align 4,,15
 3291              		.global	bmi160_get_sensor_data
 3292              		.syntax unified
 3293              		.thumb
 3294              		.thumb_func
 3295              		.fpu fpv4-sp-d16
 3296              		.type	bmi160_get_sensor_data, %function
 3297              	bmi160_get_sensor_data:
 3298              	.LFB7:
 3299              		.loc 1 1624 0
 3300              		.cfi_startproc
 3301              		@ args = 0, pretend = 0, frame = 16
 3302              		@ frame_needed = 0, uses_anonymous_args = 0
 3303              	.LVL419:
 3304 0000 F0B5     		push	{r4, r5, r6, r7, lr}
 3305              		.cfi_def_cfa_offset 20
 3306              		.cfi_offset 4, -20
ARM GAS  /tmp/cc4hEOZR.s 			page 59


 3307              		.cfi_offset 5, -16
 3308              		.cfi_offset 6, -12
 3309              		.cfi_offset 7, -8
 3310              		.cfi_offset 14, -4
 3311              		.loc 1 1628 0
 3312 0002 10F0040F 		tst	r0, #4
 3313              	.LVL420:
 3314              		.loc 1 1624 0
 3315 0006 85B0     		sub	sp, sp, #20
 3316              		.cfi_def_cfa_offset 40
 3317              		.loc 1 1628 0
 3318 0008 14BF     		ite	ne
 3319 000a 0325     		movne	r5, #3
 3320 000c 0025     		moveq	r5, #0
 3321              	.LVL421:
 3322              		.loc 1 1640 0
 3323 000e 002B     		cmp	r3, #0
 3324 0010 00F0D080 		beq	.L478
 3325 0014 00F00300 		and	r0, r0, #3
 3326              	.LVL422:
 3327              		.loc 1 1642 0
 3328 0018 0228     		cmp	r0, #2
 3329 001a 1446     		mov	r4, r2
 3330 001c 60D0     		beq	.L456
 3331 001e 0328     		cmp	r0, #3
 3332 0020 0E46     		mov	r6, r1
 3333 0022 05D0     		beq	.L457
 3334 0024 0128     		cmp	r0, #1
 3335 0026 53D0     		beq	.L485
 3336              		.loc 1 1681 0
 3337 0028 6FF00400 		mvn	r0, #4
 3338              	.LVL423:
 3339              	.L455:
 3340              		.loc 1 1691 0
 3341 002c 05B0     		add	sp, sp, #20
 3342              		.cfi_remember_state
 3343              		.cfi_def_cfa_offset 20
 3344              		@ sp needed
 3345 002e F0BD     		pop	{r4, r5, r6, r7, pc}
 3346              	.LVL424:
 3347              	.L457:
 3348              		.cfi_restore_state
 3349              		.loc 1 1671 0
 3350 0030 002A     		cmp	r2, #0
 3351 0032 00F0BF80 		beq	.L478
 3352              		.loc 1 1671 0 is_stmt 0 discriminator 1
 3353 0036 0029     		cmp	r1, #0
 3354 0038 00F0BC80 		beq	.L478
 3355              	.LVL425:
 3356              	.LBB492:
 3357              	.LBB493:
 3358              		.loc 1 3678 0 is_stmt 1
 3359 003c 6A46     		mov	r2, sp
 3360              	.LVL426:
 3361              	.LBB494:
 3362              	.LBB495:
 3363              		.loc 1 1375 0
ARM GAS  /tmp/cc4hEOZR.s 			page 60


 3364 003e DF69     		ldr	r7, [r3, #28]
 3365              	.LBE495:
 3366              	.LBE494:
 3367              		.loc 1 3678 0
 3368 0040 0021     		movs	r1, #0
 3369              	.LVL427:
 3370 0042 9160     		str	r1, [r2, #8]
 3371 0044 0091     		str	r1, [sp]
 3372 0046 5160     		str	r1, [r2, #4]
 3373 0048 C2F80B10 		str	r1, [r2, #11]	@ unaligned
 3374              	.LVL428:
 3375              		.loc 1 3688 0
 3376 004c 05F10C01 		add	r1, r5, #12
 3377              	.LVL429:
 3378              	.LBB497:
 3379              	.LBB496:
 3380              		.loc 1 1375 0
 3381 0050 002F     		cmp	r7, #0
 3382 0052 00F0B280 		beq	.L468
 3383              		.loc 1 1382 0
 3384 0056 93F802C0 		ldrb	ip, [r3, #2]	@ zero_extendqisi2
 3385              		.loc 1 1386 0
 3386 005a 5878     		ldrb	r0, [r3, #1]	@ zero_extendqisi2
 3387              		.loc 1 1382 0
 3388 005c BCF1010F 		cmp	ip, #1
 3389              	.LVL430:
 3390              		.loc 1 1386 0
 3391 0060 0B46     		mov	r3, r1
 3392              	.LVL431:
 3393 0062 0CBF     		ite	eq
 3394 0064 8C21     		moveq	r1, #140
 3395              	.LVL432:
 3396 0066 0C21     		movne	r1, #12
 3397 0068 B847     		blx	r7
 3398              	.LVL433:
 3399              		.loc 1 1388 0
 3400 006a 0028     		cmp	r0, #0
 3401 006c 40F0A580 		bne	.L468
 3402              	.LVL434:
 3403              	.LBE496:
 3404              	.LBE497:
 3405              		.loc 1 3698 0
 3406 0070 9DF80330 		ldrb	r3, [sp, #3]	@ zero_extendqisi2
 3407 0074 9DF80220 		ldrb	r2, [sp, #2]	@ zero_extendqisi2
 3408              		.loc 1 3694 0
 3409 0078 9DF801C0 		ldrb	ip, [sp, #1]	@ zero_extendqisi2
 3410 007c 9DF80010 		ldrb	r1, [sp]	@ zero_extendqisi2
 3411              		.loc 1 3702 0
 3412 0080 9DF80570 		ldrb	r7, [sp, #5]	@ zero_extendqisi2
 3413              		.loc 1 3698 0
 3414 0084 42EA0322 		orr	r2, r2, r3, lsl #8
 3415              		.loc 1 3702 0
 3416 0088 9DF80430 		ldrb	r3, [sp, #4]	@ zero_extendqisi2
 3417              		.loc 1 3699 0
 3418 008c 6280     		strh	r2, [r4, #2]	@ movhi
 3419              		.loc 1 3694 0
 3420 008e 41EA0C21 		orr	r1, r1, ip, lsl #8
ARM GAS  /tmp/cc4hEOZR.s 			page 61


 3421              		.loc 1 3695 0
 3422 0092 2180     		strh	r1, [r4]	@ movhi
 3423              	.LVL435:
 3424              		.loc 1 3702 0
 3425 0094 43EA0723 		orr	r3, r3, r7, lsl #8
 3426              		.loc 1 3707 0
 3427 0098 9DF80610 		ldrb	r1, [sp, #6]	@ zero_extendqisi2
 3428 009c 9DF80770 		ldrb	r7, [sp, #7]	@ zero_extendqisi2
 3429              		.loc 1 3711 0
 3430 00a0 9DF80820 		ldrb	r2, [sp, #8]	@ zero_extendqisi2
 3431              		.loc 1 3703 0
 3432 00a4 A380     		strh	r3, [r4, #4]	@ movhi
 3433              	.LVL436:
 3434              		.loc 1 3707 0
 3435 00a6 41EA0721 		orr	r1, r1, r7, lsl #8
 3436              		.loc 1 3711 0
 3437 00aa 9DF80970 		ldrb	r7, [sp, #9]	@ zero_extendqisi2
 3438              		.loc 1 3715 0
 3439 00ae 9DF80A30 		ldrb	r3, [sp, #10]	@ zero_extendqisi2
 3440              		.loc 1 3708 0
 3441 00b2 3180     		strh	r1, [r6]	@ movhi
 3442              	.LVL437:
 3443              		.loc 1 3711 0
 3444 00b4 42EA0722 		orr	r2, r2, r7, lsl #8
 3445              		.loc 1 3715 0
 3446 00b8 9DF80B70 		ldrb	r7, [sp, #11]	@ zero_extendqisi2
 3447              		.loc 1 3712 0
 3448 00bc 7280     		strh	r2, [r6, #2]	@ movhi
 3449              	.LVL438:
 3450              		.loc 1 3715 0
 3451 00be 43EA0723 		orr	r3, r3, r7, lsl #8
 3452              		.loc 1 3717 0
 3453 00c2 032D     		cmp	r5, #3
 3454              		.loc 1 3716 0
 3455 00c4 B380     		strh	r3, [r6, #4]	@ movhi
 3456              		.loc 1 3717 0
 3457 00c6 68D0     		beq	.L486
 3458              		.loc 1 3727 0
 3459 00c8 B060     		str	r0, [r6, #8]
 3460              		.loc 1 3728 0
 3461 00ca A060     		str	r0, [r4, #8]
 3462              	.LVL439:
 3463              	.LBE493:
 3464              	.LBE492:
 3465              		.loc 1 1691 0
 3466 00cc 05B0     		add	sp, sp, #20
 3467              		.cfi_remember_state
 3468              		.cfi_def_cfa_offset 20
 3469              		@ sp needed
 3470 00ce F0BD     		pop	{r4, r5, r6, r7, pc}
 3471              	.LVL440:
 3472              	.L485:
 3473              		.cfi_restore_state
 3474              		.loc 1 1647 0
 3475 00d0 0029     		cmp	r1, #0
 3476 00d2 6FD0     		beq	.L478
 3477              		.loc 1 1653 0
ARM GAS  /tmp/cc4hEOZR.s 			page 62


 3478 00d4 1A46     		mov	r2, r3
 3479              	.LVL441:
 3480 00d6 2846     		mov	r0, r5
 3481 00d8 FFF7FEFF 		bl	get_accel_data
 3482              	.LVL442:
 3483              		.loc 1 1691 0
 3484 00dc 05B0     		add	sp, sp, #20
 3485              		.cfi_remember_state
 3486              		.cfi_def_cfa_offset 20
 3487              		@ sp needed
 3488 00de F0BD     		pop	{r4, r5, r6, r7, pc}
 3489              	.LVL443:
 3490              	.L456:
 3491              		.cfi_restore_state
 3492              		.loc 1 1659 0
 3493 00e0 002A     		cmp	r2, #0
 3494 00e2 67D0     		beq	.L478
 3495              	.LVL444:
 3496              	.LBB500:
 3497              	.LBB501:
 3498              		.loc 1 3598 0
 3499 00e4 6A46     		mov	r2, sp
 3500              	.LVL445:
 3501 00e6 0021     		movs	r1, #0
 3502              	.LVL446:
 3503 00e8 9160     		str	r1, [r2, #8]
 3504 00ea 0091     		str	r1, [sp]
 3505 00ec 5160     		str	r1, [r2, #4]
 3506 00ee C2F80B10 		str	r1, [r2, #11]	@ unaligned
 3507              	.LVL447:
 3508 00f2 DE69     		ldr	r6, [r3, #28]
 3509              		.loc 1 3606 0
 3510 00f4 1DBB     		cbnz	r5, .L459
 3511              	.LVL448:
 3512              	.LBB502:
 3513              	.LBB503:
 3514              		.loc 1 1375 0
 3515 00f6 002E     		cmp	r6, #0
 3516 00f8 5FD0     		beq	.L468
 3517              		.loc 1 1382 0
 3518 00fa 9978     		ldrb	r1, [r3, #2]	@ zero_extendqisi2
 3519              		.loc 1 1386 0
 3520 00fc 5878     		ldrb	r0, [r3, #1]	@ zero_extendqisi2
 3521              		.loc 1 1382 0
 3522 00fe 0129     		cmp	r1, #1
 3523              	.LVL449:
 3524              		.loc 1 1386 0
 3525 0100 0CBF     		ite	eq
 3526 0102 8C21     		moveq	r1, #140
 3527 0104 0C21     		movne	r1, #12
 3528 0106 0623     		movs	r3, #6
 3529              	.LVL450:
 3530 0108 B047     		blx	r6
 3531              	.LVL451:
 3532              		.loc 1 1388 0
 3533 010a 0028     		cmp	r0, #0
 3534 010c 55D1     		bne	.L468
ARM GAS  /tmp/cc4hEOZR.s 			page 63


 3535              	.LVL452:
 3536              	.LBE503:
 3537              	.LBE502:
 3538              		.loc 1 3619 0
 3539 010e 9DF80330 		ldrb	r3, [sp, #3]	@ zero_extendqisi2
 3540 0112 9DF80220 		ldrb	r2, [sp, #2]	@ zero_extendqisi2
 3541              		.loc 1 3615 0
 3542 0116 9DF80160 		ldrb	r6, [sp, #1]	@ zero_extendqisi2
 3543 011a 9DF80010 		ldrb	r1, [sp]	@ zero_extendqisi2
 3544              		.loc 1 3623 0
 3545 011e 9DF80550 		ldrb	r5, [sp, #5]	@ zero_extendqisi2
 3546              	.LVL453:
 3547              		.loc 1 3625 0
 3548 0122 A060     		str	r0, [r4, #8]
 3549              		.loc 1 3619 0
 3550 0124 42EA0322 		orr	r2, r2, r3, lsl #8
 3551              		.loc 1 3623 0
 3552 0128 9DF80430 		ldrb	r3, [sp, #4]	@ zero_extendqisi2
 3553              		.loc 1 3620 0
 3554 012c 6280     		strh	r2, [r4, #2]	@ movhi
 3555              		.loc 1 3615 0
 3556 012e 41EA0621 		orr	r1, r1, r6, lsl #8
 3557              		.loc 1 3623 0
 3558 0132 43EA0523 		orr	r3, r3, r5, lsl #8
 3559              		.loc 1 3616 0
 3560 0136 2180     		strh	r1, [r4]	@ movhi
 3561              	.LVL454:
 3562              		.loc 1 3624 0
 3563 0138 A380     		strh	r3, [r4, #4]	@ movhi
 3564              	.LVL455:
 3565              	.LBE501:
 3566              	.LBE500:
 3567              		.loc 1 1691 0
 3568 013a 05B0     		add	sp, sp, #20
 3569              		.cfi_remember_state
 3570              		.cfi_def_cfa_offset 20
 3571              		@ sp needed
 3572 013c F0BD     		pop	{r4, r5, r6, r7, pc}
 3573              	.LVL456:
 3574              	.L459:
 3575              		.cfi_restore_state
 3576              	.LBB507:
 3577              	.LBB506:
 3578              		.loc 1 3635 0
 3579 013e 0C35     		adds	r5, r5, #12
 3580              	.LVL457:
 3581              	.LBB504:
 3582              	.LBB505:
 3583              		.loc 1 1375 0
 3584 0140 002E     		cmp	r6, #0
 3585 0142 3AD0     		beq	.L468
 3586              		.loc 1 1382 0
 3587 0144 9978     		ldrb	r1, [r3, #2]	@ zero_extendqisi2
 3588              		.loc 1 1386 0
 3589 0146 5878     		ldrb	r0, [r3, #1]	@ zero_extendqisi2
 3590              		.loc 1 1382 0
 3591 0148 0129     		cmp	r1, #1
ARM GAS  /tmp/cc4hEOZR.s 			page 64


 3592              	.LVL458:
 3593              		.loc 1 1386 0
 3594 014a 0CBF     		ite	eq
 3595 014c 8C21     		moveq	r1, #140
 3596 014e 0C21     		movne	r1, #12
 3597 0150 2B46     		mov	r3, r5
 3598              	.LVL459:
 3599 0152 B047     		blx	r6
 3600              	.LVL460:
 3601              		.loc 1 1388 0
 3602 0154 88BB     		cbnz	r0, .L468
 3603              	.LVL461:
 3604              	.LBE505:
 3605              	.LBE504:
 3606              		.loc 1 3653 0
 3607 0156 9DF80D30 		ldrb	r3, [sp, #13]	@ zero_extendqisi2
 3608              		.loc 1 3654 0
 3609 015a 9DF80E60 		ldrb	r6, [sp, #14]	@ zero_extendqisi2
 3610              		.loc 1 3655 0
 3611 015e 9DF80C20 		ldrb	r2, [sp, #12]	@ zero_extendqisi2
 3612              		.loc 1 3641 0
 3613 0162 9DF80150 		ldrb	r5, [sp, #1]	@ zero_extendqisi2
 3614              	.LVL462:
 3615 0166 9DF80010 		ldrb	r1, [sp]	@ zero_extendqisi2
 3616              		.loc 1 3655 0
 3617 016a 1B02     		lsls	r3, r3, #8
 3618 016c 43EA0643 		orr	r3, r3, r6, lsl #16
 3619 0170 1343     		orrs	r3, r3, r2
 3620              		.loc 1 3641 0
 3621 0172 41EA0521 		orr	r1, r1, r5, lsl #8
 3622              		.loc 1 3645 0
 3623 0176 9DF80360 		ldrb	r6, [sp, #3]	@ zero_extendqisi2
 3624 017a 9DF80220 		ldrb	r2, [sp, #2]	@ zero_extendqisi2
 3625              		.loc 1 3655 0
 3626 017e A360     		str	r3, [r4, #8]
 3627              		.loc 1 3649 0
 3628 0180 9DF80550 		ldrb	r5, [sp, #5]	@ zero_extendqisi2
 3629 0184 9DF80430 		ldrb	r3, [sp, #4]	@ zero_extendqisi2
 3630              		.loc 1 3642 0
 3631 0188 2180     		strh	r1, [r4]	@ movhi
 3632              	.LVL463:
 3633              		.loc 1 3645 0
 3634 018a 42EA0622 		orr	r2, r2, r6, lsl #8
 3635              		.loc 1 3649 0
 3636 018e 43EA0523 		orr	r3, r3, r5, lsl #8
 3637              		.loc 1 3646 0
 3638 0192 6280     		strh	r2, [r4, #2]	@ movhi
 3639              	.LVL464:
 3640              		.loc 1 3650 0
 3641 0194 A380     		strh	r3, [r4, #4]	@ movhi
 3642              	.LVL465:
 3643              	.LBE506:
 3644              	.LBE507:
 3645              		.loc 1 1691 0
 3646 0196 05B0     		add	sp, sp, #20
 3647              		.cfi_remember_state
 3648              		.cfi_def_cfa_offset 20
ARM GAS  /tmp/cc4hEOZR.s 			page 65


 3649              		@ sp needed
 3650 0198 F0BD     		pop	{r4, r5, r6, r7, pc}
 3651              	.LVL466:
 3652              	.L486:
 3653              		.cfi_restore_state
 3654              	.LBB508:
 3655              	.LBB498:
 3656              		.loc 1 3720 0
 3657 019a 9DF80D30 		ldrb	r3, [sp, #13]	@ zero_extendqisi2
 3658              		.loc 1 3721 0
 3659 019e 9DF80E10 		ldrb	r1, [sp, #14]	@ zero_extendqisi2
 3660              		.loc 1 3722 0
 3661 01a2 9DF80C20 		ldrb	r2, [sp, #12]	@ zero_extendqisi2
 3662 01a6 1B02     		lsls	r3, r3, #8
 3663 01a8 43EA0143 		orr	r3, r3, r1, lsl #16
 3664 01ac 1343     		orrs	r3, r3, r2
 3665 01ae B360     		str	r3, [r6, #8]
 3666              		.loc 1 3723 0
 3667 01b0 A360     		str	r3, [r4, #8]
 3668 01b2 3BE7     		b	.L455
 3669              	.LVL467:
 3670              	.L478:
 3671              	.LBE498:
 3672              	.LBE508:
 3673              		.loc 1 1687 0
 3674 01b4 4FF0FF30 		mov	r0, #-1
 3675 01b8 38E7     		b	.L455
 3676              	.LVL468:
 3677              	.L468:
 3678              	.LBB509:
 3679              	.LBB499:
 3680              		.loc 1 3733 0
 3681 01ba 6FF00100 		mvn	r0, #1
 3682 01be 35E7     		b	.L455
 3683              	.LBE499:
 3684              	.LBE509:
 3685              		.cfi_endproc
 3686              	.LFE7:
 3687              		.size	bmi160_get_sensor_data, .-bmi160_get_sensor_data
 3688              		.section	.text.bmi160_set_int_config,"ax",%progbits
 3689              		.align	1
 3690              		.p2align 4,,15
 3691              		.global	bmi160_set_int_config
 3692              		.syntax unified
 3693              		.thumb
 3694              		.thumb_func
 3695              		.fpu fpv4-sp-d16
 3696              		.type	bmi160_set_int_config, %function
 3697              	bmi160_set_int_config:
 3698              	.LFB8:
 3699              		.loc 1 1698 0
 3700              		.cfi_startproc
 3701              		@ args = 0, pretend = 0, frame = 8
 3702              		@ frame_needed = 0, uses_anonymous_args = 0
 3703              	.LVL469:
 3704 0000 F0B5     		push	{r4, r5, r6, r7, lr}
 3705              		.cfi_def_cfa_offset 20
ARM GAS  /tmp/cc4hEOZR.s 			page 66


 3706              		.cfi_offset 4, -20
 3707              		.cfi_offset 5, -16
 3708              		.cfi_offset 6, -12
 3709              		.cfi_offset 7, -8
 3710              		.cfi_offset 14, -4
 3711              		.loc 1 1701 0
 3712 0002 4378     		ldrb	r3, [r0, #1]	@ zero_extendqisi2
 3713              		.loc 1 1698 0
 3714 0004 83B0     		sub	sp, sp, #12
 3715              		.cfi_def_cfa_offset 32
 3716              		.loc 1 1698 0
 3717 0006 0546     		mov	r5, r0
 3718 0008 0C46     		mov	r4, r1
 3719              		.loc 1 1701 0
 3720 000a 0D2B     		cmp	r3, #13
 3721 000c 00F2B487 		bhi	.L590
 3722 0010 DFE813F0 		tbh	[pc, r3, lsl #1]
 3723              	.L490:
 3724 0014 1200     		.2byte	(.L489-.L490)/2
 3725 0016 B800     		.2byte	(.L491-.L490)/2
 3726 0018 5F01     		.2byte	(.L492-.L490)/2
 3727 001a B801     		.2byte	(.L493-.L490)/2
 3728 001c B801     		.2byte	(.L493-.L490)/2
 3729 001e 6802     		.2byte	(.L494-.L490)/2
 3730 0020 D402     		.2byte	(.L495-.L490)/2
 3731 0022 4C03     		.2byte	(.L496-.L490)/2
 3732 0024 E903     		.2byte	(.L497-.L490)/2
 3733 0026 8404     		.2byte	(.L498-.L490)/2
 3734 0028 5505     		.2byte	(.L499-.L490)/2
 3735 002a 9305     		.2byte	(.L500-.L490)/2
 3736 002c D105     		.2byte	(.L501-.L490)/2
 3737 002e 0E00     		.2byte	(.L502-.L490)/2
 3738              		.p2align 1
 3739              	.L502:
 3740              		.loc 1 1768 0
 3741 0030 FFF7FEFF 		bl	set_intr_pin_config
 3742              	.LVL470:
 3743              	.L488:
 3744              		.loc 1 1775 0
 3745 0034 03B0     		add	sp, sp, #12
 3746              		.cfi_remember_state
 3747              		.cfi_def_cfa_offset 20
 3748              		@ sp needed
 3749 0036 F0BD     		pop	{r4, r5, r6, r7, pc}
 3750              	.LVL471:
 3751              	.L489:
 3752              		.cfi_restore_state
 3753              	.LBB685:
 3754              	.LBB686:
 3755              	.LBB687:
 3756              	.LBB688:
 3757              		.loc 1 3071 0
 3758 0038 0029     		cmp	r1, #0
 3759 003a 00F0AA86 		beq	.L591
 3760 003e CF69     		ldr	r7, [r1, #28]
 3761 0040 002F     		cmp	r7, #0
 3762 0042 00F0A286 		beq	.L592
ARM GAS  /tmp/cc4hEOZR.s 			page 67


 3763 0046 0B6A     		ldr	r3, [r1, #32]
 3764 0048 002B     		cmp	r3, #0
 3765 004a 00F0DE86 		beq	.L593
 3766 004e 4B6A     		ldr	r3, [r1, #36]
 3767 0050 002B     		cmp	r3, #0
 3768 0052 00F0D686 		beq	.L594
 3769              	.LVL472:
 3770              	.LBE688:
 3771              	.LBE687:
 3772              	.LBB689:
 3773              	.LBB690:
 3774              	.LBB691:
 3775              		.loc 1 3746 0
 3776 0056 02AE     		add	r6, sp, #8
 3777              	.LBB692:
 3778              	.LBB693:
 3779              		.loc 1 1382 0
 3780 0058 8B78     		ldrb	r3, [r1, #2]	@ zero_extendqisi2
 3781              		.loc 1 1386 0
 3782 005a 6078     		ldrb	r0, [r4, #1]	@ zero_extendqisi2
 3783              	.LVL473:
 3784              	.LBE693:
 3785              	.LBE692:
 3786              		.loc 1 3746 0
 3787 005c 0022     		movs	r2, #0
 3788 005e 06F8042D 		strb	r2, [r6, #-4]!
 3789              	.LVL474:
 3790              	.LBB696:
 3791              	.LBB694:
 3792              		.loc 1 1382 0
 3793 0062 012B     		cmp	r3, #1
 3794              	.LVL475:
 3795              		.loc 1 1386 0
 3796 0064 0CBF     		ite	eq
 3797 0066 D021     		moveq	r1, #208
 3798              	.LVL476:
 3799 0068 5021     		movne	r1, #80
 3800 006a 3246     		mov	r2, r6
 3801 006c 0123     		movs	r3, #1
 3802 006e B847     		blx	r7
 3803              	.LVL477:
 3804              		.loc 1 1388 0
 3805 0070 0028     		cmp	r0, #0
 3806 0072 40F02E86 		bne	.L694
 3807              	.LVL478:
 3808              	.LBE694:
 3809              	.LBE696:
 3810              		.loc 1 3754 0
 3811 0076 2A79     		ldrb	r2, [r5, #4]	@ zero_extendqisi2
 3812 0078 9DF80430 		ldrb	r3, [sp, #4]	@ zero_extendqisi2
 3813 007c D107     		lsls	r1, r2, #31
 3814 007e 00F1D785 		bmi	.L695
 3815              		.loc 1 3774 0
 3816 0082 23F00703 		bic	r3, r3, #7
 3817              		.loc 1 3777 0
 3818 0086 FF22     		movs	r2, #255
 3819              		.loc 1 3774 0
ARM GAS  /tmp/cc4hEOZR.s 			page 68


 3820 0088 8DF80430 		strb	r3, [sp, #4]
 3821              		.loc 1 3777 0
 3822 008c E270     		strb	r2, [r4, #3]
 3823              	.LVL479:
 3824              	.L506:
 3825              		.loc 1 3781 0
 3826 008e 2346     		mov	r3, r4
 3827 0090 0122     		movs	r2, #1
 3828 0092 3146     		mov	r1, r6
 3829 0094 5020     		movs	r0, #80
 3830 0096 FFF7FEFF 		bl	bmi160_set_regs
 3831              	.LVL480:
 3832              	.LBE691:
 3833              	.LBE690:
 3834              		.loc 1 2699 0
 3835 009a 0028     		cmp	r0, #0
 3836 009c CAD1     		bne	.L488
 3837              	.LVL481:
 3838              	.LBB700:
 3839              	.LBB701:
 3840              		.loc 1 3973 0
 3841 009e 2146     		mov	r1, r4
 3842 00a0 2846     		mov	r0, r5
 3843 00a2 FFF7FEFF 		bl	set_intr_pin_config
 3844              	.LVL482:
 3845              		.loc 1 3974 0
 3846 00a6 0028     		cmp	r0, #0
 3847 00a8 C4D1     		bne	.L488
 3848              	.LVL483:
 3849              	.LBB702:
 3850              	.LBB703:
 3851              	.LBB704:
 3852              	.LBB705:
 3853              		.loc 1 1375 0
 3854 00aa E769     		ldr	r7, [r4, #28]
 3855              	.LBE705:
 3856              	.LBE704:
 3857              		.loc 1 3793 0
 3858 00ac 8DF80400 		strb	r0, [sp, #4]
 3859              	.LVL484:
 3860              	.LBB708:
 3861              	.LBB706:
 3862              		.loc 1 1377 0
 3863 00b0 4FF0FF30 		mov	r0, #-1
 3864              	.LVL485:
 3865              		.loc 1 1375 0
 3866 00b4 002F     		cmp	r7, #0
 3867 00b6 BDD0     		beq	.L488
 3868              		.loc 1 1382 0
 3869 00b8 A378     		ldrb	r3, [r4, #2]	@ zero_extendqisi2
 3870              		.loc 1 1386 0
 3871 00ba 6078     		ldrb	r0, [r4, #1]	@ zero_extendqisi2
 3872              		.loc 1 1382 0
 3873 00bc 012B     		cmp	r3, #1
 3874              	.LVL486:
 3875              		.loc 1 1386 0
 3876 00be 0CBF     		ite	eq
ARM GAS  /tmp/cc4hEOZR.s 			page 69


 3877 00c0 E221     		moveq	r1, #226
 3878 00c2 6221     		movne	r1, #98
 3879 00c4 0123     		movs	r3, #1
 3880 00c6 3246     		mov	r2, r6
 3881 00c8 B847     		blx	r7
 3882              	.LVL487:
 3883              		.loc 1 1388 0
 3884 00ca 0028     		cmp	r0, #0
 3885 00cc 40F0F086 		bne	.L696
 3886              	.LVL488:
 3887              	.LBE706:
 3888              	.LBE708:
 3889              		.loc 1 3800 0
 3890 00d0 9DF80430 		ldrb	r3, [sp, #4]	@ zero_extendqisi2
 3891              	.LVL489:
 3892              		.loc 1 3801 0
 3893 00d4 9F07     		lsls	r7, r3, #30
 3894 00d6 00F1BF85 		bmi	.L697
 3895              	.LVL490:
 3896              	.L511:
 3897              	.LBE703:
 3898              	.LBE702:
 3899              		.loc 1 3979 0
 3900 00da 2246     		mov	r2, r4
 3901 00dc 691C     		adds	r1, r5, #1
 3902 00de 2846     		mov	r0, r5
 3903 00e0 FFF7FEFF 		bl	map_feature_interrupt.isra.20
 3904              	.LVL491:
 3905              		.loc 1 3980 0
 3906 00e4 0028     		cmp	r0, #0
 3907 00e6 A5D1     		bne	.L488
 3908              	.LVL492:
 3909              	.LBB712:
 3910              	.LBB713:
 3911              	.LBB714:
 3912              	.LBB715:
 3913              		.loc 1 1375 0
 3914 00e8 E769     		ldr	r7, [r4, #28]
 3915              	.LBE715:
 3916              	.LBE714:
 3917              		.loc 1 3909 0
 3918 00ea 8DF80400 		strb	r0, [sp, #4]
 3919              	.LVL493:
 3920              	.LBB718:
 3921              	.LBB716:
 3922              		.loc 1 1377 0
 3923 00ee 4FF0FF30 		mov	r0, #-1
 3924              	.LVL494:
 3925              		.loc 1 1375 0
 3926 00f2 002F     		cmp	r7, #0
 3927 00f4 9ED0     		beq	.L488
 3928              		.loc 1 1382 0
 3929 00f6 A378     		ldrb	r3, [r4, #2]	@ zero_extendqisi2
 3930              		.loc 1 1386 0
 3931 00f8 6078     		ldrb	r0, [r4, #1]	@ zero_extendqisi2
 3932              		.loc 1 1382 0
 3933 00fa 012B     		cmp	r3, #1
ARM GAS  /tmp/cc4hEOZR.s 			page 70


 3934              	.LVL495:
 3935              		.loc 1 1386 0
 3936 00fc 0CBF     		ite	eq
 3937 00fe D921     		moveq	r1, #217
 3938 0100 5921     		movne	r1, #89
 3939 0102 0123     		movs	r3, #1
 3940 0104 3246     		mov	r2, r6
 3941 0106 B847     		blx	r7
 3942              	.LVL496:
 3943              		.loc 1 1388 0
 3944 0108 0028     		cmp	r0, #0
 3945 010a 40F01587 		bne	.L698
 3946              	.LVL497:
 3947              	.LBE716:
 3948              	.LBE718:
 3949              		.loc 1 3916 0
 3950 010e 9DF80470 		ldrb	r7, [sp, #4]	@ zero_extendqisi2
 3951              		.loc 1 3917 0
 3952 0112 2B79     		ldrb	r3, [r5, #4]	@ zero_extendqisi2
 3953              		.loc 1 3916 0
 3954 0114 07F07F07 		and	r7, r7, #127
 3955              		.loc 1 3917 0
 3956 0118 C3F38013 		ubfx	r3, r3, #6, #1
 3957 011c 47EAC317 		orr	r7, r7, r3, lsl #7
 3958              		.loc 1 3920 0
 3959 0120 0122     		movs	r2, #1
 3960 0122 2346     		mov	r3, r4
 3961 0124 3146     		mov	r1, r6
 3962 0126 5920     		movs	r0, #89
 3963              		.loc 1 3917 0
 3964 0128 8DF80470 		strb	r7, [sp, #4]
 3965              	.LVL498:
 3966              		.loc 1 3920 0
 3967 012c FFF7FEFF 		bl	bmi160_set_regs
 3968              	.LVL499:
 3969              	.LBE713:
 3970              	.LBE712:
 3971              		.loc 1 3983 0
 3972 0130 0028     		cmp	r0, #0
 3973 0132 7FF47FAF 		bne	.L488
 3974              	.LVL500:
 3975              	.LBB721:
 3976              	.LBB722:
 3977              	.LBB723:
 3978              	.LBB724:
 3979              		.loc 1 1375 0
 3980 0136 E769     		ldr	r7, [r4, #28]
 3981              	.LBE724:
 3982              	.LBE723:
 3983              		.loc 1 3934 0
 3984 0138 8DF80300 		strb	r0, [sp, #3]
 3985              	.LVL501:
 3986              		.loc 1 3936 0
 3987 013c ADF80400 		strh	r0, [sp, #4]	@ movhi
 3988              	.LVL502:
 3989              	.LBB727:
 3990              	.LBB725:
ARM GAS  /tmp/cc4hEOZR.s 			page 71


 3991              		.loc 1 1375 0
 3992 0140 002F     		cmp	r7, #0
 3993 0142 00F0F586 		beq	.L598
 3994              		.loc 1 1382 0
 3995 0146 A378     		ldrb	r3, [r4, #2]	@ zero_extendqisi2
 3996              		.loc 1 1386 0
 3997 0148 6078     		ldrb	r0, [r4, #1]	@ zero_extendqisi2
 3998              		.loc 1 1382 0
 3999 014a 012B     		cmp	r3, #1
 4000              	.LVL503:
 4001              		.loc 1 1386 0
 4002 014c 0CBF     		ite	eq
 4003 014e DF21     		moveq	r1, #223
 4004 0150 5F21     		movne	r1, #95
 4005 0152 0123     		movs	r3, #1
 4006 0154 0DF10302 		add	r2, sp, #3
 4007              	.LVL504:
 4008 0158 B847     		blx	r7
 4009              	.LVL505:
 4010              		.loc 1 1388 0
 4011 015a 0028     		cmp	r0, #0
 4012 015c 40F0E486 		bne	.L600
 4013              	.LVL506:
 4014              	.LBE725:
 4015              	.LBE727:
 4016              		.loc 1 3945 0
 4017 0160 9DF80320 		ldrb	r2, [sp, #3]	@ zero_extendqisi2
 4018              		.loc 1 3950 0
 4019 0164 6B79     		ldrb	r3, [r5, #5]	@ zero_extendqisi2
 4020 0166 8DF80530 		strb	r3, [sp, #5]
 4021              	.LVL507:
 4022              		.loc 1 3957 0
 4023 016a 3146     		mov	r1, r6
 4024 016c 2346     		mov	r3, r4
 4025 016e 5F20     		movs	r0, #95
 4026              		.loc 1 3945 0
 4027 0170 02F0FC04 		and	r4, r2, #252
 4028              	.LVL508:
 4029              		.loc 1 3957 0
 4030 0174 0222     		movs	r2, #2
 4031              		.loc 1 3946 0
 4032 0176 8DF80340 		strb	r4, [sp, #3]
 4033              		.loc 1 3947 0
 4034 017a 8DF80440 		strb	r4, [sp, #4]
 4035              		.loc 1 3957 0
 4036 017e FFF7FEFF 		bl	bmi160_set_regs
 4037              	.LVL509:
 4038 0182 57E7     		b	.L488
 4039              	.LVL510:
 4040              	.L491:
 4041              	.LBE722:
 4042              	.LBE721:
 4043              	.LBE701:
 4044              	.LBE700:
 4045              	.LBE689:
 4046              	.LBE686:
 4047              	.LBE685:
ARM GAS  /tmp/cc4hEOZR.s 			page 72


 4048              	.LBB751:
 4049              	.LBB752:
 4050              	.LBB753:
 4051              	.LBB754:
 4052              		.loc 1 3071 0
 4053 0184 0029     		cmp	r1, #0
 4054 0186 00F0F085 		beq	.L601
 4055 018a CF69     		ldr	r7, [r1, #28]
 4056 018c 002F     		cmp	r7, #0
 4057 018e 00F05486 		beq	.L602
 4058 0192 0B6A     		ldr	r3, [r1, #32]
 4059 0194 002B     		cmp	r3, #0
 4060 0196 00F04C86 		beq	.L603
 4061 019a 4B6A     		ldr	r3, [r1, #36]
 4062 019c 002B     		cmp	r3, #0
 4063 019e 00F03C86 		beq	.L604
 4064              	.LVL511:
 4065              	.LBE754:
 4066              	.LBE753:
 4067              	.LBB755:
 4068              	.LBB756:
 4069              	.LBB757:
 4070              		.loc 1 4172 0
 4071 01a2 02AE     		add	r6, sp, #8
 4072              	.LBB758:
 4073              	.LBB759:
 4074              		.loc 1 1382 0
 4075 01a4 8B78     		ldrb	r3, [r1, #2]	@ zero_extendqisi2
 4076              		.loc 1 1386 0
 4077 01a6 6078     		ldrb	r0, [r4, #1]	@ zero_extendqisi2
 4078              	.LVL512:
 4079              	.LBE759:
 4080              	.LBE758:
 4081              		.loc 1 4172 0
 4082 01a8 0022     		movs	r2, #0
 4083 01aa 06F8042D 		strb	r2, [r6, #-4]!
 4084              	.LVL513:
 4085              	.LBB762:
 4086              	.LBB760:
 4087              		.loc 1 1382 0
 4088 01ae 012B     		cmp	r3, #1
 4089              	.LVL514:
 4090              		.loc 1 1386 0
 4091 01b0 0CBF     		ite	eq
 4092 01b2 D021     		moveq	r1, #208
 4093              	.LVL515:
 4094 01b4 5021     		movne	r1, #80
 4095 01b6 3246     		mov	r2, r6
 4096 01b8 0123     		movs	r3, #1
 4097 01ba B847     		blx	r7
 4098              	.LVL516:
 4099              		.loc 1 1388 0
 4100 01bc 0028     		cmp	r0, #0
 4101 01be 40F08485 		bne	.L699
 4102              	.LVL517:
 4103              	.LBE760:
 4104              	.LBE762:
ARM GAS  /tmp/cc4hEOZR.s 			page 73


 4105              		.loc 1 4180 0
 4106 01c2 2A79     		ldrb	r2, [r5, #4]	@ zero_extendqisi2
 4107 01c4 9DF80430 		ldrb	r3, [sp, #4]	@ zero_extendqisi2
 4108 01c8 9006     		lsls	r0, r2, #26
 4109              	.LVL518:
 4110 01ca 03F0F803 		and	r3, r3, #248
 4111              		.loc 1 4183 0
 4112 01ce 46BF     		itte	mi
 4113 01d0 43F00703 		orrmi	r3, r3, #7
 4114              		.loc 1 4186 0
 4115 01d4 0122     		movmi	r2, #1
 4116              		.loc 1 4193 0
 4117 01d6 FF22     		movpl	r2, #255
 4118              		.loc 1 4190 0
 4119 01d8 8DF80430 		strb	r3, [sp, #4]
 4120              	.LVL519:
 4121              		.loc 1 4193 0
 4122 01dc E270     		strb	r2, [r4, #3]
 4123              		.loc 1 4197 0
 4124 01de 2346     		mov	r3, r4
 4125 01e0 0122     		movs	r2, #1
 4126 01e2 3146     		mov	r1, r6
 4127 01e4 5020     		movs	r0, #80
 4128 01e6 FFF7FEFF 		bl	bmi160_set_regs
 4129              	.LVL520:
 4130              	.LBE757:
 4131              	.LBE756:
 4132              		.loc 1 2791 0
 4133 01ea 0028     		cmp	r0, #0
 4134 01ec 7FF422AF 		bne	.L488
 4135              	.LVL521:
 4136              	.LBB765:
 4137              	.LBB766:
 4138              		.loc 1 4214 0
 4139 01f0 2146     		mov	r1, r4
 4140 01f2 2846     		mov	r0, r5
 4141 01f4 FFF7FEFF 		bl	set_intr_pin_config
 4142              	.LVL522:
 4143              		.loc 1 4215 0
 4144 01f8 0028     		cmp	r0, #0
 4145 01fa 7FF41BAF 		bne	.L488
 4146              		.loc 1 4217 0
 4147 01fe 2246     		mov	r2, r4
 4148 0200 691C     		adds	r1, r5, #1
 4149 0202 2846     		mov	r0, r5
 4150              	.LVL523:
 4151 0204 FFF7FEFF 		bl	map_feature_interrupt.isra.20
 4152              	.LVL524:
 4153              		.loc 1 4218 0
 4154 0208 0028     		cmp	r0, #0
 4155 020a 7FF413AF 		bne	.L488
 4156              	.LVL525:
 4157              	.LBB767:
 4158              	.LBB768:
 4159              	.LBB769:
 4160              	.LBB770:
 4161              		.loc 1 1375 0
ARM GAS  /tmp/cc4hEOZR.s 			page 74


 4162 020e E769     		ldr	r7, [r4, #28]
 4163              	.LBE770:
 4164              	.LBE769:
 4165              		.loc 1 4239 0
 4166 0210 8DF80400 		strb	r0, [sp, #4]
 4167              	.LVL526:
 4168              	.LBB773:
 4169              	.LBB771:
 4170              		.loc 1 1377 0
 4171 0214 4FF0FF30 		mov	r0, #-1
 4172              	.LVL527:
 4173              		.loc 1 1375 0
 4174 0218 002F     		cmp	r7, #0
 4175 021a 3FF40BAF 		beq	.L488
 4176              		.loc 1 1382 0
 4177 021e A378     		ldrb	r3, [r4, #2]	@ zero_extendqisi2
 4178              		.loc 1 1386 0
 4179 0220 6078     		ldrb	r0, [r4, #1]	@ zero_extendqisi2
 4180              		.loc 1 1382 0
 4181 0222 012B     		cmp	r3, #1
 4182              	.LVL528:
 4183              		.loc 1 1386 0
 4184 0224 0CBF     		ite	eq
 4185 0226 D921     		moveq	r1, #217
 4186 0228 5921     		movne	r1, #89
 4187 022a 0123     		movs	r3, #1
 4188 022c 3246     		mov	r2, r6
 4189 022e B847     		blx	r7
 4190              	.LVL529:
 4191              		.loc 1 1388 0
 4192 0230 0028     		cmp	r0, #0
 4193 0232 40F04D86 		bne	.L700
 4194              	.LVL530:
 4195              	.LBE771:
 4196              	.LBE773:
 4197              		.loc 1 4246 0
 4198 0236 9DF80470 		ldrb	r7, [sp, #4]	@ zero_extendqisi2
 4199              		.loc 1 4247 0
 4200 023a 2B79     		ldrb	r3, [r5, #4]	@ zero_extendqisi2
 4201              		.loc 1 4246 0
 4202 023c 07F07F07 		and	r7, r7, #127
 4203              		.loc 1 4247 0
 4204 0240 C3F30013 		ubfx	r3, r3, #4, #1
 4205 0244 47EAC317 		orr	r7, r7, r3, lsl #7
 4206              		.loc 1 4250 0
 4207 0248 0122     		movs	r2, #1
 4208 024a 2346     		mov	r3, r4
 4209 024c 3146     		mov	r1, r6
 4210 024e 5920     		movs	r0, #89
 4211              		.loc 1 4247 0
 4212 0250 8DF80470 		strb	r7, [sp, #4]
 4213              	.LVL531:
 4214              		.loc 1 4250 0
 4215 0254 FFF7FEFF 		bl	bmi160_set_regs
 4216              	.LVL532:
 4217              	.LBE768:
 4218              	.LBE767:
ARM GAS  /tmp/cc4hEOZR.s 			page 75


 4219              		.loc 1 4221 0
 4220 0258 0028     		cmp	r0, #0
 4221 025a 7FF4EBAE 		bne	.L488
 4222              	.LVL533:
 4223              	.LBB776:
 4224              	.LBB777:
 4225              		.loc 1 4271 0
 4226 025e 6B79     		ldrb	r3, [r5, #5]	@ zero_extendqisi2
 4227 0260 8DF80430 		strb	r3, [sp, #4]
 4228              		.loc 1 4274 0
 4229 0264 0122     		movs	r2, #1
 4230 0266 2346     		mov	r3, r4
 4231 0268 3146     		mov	r1, r6
 4232 026a 6020     		movs	r0, #96
 4233 026c FFF7FEFF 		bl	bmi160_set_regs
 4234              	.LVL534:
 4235              		.loc 1 4275 0
 4236 0270 0028     		cmp	r0, #0
 4237 0272 7FF4DFAE 		bne	.L488
 4238              	.LVL535:
 4239              	.LBB778:
 4240              	.LBB779:
 4241              		.loc 1 1375 0
 4242 0276 E769     		ldr	r7, [r4, #28]
 4243 0278 002F     		cmp	r7, #0
 4244 027a 00F06186 		beq	.L607
 4245              		.loc 1 1382 0
 4246 027e A378     		ldrb	r3, [r4, #2]	@ zero_extendqisi2
 4247              		.loc 1 1386 0
 4248 0280 6078     		ldrb	r0, [r4, #1]	@ zero_extendqisi2
 4249              	.LVL536:
 4250              		.loc 1 1382 0
 4251 0282 012B     		cmp	r3, #1
 4252              	.LVL537:
 4253              		.loc 1 1386 0
 4254 0284 0CBF     		ite	eq
 4255 0286 E221     		moveq	r1, #226
 4256 0288 6221     		movne	r1, #98
 4257 028a 0123     		movs	r3, #1
 4258 028c 3246     		mov	r2, r6
 4259 028e B847     		blx	r7
 4260              	.LVL538:
 4261              		.loc 1 1388 0
 4262 0290 0028     		cmp	r0, #0
 4263 0292 40F06D86 		bne	.L609
 4264              	.LVL539:
 4265              	.LBE779:
 4266              	.LBE778:
 4267              		.loc 1 4283 0
 4268 0296 2B79     		ldrb	r3, [r5, #4]	@ zero_extendqisi2
 4269              		.loc 1 4280 0
 4270 0298 9DF80420 		ldrb	r2, [sp, #4]	@ zero_extendqisi2
 4271              		.loc 1 4283 0
 4272 029c 03F00301 		and	r1, r3, #3
 4273              		.loc 1 4280 0
 4274 02a0 22F00C02 		bic	r2, r2, #12
 4275              		.loc 1 4283 0
ARM GAS  /tmp/cc4hEOZR.s 			page 76


 4276 02a4 42EA8102 		orr	r2, r2, r1, lsl #2
 4277              	.LVL540:
 4278              		.loc 1 4284 0
 4279 02a8 22F03002 		bic	r2, r2, #48
 4280              	.LVL541:
 4281              		.loc 1 4287 0
 4282 02ac C3F38101 		ubfx	r1, r3, #2, #2
 4283              	.LVL542:
 4284 02b0 42EA0112 		orr	r2, r2, r1, lsl #4
 4285              	.LVL543:
 4286              		.loc 1 4292 0
 4287 02b4 C3F34010 		ubfx	r0, r3, #5, #1
 4288              		.loc 1 4291 0
 4289 02b8 22F00202 		bic	r2, r2, #2
 4290              	.LVL544:
 4291              		.loc 1 4293 0
 4292 02bc 2346     		mov	r3, r4
 4293              	.LVL545:
 4294 02be 3146     		mov	r1, r6
 4295              	.LVL546:
 4296              		.loc 1 4292 0
 4297 02c0 42EA4004 		orr	r4, r2, r0, lsl #1
 4298              	.LVL547:
 4299              		.loc 1 4293 0
 4300 02c4 0122     		movs	r2, #1
 4301 02c6 6220     		movs	r0, #98
 4302              		.loc 1 4292 0
 4303 02c8 8DF80440 		strb	r4, [sp, #4]
 4304              	.LVL548:
 4305              		.loc 1 4293 0
 4306 02cc FFF7FEFF 		bl	bmi160_set_regs
 4307              	.LVL549:
 4308 02d0 B0E6     		b	.L488
 4309              	.LVL550:
 4310              	.L492:
 4311              	.LBE777:
 4312              	.LBE776:
 4313              	.LBE766:
 4314              	.LBE765:
 4315              	.LBE755:
 4316              	.LBE752:
 4317              	.LBE751:
 4318              	.LBB804:
 4319              	.LBB805:
 4320              	.LBB806:
 4321              	.LBB807:
 4322              		.loc 1 3071 0
 4323 02d2 0029     		cmp	r1, #0
 4324 02d4 00F07D85 		beq	.L627
 4325 02d8 CF69     		ldr	r7, [r1, #28]
 4326 02da 002F     		cmp	r7, #0
 4327 02dc 00F0A585 		beq	.L628
 4328 02e0 0B6A     		ldr	r3, [r1, #32]
 4329 02e2 002B     		cmp	r3, #0
 4330 02e4 00F09D85 		beq	.L629
 4331 02e8 4B6A     		ldr	r3, [r1, #36]
 4332 02ea 002B     		cmp	r3, #0
ARM GAS  /tmp/cc4hEOZR.s 			page 77


 4333 02ec 00F00D85 		beq	.L630
 4334              	.LVL551:
 4335              	.LBE807:
 4336              	.LBE806:
 4337              	.LBB808:
 4338              	.LBB809:
 4339              	.LBB810:
 4340              		.loc 1 4307 0
 4341 02f0 02AE     		add	r6, sp, #8
 4342              	.LBB811:
 4343              	.LBB812:
 4344              		.loc 1 1382 0
 4345 02f2 8B78     		ldrb	r3, [r1, #2]	@ zero_extendqisi2
 4346              		.loc 1 1386 0
 4347 02f4 6078     		ldrb	r0, [r4, #1]	@ zero_extendqisi2
 4348              	.LVL552:
 4349              	.LBE812:
 4350              	.LBE811:
 4351              		.loc 1 4307 0
 4352 02f6 0022     		movs	r2, #0
 4353 02f8 06F8042D 		strb	r2, [r6, #-4]!
 4354              	.LVL553:
 4355              	.LBB815:
 4356              	.LBB813:
 4357              		.loc 1 1382 0
 4358 02fc 012B     		cmp	r3, #1
 4359              	.LVL554:
 4360              		.loc 1 1386 0
 4361 02fe 0CBF     		ite	eq
 4362 0300 D221     		moveq	r1, #210
 4363              	.LVL555:
 4364 0302 5221     		movne	r1, #82
 4365 0304 3246     		mov	r2, r6
 4366 0306 0123     		movs	r3, #1
 4367 0308 B847     		blx	r7
 4368              	.LVL556:
 4369              		.loc 1 1388 0
 4370 030a 0028     		cmp	r0, #0
 4371 030c 40F0C784 		bne	.L701
 4372              	.LVL557:
 4373              	.LBE813:
 4374              	.LBE815:
 4375              		.loc 1 4314 0
 4376 0310 9DF80470 		ldrb	r7, [sp, #4]	@ zero_extendqisi2
 4377              		.loc 1 4315 0
 4378 0314 2B79     		ldrb	r3, [r5, #4]	@ zero_extendqisi2
 4379              		.loc 1 4314 0
 4380 0316 27F00807 		bic	r7, r7, #8
 4381              		.loc 1 4315 0
 4382 031a 03F00103 		and	r3, r3, #1
 4383 031e 47EAC307 		orr	r7, r7, r3, lsl #3
 4384              		.loc 1 4318 0
 4385 0322 0122     		movs	r2, #1
 4386 0324 2346     		mov	r3, r4
 4387 0326 3146     		mov	r1, r6
 4388 0328 5220     		movs	r0, #82
 4389              		.loc 1 4315 0
ARM GAS  /tmp/cc4hEOZR.s 			page 78


 4390 032a 8DF80470 		strb	r7, [sp, #4]
 4391              	.LVL558:
 4392              		.loc 1 4318 0
 4393 032e FFF7FEFF 		bl	bmi160_set_regs
 4394              	.LVL559:
 4395              	.LBE810:
 4396              	.LBE809:
 4397              		.loc 1 2851 0
 4398 0332 0028     		cmp	r0, #0
 4399 0334 7FF47EAE 		bne	.L488
 4400              		.loc 1 2854 0
 4401 0338 2146     		mov	r1, r4
 4402 033a 2846     		mov	r0, r5
 4403 033c FFF7FEFF 		bl	set_intr_pin_config
 4404              	.LVL560:
 4405              		.loc 1 2855 0
 4406 0340 0028     		cmp	r0, #0
 4407 0342 7FF477AE 		bne	.L488
 4408              		.loc 1 2857 0
 4409 0346 2246     		mov	r2, r4
 4410 0348 691C     		adds	r1, r5, #1
 4411 034a 2846     		mov	r0, r5
 4412              	.LVL561:
 4413 034c FFF7FEFF 		bl	map_feature_interrupt.isra.20
 4414              	.LVL562:
 4415              		.loc 1 2858 0
 4416 0350 0028     		cmp	r0, #0
 4417 0352 7FF46FAE 		bne	.L488
 4418              	.LVL563:
 4419              	.LBB818:
 4420              	.LBB819:
 4421              		.loc 1 4334 0
 4422 0356 2A79     		ldrb	r2, [r5, #4]	@ zero_extendqisi2
 4423              		.loc 1 4332 0
 4424 0358 ADF80400 		strh	r0, [sp, #4]	@ movhi
 4425              		.loc 1 4334 0
 4426 035c 12F0C002 		ands	r2, r2, #192
 4427 0360 00F0A984 		beq	.L702
 4428              		.loc 1 4340 0
 4429 0364 402A     		cmp	r2, #64
 4430 0366 00F06C85 		beq	.L703
 4431              		.loc 1 4346 0
 4432 036a 802A     		cmp	r2, #128
 4433 036c 00F06E85 		beq	.L704
 4434              		.loc 1 4352 0
 4435 0370 C02A     		cmp	r2, #192
 4436 0372 00F07185 		beq	.L705
 4437              	.LVL564:
 4438              	.L554:
 4439              		.loc 1 4375 0
 4440 0376 2346     		mov	r3, r4
 4441 0378 3146     		mov	r1, r6
 4442 037a 0222     		movs	r2, #2
 4443 037c 7A20     		movs	r0, #122
 4444 037e FFF7FEFF 		bl	bmi160_set_regs
 4445              	.LVL565:
 4446 0382 57E6     		b	.L488
ARM GAS  /tmp/cc4hEOZR.s 			page 79


 4447              	.LVL566:
 4448              	.L493:
 4449              	.LBE819:
 4450              	.LBE818:
 4451              	.LBE808:
 4452              	.LBE805:
 4453              	.LBE804:
 4454              	.LBB833:
 4455              	.LBB834:
 4456              	.LBB835:
 4457              	.LBB836:
 4458              		.loc 1 3071 0
 4459 0384 0029     		cmp	r1, #0
 4460 0386 00F0E084 		beq	.L618
 4461 038a CF69     		ldr	r7, [r1, #28]
 4462 038c 002F     		cmp	r7, #0
 4463 038e 00F0E884 		beq	.L619
 4464 0392 0B6A     		ldr	r3, [r1, #32]
 4465 0394 002B     		cmp	r3, #0
 4466 0396 00F0E084 		beq	.L620
 4467 039a 4B6A     		ldr	r3, [r1, #36]
 4468 039c 002B     		cmp	r3, #0
 4469 039e 00F0FC84 		beq	.L621
 4470              	.LVL567:
 4471              	.LBE836:
 4472              	.LBE835:
 4473              	.LBB837:
 4474              	.LBB838:
 4475              	.LBB839:
 4476              		.loc 1 4388 0
 4477 03a2 02AE     		add	r6, sp, #8
 4478              	.LBB840:
 4479              	.LBB841:
 4480              		.loc 1 1382 0
 4481 03a4 8B78     		ldrb	r3, [r1, #2]	@ zero_extendqisi2
 4482              		.loc 1 1386 0
 4483 03a6 6078     		ldrb	r0, [r4, #1]	@ zero_extendqisi2
 4484              	.LVL568:
 4485              	.LBE841:
 4486              	.LBE840:
 4487              		.loc 1 4388 0
 4488 03a8 0022     		movs	r2, #0
 4489 03aa 06F8042D 		strb	r2, [r6, #-4]!
 4490              	.LVL569:
 4491              	.LBB844:
 4492              	.LBB842:
 4493              		.loc 1 1382 0
 4494 03ae 012B     		cmp	r3, #1
 4495              	.LVL570:
 4496              		.loc 1 1386 0
 4497 03b0 0CBF     		ite	eq
 4498 03b2 D021     		moveq	r1, #208
 4499              	.LVL571:
 4500 03b4 5021     		movne	r1, #80
 4501 03b6 3246     		mov	r2, r6
 4502 03b8 0123     		movs	r3, #1
 4503 03ba B847     		blx	r7
ARM GAS  /tmp/cc4hEOZR.s 			page 80


 4504              	.LVL572:
 4505              		.loc 1 1388 0
 4506 03bc 0028     		cmp	r0, #0
 4507 03be 40F08C84 		bne	.L706
 4508              	.LVL573:
 4509              	.LBE842:
 4510              	.LBE844:
 4511              		.loc 1 4395 0
 4512 03c2 6978     		ldrb	r1, [r5, #1]	@ zero_extendqisi2
 4513 03c4 9DF80430 		ldrb	r3, [sp, #4]	@ zero_extendqisi2
 4514              	.LVL574:
 4515 03c8 6A79     		ldrb	r2, [r5, #5]	@ zero_extendqisi2
 4516 03ca 0429     		cmp	r1, #4
 4517              		.loc 1 4397 0
 4518 03cc 0CBF     		ite	eq
 4519 03ce 23F02003 		biceq	r3, r3, #32
 4520              	.LVL575:
 4521              		.loc 1 4402 0
 4522 03d2 23F01003 		bicne	r3, r3, #16
 4523 03d6 C2F3C002 		ubfx	r2, r2, #3, #1
 4524              		.loc 1 4398 0
 4525 03da 0CBF     		ite	eq
 4526 03dc 43EA4213 		orreq	r3, r3, r2, lsl #5
 4527              	.LVL576:
 4528              		.loc 1 4403 0
 4529 03e0 43EA0213 		orrne	r3, r3, r2, lsl #4
 4530 03e4 8DF80430 		strb	r3, [sp, #4]
 4531              		.loc 1 4407 0
 4532 03e8 0122     		movs	r2, #1
 4533 03ea 2346     		mov	r3, r4
 4534 03ec 3146     		mov	r1, r6
 4535 03ee 5020     		movs	r0, #80
 4536 03f0 FFF7FEFF 		bl	bmi160_set_regs
 4537              	.LVL577:
 4538              	.LBE839:
 4539              	.LBE838:
 4540              		.loc 1 2727 0
 4541 03f4 0028     		cmp	r0, #0
 4542 03f6 7FF41DAE 		bne	.L488
 4543              		.loc 1 2730 0
 4544 03fa 2146     		mov	r1, r4
 4545 03fc 2846     		mov	r0, r5
 4546 03fe FFF7FEFF 		bl	set_intr_pin_config
 4547              	.LVL578:
 4548              		.loc 1 2731 0
 4549 0402 0028     		cmp	r0, #0
 4550 0404 7FF416AE 		bne	.L488
 4551              	.LVL579:
 4552              	.LBB847:
 4553              	.LBB848:
 4554              		.loc 1 4424 0
 4555 0408 2146     		mov	r1, r4
 4556 040a 2846     		mov	r0, r5
 4557              	.LVL580:
 4558 040c FFF7FEFF 		bl	set_intr_pin_config
 4559              	.LVL581:
 4560              		.loc 1 4425 0
ARM GAS  /tmp/cc4hEOZR.s 			page 81


 4561 0410 0028     		cmp	r0, #0
 4562 0412 7FF40FAE 		bne	.L488
 4563              		.loc 1 4427 0
 4564 0416 2246     		mov	r2, r4
 4565 0418 691C     		adds	r1, r5, #1
 4566 041a 2846     		mov	r0, r5
 4567              	.LVL582:
 4568 041c FFF7FEFF 		bl	map_feature_interrupt.isra.20
 4569              	.LVL583:
 4570              		.loc 1 4428 0
 4571 0420 0028     		cmp	r0, #0
 4572 0422 7FF407AE 		bne	.L488
 4573              	.LVL584:
 4574              	.LBB849:
 4575              	.LBB850:
 4576              	.LBB851:
 4577              	.LBB852:
 4578              		.loc 1 1375 0
 4579 0426 E769     		ldr	r7, [r4, #28]
 4580              	.LBE852:
 4581              	.LBE851:
 4582              		.loc 1 4448 0
 4583 0428 8DF80400 		strb	r0, [sp, #4]
 4584              	.LVL585:
 4585              	.LBB855:
 4586              	.LBB853:
 4587              		.loc 1 1377 0
 4588 042c 4FF0FF30 		mov	r0, #-1
 4589              	.LVL586:
 4590              		.loc 1 1375 0
 4591 0430 002F     		cmp	r7, #0
 4592 0432 3FF4FFAD 		beq	.L488
 4593              		.loc 1 1382 0
 4594 0436 A378     		ldrb	r3, [r4, #2]	@ zero_extendqisi2
 4595              		.loc 1 1386 0
 4596 0438 6078     		ldrb	r0, [r4, #1]	@ zero_extendqisi2
 4597              		.loc 1 1382 0
 4598 043a 012B     		cmp	r3, #1
 4599              	.LVL587:
 4600              		.loc 1 1386 0
 4601 043c 0CBF     		ite	eq
 4602 043e D821     		moveq	r1, #216
 4603 0440 5821     		movne	r1, #88
 4604 0442 0123     		movs	r3, #1
 4605 0444 3246     		mov	r2, r6
 4606 0446 B847     		blx	r7
 4607              	.LVL588:
 4608              		.loc 1 1388 0
 4609 0448 0028     		cmp	r0, #0
 4610 044a 40F08585 		bne	.L707
 4611              	.LVL589:
 4612              	.LBE853:
 4613              	.LBE855:
 4614              		.loc 1 4455 0
 4615 044e 9DF80470 		ldrb	r7, [sp, #4]	@ zero_extendqisi2
 4616              		.loc 1 4456 0
 4617 0452 6B79     		ldrb	r3, [r5, #5]	@ zero_extendqisi2
ARM GAS  /tmp/cc4hEOZR.s 			page 82


 4618              		.loc 1 4455 0
 4619 0454 27F00807 		bic	r7, r7, #8
 4620              		.loc 1 4456 0
 4621 0458 C3F38003 		ubfx	r3, r3, #2, #1
 4622 045c 47EAC307 		orr	r7, r7, r3, lsl #3
 4623              		.loc 1 4459 0
 4624 0460 0122     		movs	r2, #1
 4625 0462 2346     		mov	r3, r4
 4626 0464 3146     		mov	r1, r6
 4627 0466 5820     		movs	r0, #88
 4628              		.loc 1 4456 0
 4629 0468 8DF80470 		strb	r7, [sp, #4]
 4630              	.LVL590:
 4631              		.loc 1 4459 0
 4632 046c FFF7FEFF 		bl	bmi160_set_regs
 4633              	.LVL591:
 4634              	.LBE850:
 4635              	.LBE849:
 4636              		.loc 1 4431 0
 4637 0470 0028     		cmp	r0, #0
 4638 0472 7FF4DFAD 		bne	.L488
 4639              	.LVL592:
 4640              	.LBB858:
 4641              	.LBB859:
 4642              	.LBB860:
 4643              	.LBB861:
 4644              		.loc 1 1375 0
 4645 0476 E769     		ldr	r7, [r4, #28]
 4646              	.LBE861:
 4647              	.LBE860:
 4648              		.loc 1 4476 0
 4649 0478 ADF80400 		strh	r0, [sp, #4]	@ movhi
 4650              	.LVL593:
 4651              	.LBB865:
 4652              	.LBB862:
 4653              		.loc 1 1375 0
 4654 047c 002F     		cmp	r7, #0
 4655 047e 00F06785 		beq	.L624
 4656              		.loc 1 1382 0
 4657 0482 A378     		ldrb	r3, [r4, #2]	@ zero_extendqisi2
 4658              		.loc 1 1386 0
 4659 0484 6078     		ldrb	r0, [r4, #1]	@ zero_extendqisi2
 4660              		.loc 1 1382 0
 4661 0486 012B     		cmp	r3, #1
 4662              	.LVL594:
 4663              		.loc 1 1386 0
 4664 0488 0CBF     		ite	eq
 4665 048a E321     		moveq	r1, #227
 4666 048c 6321     		movne	r1, #99
 4667 048e 0223     		movs	r3, #2
 4668 0490 3246     		mov	r2, r6
 4669 0492 B847     		blx	r7
 4670              	.LVL595:
 4671              		.loc 1 1388 0
 4672 0494 0028     		cmp	r0, #0
 4673 0496 40F06385 		bne	.L626
 4674              	.LVL596:
ARM GAS  /tmp/cc4hEOZR.s 			page 83


 4675              	.LBE862:
 4676              	.LBE865:
 4677              		.loc 1 4486 0
 4678 049a 6A78     		ldrb	r2, [r5, #1]	@ zero_extendqisi2
 4679              		.loc 1 4485 0
 4680 049c 9DF80430 		ldrb	r3, [sp, #4]	@ zero_extendqisi2
 4681              	.LVL597:
 4682              		.loc 1 4486 0
 4683 04a0 032A     		cmp	r2, #3
 4684 04a2 00F00985 		beq	.L708
 4685              	.LVL598:
 4686              	.L550:
 4687              		.loc 1 4495 0
 4688 04a6 2979     		ldrb	r1, [r5, #4]	@ zero_extendqisi2
 4689              		.loc 1 4504 0
 4690 04a8 9DF80550 		ldrb	r5, [sp, #5]	@ zero_extendqisi2
 4691              	.LVL599:
 4692              		.loc 1 4496 0
 4693 04ac 23F04002 		bic	r2, r3, #64
 4694              		.loc 1 4497 0
 4695 04b0 C1F34013 		ubfx	r3, r1, #5, #1
 4696              	.LVL600:
 4697 04b4 42EA8312 		orr	r2, r2, r3, lsl #6
 4698              	.LVL601:
 4699              		.loc 1 4500 0
 4700 04b8 C1F38017 		ubfx	r7, r1, #6, #1
 4701              		.loc 1 4503 0
 4702 04bc C1F30400 		ubfx	r0, r1, #0, #5
 4703              		.loc 1 4499 0
 4704 04c0 02F07F02 		and	r2, r2, #127
 4705              	.LVL602:
 4706              		.loc 1 4504 0
 4707 04c4 25F01F05 		bic	r5, r5, #31
 4708              		.loc 1 4505 0
 4709 04c8 0543     		orrs	r5, r5, r0
 4710              		.loc 1 4512 0
 4711 04ca 2346     		mov	r3, r4
 4712 04cc 3146     		mov	r1, r6
 4713              	.LVL603:
 4714              		.loc 1 4500 0
 4715 04ce 42EAC714 		orr	r4, r2, r7, lsl #7
 4716              	.LVL604:
 4717              		.loc 1 4512 0
 4718 04d2 6320     		movs	r0, #99
 4719 04d4 0222     		movs	r2, #2
 4720              		.loc 1 4501 0
 4721 04d6 8DF80440 		strb	r4, [sp, #4]
 4722              	.LVL605:
 4723              		.loc 1 4506 0
 4724 04da 8DF80550 		strb	r5, [sp, #5]
 4725              	.LVL606:
 4726              		.loc 1 4512 0
 4727 04de FFF7FEFF 		bl	bmi160_set_regs
 4728              	.LVL607:
 4729 04e2 A7E5     		b	.L488
 4730              	.LVL608:
 4731              	.L494:
ARM GAS  /tmp/cc4hEOZR.s 			page 84


 4732              	.LBE859:
 4733              	.LBE858:
 4734              	.LBE848:
 4735              	.LBE847:
 4736              	.LBE837:
 4737              	.LBE834:
 4738              	.LBE833:
 4739              	.LBB886:
 4740              	.LBB887:
 4741              	.LBB888:
 4742              	.LBB889:
 4743              		.loc 1 3071 0
 4744 04e4 0029     		cmp	r1, #0
 4745 04e6 00F02084 		beq	.L633
 4746 04ea CF69     		ldr	r7, [r1, #28]
 4747 04ec 002F     		cmp	r7, #0
 4748 04ee 00F01884 		beq	.L634
 4749 04f2 0B6A     		ldr	r3, [r1, #32]
 4750 04f4 002B     		cmp	r3, #0
 4751 04f6 00F01084 		beq	.L635
 4752 04fa 4B6A     		ldr	r3, [r1, #36]
 4753 04fc 002B     		cmp	r3, #0
 4754 04fe 00F00884 		beq	.L636
 4755              	.LVL609:
 4756              	.LBE889:
 4757              	.LBE888:
 4758              	.LBB890:
 4759              	.LBB891:
 4760              	.LBB892:
 4761              		.loc 1 4678 0
 4762 0502 02AE     		add	r6, sp, #8
 4763              	.LBB893:
 4764              	.LBB894:
 4765              		.loc 1 1382 0
 4766 0504 8B78     		ldrb	r3, [r1, #2]	@ zero_extendqisi2
 4767              		.loc 1 1386 0
 4768 0506 6078     		ldrb	r0, [r4, #1]	@ zero_extendqisi2
 4769              	.LVL610:
 4770              	.LBE894:
 4771              	.LBE893:
 4772              		.loc 1 4678 0
 4773 0508 0022     		movs	r2, #0
 4774 050a 06F8042D 		strb	r2, [r6, #-4]!
 4775              	.LVL611:
 4776              	.LBB897:
 4777              	.LBB895:
 4778              		.loc 1 1382 0
 4779 050e 012B     		cmp	r3, #1
 4780              	.LVL612:
 4781              		.loc 1 1386 0
 4782 0510 0CBF     		ite	eq
 4783 0512 D021     		moveq	r1, #208
 4784              	.LVL613:
 4785 0514 5021     		movne	r1, #80
 4786 0516 3246     		mov	r2, r6
 4787 0518 0123     		movs	r3, #1
 4788 051a B847     		blx	r7
ARM GAS  /tmp/cc4hEOZR.s 			page 85


 4789              	.LVL614:
 4790              		.loc 1 1388 0
 4791 051c 0028     		cmp	r0, #0
 4792 051e 40F0C283 		bne	.L709
 4793              	.LVL615:
 4794              	.LBE895:
 4795              	.LBE897:
 4796              		.loc 1 4685 0
 4797 0522 9DF80470 		ldrb	r7, [sp, #4]	@ zero_extendqisi2
 4798              		.loc 1 4686 0
 4799 0526 AB79     		ldrb	r3, [r5, #6]	@ zero_extendqisi2
 4800              		.loc 1 4685 0
 4801 0528 27F04007 		bic	r7, r7, #64
 4802              		.loc 1 4686 0
 4803 052c 03F00103 		and	r3, r3, #1
 4804 0530 47EA8317 		orr	r7, r7, r3, lsl #6
 4805              		.loc 1 4689 0
 4806 0534 0122     		movs	r2, #1
 4807 0536 2346     		mov	r3, r4
 4808 0538 3146     		mov	r1, r6
 4809 053a 5020     		movs	r0, #80
 4810              		.loc 1 4686 0
 4811 053c 8DF80470 		strb	r7, [sp, #4]
 4812              	.LVL616:
 4813              		.loc 1 4689 0
 4814 0540 FFF7FEFF 		bl	bmi160_set_regs
 4815              	.LVL617:
 4816              	.LBE892:
 4817              	.LBE891:
 4818              		.loc 1 2889 0
 4819 0544 0028     		cmp	r0, #0
 4820 0546 7FF475AD 		bne	.L488
 4821              		.loc 1 2892 0
 4822 054a 2146     		mov	r1, r4
 4823 054c 2846     		mov	r0, r5
 4824 054e FFF7FEFF 		bl	set_intr_pin_config
 4825              	.LVL618:
 4826              		.loc 1 2893 0
 4827 0552 0028     		cmp	r0, #0
 4828 0554 7FF46EAD 		bne	.L488
 4829              		.loc 1 2896 0
 4830 0558 2246     		mov	r2, r4
 4831 055a 691C     		adds	r1, r5, #1
 4832 055c 2846     		mov	r0, r5
 4833              	.LVL619:
 4834 055e FFF7FEFF 		bl	map_feature_interrupt.isra.20
 4835              	.LVL620:
 4836              		.loc 1 2897 0
 4837 0562 0028     		cmp	r0, #0
 4838 0564 7FF466AD 		bne	.L488
 4839              	.LVL621:
 4840              	.LBB900:
 4841              	.LBB901:
 4842              	.LBB902:
 4843              	.LBB903:
 4844              		.loc 1 1375 0
 4845 0568 E769     		ldr	r7, [r4, #28]
ARM GAS  /tmp/cc4hEOZR.s 			page 86


 4846              	.LBE903:
 4847              	.LBE902:
 4848              		.loc 1 4704 0
 4849 056a ADF80400 		strh	r0, [sp, #4]	@ movhi
 4850              	.LVL622:
 4851              	.LBB907:
 4852              	.LBB904:
 4853              		.loc 1 1375 0
 4854 056e 002F     		cmp	r7, #0
 4855 0570 00F0FA84 		beq	.L638
 4856              		.loc 1 1382 0
 4857 0574 A378     		ldrb	r3, [r4, #2]	@ zero_extendqisi2
 4858              		.loc 1 1386 0
 4859 0576 6078     		ldrb	r0, [r4, #1]	@ zero_extendqisi2
 4860              	.LVL623:
 4861              		.loc 1 1382 0
 4862 0578 012B     		cmp	r3, #1
 4863              	.LVL624:
 4864              		.loc 1 1386 0
 4865 057a 0CBF     		ite	eq
 4866 057c E521     		moveq	r1, #229
 4867 057e 6521     		movne	r1, #101
 4868 0580 0223     		movs	r3, #2
 4869 0582 3246     		mov	r2, r6
 4870 0584 B847     		blx	r7
 4871              	.LVL625:
 4872              		.loc 1 1388 0
 4873 0586 0028     		cmp	r0, #0
 4874 0588 40F09E84 		bne	.L640
 4875              	.LVL626:
 4876              	.LBE904:
 4877              	.LBE907:
 4878              		.loc 1 4728 0
 4879 058c 6B79     		ldrb	r3, [r5, #5]	@ zero_extendqisi2
 4880              		.loc 1 4714 0
 4881 058e 2A79     		ldrb	r2, [r5, #4]	@ zero_extendqisi2
 4882              		.loc 1 4728 0
 4883 0590 C3F30500 		ubfx	r0, r3, #0, #6
 4884              		.loc 1 4714 0
 4885 0594 C2F30107 		ubfx	r7, r2, #0, #2
 4886              	.LVL627:
 4887              		.loc 1 4719 0
 4888 0598 02F0FC05 		and	r5, r2, #252
 4889              	.LVL628:
 4890              		.loc 1 4733 0
 4891 059c 03F0C002 		and	r2, r3, #192
 4892              		.loc 1 4722 0
 4893 05a0 3D43     		orrs	r5, r5, r7
 4894              	.LVL629:
 4895              		.loc 1 4741 0
 4896 05a2 2346     		mov	r3, r4
 4897 05a4 3146     		mov	r1, r6
 4898              		.loc 1 4736 0
 4899 05a6 42EA0004 		orr	r4, r2, r0
 4900              	.LVL630:
 4901              		.loc 1 4741 0
 4902 05aa 0222     		movs	r2, #2
ARM GAS  /tmp/cc4hEOZR.s 			page 87


 4903 05ac 6520     		movs	r0, #101
 4904              		.loc 1 4723 0
 4905 05ae 8DF80450 		strb	r5, [sp, #4]
 4906              	.LVL631:
 4907              		.loc 1 4737 0
 4908 05b2 8DF80540 		strb	r4, [sp, #5]
 4909              		.loc 1 4741 0
 4910 05b6 FFF7FEFF 		bl	bmi160_set_regs
 4911              	.LVL632:
 4912 05ba 3BE5     		b	.L488
 4913              	.LVL633:
 4914              	.L495:
 4915              	.LBE901:
 4916              	.LBE900:
 4917              	.LBE890:
 4918              	.LBE887:
 4919              	.LBE886:
 4920              	.LBB921:
 4921              	.LBB922:
 4922              	.LBB923:
 4923              	.LBB924:
 4924              		.loc 1 3071 0
 4925 05bc 0029     		cmp	r1, #0
 4926 05be 00F00484 		beq	.L641
 4927 05c2 CF69     		ldr	r7, [r1, #28]
 4928 05c4 002F     		cmp	r7, #0
 4929 05c6 00F0BC83 		beq	.L642
 4930 05ca 0B6A     		ldr	r3, [r1, #32]
 4931 05cc 002B     		cmp	r3, #0
 4932 05ce 00F0B483 		beq	.L643
 4933 05d2 4B6A     		ldr	r3, [r1, #36]
 4934 05d4 002B     		cmp	r3, #0
 4935 05d6 00F0F483 		beq	.L644
 4936              	.LVL634:
 4937              	.LBE924:
 4938              	.LBE923:
 4939              	.LBB925:
 4940              	.LBB926:
 4941              	.LBB927:
 4942              		.loc 1 4753 0
 4943 05da 02AE     		add	r6, sp, #8
 4944              	.LBB928:
 4945              	.LBB929:
 4946              		.loc 1 1382 0
 4947 05dc 8B78     		ldrb	r3, [r1, #2]	@ zero_extendqisi2
 4948              		.loc 1 1386 0
 4949 05de 6078     		ldrb	r0, [r4, #1]	@ zero_extendqisi2
 4950              	.LVL635:
 4951              	.LBE929:
 4952              	.LBE928:
 4953              		.loc 1 4753 0
 4954 05e0 0022     		movs	r2, #0
 4955 05e2 06F8042D 		strb	r2, [r6, #-4]!
 4956              	.LVL636:
 4957              	.LBB932:
 4958              	.LBB930:
 4959              		.loc 1 1382 0
ARM GAS  /tmp/cc4hEOZR.s 			page 88


 4960 05e6 012B     		cmp	r3, #1
 4961              	.LVL637:
 4962              		.loc 1 1386 0
 4963 05e8 0CBF     		ite	eq
 4964 05ea D021     		moveq	r1, #208
 4965              	.LVL638:
 4966 05ec 5021     		movne	r1, #80
 4967 05ee 3246     		mov	r2, r6
 4968 05f0 0123     		movs	r3, #1
 4969 05f2 B847     		blx	r7
 4970              	.LVL639:
 4971              		.loc 1 1388 0
 4972 05f4 0028     		cmp	r0, #0
 4973 05f6 40F04683 		bne	.L710
 4974              	.LVL640:
 4975              	.LBE930:
 4976              	.LBE932:
 4977              		.loc 1 4760 0
 4978 05fa 9DF80470 		ldrb	r7, [sp, #4]	@ zero_extendqisi2
 4979              		.loc 1 4761 0
 4980 05fe 6B79     		ldrb	r3, [r5, #5]	@ zero_extendqisi2
 4981              		.loc 1 4760 0
 4982 0600 07F07F07 		and	r7, r7, #127
 4983              		.loc 1 4761 0
 4984 0604 C3F3C003 		ubfx	r3, r3, #3, #1
 4985 0608 47EAC317 		orr	r7, r7, r3, lsl #7
 4986              		.loc 1 4764 0
 4987 060c 0122     		movs	r2, #1
 4988 060e 2346     		mov	r3, r4
 4989 0610 3146     		mov	r1, r6
 4990 0612 5020     		movs	r0, #80
 4991              		.loc 1 4761 0
 4992 0614 8DF80470 		strb	r7, [sp, #4]
 4993              	.LVL641:
 4994              		.loc 1 4764 0
 4995 0618 FFF7FEFF 		bl	bmi160_set_regs
 4996              	.LVL642:
 4997              	.LBE927:
 4998              	.LBE926:
 4999              		.loc 1 2931 0
 5000 061c 0028     		cmp	r0, #0
 5001 061e 7FF409AD 		bne	.L488
 5002              		.loc 1 2934 0
 5003 0622 2146     		mov	r1, r4
 5004 0624 2846     		mov	r0, r5
 5005 0626 FFF7FEFF 		bl	set_intr_pin_config
 5006              	.LVL643:
 5007              		.loc 1 2935 0
 5008 062a 0028     		cmp	r0, #0
 5009 062c 7FF402AD 		bne	.L488
 5010              		.loc 1 2938 0
 5011 0630 2246     		mov	r2, r4
 5012 0632 691C     		adds	r1, r5, #1
 5013 0634 2846     		mov	r0, r5
 5014              	.LVL644:
 5015 0636 FFF7FEFF 		bl	map_feature_interrupt.isra.20
 5016              	.LVL645:
ARM GAS  /tmp/cc4hEOZR.s 			page 89


 5017              		.loc 1 2939 0
 5018 063a 0028     		cmp	r0, #0
 5019 063c 7FF4FAAC 		bne	.L488
 5020              	.LVL646:
 5021              	.LBB935:
 5022              	.LBB936:
 5023              	.LBB937:
 5024              	.LBB938:
 5025              		.loc 1 1375 0
 5026 0640 E769     		ldr	r7, [r4, #28]
 5027              	.LBE938:
 5028              	.LBE937:
 5029              		.loc 1 4778 0
 5030 0642 ADF80400 		strh	r0, [sp, #4]	@ movhi
 5031              	.LVL647:
 5032              	.LBB942:
 5033              	.LBB939:
 5034              		.loc 1 1375 0
 5035 0646 002F     		cmp	r7, #0
 5036 0648 00F05A84 		beq	.L646
 5037              		.loc 1 1382 0
 5038 064c A378     		ldrb	r3, [r4, #2]	@ zero_extendqisi2
 5039              		.loc 1 1386 0
 5040 064e 6078     		ldrb	r0, [r4, #1]	@ zero_extendqisi2
 5041              	.LVL648:
 5042              		.loc 1 1382 0
 5043 0650 012B     		cmp	r3, #1
 5044              	.LVL649:
 5045              		.loc 1 1386 0
 5046 0652 0CBF     		ite	eq
 5047 0654 E721     		moveq	r1, #231
 5048 0656 6721     		movne	r1, #103
 5049 0658 0223     		movs	r3, #2
 5050 065a 3246     		mov	r2, r6
 5051 065c B847     		blx	r7
 5052              	.LVL650:
 5053              		.loc 1 1388 0
 5054 065e 0028     		cmp	r0, #0
 5055 0660 40F03E84 		bne	.L648
 5056              	.LVL651:
 5057              	.LBE939:
 5058              	.LBE942:
 5059              		.loc 1 4791 0
 5060 0664 9DF80520 		ldrb	r2, [sp, #5]	@ zero_extendqisi2
 5061              		.loc 1 4794 0
 5062 0668 6B79     		ldrb	r3, [r5, #5]	@ zero_extendqisi2
 5063              		.loc 1 4798 0
 5064 066a AF88     		ldrh	r7, [r5, #4]
 5065              		.loc 1 4788 0
 5066 066c 2879     		ldrb	r0, [r5, #4]	@ zero_extendqisi2
 5067              		.loc 1 4785 0
 5068 066e 9DF80450 		ldrb	r5, [sp, #4]	@ zero_extendqisi2
 5069              	.LVL652:
 5070              		.loc 1 4794 0
 5071 0672 C3F34103 		ubfx	r3, r3, #1, #2
 5072              		.loc 1 4791 0
 5073 0676 22F03002 		bic	r2, r2, #48
ARM GAS  /tmp/cc4hEOZR.s 			page 90


 5074              		.loc 1 4794 0
 5075 067a 42EA0312 		orr	r2, r2, r3, lsl #4
 5076 067e 52B2     		sxtb	r2, r2
 5077              		.loc 1 4795 0
 5078 0680 22F00702 		bic	r2, r2, #7
 5079              		.loc 1 4798 0
 5080 0684 C7F38217 		ubfx	r7, r7, #6, #3
 5081              		.loc 1 4788 0
 5082 0688 C0F30500 		ubfx	r0, r0, #0, #6
 5083              		.loc 1 4785 0
 5084 068c 25F03F05 		bic	r5, r5, #63
 5085              		.loc 1 4788 0
 5086 0690 0543     		orrs	r5, r5, r0
 5087              	.LVL653:
 5088              		.loc 1 4803 0
 5089 0692 2346     		mov	r3, r4
 5090 0694 3146     		mov	r1, r6
 5091              		.loc 1 4798 0
 5092 0696 42EA0704 		orr	r4, r2, r7
 5093              	.LVL654:
 5094              		.loc 1 4803 0
 5095 069a 6720     		movs	r0, #103
 5096 069c 0222     		movs	r2, #2
 5097              		.loc 1 4799 0
 5098 069e 8DF80540 		strb	r4, [sp, #5]
 5099              		.loc 1 4789 0
 5100 06a2 8DF80450 		strb	r5, [sp, #4]
 5101              	.LVL655:
 5102              		.loc 1 4803 0
 5103 06a6 FFF7FEFF 		bl	bmi160_set_regs
 5104              	.LVL656:
 5105 06aa C3E4     		b	.L488
 5106              	.LVL657:
 5107              	.L496:
 5108              	.LBE936:
 5109              	.LBE935:
 5110              	.LBE925:
 5111              	.LBE922:
 5112              	.LBE921:
 5113              	.LBB956:
 5114              	.LBB957:
 5115              	.LBB958:
 5116              	.LBB959:
 5117              		.loc 1 3071 0
 5118 06ac 0029     		cmp	r1, #0
 5119 06ae 00F04083 		beq	.L658
 5120 06b2 CF69     		ldr	r7, [r1, #28]
 5121 06b4 002F     		cmp	r7, #0
 5122 06b6 00F02483 		beq	.L659
 5123 06ba 0B6A     		ldr	r3, [r1, #32]
 5124 06bc 002B     		cmp	r3, #0
 5125 06be 00F01C83 		beq	.L660
 5126 06c2 4B6A     		ldr	r3, [r1, #36]
 5127 06c4 002B     		cmp	r3, #0
 5128 06c6 00F01483 		beq	.L661
 5129              	.LVL658:
 5130              	.LBE959:
ARM GAS  /tmp/cc4hEOZR.s 			page 91


 5131              	.LBE958:
 5132              	.LBB960:
 5133              	.LBB961:
 5134              	.LBB962:
 5135              		.loc 1 4897 0
 5136 06ca 02AE     		add	r6, sp, #8
 5137              	.LBB963:
 5138              	.LBB964:
 5139              		.loc 1 1382 0
 5140 06cc 8B78     		ldrb	r3, [r1, #2]	@ zero_extendqisi2
 5141              		.loc 1 1386 0
 5142 06ce 6078     		ldrb	r0, [r4, #1]	@ zero_extendqisi2
 5143              	.LVL659:
 5144              	.LBE964:
 5145              	.LBE963:
 5146              		.loc 1 4897 0
 5147 06d0 0022     		movs	r2, #0
 5148 06d2 06F8042D 		strb	r2, [r6, #-4]!
 5149              	.LVL660:
 5150              	.LBB967:
 5151              	.LBB965:
 5152              		.loc 1 1382 0
 5153 06d6 012B     		cmp	r3, #1
 5154              	.LVL661:
 5155              		.loc 1 1386 0
 5156 06d8 0CBF     		ite	eq
 5157 06da D121     		moveq	r1, #209
 5158              	.LVL662:
 5159 06dc 5121     		movne	r1, #81
 5160 06de 3246     		mov	r2, r6
 5161 06e0 0123     		movs	r3, #1
 5162 06e2 B847     		blx	r7
 5163              	.LVL663:
 5164              		.loc 1 1388 0
 5165 06e4 0028     		cmp	r0, #0
 5166 06e6 40F0D682 		bne	.L711
 5167              	.LVL664:
 5168              	.LBE965:
 5169              	.LBE967:
 5170              		.loc 1 4906 0
 5171 06ea 2B79     		ldrb	r3, [r5, #4]	@ zero_extendqisi2
 5172              		.loc 1 4905 0
 5173 06ec 9DF80470 		ldrb	r7, [sp, #4]	@ zero_extendqisi2
 5174              		.loc 1 4906 0
 5175 06f0 C3F30002 		ubfx	r2, r3, #0, #1
 5176              	.LVL665:
 5177 06f4 07F0FC07 		and	r7, r7, #252
 5178              	.LVL666:
 5179              		.loc 1 4909 0
 5180 06f8 3A43     		orrs	r2, r2, r7
 5181              	.LVL667:
 5182              		.loc 1 4910 0
 5183 06fa 03F00207 		and	r7, r3, #2
 5184 06fe 1743     		orrs	r7, r7, r2
 5185              	.LVL668:
 5186              		.loc 1 4914 0
 5187 0700 03F00403 		and	r3, r3, #4
ARM GAS  /tmp/cc4hEOZR.s 			page 92


 5188              		.loc 1 4913 0
 5189 0704 27F00407 		bic	r7, r7, #4
 5190              	.LVL669:
 5191              		.loc 1 4914 0
 5192 0708 1F43     		orrs	r7, r7, r3
 5193              		.loc 1 4917 0
 5194 070a 0122     		movs	r2, #1
 5195              	.LVL670:
 5196 070c 2346     		mov	r3, r4
 5197 070e 3146     		mov	r1, r6
 5198 0710 5120     		movs	r0, #81
 5199              		.loc 1 4914 0
 5200 0712 8DF80470 		strb	r7, [sp, #4]
 5201              	.LVL671:
 5202              		.loc 1 4917 0
 5203 0716 FFF7FEFF 		bl	bmi160_set_regs
 5204              	.LVL672:
 5205              	.LBE962:
 5206              	.LBE961:
 5207              		.loc 1 3020 0
 5208 071a 0028     		cmp	r0, #0
 5209 071c 7FF48AAC 		bne	.L488
 5210              		.loc 1 3023 0
 5211 0720 2146     		mov	r1, r4
 5212 0722 2846     		mov	r0, r5
 5213 0724 FFF7FEFF 		bl	set_intr_pin_config
 5214              	.LVL673:
 5215              		.loc 1 3024 0
 5216 0728 0028     		cmp	r0, #0
 5217 072a 7FF483AC 		bne	.L488
 5218              		.loc 1 3027 0
 5219 072e 2246     		mov	r2, r4
 5220 0730 691C     		adds	r1, r5, #1
 5221 0732 2846     		mov	r0, r5
 5222              	.LVL674:
 5223 0734 FFF7FEFF 		bl	map_feature_interrupt.isra.20
 5224              	.LVL675:
 5225              		.loc 1 3028 0
 5226 0738 0028     		cmp	r0, #0
 5227 073a 7FF47BAC 		bne	.L488
 5228              	.LVL676:
 5229              	.LBB970:
 5230              	.LBB971:
 5231              	.LBB972:
 5232              	.LBB973:
 5233              		.loc 1 1375 0
 5234 073e E769     		ldr	r7, [r4, #28]
 5235              	.LBE973:
 5236              	.LBE972:
 5237              		.loc 1 4931 0
 5238 0740 8DF80400 		strb	r0, [sp, #4]
 5239              	.LVL677:
 5240              	.LBB976:
 5241              	.LBB974:
 5242              		.loc 1 1377 0
 5243 0744 4FF0FF30 		mov	r0, #-1
 5244              	.LVL678:
ARM GAS  /tmp/cc4hEOZR.s 			page 93


 5245              		.loc 1 1375 0
 5246 0748 002F     		cmp	r7, #0
 5247 074a 3FF473AC 		beq	.L488
 5248              		.loc 1 1382 0
 5249 074e A378     		ldrb	r3, [r4, #2]	@ zero_extendqisi2
 5250              		.loc 1 1386 0
 5251 0750 6078     		ldrb	r0, [r4, #1]	@ zero_extendqisi2
 5252              		.loc 1 1382 0
 5253 0752 012B     		cmp	r3, #1
 5254              	.LVL679:
 5255              		.loc 1 1386 0
 5256 0754 0CBF     		ite	eq
 5257 0756 D821     		moveq	r1, #216
 5258 0758 5821     		movne	r1, #88
 5259 075a 0123     		movs	r3, #1
 5260 075c 3246     		mov	r2, r6
 5261 075e B847     		blx	r7
 5262              	.LVL680:
 5263              		.loc 1 1388 0
 5264 0760 0028     		cmp	r0, #0
 5265 0762 40F0B983 		bne	.L712
 5266              	.LVL681:
 5267              	.LBE974:
 5268              	.LBE976:
 5269              		.loc 1 4938 0
 5270 0766 9DF80470 		ldrb	r7, [sp, #4]	@ zero_extendqisi2
 5271              		.loc 1 4939 0
 5272 076a 2B79     		ldrb	r3, [r5, #4]	@ zero_extendqisi2
 5273              		.loc 1 4938 0
 5274 076c 07F07F07 		and	r7, r7, #127
 5275              		.loc 1 4939 0
 5276 0770 C3F34013 		ubfx	r3, r3, #5, #1
 5277 0774 47EAC317 		orr	r7, r7, r3, lsl #7
 5278              		.loc 1 4942 0
 5279 0778 0122     		movs	r2, #1
 5280 077a 2346     		mov	r3, r4
 5281 077c 3146     		mov	r1, r6
 5282 077e 5820     		movs	r0, #88
 5283              		.loc 1 4939 0
 5284 0780 8DF80470 		strb	r7, [sp, #4]
 5285              	.LVL682:
 5286              		.loc 1 4942 0
 5287 0784 FFF7FEFF 		bl	bmi160_set_regs
 5288              	.LVL683:
 5289              	.LBE971:
 5290              	.LBE970:
 5291              		.loc 1 3033 0
 5292 0788 0028     		cmp	r0, #0
 5293 078a 7FF453AC 		bne	.L488
 5294              	.LVL684:
 5295              	.LBB979:
 5296              	.LBB980:
 5297              	.LBB981:
 5298              	.LBB982:
 5299              		.loc 1 1375 0
 5300 078e E769     		ldr	r7, [r4, #28]
 5301              	.LBE982:
ARM GAS  /tmp/cc4hEOZR.s 			page 94


 5302              	.LBE981:
 5303              		.loc 1 4956 0
 5304 0790 ADF80400 		strh	r0, [sp, #4]	@ movhi
 5305 0794 8DF80600 		strb	r0, [sp, #6]
 5306              	.LVL685:
 5307              	.LBB986:
 5308              	.LBB983:
 5309              		.loc 1 1375 0
 5310 0798 002F     		cmp	r7, #0
 5311 079a 00F0D583 		beq	.L664
 5312              		.loc 1 1382 0
 5313 079e A378     		ldrb	r3, [r4, #2]	@ zero_extendqisi2
 5314              		.loc 1 1386 0
 5315 07a0 6078     		ldrb	r0, [r4, #1]	@ zero_extendqisi2
 5316              		.loc 1 1382 0
 5317 07a2 012B     		cmp	r3, #1
 5318              	.LVL686:
 5319              		.loc 1 1386 0
 5320 07a4 0CBF     		ite	eq
 5321 07a6 DC21     		moveq	r1, #220
 5322 07a8 5C21     		movne	r1, #92
 5323 07aa 0123     		movs	r3, #1
 5324 07ac 3246     		mov	r2, r6
 5325 07ae B847     		blx	r7
 5326              	.LVL687:
 5327              		.loc 1 1388 0
 5328 07b0 0028     		cmp	r0, #0
 5329 07b2 40F0AD83 		bne	.L666
 5330              	.LVL688:
 5331              	.LBE983:
 5332              	.LBE986:
 5333              		.loc 1 4961 0
 5334 07b6 9DF80420 		ldrb	r2, [sp, #4]	@ zero_extendqisi2
 5335              		.loc 1 4964 0
 5336 07ba 2879     		ldrb	r0, [r5, #4]	@ zero_extendqisi2
 5337              		.loc 1 4967 0
 5338 07bc AB79     		ldrb	r3, [r5, #6]	@ zero_extendqisi2
 5339 07be 8DF80530 		strb	r3, [sp, #5]
 5340              		.loc 1 4964 0
 5341 07c2 C0F3C100 		ubfx	r0, r0, #3, #2
 5342              		.loc 1 4961 0
 5343 07c6 02F03F02 		and	r2, r2, #63
 5344              		.loc 1 4970 0
 5345 07ca 6D79     		ldrb	r5, [r5, #5]	@ zero_extendqisi2
 5346              	.LVL689:
 5347 07cc 8DF80650 		strb	r5, [sp, #6]
 5348              		.loc 1 4971 0
 5349 07d0 2346     		mov	r3, r4
 5350 07d2 3146     		mov	r1, r6
 5351              		.loc 1 4964 0
 5352 07d4 42EA8014 		orr	r4, r2, r0, lsl #6
 5353              	.LVL690:
 5354              		.loc 1 4971 0
 5355 07d8 0322     		movs	r2, #3
 5356 07da 5C20     		movs	r0, #92
 5357              		.loc 1 4964 0
 5358 07dc 8DF80440 		strb	r4, [sp, #4]
ARM GAS  /tmp/cc4hEOZR.s 			page 95


 5359              	.LVL691:
 5360              		.loc 1 4971 0
 5361 07e0 FFF7FEFF 		bl	bmi160_set_regs
 5362              	.LVL692:
 5363 07e4 26E4     		b	.L488
 5364              	.LVL693:
 5365              	.L497:
 5366              	.LBE980:
 5367              	.LBE979:
 5368              	.LBE960:
 5369              	.LBE957:
 5370              	.LBE956:
 5371              	.LBB1003:
 5372              	.LBB1004:
 5373              	.LBB1005:
 5374              	.LBB1006:
 5375              		.loc 1 3071 0
 5376 07e6 0029     		cmp	r1, #0
 5377 07e8 00F0F782 		beq	.L649
 5378 07ec CF69     		ldr	r7, [r1, #28]
 5379 07ee 002F     		cmp	r7, #0
 5380 07f0 00F0FB82 		beq	.L650
 5381 07f4 0B6A     		ldr	r3, [r1, #32]
 5382 07f6 002B     		cmp	r3, #0
 5383 07f8 00F0F382 		beq	.L651
 5384 07fc 4B6A     		ldr	r3, [r1, #36]
 5385 07fe 002B     		cmp	r3, #0
 5386 0800 00F0DB82 		beq	.L652
 5387              	.LVL694:
 5388              	.LBE1006:
 5389              	.LBE1005:
 5390              	.LBB1007:
 5391              	.LBB1008:
 5392              	.LBB1009:
 5393              		.loc 1 4815 0
 5394 0804 02AE     		add	r6, sp, #8
 5395              	.LBB1010:
 5396              	.LBB1011:
 5397              		.loc 1 1382 0
 5398 0806 8B78     		ldrb	r3, [r1, #2]	@ zero_extendqisi2
 5399              		.loc 1 1386 0
 5400 0808 6078     		ldrb	r0, [r4, #1]	@ zero_extendqisi2
 5401              	.LVL695:
 5402              	.LBE1011:
 5403              	.LBE1010:
 5404              		.loc 1 4815 0
 5405 080a 0022     		movs	r2, #0
 5406 080c 06F8042D 		strb	r2, [r6, #-4]!
 5407              	.LVL696:
 5408              	.LBB1014:
 5409              	.LBB1012:
 5410              		.loc 1 1382 0
 5411 0810 012B     		cmp	r3, #1
 5412              	.LVL697:
 5413              		.loc 1 1386 0
 5414 0812 0CBF     		ite	eq
 5415 0814 D121     		moveq	r1, #209
ARM GAS  /tmp/cc4hEOZR.s 			page 96


 5416              	.LVL698:
 5417 0816 5121     		movne	r1, #81
 5418 0818 3246     		mov	r2, r6
 5419 081a 0123     		movs	r3, #1
 5420 081c B847     		blx	r7
 5421              	.LVL699:
 5422              		.loc 1 1388 0
 5423 081e 0028     		cmp	r0, #0
 5424 0820 40F02D82 		bne	.L713
 5425              	.LVL700:
 5426              	.LBE1012:
 5427              	.LBE1014:
 5428              		.loc 1 4822 0
 5429 0824 9DF80470 		ldrb	r7, [sp, #4]	@ zero_extendqisi2
 5430              		.loc 1 4823 0
 5431 0828 AB79     		ldrb	r3, [r5, #6]	@ zero_extendqisi2
 5432              		.loc 1 4822 0
 5433 082a 27F00807 		bic	r7, r7, #8
 5434              		.loc 1 4823 0
 5435 082e C3F30013 		ubfx	r3, r3, #4, #1
 5436 0832 47EAC307 		orr	r7, r7, r3, lsl #3
 5437              		.loc 1 4826 0
 5438 0836 0122     		movs	r2, #1
 5439 0838 2346     		mov	r3, r4
 5440 083a 3146     		mov	r1, r6
 5441 083c 5120     		movs	r0, #81
 5442              		.loc 1 4823 0
 5443 083e 8DF80470 		strb	r7, [sp, #4]
 5444              	.LVL701:
 5445              		.loc 1 4826 0
 5446 0842 FFF7FEFF 		bl	bmi160_set_regs
 5447              	.LVL702:
 5448              	.LBE1009:
 5449              	.LBE1008:
 5450              		.loc 1 2972 0
 5451 0846 0028     		cmp	r0, #0
 5452 0848 7FF4F4AB 		bne	.L488
 5453              		.loc 1 2975 0
 5454 084c 2146     		mov	r1, r4
 5455 084e 2846     		mov	r0, r5
 5456 0850 FFF7FEFF 		bl	set_intr_pin_config
 5457              	.LVL703:
 5458              		.loc 1 2976 0
 5459 0854 0028     		cmp	r0, #0
 5460 0856 7FF4EDAB 		bne	.L488
 5461              		.loc 1 2979 0
 5462 085a 2246     		mov	r2, r4
 5463 085c 691C     		adds	r1, r5, #1
 5464 085e 2846     		mov	r0, r5
 5465              	.LVL704:
 5466 0860 FFF7FEFF 		bl	map_feature_interrupt.isra.20
 5467              	.LVL705:
 5468              		.loc 1 2980 0
 5469 0864 0028     		cmp	r0, #0
 5470 0866 7FF4E5AB 		bne	.L488
 5471              	.LVL706:
 5472              	.LBB1017:
ARM GAS  /tmp/cc4hEOZR.s 			page 97


 5473              	.LBB1018:
 5474              	.LBB1019:
 5475              	.LBB1020:
 5476              		.loc 1 1375 0
 5477 086a E769     		ldr	r7, [r4, #28]
 5478              	.LBE1020:
 5479              	.LBE1019:
 5480              		.loc 1 4839 0
 5481 086c 8DF80400 		strb	r0, [sp, #4]
 5482              	.LVL707:
 5483              	.LBB1023:
 5484              	.LBB1021:
 5485              		.loc 1 1377 0
 5486 0870 4FF0FF30 		mov	r0, #-1
 5487              	.LVL708:
 5488              		.loc 1 1375 0
 5489 0874 002F     		cmp	r7, #0
 5490 0876 3FF4DDAB 		beq	.L488
 5491              		.loc 1 1382 0
 5492 087a A378     		ldrb	r3, [r4, #2]	@ zero_extendqisi2
 5493              		.loc 1 1386 0
 5494 087c 6078     		ldrb	r0, [r4, #1]	@ zero_extendqisi2
 5495              		.loc 1 1382 0
 5496 087e 012B     		cmp	r3, #1
 5497              	.LVL709:
 5498              		.loc 1 1386 0
 5499 0880 0CBF     		ite	eq
 5500 0882 D821     		moveq	r1, #216
 5501 0884 5821     		movne	r1, #88
 5502 0886 0123     		movs	r3, #1
 5503 0888 3246     		mov	r2, r6
 5504 088a B847     		blx	r7
 5505              	.LVL710:
 5506              		.loc 1 1388 0
 5507 088c 0028     		cmp	r0, #0
 5508 088e 40F02F83 		bne	.L714
 5509              	.LVL711:
 5510              	.LBE1021:
 5511              	.LBE1023:
 5512              		.loc 1 4846 0
 5513 0892 9DF80470 		ldrb	r7, [sp, #4]	@ zero_extendqisi2
 5514              		.loc 1 4847 0
 5515 0896 AB79     		ldrb	r3, [r5, #6]	@ zero_extendqisi2
 5516              		.loc 1 4846 0
 5517 0898 07F07F07 		and	r7, r7, #127
 5518              		.loc 1 4847 0
 5519 089c C3F3C003 		ubfx	r3, r3, #3, #1
 5520 08a0 47EAC317 		orr	r7, r7, r3, lsl #7
 5521              		.loc 1 4850 0
 5522 08a4 0122     		movs	r2, #1
 5523 08a6 2346     		mov	r3, r4
 5524 08a8 3146     		mov	r1, r6
 5525 08aa 5820     		movs	r0, #88
 5526              		.loc 1 4847 0
 5527 08ac 8DF80470 		strb	r7, [sp, #4]
 5528              	.LVL712:
 5529              		.loc 1 4850 0
ARM GAS  /tmp/cc4hEOZR.s 			page 98


 5530 08b0 FFF7FEFF 		bl	bmi160_set_regs
 5531              	.LVL713:
 5532              	.LBE1018:
 5533              	.LBE1017:
 5534              		.loc 1 2985 0
 5535 08b4 0028     		cmp	r0, #0
 5536 08b6 7FF4BDAB 		bne	.L488
 5537              	.LVL714:
 5538              	.LBB1026:
 5539              	.LBB1027:
 5540              	.LBB1028:
 5541              	.LBB1029:
 5542              		.loc 1 1375 0
 5543 08ba E769     		ldr	r7, [r4, #28]
 5544              	.LBE1029:
 5545              	.LBE1028:
 5546              		.loc 1 4863 0
 5547 08bc ADF80400 		strh	r0, [sp, #4]	@ movhi
 5548 08c0 8DF80600 		strb	r0, [sp, #6]
 5549              	.LVL715:
 5550              	.LBB1033:
 5551              	.LBB1030:
 5552              		.loc 1 1375 0
 5553 08c4 002F     		cmp	r7, #0
 5554 08c6 00F01783 		beq	.L655
 5555              		.loc 1 1382 0
 5556 08ca A378     		ldrb	r3, [r4, #2]	@ zero_extendqisi2
 5557              		.loc 1 1386 0
 5558 08cc 6078     		ldrb	r0, [r4, #1]	@ zero_extendqisi2
 5559              		.loc 1 1382 0
 5560 08ce 012B     		cmp	r3, #1
 5561              	.LVL716:
 5562              		.loc 1 1386 0
 5563 08d0 0CBF     		ite	eq
 5564 08d2 DC21     		moveq	r1, #220
 5565 08d4 5C21     		movne	r1, #92
 5566 08d6 0123     		movs	r3, #1
 5567 08d8 0DF10602 		add	r2, sp, #6
 5568              	.LVL717:
 5569 08dc B847     		blx	r7
 5570              	.LVL718:
 5571              		.loc 1 1388 0
 5572 08de 0028     		cmp	r0, #0
 5573 08e0 40F01A83 		bne	.L657
 5574              	.LVL719:
 5575              	.LBE1030:
 5576              	.LBE1033:
 5577              		.loc 1 4872 0
 5578 08e4 AB79     		ldrb	r3, [r5, #6]	@ zero_extendqisi2
 5579              		.loc 1 4869 0
 5580 08e6 9DF80600 		ldrb	r0, [sp, #6]	@ zero_extendqisi2
 5581              		.loc 1 4879 0
 5582 08ea 6A79     		ldrb	r2, [r5, #5]	@ zero_extendqisi2
 5583 08ec 8DF80520 		strb	r2, [sp, #5]
 5584              		.loc 1 4872 0
 5585 08f0 00F0F800 		and	r0, r0, #248
 5586 08f4 C3F30102 		ubfx	r2, r3, #0, #2
ARM GAS  /tmp/cc4hEOZR.s 			page 99


 5587              	.LVL720:
 5588              		.loc 1 4873 0
 5589 08f8 1043     		orrs	r0, r0, r2
 5590              		.loc 1 4876 0
 5591 08fa 03F00402 		and	r2, r3, #4
 5592              	.LVL721:
 5593              		.loc 1 4882 0
 5594 08fe 2D79     		ldrb	r5, [r5, #4]	@ zero_extendqisi2
 5595              	.LVL722:
 5596 0900 8DF80450 		strb	r5, [sp, #4]
 5597              		.loc 1 4885 0
 5598 0904 2346     		mov	r3, r4
 5599              	.LVL723:
 5600 0906 3146     		mov	r1, r6
 5601              		.loc 1 4876 0
 5602 0908 42EA0004 		orr	r4, r2, r0
 5603              	.LVL724:
 5604              		.loc 1 4885 0
 5605 090c 0322     		movs	r2, #3
 5606 090e 5A20     		movs	r0, #90
 5607              		.loc 1 4876 0
 5608 0910 8DF80640 		strb	r4, [sp, #6]
 5609              	.LVL725:
 5610              		.loc 1 4885 0
 5611 0914 FFF7FEFF 		bl	bmi160_set_regs
 5612              	.LVL726:
 5613 0918 FFF78CBB 		b	.L488
 5614              	.LVL727:
 5615              	.L498:
 5616              	.LBE1027:
 5617              	.LBE1026:
 5618              	.LBE1007:
 5619              	.LBE1004:
 5620              	.LBE1003:
 5621              	.LBB1048:
 5622              	.LBB1049:
 5623              	.LBB1050:
 5624              	.LBB1051:
 5625              		.loc 1 3071 0
 5626 091c 0029     		cmp	r1, #0
 5627 091e 00F01882 		beq	.L610
 5628 0922 CF69     		ldr	r7, [r1, #28]
 5629 0924 002F     		cmp	r7, #0
 5630 0926 00F06882 		beq	.L611
 5631 092a 0B6A     		ldr	r3, [r1, #32]
 5632 092c 002B     		cmp	r3, #0
 5633 092e 00F06082 		beq	.L612
 5634 0932 4B6A     		ldr	r3, [r1, #36]
 5635 0934 002B     		cmp	r3, #0
 5636 0936 00F06C82 		beq	.L613
 5637              	.LVL728:
 5638              	.LBE1051:
 5639              	.LBE1050:
 5640              	.LBB1052:
 5641              	.LBB1053:
 5642              	.LBB1054:
 5643              		.loc 1 4024 0
ARM GAS  /tmp/cc4hEOZR.s 			page 100


 5644 093a 02AE     		add	r6, sp, #8
 5645              	.LBB1055:
 5646              	.LBB1056:
 5647              		.loc 1 1382 0
 5648 093c 8B78     		ldrb	r3, [r1, #2]	@ zero_extendqisi2
 5649              		.loc 1 1386 0
 5650 093e 6078     		ldrb	r0, [r4, #1]	@ zero_extendqisi2
 5651              	.LVL729:
 5652              	.LBE1056:
 5653              	.LBE1055:
 5654              		.loc 1 4024 0
 5655 0940 0022     		movs	r2, #0
 5656 0942 06F8042D 		strb	r2, [r6, #-4]!
 5657              	.LVL730:
 5658              	.LBB1059:
 5659              	.LBB1057:
 5660              		.loc 1 1382 0
 5661 0946 012B     		cmp	r3, #1
 5662              	.LVL731:
 5663              		.loc 1 1386 0
 5664 0948 0CBF     		ite	eq
 5665 094a D221     		moveq	r1, #210
 5666              	.LVL732:
 5667 094c 5221     		movne	r1, #82
 5668 094e 3246     		mov	r2, r6
 5669 0950 0123     		movs	r3, #1
 5670 0952 B847     		blx	r7
 5671              	.LVL733:
 5672              		.loc 1 1388 0
 5673 0954 0028     		cmp	r0, #0
 5674 0956 40F0B481 		bne	.L715
 5675              	.LVL734:
 5676              	.LBE1057:
 5677              	.LBE1059:
 5678              		.loc 1 4032 0
 5679 095a 2B79     		ldrb	r3, [r5, #4]	@ zero_extendqisi2
 5680 095c D907     		lsls	r1, r3, #31
 5681 095e 07D5     		bpl	.L528
 5682              	.LVL735:
 5683              		.loc 1 4034 0
 5684 0960 9DF80420 		ldrb	r2, [sp, #4]	@ zero_extendqisi2
 5685 0964 22F00102 		bic	r2, r2, #1
 5686              		.loc 1 4037 0
 5687 0968 42F00102 		orr	r2, r2, #1
 5688 096c 8DF80420 		strb	r2, [sp, #4]
 5689              	.LVL736:
 5690              	.L528:
 5691              		.loc 1 4039 0
 5692 0970 9A07     		lsls	r2, r3, #30
 5693 0972 07D5     		bpl	.L529
 5694              	.LVL737:
 5695              		.loc 1 4041 0
 5696 0974 9DF80420 		ldrb	r2, [sp, #4]	@ zero_extendqisi2
 5697 0978 22F00202 		bic	r2, r2, #2
 5698              		.loc 1 4044 0
 5699 097c 42F00202 		orr	r2, r2, #2
 5700 0980 8DF80420 		strb	r2, [sp, #4]
ARM GAS  /tmp/cc4hEOZR.s 			page 101


 5701              	.LVL738:
 5702              	.L529:
 5703              		.loc 1 4046 0
 5704 0984 5B07     		lsls	r3, r3, #29
 5705 0986 07D5     		bpl	.L530
 5706              	.LVL739:
 5707              		.loc 1 4048 0
 5708 0988 9DF80430 		ldrb	r3, [sp, #4]	@ zero_extendqisi2
 5709 098c 23F00403 		bic	r3, r3, #4
 5710              		.loc 1 4051 0
 5711 0990 43F00403 		orr	r3, r3, #4
 5712 0994 8DF80430 		strb	r3, [sp, #4]
 5713              	.LVL740:
 5714              	.L530:
 5715              		.loc 1 4055 0
 5716 0998 2346     		mov	r3, r4
 5717 099a 0122     		movs	r2, #1
 5718 099c 3146     		mov	r1, r6
 5719 099e 5220     		movs	r0, #82
 5720 09a0 FFF7FEFF 		bl	bmi160_set_regs
 5721              	.LVL741:
 5722              	.LBE1054:
 5723              	.LBE1053:
 5724              		.loc 1 2821 0
 5725 09a4 0028     		cmp	r0, #0
 5726 09a6 7FF445AB 		bne	.L488
 5727              	.LVL742:
 5728              	.LBB1062:
 5729              	.LBB1063:
 5730              		.loc 1 4072 0
 5731 09aa 2146     		mov	r1, r4
 5732 09ac 2846     		mov	r0, r5
 5733 09ae FFF7FEFF 		bl	set_intr_pin_config
 5734              	.LVL743:
 5735              		.loc 1 4073 0
 5736 09b2 0028     		cmp	r0, #0
 5737 09b4 7FF43EAB 		bne	.L488
 5738              		.loc 1 4075 0
 5739 09b8 2246     		mov	r2, r4
 5740 09ba 691C     		adds	r1, r5, #1
 5741 09bc 2846     		mov	r0, r5
 5742              	.LVL744:
 5743 09be FFF7FEFF 		bl	map_feature_interrupt.isra.20
 5744              	.LVL745:
 5745              		.loc 1 4076 0
 5746 09c2 0028     		cmp	r0, #0
 5747 09c4 7FF436AB 		bne	.L488
 5748              	.LVL746:
 5749              	.LBB1064:
 5750              	.LBB1065:
 5751              	.LBB1066:
 5752              	.LBB1067:
 5753              		.loc 1 1375 0
 5754 09c8 E769     		ldr	r7, [r4, #28]
 5755              	.LBE1067:
 5756              	.LBE1066:
 5757              		.loc 1 4096 0
ARM GAS  /tmp/cc4hEOZR.s 			page 102


 5758 09ca 8DF80400 		strb	r0, [sp, #4]
 5759              	.LVL747:
 5760              	.LBB1070:
 5761              	.LBB1068:
 5762              		.loc 1 1377 0
 5763 09ce 4FF0FF30 		mov	r0, #-1
 5764              	.LVL748:
 5765              		.loc 1 1375 0
 5766 09d2 002F     		cmp	r7, #0
 5767 09d4 3FF42EAB 		beq	.L488
 5768              		.loc 1 1382 0
 5769 09d8 A378     		ldrb	r3, [r4, #2]	@ zero_extendqisi2
 5770              		.loc 1 1386 0
 5771 09da 6078     		ldrb	r0, [r4, #1]	@ zero_extendqisi2
 5772              		.loc 1 1382 0
 5773 09dc 012B     		cmp	r3, #1
 5774              	.LVL749:
 5775              		.loc 1 1386 0
 5776 09de 0CBF     		ite	eq
 5777 09e0 D921     		moveq	r1, #217
 5778 09e2 5921     		movne	r1, #89
 5779 09e4 0123     		movs	r3, #1
 5780 09e6 3246     		mov	r2, r6
 5781 09e8 B847     		blx	r7
 5782              	.LVL750:
 5783              		.loc 1 1388 0
 5784 09ea 0028     		cmp	r0, #0
 5785 09ec 40F07C82 		bne	.L716
 5786              	.LVL751:
 5787              	.LBE1068:
 5788              	.LBE1070:
 5789              		.loc 1 4103 0
 5790 09f0 9DF80470 		ldrb	r7, [sp, #4]	@ zero_extendqisi2
 5791              		.loc 1 4104 0
 5792 09f4 6B79     		ldrb	r3, [r5, #5]	@ zero_extendqisi2
 5793              		.loc 1 4103 0
 5794 09f6 07F07F07 		and	r7, r7, #127
 5795              		.loc 1 4104 0
 5796 09fa C3F38003 		ubfx	r3, r3, #2, #1
 5797 09fe 47EAC317 		orr	r7, r7, r3, lsl #7
 5798              		.loc 1 4107 0
 5799 0a02 0122     		movs	r2, #1
 5800 0a04 2346     		mov	r3, r4
 5801 0a06 3146     		mov	r1, r6
 5802 0a08 5920     		movs	r0, #89
 5803              		.loc 1 4104 0
 5804 0a0a 8DF80470 		strb	r7, [sp, #4]
 5805              	.LVL752:
 5806              		.loc 1 4107 0
 5807 0a0e FFF7FEFF 		bl	bmi160_set_regs
 5808              	.LVL753:
 5809              	.LBE1065:
 5810              	.LBE1064:
 5811              		.loc 1 4079 0
 5812 0a12 0028     		cmp	r0, #0
 5813 0a14 7FF40EAB 		bne	.L488
 5814              	.LVL754:
ARM GAS  /tmp/cc4hEOZR.s 			page 103


 5815              	.LBB1073:
 5816              	.LBB1074:
 5817              	.LBB1075:
 5818              	.LBB1076:
 5819              		.loc 1 1375 0
 5820 0a18 E769     		ldr	r7, [r4, #28]
 5821              	.LBE1076:
 5822              	.LBE1075:
 5823              		.loc 1 4121 0
 5824 0a1a 8DF80300 		strb	r0, [sp, #3]
 5825              	.LVL755:
 5826              		.loc 1 4125 0
 5827 0a1e ADF80400 		strh	r0, [sp, #4]	@ movhi
 5828              	.LVL756:
 5829              	.LBB1080:
 5830              	.LBB1077:
 5831              		.loc 1 1375 0
 5832 0a22 002F     		cmp	r7, #0
 5833 0a24 00F07082 		beq	.L538
 5834              		.loc 1 1382 0
 5835 0a28 A378     		ldrb	r3, [r4, #2]	@ zero_extendqisi2
 5836              		.loc 1 1386 0
 5837 0a2a 6078     		ldrb	r0, [r4, #1]	@ zero_extendqisi2
 5838              		.loc 1 1382 0
 5839 0a2c 012B     		cmp	r3, #1
 5840              	.LVL757:
 5841              		.loc 1 1386 0
 5842 0a2e 0CBF     		ite	eq
 5843 0a30 DF21     		moveq	r1, #223
 5844 0a32 5F21     		movne	r1, #95
 5845 0a34 0DF10302 		add	r2, sp, #3
 5846              	.LVL758:
 5847 0a38 0123     		movs	r3, #1
 5848 0a3a B847     		blx	r7
 5849              	.LVL759:
 5850              		.loc 1 1388 0
 5851 0a3c 0028     		cmp	r0, #0
 5852 0a3e 40F06F82 		bne	.L540
 5853              	.LVL760:
 5854              	.LBE1077:
 5855              	.LBE1080:
 5856              		.loc 1 4132 0
 5857 0a42 9DF80370 		ldrb	r7, [sp, #3]	@ zero_extendqisi2
 5858              		.loc 1 4135 0
 5859 0a46 AB88     		ldrh	r3, [r5, #4]
 5860              		.loc 1 4132 0
 5861 0a48 07F00307 		and	r7, r7, #3
 5862              		.loc 1 4135 0
 5863 0a4c C3F3C503 		ubfx	r3, r3, #3, #6
 5864 0a50 47EA8307 		orr	r7, r7, r3, lsl #2
 5865              		.loc 1 4138 0
 5866 0a54 0122     		movs	r2, #1
 5867 0a56 2346     		mov	r3, r4
 5868 0a58 0DF10301 		add	r1, sp, #3
 5869              	.LVL761:
 5870 0a5c 5F20     		movs	r0, #95
 5871              		.loc 1 4135 0
ARM GAS  /tmp/cc4hEOZR.s 			page 104


 5872 0a5e 8DF80370 		strb	r7, [sp, #3]
 5873              	.LVL762:
 5874              		.loc 1 4138 0
 5875 0a62 FFF7FEFF 		bl	bmi160_set_regs
 5876              	.LVL763:
 5877              		.loc 1 4139 0
 5878 0a66 0028     		cmp	r0, #0
 5879 0a68 7FF4E4AA 		bne	.L488
 5880              	.LVL764:
 5881              	.LBB1081:
 5882              	.LBB1082:
 5883              		.loc 1 1375 0
 5884 0a6c E769     		ldr	r7, [r4, #28]
 5885 0a6e 002F     		cmp	r7, #0
 5886 0a70 00F04A82 		beq	.L538
 5887              		.loc 1 1382 0
 5888 0a74 A378     		ldrb	r3, [r4, #2]	@ zero_extendqisi2
 5889              		.loc 1 1386 0
 5890 0a76 6078     		ldrb	r0, [r4, #1]	@ zero_extendqisi2
 5891              	.LVL765:
 5892              		.loc 1 1382 0
 5893 0a78 012B     		cmp	r3, #1
 5894              	.LVL766:
 5895              		.loc 1 1386 0
 5896 0a7a 0CBF     		ite	eq
 5897 0a7c E221     		moveq	r1, #226
 5898 0a7e 6221     		movne	r1, #98
 5899 0a80 0DF10302 		add	r2, sp, #3
 5900              	.LVL767:
 5901 0a84 0123     		movs	r3, #1
 5902 0a86 B847     		blx	r7
 5903              	.LVL768:
 5904              		.loc 1 1388 0
 5905 0a88 0028     		cmp	r0, #0
 5906 0a8a 40F04982 		bne	.L540
 5907              	.LVL769:
 5908              	.LBE1082:
 5909              	.LBE1081:
 5910              		.loc 1 4145 0
 5911 0a8e 9DF80320 		ldrb	r2, [sp, #3]	@ zero_extendqisi2
 5912              		.loc 1 4148 0
 5913 0a92 6879     		ldrb	r0, [r5, #5]	@ zero_extendqisi2
 5914              		.loc 1 4153 0
 5915 0a94 AB79     		ldrb	r3, [r5, #6]	@ zero_extendqisi2
 5916 0a96 8DF80430 		strb	r3, [sp, #4]
 5917              	.LVL770:
 5918              		.loc 1 4145 0
 5919 0a9a 22F00102 		bic	r2, r2, #1
 5920              		.loc 1 4148 0
 5921 0a9e C0F34000 		ubfx	r0, r0, #1, #1
 5922              		.loc 1 4158 0
 5923 0aa2 2346     		mov	r3, r4
 5924 0aa4 3146     		mov	r1, r6
 5925              		.loc 1 4149 0
 5926 0aa6 42EA0004 		orr	r4, r2, r0
 5927              	.LVL771:
 5928              		.loc 1 4158 0
ARM GAS  /tmp/cc4hEOZR.s 			page 105


 5929 0aaa 0222     		movs	r2, #2
 5930 0aac 6120     		movs	r0, #97
 5931              		.loc 1 4149 0
 5932 0aae 8DF80340 		strb	r4, [sp, #3]
 5933              	.LVL772:
 5934              		.loc 1 4150 0
 5935 0ab2 8DF80540 		strb	r4, [sp, #5]
 5936              		.loc 1 4158 0
 5937 0ab6 FFF7FEFF 		bl	bmi160_set_regs
 5938              	.LVL773:
 5939 0aba FFF7BBBA 		b	.L488
 5940              	.LVL774:
 5941              	.L499:
 5942              	.LBE1074:
 5943              	.LBE1073:
 5944              	.LBE1063:
 5945              	.LBE1062:
 5946              	.LBE1052:
 5947              	.LBE1049:
 5948              	.LBE1048:
 5949              	.LBB1105:
 5950              	.LBB1106:
 5951              	.LBB1107:
 5952              	.LBB1108:
 5953              		.loc 1 3071 0
 5954 0abe 0029     		cmp	r1, #0
 5955 0ac0 00F07381 		beq	.L667
 5956 0ac4 CE69     		ldr	r6, [r1, #28]
 5957 0ac6 002E     		cmp	r6, #0
 5958 0ac8 00F05B81 		beq	.L668
 5959 0acc 0B6A     		ldr	r3, [r1, #32]
 5960 0ace 002B     		cmp	r3, #0
 5961 0ad0 00F05381 		beq	.L669
 5962 0ad4 4B6A     		ldr	r3, [r1, #36]
 5963 0ad6 002B     		cmp	r3, #0
 5964 0ad8 00F06381 		beq	.L670
 5965              	.LVL775:
 5966              	.LBE1108:
 5967              	.LBE1107:
 5968              	.LBB1109:
 5969              	.LBB1110:
 5970              		.loc 1 4000 0
 5971 0adc 02AF     		add	r7, sp, #8
 5972              	.LBB1111:
 5973              	.LBB1112:
 5974              		.loc 1 1382 0
 5975 0ade 8B78     		ldrb	r3, [r1, #2]	@ zero_extendqisi2
 5976              		.loc 1 1386 0
 5977 0ae0 6078     		ldrb	r0, [r4, #1]	@ zero_extendqisi2
 5978              	.LVL776:
 5979              	.LBE1112:
 5980              	.LBE1111:
 5981              		.loc 1 4000 0
 5982 0ae2 0022     		movs	r2, #0
 5983 0ae4 07F8042D 		strb	r2, [r7, #-4]!
 5984              	.LVL777:
 5985              	.LBB1115:
ARM GAS  /tmp/cc4hEOZR.s 			page 106


 5986              	.LBB1113:
 5987              		.loc 1 1382 0
 5988 0ae8 012B     		cmp	r3, #1
 5989              	.LVL778:
 5990              		.loc 1 1386 0
 5991 0aea 0CBF     		ite	eq
 5992 0aec D121     		moveq	r1, #209
 5993              	.LVL779:
 5994 0aee 5121     		movne	r1, #81
 5995 0af0 3A46     		mov	r2, r7
 5996 0af2 0123     		movs	r3, #1
 5997 0af4 B047     		blx	r6
 5998              	.LVL780:
 5999              		.loc 1 1388 0
 6000 0af6 0028     		cmp	r0, #0
 6001 0af8 40F0BD80 		bne	.L717
 6002              	.LVL781:
 6003              	.LBE1113:
 6004              	.LBE1115:
 6005              		.loc 1 4007 0
 6006 0afc 9DF80460 		ldrb	r6, [sp, #4]	@ zero_extendqisi2
 6007 0b00 26F01006 		bic	r6, r6, #16
 6008              		.loc 1 4008 0
 6009 0b04 46F01006 		orr	r6, r6, #16
 6010              		.loc 1 4011 0
 6011 0b08 3946     		mov	r1, r7
 6012 0b0a 2346     		mov	r3, r4
 6013 0b0c 0122     		movs	r2, #1
 6014 0b0e 5120     		movs	r0, #81
 6015              		.loc 1 4008 0
 6016 0b10 8DF80460 		strb	r6, [sp, #4]
 6017              	.LVL782:
 6018              		.loc 1 4011 0
 6019 0b14 FFF7FEFF 		bl	bmi160_set_regs
 6020              	.LVL783:
 6021              	.LBE1110:
 6022              	.LBE1109:
 6023              		.loc 1 2758 0
 6024 0b18 0028     		cmp	r0, #0
 6025 0b1a 7FF48BAA 		bne	.L488
 6026              		.loc 1 2761 0
 6027 0b1e 2146     		mov	r1, r4
 6028 0b20 2846     		mov	r0, r5
 6029 0b22 FFF7FEFF 		bl	set_intr_pin_config
 6030              	.LVL784:
 6031              		.loc 1 2762 0
 6032 0b26 0028     		cmp	r0, #0
 6033 0b28 7FF484AA 		bne	.L488
 6034              		.loc 1 2764 0
 6035 0b2c 2246     		mov	r2, r4
 6036 0b2e 691C     		adds	r1, r5, #1
 6037 0b30 2846     		mov	r0, r5
 6038              	.LVL785:
 6039 0b32 FFF7FEFF 		bl	map_hardware_interrupt.isra.23
 6040              	.LVL786:
 6041 0b36 FFF77DBA 		b	.L488
 6042              	.LVL787:
ARM GAS  /tmp/cc4hEOZR.s 			page 107


 6043              	.L500:
 6044              	.LBE1106:
 6045              	.LBE1105:
 6046              	.LBB1120:
 6047              	.LBB1121:
 6048              		.loc 1 5286 0
 6049 0b3a 0029     		cmp	r1, #0
 6050 0b3c 00F03981 		beq	.L672
 6051 0b40 4B6A     		ldr	r3, [r1, #36]
 6052 0b42 002B     		cmp	r3, #0
 6053 0b44 00F0D180 		beq	.L673
 6054              	.LVL788:
 6055              	.LBB1122:
 6056              	.LBB1123:
 6057              	.LBB1124:
 6058              	.LBB1125:
 6059              		.loc 1 1375 0
 6060 0b48 CE69     		ldr	r6, [r1, #28]
 6061              	.LBE1125:
 6062              	.LBE1124:
 6063              		.loc 1 5314 0
 6064 0b4a 0023     		movs	r3, #0
 6065 0b4c 8DF80430 		strb	r3, [sp, #4]
 6066              	.LVL789:
 6067              	.LBB1128:
 6068              	.LBB1126:
 6069              		.loc 1 1377 0
 6070 0b50 4FF0FF30 		mov	r0, #-1
 6071              	.LVL790:
 6072              		.loc 1 1375 0
 6073 0b54 002E     		cmp	r6, #0
 6074 0b56 3FF46DAA 		beq	.L488
 6075              		.loc 1 1382 0
 6076 0b5a 8B78     		ldrb	r3, [r1, #2]	@ zero_extendqisi2
 6077              		.loc 1 1386 0
 6078 0b5c 4878     		ldrb	r0, [r1, #1]	@ zero_extendqisi2
 6079              		.loc 1 1382 0
 6080 0b5e 012B     		cmp	r3, #1
 6081              	.LVL791:
 6082              		.loc 1 1386 0
 6083 0b60 0CBF     		ite	eq
 6084 0b62 D121     		moveq	r1, #209
 6085              	.LVL792:
 6086 0b64 5121     		movne	r1, #81
 6087 0b66 01AA     		add	r2, sp, #4
 6088              	.LVL793:
 6089 0b68 0123     		movs	r3, #1
 6090 0b6a B047     		blx	r6
 6091              	.LVL794:
 6092              		.loc 1 1388 0
 6093 0b6c 0028     		cmp	r0, #0
 6094 0b6e 40F08E80 		bne	.L718
 6095              	.LVL795:
 6096              	.LBE1126:
 6097              	.LBE1128:
 6098              		.loc 1 5319 0
 6099 0b72 9DF80460 		ldrb	r6, [sp, #4]	@ zero_extendqisi2
ARM GAS  /tmp/cc4hEOZR.s 			page 108


 6100 0b76 2B7A     		ldrb	r3, [r5, #8]	@ zero_extendqisi2
 6101 0b78 26F02006 		bic	r6, r6, #32
 6102 0b7c 03F00103 		and	r3, r3, #1
 6103 0b80 46EA4316 		orr	r6, r6, r3, lsl #5
 6104              		.loc 1 5322 0
 6105 0b84 01A9     		add	r1, sp, #4
 6106 0b86 2346     		mov	r3, r4
 6107 0b88 0122     		movs	r2, #1
 6108 0b8a 5120     		movs	r0, #81
 6109              		.loc 1 5319 0
 6110 0b8c 8DF80460 		strb	r6, [sp, #4]
 6111              		.loc 1 5322 0
 6112 0b90 FFF7FEFF 		bl	bmi160_set_regs
 6113              	.LVL796:
 6114              	.LBE1123:
 6115              	.LBE1122:
 6116              		.loc 1 5294 0
 6117 0b94 0028     		cmp	r0, #0
 6118 0b96 7FF44DAA 		bne	.L488
 6119              		.loc 1 5297 0
 6120 0b9a 2146     		mov	r1, r4
 6121 0b9c 2846     		mov	r0, r5
 6122 0b9e FFF7FEFF 		bl	set_intr_pin_config
 6123              	.LVL797:
 6124              		.loc 1 5298 0
 6125 0ba2 0028     		cmp	r0, #0
 6126 0ba4 7FF446AA 		bne	.L488
 6127              		.loc 1 5300 0
 6128 0ba8 2246     		mov	r2, r4
 6129 0baa 691C     		adds	r1, r5, #1
 6130 0bac 2846     		mov	r0, r5
 6131              	.LVL798:
 6132 0bae FFF7FEFF 		bl	map_hardware_interrupt.isra.23
 6133              	.LVL799:
 6134 0bb2 FFF73FBA 		b	.L488
 6135              	.LVL800:
 6136              	.L501:
 6137              	.LBE1121:
 6138              	.LBE1120:
 6139              	.LBB1133:
 6140              	.LBB1134:
 6141              		.loc 1 5337 0
 6142 0bb6 0029     		cmp	r1, #0
 6143 0bb8 00F0DB80 		beq	.L675
 6144 0bbc 4B6A     		ldr	r3, [r1, #36]
 6145 0bbe 002B     		cmp	r3, #0
 6146 0bc0 00F08F80 		beq	.L676
 6147              	.LVL801:
 6148              	.LBB1135:
 6149              	.LBB1136:
 6150              	.LBB1137:
 6151              	.LBB1138:
 6152              		.loc 1 1375 0
 6153 0bc4 CE69     		ldr	r6, [r1, #28]
 6154              	.LBE1138:
 6155              	.LBE1137:
 6156              		.loc 1 5365 0
ARM GAS  /tmp/cc4hEOZR.s 			page 109


 6157 0bc6 0023     		movs	r3, #0
 6158 0bc8 8DF80430 		strb	r3, [sp, #4]
 6159              	.LVL802:
 6160              	.LBB1141:
 6161              	.LBB1139:
 6162              		.loc 1 1377 0
 6163 0bcc 4FF0FF30 		mov	r0, #-1
 6164              	.LVL803:
 6165              		.loc 1 1375 0
 6166 0bd0 002E     		cmp	r6, #0
 6167 0bd2 3FF42FAA 		beq	.L488
 6168              		.loc 1 1382 0
 6169 0bd6 8B78     		ldrb	r3, [r1, #2]	@ zero_extendqisi2
 6170              		.loc 1 1386 0
 6171 0bd8 4878     		ldrb	r0, [r1, #1]	@ zero_extendqisi2
 6172              		.loc 1 1382 0
 6173 0bda 012B     		cmp	r3, #1
 6174              	.LVL804:
 6175              		.loc 1 1386 0
 6176 0bdc 0CBF     		ite	eq
 6177 0bde D121     		moveq	r1, #209
 6178              	.LVL805:
 6179 0be0 5121     		movne	r1, #81
 6180 0be2 01AA     		add	r2, sp, #4
 6181              	.LVL806:
 6182 0be4 0123     		movs	r3, #1
 6183 0be6 B047     		blx	r6
 6184              	.LVL807:
 6185              		.loc 1 1388 0
 6186 0be8 0028     		cmp	r0, #0
 6187 0bea 60D1     		bne	.L719
 6188              	.LVL808:
 6189              	.LBE1139:
 6190              	.LBE1141:
 6191              		.loc 1 5370 0
 6192 0bec 9DF80460 		ldrb	r6, [sp, #4]	@ zero_extendqisi2
 6193 0bf0 2B7A     		ldrb	r3, [r5, #8]	@ zero_extendqisi2
 6194 0bf2 26F04006 		bic	r6, r6, #64
 6195 0bf6 C3F34003 		ubfx	r3, r3, #1, #1
 6196 0bfa 46EA8316 		orr	r6, r6, r3, lsl #6
 6197              		.loc 1 5373 0
 6198 0bfe 01A9     		add	r1, sp, #4
 6199 0c00 2346     		mov	r3, r4
 6200 0c02 0122     		movs	r2, #1
 6201 0c04 5120     		movs	r0, #81
 6202              		.loc 1 5370 0
 6203 0c06 8DF80460 		strb	r6, [sp, #4]
 6204              		.loc 1 5373 0
 6205 0c0a FFF7FEFF 		bl	bmi160_set_regs
 6206              	.LVL809:
 6207              	.LBE1136:
 6208              	.LBE1135:
 6209              		.loc 1 5345 0
 6210 0c0e 0028     		cmp	r0, #0
 6211 0c10 7FF410AA 		bne	.L488
 6212              		.loc 1 5348 0
 6213 0c14 2146     		mov	r1, r4
ARM GAS  /tmp/cc4hEOZR.s 			page 110


 6214 0c16 2846     		mov	r0, r5
 6215 0c18 FFF7FEFF 		bl	set_intr_pin_config
 6216              	.LVL810:
 6217              		.loc 1 5349 0
 6218 0c1c 0028     		cmp	r0, #0
 6219 0c1e 7FF409AA 		bne	.L488
 6220              		.loc 1 5351 0
 6221 0c22 2246     		mov	r2, r4
 6222 0c24 691C     		adds	r1, r5, #1
 6223 0c26 2846     		mov	r0, r5
 6224              	.LVL811:
 6225 0c28 FFF7FEFF 		bl	map_hardware_interrupt.isra.23
 6226              	.LVL812:
 6227 0c2c FFF702BA 		b	.L488
 6228              	.LVL813:
 6229              	.L695:
 6230              	.LBE1134:
 6231              	.LBE1133:
 6232              	.LBB1146:
 6233              	.LBB746:
 6234              	.LBB742:
 6235              	.LBB737:
 6236              	.LBB698:
 6237              		.loc 1 3759 0
 6238 0c30 C2F34001 		ubfx	r1, r2, #1, #1
 6239              	.LVL814:
 6240 0c34 03F0FC03 		and	r3, r3, #252
 6241              	.LVL815:
 6242              		.loc 1 3760 0
 6243 0c38 0B43     		orrs	r3, r3, r1
 6244              		.loc 1 3763 0
 6245 0c3a C2F38001 		ubfx	r1, r2, #2, #1
 6246              	.LVL816:
 6247 0c3e 43EA4103 		orr	r3, r3, r1, lsl #1
 6248              	.LVL817:
 6249              		.loc 1 3764 0
 6250 0c42 23F00403 		bic	r3, r3, #4
 6251              	.LVL818:
 6252              		.loc 1 3767 0
 6253 0c46 C2F3C002 		ubfx	r2, r2, #3, #1
 6254              	.LVL819:
 6255 0c4a 43EA8203 		orr	r3, r3, r2, lsl #2
 6256              		.loc 1 3770 0
 6257 0c4e E070     		strb	r0, [r4, #3]
 6258              		.loc 1 3767 0
 6259 0c50 8DF80430 		strb	r3, [sp, #4]
 6260              	.LVL820:
 6261 0c54 FFF71BBA 		b	.L506
 6262              	.LVL821:
 6263              	.L697:
 6264              	.LBE698:
 6265              	.LBE737:
 6266              	.LBB738:
 6267              	.LBB734:
 6268              	.LBB730:
 6269              	.LBB710:
 6270              		.loc 1 3803 0
ARM GAS  /tmp/cc4hEOZR.s 			page 111


 6271 0c58 23F00207 		bic	r7, r3, #2
 6272              		.loc 1 3807 0
 6273 0c5c 0122     		movs	r2, #1
 6274 0c5e 2346     		mov	r3, r4
 6275              	.LVL822:
 6276 0c60 3146     		mov	r1, r6
 6277 0c62 6220     		movs	r0, #98
 6278              		.loc 1 3804 0
 6279 0c64 8DF80470 		strb	r7, [sp, #4]
 6280              	.LVL823:
 6281              		.loc 1 3807 0
 6282 0c68 FFF7FEFF 		bl	bmi160_set_regs
 6283              	.LVL824:
 6284              	.LBE710:
 6285              	.LBE730:
 6286              		.loc 1 3977 0
 6287 0c6c 0028     		cmp	r0, #0
 6288 0c6e 7FF4E1A9 		bne	.L488
 6289 0c72 FFF732BA 		b	.L511
 6290              	.LVL825:
 6291              	.L717:
 6292              	.LBE734:
 6293              	.LBE738:
 6294              	.LBE742:
 6295              	.LBE746:
 6296              	.LBE1146:
 6297              	.LBB1147:
 6298              	.LBB1119:
 6299              	.LBB1118:
 6300              	.LBB1117:
 6301              	.LBB1116:
 6302              	.LBB1114:
 6303              		.loc 1 1390 0
 6304 0c76 6FF00100 		mvn	r0, #1
 6305 0c7a FFF7DBB9 		b	.L488
 6306              	.LVL826:
 6307              	.L713:
 6308              	.LBE1114:
 6309              	.LBE1116:
 6310              	.LBE1117:
 6311              	.LBE1118:
 6312              	.LBE1119:
 6313              	.LBE1147:
 6314              	.LBB1148:
 6315              	.LBB1045:
 6316              	.LBB1042:
 6317              	.LBB1038:
 6318              	.LBB1016:
 6319              	.LBB1015:
 6320              	.LBB1013:
 6321 0c7e 6FF00100 		mvn	r0, #1
 6322 0c82 FFF7D7B9 		b	.L488
 6323              	.LVL827:
 6324              	.L710:
 6325              	.LBE1013:
 6326              	.LBE1015:
 6327              	.LBE1016:
ARM GAS  /tmp/cc4hEOZR.s 			page 112


 6328              	.LBE1038:
 6329              	.LBE1042:
 6330              	.LBE1045:
 6331              	.LBE1148:
 6332              	.LBB1149:
 6333              	.LBB953:
 6334              	.LBB950:
 6335              	.LBB947:
 6336              	.LBB934:
 6337              	.LBB933:
 6338              	.LBB931:
 6339 0c86 6FF00100 		mvn	r0, #1
 6340 0c8a FFF7D3B9 		b	.L488
 6341              	.LVL828:
 6342              	.L718:
 6343              	.LBE931:
 6344              	.LBE933:
 6345              	.LBE934:
 6346              	.LBE947:
 6347              	.LBE950:
 6348              	.LBE953:
 6349              	.LBE1149:
 6350              	.LBB1150:
 6351              	.LBB1132:
 6352              	.LBB1131:
 6353              	.LBB1130:
 6354              	.LBB1129:
 6355              	.LBB1127:
 6356 0c8e 6FF00100 		mvn	r0, #1
 6357 0c92 FFF7CFB9 		b	.L488
 6358              	.LVL829:
 6359              	.L711:
 6360              	.LBE1127:
 6361              	.LBE1129:
 6362              	.LBE1130:
 6363              	.LBE1131:
 6364              	.LBE1132:
 6365              	.LBE1150:
 6366              	.LBB1151:
 6367              	.LBB999:
 6368              	.LBB995:
 6369              	.LBB991:
 6370              	.LBB969:
 6371              	.LBB968:
 6372              	.LBB966:
 6373 0c96 6FF00100 		mvn	r0, #1
 6374 0c9a FFF7CBB9 		b	.L488
 6375              	.LVL830:
 6376              	.L701:
 6377              	.LBE966:
 6378              	.LBE968:
 6379              	.LBE969:
 6380              	.LBE991:
 6381              	.LBE995:
 6382              	.LBE999:
 6383              	.LBE1151:
 6384              	.LBB1152:
ARM GAS  /tmp/cc4hEOZR.s 			page 113


 6385              	.LBB830:
 6386              	.LBB827:
 6387              	.LBB824:
 6388              	.LBB817:
 6389              	.LBB816:
 6390              	.LBB814:
 6391 0c9e 6FF00100 		mvn	r0, #1
 6392 0ca2 FFF7C7B9 		b	.L488
 6393              	.LVL831:
 6394              	.L709:
 6395              	.LBE814:
 6396              	.LBE816:
 6397              	.LBE817:
 6398              	.LBE824:
 6399              	.LBE827:
 6400              	.LBE830:
 6401              	.LBE1152:
 6402              	.LBB1153:
 6403              	.LBB918:
 6404              	.LBB915:
 6405              	.LBB912:
 6406              	.LBB899:
 6407              	.LBB898:
 6408              	.LBB896:
 6409 0ca6 6FF00100 		mvn	r0, #1
 6410 0caa FFF7C3B9 		b	.L488
 6411              	.LVL832:
 6412              	.L719:
 6413              	.LBE896:
 6414              	.LBE898:
 6415              	.LBE899:
 6416              	.LBE912:
 6417              	.LBE915:
 6418              	.LBE918:
 6419              	.LBE1153:
 6420              	.LBB1154:
 6421              	.LBB1145:
 6422              	.LBB1144:
 6423              	.LBB1143:
 6424              	.LBB1142:
 6425              	.LBB1140:
 6426 0cae 6FF00100 		mvn	r0, #1
 6427 0cb2 FFF7BFB9 		b	.L488
 6428              	.LVL833:
 6429              	.L702:
 6430              	.LBE1140:
 6431              	.LBE1142:
 6432              	.LBE1143:
 6433              	.LBE1144:
 6434              	.LBE1145:
 6435              	.LBE1154:
 6436              	.LBB1155:
 6437              	.LBB831:
 6438              	.LBB828:
 6439              	.LBB825:
 6440              	.LBB822:
 6441              		.loc 1 4337 0
ARM GAS  /tmp/cc4hEOZR.s 			page 114


 6442 0cb6 40F21533 		movw	r3, #789
 6443 0cba ADF80430 		strh	r3, [sp, #4]	@ movhi
 6444 0cbe FFF75ABB 		b	.L554
 6445              	.LVL834:
 6446              	.L715:
 6447              	.LBE822:
 6448              	.LBE825:
 6449              	.LBE828:
 6450              	.LBE831:
 6451              	.LBE1155:
 6452              	.LBB1156:
 6453              	.LBB1101:
 6454              	.LBB1097:
 6455              	.LBB1093:
 6456              	.LBB1061:
 6457              	.LBB1060:
 6458              	.LBB1058:
 6459              		.loc 1 1390 0
 6460 0cc2 6FF00100 		mvn	r0, #1
 6461 0cc6 FFF7B5B9 		b	.L488
 6462              	.LVL835:
 6463              	.L699:
 6464              	.LBE1058:
 6465              	.LBE1060:
 6466              	.LBE1061:
 6467              	.LBE1093:
 6468              	.LBE1097:
 6469              	.LBE1101:
 6470              	.LBE1156:
 6471              	.LBB1157:
 6472              	.LBB800:
 6473              	.LBB796:
 6474              	.LBB792:
 6475              	.LBB764:
 6476              	.LBB763:
 6477              	.LBB761:
 6478 0cca 6FF00100 		mvn	r0, #1
 6479 0cce FFF7B1B9 		b	.L488
 6480              	.LVL836:
 6481              	.L694:
 6482              	.LBE761:
 6483              	.LBE763:
 6484              	.LBE764:
 6485              	.LBE792:
 6486              	.LBE796:
 6487              	.LBE800:
 6488              	.LBE1157:
 6489              	.LBB1158:
 6490              	.LBB747:
 6491              	.LBB743:
 6492              	.LBB739:
 6493              	.LBB699:
 6494              	.LBB697:
 6495              	.LBB695:
 6496 0cd2 6FF00100 		mvn	r0, #1
 6497 0cd6 FFF7ADB9 		b	.L488
 6498              	.LVL837:
ARM GAS  /tmp/cc4hEOZR.s 			page 115


 6499              	.L706:
 6500              	.LBE695:
 6501              	.LBE697:
 6502              	.LBE699:
 6503              	.LBE739:
 6504              	.LBE743:
 6505              	.LBE747:
 6506              	.LBE1158:
 6507              	.LBB1159:
 6508              	.LBB883:
 6509              	.LBB880:
 6510              	.LBB877:
 6511              	.LBB846:
 6512              	.LBB845:
 6513              	.LBB843:
 6514 0cda 6FF00100 		mvn	r0, #1
 6515 0cde FFF7A9B9 		b	.L488
 6516              	.LVL838:
 6517              	.L676:
 6518              	.LBE843:
 6519              	.LBE845:
 6520              	.LBE846:
 6521              	.LBE877:
 6522              	.LBE880:
 6523              	.LBE883:
 6524              	.LBE1159:
 6525              	.LBB1160:
 6526              	.LBB748:
 6527              		.loc 1 2692 0
 6528 0ce2 4FF0FF30 		mov	r0, #-1
 6529              	.LVL839:
 6530 0ce6 FFF7A5B9 		b	.L488
 6531              	.LVL840:
 6532              	.L673:
 6533 0cea 4FF0FF30 		mov	r0, #-1
 6534              	.LVL841:
 6535 0cee FFF7A1B9 		b	.L488
 6536              	.LVL842:
 6537              	.L661:
 6538 0cf2 4FF0FF30 		mov	r0, #-1
 6539              	.LVL843:
 6540 0cf6 FFF79DB9 		b	.L488
 6541              	.LVL844:
 6542              	.L660:
 6543 0cfa 4FF0FF30 		mov	r0, #-1
 6544              	.LVL845:
 6545 0cfe FFF799B9 		b	.L488
 6546              	.LVL846:
 6547              	.L659:
 6548 0d02 4FF0FF30 		mov	r0, #-1
 6549              	.LVL847:
 6550 0d06 FFF795B9 		b	.L488
 6551              	.LVL848:
 6552              	.L630:
 6553 0d0a 4FF0FF30 		mov	r0, #-1
 6554              	.LVL849:
 6555 0d0e FFF791B9 		b	.L488
ARM GAS  /tmp/cc4hEOZR.s 			page 116


 6556              	.LVL850:
 6557              	.L636:
 6558 0d12 4FF0FF30 		mov	r0, #-1
 6559              	.LVL851:
 6560 0d16 FFF78DB9 		b	.L488
 6561              	.LVL852:
 6562              	.L635:
 6563 0d1a 4FF0FF30 		mov	r0, #-1
 6564              	.LVL853:
 6565 0d1e FFF789B9 		b	.L488
 6566              	.LVL854:
 6567              	.L634:
 6568 0d22 4FF0FF30 		mov	r0, #-1
 6569              	.LVL855:
 6570 0d26 FFF785B9 		b	.L488
 6571              	.LVL856:
 6572              	.L633:
 6573 0d2a 4FF0FF30 		mov	r0, #-1
 6574              	.LVL857:
 6575 0d2e FFF781B9 		b	.L488
 6576              	.LVL858:
 6577              	.L658:
 6578 0d32 4FF0FF30 		mov	r0, #-1
 6579              	.LVL859:
 6580 0d36 FFF77DB9 		b	.L488
 6581              	.LVL860:
 6582              	.L643:
 6583 0d3a 4FF0FF30 		mov	r0, #-1
 6584              	.LVL861:
 6585 0d3e FFF779B9 		b	.L488
 6586              	.LVL862:
 6587              	.L642:
 6588 0d42 4FF0FF30 		mov	r0, #-1
 6589              	.LVL863:
 6590 0d46 FFF775B9 		b	.L488
 6591              	.LVL864:
 6592              	.L618:
 6593 0d4a 4FF0FF30 		mov	r0, #-1
 6594              	.LVL865:
 6595 0d4e FFF771B9 		b	.L488
 6596              	.LVL866:
 6597              	.L610:
 6598 0d52 4FF0FF30 		mov	r0, #-1
 6599              	.LVL867:
 6600 0d56 FFF76DB9 		b	.L488
 6601              	.LVL868:
 6602              	.L620:
 6603 0d5a 4FF0FF30 		mov	r0, #-1
 6604              	.LVL869:
 6605 0d5e FFF769B9 		b	.L488
 6606              	.LVL870:
 6607              	.L619:
 6608 0d62 4FF0FF30 		mov	r0, #-1
 6609              	.LVL871:
 6610 0d66 FFF765B9 		b	.L488
 6611              	.LVL872:
 6612              	.L601:
ARM GAS  /tmp/cc4hEOZR.s 			page 117


 6613 0d6a 4FF0FF30 		mov	r0, #-1
 6614              	.LVL873:
 6615 0d6e FFF761B9 		b	.L488
 6616              	.LVL874:
 6617              	.L675:
 6618 0d72 4FF0FF30 		mov	r0, #-1
 6619              	.LVL875:
 6620 0d76 FFF75DB9 		b	.L488
 6621              	.LVL876:
 6622              	.L669:
 6623 0d7a 4FF0FF30 		mov	r0, #-1
 6624              	.LVL877:
 6625 0d7e FFF759B9 		b	.L488
 6626              	.LVL878:
 6627              	.L668:
 6628 0d82 4FF0FF30 		mov	r0, #-1
 6629              	.LVL879:
 6630 0d86 FFF755B9 		b	.L488
 6631              	.LVL880:
 6632              	.L592:
 6633 0d8a 4FF0FF30 		mov	r0, #-1
 6634              	.LVL881:
 6635 0d8e FFF751B9 		b	.L488
 6636              	.LVL882:
 6637              	.L591:
 6638 0d92 4FF0FF30 		mov	r0, #-1
 6639              	.LVL883:
 6640 0d96 FFF74DB9 		b	.L488
 6641              	.LVL884:
 6642              	.L621:
 6643 0d9a 4FF0FF30 		mov	r0, #-1
 6644              	.LVL885:
 6645 0d9e FFF749B9 		b	.L488
 6646              	.LVL886:
 6647              	.L670:
 6648 0da2 4FF0FF30 		mov	r0, #-1
 6649              	.LVL887:
 6650 0da6 FFF745B9 		b	.L488
 6651              	.LVL888:
 6652              	.L667:
 6653 0daa 4FF0FF30 		mov	r0, #-1
 6654              	.LVL889:
 6655 0dae FFF741B9 		b	.L488
 6656              	.LVL890:
 6657              	.L672:
 6658 0db2 4FF0FF30 		mov	r0, #-1
 6659              	.LVL891:
 6660 0db6 FFF73DB9 		b	.L488
 6661              	.LVL892:
 6662              	.L652:
 6663 0dba 4FF0FF30 		mov	r0, #-1
 6664              	.LVL893:
 6665 0dbe FFF739B9 		b	.L488
 6666              	.LVL894:
 6667              	.L644:
 6668 0dc2 4FF0FF30 		mov	r0, #-1
 6669              	.LVL895:
ARM GAS  /tmp/cc4hEOZR.s 			page 118


 6670 0dc6 FFF735B9 		b	.L488
 6671              	.LVL896:
 6672              	.L641:
 6673 0dca 4FF0FF30 		mov	r0, #-1
 6674              	.LVL897:
 6675 0dce FFF731B9 		b	.L488
 6676              	.LVL898:
 6677              	.L627:
 6678 0dd2 4FF0FF30 		mov	r0, #-1
 6679              	.LVL899:
 6680 0dd6 FFF72DB9 		b	.L488
 6681              	.LVL900:
 6682              	.L649:
 6683 0dda 4FF0FF30 		mov	r0, #-1
 6684              	.LVL901:
 6685 0dde FFF729B9 		b	.L488
 6686              	.LVL902:
 6687              	.L651:
 6688 0de2 4FF0FF30 		mov	r0, #-1
 6689              	.LVL903:
 6690 0de6 FFF725B9 		b	.L488
 6691              	.LVL904:
 6692              	.L650:
 6693 0dea 4FF0FF30 		mov	r0, #-1
 6694              	.LVL905:
 6695 0dee FFF721B9 		b	.L488
 6696              	.LVL906:
 6697              	.L612:
 6698 0df2 4FF0FF30 		mov	r0, #-1
 6699              	.LVL907:
 6700 0df6 FFF71DB9 		b	.L488
 6701              	.LVL908:
 6702              	.L611:
 6703 0dfa 4FF0FF30 		mov	r0, #-1
 6704              	.LVL909:
 6705 0dfe FFF719B9 		b	.L488
 6706              	.LVL910:
 6707              	.L594:
 6708 0e02 4FF0FF30 		mov	r0, #-1
 6709              	.LVL911:
 6710 0e06 FFF715B9 		b	.L488
 6711              	.LVL912:
 6712              	.L593:
 6713 0e0a 4FF0FF30 		mov	r0, #-1
 6714              	.LVL913:
 6715 0e0e FFF711B9 		b	.L488
 6716              	.LVL914:
 6717              	.L613:
 6718 0e12 4FF0FF30 		mov	r0, #-1
 6719              	.LVL915:
 6720 0e16 FFF70DB9 		b	.L488
 6721              	.LVL916:
 6722              	.L604:
 6723 0e1a 4FF0FF30 		mov	r0, #-1
 6724              	.LVL917:
 6725 0e1e FFF709B9 		b	.L488
 6726              	.LVL918:
ARM GAS  /tmp/cc4hEOZR.s 			page 119


 6727              	.L629:
 6728 0e22 4FF0FF30 		mov	r0, #-1
 6729              	.LVL919:
 6730 0e26 FFF705B9 		b	.L488
 6731              	.LVL920:
 6732              	.L628:
 6733 0e2a 4FF0FF30 		mov	r0, #-1
 6734              	.LVL921:
 6735 0e2e FFF701B9 		b	.L488
 6736              	.LVL922:
 6737              	.L603:
 6738 0e32 4FF0FF30 		mov	r0, #-1
 6739              	.LVL923:
 6740 0e36 FFF7FDB8 		b	.L488
 6741              	.LVL924:
 6742              	.L602:
 6743 0e3a 4FF0FF30 		mov	r0, #-1
 6744              	.LVL925:
 6745 0e3e FFF7F9B8 		b	.L488
 6746              	.LVL926:
 6747              	.L703:
 6748              	.LBE748:
 6749              	.LBE1160:
 6750              	.LBB1161:
 6751              	.LBB832:
 6752              	.LBB829:
 6753              	.LBB826:
 6754              	.LBB823:
 6755              		.loc 1 4343 0
 6756 0e42 2D23     		movs	r3, #45
 6757 0e44 8DF80430 		strb	r3, [sp, #4]
 6758 0e48 FFF795BA 		b	.L554
 6759              	.L704:
 6760              		.loc 1 4349 0
 6761 0e4c 40F21D73 		movw	r3, #1821
 6762 0e50 ADF80430 		strh	r3, [sp, #4]	@ movhi
 6763 0e54 FFF78FBA 		b	.L554
 6764              	.L705:
 6765              	.LVL927:
 6766              	.LBB820:
 6767              	.LBB821:
 6768              		.loc 1 1375 0
 6769 0e58 E769     		ldr	r7, [r4, #28]
 6770 0e5a 002F     		cmp	r7, #0
 6771 0e5c 3FF48BAA 		beq	.L554
 6772              		.loc 1 1382 0
 6773 0e60 A378     		ldrb	r3, [r4, #2]	@ zero_extendqisi2
 6774              		.loc 1 1386 0
 6775 0e62 6078     		ldrb	r0, [r4, #1]	@ zero_extendqisi2
 6776              	.LVL928:
 6777              		.loc 1 1382 0
 6778 0e64 012B     		cmp	r3, #1
 6779              	.LVL929:
 6780              		.loc 1 1386 0
 6781 0e66 0CBF     		ite	eq
 6782 0e68 FA21     		moveq	r1, #250
 6783 0e6a 7A21     		movne	r1, #122
ARM GAS  /tmp/cc4hEOZR.s 			page 120


 6784 0e6c 0223     		movs	r3, #2
 6785 0e6e 3246     		mov	r2, r6
 6786 0e70 B847     		blx	r7
 6787              	.LVL930:
 6788              		.loc 1 1388 0
 6789 0e72 0028     		cmp	r0, #0
 6790 0e74 7FF47FAA 		bne	.L554
 6791              	.LVL931:
 6792              	.LBE821:
 6793              	.LBE820:
 6794              		.loc 1 4362 0
 6795 0e78 2979     		ldrb	r1, [r5, #4]	@ zero_extendqisi2
 6796              		.loc 1 4359 0
 6797 0e7a 9DF80430 		ldrb	r3, [sp, #4]	@ zero_extendqisi2
 6798              		.loc 1 4370 0
 6799 0e7e 6879     		ldrb	r0, [r5, #5]	@ zero_extendqisi2
 6800              		.loc 1 4367 0
 6801 0e80 9DF80520 		ldrb	r2, [sp, #5]	@ zero_extendqisi2
 6802              		.loc 1 4362 0
 6803 0e84 C1F34105 		ubfx	r5, r1, #1, #2
 6804              	.LVL932:
 6805              		.loc 1 4359 0
 6806 0e88 23F01803 		bic	r3, r3, #24
 6807              		.loc 1 4362 0
 6808 0e8c 43EAC503 		orr	r3, r3, r5, lsl #3
 6809              	.LVL933:
 6810              		.loc 1 4370 0
 6811 0e90 C0F30200 		ubfx	r0, r0, #0, #3
 6812              		.loc 1 4367 0
 6813 0e94 22F00702 		bic	r2, r2, #7
 6814              		.loc 1 4366 0
 6815 0e98 C1F3C201 		ubfx	r1, r1, #3, #3
 6816              		.loc 1 4363 0
 6817 0e9c 23F00703 		bic	r3, r3, #7
 6818              	.LVL934:
 6819              		.loc 1 4370 0
 6820 0ea0 0243     		orrs	r2, r2, r0
 6821              		.loc 1 4366 0
 6822 0ea2 0B43     		orrs	r3, r3, r1
 6823              		.loc 1 4370 0
 6824 0ea4 8DF80520 		strb	r2, [sp, #5]
 6825              		.loc 1 4366 0
 6826 0ea8 8DF80430 		strb	r3, [sp, #4]
 6827              	.LVL935:
 6828 0eac FFF763BA 		b	.L554
 6829              	.LVL936:
 6830              	.L696:
 6831              	.LBE823:
 6832              	.LBE826:
 6833              	.LBE829:
 6834              	.LBE832:
 6835              	.LBE1161:
 6836              	.LBB1162:
 6837              	.LBB749:
 6838              	.LBB744:
 6839              	.LBB740:
 6840              	.LBB735:
ARM GAS  /tmp/cc4hEOZR.s 			page 121


 6841              	.LBB731:
 6842              	.LBB711:
 6843              	.LBB709:
 6844              	.LBB707:
 6845              		.loc 1 1390 0
 6846 0eb0 6FF00100 		mvn	r0, #1
 6847 0eb4 FFF7BEB8 		b	.L488
 6848              	.LVL937:
 6849              	.L708:
 6850              	.LBE707:
 6851              	.LBE709:
 6852              	.LBE711:
 6853              	.LBE731:
 6854              	.LBE735:
 6855              	.LBE740:
 6856              	.LBE744:
 6857              	.LBE749:
 6858              	.LBE1162:
 6859              	.LBB1163:
 6860              	.LBB884:
 6861              	.LBB881:
 6862              	.LBB878:
 6863              	.LBB875:
 6864              	.LBB871:
 6865              	.LBB868:
 6866              		.loc 1 4488 0
 6867 0eb8 AA88     		ldrh	r2, [r5, #4]
 6868              		.loc 1 4489 0
 6869 0eba 23F00703 		bic	r3, r3, #7
 6870              	.LVL938:
 6871              		.loc 1 4488 0
 6872 0ebe C2F3C212 		ubfx	r2, r2, #7, #3
 6873              		.loc 1 4493 0
 6874 0ec2 1343     		orrs	r3, r3, r2
 6875              	.LVL939:
 6876 0ec4 FFF7EFBA 		b	.L550
 6877              	.LVL940:
 6878              	.L640:
 6879              	.LBE868:
 6880              	.LBE871:
 6881              	.LBE875:
 6882              	.LBE878:
 6883              	.LBE881:
 6884              	.LBE884:
 6885              	.LBE1163:
 6886              	.LBB1164:
 6887              	.LBB919:
 6888              	.LBB916:
 6889              	.LBB913:
 6890              	.LBB910:
 6891              	.LBB908:
 6892              	.LBB905:
 6893              		.loc 1 1390 0
 6894 0ec8 6FF00100 		mvn	r0, #1
 6895              	.LVL941:
 6896 0ecc FFF7B2B8 		b	.L488
 6897              	.LVL942:
ARM GAS  /tmp/cc4hEOZR.s 			page 122


 6898              	.L700:
 6899              	.LBE905:
 6900              	.LBE908:
 6901              	.LBE910:
 6902              	.LBE913:
 6903              	.LBE916:
 6904              	.LBE919:
 6905              	.LBE1164:
 6906              	.LBB1165:
 6907              	.LBB801:
 6908              	.LBB797:
 6909              	.LBB793:
 6910              	.LBB789:
 6911              	.LBB786:
 6912              	.LBB775:
 6913              	.LBB774:
 6914              	.LBB772:
 6915 0ed0 6FF00100 		mvn	r0, #1
 6916 0ed4 FFF7AEB8 		b	.L488
 6917              	.LVL943:
 6918              	.L712:
 6919              	.LBE772:
 6920              	.LBE774:
 6921              	.LBE775:
 6922              	.LBE786:
 6923              	.LBE789:
 6924              	.LBE793:
 6925              	.LBE797:
 6926              	.LBE801:
 6927              	.LBE1165:
 6928              	.LBB1166:
 6929              	.LBB1000:
 6930              	.LBB996:
 6931              	.LBB992:
 6932              	.LBB978:
 6933              	.LBB977:
 6934              	.LBB975:
 6935 0ed8 6FF00100 		mvn	r0, #1
 6936 0edc FFF7AAB8 		b	.L488
 6937              	.LVL944:
 6938              	.L648:
 6939              	.LBE975:
 6940              	.LBE977:
 6941              	.LBE978:
 6942              	.LBE992:
 6943              	.LBE996:
 6944              	.LBE1000:
 6945              	.LBE1166:
 6946              	.LBB1167:
 6947              	.LBB954:
 6948              	.LBB951:
 6949              	.LBB948:
 6950              	.LBB945:
 6951              	.LBB943:
 6952              	.LBB940:
 6953 0ee0 6FF00100 		mvn	r0, #1
 6954              	.LVL945:
ARM GAS  /tmp/cc4hEOZR.s 			page 123


 6955 0ee4 FFF7A6B8 		b	.L488
 6956              	.LVL946:
 6957              	.L716:
 6958              	.LBE940:
 6959              	.LBE943:
 6960              	.LBE945:
 6961              	.LBE948:
 6962              	.LBE951:
 6963              	.LBE954:
 6964              	.LBE1167:
 6965              	.LBB1168:
 6966              	.LBB1102:
 6967              	.LBB1098:
 6968              	.LBB1094:
 6969              	.LBB1090:
 6970              	.LBB1087:
 6971              	.LBB1072:
 6972              	.LBB1071:
 6973              	.LBB1069:
 6974 0ee8 6FF00100 		mvn	r0, #1
 6975 0eec FFF7A2B8 		b	.L488
 6976              	.LVL947:
 6977              	.L714:
 6978              	.LBE1069:
 6979              	.LBE1071:
 6980              	.LBE1072:
 6981              	.LBE1087:
 6982              	.LBE1090:
 6983              	.LBE1094:
 6984              	.LBE1098:
 6985              	.LBE1102:
 6986              	.LBE1168:
 6987              	.LBB1169:
 6988              	.LBB1046:
 6989              	.LBB1043:
 6990              	.LBB1039:
 6991              	.LBB1025:
 6992              	.LBB1024:
 6993              	.LBB1022:
 6994 0ef0 6FF00100 		mvn	r0, #1
 6995 0ef4 FFF79EB8 		b	.L488
 6996              	.LVL948:
 6997              	.L655:
 6998              	.LBE1022:
 6999              	.LBE1024:
 7000              	.LBE1025:
 7001              	.LBE1039:
 7002              	.LBB1040:
 7003              	.LBB1036:
 7004              	.LBB1034:
 7005              	.LBB1031:
 7006              		.loc 1 1377 0
 7007 0ef8 4FF0FF30 		mov	r0, #-1
 7008 0efc FFF79AB8 		b	.L488
 7009              	.LVL949:
 7010              	.L646:
 7011              	.LBE1031:
ARM GAS  /tmp/cc4hEOZR.s 			page 124


 7012              	.LBE1034:
 7013              	.LBE1036:
 7014              	.LBE1040:
 7015              	.LBE1043:
 7016              	.LBE1046:
 7017              	.LBE1169:
 7018              	.LBB1170:
 7019              	.LBB955:
 7020              	.LBB952:
 7021              	.LBB949:
 7022              	.LBB946:
 7023              	.LBB944:
 7024              	.LBB941:
 7025 0f00 4FF0FF30 		mov	r0, #-1
 7026              	.LVL950:
 7027 0f04 FFF796B8 		b	.L488
 7028              	.LVL951:
 7029              	.L538:
 7030              	.LBE941:
 7031              	.LBE944:
 7032              	.LBE946:
 7033              	.LBE949:
 7034              	.LBE952:
 7035              	.LBE955:
 7036              	.LBE1170:
 7037              	.LBB1171:
 7038              	.LBB1103:
 7039              	.LBB1099:
 7040              	.LBB1095:
 7041              	.LBB1091:
 7042              	.LBB1088:
 7043              	.LBB1085:
 7044              	.LBB1083:
 7045              	.LBB1078:
 7046 0f08 4FF0FF30 		mov	r0, #-1
 7047 0f0c FFF792B8 		b	.L488
 7048              	.LVL952:
