ARM GAS  /tmp/ccZzxXw2.s 			page 1


   1              		.cpu cortex-m4
   2              		.eabi_attribute 27, 1
   3              		.eabi_attribute 28, 1
   4              		.eabi_attribute 20, 1
   5              		.eabi_attribute 21, 1
   6              		.eabi_attribute 23, 3
   7              		.eabi_attribute 24, 1
   8              		.eabi_attribute 25, 1
   9              		.eabi_attribute 26, 1
  10              		.eabi_attribute 30, 2
  11              		.eabi_attribute 34, 1
  12              		.eabi_attribute 18, 4
  13              		.file	"bms.c"
  14              		.text
  15              	.Ltext0:
  16              		.cfi_sections	.debug_frame
  17              		.section	.text.bms_init,"ax",%progbits
  18              		.align	1
  19              		.p2align 4,,15
  20              		.global	bms_init
  21              		.syntax unified
  22              		.thumb
  23              		.thumb_func
  24              		.fpu fpv4-sp-d16
  25              		.type	bms_init, %function
  26              	bms_init:
  27              	.LFB256:
  28              		.file 1 "bms.c"
  29              		.loc 1 47 0
  30              		.cfi_startproc
  31              		@ args = 0, pretend = 0, frame = 0
  32              		@ frame_needed = 0, uses_anonymous_args = 0
  33              	.LVL0:
  34 0000 2DE9F041 		push	{r4, r5, r6, r7, r8, lr}
  35              		.cfi_def_cfa_offset 24
  36              		.cfi_offset 4, -24
  37              		.cfi_offset 5, -20
  38              		.cfi_offset 6, -16
  39              		.cfi_offset 7, -12
  40              		.cfi_offset 8, -8
  41              		.cfi_offset 14, -4
  42              		.loc 1 48 0
  43 0004 0546     		mov	r5, r0
  44 0006 0FCD     		ldmia	r5!, {r0, r1, r2, r3}
  45              	.LVL1:
  46 0008 144C     		ldr	r4, .L4
  47              		.loc 1 50 0
  48 000a 154F     		ldr	r7, .L4+4
  49              		.loc 1 51 0
  50 000c 154E     		ldr	r6, .L4+8
  51              		.loc 1 53 0
  52 000e DFF85C80 		ldr	r8, .L4+16
  53              		.loc 1 48 0
  54 0012 0FC4     		stmia	r4!, {r0, r1, r2, r3}
  55 0014 95E80300 		ldm	r5, {r0, r1}
  56              		.loc 1 50 0
  57 0018 2025     		movs	r5, #32
ARM GAS  /tmp/ccZzxXw2.s 			page 2


  58              	.LVL2:
  59              		.loc 1 48 0
  60 001a 84E80300 		stm	r4, {r0, r1}
  61              		.loc 1 50 0
  62 001e 2A46     		mov	r2, r5
  63 0020 0021     		movs	r1, #0
  64              		.loc 1 52 0
  65 0022 114C     		ldr	r4, .L4+12
  66              		.loc 1 50 0
  67 0024 3846     		mov	r0, r7
  68 0026 FFF7FEFF 		bl	memset
  69              	.LVL3:
  70              		.loc 1 51 0
  71 002a 2A46     		mov	r2, r5
  72 002c 0021     		movs	r1, #0
  73 002e 3046     		mov	r0, r6
  74 0030 FFF7FEFF 		bl	memset
  75              	.LVL4:
  76              		.loc 1 52 0
  77 0034 2A46     		mov	r2, r5
  78 0036 0021     		movs	r1, #0
  79 0038 2046     		mov	r0, r4
  80 003a FFF7FEFF 		bl	memset
  81              	.LVL5:
  82              		.loc 1 53 0
  83 003e 4046     		mov	r0, r8
  84 0040 4FF48C72 		mov	r2, #280
  85 0044 0021     		movs	r1, #0
  86 0046 FFF7FEFF 		bl	memset
  87              	.LVL6:
  88              		.loc 1 54 0
  89 004a 4FF0FF33 		mov	r3, #-1
  90 004e C8F80031 		str	r3, [r8, #256]
  91              		.loc 1 55 0
  92 0052 3B60     		str	r3, [r7]
  93              		.loc 1 56 0
  94 0054 3360     		str	r3, [r6]
  95              		.loc 1 57 0
  96 0056 2360     		str	r3, [r4]
  97              		.loc 1 58 0
  98 0058 BDE8F081 		pop	{r4, r5, r6, r7, r8, pc}
  99              	.L5:
 100              		.align	2
 101              	.L4:
 102 005c 00000000 		.word	.LANCHOR0
 103 0060 00000000 		.word	.LANCHOR1
 104 0064 00000000 		.word	.LANCHOR2
 105 0068 00000000 		.word	.LANCHOR3
 106 006c 00000000 		.word	.LANCHOR4
 107              		.cfi_endproc
 108              	.LFE256:
 109              		.size	bms_init, .-bms_init
 110              		.section	.text.bms_process_can_frame,"ax",%progbits
 111              		.align	1
 112              		.p2align 4,,15
 113              		.global	bms_process_can_frame
 114              		.syntax unified
ARM GAS  /tmp/ccZzxXw2.s 			page 3


 115              		.thumb
 116              		.thumb_func
 117              		.fpu fpv4-sp-d16
 118              		.type	bms_process_can_frame, %function
 119              	bms_process_can_frame:
 120              	.LFB257:
 121              		.loc 1 60 0
 122              		.cfi_startproc
 123              		@ args = 0, pretend = 0, frame = 40
 124              		@ frame_needed = 0, uses_anonymous_args = 0
 125              	.LVL7:
 126 0000 2DE9F047 		push	{r4, r5, r6, r7, r8, r9, r10, lr}
 127              		.cfi_def_cfa_offset 32
 128              		.cfi_offset 4, -32
 129              		.cfi_offset 5, -28
 130              		.cfi_offset 6, -24
 131              		.cfi_offset 7, -20
 132              		.cfi_offset 8, -16
 133              		.cfi_offset 9, -12
 134              		.cfi_offset 10, -8
 135              		.cfi_offset 14, -4
 136              		.loc 1 63 0
 137 0004 CA4E     		ldr	r6, .L127
 138              		.loc 1 60 0
 139 0006 2DED028B 		vpush.64	{d8}
 140              		.cfi_def_cfa_offset 40
 141              		.cfi_offset 80, -40
 142              		.cfi_offset 81, -36
 143              		.loc 1 63 0
 144 000a 3478     		ldrb	r4, [r6]	@ zero_extendqisi2
 145              	.LVL8:
 146 000c 012C     		cmp	r4, #1
 147              		.loc 1 60 0
 148 000e 8AB0     		sub	sp, sp, #40
 149              		.cfi_def_cfa_offset 80
 150              		.loc 1 63 0
 151 0010 05D0     		beq	.L124
 152              	.LVL9:
 153              	.L71:
 154              		.loc 1 61 0
 155 0012 0020     		movs	r0, #0
 156              	.LVL10:
 157              	.L103:
 158              		.loc 1 302 0
 159 0014 0AB0     		add	sp, sp, #40
 160              		.cfi_remember_state
 161              		.cfi_def_cfa_offset 40
 162              		@ sp needed
 163 0016 BDEC028B 		vldm	sp!, {d8}
 164              		.cfi_restore 80
 165              		.cfi_restore 81
 166              		.cfi_def_cfa_offset 32
 167 001a BDE8F087 		pop	{r4, r5, r6, r7, r8, r9, r10, pc}
 168              	.LVL11:
 169              	.L124:
 170              		.cfi_restore_state
 171              		.loc 1 64 0
ARM GAS  /tmp/ccZzxXw2.s 			page 4


 172 001e 002B     		cmp	r3, #0
 173 0020 F7D0     		beq	.L71
 174 0022 1C46     		mov	r4, r3
 175              	.LBB144:
 176              		.loc 1 66 0
 177 0024 030A     		lsrs	r3, r0, #8
 178              	.LVL12:
 179              		.loc 1 68 0
 180 0026 A3F12609 		sub	r9, r3, #38
 181 002a B9F1070F 		cmp	r9, #7
 182 002e 9046     		mov	r8, r2
 183 0030 0F46     		mov	r7, r1
 184 0032 0546     		mov	r5, r0
 185              	.LVL13:
 186 0034 28D9     		bls	.L125
 187              	.LVL14:
 188              	.L10:
 189              		.loc 1 104 0 discriminator 1
 190 0036 B9F1100F 		cmp	r9, #16
 191 003a EAD8     		bhi	.L71
 192 003c 01A3     		adr	r3, .L14
 193 003e 53F829F0 		ldr	pc, [r3, r9, lsl #2]
 194 0042 00BF     		.p2align 2
 195              	.L14:
 196 0044 C5000000 		.word	.L13+1
 197 0048 2B010000 		.word	.L15+1
 198 004c 91010000 		.word	.L16+1
 199 0050 F5010000 		.word	.L17+1
 200 0054 7F020000 		.word	.L18+1
 201 0058 45030000 		.word	.L19+1
 202 005c D3030000 		.word	.L20+1
 203 0060 59040000 		.word	.L21+1
 204 0064 13000000 		.word	.L71+1
 205 0068 13000000 		.word	.L71+1
 206 006c 13000000 		.word	.L71+1
 207 0070 13000000 		.word	.L71+1
 208 0074 13000000 		.word	.L71+1
 209 0078 13000000 		.word	.L71+1
 210 007c 13000000 		.word	.L71+1
 211 0080 A9060000 		.word	.L22+1
 212 0084 0F070000 		.word	.L23+1
 213              	.LVL15:
 214              		.p2align 1
 215              	.L125:
 216              	.LBB145:
 217              		.loc 1 80 0
 218 0088 4FF0710C 		mov	ip, #113
 219              	.LBE145:
 220              		.loc 1 65 0
 221 008c 8DF80900 		strb	r0, [sp, #9]
 222              	.LBB146:
 223              		.loc 1 83 0
 224 0090 0DF10B00 		add	r0, sp, #11
 225              	.LVL16:
 226              		.loc 1 82 0
 227 0094 8DF80A30 		strb	r3, [sp, #10]
 228              		.loc 1 80 0
ARM GAS  /tmp/ccZzxXw2.s 			page 5


 229 0098 8DF808C0 		strb	ip, [sp, #8]
 230              	.LVL17:
 231              		.loc 1 83 0
 232 009c FFF7FEFF 		bl	memcpy
 233              	.LVL18:
 234              		.loc 1 86 0
 235 00a0 337D     		ldrb	r3, [r6, #20]	@ zero_extendqisi2
 236 00a2 DBB2     		uxtb	r3, r3
 237 00a4 012B     		cmp	r3, #1
 238              		.loc 1 83 0
 239 00a6 0DF1080A 		add	r10, sp, #8
 240              		.loc 1 84 0
 241 00aa 08F10301 		add	r1, r8, #3
 242              	.LVL19:
 243              		.loc 1 86 0
 244 00ae 05D0     		beq	.L11
 245 00b0 022B     		cmp	r3, #2
 246 00b2 C0D1     		bne	.L10
 247              		.loc 1 95 0
 248 00b4 5046     		mov	r0, r10
 249 00b6 FFF7FEFF 		bl	commands_send_packet
 250              	.LVL20:
 251              		.loc 1 96 0
 252 00ba BCE7     		b	.L10
 253              	.LVL21:
 254              	.L11:
 255              		.loc 1 91 0
 256 00bc 5046     		mov	r0, r10
 257 00be FFF7FEFF 		bl	comm_usb_send_packet
 258              	.LVL22:
 259              		.loc 1 92 0
 260 00c2 B8E7     		b	.L10
 261              	.LVL23:
 262              	.L13:
 263              	.LBE146:
 264              		.loc 1 161 0
 265 00c4 9B4E     		ldr	r6, .L127+4
 266 00c6 D6F80031 		ldr	r3, [r6, #256]
 267 00ca E8B2     		uxtb	r0, r5
 268 00cc 9842     		cmp	r0, r3
 269 00ce 9A4D     		ldr	r5, .L127+8
 270              	.LVL24:
 271 00d0 13D0     		beq	.L39
 272              		.loc 1 161 0 is_stmt 0 discriminator 1
 273 00d2 D6F81421 		ldr	r2, [r6, #276]
 274              	.LVL25:
 275              	.LBB147:
 276              	.LBB148:
 277              	.LBB149:
 278              	.LBB150:
 279              		.file 2 "ChibiOS_3.0.5/os/rt/include/chvt.h"
 280              		.loc 2 231 0 is_stmt 1 discriminator 1
 281 00d6 AB6A     		ldr	r3, [r5, #40]
 282              	.LVL26:
 283              	.LBE150:
 284              	.LBE149:
 285              	.LBE148:
ARM GAS  /tmp/ccZzxXw2.s 			page 6


 286              	.LBE147:
 287              		.loc 1 161 0 discriminator 1
 288 00d8 9FED986A 		vldr.32	s12, .L127+12
 289              	.LBB152:
 290              	.LBB151:
 291              		.loc 2 267 0 discriminator 1
 292 00dc 9B1A     		subs	r3, r3, r2
 293              	.LBE151:
 294              	.LBE152:
 295              		.loc 1 161 0 discriminator 1
 296 00de 07EE903A 		vmov	s15, r3	@ int
 297 00e2 F8EE677A 		vcvt.f32.u32	s15, s15
 298 00e6 B0EE007A 		vmov.f32	s14, #2.0e+0
 299 00ea C7EE866A 		vdiv.f32	s13, s15, s12
 300 00ee F4EEC76A 		vcmpe.f32	s13, s14
 301 00f2 F1EE10FA 		vmrs	APSR_nzcv, FPSCR
 302 00f6 40F3BC80 		ble	.L121
 303              	.L39:
 304              	.LBB153:
 305              		.loc 1 162 0
 306 00fa 0DF12808 		add	r8, sp, #40
 307              	.LVL27:
 308 00fe 0023     		movs	r3, #0
 309 0100 48F8203D 		str	r3, [r8, #-32]!
 310              		.loc 1 163 0
 311 0104 C6F80001 		str	r0, [r6, #256]
 312              	.LBB154:
 313              	.LBB155:
 314              		.loc 2 231 0
 315 0108 AB6A     		ldr	r3, [r5, #40]
 316              	.LBE155:
 317              	.LBE154:
 318              		.loc 1 164 0
 319 010a C6F81431 		str	r3, [r6, #276]
 320              		.loc 1 165 0
 321 010e 4146     		mov	r1, r8
 322 0110 3846     		mov	r0, r7
 323 0112 FFF7FEFF 		bl	buffer_get_float32_auto
 324              	.LVL28:
 325              		.loc 1 166 0
 326 0116 3846     		mov	r0, r7
 327 0118 4146     		mov	r1, r8
 328              		.loc 1 165 0
 329 011a 86ED000A 		vstr.32	s0, [r6]
 330              		.loc 1 166 0
 331 011e FFF7FEFF 		bl	buffer_get_float32_auto
 332              	.LVL29:
 333              	.LBE153:
 334              		.loc 1 159 0
 335 0122 2046     		mov	r0, r4
 336              	.LBB156:
 337              		.loc 1 166 0
 338 0124 86ED010A 		vstr.32	s0, [r6, #4]
 339 0128 74E7     		b	.L103
 340              	.LVL30:
 341              	.L15:
 342              	.LBE156:
ARM GAS  /tmp/ccZzxXw2.s 			page 7


 343              		.loc 1 173 0
 344 012a 824E     		ldr	r6, .L127+4
 345 012c D6F80031 		ldr	r3, [r6, #256]
 346 0130 E8B2     		uxtb	r0, r5
 347 0132 9842     		cmp	r0, r3
 348 0134 804D     		ldr	r5, .L127+8
 349              	.LVL31:
 350 0136 13D0     		beq	.L41
 351              		.loc 1 173 0 is_stmt 0 discriminator 1
 352 0138 D6F81421 		ldr	r2, [r6, #276]
 353              	.LVL32:
 354              	.LBB157:
 355              	.LBB158:
 356              	.LBB159:
 357              	.LBB160:
 358              		.loc 2 231 0 is_stmt 1 discriminator 1
 359 013c AB6A     		ldr	r3, [r5, #40]
 360              	.LVL33:
 361              	.LBE160:
 362              	.LBE159:
 363              	.LBE158:
 364              	.LBE157:
 365              		.loc 1 173 0 discriminator 1
 366 013e 9FED7F6A 		vldr.32	s12, .L127+12
 367              	.LBB162:
 368              	.LBB161:
 369              		.loc 2 267 0 discriminator 1
 370 0142 9B1A     		subs	r3, r3, r2
 371              	.LBE161:
 372              	.LBE162:
 373              		.loc 1 173 0 discriminator 1
 374 0144 07EE903A 		vmov	s15, r3	@ int
 375 0148 F8EE677A 		vcvt.f32.u32	s15, s15
 376 014c B0EE007A 		vmov.f32	s14, #2.0e+0
 377 0150 C7EE866A 		vdiv.f32	s13, s15, s12
 378 0154 F4EEC76A 		vcmpe.f32	s13, s14
 379 0158 F1EE10FA 		vmrs	APSR_nzcv, FPSCR
 380 015c 40F38980 		ble	.L121
 381              	.L41:
 382              	.LBB163:
 383              		.loc 1 174 0
 384 0160 0DF12808 		add	r8, sp, #40
 385              	.LVL34:
 386 0164 0023     		movs	r3, #0
 387 0166 48F8203D 		str	r3, [r8, #-32]!
 388              		.loc 1 175 0
 389 016a C6F80001 		str	r0, [r6, #256]
 390              	.LBB164:
 391              	.LBB165:
 392              		.loc 2 231 0
 393 016e AB6A     		ldr	r3, [r5, #40]
 394              	.LBE165:
 395              	.LBE164:
 396              		.loc 1 176 0
 397 0170 C6F81431 		str	r3, [r6, #276]
 398              		.loc 1 177 0
 399 0174 4146     		mov	r1, r8
ARM GAS  /tmp/ccZzxXw2.s 			page 8


 400 0176 3846     		mov	r0, r7
 401 0178 FFF7FEFF 		bl	buffer_get_float32_auto
 402              	.LVL35:
 403              		.loc 1 178 0
 404 017c 3846     		mov	r0, r7
 405 017e 4146     		mov	r1, r8
 406              		.loc 1 177 0
 407 0180 86ED020A 		vstr.32	s0, [r6, #8]
 408              		.loc 1 178 0
 409 0184 FFF7FEFF 		bl	buffer_get_float32_auto
 410              	.LVL36:
 411              	.LBE163:
 412              		.loc 1 171 0
 413 0188 2046     		mov	r0, r4
 414              	.LBB166:
 415              		.loc 1 178 0
 416 018a 86ED030A 		vstr.32	s0, [r6, #12]
 417 018e 41E7     		b	.L103
 418              	.LVL37:
 419              	.L16:
 420              	.LBE166:
 421              		.loc 1 185 0
 422 0190 684E     		ldr	r6, .L127+4
 423 0192 D6F80031 		ldr	r3, [r6, #256]
 424 0196 E8B2     		uxtb	r0, r5
 425 0198 9842     		cmp	r0, r3
 426 019a 674D     		ldr	r5, .L127+8
 427              	.LVL38:
 428 019c 12D0     		beq	.L43
 429              		.loc 1 185 0 is_stmt 0 discriminator 1
 430 019e D6F81421 		ldr	r2, [r6, #276]
 431              	.LVL39:
 432              	.LBB167:
 433              	.LBB168:
 434              	.LBB169:
 435              	.LBB170:
 436              		.loc 2 231 0 is_stmt 1 discriminator 1
 437 01a2 AB6A     		ldr	r3, [r5, #40]
 438              	.LVL40:
 439              	.LBE170:
 440              	.LBE169:
 441              	.LBE168:
 442              	.LBE167:
 443              		.loc 1 185 0 discriminator 1
 444 01a4 9FED656A 		vldr.32	s12, .L127+12
 445              	.LBB172:
 446              	.LBB171:
 447              		.loc 2 267 0 discriminator 1
 448 01a8 9B1A     		subs	r3, r3, r2
 449              	.LBE171:
 450              	.LBE172:
 451              		.loc 1 185 0 discriminator 1
 452 01aa 07EE903A 		vmov	s15, r3	@ int
 453 01ae F8EE677A 		vcvt.f32.u32	s15, s15
 454 01b2 B0EE007A 		vmov.f32	s14, #2.0e+0
 455 01b6 C7EE866A 		vdiv.f32	s13, s15, s12
 456 01ba F4EEC76A 		vcmpe.f32	s13, s14
ARM GAS  /tmp/ccZzxXw2.s 			page 9


 457 01be F1EE10FA 		vmrs	APSR_nzcv, FPSCR
 458 01c2 56DD     		ble	.L121
 459              	.L43:
 460              	.LBB173:
 461              		.loc 1 186 0
 462 01c4 0DF12808 		add	r8, sp, #40
 463              	.LVL41:
 464 01c8 0023     		movs	r3, #0
 465 01ca 48F8203D 		str	r3, [r8, #-32]!
 466              		.loc 1 187 0
 467 01ce C6F80001 		str	r0, [r6, #256]
 468              	.LBB174:
 469              	.LBB175:
 470              		.loc 2 231 0
 471 01d2 AB6A     		ldr	r3, [r5, #40]
 472              	.LBE175:
 473              	.LBE174:
 474              		.loc 1 188 0
 475 01d4 C6F81431 		str	r3, [r6, #276]
 476              		.loc 1 189 0
 477 01d8 4146     		mov	r1, r8
 478 01da 3846     		mov	r0, r7
 479 01dc FFF7FEFF 		bl	buffer_get_float32_auto
 480              	.LVL42:
 481              		.loc 1 190 0
 482 01e0 3846     		mov	r0, r7
 483 01e2 4146     		mov	r1, r8
 484              		.loc 1 189 0
 485 01e4 86ED040A 		vstr.32	s0, [r6, #16]
 486              		.loc 1 190 0
 487 01e8 FFF7FEFF 		bl	buffer_get_float32_auto
 488              	.LVL43:
 489              	.LBE173:
 490              		.loc 1 183 0
 491 01ec 2046     		mov	r0, r4
 492              	.LBB176:
 493              		.loc 1 190 0
 494 01ee 86ED050A 		vstr.32	s0, [r6, #20]
 495 01f2 0FE7     		b	.L103
 496              	.LVL44:
 497              	.L17:
 498              	.LBE176:
 499              		.loc 1 197 0
 500 01f4 4F4E     		ldr	r6, .L127+4
 501 01f6 D6F80031 		ldr	r3, [r6, #256]
 502 01fa E8B2     		uxtb	r0, r5
 503 01fc 9842     		cmp	r0, r3
 504 01fe 4E4D     		ldr	r5, .L127+8
 505              	.LVL45:
 506 0200 12D0     		beq	.L45
 507              		.loc 1 197 0 is_stmt 0 discriminator 1
 508 0202 D6F81421 		ldr	r2, [r6, #276]
 509              	.LVL46:
 510              	.LBB177:
 511              	.LBB178:
 512              	.LBB179:
 513              	.LBB180:
ARM GAS  /tmp/ccZzxXw2.s 			page 10


 514              		.loc 2 231 0 is_stmt 1 discriminator 1
 515 0206 AB6A     		ldr	r3, [r5, #40]
 516              	.LVL47:
 517              	.LBE180:
 518              	.LBE179:
 519              	.LBE178:
 520              	.LBE177:
 521              		.loc 1 197 0 discriminator 1
 522 0208 9FED4C6A 		vldr.32	s12, .L127+12
 523              	.LBB182:
 524              	.LBB181:
 525              		.loc 2 267 0 discriminator 1
 526 020c 9B1A     		subs	r3, r3, r2
 527              	.LBE181:
 528              	.LBE182:
 529              		.loc 1 197 0 discriminator 1
 530 020e 07EE903A 		vmov	s15, r3	@ int
 531 0212 F8EE677A 		vcvt.f32.u32	s15, s15
 532 0216 B0EE007A 		vmov.f32	s14, #2.0e+0
 533 021a C7EE866A 		vdiv.f32	s13, s15, s12
 534 021e F4EEC76A 		vcmpe.f32	s13, s14
 535 0222 F1EE10FA 		vmrs	APSR_nzcv, FPSCR
 536 0226 24DD     		ble	.L121
 537              	.L45:
 538              	.LBB183:
 539              		.loc 1 199 0
 540 0228 C6F80001 		str	r0, [r6, #256]
 541              	.LBB184:
 542              	.LBB185:
 543              		.loc 2 231 0
 544 022c AB6A     		ldr	r3, [r5, #40]
 545              	.LBE185:
 546              	.LBE184:
 547              		.loc 1 200 0
 548 022e C6F81431 		str	r3, [r6, #276]
 549              		.loc 1 202 0
 550 0232 7B78     		ldrb	r3, [r7, #1]	@ zero_extendqisi2
 551              		.loc 1 201 0
 552 0234 3D78     		ldrb	r5, [r7]	@ zero_extendqisi2
 553              	.LVL48:
 554              		.loc 1 202 0
 555 0236 B361     		str	r3, [r6, #24]
 556 0238 0223     		movs	r3, #2
 557              		.loc 1 204 0
 558 023a 9845     		cmp	r8, r3
 559              		.loc 1 202 0
 560 023c 0293     		str	r3, [sp, #8]
 561              		.loc 1 204 0
 562 023e 18DD     		ble	.L121
 563              		.loc 1 205 0
 564 0240 1F2D     		cmp	r5, #31
 565 0242 16D8     		bhi	.L121
 566 0244 0DF1080A 		add	r10, sp, #8
 567              		.loc 1 210 0
 568 0248 9FED3D8A 		vldr.32	s16, .L127+16
 569 024c 01E0     		b	.L49
 570              	.L50:
ARM GAS  /tmp/ccZzxXw2.s 			page 11


 571              		.loc 1 205 0
 572 024e 202D     		cmp	r5, #32
 573 0250 0FD0     		beq	.L121
 574              	.L49:
 575              		.loc 1 210 0
 576 0252 5146     		mov	r1, r10
 577 0254 B0EE480A 		vmov.f32	s0, s16
 578 0258 3846     		mov	r0, r7
 579 025a FFF7FEFF 		bl	buffer_get_float16
 580              	.LVL49:
 581              		.loc 1 204 0
 582 025e 029A     		ldr	r2, [sp, #8]
 583              		.loc 1 210 0
 584 0260 AB1D     		adds	r3, r5, #6
 585 0262 06EB8303 		add	r3, r6, r3, lsl #2
 586              		.loc 1 204 0
 587 0266 4245     		cmp	r2, r8
 588              		.loc 1 210 0
 589 0268 83ED010A 		vstr.32	s0, [r3, #4]
 590 026c 05F10105 		add	r5, r5, #1
 591              	.LVL50:
 592              		.loc 1 204 0
 593 0270 EDDB     		blt	.L50
 594              	.LVL51:
 595              	.L121:
 596              	.LBE183:
 597              		.loc 1 159 0
 598 0272 2046     		mov	r0, r4
 599              	.LVL52:
 600              	.L126:
 601              	.LBE144:
 602              		.loc 1 302 0
 603 0274 0AB0     		add	sp, sp, #40
 604              		.cfi_remember_state
 605              		.cfi_def_cfa_offset 40
 606              		@ sp needed
 607 0276 BDEC028B 		vldm	sp!, {d8}
 608              		.cfi_restore 80
 609              		.cfi_restore 81
 610              		.cfi_def_cfa_offset 32
 611 027a BDE8F087 		pop	{r4, r5, r6, r7, r8, r9, r10, pc}
 612              	.LVL53:
 613              	.L18:
 614              		.cfi_restore_state
 615              	.LBB276:
 616              		.loc 1 218 0
 617 027e 2D4E     		ldr	r6, .L127+4
 618 0280 D6F80031 		ldr	r3, [r6, #256]
 619 0284 E8B2     		uxtb	r0, r5
 620 0286 9842     		cmp	r0, r3
 621 0288 2B4D     		ldr	r5, .L127+8
 622              	.LVL54:
 623 028a 12D0     		beq	.L51
 624              		.loc 1 218 0 is_stmt 0 discriminator 1
 625 028c D6F81421 		ldr	r2, [r6, #276]
 626              	.LVL55:
 627              	.LBB186:
ARM GAS  /tmp/ccZzxXw2.s 			page 12


 628              	.LBB187:
 629              	.LBB188:
 630              	.LBB189:
 631              		.loc 2 231 0 is_stmt 1 discriminator 1
 632 0290 AB6A     		ldr	r3, [r5, #40]
 633              	.LVL56:
 634              	.LBE189:
 635              	.LBE188:
 636              	.LBE187:
 637              	.LBE186:
 638              		.loc 1 218 0 discriminator 1
 639 0292 9FED2A6A 		vldr.32	s12, .L127+12
 640              	.LBB191:
 641              	.LBB190:
 642              		.loc 2 267 0 discriminator 1
 643 0296 9B1A     		subs	r3, r3, r2
 644              	.LBE190:
 645              	.LBE191:
 646              		.loc 1 218 0 discriminator 1
 647 0298 07EE903A 		vmov	s15, r3	@ int
 648 029c F8EE677A 		vcvt.f32.u32	s15, s15
 649 02a0 B0EE007A 		vmov.f32	s14, #2.0e+0
 650 02a4 C7EE866A 		vdiv.f32	s13, s15, s12
 651 02a8 F4EEC76A 		vcmpe.f32	s13, s14
 652 02ac F1EE10FA 		vmrs	APSR_nzcv, FPSCR
 653 02b0 DFDD     		ble	.L121
 654              	.L51:
 655              	.LBB192:
 656              		.loc 1 219 0
 657 02b2 0DF12809 		add	r9, sp, #40
 658              	.LVL57:
 659 02b6 4FF0000A 		mov	r10, #0
 660              		.loc 1 220 0
 661 02ba C6F80001 		str	r0, [r6, #256]
 662              		.loc 1 219 0
 663 02be 49F820AD 		str	r10, [r9, #-32]!
 664              	.LBB193:
 665              	.LBB194:
 666              		.loc 2 231 0
 667 02c2 AB6A     		ldr	r3, [r5, #40]
 668              	.LBE194:
 669              	.LBE193:
 670              		.loc 1 221 0
 671 02c4 C6F81431 		str	r3, [r6, #276]
 672              		.loc 1 224 0
 673 02c8 4946     		mov	r1, r9
 674 02ca 3846     		mov	r0, r7
 675              		.loc 1 223 0
 676 02cc 97F80080 		ldrb	r8, [r7]	@ zero_extendqisi2
 677              	.LVL58:
 678              		.loc 1 224 0
 679 02d0 FFF7FEFF 		bl	buffer_get_uint32
 680              	.LVL59:
 681              		.loc 1 226 0
 682 02d4 4946     		mov	r1, r9
 683              		.loc 1 224 0
 684 02d6 0546     		mov	r5, r0
ARM GAS  /tmp/ccZzxXw2.s 			page 13


 685              	.LVL60:
 686              		.loc 1 226 0
 687 02d8 3846     		mov	r0, r7
 688              	.LVL61:
 689 02da FFF7FEFF 		bl	buffer_get_uint32
 690              	.LVL62:
 691              		.loc 1 227 0
 692 02de 25F07F43 		bic	r3, r5, #-16777216
 693 02e2 4AEA0009 		orr	r9, r10, r0
 694 02e6 4846     		mov	r0, r9
 695              	.LVL63:
 696 02e8 1946     		mov	r1, r3
 697              	.LVL64:
 698              		.loc 1 230 0
 699 02ea B8F1000F 		cmp	r8, #0
 700 02ee C0D0     		beq	.L121
 701              		.loc 1 231 0
 702 02f0 09F00103 		and	r3, r9, #1
 703 02f4 86F89C30 		strb	r3, [r6, #156]
 704              	.LVL65:
 705              		.loc 1 232 0
 706 02f8 0123     		movs	r3, #1
 707              	.LVL66:
 708              	.L68:
 709              		.loc 1 231 0 discriminator 1
 710 02fa C3F12007 		rsb	r7, r3, #32
 711 02fe A3F12005 		sub	r5, r3, #32
 712 0302 20FA03F2 		lsr	r2, r0, r3
 713 0306 01FA07F7 		lsl	r7, r1, r7
 714 030a 3A43     		orrs	r2, r2, r7
 715 030c 21FA05F5 		lsr	r5, r1, r5
 716 0310 2A43     		orrs	r2, r2, r5
 717              		.loc 1 230 0 discriminator 1
 718 0312 4345     		cmp	r3, r8
 719              		.loc 1 231 0 discriminator 1
 720 0314 06EB0307 		add	r7, r6, r3
 721 0318 02F00102 		and	r2, r2, #1
 722              		.loc 1 232 0 discriminator 1
 723 031c 03F10103 		add	r3, r3, #1
 724              	.LVL67:
 725              		.loc 1 230 0 discriminator 1
 726 0320 A7D0     		beq	.L121
 727              		.loc 1 230 0 is_stmt 0
 728 0322 202B     		cmp	r3, #32
 729              		.loc 1 231 0 is_stmt 1
 730 0324 87F89C20 		strb	r2, [r7, #156]
 731              		.loc 1 230 0
 732 0328 E7D1     		bne	.L68
 733              	.LBE192:
 734              		.loc 1 159 0
 735 032a 2046     		mov	r0, r4
 736              	.LVL68:
 737 032c A2E7     		b	.L126
 738              	.L128:
 739 032e 00BF     		.align	2
 740              	.L127:
 741 0330 00000000 		.word	.LANCHOR0
ARM GAS  /tmp/ccZzxXw2.s 			page 14


 742 0334 00000000 		.word	.LANCHOR4
 743 0338 00000000 		.word	ch
 744 033c 00401C46 		.word	1176256512
 745 0340 00007A44 		.word	1148846080
 746              	.LVL69:
 747              	.L19:
 748              		.loc 1 240 0
 749 0344 CF4E     		ldr	r6, .L129
 750 0346 D6F80031 		ldr	r3, [r6, #256]
 751 034a E8B2     		uxtb	r0, r5
 752 034c 9842     		cmp	r0, r3
 753 034e CE4D     		ldr	r5, .L129+4
 754              	.LVL70:
 755 0350 13D0     		beq	.L56
 756              		.loc 1 240 0 is_stmt 0 discriminator 1
 757 0352 D6F81421 		ldr	r2, [r6, #276]
 758              	.LVL71:
 759              	.LBB195:
 760              	.LBB196:
 761              	.LBB197:
 762              	.LBB198:
 763              		.loc 2 231 0 is_stmt 1 discriminator 1
 764 0356 AB6A     		ldr	r3, [r5, #40]
 765              	.LVL72:
 766              	.LBE198:
 767              	.LBE197:
 768              	.LBE196:
 769              	.LBE195:
 770              		.loc 1 240 0 discriminator 1
 771 0358 9FEDCC6A 		vldr.32	s12, .L129+8
 772              	.LBB200:
 773              	.LBB199:
 774              		.loc 2 267 0 discriminator 1
 775 035c 9B1A     		subs	r3, r3, r2
 776              	.LBE199:
 777              	.LBE200:
 778              		.loc 1 240 0 discriminator 1
 779 035e 07EE903A 		vmov	s15, r3	@ int
 780 0362 F8EE677A 		vcvt.f32.u32	s15, s15
 781 0366 B0EE007A 		vmov.f32	s14, #2.0e+0
 782 036a C7EE866A 		vdiv.f32	s13, s15, s12
 783 036e F4EEC76A 		vcmpe.f32	s13, s14
 784 0372 F1EE10FA 		vmrs	APSR_nzcv, FPSCR
 785 0376 7FF77CAF 		ble	.L121
 786              	.L56:
 787              	.LBB201:
 788              		.loc 1 242 0
 789 037a C6F80001 		str	r0, [r6, #256]
 790              	.LBB202:
 791              	.LBB203:
 792              		.loc 2 231 0
 793 037e AB6A     		ldr	r3, [r5, #40]
 794              	.LBE203:
 795              	.LBE202:
 796              		.loc 1 243 0
 797 0380 C6F81431 		str	r3, [r6, #276]
 798              		.loc 1 245 0
ARM GAS  /tmp/ccZzxXw2.s 			page 15


 799 0384 7B78     		ldrb	r3, [r7, #1]	@ zero_extendqisi2
 800              		.loc 1 244 0
 801 0386 3D78     		ldrb	r5, [r7]	@ zero_extendqisi2
 802              	.LVL73:
 803              		.loc 1 245 0
 804 0388 C6F8BC30 		str	r3, [r6, #188]
 805 038c 0223     		movs	r3, #2
 806              		.loc 1 247 0
 807 038e 9845     		cmp	r8, r3
 808              		.loc 1 245 0
 809 0390 0293     		str	r3, [sp, #8]
 810              		.loc 1 247 0
 811 0392 7FF76EAF 		ble	.L121
 812              		.loc 1 248 0
 813 0396 092D     		cmp	r5, #9
 814 0398 3FF66BAF 		bhi	.L121
 815 039c 0DF1080A 		add	r10, sp, #8
 816              		.loc 1 253 0
 817 03a0 9FEDBB8A 		vldr.32	s16, .L129+12
 818 03a4 02E0     		b	.L60
 819              	.L61:
 820              		.loc 1 248 0
 821 03a6 0A2D     		cmp	r5, #10
 822 03a8 3FF463AF 		beq	.L121
 823              	.L60:
 824              		.loc 1 253 0
 825 03ac 5146     		mov	r1, r10
 826 03ae B0EE480A 		vmov.f32	s0, s16
 827 03b2 3846     		mov	r0, r7
 828 03b4 FFF7FEFF 		bl	buffer_get_float16
 829              	.LVL74:
 830              		.loc 1 247 0
 831 03b8 029A     		ldr	r2, [sp, #8]
 832              		.loc 1 253 0
 833 03ba 05F13003 		add	r3, r5, #48
 834 03be 06EB8303 		add	r3, r6, r3, lsl #2
 835              		.loc 1 247 0
 836 03c2 4245     		cmp	r2, r8
 837              		.loc 1 253 0
 838 03c4 83ED000A 		vstr.32	s0, [r3]
 839 03c8 05F10105 		add	r5, r5, #1
 840              	.LVL75:
 841              		.loc 1 247 0
 842 03cc EBDB     		blt	.L61
 843              	.LBE201:
 844              		.loc 1 159 0
 845 03ce 2046     		mov	r0, r4
 846              	.LVL76:
 847 03d0 50E7     		b	.L126
 848              	.LVL77:
 849              	.L20:
 850              		.loc 1 261 0
 851 03d2 AC4E     		ldr	r6, .L129
 852 03d4 D6F80031 		ldr	r3, [r6, #256]
 853 03d8 E8B2     		uxtb	r0, r5
 854 03da 9842     		cmp	r0, r3
 855 03dc AA4D     		ldr	r5, .L129+4
ARM GAS  /tmp/ccZzxXw2.s 			page 16


 856              	.LVL78:
 857 03de 13D0     		beq	.L62
 858              		.loc 1 261 0 is_stmt 0 discriminator 1
 859 03e0 D6F81421 		ldr	r2, [r6, #276]
 860              	.LVL79:
 861              	.LBB204:
 862              	.LBB205:
 863              	.LBB206:
 864              	.LBB207:
 865              		.loc 2 231 0 is_stmt 1 discriminator 1
 866 03e4 AB6A     		ldr	r3, [r5, #40]
 867              	.LVL80:
 868              	.LBE207:
 869              	.LBE206:
 870              	.LBE205:
 871              	.LBE204:
 872              		.loc 1 261 0 discriminator 1
 873 03e6 9FEDA96A 		vldr.32	s12, .L129+8
 874              	.LBB209:
 875              	.LBB208:
 876              		.loc 2 267 0 discriminator 1
 877 03ea 9B1A     		subs	r3, r3, r2
 878              	.LBE208:
 879              	.LBE209:
 880              		.loc 1 261 0 discriminator 1
 881 03ec 07EE903A 		vmov	s15, r3	@ int
 882 03f0 F8EE677A 		vcvt.f32.u32	s15, s15
 883 03f4 B0EE007A 		vmov.f32	s14, #2.0e+0
 884 03f8 C7EE866A 		vdiv.f32	s13, s15, s12
 885 03fc F4EEC76A 		vcmpe.f32	s13, s14
 886 0400 F1EE10FA 		vmrs	APSR_nzcv, FPSCR
 887 0404 7FF735AF 		ble	.L121
 888              	.L62:
 889              	.LBB210:
 890              		.loc 1 262 0
 891 0408 0DF12808 		add	r8, sp, #40
 892              	.LVL81:
 893 040c 0023     		movs	r3, #0
 894 040e 48F8203D 		str	r3, [r8, #-32]!
 895              		.loc 1 263 0
 896 0412 C6F80001 		str	r0, [r6, #256]
 897              	.LBB211:
 898              	.LBB212:
 899              		.loc 2 231 0
 900 0416 AB6A     		ldr	r3, [r5, #40]
 901              	.LBE212:
 902              	.LBE211:
 903              		.loc 1 265 0
 904 0418 9FED9D0A 		vldr.32	s0, .L129+12
 905              		.loc 1 264 0
 906 041c C6F81431 		str	r3, [r6, #276]
 907              		.loc 1 265 0
 908 0420 4146     		mov	r1, r8
 909 0422 3846     		mov	r0, r7
 910 0424 FFF7FEFF 		bl	buffer_get_float16
 911              	.LVL82:
 912              		.loc 1 266 0
ARM GAS  /tmp/ccZzxXw2.s 			page 17


 913 0428 4146     		mov	r1, r8
 914              		.loc 1 265 0
 915 042a F0EE407A 		vmov.f32	s15, s0
 916              		.loc 1 266 0
 917 042e 3846     		mov	r0, r7
 918 0430 9FED970A 		vldr.32	s0, .L129+12
 919              		.loc 1 265 0
 920 0434 C6ED3B7A 		vstr.32	s15, [r6, #236]
 921              		.loc 1 266 0
 922 0438 FFF7FEFF 		bl	buffer_get_float16
 923              	.LVL83:
 924              		.loc 1 267 0
 925 043c 3846     		mov	r0, r7
 926              		.loc 1 266 0
 927 043e F0EE407A 		vmov.f32	s15, s0
 928              		.loc 1 267 0
 929 0442 4146     		mov	r1, r8
 930 0444 9FED920A 		vldr.32	s0, .L129+12
 931              		.loc 1 266 0
 932 0448 C6ED3C7A 		vstr.32	s15, [r6, #240]
 933              		.loc 1 267 0
 934 044c FFF7FEFF 		bl	buffer_get_float16
 935              	.LVL84:
 936              	.LBE210:
 937              		.loc 1 259 0
 938 0450 2046     		mov	r0, r4
 939              	.LBB213:
 940              		.loc 1 267 0
 941 0452 86ED3A0A 		vstr.32	s0, [r6, #232]
 942 0456 DDE5     		b	.L103
 943              	.LVL85:
 944              	.L21:
 945              	.LBE213:
 946              	.LBB214:
 947              		.loc 1 108 0
 948 0458 0DF1280A 		add	r10, sp, #40
 949 045c 0023     		movs	r3, #0
 950              		.loc 1 110 0
 951 045e 5FFA85F8 		uxtb	r8, r5
 952              	.LVL86:
 953              		.loc 1 108 0
 954 0462 4AF8243D 		str	r3, [r10, #-36]!
 955              	.LBB215:
 956              	.LBB216:
 957              	.LBB217:
 958              	.LBB218:
 959              	.LBB219:
 960              	.LBB220:
 961              		.file 3 "ChibiOS_3.0.5/os/ext/CMSIS/include/core_cmFunc.h"
 962              		.loc 3 342 0
 963              		.syntax unified
 964              	@ 342 "ChibiOS_3.0.5/os/ext/CMSIS/include/core_cmFunc.h" 1
 965 0466 72B6     		cpsid i
 966              	@ 0 "" 2
 967              		.thumb
 968              		.syntax unified
 969              	.LBE220:
ARM GAS  /tmp/ccZzxXw2.s 			page 18


 970              	.LBE219:
 971              	.LBE218:
 972              	.LBE217:
 973              	.LBB221:
 974              	.LBB222:
 975              		.loc 2 231 0
 976 0468 874D     		ldr	r5, .L129+4
 977              	.LVL87:
 978 046a D5F82890 		ldr	r9, [r5, #40]
 979              	.LVL88:
 980              	.LBE222:
 981              	.LBE221:
 982              	.LBB223:
 983              	.LBB224:
 984              	.LBB225:
 985              	.LBB226:
 986              	.LBB227:
 987              		.loc 3 331 0
 988              		.syntax unified
 989              	@ 331 "ChibiOS_3.0.5/os/ext/CMSIS/include/core_cmFunc.h" 1
 990 046e 62B6     		cpsie i
 991              	@ 0 "" 2
 992              	.LVL89:
 993              		.thumb
 994              		.syntax unified
 995              	.LBE227:
 996              	.LBE226:
 997              	.LBE225:
 998              	.LBE224:
 999              	.LBE223:
 1000              	.LBE216:
 1001              	.LBE215:
 1002              		.loc 1 112 0
 1003 0470 9FED880A 		vldr.32	s0, .L129+16
 1004              		.loc 1 122 0
 1005 0474 834E     		ldr	r6, .L129
 1006              		.loc 1 112 0
 1007 0476 5146     		mov	r1, r10
 1008 0478 3846     		mov	r0, r7
 1009 047a FFF7FEFF 		bl	buffer_get_float16
 1010              	.LVL90:
 1011              		.loc 1 113 0
 1012 047e 5146     		mov	r1, r10
 1013 0480 3846     		mov	r0, r7
 1014              		.loc 1 112 0
 1015 0482 B0EE408A 		vmov.f32	s16, s0
 1016              	.LVL91:
 1017              		.loc 1 113 0
 1018 0486 9FED830A 		vldr.32	s0, .L129+16
 1019              	.LVL92:
 1020 048a FFF7FEFF 		bl	buffer_get_float16
 1021              	.LVL93:
 1022              		.loc 1 114 0
 1023 048e 019B     		ldr	r3, [sp, #4]
 1024 0490 DFED815A 		vldr.32	s11, .L129+20
 1025 0494 FA5C     		ldrb	r2, [r7, r3]	@ zero_extendqisi2
 1026              		.loc 1 115 0
ARM GAS  /tmp/ccZzxXw2.s 			page 19


 1027 0496 1F44     		add	r7, r7, r3
 1028              	.LVL94:
 1029              		.loc 1 114 0
 1030 0498 06EE102A 		vmov	s12, r2	@ int
 1031              		.loc 1 115 0
 1032 049c 7978     		ldrb	r1, [r7, #1]	@ zero_extendqisi2
 1033              		.loc 1 122 0
 1034 049e D6F80021 		ldr	r2, [r6, #256]
 1035              		.loc 1 117 0
 1036 04a2 97F803C0 		ldrb	ip, [r7, #3]	@ zero_extendqisi2
 1037              		.loc 1 115 0
 1038 04a6 07EE101A 		vmov	s14, r1	@ int
 1039              		.loc 1 116 0
 1040 04aa 97F90210 		ldrsb	r1, [r7, #2]
 1041              		.loc 1 115 0
 1042 04ae B8EE477A 		vcvt.f32.u32	s14, s14
 1043              		.loc 1 114 0
 1044 04b2 B8EE466A 		vcvt.f32.u32	s12, s12
 1045              		.loc 1 116 0
 1046 04b6 07EE901A 		vmov	s15, r1	@ int
 1047              		.loc 1 117 0
 1048 04ba 0433     		adds	r3, r3, #4
 1049              		.loc 1 122 0
 1050 04bc 9045     		cmp	r8, r2
 1051              		.loc 1 115 0
 1052 04be C7EE256A 		vdiv.f32	s13, s14, s11
 1053              		.loc 1 118 0
 1054 04c2 0CF0010A 		and	r10, ip, #1
 1055              		.loc 1 119 0
 1056 04c6 CCF3400E 		ubfx	lr, ip, #1, #1
 1057              		.loc 1 117 0
 1058 04ca 0193     		str	r3, [sp, #4]
 1059              		.loc 1 120 0
 1060 04cc CCF3800C 		ubfx	ip, ip, #2, #1
 1061              		.loc 1 114 0
 1062 04d0 86EE257A 		vdiv.f32	s14, s12, s11
 1063              	.LVL95:
 1064              		.loc 1 116 0
 1065 04d4 F8EEE77A 		vcvt.f32.s32	s15, s15
 1066              	.LVL96:
 1067              		.loc 1 122 0
 1068 04d8 12D0     		beq	.L24
 1069              		.loc 1 122 0 is_stmt 0 discriminator 1
 1070 04da D6F81421 		ldr	r2, [r6, #276]
 1071              	.LVL97:
 1072              	.LBB228:
 1073              	.LBB229:
 1074              	.LBB230:
 1075              	.LBB231:
 1076              		.loc 2 231 0 is_stmt 1 discriminator 1
 1077 04de AB6A     		ldr	r3, [r5, #40]
 1078              	.LVL98:
 1079              	.LBE231:
 1080              	.LBE230:
 1081              	.LBE229:
 1082              	.LBE228:
 1083              		.loc 1 122 0 discriminator 1
ARM GAS  /tmp/ccZzxXw2.s 			page 20


 1084 04e0 DFED6A4A 		vldr.32	s9, .L129+8
 1085              	.LBB233:
 1086              	.LBB232:
 1087              		.loc 2 267 0 discriminator 1
 1088 04e4 9B1A     		subs	r3, r3, r2
 1089              	.LBE232:
 1090              	.LBE233:
 1091              		.loc 1 122 0 discriminator 1
 1092 04e6 06EE103A 		vmov	s12, r3	@ int
 1093 04ea B8EE466A 		vcvt.f32.u32	s12, s12
 1094 04ee F0EE005A 		vmov.f32	s11, #2.0e+0
 1095 04f2 86EE245A 		vdiv.f32	s10, s12, s9
 1096 04f6 B4EEE55A 		vcmpe.f32	s10, s11
 1097 04fa F1EE10FA 		vmrs	APSR_nzcv, FPSCR
 1098 04fe 0ADD     		ble	.L25
 1099              	.L24:
 1100              		.loc 1 123 0
 1101 0500 C6F80081 		str	r8, [r6, #256]
 1102              	.LVL99:
 1103              	.LBB234:
 1104              	.LBB235:
 1105              		.loc 2 231 0
 1106 0504 AB6A     		ldr	r3, [r5, #40]
 1107              	.LBE235:
 1108              	.LBE234:
 1109              		.loc 1 124 0
 1110 0506 C6F81431 		str	r3, [r6, #276]
 1111              		.loc 1 125 0
 1112 050a 86ED3E7A 		vstr.32	s14, [r6, #248]
 1113              		.loc 1 126 0
 1114 050e C6ED3F6A 		vstr.32	s13, [r6, #252]
 1115              		.loc 1 127 0
 1116 0512 C6ED3D7A 		vstr.32	s15, [r6, #244]
 1117              	.L25:
 1118              		.loc 1 133 0
 1119 0516 614E     		ldr	r6, .L129+24
 1120 0518 3368     		ldr	r3, [r6]
 1121 051a 002B     		cmp	r3, #0
 1122 051c C0F26181 		blt	.L27
 1123              		.loc 1 134 0 discriminator 1
 1124 0520 7268     		ldr	r2, [r6, #4]
 1125              	.LVL100:
 1126              	.LBB236:
 1127              	.LBB237:
 1128              	.LBB238:
 1129              	.LBB239:
 1130              		.loc 2 231 0 discriminator 1
 1131 0522 AB6A     		ldr	r3, [r5, #40]
 1132              	.LVL101:
 1133              	.LBE239:
 1134              	.LBE238:
 1135              	.LBE237:
 1136              	.LBE236:
 1137              		.loc 1 134 0 discriminator 1
 1138 0524 DFED594A 		vldr.32	s9, .L129+8
 1139              	.LBB241:
 1140              	.LBB240:
ARM GAS  /tmp/ccZzxXw2.s 			page 21


 1141              		.loc 2 267 0 discriminator 1
 1142 0528 9B1A     		subs	r3, r3, r2
 1143              	.LBE240:
 1144              	.LBE241:
 1145              		.loc 1 134 0 discriminator 1
 1146 052a 06EE103A 		vmov	s12, r3	@ int
 1147 052e B8EE466A 		vcvt.f32.u32	s12, s12
 1148              		.loc 1 133 0 discriminator 1
 1149 0532 F0EE005A 		vmov.f32	s11, #2.0e+0
 1150              		.loc 1 134 0 discriminator 1
 1151 0536 86EE245A 		vdiv.f32	s10, s12, s9
 1152              		.loc 1 133 0 discriminator 1
 1153 053a B4EEE55A 		vcmpe.f32	s10, s11
 1154 053e F1EE10FA 		vmrs	APSR_nzcv, FPSCR
 1155 0542 00F34E81 		bgt	.L27
 1156              		.loc 1 135 0
 1157 0546 96ED046A 		vldr.32	s12, [r6, #16]
 1158              		.loc 1 134 0
 1159 054a F4EEC67A 		vcmpe.f32	s15, s12
 1160 054e F1EE10FA 		vmrs	APSR_nzcv, FPSCR
 1161 0552 00F34681 		bgt	.L27
 1162              		.loc 1 137 0
 1163 0556 3368     		ldr	r3, [r6]
 1164 0558 9845     		cmp	r8, r3
 1165 055a 18D1     		bne	.L30
 1166              		.loc 1 138 0
 1167 055c CDE90289 		strd	r8, r9, [sp, #8]
 1168 0560 CDED067A 		vstr.32	s15, [sp, #24]
 1169 0564 8DED077A 		vstr.32	s14, [sp, #28]
 1170 0568 CDED086A 		vstr.32	s13, [sp, #32]
 1171 056c 8DF824A0 		strb	r10, [sp, #36]
 1172 0570 8DF825E0 		strb	lr, [sp, #37]
 1173 0574 8DF826C0 		strb	ip, [sp, #38]
 1174 0578 8DED048A 		vstr.32	s16, [sp, #16]
 1175 057c 8DED050A 		vstr.32	s0, [sp, #20]
 1176 0580 02AF     		add	r7, sp, #8
 1177 0582 0FCF     		ldmia	r7!, {r0, r1, r2, r3}
 1178 0584 0FC6     		stmia	r6!, {r0, r1, r2, r3}
 1179 0586 97E80F00 		ldm	r7, {r0, r1, r2, r3}
 1180 058a 86E80F00 		stm	r6, {r0, r1, r2, r3}
 1181              	.LVL102:
 1182              	.L30:
 1183              		.loc 1 141 0
 1184 058e 444E     		ldr	r6, .L129+28
 1185 0590 3368     		ldr	r3, [r6]
 1186 0592 002B     		cmp	r3, #0
 1187 0594 C0F20A81 		blt	.L31
 1188              		.loc 1 142 0 discriminator 1
 1189 0598 7268     		ldr	r2, [r6, #4]
 1190              	.LVL103:
 1191              	.LBB242:
 1192              	.LBB243:
 1193              	.LBB244:
 1194              	.LBB245:
 1195              		.loc 2 231 0 discriminator 1
 1196 059a AB6A     		ldr	r3, [r5, #40]
 1197              	.LVL104:
ARM GAS  /tmp/ccZzxXw2.s 			page 22


 1198              	.LBE245:
 1199              	.LBE244:
 1200              	.LBE243:
 1201              	.LBE242:
 1202              		.loc 1 142 0 discriminator 1
 1203 059c DFED3B4A 		vldr.32	s9, .L129+8
 1204              	.LBB247:
 1205              	.LBB246:
 1206              		.loc 2 267 0 discriminator 1
 1207 05a0 9B1A     		subs	r3, r3, r2
 1208              	.LBE246:
 1209              	.LBE247:
 1210              		.loc 1 142 0 discriminator 1
 1211 05a2 06EE103A 		vmov	s12, r3	@ int
 1212 05a6 B8EE466A 		vcvt.f32.u32	s12, s12
 1213              		.loc 1 141 0 discriminator 1
 1214 05aa F0EE005A 		vmov.f32	s11, #2.0e+0
 1215              		.loc 1 142 0 discriminator 1
 1216 05ae 86EE245A 		vdiv.f32	s10, s12, s9
 1217              		.loc 1 141 0 discriminator 1
 1218 05b2 B4EEE55A 		vcmpe.f32	s10, s11
 1219 05b6 F1EE10FA 		vmrs	APSR_nzcv, FPSCR
 1220 05ba 00F3F780 		bgt	.L31
 1221              		.loc 1 143 0
 1222 05be 96ED056A 		vldr.32	s12, [r6, #20]
 1223              		.loc 1 142 0
 1224 05c2 B4EEC67A 		vcmpe.f32	s14, s12
 1225 05c6 F1EE10FA 		vmrs	APSR_nzcv, FPSCR
 1226 05ca 00F1EF80 		bmi	.L31
 1227              		.loc 1 145 0
 1228 05ce 3368     		ldr	r3, [r6]
 1229 05d0 9845     		cmp	r8, r3
 1230 05d2 18D1     		bne	.L34
 1231              	.LVL105:
 1232              		.loc 1 146 0
 1233 05d4 CDE90289 		strd	r8, r9, [sp, #8]
 1234 05d8 CDED067A 		vstr.32	s15, [sp, #24]
 1235 05dc 8DED077A 		vstr.32	s14, [sp, #28]
 1236 05e0 CDED086A 		vstr.32	s13, [sp, #32]
 1237 05e4 8DF824A0 		strb	r10, [sp, #36]
 1238 05e8 8DF825E0 		strb	lr, [sp, #37]
 1239 05ec 8DF826C0 		strb	ip, [sp, #38]
 1240 05f0 8DED048A 		vstr.32	s16, [sp, #16]
 1241 05f4 8DED050A 		vstr.32	s0, [sp, #20]
 1242 05f8 02AF     		add	r7, sp, #8
 1243 05fa 0FCF     		ldmia	r7!, {r0, r1, r2, r3}
 1244 05fc 0FC6     		stmia	r6!, {r0, r1, r2, r3}
 1245 05fe 97E80F00 		ldm	r7, {r0, r1, r2, r3}
 1246 0602 86E80F00 		stm	r6, {r0, r1, r2, r3}
 1247              	.LVL106:
 1248              	.L34:
 1249              		.loc 1 149 0
 1250 0606 274E     		ldr	r6, .L129+32
 1251 0608 3368     		ldr	r3, [r6]
 1252 060a 002B     		cmp	r3, #0
 1253 060c C0F2B280 		blt	.L35
 1254              		.loc 1 150 0 discriminator 1
ARM GAS  /tmp/ccZzxXw2.s 			page 23


 1255 0610 7268     		ldr	r2, [r6, #4]
 1256              	.LVL107:
 1257              	.LBB248:
 1258              	.LBB249:
 1259              	.LBB250:
 1260              	.LBB251:
 1261              		.loc 2 231 0 discriminator 1
 1262 0612 AB6A     		ldr	r3, [r5, #40]
 1263              	.LVL108:
 1264              	.LBE251:
 1265              	.LBE250:
 1266              	.LBE249:
 1267              	.LBE248:
 1268              		.loc 1 150 0 discriminator 1
 1269 0614 DFED1D4A 		vldr.32	s9, .L129+8
 1270              	.LBB253:
 1271              	.LBB252:
 1272              		.loc 2 267 0 discriminator 1
 1273 0618 9B1A     		subs	r3, r3, r2
 1274              	.LBE252:
 1275              	.LBE253:
 1276              		.loc 1 150 0 discriminator 1
 1277 061a 06EE103A 		vmov	s12, r3	@ int
 1278 061e B8EE466A 		vcvt.f32.u32	s12, s12
 1279              		.loc 1 149 0 discriminator 1
 1280 0622 F0EE005A 		vmov.f32	s11, #2.0e+0
 1281              		.loc 1 150 0 discriminator 1
 1282 0626 86EE245A 		vdiv.f32	s10, s12, s9
 1283              		.loc 1 149 0 discriminator 1
 1284 062a B4EEE55A 		vcmpe.f32	s10, s11
 1285 062e F1EE10FA 		vmrs	APSR_nzcv, FPSCR
 1286 0632 00F39F80 		bgt	.L35
 1287              		.loc 1 151 0
 1288 0636 96ED056A 		vldr.32	s12, [r6, #20]
 1289              		.loc 1 150 0
 1290 063a B4EEC67A 		vcmpe.f32	s14, s12
 1291 063e F1EE10FA 		vmrs	APSR_nzcv, FPSCR
 1292 0642 00F39780 		bgt	.L35
 1293              		.loc 1 153 0
 1294 0646 3368     		ldr	r3, [r6]
 1295 0648 9845     		cmp	r8, r3
 1296 064a 7FF412AE 		bne	.L121
 1297              	.LVL109:
 1298              		.loc 1 154 0
 1299 064e CDE90289 		strd	r8, r9, [sp, #8]
 1300 0652 CDED067A 		vstr.32	s15, [sp, #24]
 1301 0656 8DED077A 		vstr.32	s14, [sp, #28]
 1302 065a CDED086A 		vstr.32	s13, [sp, #32]
 1303 065e 8DF824A0 		strb	r10, [sp, #36]
 1304 0662 8DF825E0 		strb	lr, [sp, #37]
 1305 0666 8DF826C0 		strb	ip, [sp, #38]
 1306 066a 8DED048A 		vstr.32	s16, [sp, #16]
 1307 066e 8DED050A 		vstr.32	s0, [sp, #20]
 1308 0672 02AD     		add	r5, sp, #8
 1309 0674 0FCD     		ldmia	r5!, {r0, r1, r2, r3}
 1310 0676 0FC6     		stmia	r6!, {r0, r1, r2, r3}
 1311 0678 95E80F00 		ldm	r5, {r0, r1, r2, r3}
ARM GAS  /tmp/ccZzxXw2.s 			page 24


 1312 067c 86E80F00 		stm	r6, {r0, r1, r2, r3}
 1313              	.LVL110:
 1314              	.LBE214:
 1315              		.loc 1 159 0
 1316 0680 2046     		mov	r0, r4
 1317              	.LVL111:
 1318 0682 F7E5     		b	.L126
 1319              	.L130:
 1320              		.align	2
 1321              	.L129:
 1322 0684 00000000 		.word	.LANCHOR4
 1323 0688 00000000 		.word	ch
 1324 068c 00401C46 		.word	1176256512
 1325 0690 0000C842 		.word	1120403456
 1326 0694 00007A44 		.word	1148846080
 1327 0698 00007F43 		.word	1132396544
 1328 069c 00000000 		.word	.LANCHOR1
 1329 06a0 00000000 		.word	.LANCHOR2
 1330 06a4 00000000 		.word	.LANCHOR3
 1331              	.LVL112:
 1332              	.L22:
 1333              		.loc 1 274 0
 1334 06a8 5B4E     		ldr	r6, .L131
 1335 06aa D6F80031 		ldr	r3, [r6, #256]
 1336 06ae E8B2     		uxtb	r0, r5
 1337 06b0 9842     		cmp	r0, r3
 1338 06b2 5A4D     		ldr	r5, .L131+4
 1339              	.LVL113:
 1340 06b4 13D0     		beq	.L64
 1341              		.loc 1 274 0 is_stmt 0 discriminator 1
 1342 06b6 D6F81421 		ldr	r2, [r6, #276]
 1343              	.LVL114:
 1344              	.LBB254:
 1345              	.LBB255:
 1346              	.LBB256:
 1347              	.LBB257:
 1348              		.loc 2 231 0 is_stmt 1 discriminator 1
 1349 06ba AB6A     		ldr	r3, [r5, #40]
 1350              	.LVL115:
 1351              	.LBE257:
 1352              	.LBE256:
 1353              	.LBE255:
 1354              	.LBE254:
 1355              		.loc 1 274 0 discriminator 1
 1356 06bc 9FED586A 		vldr.32	s12, .L131+8
 1357              	.LBB259:
 1358              	.LBB258:
 1359              		.loc 2 267 0 discriminator 1
 1360 06c0 9B1A     		subs	r3, r3, r2
 1361              	.LBE258:
 1362              	.LBE259:
 1363              		.loc 1 274 0 discriminator 1
 1364 06c2 07EE903A 		vmov	s15, r3	@ int
 1365 06c6 F8EE677A 		vcvt.f32.u32	s15, s15
 1366 06ca B0EE007A 		vmov.f32	s14, #2.0e+0
 1367 06ce C7EE866A 		vdiv.f32	s13, s15, s12
 1368 06d2 F4EEC76A 		vcmpe.f32	s13, s14
ARM GAS  /tmp/ccZzxXw2.s 			page 25


 1369 06d6 F1EE10FA 		vmrs	APSR_nzcv, FPSCR
 1370 06da 7FF7CAAD 		ble	.L121
 1371              	.L64:
 1372              	.LBB260:
 1373              		.loc 1 275 0
 1374 06de 0DF12808 		add	r8, sp, #40
 1375              	.LVL116:
 1376 06e2 0023     		movs	r3, #0
 1377 06e4 48F8203D 		str	r3, [r8, #-32]!
 1378              		.loc 1 276 0
 1379 06e8 C6F80001 		str	r0, [r6, #256]
 1380              	.LBB261:
 1381              	.LBB262:
 1382              		.loc 2 231 0
 1383 06ec AB6A     		ldr	r3, [r5, #40]
 1384              	.LBE262:
 1385              	.LBE261:
 1386              		.loc 1 277 0
 1387 06ee C6F81431 		str	r3, [r6, #276]
 1388              		.loc 1 278 0
 1389 06f2 4146     		mov	r1, r8
 1390 06f4 3846     		mov	r0, r7
 1391 06f6 FFF7FEFF 		bl	buffer_get_float32_auto
 1392              	.LVL117:
 1393              		.loc 1 279 0
 1394 06fa 3846     		mov	r0, r7
 1395 06fc 4146     		mov	r1, r8
 1396              		.loc 1 278 0
 1397 06fe 86ED410A 		vstr.32	s0, [r6, #260]
 1398              		.loc 1 279 0
 1399 0702 FFF7FEFF 		bl	buffer_get_float32_auto
 1400              	.LVL118:
 1401              	.LBE260:
 1402              		.loc 1 272 0
 1403 0706 2046     		mov	r0, r4
 1404              	.LBB263:
 1405              		.loc 1 279 0
 1406 0708 86ED420A 		vstr.32	s0, [r6, #264]
 1407 070c 82E4     		b	.L103
 1408              	.LVL119:
 1409              	.L23:
 1410              	.LBE263:
 1411              		.loc 1 286 0
 1412 070e 424E     		ldr	r6, .L131
 1413 0710 D6F80031 		ldr	r3, [r6, #256]
 1414 0714 E8B2     		uxtb	r0, r5
 1415 0716 9842     		cmp	r0, r3
 1416 0718 404D     		ldr	r5, .L131+4
 1417              	.LVL120:
 1418 071a 13D0     		beq	.L66
 1419              		.loc 1 286 0 is_stmt 0 discriminator 1
 1420 071c D6F81421 		ldr	r2, [r6, #276]
 1421              	.LVL121:
 1422              	.LBB264:
 1423              	.LBB265:
 1424              	.LBB266:
 1425              	.LBB267:
ARM GAS  /tmp/ccZzxXw2.s 			page 26


 1426              		.loc 2 231 0 is_stmt 1 discriminator 1
 1427 0720 AB6A     		ldr	r3, [r5, #40]
 1428              	.LVL122:
 1429              	.LBE267:
 1430              	.LBE266:
 1431              	.LBE265:
 1432              	.LBE264:
 1433              		.loc 1 286 0 discriminator 1
 1434 0722 9FED3F6A 		vldr.32	s12, .L131+8
 1435              	.LBB269:
 1436              	.LBB268:
 1437              		.loc 2 267 0 discriminator 1
 1438 0726 9B1A     		subs	r3, r3, r2
 1439              	.LBE268:
 1440              	.LBE269:
 1441              		.loc 1 286 0 discriminator 1
 1442 0728 07EE903A 		vmov	s15, r3	@ int
 1443 072c F8EE677A 		vcvt.f32.u32	s15, s15
 1444 0730 B0EE007A 		vmov.f32	s14, #2.0e+0
 1445 0734 C7EE866A 		vdiv.f32	s13, s15, s12
 1446 0738 F4EEC76A 		vcmpe.f32	s13, s14
 1447 073c F1EE10FA 		vmrs	APSR_nzcv, FPSCR
 1448 0740 7FF797AD 		ble	.L121
 1449              	.L66:
 1450              	.LBB270:
 1451              		.loc 1 287 0
 1452 0744 0DF12808 		add	r8, sp, #40
 1453              	.LVL123:
 1454 0748 0023     		movs	r3, #0
 1455 074a 48F8203D 		str	r3, [r8, #-32]!
 1456              		.loc 1 288 0
 1457 074e C6F80001 		str	r0, [r6, #256]
 1458              	.LBB271:
 1459              	.LBB272:
 1460              		.loc 2 231 0
 1461 0752 AB6A     		ldr	r3, [r5, #40]
 1462              	.LBE272:
 1463              	.LBE271:
 1464              		.loc 1 289 0
 1465 0754 C6F81431 		str	r3, [r6, #276]
 1466              		.loc 1 290 0
 1467 0758 4146     		mov	r1, r8
 1468 075a 3846     		mov	r0, r7
 1469 075c FFF7FEFF 		bl	buffer_get_float32_auto
 1470              	.LVL124:
 1471              		.loc 1 291 0
 1472 0760 3846     		mov	r0, r7
 1473 0762 4146     		mov	r1, r8
 1474              		.loc 1 290 0
 1475 0764 86ED430A 		vstr.32	s0, [r6, #268]
 1476              		.loc 1 291 0
 1477 0768 FFF7FEFF 		bl	buffer_get_float32_auto
 1478              	.LVL125:
 1479              	.LBE270:
 1480              		.loc 1 284 0
 1481 076c 2046     		mov	r0, r4
 1482              	.LBB273:
ARM GAS  /tmp/ccZzxXw2.s 			page 27


 1483              		.loc 1 291 0
 1484 076e 86ED440A 		vstr.32	s0, [r6, #272]
 1485 0772 4FE4     		b	.L103
 1486              	.LVL126:
 1487              	.L35:
 1488              	.LBE273:
 1489              	.LBB274:
 1490              		.loc 1 152 0
 1491 0774 CDE90289 		strd	r8, r9, [sp, #8]
 1492 0778 CDED067A 		vstr.32	s15, [sp, #24]
 1493 077c 8DED077A 		vstr.32	s14, [sp, #28]
 1494 0780 CDED086A 		vstr.32	s13, [sp, #32]
 1495 0784 8DF824A0 		strb	r10, [sp, #36]
 1496 0788 8DF825E0 		strb	lr, [sp, #37]
 1497 078c 8DF826C0 		strb	ip, [sp, #38]
 1498 0790 8DED048A 		vstr.32	s16, [sp, #16]
 1499 0794 8DED050A 		vstr.32	s0, [sp, #20]
 1500 0798 02AE     		add	r6, sp, #8
 1501 079a 0FCE     		ldmia	r6!, {r0, r1, r2, r3}
 1502 079c 214D     		ldr	r5, .L131+12
 1503 079e 0FC5     		stmia	r5!, {r0, r1, r2, r3}
 1504 07a0 96E80F00 		ldm	r6, {r0, r1, r2, r3}
 1505 07a4 85E80F00 		stm	r5, {r0, r1, r2, r3}
 1506              	.LBE274:
 1507              		.loc 1 159 0
 1508 07a8 2046     		mov	r0, r4
 1509              	.LVL127:
 1510 07aa 63E5     		b	.L126
 1511              	.LVL128:
 1512              	.L31:
 1513              	.LBB275:
 1514              		.loc 1 144 0
 1515 07ac CDE90289 		strd	r8, r9, [sp, #8]
 1516 07b0 CDED067A 		vstr.32	s15, [sp, #24]
 1517 07b4 8DED077A 		vstr.32	s14, [sp, #28]
 1518 07b8 CDED086A 		vstr.32	s13, [sp, #32]
 1519 07bc 8DF824A0 		strb	r10, [sp, #36]
 1520 07c0 8DF825E0 		strb	lr, [sp, #37]
 1521 07c4 8DF826C0 		strb	ip, [sp, #38]
 1522 07c8 8DED048A 		vstr.32	s16, [sp, #16]
 1523 07cc 8DED050A 		vstr.32	s0, [sp, #20]
 1524 07d0 02AF     		add	r7, sp, #8
 1525 07d2 0FCF     		ldmia	r7!, {r0, r1, r2, r3}
 1526 07d4 144E     		ldr	r6, .L131+16
 1527 07d6 0FC6     		stmia	r6!, {r0, r1, r2, r3}
 1528 07d8 97E80F00 		ldm	r7, {r0, r1, r2, r3}
 1529 07dc 86E80F00 		stm	r6, {r0, r1, r2, r3}
 1530 07e0 11E7     		b	.L34
 1531              	.LVL129:
 1532              	.L27:
 1533              		.loc 1 136 0
 1534 07e2 CDE90289 		strd	r8, r9, [sp, #8]
 1535 07e6 CDED067A 		vstr.32	s15, [sp, #24]
 1536 07ea 8DED077A 		vstr.32	s14, [sp, #28]
 1537 07ee CDED086A 		vstr.32	s13, [sp, #32]
 1538 07f2 8DF824A0 		strb	r10, [sp, #36]
 1539 07f6 8DF825E0 		strb	lr, [sp, #37]
ARM GAS  /tmp/ccZzxXw2.s 			page 28


 1540 07fa 8DF826C0 		strb	ip, [sp, #38]
 1541 07fe 8DED048A 		vstr.32	s16, [sp, #16]
 1542 0802 8DED050A 		vstr.32	s0, [sp, #20]
 1543 0806 02AF     		add	r7, sp, #8
 1544 0808 0FCF     		ldmia	r7!, {r0, r1, r2, r3}
 1545 080a 084E     		ldr	r6, .L131+20
 1546 080c 0FC6     		stmia	r6!, {r0, r1, r2, r3}
 1547 080e 97E80F00 		ldm	r7, {r0, r1, r2, r3}
 1548 0812 86E80F00 		stm	r6, {r0, r1, r2, r3}
 1549 0816 BAE6     		b	.L30
 1550              	.L132:
 1551              		.align	2
 1552              	.L131:
 1553 0818 00000000 		.word	.LANCHOR4
 1554 081c 00000000 		.word	ch
 1555 0820 00401C46 		.word	1176256512
 1556 0824 00000000 		.word	.LANCHOR3
 1557 0828 00000000 		.word	.LANCHOR2
 1558 082c 00000000 		.word	.LANCHOR1
 1559              	.LBE275:
 1560              	.LBE276:
 1561              		.cfi_endproc
 1562              	.LFE257:
 1563              		.size	bms_process_can_frame, .-bms_process_can_frame
 1564              		.section	.text.bms_update_limits,"ax",%progbits
 1565              		.align	1
 1566              		.p2align 4,,15
 1567              		.global	bms_update_limits
 1568              		.syntax unified
 1569              		.thumb
 1570              		.thumb_func
 1571              		.fpu fpv4-sp-d16
 1572              		.type	bms_update_limits, %function
 1573              	bms_update_limits:
 1574              	.LFB258:
 1575              		.loc 1 305 0
 1576              		.cfi_startproc
 1577              		@ args = 0, pretend = 0, frame = 0
 1578              		@ frame_needed = 0, uses_anonymous_args = 0
 1579              	.LVL130:
 1580 0000 70B5     		push	{r4, r5, r6, lr}
 1581              		.cfi_def_cfa_offset 16
 1582              		.cfi_offset 4, -16
 1583              		.cfi_offset 5, -12
 1584              		.cfi_offset 6, -8
 1585              		.cfi_offset 14, -4
 1586              		.loc 1 310 0
 1587 0002 654A     		ldr	r2, .L172
 1588              	.LBB277:
 1589              	.LBB278:
 1590              	.LBB279:
 1591              	.LBB280:
 1592              		.loc 2 231 0
 1593 0004 654C     		ldr	r4, .L172+4
 1594              	.LBE280:
 1595              	.LBE279:
 1596              	.LBE278:
ARM GAS  /tmp/ccZzxXw2.s 			page 29


 1597              	.LBE277:
 1598              		.loc 1 310 0
 1599 0006 5568     		ldr	r5, [r2, #4]
 1600              	.LBB285:
 1601              	.LBB283:
 1602              	.LBB282:
 1603              	.LBB281:
 1604              		.loc 2 231 0
 1605 0008 A36A     		ldr	r3, [r4, #40]
 1606              	.LBE281:
 1607              	.LBE282:
 1608              	.LBE283:
 1609              	.LBE285:
 1610              		.loc 1 310 0
 1611 000a 9FED656A 		vldr.32	s12, .L172+8
 1612              	.LBB286:
 1613              	.LBB284:
 1614              		.loc 2 267 0
 1615 000e 5B1B     		subs	r3, r3, r5
 1616              	.LBE284:
 1617              	.LBE286:
 1618              		.loc 1 310 0
 1619 0010 07EE903A 		vmov	s15, r3	@ int
 1620 0014 F8EE677A 		vcvt.f32.u32	s15, s15
 1621 0018 B0EE007A 		vmov.f32	s14, #2.0e+0
 1622 001c C7EE866A 		vdiv.f32	s13, s15, s12
 1623              		.loc 1 305 0
 1624 0020 0646     		mov	r6, r0
 1625 0022 0D46     		mov	r5, r1
 1626 0024 2DED048B 		vpush.64	{d8, d9}
 1627              		.cfi_def_cfa_offset 32
 1628              		.cfi_offset 80, -32
 1629              		.cfi_offset 81, -28
 1630              		.cfi_offset 82, -24
 1631              		.cfi_offset 83, -20
 1632              		.loc 1 310 0
 1633 0028 F4EEC76A 		vcmpe.f32	s13, s14
 1634 002c F1EE10FA 		vmrs	APSR_nzcv, FPSCR
 1635              		.loc 1 305 0
 1636 0030 F0EE408A 		vmov.f32	s17, s0
 1637              	.LVL131:
 1638 0034 B0EE609A 		vmov.f32	s18, s1
 1639              	.LVL132:
 1640              		.loc 1 310 0
 1641 0038 0DD5     		bpl	.L136
 1642              	.LBB287:
 1643              		.loc 1 313 0
 1644 003a 5A4B     		ldr	r3, .L172+12
 1645              		.loc 1 311 0
 1646 003c 92ED040A 		vldr.32	s0, [r2, #16]
 1647              	.LVL133:
 1648              		.loc 1 313 0
 1649 0040 9FED597A 		vldr.32	s14, .L172+16
 1650 0044 D3ED017A 		vldr.32	s15, [r3, #4]
 1651 0048 77EE877A 		vadd.f32	s15, s15, s14
 1652 004c F4EEC07A 		vcmpe.f32	s15, s0
 1653 0050 F1EE10FA 		vmrs	APSR_nzcv, FPSCR
ARM GAS  /tmp/ccZzxXw2.s 			page 30


 1654 0054 4DDD     		ble	.L170
 1655              	.LVL134:
 1656              	.L136:
 1657 0056 B0EEE88A 		vabs.f32	s16, s17
 1658              	.LBE287:
 1659              		.loc 1 307 0
 1660 005a B0EE490A 		vmov.f32	s0, s18
 1661              	.LVL135:
 1662              	.L135:
 1663              		.loc 1 341 0
 1664 005e 534A     		ldr	r2, .L172+20
 1665 0060 9FED4F6A 		vldr.32	s12, .L172+8
 1666 0064 5168     		ldr	r1, [r2, #4]
 1667              	.LVL136:
 1668              	.LBB289:
 1669              	.LBB290:
 1670              	.LBB291:
 1671              	.LBB292:
 1672              		.loc 2 231 0
 1673 0066 A36A     		ldr	r3, [r4, #40]
 1674              	.LVL137:
 1675              	.LBE292:
 1676              	.LBE291:
 1677              		.loc 2 267 0
 1678 0068 5B1A     		subs	r3, r3, r1
 1679              	.LBE290:
 1680              	.LBE289:
 1681              		.loc 1 341 0
 1682 006a 07EE903A 		vmov	s15, r3	@ int
 1683 006e F8EE677A 		vcvt.f32.u32	s15, s15
 1684 0072 B0EE007A 		vmov.f32	s14, #2.0e+0
 1685 0076 C7EE866A 		vdiv.f32	s13, s15, s12
 1686 007a F4EEC76A 		vcmpe.f32	s13, s14
 1687 007e F1EE10FA 		vmrs	APSR_nzcv, FPSCR
 1688 0082 0DD5     		bpl	.L169
 1689              	.LBB293:
 1690              		.loc 1 344 0
 1691 0084 474B     		ldr	r3, .L172+12
 1692              		.loc 1 342 0
 1693 0086 92ED057A 		vldr.32	s14, [r2, #20]
 1694              	.LVL138:
 1695              		.loc 1 344 0
 1696 008a DFED496A 		vldr.32	s13, .L172+24
 1697 008e D3ED037A 		vldr.32	s15, [r3, #12]
 1698 0092 77EEE67A 		vsub.f32	s15, s15, s13
 1699 0096 F4EEC77A 		vcmpe.f32	s15, s14
 1700 009a F1EE10FA 		vmrs	APSR_nzcv, FPSCR
 1701 009e 1AD5     		bpl	.L167
 1702              	.LVL139:
 1703              	.L169:
 1704 00a0 B0EEC07A 		vabs.f32	s14, s0
 1705              	.LVL140:
 1706              	.L146:
 1707              	.LBE293:
 1708              		.loc 1 354 0
 1709 00a4 D6ED007A 		vldr.32	s15, [r6]
 1710 00a8 F0EEE77A 		vabs.f32	s15, s15
ARM GAS  /tmp/ccZzxXw2.s 			page 31


 1711 00ac F4EEC87A 		vcmpe.f32	s15, s16
 1712 00b0 F1EE10FA 		vmrs	APSR_nzcv, FPSCR
 1713              		.loc 1 355 0
 1714 00b4 C8BF     		it	gt
 1715 00b6 C6ED008A 		vstrgt.32	s17, [r6]
 1716              		.loc 1 358 0
 1717 00ba D5ED007A 		vldr.32	s15, [r5]
 1718              		.loc 1 361 0
 1719 00be BDEC048B 		vldm	sp!, {d8-d9}
 1720              		.cfi_remember_state
 1721              		.cfi_restore 82
 1722              		.cfi_restore 83
 1723              		.cfi_restore 80
 1724              		.cfi_restore 81
 1725              		.cfi_def_cfa_offset 16
 1726              	.LVL141:
 1727              		.loc 1 358 0
 1728 00c2 F0EEE77A 		vabs.f32	s15, s15
 1729 00c6 F4EEC77A 		vcmpe.f32	s15, s14
 1730 00ca F1EE10FA 		vmrs	APSR_nzcv, FPSCR
 1731              		.loc 1 359 0
 1732 00ce C8BF     		it	gt
 1733 00d0 85ED000A 		vstrgt.32	s0, [r5]
 1734              		.loc 1 361 0
 1735 00d4 70BD     		pop	{r4, r5, r6, pc}
 1736              	.LVL142:
 1737              	.L167:
 1738              		.cfi_restore_state
 1739              	.LBB294:
 1740              		.loc 1 346 0
 1741 00d6 D3ED047A 		vldr.32	s15, [r3, #16]
 1742 00da 77EEA66A 		vadd.f32	s13, s15, s13
 1743 00de F4EEC76A 		vcmpe.f32	s13, s14
 1744 00e2 F1EE10FA 		vmrs	APSR_nzcv, FPSCR
 1745 00e6 47DD     		ble	.L171
 1746 00e8 9FED320A 		vldr.32	s0, .L172+28
 1747              	.LVL143:
 1748              		.loc 1 347 0
 1749 00ec B0EE407A 		vmov.f32	s14, s0
 1750              	.LVL144:
 1751 00f0 D8E7     		b	.L146
 1752              	.LVL145:
 1753              	.L170:
 1754              	.LBE294:
 1755              	.LBB295:
 1756              		.loc 1 315 0
 1757 00f2 D3ED027A 		vldr.32	s15, [r3, #8]
 1758 00f6 37EEC77A 		vsub.f32	s14, s15, s14
 1759 00fa B4EEC07A 		vcmpe.f32	s14, s0
 1760 00fe F1EE10FA 		vmrs	APSR_nzcv, FPSCR
 1761 0102 32D4     		bmi	.L153
 1762              	.LBB288:
 1763              		.loc 1 321 0
 1764 0104 F0EEE09A 		vabs.f32	s19, s1
 1765              	.LVL146:
 1766              		.loc 1 322 0
 1767 0108 B0EEE88A 		vabs.f32	s16, s17
ARM GAS  /tmp/ccZzxXw2.s 			page 32


 1768              		.loc 1 321 0
 1769 010c B4EEE98A 		vcmpe.f32	s16, s19
 1770 0110 F1EE10FA 		vmrs	APSR_nzcv, FPSCR
 1771              	.LVL147:
 1772              		.loc 1 326 0
 1773 0114 D3ED010A 		vldr.32	s1, [r3, #4]
 1774              	.LVL148:
 1775 0118 9FED262A 		vldr.32	s4, .L172+28
 1776 011c 93ED021A 		vldr.32	s2, [r3, #8]
 1777 0120 D4BF     		ite	le
 1778 0122 F0EE691A 		vmovle.f32	s3, s19
 1779 0126 F0EE481A 		vmovgt.f32	s3, s16
 1780              	.LVL149:
 1781 012a FFF7FEFF 		bl	utils_map
 1782              	.LVL150:
 1783              		.loc 1 328 0
 1784 012e B4EEC08A 		vcmpe.f32	s16, s0
 1785 0132 F1EE10FA 		vmrs	APSR_nzcv, FPSCR
 1786 0136 0ADD     		ble	.L138
 1787              		.loc 1 329 0
 1788 0138 F5EEC08A 		vcmpe.f32	s17, #0
 1789 013c F1EE10FA 		vmrs	APSR_nzcv, FPSCR
 1790 0140 4CBF     		ite	mi
 1791 0142 F1EE408A 		vnegmi.f32	s17, s0
 1792              	.LVL151:
 1793 0146 F0EE408A 		vmovpl.f32	s17, s0
 1794              	.LVL152:
 1795 014a B0EEE88A 		vabs.f32	s16, s17
 1796              	.L138:
 1797              	.LVL153:
 1798              		.loc 1 332 0
 1799 014e F4EEC09A 		vcmpe.f32	s19, s0
 1800 0152 F1EE10FA 		vmrs	APSR_nzcv, FPSCR
 1801 0156 1CDD     		ble	.L166
 1802              		.loc 1 333 0
 1803 0158 B5EEC09A 		vcmpe.f32	s18, #0
 1804 015c F1EE10FA 		vmrs	APSR_nzcv, FPSCR
 1805 0160 7FF57DAF 		bpl	.L135
 1806 0164 B1EE400A 		vneg.f32	s0, s0
 1807              	.LVL154:
 1808 0168 79E7     		b	.L135
 1809              	.LVL155:
 1810              	.L153:
 1811              	.LBE288:
 1812 016a 9FED128A 		vldr.32	s16, .L172+28
 1813              		.loc 1 317 0
 1814 016e B0EE480A 		vmov.f32	s0, s16
 1815              	.LVL156:
 1816              		.loc 1 316 0
 1817 0172 F0EE488A 		vmov.f32	s17, s16
 1818              	.LVL157:
 1819 0176 72E7     		b	.L135
 1820              	.LVL158:
 1821              	.L171:
 1822              	.LBE295:
 1823              	.LBB296:
 1824              		.loc 1 349 0
ARM GAS  /tmp/ccZzxXw2.s 			page 33


 1825 0178 D3ED030A 		vldr.32	s1, [r3, #12]
 1826 017c 9FED0D2A 		vldr.32	s4, .L172+28
 1827 0180 93ED041A 		vldr.32	s2, [r3, #16]
 1828 0184 F0EE491A 		vmov.f32	s3, s18
 1829 0188 B0EE470A 		vmov.f32	s0, s14
 1830              	.LVL159:
 1831 018c FFF7FEFF 		bl	utils_map
 1832              	.LVL160:
 1833 0190 86E7     		b	.L169
 1834              	.LVL161:
 1835              	.L166:
 1836              	.LBE296:
 1837              		.loc 1 307 0
 1838 0192 B0EE490A 		vmov.f32	s0, s18
 1839              	.LVL162:
 1840 0196 62E7     		b	.L135
 1841              	.L173:
 1842              		.align	2
 1843              	.L172:
 1844 0198 00000000 		.word	.LANCHOR1
 1845 019c 00000000 		.word	ch
 1846 01a0 00401C46 		.word	1176256512
 1847 01a4 00000000 		.word	.LANCHOR0
 1848 01a8 CDCCCC3D 		.word	1036831949
 1849 01ac 00000000 		.word	.LANCHOR2
 1850 01b0 6F12833A 		.word	981668463
 1851 01b4 00000000 		.word	0
 1852              		.cfi_endproc
 1853              	.LFE258:
 1854              		.size	bms_update_limits, .-bms_update_limits
 1855              		.section	.text.bms_process_cmd,"ax",%progbits
 1856              		.align	1
 1857              		.p2align 4,,15
 1858              		.global	bms_process_cmd
 1859              		.syntax unified
 1860              		.thumb
 1861              		.thumb_func
 1862              		.fpu fpv4-sp-d16
 1863              		.type	bms_process_cmd, %function
 1864              	bms_process_cmd:
 1865              	.LFB259:
 1866              		.loc 1 364 0
 1867              		.cfi_startproc
 1868              		@ args = 0, pretend = 0, frame = 136
 1869              		@ frame_needed = 0, uses_anonymous_args = 0
 1870              	.LVL163:
 1871 0000 2DE9F043 		push	{r4, r5, r6, r7, r8, r9, lr}
 1872              		.cfi_def_cfa_offset 28
 1873              		.cfi_offset 4, -28
 1874              		.cfi_offset 5, -24
 1875              		.cfi_offset 6, -20
 1876              		.cfi_offset 7, -16
 1877              		.cfi_offset 8, -12
 1878              		.cfi_offset 9, -8
 1879              		.cfi_offset 14, -4
 1880 0004 2DED028B 		vpush.64	{d8}
 1881              		.cfi_def_cfa_offset 36
ARM GAS  /tmp/ccZzxXw2.s 			page 34


 1882              		.cfi_offset 80, -36
 1883              		.cfi_offset 81, -32
 1884              		.loc 1 367 0
 1885 0008 0678     		ldrb	r6, [r0]	@ zero_extendqisi2
 1886              	.LVL164:
 1887              		.loc 1 371 0
 1888 000a 602E     		cmp	r6, #96
 1889              		.loc 1 364 0
 1890 000c A3B0     		sub	sp, sp, #140
 1891              		.cfi_def_cfa_offset 176
 1892              		.loc 1 364 0
 1893 000e 0746     		mov	r7, r0
 1894              	.LVL165:
 1895 0010 8946     		mov	r9, r1
 1896              	.LVL166:
 1897              		.loc 1 371 0
 1898 0012 29D0     		beq	.L191
 1899              	.LVL167:
 1900              	.L175:
 1901              		.loc 1 430 0
 1902 0014 844B     		ldr	r3, .L193
 1903 0016 1B78     		ldrb	r3, [r3]	@ zero_extendqisi2
 1904 0018 012B     		cmp	r3, #1
 1905 001a 04D0     		beq	.L192
 1906              	.LVL168:
 1907              	.L174:
 1908              		.loc 1 445 0
 1909 001c 23B0     		add	sp, sp, #140
 1910              		.cfi_remember_state
 1911              		.cfi_def_cfa_offset 36
 1912              		@ sp needed
 1913 001e BDEC028B 		vldm	sp!, {d8}
 1914              		.cfi_restore 80
 1915              		.cfi_restore 81
 1916              		.cfi_def_cfa_offset 28
 1917 0022 BDE8F083 		pop	{r4, r5, r6, r7, r8, r9, pc}
 1918              	.LVL169:
 1919              	.L192:
 1920              		.cfi_restore_state
 1921              		.loc 1 430 0 discriminator 1
 1922 0026 814A     		ldr	r2, .L193+4
 1923              	.LBB297:
 1924              	.LBB298:
 1925              	.LBB299:
 1926              	.LBB300:
 1927              		.loc 2 231 0 discriminator 1
 1928 0028 814B     		ldr	r3, .L193+8
 1929              	.LBE300:
 1930              	.LBE299:
 1931              	.LBE298:
 1932              	.LBE297:
 1933              		.loc 1 430 0 discriminator 1
 1934 002a D2F81411 		ldr	r1, [r2, #276]
 1935              	.LVL170:
 1936              	.LBB305:
 1937              	.LBB303:
 1938              	.LBB302:
ARM GAS  /tmp/ccZzxXw2.s 			page 35


 1939              	.LBB301:
 1940              		.loc 2 231 0 discriminator 1
 1941 002e 9B6A     		ldr	r3, [r3, #40]
 1942              	.LVL171:
 1943              	.LBE301:
 1944              	.LBE302:
 1945              	.LBE303:
 1946              	.LBE305:
 1947              		.loc 1 430 0 discriminator 1
 1948 0030 9FED806A 		vldr.32	s12, .L193+12
 1949              	.LBB306:
 1950              	.LBB304:
 1951              		.loc 2 267 0 discriminator 1
 1952 0034 5B1A     		subs	r3, r3, r1
 1953              	.LBE304:
 1954              	.LBE306:
 1955              		.loc 1 430 0 discriminator 1
 1956 0036 07EE903A 		vmov	s15, r3	@ int
 1957 003a F8EE677A 		vcvt.f32.u32	s15, s15
 1958 003e B0EE007A 		vmov.f32	s14, #2.0e+0
 1959 0042 C7EE866A 		vdiv.f32	s13, s15, s12
 1960 0046 F4EEC76A 		vcmpe.f32	s13, s14
 1961 004a F1EE10FA 		vmrs	APSR_nzcv, FPSCR
 1962 004e E5D5     		bpl	.L174
 1963              		.loc 1 431 0
 1964 0050 613E     		subs	r6, r6, #97
 1965              	.LVL172:
 1966 0052 042E     		cmp	r6, #4
 1967 0054 E2D8     		bhi	.L174
 1968              		.loc 1 437 0
 1969 0056 D2F80001 		ldr	r0, [r2, #256]
 1970 005a 3946     		mov	r1, r7
 1971 005c 4A46     		mov	r2, r9
 1972 005e C0B2     		uxtb	r0, r0
 1973 0060 0023     		movs	r3, #0
 1974 0062 FFF7FEFF 		bl	comm_can_send_buffer
 1975              	.LVL173:
 1976              		.loc 1 445 0
 1977 0066 D9E7     		b	.L174
 1978              	.LVL174:
 1979              	.L191:
 1980              	.LBB307:
 1981              		.loc 1 378 0
 1982 0068 704C     		ldr	r4, .L193+4
 1983 006a DFED730A 		vldr.32	s1, .L193+16
 1984 006e 94ED000A 		vldr.32	s0, [r4]
 1985              		.loc 1 376 0
 1986 0072 8DF80860 		strb	r6, [sp, #8]
 1987 0076 0123     		movs	r3, #1
 1988              		.loc 1 378 0
 1989 0078 01A9     		add	r1, sp, #4
 1990              	.LVL175:
 1991 007a 02A8     		add	r0, sp, #8
 1992              	.LVL176:
 1993 007c 9046     		mov	r8, r2
 1994              		.loc 1 376 0
 1995 007e 0193     		str	r3, [sp, #4]
ARM GAS  /tmp/ccZzxXw2.s 			page 36


 1996              		.loc 1 378 0
 1997 0080 FFF7FEFF 		bl	buffer_append_float32
 1998              	.LVL177:
 1999              		.loc 1 379 0
 2000 0084 94ED010A 		vldr.32	s0, [r4, #4]
 2001 0088 DFED6B0A 		vldr.32	s1, .L193+16
 2002 008c 01A9     		add	r1, sp, #4
 2003 008e 02A8     		add	r0, sp, #8
 2004 0090 FFF7FEFF 		bl	buffer_append_float32
 2005              	.LVL178:
 2006              		.loc 1 380 0
 2007 0094 94ED020A 		vldr.32	s0, [r4, #8]
 2008 0098 DFED670A 		vldr.32	s1, .L193+16
 2009 009c 01A9     		add	r1, sp, #4
 2010 009e 02A8     		add	r0, sp, #8
 2011 00a0 FFF7FEFF 		bl	buffer_append_float32
 2012              	.LVL179:
 2013              		.loc 1 381 0
 2014 00a4 94ED030A 		vldr.32	s0, [r4, #12]
 2015 00a8 DFED630A 		vldr.32	s1, .L193+16
 2016 00ac 01A9     		add	r1, sp, #4
 2017 00ae 02A8     		add	r0, sp, #8
 2018 00b0 FFF7FEFF 		bl	buffer_append_float32
 2019              	.LVL180:
 2020              		.loc 1 382 0
 2021 00b4 94ED040A 		vldr.32	s0, [r4, #16]
 2022 00b8 DFED600A 		vldr.32	s1, .L193+20
 2023 00bc 01A9     		add	r1, sp, #4
 2024 00be 02A8     		add	r0, sp, #8
 2025 00c0 FFF7FEFF 		bl	buffer_append_float32
 2026              	.LVL181:
 2027              		.loc 1 383 0
 2028 00c4 01A9     		add	r1, sp, #4
 2029 00c6 02A8     		add	r0, sp, #8
 2030 00c8 94ED050A 		vldr.32	s0, [r4, #20]
 2031 00cc DFED5B0A 		vldr.32	s1, .L193+20
 2032 00d0 FFF7FEFF 		bl	buffer_append_float32
 2033              	.LVL182:
 2034              		.loc 1 386 0
 2035 00d4 019A     		ldr	r2, [sp, #4]
 2036 00d6 A069     		ldr	r0, [r4, #24]
 2037              	.LBB308:
 2038              		.loc 1 387 0
 2039 00d8 A369     		ldr	r3, [r4, #24]
 2040              	.LBE308:
 2041              		.loc 1 386 0
 2042 00da 22A9     		add	r1, sp, #136
 2043 00dc 1144     		add	r1, r1, r2
 2044              	.LBB309:
 2045              		.loc 1 387 0
 2046 00de 002B     		cmp	r3, #0
 2047              	.LBE309:
 2048              		.loc 1 386 0
 2049 00e0 02F10102 		add	r2, r2, #1
 2050 00e4 01F8800C 		strb	r0, [r1, #-128]
 2051              	.LVL183:
 2052 00e8 0192     		str	r2, [sp, #4]
ARM GAS  /tmp/ccZzxXw2.s 			page 37


 2053              	.LBB310:
 2054              		.loc 1 387 0
 2055 00ea 12DD     		ble	.L177
 2056              		.loc 1 388 0
 2057 00ec 9FED538A 		vldr.32	s16, .L193+20
 2058              		.loc 1 387 0
 2059 00f0 0025     		movs	r5, #0
 2060              	.LVL184:
 2061              	.L178:
 2062              		.loc 1 388 0 discriminator 3
 2063 00f2 AB1D     		adds	r3, r5, #6
 2064 00f4 04EB8303 		add	r3, r4, r3, lsl #2
 2065 00f8 93ED010A 		vldr.32	s0, [r3, #4]
 2066 00fc 01A9     		add	r1, sp, #4
 2067 00fe F0EE480A 		vmov.f32	s1, s16
 2068 0102 02A8     		add	r0, sp, #8
 2069 0104 FFF7FEFF 		bl	buffer_append_float16
 2070              	.LVL185:
 2071              		.loc 1 387 0 discriminator 3
 2072 0108 A369     		ldr	r3, [r4, #24]
 2073 010a 0135     		adds	r5, r5, #1
 2074              	.LVL186:
 2075 010c AB42     		cmp	r3, r5
 2076 010e F0DC     		bgt	.L178
 2077 0110 019A     		ldr	r2, [sp, #4]
 2078              	.LVL187:
 2079              	.L177:
 2080              	.LBE310:
 2081              	.LBB311:
 2082              		.loc 1 392 0
 2083 0112 A369     		ldr	r3, [r4, #24]
 2084 0114 002B     		cmp	r3, #0
 2085 0116 10DD     		ble	.L179
 2086 0118 02AB     		add	r3, sp, #8
 2087 011a 511E     		subs	r1, r2, #1
 2088 011c 1944     		add	r1, r1, r3
 2089 011e 02F1010C 		add	ip, r2, #1
 2090 0122 0023     		movs	r3, #0
 2091              	.LVL188:
 2092              	.L180:
 2093              		.loc 1 393 0 discriminator 3
 2094 0124 E018     		adds	r0, r4, r3
 2095 0126 0CEB0302 		add	r2, ip, r3
 2096 012a 90F89C50 		ldrb	r5, [r0, #156]	@ zero_extendqisi2
 2097              		.loc 1 392 0 discriminator 3
 2098 012e A069     		ldr	r0, [r4, #24]
 2099              		.loc 1 393 0 discriminator 3
 2100 0130 01F8015F 		strb	r5, [r1, #1]!
 2101              		.loc 1 392 0 discriminator 3
 2102 0134 0133     		adds	r3, r3, #1
 2103              	.LVL189:
 2104 0136 9842     		cmp	r0, r3
 2105 0138 F4DC     		bgt	.L180
 2106              	.LVL190:
 2107              	.L179:
 2108              	.LBE311:
 2109              		.loc 1 397 0
ARM GAS  /tmp/ccZzxXw2.s 			page 38


 2110 013a D4F8BC00 		ldr	r0, [r4, #188]
 2111              	.LBB312:
 2112              		.loc 1 398 0
 2113 013e D4F8BC30 		ldr	r3, [r4, #188]
 2114              	.LBE312:
 2115              		.loc 1 397 0
 2116 0142 22A9     		add	r1, sp, #136
 2117 0144 1144     		add	r1, r1, r2
 2118              	.LBB313:
 2119              		.loc 1 398 0
 2120 0146 002B     		cmp	r3, #0
 2121              	.LBE313:
 2122              		.loc 1 397 0
 2123 0148 02F10102 		add	r2, r2, #1
 2124 014c 01F8800C 		strb	r0, [r1, #-128]
 2125              	.LVL191:
 2126 0150 0192     		str	r2, [sp, #4]
 2127              	.LBB314:
 2128              		.loc 1 398 0
 2129 0152 13DD     		ble	.L181
 2130              		.loc 1 399 0
 2131 0154 9FED3A8A 		vldr.32	s16, .L193+24
 2132              		.loc 1 398 0
 2133 0158 0025     		movs	r5, #0
 2134              	.LVL192:
 2135              	.L182:
 2136              		.loc 1 399 0 discriminator 3
 2137 015a 05F13003 		add	r3, r5, #48
 2138 015e 04EB8303 		add	r3, r4, r3, lsl #2
 2139 0162 93ED000A 		vldr.32	s0, [r3]
 2140 0166 01A9     		add	r1, sp, #4
 2141 0168 F0EE480A 		vmov.f32	s1, s16
 2142 016c 02A8     		add	r0, sp, #8
 2143 016e FFF7FEFF 		bl	buffer_append_float16
 2144              	.LVL193:
 2145              		.loc 1 398 0 discriminator 3
 2146 0172 D4F8BC30 		ldr	r3, [r4, #188]
 2147 0176 0135     		adds	r5, r5, #1
 2148              	.LVL194:
 2149 0178 AB42     		cmp	r3, r5
 2150 017a EEDC     		bgt	.L182
 2151              	.LVL195:
 2152              	.L181:
 2153              	.LBE314:
 2154              		.loc 1 401 0
 2155 017c 94ED3A0A 		vldr.32	s0, [r4, #232]
 2156 0180 DFED2F0A 		vldr.32	s1, .L193+24
 2157 0184 01A9     		add	r1, sp, #4
 2158 0186 02A8     		add	r0, sp, #8
 2159 0188 FFF7FEFF 		bl	buffer_append_float16
 2160              	.LVL196:
 2161              		.loc 1 404 0
 2162 018c 94ED3B0A 		vldr.32	s0, [r4, #236]
 2163 0190 DFED2B0A 		vldr.32	s1, .L193+24
 2164 0194 01A9     		add	r1, sp, #4
 2165 0196 02A8     		add	r0, sp, #8
 2166 0198 FFF7FEFF 		bl	buffer_append_float16
ARM GAS  /tmp/ccZzxXw2.s 			page 39


 2167              	.LVL197:
 2168              		.loc 1 405 0
 2169 019c 94ED3C0A 		vldr.32	s0, [r4, #240]
 2170 01a0 DFED270A 		vldr.32	s1, .L193+24
 2171 01a4 01A9     		add	r1, sp, #4
 2172 01a6 02A8     		add	r0, sp, #8
 2173 01a8 FFF7FEFF 		bl	buffer_append_float16
 2174              	.LVL198:
 2175              		.loc 1 408 0
 2176 01ac 94ED3D0A 		vldr.32	s0, [r4, #244]
 2177 01b0 DFED230A 		vldr.32	s1, .L193+24
 2178 01b4 01A9     		add	r1, sp, #4
 2179 01b6 02A8     		add	r0, sp, #8
 2180 01b8 FFF7FEFF 		bl	buffer_append_float16
 2181              	.LVL199:
 2182              		.loc 1 411 0
 2183 01bc 94ED3E0A 		vldr.32	s0, [r4, #248]
 2184 01c0 DFED1E0A 		vldr.32	s1, .L193+20
 2185 01c4 01A9     		add	r1, sp, #4
 2186 01c6 02A8     		add	r0, sp, #8
 2187 01c8 FFF7FEFF 		bl	buffer_append_float16
 2188              	.LVL200:
 2189              		.loc 1 412 0
 2190 01cc DFED1B0A 		vldr.32	s1, .L193+20
 2191 01d0 94ED3F0A 		vldr.32	s0, [r4, #252]
 2192 01d4 01A9     		add	r1, sp, #4
 2193 01d6 02A8     		add	r0, sp, #8
 2194 01d8 FFF7FEFF 		bl	buffer_append_float16
 2195              	.LVL201:
 2196              		.loc 1 415 0
 2197 01dc 019B     		ldr	r3, [sp, #4]
 2198 01de D4F80001 		ldr	r0, [r4, #256]
 2199              		.loc 1 418 0
 2200 01e2 94ED410A 		vldr.32	s0, [r4, #260]
 2201              		.loc 1 415 0
 2202 01e6 22AA     		add	r2, sp, #136
 2203 01e8 1A44     		add	r2, r2, r3
 2204              		.loc 1 418 0
 2205 01ea 01A9     		add	r1, sp, #4
 2206              		.loc 1 415 0
 2207 01ec 0133     		adds	r3, r3, #1
 2208 01ee 02F8800C 		strb	r0, [r2, #-128]
 2209              		.loc 1 418 0
 2210 01f2 02A8     		add	r0, sp, #8
 2211              		.loc 1 415 0
 2212 01f4 0193     		str	r3, [sp, #4]
 2213              		.loc 1 418 0
 2214 01f6 FFF7FEFF 		bl	buffer_append_float32_auto
 2215              	.LVL202:
 2216              		.loc 1 419 0
 2217 01fa 94ED420A 		vldr.32	s0, [r4, #264]
 2218 01fe 01A9     		add	r1, sp, #4
 2219 0200 02A8     		add	r0, sp, #8
 2220 0202 FFF7FEFF 		bl	buffer_append_float32_auto
 2221              	.LVL203:
 2222              		.loc 1 420 0
 2223 0206 94ED430A 		vldr.32	s0, [r4, #268]
ARM GAS  /tmp/ccZzxXw2.s 			page 40


 2224 020a 01A9     		add	r1, sp, #4
 2225 020c 02A8     		add	r0, sp, #8
 2226 020e FFF7FEFF 		bl	buffer_append_float32_auto
 2227              	.LVL204:
 2228              		.loc 1 421 0
 2229 0212 01A9     		add	r1, sp, #4
 2230 0214 02A8     		add	r0, sp, #8
 2231 0216 94ED440A 		vldr.32	s0, [r4, #272]
 2232 021a FFF7FEFF 		bl	buffer_append_float32_auto
 2233              	.LVL205:
 2234              		.loc 1 423 0
 2235 021e 02A8     		add	r0, sp, #8
 2236 0220 0199     		ldr	r1, [sp, #4]
 2237 0222 C047     		blx	r8
 2238              	.LVL206:
 2239              	.LBE307:
 2240              		.loc 1 424 0
 2241 0224 F6E6     		b	.L175
 2242              	.L194:
 2243 0226 00BF     		.align	2
 2244              	.L193:
 2245 0228 00000000 		.word	.LANCHOR0
 2246 022c 00000000 		.word	.LANCHOR4
 2247 0230 00000000 		.word	ch
 2248 0234 00401C46 		.word	1176256512
 2249 0238 00247449 		.word	1232348160
 2250 023c 00007A44 		.word	1148846080
 2251 0240 0000C842 		.word	1120403456
 2252              		.cfi_endproc
 2253              	.LFE259:
 2254              		.size	bms_process_cmd, .-bms_process_cmd
 2255              		.section	.text.bms_get_values,"ax",%progbits
 2256              		.align	1
 2257              		.p2align 4,,15
 2258              		.global	bms_get_values
 2259              		.syntax unified
 2260              		.thumb
 2261              		.thumb_func
 2262              		.fpu fpv4-sp-d16
 2263              		.type	bms_get_values, %function
 2264              	bms_get_values:
 2265              	.LFB260:
 2266              		.loc 1 447 0
 2267              		.cfi_startproc
 2268              		@ args = 0, pretend = 0, frame = 0
 2269              		@ frame_needed = 0, uses_anonymous_args = 0
 2270              		@ link register save eliminated.
 2271              		.loc 1 449 0
 2272 0000 0048     		ldr	r0, .L196
 2273 0002 7047     		bx	lr
 2274              	.L197:
 2275              		.align	2
 2276              	.L196:
 2277 0004 00000000 		.word	.LANCHOR4
 2278              		.cfi_endproc
 2279              	.LFE260:
 2280              		.size	bms_get_values, .-bms_get_values
ARM GAS  /tmp/ccZzxXw2.s 			page 41


 2281              		.section	.bss.m_conf,"aw",%nobits
 2282              		.align	2
 2283              		.set	.LANCHOR0,. + 0
 2284              		.type	m_conf, %object
 2285              		.size	m_conf, 24
 2286              	m_conf:
 2287 0000 00000000 		.space	24
 2287      00000000 
 2287      00000000 
 2287      00000000 
 2287      00000000 
 2288              		.section	.bss.m_stat_soc_max,"aw",%nobits
 2289              		.align	2
 2290              		.set	.LANCHOR3,. + 0
 2291              		.type	m_stat_soc_max, %object
 2292              		.size	m_stat_soc_max, 32
 2293              	m_stat_soc_max:
 2294 0000 00000000 		.space	32
 2294      00000000 
 2294      00000000 
 2294      00000000 
 2294      00000000 
 2295              		.section	.bss.m_stat_soc_min,"aw",%nobits
 2296              		.align	2
 2297              		.set	.LANCHOR2,. + 0
 2298              		.type	m_stat_soc_min, %object
 2299              		.size	m_stat_soc_min, 32
 2300              	m_stat_soc_min:
 2301 0000 00000000 		.space	32
 2301      00000000 
 2301      00000000 
 2301      00000000 
 2301      00000000 
 2302              		.section	.bss.m_stat_temp_max,"aw",%nobits
 2303              		.align	2
 2304              		.set	.LANCHOR1,. + 0
 2305              		.type	m_stat_temp_max, %object
 2306              		.size	m_stat_temp_max, 32
 2307              	m_stat_temp_max:
 2308 0000 00000000 		.space	32
 2308      00000000 
 2308      00000000 
 2308      00000000 
 2308      00000000 
 2309              		.section	.bss.m_values,"aw",%nobits
 2310              		.align	2
 2311              		.set	.LANCHOR4,. + 0
 2312              		.type	m_values, %object
 2313              		.size	m_values, 280
 2314              	m_values:
 2315 0000 00000000 		.space	280
 2315      00000000 
 2315      00000000 
 2315      00000000 
 2315      00000000 
 2316              		.text
 2317              	.Letext0:
ARM GAS  /tmp/ccZzxXw2.s 			page 42


 2318              		.file 4 "/usr/lib/gcc/arm-none-eabi/7.3.1/include/stddef.h"
 2319              		.file 5 "/usr/arm-none-eabi/include/machine/_default_types.h"
 2320              		.file 6 "/usr/arm-none-eabi/include/sys/_stdint.h"
 2321              		.file 7 "ChibiOS_3.0.5/os/rt/ports/ARMCMx/compilers/GCC/chtypes.h"
 2322              		.file 8 "ChibiOS_3.0.5/os/rt/include/chsystypes.h"
 2323              		.file 9 "ChibiOS_3.0.5/os/rt/include/chschd.h"
 2324              		.file 10 "ChibiOS_3.0.5/os/ext/CMSIS/include/core_cm4.h"
 2325              		.file 11 "ChibiOS_3.0.5/os/ext/CMSIS/ST/system_stm32f4xx.h"
 2326              		.file 12 "ChibiOS_3.0.5/os/ext/CMSIS/ST/stm32f407xx.h"
 2327              		.file 13 "ChibiOS_3.0.5/os/rt/ports/ARMCMx/chcore.h"
 2328              		.file 14 "ChibiOS_3.0.5/os/rt/ports/ARMCMx/chcore_v7m.h"
 2329              		.file 15 "ChibiOS_3.0.5/os/rt/include/chtm.h"
 2330              		.file 16 "ChibiOS_3.0.5/os/rt/include/chsem.h"
 2331              		.file 17 "ChibiOS_3.0.5/os/rt/include/chmtx.h"
 2332              		.file 18 "ChibiOS_3.0.5/os/rt/include/chregistry.h"
 2333              		.file 19 "ChibiOS_3.0.5/os/rt/include/chevents.h"
 2334              		.file 20 "ChibiOS_3.0.5/os/rt/include/chqueues.h"
 2335              		.file 21 "./datatypes.h"
 2336              		.file 22 "./conf_general.h"
 2337              		.file 23 "ChibiOS_3.0.5/os/hal/ports/STM32/STM32F4xx/stm32_dma.h"
 2338              		.file 24 "ChibiOS_3.0.5/os/hal/ports/STM32/LLD/GPIOv2/pal_lld.h"
 2339              		.file 25 "ChibiOS_3.0.5/os/hal/include/can.h"
 2340              		.file 26 "ChibiOS_3.0.5/os/hal/ports/STM32/LLD/can_lld.h"
 2341              		.file 27 "ChibiOS_3.0.5/os/hal/include/i2c.h"
 2342              		.file 28 "ChibiOS_3.0.5/os/hal/ports/STM32/LLD/I2Cv1/i2c_lld.h"
 2343              		.file 29 "ChibiOS_3.0.5/os/hal/include/icu.h"
 2344              		.file 30 "ChibiOS_3.0.5/os/hal/ports/STM32/LLD/TIMv1/icu_lld.h"
 2345              		.file 31 "ChibiOS_3.0.5/os/hal/ports/STM32/LLD/TIMv1/stm32_tim.h"
 2346              		.file 32 "ChibiOS_3.0.5/os/hal/include/serial.h"
 2347              		.file 33 "ChibiOS_3.0.5/os/hal/ports/STM32/LLD/USARTv1/serial_lld.h"
 2348              		.file 34 "ChibiOS_3.0.5/os/hal/include/spi.h"
 2349              		.file 35 "ChibiOS_3.0.5/os/hal/ports/STM32/LLD/SPIv1/spi_lld.h"
 2350              		.file 36 "ChibiOS_3.0.5/os/hal/include/usb.h"
 2351              		.file 37 "ChibiOS_3.0.5/os/hal/ports/STM32/LLD/OTGv1/usb_lld.h"
 2352              		.file 38 "ChibiOS_3.0.5/os/hal/ports/STM32/LLD/OTGv1/stm32_otg.h"
 2353              		.file 39 "utils.h"
 2354              		.file 40 "commands.h"
 2355              		.file 41 "/usr/arm-none-eabi/include/sys/lock.h"
 2356              		.file 42 "/usr/arm-none-eabi/include/sys/_types.h"
 2357              		.file 43 "/usr/arm-none-eabi/include/sys/reent.h"
 2358              		.file 44 "/usr/arm-none-eabi/include/math.h"
 2359              		.file 45 "ChibiOS_3.0.5/os/rt/include/chsys.h"
 2360              		.file 46 "buffer.h"
 2361              		.file 47 "comm_can.h"
 2362              		.file 48 "comm_usb.h"
 2363              		.file 49 "<built-in>"