ARM GAS  /tmp/ccvSotpA.s 			page 1


   1              		.cpu cortex-m4
   2              		.eabi_attribute 27, 1
   3              		.eabi_attribute 28, 1
   4              		.eabi_attribute 20, 1
   5              		.eabi_attribute 21, 1
   6              		.eabi_attribute 23, 3
   7              		.eabi_attribute 24, 1
   8              		.eabi_attribute 25, 1
   9              		.eabi_attribute 26, 1
  10              		.eabi_attribute 30, 2
  11              		.eabi_attribute 34, 1
  12              		.eabi_attribute 18, 4
  13              		.file	"buffer.c"
  14              		.text
  15              	.Ltext0:
  16              		.cfi_sections	.debug_frame
  17              		.section	.text.buffer_append_int16,"ax",%progbits
  18              		.align	1
  19              		.p2align 4,,15
  20              		.global	buffer_append_int16
  21              		.syntax unified
  22              		.thumb
  23              		.thumb_func
  24              		.fpu fpv4-sp-d16
  25              		.type	buffer_append_int16, %function
  26              	buffer_append_int16:
  27              	.LFB0:
  28              		.file 1 "buffer.c"
  29              		.loc 1 24 0
  30              		.cfi_startproc
  31              		@ args = 0, pretend = 0, frame = 0
  32              		@ frame_needed = 0, uses_anonymous_args = 0
  33              		@ link register save eliminated.
  34              	.LVL0:
  35              		.loc 1 25 0
  36 0000 1368     		ldr	r3, [r2]
  37              		.loc 1 24 0
  38 0002 30B4     		push	{r4, r5}
  39              		.cfi_def_cfa_offset 8
  40              		.cfi_offset 4, -8
  41              		.cfi_offset 5, -4
  42              		.loc 1 25 0
  43 0004 5D1C     		adds	r5, r3, #1
  44 0006 0C12     		asrs	r4, r1, #8
  45 0008 1560     		str	r5, [r2]
  46 000a C454     		strb	r4, [r0, r3]
  47              		.loc 1 26 0
  48 000c 1368     		ldr	r3, [r2]
  49 000e 5C1C     		adds	r4, r3, #1
  50 0010 1460     		str	r4, [r2]
  51 0012 C154     		strb	r1, [r0, r3]
  52              		.loc 1 27 0
  53 0014 30BC     		pop	{r4, r5}
  54              		.cfi_restore 5
  55              		.cfi_restore 4
  56              		.cfi_def_cfa_offset 0
  57 0016 7047     		bx	lr
ARM GAS  /tmp/ccvSotpA.s 			page 2


  58              		.cfi_endproc
  59              	.LFE0:
  60              		.size	buffer_append_int16, .-buffer_append_int16
  61              		.section	.text.buffer_append_uint16,"ax",%progbits
  62              		.align	1
  63              		.p2align 4,,15
  64              		.global	buffer_append_uint16
  65              		.syntax unified
  66              		.thumb
  67              		.thumb_func
  68              		.fpu fpv4-sp-d16
  69              		.type	buffer_append_uint16, %function
  70              	buffer_append_uint16:
  71              	.LFB1:
  72              		.loc 1 29 0
  73              		.cfi_startproc
  74              		@ args = 0, pretend = 0, frame = 0
  75              		@ frame_needed = 0, uses_anonymous_args = 0
  76              		@ link register save eliminated.
  77              	.LVL1:
  78              		.loc 1 30 0
  79 0000 1368     		ldr	r3, [r2]
  80              		.loc 1 29 0
  81 0002 30B4     		push	{r4, r5}
  82              		.cfi_def_cfa_offset 8
  83              		.cfi_offset 4, -8
  84              		.cfi_offset 5, -4
  85              		.loc 1 30 0
  86 0004 5D1C     		adds	r5, r3, #1
  87 0006 0C0A     		lsrs	r4, r1, #8
  88 0008 1560     		str	r5, [r2]
  89 000a C454     		strb	r4, [r0, r3]
  90              		.loc 1 31 0
  91 000c 1368     		ldr	r3, [r2]
  92 000e 5C1C     		adds	r4, r3, #1
  93 0010 1460     		str	r4, [r2]
  94 0012 C154     		strb	r1, [r0, r3]
  95              		.loc 1 32 0
  96 0014 30BC     		pop	{r4, r5}
  97              		.cfi_restore 5
  98              		.cfi_restore 4
  99              		.cfi_def_cfa_offset 0
 100 0016 7047     		bx	lr
 101              		.cfi_endproc
 102              	.LFE1:
 103              		.size	buffer_append_uint16, .-buffer_append_uint16
 104              		.section	.text.buffer_append_int32,"ax",%progbits
 105              		.align	1
 106              		.p2align 4,,15
 107              		.global	buffer_append_int32
 108              		.syntax unified
 109              		.thumb
 110              		.thumb_func
 111              		.fpu fpv4-sp-d16
 112              		.type	buffer_append_int32, %function
 113              	buffer_append_int32:
 114              	.LFB2:
ARM GAS  /tmp/ccvSotpA.s 			page 3


 115              		.loc 1 34 0
 116              		.cfi_startproc
 117              		@ args = 0, pretend = 0, frame = 0
 118              		@ frame_needed = 0, uses_anonymous_args = 0
 119              		@ link register save eliminated.
 120              	.LVL2:
 121              		.loc 1 35 0
 122 0000 1368     		ldr	r3, [r2]
 123              		.loc 1 34 0
 124 0002 30B4     		push	{r4, r5}
 125              		.cfi_def_cfa_offset 8
 126              		.cfi_offset 4, -8
 127              		.cfi_offset 5, -4
 128              		.loc 1 35 0
 129 0004 5D1C     		adds	r5, r3, #1
 130 0006 0C16     		asrs	r4, r1, #24
 131 0008 1560     		str	r5, [r2]
 132 000a C454     		strb	r4, [r0, r3]
 133              		.loc 1 36 0
 134 000c 1368     		ldr	r3, [r2]
 135 000e 0C14     		asrs	r4, r1, #16
 136 0010 5D1C     		adds	r5, r3, #1
 137 0012 1560     		str	r5, [r2]
 138 0014 C454     		strb	r4, [r0, r3]
 139              		.loc 1 37 0
 140 0016 1368     		ldr	r3, [r2]
 141 0018 0C12     		asrs	r4, r1, #8
 142 001a 5D1C     		adds	r5, r3, #1
 143 001c 1560     		str	r5, [r2]
 144 001e C454     		strb	r4, [r0, r3]
 145              		.loc 1 38 0
 146 0020 1368     		ldr	r3, [r2]
 147 0022 5C1C     		adds	r4, r3, #1
 148 0024 1460     		str	r4, [r2]
 149 0026 C154     		strb	r1, [r0, r3]
 150              		.loc 1 39 0
 151 0028 30BC     		pop	{r4, r5}
 152              		.cfi_restore 5
 153              		.cfi_restore 4
 154              		.cfi_def_cfa_offset 0
 155 002a 7047     		bx	lr
 156              		.cfi_endproc
 157              	.LFE2:
 158              		.size	buffer_append_int32, .-buffer_append_int32
 159              		.section	.text.buffer_append_uint32,"ax",%progbits
 160              		.align	1
 161              		.p2align 4,,15
 162              		.global	buffer_append_uint32
 163              		.syntax unified
 164              		.thumb
 165              		.thumb_func
 166              		.fpu fpv4-sp-d16
 167              		.type	buffer_append_uint32, %function
 168              	buffer_append_uint32:
 169              	.LFB3:
 170              		.loc 1 41 0
 171              		.cfi_startproc
ARM GAS  /tmp/ccvSotpA.s 			page 4


 172              		@ args = 0, pretend = 0, frame = 0
 173              		@ frame_needed = 0, uses_anonymous_args = 0
 174              		@ link register save eliminated.
 175              	.LVL3:
 176              		.loc 1 42 0
 177 0000 1368     		ldr	r3, [r2]
 178              		.loc 1 41 0
 179 0002 30B4     		push	{r4, r5}
 180              		.cfi_def_cfa_offset 8
 181              		.cfi_offset 4, -8
 182              		.cfi_offset 5, -4
 183              		.loc 1 42 0
 184 0004 5D1C     		adds	r5, r3, #1
 185 0006 0C0E     		lsrs	r4, r1, #24
 186 0008 1560     		str	r5, [r2]
 187 000a C454     		strb	r4, [r0, r3]
 188              		.loc 1 43 0
 189 000c 1368     		ldr	r3, [r2]
 190 000e 0C0C     		lsrs	r4, r1, #16
 191 0010 5D1C     		adds	r5, r3, #1
 192 0012 1560     		str	r5, [r2]
 193 0014 C454     		strb	r4, [r0, r3]
 194              		.loc 1 44 0
 195 0016 1368     		ldr	r3, [r2]
 196 0018 0C0A     		lsrs	r4, r1, #8
 197 001a 5D1C     		adds	r5, r3, #1
 198 001c 1560     		str	r5, [r2]
 199 001e C454     		strb	r4, [r0, r3]
 200              		.loc 1 45 0
 201 0020 1368     		ldr	r3, [r2]
 202 0022 5C1C     		adds	r4, r3, #1
 203 0024 1460     		str	r4, [r2]
 204 0026 C154     		strb	r1, [r0, r3]
 205              		.loc 1 46 0
 206 0028 30BC     		pop	{r4, r5}
 207              		.cfi_restore 5
 208              		.cfi_restore 4
 209              		.cfi_def_cfa_offset 0
 210 002a 7047     		bx	lr
 211              		.cfi_endproc
 212              	.LFE3:
 213              		.size	buffer_append_uint32, .-buffer_append_uint32
 214              		.section	.text.buffer_append_float16,"ax",%progbits
 215              		.align	1
 216              		.p2align 4,,15
 217              		.global	buffer_append_float16
 218              		.syntax unified
 219              		.thumb
 220              		.thumb_func
 221              		.fpu fpv4-sp-d16
 222              		.type	buffer_append_float16, %function
 223              	buffer_append_float16:
 224              	.LFB4:
 225              		.loc 1 48 0
 226              		.cfi_startproc
 227              		@ args = 0, pretend = 0, frame = 0
 228              		@ frame_needed = 0, uses_anonymous_args = 0
ARM GAS  /tmp/ccvSotpA.s 			page 5


 229              		@ link register save eliminated.
 230              	.LVL4:
 231              		.loc 1 49 0
 232 0000 60EE200A 		vmul.f32	s1, s0, s1
 233              	.LVL5:
 234              	.LBB6:
 235              	.LBB7:
 236              		.loc 1 25 0
 237 0004 0A68     		ldr	r2, [r1]
 238              	.LBE7:
 239              	.LBE6:
 240              		.loc 1 49 0
 241 0006 FDEEE00A 		vcvt.s32.f32	s1, s1
 242              		.loc 1 48 0
 243 000a 30B4     		push	{r4, r5}
 244              		.cfi_def_cfa_offset 8
 245              		.cfi_offset 4, -8
 246              		.cfi_offset 5, -4
 247              		.loc 1 49 0
 248 000c 10EE903A 		vmov	r3, s1	@ int
 249 0010 1BB2     		sxth	r3, r3
 250              	.LVL6:
 251              	.LBB9:
 252              	.LBB8:
 253              		.loc 1 25 0
 254 0012 551C     		adds	r5, r2, #1
 255 0014 1C12     		asrs	r4, r3, #8
 256 0016 0D60     		str	r5, [r1]
 257 0018 8454     		strb	r4, [r0, r2]
 258              		.loc 1 26 0
 259 001a 0A68     		ldr	r2, [r1]
 260 001c 541C     		adds	r4, r2, #1
 261 001e 0C60     		str	r4, [r1]
 262 0020 8354     		strb	r3, [r0, r2]
 263              	.LVL7:
 264              	.LBE8:
 265              	.LBE9:
 266              		.loc 1 50 0
 267 0022 30BC     		pop	{r4, r5}
 268              		.cfi_restore 5
 269              		.cfi_restore 4
 270              		.cfi_def_cfa_offset 0
 271 0024 7047     		bx	lr
 272              		.cfi_endproc
 273              	.LFE4:
 274              		.size	buffer_append_float16, .-buffer_append_float16
 275 0026 00BF     		.section	.text.buffer_append_float32,"ax",%progbits
 276              		.align	1
 277              		.p2align 4,,15
 278              		.global	buffer_append_float32
 279              		.syntax unified
 280              		.thumb
 281              		.thumb_func
 282              		.fpu fpv4-sp-d16
 283              		.type	buffer_append_float32, %function
 284              	buffer_append_float32:
 285              	.LFB5:
ARM GAS  /tmp/ccvSotpA.s 			page 6


 286              		.loc 1 52 0
 287              		.cfi_startproc
 288              		@ args = 0, pretend = 0, frame = 0
 289              		@ frame_needed = 0, uses_anonymous_args = 0
 290              		@ link register save eliminated.
 291              	.LVL8:
 292              		.loc 1 53 0
 293 0000 60EE200A 		vmul.f32	s1, s0, s1
 294              	.LVL9:
 295 0004 0A46     		mov	r2, r1
 296 0006 FDEEE07A 		vcvt.s32.f32	s15, s1
 297 000a 17EE901A 		vmov	r1, s15	@ int
 298              	.LVL10:
 299 000e FFF7FEBF 		b	buffer_append_int32
 300              	.LVL11:
 301              		.cfi_endproc
 302              	.LFE5:
 303              		.size	buffer_append_float32, .-buffer_append_float32
 304 0012 00BF     		.section	.text.buffer_append_float32_auto,"ax",%progbits
 305              		.align	1
 306              		.p2align 4,,15
 307              		.global	buffer_append_float32_auto
 308              		.syntax unified
 309              		.thumb
 310              		.thumb_func
 311              		.fpu fpv4-sp-d16
 312              		.type	buffer_append_float32_auto, %function
 313              	buffer_append_float32_auto:
 314              	.LFB6:
 315              		.loc 1 96 0
 316              		.cfi_startproc
 317              		@ args = 0, pretend = 0, frame = 8
 318              		@ frame_needed = 0, uses_anonymous_args = 0
 319              	.LVL12:
 320 0000 70B5     		push	{r4, r5, r6, lr}
 321              		.cfi_def_cfa_offset 16
 322              		.cfi_offset 4, -16
 323              		.cfi_offset 5, -12
 324              		.cfi_offset 6, -8
 325              		.cfi_offset 14, -4
 326 0002 82B0     		sub	sp, sp, #8
 327              		.cfi_def_cfa_offset 24
 328              		.loc 1 99 0
 329 0004 9FED217A 		vldr.32	s14, .L22
 330              		.loc 1 100 0
 331 0008 DFED217A 		vldr.32	s15, .L22+4
 332              		.loc 1 103 0
 333 000c 02AB     		add	r3, sp, #8
 334              		.loc 1 99 0
 335 000e F0EEC06A 		vabs.f32	s13, s0
 336              		.loc 1 103 0
 337 0012 0024     		movs	r4, #0
 338              		.loc 1 100 0
 339 0014 F4EE476A 		vcmp.f32	s13, s14
 340              		.loc 1 103 0
 341 0018 43F8044D 		str	r4, [r3, #-4]!
 342              		.loc 1 100 0
ARM GAS  /tmp/ccvSotpA.s 			page 7


 343 001c F1EE10FA 		vmrs	APSR_nzcv, FPSCR
 344              	.LVL13:
 345              		.loc 1 104 0
 346 0020 48BF     		it	mi
 347 0022 B0EE670A 		vmovmi.f32	s0, s15
 348              	.LVL14:
 349              		.loc 1 96 0
 350 0026 0546     		mov	r5, r0
 351              		.loc 1 104 0
 352 0028 1846     		mov	r0, r3
 353              	.LVL15:
 354              		.loc 1 96 0
 355 002a 0E46     		mov	r6, r1
 356              		.loc 1 104 0
 357 002c FFF7FEFF 		bl	frexpf
 358              	.LVL16:
 359              		.loc 1 108 0
 360 0030 B6EE007A 		vmov.f32	s14, #5.0e-1
 361              		.loc 1 105 0
 362 0034 F0EEC07A 		vabs.f32	s15, s0
 363              	.LVL17:
 364              		.loc 1 108 0
 365 0038 F4EEC77A 		vcmpe.f32	s15, s14
 366 003c F1EE10FA 		vmrs	APSR_nzcv, FPSCR
 367 0040 13DA     		bge	.L15
 368 0042 019B     		ldr	r3, [sp, #4]
 369              	.LVL18:
 370              	.L16:
 371              		.loc 1 113 0
 372 0044 DB05     		lsls	r3, r3, #23
 373 0046 03F0FF43 		and	r3, r3, #2139095040
 374              		.loc 1 114 0
 375 004a B5EEC00A 		vcmpe.f32	s0, #0
 376              		.loc 1 113 0
 377 004e 43EA0401 		orr	r1, r3, r4
 378              	.LVL19:
 379              		.loc 1 114 0
 380 0052 F1EE10FA 		vmrs	APSR_nzcv, FPSCR
 381              		.loc 1 115 0
 382 0056 48BF     		it	mi
 383 0058 41F00041 		orrmi	r1, r1, #-2147483648
 384              	.LVL20:
 385              		.loc 1 118 0
 386 005c 3246     		mov	r2, r6
 387 005e 2846     		mov	r0, r5
 388              		.loc 1 119 0
 389 0060 02B0     		add	sp, sp, #8
 390              		.cfi_remember_state
 391              		.cfi_def_cfa_offset 16
 392              		@ sp needed
 393 0062 BDE87040 		pop	{r4, r5, r6, lr}
 394              		.cfi_restore 14
 395              		.cfi_restore 6
 396              		.cfi_restore 5
 397              		.cfi_restore 4
 398              		.cfi_def_cfa_offset 0
 399              	.LVL21:
ARM GAS  /tmp/ccvSotpA.s 			page 8


 400              		.loc 1 118 0
 401 0066 FFF7FEBF 		b	buffer_append_uint32
 402              	.LVL22:
 403              	.L15:
 404              		.cfi_restore_state
 405              		.loc 1 109 0
 406 006a 77EEC77A 		vsub.f32	s15, s15, s14
 407              	.LVL23:
 408 006e 9FED097A 		vldr.32	s14, .L22+8
 409              		.loc 1 110 0
 410 0072 019B     		ldr	r3, [sp, #4]
 411              		.loc 1 109 0
 412 0074 77EEA77A 		vadd.f32	s15, s15, s15
 413              		.loc 1 110 0
 414 0078 7E33     		adds	r3, r3, #126
 415              		.loc 1 109 0
 416 007a 67EE877A 		vmul.f32	s15, s15, s14
 417 007e FCEEE77A 		vcvt.u32.f32	s15, s15
 418 0082 17EE902A 		vmov	r2, s15	@ int
 419 0086 C2F31604 		ubfx	r4, r2, #0, #23
 420 008a DBE7     		b	.L16
 421              	.L23:
 422              		.align	2
 423              	.L22:
 424 008c E655A300 		.word	10704358
 425 0090 00000000 		.word	0
 426 0094 0000004B 		.word	1258291200
 427              		.cfi_endproc
 428              	.LFE6:
 429              		.size	buffer_append_float32_auto, .-buffer_append_float32_auto
 430              		.section	.text.buffer_get_int16,"ax",%progbits
 431              		.align	1
 432              		.p2align 4,,15
 433              		.global	buffer_get_int16
 434              		.syntax unified
 435              		.thumb
 436              		.thumb_func
 437              		.fpu fpv4-sp-d16
 438              		.type	buffer_get_int16, %function
 439              	buffer_get_int16:
 440              	.LFB7:
 441              		.loc 1 121 0
 442              		.cfi_startproc
 443              		@ args = 0, pretend = 0, frame = 0
 444              		@ frame_needed = 0, uses_anonymous_args = 0
 445              		@ link register save eliminated.
 446              	.LVL24:
 447 0000 10B4     		push	{r4}
 448              		.cfi_def_cfa_offset 4
 449              		.cfi_offset 4, -4
 450              		.loc 1 122 0
 451 0002 0B68     		ldr	r3, [r1]
 452              		.loc 1 123 0
 453 0004 C418     		adds	r4, r0, r3
 454              		.loc 1 122 0
 455 0006 C25C     		ldrb	r2, [r0, r3]	@ zero_extendqisi2
 456              		.loc 1 123 0
ARM GAS  /tmp/ccvSotpA.s 			page 9


 457 0008 6078     		ldrb	r0, [r4, #1]	@ zero_extendqisi2
 458              	.LVL25:
 459              		.loc 1 126 0
 460 000a 5DF8044B 		ldr	r4, [sp], #4
 461              		.cfi_restore 4
 462              		.cfi_def_cfa_offset 0
 463              		.loc 1 124 0
 464 000e 0233     		adds	r3, r3, #2
 465              		.loc 1 122 0
 466 0010 40EA0220 		orr	r0, r0, r2, lsl #8
 467              	.LVL26:
 468              		.loc 1 126 0
 469 0014 00B2     		sxth	r0, r0
 470              		.loc 1 124 0
 471 0016 0B60     		str	r3, [r1]
 472              		.loc 1 126 0
 473 0018 7047     		bx	lr
 474              		.cfi_endproc
 475              	.LFE7:
 476              		.size	buffer_get_int16, .-buffer_get_int16
 477              		.section	.text.buffer_get_uint16,"ax",%progbits
 478              		.align	1
 479              		.p2align 4,,15
 480              		.global	buffer_get_uint16
 481              		.syntax unified
 482              		.thumb
 483              		.thumb_func
 484              		.fpu fpv4-sp-d16
 485              		.type	buffer_get_uint16, %function
 486              	buffer_get_uint16:
 487              	.LFB8:
 488              		.loc 1 128 0
 489              		.cfi_startproc
 490              		@ args = 0, pretend = 0, frame = 0
 491              		@ frame_needed = 0, uses_anonymous_args = 0
 492              		@ link register save eliminated.
 493              	.LVL27:
 494              		.loc 1 129 0
 495 0000 0B68     		ldr	r3, [r1]
 496              		.loc 1 130 0
 497 0002 C218     		adds	r2, r0, r3
 498              		.loc 1 129 0
 499 0004 C05C     		ldrb	r0, [r0, r3]	@ zero_extendqisi2
 500              	.LVL28:
 501              		.loc 1 130 0
 502 0006 5278     		ldrb	r2, [r2, #1]	@ zero_extendqisi2
 503              	.LVL29:
 504              		.loc 1 131 0
 505 0008 0233     		adds	r3, r3, #2
 506 000a 0B60     		str	r3, [r1]
 507              		.loc 1 133 0
 508 000c 42EA0020 		orr	r0, r2, r0, lsl #8
 509              	.LVL30:
 510 0010 7047     		bx	lr
 511              		.cfi_endproc
 512              	.LFE8:
 513              		.size	buffer_get_uint16, .-buffer_get_uint16
ARM GAS  /tmp/ccvSotpA.s 			page 10


 514 0012 00BF     		.section	.text.buffer_get_int32,"ax",%progbits
 515              		.align	1
 516              		.p2align 4,,15
 517              		.global	buffer_get_int32
 518              		.syntax unified
 519              		.thumb
 520              		.thumb_func
 521              		.fpu fpv4-sp-d16
 522              		.type	buffer_get_int32, %function
 523              	buffer_get_int32:
 524              	.LFB9:
 525              		.loc 1 135 0
 526              		.cfi_startproc
 527              		@ args = 0, pretend = 0, frame = 0
 528              		@ frame_needed = 0, uses_anonymous_args = 0
 529              		@ link register save eliminated.
 530              	.LVL31:
 531 0000 70B4     		push	{r4, r5, r6}
 532              		.cfi_def_cfa_offset 12
 533              		.cfi_offset 4, -12
 534              		.cfi_offset 5, -8
 535              		.cfi_offset 6, -4
 536              		.loc 1 136 0
 537 0002 0A68     		ldr	r2, [r1]
 538              		.loc 1 139 0
 539 0004 8418     		adds	r4, r0, r2
 540              		.loc 1 136 0
 541 0006 865C     		ldrb	r6, [r0, r2]	@ zero_extendqisi2
 542              		.loc 1 139 0
 543 0008 E378     		ldrb	r3, [r4, #3]	@ zero_extendqisi2
 544              		.loc 1 137 0
 545 000a 6578     		ldrb	r5, [r4, #1]	@ zero_extendqisi2
 546              		.loc 1 138 0
 547 000c A078     		ldrb	r0, [r4, #2]	@ zero_extendqisi2
 548              	.LVL32:
 549 000e 43EA0663 		orr	r3, r3, r6, lsl #24
 550 0012 43EA0543 		orr	r3, r3, r5, lsl #16
 551              	.LVL33:
 552              		.loc 1 140 0
 553 0016 0432     		adds	r2, r2, #4
 554              		.loc 1 142 0
 555 0018 43EA0020 		orr	r0, r3, r0, lsl #8
 556              	.LVL34:
 557              		.loc 1 140 0
 558 001c 0A60     		str	r2, [r1]
 559              		.loc 1 142 0
 560 001e 70BC     		pop	{r4, r5, r6}
 561              		.cfi_restore 6
 562              		.cfi_restore 5
 563              		.cfi_restore 4
 564              		.cfi_def_cfa_offset 0
 565 0020 7047     		bx	lr
 566              		.cfi_endproc
 567              	.LFE9:
 568              		.size	buffer_get_int32, .-buffer_get_int32
 569 0022 00BF     		.section	.text.buffer_get_uint32,"ax",%progbits
 570              		.align	1
ARM GAS  /tmp/ccvSotpA.s 			page 11


 571              		.p2align 4,,15
 572              		.global	buffer_get_uint32
 573              		.syntax unified
 574              		.thumb
 575              		.thumb_func
 576              		.fpu fpv4-sp-d16
 577              		.type	buffer_get_uint32, %function
 578              	buffer_get_uint32:
 579              	.LFB10:
 580              		.loc 1 144 0
 581              		.cfi_startproc
 582              		@ args = 0, pretend = 0, frame = 0
 583              		@ frame_needed = 0, uses_anonymous_args = 0
 584              		@ link register save eliminated.
 585              	.LVL35:
 586 0000 70B4     		push	{r4, r5, r6}
 587              		.cfi_def_cfa_offset 12
 588              		.cfi_offset 4, -12
 589              		.cfi_offset 5, -8
 590              		.cfi_offset 6, -4
 591              		.loc 1 145 0
 592 0002 0A68     		ldr	r2, [r1]
 593              		.loc 1 148 0
 594 0004 8418     		adds	r4, r0, r2
 595              		.loc 1 145 0
 596 0006 865C     		ldrb	r6, [r0, r2]	@ zero_extendqisi2
 597              		.loc 1 148 0
 598 0008 E378     		ldrb	r3, [r4, #3]	@ zero_extendqisi2
 599              		.loc 1 146 0
 600 000a 6578     		ldrb	r5, [r4, #1]	@ zero_extendqisi2
 601              		.loc 1 147 0
 602 000c A078     		ldrb	r0, [r4, #2]	@ zero_extendqisi2
 603              	.LVL36:
 604              		.loc 1 145 0
 605 000e 43EA0663 		orr	r3, r3, r6, lsl #24
 606 0012 43EA0543 		orr	r3, r3, r5, lsl #16
 607              	.LVL37:
 608              		.loc 1 149 0
 609 0016 0432     		adds	r2, r2, #4
 610              		.loc 1 151 0
 611 0018 43EA0020 		orr	r0, r3, r0, lsl #8
 612              	.LVL38:
 613              		.loc 1 149 0
 614 001c 0A60     		str	r2, [r1]
 615              		.loc 1 151 0
 616 001e 70BC     		pop	{r4, r5, r6}
 617              		.cfi_restore 6
 618              		.cfi_restore 5
 619              		.cfi_restore 4
 620              		.cfi_def_cfa_offset 0
 621 0020 7047     		bx	lr
 622              		.cfi_endproc
 623              	.LFE10:
 624              		.size	buffer_get_uint32, .-buffer_get_uint32
 625 0022 00BF     		.section	.text.buffer_get_float16,"ax",%progbits
 626              		.align	1
 627              		.p2align 4,,15
ARM GAS  /tmp/ccvSotpA.s 			page 12


 628              		.global	buffer_get_float16
 629              		.syntax unified
 630              		.thumb
 631              		.thumb_func
 632              		.fpu fpv4-sp-d16
 633              		.type	buffer_get_float16, %function
 634              	buffer_get_float16:
 635              	.LFB11:
 636              		.loc 1 153 0
 637              		.cfi_startproc
 638              		@ args = 0, pretend = 0, frame = 0
 639              		@ frame_needed = 0, uses_anonymous_args = 0
 640              		@ link register save eliminated.
 641              	.LVL39:
 642              	.LBB10:
 643              	.LBB11:
 644              		.loc 1 122 0
 645 0000 0A68     		ldr	r2, [r1]
 646              		.loc 1 123 0
 647 0002 8318     		adds	r3, r0, r2
 648              		.loc 1 122 0
 649 0004 805C     		ldrb	r0, [r0, r2]	@ zero_extendqisi2
 650              	.LVL40:
 651              		.loc 1 123 0
 652 0006 5B78     		ldrb	r3, [r3, #1]	@ zero_extendqisi2
 653              		.loc 1 122 0
 654 0008 43EA0023 		orr	r3, r3, r0, lsl #8
 655 000c 1BB2     		sxth	r3, r3
 656              	.LVL41:
 657              	.LBE11:
 658              	.LBE10:
 659              		.loc 1 154 0
 660 000e 07EE903A 		vmov	s15, r3	@ int
 661 0012 F8EEE77A 		vcvt.f32.s32	s15, s15
 662              	.LBB13:
 663              	.LBB12:
 664              		.loc 1 124 0
 665 0016 0232     		adds	r2, r2, #2
 666 0018 0A60     		str	r2, [r1]
 667              	.LVL42:
 668              	.LBE12:
 669              	.LBE13:
 670              		.loc 1 155 0
 671 001a 87EE800A 		vdiv.f32	s0, s15, s0
 672              	.LVL43:
 673 001e 7047     		bx	lr
 674              		.cfi_endproc
 675              	.LFE11:
 676              		.size	buffer_get_float16, .-buffer_get_float16
 677              		.section	.text.buffer_get_float32,"ax",%progbits
 678              		.align	1
 679              		.p2align 4,,15
 680              		.global	buffer_get_float32
 681              		.syntax unified
 682              		.thumb
 683              		.thumb_func
 684              		.fpu fpv4-sp-d16
ARM GAS  /tmp/ccvSotpA.s 			page 13


 685              		.type	buffer_get_float32, %function
 686              	buffer_get_float32:
 687              	.LFB12:
 688              		.loc 1 157 0
 689              		.cfi_startproc
 690              		@ args = 0, pretend = 0, frame = 0
 691              		@ frame_needed = 0, uses_anonymous_args = 0
 692              	.LVL44:
 693 0000 08B5     		push	{r3, lr}
 694              		.cfi_def_cfa_offset 8
 695              		.cfi_offset 3, -8
 696              		.cfi_offset 14, -4
 697              		.loc 1 158 0
 698 0002 FFF7FEFF 		bl	buffer_get_int32
 699              	.LVL45:
 700 0006 07EE900A 		vmov	s15, r0	@ int
 701 000a F8EEE77A 		vcvt.f32.s32	s15, s15
 702              		.loc 1 159 0
 703 000e 87EE800A 		vdiv.f32	s0, s15, s0
 704              	.LVL46:
 705 0012 08BD     		pop	{r3, pc}
 706              		.cfi_endproc
 707              	.LFE12:
 708              		.size	buffer_get_float32, .-buffer_get_float32
 709              		.section	.text.buffer_get_float32_auto,"ax",%progbits
 710              		.align	1
 711              		.p2align 4,,15
 712              		.global	buffer_get_float32_auto
 713              		.syntax unified
 714              		.thumb
 715              		.thumb_func
 716              		.fpu fpv4-sp-d16
 717              		.type	buffer_get_float32_auto, %function
 718              	buffer_get_float32_auto:
 719              	.LFB13:
 720              		.loc 1 161 0
 721              		.cfi_startproc
 722              		@ args = 0, pretend = 0, frame = 0
 723              		@ frame_needed = 0, uses_anonymous_args = 0
 724              	.LVL47:
 725 0000 08B5     		push	{r3, lr}
 726              		.cfi_def_cfa_offset 8
 727              		.cfi_offset 3, -8
 728              		.cfi_offset 14, -4
 729              		.loc 1 162 0
 730 0002 FFF7FEFF 		bl	buffer_get_uint32
 731              	.LVL48:
 732              		.loc 1 164 0
 733 0006 C0F3C753 		ubfx	r3, r0, #23, #8
 734              	.LVL49:
 735              		.loc 1 165 0
 736 000a C0F31602 		ubfx	r2, r0, #0, #23
 737              	.LVL50:
 738              		.loc 1 169 0
 739 000e 03B9     		cbnz	r3, .L35
 740              		.loc 1 169 0 is_stmt 0 discriminator 1
 741 0010 9AB1     		cbz	r2, .L38
ARM GAS  /tmp/ccvSotpA.s 			page 14


 742              	.L35:
 743              		.loc 1 170 0 is_stmt 1
 744 0012 07EE902A 		vmov	s15, r2	@ int
 745 0016 9FED0A7A 		vldr.32	s14, .L40
 746 001a F8EEE77A 		vcvt.f32.s32	s15, s15
 747 001e B6EE000A 		vmov.f32	s0, #5.0e-1
 748 0022 A7EE870A 		vfma.f32	s0, s15, s14
 749              	.LVL51:
 750              		.loc 1 171 0
 751 0026 7E3B     		subs	r3, r3, #126
 752              	.LVL52:
 753              	.L36:
 754              		.loc 1 174 0
 755 0028 0028     		cmp	r0, #0
 756              		.loc 1 175 0
 757 002a B8BF     		it	lt
 758 002c B1EE400A 		vneglt.f32	s0, s0
 759              	.LVL53:
 760              		.loc 1 178 0
 761 0030 1846     		mov	r0, r3
 762              	.LVL54:
 763              		.loc 1 179 0
 764 0032 BDE80840 		pop	{r3, lr}
 765              		.cfi_remember_state
 766              		.cfi_restore 14
 767              		.cfi_restore 3
 768              		.cfi_def_cfa_offset 0
 769              	.LVL55:
 770              		.loc 1 178 0
 771 0036 FFF7FEBF 		b	ldexpf
 772              	.LVL56:
 773              	.L38:
 774              		.cfi_restore_state
 775              		.loc 1 168 0
 776 003a 9FED020A 		vldr.32	s0, .L40+4
 777 003e F3E7     		b	.L36
 778              	.L41:
 779              		.align	2
 780              	.L40:
 781 0040 00008033 		.word	864026624
 782 0044 00000000 		.word	0
 783              		.cfi_endproc
 784              	.LFE13:
 785              		.size	buffer_get_float32_auto, .-buffer_get_float32_auto
 786              		.text
 787              	.Letext0:
 788              		.file 2 "/usr/arm-none-eabi/include/machine/_default_types.h"
 789              		.file 3 "/usr/arm-none-eabi/include/sys/_stdint.h"
 790              		.file 4 "/usr/arm-none-eabi/include/sys/lock.h"
 791              		.file 5 "/usr/arm-none-eabi/include/sys/_types.h"
 792              		.file 6 "/usr/lib/gcc/arm-none-eabi/7.3.1/include/stddef.h"
 793              		.file 7 "/usr/arm-none-eabi/include/sys/reent.h"
 794              		.file 8 "/usr/arm-none-eabi/include/math.h"
 795              		.section	.debug_info,"",%progbits
 796              	.Ldebug_info0:
 797 0000 BD0E0000 		.4byte	0xebd
 798 0004 0400     		.2byte	0x4
ARM GAS  /tmp/ccvSotpA.s 			page 15


 799 0006 00000000 		.4byte	.Ldebug_abbrev0
 800 000a 04       		.byte	0x4
 801 000b 01       		.uleb128 0x1
 802 000c 3B000000 		.4byte	.LASF158
 803 0010 0C       		.byte	0xc
 804 0011 6E060000 		.4byte	.LASF159
 805 0015 12000000 		.4byte	.LASF160
 806 0019 30000000 		.4byte	.Ldebug_ranges0+0x30
 807 001d 00000000 		.4byte	0
 808 0021 00000000 		.4byte	.Ldebug_line0
 809 0025 02       		.uleb128 0x2
 810 0026 04       		.byte	0x4
 811 0027 04       		.byte	0x4
 812 0028 96040000 		.4byte	.LASF0
 813 002c 02       		.uleb128 0x2
 814 002d 04       		.byte	0x4
 815 002e 07       		.byte	0x7
 816 002f 4F030000 		.4byte	.LASF1
 817 0033 02       		.uleb128 0x2
 818 0034 01       		.byte	0x1
 819 0035 06       		.byte	0x6
 820 0036 F6010000 		.4byte	.LASF2
 821 003a 03       		.uleb128 0x3
 822 003b 2B000000 		.4byte	.LASF4
 823 003f 02       		.byte	0x2
 824 0040 2B       		.byte	0x2b
 825 0041 45000000 		.4byte	0x45
 826 0045 02       		.uleb128 0x2
 827 0046 01       		.byte	0x1
 828 0047 08       		.byte	0x8
 829 0048 CE040000 		.4byte	.LASF3
 830 004c 03       		.uleb128 0x3
 831 004d F9020000 		.4byte	.LASF5
 832 0051 02       		.byte	0x2
 833 0052 37       		.byte	0x37
 834 0053 57000000 		.4byte	0x57
 835 0057 02       		.uleb128 0x2
 836 0058 02       		.byte	0x2
 837 0059 05       		.byte	0x5
 838 005a FE040000 		.4byte	.LASF6
 839 005e 03       		.uleb128 0x3
 840 005f 13060000 		.4byte	.LASF7
 841 0063 02       		.byte	0x2
 842 0064 39       		.byte	0x39
 843 0065 69000000 		.4byte	0x69
 844 0069 02       		.uleb128 0x2
 845 006a 02       		.byte	0x2
 846 006b 07       		.byte	0x7
 847 006c B7030000 		.4byte	.LASF8
 848 0070 03       		.uleb128 0x3
 849 0071 43060000 		.4byte	.LASF9
 850 0075 02       		.byte	0x2
 851 0076 4D       		.byte	0x4d
 852 0077 7B000000 		.4byte	0x7b
 853 007b 02       		.uleb128 0x2
 854 007c 04       		.byte	0x4
 855 007d 05       		.byte	0x5
ARM GAS  /tmp/ccvSotpA.s 			page 16


 856 007e 3B020000 		.4byte	.LASF10
 857 0082 03       		.uleb128 0x3
 858 0083 E8020000 		.4byte	.LASF11
 859 0087 02       		.byte	0x2
 860 0088 4F       		.byte	0x4f
 861 0089 8D000000 		.4byte	0x8d
 862 008d 02       		.uleb128 0x2
 863 008e 04       		.byte	0x4
 864 008f 07       		.byte	0x7
 865 0090 73030000 		.4byte	.LASF12
 866 0094 02       		.uleb128 0x2
 867 0095 08       		.byte	0x8
 868 0096 05       		.byte	0x5
 869 0097 E8010000 		.4byte	.LASF13
 870 009b 02       		.uleb128 0x2
 871 009c 08       		.byte	0x8
 872 009d 07       		.byte	0x7
 873 009e 7F010000 		.4byte	.LASF14
 874 00a2 04       		.uleb128 0x4
 875 00a3 04       		.byte	0x4
 876 00a4 05       		.byte	0x5
 877 00a5 696E7400 		.ascii	"int\000"
 878 00a9 03       		.uleb128 0x3
 879 00aa 10070000 		.4byte	.LASF15
 880 00ae 03       		.byte	0x3
 881 00af 18       		.byte	0x18
 882 00b0 3A000000 		.4byte	0x3a
 883 00b4 05       		.uleb128 0x5
 884 00b5 A9000000 		.4byte	0xa9
 885 00b9 03       		.uleb128 0x3
 886 00ba E0010000 		.4byte	.LASF16
 887 00be 03       		.byte	0x3
 888 00bf 20       		.byte	0x20
 889 00c0 4C000000 		.4byte	0x4c
 890 00c4 03       		.uleb128 0x3
 891 00c5 85020000 		.4byte	.LASF17
 892 00c9 03       		.byte	0x3
 893 00ca 24       		.byte	0x24
 894 00cb 5E000000 		.4byte	0x5e
 895 00cf 03       		.uleb128 0x3
 896 00d0 C6040000 		.4byte	.LASF18
 897 00d4 03       		.byte	0x3
 898 00d5 2C       		.byte	0x2c
 899 00d6 70000000 		.4byte	0x70
 900 00da 03       		.uleb128 0x3
 901 00db BA050000 		.4byte	.LASF19
 902 00df 03       		.byte	0x3
 903 00e0 30       		.byte	0x30
 904 00e1 82000000 		.4byte	0x82
 905 00e5 03       		.uleb128 0x3
 906 00e6 01040000 		.4byte	.LASF20
 907 00ea 04       		.byte	0x4
 908 00eb 22       		.byte	0x22
 909 00ec F0000000 		.4byte	0xf0
 910 00f0 06       		.uleb128 0x6
 911 00f1 04       		.byte	0x4
 912 00f2 F6000000 		.4byte	0xf6
ARM GAS  /tmp/ccvSotpA.s 			page 17


 913 00f6 07       		.uleb128 0x7
 914 00f7 B3050000 		.4byte	.LASF127
 915 00fb 03       		.uleb128 0x3
 916 00fc 8F040000 		.4byte	.LASF21
 917 0100 05       		.byte	0x5
 918 0101 2C       		.byte	0x2c
 919 0102 7B000000 		.4byte	0x7b
 920 0106 03       		.uleb128 0x3
 921 0107 D5050000 		.4byte	.LASF22
 922 010b 05       		.byte	0x5
 923 010c 72       		.byte	0x72
 924 010d 7B000000 		.4byte	0x7b
 925 0111 08       		.uleb128 0x8
 926 0112 09040000 		.4byte	.LASF23
 927 0116 06       		.byte	0x6
 928 0117 6501     		.2byte	0x165
 929 0119 2C000000 		.4byte	0x2c
 930 011d 09       		.uleb128 0x9
 931 011e 04       		.byte	0x4
 932 011f 05       		.byte	0x5
 933 0120 A6       		.byte	0xa6
 934 0121 3C010000 		.4byte	0x13c
 935 0125 0A       		.uleb128 0xa
 936 0126 F4030000 		.4byte	.LASF24
 937 012a 05       		.byte	0x5
 938 012b A8       		.byte	0xa8
 939 012c 11010000 		.4byte	0x111
 940 0130 0A       		.uleb128 0xa
 941 0131 5C030000 		.4byte	.LASF25
 942 0135 05       		.byte	0x5
 943 0136 A9       		.byte	0xa9
 944 0137 3C010000 		.4byte	0x13c
 945 013b 00       		.byte	0
 946 013c 0B       		.uleb128 0xb
 947 013d 45000000 		.4byte	0x45
 948 0141 4C010000 		.4byte	0x14c
 949 0145 0C       		.uleb128 0xc
 950 0146 2C000000 		.4byte	0x2c
 951 014a 03       		.byte	0x3
 952 014b 00       		.byte	0
 953 014c 0D       		.uleb128 0xd
 954 014d 08       		.byte	0x8
 955 014e 05       		.byte	0x5
 956 014f A3       		.byte	0xa3
 957 0150 6D010000 		.4byte	0x16d
 958 0154 0E       		.uleb128 0xe
 959 0155 AB050000 		.4byte	.LASF26
 960 0159 05       		.byte	0x5
 961 015a A5       		.byte	0xa5
 962 015b A2000000 		.4byte	0xa2
 963 015f 00       		.byte	0
 964 0160 0E       		.uleb128 0xe
 965 0161 66060000 		.4byte	.LASF27
 966 0165 05       		.byte	0x5
 967 0166 AA       		.byte	0xaa
 968 0167 1D010000 		.4byte	0x11d
 969 016b 04       		.byte	0x4
ARM GAS  /tmp/ccvSotpA.s 			page 18


 970 016c 00       		.byte	0
 971 016d 03       		.uleb128 0x3
 972 016e 26050000 		.4byte	.LASF28
 973 0172 05       		.byte	0x5
 974 0173 AB       		.byte	0xab
 975 0174 4C010000 		.4byte	0x14c
 976 0178 03       		.uleb128 0x3
 977 0179 41070000 		.4byte	.LASF29
 978 017d 05       		.byte	0x5
 979 017e AF       		.byte	0xaf
 980 017f E5000000 		.4byte	0xe5
 981 0183 0F       		.uleb128 0xf
 982 0184 04       		.byte	0x4
 983 0185 06       		.uleb128 0x6
 984 0186 04       		.byte	0x4
 985 0187 8B010000 		.4byte	0x18b
 986 018b 02       		.uleb128 0x2
 987 018c 01       		.byte	0x1
 988 018d 08       		.byte	0x8
 989 018e EA050000 		.4byte	.LASF30
 990 0192 05       		.uleb128 0x5
 991 0193 8B010000 		.4byte	0x18b
 992 0197 03       		.uleb128 0x3
 993 0198 7C060000 		.4byte	.LASF31
 994 019c 07       		.byte	0x7
 995 019d 16       		.byte	0x16
 996 019e 8D000000 		.4byte	0x8d
 997 01a2 10       		.uleb128 0x10
 998 01a3 0B030000 		.4byte	.LASF36
 999 01a7 18       		.byte	0x18
 1000 01a8 07       		.byte	0x7
 1001 01a9 2F       		.byte	0x2f
 1002 01aa F5010000 		.4byte	0x1f5
 1003 01ae 0E       		.uleb128 0xe
 1004 01af 53060000 		.4byte	.LASF32
 1005 01b3 07       		.byte	0x7
 1006 01b4 31       		.byte	0x31
 1007 01b5 F5010000 		.4byte	0x1f5
 1008 01b9 00       		.byte	0
 1009 01ba 11       		.uleb128 0x11
 1010 01bb 5F6B00   		.ascii	"_k\000"
 1011 01be 07       		.byte	0x7
 1012 01bf 32       		.byte	0x32
 1013 01c0 A2000000 		.4byte	0xa2
 1014 01c4 04       		.byte	0x4
 1015 01c5 0E       		.uleb128 0xe
 1016 01c6 96050000 		.4byte	.LASF33
 1017 01ca 07       		.byte	0x7
 1018 01cb 32       		.byte	0x32
 1019 01cc A2000000 		.4byte	0xa2
 1020 01d0 08       		.byte	0x8
 1021 01d1 0E       		.uleb128 0xe
 1022 01d2 F3020000 		.4byte	.LASF34
 1023 01d6 07       		.byte	0x7
 1024 01d7 32       		.byte	0x32
 1025 01d8 A2000000 		.4byte	0xa2
 1026 01dc 0C       		.byte	0xc
ARM GAS  /tmp/ccvSotpA.s 			page 19


 1027 01dd 0E       		.uleb128 0xe
 1028 01de D0060000 		.4byte	.LASF35
 1029 01e2 07       		.byte	0x7
 1030 01e3 32       		.byte	0x32
 1031 01e4 A2000000 		.4byte	0xa2
 1032 01e8 10       		.byte	0x10
 1033 01e9 11       		.uleb128 0x11
 1034 01ea 5F7800   		.ascii	"_x\000"
 1035 01ed 07       		.byte	0x7
 1036 01ee 33       		.byte	0x33
 1037 01ef FB010000 		.4byte	0x1fb
 1038 01f3 14       		.byte	0x14
 1039 01f4 00       		.byte	0
 1040 01f5 06       		.uleb128 0x6
 1041 01f6 04       		.byte	0x4
 1042 01f7 A2010000 		.4byte	0x1a2
 1043 01fb 0B       		.uleb128 0xb
 1044 01fc 97010000 		.4byte	0x197
 1045 0200 0B020000 		.4byte	0x20b
 1046 0204 0C       		.uleb128 0xc
 1047 0205 2C000000 		.4byte	0x2c
 1048 0209 00       		.byte	0
 1049 020a 00       		.byte	0
 1050 020b 10       		.uleb128 0x10
 1051 020c 4A030000 		.4byte	.LASF37
 1052 0210 24       		.byte	0x24
 1053 0211 07       		.byte	0x7
 1054 0212 37       		.byte	0x37
 1055 0213 84020000 		.4byte	0x284
 1056 0217 0E       		.uleb128 0xe
 1057 0218 D7010000 		.4byte	.LASF38
 1058 021c 07       		.byte	0x7
 1059 021d 39       		.byte	0x39
 1060 021e A2000000 		.4byte	0xa2
 1061 0222 00       		.byte	0
 1062 0223 0E       		.uleb128 0xe
 1063 0224 0A060000 		.4byte	.LASF39
 1064 0228 07       		.byte	0x7
 1065 0229 3A       		.byte	0x3a
 1066 022a A2000000 		.4byte	0xa2
 1067 022e 04       		.byte	0x4
 1068 022f 0E       		.uleb128 0xe
 1069 0230 0E020000 		.4byte	.LASF40
 1070 0234 07       		.byte	0x7
 1071 0235 3B       		.byte	0x3b
 1072 0236 A2000000 		.4byte	0xa2
 1073 023a 08       		.byte	0x8
 1074 023b 0E       		.uleb128 0xe
 1075 023c AD070000 		.4byte	.LASF41
 1076 0240 07       		.byte	0x7
 1077 0241 3C       		.byte	0x3c
 1078 0242 A2000000 		.4byte	0xa2
 1079 0246 0C       		.byte	0xc
 1080 0247 0E       		.uleb128 0xe
 1081 0248 6D040000 		.4byte	.LASF42
 1082 024c 07       		.byte	0x7
 1083 024d 3D       		.byte	0x3d
ARM GAS  /tmp/ccvSotpA.s 			page 20


 1084 024e A2000000 		.4byte	0xa2
 1085 0252 10       		.byte	0x10
 1086 0253 0E       		.uleb128 0xe
 1087 0254 25040000 		.4byte	.LASF43
 1088 0258 07       		.byte	0x7
 1089 0259 3E       		.byte	0x3e
 1090 025a A2000000 		.4byte	0xa2
 1091 025e 14       		.byte	0x14
 1092 025f 0E       		.uleb128 0xe
 1093 0260 D5060000 		.4byte	.LASF44
 1094 0264 07       		.byte	0x7
 1095 0265 3F       		.byte	0x3f
 1096 0266 A2000000 		.4byte	0xa2
 1097 026a 18       		.byte	0x18
 1098 026b 0E       		.uleb128 0xe
 1099 026c 08050000 		.4byte	.LASF45
 1100 0270 07       		.byte	0x7
 1101 0271 40       		.byte	0x40
 1102 0272 A2000000 		.4byte	0xa2
 1103 0276 1C       		.byte	0x1c
 1104 0277 0E       		.uleb128 0xe
 1105 0278 6D070000 		.4byte	.LASF46
 1106 027c 07       		.byte	0x7
 1107 027d 41       		.byte	0x41
 1108 027e A2000000 		.4byte	0xa2
 1109 0282 20       		.byte	0x20
 1110 0283 00       		.byte	0
 1111 0284 12       		.uleb128 0x12
 1112 0285 1D020000 		.4byte	.LASF47
 1113 0289 0801     		.2byte	0x108
 1114 028b 07       		.byte	0x7
 1115 028c 4A       		.byte	0x4a
 1116 028d C4020000 		.4byte	0x2c4
 1117 0291 0E       		.uleb128 0xe
 1118 0292 D5020000 		.4byte	.LASF48
 1119 0296 07       		.byte	0x7
 1120 0297 4B       		.byte	0x4b
 1121 0298 C4020000 		.4byte	0x2c4
 1122 029c 00       		.byte	0
 1123 029d 0E       		.uleb128 0xe
 1124 029e 00000000 		.4byte	.LASF49
 1125 02a2 07       		.byte	0x7
 1126 02a3 4C       		.byte	0x4c
 1127 02a4 C4020000 		.4byte	0x2c4
 1128 02a8 80       		.byte	0x80
 1129 02a9 13       		.uleb128 0x13
 1130 02aa 24060000 		.4byte	.LASF50
 1131 02ae 07       		.byte	0x7
 1132 02af 4E       		.byte	0x4e
 1133 02b0 97010000 		.4byte	0x197
 1134 02b4 0001     		.2byte	0x100
 1135 02b6 13       		.uleb128 0x13
 1136 02b7 4B020000 		.4byte	.LASF51
 1137 02bb 07       		.byte	0x7
 1138 02bc 51       		.byte	0x51
 1139 02bd 97010000 		.4byte	0x197
 1140 02c1 0401     		.2byte	0x104
ARM GAS  /tmp/ccvSotpA.s 			page 21


 1141 02c3 00       		.byte	0
 1142 02c4 0B       		.uleb128 0xb
 1143 02c5 83010000 		.4byte	0x183
 1144 02c9 D4020000 		.4byte	0x2d4
 1145 02cd 0C       		.uleb128 0xc
 1146 02ce 2C000000 		.4byte	0x2c
 1147 02d2 1F       		.byte	0x1f
 1148 02d3 00       		.byte	0
 1149 02d4 12       		.uleb128 0x12
 1150 02d5 7C040000 		.4byte	.LASF52
 1151 02d9 9001     		.2byte	0x190
 1152 02db 07       		.byte	0x7
 1153 02dc 5D       		.byte	0x5d
 1154 02dd 12030000 		.4byte	0x312
 1155 02e1 0E       		.uleb128 0xe
 1156 02e2 53060000 		.4byte	.LASF32
 1157 02e6 07       		.byte	0x7
 1158 02e7 5E       		.byte	0x5e
 1159 02e8 12030000 		.4byte	0x312
 1160 02ec 00       		.byte	0
 1161 02ed 0E       		.uleb128 0xe
 1162 02ee 66050000 		.4byte	.LASF53
 1163 02f2 07       		.byte	0x7
 1164 02f3 5F       		.byte	0x5f
 1165 02f4 A2000000 		.4byte	0xa2
 1166 02f8 04       		.byte	0x4
 1167 02f9 0E       		.uleb128 0xe
 1168 02fa E3020000 		.4byte	.LASF54
 1169 02fe 07       		.byte	0x7
 1170 02ff 61       		.byte	0x61
 1171 0300 18030000 		.4byte	0x318
 1172 0304 08       		.byte	0x8
 1173 0305 0E       		.uleb128 0xe
 1174 0306 1D020000 		.4byte	.LASF47
 1175 030a 07       		.byte	0x7
 1176 030b 62       		.byte	0x62
 1177 030c 84020000 		.4byte	0x284
 1178 0310 88       		.byte	0x88
 1179 0311 00       		.byte	0
 1180 0312 06       		.uleb128 0x6
 1181 0313 04       		.byte	0x4
 1182 0314 D4020000 		.4byte	0x2d4
 1183 0318 0B       		.uleb128 0xb
 1184 0319 28030000 		.4byte	0x328
 1185 031d 28030000 		.4byte	0x328
 1186 0321 0C       		.uleb128 0xc
 1187 0322 2C000000 		.4byte	0x2c
 1188 0326 1F       		.byte	0x1f
 1189 0327 00       		.byte	0
 1190 0328 06       		.uleb128 0x6
 1191 0329 04       		.byte	0x4
 1192 032a 2E030000 		.4byte	0x32e
 1193 032e 14       		.uleb128 0x14
 1194 032f 10       		.uleb128 0x10
 1195 0330 12050000 		.4byte	.LASF55
 1196 0334 08       		.byte	0x8
 1197 0335 07       		.byte	0x7
ARM GAS  /tmp/ccvSotpA.s 			page 22


 1198 0336 75       		.byte	0x75
 1199 0337 54030000 		.4byte	0x354
 1200 033b 0E       		.uleb128 0xe
 1201 033c 08020000 		.4byte	.LASF56
 1202 0340 07       		.byte	0x7
 1203 0341 76       		.byte	0x76
 1204 0342 54030000 		.4byte	0x354
 1205 0346 00       		.byte	0
 1206 0347 0E       		.uleb128 0xe
 1207 0348 DD020000 		.4byte	.LASF57
 1208 034c 07       		.byte	0x7
 1209 034d 77       		.byte	0x77
 1210 034e A2000000 		.4byte	0xa2
 1211 0352 04       		.byte	0x4
 1212 0353 00       		.byte	0
 1213 0354 06       		.uleb128 0x6
 1214 0355 04       		.byte	0x4
 1215 0356 45000000 		.4byte	0x45
 1216 035a 10       		.uleb128 0x10
 1217 035b 31050000 		.4byte	.LASF58
 1218 035f 68       		.byte	0x68
 1219 0360 07       		.byte	0x7
 1220 0361 B5       		.byte	0xb5
 1221 0362 84040000 		.4byte	0x484
 1222 0366 11       		.uleb128 0x11
 1223 0367 5F7000   		.ascii	"_p\000"
 1224 036a 07       		.byte	0x7
 1225 036b B6       		.byte	0xb6
 1226 036c 54030000 		.4byte	0x354
 1227 0370 00       		.byte	0
 1228 0371 11       		.uleb128 0x11
 1229 0372 5F7200   		.ascii	"_r\000"
 1230 0375 07       		.byte	0x7
 1231 0376 B7       		.byte	0xb7
 1232 0377 A2000000 		.4byte	0xa2
 1233 037b 04       		.byte	0x4
 1234 037c 11       		.uleb128 0x11
 1235 037d 5F7700   		.ascii	"_w\000"
 1236 0380 07       		.byte	0x7
 1237 0381 B8       		.byte	0xb8
 1238 0382 A2000000 		.4byte	0xa2
 1239 0386 08       		.byte	0x8
 1240 0387 0E       		.uleb128 0xe
 1241 0388 44020000 		.4byte	.LASF59
 1242 038c 07       		.byte	0x7
 1243 038d B9       		.byte	0xb9
 1244 038e 57000000 		.4byte	0x57
 1245 0392 0C       		.byte	0xc
 1246 0393 0E       		.uleb128 0xe
 1247 0394 85030000 		.4byte	.LASF60
 1248 0398 07       		.byte	0x7
 1249 0399 BA       		.byte	0xba
 1250 039a 57000000 		.4byte	0x57
 1251 039e 0E       		.byte	0xe
 1252 039f 11       		.uleb128 0x11
 1253 03a0 5F626600 		.ascii	"_bf\000"
 1254 03a4 07       		.byte	0x7
ARM GAS  /tmp/ccvSotpA.s 			page 23


 1255 03a5 BB       		.byte	0xbb
 1256 03a6 2F030000 		.4byte	0x32f
 1257 03aa 10       		.byte	0x10
 1258 03ab 0E       		.uleb128 0xe
 1259 03ac A5010000 		.4byte	.LASF61
 1260 03b0 07       		.byte	0x7
 1261 03b1 BC       		.byte	0xbc
 1262 03b2 A2000000 		.4byte	0xa2
 1263 03b6 18       		.byte	0x18
 1264 03b7 0E       		.uleb128 0xe
 1265 03b8 2B020000 		.4byte	.LASF62
 1266 03bc 07       		.byte	0x7
 1267 03bd C3       		.byte	0xc3
 1268 03be 83010000 		.4byte	0x183
 1269 03c2 1C       		.byte	0x1c
 1270 03c3 0E       		.uleb128 0xe
 1271 03c4 22030000 		.4byte	.LASF63
 1272 03c8 07       		.byte	0x7
 1273 03c9 C5       		.byte	0xc5
 1274 03ca DF050000 		.4byte	0x5df
 1275 03ce 20       		.byte	0x20
 1276 03cf 0E       		.uleb128 0xe
 1277 03d0 1E040000 		.4byte	.LASF64
 1278 03d4 07       		.byte	0x7
 1279 03d5 C7       		.byte	0xc7
 1280 03d6 09060000 		.4byte	0x609
 1281 03da 24       		.byte	0x24
 1282 03db 0E       		.uleb128 0xe
 1283 03dc C3050000 		.4byte	.LASF65
 1284 03e0 07       		.byte	0x7
 1285 03e1 CA       		.byte	0xca
 1286 03e2 2D060000 		.4byte	0x62d
 1287 03e6 28       		.byte	0x28
 1288 03e7 0E       		.uleb128 0xe
 1289 03e8 87070000 		.4byte	.LASF66
 1290 03ec 07       		.byte	0x7
 1291 03ed CB       		.byte	0xcb
 1292 03ee 47060000 		.4byte	0x647
 1293 03f2 2C       		.byte	0x2c
 1294 03f3 11       		.uleb128 0x11
 1295 03f4 5F756200 		.ascii	"_ub\000"
 1296 03f8 07       		.byte	0x7
 1297 03f9 CE       		.byte	0xce
 1298 03fa 2F030000 		.4byte	0x32f
 1299 03fe 30       		.byte	0x30
 1300 03ff 11       		.uleb128 0x11
 1301 0400 5F757000 		.ascii	"_up\000"
 1302 0404 07       		.byte	0x7
 1303 0405 CF       		.byte	0xcf
 1304 0406 54030000 		.4byte	0x354
 1305 040a 38       		.byte	0x38
 1306 040b 11       		.uleb128 0x11
 1307 040c 5F757200 		.ascii	"_ur\000"
 1308 0410 07       		.byte	0x7
 1309 0411 D0       		.byte	0xd0
 1310 0412 A2000000 		.4byte	0xa2
 1311 0416 3C       		.byte	0x3c
ARM GAS  /tmp/ccvSotpA.s 			page 24


 1312 0417 0E       		.uleb128 0xe
 1313 0418 02020000 		.4byte	.LASF67
 1314 041c 07       		.byte	0x7
 1315 041d D3       		.byte	0xd3
 1316 041e 4D060000 		.4byte	0x64d
 1317 0422 40       		.byte	0x40
 1318 0423 0E       		.uleb128 0xe
 1319 0424 5F070000 		.4byte	.LASF68
 1320 0428 07       		.byte	0x7
 1321 0429 D4       		.byte	0xd4
 1322 042a 5D060000 		.4byte	0x65d
 1323 042e 43       		.byte	0x43
 1324 042f 11       		.uleb128 0x11
 1325 0430 5F6C6200 		.ascii	"_lb\000"
 1326 0434 07       		.byte	0x7
 1327 0435 D7       		.byte	0xd7
 1328 0436 2F030000 		.4byte	0x32f
 1329 043a 44       		.byte	0x44
 1330 043b 0E       		.uleb128 0xe
 1331 043c 68020000 		.4byte	.LASF69
 1332 0440 07       		.byte	0x7
 1333 0441 DA       		.byte	0xda
 1334 0442 A2000000 		.4byte	0xa2
 1335 0446 4C       		.byte	0x4c
 1336 0447 0E       		.uleb128 0xe
 1337 0448 9D020000 		.4byte	.LASF70
 1338 044c 07       		.byte	0x7
 1339 044d DB       		.byte	0xdb
 1340 044e FB000000 		.4byte	0xfb
 1341 0452 50       		.byte	0x50
 1342 0453 0E       		.uleb128 0xe
 1343 0454 35000000 		.4byte	.LASF71
 1344 0458 07       		.byte	0x7
 1345 0459 DE       		.byte	0xde
 1346 045a A2040000 		.4byte	0x4a2
 1347 045e 54       		.byte	0x54
 1348 045f 0E       		.uleb128 0xe
 1349 0460 10040000 		.4byte	.LASF72
 1350 0464 07       		.byte	0x7
 1351 0465 E2       		.byte	0xe2
 1352 0466 78010000 		.4byte	0x178
 1353 046a 58       		.byte	0x58
 1354 046b 0E       		.uleb128 0xe
 1355 046c 39050000 		.4byte	.LASF73
 1356 0470 07       		.byte	0x7
 1357 0471 E4       		.byte	0xe4
 1358 0472 6D010000 		.4byte	0x16d
 1359 0476 5C       		.byte	0x5c
 1360 0477 0E       		.uleb128 0xe
 1361 0478 16040000 		.4byte	.LASF74
 1362 047c 07       		.byte	0x7
 1363 047d E5       		.byte	0xe5
 1364 047e A2000000 		.4byte	0xa2
 1365 0482 64       		.byte	0x64
 1366 0483 00       		.byte	0
 1367 0484 15       		.uleb128 0x15
 1368 0485 A2000000 		.4byte	0xa2
ARM GAS  /tmp/ccvSotpA.s 			page 25


 1369 0489 A2040000 		.4byte	0x4a2
 1370 048d 16       		.uleb128 0x16
 1371 048e A2040000 		.4byte	0x4a2
 1372 0492 16       		.uleb128 0x16
 1373 0493 83010000 		.4byte	0x183
 1374 0497 16       		.uleb128 0x16
 1375 0498 85010000 		.4byte	0x185
 1376 049c 16       		.uleb128 0x16
 1377 049d A2000000 		.4byte	0xa2
 1378 04a1 00       		.byte	0
 1379 04a2 06       		.uleb128 0x6
 1380 04a3 04       		.byte	0x4
 1381 04a4 AD040000 		.4byte	0x4ad
 1382 04a8 05       		.uleb128 0x5
 1383 04a9 A2040000 		.4byte	0x4a2
 1384 04ad 17       		.uleb128 0x17
 1385 04ae 9E050000 		.4byte	.LASF75
 1386 04b2 2804     		.2byte	0x428
 1387 04b4 07       		.byte	0x7
 1388 04b5 6002     		.2byte	0x260
 1389 04b7 DF050000 		.4byte	0x5df
 1390 04bb 18       		.uleb128 0x18
 1391 04bc E3050000 		.4byte	.LASF76
 1392 04c0 07       		.byte	0x7
 1393 04c1 6202     		.2byte	0x262
 1394 04c3 A2000000 		.4byte	0xa2
 1395 04c7 00       		.byte	0
 1396 04c8 18       		.uleb128 0x18
 1397 04c9 53020000 		.4byte	.LASF77
 1398 04cd 07       		.byte	0x7
 1399 04ce 6702     		.2byte	0x267
 1400 04d0 B4060000 		.4byte	0x6b4
 1401 04d4 04       		.byte	0x4
 1402 04d5 18       		.uleb128 0x18
 1403 04d6 63030000 		.4byte	.LASF78
 1404 04da 07       		.byte	0x7
 1405 04db 6702     		.2byte	0x267
 1406 04dd B4060000 		.4byte	0x6b4
 1407 04e1 08       		.byte	0x8
 1408 04e2 18       		.uleb128 0x18
 1409 04e3 03030000 		.4byte	.LASF79
 1410 04e7 07       		.byte	0x7
 1411 04e8 6702     		.2byte	0x267
 1412 04ea B4060000 		.4byte	0x6b4
 1413 04ee 0C       		.byte	0xc
 1414 04ef 18       		.uleb128 0x18
 1415 04f0 61050000 		.4byte	.LASF80
 1416 04f4 07       		.byte	0x7
 1417 04f5 6902     		.2byte	0x269
 1418 04f7 A2000000 		.4byte	0xa2
 1419 04fb 10       		.byte	0x10
 1420 04fc 18       		.uleb128 0x18
 1421 04fd 20000000 		.4byte	.LASF81
 1422 0501 07       		.byte	0x7
 1423 0502 6A02     		.2byte	0x26a
 1424 0504 96080000 		.4byte	0x896
 1425 0508 14       		.byte	0x14
ARM GAS  /tmp/ccvSotpA.s 			page 26


 1426 0509 18       		.uleb128 0x18
 1427 050a 7D050000 		.4byte	.LASF82
 1428 050e 07       		.byte	0x7
 1429 050f 6D02     		.2byte	0x26d
 1430 0511 A2000000 		.4byte	0xa2
 1431 0515 30       		.byte	0x30
 1432 0516 18       		.uleb128 0x18
 1433 0517 6B050000 		.4byte	.LASF83
 1434 051b 07       		.byte	0x7
 1435 051c 6E02     		.2byte	0x26e
 1436 051e AB080000 		.4byte	0x8ab
 1437 0522 34       		.byte	0x34
 1438 0523 18       		.uleb128 0x18
 1439 0524 84040000 		.4byte	.LASF84
 1440 0528 07       		.byte	0x7
 1441 0529 7002     		.2byte	0x270
 1442 052b A2000000 		.4byte	0xa2
 1443 052f 38       		.byte	0x38
 1444 0530 18       		.uleb128 0x18
 1445 0531 73050000 		.4byte	.LASF85
 1446 0535 07       		.byte	0x7
 1447 0536 7202     		.2byte	0x272
 1448 0538 BC080000 		.4byte	0x8bc
 1449 053c 3C       		.byte	0x3c
 1450 053d 18       		.uleb128 0x18
 1451 053e EC030000 		.4byte	.LASF86
 1452 0542 07       		.byte	0x7
 1453 0543 7502     		.2byte	0x275
 1454 0545 F5010000 		.4byte	0x1f5
 1455 0549 40       		.byte	0x40
 1456 054a 18       		.uleb128 0x18
 1457 054b 28030000 		.4byte	.LASF87
 1458 054f 07       		.byte	0x7
 1459 0550 7602     		.2byte	0x276
 1460 0552 A2000000 		.4byte	0xa2
 1461 0556 44       		.byte	0x44
 1462 0557 18       		.uleb128 0x18
 1463 0558 A1070000 		.4byte	.LASF88
 1464 055c 07       		.byte	0x7
 1465 055d 7702     		.2byte	0x277
 1466 055f F5010000 		.4byte	0x1f5
 1467 0563 48       		.byte	0x48
 1468 0564 18       		.uleb128 0x18
 1469 0565 9C040000 		.4byte	.LASF89
 1470 0569 07       		.byte	0x7
 1471 056a 7802     		.2byte	0x278
 1472 056c C2080000 		.4byte	0x8c2
 1473 0570 4C       		.byte	0x4c
 1474 0571 18       		.uleb128 0x18
 1475 0572 6B030000 		.4byte	.LASF90
 1476 0576 07       		.byte	0x7
 1477 0577 7B02     		.2byte	0x27b
 1478 0579 A2000000 		.4byte	0xa2
 1479 057d 50       		.byte	0x50
 1480 057e 18       		.uleb128 0x18
 1481 057f 95020000 		.4byte	.LASF91
 1482 0583 07       		.byte	0x7
ARM GAS  /tmp/ccvSotpA.s 			page 27


 1483 0584 7C02     		.2byte	0x27c
 1484 0586 85010000 		.4byte	0x185
 1485 058a 54       		.byte	0x54
 1486 058b 18       		.uleb128 0x18
 1487 058c F0040000 		.4byte	.LASF92
 1488 0590 07       		.byte	0x7
 1489 0591 9F02     		.2byte	0x29f
 1490 0593 74080000 		.4byte	0x874
 1491 0597 58       		.byte	0x58
 1492 0598 19       		.uleb128 0x19
 1493 0599 7C040000 		.4byte	.LASF52
 1494 059d 07       		.byte	0x7
 1495 059e A302     		.2byte	0x2a3
 1496 05a0 12030000 		.4byte	0x312
 1497 05a4 4801     		.2byte	0x148
 1498 05a6 19       		.uleb128 0x19
 1499 05a7 CA030000 		.4byte	.LASF93
 1500 05ab 07       		.byte	0x7
 1501 05ac A402     		.2byte	0x2a4
 1502 05ae D4020000 		.4byte	0x2d4
 1503 05b2 4C01     		.2byte	0x14c
 1504 05b4 19       		.uleb128 0x19
 1505 05b5 22070000 		.4byte	.LASF94
 1506 05b9 07       		.byte	0x7
 1507 05ba A802     		.2byte	0x2a8
 1508 05bc D3080000 		.4byte	0x8d3
 1509 05c0 DC02     		.2byte	0x2dc
 1510 05c2 19       		.uleb128 0x19
 1511 05c3 33020000 		.4byte	.LASF95
 1512 05c7 07       		.byte	0x7
 1513 05c8 AD02     		.2byte	0x2ad
 1514 05ca 79060000 		.4byte	0x679
 1515 05ce E002     		.2byte	0x2e0
 1516 05d0 19       		.uleb128 0x19
 1517 05d1 18020000 		.4byte	.LASF96
 1518 05d5 07       		.byte	0x7
 1519 05d6 AF02     		.2byte	0x2af
 1520 05d8 DF080000 		.4byte	0x8df
 1521 05dc EC02     		.2byte	0x2ec
 1522 05de 00       		.byte	0
 1523 05df 06       		.uleb128 0x6
 1524 05e0 04       		.byte	0x4
 1525 05e1 84040000 		.4byte	0x484
 1526 05e5 15       		.uleb128 0x15
 1527 05e6 A2000000 		.4byte	0xa2
 1528 05ea 03060000 		.4byte	0x603
 1529 05ee 16       		.uleb128 0x16
 1530 05ef A2040000 		.4byte	0x4a2
 1531 05f3 16       		.uleb128 0x16
 1532 05f4 83010000 		.4byte	0x183
 1533 05f8 16       		.uleb128 0x16
 1534 05f9 03060000 		.4byte	0x603
 1535 05fd 16       		.uleb128 0x16
 1536 05fe A2000000 		.4byte	0xa2
 1537 0602 00       		.byte	0
 1538 0603 06       		.uleb128 0x6
 1539 0604 04       		.byte	0x4
ARM GAS  /tmp/ccvSotpA.s 			page 28


 1540 0605 92010000 		.4byte	0x192
 1541 0609 06       		.uleb128 0x6
 1542 060a 04       		.byte	0x4
 1543 060b E5050000 		.4byte	0x5e5
 1544 060f 15       		.uleb128 0x15
 1545 0610 06010000 		.4byte	0x106
 1546 0614 2D060000 		.4byte	0x62d
 1547 0618 16       		.uleb128 0x16
 1548 0619 A2040000 		.4byte	0x4a2
 1549 061d 16       		.uleb128 0x16
 1550 061e 83010000 		.4byte	0x183
 1551 0622 16       		.uleb128 0x16
 1552 0623 06010000 		.4byte	0x106
 1553 0627 16       		.uleb128 0x16
 1554 0628 A2000000 		.4byte	0xa2
 1555 062c 00       		.byte	0
 1556 062d 06       		.uleb128 0x6
 1557 062e 04       		.byte	0x4
 1558 062f 0F060000 		.4byte	0x60f
 1559 0633 15       		.uleb128 0x15
 1560 0634 A2000000 		.4byte	0xa2
 1561 0638 47060000 		.4byte	0x647
 1562 063c 16       		.uleb128 0x16
 1563 063d A2040000 		.4byte	0x4a2
 1564 0641 16       		.uleb128 0x16
 1565 0642 83010000 		.4byte	0x183
 1566 0646 00       		.byte	0
 1567 0647 06       		.uleb128 0x6
 1568 0648 04       		.byte	0x4
 1569 0649 33060000 		.4byte	0x633
 1570 064d 0B       		.uleb128 0xb
 1571 064e 45000000 		.4byte	0x45
 1572 0652 5D060000 		.4byte	0x65d
 1573 0656 0C       		.uleb128 0xc
 1574 0657 2C000000 		.4byte	0x2c
 1575 065b 02       		.byte	0x2
 1576 065c 00       		.byte	0
 1577 065d 0B       		.uleb128 0xb
 1578 065e 45000000 		.4byte	0x45
 1579 0662 6D060000 		.4byte	0x66d
 1580 0666 0C       		.uleb128 0xc
 1581 0667 2C000000 		.4byte	0x2c
 1582 066b 00       		.byte	0
 1583 066c 00       		.byte	0
 1584 066d 08       		.uleb128 0x8
 1585 066e 1F050000 		.4byte	.LASF97
 1586 0672 07       		.byte	0x7
 1587 0673 1F01     		.2byte	0x11f
 1588 0675 5A030000 		.4byte	0x35a
 1589 0679 1A       		.uleb128 0x1a
 1590 067a DF060000 		.4byte	.LASF98
 1591 067e 0C       		.byte	0xc
 1592 067f 07       		.byte	0x7
 1593 0680 2301     		.2byte	0x123
 1594 0682 AE060000 		.4byte	0x6ae
 1595 0686 18       		.uleb128 0x18
 1596 0687 53060000 		.4byte	.LASF32
ARM GAS  /tmp/ccvSotpA.s 			page 29


 1597 068b 07       		.byte	0x7
 1598 068c 2501     		.2byte	0x125
 1599 068e AE060000 		.4byte	0x6ae
 1600 0692 00       		.byte	0
 1601 0693 18       		.uleb128 0x18
 1602 0694 B0030000 		.4byte	.LASF99
 1603 0698 07       		.byte	0x7
 1604 0699 2601     		.2byte	0x126
 1605 069b A2000000 		.4byte	0xa2
 1606 069f 04       		.byte	0x4
 1607 06a0 18       		.uleb128 0x18
 1608 06a1 19050000 		.4byte	.LASF100
 1609 06a5 07       		.byte	0x7
 1610 06a6 2701     		.2byte	0x127
 1611 06a8 B4060000 		.4byte	0x6b4
 1612 06ac 08       		.byte	0x8
 1613 06ad 00       		.byte	0
 1614 06ae 06       		.uleb128 0x6
 1615 06af 04       		.byte	0x4
 1616 06b0 79060000 		.4byte	0x679
 1617 06b4 06       		.uleb128 0x6
 1618 06b5 04       		.byte	0x4
 1619 06b6 6D060000 		.4byte	0x66d
 1620 06ba 1A       		.uleb128 0x1a
 1621 06bb 18000000 		.4byte	.LASF101
 1622 06bf 0E       		.byte	0xe
 1623 06c0 07       		.byte	0x7
 1624 06c1 3F01     		.2byte	0x13f
 1625 06c3 EF060000 		.4byte	0x6ef
 1626 06c7 18       		.uleb128 0x18
 1627 06c8 A5050000 		.4byte	.LASF102
 1628 06cc 07       		.byte	0x7
 1629 06cd 4001     		.2byte	0x140
 1630 06cf EF060000 		.4byte	0x6ef
 1631 06d3 00       		.byte	0
 1632 06d4 18       		.uleb128 0x18
 1633 06d5 4D060000 		.4byte	.LASF103
 1634 06d9 07       		.byte	0x7
 1635 06da 4101     		.2byte	0x141
 1636 06dc EF060000 		.4byte	0x6ef
 1637 06e0 06       		.byte	0x6
 1638 06e1 18       		.uleb128 0x18
 1639 06e2 77060000 		.4byte	.LASF104
 1640 06e6 07       		.byte	0x7
 1641 06e7 4201     		.2byte	0x142
 1642 06e9 69000000 		.4byte	0x69
 1643 06ed 0C       		.byte	0xc
 1644 06ee 00       		.byte	0
 1645 06ef 0B       		.uleb128 0xb
 1646 06f0 69000000 		.4byte	0x69
 1647 06f4 FF060000 		.4byte	0x6ff
 1648 06f8 0C       		.uleb128 0xc
 1649 06f9 2C000000 		.4byte	0x2c
 1650 06fd 02       		.byte	0x2
 1651 06fe 00       		.byte	0
 1652 06ff 1B       		.uleb128 0x1b
 1653 0700 D0       		.byte	0xd0
ARM GAS  /tmp/ccvSotpA.s 			page 30


 1654 0701 07       		.byte	0x7
 1655 0702 8002     		.2byte	0x280
 1656 0704 00080000 		.4byte	0x800
 1657 0708 18       		.uleb128 0x18
 1658 0709 C3060000 		.4byte	.LASF105
 1659 070d 07       		.byte	0x7
 1660 070e 8202     		.2byte	0x282
 1661 0710 2C000000 		.4byte	0x2c
 1662 0714 00       		.byte	0
 1663 0715 18       		.uleb128 0x18
 1664 0716 59060000 		.4byte	.LASF106
 1665 071a 07       		.byte	0x7
 1666 071b 8302     		.2byte	0x283
 1667 071d 85010000 		.4byte	0x185
 1668 0721 04       		.byte	0x4
 1669 0722 18       		.uleb128 0x18
 1670 0723 DF030000 		.4byte	.LASF107
 1671 0727 07       		.byte	0x7
 1672 0728 8402     		.2byte	0x284
 1673 072a 00080000 		.4byte	0x800
 1674 072e 08       		.byte	0x8
 1675 072f 18       		.uleb128 0x18
 1676 0730 78070000 		.4byte	.LASF108
 1677 0734 07       		.byte	0x7
 1678 0735 8502     		.2byte	0x285
 1679 0737 0B020000 		.4byte	0x20b
 1680 073b 24       		.byte	0x24
 1681 073c 18       		.uleb128 0x18
 1682 073d 13030000 		.4byte	.LASF109
 1683 0741 07       		.byte	0x7
 1684 0742 8602     		.2byte	0x286
 1685 0744 A2000000 		.4byte	0xa2
 1686 0748 48       		.byte	0x48
 1687 0749 18       		.uleb128 0x18
 1688 074a 42050000 		.4byte	.LASF110
 1689 074e 07       		.byte	0x7
 1690 074f 8702     		.2byte	0x287
 1691 0751 9B000000 		.4byte	0x9b
 1692 0755 50       		.byte	0x50
 1693 0756 18       		.uleb128 0x18
 1694 0757 8E070000 		.4byte	.LASF111
 1695 075b 07       		.byte	0x7
 1696 075c 8802     		.2byte	0x288
 1697 075e BA060000 		.4byte	0x6ba
 1698 0762 58       		.byte	0x58
 1699 0763 18       		.uleb128 0x18
 1700 0764 54050000 		.4byte	.LASF112
 1701 0768 07       		.byte	0x7
 1702 0769 8902     		.2byte	0x289
 1703 076b 6D010000 		.4byte	0x16d
 1704 076f 68       		.byte	0x68
 1705 0770 18       		.uleb128 0x18
 1706 0771 93070000 		.4byte	.LASF113
 1707 0775 07       		.byte	0x7
 1708 0776 8A02     		.2byte	0x28a
 1709 0778 6D010000 		.4byte	0x16d
 1710 077c 70       		.byte	0x70
ARM GAS  /tmp/ccvSotpA.s 			page 31


 1711 077d 18       		.uleb128 0x18
 1712 077e A6040000 		.4byte	.LASF114
 1713 0782 07       		.byte	0x7
 1714 0783 8B02     		.2byte	0x28b
 1715 0785 6D010000 		.4byte	0x16d
 1716 0789 78       		.byte	0x78
 1717 078a 18       		.uleb128 0x18
 1718 078b 18070000 		.4byte	.LASF115
 1719 078f 07       		.byte	0x7
 1720 0790 8C02     		.2byte	0x28c
 1721 0792 10080000 		.4byte	0x810
 1722 0796 80       		.byte	0x80
 1723 0797 18       		.uleb128 0x18
 1724 0798 D3030000 		.4byte	.LASF116
 1725 079c 07       		.byte	0x7
 1726 079d 8D02     		.2byte	0x28d
 1727 079f 20080000 		.4byte	0x820
 1728 07a3 88       		.byte	0x88
 1729 07a4 18       		.uleb128 0x18
 1730 07a5 84060000 		.4byte	.LASF117
 1731 07a9 07       		.byte	0x7
 1732 07aa 8E02     		.2byte	0x28e
 1733 07ac A2000000 		.4byte	0xa2
 1734 07b0 A0       		.byte	0xa0
 1735 07b1 18       		.uleb128 0x18
 1736 07b2 B6020000 		.4byte	.LASF118
 1737 07b6 07       		.byte	0x7
 1738 07b7 8F02     		.2byte	0x28f
 1739 07b9 6D010000 		.4byte	0x16d
 1740 07bd A4       		.byte	0xa4
 1741 07be 18       		.uleb128 0x18
 1742 07bf C8010000 		.4byte	.LASF119
 1743 07c3 07       		.byte	0x7
 1744 07c4 9002     		.2byte	0x290
 1745 07c6 6D010000 		.4byte	0x16d
 1746 07ca AC       		.byte	0xac
 1747 07cb 18       		.uleb128 0x18
 1748 07cc A5020000 		.4byte	.LASF120
 1749 07d0 07       		.byte	0x7
 1750 07d1 9102     		.2byte	0x291
 1751 07d3 6D010000 		.4byte	0x16d
 1752 07d7 B4       		.byte	0xb4
 1753 07d8 18       		.uleb128 0x18
 1754 07d9 5F010000 		.4byte	.LASF121
 1755 07dd 07       		.byte	0x7
 1756 07de 9202     		.2byte	0x292
 1757 07e0 6D010000 		.4byte	0x16d
 1758 07e4 BC       		.byte	0xbc
 1759 07e5 18       		.uleb128 0x18
 1760 07e6 6E010000 		.4byte	.LASF122
 1761 07ea 07       		.byte	0x7
 1762 07eb 9302     		.2byte	0x293
 1763 07ed 6D010000 		.4byte	0x16d
 1764 07f1 C4       		.byte	0xc4
 1765 07f2 18       		.uleb128 0x18
 1766 07f3 F5040000 		.4byte	.LASF123
 1767 07f7 07       		.byte	0x7
ARM GAS  /tmp/ccvSotpA.s 			page 32


 1768 07f8 9402     		.2byte	0x294
 1769 07fa A2000000 		.4byte	0xa2
 1770 07fe CC       		.byte	0xcc
 1771 07ff 00       		.byte	0
 1772 0800 0B       		.uleb128 0xb
 1773 0801 8B010000 		.4byte	0x18b
 1774 0805 10080000 		.4byte	0x810
 1775 0809 0C       		.uleb128 0xc
 1776 080a 2C000000 		.4byte	0x2c
 1777 080e 19       		.byte	0x19
 1778 080f 00       		.byte	0
 1779 0810 0B       		.uleb128 0xb
 1780 0811 8B010000 		.4byte	0x18b
 1781 0815 20080000 		.4byte	0x820
 1782 0819 0C       		.uleb128 0xc
 1783 081a 2C000000 		.4byte	0x2c
 1784 081e 07       		.byte	0x7
 1785 081f 00       		.byte	0
 1786 0820 0B       		.uleb128 0xb
 1787 0821 8B010000 		.4byte	0x18b
 1788 0825 30080000 		.4byte	0x830
 1789 0829 0C       		.uleb128 0xc
 1790 082a 2C000000 		.4byte	0x2c
 1791 082e 17       		.byte	0x17
 1792 082f 00       		.byte	0
 1793 0830 1B       		.uleb128 0x1b
 1794 0831 F0       		.byte	0xf0
 1795 0832 07       		.byte	0x7
 1796 0833 9902     		.2byte	0x299
 1797 0835 54080000 		.4byte	0x854
 1798 0839 18       		.uleb128 0x18
 1799 083a 3F040000 		.4byte	.LASF124
 1800 083e 07       		.byte	0x7
 1801 083f 9C02     		.2byte	0x29c
 1802 0841 54080000 		.4byte	0x854
 1803 0845 00       		.byte	0
 1804 0846 18       		.uleb128 0x18
 1805 0847 2F040000 		.4byte	.LASF125
 1806 084b 07       		.byte	0x7
 1807 084c 9D02     		.2byte	0x29d
 1808 084e 64080000 		.4byte	0x864
 1809 0852 78       		.byte	0x78
 1810 0853 00       		.byte	0
 1811 0854 0B       		.uleb128 0xb
 1812 0855 54030000 		.4byte	0x354
 1813 0859 64080000 		.4byte	0x864
 1814 085d 0C       		.uleb128 0xc
 1815 085e 2C000000 		.4byte	0x2c
 1816 0862 1D       		.byte	0x1d
 1817 0863 00       		.byte	0
 1818 0864 0B       		.uleb128 0xb
 1819 0865 2C000000 		.4byte	0x2c
 1820 0869 74080000 		.4byte	0x874
 1821 086d 0C       		.uleb128 0xc
 1822 086e 2C000000 		.4byte	0x2c
 1823 0872 1D       		.byte	0x1d
 1824 0873 00       		.byte	0
ARM GAS  /tmp/ccvSotpA.s 			page 33


 1825 0874 1C       		.uleb128 0x1c
 1826 0875 F0       		.byte	0xf0
 1827 0876 07       		.byte	0x7
 1828 0877 7E02     		.2byte	0x27e
 1829 0879 96080000 		.4byte	0x896
 1830 087d 1D       		.uleb128 0x1d
 1831 087e 9E050000 		.4byte	.LASF75
 1832 0882 07       		.byte	0x7
 1833 0883 9502     		.2byte	0x295
 1834 0885 FF060000 		.4byte	0x6ff
 1835 0889 1D       		.uleb128 0x1d
 1836 088a 65070000 		.4byte	.LASF126
 1837 088e 07       		.byte	0x7
 1838 088f 9E02     		.2byte	0x29e
 1839 0891 30080000 		.4byte	0x830
 1840 0895 00       		.byte	0
 1841 0896 0B       		.uleb128 0xb
 1842 0897 8B010000 		.4byte	0x18b
 1843 089b A6080000 		.4byte	0x8a6
 1844 089f 0C       		.uleb128 0xc
 1845 08a0 2C000000 		.4byte	0x2c
 1846 08a4 18       		.byte	0x18
 1847 08a5 00       		.byte	0
 1848 08a6 07       		.uleb128 0x7
 1849 08a7 AE010000 		.4byte	.LASF128
 1850 08ab 06       		.uleb128 0x6
 1851 08ac 04       		.byte	0x4
 1852 08ad A6080000 		.4byte	0x8a6
 1853 08b1 1E       		.uleb128 0x1e
 1854 08b2 BC080000 		.4byte	0x8bc
 1855 08b6 16       		.uleb128 0x16
 1856 08b7 A2040000 		.4byte	0x4a2
 1857 08bb 00       		.byte	0
 1858 08bc 06       		.uleb128 0x6
 1859 08bd 04       		.byte	0x4
 1860 08be B1080000 		.4byte	0x8b1
 1861 08c2 06       		.uleb128 0x6
 1862 08c3 04       		.byte	0x4
 1863 08c4 F5010000 		.4byte	0x1f5
 1864 08c8 1E       		.uleb128 0x1e
 1865 08c9 D3080000 		.4byte	0x8d3
 1866 08cd 16       		.uleb128 0x16
 1867 08ce A2000000 		.4byte	0xa2
 1868 08d2 00       		.byte	0
 1869 08d3 06       		.uleb128 0x6
 1870 08d4 04       		.byte	0x4
 1871 08d5 D9080000 		.4byte	0x8d9
 1872 08d9 06       		.uleb128 0x6
 1873 08da 04       		.byte	0x4
 1874 08db C8080000 		.4byte	0x8c8
 1875 08df 0B       		.uleb128 0xb
 1876 08e0 6D060000 		.4byte	0x66d
 1877 08e4 EF080000 		.4byte	0x8ef
 1878 08e8 0C       		.uleb128 0xc
 1879 08e9 2C000000 		.4byte	0x2c
 1880 08ed 02       		.byte	0x2
 1881 08ee 00       		.byte	0
ARM GAS  /tmp/ccvSotpA.s 			page 34


 1882 08ef 1F       		.uleb128 0x1f
 1883 08f0 C9050000 		.4byte	.LASF129
 1884 08f4 07       		.byte	0x7
 1885 08f5 2E03     		.2byte	0x32e
 1886 08f7 A2040000 		.4byte	0x4a2
 1887 08fb 1F       		.uleb128 0x1f
 1888 08fc A2060000 		.4byte	.LASF130
 1889 0900 07       		.byte	0x7
 1890 0901 2F03     		.2byte	0x32f
 1891 0903 A8040000 		.4byte	0x4a8
 1892 0907 02       		.uleb128 0x2
 1893 0908 08       		.byte	0x8
 1894 0909 04       		.byte	0x4
 1895 090a 8E020000 		.4byte	.LASF131
 1896 090e 20       		.uleb128 0x20
 1897 090f 91060000 		.4byte	.LASF161
 1898 0913 05       		.byte	0x5
 1899 0914 01       		.byte	0x1
 1900 0915 33000000 		.4byte	0x33
 1901 0919 08       		.byte	0x8
 1902 091a 8202     		.2byte	0x282
 1903 091c 39090000 		.4byte	0x939
 1904 0920 21       		.uleb128 0x21
 1905 0921 B5060000 		.4byte	.LASF132
 1906 0925 7F       		.sleb128 -1
 1907 0926 22       		.uleb128 0x22
 1908 0927 5A020000 		.4byte	.LASF133
 1909 092b 00       		.byte	0
 1910 092c 22       		.uleb128 0x22
 1911 092d B9010000 		.4byte	.LASF134
 1912 0931 01       		.byte	0x1
 1913 0932 22       		.uleb128 0x22
 1914 0933 96010000 		.4byte	.LASF135
 1915 0937 02       		.byte	0x2
 1916 0938 00       		.byte	0
 1917 0939 1F       		.uleb128 0x1f
 1918 093a 00070000 		.4byte	.LASF136
 1919 093e 08       		.byte	0x8
 1920 093f 8D02     		.2byte	0x28d
 1921 0941 0E090000 		.4byte	0x90e
 1922 0945 23       		.uleb128 0x23
 1923 0946 32030000 		.4byte	.LASF141
 1924 094a 01       		.byte	0x1
 1925 094b A1       		.byte	0xa1
 1926 094c 25000000 		.4byte	0x25
 1927 0950 00000000 		.4byte	.LFB13
 1928 0954 48000000 		.4byte	.LFE13-.LFB13
 1929 0958 01       		.uleb128 0x1
 1930 0959 9C       		.byte	0x9c
 1931 095a EA090000 		.4byte	0x9ea
 1932 095e 24       		.uleb128 0x24
 1933 095f 4D050000 		.4byte	.LASF137
 1934 0963 01       		.byte	0x1
 1935 0964 A1       		.byte	0xa1
 1936 0965 EA090000 		.4byte	0x9ea
 1937 0969 00000000 		.4byte	.LLST25
 1938 096d 24       		.uleb128 0x24
ARM GAS  /tmp/ccvSotpA.s 			page 35


 1939 096e 1E060000 		.4byte	.LASF138
 1940 0972 01       		.byte	0x1
 1941 0973 A1       		.byte	0xa1
 1942 0974 F0090000 		.4byte	0x9f0
 1943 0978 21000000 		.4byte	.LLST26
 1944 097c 25       		.uleb128 0x25
 1945 097d 72657300 		.ascii	"res\000"
 1946 0981 01       		.byte	0x1
 1947 0982 A2       		.byte	0xa2
 1948 0983 DA000000 		.4byte	0xda
 1949 0987 4D000000 		.4byte	.LLST27
 1950 098b 25       		.uleb128 0x25
 1951 098c 6500     		.ascii	"e\000"
 1952 098e 01       		.byte	0x1
 1953 098f A4       		.byte	0xa4
 1954 0990 A2000000 		.4byte	0xa2
 1955 0994 6B000000 		.4byte	.LLST28
 1956 0998 26       		.uleb128 0x26
 1957 0999 76040000 		.4byte	.LASF139
 1958 099d 01       		.byte	0x1
 1959 099e A5       		.byte	0xa5
 1960 099f DA000000 		.4byte	0xda
 1961 09a3 94000000 		.4byte	.LLST29
 1962 09a7 25       		.uleb128 0x25
 1963 09a8 6E656700 		.ascii	"neg\000"
 1964 09ac 01       		.byte	0x1
 1965 09ad A6       		.byte	0xa6
 1966 09ae F6090000 		.4byte	0x9f6
 1967 09b2 B2000000 		.4byte	.LLST30
 1968 09b6 25       		.uleb128 0x25
 1969 09b7 73696700 		.ascii	"sig\000"
 1970 09bb 01       		.byte	0x1
 1971 09bc A8       		.byte	0xa8
 1972 09bd 25000000 		.4byte	0x25
 1973 09c1 D8000000 		.4byte	.LLST31
 1974 09c5 27       		.uleb128 0x27
 1975 09c6 06000000 		.4byte	.LVL48
 1976 09ca CB0A0000 		.4byte	0xacb
 1977 09ce E0090000 		.4byte	0x9e0
 1978 09d2 28       		.uleb128 0x28
 1979 09d3 01       		.uleb128 0x1
 1980 09d4 50       		.byte	0x50
 1981 09d5 03       		.uleb128 0x3
 1982 09d6 F3       		.byte	0xf3
 1983 09d7 01       		.uleb128 0x1
 1984 09d8 50       		.byte	0x50
 1985 09d9 28       		.uleb128 0x28
 1986 09da 01       		.uleb128 0x1
 1987 09db 51       		.byte	0x51
 1988 09dc 02       		.uleb128 0x2
 1989 09dd 71       		.byte	0x71
 1990 09de 00       		.sleb128 0
 1991 09df 00       		.byte	0
 1992 09e0 29       		.uleb128 0x29
 1993 09e1 3A000000 		.4byte	.LVL56
 1994 09e5 A80E0000 		.4byte	0xea8
 1995 09e9 00       		.byte	0
ARM GAS  /tmp/ccvSotpA.s 			page 36


 1996 09ea 06       		.uleb128 0x6
 1997 09eb 04       		.byte	0x4
 1998 09ec B4000000 		.4byte	0xb4
 1999 09f0 06       		.uleb128 0x6
 2000 09f1 04       		.byte	0x4
 2001 09f2 CF000000 		.4byte	0xcf
 2002 09f6 02       		.uleb128 0x2
 2003 09f7 01       		.byte	0x1
 2004 09f8 02       		.byte	0x2
 2005 09f9 DD050000 		.4byte	.LASF140
 2006 09fd 23       		.uleb128 0x23
 2007 09fe 9D030000 		.4byte	.LASF142
 2008 0a02 01       		.byte	0x1
 2009 0a03 9D       		.byte	0x9d
 2010 0a04 25000000 		.4byte	0x25
 2011 0a08 00000000 		.4byte	.LFB12
 2012 0a0c 14000000 		.4byte	.LFE12-.LFB12
 2013 0a10 01       		.uleb128 0x1
 2014 0a11 9C       		.byte	0x9c
 2015 0a12 590A0000 		.4byte	0xa59
 2016 0a16 24       		.uleb128 0x24
 2017 0a17 4D050000 		.4byte	.LASF137
 2018 0a1b 01       		.byte	0x1
 2019 0a1c 9D       		.byte	0x9d
 2020 0a1d EA090000 		.4byte	0x9ea
 2021 0a21 0C010000 		.4byte	.LLST23
 2022 0a25 24       		.uleb128 0x24
 2023 0a26 0C000000 		.4byte	.LASF143
 2024 0a2a 01       		.byte	0x1
 2025 0a2b 9D       		.byte	0x9d
 2026 0a2c 25000000 		.4byte	0x25
 2027 0a30 2D010000 		.4byte	.LLST24
 2028 0a34 2A       		.uleb128 0x2a
 2029 0a35 1E060000 		.4byte	.LASF138
 2030 0a39 01       		.byte	0x1
 2031 0a3a 9D       		.byte	0x9d
 2032 0a3b F0090000 		.4byte	0x9f0
 2033 0a3f 01       		.uleb128 0x1
 2034 0a40 51       		.byte	0x51
 2035 0a41 2B       		.uleb128 0x2b
 2036 0a42 06000000 		.4byte	.LVL45
 2037 0a46 100B0000 		.4byte	0xb10
 2038 0a4a 28       		.uleb128 0x28
 2039 0a4b 01       		.uleb128 0x1
 2040 0a4c 50       		.byte	0x50
 2041 0a4d 03       		.uleb128 0x3
 2042 0a4e F3       		.byte	0xf3
 2043 0a4f 01       		.uleb128 0x1
 2044 0a50 50       		.byte	0x50
 2045 0a51 28       		.uleb128 0x28
 2046 0a52 01       		.uleb128 0x1
 2047 0a53 51       		.byte	0x51
 2048 0a54 02       		.uleb128 0x2
 2049 0a55 71       		.byte	0x71
 2050 0a56 00       		.sleb128 0
 2051 0a57 00       		.byte	0
 2052 0a58 00       		.byte	0
ARM GAS  /tmp/ccvSotpA.s 			page 37


 2053 0a59 23       		.uleb128 0x23
 2054 0a5a F7050000 		.4byte	.LASF144
 2055 0a5e 01       		.byte	0x1
 2056 0a5f 99       		.byte	0x99
 2057 0a60 25000000 		.4byte	0x25
 2058 0a64 00000000 		.4byte	.LFB11
 2059 0a68 20000000 		.4byte	.LFE11-.LFB11
 2060 0a6c 01       		.uleb128 0x1
 2061 0a6d 9C       		.byte	0x9c
 2062 0a6e CB0A0000 		.4byte	0xacb
 2063 0a72 24       		.uleb128 0x24
 2064 0a73 4D050000 		.4byte	.LASF137
 2065 0a77 01       		.byte	0x1
 2066 0a78 99       		.byte	0x99
 2067 0a79 EA090000 		.4byte	0x9ea
 2068 0a7d 51010000 		.4byte	.LLST19
 2069 0a81 24       		.uleb128 0x24
 2070 0a82 0C000000 		.4byte	.LASF143
 2071 0a86 01       		.byte	0x1
 2072 0a87 99       		.byte	0x99
 2073 0a88 25000000 		.4byte	0x25
 2074 0a8c 72010000 		.4byte	.LLST20
 2075 0a90 2A       		.uleb128 0x2a
 2076 0a91 1E060000 		.4byte	.LASF138
 2077 0a95 01       		.byte	0x1
 2078 0a96 99       		.byte	0x99
 2079 0a97 F0090000 		.4byte	0x9f0
 2080 0a9b 01       		.uleb128 0x1
 2081 0a9c 51       		.byte	0x51
 2082 0a9d 2C       		.uleb128 0x2c
 2083 0a9e 9A0B0000 		.4byte	0xb9a
 2084 0aa2 00000000 		.4byte	.LBB10
 2085 0aa6 18000000 		.4byte	.Ldebug_ranges0+0x18
 2086 0aaa 01       		.byte	0x1
 2087 0aab 9A       		.byte	0x9a
 2088 0aac 2D       		.uleb128 0x2d
 2089 0aad B50B0000 		.4byte	0xbb5
 2090 0ab1 96010000 		.4byte	.LLST21
 2091 0ab5 2D       		.uleb128 0x2d
 2092 0ab6 AA0B0000 		.4byte	0xbaa
 2093 0aba A9010000 		.4byte	.LLST22
 2094 0abe 2E       		.uleb128 0x2e
 2095 0abf 18000000 		.4byte	.Ldebug_ranges0+0x18
 2096 0ac3 2F       		.uleb128 0x2f
 2097 0ac4 A00E0000 		.4byte	0xea0
 2098 0ac8 00       		.byte	0
 2099 0ac9 00       		.byte	0
 2100 0aca 00       		.byte	0
 2101 0acb 23       		.uleb128 0x23
 2102 0acc B4040000 		.4byte	.LASF145
 2103 0ad0 01       		.byte	0x1
 2104 0ad1 90       		.byte	0x90
 2105 0ad2 DA000000 		.4byte	0xda
 2106 0ad6 00000000 		.4byte	.LFB10
 2107 0ada 22000000 		.4byte	.LFE10-.LFB10
 2108 0ade 01       		.uleb128 0x1
 2109 0adf 9C       		.byte	0x9c
ARM GAS  /tmp/ccvSotpA.s 			page 38


 2110 0ae0 100B0000 		.4byte	0xb10
 2111 0ae4 24       		.uleb128 0x24
 2112 0ae5 4D050000 		.4byte	.LASF137
 2113 0ae9 01       		.byte	0x1
 2114 0aea 90       		.byte	0x90
 2115 0aeb EA090000 		.4byte	0x9ea
 2116 0aef CA010000 		.4byte	.LLST17
 2117 0af3 2A       		.uleb128 0x2a
 2118 0af4 1E060000 		.4byte	.LASF138
 2119 0af8 01       		.byte	0x1
 2120 0af9 90       		.byte	0x90
 2121 0afa F0090000 		.4byte	0x9f0
 2122 0afe 01       		.uleb128 0x1
 2123 0aff 51       		.byte	0x51
 2124 0b00 25       		.uleb128 0x25
 2125 0b01 72657300 		.ascii	"res\000"
 2126 0b05 01       		.byte	0x1
 2127 0b06 91       		.byte	0x91
 2128 0b07 DA000000 		.4byte	0xda
 2129 0b0b EB010000 		.4byte	.LLST18
 2130 0b0f 00       		.byte	0
 2131 0b10 23       		.uleb128 0x23
 2132 0b11 C4020000 		.4byte	.LASF146
 2133 0b15 01       		.byte	0x1
 2134 0b16 87       		.byte	0x87
 2135 0b17 CF000000 		.4byte	0xcf
 2136 0b1b 00000000 		.4byte	.LFB9
 2137 0b1f 22000000 		.4byte	.LFE9-.LFB9
 2138 0b23 01       		.uleb128 0x1
 2139 0b24 9C       		.byte	0x9c
 2140 0b25 550B0000 		.4byte	0xb55
 2141 0b29 24       		.uleb128 0x24
 2142 0b2a 4D050000 		.4byte	.LASF137
 2143 0b2e 01       		.byte	0x1
 2144 0b2f 87       		.byte	0x87
 2145 0b30 EA090000 		.4byte	0x9ea
 2146 0b34 10020000 		.4byte	.LLST15
 2147 0b38 2A       		.uleb128 0x2a
 2148 0b39 1E060000 		.4byte	.LASF138
 2149 0b3d 01       		.byte	0x1
 2150 0b3e 87       		.byte	0x87
 2151 0b3f F0090000 		.4byte	0x9f0
 2152 0b43 01       		.uleb128 0x1
 2153 0b44 51       		.byte	0x51
 2154 0b45 25       		.uleb128 0x25
 2155 0b46 72657300 		.ascii	"res\000"
 2156 0b4a 01       		.byte	0x1
 2157 0b4b 88       		.byte	0x88
 2158 0b4c CF000000 		.4byte	0xcf
 2159 0b50 31020000 		.4byte	.LLST16
 2160 0b54 00       		.byte	0
 2161 0b55 23       		.uleb128 0x23
 2162 0b56 8B030000 		.4byte	.LASF147
 2163 0b5a 01       		.byte	0x1
 2164 0b5b 80       		.byte	0x80
 2165 0b5c C4000000 		.4byte	0xc4
 2166 0b60 00000000 		.4byte	.LFB8
ARM GAS  /tmp/ccvSotpA.s 			page 39


 2167 0b64 12000000 		.4byte	.LFE8-.LFB8
 2168 0b68 01       		.uleb128 0x1
 2169 0b69 9C       		.byte	0x9c
 2170 0b6a 9A0B0000 		.4byte	0xb9a
 2171 0b6e 24       		.uleb128 0x24
 2172 0b6f 4D050000 		.4byte	.LASF137
 2173 0b73 01       		.byte	0x1
 2174 0b74 80       		.byte	0x80
 2175 0b75 EA090000 		.4byte	0x9ea
 2176 0b79 56020000 		.4byte	.LLST13
 2177 0b7d 2A       		.uleb128 0x2a
 2178 0b7e 1E060000 		.4byte	.LASF138
 2179 0b82 01       		.byte	0x1
 2180 0b83 80       		.byte	0x80
 2181 0b84 F0090000 		.4byte	0x9f0
 2182 0b88 01       		.uleb128 0x1
 2183 0b89 51       		.byte	0x51
 2184 0b8a 25       		.uleb128 0x25
 2185 0b8b 72657300 		.ascii	"res\000"
 2186 0b8f 01       		.byte	0x1
 2187 0b90 81       		.byte	0x81
 2188 0b91 C4000000 		.4byte	0xc4
 2189 0b95 77020000 		.4byte	.LLST14
 2190 0b99 00       		.byte	0
 2191 0b9a 30       		.uleb128 0x30
 2192 0b9b 5C040000 		.4byte	.LASF162
 2193 0b9f 01       		.byte	0x1
 2194 0ba0 79       		.byte	0x79
 2195 0ba1 B9000000 		.4byte	0xb9
 2196 0ba5 01       		.byte	0x1
 2197 0ba6 CC0B0000 		.4byte	0xbcc
 2198 0baa 31       		.uleb128 0x31
 2199 0bab 4D050000 		.4byte	.LASF137
 2200 0baf 01       		.byte	0x1
 2201 0bb0 79       		.byte	0x79
 2202 0bb1 EA090000 		.4byte	0x9ea
 2203 0bb5 31       		.uleb128 0x31
 2204 0bb6 1E060000 		.4byte	.LASF138
 2205 0bba 01       		.byte	0x1
 2206 0bbb 79       		.byte	0x79
 2207 0bbc F0090000 		.4byte	0x9f0
 2208 0bc0 32       		.uleb128 0x32
 2209 0bc1 72657300 		.ascii	"res\000"
 2210 0bc5 01       		.byte	0x1
 2211 0bc6 7A       		.byte	0x7a
 2212 0bc7 B9000000 		.4byte	0xb9
 2213 0bcb 00       		.byte	0
 2214 0bcc 33       		.uleb128 0x33
 2215 0bcd E5060000 		.4byte	.LASF150
 2216 0bd1 01       		.byte	0x1
 2217 0bd2 60       		.byte	0x60
 2218 0bd3 00000000 		.4byte	.LFB6
 2219 0bd7 98000000 		.4byte	.LFE6-.LFB6
 2220 0bdb 01       		.uleb128 0x1
 2221 0bdc 9C       		.byte	0x9c
 2222 0bdd 860C0000 		.4byte	0xc86
 2223 0be1 24       		.uleb128 0x24
ARM GAS  /tmp/ccvSotpA.s 			page 40


 2224 0be2 4D050000 		.4byte	.LASF137
 2225 0be6 01       		.byte	0x1
 2226 0be7 60       		.byte	0x60
 2227 0be8 860C0000 		.4byte	0xc86
 2228 0bec 9C020000 		.4byte	.LLST6
 2229 0bf0 24       		.uleb128 0x24
 2230 0bf1 FA030000 		.4byte	.LASF148
 2231 0bf5 01       		.byte	0x1
 2232 0bf6 60       		.byte	0x60
 2233 0bf7 25000000 		.4byte	0x25
 2234 0bfb D0020000 		.4byte	.LLST7
 2235 0bff 24       		.uleb128 0x24
 2236 0c00 1E060000 		.4byte	.LASF138
 2237 0c04 01       		.byte	0x1
 2238 0c05 60       		.byte	0x60
 2239 0c06 F0090000 		.4byte	0x9f0
 2240 0c0a F0020000 		.4byte	.LLST8
 2241 0c0e 34       		.uleb128 0x34
 2242 0c0f 6500     		.ascii	"e\000"
 2243 0c11 01       		.byte	0x1
 2244 0c12 67       		.byte	0x67
 2245 0c13 A2000000 		.4byte	0xa2
 2246 0c17 02       		.uleb128 0x2
 2247 0c18 91       		.byte	0x91
 2248 0c19 6C       		.sleb128 -20
 2249 0c1a 34       		.uleb128 0x34
 2250 0c1b 73696700 		.ascii	"sig\000"
 2251 0c1f 01       		.byte	0x1
 2252 0c20 68       		.byte	0x68
 2253 0c21 25000000 		.4byte	0x25
 2254 0c25 02       		.uleb128 0x2
 2255 0c26 90       		.byte	0x90
 2256 0c27 40       		.uleb128 0x40
 2257 0c28 26       		.uleb128 0x26
 2258 0c29 EF050000 		.4byte	.LASF149
 2259 0c2d 01       		.byte	0x1
 2260 0c2e 69       		.byte	0x69
 2261 0c2f 25000000 		.4byte	0x25
 2262 0c33 24030000 		.4byte	.LLST9
 2263 0c37 26       		.uleb128 0x26
 2264 0c38 76040000 		.4byte	.LASF139
 2265 0c3c 01       		.byte	0x1
 2266 0c3d 6A       		.byte	0x6a
 2267 0c3e DA000000 		.4byte	0xda
 2268 0c42 62030000 		.4byte	.LLST10
 2269 0c46 25       		.uleb128 0x25
 2270 0c47 72657300 		.ascii	"res\000"
 2271 0c4b 01       		.byte	0x1
 2272 0c4c 71       		.byte	0x71
 2273 0c4d DA000000 		.4byte	0xda
 2274 0c51 D0030000 		.4byte	.LLST11
 2275 0c55 27       		.uleb128 0x27
 2276 0c56 30000000 		.4byte	.LVL16
 2277 0c5a B40E0000 		.4byte	0xeb4
 2278 0c5e 690C0000 		.4byte	0xc69
 2279 0c62 28       		.uleb128 0x28
 2280 0c63 01       		.uleb128 0x1
ARM GAS  /tmp/ccvSotpA.s 			page 41


 2281 0c64 50       		.byte	0x50
 2282 0c65 02       		.uleb128 0x2
 2283 0c66 91       		.byte	0x91
 2284 0c67 6C       		.sleb128 -20
 2285 0c68 00       		.byte	0
 2286 0c69 35       		.uleb128 0x35
 2287 0c6a 6A000000 		.4byte	.LVL22
 2288 0c6e 6F0D0000 		.4byte	0xd6f
 2289 0c72 28       		.uleb128 0x28
 2290 0c73 01       		.uleb128 0x1
 2291 0c74 50       		.byte	0x50
 2292 0c75 02       		.uleb128 0x2
 2293 0c76 70       		.byte	0x70
 2294 0c77 00       		.sleb128 0
 2295 0c78 28       		.uleb128 0x28
 2296 0c79 01       		.uleb128 0x1
 2297 0c7a 51       		.byte	0x51
 2298 0c7b 02       		.uleb128 0x2
 2299 0c7c 71       		.byte	0x71
 2300 0c7d 00       		.sleb128 0
 2301 0c7e 28       		.uleb128 0x28
 2302 0c7f 01       		.uleb128 0x1
 2303 0c80 52       		.byte	0x52
 2304 0c81 02       		.uleb128 0x2
 2305 0c82 72       		.byte	0x72
 2306 0c83 00       		.sleb128 0
 2307 0c84 00       		.byte	0
 2308 0c85 00       		.byte	0
 2309 0c86 06       		.uleb128 0x6
 2310 0c87 04       		.byte	0x4
 2311 0c88 A9000000 		.4byte	0xa9
 2312 0c8c 33       		.uleb128 0x33
 2313 0c8d 2D060000 		.4byte	.LASF151
 2314 0c91 01       		.byte	0x1
 2315 0c92 34       		.byte	0x34
 2316 0c93 00000000 		.4byte	.LFB5
 2317 0c97 12000000 		.4byte	.LFE5-.LFB5
 2318 0c9b 01       		.uleb128 0x1
 2319 0c9c 9C       		.byte	0x9c
 2320 0c9d F70C0000 		.4byte	0xcf7
 2321 0ca1 2A       		.uleb128 0x2a
 2322 0ca2 4D050000 		.4byte	.LASF137
 2323 0ca6 01       		.byte	0x1
 2324 0ca7 34       		.byte	0x34
 2325 0ca8 860C0000 		.4byte	0xc86
 2326 0cac 01       		.uleb128 0x1
 2327 0cad 50       		.byte	0x50
 2328 0cae 2A       		.uleb128 0x2a
 2329 0caf FA030000 		.4byte	.LASF148
 2330 0cb3 01       		.byte	0x1
 2331 0cb4 34       		.byte	0x34
 2332 0cb5 25000000 		.4byte	0x25
 2333 0cb9 02       		.uleb128 0x2
 2334 0cba 90       		.byte	0x90
 2335 0cbb 40       		.uleb128 0x40
 2336 0cbc 24       		.uleb128 0x24
 2337 0cbd 0C000000 		.4byte	.LASF143
ARM GAS  /tmp/ccvSotpA.s 			page 42


 2338 0cc1 01       		.byte	0x1
 2339 0cc2 34       		.byte	0x34
 2340 0cc3 25000000 		.4byte	0x25
 2341 0cc7 E3030000 		.4byte	.LLST4
 2342 0ccb 24       		.uleb128 0x24
 2343 0ccc 1E060000 		.4byte	.LASF138
 2344 0cd0 01       		.byte	0x1
 2345 0cd1 34       		.byte	0x34
 2346 0cd2 F0090000 		.4byte	0x9f0
 2347 0cd6 07040000 		.4byte	.LLST5
 2348 0cda 35       		.uleb128 0x35
 2349 0cdb 12000000 		.4byte	.LVL11
 2350 0cdf AC0D0000 		.4byte	0xdac
 2351 0ce3 28       		.uleb128 0x28
 2352 0ce4 01       		.uleb128 0x1
 2353 0ce5 50       		.byte	0x50
 2354 0ce6 02       		.uleb128 0x2
 2355 0ce7 70       		.byte	0x70
 2356 0ce8 00       		.sleb128 0
 2357 0ce9 28       		.uleb128 0x28
 2358 0cea 01       		.uleb128 0x1
 2359 0ceb 51       		.byte	0x51
 2360 0cec 02       		.uleb128 0x2
 2361 0ced 71       		.byte	0x71
 2362 0cee 00       		.sleb128 0
 2363 0cef 28       		.uleb128 0x28
 2364 0cf0 01       		.uleb128 0x1
 2365 0cf1 52       		.byte	0x52
 2366 0cf2 02       		.uleb128 0x2
 2367 0cf3 72       		.byte	0x72
 2368 0cf4 00       		.sleb128 0
 2369 0cf5 00       		.byte	0
 2370 0cf6 00       		.byte	0
 2371 0cf7 33       		.uleb128 0x33
 2372 0cf8 46040000 		.4byte	.LASF152
 2373 0cfc 01       		.byte	0x1
 2374 0cfd 30       		.byte	0x30
 2375 0cfe 00000000 		.4byte	.LFB4
 2376 0d02 26000000 		.4byte	.LFE4-.LFB4
 2377 0d06 01       		.uleb128 0x1
 2378 0d07 9C       		.byte	0x9c
 2379 0d08 6F0D0000 		.4byte	0xd6f
 2380 0d0c 2A       		.uleb128 0x2a
 2381 0d0d 4D050000 		.4byte	.LASF137
 2382 0d11 01       		.byte	0x1
 2383 0d12 30       		.byte	0x30
 2384 0d13 860C0000 		.4byte	0xc86
 2385 0d17 01       		.uleb128 0x1
 2386 0d18 50       		.byte	0x50
 2387 0d19 2A       		.uleb128 0x2a
 2388 0d1a FA030000 		.4byte	.LASF148
 2389 0d1e 01       		.byte	0x1
 2390 0d1f 30       		.byte	0x30
 2391 0d20 25000000 		.4byte	0x25
 2392 0d24 02       		.uleb128 0x2
 2393 0d25 90       		.byte	0x90
 2394 0d26 40       		.uleb128 0x40
ARM GAS  /tmp/ccvSotpA.s 			page 43


 2395 0d27 24       		.uleb128 0x24
 2396 0d28 0C000000 		.4byte	.LASF143
 2397 0d2c 01       		.byte	0x1
 2398 0d2d 30       		.byte	0x30
 2399 0d2e 25000000 		.4byte	0x25
 2400 0d32 25040000 		.4byte	.LLST0
 2401 0d36 2A       		.uleb128 0x2a
 2402 0d37 1E060000 		.4byte	.LASF138
 2403 0d3b 01       		.byte	0x1
 2404 0d3c 30       		.byte	0x30
 2405 0d3d F0090000 		.4byte	0x9f0
 2406 0d41 01       		.uleb128 0x1
 2407 0d42 51       		.byte	0x51
 2408 0d43 2C       		.uleb128 0x2c
 2409 0d44 260E0000 		.4byte	0xe26
 2410 0d48 04000000 		.4byte	.LBB6
 2411 0d4c 00000000 		.4byte	.Ldebug_ranges0+0
 2412 0d50 01       		.byte	0x1
 2413 0d51 31       		.byte	0x31
 2414 0d52 2D       		.uleb128 0x2d
 2415 0d53 480E0000 		.4byte	0xe48
 2416 0d57 49040000 		.4byte	.LLST1
 2417 0d5b 2D       		.uleb128 0x2d
 2418 0d5c 3D0E0000 		.4byte	0xe3d
 2419 0d60 5C040000 		.4byte	.LLST2
 2420 0d64 2D       		.uleb128 0x2d
 2421 0d65 320E0000 		.4byte	0xe32
 2422 0d69 6F040000 		.4byte	.LLST3
 2423 0d6d 00       		.byte	0
 2424 0d6e 00       		.byte	0
 2425 0d6f 33       		.uleb128 0x33
 2426 0d70 4A070000 		.4byte	.LASF153
 2427 0d74 01       		.byte	0x1
 2428 0d75 29       		.byte	0x29
 2429 0d76 00000000 		.4byte	.LFB3
 2430 0d7a 2C000000 		.4byte	.LFE3-.LFB3
 2431 0d7e 01       		.uleb128 0x1
 2432 0d7f 9C       		.byte	0x9c
 2433 0d80 AC0D0000 		.4byte	0xdac
 2434 0d84 2A       		.uleb128 0x2a
 2435 0d85 4D050000 		.4byte	.LASF137
 2436 0d89 01       		.byte	0x1
 2437 0d8a 29       		.byte	0x29
 2438 0d8b 860C0000 		.4byte	0xc86
 2439 0d8f 01       		.uleb128 0x1
 2440 0d90 50       		.byte	0x50
 2441 0d91 2A       		.uleb128 0x2a
 2442 0d92 FA030000 		.4byte	.LASF148
 2443 0d96 01       		.byte	0x1
 2444 0d97 29       		.byte	0x29
 2445 0d98 DA000000 		.4byte	0xda
 2446 0d9c 01       		.uleb128 0x1
 2447 0d9d 51       		.byte	0x51
 2448 0d9e 2A       		.uleb128 0x2a
 2449 0d9f 1E060000 		.4byte	.LASF138
 2450 0da3 01       		.byte	0x1
 2451 0da4 29       		.byte	0x29
ARM GAS  /tmp/ccvSotpA.s 			page 44


 2452 0da5 F0090000 		.4byte	0x9f0
 2453 0da9 01       		.uleb128 0x1
 2454 0daa 52       		.byte	0x52
 2455 0dab 00       		.byte	0
 2456 0dac 33       		.uleb128 0x33
 2457 0dad 71020000 		.4byte	.LASF154
 2458 0db1 01       		.byte	0x1
 2459 0db2 22       		.byte	0x22
 2460 0db3 00000000 		.4byte	.LFB2
 2461 0db7 2C000000 		.4byte	.LFE2-.LFB2
 2462 0dbb 01       		.uleb128 0x1
 2463 0dbc 9C       		.byte	0x9c
 2464 0dbd E90D0000 		.4byte	0xde9
 2465 0dc1 2A       		.uleb128 0x2a
 2466 0dc2 4D050000 		.4byte	.LASF137
 2467 0dc6 01       		.byte	0x1
 2468 0dc7 22       		.byte	0x22
 2469 0dc8 860C0000 		.4byte	0xc86
 2470 0dcc 01       		.uleb128 0x1
 2471 0dcd 50       		.byte	0x50
 2472 0dce 2A       		.uleb128 0x2a
 2473 0dcf FA030000 		.4byte	.LASF148
 2474 0dd3 01       		.byte	0x1
 2475 0dd4 22       		.byte	0x22
 2476 0dd5 CF000000 		.4byte	0xcf
 2477 0dd9 01       		.uleb128 0x1
 2478 0dda 51       		.byte	0x51
 2479 0ddb 2A       		.uleb128 0x2a
 2480 0ddc 1E060000 		.4byte	.LASF138
 2481 0de0 01       		.byte	0x1
 2482 0de1 22       		.byte	0x22
 2483 0de2 F0090000 		.4byte	0x9f0
 2484 0de6 01       		.uleb128 0x1
 2485 0de7 52       		.byte	0x52
 2486 0de8 00       		.byte	0
 2487 0de9 33       		.uleb128 0x33
 2488 0dea 2C070000 		.4byte	.LASF155
 2489 0dee 01       		.byte	0x1
 2490 0def 1D       		.byte	0x1d
 2491 0df0 00000000 		.4byte	.LFB1
 2492 0df4 18000000 		.4byte	.LFE1-.LFB1
 2493 0df8 01       		.uleb128 0x1
 2494 0df9 9C       		.byte	0x9c
 2495 0dfa 260E0000 		.4byte	0xe26
 2496 0dfe 2A       		.uleb128 0x2a
 2497 0dff 4D050000 		.4byte	.LASF137
 2498 0e03 01       		.byte	0x1
 2499 0e04 1D       		.byte	0x1d
 2500 0e05 860C0000 		.4byte	0xc86
 2501 0e09 01       		.uleb128 0x1
 2502 0e0a 50       		.byte	0x50
 2503 0e0b 2A       		.uleb128 0x2a
 2504 0e0c FA030000 		.4byte	.LASF148
 2505 0e10 01       		.byte	0x1
 2506 0e11 1D       		.byte	0x1d
 2507 0e12 C4000000 		.4byte	0xc4
 2508 0e16 01       		.uleb128 0x1
ARM GAS  /tmp/ccvSotpA.s 			page 45


 2509 0e17 51       		.byte	0x51
 2510 0e18 2A       		.uleb128 0x2a
 2511 0e19 1E060000 		.4byte	.LASF138
 2512 0e1d 01       		.byte	0x1
 2513 0e1e 1D       		.byte	0x1d
 2514 0e1f F0090000 		.4byte	0x9f0
 2515 0e23 01       		.uleb128 0x1
 2516 0e24 52       		.byte	0x52
 2517 0e25 00       		.byte	0
 2518 0e26 36       		.uleb128 0x36
 2519 0e27 DC040000 		.4byte	.LASF163
 2520 0e2b 01       		.byte	0x1
 2521 0e2c 18       		.byte	0x18
 2522 0e2d 01       		.byte	0x1
 2523 0e2e 540E0000 		.4byte	0xe54
 2524 0e32 31       		.uleb128 0x31
 2525 0e33 4D050000 		.4byte	.LASF137
 2526 0e37 01       		.byte	0x1
 2527 0e38 18       		.byte	0x18
 2528 0e39 860C0000 		.4byte	0xc86
 2529 0e3d 31       		.uleb128 0x31
 2530 0e3e FA030000 		.4byte	.LASF148
 2531 0e42 01       		.byte	0x1
 2532 0e43 18       		.byte	0x18
 2533 0e44 B9000000 		.4byte	0xb9
 2534 0e48 31       		.uleb128 0x31
 2535 0e49 1E060000 		.4byte	.LASF138
 2536 0e4d 01       		.byte	0x1
 2537 0e4e 18       		.byte	0x18
 2538 0e4f F0090000 		.4byte	0x9f0
 2539 0e53 00       		.byte	0
 2540 0e54 37       		.uleb128 0x37
 2541 0e55 260E0000 		.4byte	0xe26
 2542 0e59 00000000 		.4byte	.LFB0
 2543 0e5d 18000000 		.4byte	.LFE0-.LFB0
 2544 0e61 01       		.uleb128 0x1
 2545 0e62 9C       		.byte	0x9c
 2546 0e63 7D0E0000 		.4byte	0xe7d
 2547 0e67 38       		.uleb128 0x38
 2548 0e68 320E0000 		.4byte	0xe32
 2549 0e6c 01       		.uleb128 0x1
 2550 0e6d 50       		.byte	0x50
 2551 0e6e 38       		.uleb128 0x38
 2552 0e6f 3D0E0000 		.4byte	0xe3d
 2553 0e73 01       		.uleb128 0x1
 2554 0e74 51       		.byte	0x51
 2555 0e75 38       		.uleb128 0x38
 2556 0e76 480E0000 		.4byte	0xe48
 2557 0e7a 01       		.uleb128 0x1
 2558 0e7b 52       		.byte	0x52
 2559 0e7c 00       		.byte	0
 2560 0e7d 37       		.uleb128 0x37
 2561 0e7e 9A0B0000 		.4byte	0xb9a
 2562 0e82 00000000 		.4byte	.LFB7
 2563 0e86 1A000000 		.4byte	.LFE7-.LFB7
 2564 0e8a 01       		.uleb128 0x1
 2565 0e8b 9C       		.byte	0x9c
ARM GAS  /tmp/ccvSotpA.s 			page 46


 2566 0e8c A80E0000 		.4byte	0xea8
 2567 0e90 2D       		.uleb128 0x2d
 2568 0e91 AA0B0000 		.4byte	0xbaa
 2569 0e95 82040000 		.4byte	.LLST12
 2570 0e99 38       		.uleb128 0x38
 2571 0e9a B50B0000 		.4byte	0xbb5
 2572 0e9e 01       		.uleb128 0x1
 2573 0e9f 51       		.byte	0x51
 2574 0ea0 39       		.uleb128 0x39
 2575 0ea1 C00B0000 		.4byte	0xbc0
 2576 0ea5 01       		.uleb128 0x1
 2577 0ea6 50       		.byte	0x50
 2578 0ea7 00       		.byte	0
 2579 0ea8 3A       		.uleb128 0x3a
 2580 0ea9 38040000 		.4byte	.LASF156
 2581 0ead 38040000 		.4byte	.LASF156
 2582 0eb1 08       		.byte	0x8
 2583 0eb2 6A01     		.2byte	0x16a
 2584 0eb4 3A       		.uleb128 0x3a
 2585 0eb5 A6070000 		.4byte	.LASF157
 2586 0eb9 A6070000 		.4byte	.LASF157
 2587 0ebd 08       		.byte	0x8
 2588 0ebe 5D01     		.2byte	0x15d
 2589 0ec0 00       		.byte	0
 2590              		.section	.debug_abbrev,"",%progbits
 2591              	.Ldebug_abbrev0:
 2592 0000 01       		.uleb128 0x1
 2593 0001 11       		.uleb128 0x11
 2594 0002 01       		.byte	0x1
 2595 0003 25       		.uleb128 0x25
 2596 0004 0E       		.uleb128 0xe
 2597 0005 13       		.uleb128 0x13
 2598 0006 0B       		.uleb128 0xb
 2599 0007 03       		.uleb128 0x3
 2600 0008 0E       		.uleb128 0xe
 2601 0009 1B       		.uleb128 0x1b
 2602 000a 0E       		.uleb128 0xe
 2603 000b 55       		.uleb128 0x55
 2604 000c 17       		.uleb128 0x17
 2605 000d 11       		.uleb128 0x11
 2606 000e 01       		.uleb128 0x1
 2607 000f 10       		.uleb128 0x10
 2608 0010 17       		.uleb128 0x17
 2609 0011 00       		.byte	0
 2610 0012 00       		.byte	0
 2611 0013 02       		.uleb128 0x2
 2612 0014 24       		.uleb128 0x24
 2613 0015 00       		.byte	0
 2614 0016 0B       		.uleb128 0xb
 2615 0017 0B       		.uleb128 0xb
 2616 0018 3E       		.uleb128 0x3e
 2617 0019 0B       		.uleb128 0xb
 2618 001a 03       		.uleb128 0x3
 2619 001b 0E       		.uleb128 0xe
 2620 001c 00       		.byte	0
 2621 001d 00       		.byte	0
 2622 001e 03       		.uleb128 0x3
ARM GAS  /tmp/ccvSotpA.s 			page 47


 2623 001f 16       		.uleb128 0x16
 2624 0020 00       		.byte	0
 2625 0021 03       		.uleb128 0x3
 2626 0022 0E       		.uleb128 0xe
 2627 0023 3A       		.uleb128 0x3a
 2628 0024 0B       		.uleb128 0xb
 2629 0025 3B       		.uleb128 0x3b
 2630 0026 0B       		.uleb128 0xb
 2631 0027 49       		.uleb128 0x49
 2632 0028 13       		.uleb128 0x13
 2633 0029 00       		.byte	0
 2634 002a 00       		.byte	0
 2635 002b 04       		.uleb128 0x4
 2636 002c 24       		.uleb128 0x24
 2637 002d 00       		.byte	0
 2638 002e 0B       		.uleb128 0xb
 2639 002f 0B       		.uleb128 0xb
 2640 0030 3E       		.uleb128 0x3e
 2641 0031 0B       		.uleb128 0xb
 2642 0032 03       		.uleb128 0x3
 2643 0033 08       		.uleb128 0x8
 2644 0034 00       		.byte	0
 2645 0035 00       		.byte	0
 2646 0036 05       		.uleb128 0x5
 2647 0037 26       		.uleb128 0x26
 2648 0038 00       		.byte	0
 2649 0039 49       		.uleb128 0x49
 2650 003a 13       		.uleb128 0x13
 2651 003b 00       		.byte	0
 2652 003c 00       		.byte	0
 2653 003d 06       		.uleb128 0x6
 2654 003e 0F       		.uleb128 0xf
 2655 003f 00       		.byte	0
 2656 0040 0B       		.uleb128 0xb
 2657 0041 0B       		.uleb128 0xb
 2658 0042 49       		.uleb128 0x49
 2659 0043 13       		.uleb128 0x13
 2660 0044 00       		.byte	0
 2661 0045 00       		.byte	0
 2662 0046 07       		.uleb128 0x7
 2663 0047 13       		.uleb128 0x13
 2664 0048 00       		.byte	0
 2665 0049 03       		.uleb128 0x3
 2666 004a 0E       		.uleb128 0xe
 2667 004b 3C       		.uleb128 0x3c
 2668 004c 19       		.uleb128 0x19
 2669 004d 00       		.byte	0
 2670 004e 00       		.byte	0
 2671 004f 08       		.uleb128 0x8
 2672 0050 16       		.uleb128 0x16
 2673 0051 00       		.byte	0
 2674 0052 03       		.uleb128 0x3
 2675 0053 0E       		.uleb128 0xe
 2676 0054 3A       		.uleb128 0x3a
 2677 0055 0B       		.uleb128 0xb
 2678 0056 3B       		.uleb128 0x3b
 2679 0057 05       		.uleb128 0x5
ARM GAS  /tmp/ccvSotpA.s 			page 48


 2680 0058 49       		.uleb128 0x49
 2681 0059 13       		.uleb128 0x13
 2682 005a 00       		.byte	0
 2683 005b 00       		.byte	0
 2684 005c 09       		.uleb128 0x9
 2685 005d 17       		.uleb128 0x17
 2686 005e 01       		.byte	0x1
 2687 005f 0B       		.uleb128 0xb
 2688 0060 0B       		.uleb128 0xb
 2689 0061 3A       		.uleb128 0x3a
 2690 0062 0B       		.uleb128 0xb
 2691 0063 3B       		.uleb128 0x3b
 2692 0064 0B       		.uleb128 0xb
 2693 0065 01       		.uleb128 0x1
 2694 0066 13       		.uleb128 0x13
 2695 0067 00       		.byte	0
 2696 0068 00       		.byte	0
 2697 0069 0A       		.uleb128 0xa
 2698 006a 0D       		.uleb128 0xd
 2699 006b 00       		.byte	0
 2700 006c 03       		.uleb128 0x3
 2701 006d 0E       		.uleb128 0xe
 2702 006e 3A       		.uleb128 0x3a
 2703 006f 0B       		.uleb128 0xb
 2704 0070 3B       		.uleb128 0x3b
 2705 0071 0B       		.uleb128 0xb
 2706 0072 49       		.uleb128 0x49
 2707 0073 13       		.uleb128 0x13
 2708 0074 00       		.byte	0
 2709 0075 00       		.byte	0
 2710 0076 0B       		.uleb128 0xb
 2711 0077 01       		.uleb128 0x1
 2712 0078 01       		.byte	0x1
 2713 0079 49       		.uleb128 0x49
 2714 007a 13       		.uleb128 0x13
 2715 007b 01       		.uleb128 0x1
 2716 007c 13       		.uleb128 0x13
 2717 007d 00       		.byte	0
 2718 007e 00       		.byte	0
 2719 007f 0C       		.uleb128 0xc
 2720 0080 21       		.uleb128 0x21
 2721 0081 00       		.byte	0
 2722 0082 49       		.uleb128 0x49
 2723 0083 13       		.uleb128 0x13
 2724 0084 2F       		.uleb128 0x2f
 2725 0085 0B       		.uleb128 0xb
 2726 0086 00       		.byte	0
 2727 0087 00       		.byte	0
 2728 0088 0D       		.uleb128 0xd
 2729 0089 13       		.uleb128 0x13
 2730 008a 01       		.byte	0x1
 2731 008b 0B       		.uleb128 0xb
 2732 008c 0B       		.uleb128 0xb
 2733 008d 3A       		.uleb128 0x3a
 2734 008e 0B       		.uleb128 0xb
 2735 008f 3B       		.uleb128 0x3b
 2736 0090 0B       		.uleb128 0xb
ARM GAS  /tmp/ccvSotpA.s 			page 49


 2737 0091 01       		.uleb128 0x1
 2738 0092 13       		.uleb128 0x13
 2739 0093 00       		.byte	0
 2740 0094 00       		.byte	0
 2741 0095 0E       		.uleb128 0xe
 2742 0096 0D       		.uleb128 0xd
 2743 0097 00       		.byte	0
 2744 0098 03       		.uleb128 0x3
 2745 0099 0E       		.uleb128 0xe
 2746 009a 3A       		.uleb128 0x3a
 2747 009b 0B       		.uleb128 0xb
 2748 009c 3B       		.uleb128 0x3b
 2749 009d 0B       		.uleb128 0xb
 2750 009e 49       		.uleb128 0x49
 2751 009f 13       		.uleb128 0x13
 2752 00a0 38       		.uleb128 0x38
 2753 00a1 0B       		.uleb128 0xb
 2754 00a2 00       		.byte	0
 2755 00a3 00       		.byte	0
 2756 00a4 0F       		.uleb128 0xf
 2757 00a5 0F       		.uleb128 0xf
 2758 00a6 00       		.byte	0
 2759 00a7 0B       		.uleb128 0xb
 2760 00a8 0B       		.uleb128 0xb
 2761 00a9 00       		.byte	0
 2762 00aa 00       		.byte	0
 2763 00ab 10       		.uleb128 0x10
 2764 00ac 13       		.uleb128 0x13
 2765 00ad 01       		.byte	0x1
 2766 00ae 03       		.uleb128 0x3
 2767 00af 0E       		.uleb128 0xe
 2768 00b0 0B       		.uleb128 0xb
 2769 00b1 0B       		.uleb128 0xb
 2770 00b2 3A       		.uleb128 0x3a
 2771 00b3 0B       		.uleb128 0xb
 2772 00b4 3B       		.uleb128 0x3b
 2773 00b5 0B       		.uleb128 0xb
 2774 00b6 01       		.uleb128 0x1
 2775 00b7 13       		.uleb128 0x13
 2776 00b8 00       		.byte	0
 2777 00b9 00       		.byte	0
 2778 00ba 11       		.uleb128 0x11
 2779 00bb 0D       		.uleb128 0xd
 2780 00bc 00       		.byte	0
 2781 00bd 03       		.uleb128 0x3
 2782 00be 08       		.uleb128 0x8
 2783 00bf 3A       		.uleb128 0x3a
 2784 00c0 0B       		.uleb128 0xb
 2785 00c1 3B       		.uleb128 0x3b
 2786 00c2 0B       		.uleb128 0xb
 2787 00c3 49       		.uleb128 0x49
 2788 00c4 13       		.uleb128 0x13
 2789 00c5 38       		.uleb128 0x38
 2790 00c6 0B       		.uleb128 0xb
 2791 00c7 00       		.byte	0
 2792 00c8 00       		.byte	0
 2793 00c9 12       		.uleb128 0x12
ARM GAS  /tmp/ccvSotpA.s 			page 50


 2794 00ca 13       		.uleb128 0x13
 2795 00cb 01       		.byte	0x1
 2796 00cc 03       		.uleb128 0x3
 2797 00cd 0E       		.uleb128 0xe
 2798 00ce 0B       		.uleb128 0xb
 2799 00cf 05       		.uleb128 0x5
 2800 00d0 3A       		.uleb128 0x3a
 2801 00d1 0B       		.uleb128 0xb
 2802 00d2 3B       		.uleb128 0x3b
 2803 00d3 0B       		.uleb128 0xb
 2804 00d4 01       		.uleb128 0x1
 2805 00d5 13       		.uleb128 0x13
 2806 00d6 00       		.byte	0
 2807 00d7 00       		.byte	0
 2808 00d8 13       		.uleb128 0x13
 2809 00d9 0D       		.uleb128 0xd
 2810 00da 00       		.byte	0
 2811 00db 03       		.uleb128 0x3
 2812 00dc 0E       		.uleb128 0xe
 2813 00dd 3A       		.uleb128 0x3a
 2814 00de 0B       		.uleb128 0xb
 2815 00df 3B       		.uleb128 0x3b
 2816 00e0 0B       		.uleb128 0xb
 2817 00e1 49       		.uleb128 0x49
 2818 00e2 13       		.uleb128 0x13
 2819 00e3 38       		.uleb128 0x38
 2820 00e4 05       		.uleb128 0x5
 2821 00e5 00       		.byte	0
 2822 00e6 00       		.byte	0
 2823 00e7 14       		.uleb128 0x14
 2824 00e8 15       		.uleb128 0x15
 2825 00e9 00       		.byte	0
 2826 00ea 27       		.uleb128 0x27
 2827 00eb 19       		.uleb128 0x19
 2828 00ec 00       		.byte	0
 2829 00ed 00       		.byte	0
 2830 00ee 15       		.uleb128 0x15
 2831 00ef 15       		.uleb128 0x15
 2832 00f0 01       		.byte	0x1
 2833 00f1 27       		.uleb128 0x27
 2834 00f2 19       		.uleb128 0x19
 2835 00f3 49       		.uleb128 0x49
 2836 00f4 13       		.uleb128 0x13
 2837 00f5 01       		.uleb128 0x1
 2838 00f6 13       		.uleb128 0x13
 2839 00f7 00       		.byte	0
 2840 00f8 00       		.byte	0
 2841 00f9 16       		.uleb128 0x16
 2842 00fa 05       		.uleb128 0x5
 2843 00fb 00       		.byte	0
 2844 00fc 49       		.uleb128 0x49
 2845 00fd 13       		.uleb128 0x13
 2846 00fe 00       		.byte	0
 2847 00ff 00       		.byte	0
 2848 0100 17       		.uleb128 0x17
 2849 0101 13       		.uleb128 0x13
 2850 0102 01       		.byte	0x1
ARM GAS  /tmp/ccvSotpA.s 			page 51


 2851 0103 03       		.uleb128 0x3
 2852 0104 0E       		.uleb128 0xe
 2853 0105 0B       		.uleb128 0xb
 2854 0106 05       		.uleb128 0x5
 2855 0107 3A       		.uleb128 0x3a
 2856 0108 0B       		.uleb128 0xb
 2857 0109 3B       		.uleb128 0x3b
 2858 010a 05       		.uleb128 0x5
 2859 010b 01       		.uleb128 0x1
 2860 010c 13       		.uleb128 0x13
 2861 010d 00       		.byte	0
 2862 010e 00       		.byte	0
 2863 010f 18       		.uleb128 0x18
 2864 0110 0D       		.uleb128 0xd
 2865 0111 00       		.byte	0
 2866 0112 03       		.uleb128 0x3
 2867 0113 0E       		.uleb128 0xe
 2868 0114 3A       		.uleb128 0x3a
 2869 0115 0B       		.uleb128 0xb
 2870 0116 3B       		.uleb128 0x3b
 2871 0117 05       		.uleb128 0x5
 2872 0118 49       		.uleb128 0x49
 2873 0119 13       		.uleb128 0x13
 2874 011a 38       		.uleb128 0x38
 2875 011b 0B       		.uleb128 0xb
 2876 011c 00       		.byte	0
 2877 011d 00       		.byte	0
 2878 011e 19       		.uleb128 0x19
 2879 011f 0D       		.uleb128 0xd
 2880 0120 00       		.byte	0
 2881 0121 03       		.uleb128 0x3
 2882 0122 0E       		.uleb128 0xe
 2883 0123 3A       		.uleb128 0x3a
 2884 0124 0B       		.uleb128 0xb
 2885 0125 3B       		.uleb128 0x3b
 2886 0126 05       		.uleb128 0x5
 2887 0127 49       		.uleb128 0x49
 2888 0128 13       		.uleb128 0x13
 2889 0129 38       		.uleb128 0x38
 2890 012a 05       		.uleb128 0x5
 2891 012b 00       		.byte	0
 2892 012c 00       		.byte	0
 2893 012d 1A       		.uleb128 0x1a
 2894 012e 13       		.uleb128 0x13
 2895 012f 01       		.byte	0x1
 2896 0130 03       		.uleb128 0x3
 2897 0131 0E       		.uleb128 0xe
 2898 0132 0B       		.uleb128 0xb
 2899 0133 0B       		.uleb128 0xb
 2900 0134 3A       		.uleb128 0x3a
 2901 0135 0B       		.uleb128 0xb
 2902 0136 3B       		.uleb128 0x3b
 2903 0137 05       		.uleb128 0x5
 2904 0138 01       		.uleb128 0x1
 2905 0139 13       		.uleb128 0x13
 2906 013a 00       		.byte	0
 2907 013b 00       		.byte	0
ARM GAS  /tmp/ccvSotpA.s 			page 52


 2908 013c 1B       		.uleb128 0x1b
 2909 013d 13       		.uleb128 0x13
 2910 013e 01       		.byte	0x1
 2911 013f 0B       		.uleb128 0xb
 2912 0140 0B       		.uleb128 0xb
 2913 0141 3A       		.uleb128 0x3a
 2914 0142 0B       		.uleb128 0xb
 2915 0143 3B       		.uleb128 0x3b
 2916 0144 05       		.uleb128 0x5
 2917 0145 01       		.uleb128 0x1
 2918 0146 13       		.uleb128 0x13
 2919 0147 00       		.byte	0
 2920 0148 00       		.byte	0
 2921 0149 1C       		.uleb128 0x1c
 2922 014a 17       		.uleb128 0x17
 2923 014b 01       		.byte	0x1
 2924 014c 0B       		.uleb128 0xb
 2925 014d 0B       		.uleb128 0xb
 2926 014e 3A       		.uleb128 0x3a
 2927 014f 0B       		.uleb128 0xb
 2928 0150 3B       		.uleb128 0x3b
 2929 0151 05       		.uleb128 0x5
 2930 0152 01       		.uleb128 0x1
 2931 0153 13       		.uleb128 0x13
 2932 0154 00       		.byte	0
 2933 0155 00       		.byte	0
 2934 0156 1D       		.uleb128 0x1d
 2935 0157 0D       		.uleb128 0xd
 2936 0158 00       		.byte	0
 2937 0159 03       		.uleb128 0x3
 2938 015a 0E       		.uleb128 0xe
 2939 015b 3A       		.uleb128 0x3a
 2940 015c 0B       		.uleb128 0xb
 2941 015d 3B       		.uleb128 0x3b
 2942 015e 05       		.uleb128 0x5
 2943 015f 49       		.uleb128 0x49
 2944 0160 13       		.uleb128 0x13
 2945 0161 00       		.byte	0
 2946 0162 00       		.byte	0
 2947 0163 1E       		.uleb128 0x1e
 2948 0164 15       		.uleb128 0x15
 2949 0165 01       		.byte	0x1
 2950 0166 27       		.uleb128 0x27
 2951 0167 19       		.uleb128 0x19
 2952 0168 01       		.uleb128 0x1
 2953 0169 13       		.uleb128 0x13
 2954 016a 00       		.byte	0
 2955 016b 00       		.byte	0
 2956 016c 1F       		.uleb128 0x1f
 2957 016d 34       		.uleb128 0x34
 2958 016e 00       		.byte	0
 2959 016f 03       		.uleb128 0x3
 2960 0170 0E       		.uleb128 0xe
 2961 0171 3A       		.uleb128 0x3a
 2962 0172 0B       		.uleb128 0xb
 2963 0173 3B       		.uleb128 0x3b
 2964 0174 05       		.uleb128 0x5
ARM GAS  /tmp/ccvSotpA.s 			page 53


 2965 0175 49       		.uleb128 0x49
 2966 0176 13       		.uleb128 0x13
 2967 0177 3F       		.uleb128 0x3f
 2968 0178 19       		.uleb128 0x19
 2969 0179 3C       		.uleb128 0x3c
 2970 017a 19       		.uleb128 0x19
 2971 017b 00       		.byte	0
 2972 017c 00       		.byte	0
 2973 017d 20       		.uleb128 0x20
 2974 017e 04       		.uleb128 0x4
 2975 017f 01       		.byte	0x1
 2976 0180 03       		.uleb128 0x3
 2977 0181 0E       		.uleb128 0xe
 2978 0182 3E       		.uleb128 0x3e
 2979 0183 0B       		.uleb128 0xb
 2980 0184 0B       		.uleb128 0xb
 2981 0185 0B       		.uleb128 0xb
 2982 0186 49       		.uleb128 0x49
 2983 0187 13       		.uleb128 0x13
 2984 0188 3A       		.uleb128 0x3a
 2985 0189 0B       		.uleb128 0xb
 2986 018a 3B       		.uleb128 0x3b
 2987 018b 05       		.uleb128 0x5
 2988 018c 01       		.uleb128 0x1
 2989 018d 13       		.uleb128 0x13
 2990 018e 00       		.byte	0
 2991 018f 00       		.byte	0
 2992 0190 21       		.uleb128 0x21
 2993 0191 28       		.uleb128 0x28
 2994 0192 00       		.byte	0
 2995 0193 03       		.uleb128 0x3
 2996 0194 0E       		.uleb128 0xe
 2997 0195 1C       		.uleb128 0x1c
 2998 0196 0D       		.uleb128 0xd
 2999 0197 00       		.byte	0
 3000 0198 00       		.byte	0
 3001 0199 22       		.uleb128 0x22
 3002 019a 28       		.uleb128 0x28
 3003 019b 00       		.byte	0
 3004 019c 03       		.uleb128 0x3
 3005 019d 0E       		.uleb128 0xe
 3006 019e 1C       		.uleb128 0x1c
 3007 019f 0B       		.uleb128 0xb
 3008 01a0 00       		.byte	0
 3009 01a1 00       		.byte	0
 3010 01a2 23       		.uleb128 0x23
 3011 01a3 2E       		.uleb128 0x2e
 3012 01a4 01       		.byte	0x1
 3013 01a5 3F       		.uleb128 0x3f
 3014 01a6 19       		.uleb128 0x19
 3015 01a7 03       		.uleb128 0x3
 3016 01a8 0E       		.uleb128 0xe
 3017 01a9 3A       		.uleb128 0x3a
 3018 01aa 0B       		.uleb128 0xb
 3019 01ab 3B       		.uleb128 0x3b
 3020 01ac 0B       		.uleb128 0xb
 3021 01ad 27       		.uleb128 0x27
ARM GAS  /tmp/ccvSotpA.s 			page 54


 3022 01ae 19       		.uleb128 0x19
 3023 01af 49       		.uleb128 0x49
 3024 01b0 13       		.uleb128 0x13
 3025 01b1 11       		.uleb128 0x11
 3026 01b2 01       		.uleb128 0x1
 3027 01b3 12       		.uleb128 0x12
 3028 01b4 06       		.uleb128 0x6
 3029 01b5 40       		.uleb128 0x40
 3030 01b6 18       		.uleb128 0x18
 3031 01b7 9742     		.uleb128 0x2117
 3032 01b9 19       		.uleb128 0x19
 3033 01ba 01       		.uleb128 0x1
 3034 01bb 13       		.uleb128 0x13
 3035 01bc 00       		.byte	0
 3036 01bd 00       		.byte	0
 3037 01be 24       		.uleb128 0x24
 3038 01bf 05       		.uleb128 0x5
 3039 01c0 00       		.byte	0
 3040 01c1 03       		.uleb128 0x3
 3041 01c2 0E       		.uleb128 0xe
 3042 01c3 3A       		.uleb128 0x3a
 3043 01c4 0B       		.uleb128 0xb
 3044 01c5 3B       		.uleb128 0x3b
 3045 01c6 0B       		.uleb128 0xb
 3046 01c7 49       		.uleb128 0x49
 3047 01c8 13       		.uleb128 0x13
 3048 01c9 02       		.uleb128 0x2
 3049 01ca 17       		.uleb128 0x17
 3050 01cb 00       		.byte	0
 3051 01cc 00       		.byte	0
 3052 01cd 25       		.uleb128 0x25
 3053 01ce 34       		.uleb128 0x34
 3054 01cf 00       		.byte	0
 3055 01d0 03       		.uleb128 0x3
 3056 01d1 08       		.uleb128 0x8
 3057 01d2 3A       		.uleb128 0x3a
 3058 01d3 0B       		.uleb128 0xb
 3059 01d4 3B       		.uleb128 0x3b
 3060 01d5 0B       		.uleb128 0xb
 3061 01d6 49       		.uleb128 0x49
 3062 01d7 13       		.uleb128 0x13
 3063 01d8 02       		.uleb128 0x2
 3064 01d9 17       		.uleb128 0x17
 3065 01da 00       		.byte	0
 3066 01db 00       		.byte	0
 3067 01dc 26       		.uleb128 0x26
 3068 01dd 34       		.uleb128 0x34
 3069 01de 00       		.byte	0
 3070 01df 03       		.uleb128 0x3
 3071 01e0 0E       		.uleb128 0xe
 3072 01e1 3A       		.uleb128 0x3a
 3073 01e2 0B       		.uleb128 0xb
 3074 01e3 3B       		.uleb128 0x3b
 3075 01e4 0B       		.uleb128 0xb
 3076 01e5 49       		.uleb128 0x49
 3077 01e6 13       		.uleb128 0x13
 3078 01e7 02       		.uleb128 0x2
ARM GAS  /tmp/ccvSotpA.s 			page 55


 3079 01e8 17       		.uleb128 0x17
 3080 01e9 00       		.byte	0
 3081 01ea 00       		.byte	0
 3082 01eb 27       		.uleb128 0x27
 3083 01ec 898201   		.uleb128 0x4109
 3084 01ef 01       		.byte	0x1
 3085 01f0 11       		.uleb128 0x11
 3086 01f1 01       		.uleb128 0x1
 3087 01f2 31       		.uleb128 0x31
 3088 01f3 13       		.uleb128 0x13
 3089 01f4 01       		.uleb128 0x1
 3090 01f5 13       		.uleb128 0x13
 3091 01f6 00       		.byte	0
 3092 01f7 00       		.byte	0
 3093 01f8 28       		.uleb128 0x28
 3094 01f9 8A8201   		.uleb128 0x410a
 3095 01fc 00       		.byte	0
 3096 01fd 02       		.uleb128 0x2
 3097 01fe 18       		.uleb128 0x18
 3098 01ff 9142     		.uleb128 0x2111
 3099 0201 18       		.uleb128 0x18
 3100 0202 00       		.byte	0
 3101 0203 00       		.byte	0
 3102 0204 29       		.uleb128 0x29
 3103 0205 898201   		.uleb128 0x4109
 3104 0208 00       		.byte	0
 3105 0209 11       		.uleb128 0x11
 3106 020a 01       		.uleb128 0x1
 3107 020b 9542     		.uleb128 0x2115
 3108 020d 19       		.uleb128 0x19
 3109 020e 31       		.uleb128 0x31
 3110 020f 13       		.uleb128 0x13
 3111 0210 00       		.byte	0
 3112 0211 00       		.byte	0
 3113 0212 2A       		.uleb128 0x2a
 3114 0213 05       		.uleb128 0x5
 3115 0214 00       		.byte	0
 3116 0215 03       		.uleb128 0x3
 3117 0216 0E       		.uleb128 0xe
 3118 0217 3A       		.uleb128 0x3a
 3119 0218 0B       		.uleb128 0xb
 3120 0219 3B       		.uleb128 0x3b
 3121 021a 0B       		.uleb128 0xb
 3122 021b 49       		.uleb128 0x49
 3123 021c 13       		.uleb128 0x13
 3124 021d 02       		.uleb128 0x2
 3125 021e 18       		.uleb128 0x18
 3126 021f 00       		.byte	0
 3127 0220 00       		.byte	0
 3128 0221 2B       		.uleb128 0x2b
 3129 0222 898201   		.uleb128 0x4109
 3130 0225 01       		.byte	0x1
 3131 0226 11       		.uleb128 0x11
 3132 0227 01       		.uleb128 0x1
 3133 0228 31       		.uleb128 0x31
 3134 0229 13       		.uleb128 0x13
 3135 022a 00       		.byte	0
ARM GAS  /tmp/ccvSotpA.s 			page 56


 3136 022b 00       		.byte	0
 3137 022c 2C       		.uleb128 0x2c
 3138 022d 1D       		.uleb128 0x1d
 3139 022e 01       		.byte	0x1
 3140 022f 31       		.uleb128 0x31
 3141 0230 13       		.uleb128 0x13
 3142 0231 52       		.uleb128 0x52
 3143 0232 01       		.uleb128 0x1
 3144 0233 55       		.uleb128 0x55
 3145 0234 17       		.uleb128 0x17
 3146 0235 58       		.uleb128 0x58
 3147 0236 0B       		.uleb128 0xb
 3148 0237 59       		.uleb128 0x59
 3149 0238 0B       		.uleb128 0xb
 3150 0239 00       		.byte	0
 3151 023a 00       		.byte	0
 3152 023b 2D       		.uleb128 0x2d
 3153 023c 05       		.uleb128 0x5
 3154 023d 00       		.byte	0
 3155 023e 31       		.uleb128 0x31
 3156 023f 13       		.uleb128 0x13
 3157 0240 02       		.uleb128 0x2
 3158 0241 17       		.uleb128 0x17
 3159 0242 00       		.byte	0
 3160 0243 00       		.byte	0
 3161 0244 2E       		.uleb128 0x2e
 3162 0245 0B       		.uleb128 0xb
 3163 0246 01       		.byte	0x1
 3164 0247 55       		.uleb128 0x55
 3165 0248 17       		.uleb128 0x17
 3166 0249 00       		.byte	0
 3167 024a 00       		.byte	0
 3168 024b 2F       		.uleb128 0x2f
 3169 024c 34       		.uleb128 0x34
 3170 024d 00       		.byte	0
 3171 024e 31       		.uleb128 0x31
 3172 024f 13       		.uleb128 0x13
 3173 0250 00       		.byte	0
 3174 0251 00       		.byte	0
 3175 0252 30       		.uleb128 0x30
 3176 0253 2E       		.uleb128 0x2e
 3177 0254 01       		.byte	0x1
 3178 0255 3F       		.uleb128 0x3f
 3179 0256 19       		.uleb128 0x19
 3180 0257 03       		.uleb128 0x3
 3181 0258 0E       		.uleb128 0xe
 3182 0259 3A       		.uleb128 0x3a
 3183 025a 0B       		.uleb128 0xb
 3184 025b 3B       		.uleb128 0x3b
 3185 025c 0B       		.uleb128 0xb
 3186 025d 27       		.uleb128 0x27
 3187 025e 19       		.uleb128 0x19
 3188 025f 49       		.uleb128 0x49
 3189 0260 13       		.uleb128 0x13
 3190 0261 20       		.uleb128 0x20
 3191 0262 0B       		.uleb128 0xb
 3192 0263 01       		.uleb128 0x1
ARM GAS  /tmp/ccvSotpA.s 			page 57


 3193 0264 13       		.uleb128 0x13
 3194 0265 00       		.byte	0
 3195 0266 00       		.byte	0
 3196 0267 31       		.uleb128 0x31
 3197 0268 05       		.uleb128 0x5
 3198 0269 00       		.byte	0
 3199 026a 03       		.uleb128 0x3
 3200 026b 0E       		.uleb128 0xe
 3201 026c 3A       		.uleb128 0x3a
 3202 026d 0B       		.uleb128 0xb
 3203 026e 3B       		.uleb128 0x3b
 3204 026f 0B       		.uleb128 0xb
 3205 0270 49       		.uleb128 0x49
 3206 0271 13       		.uleb128 0x13
 3207 0272 00       		.byte	0
 3208 0273 00       		.byte	0
 3209 0274 32       		.uleb128 0x32
 3210 0275 34       		.uleb128 0x34
 3211 0276 00       		.byte	0
 3212 0277 03       		.uleb128 0x3
 3213 0278 08       		.uleb128 0x8
 3214 0279 3A       		.uleb128 0x3a
 3215 027a 0B       		.uleb128 0xb
 3216 027b 3B       		.uleb128 0x3b
 3217 027c 0B       		.uleb128 0xb
 3218 027d 49       		.uleb128 0x49
 3219 027e 13       		.uleb128 0x13
 3220 027f 00       		.byte	0
 3221 0280 00       		.byte	0
 3222 0281 33       		.uleb128 0x33
 3223 0282 2E       		.uleb128 0x2e
 3224 0283 01       		.byte	0x1
 3225 0284 3F       		.uleb128 0x3f
 3226 0285 19       		.uleb128 0x19
 3227 0286 03       		.uleb128 0x3
 3228 0287 0E       		.uleb128 0xe
 3229 0288 3A       		.uleb128 0x3a
 3230 0289 0B       		.uleb128 0xb
 3231 028a 3B       		.uleb128 0x3b
 3232 028b 0B       		.uleb128 0xb
 3233 028c 27       		.uleb128 0x27
 3234 028d 19       		.uleb128 0x19
 3235 028e 11       		.uleb128 0x11
 3236 028f 01       		.uleb128 0x1
 3237 0290 12       		.uleb128 0x12
 3238 0291 06       		.uleb128 0x6
 3239 0292 40       		.uleb128 0x40
 3240 0293 18       		.uleb128 0x18
 3241 0294 9742     		.uleb128 0x2117
 3242 0296 19       		.uleb128 0x19
 3243 0297 01       		.uleb128 0x1
 3244 0298 13       		.uleb128 0x13
 3245 0299 00       		.byte	0
 3246 029a 00       		.byte	0
 3247 029b 34       		.uleb128 0x34
 3248 029c 34       		.uleb128 0x34
 3249 029d 00       		.byte	0
ARM GAS  /tmp/ccvSotpA.s 			page 58


 3250 029e 03       		.uleb128 0x3
 3251 029f 08       		.uleb128 0x8
 3252 02a0 3A       		.uleb128 0x3a
 3253 02a1 0B       		.uleb128 0xb
 3254 02a2 3B       		.uleb128 0x3b
 3255 02a3 0B       		.uleb128 0xb
 3256 02a4 49       		.uleb128 0x49
 3257 02a5 13       		.uleb128 0x13
 3258 02a6 02       		.uleb128 0x2
 3259 02a7 18       		.uleb128 0x18
 3260 02a8 00       		.byte	0
 3261 02a9 00       		.byte	0
 3262 02aa 35       		.uleb128 0x35
 3263 02ab 898201   		.uleb128 0x4109
 3264 02ae 01       		.byte	0x1
 3265 02af 11       		.uleb128 0x11
 3266 02b0 01       		.uleb128 0x1
 3267 02b1 9542     		.uleb128 0x2115
 3268 02b3 19       		.uleb128 0x19
 3269 02b4 31       		.uleb128 0x31
 3270 02b5 13       		.uleb128 0x13
 3271 02b6 00       		.byte	0
 3272 02b7 00       		.byte	0
 3273 02b8 36       		.uleb128 0x36
 3274 02b9 2E       		.uleb128 0x2e
 3275 02ba 01       		.byte	0x1
 3276 02bb 3F       		.uleb128 0x3f
 3277 02bc 19       		.uleb128 0x19
 3278 02bd 03       		.uleb128 0x3
 3279 02be 0E       		.uleb128 0xe
 3280 02bf 3A       		.uleb128 0x3a
 3281 02c0 0B       		.uleb128 0xb
 3282 02c1 3B       		.uleb128 0x3b
 3283 02c2 0B       		.uleb128 0xb
 3284 02c3 27       		.uleb128 0x27
 3285 02c4 19       		.uleb128 0x19
 3286 02c5 20       		.uleb128 0x20
 3287 02c6 0B       		.uleb128 0xb
 3288 02c7 01       		.uleb128 0x1
 3289 02c8 13       		.uleb128 0x13
 3290 02c9 00       		.byte	0
 3291 02ca 00       		.byte	0
 3292 02cb 37       		.uleb128 0x37
 3293 02cc 2E       		.uleb128 0x2e
 3294 02cd 01       		.byte	0x1
 3295 02ce 31       		.uleb128 0x31
 3296 02cf 13       		.uleb128 0x13
 3297 02d0 11       		.uleb128 0x11
 3298 02d1 01       		.uleb128 0x1
 3299 02d2 12       		.uleb128 0x12
 3300 02d3 06       		.uleb128 0x6
 3301 02d4 40       		.uleb128 0x40
 3302 02d5 18       		.uleb128 0x18
 3303 02d6 9742     		.uleb128 0x2117
 3304 02d8 19       		.uleb128 0x19
 3305 02d9 01       		.uleb128 0x1
 3306 02da 13       		.uleb128 0x13
ARM GAS  /tmp/ccvSotpA.s 			page 59


 3307 02db 00       		.byte	0
 3308 02dc 00       		.byte	0
 3309 02dd 38       		.uleb128 0x38
 3310 02de 05       		.uleb128 0x5
 3311 02df 00       		.byte	0
 3312 02e0 31       		.uleb128 0x31
 3313 02e1 13       		.uleb128 0x13
 3314 02e2 02       		.uleb128 0x2
 3315 02e3 18       		.uleb128 0x18
 3316 02e4 00       		.byte	0
 3317 02e5 00       		.byte	0
 3318 02e6 39       		.uleb128 0x39
 3319 02e7 34       		.uleb128 0x34
 3320 02e8 00       		.byte	0
 3321 02e9 31       		.uleb128 0x31
 3322 02ea 13       		.uleb128 0x13
 3323 02eb 02       		.uleb128 0x2
 3324 02ec 18       		.uleb128 0x18
 3325 02ed 00       		.byte	0
 3326 02ee 00       		.byte	0
 3327 02ef 3A       		.uleb128 0x3a
 3328 02f0 2E       		.uleb128 0x2e
 3329 02f1 00       		.byte	0
 3330 02f2 3F       		.uleb128 0x3f
 3331 02f3 19       		.uleb128 0x19
 3332 02f4 3C       		.uleb128 0x3c
 3333 02f5 19       		.uleb128 0x19
 3334 02f6 6E       		.uleb128 0x6e
 3335 02f7 0E       		.uleb128 0xe
 3336 02f8 03       		.uleb128 0x3
 3337 02f9 0E       		.uleb128 0xe
 3338 02fa 3A       		.uleb128 0x3a
 3339 02fb 0B       		.uleb128 0xb
 3340 02fc 3B       		.uleb128 0x3b
 3341 02fd 05       		.uleb128 0x5
 3342 02fe 00       		.byte	0
 3343 02ff 00       		.byte	0
 3344 0300 00       		.byte	0
 3345              		.section	.debug_loc,"",%progbits
 3346              	.Ldebug_loc0:
 3347              	.LLST25:
 3348 0000 00000000 		.4byte	.LVL47
 3349 0004 05000000 		.4byte	.LVL48-1
 3350 0008 0100     		.2byte	0x1
 3351 000a 50       		.byte	0x50
 3352 000b 05000000 		.4byte	.LVL48-1
 3353 000f 48000000 		.4byte	.LFE13
 3354 0013 0400     		.2byte	0x4
 3355 0015 F3       		.byte	0xf3
 3356 0016 01       		.uleb128 0x1
 3357 0017 50       		.byte	0x50
 3358 0018 9F       		.byte	0x9f
 3359 0019 00000000 		.4byte	0
 3360 001d 00000000 		.4byte	0
 3361              	.LLST26:
 3362 0021 00000000 		.4byte	.LVL47
 3363 0025 39000000 		.4byte	.LVL56-1
ARM GAS  /tmp/ccvSotpA.s 			page 60


 3364 0029 0100     		.2byte	0x1
 3365 002b 51       		.byte	0x51
 3366 002c 39000000 		.4byte	.LVL56-1
 3367 0030 3A000000 		.4byte	.LVL56
 3368 0034 0400     		.2byte	0x4
 3369 0036 F3       		.byte	0xf3
 3370 0037 01       		.uleb128 0x1
 3371 0038 51       		.byte	0x51
 3372 0039 9F       		.byte	0x9f
 3373 003a 3A000000 		.4byte	.LVL56
 3374 003e 48000000 		.4byte	.LFE13
 3375 0042 0100     		.2byte	0x1
 3376 0044 51       		.byte	0x51
 3377 0045 00000000 		.4byte	0
 3378 0049 00000000 		.4byte	0
 3379              	.LLST27:
 3380 004d 06000000 		.4byte	.LVL48
 3381 0051 32000000 		.4byte	.LVL54
 3382 0055 0100     		.2byte	0x1
 3383 0057 50       		.byte	0x50
 3384 0058 3A000000 		.4byte	.LVL56
 3385 005c 48000000 		.4byte	.LFE13
 3386 0060 0100     		.2byte	0x1
 3387 0062 50       		.byte	0x50
 3388 0063 00000000 		.4byte	0
 3389 0067 00000000 		.4byte	0
 3390              	.LLST28:
 3391 006b 0A000000 		.4byte	.LVL49
 3392 006f 36000000 		.4byte	.LVL55
 3393 0073 0100     		.2byte	0x1
 3394 0075 53       		.byte	0x53
 3395 0076 36000000 		.4byte	.LVL55
 3396 007a 39000000 		.4byte	.LVL56-1
 3397 007e 0100     		.2byte	0x1
 3398 0080 50       		.byte	0x50
 3399 0081 3A000000 		.4byte	.LVL56
 3400 0085 48000000 		.4byte	.LFE13
 3401 0089 0100     		.2byte	0x1
 3402 008b 53       		.byte	0x53
 3403 008c 00000000 		.4byte	0
 3404 0090 00000000 		.4byte	0
 3405              	.LLST29:
 3406 0094 0E000000 		.4byte	.LVL50
 3407 0098 39000000 		.4byte	.LVL56-1
 3408 009c 0100     		.2byte	0x1
 3409 009e 52       		.byte	0x52
 3410 009f 3A000000 		.4byte	.LVL56
 3411 00a3 48000000 		.4byte	.LFE13
 3412 00a7 0100     		.2byte	0x1
 3413 00a9 52       		.byte	0x52
 3414 00aa 00000000 		.4byte	0
 3415 00ae 00000000 		.4byte	0
 3416              	.LLST30:
 3417 00b2 0E000000 		.4byte	.LVL50
 3418 00b6 32000000 		.4byte	.LVL54
 3419 00ba 0500     		.2byte	0x5
 3420 00bc 70       		.byte	0x70
ARM GAS  /tmp/ccvSotpA.s 			page 61


 3421 00bd 00       		.sleb128 0
 3422 00be 30       		.byte	0x30
 3423 00bf 2D       		.byte	0x2d
 3424 00c0 9F       		.byte	0x9f
 3425 00c1 3A000000 		.4byte	.LVL56
 3426 00c5 48000000 		.4byte	.LFE13
 3427 00c9 0500     		.2byte	0x5
 3428 00cb 70       		.byte	0x70
 3429 00cc 00       		.sleb128 0
 3430 00cd 30       		.byte	0x30
 3431 00ce 2D       		.byte	0x2d
 3432 00cf 9F       		.byte	0x9f
 3433 00d0 00000000 		.4byte	0
 3434 00d4 00000000 		.4byte	0
 3435              	.LLST31:
 3436 00d8 0E000000 		.4byte	.LVL50
 3437 00dc 26000000 		.4byte	.LVL51
 3438 00e0 0600     		.2byte	0x6
 3439 00e2 9E       		.byte	0x9e
 3440 00e3 04       		.uleb128 0x4
 3441 00e4 00000000 		.4byte	0
 3442 00e8 26000000 		.4byte	.LVL51
 3443 00ec 39000000 		.4byte	.LVL56-1
 3444 00f0 0200     		.2byte	0x2
 3445 00f2 90       		.byte	0x90
 3446 00f3 40       		.uleb128 0x40
 3447 00f4 3A000000 		.4byte	.LVL56
 3448 00f8 48000000 		.4byte	.LFE13
 3449 00fc 0600     		.2byte	0x6
 3450 00fe 9E       		.byte	0x9e
 3451 00ff 04       		.uleb128 0x4
 3452 0100 00000000 		.4byte	0
 3453 0104 00000000 		.4byte	0
 3454 0108 00000000 		.4byte	0
 3455              	.LLST23:
 3456 010c 00000000 		.4byte	.LVL44
 3457 0110 05000000 		.4byte	.LVL45-1
 3458 0114 0100     		.2byte	0x1
 3459 0116 50       		.byte	0x50
 3460 0117 05000000 		.4byte	.LVL45-1
 3461 011b 14000000 		.4byte	.LFE12
 3462 011f 0400     		.2byte	0x4
 3463 0121 F3       		.byte	0xf3
 3464 0122 01       		.uleb128 0x1
 3465 0123 50       		.byte	0x50
 3466 0124 9F       		.byte	0x9f
 3467 0125 00000000 		.4byte	0
 3468 0129 00000000 		.4byte	0
 3469              	.LLST24:
 3470 012d 00000000 		.4byte	.LVL44
 3471 0131 12000000 		.4byte	.LVL46
 3472 0135 0200     		.2byte	0x2
 3473 0137 90       		.byte	0x90
 3474 0138 40       		.uleb128 0x40
 3475 0139 12000000 		.4byte	.LVL46
 3476 013d 14000000 		.4byte	.LFE12
 3477 0141 0600     		.2byte	0x6
ARM GAS  /tmp/ccvSotpA.s 			page 62


 3478 0143 F3       		.byte	0xf3
 3479 0144 03       		.uleb128 0x3
 3480 0145 F5       		.byte	0xf5
 3481 0146 40       		.uleb128 0x40
 3482 0147 25       		.uleb128 0x25
 3483 0148 9F       		.byte	0x9f
 3484 0149 00000000 		.4byte	0
 3485 014d 00000000 		.4byte	0
 3486              	.LLST19:
 3487 0151 00000000 		.4byte	.LVL39
 3488 0155 06000000 		.4byte	.LVL40
 3489 0159 0100     		.2byte	0x1
 3490 015b 50       		.byte	0x50
 3491 015c 06000000 		.4byte	.LVL40
 3492 0160 20000000 		.4byte	.LFE11
 3493 0164 0400     		.2byte	0x4
 3494 0166 F3       		.byte	0xf3
 3495 0167 01       		.uleb128 0x1
 3496 0168 50       		.byte	0x50
 3497 0169 9F       		.byte	0x9f
 3498 016a 00000000 		.4byte	0
 3499 016e 00000000 		.4byte	0
 3500              	.LLST20:
 3501 0172 00000000 		.4byte	.LVL39
 3502 0176 1E000000 		.4byte	.LVL43
 3503 017a 0200     		.2byte	0x2
 3504 017c 90       		.byte	0x90
 3505 017d 40       		.uleb128 0x40
 3506 017e 1E000000 		.4byte	.LVL43
 3507 0182 20000000 		.4byte	.LFE11
 3508 0186 0600     		.2byte	0x6
 3509 0188 F3       		.byte	0xf3
 3510 0189 03       		.uleb128 0x3
 3511 018a F5       		.byte	0xf5
 3512 018b 40       		.uleb128 0x40
 3513 018c 25       		.uleb128 0x25
 3514 018d 9F       		.byte	0x9f
 3515 018e 00000000 		.4byte	0
 3516 0192 00000000 		.4byte	0
 3517              	.LLST21:
 3518 0196 00000000 		.4byte	.LVL39
 3519 019a 1A000000 		.4byte	.LVL42
 3520 019e 0100     		.2byte	0x1
 3521 01a0 51       		.byte	0x51
 3522 01a1 00000000 		.4byte	0
 3523 01a5 00000000 		.4byte	0
 3524              	.LLST22:
 3525 01a9 00000000 		.4byte	.LVL39
 3526 01ad 06000000 		.4byte	.LVL40
 3527 01b1 0100     		.2byte	0x1
 3528 01b3 50       		.byte	0x50
 3529 01b4 06000000 		.4byte	.LVL40
 3530 01b8 1A000000 		.4byte	.LVL42
 3531 01bc 0400     		.2byte	0x4
 3532 01be F3       		.byte	0xf3
 3533 01bf 01       		.uleb128 0x1
 3534 01c0 50       		.byte	0x50
ARM GAS  /tmp/ccvSotpA.s 			page 63


 3535 01c1 9F       		.byte	0x9f
 3536 01c2 00000000 		.4byte	0
 3537 01c6 00000000 		.4byte	0
 3538              	.LLST17:
 3539 01ca 00000000 		.4byte	.LVL35
 3540 01ce 0E000000 		.4byte	.LVL36
 3541 01d2 0100     		.2byte	0x1
 3542 01d4 50       		.byte	0x50
 3543 01d5 0E000000 		.4byte	.LVL36
 3544 01d9 22000000 		.4byte	.LFE10
 3545 01dd 0400     		.2byte	0x4
 3546 01df F3       		.byte	0xf3
 3547 01e0 01       		.uleb128 0x1
 3548 01e1 50       		.byte	0x50
 3549 01e2 9F       		.byte	0x9f
 3550 01e3 00000000 		.4byte	0
 3551 01e7 00000000 		.4byte	0
 3552              	.LLST18:
 3553 01eb 16000000 		.4byte	.LVL37
 3554 01ef 1C000000 		.4byte	.LVL38
 3555 01f3 0800     		.2byte	0x8
 3556 01f5 70       		.byte	0x70
 3557 01f6 00       		.sleb128 0
 3558 01f7 38       		.byte	0x38
 3559 01f8 24       		.byte	0x24
 3560 01f9 73       		.byte	0x73
 3561 01fa 00       		.sleb128 0
 3562 01fb 21       		.byte	0x21
 3563 01fc 9F       		.byte	0x9f
 3564 01fd 1C000000 		.4byte	.LVL38
 3565 0201 22000000 		.4byte	.LFE10
 3566 0205 0100     		.2byte	0x1
 3567 0207 50       		.byte	0x50
 3568 0208 00000000 		.4byte	0
 3569 020c 00000000 		.4byte	0
 3570              	.LLST15:
 3571 0210 00000000 		.4byte	.LVL31
 3572 0214 0E000000 		.4byte	.LVL32
 3573 0218 0100     		.2byte	0x1
 3574 021a 50       		.byte	0x50
 3575 021b 0E000000 		.4byte	.LVL32
 3576 021f 22000000 		.4byte	.LFE9
 3577 0223 0400     		.2byte	0x4
 3578 0225 F3       		.byte	0xf3
 3579 0226 01       		.uleb128 0x1
 3580 0227 50       		.byte	0x50
 3581 0228 9F       		.byte	0x9f
 3582 0229 00000000 		.4byte	0
 3583 022d 00000000 		.4byte	0
 3584              	.LLST16:
 3585 0231 16000000 		.4byte	.LVL33
 3586 0235 1C000000 		.4byte	.LVL34
 3587 0239 0800     		.2byte	0x8
 3588 023b 70       		.byte	0x70
 3589 023c 00       		.sleb128 0
 3590 023d 38       		.byte	0x38
 3591 023e 24       		.byte	0x24
ARM GAS  /tmp/ccvSotpA.s 			page 64


 3592 023f 73       		.byte	0x73
 3593 0240 00       		.sleb128 0
 3594 0241 21       		.byte	0x21
 3595 0242 9F       		.byte	0x9f
 3596 0243 1C000000 		.4byte	.LVL34
 3597 0247 22000000 		.4byte	.LFE9
 3598 024b 0100     		.2byte	0x1
 3599 024d 50       		.byte	0x50
 3600 024e 00000000 		.4byte	0
 3601 0252 00000000 		.4byte	0
 3602              	.LLST13:
 3603 0256 00000000 		.4byte	.LVL27
 3604 025a 06000000 		.4byte	.LVL28
 3605 025e 0100     		.2byte	0x1
 3606 0260 50       		.byte	0x50
 3607 0261 06000000 		.4byte	.LVL28
 3608 0265 12000000 		.4byte	.LFE8
 3609 0269 0400     		.2byte	0x4
 3610 026b F3       		.byte	0xf3
 3611 026c 01       		.uleb128 0x1
 3612 026d 50       		.byte	0x50
 3613 026e 9F       		.byte	0x9f
 3614 026f 00000000 		.4byte	0
 3615 0273 00000000 		.4byte	0
 3616              	.LLST14:
 3617 0277 08000000 		.4byte	.LVL29
 3618 027b 10000000 		.4byte	.LVL30
 3619 027f 0800     		.2byte	0x8
 3620 0281 70       		.byte	0x70
 3621 0282 00       		.sleb128 0
 3622 0283 38       		.byte	0x38
 3623 0284 24       		.byte	0x24
 3624 0285 72       		.byte	0x72
 3625 0286 00       		.sleb128 0
 3626 0287 21       		.byte	0x21
 3627 0288 9F       		.byte	0x9f
 3628 0289 10000000 		.4byte	.LVL30
 3629 028d 12000000 		.4byte	.LFE8
 3630 0291 0100     		.2byte	0x1
 3631 0293 50       		.byte	0x50
 3632 0294 00000000 		.4byte	0
 3633 0298 00000000 		.4byte	0
 3634              	.LLST6:
 3635 029c 00000000 		.4byte	.LVL12
 3636 02a0 2A000000 		.4byte	.LVL15
 3637 02a4 0100     		.2byte	0x1
 3638 02a6 50       		.byte	0x50
 3639 02a7 2A000000 		.4byte	.LVL15
 3640 02ab 66000000 		.4byte	.LVL21
 3641 02af 0100     		.2byte	0x1
 3642 02b1 55       		.byte	0x55
 3643 02b2 66000000 		.4byte	.LVL21
 3644 02b6 6A000000 		.4byte	.LVL22
 3645 02ba 0100     		.2byte	0x1
 3646 02bc 50       		.byte	0x50
 3647 02bd 6A000000 		.4byte	.LVL22
 3648 02c1 98000000 		.4byte	.LFE6
ARM GAS  /tmp/ccvSotpA.s 			page 65


 3649 02c5 0100     		.2byte	0x1
 3650 02c7 55       		.byte	0x55
 3651 02c8 00000000 		.4byte	0
 3652 02cc 00000000 		.4byte	0
 3653              	.LLST7:
 3654 02d0 00000000 		.4byte	.LVL12
 3655 02d4 20000000 		.4byte	.LVL13
 3656 02d8 0200     		.2byte	0x2
 3657 02da 90       		.byte	0x90
 3658 02db 40       		.uleb128 0x40
 3659 02dc 26000000 		.4byte	.LVL14
 3660 02e0 2F000000 		.4byte	.LVL16-1
 3661 02e4 0200     		.2byte	0x2
 3662 02e6 90       		.byte	0x90
 3663 02e7 40       		.uleb128 0x40
 3664 02e8 00000000 		.4byte	0
 3665 02ec 00000000 		.4byte	0
 3666              	.LLST8:
 3667 02f0 00000000 		.4byte	.LVL12
 3668 02f4 2F000000 		.4byte	.LVL16-1
 3669 02f8 0100     		.2byte	0x1
 3670 02fa 51       		.byte	0x51
 3671 02fb 2F000000 		.4byte	.LVL16-1
 3672 02ff 66000000 		.4byte	.LVL21
 3673 0303 0100     		.2byte	0x1
 3674 0305 56       		.byte	0x56
 3675 0306 66000000 		.4byte	.LVL21
 3676 030a 6A000000 		.4byte	.LVL22
 3677 030e 0100     		.2byte	0x1
 3678 0310 52       		.byte	0x52
 3679 0311 6A000000 		.4byte	.LVL22
 3680 0315 98000000 		.4byte	.LFE6
 3681 0319 0100     		.2byte	0x1
 3682 031b 56       		.byte	0x56
 3683 031c 00000000 		.4byte	0
 3684 0320 00000000 		.4byte	0
 3685              	.LLST9:
 3686 0324 38000000 		.4byte	.LVL17
 3687 0328 44000000 		.4byte	.LVL18
 3688 032c 0200     		.2byte	0x2
 3689 032e 90       		.byte	0x90
 3690 032f 4F       		.uleb128 0x4f
 3691 0330 44000000 		.4byte	.LVL18
 3692 0334 6A000000 		.4byte	.LVL22
 3693 0338 0500     		.2byte	0x5
 3694 033a F5       		.byte	0xf5
 3695 033b 40       		.uleb128 0x40
 3696 033c 25       		.uleb128 0x25
 3697 033d 19       		.byte	0x19
 3698 033e 9F       		.byte	0x9f
 3699 033f 6A000000 		.4byte	.LVL22
 3700 0343 6E000000 		.4byte	.LVL23
 3701 0347 0200     		.2byte	0x2
 3702 0349 90       		.byte	0x90
 3703 034a 4F       		.uleb128 0x4f
 3704 034b 6E000000 		.4byte	.LVL23
 3705 034f 98000000 		.4byte	.LFE6
ARM GAS  /tmp/ccvSotpA.s 			page 66


 3706 0353 0500     		.2byte	0x5
 3707 0355 F5       		.byte	0xf5
 3708 0356 40       		.uleb128 0x40
 3709 0357 25       		.uleb128 0x25
 3710 0358 19       		.byte	0x19
 3711 0359 9F       		.byte	0x9f
 3712 035a 00000000 		.4byte	0
 3713 035e 00000000 		.4byte	0
 3714              	.LLST10:
 3715 0362 38000000 		.4byte	.LVL17
 3716 0366 44000000 		.4byte	.LVL18
 3717 036a 0200     		.2byte	0x2
 3718 036c 30       		.byte	0x30
 3719 036d 9F       		.byte	0x9f
 3720 036e 6A000000 		.4byte	.LVL22
 3721 0372 6E000000 		.4byte	.LVL23
 3722 0376 2200     		.2byte	0x22
 3723 0378 F5       		.byte	0xf5
 3724 0379 4F       		.uleb128 0x4f
 3725 037a 25       		.uleb128 0x25
 3726 037b F4       		.byte	0xf4
 3727 037c 25       		.uleb128 0x25
 3728 037d 04       		.byte	0x4
 3729 037e 0000003F 		.4byte	0x3f000000
 3730 0382 1C       		.byte	0x1c
 3731 0383 F5       		.byte	0xf5
 3732 0384 4F       		.uleb128 0x4f
 3733 0385 25       		.uleb128 0x25
 3734 0386 F4       		.byte	0xf4
 3735 0387 25       		.uleb128 0x25
 3736 0388 04       		.byte	0x4
 3737 0389 0000003F 		.4byte	0x3f000000
 3738 038d 1C       		.byte	0x1c
 3739 038e 22       		.byte	0x22
 3740 038f F4       		.byte	0xf4
 3741 0390 25       		.uleb128 0x25
 3742 0391 04       		.byte	0x4
 3743 0392 0000004B 		.4byte	0x4b000000
 3744 0396 1E       		.byte	0x1e
 3745 0397 F7       		.byte	0xf7
 3746 0398 2C       		.uleb128 0x2c
 3747 0399 9F       		.byte	0x9f
 3748 039a 6E000000 		.4byte	.LVL23
 3749 039e 98000000 		.4byte	.LFE6
 3750 03a2 2400     		.2byte	0x24
 3751 03a4 F5       		.byte	0xf5
 3752 03a5 40       		.uleb128 0x40
 3753 03a6 25       		.uleb128 0x25
 3754 03a7 19       		.byte	0x19
 3755 03a8 F4       		.byte	0xf4
 3756 03a9 25       		.uleb128 0x25
 3757 03aa 04       		.byte	0x4
 3758 03ab 0000003F 		.4byte	0x3f000000
 3759 03af 1C       		.byte	0x1c
 3760 03b0 F5       		.byte	0xf5
 3761 03b1 40       		.uleb128 0x40
 3762 03b2 25       		.uleb128 0x25
ARM GAS  /tmp/ccvSotpA.s 			page 67


 3763 03b3 19       		.byte	0x19
 3764 03b4 F4       		.byte	0xf4
 3765 03b5 25       		.uleb128 0x25
 3766 03b6 04       		.byte	0x4
 3767 03b7 0000003F 		.4byte	0x3f000000
 3768 03bb 1C       		.byte	0x1c
 3769 03bc 22       		.byte	0x22
 3770 03bd F4       		.byte	0xf4
 3771 03be 25       		.uleb128 0x25
 3772 03bf 04       		.byte	0x4
 3773 03c0 0000004B 		.4byte	0x4b000000
 3774 03c4 1E       		.byte	0x1e
 3775 03c5 F7       		.byte	0xf7
 3776 03c6 2C       		.uleb128 0x2c
 3777 03c7 9F       		.byte	0x9f
 3778 03c8 00000000 		.4byte	0
 3779 03cc 00000000 		.4byte	0
 3780              	.LLST11:
 3781 03d0 52000000 		.4byte	.LVL19
 3782 03d4 6A000000 		.4byte	.LVL22
 3783 03d8 0100     		.2byte	0x1
 3784 03da 51       		.byte	0x51
 3785 03db 00000000 		.4byte	0
 3786 03df 00000000 		.4byte	0
 3787              	.LLST4:
 3788 03e3 00000000 		.4byte	.LVL8
 3789 03e7 04000000 		.4byte	.LVL9
 3790 03eb 0200     		.2byte	0x2
 3791 03ed 90       		.byte	0x90
 3792 03ee 41       		.uleb128 0x41
 3793 03ef 04000000 		.4byte	.LVL9
 3794 03f3 12000000 		.4byte	.LFE5
 3795 03f7 0600     		.2byte	0x6
 3796 03f9 F3       		.byte	0xf3
 3797 03fa 03       		.uleb128 0x3
 3798 03fb F5       		.byte	0xf5
 3799 03fc 41       		.uleb128 0x41
 3800 03fd 25       		.uleb128 0x25
 3801 03fe 9F       		.byte	0x9f
 3802 03ff 00000000 		.4byte	0
 3803 0403 00000000 		.4byte	0
 3804              	.LLST5:
 3805 0407 00000000 		.4byte	.LVL8
 3806 040b 0E000000 		.4byte	.LVL10
 3807 040f 0100     		.2byte	0x1
 3808 0411 51       		.byte	0x51
 3809 0412 0E000000 		.4byte	.LVL10
 3810 0416 12000000 		.4byte	.LFE5
 3811 041a 0100     		.2byte	0x1
 3812 041c 52       		.byte	0x52
 3813 041d 00000000 		.4byte	0
 3814 0421 00000000 		.4byte	0
 3815              	.LLST0:
 3816 0425 00000000 		.4byte	.LVL4
 3817 0429 04000000 		.4byte	.LVL5
 3818 042d 0200     		.2byte	0x2
 3819 042f 90       		.byte	0x90
ARM GAS  /tmp/ccvSotpA.s 			page 68


 3820 0430 41       		.uleb128 0x41
 3821 0431 04000000 		.4byte	.LVL5
 3822 0435 26000000 		.4byte	.LFE4
 3823 0439 0600     		.2byte	0x6
 3824 043b F3       		.byte	0xf3
 3825 043c 03       		.uleb128 0x3
 3826 043d F5       		.byte	0xf5
 3827 043e 41       		.uleb128 0x41
 3828 043f 25       		.uleb128 0x25
 3829 0440 9F       		.byte	0x9f
 3830 0441 00000000 		.4byte	0
 3831 0445 00000000 		.4byte	0
 3832              	.LLST1:
 3833 0449 12000000 		.4byte	.LVL6
 3834 044d 22000000 		.4byte	.LVL7
 3835 0451 0100     		.2byte	0x1
 3836 0453 51       		.byte	0x51
 3837 0454 00000000 		.4byte	0
 3838 0458 00000000 		.4byte	0
 3839              	.LLST2:
 3840 045c 12000000 		.4byte	.LVL6
 3841 0460 22000000 		.4byte	.LVL7
 3842 0464 0100     		.2byte	0x1
 3843 0466 53       		.byte	0x53
 3844 0467 00000000 		.4byte	0
 3845 046b 00000000 		.4byte	0
 3846              	.LLST3:
 3847 046f 12000000 		.4byte	.LVL6
 3848 0473 22000000 		.4byte	.LVL7
 3849 0477 0100     		.2byte	0x1
 3850 0479 50       		.byte	0x50
 3851 047a 00000000 		.4byte	0
 3852 047e 00000000 		.4byte	0
 3853              	.LLST12:
 3854 0482 00000000 		.4byte	.LVL24
 3855 0486 0A000000 		.4byte	.LVL25
 3856 048a 0100     		.2byte	0x1
 3857 048c 50       		.byte	0x50
 3858 048d 0A000000 		.4byte	.LVL25
 3859 0491 1A000000 		.4byte	.LFE7
 3860 0495 0400     		.2byte	0x4
 3861 0497 F3       		.byte	0xf3
 3862 0498 01       		.uleb128 0x1
 3863 0499 50       		.byte	0x50
 3864 049a 9F       		.byte	0x9f
 3865 049b 00000000 		.4byte	0
 3866 049f 00000000 		.4byte	0
 3867              		.section	.debug_aranges,"",%progbits
 3868 0000 84000000 		.4byte	0x84
 3869 0004 0200     		.2byte	0x2
 3870 0006 00000000 		.4byte	.Ldebug_info0
 3871 000a 04       		.byte	0x4
 3872 000b 00       		.byte	0
 3873 000c 0000     		.2byte	0
 3874 000e 0000     		.2byte	0
 3875 0010 00000000 		.4byte	.LFB0
 3876 0014 18000000 		.4byte	.LFE0-.LFB0
ARM GAS  /tmp/ccvSotpA.s 			page 69


 3877 0018 00000000 		.4byte	.LFB1
 3878 001c 18000000 		.4byte	.LFE1-.LFB1
 3879 0020 00000000 		.4byte	.LFB2
 3880 0024 2C000000 		.4byte	.LFE2-.LFB2
 3881 0028 00000000 		.4byte	.LFB3
 3882 002c 2C000000 		.4byte	.LFE3-.LFB3
 3883 0030 00000000 		.4byte	.LFB4
 3884 0034 26000000 		.4byte	.LFE4-.LFB4
 3885 0038 00000000 		.4byte	.LFB5
 3886 003c 12000000 		.4byte	.LFE5-.LFB5
 3887 0040 00000000 		.4byte	.LFB6
 3888 0044 98000000 		.4byte	.LFE6-.LFB6
 3889 0048 00000000 		.4byte	.LFB7
 3890 004c 1A000000 		.4byte	.LFE7-.LFB7
 3891 0050 00000000 		.4byte	.LFB8
 3892 0054 12000000 		.4byte	.LFE8-.LFB8
 3893 0058 00000000 		.4byte	.LFB9
 3894 005c 22000000 		.4byte	.LFE9-.LFB9
 3895 0060 00000000 		.4byte	.LFB10
 3896 0064 22000000 		.4byte	.LFE10-.LFB10
 3897 0068 00000000 		.4byte	.LFB11
 3898 006c 20000000 		.4byte	.LFE11-.LFB11
 3899 0070 00000000 		.4byte	.LFB12
 3900 0074 14000000 		.4byte	.LFE12-.LFB12
 3901 0078 00000000 		.4byte	.LFB13
 3902 007c 48000000 		.4byte	.LFE13-.LFB13
 3903 0080 00000000 		.4byte	0
 3904 0084 00000000 		.4byte	0
 3905              		.section	.debug_ranges,"",%progbits
 3906              	.Ldebug_ranges0:
 3907 0000 04000000 		.4byte	.LBB6
 3908 0004 06000000 		.4byte	.LBE6
 3909 0008 12000000 		.4byte	.LBB9
 3910 000c 22000000 		.4byte	.LBE9
 3911 0010 00000000 		.4byte	0
 3912 0014 00000000 		.4byte	0
 3913 0018 00000000 		.4byte	.LBB10
 3914 001c 0E000000 		.4byte	.LBE10
 3915 0020 16000000 		.4byte	.LBB13
 3916 0024 1A000000 		.4byte	.LBE13
 3917 0028 00000000 		.4byte	0
 3918 002c 00000000 		.4byte	0
 3919 0030 00000000 		.4byte	.LFB0
 3920 0034 18000000 		.4byte	.LFE0
 3921 0038 00000000 		.4byte	.LFB1
 3922 003c 18000000 		.4byte	.LFE1
 3923 0040 00000000 		.4byte	.LFB2
 3924 0044 2C000000 		.4byte	.LFE2
 3925 0048 00000000 		.4byte	.LFB3
 3926 004c 2C000000 		.4byte	.LFE3
 3927 0050 00000000 		.4byte	.LFB4
 3928 0054 26000000 		.4byte	.LFE4
 3929 0058 00000000 		.4byte	.LFB5
 3930 005c 12000000 		.4byte	.LFE5
 3931 0060 00000000 		.4byte	.LFB6
 3932 0064 98000000 		.4byte	.LFE6
 3933 0068 00000000 		.4byte	.LFB7
ARM GAS  /tmp/ccvSotpA.s 			page 70


 3934 006c 1A000000 		.4byte	.LFE7
 3935 0070 00000000 		.4byte	.LFB8
 3936 0074 12000000 		.4byte	.LFE8
 3937 0078 00000000 		.4byte	.LFB9
 3938 007c 22000000 		.4byte	.LFE9
 3939 0080 00000000 		.4byte	.LFB10
 3940 0084 22000000 		.4byte	.LFE10
 3941 0088 00000000 		.4byte	.LFB11
 3942 008c 20000000 		.4byte	.LFE11
 3943 0090 00000000 		.4byte	.LFB12
 3944 0094 14000000 		.4byte	.LFE12
 3945 0098 00000000 		.4byte	.LFB13
 3946 009c 48000000 		.4byte	.LFE13
 3947 00a0 00000000 		.4byte	0
 3948 00a4 00000000 		.4byte	0
 3949              		.section	.debug_line,"",%progbits
 3950              	.Ldebug_line0:
 3951 0000 75020000 		.section	.debug_str,"MS",%progbits,1
 3951      0200FD00 
 3951      00000201 
 3951      FB0E0D00 
 3951      01010101 
 3952              	.LASF49:
 3953 0000 5F64736F 		.ascii	"_dso_handle\000"
 3953      5F68616E 
 3953      646C6500 
 3954              	.LASF143:
 3955 000c 7363616C 		.ascii	"scale\000"
 3955      6500
 3956              	.LASF160:
 3957 0012 2F626C64 		.ascii	"/bldc\000"
 3957      6300
 3958              	.LASF101:
 3959 0018 5F72616E 		.ascii	"_rand48\000"
 3959      64343800 
 3960              	.LASF81:
 3961 0020 5F656D65 		.ascii	"_emergency\000"
 3961      7267656E 
 3961      637900
 3962              	.LASF4:
 3963 002b 5F5F7569 		.ascii	"__uint8_t\000"
 3963      6E74385F 
 3963      7400
 3964              	.LASF71:
 3965 0035 5F646174 		.ascii	"_data\000"
 3965      6100
 3966              	.LASF158:
 3967 003b 474E5520 		.ascii	"GNU C99 7.3.1 20180622 (release) [ARM/embedded-7-br"
 3967      43393920 
 3967      372E332E 
 3967      31203230 
 3967      31383036 
 3968 006e 616E6368 		.ascii	"anch revision 261907] -mcpu=cortex-m4 -mfloat-abi=h"
 3968      20726576 
 3968      6973696F 
 3968      6E203236 
 3968      31393037 
ARM GAS  /tmp/ccvSotpA.s 			page 71


 3969 00a1 61726420 		.ascii	"ard -mfpu=fpv4-sp-d16 -mno-thumb-interwork -mthumb "
 3969      2D6D6670 
 3969      753D6670 
 3969      76342D73 
 3969      702D6431 
 3970 00d4 2D676764 		.ascii	"-ggdb -O2 -std=gnu99 -fomit-frame-pointer -falign-f"
 3970      62202D4F 
 3970      32202D73 
 3970      74643D67 
 3970      6E753939 
 3971 0107 756E6374 		.ascii	"unctions=16 -ffunction-sections -fdata-sections -fn"
 3971      696F6E73 
 3971      3D313620 
 3971      2D666675 
 3971      6E637469 
 3972 013a 6F2D636F 		.ascii	"o-common -fsingle-precision-constant\000"
 3972      6D6D6F6E 
 3972      202D6673 
 3972      696E676C 
 3972      652D7072 
 3973              	.LASF121:
 3974 015f 5F776372 		.ascii	"_wcrtomb_state\000"
 3974      746F6D62 
 3974      5F737461 
 3974      746500
 3975              	.LASF122:
 3976 016e 5F776373 		.ascii	"_wcsrtombs_state\000"
 3976      72746F6D 
 3976      62735F73 
 3976      74617465 
 3976      00
 3977              	.LASF14:
 3978 017f 6C6F6E67 		.ascii	"long long unsigned int\000"
 3978      206C6F6E 
 3978      6720756E 
 3978      7369676E 
 3978      65642069 
 3979              	.LASF135:
 3980 0196 5F5F6664 		.ascii	"__fdlibm_posix\000"
 3980      6C69626D 
 3980      5F706F73 
 3980      697800
 3981              	.LASF61:
 3982 01a5 5F6C6266 		.ascii	"_lbfsize\000"
 3982      73697A65 
 3982      00
 3983              	.LASF128:
 3984 01ae 5F5F6C6F 		.ascii	"__locale_t\000"
 3984      63616C65 
 3984      5F7400
 3985              	.LASF134:
 3986 01b9 5F5F6664 		.ascii	"__fdlibm_xopen\000"
 3986      6C69626D 
 3986      5F786F70 
 3986      656E00
 3987              	.LASF119:
 3988 01c8 5F6D6272 		.ascii	"_mbrtowc_state\000"
ARM GAS  /tmp/ccvSotpA.s 			page 72


 3988      746F7763 
 3988      5F737461 
 3988      746500
 3989              	.LASF38:
 3990 01d7 5F5F746D 		.ascii	"__tm_sec\000"
 3990      5F736563 
 3990      00
 3991              	.LASF16:
 3992 01e0 696E7431 		.ascii	"int16_t\000"
 3992      365F7400 
 3993              	.LASF13:
 3994 01e8 6C6F6E67 		.ascii	"long long int\000"
 3994      206C6F6E 
 3994      6720696E 
 3994      7400
 3995              	.LASF2:
 3996 01f6 7369676E 		.ascii	"signed char\000"
 3996      65642063 
 3996      68617200 
 3997              	.LASF67:
 3998 0202 5F756275 		.ascii	"_ubuf\000"
 3998      6600
 3999              	.LASF56:
 4000 0208 5F626173 		.ascii	"_base\000"
 4000      6500
 4001              	.LASF40:
 4002 020e 5F5F746D 		.ascii	"__tm_hour\000"
 4002      5F686F75 
 4002      7200
 4003              	.LASF96:
 4004 0218 5F5F7366 		.ascii	"__sf\000"
 4004      00
 4005              	.LASF47:
 4006 021d 5F6F6E5F 		.ascii	"_on_exit_args\000"
 4006      65786974 
 4006      5F617267 
 4006      7300
 4007              	.LASF62:
 4008 022b 5F636F6F 		.ascii	"_cookie\000"
 4008      6B696500 
 4009              	.LASF95:
 4010 0233 5F5F7367 		.ascii	"__sglue\000"
 4010      6C756500 
 4011              	.LASF10:
 4012 023b 6C6F6E67 		.ascii	"long int\000"
 4012      20696E74 
 4012      00
 4013              	.LASF59:
 4014 0244 5F666C61 		.ascii	"_flags\000"
 4014      677300
 4015              	.LASF51:
 4016 024b 5F69735F 		.ascii	"_is_cxa\000"
 4016      63786100 
 4017              	.LASF77:
 4018 0253 5F737464 		.ascii	"_stdin\000"
 4018      696E00
 4019              	.LASF133:
ARM GAS  /tmp/ccvSotpA.s 			page 73


 4020 025a 5F5F6664 		.ascii	"__fdlibm_svid\000"
 4020      6C69626D 
 4020      5F737669 
 4020      6400
 4021              	.LASF69:
 4022 0268 5F626C6B 		.ascii	"_blksize\000"
 4022      73697A65 
 4022      00
 4023              	.LASF154:
 4024 0271 62756666 		.ascii	"buffer_append_int32\000"
 4024      65725F61 
 4024      7070656E 
 4024      645F696E 
 4024      74333200 
 4025              	.LASF17:
 4026 0285 75696E74 		.ascii	"uint16_t\000"
 4026      31365F74 
 4026      00
 4027              	.LASF131:
 4028 028e 646F7562 		.ascii	"double\000"
 4028      6C6500
 4029              	.LASF91:
 4030 0295 5F637674 		.ascii	"_cvtbuf\000"
 4030      62756600 
 4031              	.LASF70:
 4032 029d 5F6F6666 		.ascii	"_offset\000"
 4032      73657400 
 4033              	.LASF120:
 4034 02a5 5F6D6273 		.ascii	"_mbsrtowcs_state\000"
 4034      72746F77 
 4034      63735F73 
 4034      74617465 
 4034      00
 4035              	.LASF118:
 4036 02b6 5F6D6272 		.ascii	"_mbrlen_state\000"
 4036      6C656E5F 
 4036      73746174 
 4036      6500
 4037              	.LASF146:
 4038 02c4 62756666 		.ascii	"buffer_get_int32\000"
 4038      65725F67 
 4038      65745F69 
 4038      6E743332 
 4038      00
 4039              	.LASF48:
 4040 02d5 5F666E61 		.ascii	"_fnargs\000"
 4040      72677300 
 4041              	.LASF57:
 4042 02dd 5F73697A 		.ascii	"_size\000"
 4042      6500
 4043              	.LASF54:
 4044 02e3 5F666E73 		.ascii	"_fns\000"
 4044      00
 4045              	.LASF11:
 4046 02e8 5F5F7569 		.ascii	"__uint32_t\000"
 4046      6E743332 
 4046      5F7400
ARM GAS  /tmp/ccvSotpA.s 			page 74


 4047              	.LASF34:
 4048 02f3 5F736967 		.ascii	"_sign\000"
 4048      6E00
 4049              	.LASF5:
 4050 02f9 5F5F696E 		.ascii	"__int16_t\000"
 4050      7431365F 
 4050      7400
 4051              	.LASF79:
 4052 0303 5F737464 		.ascii	"_stderr\000"
 4052      65727200 
 4053              	.LASF36:
 4054 030b 5F426967 		.ascii	"_Bigint\000"
 4054      696E7400 
 4055              	.LASF109:
 4056 0313 5F67616D 		.ascii	"_gamma_signgam\000"
 4056      6D615F73 
 4056      69676E67 
 4056      616D00
 4057              	.LASF63:
 4058 0322 5F726561 		.ascii	"_read\000"
 4058      6400
 4059              	.LASF87:
 4060 0328 5F726573 		.ascii	"_result_k\000"
 4060      756C745F 
 4060      6B00
 4061              	.LASF141:
 4062 0332 62756666 		.ascii	"buffer_get_float32_auto\000"
 4062      65725F67 
 4062      65745F66 
 4062      6C6F6174 
 4062      33325F61 
 4063              	.LASF37:
 4064 034a 5F5F746D 		.ascii	"__tm\000"
 4064      00
 4065              	.LASF1:
 4066 034f 756E7369 		.ascii	"unsigned int\000"
 4066      676E6564 
 4066      20696E74 
 4066      00
 4067              	.LASF25:
 4068 035c 5F5F7763 		.ascii	"__wchb\000"
 4068      686200
 4069              	.LASF78:
 4070 0363 5F737464 		.ascii	"_stdout\000"
 4070      6F757400 
 4071              	.LASF90:
 4072 036b 5F637674 		.ascii	"_cvtlen\000"
 4072      6C656E00 
 4073              	.LASF12:
 4074 0373 6C6F6E67 		.ascii	"long unsigned int\000"
 4074      20756E73 
 4074      69676E65 
 4074      6420696E 
 4074      7400
 4075              	.LASF60:
 4076 0385 5F66696C 		.ascii	"_file\000"
 4076      6500
ARM GAS  /tmp/ccvSotpA.s 			page 75


 4077              	.LASF147:
 4078 038b 62756666 		.ascii	"buffer_get_uint16\000"
 4078      65725F67 
 4078      65745F75 
 4078      696E7431 
 4078      3600
 4079              	.LASF142:
 4080 039d 62756666 		.ascii	"buffer_get_float32\000"
 4080      65725F67 
 4080      65745F66 
 4080      6C6F6174 
 4080      333200
 4081              	.LASF99:
 4082 03b0 5F6E696F 		.ascii	"_niobs\000"
 4082      627300
 4083              	.LASF8:
 4084 03b7 73686F72 		.ascii	"short unsigned int\000"
 4084      7420756E 
 4084      7369676E 
 4084      65642069 
 4084      6E7400
 4085              	.LASF93:
 4086 03ca 5F617465 		.ascii	"_atexit0\000"
 4086      78697430 
 4086      00
 4087              	.LASF116:
 4088 03d3 5F736967 		.ascii	"_signal_buf\000"
 4088      6E616C5F 
 4088      62756600 
 4089              	.LASF107:
 4090 03df 5F617363 		.ascii	"_asctime_buf\000"
 4090      74696D65 
 4090      5F627566 
 4090      00
 4091              	.LASF86:
 4092 03ec 5F726573 		.ascii	"_result\000"
 4092      756C7400 
 4093              	.LASF24:
 4094 03f4 5F5F7763 		.ascii	"__wch\000"
 4094      6800
 4095              	.LASF148:
 4096 03fa 6E756D62 		.ascii	"number\000"
 4096      657200
 4097              	.LASF20:
 4098 0401 5F4C4F43 		.ascii	"_LOCK_T\000"
 4098      4B5F5400 
 4099              	.LASF23:
 4100 0409 77696E74 		.ascii	"wint_t\000"
 4100      5F7400
 4101              	.LASF72:
 4102 0410 5F6C6F63 		.ascii	"_lock\000"
 4102      6B00
 4103              	.LASF74:
 4104 0416 5F666C61 		.ascii	"_flags2\000"
 4104      67733200 
 4105              	.LASF64:
 4106 041e 5F777269 		.ascii	"_write\000"
ARM GAS  /tmp/ccvSotpA.s 			page 76


 4106      746500
 4107              	.LASF43:
 4108 0425 5F5F746D 		.ascii	"__tm_year\000"
 4108      5F796561 
 4108      7200
 4109              	.LASF125:
 4110 042f 5F6E6D61 		.ascii	"_nmalloc\000"
 4110      6C6C6F63 
 4110      00
 4111              	.LASF156:
 4112 0438 6C646578 		.ascii	"ldexpf\000"
 4112      706600
 4113              	.LASF124:
 4114 043f 5F6E6578 		.ascii	"_nextf\000"
 4114      746600
 4115              	.LASF152:
 4116 0446 62756666 		.ascii	"buffer_append_float16\000"
 4116      65725F61 
 4116      7070656E 
 4116      645F666C 
 4116      6F617431 
 4117              	.LASF162:
 4118 045c 62756666 		.ascii	"buffer_get_int16\000"
 4118      65725F67 
 4118      65745F69 
 4118      6E743136 
 4118      00
 4119              	.LASF42:
 4120 046d 5F5F746D 		.ascii	"__tm_mon\000"
 4120      5F6D6F6E 
 4120      00
 4121              	.LASF139:
 4122 0476 7369675F 		.ascii	"sig_i\000"
 4122      6900
 4123              	.LASF52:
 4124 047c 5F617465 		.ascii	"_atexit\000"
 4124      78697400 
 4125              	.LASF84:
 4126 0484 5F5F7364 		.ascii	"__sdidinit\000"
 4126      6964696E 
 4126      697400
 4127              	.LASF21:
 4128 048f 5F6F6666 		.ascii	"_off_t\000"
 4128      5F7400
 4129              	.LASF0:
 4130 0496 666C6F61 		.ascii	"float\000"
 4130      7400
 4131              	.LASF89:
 4132 049c 5F667265 		.ascii	"_freelist\000"
 4132      656C6973 
 4132      7400
 4133              	.LASF114:
 4134 04a6 5F776374 		.ascii	"_wctomb_state\000"
 4134      6F6D625F 
 4134      73746174 
 4134      6500
 4135              	.LASF145:
ARM GAS  /tmp/ccvSotpA.s 			page 77


 4136 04b4 62756666 		.ascii	"buffer_get_uint32\000"
 4136      65725F67 
 4136      65745F75 
 4136      696E7433 
 4136      3200
 4137              	.LASF18:
 4138 04c6 696E7433 		.ascii	"int32_t\000"
 4138      325F7400 
 4139              	.LASF3:
 4140 04ce 756E7369 		.ascii	"unsigned char\000"
 4140      676E6564 
 4140      20636861 
 4140      7200
 4141              	.LASF163:
 4142 04dc 62756666 		.ascii	"buffer_append_int16\000"
 4142      65725F61 
 4142      7070656E 
 4142      645F696E 
 4142      74313600 
 4143              	.LASF92:
 4144 04f0 5F6E6577 		.ascii	"_new\000"
 4144      00
 4145              	.LASF123:
 4146 04f5 5F685F65 		.ascii	"_h_errno\000"
 4146      72726E6F 
 4146      00
 4147              	.LASF6:
 4148 04fe 73686F72 		.ascii	"short int\000"
 4148      7420696E 
 4148      7400
 4149              	.LASF45:
 4150 0508 5F5F746D 		.ascii	"__tm_yday\000"
 4150      5F796461 
 4150      7900
 4151              	.LASF55:
 4152 0512 5F5F7362 		.ascii	"__sbuf\000"
 4152      756600
 4153              	.LASF100:
 4154 0519 5F696F62 		.ascii	"_iobs\000"
 4154      7300
 4155              	.LASF97:
 4156 051f 5F5F4649 		.ascii	"__FILE\000"
 4156      4C4500
 4157              	.LASF28:
 4158 0526 5F6D6273 		.ascii	"_mbstate_t\000"
 4158      74617465 
 4158      5F7400
 4159              	.LASF58:
 4160 0531 5F5F7346 		.ascii	"__sFILE\000"
 4160      494C4500 
 4161              	.LASF73:
 4162 0539 5F6D6273 		.ascii	"_mbstate\000"
 4162      74617465 
 4162      00
 4163              	.LASF110:
 4164 0542 5F72616E 		.ascii	"_rand_next\000"
 4164      645F6E65 
ARM GAS  /tmp/ccvSotpA.s 			page 78


 4164      787400
 4165              	.LASF137:
 4166 054d 62756666 		.ascii	"buffer\000"
 4166      657200
 4167              	.LASF112:
 4168 0554 5F6D626C 		.ascii	"_mblen_state\000"
 4168      656E5F73 
 4168      74617465 
 4168      00
 4169              	.LASF80:
 4170 0561 5F696E63 		.ascii	"_inc\000"
 4170      00
 4171              	.LASF53:
 4172 0566 5F696E64 		.ascii	"_ind\000"
 4172      00
 4173              	.LASF83:
 4174 056b 5F6C6F63 		.ascii	"_locale\000"
 4174      616C6500 
 4175              	.LASF85:
 4176 0573 5F5F636C 		.ascii	"__cleanup\000"
 4176      65616E75 
 4176      7000
 4177              	.LASF82:
 4178 057d 5F756E73 		.ascii	"_unspecified_locale_info\000"
 4178      70656369 
 4178      66696564 
 4178      5F6C6F63 
 4178      616C655F 
 4179              	.LASF33:
 4180 0596 5F6D6178 		.ascii	"_maxwds\000"
 4180      77647300 
 4181              	.LASF75:
 4182 059e 5F726565 		.ascii	"_reent\000"
 4182      6E7400
 4183              	.LASF102:
 4184 05a5 5F736565 		.ascii	"_seed\000"
 4184      6400
 4185              	.LASF26:
 4186 05ab 5F5F636F 		.ascii	"__count\000"
 4186      756E7400 
 4187              	.LASF127:
 4188 05b3 5F5F6C6F 		.ascii	"__lock\000"
 4188      636B00
 4189              	.LASF19:
 4190 05ba 75696E74 		.ascii	"uint32_t\000"
 4190      33325F74 
 4190      00
 4191              	.LASF65:
 4192 05c3 5F736565 		.ascii	"_seek\000"
 4192      6B00
 4193              	.LASF129:
 4194 05c9 5F696D70 		.ascii	"_impure_ptr\000"
 4194      7572655F 
 4194      70747200 
 4195              	.LASF22:
 4196 05d5 5F66706F 		.ascii	"_fpos_t\000"
 4196      735F7400 
ARM GAS  /tmp/ccvSotpA.s 			page 79


 4197              	.LASF140:
 4198 05dd 5F426F6F 		.ascii	"_Bool\000"
 4198      6C00
 4199              	.LASF76:
 4200 05e3 5F657272 		.ascii	"_errno\000"
 4200      6E6F00
 4201              	.LASF30:
 4202 05ea 63686172 		.ascii	"char\000"
 4202      00
 4203              	.LASF149:
 4204 05ef 7369675F 		.ascii	"sig_abs\000"
 4204      61627300 
 4205              	.LASF144:
 4206 05f7 62756666 		.ascii	"buffer_get_float16\000"
 4206      65725F67 
 4206      65745F66 
 4206      6C6F6174 
 4206      313600
 4207              	.LASF39:
 4208 060a 5F5F746D 		.ascii	"__tm_min\000"
 4208      5F6D696E 
 4208      00
 4209              	.LASF7:
 4210 0613 5F5F7569 		.ascii	"__uint16_t\000"
 4210      6E743136 
 4210      5F7400
 4211              	.LASF138:
 4212 061e 696E6465 		.ascii	"index\000"
 4212      7800
 4213              	.LASF50:
 4214 0624 5F666E74 		.ascii	"_fntypes\000"
 4214      79706573 
 4214      00
 4215              	.LASF151:
 4216 062d 62756666 		.ascii	"buffer_append_float32\000"
 4216      65725F61 
 4216      7070656E 
 4216      645F666C 
 4216      6F617433 
 4217              	.LASF9:
 4218 0643 5F5F696E 		.ascii	"__int32_t\000"
 4218      7433325F 
 4218      7400
 4219              	.LASF103:
 4220 064d 5F6D756C 		.ascii	"_mult\000"
 4220      7400
 4221              	.LASF32:
 4222 0653 5F6E6578 		.ascii	"_next\000"
 4222      7400
 4223              	.LASF106:
 4224 0659 5F737472 		.ascii	"_strtok_last\000"
 4224      746F6B5F 
 4224      6C617374 
 4224      00
 4225              	.LASF27:
 4226 0666 5F5F7661 		.ascii	"__value\000"
 4226      6C756500 
ARM GAS  /tmp/ccvSotpA.s 			page 80


 4227              	.LASF159:
 4228 066e 62756666 		.ascii	"buffer.c\000"
 4228      65722E63 
 4228      00
 4229              	.LASF104:
 4230 0677 5F616464 		.ascii	"_add\000"
 4230      00
 4231              	.LASF31:
 4232 067c 5F5F554C 		.ascii	"__ULong\000"
 4232      6F6E6700 
 4233              	.LASF117:
 4234 0684 5F676574 		.ascii	"_getdate_err\000"
 4234      64617465 
 4234      5F657272 
 4234      00
 4235              	.LASF161:
 4236 0691 5F5F6664 		.ascii	"__fdlibm_version\000"
 4236      6C69626D 
 4236      5F766572 
 4236      73696F6E 
 4236      00
 4237              	.LASF130:
 4238 06a2 5F676C6F 		.ascii	"_global_impure_ptr\000"
 4238      62616C5F 
 4238      696D7075 
 4238      72655F70 
 4238      747200
 4239              	.LASF132:
 4240 06b5 5F5F6664 		.ascii	"__fdlibm_ieee\000"
 4240      6C69626D 
 4240      5F696565 
 4240      6500
 4241              	.LASF105:
 4242 06c3 5F756E75 		.ascii	"_unused_rand\000"
 4242      7365645F 
 4242      72616E64 
 4242      00
 4243              	.LASF35:
 4244 06d0 5F776473 		.ascii	"_wds\000"
 4244      00
 4245              	.LASF44:
 4246 06d5 5F5F746D 		.ascii	"__tm_wday\000"
 4246      5F776461 
 4246      7900
 4247              	.LASF98:
 4248 06df 5F676C75 		.ascii	"_glue\000"
 4248      6500
 4249              	.LASF150:
 4250 06e5 62756666 		.ascii	"buffer_append_float32_auto\000"
 4250      65725F61 
 4250      7070656E 
 4250      645F666C 
 4250      6F617433 
 4251              	.LASF136:
 4252 0700 5F5F6664 		.ascii	"__fdlib_version\000"
 4252      6C69625F 
 4252      76657273 
ARM GAS  /tmp/ccvSotpA.s 			page 81


 4252      696F6E00 
 4253              	.LASF15:
 4254 0710 75696E74 		.ascii	"uint8_t\000"
 4254      385F7400 
 4255              	.LASF115:
 4256 0718 5F6C3634 		.ascii	"_l64a_buf\000"
 4256      615F6275 
 4256      6600
 4257              	.LASF94:
 4258 0722 5F736967 		.ascii	"_sig_func\000"
 4258      5F66756E 
 4258      6300
 4259              	.LASF155:
 4260 072c 62756666 		.ascii	"buffer_append_uint16\000"
 4260      65725F61 
 4260      7070656E 
 4260      645F7569 
 4260      6E743136 
 4261              	.LASF29:
 4262 0741 5F666C6F 		.ascii	"_flock_t\000"
 4262      636B5F74 
 4262      00
 4263              	.LASF153:
 4264 074a 62756666 		.ascii	"buffer_append_uint32\000"
 4264      65725F61 
 4264      7070656E 
 4264      645F7569 
 4264      6E743332 
 4265              	.LASF68:
 4266 075f 5F6E6275 		.ascii	"_nbuf\000"
 4266      6600
 4267              	.LASF126:
 4268 0765 5F756E75 		.ascii	"_unused\000"
 4268      73656400 
 4269              	.LASF46:
 4270 076d 5F5F746D 		.ascii	"__tm_isdst\000"
 4270      5F697364 
 4270      737400
 4271              	.LASF108:
 4272 0778 5F6C6F63 		.ascii	"_localtime_buf\000"
 4272      616C7469 
 4272      6D655F62 
 4272      756600
 4273              	.LASF66:
 4274 0787 5F636C6F 		.ascii	"_close\000"
 4274      736500
 4275              	.LASF111:
 4276 078e 5F723438 		.ascii	"_r48\000"
 4276      00
 4277              	.LASF113:
 4278 0793 5F6D6274 		.ascii	"_mbtowc_state\000"
 4278      6F77635F 
 4278      73746174 
 4278      6500
 4279              	.LASF88:
 4280 07a1 5F703573 		.ascii	"_p5s\000"
 4280      00
ARM GAS  /tmp/ccvSotpA.s 			page 82


 4281              	.LASF157:
 4282 07a6 66726578 		.ascii	"frexpf\000"
 4282      706600
 4283              	.LASF41:
 4284 07ad 5F5F746D 		.ascii	"__tm_mday\000"
 4284      5F6D6461 
 4284      7900
 4285              		.ident	"GCC: (GNU Tools for Arm Embedded Processors 7-2018-q3-update) 7.3.1 20180622 (release) [AR
ARM GAS  /tmp/ccvSotpA.s 			page 83


DEFINED SYMBOLS
                            *ABS*:0000000000000000 buffer.c
     /tmp/ccvSotpA.s:18     .text.buffer_append_int16:0000000000000000 $t
     /tmp/ccvSotpA.s:26     .text.buffer_append_int16:0000000000000000 buffer_append_int16
     /tmp/ccvSotpA.s:62     .text.buffer_append_uint16:0000000000000000 $t
     /tmp/ccvSotpA.s:70     .text.buffer_append_uint16:0000000000000000 buffer_append_uint16
     /tmp/ccvSotpA.s:105    .text.buffer_append_int32:0000000000000000 $t
     /tmp/ccvSotpA.s:113    .text.buffer_append_int32:0000000000000000 buffer_append_int32
     /tmp/ccvSotpA.s:160    .text.buffer_append_uint32:0000000000000000 $t
     /tmp/ccvSotpA.s:168    .text.buffer_append_uint32:0000000000000000 buffer_append_uint32
     /tmp/ccvSotpA.s:215    .text.buffer_append_float16:0000000000000000 $t
     /tmp/ccvSotpA.s:223    .text.buffer_append_float16:0000000000000000 buffer_append_float16
     /tmp/ccvSotpA.s:276    .text.buffer_append_float32:0000000000000000 $t
     /tmp/ccvSotpA.s:284    .text.buffer_append_float32:0000000000000000 buffer_append_float32
     /tmp/ccvSotpA.s:305    .text.buffer_append_float32_auto:0000000000000000 $t
     /tmp/ccvSotpA.s:313    .text.buffer_append_float32_auto:0000000000000000 buffer_append_float32_auto
     /tmp/ccvSotpA.s:424    .text.buffer_append_float32_auto:000000000000008c $d
     /tmp/ccvSotpA.s:431    .text.buffer_get_int16:0000000000000000 $t
     /tmp/ccvSotpA.s:439    .text.buffer_get_int16:0000000000000000 buffer_get_int16
     /tmp/ccvSotpA.s:478    .text.buffer_get_uint16:0000000000000000 $t
     /tmp/ccvSotpA.s:486    .text.buffer_get_uint16:0000000000000000 buffer_get_uint16
     /tmp/ccvSotpA.s:515    .text.buffer_get_int32:0000000000000000 $t
     /tmp/ccvSotpA.s:523    .text.buffer_get_int32:0000000000000000 buffer_get_int32
     /tmp/ccvSotpA.s:570    .text.buffer_get_uint32:0000000000000000 $t
     /tmp/ccvSotpA.s:578    .text.buffer_get_uint32:0000000000000000 buffer_get_uint32
     /tmp/ccvSotpA.s:626    .text.buffer_get_float16:0000000000000000 $t
     /tmp/ccvSotpA.s:634    .text.buffer_get_float16:0000000000000000 buffer_get_float16
     /tmp/ccvSotpA.s:678    .text.buffer_get_float32:0000000000000000 $t
     /tmp/ccvSotpA.s:686    .text.buffer_get_float32:0000000000000000 buffer_get_float32
     /tmp/ccvSotpA.s:710    .text.buffer_get_float32_auto:0000000000000000 $t
     /tmp/ccvSotpA.s:718    .text.buffer_get_float32_auto:0000000000000000 buffer_get_float32_auto
     /tmp/ccvSotpA.s:781    .text.buffer_get_float32_auto:0000000000000040 $d

UNDEFINED SYMBOLS
frexpf
ldexpf
