ARM GAS  /tmp/ccvSotpA.s 			page 1


   1              		.cpu cortex-m4
   2              		.eabi_attribute 27, 1
   3              		.eabi_attribute 28, 1
   4              		.eabi_attribute 20, 1
   5              		.eabi_attribute 21, 1
   6              		.eabi_attribute 23, 3
   7              		.eabi_attribute 24, 1
   8              		.eabi_attribute 25, 1
   9              		.eabi_attribute 26, 1
  10              		.eabi_attribute 30, 2
  11              		.eabi_attribute 34, 1
  12              		.eabi_attribute 18, 4
  13              		.file	"buffer.c"
  14              		.text
  15              	.Ltext0:
  16              		.cfi_sections	.debug_frame
  17              		.section	.text.buffer_append_int16,"ax",%progbits
  18              		.align	1
  19              		.p2align 4,,15
  20              		.global	buffer_append_int16
  21              		.syntax unified
  22              		.thumb
  23              		.thumb_func
  24              		.fpu fpv4-sp-d16
  25              		.type	buffer_append_int16, %function
  26              	buffer_append_int16:
  27              	.LFB0:
  28              		.file 1 "buffer.c"
  29              		.loc 1 24 0
  30              		.cfi_startproc
  31              		@ args = 0, pretend = 0, frame = 0
  32              		@ frame_needed = 0, uses_anonymous_args = 0
  33              		@ link register save eliminated.
  34              	.LVL0:
  35              		.loc 1 25 0
  36 0000 1368     		ldr	r3, [r2]
  37              		.loc 1 24 0
  38 0002 30B4     		push	{r4, r5}
  39              		.cfi_def_cfa_offset 8
  40              		.cfi_offset 4, -8
  41              		.cfi_offset 5, -4
  42              		.loc 1 25 0
  43 0004 5D1C     		adds	r5, r3, #1
  44 0006 0C12     		asrs	r4, r1, #8
  45 0008 1560     		str	r5, [r2]
  46 000a C454     		strb	r4, [r0, r3]
  47              		.loc 1 26 0
  48 000c 1368     		ldr	r3, [r2]
  49 000e 5C1C     		adds	r4, r3, #1
  50 0010 1460     		str	r4, [r2]
  51 0012 C154     		strb	r1, [r0, r3]
  52              		.loc 1 27 0
  53 0014 30BC     		pop	{r4, r5}
  54              		.cfi_restore 5
  55              		.cfi_restore 4
  56              		.cfi_def_cfa_offset 0
  57 0016 7047     		bx	lr
ARM GAS  /tmp/ccvSotpA.s 			page 2


  58              		.cfi_endproc
  59              	.LFE0:
  60              		.size	buffer_append_int16, .-buffer_append_int16
  61              		.section	.text.buffer_append_uint16,"ax",%progbits
  62              		.align	1
  63              		.p2align 4,,15
  64              		.global	buffer_append_uint16
  65              		.syntax unified
  66              		.thumb
  67              		.thumb_func
  68              		.fpu fpv4-sp-d16
  69              		.type	buffer_append_uint16, %function
  70              	buffer_append_uint16:
  71              	.LFB1:
  72              		.loc 1 29 0
  73              		.cfi_startproc
  74              		@ args = 0, pretend = 0, frame = 0
  75              		@ frame_needed = 0, uses_anonymous_args = 0
  76              		@ link register save eliminated.
  77              	.LVL1:
  78              		.loc 1 30 0
  79 0000 1368     		ldr	r3, [r2]
  80              		.loc 1 29 0
  81 0002 30B4     		push	{r4, r5}
  82              		.cfi_def_cfa_offset 8
  83              		.cfi_offset 4, -8
  84              		.cfi_offset 5, -4
  85              		.loc 1 30 0
  86 0004 5D1C     		adds	r5, r3, #1
  87 0006 0C0A     		lsrs	r4, r1, #8
  88 0008 1560     		str	r5, [r2]
  89 000a C454     		strb	r4, [r0, r3]
  90              		.loc 1 31 0
  91 000c 1368     		ldr	r3, [r2]
  92 000e 5C1C     		adds	r4, r3, #1
  93 0010 1460     		str	r4, [r2]
  94 0012 C154     		strb	r1, [r0, r3]
  95              		.loc 1 32 0
  96 0014 30BC     		pop	{r4, r5}
  97              		.cfi_restore 5
  98              		.cfi_restore 4
  99              		.cfi_def_cfa_offset 0
 100 0016 7047     		bx	lr
 101              		.cfi_endproc
 102              	.LFE1:
 103              		.size	buffer_append_uint16, .-buffer_append_uint16
 104              		.section	.text.buffer_append_int32,"ax",%progbits
 105              		.align	1
 106              		.p2align 4,,15
 107              		.global	buffer_append_int32
 108              		.syntax unified
 109              		.thumb
 110              		.thumb_func
 111              		.fpu fpv4-sp-d16
 112              		.type	buffer_append_int32, %function
 113              	buffer_append_int32:
 114              	.LFB2:
ARM GAS  /tmp/ccvSotpA.s 			page 3


 115              		.loc 1 34 0
 116              		.cfi_startproc
 117              		@ args = 0, pretend = 0, frame = 0
 118              		@ frame_needed = 0, uses_anonymous_args = 0
 119              		@ link register save eliminated.
 120              	.LVL2:
 121              		.loc 1 35 0
 122 0000 1368     		ldr	r3, [r2]
 123              		.loc 1 34 0
 124 0002 30B4     		push	{r4, r5}
 125              		.cfi_def_cfa_offset 8
 126              		.cfi_offset 4, -8
 127              		.cfi_offset 5, -4
 128              		.loc 1 35 0
 129 0004 5D1C     		adds	r5, r3, #1
 130 0006 0C16     		asrs	r4, r1, #24
 131 0008 1560     		str	r5, [r2]
 132 000a C454     		strb	r4, [r0, r3]
 133              		.loc 1 36 0
 134 000c 1368     		ldr	r3, [r2]
 135 000e 0C14     		asrs	r4, r1, #16
 136 0010 5D1C     		adds	r5, r3, #1
 137 0012 1560     		str	r5, [r2]
 138 0014 C454     		strb	r4, [r0, r3]
 139              		.loc 1 37 0
 140 0016 1368     		ldr	r3, [r2]
 141 0018 0C12     		asrs	r4, r1, #8
 142 001a 5D1C     		adds	r5, r3, #1
 143 001c 1560     		str	r5, [r2]
 144 001e C454     		strb	r4, [r0, r3]
 145              		.loc 1 38 0
 146 0020 1368     		ldr	r3, [r2]
 147 0022 5C1C     		adds	r4, r3, #1
 148 0024 1460     		str	r4, [r2]
 149 0026 C154     		strb	r1, [r0, r3]
 150              		.loc 1 39 0
 151 0028 30BC     		pop	{r4, r5}
 152              		.cfi_restore 5
 153              		.cfi_restore 4
 154              		.cfi_def_cfa_offset 0
 155 002a 7047     		bx	lr
 156              		.cfi_endproc
 157              	.LFE2:
 158              		.size	buffer_append_int32, .-buffer_append_int32
 159              		.section	.text.buffer_append_uint32,"ax",%progbits
 160              		.align	1
 161              		.p2align 4,,15
 162              		.global	buffer_append_uint32
 163              		.syntax unified
 164              		.thumb
 165              		.thumb_func
 166              		.fpu fpv4-sp-d16
 167              		.type	buffer_append_uint32, %function
 168              	buffer_append_uint32:
 169              	.LFB3:
 170              		.loc 1 41 0
 171              		.cfi_startproc
ARM GAS  /tmp/ccvSotpA.s 			page 4


 172              		@ args = 0, pretend = 0, frame = 0
 173              		@ frame_needed = 0, uses_anonymous_args = 0
 174              		@ link register save eliminated.
 175              	.LVL3:
 176              		.loc 1 42 0
 177 0000 1368     		ldr	r3, [r2]
 178              		.loc 1 41 0
 179 0002 30B4     		push	{r4, r5}
 180              		.cfi_def_cfa_offset 8
 181              		.cfi_offset 4, -8
 182              		.cfi_offset 5, -4
 183              		.loc 1 42 0
 184 0004 5D1C     		adds	r5, r3, #1
 185 0006 0C0E     		lsrs	r4, r1, #24
 186 0008 1560     		str	r5, [r2]
 187 000a C454     		strb	r4, [r0, r3]
 188              		.loc 1 43 0
 189 000c 1368     		ldr	r3, [r2]
 190 000e 0C0C     		lsrs	r4, r1, #16
 191 0010 5D1C     		adds	r5, r3, #1
 192 0012 1560     		str	r5, [r2]
 193 0014 C454     		strb	r4, [r0, r3]
 194              		.loc 1 44 0
 195 0016 1368     		ldr	r3, [r2]
 196 0018 0C0A     		lsrs	r4, r1, #8
 197 001a 5D1C     		adds	r5, r3, #1
 198 001c 1560     		str	r5, [r2]
 199 001e C454     		strb	r4, [r0, r3]
 200              		.loc 1 45 0
 201 0020 1368     		ldr	r3, [r2]
 202 0022 5C1C     		adds	r4, r3, #1
 203 0024 1460     		str	r4, [r2]
 204 0026 C154     		strb	r1, [r0, r3]
 205              		.loc 1 46 0
 206 0028 30BC     		pop	{r4, r5}
 207              		.cfi_restore 5
 208              		.cfi_restore 4
 209              		.cfi_def_cfa_offset 0
 210 002a 7047     		bx	lr
 211              		.cfi_endproc
 212              	.LFE3:
 213              		.size	buffer_append_uint32, .-buffer_append_uint32
 214              		.section	.text.buffer_append_float16,"ax",%progbits
 215              		.align	1
 216              		.p2align 4,,15
 217              		.global	buffer_append_float16
 218              		.syntax unified
 219              		.thumb
 220              		.thumb_func
 221              		.fpu fpv4-sp-d16
 222              		.type	buffer_append_float16, %function
 223              	buffer_append_float16:
 224              	.LFB4:
 225              		.loc 1 48 0
 226              		.cfi_startproc
 227              		@ args = 0, pretend = 0, frame = 0
 228              		@ frame_needed = 0, uses_anonymous_args = 0
ARM GAS  /tmp/ccvSotpA.s 			page 5


 229              		@ link register save eliminated.
 230              	.LVL4:
 231              		.loc 1 49 0
 232 0000 60EE200A 		vmul.f32	s1, s0, s1
 233              	.LVL5:
 234              	.LBB6:
 235              	.LBB7:
 236              		.loc 1 25 0
 237 0004 0A68     		ldr	r2, [r1]
 238              	.LBE7:
 239              	.LBE6:
 240              		.loc 1 49 0
 241 0006 FDEEE00A 		vcvt.s32.f32	s1, s1
 242              		.loc 1 48 0
 243 000a 30B4     		push	{r4, r5}
 244              		.cfi_def_cfa_offset 8
 245              		.cfi_offset 4, -8
 246              		.cfi_offset 5, -4
 247              		.loc 1 49 0
 248 000c 10EE903A 		vmov	r3, s1	@ int
 249 0010 1BB2     		sxth	r3, r3
 250              	.LVL6:
 251              	.LBB9:
 252              	.LBB8:
 253              		.loc 1 25 0
 254 0012 551C     		adds	r5, r2, #1
 255 0014 1C12     		asrs	r4, r3, #8
 256 0016 0D60     		str	r5, [r1]
 257 0018 8454     		strb	r4, [r0, r2]
 258              		.loc 1 26 0
 259 001a 0A68     		ldr	r2, [r1]
 260 001c 541C     		adds	r4, r2, #1
 261 001e 0C60     		str	r4, [r1]
 262 0020 8354     		strb	r3, [r0, r2]
 263              	.LVL7:
 264              	.LBE8:
 265              	.LBE9:
 266              		.loc 1 50 0
 267 0022 30BC     		pop	{r4, r5}
 268              		.cfi_restore 5
 269              		.cfi_restore 4
 270              		.cfi_def_cfa_offset 0
 271 0024 7047     		bx	lr
 272              		.cfi_endproc
 273              	.LFE4:
 274              		.size	buffer_append_float16, .-buffer_append_float16
 275 0026 00BF     		.section	.text.buffer_append_float32,"ax",%progbits
 276              		.align	1
 277              		.p2align 4,,15
 278              		.global	buffer_append_float32
 279              		.syntax unified
 280              		.thumb
 281              		.thumb_func
 282              		.fpu fpv4-sp-d16
 283              		.type	buffer_append_float32, %function
 284              	buffer_append_float32:
 285              	.LFB5:
ARM GAS  /tmp/ccvSotpA.s 			page 6


 286              		.loc 1 52 0
 287              		.cfi_startproc
 288              		@ args = 0, pretend = 0, frame = 0
 289              		@ frame_needed = 0, uses_anonymous_args = 0
 290              		@ link register save eliminated.
 291              	.LVL8:
 292              		.loc 1 53 0
 293 0000 60EE200A 		vmul.f32	s1, s0, s1
 294              	.LVL9:
 295 0004 0A46     		mov	r2, r1
 296 0006 FDEEE07A 		vcvt.s32.f32	s15, s1
 297 000a 17EE901A 		vmov	r1, s15	@ int
 298              	.LVL10:
 299 000e FFF7FEBF 		b	buffer_append_int32
 300              	.LVL11:
 301              		.cfi_endproc
 302              	.LFE5:
 303              		.size	buffer_append_float32, .-buffer_append_float32
 304 0012 00BF     		.section	.text.buffer_append_float32_auto,"ax",%progbits
 305              		.align	1
 306              		.p2align 4,,15
 307              		.global	buffer_append_float32_auto
 308              		.syntax unified
 309              		.thumb
 310              		.thumb_func
 311              		.fpu fpv4-sp-d16
 312              		.type	buffer_append_float32_auto, %function
 313              	buffer_append_float32_auto:
 314              	.LFB6:
 315              		.loc 1 96 0
 316              		.cfi_startproc
 317              		@ args = 0, pretend = 0, frame = 8
 318              		@ frame_needed = 0, uses_anonymous_args = 0
 319              	.LVL12:
 320 0000 70B5     		push	{r4, r5, r6, lr}
 321              		.cfi_def_cfa_offset 16
 322              		.cfi_offset 4, -16
 323              		.cfi_offset 5, -12
 324              		.cfi_offset 6, -8
 325              		.cfi_offset 14, -4
 326 0002 82B0     		sub	sp, sp, #8
 327              		.cfi_def_cfa_offset 24
 328              		.loc 1 99 0
 329 0004 9FED217A 		vldr.32	s14, .L22
 330              		.loc 1 100 0
 331 0008 DFED217A 		vldr.32	s15, .L22+4
 332              		.loc 1 103 0
 333 000c 02AB     		add	r3, sp, #8
 334              		.loc 1 99 0
 335 000e F0EEC06A 		vabs.f32	s13, s0
 336              		.loc 1 103 0
 337 0012 0024     		movs	r4, #0
 338              		.loc 1 100 0
 339 0014 F4EE476A 		vcmp.f32	s13, s14
 340              		.loc 1 103 0
 341 0018 43F8044D 		str	r4, [r3, #-4]!
 342              		.loc 1 100 0
ARM GAS  /tmp/ccvSotpA.s 			page 7


 343 001c F1EE10FA 		vmrs	APSR_nzcv, FPSCR
 344              	.LVL13:
 345              		.loc 1 104 0
 346 0020 48BF     		it	mi
 347 0022 B0EE670A 		vmovmi.f32	s0, s15
 348              	.LVL14:
 349              		.loc 1 96 0
 350 0026 0546     		mov	r5, r0
 351              		.loc 1 104 0
 352 0028 1846     		mov	r0, r3
 353              	.LVL15:
 354              		.loc 1 96 0
 355 002a 0E46     		mov	r6, r1
 356              		.loc 1 104 0
 357 002c FFF7FEFF 		bl	frexpf
 358              	.LVL16:
 359              		.loc 1 108 0
 360 0030 B6EE007A 		vmov.f32	s14, #5.0e-1
 361              		.loc 1 105 0
 362 0034 F0EEC07A 		vabs.f32	s15, s0
 363              	.LVL17:
 364              		.loc 1 108 0
 365 0038 F4EEC77A 		vcmpe.f32	s15, s14
 366 003c F1EE10FA 		vmrs	APSR_nzcv, FPSCR
 367 0040 13DA     		bge	.L15
 368 0042 019B     		ldr	r3, [sp, #4]
 369              	.LVL18:
 370              	.L16:
 371              		.loc 1 113 0
 372 0044 DB05     		lsls	r3, r3, #23
 373 0046 03F0FF43 		and	r3, r3, #2139095040
 374              		.loc 1 114 0
 375 004a B5EEC00A 		vcmpe.f32	s0, #0
 376              		.loc 1 113 0
 377 004e 43EA0401 		orr	r1, r3, r4
 378              	.LVL19:
 379              		.loc 1 114 0
 380 0052 F1EE10FA 		vmrs	APSR_nzcv, FPSCR
 381              		.loc 1 115 0
 382 0056 48BF     		it	mi
 383 0058 41F00041 		orrmi	r1, r1, #-2147483648
 384              	.LVL20:
 385              		.loc 1 118 0
 386 005c 3246     		mov	r2, r6
 387 005e 2846     		mov	r0, r5
 388              		.loc 1 119 0
 389 0060 02B0     		add	sp, sp, #8
 390              		.cfi_remember_state
 391              		.cfi_def_cfa_offset 16
 392              		@ sp needed
 393 0062 BDE87040 		pop	{r4, r5, r6, lr}
 394              		.cfi_restore 14
 395              		.cfi_restore 6
 396              		.cfi_restore 5
 397              		.cfi_restore 4
 398              		.cfi_def_cfa_offset 0
 399              	.LVL21:
ARM GAS  /tmp/ccvSotpA.s 			page 8


 400              		.loc 1 118 0
 401 0066 FFF7FEBF 		b	buffer_append_uint32
 402              	.LVL22:
 403              	.L15:
 404              		.cfi_restore_state
 405              		.loc 1 109 0
 406 006a 77EEC77A 		vsub.f32	s15, s15, s14
 407              	.LVL23:
 408 006e 9FED097A 		vldr.32	s14, .L22+8
 409              		.loc 1 110 0
 410 0072 019B     		ldr	r3, [sp, #4]
 411              		.loc 1 109 0
 412 0074 77EEA77A 		vadd.f32	s15, s15, s15
 413              		.loc 1 110 0
 414 0078 7E33     		adds	r3, r3, #126
 415              		.loc 1 109 0
 416 007a 67EE877A 		vmul.f32	s15, s15, s14
 417 007e FCEEE77A 		vcvt.u32.f32	s15, s15
 418 0082 17EE902A 		vmov	r2, s15	@ int
 419 0086 C2F31604 		ubfx	r4, r2, #0, #23
 420 008a DBE7     		b	.L16
 421              	.L23:
 422              		.align	2
 423              	.L22:
 424 008c E655A300 		.word	10704358
 425 0090 00000000 		.word	0
 426 0094 0000004B 		.word	1258291200
 427              		.cfi_endproc
 428              	.LFE6:
 429              		.size	buffer_append_float32_auto, .-buffer_append_float32_auto
 430              		.section	.text.buffer_get_int16,"ax",%progbits
 431              		.align	1
 432              		.p2align 4,,15
 433              		.global	buffer_get_int16
 434              		.syntax unified
 435              		.thumb
 436              		.thumb_func
 437              		.fpu fpv4-sp-d16
 438              		.type	buffer_get_int16, %function
 439              	buffer_get_int16:
 440              	.LFB7:
 441              		.loc 1 121 0
 442              		.cfi_startproc
 443              		@ args = 0, pretend = 0, frame = 0
 444              		@ frame_needed = 0, uses_anonymous_args = 0
 445              		@ link register save eliminated.
 446              	.LVL24:
 447 0000 10B4     		push	{r4}
 448              		.cfi_def_cfa_offset 4
 449              		.cfi_offset 4, -4
 450              		.loc 1 122 0
 451 0002 0B68     		ldr	r3, [r1]
 452              		.loc 1 123 0
 453 0004 C418     		adds	r4, r0, r3
 454              		.loc 1 122 0
 455 0006 C25C     		ldrb	r2, [r0, r3]	@ zero_extendqisi2
 456              		.loc 1 123 0
ARM GAS  /tmp/ccvSotpA.s 			page 9


 457 0008 6078     		ldrb	r0, [r4, #1]	@ zero_extendqisi2
 458              	.LVL25:
 459              		.loc 1 126 0
 460 000a 5DF8044B 		ldr	r4, [sp], #4
 461              		.cfi_restore 4
 462              		.cfi_def_cfa_offset 0
 463              		.loc 1 124 0
 464 000e 0233     		adds	r3, r3, #2
 465              		.loc 1 122 0
 466 0010 40EA0220 		orr	r0, r0, r2, lsl #8
 467              	.LVL26:
 468              		.loc 1 126 0
 469 0014 00B2     		sxth	r0, r0
 470              		.loc 1 124 0
 471 0016 0B60     		str	r3, [r1]
 472              		.loc 1 126 0
 473 0018 7047     		bx	lr
 474              		.cfi_endproc
 475              	.LFE7:
 476              		.size	buffer_get_int16, .-buffer_get_int16
 477              		.section	.text.buffer_get_uint16,"ax",%progbits
 478              		.align	1
 479              		.p2align 4,,15
 480              		.global	buffer_get_uint16
 481              		.syntax unified
 482              		.thumb
 483              		.thumb_func
 484              		.fpu fpv4-sp-d16
 485              		.type	buffer_get_uint16, %function
 486              	buffer_get_uint16:
 487              	.LFB8:
 488              		.loc 1 128 0
 489              		.cfi_startproc
 490              		@ args = 0, pretend = 0, frame = 0
 491              		@ frame_needed = 0, uses_anonymous_args = 0
 492              		@ link register save eliminated.
 493              	.LVL27:
 494              		.loc 1 129 0
 495 0000 0B68     		ldr	r3, [r1]
 496              		.loc 1 130 0
 497 0002 C218     		adds	r2, r0, r3
 498              		.loc 1 129 0
 499 0004 C05C     		ldrb	r0, [r0, r3]	@ zero_extendqisi2
 500              	.LVL28:
 501              		.loc 1 130 0
 502 0006 5278     		ldrb	r2, [r2, #1]	@ zero_extendqisi2
 503              	.LVL29:
 504              		.loc 1 131 0
 505 0008 0233     		adds	r3, r3, #2
 506 000a 0B60     		str	r3, [r1]
 507              		.loc 1 133 0
 508 000c 42EA0020 		orr	r0, r2, r0, lsl #8
 509              	.LVL30:
 510 0010 7047     		bx	lr
 511              		.cfi_endproc
 512              	.LFE8:
 513              		.size	buffer_get_uint16, .-buffer_get_uint16
ARM GAS  /tmp/ccvSotpA.s 			page 10


 514 0012 00BF     		.section	.text.buffer_get_int32,"ax",%progbits
 515              		.align	1
 516              		.p2align 4,,15
 517              		.global	buffer_get_int32
 518              		.syntax unified
 519              		.thumb
 520              		.thumb_func
 521              		.fpu fpv4-sp-d16
 522              		.type	buffer_get_int32, %function
 523              	buffer_get_int32:
 524              	.LFB9:
 525              		.loc 1 135 0
 526              		.cfi_startproc
 527              		@ args = 0, pretend = 0, frame = 0
 528              		@ frame_needed = 0, uses_anonymous_args = 0
 529              		@ link register save eliminated.
 530              	.LVL31:
 531 0000 70B4     		push	{r4, r5, r6}
 532              		.cfi_def_cfa_offset 12
 533              		.cfi_offset 4, -12
 534              		.cfi_offset 5, -8
 535              		.cfi_offset 6, -4
 536              		.loc 1 136 0
 537 0002 0A68     		ldr	r2, [r1]
 538              		.loc 1 139 0
 539 0004 8418     		adds	r4, r0, r2
 540              		.loc 1 136 0
 541 0006 865C     		ldrb	r6, [r0, r2]	@ zero_extendqisi2
 542              		.loc 1 139 0
 543 0008 E378     		ldrb	r3, [r4, #3]	@ zero_extendqisi2
 544              		.loc 1 137 0
 545 000a 6578     		ldrb	r5, [r4, #1]	@ zero_extendqisi2
 546              		.loc 1 138 0
 547 000c A078     		ldrb	r0, [r4, #2]	@ zero_extendqisi2
 548              	.LVL32:
 549 000e 43EA0663 		orr	r3, r3, r6, lsl #24
 550 0012 43EA0543 		orr	r3, r3, r5, lsl #16
 551              	.LVL33:
 552              		.loc 1 140 0
 553 0016 0432     		adds	r2, r2, #4
 554              		.loc 1 142 0
 555 0018 43EA0020 		orr	r0, r3, r0, lsl #8
 556              	.LVL34:
 557              		.loc 1 140 0
 558 001c 0A60     		str	r2, [r1]
 559              		.loc 1 142 0
 560 001e 70BC     		pop	{r4, r5, r6}
 561              		.cfi_restore 6
 562              		.cfi_restore 5
 563              		.cfi_restore 4
 564              		.cfi_def_cfa_offset 0
 565 0020 7047     		bx	lr
 566              		.cfi_endproc
 567              	.LFE9:
 568              		.size	buffer_get_int32, .-buffer_get_int32
 569 0022 00BF     		.section	.text.buffer_get_uint32,"ax",%progbits
 570              		.align	1
ARM GAS  /tmp/ccvSotpA.s 			page 11


 571              		.p2align 4,,15
 572              		.global	buffer_get_uint32
 573              		.syntax unified
 574              		.thumb
 575              		.thumb_func
 576              		.fpu fpv4-sp-d16
 577              		.type	buffer_get_uint32, %function
 578              	buffer_get_uint32:
 579              	.LFB10:
 580              		.loc 1 144 0
 581              		.cfi_startproc
 582              		@ args = 0, pretend = 0, frame = 0
 583              		@ frame_needed = 0, uses_anonymous_args = 0
 584              		@ link register save eliminated.
 585              	.LVL35:
 586 0000 70B4     		push	{r4, r5, r6}
 587              		.cfi_def_cfa_offset 12
 588              		.cfi_offset 4, -12
 589              		.cfi_offset 5, -8
 590              		.cfi_offset 6, -4
 591              		.loc 1 145 0
 592 0002 0A68     		ldr	r2, [r1]
 593              		.loc 1 148 0
 594 0004 8418     		adds	r4, r0, r2
 595              		.loc 1 145 0
 596 0006 865C     		ldrb	r6, [r0, r2]	@ zero_extendqisi2
 597              		.loc 1 148 0
 598 0008 E378     		ldrb	r3, [r4, #3]	@ zero_extendqisi2
 599              		.loc 1 146 0
 600 000a 6578     		ldrb	r5, [r4, #1]	@ zero_extendqisi2
 601              		.loc 1 147 0
 602 000c A078     		ldrb	r0, [r4, #2]	@ zero_extendqisi2
 603              	.LVL36:
 604              		.loc 1 145 0
 605 000e 43EA0663 		orr	r3, r3, r6, lsl #24
 606 0012 43EA0543 		orr	r3, r3, r5, lsl #16
 607              	.LVL37:
 608              		.loc 1 149 0
 609 0016 0432     		adds	r2, r2, #4
 610              		.loc 1 151 0
 611 0018 43EA0020 		orr	r0, r3, r0, lsl #8
 612              	.LVL38:
 613              		.loc 1 149 0
 614 001c 0A60     		str	r2, [r1]
 615              		.loc 1 151 0
 616 001e 70BC     		pop	{r4, r5, r6}
 617              		.cfi_restore 6
 618              		.cfi_restore 5
 619              		.cfi_restore 4
 620              		.cfi_def_cfa_offset 0
 621 0020 7047     		bx	lr
 622              		.cfi_endproc
 623              	.LFE10:
 624              		.size	buffer_get_uint32, .-buffer_get_uint32
 625 0022 00BF     		.section	.text.buffer_get_float16,"ax",%progbits
 626              		.align	1
 627              		.p2align 4,,15
ARM GAS  /tmp/ccvSotpA.s 			page 12


 628              		.global	buffer_get_float16
 629              		.syntax unified
 630              		.thumb
 631              		.thumb_func
 632              		.fpu fpv4-sp-d16
 633              		.type	buffer_get_float16, %function
 634              	buffer_get_float16:
 635              	.LFB11:
 636              		.loc 1 153 0
 637              		.cfi_startproc
 638              		@ args = 0, pretend = 0, frame = 0
 639              		@ frame_needed = 0, uses_anonymous_args = 0
 640              		@ link register save eliminated.
 641              	.LVL39:
 642              	.LBB10:
 643              	.LBB11:
 644              		.loc 1 122 0
 645 0000 0A68     		ldr	r2, [r1]
 646              		.loc 1 123 0
 647 0002 8318     		adds	r3, r0, r2
 648              		.loc 1 122 0
 649 0004 805C     		ldrb	r0, [r0, r2]	@ zero_extendqisi2
 650              	.LVL40:
 651              		.loc 1 123 0
 652 0006 5B78     		ldrb	r3, [r3, #1]	@ zero_extendqisi2
 653              		.loc 1 122 0
 654 0008 43EA0023 		orr	r3, r3, r0, lsl #8
 655 000c 1BB2     		sxth	r3, r3
 656              	.LVL41:
 657              	.LBE11:
 658              	.LBE10:
 659              		.loc 1 154 0
 660 000e 07EE903A 		vmov	s15, r3	@ int
 661 0012 F8EEE77A 		vcvt.f32.s32	s15, s15
 662              	.LBB13:
 663              	.LBB12:
 664              		.loc 1 124 0
 665 0016 0232     		adds	r2, r2, #2
 666 0018 0A60     		str	r2, [r1]
 667              	.LVL42:
 668              	.LBE12:
 669              	.LBE13:
 670              		.loc 1 155 0
 671 001a 87EE800A 		vdiv.f32	s0, s15, s0
 672              	.LVL43:
 673 001e 7047     		bx	lr
 674              		.cfi_endproc
 675              	.LFE11:
 676              		.size	buffer_get_float16, .-buffer_get_float16
 677              		.section	.text.buffer_get_float32,"ax",%progbits
 678              		.align	1
 679              		.p2align 4,,15
 680              		.global	buffer_get_float32
 681              		.syntax unified
 682              		.thumb
 683              		.thumb_func
 684              		.fpu fpv4-sp-d16
ARM GAS  /tmp/ccvSotpA.s 			page 13


 685              		.type	buffer_get_float32, %function
 686              	buffer_get_float32:
 687              	.LFB12:
 688              		.loc 1 157 0
 689              		.cfi_startproc
 690              		@ args = 0, pretend = 0, frame = 0
 691              		@ frame_needed = 0, uses_anonymous_args = 0
 692              	.LVL44:
 693 0000 08B5     		push	{r3, lr}
 694              		.cfi_def_cfa_offset 8
 695              		.cfi_offset 3, -8
 696              		.cfi_offset 14, -4
 697              		.loc 1 158 0
 698 0002 FFF7FEFF 		bl	buffer_get_int32
 699              	.LVL45:
 700 0006 07EE900A 		vmov	s15, r0	@ int
 701 000a F8EEE77A 		vcvt.f32.s32	s15, s15
 702              		.loc 1 159 0
 703 000e 87EE800A 		vdiv.f32	s0, s15, s0
 704              	.LVL46:
 705 0012 08BD     		pop	{r3, pc}
 706              		.cfi_endproc
 707              	.LFE12:
 708              		.size	buffer_get_float32, .-buffer_get_float32
 709              		.section	.text.buffer_get_float32_auto,"ax",%progbits
 710              		.align	1
 711              		.p2align 4,,15
 712              		.global	buffer_get_float32_auto
 713              		.syntax unified
 714              		.thumb
 715              		.thumb_func
 716              		.fpu fpv4-sp-d16
 717              		.type	buffer_get_float32_auto, %function
 718              	buffer_get_float32_auto:
 719              	.LFB13:
 720              		.loc 1 161 0
 721              		.cfi_startproc
 722              		@ args = 0, pretend = 0, frame = 0
 723              		@ frame_needed = 0, uses_anonymous_args = 0
 724              	.LVL47:
 725 0000 08B5     		push	{r3, lr}
 726              		.cfi_def_cfa_offset 8
 727              		.cfi_offset 3, -8
 728              		.cfi_offset 14, -4
 729              		.loc 1 162 0
 730 0002 FFF7FEFF 		bl	buffer_get_uint32
 731              	.LVL48:
 732              		.loc 1 164 0
 733 0006 C0F3C753 		ubfx	r3, r0, #23, #8
 734              	.LVL49:
 735              		.loc 1 165 0
 736 000a C0F31602 		ubfx	r2, r0, #0, #23
 737              	.LVL50:
 738              		.loc 1 169 0
 739 000e 03B9     		cbnz	r3, .L35
 740              		.loc 1 169 0 is_stmt 0 discriminator 1
 741 0010 9AB1     		cbz	r2, .L38
ARM GAS  /tmp/ccvSotpA.s 			page 14


 742              	.L35:
 743              		.loc 1 170 0 is_stmt 1
 744 0012 07EE902A 		vmov	s15, r2	@ int
 745 0016 9FED0A7A 		vldr.32	s14, .L40
 746 001a F8EEE77A 		vcvt.f32.s32	s15, s15
 747 001e B6EE000A 		vmov.f32	s0, #5.0e-1
 748 0022 A7EE870A 		vfma.f32	s0, s15, s14
 749              	.LVL51:
 750              		.loc 1 171 0
 751 0026 7E3B     		subs	r3, r3, #126
 752              	.LVL52:
 753              	.L36:
 754              		.loc 1 174 0
 755 0028 0028     		cmp	r0, #0
 756              		.loc 1 175 0
 757 002a B8BF     		it	lt
 758 002c B1EE400A 		vneglt.f32	s0, s0
 759              	.LVL53:
 760              		.loc 1 178 0
 761 0030 1846     		mov	r0, r3
 762              	.LVL54:
 763              		.loc 1 179 0
 764 0032 BDE80840 		pop	{r3, lr}
 765              		.cfi_remember_state
 766              		.cfi_restore 14
 767              		.cfi_restore 3
 768              		.cfi_def_cfa_offset 0
 769              	.LVL55:
 770              		.loc 1 178 0
 771 0036 FFF7FEBF 		b	ldexpf
 772              	.LVL56:
 773              	.L38:
 774              		.cfi_restore_state
 775              		.loc 1 168 0
 776 003a 9FED020A 		vldr.32	s0, .L40+4
 777 003e F3E7     		b	.L36
 778              	.L41:
 779              		.align	2
 780              	.L40:
 781 0040 00008033 		.word	864026624
 782 0044 00000000 		.word	0
 783              		.cfi_endproc
 784              	.LFE13:
 785              		.size	buffer_get_float32_auto, .-buffer_get_float32_auto
 786              		.text
 787              	.Letext0:
 788              		.file 2 "/usr/arm-none-eabi/include/machine/_default_types.h"
 789              		.file 3 "/usr/arm-none-eabi/include/sys/_stdint.h"
 790              		.file 4 "/usr/arm-none-eabi/include/sys/lock.h"
 791              		.file 5 "/usr/arm-none-eabi/include/sys/_types.h"
 792              		.file 6 "/usr/lib/gcc/arm-none-eabi/7.3.1/include/stddef.h"
 793              		.file 7 "/usr/arm-none-eabi/include/sys/reent.h"
 794              		.file 8 "/usr/arm-none-eabi/include/math.h"