ARM GAS  /tmp/cc2f1tkm.s 			page 1


   1              		.cpu cortex-m4
   2              		.eabi_attribute 27, 1
   3              		.eabi_attribute 28, 1
   4              		.eabi_attribute 20, 1
   5              		.eabi_attribute 21, 1
   6              		.eabi_attribute 23, 3
   7              		.eabi_attribute 24, 1
   8              		.eabi_attribute 25, 1
   9              		.eabi_attribute 26, 1
  10              		.eabi_attribute 30, 2
  11              		.eabi_attribute 34, 1
  12              		.eabi_attribute 18, 4
  13              		.file	"canard.c"
  14              		.text
  15              	.Ltext0:
  16              		.cfi_sections	.debug_frame
  17              		.section	.text.unlikely.bufferBlockPushBytes,"ax",%progbits
  18              		.align	1
  19              		.syntax unified
  20              		.thumb
  21              		.thumb_func
  22              		.fpu fpv4-sp-d16
  23              		.type	bufferBlockPushBytes, %function
  24              	bufferBlockPushBytes:
  25              	.LFB30:
  26              		.file 1 "libcanard/canard.c"
  27              		.loc 1 1218 0
  28              		.cfi_startproc
  29              		@ args = 0, pretend = 0, frame = 8
  30              		@ frame_needed = 0, uses_anonymous_args = 0
  31              	.LVL0:
  32 0000 2DE9F04F 		push	{r4, r5, r6, r7, r8, r9, r10, fp, lr}
  33              		.cfi_def_cfa_offset 36
  34              		.cfi_offset 4, -36
  35              		.cfi_offset 5, -32
  36              		.cfi_offset 6, -28
  37              		.cfi_offset 7, -24
  38              		.cfi_offset 8, -20
  39              		.cfi_offset 9, -16
  40              		.cfi_offset 10, -12
  41              		.cfi_offset 11, -8
  42              		.cfi_offset 14, -4
  43 0004 CD8A     		ldrh	r5, [r1, #22]
  44 0006 83B0     		sub	sp, sp, #12
  45              		.cfi_def_cfa_offset 48
  46              		.loc 1 1222 0
  47 0008 C5F30904 		ubfx	r4, r5, #0, #10
  48 000c 062C     		cmp	r4, #6
  49              		.loc 1 1218 0
  50 000e 0192     		str	r2, [sp, #4]
  51 0010 2546     		mov	r5, r4
  52              		.loc 1 1222 0
  53 0012 1ED0     		beq	.L21
  54              	.LVL1:
  55              	.LBB187:
  56              		.loc 1 1224 0
  57 0014 0026     		movs	r6, #0
ARM GAS  /tmp/cc2f1tkm.s 			page 2


  58 0016 9CB2     		uxth	r4, r3
  59              	.LVL2:
  60              	.L3:
  61 0018 B7B2     		uxth	r7, r6
  62              	.LVL3:
  63              		.loc 1 1224 0 is_stmt 0 discriminator 1
  64 001a 07EB050C 		add	ip, r7, r5
  65 001e 1FFA8CFC 		uxth	ip, ip
  66 0022 BCF1050F 		cmp	ip, #5
  67              		.loc 1 1228 0 is_stmt 1 discriminator 1
  68 0026 05EB060C 		add	ip, r5, r6
  69              		.loc 1 1224 0 discriminator 1
  70 002a 02D9     		bls	.L4
  71              	.LBE187:
  72              		.loc 1 1230 0
  73 002c A742     		cmp	r7, r4
  74 002e 11D3     		bcc	.L2
  75 0030 08E0     		b	.L5
  76              	.L4:
  77              	.LBB188:
  78              		.loc 1 1225 0
  79 0032 A742     		cmp	r7, r4
  80 0034 06D2     		bcs	.L5
  81              		.loc 1 1228 0
  82 0036 019A     		ldr	r2, [sp, #4]
  83 0038 8C44     		add	ip, ip, r1
  84 003a 975D     		ldrb	r7, [r2, r6]	@ zero_extendqisi2
  85              	.LVL4:
  86 003c 8CF81A70 		strb	r7, [ip, #26]
  87              	.LVL5:
  88 0040 0136     		adds	r6, r6, #1
  89 0042 E9E7     		b	.L3
  90              	.LVL6:
  91              	.L5:
  92              	.LBE188:
  93              		.loc 1 1232 0
  94 0044 CB8A     		ldrh	r3, [r1, #22]
  95              	.LVL7:
  96              		.loc 1 1233 0
  97 0046 2544     		add	r5, r5, r4
  98              	.LVL8:
  99              		.loc 1 1232 0
 100 0048 65F30903 		bfi	r3, r5, #0, #10
 101 004c CB82     		strh	r3, [r1, #22]	@ movhi
 102              	.LVL9:
 103              		.loc 1 1234 0
 104 004e 0120     		movs	r0, #1
 105              	.LVL10:
 106 0050 97E0     		b	.L7
 107              	.LVL11:
 108              	.L21:
 109              		.loc 1 1219 0
 110 0052 0027     		movs	r7, #0
 111              	.LVL12:
 112              	.L2:
 113              		.loc 1 1239 0
 114 0054 1C26     		movs	r6, #28
ARM GAS  /tmp/cc2f1tkm.s 			page 3


 115 0056 A5F1060C 		sub	ip, r5, #6
 116              		.loc 1 1245 0
 117 005a 4C68     		ldr	r4, [r1, #4]
 118              		.loc 1 1239 0
 119 005c BCFBF6FE 		udiv	lr, ip, r6
 120 0060 06FB1ECE 		mls	lr, r6, lr, ip
 121              		.loc 1 1238 0
 122 0064 1FFA8EF6 		uxth	r6, lr
 123              	.LVL13:
 124              		.loc 1 1245 0
 125 0068 ACB9     		cbnz	r4, .L22
 126              	.LVL14:
 127              	.LBB189:
 128              	.LBB190:
 129              	.LBB191:
 130              	.LBB192:
 131              		.loc 1 1557 0
 132 006a 0468     		ldr	r4, [r0]
 133 006c 002C     		cmp	r4, #0
 134 006e 00F08680 		beq	.L23
 135              	.LVL15:
 136              		.loc 1 1567 0
 137 0072 C688     		ldrh	r6, [r0, #6]
 138              	.LVL16:
 139              		.loc 1 1568 0
 140 0074 B0F808C0 		ldrh	ip, [r0, #8]
 141              		.loc 1 1564 0
 142 0078 2268     		ldr	r2, [r4]
 143 007a 0260     		str	r2, [r0]
 144              		.loc 1 1567 0
 145 007c 0136     		adds	r6, r6, #1
 146 007e B6B2     		uxth	r6, r6
 147              		.loc 1 1568 0
 148 0080 B445     		cmp	ip, r6
 149              		.loc 1 1567 0
 150 0082 C680     		strh	r6, [r0, #6]	@ movhi
 151              		.loc 1 1570 0
 152 0084 38BF     		it	cc
 153 0086 0681     		strhcc	r6, [r0, #8]	@ movhi
 154              	.LVL17:
 155              	.LBE192:
 156              	.LBE191:
 157              		.loc 1 1318 0
 158 0088 0026     		movs	r6, #0
 159 008a 2660     		str	r6, [r4]
 160              	.LVL18:
 161              	.LBE190:
 162              	.LBE189:
 163              		.loc 1 1247 0
 164 008c 4C60     		str	r4, [r1, #4]
 165              	.LVL19:
 166              	.L12:
 167              		.loc 1 1285 0
 168 008e 9BB2     		uxth	r3, r3
 169              	.LVL20:
 170              	.LBB193:
 171              	.LBB194:
ARM GAS  /tmp/cc2f1tkm.s 			page 4


 172              		.loc 1 1318 0
 173 0090 4FF0000E 		mov	lr, #0
 174 0094 48E0     		b	.L10
 175              	.LVL21:
 176              	.L22:
 177              	.LBE194:
 178              	.LBE193:
 179              	.LBB201:
 180              		.loc 1 1259 0
 181 0096 4FF00108 		mov	r8, #1
 182              	.LVL22:
 183              	.L8:
 184              		.loc 1 1263 0
 185 009a D4F800C0 		ldr	ip, [r4]
 186              		.loc 1 1265 0
 187 009e 08F10109 		add	r9, r8, #1
 188              		.loc 1 1263 0
 189 00a2 BCF1000F 		cmp	ip, #0
 190 00a6 03D0     		beq	.L28
 191              		.loc 1 1265 0
 192 00a8 1FFA89F8 		uxth	r8, r9
 193              	.LVL23:
 194 00ac 6446     		mov	r4, ip
 195 00ae F4E7     		b	.L8
 196              	.LVL24:
 197              	.L28:
 198              		.loc 1 1270 0
 199 00b0 A3F1060C 		sub	ip, r3, #6
 200 00b4 AC44     		add	ip, ip, r5
 201 00b6 4FF01C09 		mov	r9, #28
 202 00ba BCFBF9FC 		udiv	ip, ip, r9
 203              		.loc 1 1269 0
 204 00be 0CF1010C 		add	ip, ip, #1
 205              		.loc 1 1273 0
 206 00c2 1FFA8CFC 		uxth	ip, ip
 207 00c6 E045     		cmp	r8, ip
 208 00c8 E1D2     		bcs	.L12
 209              		.loc 1 1273 0 is_stmt 0 discriminator 1
 210 00ca BEF1000F 		cmp	lr, #0
 211 00ce DED1     		bne	.L12
 212              	.LVL25:
 213              	.LBB202:
 214              	.LBB203:
 215              	.LBB204:
 216              	.LBB205:
 217              		.loc 1 1557 0 is_stmt 1
 218 00d0 D0F800C0 		ldr	ip, [r0]
 219 00d4 BCF1000F 		cmp	ip, #0
 220 00d8 51D0     		beq	.L23
 221              	.LVL26:
 222              		.loc 1 1567 0
 223 00da C688     		ldrh	r6, [r0, #6]
 224              	.LVL27:
 225              		.loc 1 1568 0
 226 00dc B0F808E0 		ldrh	lr, [r0, #8]
 227              	.LVL28:
 228              		.loc 1 1564 0
ARM GAS  /tmp/cc2f1tkm.s 			page 5


 229 00e0 DCF80020 		ldr	r2, [ip]
 230 00e4 0260     		str	r2, [r0]
 231              		.loc 1 1567 0
 232 00e6 0136     		adds	r6, r6, #1
 233 00e8 B6B2     		uxth	r6, r6
 234              		.loc 1 1568 0
 235 00ea B645     		cmp	lr, r6
 236              		.loc 1 1567 0
 237 00ec C680     		strh	r6, [r0, #6]	@ movhi
 238              		.loc 1 1570 0
 239 00ee 38BF     		it	cc
 240 00f0 0681     		strhcc	r6, [r0, #8]	@ movhi
 241              	.LVL29:
 242              	.LBE205:
 243              	.LBE204:
 244              		.loc 1 1318 0
 245 00f2 0026     		movs	r6, #0
 246 00f4 CCF80060 		str	r6, [ip]
 247              	.LVL30:
 248              	.LBE203:
 249              	.LBE202:
 250              		.loc 1 1275 0
 251 00f8 C4F800C0 		str	ip, [r4]
 252 00fc 6446     		mov	r4, ip
 253              	.LVL31:
 254 00fe C6E7     		b	.L12
 255              	.LVL32:
 256              	.L16:
 257              	.LBE201:
 258              	.LBB206:
 259              		.loc 1 1289 0
 260 0100 0CF1010C 		add	ip, ip, #1
 261              	.LVL33:
 262 0104 1FFA8CFC 		uxth	ip, ip
 263              	.LVL34:
 264              		.loc 1 1287 0
 265 0108 06EB0C0A 		add	r10, r6, ip
 266 010c AAEB070A 		sub	r10, r10, r7
 267 0110 1FFA8AFA 		uxth	r10, r10
 268              		.loc 1 1291 0
 269 0114 19F801BF 		ldrb	fp, [r9, #1]!	@ zero_extendqisi2
 270 0118 08F801BF 		strb	fp, [r8, #1]!
 271              		.loc 1 1287 0
 272 011c BAF11C0F 		cmp	r10, #28
 273 0120 0DD0     		beq	.L15
 274              		.loc 1 1288 0
 275 0122 6345     		cmp	r3, ip
 276 0124 ECD8     		bhi	.L16
 277              	.LVL35:
 278              	.L17:
 279              	.LBE206:
 280              		.loc 1 1302 0
 281 0126 6746     		mov	r7, ip
 282              	.LVL36:
 283              	.L10:
 284              		.loc 1 1285 0
 285 0128 BB42     		cmp	r3, r7
ARM GAS  /tmp/cc2f1tkm.s 			page 6


 286 012a 21D9     		bls	.L29
 287 012c 019A     		ldr	r2, [sp, #4]
 288 012e 07F1FF39 		add	r9, r7, #-1
 289 0132 06F10308 		add	r8, r6, #3
 290 0136 9144     		add	r9, r9, r2
 291 0138 A044     		add	r8, r8, r4
 292 013a BC46     		mov	ip, r7
 293 013c E0E7     		b	.L16
 294              	.LVL37:
 295              	.L15:
 296              		.loc 1 1294 0
 297 013e 6345     		cmp	r3, ip
 298 0140 F1D9     		bls	.L17
 299              	.LVL38:
 300              	.LBB207:
 301              	.LBB199:
 302              	.LBB195:
 303              	.LBB196:
 304              		.loc 1 1557 0
 305 0142 0768     		ldr	r7, [r0]
 306 0144 1FB9     		cbnz	r7, .L18
 307              	.LVL39:
 308              	.LBE196:
 309              	.LBE195:
 310              	.LBE199:
 311              	.LBE207:
 312              		.loc 1 1296 0
 313 0146 2760     		str	r7, [r4]
 314              		.loc 1 1299 0
 315 0148 6FF00200 		mvn	r0, #2
 316              	.LVL40:
 317 014c 19E0     		b	.L7
 318              	.LVL41:
 319              	.L18:
 320              	.LBB208:
 321              	.LBB200:
 322              	.LBB198:
 323              	.LBB197:
 324              		.loc 1 1567 0
 325 014e C688     		ldrh	r6, [r0, #6]
 326              	.LVL42:
 327              		.loc 1 1568 0
 328 0150 B0F80890 		ldrh	r9, [r0, #8]
 329              		.loc 1 1564 0
 330 0154 3A68     		ldr	r2, [r7]
 331 0156 0260     		str	r2, [r0]
 332              		.loc 1 1567 0
 333 0158 0136     		adds	r6, r6, #1
 334 015a B6B2     		uxth	r6, r6
 335              		.loc 1 1568 0
 336 015c B145     		cmp	r9, r6
 337              		.loc 1 1567 0
 338 015e C680     		strh	r6, [r0, #6]	@ movhi
 339              		.loc 1 1570 0
 340 0160 38BF     		it	cc
 341 0162 0681     		strhcc	r6, [r0, #8]	@ movhi
 342              	.LVL43:
ARM GAS  /tmp/cc2f1tkm.s 			page 7


 343              	.LBE197:
 344              	.LBE198:
 345              		.loc 1 1318 0
 346 0164 C7F800E0 		str	lr, [r7]
 347              	.LVL44:
 348              	.LBE200:
 349              	.LBE208:
 350              		.loc 1 1302 0
 351 0168 0026     		movs	r6, #0
 352              		.loc 1 1296 0
 353 016a 2760     		str	r7, [r4]
 354 016c 3C46     		mov	r4, r7
 355              	.LVL45:
 356 016e DAE7     		b	.L17
 357              	.LVL46:
 358              	.L29:
 359              		.loc 1 1306 0
 360 0170 CA8A     		ldrh	r2, [r1, #22]
 361 0172 1D44     		add	r5, r5, r3
 362 0174 65F30902 		bfi	r2, r5, #0, #10
 363 0178 CA82     		strh	r2, [r1, #22]	@ movhi
 364              	.LVL47:
 365              		.loc 1 1308 0
 366 017a 0120     		movs	r0, #1
 367              	.LVL48:
 368 017c 01E0     		b	.L7
 369              	.LVL49:
 370              	.L23:
 371              		.loc 1 1251 0
 372 017e 6FF00200 		mvn	r0, #2
 373              	.LVL50:
 374              	.L7:
 375              		.loc 1 1309 0
 376 0182 03B0     		add	sp, sp, #12
 377              		.cfi_def_cfa_offset 36
 378              		@ sp needed
 379 0184 BDE8F08F 		pop	{r4, r5, r6, r7, r8, r9, r10, fp, pc}
 380              		.cfi_endproc
 381              	.LFE30:
 382              		.size	bufferBlockPushBytes, .-bufferBlockPushBytes
 383              		.section	.text.copyBitArray,"ax",%progbits
 384              		.align	1
 385              		.p2align 4,,15
 386              		.syntax unified
 387              		.thumb
 388              		.thumb_func
 389              		.fpu fpv4-sp-d16
 390              		.type	copyBitArray, %function
 391              	copyBitArray:
 392              	.LFB32:
 393              		.loc 1 1327 0
 394              		.cfi_startproc
 395              		@ args = 4, pretend = 0, frame = 0
 396              		@ frame_needed = 0, uses_anonymous_args = 0
 397              	.LVL51:
 398 0000 2DE9F047 		push	{r4, r5, r6, r7, r8, r9, r10, lr}
 399              		.cfi_def_cfa_offset 32
ARM GAS  /tmp/cc2f1tkm.s 			page 8


 400              		.cfi_offset 4, -32
 401              		.cfi_offset 5, -28
 402              		.cfi_offset 6, -24
 403              		.cfi_offset 7, -20
 404              		.cfi_offset 8, -16
 405              		.cfi_offset 9, -12
 406              		.cfi_offset 10, -8
 407              		.cfi_offset 14, -4
 408              		.loc 1 1334 0
 409 0004 01F00705 		and	r5, r1, #7
 410              		.loc 1 1337 0
 411 0008 2A44     		add	r2, r2, r5
 412              	.LVL52:
 413              		.loc 1 1338 0
 414 000a 9542     		cmp	r5, r2
 415              		.loc 1 1327 0
 416 000c 089C     		ldr	r4, [sp, #32]
 417              	.LVL53:
 418              		.loc 1 1338 0
 419 000e 2DD0     		beq	.L30
 420 0010 C908     		lsrs	r1, r1, #3
 421              	.LVL54:
 422 0012 4FEAD408 		lsr	r8, r4, #3
 423              	.LVL55:
 424 0016 04F0070C 		and	ip, r4, #7
 425              	.LVL56:
 426 001a 0844     		add	r0, r0, r1
 427              	.LVL57:
 428              	.LBB209:
 429              		.loc 1 1346 0
 430 001c 4FF47F49 		mov	r9, #65280
 431              	.LVL58:
 432              	.L32:
 433              		.loc 1 1340 0
 434 0020 05F00706 		and	r6, r5, #7
 435              	.LVL59:
 436              		.loc 1 1341 0
 437 0024 0CF0070A 		and	r10, ip, #7
 438              	.LVL60:
 439              		.loc 1 1344 0
 440 0028 5645     		cmp	r6, r10
 441 002a 3446     		mov	r4, r6
 442              		.loc 1 1347 0
 443 002c 4FEAD501 		lsr	r1, r5, #3
 444              		.loc 1 1344 0
 445 0030 38BF     		it	cc
 446 0032 5446     		movcc	r4, r10
 447 0034 C4F10804 		rsb	r4, r4, #8
 448 0038 571B     		subs	r7, r2, r5
 449              		.loc 1 1350 0
 450 003a 08EBDC0E 		add	lr, r8, ip, lsr #3
 451              		.loc 1 1344 0
 452 003e BC42     		cmp	r4, r7
 453              		.loc 1 1347 0
 454 0040 415C     		ldrb	r1, [r0, r1]	@ zero_extendqisi2
 455              		.loc 1 1344 0
 456 0042 28BF     		it	cs
ARM GAS  /tmp/cc2f1tkm.s 			page 9


 457 0044 3C46     		movcs	r4, r7
 458              	.LVL61:
 459              		.loc 1 1347 0
 460 0046 B140     		lsls	r1, r1, r6
 461              		.loc 1 1350 0
 462 0048 13F80E70 		ldrb	r7, [r3, lr]	@ zero_extendqisi2
 463              		.loc 1 1346 0
 464 004c 29FA04F6 		lsr	r6, r9, r4
 465              	.LVL62:
 466              		.loc 1 1347 0
 467 0050 21FA0AF1 		lsr	r1, r1, r10
 468              		.loc 1 1346 0
 469 0054 F6B2     		uxtb	r6, r6
 470 0056 46FA0AF6 		asr	r6, r6, r10
 471              		.loc 1 1350 0
 472 005a 7940     		eors	r1, r1, r7
 473 005c 3140     		ands	r1, r1, r6
 474              		.loc 1 1352 0
 475 005e 2544     		add	r5, r5, r4
 476              	.LVL63:
 477              		.loc 1 1350 0
 478 0060 7940     		eors	r1, r1, r7
 479              	.LBE209:
 480              		.loc 1 1338 0
 481 0062 AA42     		cmp	r2, r5
 482              	.LBB210:
 483              		.loc 1 1353 0
 484 0064 A444     		add	ip, ip, r4
 485              	.LVL64:
 486              		.loc 1 1349 0
 487 0066 03F80E10 		strb	r1, [r3, lr]
 488              	.LBE210:
 489              		.loc 1 1338 0
 490 006a D9D1     		bne	.L32
 491              	.LVL65:
 492              	.L30:
 493              		.loc 1 1355 0
 494 006c BDE8F087 		pop	{r4, r5, r6, r7, r8, r9, r10, pc}
 495              		.cfi_endproc
 496              	.LFE32:
 497              		.size	copyBitArray, .-copyBitArray
 498              		.section	.text.createTxItem,"ax",%progbits
 499              		.align	1
 500              		.p2align 4,,15
 501              		.syntax unified
 502              		.thumb
 503              		.thumb_func
 504              		.fpu fpv4-sp-d16
 505              		.type	createTxItem, %function
 506              	createTxItem:
 507              	.LFB20:
 508              		.loc 1 1004 0
 509              		.cfi_startproc
 510              		@ args = 0, pretend = 0, frame = 0
 511              		@ frame_needed = 0, uses_anonymous_args = 0
 512              		@ link register save eliminated.
 513              	.LVL66:
ARM GAS  /tmp/cc2f1tkm.s 			page 10


 514              	.LBB211:
 515              	.LBB212:
 516              		.loc 1 1557 0
 517 0000 0368     		ldr	r3, [r0]
 518 0002 A3B1     		cbz	r3, .L41
 519              	.LVL67:
 520              		.loc 1 1567 0
 521 0004 C288     		ldrh	r2, [r0, #6]
 522              		.loc 1 1568 0
 523 0006 0189     		ldrh	r1, [r0, #8]
 524              		.loc 1 1567 0
 525 0008 0132     		adds	r2, r2, #1
 526 000a 92B2     		uxth	r2, r2
 527              		.loc 1 1568 0
 528 000c 9142     		cmp	r1, r2
 529              	.LBE212:
 530              	.LBE211:
 531              		.loc 1 1004 0
 532 000e 10B4     		push	{r4}
 533              		.cfi_def_cfa_offset 4
 534              		.cfi_offset 4, -4
 535              	.LBB215:
 536              	.LBB213:
 537              		.loc 1 1564 0
 538 0010 1C68     		ldr	r4, [r3]
 539              		.loc 1 1567 0
 540 0012 C280     		strh	r2, [r0, #6]	@ movhi
 541              		.loc 1 1570 0
 542 0014 38BF     		it	cc
 543 0016 0281     		strhcc	r2, [r0, #8]	@ movhi
 544              	.LVL68:
 545              	.LBE213:
 546              	.LBE215:
 547              		.loc 1 1010 0
 548 0018 0022     		movs	r2, #0
 549              	.LBB216:
 550              	.LBB214:
 551              		.loc 1 1564 0
 552 001a 0460     		str	r4, [r0]
 553              	.LBE214:
 554              	.LBE216:
 555              		.loc 1 1010 0
 556 001c 1A60     		str	r2, [r3]	@ unaligned
 557 001e 5A60     		str	r2, [r3, #4]	@ unaligned
 558 0020 9A60     		str	r2, [r3, #8]	@ unaligned
 559 0022 DA60     		str	r2, [r3, #12]	@ unaligned
 560 0024 1A61     		str	r2, [r3, #16]	@ unaligned
 561              		.loc 1 1012 0
 562 0026 1846     		mov	r0, r3
 563              	.LVL69:
 564 0028 5DF8044B 		ldr	r4, [sp], #4
 565              		.cfi_restore 4
 566              		.cfi_def_cfa_offset 0
 567 002c 7047     		bx	lr
 568              	.LVL70:
 569              	.L41:
 570 002e 1846     		mov	r0, r3
ARM GAS  /tmp/cc2f1tkm.s 			page 11


 571              	.LVL71:
 572 0030 7047     		bx	lr
 573              		.cfi_endproc
 574              	.LFE20:
 575              		.size	createTxItem, .-createTxItem
 576 0032 00BF     		.section	.text.createRxState,"ax",%progbits
 577              		.align	1
 578              		.p2align 4,,15
 579              		.syntax unified
 580              		.thumb
 581              		.thumb_func
 582              		.fpu fpv4-sp-d16
 583              		.type	createRxState, %function
 584              	createRxState:
 585              	.LFB28:
 586              		.loc 1 1178 0
 587              		.cfi_startproc
 588              		@ args = 0, pretend = 0, frame = 32
 589              		@ frame_needed = 0, uses_anonymous_args = 0
 590              	.LVL72:
 591 0000 70B5     		push	{r4, r5, r6, lr}
 592              		.cfi_def_cfa_offset 16
 593              		.cfi_offset 4, -16
 594              		.cfi_offset 5, -12
 595              		.cfi_offset 6, -8
 596              		.cfi_offset 14, -4
 597 0002 0446     		mov	r4, r0
 598 0004 88B0     		sub	sp, sp, #32
 599              		.cfi_def_cfa_offset 48
 600              		.loc 1 1178 0
 601 0006 0E46     		mov	r6, r1
 602              		.loc 1 1179 0
 603 0008 6846     		mov	r0, sp
 604              	.LVL73:
 605 000a 2022     		movs	r2, #32
 606 000c 0021     		movs	r1, #0
 607              	.LVL74:
 608 000e FFF7FEFF 		bl	memset
 609              	.LVL75:
 610              	.LBB217:
 611              	.LBB218:
 612              		.loc 1 1557 0
 613 0012 2568     		ldr	r5, [r4]
 614              	.LBE218:
 615              	.LBE217:
 616              		.loc 1 1179 0
 617 0014 0496     		str	r6, [sp, #16]
 618              	.LVL76:
 619              	.LBB220:
 620              	.LBB219:
 621              		.loc 1 1557 0
 622 0016 A5B1     		cbz	r5, .L44
 623              	.LVL77:
 624              		.loc 1 1567 0
 625 0018 E388     		ldrh	r3, [r4, #6]
 626              		.loc 1 1568 0
 627 001a 2289     		ldrh	r2, [r4, #8]
ARM GAS  /tmp/cc2f1tkm.s 			page 12


 628              		.loc 1 1564 0
 629 001c 2968     		ldr	r1, [r5]
 630 001e 2160     		str	r1, [r4]
 631              		.loc 1 1567 0
 632 0020 0133     		adds	r3, r3, #1
 633 0022 9BB2     		uxth	r3, r3
 634              		.loc 1 1568 0
 635 0024 9A42     		cmp	r2, r3
 636              		.loc 1 1567 0
 637 0026 E380     		strh	r3, [r4, #6]	@ movhi
 638              		.loc 1 1570 0
 639 0028 38BF     		it	cc
 640 002a 2381     		strhcc	r3, [r4, #8]	@ movhi
 641              	.LVL78:
 642              	.LBE219:
 643              	.LBE220:
 644              		.loc 1 1190 0
 645 002c 6C46     		mov	r4, sp
 646              	.LVL79:
 647 002e 0FCC     		ldmia	r4!, {r0, r1, r2, r3}
 648 0030 2860     		str	r0, [r5]	@ unaligned
 649 0032 6960     		str	r1, [r5, #4]	@ unaligned
 650 0034 AA60     		str	r2, [r5, #8]	@ unaligned
 651 0036 EB60     		str	r3, [r5, #12]	@ unaligned
 652 0038 0FCC     		ldmia	r4!, {r0, r1, r2, r3}
 653 003a 2861     		str	r0, [r5, #16]	@ unaligned
 654 003c 6961     		str	r1, [r5, #20]	@ unaligned
 655 003e AA61     		str	r2, [r5, #24]	@ unaligned
 656 0040 EB61     		str	r3, [r5, #28]	@ unaligned
 657              	.LVL80:
 658              	.L44:
 659              		.loc 1 1193 0
 660 0042 2846     		mov	r0, r5
 661 0044 08B0     		add	sp, sp, #32
 662              		.cfi_def_cfa_offset 16
 663              		@ sp needed
 664 0046 70BD     		pop	{r4, r5, r6, pc}
 665              		.cfi_endproc
 666              	.LFE28:
 667              		.size	createRxState, .-createRxState
 668              		.section	.text.pushTxQueue.isra.0,"ax",%progbits
 669              		.align	1
 670              		.p2align 4,,15
 671              		.syntax unified
 672              		.thumb
 673              		.thumb_func
 674              		.fpu fpv4-sp-d16
 675              		.type	pushTxQueue.isra.0, %function
 676              	pushTxQueue.isra.0:
 677              	.LFB42:
 678              		.loc 1 954 0
 679              		.cfi_startproc
 680              		@ args = 0, pretend = 0, frame = 0
 681              		@ frame_needed = 0, uses_anonymous_args = 0
 682              	.LVL81:
 683 0000 2DE9F041 		push	{r4, r5, r6, r7, r8, lr}
 684              		.cfi_def_cfa_offset 24
ARM GAS  /tmp/cc2f1tkm.s 			page 13


 685              		.cfi_offset 4, -24
 686              		.cfi_offset 5, -20
 687              		.cfi_offset 6, -16
 688              		.cfi_offset 7, -12
 689              		.cfi_offset 8, -8
 690              		.cfi_offset 14, -4
 691              		.loc 1 954 0
 692 0004 8E46     		mov	lr, r1
 693              		.loc 1 959 0
 694 0006 0168     		ldr	r1, [r0]
 695              	.LVL82:
 696 0008 0029     		cmp	r1, #0
 697 000a 40D0     		beq	.L67
 698              		.loc 1 970 0
 699 000c DEF80430 		ldr	r3, [lr, #4]
 700              	.LBB224:
 701              	.LBB225:
 702              		.loc 1 1019 0
 703 0010 23F0604C 		bic	ip, r3, #-536870912
 704              	.LBB226:
 705              		.loc 1 1029 0
 706 0014 4FEA9C45 		lsr	r5, ip, #18
 707 0018 15EA2305 		ands	r5, r5, r3, asr #32
 708 001c 38BF     		it	cc
 709 001e 6546     		movcc	r5, ip
 710              	.LBE226:
 711              		.loc 1 1025 0
 712 0020 DE0F     		lsrs	r6, r3, #31
 713              		.loc 1 1044 0
 714 0022 C3F38078 		ubfx	r8, r3, #30, #1
 715              	.LBB227:
 716              		.loc 1 1029 0
 717 0026 0F46     		mov	r7, r1
 718 0028 0A46     		mov	r2, r1
 719 002a 07E0     		b	.L63
 720              	.LVL83:
 721              	.L71:
 722              		.loc 1 1030 0
 723 002c 002B     		cmp	r3, #0
 724 002e 1BDB     		blt	.L69
 725              	.LVL84:
 726              		.loc 1 1031 0
 727 0030 AC42     		cmp	r4, r5
 728 0032 1CD1     		bne	.L56
 729              	.LVL85:
 730              	.L62:
 731              	.LBE227:
 732              	.LBE225:
 733              	.LBE224:
 734              		.loc 1 986 0
 735 0034 1368     		ldr	r3, [r2]
 736 0036 1746     		mov	r7, r2
 737 0038 6BB3     		cbz	r3, .L70
 738 003a 1A46     		mov	r2, r3
 739              	.LVL86:
 740              	.L63:
 741              		.loc 1 970 0
ARM GAS  /tmp/cc2f1tkm.s 			page 14


 742 003c 5368     		ldr	r3, [r2, #4]
 743              	.LVL87:
 744              	.LBB232:
 745              	.LBB229:
 746              		.loc 1 1027 0
 747 003e B6EBD37F 		cmp	r6, r3, lsr #31
 748              		.loc 1 1020 0
 749 0042 23F06044 		bic	r4, r3, #-536870912
 750              	.LVL88:
 751              		.loc 1 1027 0
 752 0046 F1D1     		bne	.L71
 753              	.LVL89:
 754              		.loc 1 1046 0
 755 0048 A445     		cmp	ip, r4
 756 004a 17D0     		beq	.L72
 757              	.LVL90:
 758              	.L60:
 759              		.loc 1 1054 0
 760 004c A445     		cmp	ip, r4
 761 004e 2CBF     		ite	cs
 762 0050 0023     		movcs	r3, #0
 763 0052 0123     		movcc	r3, #1
 764              	.LBE229:
 765              	.LBE232:
 766              		.loc 1 970 0
 767 0054 002B     		cmp	r3, #0
 768 0056 EDD0     		beq	.L62
 769              	.L61:
 770              		.loc 1 972 0
 771 0058 9142     		cmp	r1, r2
 772 005a 16D0     		beq	.L73
 773              		.loc 1 979 0
 774 005c C7F800E0 		str	lr, [r7]
 775              		.loc 1 980 0
 776 0060 CEF80020 		str	r2, [lr]
 777              		.loc 1 998 0
 778 0064 BDE8F081 		pop	{r4, r5, r6, r7, r8, pc}
 779              	.LVL91:
 780              	.L69:
 781              	.LBB233:
 782              	.LBB230:
 783              	.LBB228:
 784              		.loc 1 1030 0
 785 0068 A40C     		lsrs	r4, r4, #18
 786              	.LVL92:
 787              		.loc 1 1031 0
 788 006a AC42     		cmp	r4, r5
 789 006c F4D0     		beq	.L61
 790              	.L56:
 791              		.loc 1 1033 0
 792 006e AC42     		cmp	r4, r5
 793 0070 94BF     		ite	ls
 794 0072 0023     		movls	r3, #0
 795              	.LVL93:
 796 0074 0123     		movhi	r3, #1
 797              	.LVL94:
 798              	.LBE228:
ARM GAS  /tmp/cc2f1tkm.s 			page 15


 799              	.LBE230:
 800              	.LBE233:
 801              		.loc 1 970 0
 802 0076 002B     		cmp	r3, #0
 803 0078 DCD0     		beq	.L62
 804 007a EDE7     		b	.L61
 805              	.LVL95:
 806              	.L72:
 807              	.LBB234:
 808              	.LBB231:
 809              		.loc 1 1045 0
 810 007c C3F38073 		ubfx	r3, r3, #30, #1
 811              	.LVL96:
 812              		.loc 1 1046 0
 813 0080 9845     		cmp	r8, r3
 814 0082 E3D0     		beq	.L60
 815              	.LVL97:
 816              	.LBE231:
 817              	.LBE234:
 818              		.loc 1 970 0
 819 0084 002B     		cmp	r3, #0
 820 0086 D5D0     		beq	.L62
 821 0088 E6E7     		b	.L61
 822              	.L73:
 823              		.loc 1 974 0
 824 008a CEF80010 		str	r1, [lr]
 825              	.LVL98:
 826              	.L67:
 827              		.loc 1 975 0
 828 008e C0F800E0 		str	lr, [r0]
 829              		.loc 1 998 0
 830 0092 BDE8F081 		pop	{r4, r5, r6, r7, r8, pc}
 831              	.LVL99:
 832              	.L70:
 833              		.loc 1 988 0
 834 0096 C2F800E0 		str	lr, [r2]
 835              		.loc 1 998 0
 836 009a BDE8F081 		pop	{r4, r5, r6, r7, r8, pc}
 837              		.cfi_endproc
 838              	.LFE42:
 839              		.size	pushTxQueue.isra.0, .-pushTxQueue.isra.0
 840 009e 00BF     		.section	.text.enqueueTxFrames,"ax",%progbits
 841              		.align	1
 842              		.p2align 4,,15
 843              		.syntax unified
 844              		.thumb
 845              		.thumb_func
 846              		.fpu fpv4-sp-d16
 847              		.type	enqueueTxFrames, %function
 848              	enqueueTxFrames:
 849              	.LFB18:
 850              		.loc 1 868 0
 851              		.cfi_startproc
 852              		@ args = 8, pretend = 0, frame = 24
 853              		@ frame_needed = 0, uses_anonymous_args = 0
 854              	.LVL100:
 855 0000 2DE9F04F 		push	{r4, r5, r6, r7, r8, r9, r10, fp, lr}
ARM GAS  /tmp/cc2f1tkm.s 			page 16


 856              		.cfi_def_cfa_offset 36
 857              		.cfi_offset 4, -36
 858              		.cfi_offset 5, -32
 859              		.cfi_offset 6, -28
 860              		.cfi_offset 7, -24
 861              		.cfi_offset 8, -20
 862              		.cfi_offset 9, -16
 863              		.cfi_offset 10, -12
 864              		.cfi_offset 11, -8
 865              		.cfi_offset 14, -4
 866 0004 87B0     		sub	sp, sp, #28
 867              		.cfi_def_cfa_offset 64
 868              		.loc 1 868 0
 869 0006 BDF84490 		ldrh	r9, [sp, #68]
 870              		.loc 1 872 0
 871 000a 002A     		cmp	r2, #0
 872 000c 00F0AE80 		beq	.L87
 873 0010 0292     		str	r2, [sp, #8]
 874 0012 0493     		str	r3, [sp, #16]
 875 0014 0191     		str	r1, [sp, #4]
 876 0016 8046     		mov	r8, r0
 877              		.loc 1 877 0
 878 0018 B9F1000F 		cmp	r9, #0
 879 001c 71D0     		beq	.L100
 880              		.loc 1 877 0 is_stmt 0 discriminator 1
 881 001e 109B     		ldr	r3, [sp, #64]
 882              	.LVL101:
 883 0020 002B     		cmp	r3, #0
 884 0022 00F0A380 		beq	.L87
 885              	.LVL102:
 886 0026 00F10C03 		add	r3, r0, #12
 887              		.loc 1 884 0 is_stmt 1
 888 002a B9F1070F 		cmp	r9, #7
 889 002e 0093     		str	r3, [sp]
 890 0030 6AD9     		bls	.L76
 891              	.LBB241:
 892              	.LBB242:
 893              	.LBB243:
 894              	.LBB244:
 895              		.loc 1 922 0
 896 0032 049B     		ldr	r3, [sp, #16]
 897              	.LBE244:
 898              		.loc 1 905 0
 899 0034 0390     		str	r0, [sp, #12]
 900              	.LBE243:
 901              		.loc 1 882 0
 902 0036 0026     		movs	r6, #0
 903              	.LBB250:
 904              	.LBB245:
 905              		.loc 1 922 0
 906 0038 1B0A     		lsrs	r3, r3, #8
 907              		.loc 1 911 0
 908 003a 0098     		ldr	r0, [sp]
 909              	.LVL103:
 910              		.loc 1 922 0
 911 003c 0593     		str	r3, [sp, #20]
 912              	.LBE245:
ARM GAS  /tmp/cc2f1tkm.s 			page 17


 913              		.loc 1 904 0
 914 003e 3746     		mov	r7, r6
 915              		.loc 1 903 0
 916 0040 3446     		mov	r4, r6
 917              		.loc 1 905 0
 918 0042 4FF0800A 		mov	r10, #128
 919              	.LVL104:
 920 0046 DDF84080 		ldr	r8, [sp, #64]
 921              	.LVL105:
 922              	.LBB246:
 923              		.loc 1 911 0
 924 004a FFF7FEFF 		bl	createTxItem
 925              	.LVL106:
 926              		.loc 1 912 0
 927 004e 0028     		cmp	r0, #0
 928 0050 51D0     		beq	.L85
 929              	.L77:
 930              	.LVL107:
 931              		.loc 1 918 0
 932 0052 002C     		cmp	r4, #0
 933 0054 7DD1     		bne	.L78
 934              		.loc 1 921 0
 935 0056 049B     		ldr	r3, [sp, #16]
 936 0058 0372     		strb	r3, [r0, #8]
 937              		.loc 1 922 0
 938 005a 059B     		ldr	r3, [sp, #20]
 939 005c 4372     		strb	r3, [r0, #9]
 940              	.LVL108:
 941 005e 0321     		movs	r1, #3
 942 0060 0223     		movs	r3, #2
 943              	.L79:
 944              		.loc 1 932 0
 945 0062 0344     		add	r3, r3, r0
 946              		.loc 1 930 0
 947 0064 621C     		adds	r2, r4, #1
 948              		.loc 1 932 0
 949 0066 18F80440 		ldrb	r4, [r8, r4]	@ zero_extendqisi2
 950              	.LVL109:
 951 006a 1C72     		strb	r4, [r3, #8]
 952              		.loc 1 930 0
 953 006c 94B2     		uxth	r4, r2
 954              	.LVL110:
 955 006e 651E     		subs	r5, r4, #1
 956 0070 CA1D     		adds	r2, r1, #7
 957 0072 6FF0060B 		mvn	fp, #6
 958 0076 4544     		add	r5, r5, r8
 959 0078 0244     		add	r2, r2, r0
 960 007a ABEB000B 		sub	fp, fp, r0
 961 007e 00E0     		b	.L80
 962              	.L88:
 963 0080 1946     		mov	r1, r3
 964              	.L80:
 965              	.LVL111:
 966 0082 4B1C     		adds	r3, r1, #1
 967 0084 04F1010C 		add	ip, r4, #1
 968 0088 A145     		cmp	r9, r4
 969 008a DBB2     		uxtb	r3, r3
ARM GAS  /tmp/cc2f1tkm.s 			page 18


 970 008c 0BEB020E 		add	lr, fp, r2
 971 0090 1FFA8CF4 		uxth	r4, ip
 972              	.LVL112:
 973 0094 62D0     		beq	.L101
 974              		.loc 1 932 0
 975 0096 15F801CF 		ldrb	ip, [r5, #1]!	@ zero_extendqisi2
 976 009a 02F801CF 		strb	ip, [r2, #1]!
 977              	.LVL113:
 978              		.loc 1 930 0
 979 009e 062B     		cmp	r3, #6
 980 00a0 EED9     		bls	.L88
 981 00a2 0231     		adds	r1, r1, #2
 982 00a4 9E46     		mov	lr, r3
 983 00a6 CBB2     		uxtb	r3, r1
 984              	.L81:
 985              		.loc 1 935 0
 986 00a8 A145     		cmp	r9, r4
 987 00aa 08BF     		it	eq
 988 00ac 4FF0400A 		moveq	r10, #64
 989              	.LVL114:
 990              	.L83:
 991              		.loc 1 937 0
 992 00b0 029A     		ldr	r2, [sp, #8]
 993 00b2 1278     		ldrb	r2, [r2]	@ zero_extendqisi2
 994 00b4 02F01F02 		and	r2, r2, #31
 995 00b8 8644     		add	lr, lr, r0
 996 00ba 42EA4712 		orr	r2, r2, r7, lsl #5
 997 00be 4AEA020A 		orr	r10, r10, r2
 998              	.LVL115:
 999              		.loc 1 938 0
 1000 00c2 019A     		ldr	r2, [sp, #4]
 1001              		.loc 1 937 0
 1002 00c4 8EF808A0 		strb	r10, [lr, #8]
 1003              		.loc 1 939 0
 1004 00c8 0374     		strb	r3, [r0, #16]
 1005              		.loc 1 940 0
 1006 00ca 039B     		ldr	r3, [sp, #12]
 1007              		.loc 1 938 0
 1008 00cc 42F00045 		orr	r5, r2, #-2147483648
 1009              		.loc 1 940 0
 1010 00d0 0146     		mov	r1, r0
 1011              		.loc 1 938 0
 1012 00d2 4560     		str	r5, [r0, #4]
 1013              		.loc 1 940 0
 1014 00d4 03F11C00 		add	r0, r3, #28
 1015              	.LVL116:
 1016 00d8 FFF7FEFF 		bl	pushTxQueue.isra.0
 1017              	.LVL117:
 1018 00dc 0136     		adds	r6, r6, #1
 1019              	.LVL118:
 1020              	.LBE246:
 1021              		.loc 1 909 0
 1022 00de A145     		cmp	r9, r4
 1023              	.LBB247:
 1024              		.loc 1 943 0
 1025 00e0 87F00107 		eor	r7, r7, #1
 1026              	.LVL119:
ARM GAS  /tmp/cc2f1tkm.s 			page 19


 1027 00e4 36B2     		sxth	r6, r6
 1028              	.LVL120:
 1029              		.loc 1 944 0
 1030 00e6 4FF0000A 		mov	r10, #0
 1031              	.LBE247:
 1032              		.loc 1 909 0
 1033 00ea 2ED0     		beq	.L97
 1034              	.LVL121:
 1035              	.LBB248:
 1036              		.loc 1 911 0
 1037 00ec 0098     		ldr	r0, [sp]
 1038 00ee FFF7FEFF 		bl	createTxItem
 1039              	.LVL122:
 1040              		.loc 1 912 0
 1041 00f2 0028     		cmp	r0, #0
 1042 00f4 ADD1     		bne	.L77
 1043              	.LVL123:
 1044              	.L85:
 1045              		.loc 1 914 0
 1046 00f6 6FF00206 		mvn	r6, #2
 1047              	.LBE248:
 1048              	.LBE250:
 1049              	.LBE242:
 1050              	.LBE241:
 1051              		.loc 1 949 0
 1052 00fa 3046     		mov	r0, r6
 1053 00fc 07B0     		add	sp, sp, #28
 1054              		.cfi_remember_state
 1055              		.cfi_def_cfa_offset 36
 1056              		@ sp needed
 1057 00fe BDE8F08F 		pop	{r4, r5, r6, r7, r8, r9, r10, fp, pc}
 1058              	.LVL124:
 1059              	.L100:
 1060              		.cfi_restore_state
 1061 0102 00F10C03 		add	r3, r0, #12
 1062              	.LVL125:
 1063 0106 0093     		str	r3, [sp]
 1064              	.L76:
 1065              	.LVL126:
 1066              	.LBB253:
 1067              		.loc 1 886 0
 1068 0108 0098     		ldr	r0, [sp]
 1069              	.LVL127:
 1070 010a FFF7FEFF 		bl	createTxItem
 1071              	.LVL128:
 1072              		.loc 1 887 0
 1073 010e 0446     		mov	r4, r0
 1074 0110 0028     		cmp	r0, #0
 1075 0112 F0D0     		beq	.L85
 1076              		.loc 1 892 0
 1077 0114 4A46     		mov	r2, r9
 1078 0116 1099     		ldr	r1, [sp, #64]
 1079 0118 0830     		adds	r0, r0, #8
 1080              	.LVL129:
 1081 011a FFF7FEFF 		bl	memcpy
 1082              	.LVL130:
 1083              		.loc 1 894 0
ARM GAS  /tmp/cc2f1tkm.s 			page 20


 1084 011e 09F10103 		add	r3, r9, #1
 1085 0122 2374     		strb	r3, [r4, #16]
 1086              		.loc 1 895 0
 1087 0124 029B     		ldr	r3, [sp, #8]
 1088 0126 1A78     		ldrb	r2, [r3]	@ zero_extendqisi2
 1089              		.loc 1 896 0
 1090 0128 019B     		ldr	r3, [sp, #4]
 1091              		.loc 1 895 0
 1092 012a A144     		add	r9, r9, r4
 1093 012c 02F01F02 		and	r2, r2, #31
 1094              		.loc 1 896 0
 1095 0130 43F00043 		orr	r3, r3, #-2147483648
 1096              		.loc 1 895 0
 1097 0134 62F03F02 		orn	r2, r2, #63
 1098 0138 89F80820 		strb	r2, [r9, #8]
 1099              		.loc 1 898 0
 1100 013c 08F11C00 		add	r0, r8, #28
 1101 0140 2146     		mov	r1, r4
 1102              		.loc 1 896 0
 1103 0142 6360     		str	r3, [r4, #4]
 1104              		.loc 1 898 0
 1105 0144 FFF7FEFF 		bl	pushTxQueue.isra.0
 1106              	.LVL131:
 1107              		.loc 1 899 0
 1108 0148 0126     		movs	r6, #1
 1109              	.LVL132:
 1110              	.L97:
 1111              	.LBE253:
 1112              		.loc 1 949 0
 1113 014a 3046     		mov	r0, r6
 1114 014c 07B0     		add	sp, sp, #28
 1115              		.cfi_remember_state
 1116              		.cfi_def_cfa_offset 36
 1117              		@ sp needed
 1118 014e BDE8F08F 		pop	{r4, r5, r6, r7, r8, r9, r10, fp, pc}
 1119              	.LVL133:
 1120              	.L78:
 1121              		.cfi_restore_state
 1122              	.LBB254:
 1123              	.LBB252:
 1124              	.LBB251:
 1125              	.LBB249:
 1126              		.loc 1 930 0
 1127 0152 A145     		cmp	r9, r4
 1128 0154 06D9     		bls	.L102
 1129 0156 0121     		movs	r1, #1
 1130 0158 0023     		movs	r3, #0
 1131 015a 82E7     		b	.L79
 1132              	.LVL134:
 1133              	.L101:
 1134 015c 4C46     		mov	r4, r9
 1135              		.loc 1 935 0
 1136 015e 4FF0400A 		mov	r10, #64
 1137              	.LVL135:
 1138 0162 A5E7     		b	.L83
 1139              	.LVL136:
 1140              	.L102:
ARM GAS  /tmp/cc2f1tkm.s 			page 21


 1141              		.loc 1 930 0
 1142 0164 0123     		movs	r3, #1
 1143 0166 4FF0000E 		mov	lr, #0
 1144 016a 9DE7     		b	.L81
 1145              	.LVL137:
 1146              	.L87:
 1147              	.LBE249:
 1148              	.LBE251:
 1149              	.LBE252:
 1150              	.LBE254:
 1151              		.loc 1 874 0
 1152 016c 6FF00106 		mvn	r6, #1
 1153 0170 EBE7     		b	.L97
 1154              		.cfi_endproc
 1155              	.LFE18:
 1156              		.size	enqueueTxFrames, .-enqueueTxFrames
 1157 0172 00BF     		.section	.text.canardInit,"ax",%progbits
 1158              		.align	1
 1159              		.p2align 4,,15
 1160              		.global	canardInit
 1161              		.syntax unified
 1162              		.thumb
 1163              		.thumb_func
 1164              		.fpu fpv4-sp-d16
 1165              		.type	canardInit, %function
 1166              	canardInit:
 1167              	.LFB0:
 1168              		.loc 1 78 0
 1169              		.cfi_startproc
 1170              		@ args = 8, pretend = 0, frame = 0
 1171              		@ frame_needed = 0, uses_anonymous_args = 0
 1172              		@ link register save eliminated.
 1173              	.LVL138:
 1174 0000 70B4     		push	{r4, r5, r6}
 1175              		.cfi_def_cfa_offset 12
 1176              		.cfi_offset 4, -12
 1177              		.cfi_offset 5, -8
 1178              		.cfi_offset 6, -4
 1179              		.loc 1 98 0
 1180 0002 5209     		lsrs	r2, r2, #5
 1181              	.LVL139:
 1182              		.loc 1 78 0
 1183 0004 DDE90364 		ldrd	r6, r4, [sp, #12]
 1184 0008 4FF6FF75 		movw	r5, #65535
 1185 000c 9542     		cmp	r5, r2
 1186              		.loc 1 92 0
 1187 000e 8360     		str	r3, [r0, #8]
 1188 0010 28BF     		it	cs
 1189 0012 1546     		movcs	r5, r2
 1190              	.LVL140:
 1191              		.loc 1 89 0
 1192 0014 0023     		movs	r3, #0
 1193              	.LVL141:
 1194              		.loc 1 93 0
 1195 0016 4660     		str	r6, [r0, #4]
 1196              		.loc 1 96 0
 1197 0018 0462     		str	r4, [r0, #32]
ARM GAS  /tmp/cc2f1tkm.s 			page 22


 1198              		.loc 1 89 0
 1199 001a 0360     		str	r3, [r0]	@ unaligned
 1200              		.loc 1 104 0
 1201 001c AEB2     		uxth	r6, r5
 1202              	.LVL142:
 1203              		.loc 1 89 0
 1204 001e C360     		str	r3, [r0, #12]	@ unaligned
 1205 0020 0361     		str	r3, [r0, #16]	@ unaligned
 1206 0022 4361     		str	r3, [r0, #20]	@ unaligned
 1207              		.loc 1 91 0
 1208 0024 0370     		strb	r3, [r0]
 1209              		.loc 1 95 0
 1210 0026 C0E90633 		strd	r3, r3, [r0, #24]
 1211              	.LBB255:
 1212              	.LBB256:
 1213              		.loc 1 1540 0
 1214 002a 00F10C04 		add	r4, r0, #12
 1215              	.LVL143:
 1216              		.loc 1 1541 0
 1217 002e 72B1     		cbz	r2, .L106
 1218              	.LVL144:
 1219              	.L105:
 1220              		.loc 1 1545 0
 1221 0030 0133     		adds	r3, r3, #1
 1222              	.LVL145:
 1223              		.loc 1 1543 0
 1224 0032 0A46     		mov	r2, r1
 1225              		.loc 1 1541 0
 1226 0034 9D42     		cmp	r5, r3
 1227              		.loc 1 1543 0
 1228 0036 2160     		str	r1, [r4]
 1229              	.LVL146:
 1230 0038 01F12001 		add	r1, r1, #32
 1231              	.LVL147:
 1232 003c 1446     		mov	r4, r2
 1233              		.loc 1 1541 0
 1234 003e F7D8     		bhi	.L105
 1235              	.LVL148:
 1236              	.L104:
 1237              		.loc 1 1547 0
 1238 0040 0023     		movs	r3, #0
 1239 0042 1360     		str	r3, [r2]
 1240              		.loc 1 1549 0
 1241 0044 0682     		strh	r6, [r0, #16]	@ movhi
 1242              		.loc 1 1550 0
 1243 0046 4382     		strh	r3, [r0, #18]	@ movhi
 1244              		.loc 1 1551 0
 1245 0048 8382     		strh	r3, [r0, #20]	@ movhi
 1246              	.LVL149:
 1247              	.LBE256:
 1248              	.LBE255:
 1249              		.loc 1 105 0
 1250 004a 70BC     		pop	{r4, r5, r6}
 1251              		.cfi_remember_state
 1252              		.cfi_restore 6
 1253              		.cfi_restore 5
 1254              		.cfi_restore 4
ARM GAS  /tmp/cc2f1tkm.s 			page 23


 1255              		.cfi_def_cfa_offset 0
 1256              	.LVL150:
 1257 004c 7047     		bx	lr
 1258              	.LVL151:
 1259              	.L106:
 1260              		.cfi_restore_state
 1261              	.LBB258:
 1262              	.LBB257:
 1263              		.loc 1 1540 0
 1264 004e 2246     		mov	r2, r4
 1265 0050 F6E7     		b	.L104
 1266              	.LBE257:
 1267              	.LBE258:
 1268              		.cfi_endproc
 1269              	.LFE0:
 1270              		.size	canardInit, .-canardInit
 1271 0052 00BF     		.section	.text.canardGetUserReference,"ax",%progbits
 1272              		.align	1
 1273              		.p2align 4,,15
 1274              		.global	canardGetUserReference
 1275              		.syntax unified
 1276              		.thumb
 1277              		.thumb_func
 1278              		.fpu fpv4-sp-d16
 1279              		.type	canardGetUserReference, %function
 1280              	canardGetUserReference:
 1281              	.LFB1:
 1282              		.loc 1 108 0
 1283              		.cfi_startproc
 1284              		@ args = 0, pretend = 0, frame = 0
 1285              		@ frame_needed = 0, uses_anonymous_args = 0
 1286              		@ link register save eliminated.
 1287              	.LVL152:
 1288              		.loc 1 111 0
 1289 0000 006A     		ldr	r0, [r0, #32]
 1290              	.LVL153:
 1291 0002 7047     		bx	lr
 1292              		.cfi_endproc
 1293              	.LFE1:
 1294              		.size	canardGetUserReference, .-canardGetUserReference
 1295              		.section	.text.canardSetLocalNodeID,"ax",%progbits
 1296              		.align	1
 1297              		.p2align 4,,15
 1298              		.global	canardSetLocalNodeID
 1299              		.syntax unified
 1300              		.thumb
 1301              		.thumb_func
 1302              		.fpu fpv4-sp-d16
 1303              		.type	canardSetLocalNodeID, %function
 1304              	canardSetLocalNodeID:
 1305              	.LFB2:
 1306              		.loc 1 114 0
 1307              		.cfi_startproc
 1308              		@ args = 0, pretend = 0, frame = 0
 1309              		@ frame_needed = 0, uses_anonymous_args = 0
 1310              		@ link register save eliminated.
 1311              	.LVL154:
ARM GAS  /tmp/cc2f1tkm.s 			page 24


 1312              		.loc 1 117 0
 1313 0000 0378     		ldrb	r3, [r0]	@ zero_extendqisi2
 1314 0002 1BB9     		cbnz	r3, .L110
 1315              		.loc 1 117 0 is_stmt 0 discriminator 1
 1316 0004 4BB2     		sxtb	r3, r1
 1317 0006 002B     		cmp	r3, #0
 1318              		.loc 1 121 0 is_stmt 1 discriminator 1
 1319 0008 C8BF     		it	gt
 1320 000a 0170     		strbgt	r1, [r0]
 1321              	.L110:
 1322              		.loc 1 127 0
 1323 000c 7047     		bx	lr
 1324              		.cfi_endproc
 1325              	.LFE2:
 1326              		.size	canardSetLocalNodeID, .-canardSetLocalNodeID
 1327 000e 00BF     		.section	.text.canardGetLocalNodeID,"ax",%progbits
 1328              		.align	1
 1329              		.p2align 4,,15
 1330              		.global	canardGetLocalNodeID
 1331              		.syntax unified
 1332              		.thumb
 1333              		.thumb_func
 1334              		.fpu fpv4-sp-d16
 1335              		.type	canardGetLocalNodeID, %function
 1336              	canardGetLocalNodeID:
 1337              	.LFB3:
 1338              		.loc 1 130 0
 1339              		.cfi_startproc
 1340              		@ args = 0, pretend = 0, frame = 0
 1341              		@ frame_needed = 0, uses_anonymous_args = 0
 1342              		@ link register save eliminated.
 1343              	.LVL155:
 1344              		.loc 1 132 0
 1345 0000 0078     		ldrb	r0, [r0]	@ zero_extendqisi2
 1346              	.LVL156:
 1347 0002 7047     		bx	lr
 1348              		.cfi_endproc
 1349              	.LFE3:
 1350              		.size	canardGetLocalNodeID, .-canardGetLocalNodeID
 1351              		.section	.text.canardBroadcast,"ax",%progbits
 1352              		.align	1
 1353              		.p2align 4,,15
 1354              		.global	canardBroadcast
 1355              		.syntax unified
 1356              		.thumb
 1357              		.thumb_func
 1358              		.fpu fpv4-sp-d16
 1359              		.type	canardBroadcast, %function
 1360              	canardBroadcast:
 1361              	.LFB4:
 1362              		.loc 1 141 0
 1363              		.cfi_startproc
 1364              		@ args = 20, pretend = 0, frame = 0
 1365              		@ frame_needed = 0, uses_anonymous_args = 0
 1366              	.LVL157:
 1367 0000 2DE9F047 		push	{r4, r5, r6, r7, r8, r9, r10, lr}
 1368              		.cfi_def_cfa_offset 32
ARM GAS  /tmp/cc2f1tkm.s 			page 25


 1369              		.cfi_offset 4, -32
 1370              		.cfi_offset 5, -28
 1371              		.cfi_offset 6, -24
 1372              		.cfi_offset 7, -20
 1373              		.cfi_offset 8, -16
 1374              		.cfi_offset 9, -12
 1375              		.cfi_offset 10, -8
 1376              		.cfi_offset 14, -4
 1377 0004 82B0     		sub	sp, sp, #8
 1378              		.cfi_def_cfa_offset 40
 1379              		.loc 1 141 0
 1380 0006 0D9F     		ldr	r7, [sp, #52]
 1381 0008 BDF82850 		ldrh	r5, [sp, #40]
 1382 000c 0B9E     		ldr	r6, [sp, #44]
 1383 000e 9DF830E0 		ldrb	lr, [sp, #48]	@ zero_extendqisi2
 1384 0012 BDF838C0 		ldrh	ip, [sp, #56]
 1385              		.loc 1 142 0
 1386 0016 002F     		cmp	r7, #0
 1387 0018 00F09080 		beq	.L141
 1388              	.L114:
 1389              		.loc 1 146 0
 1390 001c BEF11F0F 		cmp	lr, #31
 1391 0020 00F29080 		bhi	.L133
 1392              	.LVL158:
 1393              	.LBB259:
 1394              	.LBB260:
 1395              		.loc 1 131 0
 1396 0024 0178     		ldrb	r1, [r0]	@ zero_extendqisi2
 1397              	.LVL159:
 1398              	.LBE260:
 1399              	.LBE259:
 1400              		.loc 1 154 0
 1401 0026 0029     		cmp	r1, #0
 1402 0028 3DD1     		bne	.L116
 1403              	.LBB261:
 1404              		.loc 1 156 0
 1405 002a BCF1070F 		cmp	ip, #7
 1406 002e 00F28F80 		bhi	.L132
 1407              		.loc 1 163 0
 1408 0032 35F00303 		bics	r3, r5, #3
 1409 0036 40F08580 		bne	.L133
 1410              	.LVL160:
 1411 003a 07EB0C09 		add	r9, r7, ip
 1412              		.loc 1 169 0
 1413 003e 3946     		mov	r1, r7
 1414              	.LBB262:
 1415              	.LBB263:
 1416              		.loc 1 1525 0
 1417 0040 4945     		cmp	r1, r9
 1418              	.LBE263:
 1419              	.LBE262:
 1420              		.loc 1 169 0
 1421 0042 4FF6FF73 		movw	r3, #65535
 1422              	.LBB271:
 1423              	.LBB270:
 1424              	.LBB264:
 1425              	.LBB265:
ARM GAS  /tmp/cc2f1tkm.s 			page 26


 1426              	.LBB266:
 1427              		.loc 1 1504 0
 1428 0046 41F22108 		movw	r8, #4129
 1429              	.LVL161:
 1430              	.LBE266:
 1431              	.LBE265:
 1432              	.LBE264:
 1433              		.loc 1 1525 0
 1434 004a 12D0     		beq	.L142
 1435              	.LVL162:
 1436              	.L120:
 1437              	.LBB269:
 1438              	.LBB268:
 1439              		.loc 1 1499 0
 1440 004c 11F8012B 		ldrb	r2, [r1], #1	@ zero_extendqisi2
 1441              	.LVL163:
 1442 0050 83EA0223 		eor	r3, r3, r2, lsl #8
 1443              	.LVL164:
 1444 0054 0822     		movs	r2, #8
 1445              	.LVL165:
 1446              	.L119:
 1447              	.LBB267:
 1448              		.loc 1 1502 0
 1449 0056 1CB2     		sxth	r4, r3
 1450 0058 5B00     		lsls	r3, r3, #1
 1451              	.LVL166:
 1452 005a 002C     		cmp	r4, #0
 1453 005c 02F1FF32 		add	r2, r2, #-1
 1454              	.LVL167:
 1455 0060 9BB2     		uxth	r3, r3
 1456              		.loc 1 1504 0
 1457 0062 B8BF     		it	lt
 1458 0064 83EA0803 		eorlt	r3, r3, r8
 1459              	.LVL168:
 1460              		.loc 1 1500 0
 1461 0068 12F0FF02 		ands	r2, r2, #255
 1462 006c F3D1     		bne	.L119
 1463              	.LVL169:
 1464              	.LBE267:
 1465              	.LBE268:
 1466              	.LBE269:
 1467              		.loc 1 1525 0
 1468 006e 4945     		cmp	r1, r9
 1469 0070 ECD1     		bne	.L120
 1470              	.LVL170:
 1471              	.L142:
 1472              	.LBE270:
 1473              	.LBE271:
 1474              		.loc 1 171 0
 1475 0072 2902     		lsls	r1, r5, #8
 1476              		.loc 1 169 0
 1477 0074 47F6FE72 		movw	r2, #32766
 1478              		.loc 1 170 0
 1479 0078 41EA0E61 		orr	r1, r1, lr, lsl #24
 1480 007c 1340     		ands	r3, r3, r2
 1481              	.LVL171:
 1482 007e 41EA4321 		orr	r1, r1, r3, lsl #9
ARM GAS  /tmp/cc2f1tkm.s 			page 27


 1483              	.LVL172:
 1484              	.LBE261:
 1485              		.loc 1 152 0
 1486 0082 4FF6FF74 		movw	r4, #65535
 1487              	.LVL173:
 1488              	.L121:
 1489              		.loc 1 184 0
 1490 0086 2346     		mov	r3, r4
 1491 0088 CDE9007C 		strd	r7, ip, [sp]
 1492 008c 3246     		mov	r2, r6
 1493 008e FFF7FEFF 		bl	enqueueTxFrames
 1494              	.LVL174:
 1495              	.LBB272:
 1496              	.LBB273:
 1497              		.loc 1 855 0
 1498 0092 3378     		ldrb	r3, [r6]	@ zero_extendqisi2
 1499 0094 0133     		adds	r3, r3, #1
 1500 0096 DBB2     		uxtb	r3, r3
 1501              		.loc 1 856 0
 1502 0098 1F2B     		cmp	r3, #31
 1503              		.loc 1 858 0
 1504 009a 88BF     		it	hi
 1505 009c 0023     		movhi	r3, #0
 1506 009e 3370     		strb	r3, [r6]
 1507              	.LVL175:
 1508              	.L115:
 1509              	.LBE273:
 1510              	.LBE272:
 1511              		.loc 1 189 0
 1512 00a0 02B0     		add	sp, sp, #8
 1513              		.cfi_remember_state
 1514              		.cfi_def_cfa_offset 32
 1515              		@ sp needed
 1516 00a2 BDE8F087 		pop	{r4, r5, r6, r7, r8, r9, r10, pc}
 1517              	.LVL176:
 1518              	.L116:
 1519              		.cfi_restore_state
 1520              		.loc 1 175 0
 1521 00a6 41EA0521 		orr	r1, r1, r5, lsl #8
 1522              		.loc 1 177 0
 1523 00aa BCF1070F 		cmp	ip, #7
 1524              		.loc 1 175 0
 1525 00ae 41EA0E61 		orr	r1, r1, lr, lsl #24
 1526              	.LVL177:
 1527              		.loc 1 177 0
 1528 00b2 4AD9     		bls	.L134
 1529 00b4 4FF00008 		mov	r8, #0
 1530 00b8 4FF6FF74 		movw	r4, #65535
 1531              	.LBB274:
 1532              	.LBB275:
 1533              	.LBB276:
 1534              	.LBB277:
 1535              	.LBB278:
 1536              		.loc 1 1504 0
 1537 00bc 41F22109 		movw	r9, #4129
 1538              	.L124:
 1539              	.LVL178:
ARM GAS  /tmp/cc2f1tkm.s 			page 28


 1540              	.LBE278:
 1541              	.LBE277:
 1542              	.LBE276:
 1543              		.loc 1 1518 0
 1544 00c0 C8F1200A 		rsb	r10, r8, #32
 1545 00c4 03FA0AFA 		lsl	r10, r3, r10
 1546 00c8 22FA08F5 		lsr	r5, r2, r8
 1547 00cc A8F1200E 		sub	lr, r8, #32
 1548 00d0 45EA0A05 		orr	r5, r5, r10
 1549 00d4 23FA0EFE 		lsr	lr, r3, lr
 1550 00d8 45EA0E05 		orr	r5, r5, lr
 1551              	.LBB281:
 1552              	.LBB280:
 1553              		.loc 1 1499 0
 1554 00dc EDB2     		uxtb	r5, r5
 1555 00de 84EA0524 		eor	r4, r4, r5, lsl #8
 1556              	.LVL179:
 1557 00e2 0825     		movs	r5, #8
 1558              	.LVL180:
 1559              	.L123:
 1560              	.LBB279:
 1561              		.loc 1 1502 0
 1562 00e4 0FFA84FE 		sxth	lr, r4
 1563 00e8 6400     		lsls	r4, r4, #1
 1564              	.LVL181:
 1565 00ea BEF1000F 		cmp	lr, #0
 1566 00ee 05F1FF35 		add	r5, r5, #-1
 1567              	.LVL182:
 1568 00f2 A4B2     		uxth	r4, r4
 1569              		.loc 1 1504 0
 1570 00f4 B8BF     		it	lt
 1571 00f6 84EA0904 		eorlt	r4, r4, r9
 1572              	.LVL183:
 1573              		.loc 1 1500 0
 1574 00fa 15F0FF05 		ands	r5, r5, #255
 1575 00fe F1D1     		bne	.L123
 1576              	.LVL184:
 1577 0100 08F10808 		add	r8, r8, #8
 1578              	.LVL185:
 1579              	.LBE279:
 1580              	.LBE280:
 1581              	.LBE281:
 1582              		.loc 1 1516 0
 1583 0104 B8F1400F 		cmp	r8, #64
 1584 0108 DAD1     		bne	.L124
 1585              	.LVL186:
 1586 010a 07EB0C08 		add	r8, r7, ip
 1587              	.LBE275:
 1588              	.LBE274:
 1589              		.loc 1 180 0
 1590 010e 3B46     		mov	r3, r7
 1591              	.LBB282:
 1592              	.LBB283:
 1593              	.LBB284:
 1594              	.LBB285:
 1595              	.LBB286:
 1596              		.loc 1 1504 0
ARM GAS  /tmp/cc2f1tkm.s 			page 29


 1597 0110 41F2210E 		movw	lr, #4129
 1598              	.LVL187:
 1599              	.L125:
 1600              	.LBE286:
 1601              	.LBE285:
 1602              	.LBE284:
 1603              		.loc 1 1525 0
 1604 0114 9845     		cmp	r8, r3
 1605 0116 B6D0     		beq	.L121
 1606              	.LVL188:
 1607              	.LBB289:
 1608              	.LBB288:
 1609              		.loc 1 1499 0
 1610 0118 13F8012B 		ldrb	r2, [r3], #1	@ zero_extendqisi2
 1611              	.LVL189:
 1612 011c 84EA0224 		eor	r4, r4, r2, lsl #8
 1613              	.LVL190:
 1614 0120 0822     		movs	r2, #8
 1615              	.LVL191:
 1616              	.L127:
 1617              	.LBB287:
 1618              		.loc 1 1502 0
 1619 0122 25B2     		sxth	r5, r4
 1620 0124 6400     		lsls	r4, r4, #1
 1621              	.LVL192:
 1622 0126 002D     		cmp	r5, #0
 1623 0128 02F1FF32 		add	r2, r2, #-1
 1624              	.LVL193:
 1625 012c A4B2     		uxth	r4, r4
 1626              		.loc 1 1504 0
 1627 012e B8BF     		it	lt
 1628 0130 84EA0E04 		eorlt	r4, r4, lr
 1629              	.LVL194:
 1630              		.loc 1 1500 0
 1631 0134 12F0FF02 		ands	r2, r2, #255
 1632 0138 F3D1     		bne	.L127
 1633 013a EBE7     		b	.L125
 1634              	.LVL195:
 1635              	.L141:
 1636              	.LBE287:
 1637              	.LBE288:
 1638              	.LBE289:
 1639              	.LBE283:
 1640              	.LBE282:
 1641              		.loc 1 142 0 discriminator 1
 1642 013c BCF1000F 		cmp	ip, #0
 1643 0140 3FF46CAF 		beq	.L114
 1644              	.L133:
 1645              		.loc 1 144 0
 1646 0144 6FF00100 		mvn	r0, #1
 1647              	.LVL196:
 1648 0148 AAE7     		b	.L115
 1649              	.LVL197:
 1650              	.L134:
 1651              		.loc 1 152 0
 1652 014a 4FF6FF74 		movw	r4, #65535
 1653 014e 9AE7     		b	.L121
ARM GAS  /tmp/cc2f1tkm.s 			page 30


 1654              	.LVL198:
 1655              	.L132:
 1656              	.LBB290:
 1657              		.loc 1 158 0
 1658 0150 6FF00300 		mvn	r0, #3
 1659              	.LVL199:
 1660 0154 A4E7     		b	.L115
 1661              	.LBE290:
 1662              		.cfi_endproc
 1663              	.LFE4:
 1664              		.size	canardBroadcast, .-canardBroadcast
 1665 0156 00BF     		.section	.text.canardRequestOrRespond,"ax",%progbits
 1666              		.align	1
 1667              		.p2align 4,,15
 1668              		.global	canardRequestOrRespond
 1669              		.syntax unified
 1670              		.thumb
 1671              		.thumb_func
 1672              		.fpu fpv4-sp-d16
 1673              		.type	canardRequestOrRespond, %function
 1674              	canardRequestOrRespond:
 1675              	.LFB5:
 1676              		.loc 1 200 0
 1677              		.cfi_startproc
 1678              		@ args = 24, pretend = 0, frame = 0
 1679              		@ frame_needed = 0, uses_anonymous_args = 0
 1680              	.LVL200:
 1681 0000 2DE9F047 		push	{r4, r5, r6, r7, r8, r9, r10, lr}
 1682              		.cfi_def_cfa_offset 32
 1683              		.cfi_offset 4, -32
 1684              		.cfi_offset 5, -28
 1685              		.cfi_offset 6, -24
 1686              		.cfi_offset 7, -20
 1687              		.cfi_offset 8, -16
 1688              		.cfi_offset 9, -12
 1689              		.cfi_offset 10, -8
 1690              		.cfi_offset 14, -4
 1691 0004 82B0     		sub	sp, sp, #8
 1692              		.cfi_def_cfa_offset 40
 1693              		.loc 1 200 0
 1694 0006 DDF838C0 		ldr	ip, [sp, #56]
 1695 000a 9DF82850 		ldrb	r5, [sp, #40]	@ zero_extendqisi2
 1696 000e 9DF83040 		ldrb	r4, [sp, #48]	@ zero_extendqisi2
 1697 0012 9DF83470 		ldrb	r7, [sp, #52]	@ zero_extendqisi2
 1698 0016 BDF83CE0 		ldrh	lr, [sp, #60]
 1699              		.loc 1 201 0
 1700 001a BCF1000F 		cmp	ip, #0
 1701 001e 67D0     		beq	.L164
 1702              	.L144:
 1703              		.loc 1 205 0
 1704 0020 1F2C     		cmp	r4, #31
 1705 0022 68D8     		bhi	.L156
 1706              	.LVL201:
 1707              	.LBB291:
 1708              	.LBB292:
 1709              		.loc 1 131 0
 1710 0024 0678     		ldrb	r6, [r0]	@ zero_extendqisi2
ARM GAS  /tmp/cc2f1tkm.s 			page 31


 1711              	.LVL202:
 1712              	.LBE292:
 1713              	.LBE291:
 1714              		.loc 1 209 0
 1715 0026 002E     		cmp	r6, #0
 1716 0028 68D0     		beq	.L157
 1717              		.loc 1 215 0
 1718 002a 0902     		lsls	r1, r1, #8
 1719              	.LVL203:
 1720              		.loc 1 214 0
 1721 002c 41F08001 		orr	r1, r1, #128
 1722 0030 41EAC731 		orr	r1, r1, r7, lsl #15
 1723 0034 41EA0541 		orr	r1, r1, r5, lsl #16
 1724 0038 3143     		orrs	r1, r1, r6
 1725              		.loc 1 219 0
 1726 003a BEF1070F 		cmp	lr, #7
 1727              		.loc 1 214 0
 1728 003e 41EA0461 		orr	r1, r1, r4, lsl #24
 1729              	.LVL204:
 1730              		.loc 1 219 0
 1731 0042 15D8     		bhi	.L165
 1732              		.loc 1 217 0
 1733 0044 4FF6FF74 		movw	r4, #65535
 1734              	.LVL205:
 1735              	.L146:
 1736              		.loc 1 225 0
 1737 0048 CDE900CE 		strd	ip, lr, [sp]
 1738 004c 2346     		mov	r3, r4
 1739 004e 0B9A     		ldr	r2, [sp, #44]
 1740 0050 FFF7FEFF 		bl	enqueueTxFrames
 1741              	.LVL206:
 1742              		.loc 1 227 0
 1743 0054 012F     		cmp	r7, #1
 1744 0056 08D1     		bne	.L145
 1745              	.LVL207:
 1746              	.LBB293:
 1747              	.LBB294:
 1748              		.loc 1 855 0
 1749 0058 0B9B     		ldr	r3, [sp, #44]
 1750              		.loc 1 858 0
 1751 005a 0B9A     		ldr	r2, [sp, #44]
 1752              		.loc 1 855 0
 1753 005c 1B78     		ldrb	r3, [r3]	@ zero_extendqisi2
 1754 005e 0133     		adds	r3, r3, #1
 1755 0060 DBB2     		uxtb	r3, r3
 1756              		.loc 1 856 0
 1757 0062 1F2B     		cmp	r3, #31
 1758              		.loc 1 858 0
 1759 0064 88BF     		it	hi
 1760 0066 0023     		movhi	r3, #0
 1761 0068 1370     		strb	r3, [r2]
 1762              	.LVL208:
 1763              	.L145:
 1764              	.LBE294:
 1765              	.LBE293:
 1766              		.loc 1 233 0
 1767 006a 02B0     		add	sp, sp, #8
ARM GAS  /tmp/cc2f1tkm.s 			page 32


 1768              		.cfi_remember_state
 1769              		.cfi_def_cfa_offset 32
 1770              		@ sp needed
 1771 006c BDE8F087 		pop	{r4, r5, r6, r7, r8, r9, r10, pc}
 1772              	.LVL209:
 1773              	.L165:
 1774              		.cfi_restore_state
 1775 0070 4FF00008 		mov	r8, #0
 1776 0074 4FF6FF74 		movw	r4, #65535
 1777              	.LBB295:
 1778              	.LBB296:
 1779              	.LBB297:
 1780              	.LBB298:
 1781              	.LBB299:
 1782              		.loc 1 1504 0
 1783 0078 41F22109 		movw	r9, #4129
 1784              	.L149:
 1785              	.LVL210:
 1786              	.LBE299:
 1787              	.LBE298:
 1788              	.LBE297:
 1789              		.loc 1 1518 0
 1790 007c C8F1200A 		rsb	r10, r8, #32
 1791 0080 03FA0AFA 		lsl	r10, r3, r10
 1792 0084 22FA08F5 		lsr	r5, r2, r8
 1793 0088 A8F12006 		sub	r6, r8, #32
 1794 008c 45EA0A05 		orr	r5, r5, r10
 1795 0090 23FA06F6 		lsr	r6, r3, r6
 1796 0094 3543     		orrs	r5, r5, r6
 1797              	.LBB302:
 1798              	.LBB301:
 1799              		.loc 1 1499 0
 1800 0096 EDB2     		uxtb	r5, r5
 1801 0098 84EA0524 		eor	r4, r4, r5, lsl #8
 1802              	.LVL211:
 1803 009c 0825     		movs	r5, #8
 1804              	.LVL212:
 1805              	.L148:
 1806              	.LBB300:
 1807              		.loc 1 1502 0
 1808 009e 26B2     		sxth	r6, r4
 1809 00a0 6400     		lsls	r4, r4, #1
 1810              	.LVL213:
 1811 00a2 002E     		cmp	r6, #0
 1812 00a4 05F1FF35 		add	r5, r5, #-1
 1813              	.LVL214:
 1814 00a8 A4B2     		uxth	r4, r4
 1815              		.loc 1 1504 0
 1816 00aa B8BF     		it	lt
 1817 00ac 84EA0904 		eorlt	r4, r4, r9
 1818              	.LVL215:
 1819              		.loc 1 1500 0
 1820 00b0 15F0FF05 		ands	r5, r5, #255
 1821 00b4 F3D1     		bne	.L148
 1822              	.LVL216:
 1823 00b6 08F10808 		add	r8, r8, #8
 1824              	.LVL217:
ARM GAS  /tmp/cc2f1tkm.s 			page 33


 1825              	.LBE300:
 1826              	.LBE301:
 1827              	.LBE302:
 1828              		.loc 1 1516 0
 1829 00ba B8F1400F 		cmp	r8, #64
 1830 00be DDD1     		bne	.L149
 1831              	.LVL218:
 1832 00c0 0CEB0E08 		add	r8, ip, lr
 1833              	.LBE296:
 1834              	.LBE295:
 1835              		.loc 1 222 0
 1836 00c4 6346     		mov	r3, ip
 1837              	.LBB303:
 1838              	.LBB304:
 1839              	.LBB305:
 1840              	.LBB306:
 1841              	.LBB307:
 1842              		.loc 1 1504 0
 1843 00c6 41F22106 		movw	r6, #4129
 1844              	.LVL219:
 1845              	.L150:
 1846              	.LBE307:
 1847              	.LBE306:
 1848              	.LBE305:
 1849              		.loc 1 1525 0
 1850 00ca 4345     		cmp	r3, r8
 1851 00cc BCD0     		beq	.L146
 1852              	.LVL220:
 1853              	.LBB310:
 1854              	.LBB309:
 1855              		.loc 1 1499 0
 1856 00ce 13F8015B 		ldrb	r5, [r3], #1	@ zero_extendqisi2
 1857              	.LVL221:
 1858 00d2 0822     		movs	r2, #8
 1859 00d4 84EA0524 		eor	r4, r4, r5, lsl #8
 1860              	.LVL222:
 1861              	.L152:
 1862              	.LBB308:
 1863              		.loc 1 1502 0
 1864 00d8 25B2     		sxth	r5, r4
 1865 00da 6400     		lsls	r4, r4, #1
 1866              	.LVL223:
 1867 00dc 002D     		cmp	r5, #0
 1868 00de 02F1FF32 		add	r2, r2, #-1
 1869              	.LVL224:
 1870 00e2 A4B2     		uxth	r4, r4
 1871              		.loc 1 1504 0
 1872 00e4 B8BF     		it	lt
 1873 00e6 7440     		eorlt	r4, r4, r6
 1874              	.LVL225:
 1875              		.loc 1 1500 0
 1876 00e8 12F0FF02 		ands	r2, r2, #255
 1877 00ec F4D1     		bne	.L152
 1878 00ee ECE7     		b	.L150
 1879              	.LVL226:
 1880              	.L164:
 1881              	.LBE308:
ARM GAS  /tmp/cc2f1tkm.s 			page 34


 1882              	.LBE309:
 1883              	.LBE310:
 1884              	.LBE304:
 1885              	.LBE303:
 1886              		.loc 1 201 0 discriminator 1
 1887 00f0 BEF1000F 		cmp	lr, #0
 1888 00f4 94D0     		beq	.L144
 1889              	.L156:
 1890              		.loc 1 203 0
 1891 00f6 6FF00100 		mvn	r0, #1
 1892              	.LVL227:
 1893 00fa B6E7     		b	.L145
 1894              	.LVL228:
 1895              	.L157:
 1896              		.loc 1 211 0
 1897 00fc 6FF00300 		mvn	r0, #3
 1898              	.LVL229:
 1899 0100 B3E7     		b	.L145
 1900              		.cfi_endproc
 1901              	.LFE5:
 1902              		.size	canardRequestOrRespond, .-canardRequestOrRespond
 1903 0102 00BF     		.section	.text.canardPeekTxQueue,"ax",%progbits
 1904              		.align	1
 1905              		.p2align 4,,15
 1906              		.global	canardPeekTxQueue
 1907              		.syntax unified
 1908              		.thumb
 1909              		.thumb_func
 1910              		.fpu fpv4-sp-d16
 1911              		.type	canardPeekTxQueue, %function
 1912              	canardPeekTxQueue:
 1913              	.LFB6:
 1914              		.loc 1 236 0
 1915              		.cfi_startproc
 1916              		@ args = 0, pretend = 0, frame = 0
 1917              		@ frame_needed = 0, uses_anonymous_args = 0
 1918              		@ link register save eliminated.
 1919              	.LVL230:
 1920              		.loc 1 237 0
 1921 0000 C069     		ldr	r0, [r0, #28]
 1922              	.LVL231:
 1923 0002 00B1     		cbz	r0, .L166
 1924              		.loc 1 241 0
 1925 0004 0430     		adds	r0, r0, #4
 1926              	.L166:
 1927              		.loc 1 242 0
 1928 0006 7047     		bx	lr
 1929              		.cfi_endproc
 1930              	.LFE6:
 1931              		.size	canardPeekTxQueue, .-canardPeekTxQueue
 1932              		.section	.text.canardPopTxQueue,"ax",%progbits
 1933              		.align	1
 1934              		.p2align 4,,15
 1935              		.global	canardPopTxQueue
 1936              		.syntax unified
 1937              		.thumb
 1938              		.thumb_func
ARM GAS  /tmp/cc2f1tkm.s 			page 35


 1939              		.fpu fpv4-sp-d16
 1940              		.type	canardPopTxQueue, %function
 1941              	canardPopTxQueue:
 1942              	.LFB7:
 1943              		.loc 1 245 0
 1944              		.cfi_startproc
 1945              		@ args = 0, pretend = 0, frame = 0
 1946              		@ frame_needed = 0, uses_anonymous_args = 0
 1947              		@ link register save eliminated.
 1948              	.LVL232:
 1949              		.loc 1 246 0
 1950 0000 C269     		ldr	r2, [r0, #28]
 1951              	.LVL233:
 1952              	.LBB311:
 1953              	.LBB312:
 1954              		.loc 1 1584 0
 1955 0002 438A     		ldrh	r3, [r0, #18]
 1956              		.loc 1 1580 0
 1957 0004 C168     		ldr	r1, [r0, #12]
 1958              	.LBE312:
 1959              	.LBE311:
 1960              		.loc 1 245 0
 1961 0006 10B4     		push	{r4}
 1962              		.cfi_def_cfa_offset 4
 1963              		.cfi_offset 4, -4
 1964              	.LBB316:
 1965              	.LBB313:
 1966              		.loc 1 1584 0
 1967 0008 013B     		subs	r3, r3, #1
 1968              	.LBE313:
 1969              	.LBE316:
 1970              		.loc 1 247 0
 1971 000a 1468     		ldr	r4, [r2]
 1972 000c C461     		str	r4, [r0, #28]
 1973              	.LVL234:
 1974              	.LBB317:
 1975              	.LBB314:
 1976              		.loc 1 1580 0
 1977 000e 1160     		str	r1, [r2]
 1978              	.LBE314:
 1979              	.LBE317:
 1980              		.loc 1 249 0
 1981 0010 5DF8044B 		ldr	r4, [sp], #4
 1982              		.cfi_restore 4
 1983              		.cfi_def_cfa_offset 0
 1984              	.LBB318:
 1985              	.LBB315:
 1986              		.loc 1 1581 0
 1987 0014 C260     		str	r2, [r0, #12]
 1988              		.loc 1 1584 0
 1989 0016 4382     		strh	r3, [r0, #18]	@ movhi
 1990              	.LVL235:
 1991              	.LBE315:
 1992              	.LBE318:
 1993              		.loc 1 249 0
 1994 0018 7047     		bx	lr
 1995              		.cfi_endproc
ARM GAS  /tmp/cc2f1tkm.s 			page 36


 1996              	.LFE7:
 1997              		.size	canardPopTxQueue, .-canardPopTxQueue
 1998 001a 00BF     		.section	.text.canardHandleRxFrame,"ax",%progbits
 1999              		.align	1
 2000              		.p2align 4,,15
 2001              		.global	canardHandleRxFrame
 2002              		.syntax unified
 2003              		.thumb
 2004              		.thumb_func
 2005              		.fpu fpv4-sp-d16
 2006              		.type	canardHandleRxFrame, %function
 2007              	canardHandleRxFrame:
 2008              	.LFB8:
 2009              		.loc 1 252 0
 2010              		.cfi_startproc
 2011              		@ args = 0, pretend = 0, frame = 64
 2012              		@ frame_needed = 0, uses_anonymous_args = 0
 2013              	.LVL236:
 2014 0000 2DE9F04F 		push	{r4, r5, r6, r7, r8, r9, r10, fp, lr}
 2015              		.cfi_def_cfa_offset 36
 2016              		.cfi_offset 4, -36
 2017              		.cfi_offset 5, -32
 2018              		.cfi_offset 6, -28
 2019              		.cfi_offset 7, -24
 2020              		.cfi_offset 8, -20
 2021              		.cfi_offset 9, -16
 2022              		.cfi_offset 10, -12
 2023              		.cfi_offset 11, -8
 2024              		.cfi_offset 14, -4
 2025              		.loc 1 253 0
 2026 0004 0C68     		ldr	r4, [r1]
 2027              	.LVL237:
 2028              	.LBB395:
 2029              	.LBB396:
 2030              		.loc 1 1093 0
 2031 0006 C4F3C015 		ubfx	r5, r4, #7, #1
 2032              	.LVL238:
 2033              	.LBE396:
 2034              	.LBE395:
 2035              		.loc 1 252 0
 2036 000a 93B0     		sub	sp, sp, #76
 2037              		.cfi_def_cfa_offset 112
 2038              		.loc 1 252 0
 2039 000c 9246     		mov	r10, r2
 2040 000e 9B46     		mov	fp, r3
 2041              	.LBB398:
 2042              	.LBB397:
 2043              		.loc 1 1094 0
 2044 0010 45B1     		cbz	r5, .L235
 2045              	.LBE397:
 2046              	.LBE398:
 2047              		.loc 1 260 0
 2048 0012 002C     		cmp	r4, #0
 2049              		.loc 1 253 0
 2050 0014 C4F3C036 		ubfx	r6, r4, #15, #1
 2051              		.loc 1 254 0
 2052 0018 C4F30627 		ubfx	r7, r4, #8, #7
ARM GAS  /tmp/cc2f1tkm.s 			page 37


 2053              	.LVL239:
 2054              		.loc 1 260 0
 2055 001c 07DB     		blt	.L307
 2056              	.LVL240:
 2057              	.L171:
 2058              		.loc 1 475 0
 2059 001e 13B0     		add	sp, sp, #76
 2060              		.cfi_remember_state
 2061              		.cfi_def_cfa_offset 36
 2062              		@ sp needed
 2063 0020 BDE8F08F 		pop	{r4, r5, r6, r7, r8, r9, r10, fp, pc}
 2064              	.LVL241:
 2065              	.L235:
 2066              		.cfi_restore_state
 2067              		.loc 1 260 0
 2068 0024 002C     		cmp	r4, #0
 2069              		.loc 1 253 0
 2070 0026 4FF00206 		mov	r6, #2
 2071              		.loc 1 254 0
 2072 002a 2F46     		mov	r7, r5
 2073              	.LVL242:
 2074              		.loc 1 260 0
 2075 002c F7DA     		bge	.L171
 2076              	.L307:
 2077              		.loc 1 261 0
 2078 002e 14F0C04F 		tst	r4, #1610612736
 2079 0032 F4D1     		bne	.L171
 2080              		.loc 1 263 0
 2081 0034 91F80CC0 		ldrb	ip, [r1, #12]	@ zero_extendqisi2
 2082              		.loc 1 262 0
 2083 0038 BCF1000F 		cmp	ip, #0
 2084 003c EFD0     		beq	.L171
 2085              		.loc 1 268 0
 2086 003e 022E     		cmp	r6, #2
 2087 0040 03D0     		beq	.L176
 2088 0042 90F800E0 		ldrb	lr, [r0]	@ zero_extendqisi2
 2089 0046 BE45     		cmp	lr, r7
 2090 0048 E9D1     		bne	.L171
 2091              	.L176:
 2092              	.LVL243:
 2093              		.loc 1 275 0
 2094 004a 04F07F03 		and	r3, r4, #127
 2095 004e 0293     		str	r3, [sp, #8]
 2096              	.LVL244:
 2097              	.LBB399:
 2098              	.LBB400:
 2099              	.LBB401:
 2100              	.LBB402:
 2101              		.loc 1 1094 0
 2102 0050 002D     		cmp	r5, #0
 2103 0052 00F0E580 		beq	.L308
 2104              	.LBE402:
 2105              	.LBE401:
 2106              		.loc 1 1084 0
 2107 0056 C4F30749 		ubfx	r9, r4, #16, #8
 2108              	.LVL245:
 2109              	.L179:
ARM GAS  /tmp/cc2f1tkm.s 			page 38


 2110              	.LBE400:
 2111              	.LBE399:
 2112              		.loc 1 280 0
 2113 005a 8C44     		add	ip, ip, r1
 2114 005c CDE904AB 		strd	r10, [sp, #16]
 2115 0060 0546     		mov	r5, r0
 2116              	.LVL246:
 2117              		.loc 1 278 0
 2118 0062 4FEA476A 		lsl	r10, r7, #25
 2119              		.loc 1 280 0
 2120 0066 9CF80380 		ldrb	r8, [ip, #3]	@ zero_extendqisi2
 2121              		.loc 1 277 0
 2122 006a 0298     		ldr	r0, [sp, #8]
 2123              	.LVL247:
 2124 006c 0391     		str	r1, [sp, #12]
 2125 006e 4AEA064A 		orr	r10, r10, r6, lsl #16
 2126 0072 4AEA804A 		orr	r10, r10, r0, lsl #18
 2127              		.loc 1 284 0
 2128 0076 5FEAD813 		lsrs	r3, r8, #7
 2129              		.loc 1 277 0
 2130 007a 4AEA090A 		orr	r10, r10, r9
 2131              	.LVL248:
 2132              		.loc 1 284 0
 2133 007e 0693     		str	r3, [sp, #24]
 2134 0080 00F05C81 		beq	.L180
 2135              	.LBB405:
 2136              		.loc 1 286 0
 2137 0084 0022     		movs	r2, #0
 2138              	.LVL249:
 2139 0086 0023     		movs	r3, #0
 2140 0088 12A9     		add	r1, sp, #72
 2141              	.LVL250:
 2142 008a 61E90823 		strd	r2, [r1, #-32]!
 2143              		.loc 1 288 0
 2144 008e 0090     		str	r0, [sp]
 2145 0090 6F68     		ldr	r7, [r5, #4]
 2146              	.LVL251:
 2147 0092 3346     		mov	r3, r6
 2148 0094 4A46     		mov	r2, r9
 2149 0096 2846     		mov	r0, r5
 2150 0098 B847     		blx	r7
 2151              	.LVL252:
 2152 009a 0028     		cmp	r0, #0
 2153 009c BFD0     		beq	.L171
 2154              	.LVL253:
 2155              	.LBB406:
 2156              	.LBB407:
 2157              		.loc 1 1118 0
 2158 009e AF69     		ldr	r7, [r5, #24]
 2159              	.LVL254:
 2160              		.loc 1 1120 0
 2161 00a0 002F     		cmp	r7, #0
 2162 00a2 00F06381 		beq	.L309
 2163              	.LVL255:
 2164              	.L182:
 2165              	.LBB408:
 2166              	.LBB409:
ARM GAS  /tmp/cc2f1tkm.s 			page 39


 2167              		.loc 1 1151 0
 2168 00a6 3B69     		ldr	r3, [r7, #16]
 2169 00a8 9A45     		cmp	r10, r3
 2170 00aa 0DD0     		beq	.L183
 2171              		.loc 1 1155 0
 2172 00ac 3F68     		ldr	r7, [r7]
 2173              	.LVL256:
 2174              		.loc 1 1149 0
 2175 00ae 002F     		cmp	r7, #0
 2176 00b0 F9D1     		bne	.L182
 2177              	.LVL257:
 2178              	.LBE409:
 2179              	.LBE408:
 2180              	.LBB410:
 2181              	.LBB411:
 2182              		.loc 1 1165 0
 2183 00b2 5146     		mov	r1, r10
 2184 00b4 05F10C00 		add	r0, r5, #12
 2185 00b8 FFF7FEFF 		bl	createRxState
 2186              	.LVL258:
 2187              		.loc 1 1167 0
 2188 00bc 0746     		mov	r7, r0
 2189 00be 0028     		cmp	r0, #0
 2190 00c0 ADD0     		beq	.L171
 2191              		.loc 1 1172 0
 2192 00c2 AB69     		ldr	r3, [r5, #24]
 2193 00c4 3B60     		str	r3, [r7]
 2194              	.LVL259:
 2195              	.L304:
 2196              		.loc 1 1173 0
 2197 00c6 AF61     		str	r7, [r5, #24]
 2198              	.L183:
 2199              	.LVL260:
 2200              	.LBE411:
 2201              	.LBE410:
 2202              	.LBE407:
 2203              	.LBE406:
 2204              		.loc 1 297 0
 2205 00c8 DDE90AAE 		ldrd	r10, lr, [sp, #40]
 2206              	.LVL261:
 2207 00cc 0020     		movs	r0, #0
 2208 00ce 4FF6FF73 		movw	r3, #65535
 2209              	.LBB413:
 2210              	.LBB414:
 2211              	.LBB415:
 2212              	.LBB416:
 2213              	.LBB417:
 2214              		.loc 1 1504 0
 2215 00d2 41F2210C 		movw	ip, #4129
 2216              	.LVL262:
 2217              	.L187:
 2218              	.LBE417:
 2219              	.LBE416:
 2220              	.LBE415:
 2221              		.loc 1 1518 0
 2222 00d6 C0F1200B 		rsb	fp, r0, #32
 2223 00da 0EFA0BFB 		lsl	fp, lr, fp
ARM GAS  /tmp/cc2f1tkm.s 			page 40


 2224 00de 2AFA00F2 		lsr	r2, r10, r0
 2225 00e2 A0F12001 		sub	r1, r0, #32
 2226 00e6 42EA0B02 		orr	r2, r2, fp
 2227 00ea 2EFA01F1 		lsr	r1, lr, r1
 2228 00ee 0A43     		orrs	r2, r2, r1
 2229              	.LBB420:
 2230              	.LBB419:
 2231              		.loc 1 1499 0
 2232 00f0 D2B2     		uxtb	r2, r2
 2233 00f2 83EA0223 		eor	r3, r3, r2, lsl #8
 2234              	.LVL263:
 2235 00f6 0822     		movs	r2, #8
 2236              	.LVL264:
 2237              	.L186:
 2238              	.LBB418:
 2239              		.loc 1 1502 0
 2240 00f8 19B2     		sxth	r1, r3
 2241 00fa 5B00     		lsls	r3, r3, #1
 2242              	.LVL265:
 2243 00fc 0029     		cmp	r1, #0
 2244 00fe 02F1FF32 		add	r2, r2, #-1
 2245              	.LVL266:
 2246 0102 9BB2     		uxth	r3, r3
 2247              		.loc 1 1504 0
 2248 0104 B8BF     		it	lt
 2249 0106 83EA0C03 		eorlt	r3, r3, ip
 2250              	.LVL267:
 2251              		.loc 1 1500 0
 2252 010a 12F0FF02 		ands	r2, r2, #255
 2253 010e F3D1     		bne	.L186
 2254              	.LVL268:
 2255 0110 0830     		adds	r0, r0, #8
 2256              	.LVL269:
 2257              	.LBE418:
 2258              	.LBE419:
 2259              	.LBE420:
 2260              		.loc 1 1516 0
 2261 0112 4028     		cmp	r0, #64
 2262 0114 DFD1     		bne	.L187
 2263              	.LVL270:
 2264              	.LBE414:
 2265              	.LBE413:
 2266              		.loc 1 297 0
 2267 0116 BB82     		strh	r3, [r7, #20]	@ movhi
 2268              	.L188:
 2269              	.LVL271:
 2270              	.LBE405:
 2271              		.loc 1 321 0
 2272 0118 97F817C0 		ldrb	ip, [r7, #23]	@ zero_extendqisi2
 2273 011c 08F01F0A 		and	r10, r8, #31
 2274              	.LBB422:
 2275              	.LBB423:
 2276              		.loc 1 843 0
 2277 0120 CCF38401 		ubfx	r1, ip, #2, #5
 2278 0124 AAEB0101 		sub	r1, r10, r1
 2279 0128 89B2     		uxth	r1, r1
 2280 012a 0FFA81FE 		sxth	lr, r1
ARM GAS  /tmp/cc2f1tkm.s 			page 41


 2281              	.LBE423:
 2282              	.LBE422:
 2283              		.loc 1 317 0
 2284 012e D7E90223 		ldrd	r2, [r7, #8]
 2285              	.LVL272:
 2286              	.LBB425:
 2287              	.LBB424:
 2288              		.loc 1 844 0
 2289 0132 BEF1000F 		cmp	lr, #0
 2290              		.loc 1 846 0
 2291 0136 BCBF     		itt	lt
 2292 0138 2031     		addlt	r1, r1, #32
 2293 013a 0FFA81FE 		sxthlt	lr, r1
 2294              	.LVL273:
 2295              	.LBE424:
 2296              	.LBE425:
 2297              		.loc 1 325 0
 2298 013e 52EA0301 		orrs	r1, r2, r3
 2299              		.loc 1 274 0
 2300 0142 C4F3046B 		ubfx	fp, r4, #24, #5
 2301              	.LVL274:
 2302              		.loc 1 325 0
 2303 0146 73D0     		beq	.L192
 2304              		.loc 1 318 0
 2305 0148 DDE90401 		ldrd	r0, [sp, #16]
 2306 014c 801A     		subs	r0, r0, r2
 2307 014e 61EB0301 		sbc	r1, r1, r3
 2308 0152 0246     		mov	r2, r0
 2309              	.LVL275:
 2310 0154 0B46     		mov	r3, r1
 2311              		.loc 1 324 0
 2312 0156 B848     		ldr	r0, .L317
 2313 0158 0021     		movs	r1, #0
 2314 015a 9942     		cmp	r1, r3
 2315 015c 08BF     		it	eq
 2316 015e 9042     		cmpeq	r0, r2
 2317 0160 66D3     		bcc	.L192
 2318              		.loc 1 325 0
 2319 0162 069B     		ldr	r3, [sp, #24]
 2320 0164 002B     		cmp	r3, #0
 2321 0166 6FD0     		beq	.L193
 2322              		.loc 1 326 0
 2323 0168 BEF1010F 		cmp	lr, #1
 2324 016c 22DD     		ble	.L195
 2325              	.LVL276:
 2326              		.loc 1 330 0
 2327 016e FB7D     		ldrb	r3, [r7, #23]	@ zero_extendqisi2
 2328              	.LBB426:
 2329              	.LBB427:
 2330              		.loc 1 1197 0
 2331 0170 7A68     		ldr	r2, [r7, #4]
 2332              	.LBE427:
 2333              	.LBE426:
 2334              		.loc 1 330 0
 2335 0172 68F38603 		bfi	r3, r8, #2, #5
 2336              	.LVL277:
 2337              		.loc 1 331 0
ARM GAS  /tmp/cc2f1tkm.s 			page 42


 2338 0176 6FF3C713 		bfc	r3, #7, #1
 2339 017a FB75     		strb	r3, [r7, #23]
 2340              	.LVL278:
 2341              	.LBB435:
 2342              	.LBB431:
 2343              		.loc 1 1197 0
 2344 017c 002A     		cmp	r2, #0
 2345 017e 00F0B481 		beq	.L310
 2346              	.L232:
 2347 0182 698A     		ldrh	r1, [r5, #18]
 2348 0184 EC68     		ldr	r4, [r5, #12]
 2349              	.LVL279:
 2350 0186 0139     		subs	r1, r1, #1
 2351 0188 89B2     		uxth	r1, r1
 2352 018a 01E0     		b	.L196
 2353              	.LVL280:
 2354              	.L236:
 2355 018c 1946     		mov	r1, r3
 2356 018e 0246     		mov	r2, r0
 2357              	.LVL281:
 2358              	.L196:
 2359              	.LBB428:
 2360              		.loc 1 1199 0
 2361 0190 1068     		ldr	r0, [r2]
 2362              	.LVL282:
 2363              	.LBB429:
 2364              	.LBB430:
 2365              		.loc 1 1580 0
 2366 0192 1460     		str	r4, [r2]
 2367 0194 4B1E     		subs	r3, r1, #1
 2368              		.loc 1 1581 0
 2369 0196 EA60     		str	r2, [r5, #12]
 2370              	.LVL283:
 2371 0198 1446     		mov	r4, r2
 2372 019a 9BB2     		uxth	r3, r3
 2373              	.LBE430:
 2374              	.LBE429:
 2375              	.LBE428:
 2376              		.loc 1 1197 0
 2377 019c 0028     		cmp	r0, #0
 2378 019e F5D1     		bne	.L236
 2379 01a0 6982     		strh	r1, [r5, #18]	@ movhi
 2380 01a2 7860     		str	r0, [r7, #4]
 2381              	.LVL284:
 2382              	.L233:
 2383              		.loc 1 1203 0
 2384 01a4 FB8A     		ldrh	r3, [r7, #22]
 2385 01a6 6FF30903 		bfc	r3, #0, #10
 2386 01aa FB82     		strh	r3, [r7, #22]	@ movhi
 2387              	.LVL285:
 2388              	.LBE431:
 2389              	.LBE435:
 2390              		.loc 1 333 0
 2391 01ac 069B     		ldr	r3, [sp, #24]
 2392 01ae 002B     		cmp	r3, #0
 2393 01b0 00F0D480 		beq	.L311
 2394              	.LVL286:
ARM GAS  /tmp/cc2f1tkm.s 			page 43


 2395              	.L195:
 2396              		.loc 1 340 0
 2397 01b4 4FEA9813 		lsr	r3, r8, #6
 2398 01b8 022B     		cmp	r3, #2
 2399 01ba 43D0     		beq	.L312
 2400              	.LBB436:
 2401              		.loc 1 342 0
 2402 01bc DDE90401 		ldrd	r0, [sp, #16]
 2403 01c0 C7E90201 		strd	r0, [r7, #8]
 2404              	.LVL287:
 2405              		.loc 1 346 0
 2406 01c4 039A     		ldr	r2, [sp, #12]
 2407              		.loc 1 343 0
 2408 01c6 ADF83E90 		strh	r9, [sp, #62]	@ movhi
 2409              		.loc 1 346 0
 2410 01ca 137B     		ldrb	r3, [r2, #12]	@ zero_extendqisi2
 2411              		.loc 1 343 0
 2412 01cc 8DF84060 		strb	r6, [sp, #64]
 2413              		.loc 1 346 0
 2414 01d0 013B     		subs	r3, r3, #1
 2415              		.loc 1 343 0
 2416 01d2 0024     		movs	r4, #0
 2417              		.loc 1 345 0
 2418 01d4 0432     		adds	r2, r2, #4
 2419              		.loc 1 343 0
 2420 01d6 CDE90A01 		strd	r0, [sp, #40]
 2421              		.loc 1 346 0
 2422 01da DBB2     		uxtb	r3, r3
 2423              		.loc 1 343 0
 2424 01dc 0299     		ldr	r1, [sp, #8]
 2425 01de 8DF84310 		strb	r1, [sp, #67]
 2426              		.loc 1 346 0
 2427 01e2 ADF83C30 		strh	r3, [sp, #60]	@ movhi
 2428              		.loc 1 343 0
 2429 01e6 0C92     		str	r2, [sp, #48]
 2430              		.loc 1 354 0
 2431 01e8 AB68     		ldr	r3, [r5, #8]
 2432              		.loc 1 343 0
 2433 01ea 8DF841A0 		strb	r10, [sp, #65]
 2434 01ee 8DF842B0 		strb	fp, [sp, #66]
 2435 01f2 CDE90D44 		strd	r4, r4, [sp, #52]
 2436 01f6 1194     		str	r4, [sp, #68]
 2437              		.loc 1 354 0
 2438 01f8 2846     		mov	r0, r5
 2439 01fa 0AA9     		add	r1, sp, #40
 2440 01fc 9847     		blx	r3
 2441              	.LVL288:
 2442              	.LBB437:
 2443              	.LBB438:
 2444              		.loc 1 1063 0
 2445 01fe FB7D     		ldrb	r3, [r7, #23]	@ zero_extendqisi2
 2446 0200 C3F38402 		ubfx	r2, r3, #2, #5
 2447 0204 0132     		adds	r2, r2, #1
 2448 0206 62F38603 		bfi	r3, r2, #2, #5
 2449 020a FB75     		strb	r3, [r7, #23]
 2450              		.loc 1 1064 0
 2451 020c FB8A     		ldrh	r3, [r7, #22]
ARM GAS  /tmp/cc2f1tkm.s 			page 44


 2452 020e 64F30903 		bfi	r3, r4, #0, #10
 2453              		.loc 1 1065 0
 2454 0212 C3F30722 		ubfx	r2, r3, #8, #8
 2455 0216 64F3C712 		bfi	r2, r4, #7, #1
 2456              		.loc 1 1064 0
 2457 021a FB82     		strh	r3, [r7, #22]	@ movhi
 2458              		.loc 1 1065 0
 2459 021c FA75     		strb	r2, [r7, #23]
 2460              	.LVL289:
 2461 021e FEE6     		b	.L171
 2462              	.LVL290:
 2463              	.L308:
 2464              	.LBE438:
 2465              	.LBE437:
 2466              	.LBE436:
 2467              	.LBB439:
 2468              	.LBB404:
 2469              	.LBB403:
 2470              		.loc 1 1076 0
 2471 0220 6306     		lsls	r3, r4, #25
 2472              		.loc 1 1075 0
 2473 0222 C4F30F29 		ubfx	r9, r4, #8, #16
 2474              	.LVL291:
 2475              		.loc 1 1076 0
 2476 0226 7FF418AF 		bne	.L179
 2477              		.loc 1 1078 0
 2478 022a 09F00309 		and	r9, r9, #3
 2479              	.LVL292:
 2480 022e 14E7     		b	.L179
 2481              	.LVL293:
 2482              	.L192:
 2483              	.LBE403:
 2484              	.LBE404:
 2485              	.LBE439:
 2486              		.loc 1 330 0
 2487 0230 FB7D     		ldrb	r3, [r7, #23]	@ zero_extendqisi2
 2488              	.LBB440:
 2489              	.LBB432:
 2490              		.loc 1 1197 0
 2491 0232 7A68     		ldr	r2, [r7, #4]
 2492              	.LBE432:
 2493              	.LBE440:
 2494              		.loc 1 330 0
 2495 0234 68F38603 		bfi	r3, r8, #2, #5
 2496              	.LVL294:
 2497              		.loc 1 331 0
 2498 0238 6FF3C713 		bfc	r3, #7, #1
 2499 023c FB75     		strb	r3, [r7, #23]
 2500              	.LVL295:
 2501              	.LBB441:
 2502              	.LBB433:
 2503              		.loc 1 1197 0
 2504 023e 002A     		cmp	r2, #0
 2505 0240 9FD1     		bne	.L232
 2506 0242 AFE7     		b	.L233
 2507              	.LVL296:
 2508              	.L312:
ARM GAS  /tmp/cc2f1tkm.s 			page 45


 2509 0244 97F817C0 		ldrb	ip, [r7, #23]	@ zero_extendqisi2
 2510              	.L193:
 2511              	.LBE433:
 2512              	.LBE441:
 2513              		.loc 1 360 0
 2514 0248 C8F34013 		ubfx	r3, r8, #5, #1
 2515 024c B3EBDC1F 		cmp	r3, ip, lsr #7
 2516 0250 7FF4E5AE 		bne	.L171
 2517              		.loc 1 365 0
 2518 0254 CCF3840C 		ubfx	ip, ip, #2, #5
 2519 0258 D445     		cmp	ip, r10
 2520 025a 7FF4E0AE 		bne	.L171
 2521 025e 039B     		ldr	r3, [sp, #12]
 2522              		.loc 1 370 0
 2523 0260 0699     		ldr	r1, [sp, #24]
 2524 0262 1B7B     		ldrb	r3, [r3, #12]	@ zero_extendqisi2
 2525 0264 4FEA9812 		lsr	r2, r8, #6
 2526 0268 0029     		cmp	r1, #0
 2527 026a 40F0B180 		bne	.L313
 2528              		.loc 1 391 0 discriminator 1
 2529 026e 002A     		cmp	r2, #0
 2530 0270 00F04981 		beq	.L314
 2531              	.L198:
 2532              	.LBB442:
 2533              		.loc 1 410 0
 2534 0274 B7F816E0 		ldrh	lr, [r7, #22]
 2535              	.LVL297:
 2536 0278 D7F80480 		ldr	r8, [r7, #4]
 2537 027c CEF3090E 		ubfx	lr, lr, #0, #10
 2538              		.loc 1 406 0
 2539 0280 5A1E     		subs	r2, r3, #1
 2540              		.loc 1 410 0
 2541 0282 BEF1050F 		cmp	lr, #5
 2542              		.loc 1 406 0
 2543 0286 0992     		str	r2, [sp, #36]
 2544 0288 5FFA82FC 		uxtb	ip, r2
 2545              	.LVL298:
 2546              		.loc 1 410 0
 2547 028c 00F2E380 		bhi	.L214
 2548              	.LVL299:
 2549              	.LBB443:
 2550              		.loc 1 414 0
 2551 0290 BCF1000F 		cmp	ip, #0
 2552 0294 1DD0     		beq	.L305
 2553              		.loc 1 417 0
 2554 0296 0399     		ldr	r1, [sp, #12]
 2555 0298 07EB0E03 		add	r3, r7, lr
 2556 029c 0A79     		ldrb	r2, [r1, #4]	@ zero_extendqisi2
 2557 029e 9A76     		strb	r2, [r3, #26]
 2558              	.LVL300:
 2559              		.loc 1 413 0
 2560 02a0 BEF1050F 		cmp	lr, #5
 2561 02a4 00F07581 		beq	.L237
 2562 02a8 0EF11B03 		add	r3, lr, #27
 2563 02ac 6FF01900 		mvn	r0, #25
 2564 02b0 3B44     		add	r3, r3, r7
 2565 02b2 C01B     		subs	r0, r0, r7
ARM GAS  /tmp/cc2f1tkm.s 			page 46


 2566 02b4 0531     		adds	r1, r1, #5
 2567              		.loc 1 415 0
 2568 02b6 0122     		movs	r2, #1
 2569 02b8 07E0     		b	.L217
 2570              	.LVL301:
 2571              	.L218:
 2572              		.loc 1 417 0
 2573 02ba 11F8014B 		ldrb	r4, [r1], #1	@ zero_extendqisi2
 2574 02be 03F8014B 		strb	r4, [r3], #1
 2575              	.LVL302:
 2576              		.loc 1 413 0
 2577 02c2 C418     		adds	r4, r0, r3
 2578 02c4 062C     		cmp	r4, #6
 2579 02c6 00F00D81 		beq	.L302
 2580              	.LVL303:
 2581              	.L217:
 2582              		.loc 1 415 0
 2583 02ca 541C     		adds	r4, r2, #1
 2584              		.loc 1 414 0
 2585 02cc 9445     		cmp	ip, r2
 2586              		.loc 1 415 0
 2587 02ce E2B2     		uxtb	r2, r4
 2588              	.LVL304:
 2589              		.loc 1 414 0
 2590 02d0 F3D1     		bne	.L218
 2591              	.L305:
 2592 02d2 039B     		ldr	r3, [sp, #12]
 2593 02d4 0433     		adds	r3, r3, #4
 2594              	.L215:
 2595              	.LBE443:
 2596              		.loc 1 446 0
 2597 02d6 DDE90401 		ldrd	r0, [sp, #16]
 2598 02da CDE90A01 		strd	r0, [sp, #40]
 2599              		.loc 1 448 0
 2600 02de 07F11A02 		add	r2, r7, #26
 2601              		.loc 1 446 0
 2602 02e2 CDE90C28 		strd	r2, r8, [sp, #48]
 2603              		.loc 1 450 0
 2604 02e6 0022     		movs	r2, #0
 2605              	.L222:
 2606              		.loc 1 446 0
 2607 02e8 0299     		ldr	r1, [sp, #8]
 2608 02ea 0998     		ldr	r0, [sp, #36]
 2609 02ec 8DF84060 		strb	r6, [sp, #64]
 2610 02f0 8DF84310 		strb	r1, [sp, #67]
 2611 02f4 8DF841A0 		strb	r10, [sp, #65]
 2612 02f8 8DF842B0 		strb	fp, [sp, #66]
 2613 02fc 0E92     		str	r2, [sp, #56]
 2614              		.loc 1 451 0
 2615 02fe F444     		add	ip, ip, lr
 2616              	.LVL305:
 2617              		.loc 1 459 0
 2618 0300 0021     		movs	r1, #0
 2619 0302 1844     		add	r0, r0, r3
 2620              		.loc 1 462 0
 2621 0304 BA8A     		ldrh	r2, [r7, #20]
 2622              	.LVL306:
ARM GAS  /tmp/cc2f1tkm.s 			page 47


 2623              		.loc 1 446 0
 2624 0306 ADF83CC0 		strh	ip, [sp, #60]	@ movhi
 2625 030a ADF83E90 		strh	r9, [sp, #62]	@ movhi
 2626 030e 0646     		mov	r6, r0
 2627              		.loc 1 459 0
 2628 0310 7960     		str	r1, [r7, #4]
 2629              	.LBB444:
 2630              	.LBB445:
 2631              	.LBB446:
 2632              	.LBB447:
 2633              	.LBB448:
 2634              		.loc 1 1504 0
 2635 0312 41F22104 		movw	r4, #4129
 2636              	.LVL307:
 2637              	.L223:
 2638              	.LBE448:
 2639              	.LBE447:
 2640              	.LBE446:
 2641              		.loc 1 1525 0
 2642 0316 B342     		cmp	r3, r6
 2643 0318 32D0     		beq	.L315
 2644              	.LVL308:
 2645              	.LBB451:
 2646              	.LBB450:
 2647              		.loc 1 1499 0
 2648 031a 13F8011B 		ldrb	r1, [r3], #1	@ zero_extendqisi2
 2649              	.LVL309:
 2650 031e 82EA0122 		eor	r2, r2, r1, lsl #8
 2651              	.LVL310:
 2652 0322 0821     		movs	r1, #8
 2653              	.LVL311:
 2654              	.L225:
 2655              	.LBB449:
 2656              		.loc 1 1502 0
 2657 0324 10B2     		sxth	r0, r2
 2658 0326 5200     		lsls	r2, r2, #1
 2659              	.LVL312:
 2660 0328 0028     		cmp	r0, #0
 2661 032a 01F1FF31 		add	r1, r1, #-1
 2662              	.LVL313:
 2663 032e 92B2     		uxth	r2, r2
 2664              		.loc 1 1504 0
 2665 0330 B8BF     		it	lt
 2666 0332 6240     		eorlt	r2, r2, r4
 2667              	.LVL314:
 2668              		.loc 1 1500 0
 2669 0334 11F0FF01 		ands	r1, r1, #255
 2670 0338 F4D1     		bne	.L225
 2671 033a ECE7     		b	.L223
 2672              	.LVL315:
 2673              	.L180:
 2674              	.LBE449:
 2675              	.LBE450:
 2676              	.LBE451:
 2677              	.LBE445:
 2678              	.LBE444:
 2679              	.LBE442:
ARM GAS  /tmp/cc2f1tkm.s 			page 48


 2680              		.loc 1 306 0
 2681 033c AF69     		ldr	r7, [r5, #24]
 2682              	.LVL316:
 2683              	.LBB465:
 2684              	.LBB466:
 2685              		.loc 1 1149 0
 2686 033e 002F     		cmp	r7, #0
 2687 0340 3FF46DAE 		beq	.L171
 2688              		.loc 1 1151 0
 2689 0344 3B69     		ldr	r3, [r7, #16]
 2690 0346 5345     		cmp	r3, r10
 2691 0348 04D1     		bne	.L189
 2692 034a E5E6     		b	.L188
 2693              	.L190:
 2694 034c 3B69     		ldr	r3, [r7, #16]
 2695 034e 9A45     		cmp	r10, r3
 2696 0350 3FF4E2AE 		beq	.L188
 2697              	.L189:
 2698              		.loc 1 1155 0
 2699 0354 3F68     		ldr	r7, [r7]
 2700              	.LVL317:
 2701              		.loc 1 1149 0
 2702 0356 002F     		cmp	r7, #0
 2703 0358 F8D1     		bne	.L190
 2704 035a 60E6     		b	.L171
 2705              	.LVL318:
 2706              	.L311:
 2707              	.LBE466:
 2708              	.LBE465:
 2709              		.loc 1 335 0
 2710 035c FB7D     		ldrb	r3, [r7, #23]	@ zero_extendqisi2
 2711 035e C3F38402 		ubfx	r2, r3, #2, #5
 2712 0362 0132     		adds	r2, r2, #1
 2713 0364 62F38603 		bfi	r3, r2, #2, #5
 2714 0368 FB75     		strb	r3, [r7, #23]
 2715              		.loc 1 336 0
 2716 036a 58E6     		b	.L171
 2717              	.LVL319:
 2718              	.L309:
 2719              	.LBB467:
 2720              	.LBB421:
 2721              	.LBB412:
 2722              		.loc 1 1122 0
 2723 036c 5146     		mov	r1, r10
 2724 036e 05F10C00 		add	r0, r5, #12
 2725 0372 FFF7FEFF 		bl	createRxState
 2726              	.LVL320:
 2727              		.loc 1 1124 0
 2728 0376 0746     		mov	r7, r0
 2729 0378 0028     		cmp	r0, #0
 2730 037a 7FF4A4AE 		bne	.L304
 2731 037e 4EE6     		b	.L171
 2732              	.LVL321:
 2733              	.L315:
 2734              	.LBE412:
 2735              	.LBE421:
 2736              	.LBE467:
ARM GAS  /tmp/cc2f1tkm.s 			page 49


 2737              	.LBB468:
 2738              		.loc 1 463 0
 2739 0380 3B8B     		ldrh	r3, [r7, #24]
 2740              		.loc 1 462 0
 2741 0382 BA82     		strh	r2, [r7, #20]	@ movhi
 2742              		.loc 1 463 0
 2743 0384 9342     		cmp	r3, r2
 2744 0386 03D1     		bne	.L227
 2745              		.loc 1 465 0
 2746 0388 AB68     		ldr	r3, [r5, #8]
 2747 038a 0AA9     		add	r1, sp, #40
 2748 038c 2846     		mov	r0, r5
 2749 038e 9847     		blx	r3
 2750              	.LVL322:
 2751              	.L227:
 2752              	.LBB452:
 2753              	.LBB453:
 2754              		.loc 1 751 0
 2755 0390 0D9B     		ldr	r3, [sp, #52]
 2756 0392 63B1     		cbz	r3, .L229
 2757 0394 6A8A     		ldrh	r2, [r5, #18]
 2758 0396 E868     		ldr	r0, [r5, #12]
 2759 0398 00E0     		b	.L228
 2760              	.LVL323:
 2761              	.L243:
 2762 039a 0B46     		mov	r3, r1
 2763              	.LVL324:
 2764              	.L228:
 2765              	.LBB454:
 2766              		.loc 1 753 0
 2767 039c 1968     		ldr	r1, [r3]
 2768              	.LVL325:
 2769              	.LBB455:
 2770              	.LBB456:
 2771              		.loc 1 1580 0
 2772 039e 1860     		str	r0, [r3]
 2773              		.loc 1 1584 0
 2774 03a0 013A     		subs	r2, r2, #1
 2775 03a2 92B2     		uxth	r2, r2
 2776              	.LVL326:
 2777              		.loc 1 1581 0
 2778 03a4 EB60     		str	r3, [r5, #12]
 2779 03a6 1846     		mov	r0, r3
 2780              	.LBE456:
 2781              	.LBE455:
 2782              	.LBE454:
 2783              		.loc 1 751 0
 2784 03a8 0029     		cmp	r1, #0
 2785 03aa F6D1     		bne	.L243
 2786 03ac 6A82     		strh	r2, [r5, #18]	@ movhi
 2787              	.LVL327:
 2788              	.L229:
 2789              	.LBE453:
 2790              	.LBE452:
 2791              	.LBB457:
 2792              	.LBB458:
 2793              		.loc 1 1063 0
ARM GAS  /tmp/cc2f1tkm.s 			page 50


 2794 03ae FB7D     		ldrb	r3, [r7, #23]	@ zero_extendqisi2
 2795 03b0 C3F38402 		ubfx	r2, r3, #2, #5
 2796 03b4 0132     		adds	r2, r2, #1
 2797 03b6 62F38603 		bfi	r3, r2, #2, #5
 2798 03ba FB75     		strb	r3, [r7, #23]
 2799              	.LVL328:
 2800              		.loc 1 1064 0
 2801 03bc FB8A     		ldrh	r3, [r7, #22]
 2802 03be 6FF30903 		bfc	r3, #0, #10
 2803              		.loc 1 1065 0
 2804 03c2 C3F30722 		ubfx	r2, r3, #8, #8
 2805 03c6 6FF3C712 		bfc	r2, #7, #1
 2806              		.loc 1 1064 0
 2807 03ca FB82     		strh	r3, [r7, #22]	@ movhi
 2808              		.loc 1 1065 0
 2809 03cc FA75     		strb	r2, [r7, #23]
 2810              	.LVL329:
 2811 03ce 26E6     		b	.L171
 2812              	.LVL330:
 2813              	.L313:
 2814              	.LBE458:
 2815              	.LBE457:
 2816              	.LBE468:
 2817              		.loc 1 370 0 discriminator 1
 2818 03d0 022A     		cmp	r2, #2
 2819 03d2 7FF44FAF 		bne	.L198
 2820              	.LBB469:
 2821              		.loc 1 372 0
 2822 03d6 032B     		cmp	r3, #3
 2823 03d8 7FF621AE 		bls	.L171
 2824              		.loc 1 379 0
 2825 03dc 039A     		ldr	r2, [sp, #12]
 2826 03de 941D     		adds	r4, r2, #6
 2827              		.loc 1 378 0
 2828 03e0 DDE90412 		ldrd	r1, [sp, #16]
 2829              		.loc 1 379 0
 2830 03e4 033B     		subs	r3, r3, #3
 2831              		.loc 1 378 0
 2832 03e6 C7E90212 		strd	r1, [r7, #8]
 2833              	.LVL331:
 2834              		.loc 1 379 0
 2835 03ea DBB2     		uxtb	r3, r3
 2836 03ec 2246     		mov	r2, r4
 2837 03ee 3946     		mov	r1, r7
 2838 03f0 05F10C00 		add	r0, r5, #12
 2839 03f4 FFF7FEFF 		bl	bufferBlockPushBytes
 2840              	.LVL332:
 2841              		.loc 1 381 0
 2842 03f8 0028     		cmp	r0, #0
 2843 03fa 1FDB     		blt	.L199
 2844              	.LVL333:
 2845              		.loc 1 387 0
 2846 03fc 039A     		ldr	r2, [sp, #12]
 2847 03fe 9388     		ldrh	r3, [r2, #4]
 2848 0400 3B83     		strh	r3, [r7, #24]	@ movhi
 2849              		.loc 1 389 0
 2850 0402 117B     		ldrb	r1, [r2, #12]	@ zero_extendqisi2
ARM GAS  /tmp/cc2f1tkm.s 			page 51


 2851              	.LVL334:
 2852              		.loc 1 388 0
 2853 0404 BB8A     		ldrh	r3, [r7, #20]
 2854              	.LVL335:
 2855              		.loc 1 389 0
 2856 0406 0339     		subs	r1, r1, #3
 2857 0408 54FA81F1 		uxtab	r1, r4, r1
 2858              	.LBB470:
 2859              	.LBB471:
 2860              	.LBB472:
 2861              	.LBB473:
 2862              	.LBB474:
 2863              		.loc 1 1504 0
 2864 040c 41F22105 		movw	r5, #4129
 2865              	.LVL336:
 2866              	.L202:
 2867              	.LBE474:
 2868              	.LBE473:
 2869              	.LBE472:
 2870              		.loc 1 1525 0
 2871 0410 8C42     		cmp	r4, r1
 2872 0412 6FD0     		beq	.L303
 2873              	.LVL337:
 2874              	.LBB477:
 2875              	.LBB476:
 2876              		.loc 1 1499 0
 2877 0414 14F8012B 		ldrb	r2, [r4], #1	@ zero_extendqisi2
 2878              	.LVL338:
 2879 0418 83EA0223 		eor	r3, r3, r2, lsl #8
 2880              	.LVL339:
 2881 041c 0822     		movs	r2, #8
 2882              	.LVL340:
 2883              	.L204:
 2884              	.LBB475:
 2885              		.loc 1 1502 0
 2886 041e 18B2     		sxth	r0, r3
 2887 0420 5B00     		lsls	r3, r3, #1
 2888              	.LVL341:
 2889 0422 0028     		cmp	r0, #0
 2890 0424 02F1FF32 		add	r2, r2, #-1
 2891              	.LVL342:
 2892 0428 9BB2     		uxth	r3, r3
 2893              		.loc 1 1504 0
 2894 042a B8BF     		it	lt
 2895 042c 6B40     		eorlt	r3, r3, r5
 2896              	.LVL343:
 2897              		.loc 1 1500 0
 2898 042e 12F0FF02 		ands	r2, r2, #255
 2899 0432 F4D1     		bne	.L204
 2900 0434 ECE7     		b	.L202
 2901              	.L318:
 2902 0436 00BF     		.align	2
 2903              	.L317:
 2904 0438 80841E00 		.word	2000000
 2905              	.LVL344:
 2906              	.L199:
 2907              	.LBE475:
ARM GAS  /tmp/cc2f1tkm.s 			page 52


 2908              	.LBE476:
 2909              	.LBE477:
 2910              	.LBE471:
 2911              	.LBE470:
 2912              	.LBB478:
 2913              	.LBB479:
 2914              		.loc 1 1197 0
 2915 043c 7A68     		ldr	r2, [r7, #4]
 2916 043e 002A     		cmp	r2, #0
 2917 0440 00F09380 		beq	.L306
 2918              	.LBB480:
 2919              	.LBB481:
 2920              	.LBB482:
 2921              		.loc 1 1584 0
 2922 0444 6B8A     		ldrh	r3, [r5, #18]
 2923              	.LBE482:
 2924              	.LBE481:
 2925              		.loc 1 1199 0
 2926 0446 1168     		ldr	r1, [r2]
 2927              	.LVL345:
 2928              	.LBB484:
 2929              	.LBB483:
 2930              		.loc 1 1580 0
 2931 0448 E868     		ldr	r0, [r5, #12]
 2932 044a 1060     		str	r0, [r2]
 2933              		.loc 1 1584 0
 2934 044c 013B     		subs	r3, r3, #1
 2935 044e 6B82     		strh	r3, [r5, #18]	@ movhi
 2936              	.LVL346:
 2937              		.loc 1 1581 0
 2938 0450 EA60     		str	r2, [r5, #12]
 2939              	.LBE483:
 2940              	.LBE484:
 2941              		.loc 1 1201 0
 2942 0452 7960     		str	r1, [r7, #4]
 2943 0454 F2E7     		b	.L199
 2944              	.LVL347:
 2945              	.L214:
 2946              	.LBE480:
 2947              	.LBE479:
 2948              	.LBE478:
 2949              	.LBE469:
 2950              	.LBB485:
 2951              	.LBB459:
 2952              		.loc 1 424 0
 2953 0456 B8F1000F 		cmp	r8, #0
 2954 045a 42D0     		beq	.L241
 2955              	.LVL348:
 2956              	.LBB460:
 2957              		.loc 1 427 0
 2958 045c D8F80000 		ldr	r0, [r8]
 2959 0460 0028     		cmp	r0, #0
 2960 0462 00F09380 		beq	.L239
 2961              		.loc 1 426 0
 2962 0466 0621     		movs	r1, #6
 2963 0468 00E0     		b	.L220
 2964              	.LVL349:
ARM GAS  /tmp/cc2f1tkm.s 			page 53


 2965              	.L240:
 2966 046a 1046     		mov	r0, r2
 2967              	.LVL350:
 2968              	.L220:
 2969              		.loc 1 427 0
 2970 046c 0268     		ldr	r2, [r0]
 2971              		.loc 1 430 0
 2972 046e 1C31     		adds	r1, r1, #28
 2973              	.LVL351:
 2974              		.loc 1 427 0
 2975 0470 002A     		cmp	r2, #0
 2976 0472 FAD1     		bne	.L240
 2977              	.LVL352:
 2978              	.L219:
 2979              		.loc 1 434 0
 2980 0474 AEEB0101 		sub	r1, lr, r1
 2981              	.LVL353:
 2982              	.LBB461:
 2983              		.loc 1 437 0
 2984 0478 1B29     		cmp	r1, #27
 2985 047a 32D8     		bhi	.L241
 2986              		.loc 1 438 0
 2987 047c BCF1000F 		cmp	ip, #0
 2988 0480 3FF427AF 		beq	.L305
 2989 0484 023B     		subs	r3, r3, #2
 2990 0486 DAB2     		uxtb	r2, r3
 2991 0488 039B     		ldr	r3, [sp, #12]
 2992 048a CC1C     		adds	r4, r1, #3
 2993 048c 2044     		add	r0, r0, r4
 2994 048e 0433     		adds	r3, r3, #4
 2995 0490 0232     		adds	r2, r2, #2
 2996 0492 C1F11C04 		rsb	r4, r1, #28
 2997 0496 0892     		str	r2, [sp, #32]
 2998 0498 0693     		str	r3, [sp, #24]
 2999 049a 0121     		movs	r1, #1
 3000              	.LVL354:
 3001 049c 0790     		str	r0, [sp, #28]
 3002 049e 03E0     		b	.L221
 3003              	.LVL355:
 3004              	.L316:
 3005 04a0 089A     		ldr	r2, [sp, #32]
 3006              	.LVL356:
 3007 04a2 8A42     		cmp	r2, r1
 3008 04a4 3FF417AF 		beq	.L215
 3009              	.L221:
 3010              	.LVL357:
 3011              		.loc 1 441 0
 3012 04a8 069A     		ldr	r2, [sp, #24]
 3013 04aa 12F8010B 		ldrb	r0, [r2], #1	@ zero_extendqisi2
 3014 04ae 0692     		str	r2, [sp, #24]
 3015 04b0 0246     		mov	r2, r0
 3016 04b2 0798     		ldr	r0, [sp, #28]
 3017 04b4 00F8012F 		strb	r2, [r0, #1]!
 3018              		.loc 1 437 0
 3019 04b8 8C42     		cmp	r4, r1
 3020              		.loc 1 439 0
 3021 04ba CAB2     		uxtb	r2, r1
ARM GAS  /tmp/cc2f1tkm.s 			page 54


 3022              		.loc 1 441 0
 3023 04bc 0790     		str	r0, [sp, #28]
 3024              	.LVL358:
 3025 04be 01F10101 		add	r1, r1, #1
 3026              		.loc 1 437 0
 3027 04c2 EDD1     		bne	.L316
 3028              	.LVL359:
 3029              	.L216:
 3030              	.LBE461:
 3031              	.LBE460:
 3032              	.LBE459:
 3033              		.loc 1 446 0
 3034 04c4 DDE90401 		ldrd	r0, [sp, #16]
 3035              		.loc 1 448 0
 3036 04c8 07F11A04 		add	r4, r7, #26
 3037              		.loc 1 450 0
 3038 04cc 6245     		cmp	r2, ip
 3039              		.loc 1 446 0
 3040 04ce CDE90A01 		strd	r0, [sp, #40]
 3041 04d2 CDE90C48 		strd	r4, r8, [sp, #48]
 3042              		.loc 1 450 0
 3043 04d6 57D2     		bcs	.L242
 3044              		.loc 1 450 0 is_stmt 0 discriminator 1
 3045 04d8 0399     		ldr	r1, [sp, #12]
 3046 04da 0432     		adds	r2, r2, #4
 3047              	.LVL360:
 3048 04dc 1144     		add	r1, r1, r2
 3049 04de 0A46     		mov	r2, r1
 3050 04e0 02E7     		b	.L222
 3051              	.LVL361:
 3052              	.L241:
 3053              		.loc 1 408 0 is_stmt 1
 3054 04e2 0022     		movs	r2, #0
 3055              	.LVL362:
 3056              	.L302:
 3057 04e4 039B     		ldr	r3, [sp, #12]
 3058 04e6 0433     		adds	r3, r3, #4
 3059 04e8 ECE7     		b	.L216
 3060              	.LVL363:
 3061              	.L310:
 3062              	.LBE485:
 3063              	.LBB486:
 3064              	.LBB434:
 3065              		.loc 1 1203 0
 3066 04ea FB8A     		ldrh	r3, [r7, #22]
 3067 04ec 62F30903 		bfi	r3, r2, #0, #10
 3068 04f0 FB82     		strh	r3, [r7, #22]	@ movhi
 3069              	.LVL364:
 3070 04f2 5FE6     		b	.L195
 3071              	.LVL365:
 3072              	.L303:
 3073              	.LBE434:
 3074              	.LBE486:
 3075              	.LBB487:
 3076              		.loc 1 401 0
 3077 04f4 BB82     		strh	r3, [r7, #20]	@ movhi
 3078              	.LBE487:
ARM GAS  /tmp/cc2f1tkm.s 			page 55


 3079              		.loc 1 474 0
 3080 04f6 FB7D     		ldrb	r3, [r7, #23]	@ zero_extendqisi2
 3081 04f8 DA43     		mvns	r2, r3
 3082 04fa C2F3C012 		ubfx	r2, r2, #7, #1
 3083 04fe 62F3C713 		bfi	r3, r2, #7, #1
 3084 0502 FB75     		strb	r3, [r7, #23]
 3085 0504 8BE5     		b	.L171
 3086              	.LVL366:
 3087              	.L314:
 3088 0506 039A     		ldr	r2, [sp, #12]
 3089              	.LBB509:
 3090              		.loc 1 393 0
 3091 0508 013B     		subs	r3, r3, #1
 3092 050a 141D     		adds	r4, r2, #4
 3093 050c DBB2     		uxtb	r3, r3
 3094 050e 2246     		mov	r2, r4
 3095 0510 3946     		mov	r1, r7
 3096 0512 05F10C00 		add	r0, r5, #12
 3097 0516 FFF7FEFF 		bl	bufferBlockPushBytes
 3098              	.LVL367:
 3099              		.loc 1 395 0
 3100 051a 0028     		cmp	r0, #0
 3101 051c 1ADB     		blt	.L207
 3102              	.LVL368:
 3103              		.loc 1 402 0
 3104 051e 039B     		ldr	r3, [sp, #12]
 3105 0520 187B     		ldrb	r0, [r3, #12]	@ zero_extendqisi2
 3106              	.LVL369:
 3107              		.loc 1 401 0
 3108 0522 BB8A     		ldrh	r3, [r7, #20]
 3109              	.LVL370:
 3110              		.loc 1 402 0
 3111 0524 0138     		subs	r0, r0, #1
 3112 0526 54FA80F0 		uxtab	r0, r4, r0
 3113              	.LBB488:
 3114              	.LBB489:
 3115              	.LBB490:
 3116              	.LBB491:
 3117              	.LBB492:
 3118              		.loc 1 1504 0
 3119 052a 41F22105 		movw	r5, #4129
 3120              	.LVL371:
 3121              	.L210:
 3122              	.LBE492:
 3123              	.LBE491:
 3124              	.LBE490:
 3125              		.loc 1 1525 0
 3126 052e 8442     		cmp	r4, r0
 3127 0530 E0D0     		beq	.L303
 3128              	.LVL372:
 3129              	.LBB495:
 3130              	.LBB494:
 3131              		.loc 1 1499 0
 3132 0532 14F8012B 		ldrb	r2, [r4], #1	@ zero_extendqisi2
 3133              	.LVL373:
 3134 0536 83EA0223 		eor	r3, r3, r2, lsl #8
 3135              	.LVL374:
ARM GAS  /tmp/cc2f1tkm.s 			page 56


 3136 053a 0822     		movs	r2, #8
 3137              	.LVL375:
 3138              	.L212:
 3139              	.LBB493:
 3140              		.loc 1 1502 0
 3141 053c 19B2     		sxth	r1, r3
 3142 053e 5B00     		lsls	r3, r3, #1
 3143              	.LVL376:
 3144 0540 0029     		cmp	r1, #0
 3145 0542 02F1FF32 		add	r2, r2, #-1
 3146              	.LVL377:
 3147 0546 9BB2     		uxth	r3, r3
 3148              		.loc 1 1504 0
 3149 0548 B8BF     		it	lt
 3150 054a 6B40     		eorlt	r3, r3, r5
 3151              	.LVL378:
 3152              		.loc 1 1500 0
 3153 054c 12F0FF02 		ands	r2, r2, #255
 3154 0550 F4D1     		bne	.L212
 3155 0552 ECE7     		b	.L210
 3156              	.LVL379:
 3157              	.L207:
 3158              	.LBE493:
 3159              	.LBE494:
 3160              	.LBE495:
 3161              	.LBE489:
 3162              	.LBE488:
 3163              	.LBB496:
 3164              	.LBB497:
 3165              		.loc 1 1197 0
 3166 0554 7A68     		ldr	r2, [r7, #4]
 3167 0556 42B1     		cbz	r2, .L306
 3168              	.LBB498:
 3169              	.LBB499:
 3170              	.LBB500:
 3171              		.loc 1 1584 0
 3172 0558 6B8A     		ldrh	r3, [r5, #18]
 3173              	.LBE500:
 3174              	.LBE499:
 3175              		.loc 1 1199 0
 3176 055a 1168     		ldr	r1, [r2]
 3177              	.LVL380:
 3178              	.LBB502:
 3179              	.LBB501:
 3180              		.loc 1 1580 0
 3181 055c E868     		ldr	r0, [r5, #12]
 3182 055e 1060     		str	r0, [r2]
 3183              		.loc 1 1584 0
 3184 0560 013B     		subs	r3, r3, #1
 3185 0562 6B82     		strh	r3, [r5, #18]	@ movhi
 3186              	.LVL381:
 3187              		.loc 1 1581 0
 3188 0564 EA60     		str	r2, [r5, #12]
 3189              	.LBE501:
 3190              	.LBE502:
 3191              		.loc 1 1201 0
 3192 0566 7960     		str	r1, [r7, #4]
ARM GAS  /tmp/cc2f1tkm.s 			page 57


 3193 0568 F4E7     		b	.L207
 3194              	.LVL382:
 3195              	.L306:
 3196              	.LBE498:
 3197              		.loc 1 1203 0
 3198 056a F98A     		ldrh	r1, [r7, #22]
 3199 056c 62F30901 		bfi	r1, r2, #0, #10
 3200              	.LBE497:
 3201              	.LBE496:
 3202              	.LBB504:
 3203              	.LBB505:
 3204              		.loc 1 1063 0
 3205 0570 C1F30723 		ubfx	r3, r1, #8, #8
 3206 0574 C3F38400 		ubfx	r0, r3, #2, #5
 3207 0578 0130     		adds	r0, r0, #1
 3208 057a 60F38603 		bfi	r3, r0, #2, #5
 3209              		.loc 1 1065 0
 3210 057e 62F3C713 		bfi	r3, r2, #7, #1
 3211              	.LBE505:
 3212              	.LBE504:
 3213              	.LBB507:
 3214              	.LBB503:
 3215              		.loc 1 1203 0
 3216 0582 F982     		strh	r1, [r7, #22]	@ movhi
 3217              	.LVL383:
 3218              	.LBE503:
 3219              	.LBE507:
 3220              	.LBB508:
 3221              	.LBB506:
 3222              		.loc 1 1065 0
 3223 0584 FB75     		strb	r3, [r7, #23]
 3224 0586 4AE5     		b	.L171
 3225              	.LVL384:
 3226              	.L242:
 3227              	.LBE506:
 3228              	.LBE508:
 3229              	.LBE509:
 3230              	.LBB510:
 3231              		.loc 1 450 0
 3232 0588 0022     		movs	r2, #0
 3233              	.LVL385:
 3234 058a ADE6     		b	.L222
 3235              	.LVL386:
 3236              	.L239:
 3237              	.LBB463:
 3238              	.LBB462:
 3239              		.loc 1 427 0
 3240 058c 4046     		mov	r0, r8
 3241              		.loc 1 426 0
 3242 058e 0621     		movs	r1, #6
 3243 0590 70E7     		b	.L219
 3244              	.LVL387:
 3245              	.L237:
 3246 0592 039B     		ldr	r3, [sp, #12]
 3247              	.LBE462:
 3248              	.LBE463:
 3249              	.LBB464:
ARM GAS  /tmp/cc2f1tkm.s 			page 58


 3250              		.loc 1 415 0
 3251 0594 0122     		movs	r2, #1
 3252 0596 0433     		adds	r3, r3, #4
 3253 0598 94E7     		b	.L216
 3254              	.LBE464:
 3255              	.LBE510:
 3256              		.cfi_endproc
 3257              	.LFE8:
 3258              		.size	canardHandleRxFrame, .-canardHandleRxFrame
 3259 059a 00BF     		.section	.text.canardCleanupStaleTransfers,"ax",%progbits
 3260              		.align	1
 3261              		.p2align 4,,15
 3262              		.global	canardCleanupStaleTransfers
 3263              		.syntax unified
 3264              		.thumb
 3265              		.thumb_func
 3266              		.fpu fpv4-sp-d16
 3267              		.type	canardCleanupStaleTransfers, %function
 3268              	canardCleanupStaleTransfers:
 3269              	.LFB9:
 3270              		.loc 1 478 0
 3271              		.cfi_startproc
 3272              		@ args = 0, pretend = 0, frame = 0
 3273              		@ frame_needed = 0, uses_anonymous_args = 0
 3274              	.LVL388:
 3275              		.loc 1 479 0
 3276 0000 D0F818C0 		ldr	ip, [r0, #24]
 3277              	.LVL389:
 3278              		.loc 1 481 0
 3279 0004 BCF1000F 		cmp	ip, #0
 3280 0008 68D0     		beq	.L340
 3281              		.loc 1 478 0
 3282 000a 2DE9F04F 		push	{r4, r5, r6, r7, r8, r9, r10, fp, lr}
 3283              		.cfi_def_cfa_offset 36
 3284              		.cfi_offset 4, -36
 3285              		.cfi_offset 5, -32
 3286              		.cfi_offset 6, -28
 3287              		.cfi_offset 7, -24
 3288              		.cfi_offset 8, -20
 3289              		.cfi_offset 9, -16
 3290              		.cfi_offset 10, -12
 3291              		.cfi_offset 11, -8
 3292              		.cfi_offset 14, -4
 3293              		.loc 1 483 0
 3294 000e DFF8D080 		ldr	r8, .L343
 3295 0012 1646     		mov	r6, r2
 3296 0014 1F46     		mov	r7, r3
 3297              		.loc 1 481 0
 3298 0016 6246     		mov	r2, ip
 3299              	.LVL390:
 3300              		.loc 1 483 0
 3301 0018 4FF00009 		mov	r9, #0
 3302              	.LVL391:
 3303              	.L328:
 3304 001c D2E90245 		ldrd	r4, [r2, #8]
 3305 0020 B6EB040A 		subs	r10, r6, r4
 3306 0024 67EB050B 		sbc	fp, r7, r5
ARM GAS  /tmp/cc2f1tkm.s 			page 59


 3307 0028 D945     		cmp	r9, fp
 3308 002a 08BF     		it	eq
 3309 002c D045     		cmpeq	r8, r10
 3310 002e D2F800E0 		ldr	lr, [r2]
 3311 0032 2AD2     		bcs	.L329
 3312              		.loc 1 485 0
 3313 0034 8169     		ldr	r1, [r0, #24]
 3314 0036 5368     		ldr	r3, [r2, #4]
 3315 0038 C468     		ldr	r4, [r0, #12]
 3316 003a 9142     		cmp	r1, r2
 3317 003c 2BD0     		beq	.L322
 3318              	.LBB511:
 3319              	.LBB512:
 3320              		.loc 1 1197 0
 3321 003e A3B1     		cbz	r3, .L324
 3322 0040 B0F812A0 		ldrh	r10, [r0, #18]
 3323 0044 0AF1FF3A 		add	r10, r10, #-1
 3324 0048 1FFA8AFA 		uxth	r10, r10
 3325 004c 01E0     		b	.L327
 3326              	.LVL392:
 3327              	.L331:
 3328 004e 9A46     		mov	r10, r3
 3329 0050 2B46     		mov	r3, r5
 3330              	.LVL393:
 3331              	.L327:
 3332              	.LBB513:
 3333              		.loc 1 1199 0
 3334 0052 1D68     		ldr	r5, [r3]
 3335              	.LVL394:
 3336              	.LBB514:
 3337              	.LBB515:
 3338              		.loc 1 1580 0
 3339 0054 1C60     		str	r4, [r3]
 3340 0056 0AF1FF31 		add	r1, r10, #-1
 3341              		.loc 1 1581 0
 3342 005a C360     		str	r3, [r0, #12]
 3343              	.LVL395:
 3344 005c 1C46     		mov	r4, r3
 3345 005e 8BB2     		uxth	r3, r1
 3346              	.LVL396:
 3347              	.LBE515:
 3348              	.LBE514:
 3349              	.LBE513:
 3350              		.loc 1 1197 0
 3351 0060 002D     		cmp	r5, #0
 3352 0062 F4D1     		bne	.L331
 3353 0064 A0F812A0 		strh	r10, [r0, #18]	@ movhi
 3354 0068 5560     		str	r5, [r2, #4]
 3355              	.LVL397:
 3356              	.L324:
 3357              		.loc 1 1203 0
 3358 006a D38A     		ldrh	r3, [r2, #22]
 3359 006c 6FF30903 		bfc	r3, #0, #10
 3360 0070 D382     		strh	r3, [r2, #22]	@ movhi
 3361              	.LBE512:
 3362              	.LBE511:
 3363              	.LBB516:
ARM GAS  /tmp/cc2f1tkm.s 			page 60


 3364              	.LBB517:
 3365              		.loc 1 1584 0
 3366 0072 438A     		ldrh	r3, [r0, #18]
 3367              	.LBE517:
 3368              	.LBE516:
 3369              		.loc 1 496 0
 3370 0074 CCF800E0 		str	lr, [ip]
 3371              	.LVL398:
 3372              	.LBB520:
 3373              	.LBB518:
 3374              		.loc 1 1584 0
 3375 0078 013B     		subs	r3, r3, #1
 3376              		.loc 1 1580 0
 3377 007a 1460     		str	r4, [r2]
 3378              		.loc 1 1581 0
 3379 007c C260     		str	r2, [r0, #12]
 3380              	.LBE518:
 3381              	.LBE520:
 3382              		.loc 1 481 0
 3383 007e 7246     		mov	r2, lr
 3384              	.LVL399:
 3385              	.LBB521:
 3386              	.LBB519:
 3387              		.loc 1 1584 0
 3388 0080 4382     		strh	r3, [r0, #18]	@ movhi
 3389              	.LVL400:
 3390              	.LBE519:
 3391              	.LBE521:
 3392              		.loc 1 481 0
 3393 0082 002A     		cmp	r2, #0
 3394 0084 CAD1     		bne	.L328
 3395              		.loc 1 507 0
 3396 0086 BDE8F08F 		pop	{r4, r5, r6, r7, r8, r9, r10, fp, pc}
 3397              	.LVL401:
 3398              	.L329:
 3399 008a 9446     		mov	ip, r2
 3400              	.LVL402:
 3401              	.L321:
 3402              		.loc 1 481 0
 3403 008c 7246     		mov	r2, lr
 3404 008e 002A     		cmp	r2, #0
 3405 0090 C4D1     		bne	.L328
 3406              	.LVL403:
 3407              		.loc 1 507 0
 3408 0092 BDE8F08F 		pop	{r4, r5, r6, r7, r8, r9, r10, fp, pc}
 3409              	.L322:
 3410              	.LBB522:
 3411              	.LBB523:
 3412              		.loc 1 1197 0
 3413 0096 A3B1     		cbz	r3, .L325
 3414 0098 B0F812C0 		ldrh	ip, [r0, #18]
 3415              	.LVL404:
 3416 009c 0CF1FF3C 		add	ip, ip, #-1
 3417 00a0 1FFA8CFC 		uxth	ip, ip
 3418 00a4 01E0     		b	.L326
 3419              	.LVL405:
 3420              	.L330:
ARM GAS  /tmp/cc2f1tkm.s 			page 61


 3421 00a6 9C46     		mov	ip, r3
 3422 00a8 2B46     		mov	r3, r5
 3423              	.LVL406:
 3424              	.L326:
 3425              	.LBB524:
 3426              		.loc 1 1199 0
 3427 00aa 1D68     		ldr	r5, [r3]
 3428              	.LVL407:
 3429              	.LBB525:
 3430              	.LBB526:
 3431              		.loc 1 1580 0
 3432 00ac 1C60     		str	r4, [r3]
 3433 00ae 0CF1FF31 		add	r1, ip, #-1
 3434              		.loc 1 1581 0
 3435 00b2 C360     		str	r3, [r0, #12]
 3436              	.LVL408:
 3437 00b4 1C46     		mov	r4, r3
 3438 00b6 8BB2     		uxth	r3, r1
 3439              	.LVL409:
 3440              	.LBE526:
 3441              	.LBE525:
 3442              	.LBE524:
 3443              		.loc 1 1197 0
 3444 00b8 002D     		cmp	r5, #0
 3445 00ba F4D1     		bne	.L330
 3446 00bc A0F812C0 		strh	ip, [r0, #18]	@ movhi
 3447 00c0 5560     		str	r5, [r2, #4]
 3448              	.LVL410:
 3449              	.L325:
 3450              		.loc 1 1203 0
 3451 00c2 D38A     		ldrh	r3, [r2, #22]
 3452 00c4 6FF30903 		bfc	r3, #0, #10
 3453 00c8 D382     		strh	r3, [r2, #22]	@ movhi
 3454              	.LBE523:
 3455              	.LBE522:
 3456              	.LBB527:
 3457              	.LBB528:
 3458              		.loc 1 1584 0
 3459 00ca 438A     		ldrh	r3, [r0, #18]
 3460              	.LBE528:
 3461              	.LBE527:
 3462              		.loc 1 488 0
 3463 00cc C0F818E0 		str	lr, [r0, #24]
 3464              	.LVL411:
 3465              	.LBB531:
 3466              	.LBB529:
 3467              		.loc 1 1584 0
 3468 00d0 013B     		subs	r3, r3, #1
 3469              		.loc 1 1580 0
 3470 00d2 1460     		str	r4, [r2]
 3471              	.LBE529:
 3472              	.LBE531:
 3473 00d4 F446     		mov	ip, lr
 3474              	.LBB532:
 3475              	.LBB530:
 3476              		.loc 1 1581 0
 3477 00d6 C260     		str	r2, [r0, #12]
ARM GAS  /tmp/cc2f1tkm.s 			page 62


 3478              		.loc 1 1584 0
 3479 00d8 4382     		strh	r3, [r0, #18]	@ movhi
 3480              	.LVL412:
 3481              	.LBE530:
 3482              	.LBE532:
 3483 00da D7E7     		b	.L321
 3484              	.LVL413:
 3485              	.L340:
 3486              		.cfi_def_cfa_offset 0
 3487              		.cfi_restore 4
 3488              		.cfi_restore 5
 3489              		.cfi_restore 6
 3490              		.cfi_restore 7
 3491              		.cfi_restore 8
 3492              		.cfi_restore 9
 3493              		.cfi_restore 10
 3494              		.cfi_restore 11
 3495              		.cfi_restore 14
 3496 00dc 7047     		bx	lr
 3497              	.L344:
 3498 00de 00BF     		.align	2
 3499              	.L343:
 3500 00e0 80841E00 		.word	2000000
 3501              		.cfi_endproc
 3502              	.LFE9:
 3503              		.size	canardCleanupStaleTransfers, .-canardCleanupStaleTransfers
 3504              		.section	.text.canardDecodeScalar,"ax",%progbits
 3505              		.align	1
 3506              		.p2align 4,,15
 3507              		.global	canardDecodeScalar
 3508              		.syntax unified
 3509              		.thumb
 3510              		.thumb_func
 3511              		.fpu fpv4-sp-d16
 3512              		.type	canardDecodeScalar, %function
 3513              	canardDecodeScalar:
 3514              	.LFB10:
 3515              		.loc 1 514 0
 3516              		.cfi_startproc
 3517              		@ args = 4, pretend = 0, frame = 32
 3518              		@ frame_needed = 0, uses_anonymous_args = 0
 3519              	.LVL414:
 3520 0000 2DE9F04F 		push	{r4, r5, r6, r7, r8, r9, r10, fp, lr}
 3521              		.cfi_def_cfa_offset 36
 3522              		.cfi_offset 4, -36
 3523              		.cfi_offset 5, -32
 3524              		.cfi_offset 6, -28
 3525              		.cfi_offset 7, -24
 3526              		.cfi_offset 8, -20
 3527              		.cfi_offset 9, -16
 3528              		.cfi_offset 10, -12
 3529              		.cfi_offset 11, -8
 3530              		.cfi_offset 14, -4
 3531 0004 8BB0     		sub	sp, sp, #44
 3532              		.cfi_def_cfa_offset 80
 3533              		.loc 1 514 0
 3534 0006 9346     		mov	fp, r2
ARM GAS  /tmp/cc2f1tkm.s 			page 63


 3535 0008 0593     		str	r3, [sp, #20]
 3536              		.loc 1 515 0
 3537 000a 0390     		str	r0, [sp, #12]
 3538 000c 0028     		cmp	r0, #0
 3539 000e 00F06981 		beq	.L392
 3540              		.loc 1 515 0 is_stmt 0 discriminator 1
 3541 0012 149A     		ldr	r2, [sp, #80]
 3542              	.LVL415:
 3543 0014 002A     		cmp	r2, #0
 3544 0016 00F06581 		beq	.L392
 3545              		.loc 1 520 0 is_stmt 1
 3546 001a 0BF1FF32 		add	r2, fp, #-1
 3547 001e 0C46     		mov	r4, r1
 3548 0020 1946     		mov	r1, r3
 3549              	.LVL416:
 3550 0022 D3B2     		uxtb	r3, r2
 3551              	.LVL417:
 3552 0024 3F2B     		cmp	r3, #63
 3553 0026 0692     		str	r2, [sp, #24]
 3554 0028 00F25C81 		bhi	.L392
 3555              		.loc 1 525 0
 3556 002c BBF1010F 		cmp	fp, #1
 3557 0030 02D1     		bne	.L347
 3558              		.loc 1 525 0 is_stmt 0 discriminator 1
 3559 0032 0029     		cmp	r1, #0
 3560 0034 40F05681 		bne	.L392
 3561              	.L347:
 3562              	.LBB542:
 3563              	.LBB543:
 3564              		.loc 1 1364 0 is_stmt 1
 3565 0038 039B     		ldr	r3, [sp, #12]
 3566 003a 9D8A     		ldrh	r5, [r3, #20]
 3567 003c EB00     		lsls	r3, r5, #3
 3568              	.LBE543:
 3569              	.LBE542:
 3570              		.loc 1 548 0
 3571 003e 0022     		movs	r2, #0
 3572              	.LBB565:
 3573              	.LBB558:
 3574              		.loc 1 1364 0
 3575 0040 9C42     		cmp	r4, r3
 3576              	.LBE558:
 3577              	.LBE565:
 3578              		.loc 1 548 0
 3579 0042 CDE90822 		strd	r2, r2, [sp, #32]
 3580              	.LBB566:
 3581              	.LBB559:
 3582              		.loc 1 1364 0
 3583 0046 80F0A380 		bcs	.L362
 3584              		.loc 1 1369 0
 3585 004a 04EB0B02 		add	r2, r4, fp
 3586 004e 9342     		cmp	r3, r2
 3587              		.loc 1 1371 0
 3588 0050 3EBF     		ittt	cc
 3589 0052 1B1B     		subcc	r3, r3, r4
 3590 0054 DBB2     		uxtbcc	r3, r3
 3591 0056 0493     		strcc	r3, [sp, #16]
ARM GAS  /tmp/cc2f1tkm.s 			page 64


 3592              	.LVL418:
 3593              		.loc 1 1376 0
 3594 0058 039B     		ldr	r3, [sp, #12]
 3595              		.loc 1 1369 0
 3596 005a 28BF     		it	cs
 3597 005c CDF810B0 		strcs	fp, [sp, #16]
 3598              	.LVL419:
 3599              		.loc 1 1376 0
 3600 0060 DE68     		ldr	r6, [r3, #12]
 3601 0062 002E     		cmp	r6, #0
 3602 0064 00F0AA80 		beq	.L441
 3603              	.LVL420:
 3604              	.LBB544:
 3605              		.loc 1 1388 0
 3606 0068 2F2C     		cmp	r4, #47
 3607 006a 40F2AE80 		bls	.L380
 3608              		.loc 1 1401 0
 3609 006e 05F10055 		add	r5, r5, #536870912
 3610 0072 063D     		subs	r5, r5, #6
 3611              		.loc 1 1384 0
 3612 0074 0023     		movs	r3, #0
 3613              		.loc 1 1385 0
 3614 0076 DDF81080 		ldr	r8, [sp, #16]
 3615              		.loc 1 1384 0
 3616 007a 0293     		str	r3, [sp, #8]
 3617              		.loc 1 1401 0
 3618 007c ED00     		lsls	r5, r5, #3
 3619              	.LVL421:
 3620              	.L382:
 3621              		.loc 1 1405 0
 3622 007e B8F1000F 		cmp	r8, #0
 3623 0082 38D0     		beq	.L356
 3624              		.loc 1 1402 0
 3625 0084 4346     		mov	r3, r8
 3626 0086 3021     		movs	r1, #48
 3627 0088 A846     		mov	r8, r5
 3628 008a CDF81CB0 		str	fp, [sp, #28]
 3629 008e 1D46     		mov	r5, r3
 3630              	.LVL422:
 3631              	.L355:
 3632              	.LBB545:
 3633              		.loc 1 1408 0
 3634 0090 B8F1E00F 		cmp	r8, #224
 3635 0094 C146     		mov	r9, r8
 3636 0096 28BF     		it	cs
 3637 0098 4FF0E009 		movcs	r9, #224
 3638 009c 09EB0107 		add	r7, r9, r1
 3639              	.LVL423:
 3640              		.loc 1 1412 0
 3641 00a0 A742     		cmp	r7, r4
 3642              	.LBB546:
 3643              		.loc 1 1414 0
 3644 00a2 A7EB0403 		sub	r3, r7, r4
 3645 00a6 AB46     		mov	fp, r5
 3646              	.LBE546:
 3647              		.loc 1 1412 0
 3648 00a8 5BD9     		bls	.L357
ARM GAS  /tmp/cc2f1tkm.s 			page 65


 3649              	.LBB547:
 3650              		.loc 1 1414 0
 3651 00aa 5FFA83FA 		uxtb	r10, r3
 3652 00ae 9D42     		cmp	r5, r3
 3653 00b0 A5EB0A03 		sub	r3, r5, r10
 3654              	.LVL424:
 3655 00b4 24BF     		itt	cs
 3656 00b6 D346     		movcs	fp, r10
 3657 00b8 DDB2     		uxtbcs	r5, r3
 3658              		.loc 1 1419 0
 3659 00ba 08A8     		add	r0, sp, #32
 3660 00bc 029B     		ldr	r3, [sp, #8]
 3661              	.LVL425:
 3662 00be 0093     		str	r3, [sp]
 3663 00c0 A4EB0101 		sub	r1, r4, r1
 3664              	.LVL426:
 3665 00c4 0346     		mov	r3, r0
 3666 00c6 5A46     		mov	r2, fp
 3667 00c8 06F10400 		add	r0, r6, #4
 3668              		.loc 1 1414 0
 3669 00cc 3CBF     		itt	cc
 3670 00ce AA46     		movcc	r10, r5
 3671              	.LVL427:
 3672 00d0 0025     		movcc	r5, #0
 3673              		.loc 1 1419 0
 3674 00d2 FFF7FEFF 		bl	copyBitArray
 3675              	.LVL428:
 3676              		.loc 1 1422 0
 3677 00d6 029B     		ldr	r3, [sp, #8]
 3678              	.LBE547:
 3679              		.loc 1 1429 0
 3680 00d8 3668     		ldr	r6, [r6]
 3681              	.LVL429:
 3682              	.LBB548:
 3683              		.loc 1 1422 0
 3684 00da 9A44     		add	r10, r10, r3
 3685              	.LVL430:
 3686 00dc 5FFA8AF3 		uxtb	r3, r10
 3687              		.loc 1 1421 0
 3688 00e0 5C44     		add	r4, r4, fp
 3689              	.LVL431:
 3690 00e2 A8EB0908 		sub	r8, r8, r9
 3691              	.LVL432:
 3692              		.loc 1 1422 0
 3693 00e6 0293     		str	r3, [sp, #8]
 3694              	.LVL433:
 3695              	.LBE548:
 3696              	.LBE545:
 3697              		.loc 1 1405 0
 3698 00e8 002E     		cmp	r6, #0
 3699 00ea 3FD0     		beq	.L433
 3700 00ec 0DB1     		cbz	r5, .L442
 3701              	.LVL434:
 3702              	.L360:
 3703              		.loc 1 1384 0
 3704 00ee 3946     		mov	r1, r7
 3705 00f0 CEE7     		b	.L355
ARM GAS  /tmp/cc2f1tkm.s 			page 66


 3706              	.LVL435:
 3707              	.L442:
 3708 00f2 DDF81CB0 		ldr	fp, [sp, #28]
 3709              	.LVL436:
 3710              	.L356:
 3711              	.LBE544:
 3712              		.loc 1 1457 0
 3713 00f6 049B     		ldr	r3, [sp, #16]
 3714 00f8 18B2     		sxth	r0, r3
 3715              	.LBE559:
 3716              	.LBE566:
 3717              		.loc 1 551 0
 3718 00fa 002B     		cmp	r3, #0
 3719 00fc 48D0     		beq	.L362
 3720              		.loc 1 564 0
 3721 00fe 1BF0070F 		tst	fp, #7
 3722 0102 0CD0     		beq	.L363
 3723              		.loc 1 567 0
 3724 0104 0AAA     		add	r2, sp, #40
 3725 0106 02EBDB02 		add	r2, r2, fp, lsr #3
 3726 010a CBF10003 		rsb	r3, fp, #0
 3727 010e 12F8081C 		ldrb	r1, [r2, #-8]	@ zero_extendqisi2
 3728 0112 03F00703 		and	r3, r3, #7
 3729 0116 41FA03F3 		asr	r3, r1, r3
 3730 011a 02F8083C 		strb	r3, [r2, #-8]
 3731              	.L363:
 3732              	.LVL437:
 3733              		.loc 1 575 0
 3734 011e BBF1080F 		cmp	fp, #8
 3735 0122 72D8     		bhi	.L443
 3736 0124 0123     		movs	r3, #1
 3737              	.L364:
 3738              	.LVL438:
 3739              		.loc 1 599 0
 3740 0126 059A     		ldr	r2, [sp, #20]
 3741 0128 002A     		cmp	r2, #0
 3742 012a 35D0     		beq	.L365
 3743              		.loc 1 599 0 is_stmt 0 discriminator 1
 3744 012c BBEBC30F 		cmp	fp, r3, lsl #3
 3745 0130 35D0     		beq	.L429
 3746              		.loc 1 601 0 is_stmt 1
 3747 0132 BBF1080F 		cmp	fp, #8
 3748 0136 7BD8     		bhi	.L367
 3749              		.loc 1 603 0
 3750 0138 9DF82030 		ldrb	r3, [sp, #32]	@ zero_extendqisi2
 3751              	.LVL439:
 3752 013c 069A     		ldr	r2, [sp, #24]
 3753 013e 23FA02F2 		lsr	r2, r3, r2
 3754 0142 D107     		lsls	r1, r2, #31
 3755 0144 06D5     		bpl	.L437
 3756              		.loc 1 605 0
 3757 0146 4FF0FF32 		mov	r2, #-1
 3758 014a 02FA0BF2 		lsl	r2, r2, fp
 3759 014e 1343     		orrs	r3, r3, r2
 3760 0150 8DF82030 		strb	r3, [sp, #32]
 3761              	.L437:
 3762              		.loc 1 654 0 discriminator 1
ARM GAS  /tmp/cc2f1tkm.s 			page 67


 3763 0154 9DF82030 		ldrb	r3, [sp, #32]	@ zero_extendqisi2
 3764 0158 149A     		ldr	r2, [sp, #80]
 3765 015a 1370     		strb	r3, [r2]
 3766              	.LVL440:
 3767              		.loc 1 668 0 discriminator 1
 3768 015c 0BB0     		add	sp, sp, #44
 3769              		.cfi_remember_state
 3770              		.cfi_def_cfa_offset 36
 3771              		@ sp needed
 3772 015e BDE8F08F 		pop	{r4, r5, r6, r7, r8, r9, r10, fp, pc}
 3773              	.LVL441:
 3774              	.L357:
 3775              		.cfi_restore_state
 3776              	.LBB567:
 3777              	.LBB560:
 3778              	.LBB554:
 3779              	.LBB549:
 3780              		.loc 1 1429 0
 3781 0162 3668     		ldr	r6, [r6]
 3782              	.LVL442:
 3783 0164 A8EB0908 		sub	r8, r8, r9
 3784              	.LVL443:
 3785              	.LBE549:
 3786              		.loc 1 1405 0
 3787 0168 002E     		cmp	r6, #0
 3788 016a C0D1     		bne	.L360
 3789              	.L433:
 3790 016c DDF81CB0 		ldr	fp, [sp, #28]
 3791 0170 A846     		mov	r8, r5
 3792              	.LVL444:
 3793              	.L354:
 3794              		.loc 1 1435 0
 3795 0172 039B     		ldr	r3, [sp, #12]
 3796 0174 1869     		ldr	r0, [r3, #16]
 3797 0176 0028     		cmp	r0, #0
 3798 0178 BDD0     		beq	.L356
 3799              	.LVL445:
 3800              	.L386:
 3801 017a B8F1000F 		cmp	r8, #0
 3802 017e BAD0     		beq	.L356
 3803              	.LVL446:
 3804              	.LBB550:
 3805              		.loc 1 1440 0
 3806 0180 029B     		ldr	r3, [sp, #8]
 3807 0182 0093     		str	r3, [sp]
 3808 0184 4246     		mov	r2, r8
 3809 0186 08AB     		add	r3, sp, #32
 3810 0188 E11B     		subs	r1, r4, r7
 3811 018a FFF7FEFF 		bl	copyBitArray
 3812              	.LVL447:
 3813 018e B2E7     		b	.L356
 3814              	.LVL448:
 3815              	.L362:
 3816              	.LBE550:
 3817              	.LBE554:
 3818              		.loc 1 1366 0
 3819 0190 0020     		movs	r0, #0
ARM GAS  /tmp/cc2f1tkm.s 			page 68


 3820              	.L426:
 3821              	.LBE560:
 3822              	.LBE567:
 3823              		.loc 1 668 0
 3824 0192 0BB0     		add	sp, sp, #44
 3825              		.cfi_remember_state
 3826              		.cfi_def_cfa_offset 36
 3827              		@ sp needed
 3828 0194 BDE8F08F 		pop	{r4, r5, r6, r7, r8, r9, r10, fp, pc}
 3829              	.LVL449:
 3830              	.L365:
 3831              		.cfi_restore_state
 3832              		.loc 1 653 0
 3833 0198 BBF1010F 		cmp	fp, #1
 3834 019c DAD0     		beq	.L437
 3835              	.L429:
 3836              		.loc 1 654 0
 3837 019e BBF1080F 		cmp	fp, #8
 3838 01a2 D7D9     		bls	.L437
 3839              		.loc 1 655 0
 3840 01a4 BBF1100F 		cmp	fp, #16
 3841 01a8 53D9     		bls	.L435
 3842              		.loc 1 656 0
 3843 01aa BBF1200F 		cmp	fp, #32
 3844 01ae 66D9     		bls	.L436
 3845              	.LVL450:
 3846              	.L376:
 3847              		.loc 1 657 0 discriminator 1
 3848 01b0 DDE90823 		ldrd	r2, [sp, #32]
 3849 01b4 1499     		ldr	r1, [sp, #80]
 3850 01b6 C1E90023 		strd	r2, [r1]
 3851 01ba EAE7     		b	.L426
 3852              	.LVL451:
 3853              	.L441:
 3854              	.LBB568:
 3855              	.LBB561:
 3856              		.loc 1 1376 0
 3857 01bc 1B69     		ldr	r3, [r3, #16]
 3858 01be 002B     		cmp	r3, #0
 3859 01c0 00F09380 		beq	.L444
 3860              	.LVL452:
 3861              	.LBB555:
 3862              		.loc 1 1388 0
 3863 01c4 2F2C     		cmp	r4, #47
 3864 01c6 00F29C80 		bhi	.L445
 3865              	.L380:
 3866              	.LBB551:
 3867              		.loc 1 1390 0
 3868 01ca 049B     		ldr	r3, [sp, #16]
 3869 01cc C4F1300A 		rsb	r10, r4, #48
 3870 01d0 5345     		cmp	r3, r10
 3871 01d2 1F46     		mov	r7, r3
 3872 01d4 1ED2     		bcs	.L446
 3873 01d6 049B     		ldr	r3, [sp, #16]
 3874 01d8 0293     		str	r3, [sp, #8]
 3875 01da 4FF00008 		mov	r8, #0
 3876              	.L353:
ARM GAS  /tmp/cc2f1tkm.s 			page 69


 3877              	.LVL453:
 3878              		.loc 1 1393 0
 3879 01de 039D     		ldr	r5, [sp, #12]
 3880 01e0 0023     		movs	r3, #0
 3881 01e2 A868     		ldr	r0, [r5, #8]
 3882              	.LVL454:
 3883 01e4 0093     		str	r3, [sp]
 3884 01e6 2146     		mov	r1, r4
 3885 01e8 08AB     		add	r3, sp, #32
 3886 01ea 3A46     		mov	r2, r7
 3887 01ec FFF7FEFF 		bl	copyBitArray
 3888              	.LVL455:
 3889              	.LBE551:
 3890              		.loc 1 1401 0
 3891 01f0 2B46     		mov	r3, r5
 3892 01f2 AD8A     		ldrh	r5, [r5, #20]
 3893              		.loc 1 1403 0
 3894 01f4 DE68     		ldr	r6, [r3, #12]
 3895              		.loc 1 1401 0
 3896 01f6 05F10055 		add	r5, r5, #536870912
 3897 01fa 063D     		subs	r5, r5, #6
 3898              	.LBB552:
 3899              		.loc 1 1395 0
 3900 01fc 3C44     		add	r4, r4, r7
 3901              	.LVL456:
 3902              	.LBE552:
 3903              		.loc 1 1401 0
 3904 01fe ED00     		lsls	r5, r5, #3
 3905              	.LVL457:
 3906              		.loc 1 1405 0
 3907 0200 002E     		cmp	r6, #0
 3908 0202 7FF43CAF 		bne	.L382
 3909              		.loc 1 1402 0
 3910 0206 3027     		movs	r7, #48
 3911              	.LVL458:
 3912 0208 B3E7     		b	.L354
 3913              	.LVL459:
 3914              	.L443:
 3915              	.LBE555:
 3916              	.LBE561:
 3917              	.LBE568:
 3918              		.loc 1 576 0
 3919 020a BBF1100F 		cmp	fp, #16
 3920 020e 09D8     		bhi	.L447
 3921 0210 0223     		movs	r3, #2
 3922 0212 88E7     		b	.L364
 3923              	.LVL460:
 3924              	.L446:
 3925              	.LBB569:
 3926              	.LBB562:
 3927              	.LBB556:
 3928              	.LBB553:
 3929              		.loc 1 1390 0
 3930 0214 5FFA8AF7 		uxtb	r7, r10
 3931 0218 A3EB0708 		sub	r8, r3, r7
 3932 021c 0297     		str	r7, [sp, #8]
 3933 021e 5FFA88F8 		uxtb	r8, r8
ARM GAS  /tmp/cc2f1tkm.s 			page 70


 3934 0222 DCE7     		b	.L353
 3935              	.LVL461:
 3936              	.L447:
 3937              	.LBE553:
 3938              	.LBE556:
 3939              	.LBE562:
 3940              	.LBE569:
 3941              		.loc 1 578 0
 3942 0224 BBF1210F 		cmp	fp, #33
 3943 0228 34BF     		ite	cc
 3944 022a 0423     		movcc	r3, #4
 3945 022c 0823     		movcs	r3, #8
 3946 022e 7AE7     		b	.L364
 3947              	.LVL462:
 3948              	.L367:
 3949              		.loc 1 608 0
 3950 0230 BBF1100F 		cmp	fp, #16
 3951 0234 14D8     		bhi	.L369
 3952              		.loc 1 610 0
 3953 0236 BDF82030 		ldrh	r3, [sp, #32]
 3954              	.LVL463:
 3955 023a 069A     		ldr	r2, [sp, #24]
 3956 023c 23FA02F2 		lsr	r2, r3, r2
 3957 0240 D207     		lsls	r2, r2, #31
 3958 0242 06D5     		bpl	.L435
 3959              		.loc 1 612 0
 3960 0244 4FF0FF32 		mov	r2, #-1
 3961 0248 02FA0BF2 		lsl	r2, r2, fp
 3962 024c 1343     		orrs	r3, r3, r2
 3963 024e ADF82030 		strh	r3, [sp, #32]	@ movhi
 3964              	.L435:
 3965              		.loc 1 655 0 discriminator 1
 3966 0252 BDF82030 		ldrh	r3, [sp, #32]
 3967 0256 149A     		ldr	r2, [sp, #80]
 3968 0258 1380     		strh	r3, [r2]	@ movhi
 3969              		.loc 1 668 0 discriminator 1
 3970 025a 0BB0     		add	sp, sp, #44
 3971              		.cfi_remember_state
 3972              		.cfi_def_cfa_offset 36
 3973              		@ sp needed
 3974 025c BDE8F08F 		pop	{r4, r5, r6, r7, r8, r9, r10, fp, pc}
 3975              	.LVL464:
 3976              	.L369:
 3977              		.cfi_restore_state
 3978              		.loc 1 615 0
 3979 0260 BBF1200F 		cmp	fp, #32
 3980 0264 0FD8     		bhi	.L371
 3981              		.loc 1 617 0
 3982 0266 089A     		ldr	r2, [sp, #32]
 3983 0268 069B     		ldr	r3, [sp, #24]
 3984              	.LVL465:
 3985 026a 22FA03F3 		lsr	r3, r2, r3
 3986 026e DB07     		lsls	r3, r3, #31
 3987 0270 05D5     		bpl	.L436
 3988              		.loc 1 619 0
 3989 0272 4FF0FF33 		mov	r3, #-1
 3990 0276 03FA0BF3 		lsl	r3, r3, fp
ARM GAS  /tmp/cc2f1tkm.s 			page 71


 3991 027a 1343     		orrs	r3, r3, r2
 3992 027c 0893     		str	r3, [sp, #32]
 3993              	.L436:
 3994              		.loc 1 656 0 discriminator 1
 3995 027e 149A     		ldr	r2, [sp, #80]
 3996 0280 089B     		ldr	r3, [sp, #32]
 3997 0282 1360     		str	r3, [r2]
 3998 0284 85E7     		b	.L426
 3999              	.LVL466:
 4000              	.L371:
 4001              		.loc 1 622 0
 4002 0286 BBF1400F 		cmp	fp, #64
 4003 028a 37D0     		beq	.L401
 4004              		.loc 1 624 0
 4005 028c DDE90889 		ldrd	r8, [sp, #32]
 4006 0290 069B     		ldr	r3, [sp, #24]
 4007              	.LVL467:
 4008 0292 C3F12006 		rsb	r6, r3, #32
 4009 0296 28FA03F4 		lsr	r4, r8, r3
 4010 029a 09FA06F6 		lsl	r6, r9, r6
 4011 029e ABF12101 		sub	r1, fp, #33
 4012 02a2 3443     		orrs	r4, r4, r6
 4013 02a4 29FA01F1 		lsr	r1, r9, r1
 4014 02a8 0C43     		orrs	r4, r4, r1
 4015 02aa 04F00102 		and	r2, r4, #1
 4016 02ae 0023     		movs	r3, #0
 4017 02b0 1343     		orrs	r3, r2, r3
 4018 02b2 3FF47DAF 		beq	.L376
 4019              		.loc 1 626 0
 4020 02b6 0121     		movs	r1, #1
 4021 02b8 ABF12007 		sub	r7, fp, #32
 4022 02bc CBF12006 		rsb	r6, fp, #32
 4023 02c0 01FA07F3 		lsl	r3, r1, r7
 4024 02c4 21FA06F6 		lsr	r6, r1, r6
 4025 02c8 01FA0BF2 		lsl	r2, r1, fp
 4026 02cc 5242     		rsbs	r2, r2, #0
 4027 02ce 43EA0603 		orr	r3, r3, r6
 4028 02d2 63EB4303 		sbc	r3, r3, r3, lsl #1
 4029 02d6 48EA0204 		orr	r4, r8, r2
 4030 02da 49EA0305 		orr	r5, r9, r3
 4031 02de CDE90845 		strd	r4, [sp, #32]
 4032 02e2 65E7     		b	.L376
 4033              	.LVL468:
 4034              	.L392:
 4035              		.loc 1 517 0
 4036 02e4 6FF00100 		mvn	r0, #1
 4037              	.LVL469:
 4038 02e8 53E7     		b	.L426
 4039              	.LVL470:
 4040              	.L444:
 4041              	.LBB570:
 4042              	.LBB563:
 4043              		.loc 1 1454 0
 4044 02ea 039A     		ldr	r2, [sp, #12]
 4045 02ec 2146     		mov	r1, r4
 4046 02ee 9068     		ldr	r0, [r2, #8]
 4047              	.LVL471:
ARM GAS  /tmp/cc2f1tkm.s 			page 72


 4048 02f0 0093     		str	r3, [sp]
 4049 02f2 049A     		ldr	r2, [sp, #16]
 4050 02f4 08AB     		add	r3, sp, #32
 4051 02f6 FFF7FEFF 		bl	copyBitArray
 4052              	.LVL472:
 4053 02fa FCE6     		b	.L356
 4054              	.LVL473:
 4055              	.L401:
 4056              	.LBE563:
 4057              	.LBE570:
 4058              		.loc 1 632 0
 4059 02fc 6FF00800 		mvn	r0, #8
 4060 0300 47E7     		b	.L426
 4061              	.LVL474:
 4062              	.L445:
 4063              	.LBB571:
 4064              	.LBB564:
 4065              	.LBB557:
 4066              		.loc 1 1435 0
 4067 0302 1846     		mov	r0, r3
 4068              	.LVL475:
 4069              		.loc 1 1384 0
 4070 0304 0296     		str	r6, [sp, #8]
 4071              		.loc 1 1385 0
 4072 0306 DDF81080 		ldr	r8, [sp, #16]
 4073              		.loc 1 1402 0
 4074 030a 3027     		movs	r7, #48
 4075 030c 35E7     		b	.L386
 4076              	.LBE557:
 4077              	.LBE564:
 4078              	.LBE571:
 4079              		.cfi_endproc
 4080              	.LFE10:
 4081              		.size	canardDecodeScalar, .-canardDecodeScalar
 4082 030e 00BF     		.section	.text.canardEncodeScalar,"ax",%progbits
 4083              		.align	1
 4084              		.p2align 4,,15
 4085              		.global	canardEncodeScalar
 4086              		.syntax unified
 4087              		.thumb
 4088              		.thumb_func
 4089              		.fpu fpv4-sp-d16
 4090              		.type	canardEncodeScalar, %function
 4091              	canardEncodeScalar:
 4092              	.LFB11:
 4093              		.loc 1 674 0
 4094              		.cfi_startproc
 4095              		@ args = 0, pretend = 0, frame = 8
 4096              		@ frame_needed = 0, uses_anonymous_args = 0
 4097              	.LVL476:
 4098 0000 2DE9F043 		push	{r4, r5, r6, r7, r8, r9, lr}
 4099              		.cfi_def_cfa_offset 28
 4100              		.cfi_offset 4, -28
 4101              		.cfi_offset 5, -24
 4102              		.cfi_offset 6, -20
 4103              		.cfi_offset 7, -16
 4104              		.cfi_offset 8, -12
ARM GAS  /tmp/cc2f1tkm.s 			page 73


 4105              		.cfi_offset 9, -8
 4106              		.cfi_offset 14, -4
 4107              		.loc 1 683 0
 4108 0004 402A     		cmp	r2, #64
 4109              		.loc 1 674 0
 4110 0006 85B0     		sub	sp, sp, #20
 4111              		.cfi_def_cfa_offset 48
 4112              		.loc 1 674 0
 4113 0008 0646     		mov	r6, r0
 4114              		.loc 1 683 0
 4115 000a 0ED9     		bls	.L463
 4116              	.LVL477:
 4117              		.loc 1 717 0
 4118 000c D3E90023 		ldrd	r2, [r3]
 4119              	.LVL478:
 4120 0010 04A8     		add	r0, sp, #16
 4121              	.LVL479:
 4122 0012 60E90223 		strd	r2, [r0, #-8]!
 4123              	.LVL480:
 4124 0016 4027     		movs	r7, #64
 4125              	.LVL481:
 4126              	.L458:
 4127              		.loc 1 746 0
 4128 0018 0091     		str	r1, [sp]
 4129 001a 3346     		mov	r3, r6
 4130 001c 3A46     		mov	r2, r7
 4131 001e 0021     		movs	r1, #0
 4132              	.LVL482:
 4133 0020 FFF7FEFF 		bl	copyBitArray
 4134              	.LVL483:
 4135              		.loc 1 747 0
 4136 0024 05B0     		add	sp, sp, #20
 4137              		.cfi_remember_state
 4138              		.cfi_def_cfa_offset 28
 4139              		@ sp needed
 4140 0026 BDE8F083 		pop	{r4, r5, r6, r7, r8, r9, pc}
 4141              	.LVL484:
 4142              	.L463:
 4143              		.cfi_restore_state
 4144              		.loc 1 708 0
 4145 002a 02A8     		add	r0, sp, #8
 4146              	.LVL485:
 4147              		.loc 1 689 0
 4148 002c 7AB9     		cbnz	r2, .L450
 4149              	.LVL486:
 4150              		.loc 1 708 0
 4151 002e 0292     		str	r2, [sp, #8]
 4152 0030 4260     		str	r2, [r0, #4]
 4153              	.LVL487:
 4154              	.L451:
 4155              		.loc 1 713 0 discriminator 1
 4156 0032 1B78     		ldrb	r3, [r3]	@ zero_extendqisi2
 4157              	.LVL488:
 4158 0034 8DF80830 		strb	r3, [sp, #8]
 4159              	.LVL489:
 4160 0038 0725     		movs	r5, #7
 4161 003a 0127     		movs	r7, #1
ARM GAS  /tmp/cc2f1tkm.s 			page 74


 4162 003c 0023     		movs	r3, #0
 4163              	.L453:
 4164              		.loc 1 740 0
 4165 003e 04AA     		add	r2, sp, #16
 4166 0040 1344     		add	r3, r3, r2
 4167 0042 13F8084C 		ldrb	r4, [r3, #-8]	@ zero_extendqisi2
 4168 0046 AC40     		lsls	r4, r4, r5
 4169 0048 03F8084C 		strb	r4, [r3, #-8]
 4170 004c E4E7     		b	.L458
 4171              	.LVL490:
 4172              	.L450:
 4173              		.loc 1 708 0
 4174 004e 0024     		movs	r4, #0
 4175              		.loc 1 713 0
 4176 0050 012A     		cmp	r2, #1
 4177              		.loc 1 708 0
 4178 0052 0294     		str	r4, [sp, #8]
 4179 0054 4460     		str	r4, [r0, #4]
 4180              	.LVL491:
 4181              		.loc 1 713 0
 4182 0056 ECD0     		beq	.L451
 4183              		.loc 1 714 0
 4184 0058 082A     		cmp	r2, #8
 4185 005a 02F00704 		and	r4, r2, #7
 4186 005e 1746     		mov	r7, r2
 4187 0060 09D8     		bhi	.L454
 4188              	.LVL492:
 4189              		.loc 1 714 0 is_stmt 0 discriminator 1
 4190 0062 1B78     		ldrb	r3, [r3]	@ zero_extendqisi2
 4191              	.LVL493:
 4192 0064 8DF80830 		strb	r3, [sp, #8]
 4193              	.LVL494:
 4194              	.L455:
 4195              		.loc 1 737 0 is_stmt 1
 4196 0068 002C     		cmp	r4, #0
 4197 006a D5D0     		beq	.L458
 4198 006c 5442     		negs	r4, r2
 4199 006e 04F00705 		and	r5, r4, #7
 4200 0072 D308     		lsrs	r3, r2, #3
 4201 0074 E3E7     		b	.L453
 4202              	.LVL495:
 4203              	.L454:
 4204              		.loc 1 715 0
 4205 0076 102A     		cmp	r2, #16
 4206 0078 03D8     		bhi	.L456
 4207              	.LVL496:
 4208              		.loc 1 715 0 is_stmt 0 discriminator 1
 4209 007a 1B88     		ldrh	r3, [r3]
 4210              	.LVL497:
 4211 007c ADF80830 		strh	r3, [sp, #8]	@ movhi
 4212 0080 F2E7     		b	.L455
 4213              	.LVL498:
 4214              	.L456:
 4215              		.loc 1 716 0 is_stmt 1
 4216 0082 202A     		cmp	r2, #32
 4217 0084 04D9     		bls	.L464
 4218              	.LVL499:
ARM GAS  /tmp/cc2f1tkm.s 			page 75


 4219              		.loc 1 717 0 discriminator 1
 4220 0086 D3E90089 		ldrd	r8, [r3]
 4221 008a CDE90289 		strd	r8, [sp, #8]
 4222 008e EBE7     		b	.L455
 4223              	.LVL500:
 4224              	.L464:
 4225              		.loc 1 716 0 discriminator 1
 4226 0090 1B68     		ldr	r3, [r3]
 4227              	.LVL501:
 4228 0092 0293     		str	r3, [sp, #8]
 4229 0094 E8E7     		b	.L455
 4230              		.cfi_endproc
 4231              	.LFE11:
 4232              		.size	canardEncodeScalar, .-canardEncodeScalar
 4233 0096 00BF     		.section	.text.canardReleaseRxTransferPayload,"ax",%progbits
 4234              		.align	1
 4235              		.p2align 4,,15
 4236              		.global	canardReleaseRxTransferPayload
 4237              		.syntax unified
 4238              		.thumb
 4239              		.thumb_func
 4240              		.fpu fpv4-sp-d16
 4241              		.type	canardReleaseRxTransferPayload, %function
 4242              	canardReleaseRxTransferPayload:
 4243              	.LFB12:
 4244              		.loc 1 750 0
 4245              		.cfi_startproc
 4246              		@ args = 0, pretend = 0, frame = 0
 4247              		@ frame_needed = 0, uses_anonymous_args = 0
 4248              		@ link register save eliminated.
 4249              	.LVL502:
 4250              		.loc 1 751 0
 4251 0000 CB68     		ldr	r3, [r1, #12]
 4252              		.loc 1 750 0
 4253 0002 30B4     		push	{r4, r5}
 4254              		.cfi_def_cfa_offset 8
 4255              		.cfi_offset 4, -8
 4256              		.cfi_offset 5, -4
 4257              		.loc 1 751 0
 4258 0004 63B1     		cbz	r3, .L466
 4259 0006 428A     		ldrh	r2, [r0, #18]
 4260 0008 C568     		ldr	r5, [r0, #12]
 4261 000a 00E0     		b	.L467
 4262              	.LVL503:
 4263              	.L468:
 4264 000c 2346     		mov	r3, r4
 4265              	.LVL504:
 4266              	.L467:
 4267              	.LBB572:
 4268              		.loc 1 753 0
 4269 000e 1C68     		ldr	r4, [r3]
 4270              	.LVL505:
 4271              	.LBB573:
 4272              	.LBB574:
 4273              		.loc 1 1580 0
 4274 0010 1D60     		str	r5, [r3]
 4275              		.loc 1 1584 0
ARM GAS  /tmp/cc2f1tkm.s 			page 76


 4276 0012 013A     		subs	r2, r2, #1
 4277 0014 92B2     		uxth	r2, r2
 4278              	.LVL506:
 4279              		.loc 1 1581 0
 4280 0016 C360     		str	r3, [r0, #12]
 4281 0018 1D46     		mov	r5, r3
 4282              	.LBE574:
 4283              	.LBE573:
 4284              	.LBE572:
 4285              		.loc 1 751 0
 4286 001a 002C     		cmp	r4, #0
 4287 001c F6D1     		bne	.L468
 4288 001e 4282     		strh	r2, [r0, #18]	@ movhi
 4289              	.LVL507:
 4290              	.L466:
 4291              		.loc 1 758 0
 4292 0020 0023     		movs	r3, #0
 4293              		.loc 1 759 0
 4294 0022 C1E90233 		strd	r3, r3, [r1, #8]
 4295              		.loc 1 760 0
 4296 0026 0B61     		str	r3, [r1, #16]
 4297              		.loc 1 761 0
 4298 0028 8B82     		strh	r3, [r1, #20]	@ movhi
 4299              		.loc 1 762 0
 4300 002a 30BC     		pop	{r4, r5}
 4301              		.cfi_restore 5
 4302              		.cfi_restore 4
 4303              		.cfi_def_cfa_offset 0
 4304 002c 7047     		bx	lr
 4305              		.cfi_endproc
 4306              	.LFE12:
 4307              		.size	canardReleaseRxTransferPayload, .-canardReleaseRxTransferPayload
 4308 002e 00BF     		.section	.text.canardGetPoolAllocatorStatistics,"ax",%progbits
 4309              		.align	1
 4310              		.p2align 4,,15
 4311              		.global	canardGetPoolAllocatorStatistics
 4312              		.syntax unified
 4313              		.thumb
 4314              		.thumb_func
 4315              		.fpu fpv4-sp-d16
 4316              		.type	canardGetPoolAllocatorStatistics, %function
 4317              	canardGetPoolAllocatorStatistics:
 4318              	.LFB13:
 4319              		.loc 1 765 0
 4320              		.cfi_startproc
 4321              		@ args = 0, pretend = 0, frame = 0
 4322              		@ frame_needed = 0, uses_anonymous_args = 0
 4323              		@ link register save eliminated.
 4324              	.LVL508:
 4325              		.loc 1 765 0
 4326 0000 0346     		mov	r3, r0
 4327              		.loc 1 766 0
 4328 0002 8A8A     		ldrh	r2, [r1, #20]	@ unaligned
 4329 0004 0869     		ldr	r0, [r1, #16]
 4330              	.LVL509:
 4331 0006 1860     		str	r0, [r3]	@ unaligned
 4332 0008 9A80     		strh	r2, [r3, #4]	@ unaligned
ARM GAS  /tmp/cc2f1tkm.s 			page 77


 4333              		.loc 1 767 0
 4334 000a 1846     		mov	r0, r3
 4335 000c 7047     		bx	lr
 4336              		.cfi_endproc
 4337              	.LFE13:
 4338              		.size	canardGetPoolAllocatorStatistics, .-canardGetPoolAllocatorStatistics
 4339 000e 00BF     		.section	.text.canardConvertNativeFloatToFloat16,"ax",%progbits
 4340              		.align	1
 4341              		.p2align 4,,15
 4342              		.global	canardConvertNativeFloatToFloat16
 4343              		.syntax unified
 4344              		.thumb
 4345              		.thumb_func
 4346              		.fpu fpv4-sp-d16
 4347              		.type	canardConvertNativeFloatToFloat16, %function
 4348              	canardConvertNativeFloatToFloat16:
 4349              	.LFB14:
 4350              		.loc 1 770 0
 4351              		.cfi_startproc
 4352              		@ args = 0, pretend = 0, frame = 0
 4353              		@ frame_needed = 0, uses_anonymous_args = 0
 4354              		@ link register save eliminated.
 4355              	.LVL510:
 4356              		.loc 1 787 0
 4357 0000 10EE103A 		vmov	r3, s0	@ int
 4358              	.LVL511:
 4359              		.loc 1 788 0
 4360 0004 23F00042 		bic	r2, r3, #-2147483648
 4361              	.LVL512:
 4362              		.loc 1 792 0
 4363 0008 B2F1FF4F 		cmp	r2, #2139095040
 4364 000c 0AD3     		bcc	.L475
 4365              		.loc 1 808 0
 4366 000e 4FEA1343 		lsr	r3, r3, #16
 4367              		.loc 1 794 0
 4368 0012 47F6FF70 		movw	r0, #32767
 4369              		.loc 1 808 0
 4370 0016 03F40043 		and	r3, r3, #32768
 4371              		.loc 1 794 0
 4372 001a 08BF     		it	eq
 4373 001c 4FF4F840 		moveq	r0, #31744
 4374              	.LVL513:
 4375              		.loc 1 811 0
 4376 0020 1843     		orrs	r0, r0, r3
 4377              	.LVL514:
 4378 0022 7047     		bx	lr
 4379              	.LVL515:
 4380              	.L475:
 4381              		.loc 1 798 0
 4382 0024 0B48     		ldr	r0, .L480
 4383              		.loc 1 799 0
 4384 0026 DFED0C7A 		vldr.32	s15, .L480+4
 4385              		.loc 1 798 0
 4386 002a 1840     		ands	r0, r0, r3
 4387              		.loc 1 799 0
 4388 002c 07EE100A 		vmov	s14, r0
 4389 0030 67EE277A 		vmul.f32	s15, s14, s15
ARM GAS  /tmp/cc2f1tkm.s 			page 78


 4390              		.loc 1 808 0
 4391 0034 1B0C     		lsrs	r3, r3, #16
 4392              		.loc 1 799 0
 4393 0036 17EE900A 		vmov	r0, s15
 4394              		.loc 1 800 0
 4395 003a 00F58050 		add	r0, r0, #4096
 4396              	.LVL516:
 4397              		.loc 1 801 0
 4398 003e B0F1786F 		cmp	r0, #260046848
 4399 0042 94BF     		ite	ls
 4400 0044 C0F34F30 		ubfxls	r0, r0, #13, #16
 4401              	.LVL517:
 4402 0048 4FF4F840 		movhi	r0, #31744
 4403              	.LVL518:
 4404              		.loc 1 808 0
 4405 004c 03F40043 		and	r3, r3, #32768
 4406              		.loc 1 811 0
 4407 0050 1843     		orrs	r0, r0, r3
 4408              	.LVL519:
 4409 0052 7047     		bx	lr
 4410              	.L481:
 4411              		.align	2
 4412              	.L480:
 4413 0054 00F0FF7F 		.word	2147479552
 4414 0058 00008007 		.word	125829120
 4415              		.cfi_endproc
 4416              	.LFE14:
 4417              		.size	canardConvertNativeFloatToFloat16, .-canardConvertNativeFloatToFloat16
 4418              		.section	.text.canardConvertFloat16ToNativeFloat,"ax",%progbits
 4419              		.align	1
 4420              		.p2align 4,,15
 4421              		.global	canardConvertFloat16ToNativeFloat
 4422              		.syntax unified
 4423              		.thumb
 4424              		.thumb_func
 4425              		.fpu fpv4-sp-d16
 4426              		.type	canardConvertFloat16ToNativeFloat, %function
 4427              	canardConvertFloat16ToNativeFloat:
 4428              	.LFB15:
 4429              		.loc 1 814 0
 4430              		.cfi_startproc
 4431              		@ args = 0, pretend = 0, frame = 0
 4432              		@ frame_needed = 0, uses_anonymous_args = 0
 4433              		@ link register save eliminated.
 4434              	.LVL520:
 4435              		.loc 1 827 0
 4436 0000 0D4B     		ldr	r3, .L486
 4437              		.loc 1 828 0
 4438 0002 DFED0E7A 		vldr.32	s15, .L486+4
 4439              		.loc 1 829 0
 4440 0006 9FED0E7A 		vldr.32	s14, .L486+8
 4441              	.LVL521:
 4442              		.loc 1 827 0
 4443 000a 03EA4033 		and	r3, r3, r0, lsl #13
 4444              		.loc 1 828 0
 4445 000e 06EE903A 		vmov	s13, r3
 4446 0012 66EEA77A 		vmul.f32	s15, s13, s15
ARM GAS  /tmp/cc2f1tkm.s 			page 79


 4447              	.LVL522:
 4448              		.loc 1 833 0
 4449 0016 0004     		lsls	r0, r0, #16
 4450              	.LVL523:
 4451 0018 17EE903A 		vmov	r3, s15	@ int
 4452              		.loc 1 829 0
 4453 001c F4EEC77A 		vcmpe.f32	s15, s14
 4454 0020 F1EE10FA 		vmrs	APSR_nzcv, FPSCR
 4455              		.loc 1 831 0
 4456 0024 A8BF     		it	ge
 4457 0026 43F0FF43 		orrge	r3, r3, #2139095040
 4458              	.LVL524:
 4459              		.loc 1 833 0
 4460 002a 00F00040 		and	r0, r0, #-2147483648
 4461              		.loc 1 835 0
 4462 002e 1843     		orrs	r0, r0, r3
 4463              		.loc 1 836 0
 4464 0030 00EE100A 		vmov	s0, r0
 4465 0034 7047     		bx	lr
 4466              	.L487:
 4467 0036 00BF     		.align	2
 4468              	.L486:
 4469 0038 00E0FF0F 		.word	268427264
 4470 003c 00008077 		.word	2004877312
 4471 0040 00008047 		.word	1199570944
 4472              		.cfi_endproc
 4473              	.LFE15:
 4474              		.size	canardConvertFloat16ToNativeFloat, .-canardConvertFloat16ToNativeFloat
 4475              		.text
 4476              	.Letext0:
 4477              		.file 2 "/usr/arm-none-eabi/include/machine/_default_types.h"
 4478              		.file 3 "/usr/arm-none-eabi/include/sys/_stdint.h"
 4479              		.file 4 "/usr/lib/gcc/arm-none-eabi/7.3.1/include/stddef.h"
 4480              		.file 5 "libcanard/canard.h"
 4481              		.file 6 "/usr/arm-none-eabi/include/sys/lock.h"
 4482              		.file 7 "/usr/arm-none-eabi/include/sys/_types.h"
 4483              		.file 8 "/usr/arm-none-eabi/include/sys/reent.h"
 4484              		.file 9 "<built-in>"
 4485              		.section	.debug_info,"",%progbits
 4486              	.Ldebug_info0:
 4487 0000 3A2F0000 		.4byte	0x2f3a
 4488 0004 0400     		.2byte	0x4
 4489 0006 00000000 		.4byte	.Ldebug_abbrev0
 4490 000a 04       		.byte	0x4
 4491 000b 01       		.uleb128 0x1
 4492 000c 3A030000 		.4byte	.LASF331
 4493 0010 0C       		.byte	0xc
 4494 0011 E10E0000 		.4byte	.LASF332
 4495 0015 4A0A0000 		.4byte	.LASF333
 4496 0019 18060000 		.4byte	.Ldebug_ranges0+0x618
 4497 001d 00000000 		.4byte	0
 4498 0021 00000000 		.4byte	.Ldebug_line0
 4499 0025 02       		.uleb128 0x2
 4500 0026 08       		.byte	0x8
 4501 0027 05       		.byte	0x5
 4502 0028 3F080000 		.4byte	.LASF0
 4503 002c 02       		.uleb128 0x2
ARM GAS  /tmp/cc2f1tkm.s 			page 80


 4504 002d 08       		.byte	0x8
 4505 002e 07       		.byte	0x7
 4506 002f 8C040000 		.4byte	.LASF1
 4507 0033 02       		.uleb128 0x2
 4508 0034 04       		.byte	0x4
 4509 0035 07       		.byte	0x7
 4510 0036 F2000000 		.4byte	.LASF2
 4511 003a 02       		.uleb128 0x2
 4512 003b 04       		.byte	0x4
 4513 003c 04       		.byte	0x4
 4514 003d F7020000 		.4byte	.LASF3
 4515 0041 03       		.uleb128 0x3
 4516 0042 350A0000 		.4byte	.LASF5
 4517 0046 02       		.byte	0x2
 4518 0047 29       		.byte	0x29
 4519 0048 4C000000 		.4byte	0x4c
 4520 004c 02       		.uleb128 0x2
 4521 004d 01       		.byte	0x1
 4522 004e 06       		.byte	0x6
 4523 004f 350F0000 		.4byte	.LASF4
 4524 0053 03       		.uleb128 0x3
 4525 0054 760C0000 		.4byte	.LASF6
 4526 0058 02       		.byte	0x2
 4527 0059 2B       		.byte	0x2b
 4528 005a 5E000000 		.4byte	0x5e
 4529 005e 02       		.uleb128 0x2
 4530 005f 01       		.byte	0x1
 4531 0060 08       		.byte	0x8
 4532 0061 2B0E0000 		.4byte	.LASF7
 4533 0065 03       		.uleb128 0x3
 4534 0066 ED080000 		.4byte	.LASF8
 4535 006a 02       		.byte	0x2
 4536 006b 37       		.byte	0x37
 4537 006c 70000000 		.4byte	0x70
 4538 0070 02       		.uleb128 0x2
 4539 0071 02       		.byte	0x2
 4540 0072 05       		.byte	0x5
 4541 0073 5B0B0000 		.4byte	.LASF9
 4542 0077 03       		.uleb128 0x3
 4543 0078 D9040000 		.4byte	.LASF10
 4544 007c 02       		.byte	0x2
 4545 007d 39       		.byte	0x39
 4546 007e 82000000 		.4byte	0x82
 4547 0082 02       		.uleb128 0x2
 4548 0083 02       		.byte	0x2
 4549 0084 07       		.byte	0x7
 4550 0085 480F0000 		.4byte	.LASF11
 4551 0089 03       		.uleb128 0x3
 4552 008a 3C010000 		.4byte	.LASF12
 4553 008e 02       		.byte	0x2
 4554 008f 4D       		.byte	0x4d
 4555 0090 94000000 		.4byte	0x94
 4556 0094 02       		.uleb128 0x2
 4557 0095 04       		.byte	0x4
 4558 0096 05       		.byte	0x5
 4559 0097 650B0000 		.4byte	.LASF13
 4560 009b 03       		.uleb128 0x3
ARM GAS  /tmp/cc2f1tkm.s 			page 81


 4561 009c 470E0000 		.4byte	.LASF14
 4562 00a0 02       		.byte	0x2
 4563 00a1 4F       		.byte	0x4f
 4564 00a2 A6000000 		.4byte	0xa6
 4565 00a6 02       		.uleb128 0x2
 4566 00a7 04       		.byte	0x4
 4567 00a8 07       		.byte	0x7
 4568 00a9 110D0000 		.4byte	.LASF15
 4569 00ad 03       		.uleb128 0x3
 4570 00ae 590A0000 		.4byte	.LASF16
 4571 00b2 02       		.byte	0x2
 4572 00b3 67       		.byte	0x67
 4573 00b4 25000000 		.4byte	0x25
 4574 00b8 03       		.uleb128 0x3
 4575 00b9 A7060000 		.4byte	.LASF17
 4576 00bd 02       		.byte	0x2
 4577 00be 69       		.byte	0x69
 4578 00bf 2C000000 		.4byte	0x2c
 4579 00c3 04       		.uleb128 0x4
 4580 00c4 04       		.byte	0x4
 4581 00c5 05       		.byte	0x5
 4582 00c6 696E7400 		.ascii	"int\000"
 4583 00ca 03       		.uleb128 0x3
 4584 00cb A3020000 		.4byte	.LASF18
 4585 00cf 03       		.byte	0x3
 4586 00d0 14       		.byte	0x14
 4587 00d1 41000000 		.4byte	0x41
 4588 00d5 03       		.uleb128 0x3
 4589 00d6 A5070000 		.4byte	.LASF19
 4590 00da 03       		.byte	0x3
 4591 00db 18       		.byte	0x18
 4592 00dc 53000000 		.4byte	0x53
 4593 00e0 05       		.uleb128 0x5
 4594 00e1 D5000000 		.4byte	0xd5
 4595 00e5 03       		.uleb128 0x3
 4596 00e6 5E040000 		.4byte	.LASF20
 4597 00ea 03       		.byte	0x3
 4598 00eb 20       		.byte	0x20
 4599 00ec 65000000 		.4byte	0x65
 4600 00f0 05       		.uleb128 0x5
 4601 00f1 E5000000 		.4byte	0xe5
 4602 00f5 03       		.uleb128 0x3
 4603 00f6 7D0A0000 		.4byte	.LASF21
 4604 00fa 03       		.byte	0x3
 4605 00fb 24       		.byte	0x24
 4606 00fc 77000000 		.4byte	0x77
 4607 0100 05       		.uleb128 0x5
 4608 0101 F5000000 		.4byte	0xf5
 4609 0105 03       		.uleb128 0x3
 4610 0106 6A0D0000 		.4byte	.LASF22
 4611 010a 03       		.byte	0x3
 4612 010b 2C       		.byte	0x2c
 4613 010c 89000000 		.4byte	0x89
 4614 0110 03       		.uleb128 0x3
 4615 0111 9A020000 		.4byte	.LASF23
 4616 0115 03       		.byte	0x3
 4617 0116 30       		.byte	0x30
ARM GAS  /tmp/cc2f1tkm.s 			page 82


 4618 0117 9B000000 		.4byte	0x9b
 4619 011b 05       		.uleb128 0x5
 4620 011c 10010000 		.4byte	0x110
 4621 0120 03       		.uleb128 0x3
 4622 0121 FE050000 		.4byte	.LASF24
 4623 0125 03       		.byte	0x3
 4624 0126 38       		.byte	0x38
 4625 0127 AD000000 		.4byte	0xad
 4626 012b 03       		.uleb128 0x3
 4627 012c 1D0C0000 		.4byte	.LASF25
 4628 0130 03       		.byte	0x3
 4629 0131 3C       		.byte	0x3c
 4630 0132 B8000000 		.4byte	0xb8
 4631 0136 03       		.uleb128 0x3
 4632 0137 D8050000 		.4byte	.LASF26
 4633 013b 04       		.byte	0x4
 4634 013c D8       		.byte	0xd8
 4635 013d 33000000 		.4byte	0x33
 4636 0141 05       		.uleb128 0x5
 4637 0142 36010000 		.4byte	0x136
 4638 0146 06       		.uleb128 0x6
 4639 0147 10       		.byte	0x10
 4640 0148 05       		.byte	0x5
 4641 0149 75       		.byte	0x75
 4642 014a 72010000 		.4byte	0x172
 4643 014e 07       		.uleb128 0x7
 4644 014f 696400   		.ascii	"id\000"
 4645 0152 05       		.byte	0x5
 4646 0153 7D       		.byte	0x7d
 4647 0154 10010000 		.4byte	0x110
 4648 0158 00       		.byte	0
 4649 0159 08       		.uleb128 0x8
 4650 015a 84070000 		.4byte	.LASF27
 4651 015e 05       		.byte	0x5
 4652 015f 7E       		.byte	0x7e
 4653 0160 72010000 		.4byte	0x172
 4654 0164 04       		.byte	0x4
 4655 0165 08       		.uleb128 0x8
 4656 0166 AF0A0000 		.4byte	.LASF28
 4657 016a 05       		.byte	0x5
 4658 016b 7F       		.byte	0x7f
 4659 016c D5000000 		.4byte	0xd5
 4660 0170 0C       		.byte	0xc
 4661 0171 00       		.byte	0
 4662 0172 09       		.uleb128 0x9
 4663 0173 D5000000 		.4byte	0xd5
 4664 0177 82010000 		.4byte	0x182
 4665 017b 0A       		.uleb128 0xa
 4666 017c 33000000 		.4byte	0x33
 4667 0180 07       		.byte	0x7
 4668 0181 00       		.byte	0
 4669 0182 03       		.uleb128 0x3
 4670 0183 12080000 		.4byte	.LASF29
 4671 0187 05       		.byte	0x5
 4672 0188 80       		.byte	0x80
 4673 0189 46010000 		.4byte	0x146
 4674 018d 05       		.uleb128 0x5
ARM GAS  /tmp/cc2f1tkm.s 			page 83


 4675 018e 82010000 		.4byte	0x182
 4676 0192 0B       		.uleb128 0xb
 4677 0193 07       		.byte	0x7
 4678 0194 01       		.byte	0x1
 4679 0195 5E000000 		.4byte	0x5e
 4680 0199 05       		.byte	0x5
 4681 019a 86       		.byte	0x86
 4682 019b B2010000 		.4byte	0x1b2
 4683 019f 0C       		.uleb128 0xc
 4684 01a0 2E100000 		.4byte	.LASF30
 4685 01a4 00       		.byte	0
 4686 01a5 0C       		.uleb128 0xc
 4687 01a6 CB0D0000 		.4byte	.LASF31
 4688 01aa 01       		.byte	0x1
 4689 01ab 0C       		.uleb128 0xc
 4690 01ac 520E0000 		.4byte	.LASF32
 4691 01b0 02       		.byte	0x2
 4692 01b1 00       		.byte	0
 4693 01b2 03       		.uleb128 0x3
 4694 01b3 C6020000 		.4byte	.LASF33
 4695 01b7 05       		.byte	0x5
 4696 01b8 8A       		.byte	0x8a
 4697 01b9 92010000 		.4byte	0x192
 4698 01bd 05       		.uleb128 0x5
 4699 01be B2010000 		.4byte	0x1b2
 4700 01c2 0B       		.uleb128 0xb
 4701 01c3 07       		.byte	0x7
 4702 01c4 01       		.byte	0x1
 4703 01c5 5E000000 		.4byte	0x5e
 4704 01c9 05       		.byte	0x5
 4705 01ca 90       		.byte	0x90
 4706 01cb DC010000 		.4byte	0x1dc
 4707 01cf 0C       		.uleb128 0xc
 4708 01d0 F7080000 		.4byte	.LASF34
 4709 01d4 00       		.byte	0
 4710 01d5 0C       		.uleb128 0xc
 4711 01d6 96100000 		.4byte	.LASF35
 4712 01da 01       		.byte	0x1
 4713 01db 00       		.byte	0
 4714 01dc 03       		.uleb128 0x3
 4715 01dd 87060000 		.4byte	.LASF36
 4716 01e1 05       		.byte	0x5
 4717 01e2 93       		.byte	0x93
 4718 01e3 C2010000 		.4byte	0x1c2
 4719 01e7 03       		.uleb128 0x3
 4720 01e8 860D0000 		.4byte	.LASF37
 4721 01ec 05       		.byte	0x5
 4722 01ed 98       		.byte	0x98
 4723 01ee F7010000 		.4byte	0x1f7
 4724 01f2 05       		.uleb128 0x5
 4725 01f3 E7010000 		.4byte	0x1e7
 4726 01f7 0D       		.uleb128 0xd
 4727 01f8 860D0000 		.4byte	.LASF37
 4728 01fc 24       		.byte	0x24
 4729 01fd 05       		.byte	0x5
 4730 01fe FB       		.byte	0xfb
 4731 01ff 5D020000 		.4byte	0x25d
ARM GAS  /tmp/cc2f1tkm.s 			page 84


 4732 0203 08       		.uleb128 0x8
 4733 0204 C1000000 		.4byte	.LASF38
 4734 0208 05       		.byte	0x5
 4735 0209 FD       		.byte	0xfd
 4736 020a D5000000 		.4byte	0xd5
 4737 020e 00       		.byte	0
 4738 020f 08       		.uleb128 0x8
 4739 0210 0D060000 		.4byte	.LASF39
 4740 0214 05       		.byte	0x5
 4741 0215 FF       		.byte	0xff
 4742 0216 C9030000 		.4byte	0x3c9
 4743 021a 04       		.byte	0x4
 4744 021b 0E       		.uleb128 0xe
 4745 021c 68050000 		.4byte	.LASF40
 4746 0220 05       		.byte	0x5
 4747 0221 0001     		.2byte	0x100
 4748 0223 15040000 		.4byte	0x415
 4749 0227 08       		.byte	0x8
 4750 0228 0E       		.uleb128 0xe
 4751 0229 9D060000 		.4byte	.LASF41
 4752 022d 05       		.byte	0x5
 4753 022e 0201     		.2byte	0x102
 4754 0230 F1040000 		.4byte	0x4f1
 4755 0234 0C       		.byte	0xc
 4756 0235 0E       		.uleb128 0xe
 4757 0236 20020000 		.4byte	.LASF42
 4758 023a 05       		.byte	0x5
 4759 023b 0401     		.2byte	0x104
 4760 023d 57050000 		.4byte	0x557
 4761 0241 18       		.byte	0x18
 4762 0242 0E       		.uleb128 0xe
 4763 0243 240F0000 		.4byte	.LASF43
 4764 0247 05       		.byte	0x5
 4765 0248 0501     		.2byte	0x105
 4766 024a 5D050000 		.4byte	0x55d
 4767 024e 1C       		.byte	0x1c
 4768 024f 0E       		.uleb128 0xe
 4769 0250 BF070000 		.4byte	.LASF44
 4770 0254 05       		.byte	0x5
 4771 0255 0701     		.2byte	0x107
 4772 0257 63050000 		.4byte	0x563
 4773 025b 20       		.byte	0x20
 4774 025c 00       		.byte	0
 4775 025d 03       		.uleb128 0x3
 4776 025e C00A0000 		.4byte	.LASF45
 4777 0262 05       		.byte	0x5
 4778 0263 99       		.byte	0x99
 4779 0264 6D020000 		.4byte	0x26d
 4780 0268 05       		.uleb128 0x5
 4781 0269 5D020000 		.4byte	0x25d
 4782 026d 0F       		.uleb128 0xf
 4783 026e C00A0000 		.4byte	.LASF45
 4784 0272 20       		.byte	0x20
 4785 0273 05       		.byte	0x5
 4786 0274 0F01     		.2byte	0x10f
 4787 0276 FD020000 		.4byte	0x2fd
 4788 027a 0E       		.uleb128 0xe
ARM GAS  /tmp/cc2f1tkm.s 			page 85


 4789 027b FF000000 		.4byte	.LASF46
 4790 027f 05       		.byte	0x5
 4791 0280 1401     		.2byte	0x114
 4792 0282 2B010000 		.4byte	0x12b
 4793 0286 00       		.byte	0
 4794 0287 0E       		.uleb128 0xe
 4795 0288 F60A0000 		.4byte	.LASF47
 4796 028c 05       		.byte	0x5
 4797 028d 2801     		.2byte	0x128
 4798 028f 65050000 		.4byte	0x565
 4799 0293 08       		.byte	0x8
 4800 0294 0E       		.uleb128 0xe
 4801 0295 75070000 		.4byte	.LASF48
 4802 0299 05       		.byte	0x5
 4803 029a 2D01     		.2byte	0x12d
 4804 029c 4C050000 		.4byte	0x54c
 4805 02a0 0C       		.byte	0xc
 4806 02a1 0E       		.uleb128 0xe
 4807 02a2 E0080000 		.4byte	.LASF49
 4808 02a6 05       		.byte	0x5
 4809 02a7 2F01     		.2byte	0x12f
 4810 02a9 65050000 		.4byte	0x565
 4811 02ad 10       		.byte	0x10
 4812 02ae 0E       		.uleb128 0xe
 4813 02af 06080000 		.4byte	.LASF50
 4814 02b3 05       		.byte	0x5
 4815 02b4 3101     		.2byte	0x131
 4816 02b6 F5000000 		.4byte	0xf5
 4817 02ba 14       		.byte	0x14
 4818 02bb 0E       		.uleb128 0xe
 4819 02bc 77020000 		.4byte	.LASF51
 4820 02c0 05       		.byte	0x5
 4821 02c1 3601     		.2byte	0x136
 4822 02c3 F5000000 		.4byte	0xf5
 4823 02c7 16       		.byte	0x16
 4824 02c8 0E       		.uleb128 0xe
 4825 02c9 42090000 		.4byte	.LASF52
 4826 02cd 05       		.byte	0x5
 4827 02ce 3701     		.2byte	0x137
 4828 02d0 D5000000 		.4byte	0xd5
 4829 02d4 18       		.byte	0x18
 4830 02d5 0E       		.uleb128 0xe
 4831 02d6 0B0A0000 		.4byte	.LASF53
 4832 02da 05       		.byte	0x5
 4833 02db 3801     		.2byte	0x138
 4834 02dd D5000000 		.4byte	0xd5
 4835 02e1 19       		.byte	0x19
 4836 02e2 0E       		.uleb128 0xe
 4837 02e3 B90B0000 		.4byte	.LASF54
 4838 02e7 05       		.byte	0x5
 4839 02e8 3901     		.2byte	0x139
 4840 02ea D5000000 		.4byte	0xd5
 4841 02ee 1A       		.byte	0x1a
 4842 02ef 0E       		.uleb128 0xe
 4843 02f0 80000000 		.4byte	.LASF55
 4844 02f4 05       		.byte	0x5
 4845 02f5 3A01     		.2byte	0x13a
ARM GAS  /tmp/cc2f1tkm.s 			page 86


 4846 02f7 D5000000 		.4byte	0xd5
 4847 02fb 1B       		.byte	0x1b
 4848 02fc 00       		.byte	0
 4849 02fd 03       		.uleb128 0x3
 4850 02fe F6010000 		.4byte	.LASF56
 4851 0302 05       		.byte	0x5
 4852 0303 9A       		.byte	0x9a
 4853 0304 08030000 		.4byte	0x308
 4854 0308 0D       		.uleb128 0xd
 4855 0309 F6010000 		.4byte	.LASF56
 4856 030d 20       		.byte	0x20
 4857 030e 05       		.byte	0x5
 4858 030f E0       		.byte	0xe0
 4859 0310 99030000 		.4byte	0x399
 4860 0314 08       		.uleb128 0x8
 4861 0315 B40B0000 		.4byte	.LASF57
 4862 0319 05       		.byte	0x5
 4863 031a E2       		.byte	0xe2
 4864 031b 46050000 		.4byte	0x546
 4865 031f 00       		.byte	0
 4866 0320 08       		.uleb128 0x8
 4867 0321 8C0E0000 		.4byte	.LASF58
 4868 0325 05       		.byte	0x5
 4869 0326 E4       		.byte	0xe4
 4870 0327 4C050000 		.4byte	0x54c
 4871 032b 04       		.byte	0x4
 4872 032c 08       		.uleb128 0x8
 4873 032d FF000000 		.4byte	.LASF46
 4874 0331 05       		.byte	0x5
 4875 0332 E6       		.byte	0xe6
 4876 0333 2B010000 		.4byte	0x12b
 4877 0337 08       		.byte	0x8
 4878 0338 08       		.uleb128 0x8
 4879 0339 B70C0000 		.4byte	.LASF59
 4880 033d 05       		.byte	0x5
 4881 033e E8       		.byte	0xe8
 4882 033f 1B010000 		.4byte	0x11b
 4883 0343 10       		.byte	0x10
 4884 0344 10       		.uleb128 0x10
 4885 0345 070F0000 		.4byte	.LASF60
 4886 0349 05       		.byte	0x5
 4887 034a EB       		.byte	0xeb
 4888 034b 33000000 		.4byte	0x33
 4889 034f 04       		.byte	0x4
 4890 0350 10       		.byte	0x10
 4891 0351 10       		.byte	0x10
 4892 0352 14       		.byte	0x14
 4893 0353 10       		.uleb128 0x10
 4894 0354 06080000 		.4byte	.LASF50
 4895 0358 05       		.byte	0x5
 4896 0359 EC       		.byte	0xec
 4897 035a 33000000 		.4byte	0x33
 4898 035e 04       		.byte	0x4
 4899 035f 0A       		.byte	0xa
 4900 0360 06       		.byte	0x6
 4901 0361 14       		.byte	0x14
 4902 0362 10       		.uleb128 0x10
ARM GAS  /tmp/cc2f1tkm.s 			page 87


 4903 0363 0B0A0000 		.4byte	.LASF53
 4904 0367 05       		.byte	0x5
 4905 0368 ED       		.byte	0xed
 4906 0369 33000000 		.4byte	0x33
 4907 036d 04       		.byte	0x4
 4908 036e 05       		.byte	0x5
 4909 036f 01       		.byte	0x1
 4910 0370 14       		.byte	0x14
 4911 0371 10       		.uleb128 0x10
 4912 0372 EB020000 		.4byte	.LASF61
 4913 0376 05       		.byte	0x5
 4914 0377 EE       		.byte	0xee
 4915 0378 33000000 		.4byte	0x33
 4916 037c 04       		.byte	0x4
 4917 037d 01       		.byte	0x1
 4918 037e 00       		.byte	0
 4919 037f 14       		.byte	0x14
 4920 0380 08       		.uleb128 0x8
 4921 0381 A40C0000 		.4byte	.LASF62
 4922 0385 05       		.byte	0x5
 4923 0386 F0       		.byte	0xf0
 4924 0387 F5000000 		.4byte	0xf5
 4925 038b 18       		.byte	0x18
 4926 038c 08       		.uleb128 0x8
 4927 038d 3E0A0000 		.4byte	.LASF63
 4928 0391 05       		.byte	0x5
 4929 0392 F2       		.byte	0xf2
 4930 0393 27050000 		.4byte	0x527
 4931 0397 1A       		.byte	0x1a
 4932 0398 00       		.byte	0
 4933 0399 03       		.uleb128 0x3
 4934 039a B4020000 		.4byte	.LASF64
 4935 039e 05       		.byte	0x5
 4936 039f 9B       		.byte	0x9b
 4937 03a0 A4030000 		.4byte	0x3a4
 4938 03a4 0D       		.uleb128 0xd
 4939 03a5 B4020000 		.4byte	.LASF64
 4940 03a9 14       		.byte	0x14
 4941 03aa 01       		.byte	0x1
 4942 03ab 3E       		.byte	0x3e
 4943 03ac C9030000 		.4byte	0x3c9
 4944 03b0 08       		.uleb128 0x8
 4945 03b1 B40B0000 		.4byte	.LASF57
 4946 03b5 01       		.byte	0x1
 4947 03b6 40       		.byte	0x40
 4948 03b7 5D050000 		.4byte	0x55d
 4949 03bb 00       		.byte	0
 4950 03bc 08       		.uleb128 0x8
 4951 03bd 160F0000 		.4byte	.LASF65
 4952 03c1 01       		.byte	0x1
 4953 03c2 41       		.byte	0x41
 4954 03c3 82010000 		.4byte	0x182
 4955 03c7 04       		.byte	0x4
 4956 03c8 00       		.byte	0
 4957 03c9 03       		.uleb128 0x3
 4958 03ca 310D0000 		.4byte	.LASF66
 4959 03ce 05       		.byte	0x5
ARM GAS  /tmp/cc2f1tkm.s 			page 88


 4960 03cf A6       		.byte	0xa6
 4961 03d0 D4030000 		.4byte	0x3d4
 4962 03d4 11       		.uleb128 0x11
 4963 03d5 04       		.byte	0x4
 4964 03d6 DA030000 		.4byte	0x3da
 4965 03da 12       		.uleb128 0x12
 4966 03db FD030000 		.4byte	0x3fd
 4967 03df FD030000 		.4byte	0x3fd
 4968 03e3 13       		.uleb128 0x13
 4969 03e4 09040000 		.4byte	0x409
 4970 03e8 13       		.uleb128 0x13
 4971 03e9 0F040000 		.4byte	0x40f
 4972 03ed 13       		.uleb128 0x13
 4973 03ee F5000000 		.4byte	0xf5
 4974 03f2 13       		.uleb128 0x13
 4975 03f3 B2010000 		.4byte	0x1b2
 4976 03f7 13       		.uleb128 0x13
 4977 03f8 D5000000 		.4byte	0xd5
 4978 03fc 00       		.byte	0
 4979 03fd 02       		.uleb128 0x2
 4980 03fe 01       		.byte	0x1
 4981 03ff 02       		.byte	0x2
 4982 0400 5D060000 		.4byte	.LASF67
 4983 0404 05       		.uleb128 0x5
 4984 0405 FD030000 		.4byte	0x3fd
 4985 0409 11       		.uleb128 0x11
 4986 040a 04       		.byte	0x4
 4987 040b F2010000 		.4byte	0x1f2
 4988 040f 11       		.uleb128 0x11
 4989 0410 04       		.byte	0x4
 4990 0411 2B010000 		.4byte	0x12b
 4991 0415 03       		.uleb128 0x3
 4992 0416 540C0000 		.4byte	.LASF68
 4993 041a 05       		.byte	0x5
 4994 041b B2       		.byte	0xb2
 4995 041c 20040000 		.4byte	0x420
 4996 0420 11       		.uleb128 0x11
 4997 0421 04       		.byte	0x4
 4998 0422 26040000 		.4byte	0x426
 4999 0426 14       		.uleb128 0x14
 5000 0427 36040000 		.4byte	0x436
 5001 042b 13       		.uleb128 0x13
 5002 042c 36040000 		.4byte	0x436
 5003 0430 13       		.uleb128 0x13
 5004 0431 3C040000 		.4byte	0x43c
 5005 0435 00       		.byte	0
 5006 0436 11       		.uleb128 0x11
 5007 0437 04       		.byte	0x4
 5008 0438 E7010000 		.4byte	0x1e7
 5009 043c 11       		.uleb128 0x11
 5010 043d 04       		.byte	0x4
 5011 043e 5D020000 		.4byte	0x25d
 5012 0442 15       		.uleb128 0x15
 5013 0443 C70B0000 		.4byte	.LASF275
 5014 0447 20       		.byte	0x20
 5015 0448 05       		.byte	0x5
 5016 0449 B9       		.byte	0xb9
ARM GAS  /tmp/cc2f1tkm.s 			page 89


 5017 044a 65040000 		.4byte	0x465
 5018 044e 16       		.uleb128 0x16
 5019 044f 81060000 		.4byte	.LASF69
 5020 0453 05       		.byte	0x5
 5021 0454 BB       		.byte	0xbb
 5022 0455 65040000 		.4byte	0x465
 5023 0459 16       		.uleb128 0x16
 5024 045a B40B0000 		.4byte	.LASF57
 5025 045e 05       		.byte	0x5
 5026 045f BC       		.byte	0xbc
 5027 0460 81040000 		.4byte	0x481
 5028 0464 00       		.byte	0
 5029 0465 09       		.uleb128 0x9
 5030 0466 75040000 		.4byte	0x475
 5031 046a 75040000 		.4byte	0x475
 5032 046e 0A       		.uleb128 0xa
 5033 046f 33000000 		.4byte	0x33
 5034 0473 1F       		.byte	0x1f
 5035 0474 00       		.byte	0
 5036 0475 02       		.uleb128 0x2
 5037 0476 01       		.byte	0x1
 5038 0477 08       		.byte	0x8
 5039 0478 3C070000 		.4byte	.LASF70
 5040 047c 05       		.uleb128 0x5
 5041 047d 75040000 		.4byte	0x475
 5042 0481 11       		.uleb128 0x11
 5043 0482 04       		.byte	0x4
 5044 0483 42040000 		.4byte	0x442
 5045 0487 03       		.uleb128 0x3
 5046 0488 B7090000 		.4byte	.LASF71
 5047 048c 05       		.byte	0x5
 5048 048d BD       		.byte	0xbd
 5049 048e 42040000 		.4byte	0x442
 5050 0492 06       		.uleb128 0x6
 5051 0493 06       		.byte	0x6
 5052 0494 05       		.byte	0x5
 5053 0495 C3       		.byte	0xc3
 5054 0496 BF040000 		.4byte	0x4bf
 5055 049a 08       		.uleb128 0x8
 5056 049b 9F0E0000 		.4byte	.LASF72
 5057 049f 05       		.byte	0x5
 5058 04a0 C5       		.byte	0xc5
 5059 04a1 F5000000 		.4byte	0xf5
 5060 04a5 00       		.byte	0
 5061 04a6 08       		.uleb128 0x8
 5062 04a7 A2080000 		.4byte	.LASF73
 5063 04ab 05       		.byte	0x5
 5064 04ac C6       		.byte	0xc6
 5065 04ad F5000000 		.4byte	0xf5
 5066 04b1 02       		.byte	0x2
 5067 04b2 08       		.uleb128 0x8
 5068 04b3 6F090000 		.4byte	.LASF74
 5069 04b7 05       		.byte	0x5
 5070 04b8 C7       		.byte	0xc7
 5071 04b9 F5000000 		.4byte	0xf5
 5072 04bd 04       		.byte	0x4
 5073 04be 00       		.byte	0
ARM GAS  /tmp/cc2f1tkm.s 			page 90


 5074 04bf 03       		.uleb128 0x3
 5075 04c0 21000000 		.4byte	.LASF75
 5076 04c4 05       		.byte	0x5
 5077 04c5 C8       		.byte	0xc8
 5078 04c6 92040000 		.4byte	0x492
 5079 04ca 06       		.uleb128 0x6
 5080 04cb 0C       		.byte	0xc
 5081 04cc 05       		.byte	0x5
 5082 04cd CD       		.byte	0xcd
 5083 04ce EB040000 		.4byte	0x4eb
 5084 04d2 08       		.uleb128 0x8
 5085 04d3 490B0000 		.4byte	.LASF76
 5086 04d7 05       		.byte	0x5
 5087 04d8 CF       		.byte	0xcf
 5088 04d9 EB040000 		.4byte	0x4eb
 5089 04dd 00       		.byte	0
 5090 04de 08       		.uleb128 0x8
 5091 04df CE060000 		.4byte	.LASF77
 5092 04e3 05       		.byte	0x5
 5093 04e4 D0       		.byte	0xd0
 5094 04e5 BF040000 		.4byte	0x4bf
 5095 04e9 04       		.byte	0x4
 5096 04ea 00       		.byte	0
 5097 04eb 11       		.uleb128 0x11
 5098 04ec 04       		.byte	0x4
 5099 04ed 87040000 		.4byte	0x487
 5100 04f1 03       		.uleb128 0x3
 5101 04f2 020C0000 		.4byte	.LASF78
 5102 04f6 05       		.byte	0x5
 5103 04f7 D1       		.byte	0xd1
 5104 04f8 CA040000 		.4byte	0x4ca
 5105 04fc 0D       		.uleb128 0xd
 5106 04fd 220B0000 		.4byte	.LASF79
 5107 0501 04       		.byte	0x4
 5108 0502 05       		.byte	0x5
 5109 0503 D7       		.byte	0xd7
 5110 0504 21050000 		.4byte	0x521
 5111 0508 08       		.uleb128 0x8
 5112 0509 B40B0000 		.4byte	.LASF57
 5113 050d 05       		.byte	0x5
 5114 050e D9       		.byte	0xd9
 5115 050f 21050000 		.4byte	0x521
 5116 0513 00       		.byte	0
 5117 0514 08       		.uleb128 0x8
 5118 0515 84070000 		.4byte	.LASF27
 5119 0519 05       		.byte	0x5
 5120 051a DA       		.byte	0xda
 5121 051b 27050000 		.4byte	0x527
 5122 051f 04       		.byte	0x4
 5123 0520 00       		.byte	0
 5124 0521 11       		.uleb128 0x11
 5125 0522 04       		.byte	0x4
 5126 0523 FC040000 		.4byte	0x4fc
 5127 0527 09       		.uleb128 0x9
 5128 0528 D5000000 		.4byte	0xd5
 5129 052c 36050000 		.4byte	0x536
 5130 0530 17       		.uleb128 0x17
ARM GAS  /tmp/cc2f1tkm.s 			page 91


 5131 0531 33000000 		.4byte	0x33
 5132 0535 00       		.byte	0
 5133 0536 03       		.uleb128 0x3
 5134 0537 220B0000 		.4byte	.LASF79
 5135 053b 05       		.byte	0x5
 5136 053c DB       		.byte	0xdb
 5137 053d FC040000 		.4byte	0x4fc
 5138 0541 05       		.uleb128 0x5
 5139 0542 36050000 		.4byte	0x536
 5140 0546 11       		.uleb128 0x11
 5141 0547 04       		.byte	0x4
 5142 0548 08030000 		.4byte	0x308
 5143 054c 11       		.uleb128 0x11
 5144 054d 04       		.byte	0x4
 5145 054e 36050000 		.4byte	0x536
 5146 0552 05       		.uleb128 0x5
 5147 0553 4C050000 		.4byte	0x54c
 5148 0557 11       		.uleb128 0x11
 5149 0558 04       		.byte	0x4
 5150 0559 FD020000 		.4byte	0x2fd
 5151 055d 11       		.uleb128 0x11
 5152 055e 04       		.byte	0x4
 5153 055f 99030000 		.4byte	0x399
 5154 0563 18       		.uleb128 0x18
 5155 0564 04       		.byte	0x4
 5156 0565 11       		.uleb128 0x11
 5157 0566 04       		.byte	0x4
 5158 0567 E0000000 		.4byte	0xe0
 5159 056b 03       		.uleb128 0x3
 5160 056c 750A0000 		.4byte	.LASF80
 5161 0570 06       		.byte	0x6
 5162 0571 22       		.byte	0x22
 5163 0572 76050000 		.4byte	0x576
 5164 0576 11       		.uleb128 0x11
 5165 0577 04       		.byte	0x4
 5166 0578 7C050000 		.4byte	0x57c
 5167 057c 19       		.uleb128 0x19
 5168 057d B90D0000 		.4byte	.LASF186
 5169 0581 03       		.uleb128 0x3
 5170 0582 CD0F0000 		.4byte	.LASF81
 5171 0586 07       		.byte	0x7
 5172 0587 2C       		.byte	0x2c
 5173 0588 94000000 		.4byte	0x94
 5174 058c 03       		.uleb128 0x3
 5175 058d 18020000 		.4byte	.LASF82
 5176 0591 07       		.byte	0x7
 5177 0592 72       		.byte	0x72
 5178 0593 94000000 		.4byte	0x94
 5179 0597 1A       		.uleb128 0x1a
 5180 0598 5D0D0000 		.4byte	.LASF83
 5181 059c 04       		.byte	0x4
 5182 059d 6501     		.2byte	0x165
 5183 059f 33000000 		.4byte	0x33
 5184 05a3 1B       		.uleb128 0x1b
 5185 05a4 04       		.byte	0x4
 5186 05a5 07       		.byte	0x7
 5187 05a6 A6       		.byte	0xa6
ARM GAS  /tmp/cc2f1tkm.s 			page 92


 5188 05a7 C2050000 		.4byte	0x5c2
 5189 05ab 16       		.uleb128 0x16
 5190 05ac 99070000 		.4byte	.LASF84
 5191 05b0 07       		.byte	0x7
 5192 05b1 A8       		.byte	0xa8
 5193 05b2 97050000 		.4byte	0x597
 5194 05b6 16       		.uleb128 0x16
 5195 05b7 160C0000 		.4byte	.LASF85
 5196 05bb 07       		.byte	0x7
 5197 05bc A9       		.byte	0xa9
 5198 05bd C2050000 		.4byte	0x5c2
 5199 05c1 00       		.byte	0
 5200 05c2 09       		.uleb128 0x9
 5201 05c3 5E000000 		.4byte	0x5e
 5202 05c7 D2050000 		.4byte	0x5d2
 5203 05cb 0A       		.uleb128 0xa
 5204 05cc 33000000 		.4byte	0x33
 5205 05d0 03       		.byte	0x3
 5206 05d1 00       		.byte	0
 5207 05d2 06       		.uleb128 0x6
 5208 05d3 08       		.byte	0x8
 5209 05d4 07       		.byte	0x7
 5210 05d5 A3       		.byte	0xa3
 5211 05d6 F3050000 		.4byte	0x5f3
 5212 05da 08       		.uleb128 0x8
 5213 05db E3020000 		.4byte	.LASF86
 5214 05df 07       		.byte	0x7
 5215 05e0 A5       		.byte	0xa5
 5216 05e1 C3000000 		.4byte	0xc3
 5217 05e5 00       		.byte	0
 5218 05e6 08       		.uleb128 0x8
 5219 05e7 D9060000 		.4byte	.LASF87
 5220 05eb 07       		.byte	0x7
 5221 05ec AA       		.byte	0xaa
 5222 05ed A3050000 		.4byte	0x5a3
 5223 05f1 04       		.byte	0x4
 5224 05f2 00       		.byte	0
 5225 05f3 03       		.uleb128 0x3
 5226 05f4 50090000 		.4byte	.LASF88
 5227 05f8 07       		.byte	0x7
 5228 05f9 AB       		.byte	0xab
 5229 05fa D2050000 		.4byte	0x5d2
 5230 05fe 03       		.uleb128 0x3
 5231 05ff 00000000 		.4byte	.LASF89
 5232 0603 07       		.byte	0x7
 5233 0604 AF       		.byte	0xaf
 5234 0605 6B050000 		.4byte	0x56b
 5235 0609 11       		.uleb128 0x11
 5236 060a 04       		.byte	0x4
 5237 060b 75040000 		.4byte	0x475
 5238 060f 03       		.uleb128 0x3
 5239 0610 7A080000 		.4byte	.LASF90
 5240 0614 08       		.byte	0x8
 5241 0615 16       		.byte	0x16
 5242 0616 A6000000 		.4byte	0xa6
 5243 061a 0D       		.uleb128 0xd
 5244 061b 65020000 		.4byte	.LASF91
ARM GAS  /tmp/cc2f1tkm.s 			page 93


 5245 061f 18       		.byte	0x18
 5246 0620 08       		.byte	0x8
 5247 0621 2F       		.byte	0x2f
 5248 0622 6D060000 		.4byte	0x66d
 5249 0626 08       		.uleb128 0x8
 5250 0627 7B060000 		.4byte	.LASF92
 5251 062b 08       		.byte	0x8
 5252 062c 31       		.byte	0x31
 5253 062d 6D060000 		.4byte	0x66d
 5254 0631 00       		.byte	0
 5255 0632 07       		.uleb128 0x7
 5256 0633 5F6B00   		.ascii	"_k\000"
 5257 0636 08       		.byte	0x8
 5258 0637 32       		.byte	0x32
 5259 0638 C3000000 		.4byte	0xc3
 5260 063c 04       		.byte	0x4
 5261 063d 08       		.uleb128 0x8
 5262 063e 920C0000 		.4byte	.LASF93
 5263 0642 08       		.byte	0x8
 5264 0643 32       		.byte	0x32
 5265 0644 C3000000 		.4byte	0xc3
 5266 0648 08       		.byte	0x8
 5267 0649 08       		.uleb128 0x8
 5268 064a 220A0000 		.4byte	.LASF94
 5269 064e 08       		.byte	0x8
 5270 064f 32       		.byte	0x32
 5271 0650 C3000000 		.4byte	0xc3
 5272 0654 0C       		.byte	0xc
 5273 0655 08       		.uleb128 0x8
 5274 0656 B8040000 		.4byte	.LASF95
 5275 065a 08       		.byte	0x8
 5276 065b 32       		.byte	0x32
 5277 065c C3000000 		.4byte	0xc3
 5278 0660 10       		.byte	0x10
 5279 0661 07       		.uleb128 0x7
 5280 0662 5F7800   		.ascii	"_x\000"
 5281 0665 08       		.byte	0x8
 5282 0666 33       		.byte	0x33
 5283 0667 73060000 		.4byte	0x673
 5284 066b 14       		.byte	0x14
 5285 066c 00       		.byte	0
 5286 066d 11       		.uleb128 0x11
 5287 066e 04       		.byte	0x4
 5288 066f 1A060000 		.4byte	0x61a
 5289 0673 09       		.uleb128 0x9
 5290 0674 0F060000 		.4byte	0x60f
 5291 0678 83060000 		.4byte	0x683
 5292 067c 0A       		.uleb128 0xa
 5293 067d 33000000 		.4byte	0x33
 5294 0681 00       		.byte	0
 5295 0682 00       		.byte	0
 5296 0683 0D       		.uleb128 0xd
 5297 0684 F10C0000 		.4byte	.LASF96
 5298 0688 24       		.byte	0x24
 5299 0689 08       		.byte	0x8
 5300 068a 37       		.byte	0x37
 5301 068b FC060000 		.4byte	0x6fc
ARM GAS  /tmp/cc2f1tkm.s 			page 94


 5302 068f 08       		.uleb128 0x8
 5303 0690 1B060000 		.4byte	.LASF97
 5304 0694 08       		.byte	0x8
 5305 0695 39       		.byte	0x39
 5306 0696 C3000000 		.4byte	0xc3
 5307 069a 00       		.byte	0
 5308 069b 08       		.uleb128 0x8
 5309 069c 08030000 		.4byte	.LASF98
 5310 06a0 08       		.byte	0x8
 5311 06a1 3A       		.byte	0x3a
 5312 06a2 C3000000 		.4byte	0xc3
 5313 06a6 04       		.byte	0x4
 5314 06a7 08       		.uleb128 0x8
 5315 06a8 AA020000 		.4byte	.LASF99
 5316 06ac 08       		.byte	0x8
 5317 06ad 3B       		.byte	0x3b
 5318 06ae C3000000 		.4byte	0xc3
 5319 06b2 08       		.byte	0x8
 5320 06b3 08       		.uleb128 0x8
 5321 06b4 41070000 		.4byte	.LASF100
 5322 06b8 08       		.byte	0x8
 5323 06b9 3C       		.byte	0x3c
 5324 06ba C3000000 		.4byte	0xc3
 5325 06be 0C       		.byte	0xc
 5326 06bf 08       		.uleb128 0x8
 5327 06c0 500A0000 		.4byte	.LASF101
 5328 06c4 08       		.byte	0x8
 5329 06c5 3D       		.byte	0x3d
 5330 06c6 C3000000 		.4byte	0xc3
 5331 06ca 10       		.byte	0x10
 5332 06cb 08       		.uleb128 0x8
 5333 06cc 260C0000 		.4byte	.LASF102
 5334 06d0 08       		.byte	0x8
 5335 06d1 3E       		.byte	0x3e
 5336 06d2 C3000000 		.4byte	0xc3
 5337 06d6 14       		.byte	0x14
 5338 06d7 08       		.uleb128 0x8
 5339 06d8 6D020000 		.4byte	.LASF103
 5340 06dc 08       		.byte	0x8
 5341 06dd 3F       		.byte	0x3f
 5342 06de C3000000 		.4byte	0xc3
 5343 06e2 18       		.byte	0x18
 5344 06e3 08       		.uleb128 0x8
 5345 06e4 4E060000 		.4byte	.LASF104
 5346 06e8 08       		.byte	0x8
 5347 06e9 40       		.byte	0x40
 5348 06ea C3000000 		.4byte	0xc3
 5349 06ee 1C       		.byte	0x1c
 5350 06ef 08       		.uleb128 0x8
 5351 06f0 FD020000 		.4byte	.LASF105
 5352 06f4 08       		.byte	0x8
 5353 06f5 41       		.byte	0x41
 5354 06f6 C3000000 		.4byte	0xc3
 5355 06fa 20       		.byte	0x20
 5356 06fb 00       		.byte	0
 5357 06fc 1C       		.uleb128 0x1c
 5358 06fd 56000000 		.4byte	.LASF106
ARM GAS  /tmp/cc2f1tkm.s 			page 95


 5359 0701 0801     		.2byte	0x108
 5360 0703 08       		.byte	0x8
 5361 0704 4A       		.byte	0x4a
 5362 0705 3C070000 		.4byte	0x73c
 5363 0709 08       		.uleb128 0x8
 5364 070a 2D0F0000 		.4byte	.LASF107
 5365 070e 08       		.byte	0x8
 5366 070f 4B       		.byte	0x4b
 5367 0710 3C070000 		.4byte	0x73c
 5368 0714 00       		.byte	0
 5369 0715 08       		.uleb128 0x8
 5370 0716 950D0000 		.4byte	.LASF108
 5371 071a 08       		.byte	0x8
 5372 071b 4C       		.byte	0x4c
 5373 071c 3C070000 		.4byte	0x73c
 5374 0720 80       		.byte	0x80
 5375 0721 1D       		.uleb128 0x1d
 5376 0722 840F0000 		.4byte	.LASF109
 5377 0726 08       		.byte	0x8
 5378 0727 4E       		.byte	0x4e
 5379 0728 0F060000 		.4byte	0x60f
 5380 072c 0001     		.2byte	0x100
 5381 072e 1D       		.uleb128 0x1d
 5382 072f 26100000 		.4byte	.LASF110
 5383 0733 08       		.byte	0x8
 5384 0734 51       		.byte	0x51
 5385 0735 0F060000 		.4byte	0x60f
 5386 0739 0401     		.2byte	0x104
 5387 073b 00       		.byte	0
 5388 073c 09       		.uleb128 0x9
 5389 073d 63050000 		.4byte	0x563
 5390 0741 4C070000 		.4byte	0x74c
 5391 0745 0A       		.uleb128 0xa
 5392 0746 33000000 		.4byte	0x33
 5393 074a 1F       		.byte	0x1f
 5394 074b 00       		.byte	0
 5395 074c 1C       		.uleb128 0x1c
 5396 074d EE0A0000 		.4byte	.LASF111
 5397 0751 9001     		.2byte	0x190
 5398 0753 08       		.byte	0x8
 5399 0754 5D       		.byte	0x5d
 5400 0755 8A070000 		.4byte	0x78a
 5401 0759 08       		.uleb128 0x8
 5402 075a 7B060000 		.4byte	.LASF92
 5403 075e 08       		.byte	0x8
 5404 075f 5E       		.byte	0x5e
 5405 0760 8A070000 		.4byte	0x78a
 5406 0764 00       		.byte	0
 5407 0765 08       		.uleb128 0x8
 5408 0766 F6090000 		.4byte	.LASF112
 5409 076a 08       		.byte	0x8
 5410 076b 5F       		.byte	0x5f
 5411 076c C3000000 		.4byte	0xc3
 5412 0770 04       		.byte	0x4
 5413 0771 08       		.uleb128 0x8
 5414 0772 DE020000 		.4byte	.LASF113
 5415 0776 08       		.byte	0x8
ARM GAS  /tmp/cc2f1tkm.s 			page 96


 5416 0777 61       		.byte	0x61
 5417 0778 90070000 		.4byte	0x790
 5418 077c 08       		.byte	0x8
 5419 077d 08       		.uleb128 0x8
 5420 077e 56000000 		.4byte	.LASF106
 5421 0782 08       		.byte	0x8
 5422 0783 62       		.byte	0x62
 5423 0784 FC060000 		.4byte	0x6fc
 5424 0788 88       		.byte	0x88
 5425 0789 00       		.byte	0
 5426 078a 11       		.uleb128 0x11
 5427 078b 04       		.byte	0x4
 5428 078c 4C070000 		.4byte	0x74c
 5429 0790 09       		.uleb128 0x9
 5430 0791 A0070000 		.4byte	0x7a0
 5431 0795 A0070000 		.4byte	0x7a0
 5432 0799 0A       		.uleb128 0xa
 5433 079a 33000000 		.4byte	0x33
 5434 079e 1F       		.byte	0x1f
 5435 079f 00       		.byte	0
 5436 07a0 11       		.uleb128 0x11
 5437 07a1 04       		.byte	0x4
 5438 07a2 A6070000 		.4byte	0x7a6
 5439 07a6 1E       		.uleb128 0x1e
 5440 07a7 0D       		.uleb128 0xd
 5441 07a8 B60E0000 		.4byte	.LASF114
 5442 07ac 08       		.byte	0x8
 5443 07ad 08       		.byte	0x8
 5444 07ae 75       		.byte	0x75
 5445 07af CC070000 		.4byte	0x7cc
 5446 07b3 08       		.uleb128 0x8
 5447 07b4 64080000 		.4byte	.LASF115
 5448 07b8 08       		.byte	0x8
 5449 07b9 76       		.byte	0x76
 5450 07ba CC070000 		.4byte	0x7cc
 5451 07be 00       		.byte	0
 5452 07bf 08       		.uleb128 0x8
 5453 07c0 B10F0000 		.4byte	.LASF116
 5454 07c4 08       		.byte	0x8
 5455 07c5 77       		.byte	0x77
 5456 07c6 C3000000 		.4byte	0xc3
 5457 07ca 04       		.byte	0x4
 5458 07cb 00       		.byte	0
 5459 07cc 11       		.uleb128 0x11
 5460 07cd 04       		.byte	0x4
 5461 07ce 5E000000 		.4byte	0x5e
 5462 07d2 0D       		.uleb128 0xd
 5463 07d3 B0040000 		.4byte	.LASF117
 5464 07d7 68       		.byte	0x68
 5465 07d8 08       		.byte	0x8
 5466 07d9 B5       		.byte	0xb5
 5467 07da FC080000 		.4byte	0x8fc
 5468 07de 07       		.uleb128 0x7
 5469 07df 5F7000   		.ascii	"_p\000"
 5470 07e2 08       		.byte	0x8
 5471 07e3 B6       		.byte	0xb6
 5472 07e4 CC070000 		.4byte	0x7cc
ARM GAS  /tmp/cc2f1tkm.s 			page 97


 5473 07e8 00       		.byte	0
 5474 07e9 07       		.uleb128 0x7
 5475 07ea 5F7200   		.ascii	"_r\000"
 5476 07ed 08       		.byte	0x8
 5477 07ee B7       		.byte	0xb7
 5478 07ef C3000000 		.4byte	0xc3
 5479 07f3 04       		.byte	0x4
 5480 07f4 07       		.uleb128 0x7
 5481 07f5 5F7700   		.ascii	"_w\000"
 5482 07f8 08       		.byte	0x8
 5483 07f9 B8       		.byte	0xb8
 5484 07fa C3000000 		.4byte	0xc3
 5485 07fe 08       		.byte	0x8
 5486 07ff 08       		.uleb128 0x8
 5487 0800 26010000 		.4byte	.LASF118
 5488 0804 08       		.byte	0x8
 5489 0805 B9       		.byte	0xb9
 5490 0806 70000000 		.4byte	0x70
 5491 080a 0C       		.byte	0xc
 5492 080b 08       		.uleb128 0x8
 5493 080c CE080000 		.4byte	.LASF119
 5494 0810 08       		.byte	0x8
 5495 0811 BA       		.byte	0xba
 5496 0812 70000000 		.4byte	0x70
 5497 0816 0E       		.byte	0xe
 5498 0817 07       		.uleb128 0x7
 5499 0818 5F626600 		.ascii	"_bf\000"
 5500 081c 08       		.byte	0x8
 5501 081d BB       		.byte	0xbb
 5502 081e A7070000 		.4byte	0x7a7
 5503 0822 10       		.byte	0x10
 5504 0823 08       		.uleb128 0x8
 5505 0824 1D010000 		.4byte	.LASF120
 5506 0828 08       		.byte	0x8
 5507 0829 BC       		.byte	0xbc
 5508 082a C3000000 		.4byte	0xc3
 5509 082e 18       		.byte	0x18
 5510 082f 08       		.uleb128 0x8
 5511 0830 2A020000 		.4byte	.LASF121
 5512 0834 08       		.byte	0x8
 5513 0835 C3       		.byte	0xc3
 5514 0836 63050000 		.4byte	0x563
 5515 083a 1C       		.byte	0x1c
 5516 083b 08       		.uleb128 0x8
 5517 083c 93010000 		.4byte	.LASF122
 5518 0840 08       		.byte	0x8
 5519 0841 C5       		.byte	0xc5
 5520 0842 570A0000 		.4byte	0xa57
 5521 0846 20       		.byte	0x20
 5522 0847 08       		.uleb128 0x8
 5523 0848 9A0A0000 		.4byte	.LASF123
 5524 084c 08       		.byte	0x8
 5525 084d C7       		.byte	0xc7
 5526 084e 810A0000 		.4byte	0xa81
 5527 0852 24       		.byte	0x24
 5528 0853 08       		.uleb128 0x8
 5529 0854 90100000 		.4byte	.LASF124
ARM GAS  /tmp/cc2f1tkm.s 			page 98


 5530 0858 08       		.byte	0x8
 5531 0859 CA       		.byte	0xca
 5532 085a A50A0000 		.4byte	0xaa5
 5533 085e 28       		.byte	0x28
 5534 085f 08       		.uleb128 0x8
 5535 0860 B8070000 		.4byte	.LASF125
 5536 0864 08       		.byte	0x8
 5537 0865 CB       		.byte	0xcb
 5538 0866 BF0A0000 		.4byte	0xabf
 5539 086a 2C       		.byte	0x2c
 5540 086b 07       		.uleb128 0x7
 5541 086c 5F756200 		.ascii	"_ub\000"
 5542 0870 08       		.byte	0x8
 5543 0871 CE       		.byte	0xce
 5544 0872 A7070000 		.4byte	0x7a7
 5545 0876 30       		.byte	0x30
 5546 0877 07       		.uleb128 0x7
 5547 0878 5F757000 		.ascii	"_up\000"
 5548 087c 08       		.byte	0x8
 5549 087d CF       		.byte	0xcf
 5550 087e CC070000 		.4byte	0x7cc
 5551 0882 38       		.byte	0x38
 5552 0883 07       		.uleb128 0x7
 5553 0884 5F757200 		.ascii	"_ur\000"
 5554 0888 08       		.byte	0x8
 5555 0889 D0       		.byte	0xd0
 5556 088a C3000000 		.4byte	0xc3
 5557 088e 3C       		.byte	0x3c
 5558 088f 08       		.uleb128 0x8
 5559 0890 B5100000 		.4byte	.LASF126
 5560 0894 08       		.byte	0x8
 5561 0895 D3       		.byte	0xd3
 5562 0896 C50A0000 		.4byte	0xac5
 5563 089a 40       		.byte	0x40
 5564 089b 08       		.uleb128 0x8
 5565 089c D40F0000 		.4byte	.LASF127
 5566 08a0 08       		.byte	0x8
 5567 08a1 D4       		.byte	0xd4
 5568 08a2 D50A0000 		.4byte	0xad5
 5569 08a6 43       		.byte	0x43
 5570 08a7 07       		.uleb128 0x7
 5571 08a8 5F6C6200 		.ascii	"_lb\000"
 5572 08ac 08       		.byte	0x8
 5573 08ad D7       		.byte	0xd7
 5574 08ae A7070000 		.4byte	0x7a7
 5575 08b2 44       		.byte	0x44
 5576 08b3 08       		.uleb128 0x8
 5577 08b4 E80C0000 		.4byte	.LASF128
 5578 08b8 08       		.byte	0x8
 5579 08b9 DA       		.byte	0xda
 5580 08ba C3000000 		.4byte	0xc3
 5581 08be 4C       		.byte	0x4c
 5582 08bf 08       		.uleb128 0x8
 5583 08c0 16050000 		.4byte	.LASF129
 5584 08c4 08       		.byte	0x8
 5585 08c5 DB       		.byte	0xdb
 5586 08c6 81050000 		.4byte	0x581
ARM GAS  /tmp/cc2f1tkm.s 			page 99


 5587 08ca 50       		.byte	0x50
 5588 08cb 08       		.uleb128 0x8
 5589 08cc 010F0000 		.4byte	.LASF130
 5590 08d0 08       		.byte	0x8
 5591 08d1 DE       		.byte	0xde
 5592 08d2 1A090000 		.4byte	0x91a
 5593 08d6 54       		.byte	0x54
 5594 08d7 08       		.uleb128 0x8
 5595 08d8 FB0C0000 		.4byte	.LASF131
 5596 08dc 08       		.byte	0x8
 5597 08dd E2       		.byte	0xe2
 5598 08de FE050000 		.4byte	0x5fe
 5599 08e2 58       		.byte	0x58
 5600 08e3 08       		.uleb128 0x8
 5601 08e4 8A010000 		.4byte	.LASF132
 5602 08e8 08       		.byte	0x8
 5603 08e9 E4       		.byte	0xe4
 5604 08ea F3050000 		.4byte	0x5f3
 5605 08ee 5C       		.byte	0x5c
 5606 08ef 08       		.uleb128 0x8
 5607 08f0 15100000 		.4byte	.LASF133
 5608 08f4 08       		.byte	0x8
 5609 08f5 E5       		.byte	0xe5
 5610 08f6 C3000000 		.4byte	0xc3
 5611 08fa 64       		.byte	0x64
 5612 08fb 00       		.byte	0
 5613 08fc 12       		.uleb128 0x12
 5614 08fd C3000000 		.4byte	0xc3
 5615 0901 1A090000 		.4byte	0x91a
 5616 0905 13       		.uleb128 0x13
 5617 0906 1A090000 		.4byte	0x91a
 5618 090a 13       		.uleb128 0x13
 5619 090b 63050000 		.4byte	0x563
 5620 090f 13       		.uleb128 0x13
 5621 0910 09060000 		.4byte	0x609
 5622 0914 13       		.uleb128 0x13
 5623 0915 C3000000 		.4byte	0xc3
 5624 0919 00       		.byte	0
 5625 091a 11       		.uleb128 0x11
 5626 091b 04       		.byte	0x4
 5627 091c 25090000 		.4byte	0x925
 5628 0920 05       		.uleb128 0x5
 5629 0921 1A090000 		.4byte	0x91a
 5630 0925 1F       		.uleb128 0x1f
 5631 0926 410F0000 		.4byte	.LASF134
 5632 092a 2804     		.2byte	0x428
 5633 092c 08       		.byte	0x8
 5634 092d 6002     		.2byte	0x260
 5635 092f 570A0000 		.4byte	0xa57
 5636 0933 0E       		.uleb128 0xe
 5637 0934 51010000 		.4byte	.LASF135
 5638 0938 08       		.byte	0x8
 5639 0939 6202     		.2byte	0x262
 5640 093b C3000000 		.4byte	0xc3
 5641 093f 00       		.byte	0
 5642 0940 0E       		.uleb128 0xe
 5643 0941 21080000 		.4byte	.LASF136
ARM GAS  /tmp/cc2f1tkm.s 			page 100


 5644 0945 08       		.byte	0x8
 5645 0946 6702     		.2byte	0x267
 5646 0948 2C0B0000 		.4byte	0xb2c
 5647 094c 04       		.byte	0x4
 5648 094d 0E       		.uleb128 0xe
 5649 094e EE010000 		.4byte	.LASF137
 5650 0952 08       		.byte	0x8
 5651 0953 6702     		.2byte	0x267
 5652 0955 2C0B0000 		.4byte	0xb2c
 5653 0959 08       		.byte	0x8
 5654 095a 0E       		.uleb128 0xe
 5655 095b A4100000 		.4byte	.LASF138
 5656 095f 08       		.byte	0x8
 5657 0960 6702     		.2byte	0x267
 5658 0962 2C0B0000 		.4byte	0xb2c
 5659 0966 0C       		.byte	0xc
 5660 0967 0E       		.uleb128 0xe
 5661 0968 58060000 		.4byte	.LASF139
 5662 096c 08       		.byte	0x8
 5663 096d 6902     		.2byte	0x269
 5664 096f C3000000 		.4byte	0xc3
 5665 0973 10       		.byte	0x10
 5666 0974 0E       		.uleb128 0xe
 5667 0975 5D050000 		.4byte	.LASF140
 5668 0979 08       		.byte	0x8
 5669 097a 6A02     		.2byte	0x26a
 5670 097c 0E0D0000 		.4byte	0xd0e
 5671 0980 14       		.byte	0x14
 5672 0981 0E       		.uleb128 0xe
 5673 0982 FC0F0000 		.4byte	.LASF141
 5674 0986 08       		.byte	0x8
 5675 0987 6D02     		.2byte	0x26d
 5676 0989 C3000000 		.4byte	0xc3
 5677 098d 30       		.byte	0x30
 5678 098e 0E       		.uleb128 0xe
 5679 098f 1C0F0000 		.4byte	.LASF142
 5680 0993 08       		.byte	0x8
 5681 0994 6E02     		.2byte	0x26e
 5682 0996 230D0000 		.4byte	0xd23
 5683 099a 34       		.byte	0x34
 5684 099b 0E       		.uleb128 0xe
 5685 099c CE070000 		.4byte	.LASF143
 5686 09a0 08       		.byte	0x8
 5687 09a1 7002     		.2byte	0x270
 5688 09a3 C3000000 		.4byte	0xc3
 5689 09a7 38       		.byte	0x38
 5690 09a8 0E       		.uleb128 0xe
 5691 09a9 38090000 		.4byte	.LASF144
 5692 09ad 08       		.byte	0x8
 5693 09ae 7202     		.2byte	0x272
 5694 09b0 340D0000 		.4byte	0xd34
 5695 09b4 3C       		.byte	0x3c
 5696 09b5 0E       		.uleb128 0xe
 5697 09b6 84020000 		.4byte	.LASF145
 5698 09ba 08       		.byte	0x8
 5699 09bb 7502     		.2byte	0x275
 5700 09bd 6D060000 		.4byte	0x66d
ARM GAS  /tmp/cc2f1tkm.s 			page 101


 5701 09c1 40       		.byte	0x40
 5702 09c2 0E       		.uleb128 0xe
 5703 09c3 82040000 		.4byte	.LASF146
 5704 09c7 08       		.byte	0x8
 5705 09c8 7602     		.2byte	0x276
 5706 09ca C3000000 		.4byte	0xc3
 5707 09ce 44       		.byte	0x44
 5708 09cf 0E       		.uleb128 0xe
 5709 09d0 02070000 		.4byte	.LASF147
 5710 09d4 08       		.byte	0x8
 5711 09d5 7702     		.2byte	0x277
 5712 09d7 6D060000 		.4byte	0x66d
 5713 09db 48       		.byte	0x48
 5714 09dc 0E       		.uleb128 0xe
 5715 09dd 6A080000 		.4byte	.LASF148
 5716 09e1 08       		.byte	0x8
 5717 09e2 7802     		.2byte	0x278
 5718 09e4 3A0D0000 		.4byte	0xd3a
 5719 09e8 4C       		.byte	0x4c
 5720 09e9 0E       		.uleb128 0xe
 5721 09ea 8A0C0000 		.4byte	.LASF149
 5722 09ee 08       		.byte	0x8
 5723 09ef 7B02     		.2byte	0x27b
 5724 09f1 C3000000 		.4byte	0xc3
 5725 09f5 50       		.byte	0x50
 5726 09f6 0E       		.uleb128 0xe
 5727 09f7 230E0000 		.4byte	.LASF150
 5728 09fb 08       		.byte	0x8
 5729 09fc 7C02     		.2byte	0x27c
 5730 09fe 09060000 		.4byte	0x609
 5731 0a02 54       		.byte	0x54
 5732 0a03 0E       		.uleb128 0xe
 5733 0a04 800C0000 		.4byte	.LASF151
 5734 0a08 08       		.byte	0x8
 5735 0a09 9F02     		.2byte	0x29f
 5736 0a0b EC0C0000 		.4byte	0xcec
 5737 0a0f 58       		.byte	0x58
 5738 0a10 20       		.uleb128 0x20
 5739 0a11 EE0A0000 		.4byte	.LASF111
 5740 0a15 08       		.byte	0x8
 5741 0a16 A302     		.2byte	0x2a3
 5742 0a18 8A070000 		.4byte	0x78a
 5743 0a1c 4801     		.2byte	0x148
 5744 0a1e 20       		.uleb128 0x20
 5745 0a1f 64070000 		.4byte	.LASF152
 5746 0a23 08       		.byte	0x8
 5747 0a24 A402     		.2byte	0x2a4
 5748 0a26 4C070000 		.4byte	0x74c
 5749 0a2a 4C01     		.2byte	0x14c
 5750 0a2c 20       		.uleb128 0x20
 5751 0a2d 4B070000 		.4byte	.LASF153
 5752 0a31 08       		.byte	0x8
 5753 0a32 A802     		.2byte	0x2a8
 5754 0a34 4B0D0000 		.4byte	0xd4b
 5755 0a38 DC02     		.2byte	0x2dc
 5756 0a3a 20       		.uleb128 0x20
 5757 0a3b F90E0000 		.4byte	.LASF154
ARM GAS  /tmp/cc2f1tkm.s 			page 102


 5758 0a3f 08       		.byte	0x8
 5759 0a40 AD02     		.2byte	0x2ad
 5760 0a42 F10A0000 		.4byte	0xaf1
 5761 0a46 E002     		.2byte	0x2e0
 5762 0a48 20       		.uleb128 0x20
 5763 0a49 850C0000 		.4byte	.LASF155
 5764 0a4d 08       		.byte	0x8
 5765 0a4e AF02     		.2byte	0x2af
 5766 0a50 570D0000 		.4byte	0xd57
 5767 0a54 EC02     		.2byte	0x2ec
 5768 0a56 00       		.byte	0
 5769 0a57 11       		.uleb128 0x11
 5770 0a58 04       		.byte	0x4
 5771 0a59 FC080000 		.4byte	0x8fc
 5772 0a5d 12       		.uleb128 0x12
 5773 0a5e C3000000 		.4byte	0xc3
 5774 0a62 7B0A0000 		.4byte	0xa7b
 5775 0a66 13       		.uleb128 0x13
 5776 0a67 1A090000 		.4byte	0x91a
 5777 0a6b 13       		.uleb128 0x13
 5778 0a6c 63050000 		.4byte	0x563
 5779 0a70 13       		.uleb128 0x13
 5780 0a71 7B0A0000 		.4byte	0xa7b
 5781 0a75 13       		.uleb128 0x13
 5782 0a76 C3000000 		.4byte	0xc3
 5783 0a7a 00       		.byte	0
 5784 0a7b 11       		.uleb128 0x11
 5785 0a7c 04       		.byte	0x4
 5786 0a7d 7C040000 		.4byte	0x47c
 5787 0a81 11       		.uleb128 0x11
 5788 0a82 04       		.byte	0x4
 5789 0a83 5D0A0000 		.4byte	0xa5d
 5790 0a87 12       		.uleb128 0x12
 5791 0a88 8C050000 		.4byte	0x58c
 5792 0a8c A50A0000 		.4byte	0xaa5
 5793 0a90 13       		.uleb128 0x13
 5794 0a91 1A090000 		.4byte	0x91a
 5795 0a95 13       		.uleb128 0x13
 5796 0a96 63050000 		.4byte	0x563
 5797 0a9a 13       		.uleb128 0x13
 5798 0a9b 8C050000 		.4byte	0x58c
 5799 0a9f 13       		.uleb128 0x13
 5800 0aa0 C3000000 		.4byte	0xc3
 5801 0aa4 00       		.byte	0
 5802 0aa5 11       		.uleb128 0x11
 5803 0aa6 04       		.byte	0x4
 5804 0aa7 870A0000 		.4byte	0xa87
 5805 0aab 12       		.uleb128 0x12
 5806 0aac C3000000 		.4byte	0xc3
 5807 0ab0 BF0A0000 		.4byte	0xabf
 5808 0ab4 13       		.uleb128 0x13
 5809 0ab5 1A090000 		.4byte	0x91a
 5810 0ab9 13       		.uleb128 0x13
 5811 0aba 63050000 		.4byte	0x563
 5812 0abe 00       		.byte	0
 5813 0abf 11       		.uleb128 0x11
 5814 0ac0 04       		.byte	0x4
ARM GAS  /tmp/cc2f1tkm.s 			page 103


 5815 0ac1 AB0A0000 		.4byte	0xaab
 5816 0ac5 09       		.uleb128 0x9
 5817 0ac6 5E000000 		.4byte	0x5e
 5818 0aca D50A0000 		.4byte	0xad5
 5819 0ace 0A       		.uleb128 0xa
 5820 0acf 33000000 		.4byte	0x33
 5821 0ad3 02       		.byte	0x2
 5822 0ad4 00       		.byte	0
 5823 0ad5 09       		.uleb128 0x9
 5824 0ad6 5E000000 		.4byte	0x5e
 5825 0ada E50A0000 		.4byte	0xae5
 5826 0ade 0A       		.uleb128 0xa
 5827 0adf 33000000 		.4byte	0x33
 5828 0ae3 00       		.byte	0
 5829 0ae4 00       		.byte	0
 5830 0ae5 1A       		.uleb128 0x1a
 5831 0ae6 F9040000 		.4byte	.LASF156
 5832 0aea 08       		.byte	0x8
 5833 0aeb 1F01     		.2byte	0x11f
 5834 0aed D2070000 		.4byte	0x7d2
 5835 0af1 0F       		.uleb128 0xf
 5836 0af2 CC0E0000 		.4byte	.LASF157
 5837 0af6 0C       		.byte	0xc
 5838 0af7 08       		.byte	0x8
 5839 0af8 2301     		.2byte	0x123
 5840 0afa 260B0000 		.4byte	0xb26
 5841 0afe 0E       		.uleb128 0xe
 5842 0aff 7B060000 		.4byte	.LASF92
 5843 0b03 08       		.byte	0x8
 5844 0b04 2501     		.2byte	0x125
 5845 0b06 260B0000 		.4byte	0xb26
 5846 0b0a 00       		.byte	0
 5847 0b0b 0E       		.uleb128 0xe
 5848 0b0c 560D0000 		.4byte	.LASF158
 5849 0b10 08       		.byte	0x8
 5850 0b11 2601     		.2byte	0x126
 5851 0b13 C3000000 		.4byte	0xc3
 5852 0b17 04       		.byte	0x4
 5853 0b18 0E       		.uleb128 0xe
 5854 0b19 9F070000 		.4byte	.LASF159
 5855 0b1d 08       		.byte	0x8
 5856 0b1e 2701     		.2byte	0x127
 5857 0b20 2C0B0000 		.4byte	0xb2c
 5858 0b24 08       		.byte	0x8
 5859 0b25 00       		.byte	0
 5860 0b26 11       		.uleb128 0x11
 5861 0b27 04       		.byte	0x4
 5862 0b28 F10A0000 		.4byte	0xaf1
 5863 0b2c 11       		.uleb128 0x11
 5864 0b2d 04       		.byte	0x4
 5865 0b2e E50A0000 		.4byte	0xae5
 5866 0b32 0F       		.uleb128 0xf
 5867 0b33 66040000 		.4byte	.LASF160
 5868 0b37 0E       		.byte	0xe
 5869 0b38 08       		.byte	0x8
 5870 0b39 3F01     		.2byte	0x13f
 5871 0b3b 670B0000 		.4byte	0xb67
ARM GAS  /tmp/cc2f1tkm.s 			page 104


 5872 0b3f 0E       		.uleb128 0xe
 5873 0b40 49100000 		.4byte	.LASF161
 5874 0b44 08       		.byte	0x8
 5875 0b45 4001     		.2byte	0x140
 5876 0b47 670B0000 		.4byte	0xb67
 5877 0b4b 00       		.byte	0
 5878 0b4c 0E       		.uleb128 0xe
 5879 0b4d 74080000 		.4byte	.LASF162
 5880 0b51 08       		.byte	0x8
 5881 0b52 4101     		.2byte	0x141
 5882 0b54 670B0000 		.4byte	0xb67
 5883 0b58 06       		.byte	0x6
 5884 0b59 0E       		.uleb128 0xe
 5885 0b5a 9A0E0000 		.4byte	.LASF163
 5886 0b5e 08       		.byte	0x8
 5887 0b5f 4201     		.2byte	0x142
 5888 0b61 82000000 		.4byte	0x82
 5889 0b65 0C       		.byte	0xc
 5890 0b66 00       		.byte	0
 5891 0b67 09       		.uleb128 0x9
 5892 0b68 82000000 		.4byte	0x82
 5893 0b6c 770B0000 		.4byte	0xb77
 5894 0b70 0A       		.uleb128 0xa
 5895 0b71 33000000 		.4byte	0x33
 5896 0b75 02       		.byte	0x2
 5897 0b76 00       		.byte	0
 5898 0b77 21       		.uleb128 0x21
 5899 0b78 D0       		.byte	0xd0
 5900 0b79 08       		.byte	0x8
 5901 0b7a 8002     		.2byte	0x280
 5902 0b7c 780C0000 		.4byte	0xc78
 5903 0b80 0E       		.uleb128 0xe
 5904 0b81 DA0F0000 		.4byte	.LASF164
 5905 0b85 08       		.byte	0x8
 5906 0b86 8202     		.2byte	0x282
 5907 0b88 33000000 		.4byte	0x33
 5908 0b8c 00       		.byte	0
 5909 0b8d 0E       		.uleb128 0xe
 5910 0b8e 470C0000 		.4byte	.LASF165
 5911 0b92 08       		.byte	0x8
 5912 0b93 8302     		.2byte	0x283
 5913 0b95 09060000 		.4byte	0x609
 5914 0b99 04       		.byte	0x4
 5915 0b9a 0E       		.uleb128 0xe
 5916 0b9b A3040000 		.4byte	.LASF166
 5917 0b9f 08       		.byte	0x8
 5918 0ba0 8402     		.2byte	0x284
 5919 0ba2 780C0000 		.4byte	0xc78
 5920 0ba6 08       		.byte	0x8
 5921 0ba7 0E       		.uleb128 0xe
 5922 0ba8 8F000000 		.4byte	.LASF167
 5923 0bac 08       		.byte	0x8
 5924 0bad 8502     		.2byte	0x285
 5925 0baf 83060000 		.4byte	0x683
 5926 0bb3 24       		.byte	0x24
 5927 0bb4 0E       		.uleb128 0xe
 5928 0bb5 28080000 		.4byte	.LASF168
ARM GAS  /tmp/cc2f1tkm.s 			page 105


 5929 0bb9 08       		.byte	0x8
 5930 0bba 8602     		.2byte	0x286
 5931 0bbc C3000000 		.4byte	0xc3
 5932 0bc0 48       		.byte	0x48
 5933 0bc1 0E       		.uleb128 0xe
 5934 0bc2 4F100000 		.4byte	.LASF169
 5935 0bc6 08       		.byte	0x8
 5936 0bc7 8702     		.2byte	0x287
 5937 0bc9 2C000000 		.4byte	0x2c
 5938 0bcd 50       		.byte	0x50
 5939 0bce 0E       		.uleb128 0xe
 5940 0bcf A8000000 		.4byte	.LASF170
 5941 0bd3 08       		.byte	0x8
 5942 0bd4 8802     		.2byte	0x288
 5943 0bd6 320B0000 		.4byte	0xb32
 5944 0bda 58       		.byte	0x58
 5945 0bdb 0E       		.uleb128 0xe
 5946 0bdc 18070000 		.4byte	.LASF171
 5947 0be0 08       		.byte	0x8
 5948 0be1 8902     		.2byte	0x289
 5949 0be3 F3050000 		.4byte	0x5f3
 5950 0be7 68       		.byte	0x68
 5951 0be8 0E       		.uleb128 0xe
 5952 0be9 030B0000 		.4byte	.LASF172
 5953 0bed 08       		.byte	0x8
 5954 0bee 8A02     		.2byte	0x28a
 5955 0bf0 F3050000 		.4byte	0x5f3
 5956 0bf4 70       		.byte	0x70
 5957 0bf5 0E       		.uleb128 0xe
 5958 0bf6 72000000 		.4byte	.LASF173
 5959 0bfa 08       		.byte	0x8
 5960 0bfb 8B02     		.2byte	0x28b
 5961 0bfd F3050000 		.4byte	0x5f3
 5962 0c01 78       		.byte	0x78
 5963 0c02 0E       		.uleb128 0xe
 5964 0c03 9A0C0000 		.4byte	.LASF174
 5965 0c07 08       		.byte	0x8
 5966 0c08 8C02     		.2byte	0x28c
 5967 0c0a 880C0000 		.4byte	0xc88
 5968 0c0e 80       		.byte	0x80
 5969 0c0f 0E       		.uleb128 0xe
 5970 0c10 D2000000 		.4byte	.LASF175
 5971 0c14 08       		.byte	0x8
 5972 0c15 8D02     		.2byte	0x28d
 5973 0c17 980C0000 		.4byte	0xc98
 5974 0c1b 88       		.byte	0x88
 5975 0c1c 0E       		.uleb128 0xe
 5976 0c1d 6E0E0000 		.4byte	.LASF176
 5977 0c21 08       		.byte	0x8
 5978 0c22 8E02     		.2byte	0x28e
 5979 0c24 C3000000 		.4byte	0xc3
 5980 0c28 A0       		.byte	0xa0
 5981 0c29 0E       		.uleb128 0xe
 5982 0c2a 99010000 		.4byte	.LASF177
 5983 0c2e 08       		.byte	0x8
 5984 0c2f 8F02     		.2byte	0x28f
 5985 0c31 F3050000 		.4byte	0x5f3
ARM GAS  /tmp/cc2f1tkm.s 			page 106


 5986 0c35 A4       		.byte	0xa4
 5987 0c36 0E       		.uleb128 0xe
 5988 0c37 55070000 		.4byte	.LASF178
 5989 0c3b 08       		.byte	0x8
 5990 0c3c 9002     		.2byte	0x290
 5991 0c3e F3050000 		.4byte	0x5f3
 5992 0c42 AC       		.byte	0xac
 5993 0c43 0E       		.uleb128 0xe
 5994 0c44 F5070000 		.4byte	.LASF179
 5995 0c48 08       		.byte	0x8
 5996 0c49 9102     		.2byte	0x291
 5997 0c4b F3050000 		.4byte	0x5f3
 5998 0c4f B4       		.byte	0xb4
 5999 0c50 0E       		.uleb128 0xe
 6000 0c51 B7080000 		.4byte	.LASF180
 6001 0c55 08       		.byte	0x8
 6002 0c56 9202     		.2byte	0x292
 6003 0c58 F3050000 		.4byte	0x5f3
 6004 0c5c BC       		.byte	0xbc
 6005 0c5d 0E       		.uleb128 0xe
 6006 0c5e 07070000 		.4byte	.LASF181
 6007 0c62 08       		.byte	0x8
 6008 0c63 9302     		.2byte	0x293
 6009 0c65 F3050000 		.4byte	0x5f3
 6010 0c69 C4       		.byte	0xc4
 6011 0c6a 0E       		.uleb128 0xe
 6012 0c6b 00050000 		.4byte	.LASF182
 6013 0c6f 08       		.byte	0x8
 6014 0c70 9402     		.2byte	0x294
 6015 0c72 C3000000 		.4byte	0xc3
 6016 0c76 CC       		.byte	0xcc
 6017 0c77 00       		.byte	0
 6018 0c78 09       		.uleb128 0x9
 6019 0c79 75040000 		.4byte	0x475
 6020 0c7d 880C0000 		.4byte	0xc88
 6021 0c81 0A       		.uleb128 0xa
 6022 0c82 33000000 		.4byte	0x33
 6023 0c86 19       		.byte	0x19
 6024 0c87 00       		.byte	0
 6025 0c88 09       		.uleb128 0x9
 6026 0c89 75040000 		.4byte	0x475
 6027 0c8d 980C0000 		.4byte	0xc98
 6028 0c91 0A       		.uleb128 0xa
 6029 0c92 33000000 		.4byte	0x33
 6030 0c96 07       		.byte	0x7
 6031 0c97 00       		.byte	0
 6032 0c98 09       		.uleb128 0x9
 6033 0c99 75040000 		.4byte	0x475
 6034 0c9d A80C0000 		.4byte	0xca8
 6035 0ca1 0A       		.uleb128 0xa
 6036 0ca2 33000000 		.4byte	0x33
 6037 0ca6 17       		.byte	0x17
 6038 0ca7 00       		.byte	0
 6039 0ca8 21       		.uleb128 0x21
 6040 0ca9 F0       		.byte	0xf0
 6041 0caa 08       		.byte	0x8
 6042 0cab 9902     		.2byte	0x299
ARM GAS  /tmp/cc2f1tkm.s 			page 107


 6043 0cad CC0C0000 		.4byte	0xccc
 6044 0cb1 0E       		.uleb128 0xe
 6045 0cb2 29030000 		.4byte	.LASF183
 6046 0cb6 08       		.byte	0x8
 6047 0cb7 9C02     		.2byte	0x29c
 6048 0cb9 CC0C0000 		.4byte	0xccc
 6049 0cbd 00       		.byte	0
 6050 0cbe 0E       		.uleb128 0xe
 6051 0cbf AC100000 		.4byte	.LASF184
 6052 0cc3 08       		.byte	0x8
 6053 0cc4 9D02     		.2byte	0x29d
 6054 0cc6 DC0C0000 		.4byte	0xcdc
 6055 0cca 78       		.byte	0x78
 6056 0ccb 00       		.byte	0
 6057 0ccc 09       		.uleb128 0x9
 6058 0ccd CC070000 		.4byte	0x7cc
 6059 0cd1 DC0C0000 		.4byte	0xcdc
 6060 0cd5 0A       		.uleb128 0xa
 6061 0cd6 33000000 		.4byte	0x33
 6062 0cda 1D       		.byte	0x1d
 6063 0cdb 00       		.byte	0
 6064 0cdc 09       		.uleb128 0x9
 6065 0cdd 33000000 		.4byte	0x33
 6066 0ce1 EC0C0000 		.4byte	0xcec
 6067 0ce5 0A       		.uleb128 0xa
 6068 0ce6 33000000 		.4byte	0x33
 6069 0cea 1D       		.byte	0x1d
 6070 0ceb 00       		.byte	0
 6071 0cec 22       		.uleb128 0x22
 6072 0ced F0       		.byte	0xf0
 6073 0cee 08       		.byte	0x8
 6074 0cef 7E02     		.2byte	0x27e
 6075 0cf1 0E0D0000 		.4byte	0xd0e
 6076 0cf5 23       		.uleb128 0x23
 6077 0cf6 410F0000 		.4byte	.LASF134
 6078 0cfa 08       		.byte	0x8
 6079 0cfb 9502     		.2byte	0x295
 6080 0cfd 770B0000 		.4byte	0xb77
 6081 0d01 23       		.uleb128 0x23
 6082 0d02 6E0C0000 		.4byte	.LASF185
 6083 0d06 08       		.byte	0x8
 6084 0d07 9E02     		.2byte	0x29e
 6085 0d09 A80C0000 		.4byte	0xca8
 6086 0d0d 00       		.byte	0
 6087 0d0e 09       		.uleb128 0x9
 6088 0d0f 75040000 		.4byte	0x475
 6089 0d13 1E0D0000 		.4byte	0xd1e
 6090 0d17 0A       		.uleb128 0xa
 6091 0d18 33000000 		.4byte	0x33
 6092 0d1c 18       		.byte	0x18
 6093 0d1d 00       		.byte	0
 6094 0d1e 19       		.uleb128 0x19
 6095 0d1f 5A100000 		.4byte	.LASF187
 6096 0d23 11       		.uleb128 0x11
 6097 0d24 04       		.byte	0x4
 6098 0d25 1E0D0000 		.4byte	0xd1e
 6099 0d29 14       		.uleb128 0x14
ARM GAS  /tmp/cc2f1tkm.s 			page 108


 6100 0d2a 340D0000 		.4byte	0xd34
 6101 0d2e 13       		.uleb128 0x13
 6102 0d2f 1A090000 		.4byte	0x91a
 6103 0d33 00       		.byte	0
 6104 0d34 11       		.uleb128 0x11
 6105 0d35 04       		.byte	0x4
 6106 0d36 290D0000 		.4byte	0xd29
 6107 0d3a 11       		.uleb128 0x11
 6108 0d3b 04       		.byte	0x4
 6109 0d3c 6D060000 		.4byte	0x66d
 6110 0d40 14       		.uleb128 0x14
 6111 0d41 4B0D0000 		.4byte	0xd4b
 6112 0d45 13       		.uleb128 0x13
 6113 0d46 C3000000 		.4byte	0xc3
 6114 0d4a 00       		.byte	0
 6115 0d4b 11       		.uleb128 0x11
 6116 0d4c 04       		.byte	0x4
 6117 0d4d 510D0000 		.4byte	0xd51
 6118 0d51 11       		.uleb128 0x11
 6119 0d52 04       		.byte	0x4
 6120 0d53 400D0000 		.4byte	0xd40
 6121 0d57 09       		.uleb128 0x9
 6122 0d58 E50A0000 		.4byte	0xae5
 6123 0d5c 670D0000 		.4byte	0xd67
 6124 0d60 0A       		.uleb128 0xa
 6125 0d61 33000000 		.4byte	0x33
 6126 0d65 02       		.byte	0x2
 6127 0d66 00       		.byte	0
 6128 0d67 24       		.uleb128 0x24
 6129 0d68 11030000 		.4byte	.LASF188
 6130 0d6c 08       		.byte	0x8
 6131 0d6d 2E03     		.2byte	0x32e
 6132 0d6f 1A090000 		.4byte	0x91a
 6133 0d73 24       		.uleb128 0x24
 6134 0d74 3B020000 		.4byte	.LASF189
 6135 0d78 08       		.byte	0x8
 6136 0d79 2F03     		.2byte	0x32f
 6137 0d7b 20090000 		.4byte	0x920
 6138 0d7f 25       		.uleb128 0x25
 6139 0d80 58010000 		.4byte	.LASF192
 6140 0d84 01       		.byte	0x1
 6141 0d85 2806     		.2byte	0x628
 6142 0d87 01       		.byte	0x1
 6143 0d88 AF0D0000 		.4byte	0xdaf
 6144 0d8c 26       		.uleb128 0x26
 6145 0d8d 9D060000 		.4byte	.LASF41
 6146 0d91 01       		.byte	0x1
 6147 0d92 2806     		.2byte	0x628
 6148 0d94 AF0D0000 		.4byte	0xdaf
 6149 0d98 27       		.uleb128 0x27
 6150 0d99 7000     		.ascii	"p\000"
 6151 0d9b 01       		.byte	0x1
 6152 0d9c 2806     		.2byte	0x628
 6153 0d9e 63050000 		.4byte	0x563
 6154 0da2 28       		.uleb128 0x28
 6155 0da3 300C0000 		.4byte	.LASF190
 6156 0da7 01       		.byte	0x1
ARM GAS  /tmp/cc2f1tkm.s 			page 109


 6157 0da8 2A06     		.2byte	0x62a
 6158 0daa EB040000 		.4byte	0x4eb
 6159 0dae 00       		.byte	0
 6160 0daf 11       		.uleb128 0x11
 6161 0db0 04       		.byte	0x4
 6162 0db1 F1040000 		.4byte	0x4f1
 6163 0db5 29       		.uleb128 0x29
 6164 0db6 8C020000 		.4byte	.LASF197
 6165 0dba 01       		.byte	0x1
 6166 0dbb 1206     		.2byte	0x612
 6167 0dbd 63050000 		.4byte	0x563
 6168 0dc1 01       		.byte	0x1
 6169 0dc2 DF0D0000 		.4byte	0xddf
 6170 0dc6 26       		.uleb128 0x26
 6171 0dc7 9D060000 		.4byte	.LASF41
 6172 0dcb 01       		.byte	0x1
 6173 0dcc 1206     		.2byte	0x612
 6174 0dce AF0D0000 		.4byte	0xdaf
 6175 0dd2 28       		.uleb128 0x28
 6176 0dd3 6E040000 		.4byte	.LASF191
 6177 0dd7 01       		.byte	0x1
 6178 0dd8 1B06     		.2byte	0x61b
 6179 0dda 63050000 		.4byte	0x563
 6180 0dde 00       		.byte	0
 6181 0ddf 25       		.uleb128 0x25
 6182 0de0 630A0000 		.4byte	.LASF193
 6183 0de4 01       		.byte	0x1
 6184 0de5 FF05     		.2byte	0x5ff
 6185 0de7 01       		.byte	0x1
 6186 0de8 290E0000 		.4byte	0xe29
 6187 0dec 26       		.uleb128 0x26
 6188 0ded 9D060000 		.4byte	.LASF41
 6189 0df1 01       		.byte	0x1
 6190 0df2 FF05     		.2byte	0x5ff
 6191 0df4 AF0D0000 		.4byte	0xdaf
 6192 0df8 27       		.uleb128 0x27
 6193 0df9 62756600 		.ascii	"buf\000"
 6194 0dfd 01       		.byte	0x1
 6195 0dfe 0006     		.2byte	0x600
 6196 0e00 EB040000 		.4byte	0x4eb
 6197 0e04 26       		.uleb128 0x26
 6198 0e05 E00C0000 		.4byte	.LASF194
 6199 0e09 01       		.byte	0x1
 6200 0e0a 0106     		.2byte	0x601
 6201 0e0c F5000000 		.4byte	0xf5
 6202 0e10 28       		.uleb128 0x28
 6203 0e11 09000000 		.4byte	.LASF195
 6204 0e15 01       		.byte	0x1
 6205 0e16 0306     		.2byte	0x603
 6206 0e18 36010000 		.4byte	0x136
 6207 0e1c 28       		.uleb128 0x28
 6208 0e1d 82080000 		.4byte	.LASF196
 6209 0e21 01       		.byte	0x1
 6210 0e22 0406     		.2byte	0x604
 6211 0e24 290E0000 		.4byte	0xe29
 6212 0e28 00       		.byte	0
 6213 0e29 11       		.uleb128 0x11
ARM GAS  /tmp/cc2f1tkm.s 			page 110


 6214 0e2a 04       		.byte	0x4
 6215 0e2b EB040000 		.4byte	0x4eb
 6216 0e2f 29       		.uleb128 0x29
 6217 0e30 C8040000 		.4byte	.LASF198
 6218 0e34 01       		.byte	0x1
 6219 0e35 F305     		.2byte	0x5f3
 6220 0e37 F5000000 		.4byte	0xf5
 6221 0e3b 01       		.byte	0x1
 6222 0e3c 650E0000 		.4byte	0xe65
 6223 0e40 26       		.uleb128 0x26
 6224 0e41 B2060000 		.4byte	.LASF199
 6225 0e45 01       		.byte	0x1
 6226 0e46 F305     		.2byte	0x5f3
 6227 0e48 F5000000 		.4byte	0xf5
 6228 0e4c 26       		.uleb128 0x26
 6229 0e4d 81060000 		.4byte	.LASF69
 6230 0e51 01       		.byte	0x1
 6231 0e52 F305     		.2byte	0x5f3
 6232 0e54 65050000 		.4byte	0x565
 6233 0e58 27       		.uleb128 0x27
 6234 0e59 6C656E00 		.ascii	"len\000"
 6235 0e5d 01       		.byte	0x1
 6236 0e5e F305     		.2byte	0x5f3
 6237 0e60 36010000 		.4byte	0x136
 6238 0e64 00       		.byte	0
 6239 0e65 29       		.uleb128 0x29
 6240 0e66 010D0000 		.4byte	.LASF200
 6241 0e6a 01       		.byte	0x1
 6242 0e6b EA05     		.2byte	0x5ea
 6243 0e6d F5000000 		.4byte	0xf5
 6244 0e71 01       		.byte	0x1
 6245 0e72 9D0E0000 		.4byte	0xe9d
 6246 0e76 26       		.uleb128 0x26
 6247 0e77 B2060000 		.4byte	.LASF199
 6248 0e7b 01       		.byte	0x1
 6249 0e7c EA05     		.2byte	0x5ea
 6250 0e7e F5000000 		.4byte	0xf5
 6251 0e82 26       		.uleb128 0x26
 6252 0e83 5B090000 		.4byte	.LASF201
 6253 0e87 01       		.byte	0x1
 6254 0e88 EA05     		.2byte	0x5ea
 6255 0e8a 2B010000 		.4byte	0x12b
 6256 0e8e 2A       		.uleb128 0x2a
 6257 0e8f 28       		.uleb128 0x28
 6258 0e90 4C0D0000 		.4byte	.LASF202
 6259 0e94 01       		.byte	0x1
 6260 0e95 EC05     		.2byte	0x5ec
 6261 0e97 F5000000 		.4byte	0xf5
 6262 0e9b 00       		.byte	0
 6263 0e9c 00       		.byte	0
 6264 0e9d 29       		.uleb128 0x29
 6265 0e9e 46010000 		.4byte	.LASF203
 6266 0ea2 01       		.byte	0x1
 6267 0ea3 D905     		.2byte	0x5d9
 6268 0ea5 F5000000 		.4byte	0xf5
 6269 0ea9 01       		.byte	0x1
 6270 0eaa D30E0000 		.4byte	0xed3
ARM GAS  /tmp/cc2f1tkm.s 			page 111


 6271 0eae 26       		.uleb128 0x26
 6272 0eaf B2060000 		.4byte	.LASF199
 6273 0eb3 01       		.byte	0x1
 6274 0eb4 D905     		.2byte	0x5d9
 6275 0eb6 F5000000 		.4byte	0xf5
 6276 0eba 26       		.uleb128 0x26
 6277 0ebb A10D0000 		.4byte	.LASF204
 6278 0ebf 01       		.byte	0x1
 6279 0ec0 D905     		.2byte	0x5d9
 6280 0ec2 D5000000 		.4byte	0xd5
 6281 0ec6 2A       		.uleb128 0x2a
 6282 0ec7 2B       		.uleb128 0x2b
 6283 0ec8 6A00     		.ascii	"j\000"
 6284 0eca 01       		.byte	0x1
 6285 0ecb DC05     		.2byte	0x5dc
 6286 0ecd D5000000 		.4byte	0xd5
 6287 0ed1 00       		.byte	0
 6288 0ed2 00       		.byte	0
 6289 0ed3 25       		.uleb128 0x25
 6290 0ed4 64000000 		.4byte	.LASF205
 6291 0ed8 01       		.byte	0x1
 6292 0ed9 C305     		.2byte	0x5c3
 6293 0edb 01       		.byte	0x1
 6294 0edc 290F0000 		.4byte	0xf29
 6295 0ee0 26       		.uleb128 0x26
 6296 0ee1 84070000 		.4byte	.LASF27
 6297 0ee5 01       		.byte	0x1
 6298 0ee6 C305     		.2byte	0x5c3
 6299 0ee8 63050000 		.4byte	0x563
 6300 0eec 26       		.uleb128 0x26
 6301 0eed D9020000 		.4byte	.LASF206
 6302 0ef1 01       		.byte	0x1
 6303 0ef2 C305     		.2byte	0x5c3
 6304 0ef4 36010000 		.4byte	0x136
 6305 0ef8 28       		.uleb128 0x28
 6306 0ef9 81060000 		.4byte	.LASF69
 6307 0efd 01       		.byte	0x1
 6308 0efe C705     		.2byte	0x5c7
 6309 0f00 2F0F0000 		.4byte	0xf2f
 6310 0f04 2B       		.uleb128 0x2b
 6311 0f05 66776400 		.ascii	"fwd\000"
 6312 0f09 01       		.byte	0x1
 6313 0f0a C905     		.2byte	0x5c9
 6314 0f0c 36010000 		.4byte	0x136
 6315 0f10 2B       		.uleb128 0x2b
 6316 0f11 72657600 		.ascii	"rev\000"
 6317 0f15 01       		.byte	0x1
 6318 0f16 CA05     		.2byte	0x5ca
 6319 0f18 36010000 		.4byte	0x136
 6320 0f1c 2A       		.uleb128 0x2a
 6321 0f1d 2B       		.uleb128 0x2b
 6322 0f1e 7800     		.ascii	"x\000"
 6323 0f20 01       		.byte	0x1
 6324 0f21 CE05     		.2byte	0x5ce
 6325 0f23 E0000000 		.4byte	0xe0
 6326 0f27 00       		.byte	0
 6327 0f28 00       		.byte	0
ARM GAS  /tmp/cc2f1tkm.s 			page 112


 6328 0f29 11       		.uleb128 0x11
 6329 0f2a 04       		.byte	0x4
 6330 0f2b D5000000 		.4byte	0xd5
 6331 0f2f 05       		.uleb128 0x5
 6332 0f30 290F0000 		.4byte	0xf29
 6333 0f34 29       		.uleb128 0x29
 6334 0f35 6E0B0000 		.4byte	.LASF207
 6335 0f39 01       		.byte	0x1
 6336 0f3a B405     		.2byte	0x5b4
 6337 0f3c FD030000 		.4byte	0x3fd
 6338 0f40 01       		.byte	0x1
 6339 0f41 6E0F0000 		.4byte	0xf6e
 6340 0f45 22       		.uleb128 0x22
 6341 0f46 02       		.byte	0x2
 6342 0f47 01       		.byte	0x1
 6343 0f48 B905     		.2byte	0x5b9
 6344 0f4a 630F0000 		.4byte	0xf63
 6345 0f4e 2C       		.uleb128 0x2c
 6346 0f4f 6100     		.ascii	"a\000"
 6347 0f51 01       		.byte	0x1
 6348 0f52 BB05     		.2byte	0x5bb
 6349 0f54 F5000000 		.4byte	0xf5
 6350 0f58 2C       		.uleb128 0x2c
 6351 0f59 6200     		.ascii	"b\000"
 6352 0f5b 01       		.byte	0x1
 6353 0f5c BC05     		.2byte	0x5bc
 6354 0f5e 6E0F0000 		.4byte	0xf6e
 6355 0f62 00       		.byte	0
 6356 0f63 2B       		.uleb128 0x2b
 6357 0f64 7500     		.ascii	"u\000"
 6358 0f66 01       		.byte	0x1
 6359 0f67 BD05     		.2byte	0x5bd
 6360 0f69 450F0000 		.4byte	0xf45
 6361 0f6d 00       		.byte	0
 6362 0f6e 09       		.uleb128 0x9
 6363 0f6f D5000000 		.4byte	0xd5
 6364 0f73 7E0F0000 		.4byte	0xf7e
 6365 0f77 0A       		.uleb128 0xa
 6366 0f78 33000000 		.4byte	0x33
 6367 0f7c 01       		.byte	0x1
 6368 0f7d 00       		.byte	0
 6369 0f7e 29       		.uleb128 0x29
 6370 0f7f 77100000 		.4byte	.LASF208
 6371 0f83 01       		.byte	0x1
 6372 0f84 4D05     		.2byte	0x54d
 6373 0f86 E5000000 		.4byte	0xe5
 6374 0f8a 01       		.byte	0x1
 6375 0f8b 56100000 		.4byte	0x1056
 6376 0f8f 26       		.uleb128 0x26
 6377 0f90 32020000 		.4byte	.LASF209
 6378 0f94 01       		.byte	0x1
 6379 0f95 4D05     		.2byte	0x54d
 6380 0f97 56100000 		.4byte	0x1056
 6381 0f9b 26       		.uleb128 0x26
 6382 0f9c 170A0000 		.4byte	.LASF210
 6383 0fa0 01       		.byte	0x1
 6384 0fa1 4E05     		.2byte	0x54e
ARM GAS  /tmp/cc2f1tkm.s 			page 113


 6385 0fa3 10010000 		.4byte	0x110
 6386 0fa7 26       		.uleb128 0x26
 6387 0fa8 F10F0000 		.4byte	.LASF211
 6388 0fac 01       		.byte	0x1
 6389 0fad 4F05     		.2byte	0x54f
 6390 0faf D5000000 		.4byte	0xd5
 6391 0fb3 26       		.uleb128 0x26
 6392 0fb4 4F000000 		.4byte	.LASF212
 6393 0fb8 01       		.byte	0x1
 6394 0fb9 5005     		.2byte	0x550
 6395 0fbb 63050000 		.4byte	0x563
 6396 0fbf 2A       		.uleb128 0x2a
 6397 0fc0 28       		.uleb128 0x28
 6398 0fc1 A00F0000 		.4byte	.LASF213
 6399 0fc5 01       		.byte	0x1
 6400 0fc6 6705     		.2byte	0x567
 6401 0fc8 10010000 		.4byte	0x110
 6402 0fcc 28       		.uleb128 0x28
 6403 0fcd 65100000 		.4byte	.LASF214
 6404 0fd1 01       		.byte	0x1
 6405 0fd2 6805     		.2byte	0x568
 6406 0fd4 D5000000 		.4byte	0xd5
 6407 0fd8 28       		.uleb128 0x28
 6408 0fd9 C3050000 		.4byte	.LASF215
 6409 0fdd 01       		.byte	0x1
 6410 0fde 6905     		.2byte	0x569
 6411 0fe0 D5000000 		.4byte	0xd5
 6412 0fe4 28       		.uleb128 0x28
 6413 0fe5 AC010000 		.4byte	.LASF216
 6414 0fe9 01       		.byte	0x1
 6415 0fea 7905     		.2byte	0x579
 6416 0fec 10010000 		.4byte	0x110
 6417 0ff0 28       		.uleb128 0x28
 6418 0ff1 88050000 		.4byte	.LASF217
 6419 0ff5 01       		.byte	0x1
 6420 0ff6 7A05     		.2byte	0x57a
 6421 0ff8 10010000 		.4byte	0x110
 6422 0ffc 28       		.uleb128 0x28
 6423 0ffd 300C0000 		.4byte	.LASF190
 6424 1001 01       		.byte	0x1
 6425 1002 7B05     		.2byte	0x57b
 6426 1004 5C100000 		.4byte	0x105c
 6427 1008 2D       		.uleb128 0x2d
 6428 1009 1A100000 		.4byte	0x101a
 6429 100d 28       		.uleb128 0x28
 6430 100e AF0E0000 		.4byte	.LASF218
 6431 1012 01       		.byte	0x1
 6432 1013 6E05     		.2byte	0x56e
 6433 1015 E0000000 		.4byte	0xe0
 6434 1019 00       		.byte	0
 6435 101a 2D       		.uleb128 0x2d
 6436 101b 46100000 		.4byte	0x1046
 6437 101f 28       		.uleb128 0x28
 6438 1020 340B0000 		.4byte	.LASF219
 6439 1024 01       		.byte	0x1
 6440 1025 8005     		.2byte	0x580
 6441 1027 1B010000 		.4byte	0x11b
ARM GAS  /tmp/cc2f1tkm.s 			page 114


 6442 102b 2A       		.uleb128 0x2a
 6443 102c 28       		.uleb128 0x28
 6444 102d AF0E0000 		.4byte	.LASF218
 6445 1031 01       		.byte	0x1
 6446 1032 8605     		.2byte	0x586
 6447 1034 E0000000 		.4byte	0xe0
 6448 1038 28       		.uleb128 0x28
 6449 1039 06090000 		.4byte	.LASF220
 6450 103d 01       		.byte	0x1
 6451 103e 8905     		.2byte	0x589
 6452 1040 1B010000 		.4byte	0x11b
 6453 1044 00       		.byte	0
 6454 1045 00       		.byte	0
 6455 1046 2A       		.uleb128 0x2a
 6456 1047 28       		.uleb128 0x28
 6457 1048 06060000 		.4byte	.LASF221
 6458 104c 01       		.byte	0x1
 6459 104d 9E05     		.2byte	0x59e
 6460 104f 1B010000 		.4byte	0x11b
 6461 1053 00       		.byte	0
 6462 1054 00       		.byte	0
 6463 1055 00       		.byte	0
 6464 1056 11       		.uleb128 0x11
 6465 1057 04       		.byte	0x4
 6466 1058 68020000 		.4byte	0x268
 6467 105c 11       		.uleb128 0x11
 6468 105d 04       		.byte	0x4
 6469 105e 41050000 		.4byte	0x541
 6470 1062 2E       		.uleb128 0x2e
 6471 1063 280A0000 		.4byte	.LASF334
 6472 1067 01       		.byte	0x1
 6473 1068 2D05     		.2byte	0x52d
 6474 106a 00000000 		.4byte	.LFB32
 6475 106e 70000000 		.4byte	.LFE32-.LFB32
 6476 1072 01       		.uleb128 0x1
 6477 1073 9C       		.byte	0x9c
 6478 1074 3D110000 		.4byte	0x113d
 6479 1078 2F       		.uleb128 0x2f
 6480 1079 73726300 		.ascii	"src\000"
 6481 107d 01       		.byte	0x1
 6482 107e 2D05     		.2byte	0x52d
 6483 1080 65050000 		.4byte	0x565
 6484 1084 00000000 		.4byte	.LLST18
 6485 1088 30       		.uleb128 0x30
 6486 1089 D10A0000 		.4byte	.LASF222
 6487 108d 01       		.byte	0x1
 6488 108e 2D05     		.2byte	0x52d
 6489 1090 10010000 		.4byte	0x110
 6490 1094 5A000000 		.4byte	.LLST19
 6491 1098 30       		.uleb128 0x30
 6492 1099 37080000 		.4byte	.LASF223
 6493 109d 01       		.byte	0x1
 6494 109e 2D05     		.2byte	0x52d
 6495 10a0 10010000 		.4byte	0x110
 6496 10a4 78000000 		.4byte	.LLST20
 6497 10a8 2F       		.uleb128 0x2f
 6498 10a9 64737400 		.ascii	"dst\000"
ARM GAS  /tmp/cc2f1tkm.s 			page 115


 6499 10ad 01       		.byte	0x1
 6500 10ae 2E05     		.2byte	0x52e
 6501 10b0 290F0000 		.4byte	0xf29
 6502 10b4 99000000 		.4byte	.LLST21
 6503 10b8 30       		.uleb128 0x30
 6504 10b9 5B0F0000 		.4byte	.LASF224
 6505 10bd 01       		.byte	0x1
 6506 10be 2E05     		.2byte	0x52e
 6507 10c0 10010000 		.4byte	0x110
 6508 10c4 E1000000 		.4byte	.LLST22
 6509 10c8 31       		.uleb128 0x31
 6510 10c9 D0090000 		.4byte	.LASF225
 6511 10cd 01       		.byte	0x1
 6512 10ce 3905     		.2byte	0x539
 6513 10d0 41010000 		.4byte	0x141
 6514 10d4 01       		.uleb128 0x1
 6515 10d5 52       		.byte	0x52
 6516 10d6 32       		.uleb128 0x32
 6517 10d7 50000000 		.4byte	.Ldebug_ranges0+0x50
 6518 10db 33       		.uleb128 0x33
 6519 10dc D20E0000 		.4byte	.LASF226
 6520 10e0 01       		.byte	0x1
 6521 10e1 3C05     		.2byte	0x53c
 6522 10e3 E0000000 		.4byte	0xe0
 6523 10e7 0F010000 		.4byte	.LLST23
 6524 10eb 33       		.uleb128 0x33
 6525 10ec BD0E0000 		.4byte	.LASF227
 6526 10f0 01       		.byte	0x1
 6527 10f1 3D05     		.2byte	0x53d
 6528 10f3 E0000000 		.4byte	0xe0
 6529 10f7 31010000 		.4byte	.LLST24
 6530 10fb 33       		.uleb128 0x33
 6531 10fc 970B0000 		.4byte	.LASF228
 6532 1100 01       		.byte	0x1
 6533 1101 3F05     		.2byte	0x53f
 6534 1103 E0000000 		.4byte	0xe0
 6535 1107 44010000 		.4byte	.LLST25
 6536 110b 33       		.uleb128 0x33
 6537 110c 71060000 		.4byte	.LASF229
 6538 1110 01       		.byte	0x1
 6539 1111 4005     		.2byte	0x540
 6540 1113 1B010000 		.4byte	0x11b
 6541 1117 8A010000 		.4byte	.LLST26
 6542 111b 33       		.uleb128 0x33
 6543 111c AD000000 		.4byte	.LASF230
 6544 1120 01       		.byte	0x1
 6545 1121 4205     		.2byte	0x542
 6546 1123 E0000000 		.4byte	0xe0
 6547 1127 9D010000 		.4byte	.LLST27
 6548 112b 33       		.uleb128 0x33
 6549 112c 99080000 		.4byte	.LASF231
 6550 1130 01       		.byte	0x1
 6551 1131 4305     		.2byte	0x543
 6552 1133 E0000000 		.4byte	0xe0
 6553 1137 BC010000 		.4byte	.LLST28
 6554 113b 00       		.byte	0
 6555 113c 00       		.byte	0
ARM GAS  /tmp/cc2f1tkm.s 			page 116


 6556 113d 29       		.uleb128 0x29
 6557 113e A20B0000 		.4byte	.LASF232
 6558 1142 01       		.byte	0x1
 6559 1143 1F05     		.2byte	0x51f
 6560 1145 4C050000 		.4byte	0x54c
 6561 1149 01       		.byte	0x1
 6562 114a 67110000 		.4byte	0x1167
 6563 114e 26       		.uleb128 0x26
 6564 114f 9D060000 		.4byte	.LASF41
 6565 1153 01       		.byte	0x1
 6566 1154 1F05     		.2byte	0x51f
 6567 1156 AF0D0000 		.4byte	0xdaf
 6568 115a 28       		.uleb128 0x28
 6569 115b 300C0000 		.4byte	.LASF190
 6570 115f 01       		.byte	0x1
 6571 1160 2105     		.2byte	0x521
 6572 1162 4C050000 		.4byte	0x54c
 6573 1166 00       		.byte	0
 6574 1167 34       		.uleb128 0x34
 6575 1168 E4040000 		.4byte	.LASF241
 6576 116c 01       		.byte	0x1
 6577 116d BE04     		.2byte	0x4be
 6578 116f E5000000 		.4byte	0xe5
 6579 1173 00000000 		.4byte	.LFB30
 6580 1177 88010000 		.4byte	.LFE30-.LFB30
 6581 117b 01       		.uleb128 0x1
 6582 117c 9C       		.byte	0x9c
 6583 117d 4C130000 		.4byte	0x134c
 6584 1181 30       		.uleb128 0x30
 6585 1182 9D060000 		.4byte	.LASF41
 6586 1186 01       		.byte	0x1
 6587 1187 BE04     		.2byte	0x4be
 6588 1189 AF0D0000 		.4byte	0xdaf
 6589 118d 11020000 		.4byte	.LLST0
 6590 1191 35       		.uleb128 0x35
 6591 1192 A90A0000 		.4byte	.LASF233
 6592 1196 01       		.byte	0x1
 6593 1197 BF04     		.2byte	0x4bf
 6594 1199 57050000 		.4byte	0x557
 6595 119d 01       		.uleb128 0x1
 6596 119e 51       		.byte	0x51
 6597 119f 30       		.uleb128 0x30
 6598 11a0 84070000 		.4byte	.LASF27
 6599 11a4 01       		.byte	0x1
 6600 11a5 C004     		.2byte	0x4c0
 6601 11a7 65050000 		.4byte	0x565
 6602 11ab 7D020000 		.4byte	.LLST1
 6603 11af 30       		.uleb128 0x30
 6604 11b0 AF0A0000 		.4byte	.LASF28
 6605 11b4 01       		.byte	0x1
 6606 11b5 C104     		.2byte	0x4c1
 6607 11b7 D5000000 		.4byte	0xd5
 6608 11bb E9020000 		.4byte	.LLST2
 6609 11bf 33       		.uleb128 0x33
 6610 11c0 C00D0000 		.4byte	.LASF234
 6611 11c4 01       		.byte	0x1
 6612 11c5 C304     		.2byte	0x4c3
ARM GAS  /tmp/cc2f1tkm.s 			page 117


 6613 11c7 F5000000 		.4byte	0xf5
 6614 11cb 55030000 		.4byte	.LLST3
 6615 11cf 33       		.uleb128 0x33
 6616 11d0 8D0F0000 		.4byte	.LASF235
 6617 11d4 01       		.byte	0x1
 6618 11d5 D604     		.2byte	0x4d6
 6619 11d7 F5000000 		.4byte	0xf5
 6620 11db D8030000 		.4byte	.LLST4
 6621 11df 33       		.uleb128 0x33
 6622 11e0 300C0000 		.4byte	.LASF190
 6623 11e4 01       		.byte	0x1
 6624 11e5 DA04     		.2byte	0x4da
 6625 11e7 4C050000 		.4byte	0x54c
 6626 11eb 67040000 		.4byte	.LLST5
 6627 11ef 36       		.uleb128 0x36
 6628 11f0 00000000 		.4byte	.Ldebug_ranges0+0
 6629 11f4 07120000 		.4byte	0x1207
 6630 11f8 37       		.uleb128 0x37
 6631 11f9 6900     		.ascii	"i\000"
 6632 11fb 01       		.byte	0x1
 6633 11fc C804     		.2byte	0x4c8
 6634 11fe F5000000 		.4byte	0xf5
 6635 1202 C9040000 		.4byte	.LLST6
 6636 1206 00       		.byte	0
 6637 1207 38       		.uleb128 0x38
 6638 1208 96000000 		.4byte	.LBB201
 6639 120c 6A000000 		.4byte	.LBE201-.LBB201
 6640 1210 8B120000 		.4byte	0x128b
 6641 1214 33       		.uleb128 0x33
 6642 1215 E70F0000 		.4byte	.LASF236
 6643 1219 01       		.byte	0x1
 6644 121a EB04     		.2byte	0x4eb
 6645 121c F5000000 		.4byte	0xf5
 6646 1220 0A050000 		.4byte	.LLST13
 6647 1224 33       		.uleb128 0x33
 6648 1225 A5090000 		.4byte	.LASF237
 6649 1229 01       		.byte	0x1
 6650 122a F504     		.2byte	0x4f5
 6651 122c 00010000 		.4byte	0x100
 6652 1230 1D050000 		.4byte	.LLST14
 6653 1234 39       		.uleb128 0x39
 6654 1235 3D110000 		.4byte	0x113d
 6655 1239 D0000000 		.4byte	.LBB202
 6656 123d 28000000 		.4byte	.LBE202-.LBB202
 6657 1241 01       		.byte	0x1
 6658 1242 FB04     		.2byte	0x4fb
 6659 1244 3A       		.uleb128 0x3a
 6660 1245 4E110000 		.4byte	0x114e
 6661 1249 44050000 		.4byte	.LLST15
 6662 124d 3B       		.uleb128 0x3b
 6663 124e D0000000 		.4byte	.LBB203
 6664 1252 28000000 		.4byte	.LBE203-.LBB203
 6665 1256 3C       		.uleb128 0x3c
 6666 1257 5A110000 		.4byte	0x115a
 6667 125b 39       		.uleb128 0x39
 6668 125c B50D0000 		.4byte	0xdb5
 6669 1260 D0000000 		.4byte	.LBB204
ARM GAS  /tmp/cc2f1tkm.s 			page 118


 6670 1264 22000000 		.4byte	.LBE204-.LBB204
 6671 1268 01       		.byte	0x1
 6672 1269 2105     		.2byte	0x521
 6673 126b 3A       		.uleb128 0x3a
 6674 126c C60D0000 		.4byte	0xdc6
 6675 1270 57050000 		.4byte	.LLST16
 6676 1274 3B       		.uleb128 0x3b
 6677 1275 D0000000 		.4byte	.LBB205
 6678 1279 22000000 		.4byte	.LBE205-.LBB205
 6679 127d 3D       		.uleb128 0x3d
 6680 127e D20D0000 		.4byte	0xdd2
 6681 1282 6A050000 		.4byte	.LLST17
 6682 1286 00       		.byte	0
 6683 1287 00       		.byte	0
 6684 1288 00       		.byte	0
 6685 1289 00       		.byte	0
 6686 128a 00       		.byte	0
 6687 128b 38       		.uleb128 0x38
 6688 128c 00010000 		.4byte	.LBB206
 6689 1290 26000000 		.4byte	.LBE206-.LBB206
 6690 1294 A3120000 		.4byte	0x12a3
 6691 1298 2B       		.uleb128 0x2b
 6692 1299 6900     		.ascii	"i\000"
 6693 129b 01       		.byte	0x1
 6694 129c 0705     		.2byte	0x507
 6695 129e F5000000 		.4byte	0xf5
 6696 12a2 00       		.byte	0
 6697 12a3 3E       		.uleb128 0x3e
 6698 12a4 3D110000 		.4byte	0x113d
 6699 12a8 6A000000 		.4byte	.LBB189
 6700 12ac 22000000 		.4byte	.LBE189-.LBB189
 6701 12b0 01       		.byte	0x1
 6702 12b1 DF04     		.2byte	0x4df
 6703 12b3 FD120000 		.4byte	0x12fd
 6704 12b7 3A       		.uleb128 0x3a
 6705 12b8 4E110000 		.4byte	0x114e
 6706 12bc 7D050000 		.4byte	.LLST7
 6707 12c0 3B       		.uleb128 0x3b
 6708 12c1 6A000000 		.4byte	.LBB190
 6709 12c5 22000000 		.4byte	.LBE190-.LBB190
 6710 12c9 3C       		.uleb128 0x3c
 6711 12ca 5A110000 		.4byte	0x115a
 6712 12ce 39       		.uleb128 0x39
 6713 12cf B50D0000 		.4byte	0xdb5
 6714 12d3 6A000000 		.4byte	.LBB191
 6715 12d7 1E000000 		.4byte	.LBE191-.LBB191
 6716 12db 01       		.byte	0x1
 6717 12dc 2105     		.2byte	0x521
 6718 12de 3A       		.uleb128 0x3a
 6719 12df C60D0000 		.4byte	0xdc6
 6720 12e3 90050000 		.4byte	.LLST8
 6721 12e7 3B       		.uleb128 0x3b
 6722 12e8 6A000000 		.4byte	.LBB192
 6723 12ec 1E000000 		.4byte	.LBE192-.LBB192
 6724 12f0 3D       		.uleb128 0x3d
 6725 12f1 D20D0000 		.4byte	0xdd2
 6726 12f5 A3050000 		.4byte	.LLST9
ARM GAS  /tmp/cc2f1tkm.s 			page 119


 6727 12f9 00       		.byte	0
 6728 12fa 00       		.byte	0
 6729 12fb 00       		.byte	0
 6730 12fc 00       		.byte	0
 6731 12fd 3F       		.uleb128 0x3f
 6732 12fe 3D110000 		.4byte	0x113d
 6733 1302 90000000 		.4byte	.LBB193
 6734 1306 18000000 		.4byte	.Ldebug_ranges0+0x18
 6735 130a 01       		.byte	0x1
 6736 130b 1005     		.2byte	0x510
 6737 130d 3A       		.uleb128 0x3a
 6738 130e 4E110000 		.4byte	0x114e
 6739 1312 B6050000 		.4byte	.LLST10
 6740 1316 32       		.uleb128 0x32
 6741 1317 18000000 		.4byte	.Ldebug_ranges0+0x18
 6742 131b 3C       		.uleb128 0x3c
 6743 131c 5A110000 		.4byte	0x115a
 6744 1320 3F       		.uleb128 0x3f
 6745 1321 B50D0000 		.4byte	0xdb5
 6746 1325 42010000 		.4byte	.LBB195
 6747 1329 38000000 		.4byte	.Ldebug_ranges0+0x38
 6748 132d 01       		.byte	0x1
 6749 132e 2105     		.2byte	0x521
 6750 1330 3A       		.uleb128 0x3a
 6751 1331 C60D0000 		.4byte	0xdc6
 6752 1335 D4050000 		.4byte	.LLST11
 6753 1339 32       		.uleb128 0x32
 6754 133a 38000000 		.4byte	.Ldebug_ranges0+0x38
 6755 133e 3D       		.uleb128 0x3d
 6756 133f D20D0000 		.4byte	0xdd2
 6757 1343 00060000 		.4byte	.LLST12
 6758 1347 00       		.byte	0
 6759 1348 00       		.byte	0
 6760 1349 00       		.byte	0
 6761 134a 00       		.byte	0
 6762 134b 00       		.byte	0
 6763 134c 29       		.uleb128 0x29
 6764 134d 04020000 		.4byte	.LASF238
 6765 1351 01       		.byte	0x1
 6766 1352 AB04     		.2byte	0x4ab
 6767 1354 2B010000 		.4byte	0x12b
 6768 1358 01       		.byte	0x1
 6769 1359 84130000 		.4byte	0x1384
 6770 135d 27       		.uleb128 0x27
 6771 135e 696E7300 		.ascii	"ins\000"
 6772 1362 01       		.byte	0x1
 6773 1363 AB04     		.2byte	0x4ab
 6774 1365 36040000 		.4byte	0x436
 6775 1369 26       		.uleb128 0x26
 6776 136a 8F0B0000 		.4byte	.LASF239
 6777 136e 01       		.byte	0x1
 6778 136f AB04     		.2byte	0x4ab
 6779 1371 57050000 		.4byte	0x557
 6780 1375 2A       		.uleb128 0x2a
 6781 1376 28       		.uleb128 0x28
 6782 1377 C20B0000 		.4byte	.LASF240
 6783 137b 01       		.byte	0x1
ARM GAS  /tmp/cc2f1tkm.s 			page 120


 6784 137c AF04     		.2byte	0x4af
 6785 137e 52050000 		.4byte	0x552
 6786 1382 00       		.byte	0
 6787 1383 00       		.byte	0
 6788 1384 34       		.uleb128 0x34
 6789 1385 3B050000 		.4byte	.LASF242
 6790 1389 01       		.byte	0x1
 6791 138a 9904     		.2byte	0x499
 6792 138c 57050000 		.4byte	0x557
 6793 1390 00000000 		.4byte	.LFB28
 6794 1394 48000000 		.4byte	.LFE28-.LFB28
 6795 1398 01       		.uleb128 0x1
 6796 1399 9C       		.byte	0x9c
 6797 139a 22140000 		.4byte	0x1422
 6798 139e 30       		.uleb128 0x30
 6799 139f 9D060000 		.4byte	.LASF41
 6800 13a3 01       		.byte	0x1
 6801 13a4 9904     		.2byte	0x499
 6802 13a6 AF0D0000 		.4byte	0xdaf
 6803 13aa 13060000 		.4byte	.LLST32
 6804 13ae 30       		.uleb128 0x30
 6805 13af 860A0000 		.4byte	.LASF243
 6806 13b3 01       		.byte	0x1
 6807 13b4 9904     		.2byte	0x499
 6808 13b6 10010000 		.4byte	0x110
 6809 13ba 3F060000 		.4byte	.LLST33
 6810 13be 31       		.uleb128 0x31
 6811 13bf F60C0000 		.4byte	.LASF244
 6812 13c3 01       		.byte	0x1
 6813 13c4 9B04     		.2byte	0x49b
 6814 13c6 FD020000 		.4byte	0x2fd
 6815 13ca 02       		.uleb128 0x2
 6816 13cb 91       		.byte	0x91
 6817 13cc 50       		.sleb128 -48
 6818 13cd 28       		.uleb128 0x28
 6819 13ce A90A0000 		.4byte	.LASF233
 6820 13d2 01       		.byte	0x1
 6821 13d3 A104     		.2byte	0x4a1
 6822 13d5 57050000 		.4byte	0x557
 6823 13d9 40       		.uleb128 0x40
 6824 13da B50D0000 		.4byte	0xdb5
 6825 13de 12000000 		.4byte	.LBB217
 6826 13e2 88000000 		.4byte	.Ldebug_ranges0+0x88
 6827 13e6 01       		.byte	0x1
 6828 13e7 A104     		.2byte	0x4a1
 6829 13e9 06140000 		.4byte	0x1406
 6830 13ed 3A       		.uleb128 0x3a
 6831 13ee C60D0000 		.4byte	0xdc6
 6832 13f2 5D060000 		.4byte	.LLST34
 6833 13f6 32       		.uleb128 0x32
 6834 13f7 88000000 		.4byte	.Ldebug_ranges0+0x88
 6835 13fb 3D       		.uleb128 0x3d
 6836 13fc D20D0000 		.4byte	0xdd2
 6837 1400 70060000 		.4byte	.LLST35
 6838 1404 00       		.byte	0
 6839 1405 00       		.byte	0
 6840 1406 41       		.uleb128 0x41
ARM GAS  /tmp/cc2f1tkm.s 			page 121


 6841 1407 12000000 		.4byte	.LVL75
 6842 140b 1F2F0000 		.4byte	0x2f1f
 6843 140f 42       		.uleb128 0x42
 6844 1410 01       		.uleb128 0x1
 6845 1411 50       		.byte	0x50
 6846 1412 02       		.uleb128 0x2
 6847 1413 7D       		.byte	0x7d
 6848 1414 00       		.sleb128 0
 6849 1415 42       		.uleb128 0x42
 6850 1416 01       		.uleb128 0x1
 6851 1417 51       		.byte	0x51
 6852 1418 01       		.uleb128 0x1
 6853 1419 30       		.byte	0x30
 6854 141a 42       		.uleb128 0x42
 6855 141b 01       		.uleb128 0x1
 6856 141c 52       		.byte	0x52
 6857 141d 02       		.uleb128 0x2
 6858 141e 08       		.byte	0x8
 6859 141f 20       		.byte	0x20
 6860 1420 00       		.byte	0
 6861 1421 00       		.byte	0
 6862 1422 29       		.uleb128 0x29
 6863 1423 2D010000 		.4byte	.LASF245
 6864 1427 01       		.byte	0x1
 6865 1428 8B04     		.2byte	0x48b
 6866 142a 57050000 		.4byte	0x557
 6867 142e 01       		.byte	0x1
 6868 142f 58140000 		.4byte	0x1458
 6869 1433 27       		.uleb128 0x27
 6870 1434 696E7300 		.ascii	"ins\000"
 6871 1438 01       		.byte	0x1
 6872 1439 8B04     		.2byte	0x48b
 6873 143b 36040000 		.4byte	0x436
 6874 143f 26       		.uleb128 0x26
 6875 1440 860A0000 		.4byte	.LASF243
 6876 1444 01       		.byte	0x1
 6877 1445 8B04     		.2byte	0x48b
 6878 1447 10010000 		.4byte	0x110
 6879 144b 28       		.uleb128 0x28
 6880 144c A90A0000 		.4byte	.LASF233
 6881 1450 01       		.byte	0x1
 6882 1451 8D04     		.2byte	0x48d
 6883 1453 57050000 		.4byte	0x557
 6884 1457 00       		.byte	0
 6885 1458 29       		.uleb128 0x29
 6886 1459 1E090000 		.4byte	.LASF246
 6887 145d 01       		.byte	0x1
 6888 145e 7B04     		.2byte	0x47b
 6889 1460 57050000 		.4byte	0x557
 6890 1464 01       		.byte	0x1
 6891 1465 82140000 		.4byte	0x1482
 6892 1469 26       		.uleb128 0x26
 6893 146a A90A0000 		.4byte	.LASF233
 6894 146e 01       		.byte	0x1
 6895 146f 7B04     		.2byte	0x47b
 6896 1471 57050000 		.4byte	0x557
 6897 1475 26       		.uleb128 0x26
ARM GAS  /tmp/cc2f1tkm.s 			page 122


 6898 1476 860A0000 		.4byte	.LASF243
 6899 147a 01       		.byte	0x1
 6900 147b 7B04     		.2byte	0x47b
 6901 147d 10010000 		.4byte	0x110
 6902 1481 00       		.byte	0
 6903 1482 29       		.uleb128 0x29
 6904 1483 360C0000 		.4byte	.LASF247
 6905 1487 01       		.byte	0x1
 6906 1488 5C04     		.2byte	0x45c
 6907 148a 57050000 		.4byte	0x557
 6908 148e 01       		.byte	0x1
 6909 148f B8140000 		.4byte	0x14b8
 6910 1493 27       		.uleb128 0x27
 6911 1494 696E7300 		.ascii	"ins\000"
 6912 1498 01       		.byte	0x1
 6913 1499 5C04     		.2byte	0x45c
 6914 149b 36040000 		.4byte	0x436
 6915 149f 26       		.uleb128 0x26
 6916 14a0 860A0000 		.4byte	.LASF243
 6917 14a4 01       		.byte	0x1
 6918 14a5 5C04     		.2byte	0x45c
 6919 14a7 10010000 		.4byte	0x110
 6920 14ab 28       		.uleb128 0x28
 6921 14ac 25070000 		.4byte	.LASF248
 6922 14b0 01       		.byte	0x1
 6923 14b1 5E04     		.2byte	0x45e
 6924 14b3 57050000 		.4byte	0x557
 6925 14b7 00       		.byte	0
 6926 14b8 29       		.uleb128 0x29
 6927 14b9 BA060000 		.4byte	.LASF249
 6928 14bd 01       		.byte	0x1
 6929 14be 4304     		.2byte	0x443
 6930 14c0 B2010000 		.4byte	0x1b2
 6931 14c4 01       		.byte	0x1
 6932 14c5 E1140000 		.4byte	0x14e1
 6933 14c9 27       		.uleb128 0x27
 6934 14ca 696400   		.ascii	"id\000"
 6935 14cd 01       		.byte	0x1
 6936 14ce 4304     		.2byte	0x443
 6937 14d0 10010000 		.4byte	0x110
 6938 14d4 28       		.uleb128 0x28
 6939 14d5 BD040000 		.4byte	.LASF250
 6940 14d9 01       		.byte	0x1
 6941 14da 4504     		.2byte	0x445
 6942 14dc 04040000 		.4byte	0x404
 6943 14e0 00       		.byte	0
 6944 14e1 29       		.uleb128 0x29
 6945 14e2 2B050000 		.4byte	.LASF251
 6946 14e6 01       		.byte	0x1
 6947 14e7 2F04     		.2byte	0x42f
 6948 14e9 F5000000 		.4byte	0xf5
 6949 14ed 01       		.byte	0x1
 6950 14ee 0C150000 		.4byte	0x150c
 6951 14f2 27       		.uleb128 0x27
 6952 14f3 696400   		.ascii	"id\000"
 6953 14f6 01       		.byte	0x1
 6954 14f7 2F04     		.2byte	0x42f
ARM GAS  /tmp/cc2f1tkm.s 			page 123


 6955 14f9 10010000 		.4byte	0x110
 6956 14fd 2A       		.uleb128 0x2a
 6957 14fe 28       		.uleb128 0x28
 6958 14ff CF040000 		.4byte	.LASF252
 6959 1503 01       		.byte	0x1
 6960 1504 3304     		.2byte	0x433
 6961 1506 F5000000 		.4byte	0xf5
 6962 150a 00       		.byte	0
 6963 150b 00       		.byte	0
 6964 150c 25       		.uleb128 0x25
 6965 150d 99050000 		.4byte	.LASF253
 6966 1511 01       		.byte	0x1
 6967 1512 2404     		.2byte	0x424
 6968 1514 01       		.byte	0x1
 6969 1515 26150000 		.4byte	0x1526
 6970 1519 26       		.uleb128 0x26
 6971 151a A90A0000 		.4byte	.LASF233
 6972 151e 01       		.byte	0x1
 6973 151f 2404     		.2byte	0x424
 6974 1521 57050000 		.4byte	0x557
 6975 1525 00       		.byte	0
 6976 1526 29       		.uleb128 0x29
 6977 1527 7B0E0000 		.4byte	.LASF254
 6978 152b 01       		.byte	0x1
 6979 152c F903     		.2byte	0x3f9
 6980 152e FD030000 		.4byte	0x3fd
 6981 1532 01       		.byte	0x1
 6982 1533 B1150000 		.4byte	0x15b1
 6983 1537 27       		.uleb128 0x27
 6984 1538 72687300 		.ascii	"rhs\000"
 6985 153c 01       		.byte	0x1
 6986 153d F903     		.2byte	0x3f9
 6987 153f 10010000 		.4byte	0x110
 6988 1543 27       		.uleb128 0x27
 6989 1544 696400   		.ascii	"id\000"
 6990 1547 01       		.byte	0x1
 6991 1548 F903     		.2byte	0x3f9
 6992 154a 10010000 		.4byte	0x110
 6993 154e 28       		.uleb128 0x28
 6994 154f C9000000 		.4byte	.LASF255
 6995 1553 01       		.byte	0x1
 6996 1554 FB03     		.2byte	0x3fb
 6997 1556 1B010000 		.4byte	0x11b
 6998 155a 28       		.uleb128 0x28
 6999 155b 09050000 		.4byte	.LASF256
 7000 155f 01       		.byte	0x1
 7001 1560 FC03     		.2byte	0x3fc
 7002 1562 1B010000 		.4byte	0x11b
 7003 1566 2B       		.uleb128 0x2b
 7004 1567 65787400 		.ascii	"ext\000"
 7005 156b 01       		.byte	0x1
 7006 156c 0104     		.2byte	0x401
 7007 156e 04040000 		.4byte	0x404
 7008 1572 28       		.uleb128 0x28
 7009 1573 530B0000 		.4byte	.LASF257
 7010 1577 01       		.byte	0x1
 7011 1578 0204     		.2byte	0x402
ARM GAS  /tmp/cc2f1tkm.s 			page 124


 7012 157a 04040000 		.4byte	0x404
 7013 157e 2B       		.uleb128 0x2b
 7014 157f 72747200 		.ascii	"rtr\000"
 7015 1583 01       		.byte	0x1
 7016 1584 1404     		.2byte	0x414
 7017 1586 04040000 		.4byte	0x404
 7018 158a 28       		.uleb128 0x28
 7019 158b B80A0000 		.4byte	.LASF258
 7020 158f 01       		.byte	0x1
 7021 1590 1504     		.2byte	0x415
 7022 1592 04040000 		.4byte	0x404
 7023 1596 2A       		.uleb128 0x2a
 7024 1597 28       		.uleb128 0x28
 7025 1598 84010000 		.4byte	.LASF259
 7026 159c 01       		.byte	0x1
 7027 159d 0504     		.2byte	0x405
 7028 159f 10010000 		.4byte	0x110
 7029 15a3 28       		.uleb128 0x28
 7030 15a4 30030000 		.4byte	.LASF260
 7031 15a8 01       		.byte	0x1
 7032 15a9 0604     		.2byte	0x406
 7033 15ab 10010000 		.4byte	0x110
 7034 15af 00       		.byte	0
 7035 15b0 00       		.byte	0
 7036 15b1 34       		.uleb128 0x34
 7037 15b2 1E050000 		.4byte	.LASF261
 7038 15b6 01       		.byte	0x1
 7039 15b7 EB03     		.2byte	0x3eb
 7040 15b9 5D050000 		.4byte	0x55d
 7041 15bd 00000000 		.4byte	.LFB20
 7042 15c1 32000000 		.4byte	.LFE20-.LFB20
 7043 15c5 01       		.uleb128 0x1
 7044 15c6 9C       		.byte	0x9c
 7045 15c7 11160000 		.4byte	0x1611
 7046 15cb 30       		.uleb128 0x30
 7047 15cc 9D060000 		.4byte	.LASF41
 7048 15d0 01       		.byte	0x1
 7049 15d1 EB03     		.2byte	0x3eb
 7050 15d3 AF0D0000 		.4byte	0xdaf
 7051 15d7 83060000 		.4byte	.LLST29
 7052 15db 28       		.uleb128 0x28
 7053 15dc F40E0000 		.4byte	.LASF262
 7054 15e0 01       		.byte	0x1
 7055 15e1 ED03     		.2byte	0x3ed
 7056 15e3 5D050000 		.4byte	0x55d
 7057 15e7 3F       		.uleb128 0x3f
 7058 15e8 B50D0000 		.4byte	0xdb5
 7059 15ec 00000000 		.4byte	.LBB211
 7060 15f0 68000000 		.4byte	.Ldebug_ranges0+0x68
 7061 15f4 01       		.byte	0x1
 7062 15f5 ED03     		.2byte	0x3ed
 7063 15f7 3A       		.uleb128 0x3a
 7064 15f8 C60D0000 		.4byte	0xdc6
 7065 15fc BD060000 		.4byte	.LLST30
 7066 1600 32       		.uleb128 0x32
 7067 1601 68000000 		.4byte	.Ldebug_ranges0+0x68
 7068 1605 3D       		.uleb128 0x3d
ARM GAS  /tmp/cc2f1tkm.s 			page 125


 7069 1606 D20D0000 		.4byte	0xdd2
 7070 160a E9060000 		.4byte	.LLST31
 7071 160e 00       		.byte	0
 7072 160f 00       		.byte	0
 7073 1610 00       		.byte	0
 7074 1611 25       		.uleb128 0x25
 7075 1612 D4080000 		.4byte	.LASF263
 7076 1616 01       		.byte	0x1
 7077 1617 BA03     		.2byte	0x3ba
 7078 1619 01       		.byte	0x1
 7079 161a 4F160000 		.4byte	0x164f
 7080 161e 27       		.uleb128 0x27
 7081 161f 696E7300 		.ascii	"ins\000"
 7082 1623 01       		.byte	0x1
 7083 1624 BA03     		.2byte	0x3ba
 7084 1626 36040000 		.4byte	0x436
 7085 162a 26       		.uleb128 0x26
 7086 162b F40E0000 		.4byte	.LASF262
 7087 162f 01       		.byte	0x1
 7088 1630 BA03     		.2byte	0x3ba
 7089 1632 5D050000 		.4byte	0x55d
 7090 1636 28       		.uleb128 0x28
 7091 1637 640D0000 		.4byte	.LASF264
 7092 163b 01       		.byte	0x1
 7093 163c C503     		.2byte	0x3c5
 7094 163e 5D050000 		.4byte	0x55d
 7095 1642 28       		.uleb128 0x28
 7096 1643 B8000000 		.4byte	.LASF265
 7097 1647 01       		.byte	0x1
 7098 1648 C603     		.2byte	0x3c6
 7099 164a 5D050000 		.4byte	0x55d
 7100 164e 00       		.byte	0
 7101 164f 29       		.uleb128 0x29
 7102 1650 CC010000 		.4byte	.LASF266
 7103 1654 01       		.byte	0x1
 7104 1655 5E03     		.2byte	0x35e
 7105 1657 E5000000 		.4byte	0xe5
 7106 165b 01       		.byte	0x1
 7107 165c 05170000 		.4byte	0x1705
 7108 1660 27       		.uleb128 0x27
 7109 1661 696E7300 		.ascii	"ins\000"
 7110 1665 01       		.byte	0x1
 7111 1666 5E03     		.2byte	0x35e
 7112 1668 36040000 		.4byte	0x436
 7113 166c 26       		.uleb128 0x26
 7114 166d B00C0000 		.4byte	.LASF267
 7115 1671 01       		.byte	0x1
 7116 1672 5F03     		.2byte	0x35f
 7117 1674 10010000 		.4byte	0x110
 7118 1678 26       		.uleb128 0x26
 7119 1679 0B0A0000 		.4byte	.LASF53
 7120 167d 01       		.byte	0x1
 7121 167e 6003     		.2byte	0x360
 7122 1680 290F0000 		.4byte	0xf29
 7123 1684 27       		.uleb128 0x27
 7124 1685 63726300 		.ascii	"crc\000"
 7125 1689 01       		.byte	0x1
ARM GAS  /tmp/cc2f1tkm.s 			page 126


 7126 168a 6103     		.2byte	0x361
 7127 168c F5000000 		.4byte	0xf5
 7128 1690 26       		.uleb128 0x26
 7129 1691 F6050000 		.4byte	.LASF268
 7130 1695 01       		.byte	0x1
 7131 1696 6203     		.2byte	0x362
 7132 1698 65050000 		.4byte	0x565
 7133 169c 26       		.uleb128 0x26
 7134 169d 06080000 		.4byte	.LASF50
 7135 16a1 01       		.byte	0x1
 7136 16a2 6303     		.2byte	0x363
 7137 16a4 F5000000 		.4byte	0xf5
 7138 16a8 28       		.uleb128 0x28
 7139 16a9 6E040000 		.4byte	.LASF191
 7140 16ad 01       		.byte	0x1
 7141 16ae 7203     		.2byte	0x372
 7142 16b0 E5000000 		.4byte	0xe5
 7143 16b4 2D       		.uleb128 0x2d
 7144 16b5 C6160000 		.4byte	0x16c6
 7145 16b9 28       		.uleb128 0x28
 7146 16ba 790F0000 		.4byte	.LASF269
 7147 16be 01       		.byte	0x1
 7148 16bf 7603     		.2byte	0x376
 7149 16c1 5D050000 		.4byte	0x55d
 7150 16c5 00       		.byte	0
 7151 16c6 2A       		.uleb128 0x2a
 7152 16c7 28       		.uleb128 0x28
 7153 16c8 C00D0000 		.4byte	.LASF234
 7154 16cc 01       		.byte	0x1
 7155 16cd 8703     		.2byte	0x387
 7156 16cf F5000000 		.4byte	0xf5
 7157 16d3 28       		.uleb128 0x28
 7158 16d4 2A090000 		.4byte	.LASF270
 7159 16d8 01       		.byte	0x1
 7160 16d9 8803     		.2byte	0x388
 7161 16db D5000000 		.4byte	0xd5
 7162 16df 28       		.uleb128 0x28
 7163 16e0 A10A0000 		.4byte	.LASF271
 7164 16e4 01       		.byte	0x1
 7165 16e5 8903     		.2byte	0x389
 7166 16e7 D5000000 		.4byte	0xd5
 7167 16eb 28       		.uleb128 0x28
 7168 16ec 790F0000 		.4byte	.LASF269
 7169 16f0 01       		.byte	0x1
 7170 16f1 8B03     		.2byte	0x38b
 7171 16f3 5D050000 		.4byte	0x55d
 7172 16f7 2A       		.uleb128 0x2a
 7173 16f8 2B       		.uleb128 0x2b
 7174 16f9 6900     		.ascii	"i\000"
 7175 16fb 01       		.byte	0x1
 7176 16fc 9503     		.2byte	0x395
 7177 16fe D5000000 		.4byte	0xd5
 7178 1702 00       		.byte	0
 7179 1703 00       		.byte	0
 7180 1704 00       		.byte	0
 7181 1705 25       		.uleb128 0x25
 7182 1706 DE000000 		.4byte	.LASF272
ARM GAS  /tmp/cc2f1tkm.s 			page 127


 7183 170a 01       		.byte	0x1
 7184 170b 5303     		.2byte	0x353
 7185 170d 01       		.byte	0x1
 7186 170e 1F170000 		.4byte	0x171f
 7187 1712 26       		.uleb128 0x26
 7188 1713 0B0A0000 		.4byte	.LASF53
 7189 1717 01       		.byte	0x1
 7190 1718 5303     		.2byte	0x353
 7191 171a 290F0000 		.4byte	0xf29
 7192 171e 00       		.byte	0
 7193 171f 29       		.uleb128 0x29
 7194 1720 E1060000 		.4byte	.LASF273
 7195 1724 01       		.byte	0x1
 7196 1725 4903     		.2byte	0x349
 7197 1727 E5000000 		.4byte	0xe5
 7198 172b 01       		.byte	0x1
 7199 172c 4F170000 		.4byte	0x174f
 7200 1730 27       		.uleb128 0x27
 7201 1731 6100     		.ascii	"a\000"
 7202 1733 01       		.byte	0x1
 7203 1734 4903     		.2byte	0x349
 7204 1736 D5000000 		.4byte	0xd5
 7205 173a 27       		.uleb128 0x27
 7206 173b 6200     		.ascii	"b\000"
 7207 173d 01       		.byte	0x1
 7208 173e 4903     		.2byte	0x349
 7209 1740 D5000000 		.4byte	0xd5
 7210 1744 2B       		.uleb128 0x2b
 7211 1745 6400     		.ascii	"d\000"
 7212 1747 01       		.byte	0x1
 7213 1748 4B03     		.2byte	0x34b
 7214 174a E5000000 		.4byte	0xe5
 7215 174e 00       		.byte	0
 7216 174f 43       		.uleb128 0x43
 7217 1750 010E0000 		.4byte	.LASF279
 7218 1754 01       		.byte	0x1
 7219 1755 2D03     		.2byte	0x32d
 7220 1757 3A000000 		.4byte	0x3a
 7221 175b 00000000 		.4byte	.LFB15
 7222 175f 44000000 		.4byte	.LFE15-.LFB15
 7223 1763 01       		.uleb128 0x1
 7224 1764 9C       		.byte	0x9c
 7225 1765 D1170000 		.4byte	0x17d1
 7226 1769 30       		.uleb128 0x30
 7227 176a 50050000 		.4byte	.LASF274
 7228 176e 01       		.byte	0x1
 7229 176f 2D03     		.2byte	0x32d
 7230 1771 F5000000 		.4byte	0xf5
 7231 1775 FC060000 		.4byte	.LLST269
 7232 1779 44       		.uleb128 0x44
 7233 177a 0E010000 		.4byte	.LASF276
 7234 177e 04       		.byte	0x4
 7235 177f 01       		.byte	0x1
 7236 1780 3103     		.2byte	0x331
 7237 1782 9B170000 		.4byte	0x179b
 7238 1786 2C       		.uleb128 0x2c
 7239 1787 7500     		.ascii	"u\000"
ARM GAS  /tmp/cc2f1tkm.s 			page 128


 7240 1789 01       		.byte	0x1
 7241 178a 3303     		.2byte	0x333
 7242 178c 10010000 		.4byte	0x110
 7243 1790 2C       		.uleb128 0x2c
 7244 1791 6600     		.ascii	"f\000"
 7245 1793 01       		.byte	0x1
 7246 1794 3403     		.2byte	0x334
 7247 1796 3A000000 		.4byte	0x3a
 7248 179a 00       		.byte	0
 7249 179b 05       		.uleb128 0x5
 7250 179c 79170000 		.4byte	0x1779
 7251 17a0 33       		.uleb128 0x33
 7252 17a1 C90C0000 		.4byte	.LASF277
 7253 17a5 01       		.byte	0x1
 7254 17a6 3703     		.2byte	0x337
 7255 17a8 9B170000 		.4byte	0x179b
 7256 17ac 1D070000 		.4byte	.LLST270
 7257 17b0 33       		.uleb128 0x33
 7258 17b1 1D030000 		.4byte	.LASF278
 7259 17b5 01       		.byte	0x1
 7260 17b6 3803     		.2byte	0x338
 7261 17b8 9B170000 		.4byte	0x179b
 7262 17bc 37070000 		.4byte	.LLST271
 7263 17c0 37       		.uleb128 0x37
 7264 17c1 6F757400 		.ascii	"out\000"
 7265 17c5 01       		.byte	0x1
 7266 17c6 3903     		.2byte	0x339
 7267 17c8 79170000 		.4byte	0x1779
 7268 17cc 51070000 		.4byte	.LLST272
 7269 17d0 00       		.byte	0
 7270 17d1 43       		.uleb128 0x43
 7271 17d2 62010000 		.4byte	.LASF280
 7272 17d6 01       		.byte	0x1
 7273 17d7 0103     		.2byte	0x301
 7274 17d9 F5000000 		.4byte	0xf5
 7275 17dd 00000000 		.4byte	.LFB14
 7276 17e1 5C000000 		.4byte	.LFE14-.LFB14
 7277 17e5 01       		.uleb128 0x1
 7278 17e6 9C       		.byte	0x9c
 7279 17e7 A6180000 		.4byte	0x18a6
 7280 17eb 35       		.uleb128 0x35
 7281 17ec 50050000 		.4byte	.LASF274
 7282 17f0 01       		.byte	0x1
 7283 17f1 0103     		.2byte	0x301
 7284 17f3 3A000000 		.4byte	0x3a
 7285 17f7 02       		.uleb128 0x2
 7286 17f8 90       		.byte	0x90
 7287 17f9 40       		.uleb128 0x40
 7288 17fa 44       		.uleb128 0x44
 7289 17fb 0E010000 		.4byte	.LASF276
 7290 17ff 04       		.byte	0x4
 7291 1800 01       		.byte	0x1
 7292 1801 0503     		.2byte	0x305
 7293 1803 1C180000 		.4byte	0x181c
 7294 1807 2C       		.uleb128 0x2c
 7295 1808 7500     		.ascii	"u\000"
 7296 180a 01       		.byte	0x1
ARM GAS  /tmp/cc2f1tkm.s 			page 129


 7297 180b 0703     		.2byte	0x307
 7298 180d 10010000 		.4byte	0x110
 7299 1811 2C       		.uleb128 0x2c
 7300 1812 6600     		.ascii	"f\000"
 7301 1814 01       		.byte	0x1
 7302 1815 0803     		.2byte	0x308
 7303 1817 3A000000 		.4byte	0x3a
 7304 181b 00       		.byte	0
 7305 181c 05       		.uleb128 0x5
 7306 181d FA170000 		.4byte	0x17fa
 7307 1821 33       		.uleb128 0x33
 7308 1822 49050000 		.4byte	.LASF281
 7309 1826 01       		.byte	0x1
 7310 1827 0B03     		.2byte	0x30b
 7311 1829 1C180000 		.4byte	0x181c
 7312 182d 80070000 		.4byte	.LLST264
 7313 1831 33       		.uleb128 0x33
 7314 1832 56050000 		.4byte	.LASF282
 7315 1836 01       		.byte	0x1
 7316 1837 0C03     		.2byte	0x30c
 7317 1839 1C180000 		.4byte	0x181c
 7318 183d AA070000 		.4byte	.LLST265
 7319 1841 33       		.uleb128 0x33
 7320 1842 C90C0000 		.4byte	.LASF277
 7321 1846 01       		.byte	0x1
 7322 1847 0D03     		.2byte	0x30d
 7323 1849 1C180000 		.4byte	0x181c
 7324 184d D2070000 		.4byte	.LLST266
 7325 1851 45       		.uleb128 0x45
 7326 1852 13010000 		.4byte	.LASF283
 7327 1856 01       		.byte	0x1
 7328 1857 0E03     		.2byte	0x30e
 7329 1859 1B010000 		.4byte	0x11b
 7330 185d 80808080 		.sleb128 -2147483648
 7330      78
 7331 1862 45       		.uleb128 0x45
 7332 1863 24060000 		.4byte	.LASF284
 7333 1867 01       		.byte	0x1
 7334 1868 0F03     		.2byte	0x30f
 7335 186a 1B010000 		.4byte	0x11b
 7336 186e 8060     		.sleb128 -4096
 7337 1870 37       		.uleb128 0x37
 7338 1871 696E00   		.ascii	"in\000"
 7339 1874 01       		.byte	0x1
 7340 1875 1103     		.2byte	0x311
 7341 1877 FA170000 		.4byte	0x17fa
 7342 187b FE070000 		.4byte	.LLST267
 7343 187f 31       		.uleb128 0x31
 7344 1880 DF050000 		.4byte	.LASF285
 7345 1884 01       		.byte	0x1
 7346 1885 1303     		.2byte	0x313
 7347 1887 10010000 		.4byte	0x110
 7348 188b 09       		.uleb128 0x9
 7349 188c 92       		.byte	0x92
 7350 188d 40       		.uleb128 0x40
 7351 188e 00       		.sleb128 0
 7352 188f 40       		.byte	0x40
ARM GAS  /tmp/cc2f1tkm.s 			page 130


 7353 1890 4B       		.byte	0x4b
 7354 1891 24       		.byte	0x24
 7355 1892 1F       		.byte	0x1f
 7356 1893 1A       		.byte	0x1a
 7357 1894 9F       		.byte	0x9f
 7358 1895 37       		.uleb128 0x37
 7359 1896 6F757400 		.ascii	"out\000"
 7360 189a 01       		.byte	0x1
 7361 189b 1603     		.2byte	0x316
 7362 189d F5000000 		.4byte	0xf5
 7363 18a1 4E080000 		.4byte	.LLST268
 7364 18a5 00       		.byte	0
 7365 18a6 43       		.uleb128 0x43
 7366 18a7 BB100000 		.4byte	.LASF286
 7367 18ab 01       		.byte	0x1
 7368 18ac FC02     		.2byte	0x2fc
 7369 18ae BF040000 		.4byte	0x4bf
 7370 18b2 00000000 		.4byte	.LFB13
 7371 18b6 0E000000 		.4byte	.LFE13-.LFB13
 7372 18ba 01       		.uleb128 0x1
 7373 18bb 9C       		.byte	0x9c
 7374 18bc CF180000 		.4byte	0x18cf
 7375 18c0 46       		.uleb128 0x46
 7376 18c1 696E7300 		.ascii	"ins\000"
 7377 18c5 01       		.byte	0x1
 7378 18c6 FC02     		.2byte	0x2fc
 7379 18c8 36040000 		.4byte	0x436
 7380 18cc 01       		.uleb128 0x1
 7381 18cd 51       		.byte	0x51
 7382 18ce 00       		.byte	0
 7383 18cf 47       		.uleb128 0x47
 7384 18d0 2F060000 		.4byte	.LASF335
 7385 18d4 01       		.byte	0x1
 7386 18d5 ED02     		.2byte	0x2ed
 7387 18d7 01       		.byte	0x1
 7388 18d8 03190000 		.4byte	0x1903
 7389 18dc 27       		.uleb128 0x27
 7390 18dd 696E7300 		.ascii	"ins\000"
 7391 18e1 01       		.byte	0x1
 7392 18e2 ED02     		.2byte	0x2ed
 7393 18e4 36040000 		.4byte	0x436
 7394 18e8 26       		.uleb128 0x26
 7395 18e9 32020000 		.4byte	.LASF209
 7396 18ed 01       		.byte	0x1
 7397 18ee ED02     		.2byte	0x2ed
 7398 18f0 3C040000 		.4byte	0x43c
 7399 18f4 2A       		.uleb128 0x2a
 7400 18f5 28       		.uleb128 0x28
 7401 18f6 C20B0000 		.4byte	.LASF240
 7402 18fa 01       		.byte	0x1
 7403 18fb F102     		.2byte	0x2f1
 7404 18fd 52050000 		.4byte	0x552
 7405 1901 00       		.byte	0
 7406 1902 00       		.byte	0
 7407 1903 48       		.uleb128 0x48
 7408 1904 A60D0000 		.4byte	.LASF294
 7409 1908 01       		.byte	0x1
ARM GAS  /tmp/cc2f1tkm.s 			page 131


 7410 1909 9E02     		.2byte	0x29e
 7411 190b 00000000 		.4byte	.LFB11
 7412 190f 96000000 		.4byte	.LFE11-.LFB11
 7413 1913 01       		.uleb128 0x1
 7414 1914 9C       		.byte	0x9c
 7415 1915 ED190000 		.4byte	0x19ed
 7416 1919 30       		.uleb128 0x30
 7417 191a EA090000 		.4byte	.LASF287
 7418 191e 01       		.byte	0x1
 7419 191f 9E02     		.2byte	0x29e
 7420 1921 63050000 		.4byte	0x563
 7421 1925 9C080000 		.4byte	.LLST254
 7422 1929 30       		.uleb128 0x30
 7423 192a 170A0000 		.4byte	.LASF210
 7424 192e 01       		.byte	0x1
 7425 192f 9F02     		.2byte	0x29f
 7426 1931 10010000 		.4byte	0x110
 7427 1935 D0080000 		.4byte	.LLST255
 7428 1939 30       		.uleb128 0x30
 7429 193a F10F0000 		.4byte	.LASF211
 7430 193e 01       		.byte	0x1
 7431 193f A002     		.2byte	0x2a0
 7432 1941 D5000000 		.4byte	0xd5
 7433 1945 08090000 		.4byte	.LLST256
 7434 1949 30       		.uleb128 0x30
 7435 194a 50050000 		.4byte	.LASF274
 7436 194e 01       		.byte	0x1
 7437 194f A102     		.2byte	0x2a1
 7438 1951 ED190000 		.4byte	0x19ed
 7439 1955 4B090000 		.4byte	.LLST257
 7440 1959 22       		.uleb128 0x22
 7441 195a 08       		.byte	0x8
 7442 195b 01       		.byte	0x1
 7443 195c BA02     		.2byte	0x2ba
 7444 195e AA190000 		.4byte	0x19aa
 7445 1962 23       		.uleb128 0x23
 7446 1963 D9070000 		.4byte	.LASF288
 7447 1967 01       		.byte	0x1
 7448 1968 BC02     		.2byte	0x2bc
 7449 196a FD030000 		.4byte	0x3fd
 7450 196e 2C       		.uleb128 0x2c
 7451 196f 753800   		.ascii	"u8\000"
 7452 1972 01       		.byte	0x1
 7453 1973 BD02     		.2byte	0x2bd
 7454 1975 D5000000 		.4byte	0xd5
 7455 1979 2C       		.uleb128 0x2c
 7456 197a 75313600 		.ascii	"u16\000"
 7457 197e 01       		.byte	0x1
 7458 197f BE02     		.2byte	0x2be
 7459 1981 F5000000 		.4byte	0xf5
 7460 1985 2C       		.uleb128 0x2c
 7461 1986 75333200 		.ascii	"u32\000"
 7462 198a 01       		.byte	0x1
 7463 198b BF02     		.2byte	0x2bf
 7464 198d 10010000 		.4byte	0x110
 7465 1991 2C       		.uleb128 0x2c
 7466 1992 75363400 		.ascii	"u64\000"
ARM GAS  /tmp/cc2f1tkm.s 			page 132


 7467 1996 01       		.byte	0x1
 7468 1997 C002     		.2byte	0x2c0
 7469 1999 2B010000 		.4byte	0x12b
 7470 199d 23       		.uleb128 0x23
 7471 199e 81060000 		.4byte	.LASF69
 7472 19a2 01       		.byte	0x1
 7473 19a3 C102     		.2byte	0x2c1
 7474 19a5 72010000 		.4byte	0x172
 7475 19a9 00       		.byte	0
 7476 19aa 31       		.uleb128 0x31
 7477 19ab 6D070000 		.4byte	.LASF289
 7478 19af 01       		.byte	0x1
 7479 19b0 C202     		.2byte	0x2c2
 7480 19b2 59190000 		.4byte	0x1959
 7481 19b6 02       		.uleb128 0x2
 7482 19b7 91       		.byte	0x91
 7483 19b8 58       		.sleb128 -40
 7484 19b9 33       		.uleb128 0x33
 7485 19ba 89070000 		.4byte	.LASF290
 7486 19be 01       		.byte	0x1
 7487 19bf C602     		.2byte	0x2c6
 7488 19c1 D5000000 		.4byte	0xd5
 7489 19c5 D0090000 		.4byte	.LLST258
 7490 19c9 41       		.uleb128 0x41
 7491 19ca 24000000 		.4byte	.LVL483
 7492 19ce 62100000 		.4byte	0x1062
 7493 19d2 42       		.uleb128 0x42
 7494 19d3 01       		.uleb128 0x1
 7495 19d4 51       		.byte	0x51
 7496 19d5 01       		.uleb128 0x1
 7497 19d6 30       		.byte	0x30
 7498 19d7 42       		.uleb128 0x42
 7499 19d8 01       		.uleb128 0x1
 7500 19d9 52       		.byte	0x52
 7501 19da 02       		.uleb128 0x2
 7502 19db 77       		.byte	0x77
 7503 19dc 00       		.sleb128 0
 7504 19dd 42       		.uleb128 0x42
 7505 19de 01       		.uleb128 0x1
 7506 19df 53       		.byte	0x53
 7507 19e0 02       		.uleb128 0x2
 7508 19e1 73       		.byte	0x73
 7509 19e2 00       		.sleb128 0
 7510 19e3 42       		.uleb128 0x42
 7511 19e4 02       		.uleb128 0x2
 7512 19e5 7D       		.byte	0x7d
 7513 19e6 00       		.sleb128 0
 7514 19e7 03       		.uleb128 0x3
 7515 19e8 F3       		.byte	0xf3
 7516 19e9 01       		.uleb128 0x1
 7517 19ea 51       		.byte	0x51
 7518 19eb 00       		.byte	0
 7519 19ec 00       		.byte	0
 7520 19ed 11       		.uleb128 0x11
 7521 19ee 04       		.byte	0x4
 7522 19ef F3190000 		.4byte	0x19f3
 7523 19f3 49       		.uleb128 0x49
ARM GAS  /tmp/cc2f1tkm.s 			page 133


 7524 19f4 43       		.uleb128 0x43
 7525 19f5 B0050000 		.4byte	.LASF291
 7526 19f9 01       		.byte	0x1
 7527 19fa FD01     		.2byte	0x1fd
 7528 19fc E5000000 		.4byte	0xe5
 7529 1a00 00000000 		.4byte	.LFB10
 7530 1a04 0E030000 		.4byte	.LFE10-.LFB10
 7531 1a08 01       		.uleb128 0x1
 7532 1a09 9C       		.byte	0x9c
 7533 1a0a 601C0000 		.4byte	0x1c60
 7534 1a0e 30       		.uleb128 0x30
 7535 1a0f 32020000 		.4byte	.LASF209
 7536 1a13 01       		.byte	0x1
 7537 1a14 FD01     		.2byte	0x1fd
 7538 1a16 56100000 		.4byte	0x1056
 7539 1a1a 440A0000 		.4byte	.LLST237
 7540 1a1e 30       		.uleb128 0x30
 7541 1a1f 170A0000 		.4byte	.LASF210
 7542 1a23 01       		.byte	0x1
 7543 1a24 FE01     		.2byte	0x1fe
 7544 1a26 10010000 		.4byte	0x110
 7545 1a2a F70A0000 		.4byte	.LLST238
 7546 1a2e 30       		.uleb128 0x30
 7547 1a2f F10F0000 		.4byte	.LASF211
 7548 1a33 01       		.byte	0x1
 7549 1a34 FF01     		.2byte	0x1ff
 7550 1a36 D5000000 		.4byte	0xd5
 7551 1a3a 790B0000 		.4byte	.LLST239
 7552 1a3e 30       		.uleb128 0x30
 7553 1a3f 2C070000 		.4byte	.LASF292
 7554 1a43 01       		.byte	0x1
 7555 1a44 0002     		.2byte	0x200
 7556 1a46 FD030000 		.4byte	0x3fd
 7557 1a4a 9A0B0000 		.4byte	.LLST240
 7558 1a4e 30       		.uleb128 0x30
 7559 1a4f C30F0000 		.4byte	.LASF293
 7560 1a53 01       		.byte	0x1
 7561 1a54 0102     		.2byte	0x201
 7562 1a56 63050000 		.4byte	0x563
 7563 1a5a BB0B0000 		.4byte	.LLST241
 7564 1a5e 22       		.uleb128 0x22
 7565 1a5f 08       		.byte	0x8
 7566 1a60 01       		.byte	0x1
 7567 1a61 1602     		.2byte	0x216
 7568 1a63 DE1A0000 		.4byte	0x1ade
 7569 1a67 23       		.uleb128 0x23
 7570 1a68 D9070000 		.4byte	.LASF288
 7571 1a6c 01       		.byte	0x1
 7572 1a6d 1802     		.2byte	0x218
 7573 1a6f FD030000 		.4byte	0x3fd
 7574 1a73 2C       		.uleb128 0x2c
 7575 1a74 753800   		.ascii	"u8\000"
 7576 1a77 01       		.byte	0x1
 7577 1a78 1902     		.2byte	0x219
 7578 1a7a D5000000 		.4byte	0xd5
 7579 1a7e 2C       		.uleb128 0x2c
 7580 1a7f 733800   		.ascii	"s8\000"
ARM GAS  /tmp/cc2f1tkm.s 			page 134


 7581 1a82 01       		.byte	0x1
 7582 1a83 1A02     		.2byte	0x21a
 7583 1a85 CA000000 		.4byte	0xca
 7584 1a89 2C       		.uleb128 0x2c
 7585 1a8a 75313600 		.ascii	"u16\000"
 7586 1a8e 01       		.byte	0x1
 7587 1a8f 1B02     		.2byte	0x21b
 7588 1a91 F5000000 		.4byte	0xf5
 7589 1a95 2C       		.uleb128 0x2c
 7590 1a96 73313600 		.ascii	"s16\000"
 7591 1a9a 01       		.byte	0x1
 7592 1a9b 1C02     		.2byte	0x21c
 7593 1a9d E5000000 		.4byte	0xe5
 7594 1aa1 2C       		.uleb128 0x2c
 7595 1aa2 75333200 		.ascii	"u32\000"
 7596 1aa6 01       		.byte	0x1
 7597 1aa7 1D02     		.2byte	0x21d
 7598 1aa9 10010000 		.4byte	0x110
 7599 1aad 2C       		.uleb128 0x2c
 7600 1aae 73333200 		.ascii	"s32\000"
 7601 1ab2 01       		.byte	0x1
 7602 1ab3 1E02     		.2byte	0x21e
 7603 1ab5 05010000 		.4byte	0x105
 7604 1ab9 2C       		.uleb128 0x2c
 7605 1aba 75363400 		.ascii	"u64\000"
 7606 1abe 01       		.byte	0x1
 7607 1abf 1F02     		.2byte	0x21f
 7608 1ac1 2B010000 		.4byte	0x12b
 7609 1ac5 2C       		.uleb128 0x2c
 7610 1ac6 73363400 		.ascii	"s64\000"
 7611 1aca 01       		.byte	0x1
 7612 1acb 2002     		.2byte	0x220
 7613 1acd 20010000 		.4byte	0x120
 7614 1ad1 23       		.uleb128 0x23
 7615 1ad2 81060000 		.4byte	.LASF69
 7616 1ad6 01       		.byte	0x1
 7617 1ad7 2102     		.2byte	0x221
 7618 1ad9 72010000 		.4byte	0x172
 7619 1add 00       		.byte	0
 7620 1ade 31       		.uleb128 0x31
 7621 1adf 6D070000 		.4byte	.LASF289
 7622 1ae3 01       		.byte	0x1
 7623 1ae4 2202     		.2byte	0x222
 7624 1ae6 5E1A0000 		.4byte	0x1a5e
 7625 1aea 02       		.uleb128 0x2
 7626 1aeb 91       		.byte	0x91
 7627 1aec 50       		.sleb128 -48
 7628 1aed 28       		.uleb128 0x28
 7629 1aee 6E040000 		.4byte	.LASF191
 7630 1af2 01       		.byte	0x1
 7631 1af3 2602     		.2byte	0x226
 7632 1af5 F0000000 		.4byte	0xf0
 7633 1af9 33       		.uleb128 0x33
 7634 1afa 89070000 		.4byte	.LASF290
 7635 1afe 01       		.byte	0x1
 7636 1aff 3D02     		.2byte	0x23d
 7637 1b01 D5000000 		.4byte	0xd5
ARM GAS  /tmp/cc2f1tkm.s 			page 135


 7638 1b05 DB0B0000 		.4byte	.LLST242
 7639 1b09 3F       		.uleb128 0x3f
 7640 1b0a 7E0F0000 		.4byte	0xf7e
 7641 1b0e 38000000 		.4byte	.LBB542
 7642 1b12 48050000 		.4byte	.Ldebug_ranges0+0x548
 7643 1b16 01       		.byte	0x1
 7644 1b17 2602     		.2byte	0x226
 7645 1b19 4A       		.uleb128 0x4a
 7646 1b1a B30F0000 		.4byte	0xfb3
 7647 1b1e 3A       		.uleb128 0x3a
 7648 1b1f A70F0000 		.4byte	0xfa7
 7649 1b23 490C0000 		.4byte	.LLST243
 7650 1b27 4A       		.uleb128 0x4a
 7651 1b28 9B0F0000 		.4byte	0xf9b
 7652 1b2c 4A       		.uleb128 0x4a
 7653 1b2d 8F0F0000 		.4byte	0xf8f
 7654 1b31 4B       		.uleb128 0x4b
 7655 1b32 BF0F0000 		.4byte	0xfbf
 7656 1b36 90050000 		.4byte	.Ldebug_ranges0+0x590
 7657 1b3a 411C0000 		.4byte	0x1c41
 7658 1b3e 3D       		.uleb128 0x3d
 7659 1b3f C00F0000 		.4byte	0xfc0
 7660 1b43 5D0C0000 		.4byte	.LLST244
 7661 1b47 3D       		.uleb128 0x3d
 7662 1b48 CC0F0000 		.4byte	0xfcc
 7663 1b4c D20C0000 		.4byte	.LLST245
 7664 1b50 3D       		.uleb128 0x3d
 7665 1b51 D80F0000 		.4byte	0xfd8
 7666 1b55 380D0000 		.4byte	.LLST246
 7667 1b59 3D       		.uleb128 0x3d
 7668 1b5a E40F0000 		.4byte	0xfe4
 7669 1b5e C60D0000 		.4byte	.LLST247
 7670 1b62 3D       		.uleb128 0x3d
 7671 1b63 F00F0000 		.4byte	0xff0
 7672 1b67 050E0000 		.4byte	.LLST248
 7673 1b6b 3D       		.uleb128 0x3d
 7674 1b6c FC0F0000 		.4byte	0xffc
 7675 1b70 530E0000 		.4byte	.LLST249
 7676 1b74 4B       		.uleb128 0x4b
 7677 1b75 1A100000 		.4byte	0x101a
 7678 1b79 C0050000 		.4byte	.Ldebug_ranges0+0x5c0
 7679 1b7d C81B0000 		.4byte	0x1bc8
 7680 1b81 3D       		.uleb128 0x3d
 7681 1b82 1F100000 		.4byte	0x101f
 7682 1b86 920E0000 		.4byte	.LLST250
 7683 1b8a 4C       		.uleb128 0x4c
 7684 1b8b 2B100000 		.4byte	0x102b
 7685 1b8f D8050000 		.4byte	.Ldebug_ranges0+0x5d8
 7686 1b93 3D       		.uleb128 0x3d
 7687 1b94 2C100000 		.4byte	0x102c
 7688 1b98 B00E0000 		.4byte	.LLST251
 7689 1b9c 3C       		.uleb128 0x3c
 7690 1b9d 38100000 		.4byte	0x1038
 7691 1ba1 41       		.uleb128 0x41
 7692 1ba2 D6000000 		.4byte	.LVL428
 7693 1ba6 62100000 		.4byte	0x1062
 7694 1baa 42       		.uleb128 0x42
ARM GAS  /tmp/cc2f1tkm.s 			page 136


 7695 1bab 01       		.uleb128 0x1
 7696 1bac 50       		.byte	0x50
 7697 1bad 02       		.uleb128 0x2
 7698 1bae 76       		.byte	0x76
 7699 1baf 04       		.sleb128 4
 7700 1bb0 42       		.uleb128 0x42
 7701 1bb1 01       		.uleb128 0x1
 7702 1bb2 52       		.byte	0x52
 7703 1bb3 02       		.uleb128 0x2
 7704 1bb4 7B       		.byte	0x7b
 7705 1bb5 00       		.sleb128 0
 7706 1bb6 42       		.uleb128 0x42
 7707 1bb7 01       		.uleb128 0x1
 7708 1bb8 53       		.byte	0x53
 7709 1bb9 02       		.uleb128 0x2
 7710 1bba 73       		.byte	0x73
 7711 1bbb 00       		.sleb128 0
 7712 1bbc 42       		.uleb128 0x42
 7713 1bbd 02       		.uleb128 0x2
 7714 1bbe 7D       		.byte	0x7d
 7715 1bbf 00       		.sleb128 0
 7716 1bc0 04       		.uleb128 0x4
 7717 1bc1 91       		.byte	0x91
 7718 1bc2 B87F     		.sleb128 -72
 7719 1bc4 06       		.byte	0x6
 7720 1bc5 00       		.byte	0
 7721 1bc6 00       		.byte	0
 7722 1bc7 00       		.byte	0
 7723 1bc8 4D       		.uleb128 0x4d
 7724 1bc9 46100000 		.4byte	0x1046
 7725 1bcd 80010000 		.4byte	.LBB550
 7726 1bd1 10000000 		.4byte	.LBE550-.LBB550
 7727 1bd5 0B1C0000 		.4byte	0x1c0b
 7728 1bd9 3D       		.uleb128 0x3d
 7729 1bda 47100000 		.4byte	0x1047
 7730 1bde C30E0000 		.4byte	.LLST252
 7731 1be2 41       		.uleb128 0x41
 7732 1be3 8E010000 		.4byte	.LVL447
 7733 1be7 62100000 		.4byte	0x1062
 7734 1beb 42       		.uleb128 0x42
 7735 1bec 01       		.uleb128 0x1
 7736 1bed 51       		.byte	0x51
 7737 1bee 05       		.uleb128 0x5
 7738 1bef 74       		.byte	0x74
 7739 1bf0 00       		.sleb128 0
 7740 1bf1 77       		.byte	0x77
 7741 1bf2 00       		.sleb128 0
 7742 1bf3 1C       		.byte	0x1c
 7743 1bf4 42       		.uleb128 0x42
 7744 1bf5 01       		.uleb128 0x1
 7745 1bf6 52       		.byte	0x52
 7746 1bf7 02       		.uleb128 0x2
 7747 1bf8 78       		.byte	0x78
 7748 1bf9 00       		.sleb128 0
 7749 1bfa 42       		.uleb128 0x42
 7750 1bfb 01       		.uleb128 0x1
 7751 1bfc 53       		.byte	0x53
ARM GAS  /tmp/cc2f1tkm.s 			page 137


 7752 1bfd 02       		.uleb128 0x2
 7753 1bfe 73       		.byte	0x73
 7754 1bff 00       		.sleb128 0
 7755 1c00 42       		.uleb128 0x42
 7756 1c01 02       		.uleb128 0x2
 7757 1c02 7D       		.byte	0x7d
 7758 1c03 00       		.sleb128 0
 7759 1c04 04       		.uleb128 0x4
 7760 1c05 91       		.byte	0x91
 7761 1c06 B87F     		.sleb128 -72
 7762 1c08 06       		.byte	0x6
 7763 1c09 00       		.byte	0
 7764 1c0a 00       		.byte	0
 7765 1c0b 4C       		.uleb128 0x4c
 7766 1c0c 08100000 		.4byte	0x1008
 7767 1c10 F8050000 		.4byte	.Ldebug_ranges0+0x5f8
 7768 1c14 3D       		.uleb128 0x3d
 7769 1c15 0D100000 		.4byte	0x100d
 7770 1c19 DB0E0000 		.4byte	.LLST253
 7771 1c1d 41       		.uleb128 0x41
 7772 1c1e F0010000 		.4byte	.LVL455
 7773 1c22 62100000 		.4byte	0x1062
 7774 1c26 42       		.uleb128 0x42
 7775 1c27 01       		.uleb128 0x1
 7776 1c28 51       		.byte	0x51
 7777 1c29 02       		.uleb128 0x2
 7778 1c2a 74       		.byte	0x74
 7779 1c2b 00       		.sleb128 0
 7780 1c2c 42       		.uleb128 0x42
 7781 1c2d 01       		.uleb128 0x1
 7782 1c2e 52       		.byte	0x52
 7783 1c2f 02       		.uleb128 0x2
 7784 1c30 77       		.byte	0x77
 7785 1c31 00       		.sleb128 0
 7786 1c32 42       		.uleb128 0x42
 7787 1c33 01       		.uleb128 0x1
 7788 1c34 53       		.byte	0x53
 7789 1c35 02       		.uleb128 0x2
 7790 1c36 73       		.byte	0x73
 7791 1c37 00       		.sleb128 0
 7792 1c38 42       		.uleb128 0x42
 7793 1c39 02       		.uleb128 0x2
 7794 1c3a 7D       		.byte	0x7d
 7795 1c3b 00       		.sleb128 0
 7796 1c3c 01       		.uleb128 0x1
 7797 1c3d 30       		.byte	0x30
 7798 1c3e 00       		.byte	0
 7799 1c3f 00       		.byte	0
 7800 1c40 00       		.byte	0
 7801 1c41 41       		.uleb128 0x41
 7802 1c42 FA020000 		.4byte	.LVL472
 7803 1c46 62100000 		.4byte	0x1062
 7804 1c4a 42       		.uleb128 0x42
 7805 1c4b 01       		.uleb128 0x1
 7806 1c4c 51       		.byte	0x51
 7807 1c4d 02       		.uleb128 0x2
 7808 1c4e 74       		.byte	0x74
ARM GAS  /tmp/cc2f1tkm.s 			page 138


 7809 1c4f 00       		.sleb128 0
 7810 1c50 42       		.uleb128 0x42
 7811 1c51 01       		.uleb128 0x1
 7812 1c52 52       		.byte	0x52
 7813 1c53 03       		.uleb128 0x3
 7814 1c54 91       		.byte	0x91
 7815 1c55 40       		.sleb128 -64
 7816 1c56 06       		.byte	0x6
 7817 1c57 42       		.uleb128 0x42
 7818 1c58 01       		.uleb128 0x1
 7819 1c59 53       		.byte	0x53
 7820 1c5a 02       		.uleb128 0x2
 7821 1c5b 73       		.byte	0x73
 7822 1c5c 00       		.sleb128 0
 7823 1c5d 00       		.byte	0
 7824 1c5e 00       		.byte	0
 7825 1c5f 00       		.byte	0
 7826 1c60 48       		.uleb128 0x48
 7827 1c61 E50D0000 		.4byte	.LASF295
 7828 1c65 01       		.byte	0x1
 7829 1c66 DD01     		.2byte	0x1dd
 7830 1c68 00000000 		.4byte	.LFB9
 7831 1c6c E4000000 		.4byte	.LFE9-.LFB9
 7832 1c70 01       		.uleb128 0x1
 7833 1c71 9C       		.byte	0x9c
 7834 1c72 191E0000 		.4byte	0x1e19
 7835 1c76 46       		.uleb128 0x46
 7836 1c77 696E7300 		.ascii	"ins\000"
 7837 1c7b 01       		.byte	0x1
 7838 1c7c DD01     		.2byte	0x1dd
 7839 1c7e 36040000 		.4byte	0x436
 7840 1c82 01       		.uleb128 0x1
 7841 1c83 50       		.byte	0x50
 7842 1c84 30       		.uleb128 0x30
 7843 1c85 DC0A0000 		.4byte	.LASF296
 7844 1c89 01       		.byte	0x1
 7845 1c8a DD01     		.2byte	0x1dd
 7846 1c8c 2B010000 		.4byte	0x12b
 7847 1c90 FB0E0000 		.4byte	.LLST216
 7848 1c94 33       		.uleb128 0x33
 7849 1c95 A7010000 		.4byte	.LASF297
 7850 1c99 01       		.byte	0x1
 7851 1c9a DF01     		.2byte	0x1df
 7852 1c9c 57050000 		.4byte	0x557
 7853 1ca0 330F0000 		.4byte	.LLST217
 7854 1ca4 33       		.uleb128 0x33
 7855 1ca5 A90A0000 		.4byte	.LASF233
 7856 1ca9 01       		.byte	0x1
 7857 1caa DF01     		.2byte	0x1df
 7858 1cac 57050000 		.4byte	0x557
 7859 1cb0 510F0000 		.4byte	.LLST218
 7860 1cb4 3E       		.uleb128 0x3e
 7861 1cb5 4C130000 		.4byte	0x134c
 7862 1cb9 3E000000 		.4byte	.LBB511
 7863 1cbd 34000000 		.4byte	.LBE511-.LBB511
 7864 1cc1 01       		.byte	0x1
 7865 1cc2 EF01     		.2byte	0x1ef
ARM GAS  /tmp/cc2f1tkm.s 			page 139


 7866 1cc4 291D0000 		.4byte	0x1d29
 7867 1cc8 4A       		.uleb128 0x4a
 7868 1cc9 69130000 		.4byte	0x1369
 7869 1ccd 4A       		.uleb128 0x4a
 7870 1cce 5D130000 		.4byte	0x135d
 7871 1cd2 4E       		.uleb128 0x4e
 7872 1cd3 75130000 		.4byte	0x1375
 7873 1cd7 52000000 		.4byte	.LBB513
 7874 1cdb 0E000000 		.4byte	.LBE513-.LBB513
 7875 1cdf 3D       		.uleb128 0x3d
 7876 1ce0 76130000 		.4byte	0x1376
 7877 1ce4 A70F0000 		.4byte	.LLST219
 7878 1ce8 39       		.uleb128 0x39
 7879 1ce9 7F0D0000 		.4byte	0xd7f
 7880 1ced 54000000 		.4byte	.LBB514
 7881 1cf1 0C000000 		.4byte	.LBE514-.LBB514
 7882 1cf5 01       		.byte	0x1
 7883 1cf6 B004     		.2byte	0x4b0
 7884 1cf8 3A       		.uleb128 0x3a
 7885 1cf9 8C0D0000 		.4byte	0xd8c
 7886 1cfd C50F0000 		.4byte	.LLST220
 7887 1d01 3A       		.uleb128 0x3a
 7888 1d02 8C0D0000 		.4byte	0xd8c
 7889 1d06 C50F0000 		.4byte	.LLST220
 7890 1d0a 3A       		.uleb128 0x3a
 7891 1d0b 980D0000 		.4byte	0xd98
 7892 1d0f E70F0000 		.4byte	.LLST222
 7893 1d13 3B       		.uleb128 0x3b
 7894 1d14 54000000 		.4byte	.LBB515
 7895 1d18 0C000000 		.4byte	.LBE515-.LBB515
 7896 1d1c 3D       		.uleb128 0x3d
 7897 1d1d A20D0000 		.4byte	0xda2
 7898 1d21 FA0F0000 		.4byte	.LLST223
 7899 1d25 00       		.byte	0
 7900 1d26 00       		.byte	0
 7901 1d27 00       		.byte	0
 7902 1d28 00       		.byte	0
 7903 1d29 40       		.uleb128 0x40
 7904 1d2a 7F0D0000 		.4byte	0xd7f
 7905 1d2e 72000000 		.4byte	.LBB516
 7906 1d32 08050000 		.4byte	.Ldebug_ranges0+0x508
 7907 1d36 01       		.byte	0x1
 7908 1d37 F101     		.2byte	0x1f1
 7909 1d39 681D0000 		.4byte	0x1d68
 7910 1d3d 3A       		.uleb128 0x3a
 7911 1d3e 8C0D0000 		.4byte	0xd8c
 7912 1d42 23100000 		.4byte	.LLST224
 7913 1d46 3A       		.uleb128 0x3a
 7914 1d47 8C0D0000 		.4byte	0xd8c
 7915 1d4b 23100000 		.4byte	.LLST224
 7916 1d4f 3A       		.uleb128 0x3a
 7917 1d50 980D0000 		.4byte	0xd98
 7918 1d54 38100000 		.4byte	.LLST226
 7919 1d58 32       		.uleb128 0x32
 7920 1d59 08050000 		.4byte	.Ldebug_ranges0+0x508
 7921 1d5d 3D       		.uleb128 0x3d
 7922 1d5e A20D0000 		.4byte	0xda2
ARM GAS  /tmp/cc2f1tkm.s 			page 140


 7923 1d62 57100000 		.4byte	.LLST227
 7924 1d66 00       		.byte	0
 7925 1d67 00       		.byte	0
 7926 1d68 3E       		.uleb128 0x3e
 7927 1d69 4C130000 		.4byte	0x134c
 7928 1d6d 96000000 		.4byte	.LBB522
 7929 1d71 34000000 		.4byte	.LBE522-.LBB522
 7930 1d75 01       		.byte	0x1
 7931 1d76 E701     		.2byte	0x1e7
 7932 1d78 DD1D0000 		.4byte	0x1ddd
 7933 1d7c 4A       		.uleb128 0x4a
 7934 1d7d 69130000 		.4byte	0x1369
 7935 1d81 4A       		.uleb128 0x4a
 7936 1d82 5D130000 		.4byte	0x135d
 7937 1d86 4E       		.uleb128 0x4e
 7938 1d87 75130000 		.4byte	0x1375
 7939 1d8b AA000000 		.4byte	.LBB524
 7940 1d8f 0E000000 		.4byte	.LBE524-.LBB524
 7941 1d93 3D       		.uleb128 0x3d
 7942 1d94 76130000 		.4byte	0x1376
 7943 1d98 76100000 		.4byte	.LLST228
 7944 1d9c 39       		.uleb128 0x39
 7945 1d9d 7F0D0000 		.4byte	0xd7f
 7946 1da1 AC000000 		.4byte	.LBB525
 7947 1da5 0C000000 		.4byte	.LBE525-.LBB525
 7948 1da9 01       		.byte	0x1
 7949 1daa B004     		.2byte	0x4b0
 7950 1dac 3A       		.uleb128 0x3a
 7951 1dad 8C0D0000 		.4byte	0xd8c
 7952 1db1 94100000 		.4byte	.LLST229
 7953 1db5 3A       		.uleb128 0x3a
 7954 1db6 8C0D0000 		.4byte	0xd8c
 7955 1dba 94100000 		.4byte	.LLST229
 7956 1dbe 3A       		.uleb128 0x3a
 7957 1dbf 980D0000 		.4byte	0xd98
 7958 1dc3 B6100000 		.4byte	.LLST231
 7959 1dc7 3B       		.uleb128 0x3b
 7960 1dc8 AC000000 		.4byte	.LBB526
 7961 1dcc 0C000000 		.4byte	.LBE526-.LBB526
 7962 1dd0 3D       		.uleb128 0x3d
 7963 1dd1 A20D0000 		.4byte	0xda2
 7964 1dd5 C9100000 		.4byte	.LLST232
 7965 1dd9 00       		.byte	0
 7966 1dda 00       		.byte	0
 7967 1ddb 00       		.byte	0
 7968 1ddc 00       		.byte	0
 7969 1ddd 3F       		.uleb128 0x3f
 7970 1dde 7F0D0000 		.4byte	0xd7f
 7971 1de2 CA000000 		.4byte	.LBB527
 7972 1de6 28050000 		.4byte	.Ldebug_ranges0+0x528
 7973 1dea 01       		.byte	0x1
 7974 1deb E901     		.2byte	0x1e9
 7975 1ded 3A       		.uleb128 0x3a
 7976 1dee 8C0D0000 		.4byte	0xd8c
 7977 1df2 F2100000 		.4byte	.LLST233
 7978 1df6 3A       		.uleb128 0x3a
 7979 1df7 8C0D0000 		.4byte	0xd8c
ARM GAS  /tmp/cc2f1tkm.s 			page 141


 7980 1dfb F2100000 		.4byte	.LLST233
 7981 1dff 3A       		.uleb128 0x3a
 7982 1e00 980D0000 		.4byte	0xd98
 7983 1e04 07110000 		.4byte	.LLST235
 7984 1e08 32       		.uleb128 0x32
 7985 1e09 28050000 		.4byte	.Ldebug_ranges0+0x528
 7986 1e0d 3D       		.uleb128 0x3d
 7987 1e0e A20D0000 		.4byte	0xda2
 7988 1e12 1A110000 		.4byte	.LLST236
 7989 1e16 00       		.byte	0
 7990 1e17 00       		.byte	0
 7991 1e18 00       		.byte	0
 7992 1e19 4F       		.uleb128 0x4f
 7993 1e1a E1070000 		.4byte	.LASF298
 7994 1e1e 01       		.byte	0x1
 7995 1e1f FB       		.byte	0xfb
 7996 1e20 00000000 		.4byte	.LFB8
 7997 1e24 9A050000 		.4byte	.LFE8-.LFB8
 7998 1e28 01       		.uleb128 0x1
 7999 1e29 9C       		.byte	0x9c
 8000 1e2a 42260000 		.4byte	0x2642
 8001 1e2e 50       		.uleb128 0x50
 8002 1e2f 696E7300 		.ascii	"ins\000"
 8003 1e33 01       		.byte	0x1
 8004 1e34 FB       		.byte	0xfb
 8005 1e35 36040000 		.4byte	0x436
 8006 1e39 2D110000 		.4byte	.LLST127
 8007 1e3d 51       		.uleb128 0x51
 8008 1e3e 160F0000 		.4byte	.LASF65
 8009 1e42 01       		.byte	0x1
 8010 1e43 FB       		.byte	0xfb
 8011 1e44 42260000 		.4byte	0x2642
 8012 1e48 C5110000 		.4byte	.LLST128
 8013 1e4c 51       		.uleb128 0x51
 8014 1e4d FF000000 		.4byte	.LASF46
 8015 1e51 01       		.byte	0x1
 8016 1e52 FB       		.byte	0xfb
 8017 1e53 2B010000 		.4byte	0x12b
 8018 1e57 66120000 		.4byte	.LLST129
 8019 1e5b 52       		.uleb128 0x52
 8020 1e5c 42090000 		.4byte	.LASF52
 8021 1e60 01       		.byte	0x1
 8022 1e61 FD       		.byte	0xfd
 8023 1e62 BD010000 		.4byte	0x1bd
 8024 1e66 01       		.uleb128 0x1
 8025 1e67 56       		.byte	0x56
 8026 1e68 53       		.uleb128 0x53
 8027 1e69 EE0B0000 		.4byte	.LASF299
 8028 1e6d 01       		.byte	0x1
 8029 1e6e FE       		.byte	0xfe
 8030 1e6f E0000000 		.4byte	0xe0
 8031 1e73 EE120000 		.4byte	.LLST130
 8032 1e77 33       		.uleb128 0x33
 8033 1e78 B90B0000 		.4byte	.LASF54
 8034 1e7c 01       		.byte	0x1
 8035 1e7d 1201     		.2byte	0x112
 8036 1e7f E0000000 		.4byte	0xe0
ARM GAS  /tmp/cc2f1tkm.s 			page 142


 8037 1e83 22130000 		.4byte	.LLST131
 8038 1e87 33       		.uleb128 0x33
 8039 1e88 80000000 		.4byte	.LASF55
 8040 1e8c 01       		.byte	0x1
 8041 1e8d 1301     		.2byte	0x113
 8042 1e8f E0000000 		.4byte	0xe0
 8043 1e93 7F130000 		.4byte	.LLST132
 8044 1e97 28       		.uleb128 0x28
 8045 1e98 77020000 		.4byte	.LASF51
 8046 1e9c 01       		.byte	0x1
 8047 1e9d 1401     		.2byte	0x114
 8048 1e9f 00010000 		.4byte	0x100
 8049 1ea3 33       		.uleb128 0x33
 8050 1ea4 860A0000 		.4byte	.LASF243
 8051 1ea8 01       		.byte	0x1
 8052 1ea9 1501     		.2byte	0x115
 8053 1eab 1B010000 		.4byte	0x11b
 8054 1eaf BB130000 		.4byte	.LLST133
 8055 1eb3 33       		.uleb128 0x33
 8056 1eb4 9E000000 		.4byte	.LASF300
 8057 1eb8 01       		.byte	0x1
 8058 1eb9 1801     		.2byte	0x118
 8059 1ebb E0000000 		.4byte	0xe0
 8060 1ebf E4130000 		.4byte	.LLST134
 8061 1ec3 33       		.uleb128 0x33
 8062 1ec4 1D100000 		.4byte	.LASF301
 8063 1ec8 01       		.byte	0x1
 8064 1ec9 1A01     		.2byte	0x11a
 8065 1ecb 57050000 		.4byte	0x557
 8066 1ecf 18140000 		.4byte	.LLST135
 8067 1ed3 33       		.uleb128 0x33
 8068 1ed4 FB090000 		.4byte	.LASF302
 8069 1ed8 01       		.byte	0x1
 8070 1ed9 3D01     		.2byte	0x13d
 8071 1edb 04040000 		.4byte	0x404
 8072 1edf 9C140000 		.4byte	.LLST136
 8073 1ee3 33       		.uleb128 0x33
 8074 1ee4 230D0000 		.4byte	.LASF303
 8075 1ee8 01       		.byte	0x1
 8076 1ee9 3E01     		.2byte	0x13e
 8077 1eeb 04040000 		.4byte	0x404
 8078 1eef 6A150000 		.4byte	.LLST137
 8079 1ef3 33       		.uleb128 0x33
 8080 1ef4 E20B0000 		.4byte	.LASF304
 8081 1ef8 01       		.byte	0x1
 8082 1ef9 3F01     		.2byte	0x13f
 8083 1efb 04040000 		.4byte	0x404
 8084 1eff CD150000 		.4byte	.LLST138
 8085 1f03 33       		.uleb128 0x33
 8086 1f04 D9090000 		.4byte	.LASF305
 8087 1f08 01       		.byte	0x1
 8088 1f09 4001     		.2byte	0x140
 8089 1f0b 04040000 		.4byte	0x404
 8090 1f0f F9150000 		.4byte	.LLST139
 8091 1f13 33       		.uleb128 0x33
 8092 1f14 DC100000 		.4byte	.LASF306
 8093 1f18 01       		.byte	0x1
ARM GAS  /tmp/cc2f1tkm.s 			page 143


 8094 1f19 4301     		.2byte	0x143
 8095 1f1b 04040000 		.4byte	0x404
 8096 1f1f 73160000 		.4byte	.LLST140
 8097 1f23 36       		.uleb128 0x36
 8098 1f24 E8020000 		.4byte	.Ldebug_ranges0+0x2e8
 8099 1f28 98200000 		.4byte	0x2098
 8100 1f2c 31       		.uleb128 0x31
 8101 1f2d 5B090000 		.4byte	.LASF201
 8102 1f31 01       		.byte	0x1
 8103 1f32 1E01     		.2byte	0x11e
 8104 1f34 2B010000 		.4byte	0x12b
 8105 1f38 03       		.uleb128 0x3
 8106 1f39 91       		.byte	0x91
 8107 1f3a B87F     		.sleb128 -72
 8108 1f3c 40       		.uleb128 0x40
 8109 1f3d 82140000 		.4byte	0x1482
 8110 1f41 9E000000 		.4byte	.LBB406
 8111 1f45 00030000 		.4byte	.Ldebug_ranges0+0x300
 8112 1f49 01       		.byte	0x1
 8113 1f4a 2201     		.2byte	0x122
 8114 1f4c FB1F0000 		.4byte	0x1ffb
 8115 1f50 3A       		.uleb128 0x3a
 8116 1f51 9F140000 		.4byte	0x149f
 8117 1f55 AB160000 		.4byte	.LLST147
 8118 1f59 3A       		.uleb128 0x3a
 8119 1f5a 93140000 		.4byte	0x1493
 8120 1f5e C9160000 		.4byte	.LLST148
 8121 1f62 32       		.uleb128 0x32
 8122 1f63 00030000 		.4byte	.Ldebug_ranges0+0x300
 8123 1f67 3D       		.uleb128 0x3d
 8124 1f68 AB140000 		.4byte	0x14ab
 8125 1f6c E7160000 		.4byte	.LLST149
 8126 1f70 3E       		.uleb128 0x3e
 8127 1f71 58140000 		.4byte	0x1458
 8128 1f75 A6000000 		.4byte	.LBB408
 8129 1f79 0C000000 		.4byte	.LBE408-.LBB408
 8130 1f7d 01       		.byte	0x1
 8131 1f7e 6D04     		.2byte	0x46d
 8132 1f80 931F0000 		.4byte	0x1f93
 8133 1f84 4A       		.uleb128 0x4a
 8134 1f85 75140000 		.4byte	0x1475
 8135 1f89 3A       		.uleb128 0x3a
 8136 1f8a 69140000 		.4byte	0x1469
 8137 1f8e 1C170000 		.4byte	.LLST150
 8138 1f92 00       		.byte	0
 8139 1f93 3E       		.uleb128 0x3e
 8140 1f94 22140000 		.4byte	0x1422
 8141 1f98 B2000000 		.4byte	.LBB410
 8142 1f9c 16000000 		.4byte	.LBE410-.LBB410
 8143 1fa0 01       		.byte	0x1
 8144 1fa1 7404     		.2byte	0x474
 8145 1fa3 E31F0000 		.4byte	0x1fe3
 8146 1fa7 3A       		.uleb128 0x3a
 8147 1fa8 3F140000 		.4byte	0x143f
 8148 1fac 2F170000 		.4byte	.LLST151
 8149 1fb0 3A       		.uleb128 0x3a
 8150 1fb1 33140000 		.4byte	0x1433
ARM GAS  /tmp/cc2f1tkm.s 			page 144


 8151 1fb5 42170000 		.4byte	.LLST152
 8152 1fb9 3B       		.uleb128 0x3b
 8153 1fba B2000000 		.4byte	.LBB411
 8154 1fbe 16000000 		.4byte	.LBE411-.LBB411
 8155 1fc2 3D       		.uleb128 0x3d
 8156 1fc3 4B140000 		.4byte	0x144b
 8157 1fc7 55170000 		.4byte	.LLST153
 8158 1fcb 41       		.uleb128 0x41
 8159 1fcc BC000000 		.4byte	.LVL258
 8160 1fd0 84130000 		.4byte	0x1384
 8161 1fd4 42       		.uleb128 0x42
 8162 1fd5 01       		.uleb128 0x1
 8163 1fd6 50       		.byte	0x50
 8164 1fd7 02       		.uleb128 0x2
 8165 1fd8 75       		.byte	0x75
 8166 1fd9 0C       		.sleb128 12
 8167 1fda 42       		.uleb128 0x42
 8168 1fdb 01       		.uleb128 0x1
 8169 1fdc 51       		.byte	0x51
 8170 1fdd 02       		.uleb128 0x2
 8171 1fde 7A       		.byte	0x7a
 8172 1fdf 00       		.sleb128 0
 8173 1fe0 00       		.byte	0
 8174 1fe1 00       		.byte	0
 8175 1fe2 00       		.byte	0
 8176 1fe3 41       		.uleb128 0x41
 8177 1fe4 76030000 		.4byte	.LVL320
 8178 1fe8 84130000 		.4byte	0x1384
 8179 1fec 42       		.uleb128 0x42
 8180 1fed 01       		.uleb128 0x1
 8181 1fee 50       		.byte	0x50
 8182 1fef 02       		.uleb128 0x2
 8183 1ff0 75       		.byte	0x75
 8184 1ff1 0C       		.sleb128 12
 8185 1ff2 42       		.uleb128 0x42
 8186 1ff3 01       		.uleb128 0x1
 8187 1ff4 51       		.byte	0x51
 8188 1ff5 02       		.uleb128 0x2
 8189 1ff6 7A       		.byte	0x7a
 8190 1ff7 00       		.sleb128 0
 8191 1ff8 00       		.byte	0
 8192 1ff9 00       		.byte	0
 8193 1ffa 00       		.byte	0
 8194 1ffb 3E       		.uleb128 0x3e
 8195 1ffc 650E0000 		.4byte	0xe65
 8196 2000 D2000000 		.4byte	.LBB413
 8197 2004 44000000 		.4byte	.LBE413-.LBB413
 8198 2008 01       		.byte	0x1
 8199 2009 2901     		.2byte	0x129
 8200 200b 6B200000 		.4byte	0x206b
 8201 200f 3A       		.uleb128 0x3a
 8202 2010 820E0000 		.4byte	0xe82
 8203 2014 68170000 		.4byte	.LLST154
 8204 2018 3A       		.uleb128 0x3a
 8205 2019 760E0000 		.4byte	0xe76
 8206 201d 80170000 		.4byte	.LLST155
 8207 2021 4E       		.uleb128 0x4e
ARM GAS  /tmp/cc2f1tkm.s 			page 145


 8208 2022 8E0E0000 		.4byte	0xe8e
 8209 2026 D2000000 		.4byte	.LBB414
 8210 202a 44000000 		.4byte	.LBE414-.LBB414
 8211 202e 3D       		.uleb128 0x3d
 8212 202f 8F0E0000 		.4byte	0xe8f
 8213 2033 AB170000 		.4byte	.LLST156
 8214 2037 3F       		.uleb128 0x3f
 8215 2038 9D0E0000 		.4byte	0xe9d
 8216 203c D2000000 		.4byte	.LBB415
 8217 2040 18030000 		.4byte	.Ldebug_ranges0+0x318
 8218 2044 01       		.byte	0x1
 8219 2045 EE05     		.2byte	0x5ee
 8220 2047 4A       		.uleb128 0x4a
 8221 2048 BA0E0000 		.4byte	0xeba
 8222 204c 3A       		.uleb128 0x3a
 8223 204d AE0E0000 		.4byte	0xeae
 8224 2051 D7170000 		.4byte	.LLST157
 8225 2055 4C       		.uleb128 0x4c
 8226 2056 C60E0000 		.4byte	0xec6
 8227 205a 30030000 		.4byte	.Ldebug_ranges0+0x330
 8228 205e 3D       		.uleb128 0x3d
 8229 205f C70E0000 		.4byte	0xec7
 8230 2063 00180000 		.4byte	.LLST158
 8231 2067 00       		.byte	0
 8232 2068 00       		.byte	0
 8233 2069 00       		.byte	0
 8234 206a 00       		.byte	0
 8235 206b 54       		.uleb128 0x54
 8236 206c 9A000000 		.4byte	.LVL252
 8237 2070 02       		.uleb128 0x2
 8238 2071 77       		.byte	0x77
 8239 2072 00       		.sleb128 0
 8240 2073 42       		.uleb128 0x42
 8241 2074 01       		.uleb128 0x1
 8242 2075 50       		.byte	0x50
 8243 2076 02       		.uleb128 0x2
 8244 2077 75       		.byte	0x75
 8245 2078 00       		.sleb128 0
 8246 2079 42       		.uleb128 0x42
 8247 207a 01       		.uleb128 0x1
 8248 207b 51       		.byte	0x51
 8249 207c 03       		.uleb128 0x3
 8250 207d 91       		.byte	0x91
 8251 207e B87F     		.sleb128 -72
 8252 2080 42       		.uleb128 0x42
 8253 2081 01       		.uleb128 0x1
 8254 2082 52       		.byte	0x52
 8255 2083 02       		.uleb128 0x2
 8256 2084 79       		.byte	0x79
 8257 2085 00       		.sleb128 0
 8258 2086 42       		.uleb128 0x42
 8259 2087 01       		.uleb128 0x1
 8260 2088 53       		.byte	0x53
 8261 2089 02       		.uleb128 0x2
 8262 208a 76       		.byte	0x76
 8263 208b 00       		.sleb128 0
 8264 208c 42       		.uleb128 0x42
ARM GAS  /tmp/cc2f1tkm.s 			page 146


 8265 208d 02       		.uleb128 0x2
 8266 208e 7D       		.byte	0x7d
 8267 208f 00       		.sleb128 0
 8268 2090 05       		.uleb128 0x5
 8269 2091 91       		.byte	0x91
 8270 2092 987F     		.sleb128 -104
 8271 2094 94       		.byte	0x94
 8272 2095 01       		.byte	0x1
 8273 2096 00       		.byte	0
 8274 2097 00       		.byte	0
 8275 2098 38       		.uleb128 0x38
 8276 2099 BC010000 		.4byte	.LBB436
 8277 209d 64000000 		.4byte	.LBE436-.LBB436
 8278 20a1 E7200000 		.4byte	0x20e7
 8279 20a5 31       		.uleb128 0x31
 8280 20a6 6D0F0000 		.4byte	.LASF307
 8281 20aa 01       		.byte	0x1
 8282 20ab 5701     		.2byte	0x157
 8283 20ad 5D020000 		.4byte	0x25d
 8284 20b1 03       		.uleb128 0x3
 8285 20b2 91       		.byte	0x91
 8286 20b3 B87F     		.sleb128 -72
 8287 20b5 3E       		.uleb128 0x3e
 8288 20b6 0C150000 		.4byte	0x150c
 8289 20ba FE010000 		.4byte	.LBB437
 8290 20be 22000000 		.4byte	.LBE437-.LBB437
 8291 20c2 01       		.byte	0x1
 8292 20c3 6401     		.2byte	0x164
 8293 20c5 D3200000 		.4byte	0x20d3
 8294 20c9 3A       		.uleb128 0x3a
 8295 20ca 19150000 		.4byte	0x1519
 8296 20ce 23180000 		.4byte	.LLST169
 8297 20d2 00       		.byte	0
 8298 20d3 55       		.uleb128 0x55
 8299 20d4 FE010000 		.4byte	.LVL288
 8300 20d8 42       		.uleb128 0x42
 8301 20d9 01       		.uleb128 0x1
 8302 20da 50       		.byte	0x50
 8303 20db 02       		.uleb128 0x2
 8304 20dc 75       		.byte	0x75
 8305 20dd 00       		.sleb128 0
 8306 20de 42       		.uleb128 0x42
 8307 20df 01       		.uleb128 0x1
 8308 20e0 51       		.byte	0x51
 8309 20e1 03       		.uleb128 0x3
 8310 20e2 91       		.byte	0x91
 8311 20e3 B87F     		.sleb128 -72
 8312 20e5 00       		.byte	0
 8313 20e6 00       		.byte	0
 8314 20e7 38       		.uleb128 0x38
 8315 20e8 D6030000 		.4byte	.LBB469
 8316 20ec 80000000 		.4byte	.LBE469-.LBB469
 8317 20f0 F8210000 		.4byte	0x21f8
 8318 20f4 37       		.uleb128 0x37
 8319 20f5 72657400 		.ascii	"ret\000"
 8320 20f9 01       		.byte	0x1
 8321 20fa 7B01     		.2byte	0x17b
ARM GAS  /tmp/cc2f1tkm.s 			page 147


 8322 20fc F0000000 		.4byte	0xf0
 8323 2100 36180000 		.4byte	.LLST191
 8324 2104 3E       		.uleb128 0x3e
 8325 2105 2F0E0000 		.4byte	0xe2f
 8326 2109 0C040000 		.4byte	.LBB470
 8327 210d 30000000 		.4byte	.LBE470-.LBB470
 8328 2111 01       		.byte	0x1
 8329 2112 8401     		.2byte	0x184
 8330 2114 6A210000 		.4byte	0x216a
 8331 2118 3A       		.uleb128 0x3a
 8332 2119 580E0000 		.4byte	0xe58
 8333 211d 49180000 		.4byte	.LLST192
 8334 2121 3A       		.uleb128 0x3a
 8335 2122 4C0E0000 		.4byte	0xe4c
 8336 2126 7F180000 		.4byte	.LLST193
 8337 212a 3A       		.uleb128 0x3a
 8338 212b 400E0000 		.4byte	0xe40
 8339 212f 9F180000 		.4byte	.LLST194
 8340 2133 3F       		.uleb128 0x3f
 8341 2134 9D0E0000 		.4byte	0xe9d
 8342 2138 0C040000 		.4byte	.LBB472
 8343 213c 30040000 		.4byte	.Ldebug_ranges0+0x430
 8344 2140 01       		.byte	0x1
 8345 2141 F705     		.2byte	0x5f7
 8346 2143 3A       		.uleb128 0x3a
 8347 2144 BA0E0000 		.4byte	0xeba
 8348 2148 B2180000 		.4byte	.LLST195
 8349 214c 3A       		.uleb128 0x3a
 8350 214d AE0E0000 		.4byte	0xeae
 8351 2151 D2180000 		.4byte	.LLST196
 8352 2155 4C       		.uleb128 0x4c
 8353 2156 C60E0000 		.4byte	0xec6
 8354 215a 48040000 		.4byte	.Ldebug_ranges0+0x448
 8355 215e 3D       		.uleb128 0x3d
 8356 215f C70E0000 		.4byte	0xec7
 8357 2163 FB180000 		.4byte	.LLST197
 8358 2167 00       		.byte	0
 8359 2168 00       		.byte	0
 8360 2169 00       		.byte	0
 8361 216a 3E       		.uleb128 0x3e
 8362 216b 4C130000 		.4byte	0x134c
 8363 216f 3C040000 		.4byte	.LBB478
 8364 2173 1A000000 		.4byte	.LBE478-.LBB478
 8365 2177 01       		.byte	0x1
 8366 2178 7F01     		.2byte	0x17f
 8367 217a DB210000 		.4byte	0x21db
 8368 217e 4A       		.uleb128 0x4a
 8369 217f 69130000 		.4byte	0x1369
 8370 2183 4A       		.uleb128 0x4a
 8371 2184 5D130000 		.4byte	0x135d
 8372 2188 4E       		.uleb128 0x4e
 8373 2189 75130000 		.4byte	0x1375
 8374 218d 44040000 		.4byte	.LBB480
 8375 2191 12000000 		.4byte	.LBE480-.LBB480
 8376 2195 3D       		.uleb128 0x3d
 8377 2196 76130000 		.4byte	0x1376
 8378 219a 1E190000 		.4byte	.LLST198
ARM GAS  /tmp/cc2f1tkm.s 			page 148


 8379 219e 3F       		.uleb128 0x3f
 8380 219f 7F0D0000 		.4byte	0xd7f
 8381 21a3 44040000 		.4byte	.LBB481
 8382 21a7 60040000 		.4byte	.Ldebug_ranges0+0x460
 8383 21ab 01       		.byte	0x1
 8384 21ac B004     		.2byte	0x4b0
 8385 21ae 3A       		.uleb128 0x3a
 8386 21af 8C0D0000 		.4byte	0xd8c
 8387 21b3 31190000 		.4byte	.LLST199
 8388 21b7 3A       		.uleb128 0x3a
 8389 21b8 8C0D0000 		.4byte	0xd8c
 8390 21bc 31190000 		.4byte	.LLST199
 8391 21c0 3A       		.uleb128 0x3a
 8392 21c1 980D0000 		.4byte	0xd98
 8393 21c5 46190000 		.4byte	.LLST201
 8394 21c9 32       		.uleb128 0x32
 8395 21ca 60040000 		.4byte	.Ldebug_ranges0+0x460
 8396 21ce 3D       		.uleb128 0x3d
 8397 21cf A20D0000 		.4byte	0xda2
 8398 21d3 59190000 		.4byte	.LLST202
 8399 21d7 00       		.byte	0
 8400 21d8 00       		.byte	0
 8401 21d9 00       		.byte	0
 8402 21da 00       		.byte	0
 8403 21db 41       		.uleb128 0x41
 8404 21dc F8030000 		.4byte	.LVL332
 8405 21e0 67110000 		.4byte	0x1167
 8406 21e4 42       		.uleb128 0x42
 8407 21e5 01       		.uleb128 0x1
 8408 21e6 50       		.byte	0x50
 8409 21e7 02       		.uleb128 0x2
 8410 21e8 75       		.byte	0x75
 8411 21e9 0C       		.sleb128 12
 8412 21ea 42       		.uleb128 0x42
 8413 21eb 01       		.uleb128 0x1
 8414 21ec 51       		.byte	0x51
 8415 21ed 02       		.uleb128 0x2
 8416 21ee 71       		.byte	0x71
 8417 21ef 00       		.sleb128 0
 8418 21f0 42       		.uleb128 0x42
 8419 21f1 01       		.uleb128 0x1
 8420 21f2 52       		.byte	0x52
 8421 21f3 02       		.uleb128 0x2
 8422 21f4 74       		.byte	0x74
 8423 21f5 00       		.sleb128 0
 8424 21f6 00       		.byte	0
 8425 21f7 00       		.byte	0
 8426 21f8 36       		.uleb128 0x36
 8427 21f9 78040000 		.4byte	.Ldebug_ranges0+0x478
 8428 21fd 23230000 		.4byte	0x2323
 8429 2201 37       		.uleb128 0x37
 8430 2202 72657400 		.ascii	"ret\000"
 8431 2206 01       		.byte	0x1
 8432 2207 8901     		.2byte	0x189
 8433 2209 F0000000 		.4byte	0xf0
 8434 220d 6C190000 		.4byte	.LLST203
 8435 2211 3E       		.uleb128 0x3e
ARM GAS  /tmp/cc2f1tkm.s 			page 149


 8436 2212 2F0E0000 		.4byte	0xe2f
 8437 2216 2A050000 		.4byte	.LBB488
 8438 221a 2A000000 		.4byte	.LBE488-.LBB488
 8439 221e 01       		.byte	0x1
 8440 221f 9101     		.2byte	0x191
 8441 2221 77220000 		.4byte	0x2277
 8442 2225 3A       		.uleb128 0x3a
 8443 2226 580E0000 		.4byte	0xe58
 8444 222a 7F190000 		.4byte	.LLST204
 8445 222e 3A       		.uleb128 0x3a
 8446 222f 4C0E0000 		.4byte	0xe4c
 8447 2233 B9190000 		.4byte	.LLST205
 8448 2237 3A       		.uleb128 0x3a
 8449 2238 400E0000 		.4byte	0xe40
 8450 223c D9190000 		.4byte	.LLST206
 8451 2240 3F       		.uleb128 0x3f
 8452 2241 9D0E0000 		.4byte	0xe9d
 8453 2245 2A050000 		.4byte	.LBB490
 8454 2249 90040000 		.4byte	.Ldebug_ranges0+0x490
 8455 224d 01       		.byte	0x1
 8456 224e F705     		.2byte	0x5f7
 8457 2250 3A       		.uleb128 0x3a
 8458 2251 BA0E0000 		.4byte	0xeba
 8459 2255 EC190000 		.4byte	.LLST207
 8460 2259 3A       		.uleb128 0x3a
 8461 225a AE0E0000 		.4byte	0xeae
 8462 225e 0C1A0000 		.4byte	.LLST208
 8463 2262 4C       		.uleb128 0x4c
 8464 2263 C60E0000 		.4byte	0xec6
 8465 2267 A8040000 		.4byte	.Ldebug_ranges0+0x4a8
 8466 226b 3D       		.uleb128 0x3d
 8467 226c C70E0000 		.4byte	0xec7
 8468 2270 351A0000 		.4byte	.LLST209
 8469 2274 00       		.byte	0
 8470 2275 00       		.byte	0
 8471 2276 00       		.byte	0
 8472 2277 40       		.uleb128 0x40
 8473 2278 4C130000 		.4byte	0x134c
 8474 227c 54050000 		.4byte	.LBB496
 8475 2280 C0040000 		.4byte	.Ldebug_ranges0+0x4c0
 8476 2284 01       		.byte	0x1
 8477 2285 8D01     		.2byte	0x18d
 8478 2287 E8220000 		.4byte	0x22e8
 8479 228b 4A       		.uleb128 0x4a
 8480 228c 69130000 		.4byte	0x1369
 8481 2290 4A       		.uleb128 0x4a
 8482 2291 5D130000 		.4byte	0x135d
 8483 2295 4E       		.uleb128 0x4e
 8484 2296 75130000 		.4byte	0x1375
 8485 229a 58050000 		.4byte	.LBB498
 8486 229e 12000000 		.4byte	.LBE498-.LBB498
 8487 22a2 3D       		.uleb128 0x3d
 8488 22a3 76130000 		.4byte	0x1376
 8489 22a7 581A0000 		.4byte	.LLST210
 8490 22ab 3F       		.uleb128 0x3f
 8491 22ac 7F0D0000 		.4byte	0xd7f
 8492 22b0 58050000 		.4byte	.LBB499
ARM GAS  /tmp/cc2f1tkm.s 			page 150


 8493 22b4 D8040000 		.4byte	.Ldebug_ranges0+0x4d8
 8494 22b8 01       		.byte	0x1
 8495 22b9 B004     		.2byte	0x4b0
 8496 22bb 3A       		.uleb128 0x3a
 8497 22bc 8C0D0000 		.4byte	0xd8c
 8498 22c0 6B1A0000 		.4byte	.LLST211
 8499 22c4 3A       		.uleb128 0x3a
 8500 22c5 8C0D0000 		.4byte	0xd8c
 8501 22c9 6B1A0000 		.4byte	.LLST211
 8502 22cd 3A       		.uleb128 0x3a
 8503 22ce 980D0000 		.4byte	0xd98
 8504 22d2 801A0000 		.4byte	.LLST213
 8505 22d6 32       		.uleb128 0x32
 8506 22d7 D8040000 		.4byte	.Ldebug_ranges0+0x4d8
 8507 22db 3D       		.uleb128 0x3d
 8508 22dc A20D0000 		.4byte	0xda2
 8509 22e0 931A0000 		.4byte	.LLST214
 8510 22e4 00       		.byte	0
 8511 22e5 00       		.byte	0
 8512 22e6 00       		.byte	0
 8513 22e7 00       		.byte	0
 8514 22e8 40       		.uleb128 0x40
 8515 22e9 0C150000 		.4byte	0x150c
 8516 22ed 70050000 		.4byte	.LBB504
 8517 22f1 F0040000 		.4byte	.Ldebug_ranges0+0x4f0
 8518 22f5 01       		.byte	0x1
 8519 22f6 8E01     		.2byte	0x18e
 8520 22f8 06230000 		.4byte	0x2306
 8521 22fc 3A       		.uleb128 0x3a
 8522 22fd 19150000 		.4byte	0x1519
 8523 2301 A61A0000 		.4byte	.LLST215
 8524 2305 00       		.byte	0
 8525 2306 41       		.uleb128 0x41
 8526 2307 1A050000 		.4byte	.LVL367
 8527 230b 67110000 		.4byte	0x1167
 8528 230f 42       		.uleb128 0x42
 8529 2310 01       		.uleb128 0x1
 8530 2311 50       		.byte	0x50
 8531 2312 02       		.uleb128 0x2
 8532 2313 75       		.byte	0x75
 8533 2314 0C       		.sleb128 12
 8534 2315 42       		.uleb128 0x42
 8535 2316 01       		.uleb128 0x1
 8536 2317 51       		.byte	0x51
 8537 2318 02       		.uleb128 0x2
 8538 2319 71       		.byte	0x71
 8539 231a 00       		.sleb128 0
 8540 231b 42       		.uleb128 0x42
 8541 231c 01       		.uleb128 0x1
 8542 231d 52       		.byte	0x52
 8543 231e 02       		.uleb128 0x2
 8544 231f 74       		.byte	0x74
 8545 2320 00       		.sleb128 0
 8546 2321 00       		.byte	0
 8547 2322 00       		.byte	0
 8548 2323 36       		.uleb128 0x36
 8549 2324 90030000 		.4byte	.Ldebug_ranges0+0x390
ARM GAS  /tmp/cc2f1tkm.s 			page 151


 8550 2328 D9240000 		.4byte	0x24d9
 8551 232c 33       		.uleb128 0x33
 8552 232d 75050000 		.4byte	.LASF308
 8553 2331 01       		.byte	0x1
 8554 2332 9601     		.2byte	0x196
 8555 2334 E0000000 		.4byte	0xe0
 8556 2338 B91A0000 		.4byte	.LLST170
 8557 233c 33       		.uleb128 0x33
 8558 233d B70F0000 		.4byte	.LASF309
 8559 2341 01       		.byte	0x1
 8560 2342 9801     		.2byte	0x198
 8561 2344 D5000000 		.4byte	0xd5
 8562 2348 FC1A0000 		.4byte	.LLST171
 8563 234c 31       		.uleb128 0x31
 8564 234d 6D0F0000 		.4byte	.LASF307
 8565 2351 01       		.byte	0x1
 8566 2352 BE01     		.2byte	0x1be
 8567 2354 5D020000 		.4byte	0x25d
 8568 2358 03       		.uleb128 0x3
 8569 2359 91       		.byte	0x91
 8570 235a B87F     		.sleb128 -72
 8571 235c 36       		.uleb128 0x36
 8572 235d B8030000 		.4byte	.Ldebug_ranges0+0x3b8
 8573 2361 74230000 		.4byte	0x2374
 8574 2365 37       		.uleb128 0x37
 8575 2366 6900     		.ascii	"i\000"
 8576 2368 01       		.byte	0x1
 8577 2369 9D01     		.2byte	0x19d
 8578 236b 36010000 		.4byte	0x136
 8579 236f 851B0000 		.4byte	.LLST172
 8580 2373 00       		.byte	0
 8581 2374 36       		.uleb128 0x36
 8582 2375 00040000 		.4byte	.Ldebug_ranges0+0x400
 8583 2379 CC230000 		.4byte	0x23cc
 8584 237d 33       		.uleb128 0x33
 8585 237e 300C0000 		.4byte	.LASF190
 8586 2382 01       		.byte	0x1
 8587 2383 A701     		.2byte	0x1a7
 8588 2385 4C050000 		.4byte	0x54c
 8589 2389 B21B0000 		.4byte	.LLST185
 8590 238d 32       		.uleb128 0x32
 8591 238e 18040000 		.4byte	.Ldebug_ranges0+0x418
 8592 2392 33       		.uleb128 0x33
 8593 2393 06060000 		.4byte	.LASF221
 8594 2397 01       		.byte	0x1
 8595 2398 AA01     		.2byte	0x1aa
 8596 239a 36010000 		.4byte	0x136
 8597 239e DD1B0000 		.4byte	.LLST186
 8598 23a2 33       		.uleb128 0x33
 8599 23a3 720D0000 		.4byte	.LASF310
 8600 23a7 01       		.byte	0x1
 8601 23a8 B201     		.2byte	0x1b2
 8602 23aa 41010000 		.4byte	0x141
 8603 23ae 081C0000 		.4byte	.LLST187
 8604 23b2 3B       		.uleb128 0x3b
 8605 23b3 78040000 		.4byte	.LBB461
 8606 23b7 4C000000 		.4byte	.LBE461-.LBB461
ARM GAS  /tmp/cc2f1tkm.s 			page 152


 8607 23bb 37       		.uleb128 0x37
 8608 23bc 6900     		.ascii	"i\000"
 8609 23be 01       		.byte	0x1
 8610 23bf B501     		.2byte	0x1b5
 8611 23c1 36010000 		.4byte	0x136
 8612 23c5 081C0000 		.4byte	.LLST187
 8613 23c9 00       		.byte	0
 8614 23ca 00       		.byte	0
 8615 23cb 00       		.byte	0
 8616 23cc 3E       		.uleb128 0x3e
 8617 23cd 2F0E0000 		.4byte	0xe2f
 8618 23d1 12030000 		.4byte	.LBB444
 8619 23d5 2A000000 		.4byte	.LBE444-.LBB444
 8620 23d9 01       		.byte	0x1
 8621 23da CE01     		.2byte	0x1ce
 8622 23dc 32240000 		.4byte	0x2432
 8623 23e0 3A       		.uleb128 0x3a
 8624 23e1 580E0000 		.4byte	0xe58
 8625 23e5 1B1C0000 		.4byte	.LLST173
 8626 23e9 3A       		.uleb128 0x3a
 8627 23ea 4C0E0000 		.4byte	0xe4c
 8628 23ee 4F1C0000 		.4byte	.LLST174
 8629 23f2 3A       		.uleb128 0x3a
 8630 23f3 400E0000 		.4byte	0xe40
 8631 23f7 6F1C0000 		.4byte	.LLST175
 8632 23fb 3F       		.uleb128 0x3f
 8633 23fc 9D0E0000 		.4byte	0xe9d
 8634 2400 12030000 		.4byte	.LBB446
 8635 2404 D0030000 		.4byte	.Ldebug_ranges0+0x3d0
 8636 2408 01       		.byte	0x1
 8637 2409 F705     		.2byte	0x5f7
 8638 240b 3A       		.uleb128 0x3a
 8639 240c BA0E0000 		.4byte	0xeba
 8640 2410 821C0000 		.4byte	.LLST176
 8641 2414 3A       		.uleb128 0x3a
 8642 2415 AE0E0000 		.4byte	0xeae
 8643 2419 A21C0000 		.4byte	.LLST177
 8644 241d 4C       		.uleb128 0x4c
 8645 241e C60E0000 		.4byte	0xec6
 8646 2422 E8030000 		.4byte	.Ldebug_ranges0+0x3e8
 8647 2426 3D       		.uleb128 0x3d
 8648 2427 C70E0000 		.4byte	0xec7
 8649 242b CB1C0000 		.4byte	.LLST178
 8650 242f 00       		.byte	0
 8651 2430 00       		.byte	0
 8652 2431 00       		.byte	0
 8653 2432 3E       		.uleb128 0x3e
 8654 2433 CF180000 		.4byte	0x18cf
 8655 2437 90030000 		.4byte	.LBB452
 8656 243b 1E000000 		.4byte	.LBE452-.LBB452
 8657 243f 01       		.byte	0x1
 8658 2440 D501     		.2byte	0x1d5
 8659 2442 A7240000 		.4byte	0x24a7
 8660 2446 4A       		.uleb128 0x4a
 8661 2447 E8180000 		.4byte	0x18e8
 8662 244b 4A       		.uleb128 0x4a
 8663 244c DC180000 		.4byte	0x18dc
ARM GAS  /tmp/cc2f1tkm.s 			page 153


 8664 2450 4E       		.uleb128 0x4e
 8665 2451 F4180000 		.4byte	0x18f4
 8666 2455 9C030000 		.4byte	.LBB454
 8667 2459 0C000000 		.4byte	.LBE454-.LBB454
 8668 245d 3D       		.uleb128 0x3d
 8669 245e F5180000 		.4byte	0x18f5
 8670 2462 EE1C0000 		.4byte	.LLST179
 8671 2466 39       		.uleb128 0x39
 8672 2467 7F0D0000 		.4byte	0xd7f
 8673 246b 9E030000 		.4byte	.LBB455
 8674 246f 0A000000 		.4byte	.LBE455-.LBB455
 8675 2473 01       		.byte	0x1
 8676 2474 F202     		.2byte	0x2f2
 8677 2476 3A       		.uleb128 0x3a
 8678 2477 8C0D0000 		.4byte	0xd8c
 8679 247b 0C1D0000 		.4byte	.LLST180
 8680 247f 3A       		.uleb128 0x3a
 8681 2480 8C0D0000 		.4byte	0xd8c
 8682 2484 0C1D0000 		.4byte	.LLST180
 8683 2488 3A       		.uleb128 0x3a
 8684 2489 980D0000 		.4byte	0xd98
 8685 248d 2E1D0000 		.4byte	.LLST182
 8686 2491 3B       		.uleb128 0x3b
 8687 2492 9E030000 		.4byte	.LBB456
 8688 2496 0A000000 		.4byte	.LBE456-.LBB456
 8689 249a 3D       		.uleb128 0x3d
 8690 249b A20D0000 		.4byte	0xda2
 8691 249f 411D0000 		.4byte	.LLST183
 8692 24a3 00       		.byte	0
 8693 24a4 00       		.byte	0
 8694 24a5 00       		.byte	0
 8695 24a6 00       		.byte	0
 8696 24a7 3E       		.uleb128 0x3e
 8697 24a8 0C150000 		.4byte	0x150c
 8698 24ac AE030000 		.4byte	.LBB457
 8699 24b0 22000000 		.4byte	.LBE457-.LBB457
 8700 24b4 01       		.byte	0x1
 8701 24b5 D601     		.2byte	0x1d6
 8702 24b7 C5240000 		.4byte	0x24c5
 8703 24bb 3A       		.uleb128 0x3a
 8704 24bc 19150000 		.4byte	0x1519
 8705 24c0 5F1D0000 		.4byte	.LLST184
 8706 24c4 00       		.byte	0
 8707 24c5 55       		.uleb128 0x55
 8708 24c6 90030000 		.4byte	.LVL322
 8709 24ca 42       		.uleb128 0x42
 8710 24cb 01       		.uleb128 0x1
 8711 24cc 50       		.byte	0x50
 8712 24cd 02       		.uleb128 0x2
 8713 24ce 75       		.byte	0x75
 8714 24cf 00       		.sleb128 0
 8715 24d0 42       		.uleb128 0x42
 8716 24d1 01       		.uleb128 0x1
 8717 24d2 51       		.byte	0x51
 8718 24d3 03       		.uleb128 0x3
 8719 24d4 91       		.byte	0x91
 8720 24d5 B87F     		.sleb128 -72
ARM GAS  /tmp/cc2f1tkm.s 			page 154


 8721 24d7 00       		.byte	0
 8722 24d8 00       		.byte	0
 8723 24d9 56       		.uleb128 0x56
 8724 24da B8140000 		.4byte	0x14b8
 8725 24de 06000000 		.4byte	.LBB395
 8726 24e2 B8020000 		.4byte	.Ldebug_ranges0+0x2b8
 8727 24e6 01       		.byte	0x1
 8728 24e7 FD       		.byte	0xfd
 8729 24e8 05250000 		.4byte	0x2505
 8730 24ec 3A       		.uleb128 0x3a
 8731 24ed C9140000 		.4byte	0x14c9
 8732 24f1 721D0000 		.4byte	.LLST141
 8733 24f5 32       		.uleb128 0x32
 8734 24f6 B8020000 		.4byte	.Ldebug_ranges0+0x2b8
 8735 24fa 3D       		.uleb128 0x3d
 8736 24fb D4140000 		.4byte	0x14d4
 8737 24ff BC1D0000 		.4byte	.LLST142
 8738 2503 00       		.byte	0
 8739 2504 00       		.byte	0
 8740 2505 40       		.uleb128 0x40
 8741 2506 E1140000 		.4byte	0x14e1
 8742 250a 50000000 		.4byte	.LBB399
 8743 250e D0020000 		.4byte	.Ldebug_ranges0+0x2d0
 8744 2512 01       		.byte	0x1
 8745 2513 1401     		.2byte	0x114
 8746 2515 6B250000 		.4byte	0x256b
 8747 2519 3A       		.uleb128 0x3a
 8748 251a F2140000 		.4byte	0x14f2
 8749 251e 4B1E0000 		.4byte	.LLST143
 8750 2522 3E       		.uleb128 0x3e
 8751 2523 B8140000 		.4byte	0x14b8
 8752 2527 50000000 		.4byte	.LBB401
 8753 252b 06000000 		.4byte	.LBE401-.LBB401
 8754 252f 01       		.byte	0x1
 8755 2530 3104     		.2byte	0x431
 8756 2532 53250000 		.4byte	0x2553
 8757 2536 3A       		.uleb128 0x3a
 8758 2537 C9140000 		.4byte	0x14c9
 8759 253b 691E0000 		.4byte	.LLST144
 8760 253f 3B       		.uleb128 0x3b
 8761 2540 50000000 		.4byte	.LBB402
 8762 2544 06000000 		.4byte	.LBE402-.LBB402
 8763 2548 3D       		.uleb128 0x3d
 8764 2549 D4140000 		.4byte	0x14d4
 8765 254d 7C1E0000 		.4byte	.LLST145
 8766 2551 00       		.byte	0
 8767 2552 00       		.byte	0
 8768 2553 4E       		.uleb128 0x4e
 8769 2554 FD140000 		.4byte	0x14fd
 8770 2558 20020000 		.4byte	.LBB403
 8771 255c 10000000 		.4byte	.LBE403-.LBB403
 8772 2560 3D       		.uleb128 0x3d
 8773 2561 FE140000 		.4byte	0x14fe
 8774 2565 FC1E0000 		.4byte	.LLST146
 8775 2569 00       		.byte	0
 8776 256a 00       		.byte	0
 8777 256b 40       		.uleb128 0x40
ARM GAS  /tmp/cc2f1tkm.s 			page 155


 8778 256c 1F170000 		.4byte	0x171f
 8779 2570 20010000 		.4byte	.LBB422
 8780 2574 48030000 		.4byte	.Ldebug_ranges0+0x348
 8781 2578 01       		.byte	0x1
 8782 2579 4101     		.2byte	0x141
 8783 257b A1250000 		.4byte	0x25a1
 8784 257f 3A       		.uleb128 0x3a
 8785 2580 3A170000 		.4byte	0x173a
 8786 2584 0F1F0000 		.4byte	.LLST159
 8787 2588 3A       		.uleb128 0x3a
 8788 2589 30170000 		.4byte	0x1730
 8789 258d 221F0000 		.4byte	.LLST160
 8790 2591 32       		.uleb128 0x32
 8791 2592 48030000 		.4byte	.Ldebug_ranges0+0x348
 8792 2596 3D       		.uleb128 0x3d
 8793 2597 44170000 		.4byte	0x1744
 8794 259b 3F1F0000 		.4byte	.LLST161
 8795 259f 00       		.byte	0
 8796 25a0 00       		.byte	0
 8797 25a1 40       		.uleb128 0x40
 8798 25a2 4C130000 		.4byte	0x134c
 8799 25a6 70010000 		.4byte	.LBB426
 8800 25aa 60030000 		.4byte	.Ldebug_ranges0+0x360
 8801 25ae 01       		.byte	0x1
 8802 25af 4C01     		.2byte	0x14c
 8803 25b1 1E260000 		.4byte	0x261e
 8804 25b5 3A       		.uleb128 0x3a
 8805 25b6 69130000 		.4byte	0x1369
 8806 25ba 521F0000 		.4byte	.LLST162
 8807 25be 3A       		.uleb128 0x3a
 8808 25bf 5D130000 		.4byte	0x135d
 8809 25c3 7B1F0000 		.4byte	.LLST163
 8810 25c7 4E       		.uleb128 0x4e
 8811 25c8 75130000 		.4byte	0x1375
 8812 25cc 90010000 		.4byte	.LBB428
 8813 25d0 0C000000 		.4byte	.LBE428-.LBB428
 8814 25d4 3D       		.uleb128 0x3d
 8815 25d5 76130000 		.4byte	0x1376
 8816 25d9 A41F0000 		.4byte	.LLST164
 8817 25dd 39       		.uleb128 0x39
 8818 25de 7F0D0000 		.4byte	0xd7f
 8819 25e2 92010000 		.4byte	.LBB429
 8820 25e6 0A000000 		.4byte	.LBE429-.LBB429
 8821 25ea 01       		.byte	0x1
 8822 25eb B004     		.2byte	0x4b0
 8823 25ed 3A       		.uleb128 0x3a
 8824 25ee 8C0D0000 		.4byte	0xd8c
 8825 25f2 C21F0000 		.4byte	.LLST165
 8826 25f6 3A       		.uleb128 0x3a
 8827 25f7 8C0D0000 		.4byte	0xd8c
 8828 25fb C21F0000 		.4byte	.LLST165
 8829 25ff 3A       		.uleb128 0x3a
 8830 2600 980D0000 		.4byte	0xd98
 8831 2604 E41F0000 		.4byte	.LLST167
 8832 2608 3B       		.uleb128 0x3b
 8833 2609 92010000 		.4byte	.LBB430
 8834 260d 0A000000 		.4byte	.LBE430-.LBB430
ARM GAS  /tmp/cc2f1tkm.s 			page 156


 8835 2611 3D       		.uleb128 0x3d
 8836 2612 A20D0000 		.4byte	0xda2
 8837 2616 F71F0000 		.4byte	.LLST168
 8838 261a 00       		.byte	0
 8839 261b 00       		.byte	0
 8840 261c 00       		.byte	0
 8841 261d 00       		.byte	0
 8842 261e 39       		.uleb128 0x39
 8843 261f 58140000 		.4byte	0x1458
 8844 2623 3E030000 		.4byte	.LBB465
 8845 2627 1E000000 		.4byte	.LBE465-.LBB465
 8846 262b 01       		.byte	0x1
 8847 262c 3201     		.2byte	0x132
 8848 262e 3A       		.uleb128 0x3a
 8849 262f 75140000 		.4byte	0x1475
 8850 2633 15200000 		.4byte	.LLST189
 8851 2637 3A       		.uleb128 0x3a
 8852 2638 69140000 		.4byte	0x1469
 8853 263c 28200000 		.4byte	.LLST190
 8854 2640 00       		.byte	0
 8855 2641 00       		.byte	0
 8856 2642 11       		.uleb128 0x11
 8857 2643 04       		.byte	0x4
 8858 2644 8D010000 		.4byte	0x18d
 8859 2648 4F       		.uleb128 0x4f
 8860 2649 110B0000 		.4byte	.LASF311
 8861 264d 01       		.byte	0x1
 8862 264e F4       		.byte	0xf4
 8863 264f 00000000 		.4byte	.LFB7
 8864 2653 1A000000 		.4byte	.LFE7-.LFB7
 8865 2657 01       		.uleb128 0x1
 8866 2658 9C       		.byte	0x9c
 8867 2659 B0260000 		.4byte	0x26b0
 8868 265d 57       		.uleb128 0x57
 8869 265e 696E7300 		.ascii	"ins\000"
 8870 2662 01       		.byte	0x1
 8871 2663 F4       		.byte	0xf4
 8872 2664 36040000 		.4byte	0x436
 8873 2668 01       		.uleb128 0x1
 8874 2669 50       		.byte	0x50
 8875 266a 52       		.uleb128 0x52
 8876 266b F40E0000 		.4byte	.LASF262
 8877 266f 01       		.byte	0x1
 8878 2670 F6       		.byte	0xf6
 8879 2671 5D050000 		.4byte	0x55d
 8880 2675 01       		.uleb128 0x1
 8881 2676 52       		.byte	0x52
 8882 2677 58       		.uleb128 0x58
 8883 2678 7F0D0000 		.4byte	0xd7f
 8884 267c 02000000 		.4byte	.LBB311
 8885 2680 90020000 		.4byte	.Ldebug_ranges0+0x290
 8886 2684 01       		.byte	0x1
 8887 2685 F8       		.byte	0xf8
 8888 2686 59       		.uleb128 0x59
 8889 2687 8C0D0000 		.4byte	0xd8c
 8890 268b 03       		.uleb128 0x3
 8891 268c 70       		.byte	0x70
ARM GAS  /tmp/cc2f1tkm.s 			page 157


 8892 268d 0C       		.sleb128 12
 8893 268e 9F       		.byte	0x9f
 8894 268f 59       		.uleb128 0x59
 8895 2690 8C0D0000 		.4byte	0xd8c
 8896 2694 03       		.uleb128 0x3
 8897 2695 70       		.byte	0x70
 8898 2696 0C       		.sleb128 12
 8899 2697 9F       		.byte	0x9f
 8900 2698 3A       		.uleb128 0x3a
 8901 2699 980D0000 		.4byte	0xd98
 8902 269d 3B200000 		.4byte	.LLST126
 8903 26a1 32       		.uleb128 0x32
 8904 26a2 90020000 		.4byte	.Ldebug_ranges0+0x290
 8905 26a6 5A       		.uleb128 0x5a
 8906 26a7 A20D0000 		.4byte	0xda2
 8907 26ab 01       		.uleb128 0x1
 8908 26ac 52       		.byte	0x52
 8909 26ad 00       		.byte	0
 8910 26ae 00       		.byte	0
 8911 26af 00       		.byte	0
 8912 26b0 5B       		.uleb128 0x5b
 8913 26b1 E4050000 		.4byte	.LASF312
 8914 26b5 01       		.byte	0x1
 8915 26b6 EB       		.byte	0xeb
 8916 26b7 42260000 		.4byte	0x2642
 8917 26bb 00000000 		.4byte	.LFB6
 8918 26bf 08000000 		.4byte	.LFE6-.LFB6
 8919 26c3 01       		.uleb128 0x1
 8920 26c4 9C       		.byte	0x9c
 8921 26c5 D9260000 		.4byte	0x26d9
 8922 26c9 50       		.uleb128 0x50
 8923 26ca 696E7300 		.ascii	"ins\000"
 8924 26ce 01       		.byte	0x1
 8925 26cf EB       		.byte	0xeb
 8926 26d0 09040000 		.4byte	0x409
 8927 26d4 4E200000 		.4byte	.LLST125
 8928 26d8 00       		.byte	0
 8929 26d9 5B       		.uleb128 0x5b
 8930 26da 4D080000 		.4byte	.LASF313
 8931 26de 01       		.byte	0x1
 8932 26df BF       		.byte	0xbf
 8933 26e0 E5000000 		.4byte	0xe5
 8934 26e4 00000000 		.4byte	.LFB5
 8935 26e8 02010000 		.4byte	.LFE5-.LFB5
 8936 26ec 01       		.uleb128 0x1
 8937 26ed 9C       		.byte	0x9c
 8938 26ee D9280000 		.4byte	0x28d9
 8939 26f2 50       		.uleb128 0x50
 8940 26f3 696E7300 		.ascii	"ins\000"
 8941 26f7 01       		.byte	0x1
 8942 26f8 BF       		.byte	0xbf
 8943 26f9 36040000 		.4byte	0x436
 8944 26fd 6F200000 		.4byte	.LLST101
 8945 2701 51       		.uleb128 0x51
 8946 2702 EE0B0000 		.4byte	.LASF299
 8947 2706 01       		.byte	0x1
 8948 2707 C0       		.byte	0xc0
ARM GAS  /tmp/cc2f1tkm.s 			page 158


 8949 2708 D5000000 		.4byte	0xd5
 8950 270c C2200000 		.4byte	.LLST102
 8951 2710 51       		.uleb128 0x51
 8952 2711 5B090000 		.4byte	.LASF201
 8953 2715 01       		.byte	0x1
 8954 2716 C1       		.byte	0xc1
 8955 2717 2B010000 		.4byte	0x12b
 8956 271b EE200000 		.4byte	.LLST103
 8957 271f 51       		.uleb128 0x51
 8958 2720 77020000 		.4byte	.LASF51
 8959 2724 01       		.byte	0x1
 8960 2725 C2       		.byte	0xc2
 8961 2726 D5000000 		.4byte	0xd5
 8962 272a 46210000 		.4byte	.LLST104
 8963 272e 51       		.uleb128 0x51
 8964 272f DC010000 		.4byte	.LASF314
 8965 2733 01       		.byte	0x1
 8966 2734 C3       		.byte	0xc3
 8967 2735 290F0000 		.4byte	0xf29
 8968 2739 66210000 		.4byte	.LLST105
 8969 273d 51       		.uleb128 0x51
 8970 273e B90B0000 		.4byte	.LASF54
 8971 2742 01       		.byte	0x1
 8972 2743 C4       		.byte	0xc4
 8973 2744 D5000000 		.4byte	0xd5
 8974 2748 86210000 		.4byte	.LLST106
 8975 274c 51       		.uleb128 0x51
 8976 274d D4040000 		.4byte	.LASF315
 8977 2751 01       		.byte	0x1
 8978 2752 C5       		.byte	0xc5
 8979 2753 DC010000 		.4byte	0x1dc
 8980 2757 A6210000 		.4byte	.LLST107
 8981 275b 51       		.uleb128 0x51
 8982 275c F6050000 		.4byte	.LASF268
 8983 2760 01       		.byte	0x1
 8984 2761 C6       		.byte	0xc6
 8985 2762 ED190000 		.4byte	0x19ed
 8986 2766 C6210000 		.4byte	.LLST108
 8987 276a 51       		.uleb128 0x51
 8988 276b 06080000 		.4byte	.LASF50
 8989 276f 01       		.byte	0x1
 8990 2770 C7       		.byte	0xc7
 8991 2771 F5000000 		.4byte	0xf5
 8992 2775 E6210000 		.4byte	.LLST109
 8993 2779 53       		.uleb128 0x53
 8994 277a B00C0000 		.4byte	.LASF267
 8995 277e 01       		.byte	0x1
 8996 277f D6       		.byte	0xd6
 8997 2780 1B010000 		.4byte	0x11b
 8998 2784 06220000 		.4byte	.LLST110
 8999 2788 5C       		.uleb128 0x5c
 9000 2789 63726300 		.ascii	"crc\000"
 9001 278d 01       		.byte	0x1
 9002 278e D9       		.byte	0xd9
 9003 278f F5000000 		.4byte	0xf5
 9004 2793 24220000 		.4byte	.LLST111
 9005 2797 53       		.uleb128 0x53
ARM GAS  /tmp/cc2f1tkm.s 			page 159


 9006 2798 6E040000 		.4byte	.LASF191
 9007 279c 01       		.byte	0x1
 9008 279d E1       		.byte	0xe1
 9009 279e F0000000 		.4byte	0xf0
 9010 27a2 51220000 		.4byte	.LLST112
 9011 27a6 5D       		.uleb128 0x5d
 9012 27a7 3F2B0000 		.4byte	0x2b3f
 9013 27ab 24000000 		.4byte	.LBB291
 9014 27af 02000000 		.4byte	.LBE291-.LBB291
 9015 27b3 01       		.byte	0x1
 9016 27b4 D1       		.byte	0xd1
 9017 27b5 C3270000 		.4byte	0x27c3
 9018 27b9 3A       		.uleb128 0x3a
 9019 27ba 4F2B0000 		.4byte	0x2b4f
 9020 27be 64220000 		.4byte	.LLST113
 9021 27c2 00       		.byte	0
 9022 27c3 5D       		.uleb128 0x5d
 9023 27c4 05170000 		.4byte	0x1705
 9024 27c8 58000000 		.4byte	.LBB293
 9025 27cc 12000000 		.4byte	.LBE293-.LBB293
 9026 27d0 01       		.byte	0x1
 9027 27d1 E5       		.byte	0xe5
 9028 27d2 E0270000 		.4byte	0x27e0
 9029 27d6 3A       		.uleb128 0x3a
 9030 27d7 12170000 		.4byte	0x1712
 9031 27db 77220000 		.4byte	.LLST114
 9032 27df 00       		.byte	0
 9033 27e0 5D       		.uleb128 0x5d
 9034 27e1 650E0000 		.4byte	0xe65
 9035 27e5 78000000 		.4byte	.LBB295
 9036 27e9 4C000000 		.4byte	.LBE295-.LBB295
 9037 27ed 01       		.byte	0x1
 9038 27ee DD       		.byte	0xdd
 9039 27ef 4B280000 		.4byte	0x284b
 9040 27f3 4A       		.uleb128 0x4a
 9041 27f4 820E0000 		.4byte	0xe82
 9042 27f8 3A       		.uleb128 0x3a
 9043 27f9 760E0000 		.4byte	0xe76
 9044 27fd 8B220000 		.4byte	.LLST115
 9045 2801 4E       		.uleb128 0x4e
 9046 2802 8E0E0000 		.4byte	0xe8e
 9047 2806 78000000 		.4byte	.LBB296
 9048 280a 4C000000 		.4byte	.LBE296-.LBB296
 9049 280e 3D       		.uleb128 0x3d
 9050 280f 8F0E0000 		.4byte	0xe8f
 9051 2813 A9220000 		.4byte	.LLST116
 9052 2817 3F       		.uleb128 0x3f
 9053 2818 9D0E0000 		.4byte	0xe9d
 9054 281c 78000000 		.4byte	.LBB297
 9055 2820 30020000 		.4byte	.Ldebug_ranges0+0x230
 9056 2824 01       		.byte	0x1
 9057 2825 EE05     		.2byte	0x5ee
 9058 2827 4A       		.uleb128 0x4a
 9059 2828 BA0E0000 		.4byte	0xeba
 9060 282c 3A       		.uleb128 0x3a
 9061 282d AE0E0000 		.4byte	0xeae
 9062 2831 C9220000 		.4byte	.LLST117
ARM GAS  /tmp/cc2f1tkm.s 			page 160


 9063 2835 4C       		.uleb128 0x4c
 9064 2836 C60E0000 		.4byte	0xec6
 9065 283a 48020000 		.4byte	.Ldebug_ranges0+0x248
 9066 283e 3D       		.uleb128 0x3d
 9067 283f C70E0000 		.4byte	0xec7
 9068 2843 F2220000 		.4byte	.LLST118
 9069 2847 00       		.byte	0
 9070 2848 00       		.byte	0
 9071 2849 00       		.byte	0
 9072 284a 00       		.byte	0
 9073 284b 5D       		.uleb128 0x5d
 9074 284c 2F0E0000 		.4byte	0xe2f
 9075 2850 C6000000 		.4byte	.LBB303
 9076 2854 2A000000 		.4byte	.LBE303-.LBB303
 9077 2858 01       		.byte	0x1
 9078 2859 DE       		.byte	0xde
 9079 285a B0280000 		.4byte	0x28b0
 9080 285e 3A       		.uleb128 0x3a
 9081 285f 580E0000 		.4byte	0xe58
 9082 2863 15230000 		.4byte	.LLST119
 9083 2867 3A       		.uleb128 0x3a
 9084 2868 4C0E0000 		.4byte	0xe4c
 9085 286c 2E230000 		.4byte	.LLST120
 9086 2870 3A       		.uleb128 0x3a
 9087 2871 400E0000 		.4byte	0xe40
 9088 2875 59230000 		.4byte	.LLST121
 9089 2879 3F       		.uleb128 0x3f
 9090 287a 9D0E0000 		.4byte	0xe9d
 9091 287e C6000000 		.4byte	.LBB305
 9092 2882 60020000 		.4byte	.Ldebug_ranges0+0x260
 9093 2886 01       		.byte	0x1
 9094 2887 F705     		.2byte	0x5f7
 9095 2889 3A       		.uleb128 0x3a
 9096 288a BA0E0000 		.4byte	0xeba
 9097 288e 6C230000 		.4byte	.LLST122
 9098 2892 3A       		.uleb128 0x3a
 9099 2893 AE0E0000 		.4byte	0xeae
 9100 2897 8C230000 		.4byte	.LLST123
 9101 289b 4C       		.uleb128 0x4c
 9102 289c C60E0000 		.4byte	0xec6
 9103 28a0 78020000 		.4byte	.Ldebug_ranges0+0x278
 9104 28a4 3D       		.uleb128 0x3d
 9105 28a5 C70E0000 		.4byte	0xec7
 9106 28a9 B5230000 		.4byte	.LLST124
 9107 28ad 00       		.byte	0
 9108 28ae 00       		.byte	0
 9109 28af 00       		.byte	0
 9110 28b0 41       		.uleb128 0x41
 9111 28b1 54000000 		.4byte	.LVL206
 9112 28b5 4F160000 		.4byte	0x164f
 9113 28b9 42       		.uleb128 0x42
 9114 28ba 01       		.uleb128 0x1
 9115 28bb 52       		.byte	0x52
 9116 28bc 03       		.uleb128 0x3
 9117 28bd 91       		.byte	0x91
 9118 28be 04       		.sleb128 4
 9119 28bf 06       		.byte	0x6
ARM GAS  /tmp/cc2f1tkm.s 			page 161


 9120 28c0 42       		.uleb128 0x42
 9121 28c1 01       		.uleb128 0x1
 9122 28c2 53       		.byte	0x53
 9123 28c3 02       		.uleb128 0x2
 9124 28c4 74       		.byte	0x74
 9125 28c5 00       		.sleb128 0
 9126 28c6 42       		.uleb128 0x42
 9127 28c7 02       		.uleb128 0x2
 9128 28c8 7D       		.byte	0x7d
 9129 28c9 00       		.sleb128 0
 9130 28ca 03       		.uleb128 0x3
 9131 28cb 91       		.byte	0x91
 9132 28cc 10       		.sleb128 16
 9133 28cd 06       		.byte	0x6
 9134 28ce 42       		.uleb128 0x42
 9135 28cf 02       		.uleb128 0x2
 9136 28d0 7D       		.byte	0x7d
 9137 28d1 04       		.sleb128 4
 9138 28d2 04       		.uleb128 0x4
 9139 28d3 91       		.byte	0x91
 9140 28d4 14       		.sleb128 20
 9141 28d5 94       		.byte	0x94
 9142 28d6 02       		.byte	0x2
 9143 28d7 00       		.byte	0
 9144 28d8 00       		.byte	0
 9145 28d9 5B       		.uleb128 0x5b
 9146 28da 3F000000 		.4byte	.LASF316
 9147 28de 01       		.byte	0x1
 9148 28df 86       		.byte	0x86
 9149 28e0 E5000000 		.4byte	0xe5
 9150 28e4 00000000 		.4byte	.LFB4
 9151 28e8 56010000 		.4byte	.LFE4-.LFB4
 9152 28ec 01       		.uleb128 0x1
 9153 28ed 9C       		.byte	0x9c
 9154 28ee 3F2B0000 		.4byte	0x2b3f
 9155 28f2 50       		.uleb128 0x50
 9156 28f3 696E7300 		.ascii	"ins\000"
 9157 28f7 01       		.byte	0x1
 9158 28f8 86       		.byte	0x86
 9159 28f9 36040000 		.4byte	0x436
 9160 28fd CC230000 		.4byte	.LLST72
 9161 2901 51       		.uleb128 0x51
 9162 2902 5B090000 		.4byte	.LASF201
 9163 2906 01       		.byte	0x1
 9164 2907 87       		.byte	0x87
 9165 2908 2B010000 		.4byte	0x12b
 9166 290c 1F240000 		.4byte	.LLST73
 9167 2910 51       		.uleb128 0x51
 9168 2911 77020000 		.4byte	.LASF51
 9169 2915 01       		.byte	0x1
 9170 2916 88       		.byte	0x88
 9171 2917 F5000000 		.4byte	0xf5
 9172 291b 77240000 		.4byte	.LLST74
 9173 291f 51       		.uleb128 0x51
 9174 2920 DC010000 		.4byte	.LASF314
 9175 2924 01       		.byte	0x1
 9176 2925 89       		.byte	0x89
ARM GAS  /tmp/cc2f1tkm.s 			page 162


 9177 2926 290F0000 		.4byte	0xf29
 9178 292a 97240000 		.4byte	.LLST75
 9179 292e 51       		.uleb128 0x51
 9180 292f B90B0000 		.4byte	.LASF54
 9181 2933 01       		.byte	0x1
 9182 2934 8A       		.byte	0x8a
 9183 2935 D5000000 		.4byte	0xd5
 9184 2939 B7240000 		.4byte	.LLST76
 9185 293d 51       		.uleb128 0x51
 9186 293e F6050000 		.4byte	.LASF268
 9187 2942 01       		.byte	0x1
 9188 2943 8B       		.byte	0x8b
 9189 2944 ED190000 		.4byte	0x19ed
 9190 2948 D7240000 		.4byte	.LLST77
 9191 294c 51       		.uleb128 0x51
 9192 294d 06080000 		.4byte	.LASF50
 9193 2951 01       		.byte	0x1
 9194 2952 8C       		.byte	0x8c
 9195 2953 F5000000 		.4byte	0xf5
 9196 2957 F7240000 		.4byte	.LLST78
 9197 295b 53       		.uleb128 0x53
 9198 295c B00C0000 		.4byte	.LASF267
 9199 2960 01       		.byte	0x1
 9200 2961 97       		.byte	0x97
 9201 2962 10010000 		.4byte	0x110
 9202 2966 17250000 		.4byte	.LLST79
 9203 296a 5C       		.uleb128 0x5c
 9204 296b 63726300 		.ascii	"crc\000"
 9205 296f 01       		.byte	0x1
 9206 2970 98       		.byte	0x98
 9207 2971 F5000000 		.4byte	0xf5
 9208 2975 64250000 		.4byte	.LLST80
 9209 2979 53       		.uleb128 0x53
 9210 297a 6E040000 		.4byte	.LASF191
 9211 297e 01       		.byte	0x1
 9212 297f B8       		.byte	0xb8
 9213 2980 F0000000 		.4byte	0xf0
 9214 2984 9E250000 		.4byte	.LLST81
 9215 2988 36       		.uleb128 0x36
 9216 2989 70010000 		.4byte	.Ldebug_ranges0+0x170
 9217 298d 0E2A0000 		.4byte	0x2a0e
 9218 2991 5E       		.uleb128 0x5e
 9219 2992 90080000 		.4byte	.LASF317
 9220 2996 01       		.byte	0x1
 9221 2997 A1       		.byte	0xa1
 9222 2998 00010000 		.4byte	0x100
 9223 299c 03       		.byte	0x3
 9224 299d 53       		.uleb128 0x53
 9225 299e 63060000 		.4byte	.LASF318
 9226 29a2 01       		.byte	0x1
 9227 29a3 A9       		.byte	0xa9
 9228 29a4 00010000 		.4byte	0x100
 9229 29a8 B1250000 		.4byte	.LLST83
 9230 29ac 58       		.uleb128 0x58
 9231 29ad 2F0E0000 		.4byte	0xe2f
 9232 29b1 40000000 		.4byte	.LBB262
 9233 29b5 88010000 		.4byte	.Ldebug_ranges0+0x188
ARM GAS  /tmp/cc2f1tkm.s 			page 163


 9234 29b9 01       		.byte	0x1
 9235 29ba A9       		.byte	0xa9
 9236 29bb 3A       		.uleb128 0x3a
 9237 29bc 580E0000 		.4byte	0xe58
 9238 29c0 CA250000 		.4byte	.LLST84
 9239 29c4 3A       		.uleb128 0x3a
 9240 29c5 4C0E0000 		.4byte	0xe4c
 9241 29c9 E3250000 		.4byte	.LLST85
 9242 29cd 3A       		.uleb128 0x3a
 9243 29ce 400E0000 		.4byte	0xe40
 9244 29d2 19260000 		.4byte	.LLST86
 9245 29d6 3F       		.uleb128 0x3f
 9246 29d7 9D0E0000 		.4byte	0xe9d
 9247 29db 46000000 		.4byte	.LBB264
 9248 29df A0010000 		.4byte	.Ldebug_ranges0+0x1a0
 9249 29e3 01       		.byte	0x1
 9250 29e4 F705     		.2byte	0x5f7
 9251 29e6 3A       		.uleb128 0x3a
 9252 29e7 BA0E0000 		.4byte	0xeba
 9253 29eb 44260000 		.4byte	.LLST87
 9254 29ef 3A       		.uleb128 0x3a
 9255 29f0 AE0E0000 		.4byte	0xeae
 9256 29f4 64260000 		.4byte	.LLST88
 9257 29f8 4C       		.uleb128 0x4c
 9258 29f9 C60E0000 		.4byte	0xec6
 9259 29fd B8010000 		.4byte	.Ldebug_ranges0+0x1b8
 9260 2a01 3D       		.uleb128 0x3d
 9261 2a02 C70E0000 		.4byte	0xec7
 9262 2a06 8D260000 		.4byte	.LLST89
 9263 2a0a 00       		.byte	0
 9264 2a0b 00       		.byte	0
 9265 2a0c 00       		.byte	0
 9266 2a0d 00       		.byte	0
 9267 2a0e 5D       		.uleb128 0x5d
 9268 2a0f 3F2B0000 		.4byte	0x2b3f
 9269 2a13 24000000 		.4byte	.LBB259
 9270 2a17 02000000 		.4byte	.LBE259-.LBB259
 9271 2a1b 01       		.byte	0x1
 9272 2a1c 9A       		.byte	0x9a
 9273 2a1d 2B2A0000 		.4byte	0x2a2b
 9274 2a21 3A       		.uleb128 0x3a
 9275 2a22 4F2B0000 		.4byte	0x2b4f
 9276 2a26 B0260000 		.4byte	.LLST82
 9277 2a2a 00       		.byte	0
 9278 2a2b 5D       		.uleb128 0x5d
 9279 2a2c 05170000 		.4byte	0x1705
 9280 2a30 92000000 		.4byte	.LBB272
 9281 2a34 0E000000 		.4byte	.LBE272-.LBB272
 9282 2a38 01       		.byte	0x1
 9283 2a39 BA       		.byte	0xba
 9284 2a3a 482A0000 		.4byte	0x2a48
 9285 2a3e 3A       		.uleb128 0x3a
 9286 2a3f 12170000 		.4byte	0x1712
 9287 2a43 C3260000 		.4byte	.LLST90
 9288 2a47 00       		.byte	0
 9289 2a48 5D       		.uleb128 0x5d
 9290 2a49 650E0000 		.4byte	0xe65
ARM GAS  /tmp/cc2f1tkm.s 			page 164


 9291 2a4d BC000000 		.4byte	.LBB274
 9292 2a51 52000000 		.4byte	.LBE274-.LBB274
 9293 2a55 01       		.byte	0x1
 9294 2a56 B3       		.byte	0xb3
 9295 2a57 B32A0000 		.4byte	0x2ab3
 9296 2a5b 4A       		.uleb128 0x4a
 9297 2a5c 820E0000 		.4byte	0xe82
 9298 2a60 3A       		.uleb128 0x3a
 9299 2a61 760E0000 		.4byte	0xe76
 9300 2a65 D6260000 		.4byte	.LLST91
 9301 2a69 4E       		.uleb128 0x4e
 9302 2a6a 8E0E0000 		.4byte	0xe8e
 9303 2a6e BC000000 		.4byte	.LBB275
 9304 2a72 52000000 		.4byte	.LBE275-.LBB275
 9305 2a76 3D       		.uleb128 0x3d
 9306 2a77 8F0E0000 		.4byte	0xe8f
 9307 2a7b F4260000 		.4byte	.LLST92
 9308 2a7f 3F       		.uleb128 0x3f
 9309 2a80 9D0E0000 		.4byte	0xe9d
 9310 2a84 BC000000 		.4byte	.LBB276
 9311 2a88 D0010000 		.4byte	.Ldebug_ranges0+0x1d0
 9312 2a8c 01       		.byte	0x1
 9313 2a8d EE05     		.2byte	0x5ee
 9314 2a8f 4A       		.uleb128 0x4a
 9315 2a90 BA0E0000 		.4byte	0xeba
 9316 2a94 3A       		.uleb128 0x3a
 9317 2a95 AE0E0000 		.4byte	0xeae
 9318 2a99 14270000 		.4byte	.LLST93
 9319 2a9d 4C       		.uleb128 0x4c
 9320 2a9e C60E0000 		.4byte	0xec6
 9321 2aa2 E8010000 		.4byte	.Ldebug_ranges0+0x1e8
 9322 2aa6 3D       		.uleb128 0x3d
 9323 2aa7 C70E0000 		.4byte	0xec7
 9324 2aab 3D270000 		.4byte	.LLST94
 9325 2aaf 00       		.byte	0
 9326 2ab0 00       		.byte	0
 9327 2ab1 00       		.byte	0
 9328 2ab2 00       		.byte	0
 9329 2ab3 5D       		.uleb128 0x5d
 9330 2ab4 2F0E0000 		.4byte	0xe2f
 9331 2ab8 10010000 		.4byte	.LBB282
 9332 2abc 2C000000 		.4byte	.LBE282-.LBB282
 9333 2ac0 01       		.byte	0x1
 9334 2ac1 B4       		.byte	0xb4
 9335 2ac2 182B0000 		.4byte	0x2b18
 9336 2ac6 3A       		.uleb128 0x3a
 9337 2ac7 580E0000 		.4byte	0xe58
 9338 2acb 60270000 		.4byte	.LLST95
 9339 2acf 3A       		.uleb128 0x3a
 9340 2ad0 4C0E0000 		.4byte	0xe4c
 9341 2ad4 79270000 		.4byte	.LLST96
 9342 2ad8 3A       		.uleb128 0x3a
 9343 2ad9 400E0000 		.4byte	0xe40
 9344 2add A4270000 		.4byte	.LLST97
 9345 2ae1 3F       		.uleb128 0x3f
 9346 2ae2 9D0E0000 		.4byte	0xe9d
 9347 2ae6 10010000 		.4byte	.LBB284
ARM GAS  /tmp/cc2f1tkm.s 			page 165


 9348 2aea 00020000 		.4byte	.Ldebug_ranges0+0x200
 9349 2aee 01       		.byte	0x1
 9350 2aef F705     		.2byte	0x5f7
 9351 2af1 3A       		.uleb128 0x3a
 9352 2af2 BA0E0000 		.4byte	0xeba
 9353 2af6 B7270000 		.4byte	.LLST98
 9354 2afa 3A       		.uleb128 0x3a
 9355 2afb AE0E0000 		.4byte	0xeae
 9356 2aff D7270000 		.4byte	.LLST99
 9357 2b03 4C       		.uleb128 0x4c
 9358 2b04 C60E0000 		.4byte	0xec6
 9359 2b08 18020000 		.4byte	.Ldebug_ranges0+0x218
 9360 2b0c 3D       		.uleb128 0x3d
 9361 2b0d C70E0000 		.4byte	0xec7
 9362 2b11 00280000 		.4byte	.LLST100
 9363 2b15 00       		.byte	0
 9364 2b16 00       		.byte	0
 9365 2b17 00       		.byte	0
 9366 2b18 41       		.uleb128 0x41
 9367 2b19 92000000 		.4byte	.LVL174
 9368 2b1d 4F160000 		.4byte	0x164f
 9369 2b21 42       		.uleb128 0x42
 9370 2b22 01       		.uleb128 0x1
 9371 2b23 52       		.byte	0x52
 9372 2b24 02       		.uleb128 0x2
 9373 2b25 76       		.byte	0x76
 9374 2b26 00       		.sleb128 0
 9375 2b27 42       		.uleb128 0x42
 9376 2b28 01       		.uleb128 0x1
 9377 2b29 53       		.byte	0x53
 9378 2b2a 02       		.uleb128 0x2
 9379 2b2b 74       		.byte	0x74
 9380 2b2c 00       		.sleb128 0
 9381 2b2d 42       		.uleb128 0x42
 9382 2b2e 02       		.uleb128 0x2
 9383 2b2f 7D       		.byte	0x7d
 9384 2b30 00       		.sleb128 0
 9385 2b31 02       		.uleb128 0x2
 9386 2b32 77       		.byte	0x77
 9387 2b33 00       		.sleb128 0
 9388 2b34 42       		.uleb128 0x42
 9389 2b35 02       		.uleb128 0x2
 9390 2b36 7D       		.byte	0x7d
 9391 2b37 04       		.sleb128 4
 9392 2b38 04       		.uleb128 0x4
 9393 2b39 91       		.byte	0x91
 9394 2b3a 10       		.sleb128 16
 9395 2b3b 94       		.byte	0x94
 9396 2b3c 02       		.byte	0x2
 9397 2b3d 00       		.byte	0
 9398 2b3e 00       		.byte	0
 9399 2b3f 5F       		.uleb128 0x5f
 9400 2b40 7A0B0000 		.4byte	.LASF336
 9401 2b44 01       		.byte	0x1
 9402 2b45 81       		.byte	0x81
 9403 2b46 D5000000 		.4byte	0xd5
 9404 2b4a 01       		.byte	0x1
ARM GAS  /tmp/cc2f1tkm.s 			page 166


 9405 2b4b 5B2B0000 		.4byte	0x2b5b
 9406 2b4f 60       		.uleb128 0x60
 9407 2b50 696E7300 		.ascii	"ins\000"
 9408 2b54 01       		.byte	0x1
 9409 2b55 81       		.byte	0x81
 9410 2b56 09040000 		.4byte	0x409
 9411 2b5a 00       		.byte	0
 9412 2b5b 4F       		.uleb128 0x4f
 9413 2b5c 81090000 		.4byte	.LASF319
 9414 2b60 01       		.byte	0x1
 9415 2b61 71       		.byte	0x71
 9416 2b62 00000000 		.4byte	.LFB2
 9417 2b66 0E000000 		.4byte	.LFE2-.LFB2
 9418 2b6a 01       		.uleb128 0x1
 9419 2b6b 9C       		.byte	0x9c
 9420 2b6c 8B2B0000 		.4byte	0x2b8b
 9421 2b70 57       		.uleb128 0x57
 9422 2b71 696E7300 		.ascii	"ins\000"
 9423 2b75 01       		.byte	0x1
 9424 2b76 71       		.byte	0x71
 9425 2b77 36040000 		.4byte	0x436
 9426 2b7b 01       		.uleb128 0x1
 9427 2b7c 50       		.byte	0x50
 9428 2b7d 61       		.uleb128 0x61
 9429 2b7e 75040000 		.4byte	.LASF320
 9430 2b82 01       		.byte	0x1
 9431 2b83 71       		.byte	0x71
 9432 2b84 D5000000 		.4byte	0xd5
 9433 2b88 01       		.uleb128 0x1
 9434 2b89 51       		.byte	0x51
 9435 2b8a 00       		.byte	0
 9436 2b8b 5B       		.uleb128 0x5b
 9437 2b8c 4E020000 		.4byte	.LASF321
 9438 2b90 01       		.byte	0x1
 9439 2b91 6B       		.byte	0x6b
 9440 2b92 63050000 		.4byte	0x563
 9441 2b96 00000000 		.4byte	.LFB1
 9442 2b9a 04000000 		.4byte	.LFE1-.LFB1
 9443 2b9e 01       		.uleb128 0x1
 9444 2b9f 9C       		.byte	0x9c
 9445 2ba0 B42B0000 		.4byte	0x2bb4
 9446 2ba4 50       		.uleb128 0x50
 9447 2ba5 696E7300 		.ascii	"ins\000"
 9448 2ba9 01       		.byte	0x1
 9449 2baa 6B       		.byte	0x6b
 9450 2bab 36040000 		.4byte	0x436
 9451 2baf 23280000 		.4byte	.LLST70
 9452 2bb3 00       		.byte	0
 9453 2bb4 4F       		.uleb128 0x4f
 9454 2bb5 AD070000 		.4byte	.LASF322
 9455 2bb9 01       		.byte	0x1
 9456 2bba 48       		.byte	0x48
 9457 2bbb 00000000 		.4byte	.LFB0
 9458 2bbf 52000000 		.4byte	.LFE0-.LFB0
 9459 2bc3 01       		.uleb128 0x1
 9460 2bc4 9C       		.byte	0x9c
 9461 2bc5 742C0000 		.4byte	0x2c74
ARM GAS  /tmp/cc2f1tkm.s 			page 167


 9462 2bc9 61       		.uleb128 0x61
 9463 2bca C6080000 		.4byte	.LASF323
 9464 2bce 01       		.byte	0x1
 9465 2bcf 48       		.byte	0x48
 9466 2bd0 36040000 		.4byte	0x436
 9467 2bd4 01       		.uleb128 0x1
 9468 2bd5 50       		.byte	0x50
 9469 2bd6 51       		.uleb128 0x51
 9470 2bd7 17000000 		.4byte	.LASF324
 9471 2bdb 01       		.byte	0x1
 9472 2bdc 49       		.byte	0x49
 9473 2bdd 63050000 		.4byte	0x563
 9474 2be1 44280000 		.4byte	.LLST59
 9475 2be5 51       		.uleb128 0x51
 9476 2be6 96090000 		.4byte	.LASF325
 9477 2bea 01       		.byte	0x1
 9478 2beb 4A       		.byte	0x4a
 9479 2bec 36010000 		.4byte	0x136
 9480 2bf0 70280000 		.4byte	.LLST60
 9481 2bf4 51       		.uleb128 0x51
 9482 2bf5 68050000 		.4byte	.LASF40
 9483 2bf9 01       		.byte	0x1
 9484 2bfa 4B       		.byte	0x4b
 9485 2bfb 15040000 		.4byte	0x415
 9486 2bff 91280000 		.4byte	.LLST61
 9487 2c03 51       		.uleb128 0x51
 9488 2c04 0D060000 		.4byte	.LASF39
 9489 2c08 01       		.byte	0x1
 9490 2c09 4C       		.byte	0x4c
 9491 2c0a C9030000 		.4byte	0x3c9
 9492 2c0e B0280000 		.4byte	.LLST62
 9493 2c12 51       		.uleb128 0x51
 9494 2c13 BF070000 		.4byte	.LASF44
 9495 2c17 01       		.byte	0x1
 9496 2c18 4D       		.byte	0x4d
 9497 2c19 63050000 		.4byte	0x563
 9498 2c1d DC280000 		.4byte	.LLST63
 9499 2c21 53       		.uleb128 0x53
 9500 2c22 390E0000 		.4byte	.LASF326
 9501 2c26 01       		.byte	0x1
 9502 2c27 62       		.byte	0x62
 9503 2c28 36010000 		.4byte	0x136
 9504 2c2c 08290000 		.4byte	.LLST64
 9505 2c30 58       		.uleb128 0x58
 9506 2c31 DF0D0000 		.4byte	0xddf
 9507 2c35 2A000000 		.4byte	.LBB255
 9508 2c39 58010000 		.4byte	.Ldebug_ranges0+0x158
 9509 2c3d 01       		.byte	0x1
 9510 2c3e 68       		.byte	0x68
 9511 2c3f 3A       		.uleb128 0x3a
 9512 2c40 040E0000 		.4byte	0xe04
 9513 2c44 5A290000 		.4byte	.LLST65
 9514 2c48 3A       		.uleb128 0x3a
 9515 2c49 F80D0000 		.4byte	0xdf8
 9516 2c4d 78290000 		.4byte	.LLST66
 9517 2c51 3A       		.uleb128 0x3a
 9518 2c52 EC0D0000 		.4byte	0xdec
ARM GAS  /tmp/cc2f1tkm.s 			page 168


 9519 2c56 A4290000 		.4byte	.LLST67
 9520 2c5a 32       		.uleb128 0x32
 9521 2c5b 58010000 		.4byte	.Ldebug_ranges0+0x158
 9522 2c5f 3D       		.uleb128 0x3d
 9523 2c60 100E0000 		.4byte	0xe10
 9524 2c64 DC290000 		.4byte	.LLST68
 9525 2c68 3D       		.uleb128 0x3d
 9526 2c69 1C0E0000 		.4byte	0xe1c
 9527 2c6d 1F2A0000 		.4byte	.LLST69
 9528 2c71 00       		.byte	0
 9529 2c72 00       		.byte	0
 9530 2c73 00       		.byte	0
 9531 2c74 62       		.uleb128 0x62
 9532 2c75 11160000 		.4byte	0x1611
 9533 2c79 00000000 		.4byte	.LFB42
 9534 2c7d 9E000000 		.4byte	.LFE42-.LFB42
 9535 2c81 01       		.uleb128 0x1
 9536 2c82 9C       		.byte	0x9c
 9537 2c83 192D0000 		.4byte	0x2d19
 9538 2c87 3A       		.uleb128 0x3a
 9539 2c88 2A160000 		.4byte	0x162a
 9540 2c8c 532A0000 		.4byte	.LLST36
 9541 2c90 4A       		.uleb128 0x4a
 9542 2c91 1E160000 		.4byte	0x161e
 9543 2c95 3D       		.uleb128 0x3d
 9544 2c96 36160000 		.4byte	0x1636
 9545 2c9a 712A0000 		.4byte	.LLST37
 9546 2c9e 5A       		.uleb128 0x5a
 9547 2c9f 42160000 		.4byte	0x1642
 9548 2ca3 01       		.uleb128 0x1
 9549 2ca4 57       		.byte	0x57
 9550 2ca5 3F       		.uleb128 0x3f
 9551 2ca6 26150000 		.4byte	0x1526
 9552 2caa 10000000 		.4byte	.LBB224
 9553 2cae A0000000 		.4byte	.Ldebug_ranges0+0xa0
 9554 2cb2 01       		.byte	0x1
 9555 2cb3 CA03     		.2byte	0x3ca
 9556 2cb5 4A       		.uleb128 0x4a
 9557 2cb6 43150000 		.4byte	0x1543
 9558 2cba 3A       		.uleb128 0x3a
 9559 2cbb 37150000 		.4byte	0x1537
 9560 2cbf 8F2A0000 		.4byte	.LLST38
 9561 2cc3 32       		.uleb128 0x32
 9562 2cc4 A0000000 		.4byte	.Ldebug_ranges0+0xa0
 9563 2cc8 3D       		.uleb128 0x3d
 9564 2cc9 4E150000 		.4byte	0x154e
 9565 2ccd DB2A0000 		.4byte	.LLST39
 9566 2cd1 3D       		.uleb128 0x3d
 9567 2cd2 5A150000 		.4byte	0x155a
 9568 2cd6 332B0000 		.4byte	.LLST40
 9569 2cda 3D       		.uleb128 0x3d
 9570 2cdb 66150000 		.4byte	0x1566
 9571 2cdf 8E2B0000 		.4byte	.LLST41
 9572 2ce3 3D       		.uleb128 0x3d
 9573 2ce4 72150000 		.4byte	0x1572
 9574 2ce8 D62B0000 		.4byte	.LLST42
 9575 2cec 3D       		.uleb128 0x3d
ARM GAS  /tmp/cc2f1tkm.s 			page 169


 9576 2ced 7E150000 		.4byte	0x157e
 9577 2cf1 3A2C0000 		.4byte	.LLST43
 9578 2cf5 3D       		.uleb128 0x3d
 9579 2cf6 8A150000 		.4byte	0x158a
 9580 2cfa 6A2C0000 		.4byte	.LLST44
 9581 2cfe 4C       		.uleb128 0x4c
 9582 2cff 96150000 		.4byte	0x1596
 9583 2d03 C8000000 		.4byte	.Ldebug_ranges0+0xc8
 9584 2d07 3C       		.uleb128 0x3c
 9585 2d08 97150000 		.4byte	0x1597
 9586 2d0c 3D       		.uleb128 0x3d
 9587 2d0d A3150000 		.4byte	0x15a3
 9588 2d11 AC2C0000 		.4byte	.LLST45
 9589 2d15 00       		.byte	0
 9590 2d16 00       		.byte	0
 9591 2d17 00       		.byte	0
 9592 2d18 00       		.byte	0
 9593 2d19 62       		.uleb128 0x62
 9594 2d1a 4F160000 		.4byte	0x164f
 9595 2d1e 00000000 		.4byte	.LFB18
 9596 2d22 72010000 		.4byte	.LFE18-.LFB18
 9597 2d26 01       		.uleb128 0x1
 9598 2d27 9C       		.byte	0x9c
 9599 2d28 8E2E0000 		.4byte	0x2e8e
 9600 2d2c 3A       		.uleb128 0x3a
 9601 2d2d 60160000 		.4byte	0x1660
 9602 2d31 CA2C0000 		.4byte	.LLST46
 9603 2d35 3A       		.uleb128 0x3a
 9604 2d36 6C160000 		.4byte	0x166c
 9605 2d3a 3D2D0000 		.4byte	.LLST47
 9606 2d3e 3A       		.uleb128 0x3a
 9607 2d3f 78160000 		.4byte	0x1678
 9608 2d43 982D0000 		.4byte	.LLST48
 9609 2d47 3A       		.uleb128 0x3a
 9610 2d48 84160000 		.4byte	0x1684
 9611 2d4c F32D0000 		.4byte	.LLST49
 9612 2d50 3A       		.uleb128 0x3a
 9613 2d51 90160000 		.4byte	0x1690
 9614 2d55 2D2E0000 		.4byte	.LLST50
 9615 2d59 3A       		.uleb128 0x3a
 9616 2d5a 9C160000 		.4byte	0x169c
 9617 2d5e 4D2E0000 		.4byte	.LLST51
 9618 2d62 3D       		.uleb128 0x3d
 9619 2d63 A8160000 		.4byte	0x16a8
 9620 2d67 6D2E0000 		.4byte	.LLST52
 9621 2d6b 4B       		.uleb128 0x4b
 9622 2d6c 4F160000 		.4byte	0x164f
 9623 2d70 E8000000 		.4byte	.Ldebug_ranges0+0xe8
 9624 2d74 262E0000 		.4byte	0x2e26
 9625 2d78 4A       		.uleb128 0x4a
 9626 2d79 9C160000 		.4byte	0x169c
 9627 2d7d 4A       		.uleb128 0x4a
 9628 2d7e 90160000 		.4byte	0x1690
 9629 2d82 4A       		.uleb128 0x4a
 9630 2d83 84160000 		.4byte	0x1684
 9631 2d87 4A       		.uleb128 0x4a
 9632 2d88 78160000 		.4byte	0x1678
ARM GAS  /tmp/cc2f1tkm.s 			page 170


 9633 2d8c 4A       		.uleb128 0x4a
 9634 2d8d 6C160000 		.4byte	0x166c
 9635 2d91 4A       		.uleb128 0x4a
 9636 2d92 60160000 		.4byte	0x1660
 9637 2d96 32       		.uleb128 0x32
 9638 2d97 E8000000 		.4byte	.Ldebug_ranges0+0xe8
 9639 2d9b 3C       		.uleb128 0x3c
 9640 2d9c 622D0000 		.4byte	0x2d62
 9641 2da0 4C       		.uleb128 0x4c
 9642 2da1 C6160000 		.4byte	0x16c6
 9643 2da5 00010000 		.4byte	.Ldebug_ranges0+0x100
 9644 2da9 3D       		.uleb128 0x3d
 9645 2daa C7160000 		.4byte	0x16c7
 9646 2dae A52E0000 		.4byte	.LLST53
 9647 2db2 3D       		.uleb128 0x3d
 9648 2db3 D3160000 		.4byte	0x16d3
 9649 2db7 EF2E0000 		.4byte	.LLST54
 9650 2dbb 3D       		.uleb128 0x3d
 9651 2dbc DF160000 		.4byte	0x16df
 9652 2dc0 182F0000 		.4byte	.LLST55
 9653 2dc4 3D       		.uleb128 0x3d
 9654 2dc5 EB160000 		.4byte	0x16eb
 9655 2dc9 582F0000 		.4byte	.LLST56
 9656 2dcd 4C       		.uleb128 0x4c
 9657 2dce F7160000 		.4byte	0x16f7
 9658 2dd2 20010000 		.4byte	.Ldebug_ranges0+0x120
 9659 2dd6 3D       		.uleb128 0x3d
 9660 2dd7 F8160000 		.4byte	0x16f8
 9661 2ddb 8C2F0000 		.4byte	.LLST57
 9662 2ddf 63       		.uleb128 0x63
 9663 2de0 4E000000 		.4byte	.LVL106
 9664 2de4 B1150000 		.4byte	0x15b1
 9665 2de8 F42D0000 		.4byte	0x2df4
 9666 2dec 42       		.uleb128 0x42
 9667 2ded 01       		.uleb128 0x1
 9668 2dee 50       		.byte	0x50
 9669 2def 03       		.uleb128 0x3
 9670 2df0 7D       		.byte	0x7d
 9671 2df1 00       		.sleb128 0
 9672 2df2 06       		.byte	0x6
 9673 2df3 00       		.byte	0
 9674 2df4 63       		.uleb128 0x63
 9675 2df5 DC000000 		.4byte	.LVL117
 9676 2df9 742C0000 		.4byte	0x2c74
 9677 2dfd 112E0000 		.4byte	0x2e11
 9678 2e01 42       		.uleb128 0x42
 9679 2e02 01       		.uleb128 0x1
 9680 2e03 50       		.byte	0x50
 9681 2e04 02       		.uleb128 0x2
 9682 2e05 70       		.byte	0x70
 9683 2e06 00       		.sleb128 0
 9684 2e07 64       		.uleb128 0x64
 9685 2e08 1E160000 		.4byte	0x161e
 9686 2e0c 03       		.uleb128 0x3
 9687 2e0d 91       		.byte	0x91
 9688 2e0e 4C       		.sleb128 -52
 9689 2e0f 06       		.byte	0x6
ARM GAS  /tmp/cc2f1tkm.s 			page 171


 9690 2e10 00       		.byte	0
 9691 2e11 41       		.uleb128 0x41
 9692 2e12 F2000000 		.4byte	.LVL122
 9693 2e16 B1150000 		.4byte	0x15b1
 9694 2e1a 42       		.uleb128 0x42
 9695 2e1b 01       		.uleb128 0x1
 9696 2e1c 50       		.byte	0x50
 9697 2e1d 03       		.uleb128 0x3
 9698 2e1e 7D       		.byte	0x7d
 9699 2e1f 00       		.sleb128 0
 9700 2e20 06       		.byte	0x6
 9701 2e21 00       		.byte	0
 9702 2e22 00       		.byte	0
 9703 2e23 00       		.byte	0
 9704 2e24 00       		.byte	0
 9705 2e25 00       		.byte	0
 9706 2e26 3B       		.uleb128 0x3b
 9707 2e27 08010000 		.4byte	.LBB253
 9708 2e2b 42000000 		.4byte	.LBE253-.LBB253
 9709 2e2f 3D       		.uleb128 0x3d
 9710 2e30 B9160000 		.4byte	0x16b9
 9711 2e34 B62F0000 		.4byte	.LLST58
 9712 2e38 63       		.uleb128 0x63
 9713 2e39 0E010000 		.4byte	.LVL128
 9714 2e3d B1150000 		.4byte	0x15b1
 9715 2e41 4D2E0000 		.4byte	0x2e4d
 9716 2e45 42       		.uleb128 0x42
 9717 2e46 01       		.uleb128 0x1
 9718 2e47 50       		.byte	0x50
 9719 2e48 03       		.uleb128 0x3
 9720 2e49 7D       		.byte	0x7d
 9721 2e4a 00       		.sleb128 0
 9722 2e4b 06       		.byte	0x6
 9723 2e4c 00       		.byte	0
 9724 2e4d 63       		.uleb128 0x63
 9725 2e4e 1E010000 		.4byte	.LVL130
 9726 2e52 2E2F0000 		.4byte	0x2f2e
 9727 2e56 6E2E0000 		.4byte	0x2e6e
 9728 2e5a 42       		.uleb128 0x42
 9729 2e5b 01       		.uleb128 0x1
 9730 2e5c 50       		.byte	0x50
 9731 2e5d 02       		.uleb128 0x2
 9732 2e5e 74       		.byte	0x74
 9733 2e5f 08       		.sleb128 8
 9734 2e60 42       		.uleb128 0x42
 9735 2e61 01       		.uleb128 0x1
 9736 2e62 51       		.byte	0x51
 9737 2e63 03       		.uleb128 0x3
 9738 2e64 91       		.byte	0x91
 9739 2e65 00       		.sleb128 0
 9740 2e66 06       		.byte	0x6
 9741 2e67 42       		.uleb128 0x42
 9742 2e68 01       		.uleb128 0x1
 9743 2e69 52       		.byte	0x52
 9744 2e6a 02       		.uleb128 0x2
 9745 2e6b 79       		.byte	0x79
 9746 2e6c 00       		.sleb128 0
ARM GAS  /tmp/cc2f1tkm.s 			page 172


 9747 2e6d 00       		.byte	0
 9748 2e6e 41       		.uleb128 0x41
 9749 2e6f 48010000 		.4byte	.LVL131
 9750 2e73 742C0000 		.4byte	0x2c74
 9751 2e77 42       		.uleb128 0x42
 9752 2e78 01       		.uleb128 0x1
 9753 2e79 50       		.byte	0x50
 9754 2e7a 02       		.uleb128 0x2
 9755 2e7b 70       		.byte	0x70
 9756 2e7c 00       		.sleb128 0
 9757 2e7d 42       		.uleb128 0x42
 9758 2e7e 01       		.uleb128 0x1
 9759 2e7f 51       		.byte	0x51
 9760 2e80 02       		.uleb128 0x2
 9761 2e81 74       		.byte	0x74
 9762 2e82 00       		.sleb128 0
 9763 2e83 64       		.uleb128 0x64
 9764 2e84 1E160000 		.4byte	0x161e
 9765 2e88 02       		.uleb128 0x2
 9766 2e89 78       		.byte	0x78
 9767 2e8a 00       		.sleb128 0
 9768 2e8b 00       		.byte	0
 9769 2e8c 00       		.byte	0
 9770 2e8d 00       		.byte	0
 9771 2e8e 62       		.uleb128 0x62
 9772 2e8f 3F2B0000 		.4byte	0x2b3f
 9773 2e93 00000000 		.4byte	.LFB3
 9774 2e97 04000000 		.4byte	.LFE3-.LFB3
 9775 2e9b 01       		.uleb128 0x1
 9776 2e9c 9C       		.byte	0x9c
 9777 2e9d AB2E0000 		.4byte	0x2eab
 9778 2ea1 3A       		.uleb128 0x3a
 9779 2ea2 4F2B0000 		.4byte	0x2b4f
 9780 2ea6 D42F0000 		.4byte	.LLST71
 9781 2eaa 00       		.byte	0
 9782 2eab 62       		.uleb128 0x62
 9783 2eac CF180000 		.4byte	0x18cf
 9784 2eb0 00000000 		.4byte	.LFB12
 9785 2eb4 2E000000 		.4byte	.LFE12-.LFB12
 9786 2eb8 01       		.uleb128 0x1
 9787 2eb9 9C       		.byte	0x9c
 9788 2eba 1F2F0000 		.4byte	0x2f1f
 9789 2ebe 59       		.uleb128 0x59
 9790 2ebf DC180000 		.4byte	0x18dc
 9791 2ec3 01       		.uleb128 0x1
 9792 2ec4 50       		.byte	0x50
 9793 2ec5 59       		.uleb128 0x59
 9794 2ec6 E8180000 		.4byte	0x18e8
 9795 2eca 01       		.uleb128 0x1
 9796 2ecb 51       		.byte	0x51
 9797 2ecc 3B       		.uleb128 0x3b
 9798 2ecd 0E000000 		.4byte	.LBB572
 9799 2ed1 0C000000 		.4byte	.LBE572-.LBB572
 9800 2ed5 3D       		.uleb128 0x3d
 9801 2ed6 F5180000 		.4byte	0x18f5
 9802 2eda F52F0000 		.4byte	.LLST259
 9803 2ede 39       		.uleb128 0x39
ARM GAS  /tmp/cc2f1tkm.s 			page 173


 9804 2edf 7F0D0000 		.4byte	0xd7f
 9805 2ee3 10000000 		.4byte	.LBB573
 9806 2ee7 0A000000 		.4byte	.LBE573-.LBB573
 9807 2eeb 01       		.byte	0x1
 9808 2eec F202     		.2byte	0x2f2
 9809 2eee 3A       		.uleb128 0x3a
 9810 2eef 8C0D0000 		.4byte	0xd8c
 9811 2ef3 13300000 		.4byte	.LLST260
 9812 2ef7 3A       		.uleb128 0x3a
 9813 2ef8 8C0D0000 		.4byte	0xd8c
 9814 2efc 13300000 		.4byte	.LLST260
 9815 2f00 3A       		.uleb128 0x3a
 9816 2f01 980D0000 		.4byte	0xd98
 9817 2f05 35300000 		.4byte	.LLST262
 9818 2f09 3B       		.uleb128 0x3b
 9819 2f0a 10000000 		.4byte	.LBB574
 9820 2f0e 0A000000 		.4byte	.LBE574-.LBB574
 9821 2f12 3D       		.uleb128 0x3d
 9822 2f13 A20D0000 		.4byte	0xda2
 9823 2f17 48300000 		.4byte	.LLST263
 9824 2f1b 00       		.byte	0
 9825 2f1c 00       		.byte	0
 9826 2f1d 00       		.byte	0
 9827 2f1e 00       		.byte	0
 9828 2f1f 65       		.uleb128 0x65
 9829 2f20 31090000 		.4byte	.LASF327
 9830 2f24 CF0C0000 		.4byte	.LASF329
 9831 2f28 09       		.byte	0x9
 9832 2f29 00       		.byte	0
 9833 2f2a 31090000 		.4byte	.LASF327
 9834 2f2e 65       		.uleb128 0x65
 9835 2f2f 660F0000 		.4byte	.LASF328
 9836 2f33 BB010000 		.4byte	.LASF330
 9837 2f37 09       		.byte	0x9
 9838 2f38 00       		.byte	0
 9839 2f39 660F0000 		.4byte	.LASF328
 9840 2f3d 00       		.byte	0
 9841              		.section	.debug_abbrev,"",%progbits
 9842              	.Ldebug_abbrev0:
 9843 0000 01       		.uleb128 0x1
 9844 0001 11       		.uleb128 0x11
 9845 0002 01       		.byte	0x1
 9846 0003 25       		.uleb128 0x25
 9847 0004 0E       		.uleb128 0xe
 9848 0005 13       		.uleb128 0x13
 9849 0006 0B       		.uleb128 0xb
 9850 0007 03       		.uleb128 0x3
 9851 0008 0E       		.uleb128 0xe
 9852 0009 1B       		.uleb128 0x1b
 9853 000a 0E       		.uleb128 0xe
 9854 000b 55       		.uleb128 0x55
 9855 000c 17       		.uleb128 0x17
 9856 000d 11       		.uleb128 0x11
 9857 000e 01       		.uleb128 0x1
 9858 000f 10       		.uleb128 0x10
 9859 0010 17       		.uleb128 0x17
 9860 0011 00       		.byte	0
ARM GAS  /tmp/cc2f1tkm.s 			page 174


 9861 0012 00       		.byte	0
 9862 0013 02       		.uleb128 0x2
 9863 0014 24       		.uleb128 0x24
 9864 0015 00       		.byte	0
 9865 0016 0B       		.uleb128 0xb
 9866 0017 0B       		.uleb128 0xb
 9867 0018 3E       		.uleb128 0x3e
 9868 0019 0B       		.uleb128 0xb
 9869 001a 03       		.uleb128 0x3
 9870 001b 0E       		.uleb128 0xe
 9871 001c 00       		.byte	0
 9872 001d 00       		.byte	0
 9873 001e 03       		.uleb128 0x3
 9874 001f 16       		.uleb128 0x16
 9875 0020 00       		.byte	0
 9876 0021 03       		.uleb128 0x3
 9877 0022 0E       		.uleb128 0xe
 9878 0023 3A       		.uleb128 0x3a
 9879 0024 0B       		.uleb128 0xb
 9880 0025 3B       		.uleb128 0x3b
 9881 0026 0B       		.uleb128 0xb
 9882 0027 49       		.uleb128 0x49
 9883 0028 13       		.uleb128 0x13
 9884 0029 00       		.byte	0
 9885 002a 00       		.byte	0
 9886 002b 04       		.uleb128 0x4
 9887 002c 24       		.uleb128 0x24
 9888 002d 00       		.byte	0
 9889 002e 0B       		.uleb128 0xb
 9890 002f 0B       		.uleb128 0xb
 9891 0030 3E       		.uleb128 0x3e
 9892 0031 0B       		.uleb128 0xb
 9893 0032 03       		.uleb128 0x3
 9894 0033 08       		.uleb128 0x8
 9895 0034 00       		.byte	0
 9896 0035 00       		.byte	0
 9897 0036 05       		.uleb128 0x5
 9898 0037 26       		.uleb128 0x26
 9899 0038 00       		.byte	0
 9900 0039 49       		.uleb128 0x49
 9901 003a 13       		.uleb128 0x13
 9902 003b 00       		.byte	0
 9903 003c 00       		.byte	0
 9904 003d 06       		.uleb128 0x6
 9905 003e 13       		.uleb128 0x13
 9906 003f 01       		.byte	0x1
 9907 0040 0B       		.uleb128 0xb
 9908 0041 0B       		.uleb128 0xb
 9909 0042 3A       		.uleb128 0x3a
 9910 0043 0B       		.uleb128 0xb
 9911 0044 3B       		.uleb128 0x3b
 9912 0045 0B       		.uleb128 0xb
 9913 0046 01       		.uleb128 0x1
 9914 0047 13       		.uleb128 0x13
 9915 0048 00       		.byte	0
 9916 0049 00       		.byte	0
 9917 004a 07       		.uleb128 0x7
ARM GAS  /tmp/cc2f1tkm.s 			page 175


 9918 004b 0D       		.uleb128 0xd
 9919 004c 00       		.byte	0
 9920 004d 03       		.uleb128 0x3
 9921 004e 08       		.uleb128 0x8
 9922 004f 3A       		.uleb128 0x3a
 9923 0050 0B       		.uleb128 0xb
 9924 0051 3B       		.uleb128 0x3b
 9925 0052 0B       		.uleb128 0xb
 9926 0053 49       		.uleb128 0x49
 9927 0054 13       		.uleb128 0x13
 9928 0055 38       		.uleb128 0x38
 9929 0056 0B       		.uleb128 0xb
 9930 0057 00       		.byte	0
 9931 0058 00       		.byte	0
 9932 0059 08       		.uleb128 0x8
 9933 005a 0D       		.uleb128 0xd
 9934 005b 00       		.byte	0
 9935 005c 03       		.uleb128 0x3
 9936 005d 0E       		.uleb128 0xe
 9937 005e 3A       		.uleb128 0x3a
 9938 005f 0B       		.uleb128 0xb
 9939 0060 3B       		.uleb128 0x3b
 9940 0061 0B       		.uleb128 0xb
 9941 0062 49       		.uleb128 0x49
 9942 0063 13       		.uleb128 0x13
 9943 0064 38       		.uleb128 0x38
 9944 0065 0B       		.uleb128 0xb
 9945 0066 00       		.byte	0
 9946 0067 00       		.byte	0
 9947 0068 09       		.uleb128 0x9
 9948 0069 01       		.uleb128 0x1
 9949 006a 01       		.byte	0x1
 9950 006b 49       		.uleb128 0x49
 9951 006c 13       		.uleb128 0x13
 9952 006d 01       		.uleb128 0x1
 9953 006e 13       		.uleb128 0x13
 9954 006f 00       		.byte	0
 9955 0070 00       		.byte	0
 9956 0071 0A       		.uleb128 0xa
 9957 0072 21       		.uleb128 0x21
 9958 0073 00       		.byte	0
 9959 0074 49       		.uleb128 0x49
 9960 0075 13       		.uleb128 0x13
 9961 0076 2F       		.uleb128 0x2f
 9962 0077 0B       		.uleb128 0xb
 9963 0078 00       		.byte	0
 9964 0079 00       		.byte	0
 9965 007a 0B       		.uleb128 0xb
 9966 007b 04       		.uleb128 0x4
 9967 007c 01       		.byte	0x1
 9968 007d 3E       		.uleb128 0x3e
 9969 007e 0B       		.uleb128 0xb
 9970 007f 0B       		.uleb128 0xb
 9971 0080 0B       		.uleb128 0xb
 9972 0081 49       		.uleb128 0x49
 9973 0082 13       		.uleb128 0x13
 9974 0083 3A       		.uleb128 0x3a
ARM GAS  /tmp/cc2f1tkm.s 			page 176


 9975 0084 0B       		.uleb128 0xb
 9976 0085 3B       		.uleb128 0x3b
 9977 0086 0B       		.uleb128 0xb
 9978 0087 01       		.uleb128 0x1
 9979 0088 13       		.uleb128 0x13
 9980 0089 00       		.byte	0
 9981 008a 00       		.byte	0
 9982 008b 0C       		.uleb128 0xc
 9983 008c 28       		.uleb128 0x28
 9984 008d 00       		.byte	0
 9985 008e 03       		.uleb128 0x3
 9986 008f 0E       		.uleb128 0xe
 9987 0090 1C       		.uleb128 0x1c
 9988 0091 0B       		.uleb128 0xb
 9989 0092 00       		.byte	0
 9990 0093 00       		.byte	0
 9991 0094 0D       		.uleb128 0xd
 9992 0095 13       		.uleb128 0x13
 9993 0096 01       		.byte	0x1
 9994 0097 03       		.uleb128 0x3
 9995 0098 0E       		.uleb128 0xe
 9996 0099 0B       		.uleb128 0xb
 9997 009a 0B       		.uleb128 0xb
 9998 009b 3A       		.uleb128 0x3a
 9999 009c 0B       		.uleb128 0xb
 10000 009d 3B       		.uleb128 0x3b
 10001 009e 0B       		.uleb128 0xb
 10002 009f 01       		.uleb128 0x1
 10003 00a0 13       		.uleb128 0x13
 10004 00a1 00       		.byte	0
 10005 00a2 00       		.byte	0
 10006 00a3 0E       		.uleb128 0xe
 10007 00a4 0D       		.uleb128 0xd
 10008 00a5 00       		.byte	0
 10009 00a6 03       		.uleb128 0x3
 10010 00a7 0E       		.uleb128 0xe
 10011 00a8 3A       		.uleb128 0x3a
 10012 00a9 0B       		.uleb128 0xb
 10013 00aa 3B       		.uleb128 0x3b
 10014 00ab 05       		.uleb128 0x5
 10015 00ac 49       		.uleb128 0x49
 10016 00ad 13       		.uleb128 0x13
 10017 00ae 38       		.uleb128 0x38
 10018 00af 0B       		.uleb128 0xb
 10019 00b0 00       		.byte	0
 10020 00b1 00       		.byte	0
 10021 00b2 0F       		.uleb128 0xf
 10022 00b3 13       		.uleb128 0x13
 10023 00b4 01       		.byte	0x1
 10024 00b5 03       		.uleb128 0x3
 10025 00b6 0E       		.uleb128 0xe
 10026 00b7 0B       		.uleb128 0xb
 10027 00b8 0B       		.uleb128 0xb
 10028 00b9 3A       		.uleb128 0x3a
 10029 00ba 0B       		.uleb128 0xb
 10030 00bb 3B       		.uleb128 0x3b
 10031 00bc 05       		.uleb128 0x5
ARM GAS  /tmp/cc2f1tkm.s 			page 177


 10032 00bd 01       		.uleb128 0x1
 10033 00be 13       		.uleb128 0x13
 10034 00bf 00       		.byte	0
 10035 00c0 00       		.byte	0
 10036 00c1 10       		.uleb128 0x10
 10037 00c2 0D       		.uleb128 0xd
 10038 00c3 00       		.byte	0
 10039 00c4 03       		.uleb128 0x3
 10040 00c5 0E       		.uleb128 0xe
 10041 00c6 3A       		.uleb128 0x3a
 10042 00c7 0B       		.uleb128 0xb
 10043 00c8 3B       		.uleb128 0x3b
 10044 00c9 0B       		.uleb128 0xb
 10045 00ca 49       		.uleb128 0x49
 10046 00cb 13       		.uleb128 0x13
 10047 00cc 0B       		.uleb128 0xb
 10048 00cd 0B       		.uleb128 0xb
 10049 00ce 0D       		.uleb128 0xd
 10050 00cf 0B       		.uleb128 0xb
 10051 00d0 0C       		.uleb128 0xc
 10052 00d1 0B       		.uleb128 0xb
 10053 00d2 38       		.uleb128 0x38
 10054 00d3 0B       		.uleb128 0xb
 10055 00d4 00       		.byte	0
 10056 00d5 00       		.byte	0
 10057 00d6 11       		.uleb128 0x11
 10058 00d7 0F       		.uleb128 0xf
 10059 00d8 00       		.byte	0
 10060 00d9 0B       		.uleb128 0xb
 10061 00da 0B       		.uleb128 0xb
 10062 00db 49       		.uleb128 0x49
 10063 00dc 13       		.uleb128 0x13
 10064 00dd 00       		.byte	0
 10065 00de 00       		.byte	0
 10066 00df 12       		.uleb128 0x12
 10067 00e0 15       		.uleb128 0x15
 10068 00e1 01       		.byte	0x1
 10069 00e2 27       		.uleb128 0x27
 10070 00e3 19       		.uleb128 0x19
 10071 00e4 49       		.uleb128 0x49
 10072 00e5 13       		.uleb128 0x13
 10073 00e6 01       		.uleb128 0x1
 10074 00e7 13       		.uleb128 0x13
 10075 00e8 00       		.byte	0
 10076 00e9 00       		.byte	0
 10077 00ea 13       		.uleb128 0x13
 10078 00eb 05       		.uleb128 0x5
 10079 00ec 00       		.byte	0
 10080 00ed 49       		.uleb128 0x49
 10081 00ee 13       		.uleb128 0x13
 10082 00ef 00       		.byte	0
 10083 00f0 00       		.byte	0
 10084 00f1 14       		.uleb128 0x14
 10085 00f2 15       		.uleb128 0x15
 10086 00f3 01       		.byte	0x1
 10087 00f4 27       		.uleb128 0x27
 10088 00f5 19       		.uleb128 0x19
ARM GAS  /tmp/cc2f1tkm.s 			page 178


 10089 00f6 01       		.uleb128 0x1
 10090 00f7 13       		.uleb128 0x13
 10091 00f8 00       		.byte	0
 10092 00f9 00       		.byte	0
 10093 00fa 15       		.uleb128 0x15
 10094 00fb 17       		.uleb128 0x17
 10095 00fc 01       		.byte	0x1
 10096 00fd 03       		.uleb128 0x3
 10097 00fe 0E       		.uleb128 0xe
 10098 00ff 0B       		.uleb128 0xb
 10099 0100 0B       		.uleb128 0xb
 10100 0101 3A       		.uleb128 0x3a
 10101 0102 0B       		.uleb128 0xb
 10102 0103 3B       		.uleb128 0x3b
 10103 0104 0B       		.uleb128 0xb
 10104 0105 01       		.uleb128 0x1
 10105 0106 13       		.uleb128 0x13
 10106 0107 00       		.byte	0
 10107 0108 00       		.byte	0
 10108 0109 16       		.uleb128 0x16
 10109 010a 0D       		.uleb128 0xd
 10110 010b 00       		.byte	0
 10111 010c 03       		.uleb128 0x3
 10112 010d 0E       		.uleb128 0xe
 10113 010e 3A       		.uleb128 0x3a
 10114 010f 0B       		.uleb128 0xb
 10115 0110 3B       		.uleb128 0x3b
 10116 0111 0B       		.uleb128 0xb
 10117 0112 49       		.uleb128 0x49
 10118 0113 13       		.uleb128 0x13
 10119 0114 00       		.byte	0
 10120 0115 00       		.byte	0
 10121 0116 17       		.uleb128 0x17
 10122 0117 21       		.uleb128 0x21
 10123 0118 00       		.byte	0
 10124 0119 49       		.uleb128 0x49
 10125 011a 13       		.uleb128 0x13
 10126 011b 00       		.byte	0
 10127 011c 00       		.byte	0
 10128 011d 18       		.uleb128 0x18
 10129 011e 0F       		.uleb128 0xf
 10130 011f 00       		.byte	0
 10131 0120 0B       		.uleb128 0xb
 10132 0121 0B       		.uleb128 0xb
 10133 0122 00       		.byte	0
 10134 0123 00       		.byte	0
 10135 0124 19       		.uleb128 0x19
 10136 0125 13       		.uleb128 0x13
 10137 0126 00       		.byte	0
 10138 0127 03       		.uleb128 0x3
 10139 0128 0E       		.uleb128 0xe
 10140 0129 3C       		.uleb128 0x3c
 10141 012a 19       		.uleb128 0x19
 10142 012b 00       		.byte	0
 10143 012c 00       		.byte	0
 10144 012d 1A       		.uleb128 0x1a
 10145 012e 16       		.uleb128 0x16
ARM GAS  /tmp/cc2f1tkm.s 			page 179


 10146 012f 00       		.byte	0
 10147 0130 03       		.uleb128 0x3
 10148 0131 0E       		.uleb128 0xe
 10149 0132 3A       		.uleb128 0x3a
 10150 0133 0B       		.uleb128 0xb
 10151 0134 3B       		.uleb128 0x3b
 10152 0135 05       		.uleb128 0x5
 10153 0136 49       		.uleb128 0x49
 10154 0137 13       		.uleb128 0x13
 10155 0138 00       		.byte	0
 10156 0139 00       		.byte	0
 10157 013a 1B       		.uleb128 0x1b
 10158 013b 17       		.uleb128 0x17
 10159 013c 01       		.byte	0x1
 10160 013d 0B       		.uleb128 0xb
 10161 013e 0B       		.uleb128 0xb
 10162 013f 3A       		.uleb128 0x3a
 10163 0140 0B       		.uleb128 0xb
 10164 0141 3B       		.uleb128 0x3b
 10165 0142 0B       		.uleb128 0xb
 10166 0143 01       		.uleb128 0x1
 10167 0144 13       		.uleb128 0x13
 10168 0145 00       		.byte	0
 10169 0146 00       		.byte	0
 10170 0147 1C       		.uleb128 0x1c
 10171 0148 13       		.uleb128 0x13
 10172 0149 01       		.byte	0x1
 10173 014a 03       		.uleb128 0x3
 10174 014b 0E       		.uleb128 0xe
 10175 014c 0B       		.uleb128 0xb
 10176 014d 05       		.uleb128 0x5
 10177 014e 3A       		.uleb128 0x3a
 10178 014f 0B       		.uleb128 0xb
 10179 0150 3B       		.uleb128 0x3b
 10180 0151 0B       		.uleb128 0xb
 10181 0152 01       		.uleb128 0x1
 10182 0153 13       		.uleb128 0x13
 10183 0154 00       		.byte	0
 10184 0155 00       		.byte	0
 10185 0156 1D       		.uleb128 0x1d
 10186 0157 0D       		.uleb128 0xd
 10187 0158 00       		.byte	0
 10188 0159 03       		.uleb128 0x3
 10189 015a 0E       		.uleb128 0xe
 10190 015b 3A       		.uleb128 0x3a
 10191 015c 0B       		.uleb128 0xb
 10192 015d 3B       		.uleb128 0x3b
 10193 015e 0B       		.uleb128 0xb
 10194 015f 49       		.uleb128 0x49
 10195 0160 13       		.uleb128 0x13
 10196 0161 38       		.uleb128 0x38
 10197 0162 05       		.uleb128 0x5
 10198 0163 00       		.byte	0
 10199 0164 00       		.byte	0
 10200 0165 1E       		.uleb128 0x1e
 10201 0166 15       		.uleb128 0x15
 10202 0167 00       		.byte	0
ARM GAS  /tmp/cc2f1tkm.s 			page 180


 10203 0168 27       		.uleb128 0x27
 10204 0169 19       		.uleb128 0x19
 10205 016a 00       		.byte	0
 10206 016b 00       		.byte	0
 10207 016c 1F       		.uleb128 0x1f
 10208 016d 13       		.uleb128 0x13
 10209 016e 01       		.byte	0x1
 10210 016f 03       		.uleb128 0x3
 10211 0170 0E       		.uleb128 0xe
 10212 0171 0B       		.uleb128 0xb
 10213 0172 05       		.uleb128 0x5
 10214 0173 3A       		.uleb128 0x3a
 10215 0174 0B       		.uleb128 0xb
 10216 0175 3B       		.uleb128 0x3b
 10217 0176 05       		.uleb128 0x5
 10218 0177 01       		.uleb128 0x1
 10219 0178 13       		.uleb128 0x13
 10220 0179 00       		.byte	0
 10221 017a 00       		.byte	0
 10222 017b 20       		.uleb128 0x20
 10223 017c 0D       		.uleb128 0xd
 10224 017d 00       		.byte	0
 10225 017e 03       		.uleb128 0x3
 10226 017f 0E       		.uleb128 0xe
 10227 0180 3A       		.uleb128 0x3a
 10228 0181 0B       		.uleb128 0xb
 10229 0182 3B       		.uleb128 0x3b
 10230 0183 05       		.uleb128 0x5
 10231 0184 49       		.uleb128 0x49
 10232 0185 13       		.uleb128 0x13
 10233 0186 38       		.uleb128 0x38
 10234 0187 05       		.uleb128 0x5
 10235 0188 00       		.byte	0
 10236 0189 00       		.byte	0
 10237 018a 21       		.uleb128 0x21
 10238 018b 13       		.uleb128 0x13
 10239 018c 01       		.byte	0x1
 10240 018d 0B       		.uleb128 0xb
 10241 018e 0B       		.uleb128 0xb
 10242 018f 3A       		.uleb128 0x3a
 10243 0190 0B       		.uleb128 0xb
 10244 0191 3B       		.uleb128 0x3b
 10245 0192 05       		.uleb128 0x5
 10246 0193 01       		.uleb128 0x1
 10247 0194 13       		.uleb128 0x13
 10248 0195 00       		.byte	0
 10249 0196 00       		.byte	0
 10250 0197 22       		.uleb128 0x22
 10251 0198 17       		.uleb128 0x17
 10252 0199 01       		.byte	0x1
 10253 019a 0B       		.uleb128 0xb
 10254 019b 0B       		.uleb128 0xb
 10255 019c 3A       		.uleb128 0x3a
 10256 019d 0B       		.uleb128 0xb
 10257 019e 3B       		.uleb128 0x3b
 10258 019f 05       		.uleb128 0x5
 10259 01a0 01       		.uleb128 0x1
ARM GAS  /tmp/cc2f1tkm.s 			page 181


 10260 01a1 13       		.uleb128 0x13
 10261 01a2 00       		.byte	0
 10262 01a3 00       		.byte	0
 10263 01a4 23       		.uleb128 0x23
 10264 01a5 0D       		.uleb128 0xd
 10265 01a6 00       		.byte	0
 10266 01a7 03       		.uleb128 0x3
 10267 01a8 0E       		.uleb128 0xe
 10268 01a9 3A       		.uleb128 0x3a
 10269 01aa 0B       		.uleb128 0xb
 10270 01ab 3B       		.uleb128 0x3b
 10271 01ac 05       		.uleb128 0x5
 10272 01ad 49       		.uleb128 0x49
 10273 01ae 13       		.uleb128 0x13
 10274 01af 00       		.byte	0
 10275 01b0 00       		.byte	0
 10276 01b1 24       		.uleb128 0x24
 10277 01b2 34       		.uleb128 0x34
 10278 01b3 00       		.byte	0
 10279 01b4 03       		.uleb128 0x3
 10280 01b5 0E       		.uleb128 0xe
 10281 01b6 3A       		.uleb128 0x3a
 10282 01b7 0B       		.uleb128 0xb
 10283 01b8 3B       		.uleb128 0x3b
 10284 01b9 05       		.uleb128 0x5
 10285 01ba 49       		.uleb128 0x49
 10286 01bb 13       		.uleb128 0x13
 10287 01bc 3F       		.uleb128 0x3f
 10288 01bd 19       		.uleb128 0x19
 10289 01be 3C       		.uleb128 0x3c
 10290 01bf 19       		.uleb128 0x19
 10291 01c0 00       		.byte	0
 10292 01c1 00       		.byte	0
 10293 01c2 25       		.uleb128 0x25
 10294 01c3 2E       		.uleb128 0x2e
 10295 01c4 01       		.byte	0x1
 10296 01c5 03       		.uleb128 0x3
 10297 01c6 0E       		.uleb128 0xe
 10298 01c7 3A       		.uleb128 0x3a
 10299 01c8 0B       		.uleb128 0xb
 10300 01c9 3B       		.uleb128 0x3b
 10301 01ca 05       		.uleb128 0x5
 10302 01cb 27       		.uleb128 0x27
 10303 01cc 19       		.uleb128 0x19
 10304 01cd 20       		.uleb128 0x20
 10305 01ce 0B       		.uleb128 0xb
 10306 01cf 01       		.uleb128 0x1
 10307 01d0 13       		.uleb128 0x13
 10308 01d1 00       		.byte	0
 10309 01d2 00       		.byte	0
 10310 01d3 26       		.uleb128 0x26
 10311 01d4 05       		.uleb128 0x5
 10312 01d5 00       		.byte	0
 10313 01d6 03       		.uleb128 0x3
 10314 01d7 0E       		.uleb128 0xe
 10315 01d8 3A       		.uleb128 0x3a
 10316 01d9 0B       		.uleb128 0xb
ARM GAS  /tmp/cc2f1tkm.s 			page 182


 10317 01da 3B       		.uleb128 0x3b
 10318 01db 05       		.uleb128 0x5
 10319 01dc 49       		.uleb128 0x49
 10320 01dd 13       		.uleb128 0x13
 10321 01de 00       		.byte	0
 10322 01df 00       		.byte	0
 10323 01e0 27       		.uleb128 0x27
 10324 01e1 05       		.uleb128 0x5
 10325 01e2 00       		.byte	0
 10326 01e3 03       		.uleb128 0x3
 10327 01e4 08       		.uleb128 0x8
 10328 01e5 3A       		.uleb128 0x3a
 10329 01e6 0B       		.uleb128 0xb
 10330 01e7 3B       		.uleb128 0x3b
 10331 01e8 05       		.uleb128 0x5
 10332 01e9 49       		.uleb128 0x49
 10333 01ea 13       		.uleb128 0x13
 10334 01eb 00       		.byte	0
 10335 01ec 00       		.byte	0
 10336 01ed 28       		.uleb128 0x28
 10337 01ee 34       		.uleb128 0x34
 10338 01ef 00       		.byte	0
 10339 01f0 03       		.uleb128 0x3
 10340 01f1 0E       		.uleb128 0xe
 10341 01f2 3A       		.uleb128 0x3a
 10342 01f3 0B       		.uleb128 0xb
 10343 01f4 3B       		.uleb128 0x3b
 10344 01f5 05       		.uleb128 0x5
 10345 01f6 49       		.uleb128 0x49
 10346 01f7 13       		.uleb128 0x13
 10347 01f8 00       		.byte	0
 10348 01f9 00       		.byte	0
 10349 01fa 29       		.uleb128 0x29
 10350 01fb 2E       		.uleb128 0x2e
 10351 01fc 01       		.byte	0x1
 10352 01fd 03       		.uleb128 0x3
 10353 01fe 0E       		.uleb128 0xe
 10354 01ff 3A       		.uleb128 0x3a
 10355 0200 0B       		.uleb128 0xb
 10356 0201 3B       		.uleb128 0x3b
 10357 0202 05       		.uleb128 0x5
 10358 0203 27       		.uleb128 0x27
 10359 0204 19       		.uleb128 0x19
 10360 0205 49       		.uleb128 0x49
 10361 0206 13       		.uleb128 0x13
 10362 0207 20       		.uleb128 0x20
 10363 0208 0B       		.uleb128 0xb
 10364 0209 01       		.uleb128 0x1
 10365 020a 13       		.uleb128 0x13
 10366 020b 00       		.byte	0
 10367 020c 00       		.byte	0
 10368 020d 2A       		.uleb128 0x2a
 10369 020e 0B       		.uleb128 0xb
 10370 020f 01       		.byte	0x1
 10371 0210 00       		.byte	0
 10372 0211 00       		.byte	0
 10373 0212 2B       		.uleb128 0x2b
ARM GAS  /tmp/cc2f1tkm.s 			page 183


 10374 0213 34       		.uleb128 0x34
 10375 0214 00       		.byte	0
 10376 0215 03       		.uleb128 0x3
 10377 0216 08       		.uleb128 0x8
 10378 0217 3A       		.uleb128 0x3a
 10379 0218 0B       		.uleb128 0xb
 10380 0219 3B       		.uleb128 0x3b
 10381 021a 05       		.uleb128 0x5
 10382 021b 49       		.uleb128 0x49
 10383 021c 13       		.uleb128 0x13
 10384 021d 00       		.byte	0
 10385 021e 00       		.byte	0
 10386 021f 2C       		.uleb128 0x2c
 10387 0220 0D       		.uleb128 0xd
 10388 0221 00       		.byte	0
 10389 0222 03       		.uleb128 0x3
 10390 0223 08       		.uleb128 0x8
 10391 0224 3A       		.uleb128 0x3a
 10392 0225 0B       		.uleb128 0xb
 10393 0226 3B       		.uleb128 0x3b
 10394 0227 05       		.uleb128 0x5
 10395 0228 49       		.uleb128 0x49
 10396 0229 13       		.uleb128 0x13
 10397 022a 00       		.byte	0
 10398 022b 00       		.byte	0
 10399 022c 2D       		.uleb128 0x2d
 10400 022d 0B       		.uleb128 0xb
 10401 022e 01       		.byte	0x1
 10402 022f 01       		.uleb128 0x1
 10403 0230 13       		.uleb128 0x13
 10404 0231 00       		.byte	0
 10405 0232 00       		.byte	0
 10406 0233 2E       		.uleb128 0x2e
 10407 0234 2E       		.uleb128 0x2e
 10408 0235 01       		.byte	0x1
 10409 0236 03       		.uleb128 0x3
 10410 0237 0E       		.uleb128 0xe
 10411 0238 3A       		.uleb128 0x3a
 10412 0239 0B       		.uleb128 0xb
 10413 023a 3B       		.uleb128 0x3b
 10414 023b 05       		.uleb128 0x5
 10415 023c 27       		.uleb128 0x27
 10416 023d 19       		.uleb128 0x19
 10417 023e 11       		.uleb128 0x11
 10418 023f 01       		.uleb128 0x1
 10419 0240 12       		.uleb128 0x12
 10420 0241 06       		.uleb128 0x6
 10421 0242 40       		.uleb128 0x40
 10422 0243 18       		.uleb128 0x18
 10423 0244 9742     		.uleb128 0x2117
 10424 0246 19       		.uleb128 0x19
 10425 0247 01       		.uleb128 0x1
 10426 0248 13       		.uleb128 0x13
 10427 0249 00       		.byte	0
 10428 024a 00       		.byte	0
 10429 024b 2F       		.uleb128 0x2f
 10430 024c 05       		.uleb128 0x5
ARM GAS  /tmp/cc2f1tkm.s 			page 184


 10431 024d 00       		.byte	0
 10432 024e 03       		.uleb128 0x3
 10433 024f 08       		.uleb128 0x8
 10434 0250 3A       		.uleb128 0x3a
 10435 0251 0B       		.uleb128 0xb
 10436 0252 3B       		.uleb128 0x3b
 10437 0253 05       		.uleb128 0x5
 10438 0254 49       		.uleb128 0x49
 10439 0255 13       		.uleb128 0x13
 10440 0256 02       		.uleb128 0x2
 10441 0257 17       		.uleb128 0x17
 10442 0258 00       		.byte	0
 10443 0259 00       		.byte	0
 10444 025a 30       		.uleb128 0x30
 10445 025b 05       		.uleb128 0x5
 10446 025c 00       		.byte	0
 10447 025d 03       		.uleb128 0x3
 10448 025e 0E       		.uleb128 0xe
 10449 025f 3A       		.uleb128 0x3a
 10450 0260 0B       		.uleb128 0xb
 10451 0261 3B       		.uleb128 0x3b
 10452 0262 05       		.uleb128 0x5
 10453 0263 49       		.uleb128 0x49
 10454 0264 13       		.uleb128 0x13
 10455 0265 02       		.uleb128 0x2
 10456 0266 17       		.uleb128 0x17
 10457 0267 00       		.byte	0
 10458 0268 00       		.byte	0
 10459 0269 31       		.uleb128 0x31
 10460 026a 34       		.uleb128 0x34
 10461 026b 00       		.byte	0
 10462 026c 03       		.uleb128 0x3
 10463 026d 0E       		.uleb128 0xe
 10464 026e 3A       		.uleb128 0x3a
 10465 026f 0B       		.uleb128 0xb
 10466 0270 3B       		.uleb128 0x3b
 10467 0271 05       		.uleb128 0x5
 10468 0272 49       		.uleb128 0x49
 10469 0273 13       		.uleb128 0x13
 10470 0274 02       		.uleb128 0x2
 10471 0275 18       		.uleb128 0x18
 10472 0276 00       		.byte	0
 10473 0277 00       		.byte	0
 10474 0278 32       		.uleb128 0x32
 10475 0279 0B       		.uleb128 0xb
 10476 027a 01       		.byte	0x1
 10477 027b 55       		.uleb128 0x55
 10478 027c 17       		.uleb128 0x17
 10479 027d 00       		.byte	0
 10480 027e 00       		.byte	0
 10481 027f 33       		.uleb128 0x33
 10482 0280 34       		.uleb128 0x34
 10483 0281 00       		.byte	0
 10484 0282 03       		.uleb128 0x3
 10485 0283 0E       		.uleb128 0xe
 10486 0284 3A       		.uleb128 0x3a
 10487 0285 0B       		.uleb128 0xb
ARM GAS  /tmp/cc2f1tkm.s 			page 185


 10488 0286 3B       		.uleb128 0x3b
 10489 0287 05       		.uleb128 0x5
 10490 0288 49       		.uleb128 0x49
 10491 0289 13       		.uleb128 0x13
 10492 028a 02       		.uleb128 0x2
 10493 028b 17       		.uleb128 0x17
 10494 028c 00       		.byte	0
 10495 028d 00       		.byte	0
 10496 028e 34       		.uleb128 0x34
 10497 028f 2E       		.uleb128 0x2e
 10498 0290 01       		.byte	0x1
 10499 0291 03       		.uleb128 0x3
 10500 0292 0E       		.uleb128 0xe
 10501 0293 3A       		.uleb128 0x3a
 10502 0294 0B       		.uleb128 0xb
 10503 0295 3B       		.uleb128 0x3b
 10504 0296 05       		.uleb128 0x5
 10505 0297 27       		.uleb128 0x27
 10506 0298 19       		.uleb128 0x19
 10507 0299 49       		.uleb128 0x49
 10508 029a 13       		.uleb128 0x13
 10509 029b 11       		.uleb128 0x11
 10510 029c 01       		.uleb128 0x1
 10511 029d 12       		.uleb128 0x12
 10512 029e 06       		.uleb128 0x6
 10513 029f 40       		.uleb128 0x40
 10514 02a0 18       		.uleb128 0x18
 10515 02a1 9742     		.uleb128 0x2117
 10516 02a3 19       		.uleb128 0x19
 10517 02a4 01       		.uleb128 0x1
 10518 02a5 13       		.uleb128 0x13
 10519 02a6 00       		.byte	0
 10520 02a7 00       		.byte	0
 10521 02a8 35       		.uleb128 0x35
 10522 02a9 05       		.uleb128 0x5
 10523 02aa 00       		.byte	0
 10524 02ab 03       		.uleb128 0x3
 10525 02ac 0E       		.uleb128 0xe
 10526 02ad 3A       		.uleb128 0x3a
 10527 02ae 0B       		.uleb128 0xb
 10528 02af 3B       		.uleb128 0x3b
 10529 02b0 05       		.uleb128 0x5
 10530 02b1 49       		.uleb128 0x49
 10531 02b2 13       		.uleb128 0x13
 10532 02b3 02       		.uleb128 0x2
 10533 02b4 18       		.uleb128 0x18
 10534 02b5 00       		.byte	0
 10535 02b6 00       		.byte	0
 10536 02b7 36       		.uleb128 0x36
 10537 02b8 0B       		.uleb128 0xb
 10538 02b9 01       		.byte	0x1
 10539 02ba 55       		.uleb128 0x55
 10540 02bb 17       		.uleb128 0x17
 10541 02bc 01       		.uleb128 0x1
 10542 02bd 13       		.uleb128 0x13
 10543 02be 00       		.byte	0
 10544 02bf 00       		.byte	0
ARM GAS  /tmp/cc2f1tkm.s 			page 186


 10545 02c0 37       		.uleb128 0x37
 10546 02c1 34       		.uleb128 0x34
 10547 02c2 00       		.byte	0
 10548 02c3 03       		.uleb128 0x3
 10549 02c4 08       		.uleb128 0x8
 10550 02c5 3A       		.uleb128 0x3a
 10551 02c6 0B       		.uleb128 0xb
 10552 02c7 3B       		.uleb128 0x3b
 10553 02c8 05       		.uleb128 0x5
 10554 02c9 49       		.uleb128 0x49
 10555 02ca 13       		.uleb128 0x13
 10556 02cb 02       		.uleb128 0x2
 10557 02cc 17       		.uleb128 0x17
 10558 02cd 00       		.byte	0
 10559 02ce 00       		.byte	0
 10560 02cf 38       		.uleb128 0x38
 10561 02d0 0B       		.uleb128 0xb
 10562 02d1 01       		.byte	0x1
 10563 02d2 11       		.uleb128 0x11
 10564 02d3 01       		.uleb128 0x1
 10565 02d4 12       		.uleb128 0x12
 10566 02d5 06       		.uleb128 0x6
 10567 02d6 01       		.uleb128 0x1
 10568 02d7 13       		.uleb128 0x13
 10569 02d8 00       		.byte	0
 10570 02d9 00       		.byte	0
 10571 02da 39       		.uleb128 0x39
 10572 02db 1D       		.uleb128 0x1d
 10573 02dc 01       		.byte	0x1
 10574 02dd 31       		.uleb128 0x31
 10575 02de 13       		.uleb128 0x13
 10576 02df 11       		.uleb128 0x11
 10577 02e0 01       		.uleb128 0x1
 10578 02e1 12       		.uleb128 0x12
 10579 02e2 06       		.uleb128 0x6
 10580 02e3 58       		.uleb128 0x58
 10581 02e4 0B       		.uleb128 0xb
 10582 02e5 59       		.uleb128 0x59
 10583 02e6 05       		.uleb128 0x5
 10584 02e7 00       		.byte	0
 10585 02e8 00       		.byte	0
 10586 02e9 3A       		.uleb128 0x3a
 10587 02ea 05       		.uleb128 0x5
 10588 02eb 00       		.byte	0
 10589 02ec 31       		.uleb128 0x31
 10590 02ed 13       		.uleb128 0x13
 10591 02ee 02       		.uleb128 0x2
 10592 02ef 17       		.uleb128 0x17
 10593 02f0 00       		.byte	0
 10594 02f1 00       		.byte	0
 10595 02f2 3B       		.uleb128 0x3b
 10596 02f3 0B       		.uleb128 0xb
 10597 02f4 01       		.byte	0x1
 10598 02f5 11       		.uleb128 0x11
 10599 02f6 01       		.uleb128 0x1
 10600 02f7 12       		.uleb128 0x12
 10601 02f8 06       		.uleb128 0x6
ARM GAS  /tmp/cc2f1tkm.s 			page 187


 10602 02f9 00       		.byte	0
 10603 02fa 00       		.byte	0
 10604 02fb 3C       		.uleb128 0x3c
 10605 02fc 34       		.uleb128 0x34
 10606 02fd 00       		.byte	0
 10607 02fe 31       		.uleb128 0x31
 10608 02ff 13       		.uleb128 0x13
 10609 0300 00       		.byte	0
 10610 0301 00       		.byte	0
 10611 0302 3D       		.uleb128 0x3d
 10612 0303 34       		.uleb128 0x34
 10613 0304 00       		.byte	0
 10614 0305 31       		.uleb128 0x31
 10615 0306 13       		.uleb128 0x13
 10616 0307 02       		.uleb128 0x2
 10617 0308 17       		.uleb128 0x17
 10618 0309 00       		.byte	0
 10619 030a 00       		.byte	0
 10620 030b 3E       		.uleb128 0x3e
 10621 030c 1D       		.uleb128 0x1d
 10622 030d 01       		.byte	0x1
 10623 030e 31       		.uleb128 0x31
 10624 030f 13       		.uleb128 0x13
 10625 0310 11       		.uleb128 0x11
 10626 0311 01       		.uleb128 0x1
 10627 0312 12       		.uleb128 0x12
 10628 0313 06       		.uleb128 0x6
 10629 0314 58       		.uleb128 0x58
 10630 0315 0B       		.uleb128 0xb
 10631 0316 59       		.uleb128 0x59
 10632 0317 05       		.uleb128 0x5
 10633 0318 01       		.uleb128 0x1
 10634 0319 13       		.uleb128 0x13
 10635 031a 00       		.byte	0
 10636 031b 00       		.byte	0
 10637 031c 3F       		.uleb128 0x3f
 10638 031d 1D       		.uleb128 0x1d
 10639 031e 01       		.byte	0x1
 10640 031f 31       		.uleb128 0x31
 10641 0320 13       		.uleb128 0x13
 10642 0321 52       		.uleb128 0x52
 10643 0322 01       		.uleb128 0x1
 10644 0323 55       		.uleb128 0x55
 10645 0324 17       		.uleb128 0x17
 10646 0325 58       		.uleb128 0x58
 10647 0326 0B       		.uleb128 0xb
 10648 0327 59       		.uleb128 0x59
 10649 0328 05       		.uleb128 0x5
 10650 0329 00       		.byte	0
 10651 032a 00       		.byte	0
 10652 032b 40       		.uleb128 0x40
 10653 032c 1D       		.uleb128 0x1d
 10654 032d 01       		.byte	0x1
 10655 032e 31       		.uleb128 0x31
 10656 032f 13       		.uleb128 0x13
 10657 0330 52       		.uleb128 0x52
 10658 0331 01       		.uleb128 0x1
ARM GAS  /tmp/cc2f1tkm.s 			page 188


 10659 0332 55       		.uleb128 0x55
 10660 0333 17       		.uleb128 0x17
 10661 0334 58       		.uleb128 0x58
 10662 0335 0B       		.uleb128 0xb
 10663 0336 59       		.uleb128 0x59
 10664 0337 05       		.uleb128 0x5
 10665 0338 01       		.uleb128 0x1
 10666 0339 13       		.uleb128 0x13
 10667 033a 00       		.byte	0
 10668 033b 00       		.byte	0
 10669 033c 41       		.uleb128 0x41
 10670 033d 898201   		.uleb128 0x4109
 10671 0340 01       		.byte	0x1
 10672 0341 11       		.uleb128 0x11
 10673 0342 01       		.uleb128 0x1
 10674 0343 31       		.uleb128 0x31
 10675 0344 13       		.uleb128 0x13
 10676 0345 00       		.byte	0
 10677 0346 00       		.byte	0
 10678 0347 42       		.uleb128 0x42
 10679 0348 8A8201   		.uleb128 0x410a
 10680 034b 00       		.byte	0
 10681 034c 02       		.uleb128 0x2
 10682 034d 18       		.uleb128 0x18
 10683 034e 9142     		.uleb128 0x2111
 10684 0350 18       		.uleb128 0x18
 10685 0351 00       		.byte	0
 10686 0352 00       		.byte	0
 10687 0353 43       		.uleb128 0x43
 10688 0354 2E       		.uleb128 0x2e
 10689 0355 01       		.byte	0x1
 10690 0356 3F       		.uleb128 0x3f
 10691 0357 19       		.uleb128 0x19
 10692 0358 03       		.uleb128 0x3
 10693 0359 0E       		.uleb128 0xe
 10694 035a 3A       		.uleb128 0x3a
 10695 035b 0B       		.uleb128 0xb
 10696 035c 3B       		.uleb128 0x3b
 10697 035d 05       		.uleb128 0x5
 10698 035e 27       		.uleb128 0x27
 10699 035f 19       		.uleb128 0x19
 10700 0360 49       		.uleb128 0x49
 10701 0361 13       		.uleb128 0x13
 10702 0362 11       		.uleb128 0x11
 10703 0363 01       		.uleb128 0x1
 10704 0364 12       		.uleb128 0x12
 10705 0365 06       		.uleb128 0x6
 10706 0366 40       		.uleb128 0x40
 10707 0367 18       		.uleb128 0x18
 10708 0368 9742     		.uleb128 0x2117
 10709 036a 19       		.uleb128 0x19
 10710 036b 01       		.uleb128 0x1
 10711 036c 13       		.uleb128 0x13
 10712 036d 00       		.byte	0
 10713 036e 00       		.byte	0
 10714 036f 44       		.uleb128 0x44
 10715 0370 17       		.uleb128 0x17
ARM GAS  /tmp/cc2f1tkm.s 			page 189


 10716 0371 01       		.byte	0x1
 10717 0372 03       		.uleb128 0x3
 10718 0373 0E       		.uleb128 0xe
 10719 0374 0B       		.uleb128 0xb
 10720 0375 0B       		.uleb128 0xb
 10721 0376 3A       		.uleb128 0x3a
 10722 0377 0B       		.uleb128 0xb
 10723 0378 3B       		.uleb128 0x3b
 10724 0379 05       		.uleb128 0x5
 10725 037a 01       		.uleb128 0x1
 10726 037b 13       		.uleb128 0x13
 10727 037c 00       		.byte	0
 10728 037d 00       		.byte	0
 10729 037e 45       		.uleb128 0x45
 10730 037f 34       		.uleb128 0x34
 10731 0380 00       		.byte	0
 10732 0381 03       		.uleb128 0x3
 10733 0382 0E       		.uleb128 0xe
 10734 0383 3A       		.uleb128 0x3a
 10735 0384 0B       		.uleb128 0xb
 10736 0385 3B       		.uleb128 0x3b
 10737 0386 05       		.uleb128 0x5
 10738 0387 49       		.uleb128 0x49
 10739 0388 13       		.uleb128 0x13
 10740 0389 1C       		.uleb128 0x1c
 10741 038a 0D       		.uleb128 0xd
 10742 038b 00       		.byte	0
 10743 038c 00       		.byte	0
 10744 038d 46       		.uleb128 0x46
 10745 038e 05       		.uleb128 0x5
 10746 038f 00       		.byte	0
 10747 0390 03       		.uleb128 0x3
 10748 0391 08       		.uleb128 0x8
 10749 0392 3A       		.uleb128 0x3a
 10750 0393 0B       		.uleb128 0xb
 10751 0394 3B       		.uleb128 0x3b
 10752 0395 05       		.uleb128 0x5
 10753 0396 49       		.uleb128 0x49
 10754 0397 13       		.uleb128 0x13
 10755 0398 02       		.uleb128 0x2
 10756 0399 18       		.uleb128 0x18
 10757 039a 00       		.byte	0
 10758 039b 00       		.byte	0
 10759 039c 47       		.uleb128 0x47
 10760 039d 2E       		.uleb128 0x2e
 10761 039e 01       		.byte	0x1
 10762 039f 3F       		.uleb128 0x3f
 10763 03a0 19       		.uleb128 0x19
 10764 03a1 03       		.uleb128 0x3
 10765 03a2 0E       		.uleb128 0xe
 10766 03a3 3A       		.uleb128 0x3a
 10767 03a4 0B       		.uleb128 0xb
 10768 03a5 3B       		.uleb128 0x3b
 10769 03a6 05       		.uleb128 0x5
 10770 03a7 27       		.uleb128 0x27
 10771 03a8 19       		.uleb128 0x19
 10772 03a9 20       		.uleb128 0x20
ARM GAS  /tmp/cc2f1tkm.s 			page 190


 10773 03aa 0B       		.uleb128 0xb
 10774 03ab 01       		.uleb128 0x1
 10775 03ac 13       		.uleb128 0x13
 10776 03ad 00       		.byte	0
 10777 03ae 00       		.byte	0
 10778 03af 48       		.uleb128 0x48
 10779 03b0 2E       		.uleb128 0x2e
 10780 03b1 01       		.byte	0x1
 10781 03b2 3F       		.uleb128 0x3f
 10782 03b3 19       		.uleb128 0x19
 10783 03b4 03       		.uleb128 0x3
 10784 03b5 0E       		.uleb128 0xe
 10785 03b6 3A       		.uleb128 0x3a
 10786 03b7 0B       		.uleb128 0xb
 10787 03b8 3B       		.uleb128 0x3b
 10788 03b9 05       		.uleb128 0x5
 10789 03ba 27       		.uleb128 0x27
 10790 03bb 19       		.uleb128 0x19
 10791 03bc 11       		.uleb128 0x11
 10792 03bd 01       		.uleb128 0x1
 10793 03be 12       		.uleb128 0x12
 10794 03bf 06       		.uleb128 0x6
 10795 03c0 40       		.uleb128 0x40
 10796 03c1 18       		.uleb128 0x18
 10797 03c2 9742     		.uleb128 0x2117
 10798 03c4 19       		.uleb128 0x19
 10799 03c5 01       		.uleb128 0x1
 10800 03c6 13       		.uleb128 0x13
 10801 03c7 00       		.byte	0
 10802 03c8 00       		.byte	0
 10803 03c9 49       		.uleb128 0x49
 10804 03ca 26       		.uleb128 0x26
 10805 03cb 00       		.byte	0
 10806 03cc 00       		.byte	0
 10807 03cd 00       		.byte	0
 10808 03ce 4A       		.uleb128 0x4a
 10809 03cf 05       		.uleb128 0x5
 10810 03d0 00       		.byte	0
 10811 03d1 31       		.uleb128 0x31
 10812 03d2 13       		.uleb128 0x13
 10813 03d3 00       		.byte	0
 10814 03d4 00       		.byte	0
 10815 03d5 4B       		.uleb128 0x4b
 10816 03d6 0B       		.uleb128 0xb
 10817 03d7 01       		.byte	0x1
 10818 03d8 31       		.uleb128 0x31
 10819 03d9 13       		.uleb128 0x13
 10820 03da 55       		.uleb128 0x55
 10821 03db 17       		.uleb128 0x17
 10822 03dc 01       		.uleb128 0x1
 10823 03dd 13       		.uleb128 0x13
 10824 03de 00       		.byte	0
 10825 03df 00       		.byte	0
 10826 03e0 4C       		.uleb128 0x4c
 10827 03e1 0B       		.uleb128 0xb
 10828 03e2 01       		.byte	0x1
 10829 03e3 31       		.uleb128 0x31
ARM GAS  /tmp/cc2f1tkm.s 			page 191


 10830 03e4 13       		.uleb128 0x13
 10831 03e5 55       		.uleb128 0x55
 10832 03e6 17       		.uleb128 0x17
 10833 03e7 00       		.byte	0
 10834 03e8 00       		.byte	0
 10835 03e9 4D       		.uleb128 0x4d
 10836 03ea 0B       		.uleb128 0xb
 10837 03eb 01       		.byte	0x1
 10838 03ec 31       		.uleb128 0x31
 10839 03ed 13       		.uleb128 0x13
 10840 03ee 11       		.uleb128 0x11
 10841 03ef 01       		.uleb128 0x1
 10842 03f0 12       		.uleb128 0x12
 10843 03f1 06       		.uleb128 0x6
 10844 03f2 01       		.uleb128 0x1
 10845 03f3 13       		.uleb128 0x13
 10846 03f4 00       		.byte	0
 10847 03f5 00       		.byte	0
 10848 03f6 4E       		.uleb128 0x4e
 10849 03f7 0B       		.uleb128 0xb
 10850 03f8 01       		.byte	0x1
 10851 03f9 31       		.uleb128 0x31
 10852 03fa 13       		.uleb128 0x13
 10853 03fb 11       		.uleb128 0x11
 10854 03fc 01       		.uleb128 0x1
 10855 03fd 12       		.uleb128 0x12
 10856 03fe 06       		.uleb128 0x6
 10857 03ff 00       		.byte	0
 10858 0400 00       		.byte	0
 10859 0401 4F       		.uleb128 0x4f
 10860 0402 2E       		.uleb128 0x2e
 10861 0403 01       		.byte	0x1
 10862 0404 3F       		.uleb128 0x3f
 10863 0405 19       		.uleb128 0x19
 10864 0406 03       		.uleb128 0x3
 10865 0407 0E       		.uleb128 0xe
 10866 0408 3A       		.uleb128 0x3a
 10867 0409 0B       		.uleb128 0xb
 10868 040a 3B       		.uleb128 0x3b
 10869 040b 0B       		.uleb128 0xb
 10870 040c 27       		.uleb128 0x27
 10871 040d 19       		.uleb128 0x19
 10872 040e 11       		.uleb128 0x11
 10873 040f 01       		.uleb128 0x1
 10874 0410 12       		.uleb128 0x12
 10875 0411 06       		.uleb128 0x6
 10876 0412 40       		.uleb128 0x40
 10877 0413 18       		.uleb128 0x18
 10878 0414 9742     		.uleb128 0x2117
 10879 0416 19       		.uleb128 0x19
 10880 0417 01       		.uleb128 0x1
 10881 0418 13       		.uleb128 0x13
 10882 0419 00       		.byte	0
 10883 041a 00       		.byte	0
 10884 041b 50       		.uleb128 0x50
 10885 041c 05       		.uleb128 0x5
 10886 041d 00       		.byte	0
ARM GAS  /tmp/cc2f1tkm.s 			page 192


 10887 041e 03       		.uleb128 0x3
 10888 041f 08       		.uleb128 0x8
 10889 0420 3A       		.uleb128 0x3a
 10890 0421 0B       		.uleb128 0xb
 10891 0422 3B       		.uleb128 0x3b
 10892 0423 0B       		.uleb128 0xb
 10893 0424 49       		.uleb128 0x49
 10894 0425 13       		.uleb128 0x13
 10895 0426 02       		.uleb128 0x2
 10896 0427 17       		.uleb128 0x17
 10897 0428 00       		.byte	0
 10898 0429 00       		.byte	0
 10899 042a 51       		.uleb128 0x51
 10900 042b 05       		.uleb128 0x5
 10901 042c 00       		.byte	0
 10902 042d 03       		.uleb128 0x3
 10903 042e 0E       		.uleb128 0xe
 10904 042f 3A       		.uleb128 0x3a
 10905 0430 0B       		.uleb128 0xb
 10906 0431 3B       		.uleb128 0x3b
 10907 0432 0B       		.uleb128 0xb
 10908 0433 49       		.uleb128 0x49
 10909 0434 13       		.uleb128 0x13
 10910 0435 02       		.uleb128 0x2
 10911 0436 17       		.uleb128 0x17
 10912 0437 00       		.byte	0
 10913 0438 00       		.byte	0
 10914 0439 52       		.uleb128 0x52
 10915 043a 34       		.uleb128 0x34
 10916 043b 00       		.byte	0
 10917 043c 03       		.uleb128 0x3
 10918 043d 0E       		.uleb128 0xe
 10919 043e 3A       		.uleb128 0x3a
 10920 043f 0B       		.uleb128 0xb
 10921 0440 3B       		.uleb128 0x3b
 10922 0441 0B       		.uleb128 0xb
 10923 0442 49       		.uleb128 0x49
 10924 0443 13       		.uleb128 0x13
 10925 0444 02       		.uleb128 0x2
 10926 0445 18       		.uleb128 0x18
 10927 0446 00       		.byte	0
 10928 0447 00       		.byte	0
 10929 0448 53       		.uleb128 0x53
 10930 0449 34       		.uleb128 0x34
 10931 044a 00       		.byte	0
 10932 044b 03       		.uleb128 0x3
 10933 044c 0E       		.uleb128 0xe
 10934 044d 3A       		.uleb128 0x3a
 10935 044e 0B       		.uleb128 0xb
 10936 044f 3B       		.uleb128 0x3b
 10937 0450 0B       		.uleb128 0xb
 10938 0451 49       		.uleb128 0x49
 10939 0452 13       		.uleb128 0x13
 10940 0453 02       		.uleb128 0x2
 10941 0454 17       		.uleb128 0x17
 10942 0455 00       		.byte	0
 10943 0456 00       		.byte	0
ARM GAS  /tmp/cc2f1tkm.s 			page 193


 10944 0457 54       		.uleb128 0x54
 10945 0458 898201   		.uleb128 0x4109
 10946 045b 01       		.byte	0x1
 10947 045c 11       		.uleb128 0x11
 10948 045d 01       		.uleb128 0x1
 10949 045e 9342     		.uleb128 0x2113
 10950 0460 18       		.uleb128 0x18
 10951 0461 00       		.byte	0
 10952 0462 00       		.byte	0
 10953 0463 55       		.uleb128 0x55
 10954 0464 898201   		.uleb128 0x4109
 10955 0467 01       		.byte	0x1
 10956 0468 11       		.uleb128 0x11
 10957 0469 01       		.uleb128 0x1
 10958 046a 00       		.byte	0
 10959 046b 00       		.byte	0
 10960 046c 56       		.uleb128 0x56
 10961 046d 1D       		.uleb128 0x1d
 10962 046e 01       		.byte	0x1
 10963 046f 31       		.uleb128 0x31
 10964 0470 13       		.uleb128 0x13
 10965 0471 52       		.uleb128 0x52
 10966 0472 01       		.uleb128 0x1
 10967 0473 55       		.uleb128 0x55
 10968 0474 17       		.uleb128 0x17
 10969 0475 58       		.uleb128 0x58
 10970 0476 0B       		.uleb128 0xb
 10971 0477 59       		.uleb128 0x59
 10972 0478 0B       		.uleb128 0xb
 10973 0479 01       		.uleb128 0x1
 10974 047a 13       		.uleb128 0x13
 10975 047b 00       		.byte	0
 10976 047c 00       		.byte	0
 10977 047d 57       		.uleb128 0x57
 10978 047e 05       		.uleb128 0x5
 10979 047f 00       		.byte	0
 10980 0480 03       		.uleb128 0x3
 10981 0481 08       		.uleb128 0x8
 10982 0482 3A       		.uleb128 0x3a
 10983 0483 0B       		.uleb128 0xb
 10984 0484 3B       		.uleb128 0x3b
 10985 0485 0B       		.uleb128 0xb
 10986 0486 49       		.uleb128 0x49
 10987 0487 13       		.uleb128 0x13
 10988 0488 02       		.uleb128 0x2
 10989 0489 18       		.uleb128 0x18
 10990 048a 00       		.byte	0
 10991 048b 00       		.byte	0
 10992 048c 58       		.uleb128 0x58
 10993 048d 1D       		.uleb128 0x1d
 10994 048e 01       		.byte	0x1
 10995 048f 31       		.uleb128 0x31
 10996 0490 13       		.uleb128 0x13
 10997 0491 52       		.uleb128 0x52
 10998 0492 01       		.uleb128 0x1
 10999 0493 55       		.uleb128 0x55
 11000 0494 17       		.uleb128 0x17
ARM GAS  /tmp/cc2f1tkm.s 			page 194


 11001 0495 58       		.uleb128 0x58
 11002 0496 0B       		.uleb128 0xb
 11003 0497 59       		.uleb128 0x59
 11004 0498 0B       		.uleb128 0xb
 11005 0499 00       		.byte	0
 11006 049a 00       		.byte	0
 11007 049b 59       		.uleb128 0x59
 11008 049c 05       		.uleb128 0x5
 11009 049d 00       		.byte	0
 11010 049e 31       		.uleb128 0x31
 11011 049f 13       		.uleb128 0x13
 11012 04a0 02       		.uleb128 0x2
 11013 04a1 18       		.uleb128 0x18
 11014 04a2 00       		.byte	0
 11015 04a3 00       		.byte	0
 11016 04a4 5A       		.uleb128 0x5a
 11017 04a5 34       		.uleb128 0x34
 11018 04a6 00       		.byte	0
 11019 04a7 31       		.uleb128 0x31
 11020 04a8 13       		.uleb128 0x13
 11021 04a9 02       		.uleb128 0x2
 11022 04aa 18       		.uleb128 0x18
 11023 04ab 00       		.byte	0
 11024 04ac 00       		.byte	0
 11025 04ad 5B       		.uleb128 0x5b
 11026 04ae 2E       		.uleb128 0x2e
 11027 04af 01       		.byte	0x1
 11028 04b0 3F       		.uleb128 0x3f
 11029 04b1 19       		.uleb128 0x19
 11030 04b2 03       		.uleb128 0x3
 11031 04b3 0E       		.uleb128 0xe
 11032 04b4 3A       		.uleb128 0x3a
 11033 04b5 0B       		.uleb128 0xb
 11034 04b6 3B       		.uleb128 0x3b
 11035 04b7 0B       		.uleb128 0xb
 11036 04b8 27       		.uleb128 0x27
 11037 04b9 19       		.uleb128 0x19
 11038 04ba 49       		.uleb128 0x49
 11039 04bb 13       		.uleb128 0x13
 11040 04bc 11       		.uleb128 0x11
 11041 04bd 01       		.uleb128 0x1
 11042 04be 12       		.uleb128 0x12
 11043 04bf 06       		.uleb128 0x6
 11044 04c0 40       		.uleb128 0x40
 11045 04c1 18       		.uleb128 0x18
 11046 04c2 9742     		.uleb128 0x2117
 11047 04c4 19       		.uleb128 0x19
 11048 04c5 01       		.uleb128 0x1
 11049 04c6 13       		.uleb128 0x13
 11050 04c7 00       		.byte	0
 11051 04c8 00       		.byte	0
 11052 04c9 5C       		.uleb128 0x5c
 11053 04ca 34       		.uleb128 0x34
 11054 04cb 00       		.byte	0
 11055 04cc 03       		.uleb128 0x3
 11056 04cd 08       		.uleb128 0x8
 11057 04ce 3A       		.uleb128 0x3a
ARM GAS  /tmp/cc2f1tkm.s 			page 195


 11058 04cf 0B       		.uleb128 0xb
 11059 04d0 3B       		.uleb128 0x3b
 11060 04d1 0B       		.uleb128 0xb
 11061 04d2 49       		.uleb128 0x49
 11062 04d3 13       		.uleb128 0x13
 11063 04d4 02       		.uleb128 0x2
 11064 04d5 17       		.uleb128 0x17
 11065 04d6 00       		.byte	0
 11066 04d7 00       		.byte	0
 11067 04d8 5D       		.uleb128 0x5d
 11068 04d9 1D       		.uleb128 0x1d
 11069 04da 01       		.byte	0x1
 11070 04db 31       		.uleb128 0x31
 11071 04dc 13       		.uleb128 0x13
 11072 04dd 11       		.uleb128 0x11
 11073 04de 01       		.uleb128 0x1
 11074 04df 12       		.uleb128 0x12
 11075 04e0 06       		.uleb128 0x6
 11076 04e1 58       		.uleb128 0x58
 11077 04e2 0B       		.uleb128 0xb
 11078 04e3 59       		.uleb128 0x59
 11079 04e4 0B       		.uleb128 0xb
 11080 04e5 01       		.uleb128 0x1
 11081 04e6 13       		.uleb128 0x13
 11082 04e7 00       		.byte	0
 11083 04e8 00       		.byte	0
 11084 04e9 5E       		.uleb128 0x5e
 11085 04ea 34       		.uleb128 0x34
 11086 04eb 00       		.byte	0
 11087 04ec 03       		.uleb128 0x3
 11088 04ed 0E       		.uleb128 0xe
 11089 04ee 3A       		.uleb128 0x3a
 11090 04ef 0B       		.uleb128 0xb
 11091 04f0 3B       		.uleb128 0x3b
 11092 04f1 0B       		.uleb128 0xb
 11093 04f2 49       		.uleb128 0x49
 11094 04f3 13       		.uleb128 0x13
 11095 04f4 1C       		.uleb128 0x1c
 11096 04f5 0B       		.uleb128 0xb
 11097 04f6 00       		.byte	0
 11098 04f7 00       		.byte	0
 11099 04f8 5F       		.uleb128 0x5f
 11100 04f9 2E       		.uleb128 0x2e
 11101 04fa 01       		.byte	0x1
 11102 04fb 3F       		.uleb128 0x3f
 11103 04fc 19       		.uleb128 0x19
 11104 04fd 03       		.uleb128 0x3
 11105 04fe 0E       		.uleb128 0xe
 11106 04ff 3A       		.uleb128 0x3a
 11107 0500 0B       		.uleb128 0xb
 11108 0501 3B       		.uleb128 0x3b
 11109 0502 0B       		.uleb128 0xb
 11110 0503 27       		.uleb128 0x27
 11111 0504 19       		.uleb128 0x19
 11112 0505 49       		.uleb128 0x49
 11113 0506 13       		.uleb128 0x13
 11114 0507 20       		.uleb128 0x20
ARM GAS  /tmp/cc2f1tkm.s 			page 196


 11115 0508 0B       		.uleb128 0xb
 11116 0509 01       		.uleb128 0x1
 11117 050a 13       		.uleb128 0x13
 11118 050b 00       		.byte	0
 11119 050c 00       		.byte	0
 11120 050d 60       		.uleb128 0x60
 11121 050e 05       		.uleb128 0x5
 11122 050f 00       		.byte	0
 11123 0510 03       		.uleb128 0x3
 11124 0511 08       		.uleb128 0x8
 11125 0512 3A       		.uleb128 0x3a
 11126 0513 0B       		.uleb128 0xb
 11127 0514 3B       		.uleb128 0x3b
 11128 0515 0B       		.uleb128 0xb
 11129 0516 49       		.uleb128 0x49
 11130 0517 13       		.uleb128 0x13
 11131 0518 00       		.byte	0
 11132 0519 00       		.byte	0
 11133 051a 61       		.uleb128 0x61
 11134 051b 05       		.uleb128 0x5
 11135 051c 00       		.byte	0
 11136 051d 03       		.uleb128 0x3
 11137 051e 0E       		.uleb128 0xe
 11138 051f 3A       		.uleb128 0x3a
 11139 0520 0B       		.uleb128 0xb
 11140 0521 3B       		.uleb128 0x3b
 11141 0522 0B       		.uleb128 0xb
 11142 0523 49       		.uleb128 0x49
 11143 0524 13       		.uleb128 0x13
 11144 0525 02       		.uleb128 0x2
 11145 0526 18       		.uleb128 0x18
 11146 0527 00       		.byte	0
 11147 0528 00       		.byte	0
 11148 0529 62       		.uleb128 0x62
 11149 052a 2E       		.uleb128 0x2e
 11150 052b 01       		.byte	0x1
 11151 052c 31       		.uleb128 0x31
 11152 052d 13       		.uleb128 0x13
 11153 052e 11       		.uleb128 0x11
 11154 052f 01       		.uleb128 0x1
 11155 0530 12       		.uleb128 0x12
 11156 0531 06       		.uleb128 0x6
 11157 0532 40       		.uleb128 0x40
 11158 0533 18       		.uleb128 0x18
 11159 0534 9742     		.uleb128 0x2117
 11160 0536 19       		.uleb128 0x19
 11161 0537 01       		.uleb128 0x1
 11162 0538 13       		.uleb128 0x13
 11163 0539 00       		.byte	0
 11164 053a 00       		.byte	0
 11165 053b 63       		.uleb128 0x63
 11166 053c 898201   		.uleb128 0x4109
 11167 053f 01       		.byte	0x1
 11168 0540 11       		.uleb128 0x11
 11169 0541 01       		.uleb128 0x1
 11170 0542 31       		.uleb128 0x31
 11171 0543 13       		.uleb128 0x13
ARM GAS  /tmp/cc2f1tkm.s 			page 197


 11172 0544 01       		.uleb128 0x1
 11173 0545 13       		.uleb128 0x13
 11174 0546 00       		.byte	0
 11175 0547 00       		.byte	0
 11176 0548 64       		.uleb128 0x64
 11177 0549 8A8201   		.uleb128 0x410a
 11178 054c 00       		.byte	0
 11179 054d 31       		.uleb128 0x31
 11180 054e 13       		.uleb128 0x13
 11181 054f 9142     		.uleb128 0x2111
 11182 0551 18       		.uleb128 0x18
 11183 0552 00       		.byte	0
 11184 0553 00       		.byte	0
 11185 0554 65       		.uleb128 0x65
 11186 0555 2E       		.uleb128 0x2e
 11187 0556 00       		.byte	0
 11188 0557 3F       		.uleb128 0x3f
 11189 0558 19       		.uleb128 0x19
 11190 0559 3C       		.uleb128 0x3c
 11191 055a 19       		.uleb128 0x19
 11192 055b 6E       		.uleb128 0x6e
 11193 055c 0E       		.uleb128 0xe
 11194 055d 03       		.uleb128 0x3
 11195 055e 0E       		.uleb128 0xe
 11196 055f 3A       		.uleb128 0x3a
 11197 0560 0B       		.uleb128 0xb
 11198 0561 3B       		.uleb128 0x3b
 11199 0562 0B       		.uleb128 0xb
 11200 0563 6E       		.uleb128 0x6e
 11201 0564 0E       		.uleb128 0xe
 11202 0565 00       		.byte	0
 11203 0566 00       		.byte	0
 11204 0567 00       		.byte	0
 11205              		.section	.debug_loc,"",%progbits
 11206              	.Ldebug_loc0:
 11207              	.LLST18:
 11208 0000 00000000 		.4byte	.LVL51
 11209 0004 0A000000 		.4byte	.LVL52
 11210 0008 0100     		.2byte	0x1
 11211 000a 50       		.byte	0x50
 11212 000b 0A000000 		.4byte	.LVL52
 11213 000f 12000000 		.4byte	.LVL54
 11214 0013 0800     		.2byte	0x8
 11215 0015 71       		.byte	0x71
 11216 0016 00       		.sleb128 0
 11217 0017 33       		.byte	0x33
 11218 0018 25       		.byte	0x25
 11219 0019 70       		.byte	0x70
 11220 001a 00       		.sleb128 0
 11221 001b 22       		.byte	0x22
 11222 001c 9F       		.byte	0x9f
 11223 001d 12000000 		.4byte	.LVL54
 11224 0021 1C000000 		.4byte	.LVL57
 11225 0025 0600     		.2byte	0x6
 11226 0027 70       		.byte	0x70
 11227 0028 00       		.sleb128 0
 11228 0029 71       		.byte	0x71
ARM GAS  /tmp/cc2f1tkm.s 			page 198


 11229 002a 00       		.sleb128 0
 11230 002b 22       		.byte	0x22
 11231 002c 9F       		.byte	0x9f
 11232 002d 1C000000 		.4byte	.LVL57
 11233 0031 20000000 		.4byte	.LVL58
 11234 0035 0700     		.2byte	0x7
 11235 0037 F3       		.byte	0xf3
 11236 0038 01       		.uleb128 0x1
 11237 0039 50       		.byte	0x50
 11238 003a 71       		.byte	0x71
 11239 003b 00       		.sleb128 0
 11240 003c 22       		.byte	0x22
 11241 003d 9F       		.byte	0x9f
 11242 003e 20000000 		.4byte	.LVL58
 11243 0042 70000000 		.4byte	.LFE32
 11244 0046 0A00     		.2byte	0xa
 11245 0048 F3       		.byte	0xf3
 11246 0049 01       		.uleb128 0x1
 11247 004a 51       		.byte	0x51
 11248 004b 33       		.byte	0x33
 11249 004c 25       		.byte	0x25
 11250 004d F3       		.byte	0xf3
 11251 004e 01       		.uleb128 0x1
 11252 004f 50       		.byte	0x50
 11253 0050 22       		.byte	0x22
 11254 0051 9F       		.byte	0x9f
 11255 0052 00000000 		.4byte	0
 11256 0056 00000000 		.4byte	0
 11257              	.LLST19:
 11258 005a 00000000 		.4byte	.LVL51
 11259 005e 0E000000 		.4byte	.LVL53
 11260 0062 0100     		.2byte	0x1
 11261 0064 51       		.byte	0x51
 11262 0065 0E000000 		.4byte	.LVL53
 11263 0069 70000000 		.4byte	.LFE32
 11264 006d 0100     		.2byte	0x1
 11265 006f 55       		.byte	0x55
 11266 0070 00000000 		.4byte	0
 11267 0074 00000000 		.4byte	0
 11268              	.LLST20:
 11269 0078 00000000 		.4byte	.LVL51
 11270 007c 0A000000 		.4byte	.LVL52
 11271 0080 0100     		.2byte	0x1
 11272 0082 52       		.byte	0x52
 11273 0083 0A000000 		.4byte	.LVL52
 11274 0087 70000000 		.4byte	.LFE32
 11275 008b 0400     		.2byte	0x4
 11276 008d F3       		.byte	0xf3
 11277 008e 01       		.uleb128 0x1
 11278 008f 52       		.byte	0x52
 11279 0090 9F       		.byte	0x9f
 11280 0091 00000000 		.4byte	0
 11281 0095 00000000 		.4byte	0
 11282              	.LLST21:
 11283 0099 00000000 		.4byte	.LVL51
 11284 009d 0E000000 		.4byte	.LVL53
 11285 00a1 0100     		.2byte	0x1
ARM GAS  /tmp/cc2f1tkm.s 			page 199


 11286 00a3 53       		.byte	0x53
 11287 00a4 0E000000 		.4byte	.LVL53
 11288 00a8 16000000 		.4byte	.LVL55
 11289 00ac 0800     		.2byte	0x8
 11290 00ae 74       		.byte	0x74
 11291 00af 00       		.sleb128 0
 11292 00b0 33       		.byte	0x33
 11293 00b1 25       		.byte	0x25
 11294 00b2 73       		.byte	0x73
 11295 00b3 00       		.sleb128 0
 11296 00b4 22       		.byte	0x22
 11297 00b5 9F       		.byte	0x9f
 11298 00b6 16000000 		.4byte	.LVL55
 11299 00ba 6C000000 		.4byte	.LVL65
 11300 00be 0600     		.2byte	0x6
 11301 00c0 73       		.byte	0x73
 11302 00c1 00       		.sleb128 0
 11303 00c2 78       		.byte	0x78
 11304 00c3 00       		.sleb128 0
 11305 00c4 22       		.byte	0x22
 11306 00c5 9F       		.byte	0x9f
 11307 00c6 6C000000 		.4byte	.LVL65
 11308 00ca 70000000 		.4byte	.LFE32
 11309 00ce 0900     		.2byte	0x9
 11310 00d0 91       		.byte	0x91
 11311 00d1 00       		.sleb128 0
 11312 00d2 06       		.byte	0x6
 11313 00d3 33       		.byte	0x33
 11314 00d4 25       		.byte	0x25
 11315 00d5 73       		.byte	0x73
 11316 00d6 00       		.sleb128 0
 11317 00d7 22       		.byte	0x22
 11318 00d8 9F       		.byte	0x9f
 11319 00d9 00000000 		.4byte	0
 11320 00dd 00000000 		.4byte	0
 11321              	.LLST22:
 11322 00e1 00000000 		.4byte	.LVL51
 11323 00e5 0E000000 		.4byte	.LVL53
 11324 00e9 0200     		.2byte	0x2
 11325 00eb 91       		.byte	0x91
 11326 00ec 00       		.sleb128 0
 11327 00ed 0E000000 		.4byte	.LVL53
 11328 00f1 1A000000 		.4byte	.LVL56
 11329 00f5 0500     		.2byte	0x5
 11330 00f7 74       		.byte	0x74
 11331 00f8 00       		.sleb128 0
 11332 00f9 37       		.byte	0x37
 11333 00fa 1A       		.byte	0x1a
 11334 00fb 9F       		.byte	0x9f
 11335 00fc 1A000000 		.4byte	.LVL56
 11336 0100 6C000000 		.4byte	.LVL65
 11337 0104 0100     		.2byte	0x1
 11338 0106 5C       		.byte	0x5c
 11339 0107 00000000 		.4byte	0
 11340 010b 00000000 		.4byte	0
 11341              	.LLST23:
 11342 010f 24000000 		.4byte	.LVL59
ARM GAS  /tmp/cc2f1tkm.s 			page 200


 11343 0113 50000000 		.4byte	.LVL62
 11344 0117 0100     		.2byte	0x1
 11345 0119 56       		.byte	0x56
 11346 011a 50000000 		.4byte	.LVL62
 11347 011e 60000000 		.4byte	.LVL63
 11348 0122 0500     		.2byte	0x5
 11349 0124 75       		.byte	0x75
 11350 0125 00       		.sleb128 0
 11351 0126 37       		.byte	0x37
 11352 0127 1A       		.byte	0x1a
 11353 0128 9F       		.byte	0x9f
 11354 0129 00000000 		.4byte	0
 11355 012d 00000000 		.4byte	0
 11356              	.LLST24:
 11357 0131 28000000 		.4byte	.LVL60
 11358 0135 6C000000 		.4byte	.LVL65
 11359 0139 0100     		.2byte	0x1
 11360 013b 5A       		.byte	0x5a
 11361 013c 00000000 		.4byte	0
 11362 0140 00000000 		.4byte	0
 11363              	.LLST25:
 11364 0144 28000000 		.4byte	.LVL60
 11365 0148 50000000 		.4byte	.LVL62
 11366 014c 1400     		.2byte	0x14
 11367 014e 76       		.byte	0x76
 11368 014f 00       		.sleb128 0
 11369 0150 12       		.byte	0x12
 11370 0151 08       		.byte	0x8
 11371 0152 FF       		.byte	0xff
 11372 0153 1A       		.byte	0x1a
 11373 0154 7A       		.byte	0x7a
 11374 0155 00       		.sleb128 0
 11375 0156 16       		.byte	0x16
 11376 0157 14       		.byte	0x14
 11377 0158 08       		.byte	0x8
 11378 0159 FF       		.byte	0xff
 11379 015a 1A       		.byte	0x1a
 11380 015b 2B       		.byte	0x2b
 11381 015c 28       		.byte	0x28
 11382 015d 0100     		.2byte	0x1
 11383 015f 16       		.byte	0x16
 11384 0160 13       		.byte	0x13
 11385 0161 9F       		.byte	0x9f
 11386 0162 50000000 		.4byte	.LVL62
 11387 0166 60000000 		.4byte	.LVL63
 11388 016a 1600     		.2byte	0x16
 11389 016c 75       		.byte	0x75
 11390 016d 00       		.sleb128 0
 11391 016e 37       		.byte	0x37
 11392 016f 1A       		.byte	0x1a
 11393 0170 12       		.byte	0x12
 11394 0171 08       		.byte	0x8
 11395 0172 FF       		.byte	0xff
 11396 0173 1A       		.byte	0x1a
 11397 0174 7A       		.byte	0x7a
 11398 0175 00       		.sleb128 0
 11399 0176 16       		.byte	0x16
ARM GAS  /tmp/cc2f1tkm.s 			page 201


 11400 0177 14       		.byte	0x14
 11401 0178 08       		.byte	0x8
 11402 0179 FF       		.byte	0xff
 11403 017a 1A       		.byte	0x1a
 11404 017b 2B       		.byte	0x2b
 11405 017c 28       		.byte	0x28
 11406 017d 0100     		.2byte	0x1
 11407 017f 16       		.byte	0x16
 11408 0180 13       		.byte	0x13
 11409 0181 9F       		.byte	0x9f
 11410 0182 00000000 		.4byte	0
 11411 0186 00000000 		.4byte	0
 11412              	.LLST26:
 11413 018a 46000000 		.4byte	.LVL61
 11414 018e 6C000000 		.4byte	.LVL65
 11415 0192 0100     		.2byte	0x1
 11416 0194 54       		.byte	0x54
 11417 0195 00000000 		.4byte	0
 11418 0199 00000000 		.4byte	0
 11419              	.LLST27:
 11420 019d 46000000 		.4byte	.LVL61
 11421 01a1 6C000000 		.4byte	.LVL65
 11422 01a5 0D00     		.2byte	0xd
 11423 01a7 0A       		.byte	0xa
 11424 01a8 00FF     		.2byte	0xff00
 11425 01aa 74       		.byte	0x74
 11426 01ab 00       		.sleb128 0
 11427 01ac 25       		.byte	0x25
 11428 01ad 08       		.byte	0x8
 11429 01ae FF       		.byte	0xff
 11430 01af 1A       		.byte	0x1a
 11431 01b0 7A       		.byte	0x7a
 11432 01b1 00       		.sleb128 0
 11433 01b2 26       		.byte	0x26
 11434 01b3 9F       		.byte	0x9f
 11435 01b4 00000000 		.4byte	0
 11436 01b8 00000000 		.4byte	0
 11437              	.LLST28:
 11438 01bc 46000000 		.4byte	.LVL61
 11439 01c0 50000000 		.4byte	.LVL62
 11440 01c4 1D00     		.2byte	0x1d
 11441 01c6 75       		.byte	0x75
 11442 01c7 00       		.sleb128 0
 11443 01c8 33       		.byte	0x33
 11444 01c9 25       		.byte	0x25
 11445 01ca F3       		.byte	0xf3
 11446 01cb 01       		.uleb128 0x1
 11447 01cc 51       		.byte	0x51
 11448 01cd 33       		.byte	0x33
 11449 01ce 25       		.byte	0x25
 11450 01cf 22       		.byte	0x22
 11451 01d0 F3       		.byte	0xf3
 11452 01d1 01       		.uleb128 0x1
 11453 01d2 50       		.byte	0x50
 11454 01d3 22       		.byte	0x22
 11455 01d4 94       		.byte	0x94
 11456 01d5 01       		.byte	0x1
ARM GAS  /tmp/cc2f1tkm.s 			page 202


 11457 01d6 08       		.byte	0x8
 11458 01d7 FF       		.byte	0xff
 11459 01d8 1A       		.byte	0x1a
 11460 01d9 76       		.byte	0x76
 11461 01da 00       		.sleb128 0
 11462 01db 08       		.byte	0x8
 11463 01dc FF       		.byte	0xff
 11464 01dd 1A       		.byte	0x1a
 11465 01de 24       		.byte	0x24
 11466 01df 7A       		.byte	0x7a
 11467 01e0 00       		.sleb128 0
 11468 01e1 25       		.byte	0x25
 11469 01e2 9F       		.byte	0x9f
 11470 01e3 50000000 		.4byte	.LVL62
 11471 01e7 60000000 		.4byte	.LVL63
 11472 01eb 1C00     		.2byte	0x1c
 11473 01ed 75       		.byte	0x75
 11474 01ee 00       		.sleb128 0
 11475 01ef 33       		.byte	0x33
 11476 01f0 25       		.byte	0x25
 11477 01f1 F3       		.byte	0xf3
 11478 01f2 01       		.uleb128 0x1
 11479 01f3 51       		.byte	0x51
 11480 01f4 33       		.byte	0x33
 11481 01f5 25       		.byte	0x25
 11482 01f6 22       		.byte	0x22
 11483 01f7 F3       		.byte	0xf3
 11484 01f8 01       		.uleb128 0x1
 11485 01f9 50       		.byte	0x50
 11486 01fa 22       		.byte	0x22
 11487 01fb 94       		.byte	0x94
 11488 01fc 01       		.byte	0x1
 11489 01fd 08       		.byte	0x8
 11490 01fe FF       		.byte	0xff
 11491 01ff 1A       		.byte	0x1a
 11492 0200 75       		.byte	0x75
 11493 0201 00       		.sleb128 0
 11494 0202 37       		.byte	0x37
 11495 0203 1A       		.byte	0x1a
 11496 0204 24       		.byte	0x24
 11497 0205 7A       		.byte	0x7a
 11498 0206 00       		.sleb128 0
 11499 0207 25       		.byte	0x25
 11500 0208 9F       		.byte	0x9f
 11501 0209 00000000 		.4byte	0
 11502 020d 00000000 		.4byte	0
 11503              	.LLST0:
 11504 0211 00000000 		.4byte	.LVL0
 11505 0215 50000000 		.4byte	.LVL10
 11506 0219 0100     		.2byte	0x1
 11507 021b 50       		.byte	0x50
 11508 021c 50000000 		.4byte	.LVL10
 11509 0220 52000000 		.4byte	.LVL11
 11510 0224 0400     		.2byte	0x4
 11511 0226 F3       		.byte	0xf3
 11512 0227 01       		.uleb128 0x1
 11513 0228 50       		.byte	0x50
ARM GAS  /tmp/cc2f1tkm.s 			page 203


 11514 0229 9F       		.byte	0x9f
 11515 022a 52000000 		.4byte	.LVL11
 11516 022e 4C010000 		.4byte	.LVL40
 11517 0232 0100     		.2byte	0x1
 11518 0234 50       		.byte	0x50
 11519 0235 4C010000 		.4byte	.LVL40
 11520 0239 4E010000 		.4byte	.LVL41
 11521 023d 0400     		.2byte	0x4
 11522 023f F3       		.byte	0xf3
 11523 0240 01       		.uleb128 0x1
 11524 0241 50       		.byte	0x50
 11525 0242 9F       		.byte	0x9f
 11526 0243 4E010000 		.4byte	.LVL41
 11527 0247 7C010000 		.4byte	.LVL48
 11528 024b 0100     		.2byte	0x1
 11529 024d 50       		.byte	0x50
 11530 024e 7C010000 		.4byte	.LVL48
 11531 0252 7E010000 		.4byte	.LVL49
 11532 0256 0400     		.2byte	0x4
 11533 0258 F3       		.byte	0xf3
 11534 0259 01       		.uleb128 0x1
 11535 025a 50       		.byte	0x50
 11536 025b 9F       		.byte	0x9f
 11537 025c 7E010000 		.4byte	.LVL49
 11538 0260 82010000 		.4byte	.LVL50
 11539 0264 0100     		.2byte	0x1
 11540 0266 50       		.byte	0x50
 11541 0267 82010000 		.4byte	.LVL50
 11542 026b 88010000 		.4byte	.LFE30
 11543 026f 0400     		.2byte	0x4
 11544 0271 F3       		.byte	0xf3
 11545 0272 01       		.uleb128 0x1
 11546 0273 50       		.byte	0x50
 11547 0274 9F       		.byte	0x9f
 11548 0275 00000000 		.4byte	0
 11549 0279 00000000 		.4byte	0
 11550              	.LLST1:
 11551 027d 00000000 		.4byte	.LVL0
 11552 0281 18000000 		.4byte	.LVL2
 11553 0285 0100     		.2byte	0x1
 11554 0287 52       		.byte	0x52
 11555 0288 18000000 		.4byte	.LVL2
 11556 028c 4E000000 		.4byte	.LVL9
 11557 0290 0200     		.2byte	0x2
 11558 0292 91       		.byte	0x91
 11559 0293 54       		.sleb128 -44
 11560 0294 4E000000 		.4byte	.LVL9
 11561 0298 52000000 		.4byte	.LVL11
 11562 029c 0400     		.2byte	0x4
 11563 029e F3       		.byte	0xf3
 11564 029f 01       		.uleb128 0x1
 11565 02a0 52       		.byte	0x52
 11566 02a1 9F       		.byte	0x9f
 11567 02a2 52000000 		.4byte	.LVL11
 11568 02a6 54000000 		.4byte	.LVL12
 11569 02aa 0100     		.2byte	0x1
 11570 02ac 52       		.byte	0x52
ARM GAS  /tmp/cc2f1tkm.s 			page 204


 11571 02ad 54000000 		.4byte	.LVL12
 11572 02b1 7A010000 		.4byte	.LVL47
 11573 02b5 0200     		.2byte	0x2
 11574 02b7 91       		.byte	0x91
 11575 02b8 54       		.sleb128 -44
 11576 02b9 7A010000 		.4byte	.LVL47
 11577 02bd 7E010000 		.4byte	.LVL49
 11578 02c1 0400     		.2byte	0x4
 11579 02c3 F3       		.byte	0xf3
 11580 02c4 01       		.uleb128 0x1
 11581 02c5 52       		.byte	0x52
 11582 02c6 9F       		.byte	0x9f
 11583 02c7 7E010000 		.4byte	.LVL49
 11584 02cb 82010000 		.4byte	.LVL50
 11585 02cf 0200     		.2byte	0x2
 11586 02d1 91       		.byte	0x91
 11587 02d2 54       		.sleb128 -44
 11588 02d3 82010000 		.4byte	.LVL50
 11589 02d7 88010000 		.4byte	.LFE30
 11590 02db 0400     		.2byte	0x4
 11591 02dd F3       		.byte	0xf3
 11592 02de 01       		.uleb128 0x1
 11593 02df 52       		.byte	0x52
 11594 02e0 9F       		.byte	0x9f
 11595 02e1 00000000 		.4byte	0
 11596 02e5 00000000 		.4byte	0
 11597              	.LLST2:
 11598 02e9 00000000 		.4byte	.LVL0
 11599 02ed 46000000 		.4byte	.LVL7
 11600 02f1 0100     		.2byte	0x1
 11601 02f3 53       		.byte	0x53
 11602 02f4 46000000 		.4byte	.LVL7
 11603 02f8 52000000 		.4byte	.LVL11
 11604 02fc 0400     		.2byte	0x4
 11605 02fe F3       		.byte	0xf3
 11606 02ff 01       		.uleb128 0x1
 11607 0300 53       		.byte	0x53
 11608 0301 9F       		.byte	0x9f
 11609 0302 52000000 		.4byte	.LVL11
 11610 0306 90000000 		.4byte	.LVL20
 11611 030a 0100     		.2byte	0x1
 11612 030c 53       		.byte	0x53
 11613 030d 90000000 		.4byte	.LVL20
 11614 0311 96000000 		.4byte	.LVL21
 11615 0315 0400     		.2byte	0x4
 11616 0317 F3       		.byte	0xf3
 11617 0318 01       		.uleb128 0x1
 11618 0319 53       		.byte	0x53
 11619 031a 9F       		.byte	0x9f
 11620 031b 96000000 		.4byte	.LVL21
 11621 031f 00010000 		.4byte	.LVL32
 11622 0323 0100     		.2byte	0x1
 11623 0325 53       		.byte	0x53
 11624 0326 00010000 		.4byte	.LVL32
 11625 032a 7E010000 		.4byte	.LVL49
 11626 032e 0400     		.2byte	0x4
 11627 0330 F3       		.byte	0xf3
ARM GAS  /tmp/cc2f1tkm.s 			page 205


 11628 0331 01       		.uleb128 0x1
 11629 0332 53       		.byte	0x53
 11630 0333 9F       		.byte	0x9f
 11631 0334 7E010000 		.4byte	.LVL49
 11632 0338 82010000 		.4byte	.LVL50
 11633 033c 0100     		.2byte	0x1
 11634 033e 53       		.byte	0x53
 11635 033f 82010000 		.4byte	.LVL50
 11636 0343 88010000 		.4byte	.LFE30
 11637 0347 0400     		.2byte	0x4
 11638 0349 F3       		.byte	0xf3
 11639 034a 01       		.uleb128 0x1
 11640 034b 53       		.byte	0x53
 11641 034c 9F       		.byte	0x9f
 11642 034d 00000000 		.4byte	0
 11643 0351 00000000 		.4byte	0
 11644              	.LLST3:
 11645 0355 00000000 		.4byte	.LVL0
 11646 0359 18000000 		.4byte	.LVL2
 11647 035d 0200     		.2byte	0x2
 11648 035f 30       		.byte	0x30
 11649 0360 9F       		.byte	0x9f
 11650 0361 1A000000 		.4byte	.LVL3
 11651 0365 3C000000 		.4byte	.LVL4
 11652 0369 0100     		.2byte	0x1
 11653 036b 57       		.byte	0x57
 11654 036c 3C000000 		.4byte	.LVL4
 11655 0370 40000000 		.4byte	.LVL5
 11656 0374 0100     		.2byte	0x1
 11657 0376 56       		.byte	0x56
 11658 0377 44000000 		.4byte	.LVL6
 11659 037b 52000000 		.4byte	.LVL11
 11660 037f 0100     		.2byte	0x1
 11661 0381 57       		.byte	0x57
 11662 0382 52000000 		.4byte	.LVL11
 11663 0386 54000000 		.4byte	.LVL12
 11664 038a 0200     		.2byte	0x2
 11665 038c 30       		.byte	0x30
 11666 038d 9F       		.byte	0x9f
 11667 038e 54000000 		.4byte	.LVL12
 11668 0392 00010000 		.4byte	.LVL32
 11669 0396 0100     		.2byte	0x1
 11670 0398 57       		.byte	0x57
 11671 0399 00010000 		.4byte	.LVL32
 11672 039d 04010000 		.4byte	.LVL33
 11673 03a1 0100     		.2byte	0x1
 11674 03a3 5C       		.byte	0x5c
 11675 03a4 08010000 		.4byte	.LVL34
 11676 03a8 28010000 		.4byte	.LVL36
 11677 03ac 0100     		.2byte	0x1
 11678 03ae 5C       		.byte	0x5c
 11679 03af 28010000 		.4byte	.LVL36
 11680 03b3 3E010000 		.4byte	.LVL37
 11681 03b7 0100     		.2byte	0x1
 11682 03b9 57       		.byte	0x57
 11683 03ba 3E010000 		.4byte	.LVL37
 11684 03be 70010000 		.4byte	.LVL46
ARM GAS  /tmp/cc2f1tkm.s 			page 206


 11685 03c2 0100     		.2byte	0x1
 11686 03c4 5C       		.byte	0x5c
 11687 03c5 70010000 		.4byte	.LVL46
 11688 03c9 82010000 		.4byte	.LVL50
 11689 03cd 0100     		.2byte	0x1
 11690 03cf 57       		.byte	0x57
 11691 03d0 00000000 		.4byte	0
 11692 03d4 00000000 		.4byte	0
 11693              	.LLST4:
 11694 03d8 68000000 		.4byte	.LVL13
 11695 03dc 74000000 		.4byte	.LVL16
 11696 03e0 0100     		.2byte	0x1
 11697 03e2 56       		.byte	0x56
 11698 03e3 74000000 		.4byte	.LVL16
 11699 03e7 8E000000 		.4byte	.LVL19
 11700 03eb 0100     		.2byte	0x1
 11701 03ed 5E       		.byte	0x5e
 11702 03ee 8E000000 		.4byte	.LVL19
 11703 03f2 96000000 		.4byte	.LVL21
 11704 03f6 1200     		.2byte	0x12
 11705 03f8 75       		.byte	0x75
 11706 03f9 00       		.sleb128 0
 11707 03fa 75       		.byte	0x75
 11708 03fb 7A       		.sleb128 -6
 11709 03fc F7       		.byte	0xf7
 11710 03fd 33       		.uleb128 0x33
 11711 03fe 4C       		.byte	0x4c
 11712 03ff F7       		.byte	0xf7
 11713 0400 33       		.uleb128 0x33
 11714 0401 1B       		.byte	0x1b
 11715 0402 F7       		.byte	0xf7
 11716 0403 00       		.uleb128 0
 11717 0404 4C       		.byte	0x4c
 11718 0405 1E       		.byte	0x1e
 11719 0406 1C       		.byte	0x1c
 11720 0407 36       		.byte	0x36
 11721 0408 1C       		.byte	0x1c
 11722 0409 9F       		.byte	0x9f
 11723 040a 96000000 		.4byte	.LVL21
 11724 040e DC000000 		.4byte	.LVL27
 11725 0412 0100     		.2byte	0x1
 11726 0414 56       		.byte	0x56
 11727 0415 DC000000 		.4byte	.LVL27
 11728 0419 E0000000 		.4byte	.LVL28
 11729 041d 0100     		.2byte	0x1
 11730 041f 5E       		.byte	0x5e
 11731 0420 E0000000 		.4byte	.LVL28
 11732 0424 00010000 		.4byte	.LVL32
 11733 0428 1400     		.2byte	0x14
 11734 042a 75       		.byte	0x75
 11735 042b 00       		.sleb128 0
 11736 042c 75       		.byte	0x75
 11737 042d 7A       		.sleb128 -6
 11738 042e F7       		.byte	0xf7
 11739 042f 33       		.uleb128 0x33
 11740 0430 79       		.byte	0x79
 11741 0431 00       		.sleb128 0
ARM GAS  /tmp/cc2f1tkm.s 			page 207


 11742 0432 F7       		.byte	0xf7
 11743 0433 33       		.uleb128 0x33
 11744 0434 1B       		.byte	0x1b
 11745 0435 F7       		.byte	0xf7
 11746 0436 00       		.uleb128 0
 11747 0437 79       		.byte	0x79
 11748 0438 00       		.sleb128 0
 11749 0439 1E       		.byte	0x1e
 11750 043a 1C       		.byte	0x1c
 11751 043b 36       		.byte	0x36
 11752 043c 1C       		.byte	0x1c
 11753 043d 9F       		.byte	0x9f
 11754 043e 00010000 		.4byte	.LVL32
 11755 0442 26010000 		.4byte	.LVL35
 11756 0446 0100     		.2byte	0x1
 11757 0448 56       		.byte	0x56
 11758 0449 28010000 		.4byte	.LVL36
 11759 044d 50010000 		.4byte	.LVL42
 11760 0451 0100     		.2byte	0x1
 11761 0453 56       		.byte	0x56
 11762 0454 70010000 		.4byte	.LVL46
 11763 0458 82010000 		.4byte	.LVL50
 11764 045c 0100     		.2byte	0x1
 11765 045e 56       		.byte	0x56
 11766 045f 00000000 		.4byte	0
 11767 0463 00000000 		.4byte	0
 11768              	.LLST5:
 11769 0467 68000000 		.4byte	.LVL13
 11770 046b 8E000000 		.4byte	.LVL19
 11771 046f 0200     		.2byte	0x2
 11772 0471 30       		.byte	0x30
 11773 0472 9F       		.byte	0x9f
 11774 0473 96000000 		.4byte	.LVL21
 11775 0477 9A000000 		.4byte	.LVL22
 11776 047b 0200     		.2byte	0x2
 11777 047d 30       		.byte	0x30
 11778 047e 9F       		.byte	0x9f
 11779 047f 9A000000 		.4byte	.LVL22
 11780 0483 AC000000 		.4byte	.LVL23
 11781 0487 0100     		.2byte	0x1
 11782 0489 54       		.byte	0x54
 11783 048a AC000000 		.4byte	.LVL23
 11784 048e B0000000 		.4byte	.LVL24
 11785 0492 0100     		.2byte	0x1
 11786 0494 5C       		.byte	0x5c
 11787 0495 B0000000 		.4byte	.LVL24
 11788 0499 FE000000 		.4byte	.LVL31
 11789 049d 0100     		.2byte	0x1
 11790 049f 54       		.byte	0x54
 11791 04a0 00010000 		.4byte	.LVL32
 11792 04a4 26010000 		.4byte	.LVL35
 11793 04a8 0100     		.2byte	0x1
 11794 04aa 54       		.byte	0x54
 11795 04ab 28010000 		.4byte	.LVL36
 11796 04af 6E010000 		.4byte	.LVL45
 11797 04b3 0100     		.2byte	0x1
 11798 04b5 54       		.byte	0x54
ARM GAS  /tmp/cc2f1tkm.s 			page 208


 11799 04b6 70010000 		.4byte	.LVL46
 11800 04ba 7E010000 		.4byte	.LVL49
 11801 04be 0100     		.2byte	0x1
 11802 04c0 54       		.byte	0x54
 11803 04c1 00000000 		.4byte	0
 11804 04c5 00000000 		.4byte	0
 11805              	.LLST6:
 11806 04c9 14000000 		.4byte	.LVL1
 11807 04cd 18000000 		.4byte	.LVL2
 11808 04d1 0F00     		.2byte	0xf
 11809 04d3 71       		.byte	0x71
 11810 04d4 16       		.sleb128 22
 11811 04d5 94       		.byte	0x94
 11812 04d6 02       		.byte	0x2
 11813 04d7 0A       		.byte	0xa
 11814 04d8 FFFF     		.2byte	0xffff
 11815 04da 1A       		.byte	0x1a
 11816 04db 09       		.byte	0x9
 11817 04dc FA       		.byte	0xfa
 11818 04dd 24       		.byte	0x24
 11819 04de 09       		.byte	0x9
 11820 04df FA       		.byte	0xfa
 11821 04e0 25       		.byte	0x25
 11822 04e1 9F       		.byte	0x9f
 11823 04e2 1A000000 		.4byte	.LVL3
 11824 04e6 40000000 		.4byte	.LVL5
 11825 04ea 0600     		.2byte	0x6
 11826 04ec 75       		.byte	0x75
 11827 04ed 00       		.sleb128 0
 11828 04ee 76       		.byte	0x76
 11829 04ef 00       		.sleb128 0
 11830 04f0 22       		.byte	0x22
 11831 04f1 9F       		.byte	0x9f
 11832 04f2 44000000 		.4byte	.LVL6
 11833 04f6 48000000 		.4byte	.LVL8
 11834 04fa 0600     		.2byte	0x6
 11835 04fc 75       		.byte	0x75
 11836 04fd 00       		.sleb128 0
 11837 04fe 76       		.byte	0x76
 11838 04ff 00       		.sleb128 0
 11839 0500 22       		.byte	0x22
 11840 0501 9F       		.byte	0x9f
 11841 0502 00000000 		.4byte	0
 11842 0506 00000000 		.4byte	0
 11843              	.LLST13:
 11844 050a 9A000000 		.4byte	.LVL22
 11845 050e 00010000 		.4byte	.LVL32
 11846 0512 0100     		.2byte	0x1
 11847 0514 58       		.byte	0x58
 11848 0515 00000000 		.4byte	0
 11849 0519 00000000 		.4byte	0
 11850              	.LLST14:
 11851 051d B0000000 		.4byte	.LVL24
 11852 0521 00010000 		.4byte	.LVL32
 11853 0525 1500     		.2byte	0x15
 11854 0527 73       		.byte	0x73
 11855 0528 00       		.sleb128 0
ARM GAS  /tmp/cc2f1tkm.s 			page 209


 11856 0529 08       		.byte	0x8
 11857 052a FF       		.byte	0xff
 11858 052b 1A       		.byte	0x1a
 11859 052c 75       		.byte	0x75
 11860 052d 00       		.sleb128 0
 11861 052e 22       		.byte	0x22
 11862 052f 36       		.byte	0x36
 11863 0530 1C       		.byte	0x1c
 11864 0531 F7       		.byte	0xf7
 11865 0532 33       		.uleb128 0x33
 11866 0533 4C       		.byte	0x4c
 11867 0534 F7       		.byte	0xf7
 11868 0535 33       		.uleb128 0x33
 11869 0536 1B       		.byte	0x1b
 11870 0537 F7       		.byte	0xf7
 11871 0538 00       		.uleb128 0
 11872 0539 23       		.byte	0x23
 11873 053a 01       		.uleb128 0x1
 11874 053b 9F       		.byte	0x9f
 11875 053c 00000000 		.4byte	0
 11876 0540 00000000 		.4byte	0
 11877              	.LLST15:
 11878 0544 D0000000 		.4byte	.LVL25
 11879 0548 F8000000 		.4byte	.LVL30
 11880 054c 0100     		.2byte	0x1
 11881 054e 50       		.byte	0x50
 11882 054f 00000000 		.4byte	0
 11883 0553 00000000 		.4byte	0
 11884              	.LLST16:
 11885 0557 D0000000 		.4byte	.LVL25
 11886 055b F2000000 		.4byte	.LVL29
 11887 055f 0100     		.2byte	0x1
 11888 0561 50       		.byte	0x50
 11889 0562 00000000 		.4byte	0
 11890 0566 00000000 		.4byte	0
 11891              	.LLST17:
 11892 056a DA000000 		.4byte	.LVL26
 11893 056e 00010000 		.4byte	.LVL32
 11894 0572 0100     		.2byte	0x1
 11895 0574 5C       		.byte	0x5c
 11896 0575 00000000 		.4byte	0
 11897 0579 00000000 		.4byte	0
 11898              	.LLST7:
 11899 057d 6A000000 		.4byte	.LVL14
 11900 0581 8C000000 		.4byte	.LVL18
 11901 0585 0100     		.2byte	0x1
 11902 0587 50       		.byte	0x50
 11903 0588 00000000 		.4byte	0
 11904 058c 00000000 		.4byte	0
 11905              	.LLST8:
 11906 0590 6A000000 		.4byte	.LVL14
 11907 0594 88000000 		.4byte	.LVL17
 11908 0598 0100     		.2byte	0x1
 11909 059a 50       		.byte	0x50
 11910 059b 00000000 		.4byte	0
 11911 059f 00000000 		.4byte	0
 11912              	.LLST9:
ARM GAS  /tmp/cc2f1tkm.s 			page 210


 11913 05a3 72000000 		.4byte	.LVL15
 11914 05a7 8E000000 		.4byte	.LVL19
 11915 05ab 0100     		.2byte	0x1
 11916 05ad 54       		.byte	0x54
 11917 05ae 00000000 		.4byte	0
 11918 05b2 00000000 		.4byte	0
 11919              	.LLST10:
 11920 05b6 42010000 		.4byte	.LVL38
 11921 05ba 46010000 		.4byte	.LVL39
 11922 05be 0100     		.2byte	0x1
 11923 05c0 50       		.byte	0x50
 11924 05c1 4E010000 		.4byte	.LVL41
 11925 05c5 68010000 		.4byte	.LVL44
 11926 05c9 0100     		.2byte	0x1
 11927 05cb 50       		.byte	0x50
 11928 05cc 00000000 		.4byte	0
 11929 05d0 00000000 		.4byte	0
 11930              	.LLST11:
 11931 05d4 42010000 		.4byte	.LVL38
 11932 05d8 4C010000 		.4byte	.LVL40
 11933 05dc 0100     		.2byte	0x1
 11934 05de 50       		.byte	0x50
 11935 05df 4C010000 		.4byte	.LVL40
 11936 05e3 4E010000 		.4byte	.LVL41
 11937 05e7 0400     		.2byte	0x4
 11938 05e9 F3       		.byte	0xf3
 11939 05ea 01       		.uleb128 0x1
 11940 05eb 50       		.byte	0x50
 11941 05ec 9F       		.byte	0x9f
 11942 05ed 4E010000 		.4byte	.LVL41
 11943 05f1 64010000 		.4byte	.LVL43
 11944 05f5 0100     		.2byte	0x1
 11945 05f7 50       		.byte	0x50
 11946 05f8 00000000 		.4byte	0
 11947 05fc 00000000 		.4byte	0
 11948              	.LLST12:
 11949 0600 4E010000 		.4byte	.LVL41
 11950 0604 70010000 		.4byte	.LVL46
 11951 0608 0100     		.2byte	0x1
 11952 060a 57       		.byte	0x57
 11953 060b 00000000 		.4byte	0
 11954 060f 00000000 		.4byte	0
 11955              	.LLST32:
 11956 0613 00000000 		.4byte	.LVL72
 11957 0617 0A000000 		.4byte	.LVL73
 11958 061b 0100     		.2byte	0x1
 11959 061d 50       		.byte	0x50
 11960 061e 0A000000 		.4byte	.LVL73
 11961 0622 2E000000 		.4byte	.LVL79
 11962 0626 0100     		.2byte	0x1
 11963 0628 54       		.byte	0x54
 11964 0629 2E000000 		.4byte	.LVL79
 11965 062d 48000000 		.4byte	.LFE28
 11966 0631 0400     		.2byte	0x4
 11967 0633 F3       		.byte	0xf3
 11968 0634 01       		.uleb128 0x1
 11969 0635 50       		.byte	0x50
ARM GAS  /tmp/cc2f1tkm.s 			page 211


 11970 0636 9F       		.byte	0x9f
 11971 0637 00000000 		.4byte	0
 11972 063b 00000000 		.4byte	0
 11973              	.LLST33:
 11974 063f 00000000 		.4byte	.LVL72
 11975 0643 0E000000 		.4byte	.LVL74
 11976 0647 0100     		.2byte	0x1
 11977 0649 51       		.byte	0x51
 11978 064a 0E000000 		.4byte	.LVL74
 11979 064e 48000000 		.4byte	.LFE28
 11980 0652 0100     		.2byte	0x1
 11981 0654 56       		.byte	0x56
 11982 0655 00000000 		.4byte	0
 11983 0659 00000000 		.4byte	0
 11984              	.LLST34:
 11985 065d 16000000 		.4byte	.LVL76
 11986 0661 2C000000 		.4byte	.LVL78
 11987 0665 0100     		.2byte	0x1
 11988 0667 54       		.byte	0x54
 11989 0668 00000000 		.4byte	0
 11990 066c 00000000 		.4byte	0
 11991              	.LLST35:
 11992 0670 18000000 		.4byte	.LVL77
 11993 0674 42000000 		.4byte	.LVL80
 11994 0678 0100     		.2byte	0x1
 11995 067a 55       		.byte	0x55
 11996 067b 00000000 		.4byte	0
 11997 067f 00000000 		.4byte	0
 11998              	.LLST29:
 11999 0683 00000000 		.4byte	.LVL66
 12000 0687 28000000 		.4byte	.LVL69
 12001 068b 0100     		.2byte	0x1
 12002 068d 50       		.byte	0x50
 12003 068e 28000000 		.4byte	.LVL69
 12004 0692 2E000000 		.4byte	.LVL70
 12005 0696 0400     		.2byte	0x4
 12006 0698 F3       		.byte	0xf3
 12007 0699 01       		.uleb128 0x1
 12008 069a 50       		.byte	0x50
 12009 069b 9F       		.byte	0x9f
 12010 069c 2E000000 		.4byte	.LVL70
 12011 06a0 30000000 		.4byte	.LVL71
 12012 06a4 0100     		.2byte	0x1
 12013 06a6 50       		.byte	0x50
 12014 06a7 30000000 		.4byte	.LVL71
 12015 06ab 32000000 		.4byte	.LFE20
 12016 06af 0400     		.2byte	0x4
 12017 06b1 F3       		.byte	0xf3
 12018 06b2 01       		.uleb128 0x1
 12019 06b3 50       		.byte	0x50
 12020 06b4 9F       		.byte	0x9f
 12021 06b5 00000000 		.4byte	0
 12022 06b9 00000000 		.4byte	0
 12023              	.LLST30:
 12024 06bd 00000000 		.4byte	.LVL66
 12025 06c1 18000000 		.4byte	.LVL68
 12026 06c5 0100     		.2byte	0x1
ARM GAS  /tmp/cc2f1tkm.s 			page 212


 12027 06c7 50       		.byte	0x50
 12028 06c8 2E000000 		.4byte	.LVL70
 12029 06cc 30000000 		.4byte	.LVL71
 12030 06d0 0100     		.2byte	0x1
 12031 06d2 50       		.byte	0x50
 12032 06d3 30000000 		.4byte	.LVL71
 12033 06d7 32000000 		.4byte	.LFE20
 12034 06db 0400     		.2byte	0x4
 12035 06dd F3       		.byte	0xf3
 12036 06de 01       		.uleb128 0x1
 12037 06df 50       		.byte	0x50
 12038 06e0 9F       		.byte	0x9f
 12039 06e1 00000000 		.4byte	0
 12040 06e5 00000000 		.4byte	0
 12041              	.LLST31:
 12042 06e9 04000000 		.4byte	.LVL67
 12043 06ed 2E000000 		.4byte	.LVL70
 12044 06f1 0100     		.2byte	0x1
 12045 06f3 53       		.byte	0x53
 12046 06f4 00000000 		.4byte	0
 12047 06f8 00000000 		.4byte	0
 12048              	.LLST269:
 12049 06fc 00000000 		.4byte	.LVL520
 12050 0700 18000000 		.4byte	.LVL523
 12051 0704 0100     		.2byte	0x1
 12052 0706 50       		.byte	0x50
 12053 0707 18000000 		.4byte	.LVL523
 12054 070b 44000000 		.4byte	.LFE15
 12055 070f 0400     		.2byte	0x4
 12056 0711 F3       		.byte	0xf3
 12057 0712 01       		.uleb128 0x1
 12058 0713 50       		.byte	0x50
 12059 0714 9F       		.byte	0x9f
 12060 0715 00000000 		.4byte	0
 12061 0719 00000000 		.4byte	0
 12062              	.LLST270:
 12063 071d 00000000 		.4byte	.LVL520
 12064 0721 2A000000 		.4byte	.LVL524
 12065 0725 0800     		.2byte	0x8
 12066 0727 9E       		.byte	0x9e
 12067 0728 04       		.uleb128 0x4
 12068 0729 00008077 		.4byte	0x77800000
 12069 072d 93       		.byte	0x93
 12070 072e 04       		.uleb128 0x4
 12071 072f 00000000 		.4byte	0
 12072 0733 00000000 		.4byte	0
 12073              	.LLST271:
 12074 0737 00000000 		.4byte	.LVL520
 12075 073b 2A000000 		.4byte	.LVL524
 12076 073f 0800     		.2byte	0x8
 12077 0741 9E       		.byte	0x9e
 12078 0742 04       		.uleb128 0x4
 12079 0743 00008047 		.4byte	0x47800000
 12080 0747 93       		.byte	0x93
 12081 0748 04       		.uleb128 0x4
 12082 0749 00000000 		.4byte	0
 12083 074d 00000000 		.4byte	0
ARM GAS  /tmp/cc2f1tkm.s 			page 213


 12084              	.LLST272:
 12085 0751 0A000000 		.4byte	.LVL521
 12086 0755 16000000 		.4byte	.LVL522
 12087 0759 0F00     		.2byte	0xf
 12088 075b 70       		.byte	0x70
 12089 075c 00       		.sleb128 0
 12090 075d 3D       		.byte	0x3d
 12091 075e 24       		.byte	0x24
 12092 075f 0C       		.byte	0xc
 12093 0760 00E0FF0F 		.4byte	0xfffe000
 12094 0764 1A       		.byte	0x1a
 12095 0765 F9       		.byte	0xf9
 12096 0766 3A       		.uleb128 0x3a
 12097 0767 9F       		.byte	0x9f
 12098 0768 93       		.byte	0x93
 12099 0769 04       		.uleb128 0x4
 12100 076a 16000000 		.4byte	.LVL522
 12101 076e 2A000000 		.4byte	.LVL524
 12102 0772 0400     		.2byte	0x4
 12103 0774 90       		.byte	0x90
 12104 0775 4F       		.uleb128 0x4f
 12105 0776 93       		.byte	0x93
 12106 0777 04       		.uleb128 0x4
 12107 0778 00000000 		.4byte	0
 12108 077c 00000000 		.4byte	0
 12109              	.LLST264:
 12110 0780 00000000 		.4byte	.LVL510
 12111 0784 20000000 		.4byte	.LVL513
 12112 0788 0700     		.2byte	0x7
 12113 078a 08       		.byte	0x8
 12114 078b FF       		.byte	0xff
 12115 078c 47       		.byte	0x47
 12116 078d 24       		.byte	0x24
 12117 078e 9F       		.byte	0x9f
 12118 078f 93       		.byte	0x93
 12119 0790 04       		.uleb128 0x4
 12120 0791 24000000 		.4byte	.LVL515
 12121 0795 4C000000 		.4byte	.LVL518
 12122 0799 0700     		.2byte	0x7
 12123 079b 08       		.byte	0x8
 12124 079c FF       		.byte	0xff
 12125 079d 47       		.byte	0x47
 12126 079e 24       		.byte	0x24
 12127 079f 9F       		.byte	0x9f
 12128 07a0 93       		.byte	0x93
 12129 07a1 04       		.uleb128 0x4
 12130 07a2 00000000 		.4byte	0
 12131 07a6 00000000 		.4byte	0
 12132              	.LLST265:
 12133 07aa 00000000 		.4byte	.LVL510
 12134 07ae 20000000 		.4byte	.LVL513
 12135 07b2 0600     		.2byte	0x6
 12136 07b4 4F       		.byte	0x4f
 12137 07b5 47       		.byte	0x47
 12138 07b6 24       		.byte	0x24
 12139 07b7 9F       		.byte	0x9f
 12140 07b8 93       		.byte	0x93
ARM GAS  /tmp/cc2f1tkm.s 			page 214


 12141 07b9 04       		.uleb128 0x4
 12142 07ba 24000000 		.4byte	.LVL515
 12143 07be 4C000000 		.4byte	.LVL518
 12144 07c2 0600     		.2byte	0x6
 12145 07c4 4F       		.byte	0x4f
 12146 07c5 47       		.byte	0x47
 12147 07c6 24       		.byte	0x24
 12148 07c7 9F       		.byte	0x9f
 12149 07c8 93       		.byte	0x93
 12150 07c9 04       		.uleb128 0x4
 12151 07ca 00000000 		.4byte	0
 12152 07ce 00000000 		.4byte	0
 12153              	.LLST266:
 12154 07d2 00000000 		.4byte	.LVL510
 12155 07d6 20000000 		.4byte	.LVL513
 12156 07da 0800     		.2byte	0x8
 12157 07dc 9E       		.byte	0x9e
 12158 07dd 04       		.uleb128 0x4
 12159 07de 00008007 		.4byte	0x7800000
 12160 07e2 93       		.byte	0x93
 12161 07e3 04       		.uleb128 0x4
 12162 07e4 24000000 		.4byte	.LVL515
 12163 07e8 4C000000 		.4byte	.LVL518
 12164 07ec 0800     		.2byte	0x8
 12165 07ee 9E       		.byte	0x9e
 12166 07ef 04       		.uleb128 0x4
 12167 07f0 00008007 		.4byte	0x7800000
 12168 07f4 93       		.byte	0x93
 12169 07f5 04       		.uleb128 0x4
 12170 07f6 00000000 		.4byte	0
 12171 07fa 00000000 		.4byte	0
 12172              	.LLST267:
 12173 07fe 00000000 		.4byte	.LVL510
 12174 0802 08000000 		.4byte	.LVL512
 12175 0806 0400     		.2byte	0x4
 12176 0808 90       		.byte	0x90
 12177 0809 40       		.uleb128 0x40
 12178 080a 93       		.byte	0x93
 12179 080b 04       		.uleb128 0x4
 12180 080c 08000000 		.4byte	.LVL512
 12181 0810 20000000 		.4byte	.LVL513
 12182 0814 0300     		.2byte	0x3
 12183 0816 52       		.byte	0x52
 12184 0817 93       		.byte	0x93
 12185 0818 04       		.uleb128 0x4
 12186 0819 24000000 		.4byte	.LVL515
 12187 081d 3E000000 		.4byte	.LVL516
 12188 0821 1600     		.2byte	0x16
 12189 0823 92       		.byte	0x92
 12190 0824 40       		.uleb128 0x40
 12191 0825 00       		.sleb128 0
 12192 0826 0C       		.byte	0xc
 12193 0827 00F0FF7F 		.4byte	0x7ffff000
 12194 082b 1A       		.byte	0x1a
 12195 082c F9       		.byte	0xf9
 12196 082d 3A       		.uleb128 0x3a
 12197 082e F4       		.byte	0xf4
ARM GAS  /tmp/cc2f1tkm.s 			page 215


 12198 082f 3A       		.uleb128 0x3a
 12199 0830 04       		.byte	0x4
 12200 0831 00008007 		.4byte	0x7800000
 12201 0835 1E       		.byte	0x1e
 12202 0836 9F       		.byte	0x9f
 12203 0837 93       		.byte	0x93
 12204 0838 04       		.uleb128 0x4
 12205 0839 3E000000 		.4byte	.LVL516
 12206 083d 48000000 		.4byte	.LVL517
 12207 0841 0300     		.2byte	0x3
 12208 0843 50       		.byte	0x50
 12209 0844 93       		.byte	0x93
 12210 0845 04       		.uleb128 0x4
 12211 0846 00000000 		.4byte	0
 12212 084a 00000000 		.4byte	0
 12213              	.LLST268:
 12214 084e 08000000 		.4byte	.LVL512
 12215 0852 20000000 		.4byte	.LVL513
 12216 0856 0200     		.2byte	0x2
 12217 0858 30       		.byte	0x30
 12218 0859 9F       		.byte	0x9f
 12219 085a 20000000 		.4byte	.LVL513
 12220 085e 22000000 		.4byte	.LVL514
 12221 0862 0D00     		.2byte	0xd
 12222 0864 92       		.byte	0x92
 12223 0865 40       		.uleb128 0x40
 12224 0866 00       		.sleb128 0
 12225 0867 40       		.byte	0x40
 12226 0868 25       		.byte	0x25
 12227 0869 0A       		.byte	0xa
 12228 086a 0080     		.2byte	0x8000
 12229 086c 1A       		.byte	0x1a
 12230 086d 70       		.byte	0x70
 12231 086e 00       		.sleb128 0
 12232 086f 21       		.byte	0x21
 12233 0870 9F       		.byte	0x9f
 12234 0871 24000000 		.4byte	.LVL515
 12235 0875 4C000000 		.4byte	.LVL518
 12236 0879 0200     		.2byte	0x2
 12237 087b 30       		.byte	0x30
 12238 087c 9F       		.byte	0x9f
 12239 087d 4C000000 		.4byte	.LVL518
 12240 0881 52000000 		.4byte	.LVL519
 12241 0885 0D00     		.2byte	0xd
 12242 0887 92       		.byte	0x92
 12243 0888 40       		.uleb128 0x40
 12244 0889 00       		.sleb128 0
 12245 088a 40       		.byte	0x40
 12246 088b 25       		.byte	0x25
 12247 088c 0A       		.byte	0xa
 12248 088d 0080     		.2byte	0x8000
 12249 088f 1A       		.byte	0x1a
 12250 0890 70       		.byte	0x70
 12251 0891 00       		.sleb128 0
 12252 0892 21       		.byte	0x21
 12253 0893 9F       		.byte	0x9f
 12254 0894 00000000 		.4byte	0
ARM GAS  /tmp/cc2f1tkm.s 			page 216


 12255 0898 00000000 		.4byte	0
 12256              	.LLST254:
 12257 089c 00000000 		.4byte	.LVL476
 12258 08a0 12000000 		.4byte	.LVL479
 12259 08a4 0100     		.2byte	0x1
 12260 08a6 50       		.byte	0x50
 12261 08a7 12000000 		.4byte	.LVL479
 12262 08ab 2A000000 		.4byte	.LVL484
 12263 08af 0100     		.2byte	0x1
 12264 08b1 56       		.byte	0x56
 12265 08b2 2A000000 		.4byte	.LVL484
 12266 08b6 2C000000 		.4byte	.LVL485
 12267 08ba 0100     		.2byte	0x1
 12268 08bc 50       		.byte	0x50
 12269 08bd 2C000000 		.4byte	.LVL485
 12270 08c1 96000000 		.4byte	.LFE11
 12271 08c5 0100     		.2byte	0x1
 12272 08c7 56       		.byte	0x56
 12273 08c8 00000000 		.4byte	0
 12274 08cc 00000000 		.4byte	0
 12275              	.LLST255:
 12276 08d0 00000000 		.4byte	.LVL476
 12277 08d4 20000000 		.4byte	.LVL482
 12278 08d8 0100     		.2byte	0x1
 12279 08da 51       		.byte	0x51
 12280 08db 20000000 		.4byte	.LVL482
 12281 08df 23000000 		.4byte	.LVL483-1
 12282 08e3 0200     		.2byte	0x2
 12283 08e5 7D       		.byte	0x7d
 12284 08e6 00       		.sleb128 0
 12285 08e7 23000000 		.4byte	.LVL483-1
 12286 08eb 2A000000 		.4byte	.LVL484
 12287 08ef 0400     		.2byte	0x4
 12288 08f1 F3       		.byte	0xf3
 12289 08f2 01       		.uleb128 0x1
 12290 08f3 51       		.byte	0x51
 12291 08f4 9F       		.byte	0x9f
 12292 08f5 2A000000 		.4byte	.LVL484
 12293 08f9 96000000 		.4byte	.LFE11
 12294 08fd 0100     		.2byte	0x1
 12295 08ff 51       		.byte	0x51
 12296 0900 00000000 		.4byte	0
 12297 0904 00000000 		.4byte	0
 12298              	.LLST256:
 12299 0908 00000000 		.4byte	.LVL476
 12300 090c 10000000 		.4byte	.LVL478
 12301 0910 0100     		.2byte	0x1
 12302 0912 52       		.byte	0x52
 12303 0913 10000000 		.4byte	.LVL478
 12304 0917 18000000 		.4byte	.LVL481
 12305 091b 0400     		.2byte	0x4
 12306 091d F3       		.byte	0xf3
 12307 091e 01       		.uleb128 0x1
 12308 091f 52       		.byte	0x52
 12309 0920 9F       		.byte	0x9f
 12310 0921 2A000000 		.4byte	.LVL484
 12311 0925 2E000000 		.4byte	.LVL486
ARM GAS  /tmp/cc2f1tkm.s 			page 217


 12312 0929 0100     		.2byte	0x1
 12313 092b 52       		.byte	0x52
 12314 092c 2E000000 		.4byte	.LVL486
 12315 0930 32000000 		.4byte	.LVL487
 12316 0934 0200     		.2byte	0x2
 12317 0936 31       		.byte	0x31
 12318 0937 9F       		.byte	0x9f
 12319 0938 4E000000 		.4byte	.LVL490
 12320 093c 96000000 		.4byte	.LFE11
 12321 0940 0100     		.2byte	0x1
 12322 0942 52       		.byte	0x52
 12323 0943 00000000 		.4byte	0
 12324 0947 00000000 		.4byte	0
 12325              	.LLST257:
 12326 094b 00000000 		.4byte	.LVL476
 12327 094f 18000000 		.4byte	.LVL481
 12328 0953 0100     		.2byte	0x1
 12329 0955 53       		.byte	0x53
 12330 0956 18000000 		.4byte	.LVL481
 12331 095a 2A000000 		.4byte	.LVL484
 12332 095e 0400     		.2byte	0x4
 12333 0960 F3       		.byte	0xf3
 12334 0961 01       		.uleb128 0x1
 12335 0962 53       		.byte	0x53
 12336 0963 9F       		.byte	0x9f
 12337 0964 2A000000 		.4byte	.LVL484
 12338 0968 34000000 		.4byte	.LVL488
 12339 096c 0100     		.2byte	0x1
 12340 096e 53       		.byte	0x53
 12341 096f 34000000 		.4byte	.LVL488
 12342 0973 4E000000 		.4byte	.LVL490
 12343 0977 0400     		.2byte	0x4
 12344 0979 F3       		.byte	0xf3
 12345 097a 01       		.uleb128 0x1
 12346 097b 53       		.byte	0x53
 12347 097c 9F       		.byte	0x9f
 12348 097d 4E000000 		.4byte	.LVL490
 12349 0981 64000000 		.4byte	.LVL493
 12350 0985 0100     		.2byte	0x1
 12351 0987 53       		.byte	0x53
 12352 0988 64000000 		.4byte	.LVL493
 12353 098c 76000000 		.4byte	.LVL495
 12354 0990 0400     		.2byte	0x4
 12355 0992 F3       		.byte	0xf3
 12356 0993 01       		.uleb128 0x1
 12357 0994 53       		.byte	0x53
 12358 0995 9F       		.byte	0x9f
 12359 0996 76000000 		.4byte	.LVL495
 12360 099a 7C000000 		.4byte	.LVL497
 12361 099e 0100     		.2byte	0x1
 12362 09a0 53       		.byte	0x53
 12363 09a1 7C000000 		.4byte	.LVL497
 12364 09a5 82000000 		.4byte	.LVL498
 12365 09a9 0400     		.2byte	0x4
 12366 09ab F3       		.byte	0xf3
 12367 09ac 01       		.uleb128 0x1
 12368 09ad 53       		.byte	0x53
ARM GAS  /tmp/cc2f1tkm.s 			page 218


 12369 09ae 9F       		.byte	0x9f
 12370 09af 82000000 		.4byte	.LVL498
 12371 09b3 92000000 		.4byte	.LVL501
 12372 09b7 0100     		.2byte	0x1
 12373 09b9 53       		.byte	0x53
 12374 09ba 92000000 		.4byte	.LVL501
 12375 09be 96000000 		.4byte	.LFE11
 12376 09c2 0400     		.2byte	0x4
 12377 09c4 F3       		.byte	0xf3
 12378 09c5 01       		.uleb128 0x1
 12379 09c6 53       		.byte	0x53
 12380 09c7 9F       		.byte	0x9f
 12381 09c8 00000000 		.4byte	0
 12382 09cc 00000000 		.4byte	0
 12383              	.LLST258:
 12384 09d0 0C000000 		.4byte	.LVL477
 12385 09d4 16000000 		.4byte	.LVL480
 12386 09d8 0200     		.2byte	0x2
 12387 09da 38       		.byte	0x38
 12388 09db 9F       		.byte	0x9f
 12389 09dc 32000000 		.4byte	.LVL487
 12390 09e0 38000000 		.4byte	.LVL489
 12391 09e4 0200     		.2byte	0x2
 12392 09e6 31       		.byte	0x31
 12393 09e7 9F       		.byte	0x9f
 12394 09e8 56000000 		.4byte	.LVL491
 12395 09ec 62000000 		.4byte	.LVL492
 12396 09f0 0200     		.2byte	0x2
 12397 09f2 30       		.byte	0x30
 12398 09f3 9F       		.byte	0x9f
 12399 09f4 62000000 		.4byte	.LVL492
 12400 09f8 68000000 		.4byte	.LVL494
 12401 09fc 0200     		.2byte	0x2
 12402 09fe 31       		.byte	0x31
 12403 09ff 9F       		.byte	0x9f
 12404 0a00 76000000 		.4byte	.LVL495
 12405 0a04 7A000000 		.4byte	.LVL496
 12406 0a08 0200     		.2byte	0x2
 12407 0a0a 30       		.byte	0x30
 12408 0a0b 9F       		.byte	0x9f
 12409 0a0c 7A000000 		.4byte	.LVL496
 12410 0a10 82000000 		.4byte	.LVL498
 12411 0a14 0200     		.2byte	0x2
 12412 0a16 32       		.byte	0x32
 12413 0a17 9F       		.byte	0x9f
 12414 0a18 82000000 		.4byte	.LVL498
 12415 0a1c 86000000 		.4byte	.LVL499
 12416 0a20 0200     		.2byte	0x2
 12417 0a22 30       		.byte	0x30
 12418 0a23 9F       		.byte	0x9f
 12419 0a24 86000000 		.4byte	.LVL499
 12420 0a28 90000000 		.4byte	.LVL500
 12421 0a2c 0200     		.2byte	0x2
 12422 0a2e 38       		.byte	0x38
 12423 0a2f 9F       		.byte	0x9f
 12424 0a30 90000000 		.4byte	.LVL500
 12425 0a34 96000000 		.4byte	.LFE11
ARM GAS  /tmp/cc2f1tkm.s 			page 219


 12426 0a38 0200     		.2byte	0x2
 12427 0a3a 34       		.byte	0x34
 12428 0a3b 9F       		.byte	0x9f
 12429 0a3c 00000000 		.4byte	0
 12430 0a40 00000000 		.4byte	0
 12431              	.LLST237:
 12432 0a44 00000000 		.4byte	.LVL414
 12433 0a48 7E000000 		.4byte	.LVL421
 12434 0a4c 0100     		.2byte	0x1
 12435 0a4e 50       		.byte	0x50
 12436 0a4f 7E000000 		.4byte	.LVL421
 12437 0a53 5C010000 		.4byte	.LVL440
 12438 0a57 0300     		.2byte	0x3
 12439 0a59 91       		.byte	0x91
 12440 0a5a BC7F     		.sleb128 -68
 12441 0a5c 5C010000 		.4byte	.LVL440
 12442 0a60 62010000 		.4byte	.LVL441
 12443 0a64 0400     		.2byte	0x4
 12444 0a66 F3       		.byte	0xf3
 12445 0a67 01       		.uleb128 0x1
 12446 0a68 50       		.byte	0x50
 12447 0a69 9F       		.byte	0x9f
 12448 0a6a 62010000 		.4byte	.LVL441
 12449 0a6e BC010000 		.4byte	.LVL451
 12450 0a72 0300     		.2byte	0x3
 12451 0a74 91       		.byte	0x91
 12452 0a75 BC7F     		.sleb128 -68
 12453 0a77 BC010000 		.4byte	.LVL451
 12454 0a7b E4010000 		.4byte	.LVL454
 12455 0a7f 0100     		.2byte	0x1
 12456 0a81 50       		.byte	0x50
 12457 0a82 E4010000 		.4byte	.LVL454
 12458 0a86 14020000 		.4byte	.LVL460
 12459 0a8a 0300     		.2byte	0x3
 12460 0a8c 91       		.byte	0x91
 12461 0a8d BC7F     		.sleb128 -68
 12462 0a8f 14020000 		.4byte	.LVL460
 12463 0a93 24020000 		.4byte	.LVL461
 12464 0a97 0100     		.2byte	0x1
 12465 0a99 50       		.byte	0x50
 12466 0a9a 24020000 		.4byte	.LVL461
 12467 0a9e E4020000 		.4byte	.LVL468
 12468 0aa2 0300     		.2byte	0x3
 12469 0aa4 91       		.byte	0x91
 12470 0aa5 BC7F     		.sleb128 -68
 12471 0aa7 E4020000 		.4byte	.LVL468
 12472 0aab E8020000 		.4byte	.LVL469
 12473 0aaf 0100     		.2byte	0x1
 12474 0ab1 50       		.byte	0x50
 12475 0ab2 E8020000 		.4byte	.LVL469
 12476 0ab6 EA020000 		.4byte	.LVL470
 12477 0aba 0300     		.2byte	0x3
 12478 0abc 91       		.byte	0x91
 12479 0abd BC7F     		.sleb128 -68
 12480 0abf EA020000 		.4byte	.LVL470
 12481 0ac3 F0020000 		.4byte	.LVL471
 12482 0ac7 0100     		.2byte	0x1
ARM GAS  /tmp/cc2f1tkm.s 			page 220


 12483 0ac9 50       		.byte	0x50
 12484 0aca F0020000 		.4byte	.LVL471
 12485 0ace 02030000 		.4byte	.LVL474
 12486 0ad2 0300     		.2byte	0x3
 12487 0ad4 91       		.byte	0x91
 12488 0ad5 BC7F     		.sleb128 -68
 12489 0ad7 02030000 		.4byte	.LVL474
 12490 0adb 04030000 		.4byte	.LVL475
 12491 0adf 0100     		.2byte	0x1
 12492 0ae1 50       		.byte	0x50
 12493 0ae2 04030000 		.4byte	.LVL475
 12494 0ae6 0E030000 		.4byte	.LFE10
 12495 0aea 0300     		.2byte	0x3
 12496 0aec 91       		.byte	0x91
 12497 0aed BC7F     		.sleb128 -68
 12498 0aef 00000000 		.4byte	0
 12499 0af3 00000000 		.4byte	0
 12500              	.LLST238:
 12501 0af7 00000000 		.4byte	.LVL414
 12502 0afb 22000000 		.4byte	.LVL416
 12503 0aff 0100     		.2byte	0x1
 12504 0b01 51       		.byte	0x51
 12505 0b02 22000000 		.4byte	.LVL416
 12506 0b06 7E000000 		.4byte	.LVL421
 12507 0b0a 0100     		.2byte	0x1
 12508 0b0c 54       		.byte	0x54
 12509 0b0d 7E000000 		.4byte	.LVL421
 12510 0b11 BC010000 		.4byte	.LVL451
 12511 0b15 0400     		.2byte	0x4
 12512 0b17 F3       		.byte	0xf3
 12513 0b18 01       		.uleb128 0x1
 12514 0b19 51       		.byte	0x51
 12515 0b1a 9F       		.byte	0x9f
 12516 0b1b BC010000 		.4byte	.LVL451
 12517 0b1f FE010000 		.4byte	.LVL456
 12518 0b23 0100     		.2byte	0x1
 12519 0b25 54       		.byte	0x54
 12520 0b26 FE010000 		.4byte	.LVL456
 12521 0b2a 14020000 		.4byte	.LVL460
 12522 0b2e 0400     		.2byte	0x4
 12523 0b30 F3       		.byte	0xf3
 12524 0b31 01       		.uleb128 0x1
 12525 0b32 51       		.byte	0x51
 12526 0b33 9F       		.byte	0x9f
 12527 0b34 14020000 		.4byte	.LVL460
 12528 0b38 24020000 		.4byte	.LVL461
 12529 0b3c 0100     		.2byte	0x1
 12530 0b3e 54       		.byte	0x54
 12531 0b3f 24020000 		.4byte	.LVL461
 12532 0b43 EA020000 		.4byte	.LVL470
 12533 0b47 0400     		.2byte	0x4
 12534 0b49 F3       		.byte	0xf3
 12535 0b4a 01       		.uleb128 0x1
 12536 0b4b 51       		.byte	0x51
 12537 0b4c 9F       		.byte	0x9f
 12538 0b4d EA020000 		.4byte	.LVL470
 12539 0b51 FC020000 		.4byte	.LVL473
ARM GAS  /tmp/cc2f1tkm.s 			page 221


 12540 0b55 0100     		.2byte	0x1
 12541 0b57 54       		.byte	0x54
 12542 0b58 FC020000 		.4byte	.LVL473
 12543 0b5c 02030000 		.4byte	.LVL474
 12544 0b60 0400     		.2byte	0x4
 12545 0b62 F3       		.byte	0xf3
 12546 0b63 01       		.uleb128 0x1
 12547 0b64 51       		.byte	0x51
 12548 0b65 9F       		.byte	0x9f
 12549 0b66 02030000 		.4byte	.LVL474
 12550 0b6a 0E030000 		.4byte	.LFE10
 12551 0b6e 0100     		.2byte	0x1
 12552 0b70 54       		.byte	0x54
 12553 0b71 00000000 		.4byte	0
 12554 0b75 00000000 		.4byte	0
 12555              	.LLST239:
 12556 0b79 00000000 		.4byte	.LVL414
 12557 0b7d 14000000 		.4byte	.LVL415
 12558 0b81 0100     		.2byte	0x1
 12559 0b83 52       		.byte	0x52
 12560 0b84 14000000 		.4byte	.LVL415
 12561 0b88 0E030000 		.4byte	.LFE10
 12562 0b8c 0400     		.2byte	0x4
 12563 0b8e F3       		.byte	0xf3
 12564 0b8f 01       		.uleb128 0x1
 12565 0b90 52       		.byte	0x52
 12566 0b91 9F       		.byte	0x9f
 12567 0b92 00000000 		.4byte	0
 12568 0b96 00000000 		.4byte	0
 12569              	.LLST240:
 12570 0b9a 00000000 		.4byte	.LVL414
 12571 0b9e 24000000 		.4byte	.LVL417
 12572 0ba2 0100     		.2byte	0x1
 12573 0ba4 53       		.byte	0x53
 12574 0ba5 24000000 		.4byte	.LVL417
 12575 0ba9 0E030000 		.4byte	.LFE10
 12576 0bad 0400     		.2byte	0x4
 12577 0baf F3       		.byte	0xf3
 12578 0bb0 01       		.uleb128 0x1
 12579 0bb1 53       		.byte	0x53
 12580 0bb2 9F       		.byte	0x9f
 12581 0bb3 00000000 		.4byte	0
 12582 0bb7 00000000 		.4byte	0
 12583              	.LLST241:
 12584 0bbb 00000000 		.4byte	.LVL414
 12585 0bbf 5C010000 		.4byte	.LVL440
 12586 0bc3 0200     		.2byte	0x2
 12587 0bc5 91       		.byte	0x91
 12588 0bc6 00       		.sleb128 0
 12589 0bc7 62010000 		.4byte	.LVL441
 12590 0bcb 0E030000 		.4byte	.LFE10
 12591 0bcf 0200     		.2byte	0x2
 12592 0bd1 91       		.byte	0x91
 12593 0bd2 00       		.sleb128 0
 12594 0bd3 00000000 		.4byte	0
 12595 0bd7 00000000 		.4byte	0
 12596              	.LLST242:
ARM GAS  /tmp/cc2f1tkm.s 			page 222


 12597 0bdb 1E010000 		.4byte	.LVL437
 12598 0bdf 26010000 		.4byte	.LVL438
 12599 0be3 0200     		.2byte	0x2
 12600 0be5 30       		.byte	0x30
 12601 0be6 9F       		.byte	0x9f
 12602 0be7 26010000 		.4byte	.LVL438
 12603 0beb 3C010000 		.4byte	.LVL439
 12604 0bef 0100     		.2byte	0x1
 12605 0bf1 53       		.byte	0x53
 12606 0bf2 98010000 		.4byte	.LVL449
 12607 0bf6 B0010000 		.4byte	.LVL450
 12608 0bfa 0100     		.2byte	0x1
 12609 0bfc 53       		.byte	0x53
 12610 0bfd 0A020000 		.4byte	.LVL459
 12611 0c01 14020000 		.4byte	.LVL460
 12612 0c05 0200     		.2byte	0x2
 12613 0c07 30       		.byte	0x30
 12614 0c08 9F       		.byte	0x9f
 12615 0c09 24020000 		.4byte	.LVL461
 12616 0c0d 30020000 		.4byte	.LVL462
 12617 0c11 0200     		.2byte	0x2
 12618 0c13 30       		.byte	0x30
 12619 0c14 9F       		.byte	0x9f
 12620 0c15 30020000 		.4byte	.LVL462
 12621 0c19 3A020000 		.4byte	.LVL463
 12622 0c1d 0100     		.2byte	0x1
 12623 0c1f 53       		.byte	0x53
 12624 0c20 60020000 		.4byte	.LVL464
 12625 0c24 6A020000 		.4byte	.LVL465
 12626 0c28 0100     		.2byte	0x1
 12627 0c2a 53       		.byte	0x53
 12628 0c2b 86020000 		.4byte	.LVL466
 12629 0c2f 92020000 		.4byte	.LVL467
 12630 0c33 0100     		.2byte	0x1
 12631 0c35 53       		.byte	0x53
 12632 0c36 FC020000 		.4byte	.LVL473
 12633 0c3a 02030000 		.4byte	.LVL474
 12634 0c3e 0100     		.2byte	0x1
 12635 0c40 53       		.byte	0x53
 12636 0c41 00000000 		.4byte	0
 12637 0c45 00000000 		.4byte	0
 12638              	.LLST243:
 12639 0c49 58000000 		.4byte	.LVL418
 12640 0c4d 60000000 		.4byte	.LVL419
 12641 0c51 0200     		.2byte	0x2
 12642 0c53 91       		.byte	0x91
 12643 0c54 40       		.sleb128 -64
 12644 0c55 00000000 		.4byte	0
 12645 0c59 00000000 		.4byte	0
 12646              	.LLST244:
 12647 0c5d 68000000 		.4byte	.LVL420
 12648 0c61 D6000000 		.4byte	.LVL428
 12649 0c65 0100     		.2byte	0x1
 12650 0c67 54       		.byte	0x54
 12651 0c68 D6000000 		.4byte	.LVL428
 12652 0c6c E2000000 		.4byte	.LVL431
 12653 0c70 0600     		.2byte	0x6
ARM GAS  /tmp/cc2f1tkm.s 			page 223


 12654 0c72 74       		.byte	0x74
 12655 0c73 00       		.sleb128 0
 12656 0c74 7B       		.byte	0x7b
 12657 0c75 00       		.sleb128 0
 12658 0c76 22       		.byte	0x22
 12659 0c77 9F       		.byte	0x9f
 12660 0c78 E2000000 		.4byte	.LVL431
 12661 0c7c F6000000 		.4byte	.LVL436
 12662 0c80 0100     		.2byte	0x1
 12663 0c82 54       		.byte	0x54
 12664 0c83 62010000 		.4byte	.LVL441
 12665 0c87 8E010000 		.4byte	.LVL447
 12666 0c8b 0100     		.2byte	0x1
 12667 0c8d 54       		.byte	0x54
 12668 0c8e C4010000 		.4byte	.LVL452
 12669 0c92 F0010000 		.4byte	.LVL455
 12670 0c96 0100     		.2byte	0x1
 12671 0c98 54       		.byte	0x54
 12672 0c99 F0010000 		.4byte	.LVL455
 12673 0c9d FE010000 		.4byte	.LVL456
 12674 0ca1 0600     		.2byte	0x6
 12675 0ca3 74       		.byte	0x74
 12676 0ca4 00       		.sleb128 0
 12677 0ca5 77       		.byte	0x77
 12678 0ca6 00       		.sleb128 0
 12679 0ca7 22       		.byte	0x22
 12680 0ca8 9F       		.byte	0x9f
 12681 0ca9 FE010000 		.4byte	.LVL456
 12682 0cad 0A020000 		.4byte	.LVL459
 12683 0cb1 0100     		.2byte	0x1
 12684 0cb3 54       		.byte	0x54
 12685 0cb4 14020000 		.4byte	.LVL460
 12686 0cb8 24020000 		.4byte	.LVL461
 12687 0cbc 0100     		.2byte	0x1
 12688 0cbe 54       		.byte	0x54
 12689 0cbf 02030000 		.4byte	.LVL474
 12690 0cc3 0E030000 		.4byte	.LFE10
 12691 0cc7 0100     		.2byte	0x1
 12692 0cc9 54       		.byte	0x54
 12693 0cca 00000000 		.4byte	0
 12694 0cce 00000000 		.4byte	0
 12695              	.LLST245:
 12696 0cd2 68000000 		.4byte	.LVL420
 12697 0cd6 7E000000 		.4byte	.LVL421
 12698 0cda 0200     		.2byte	0x2
 12699 0cdc 30       		.byte	0x30
 12700 0cdd 9F       		.byte	0x9f
 12701 0cde E2000000 		.4byte	.LVL431
 12702 0ce2 EE000000 		.4byte	.LVL434
 12703 0ce6 0100     		.2byte	0x1
 12704 0ce8 53       		.byte	0x53
 12705 0ce9 F2000000 		.4byte	.LVL435
 12706 0ced F6000000 		.4byte	.LVL436
 12707 0cf1 0100     		.2byte	0x1
 12708 0cf3 53       		.byte	0x53
 12709 0cf4 C4010000 		.4byte	.LVL452
 12710 0cf8 FE010000 		.4byte	.LVL456
ARM GAS  /tmp/cc2f1tkm.s 			page 224


 12711 0cfc 0200     		.2byte	0x2
 12712 0cfe 30       		.byte	0x30
 12713 0cff 9F       		.byte	0x9f
 12714 0d00 FE010000 		.4byte	.LVL456
 12715 0d04 08020000 		.4byte	.LVL458
 12716 0d08 0100     		.2byte	0x1
 12717 0d0a 57       		.byte	0x57
 12718 0d0b 08020000 		.4byte	.LVL458
 12719 0d0f 0A020000 		.4byte	.LVL459
 12720 0d13 0300     		.2byte	0x3
 12721 0d15 91       		.byte	0x91
 12722 0d16 B87F     		.sleb128 -72
 12723 0d18 14020000 		.4byte	.LVL460
 12724 0d1c 24020000 		.4byte	.LVL461
 12725 0d20 0200     		.2byte	0x2
 12726 0d22 30       		.byte	0x30
 12727 0d23 9F       		.byte	0x9f
 12728 0d24 02030000 		.4byte	.LVL474
 12729 0d28 0E030000 		.4byte	.LFE10
 12730 0d2c 0200     		.2byte	0x2
 12731 0d2e 30       		.byte	0x30
 12732 0d2f 9F       		.byte	0x9f
 12733 0d30 00000000 		.4byte	0
 12734 0d34 00000000 		.4byte	0
 12735              	.LLST246:
 12736 0d38 68000000 		.4byte	.LVL420
 12737 0d3c 7E000000 		.4byte	.LVL421
 12738 0d40 0200     		.2byte	0x2
 12739 0d42 91       		.byte	0x91
 12740 0d43 40       		.sleb128 -64
 12741 0d44 B4000000 		.4byte	.LVL424
 12742 0d48 BE000000 		.4byte	.LVL425
 12743 0d4c 0100     		.2byte	0x1
 12744 0d4e 53       		.byte	0x53
 12745 0d4f D0000000 		.4byte	.LVL427
 12746 0d53 EE000000 		.4byte	.LVL434
 12747 0d57 0200     		.2byte	0x2
 12748 0d59 30       		.byte	0x30
 12749 0d5a 9F       		.byte	0x9f
 12750 0d5b F2000000 		.4byte	.LVL435
 12751 0d5f F6000000 		.4byte	.LVL436
 12752 0d63 0200     		.2byte	0x2
 12753 0d65 30       		.byte	0x30
 12754 0d66 9F       		.byte	0x9f
 12755 0d67 8E010000 		.4byte	.LVL447
 12756 0d6b 90010000 		.4byte	.LVL448
 12757 0d6f 0200     		.2byte	0x2
 12758 0d71 30       		.byte	0x30
 12759 0d72 9F       		.byte	0x9f
 12760 0d73 C4010000 		.4byte	.LVL452
 12761 0d77 FE010000 		.4byte	.LVL456
 12762 0d7b 0200     		.2byte	0x2
 12763 0d7d 91       		.byte	0x91
 12764 0d7e 40       		.sleb128 -64
 12765 0d7f FE010000 		.4byte	.LVL456
 12766 0d83 08020000 		.4byte	.LVL458
 12767 0d87 0800     		.2byte	0x8
ARM GAS  /tmp/cc2f1tkm.s 			page 225


 12768 0d89 91       		.byte	0x91
 12769 0d8a 40       		.sleb128 -64
 12770 0d8b 94       		.byte	0x94
 12771 0d8c 01       		.byte	0x1
 12772 0d8d 77       		.byte	0x77
 12773 0d8e 00       		.sleb128 0
 12774 0d8f 1C       		.byte	0x1c
 12775 0d90 9F       		.byte	0x9f
 12776 0d91 08020000 		.4byte	.LVL458
 12777 0d95 0A020000 		.4byte	.LVL459
 12778 0d99 0B00     		.2byte	0xb
 12779 0d9b 91       		.byte	0x91
 12780 0d9c 40       		.sleb128 -64
 12781 0d9d 94       		.byte	0x94
 12782 0d9e 01       		.byte	0x1
 12783 0d9f 91       		.byte	0x91
 12784 0da0 B87F     		.sleb128 -72
 12785 0da2 94       		.byte	0x94
 12786 0da3 01       		.byte	0x1
 12787 0da4 1C       		.byte	0x1c
 12788 0da5 9F       		.byte	0x9f
 12789 0da6 14020000 		.4byte	.LVL460
 12790 0daa 24020000 		.4byte	.LVL461
 12791 0dae 0200     		.2byte	0x2
 12792 0db0 91       		.byte	0x91
 12793 0db1 40       		.sleb128 -64
 12794 0db2 02030000 		.4byte	.LVL474
 12795 0db6 0E030000 		.4byte	.LFE10
 12796 0dba 0200     		.2byte	0x2
 12797 0dbc 91       		.byte	0x91
 12798 0dbd 40       		.sleb128 -64
 12799 0dbe 00000000 		.4byte	0
 12800 0dc2 00000000 		.4byte	0
 12801              	.LLST247:
 12802 0dc6 7E000000 		.4byte	.LVL421
 12803 0dca 90000000 		.4byte	.LVL422
 12804 0dce 0100     		.2byte	0x1
 12805 0dd0 55       		.byte	0x55
 12806 0dd1 90000000 		.4byte	.LVL422
 12807 0dd5 E6000000 		.4byte	.LVL432
 12808 0dd9 0100     		.2byte	0x1
 12809 0ddb 58       		.byte	0x58
 12810 0ddc E8000000 		.4byte	.LVL433
 12811 0de0 F6000000 		.4byte	.LVL436
 12812 0de4 0100     		.2byte	0x1
 12813 0de6 58       		.byte	0x58
 12814 0de7 62010000 		.4byte	.LVL441
 12815 0deb 72010000 		.4byte	.LVL444
 12816 0def 0100     		.2byte	0x1
 12817 0df1 58       		.byte	0x58
 12818 0df2 00020000 		.4byte	.LVL457
 12819 0df6 0A020000 		.4byte	.LVL459
 12820 0dfa 0100     		.2byte	0x1
 12821 0dfc 55       		.byte	0x55
 12822 0dfd 00000000 		.4byte	0
 12823 0e01 00000000 		.4byte	0
 12824              	.LLST248:
ARM GAS  /tmp/cc2f1tkm.s 			page 226


 12825 0e05 7E000000 		.4byte	.LVL421
 12826 0e09 90000000 		.4byte	.LVL422
 12827 0e0d 0300     		.2byte	0x3
 12828 0e0f 08       		.byte	0x8
 12829 0e10 30       		.byte	0x30
 12830 0e11 9F       		.byte	0x9f
 12831 0e12 90000000 		.4byte	.LVL422
 12832 0e16 C4000000 		.4byte	.LVL426
 12833 0e1a 0100     		.2byte	0x1
 12834 0e1c 51       		.byte	0x51
 12835 0e1d E8000000 		.4byte	.LVL433
 12836 0e21 F6000000 		.4byte	.LVL436
 12837 0e25 0100     		.2byte	0x1
 12838 0e27 57       		.byte	0x57
 12839 0e28 62010000 		.4byte	.LVL441
 12840 0e2c 68010000 		.4byte	.LVL443
 12841 0e30 0100     		.2byte	0x1
 12842 0e32 51       		.byte	0x51
 12843 0e33 68010000 		.4byte	.LVL443
 12844 0e37 72010000 		.4byte	.LVL444
 12845 0e3b 0100     		.2byte	0x1
 12846 0e3d 57       		.byte	0x57
 12847 0e3e 00020000 		.4byte	.LVL457
 12848 0e42 0A020000 		.4byte	.LVL459
 12849 0e46 0300     		.2byte	0x3
 12850 0e48 08       		.byte	0x8
 12851 0e49 30       		.byte	0x30
 12852 0e4a 9F       		.byte	0x9f
 12853 0e4b 00000000 		.4byte	0
 12854 0e4f 00000000 		.4byte	0
 12855              	.LLST249:
 12856 0e53 7E000000 		.4byte	.LVL421
 12857 0e57 DA000000 		.4byte	.LVL429
 12858 0e5b 0100     		.2byte	0x1
 12859 0e5d 56       		.byte	0x56
 12860 0e5e E8000000 		.4byte	.LVL433
 12861 0e62 F6000000 		.4byte	.LVL436
 12862 0e66 0100     		.2byte	0x1
 12863 0e68 56       		.byte	0x56
 12864 0e69 62010000 		.4byte	.LVL441
 12865 0e6d 64010000 		.4byte	.LVL442
 12866 0e71 0100     		.2byte	0x1
 12867 0e73 56       		.byte	0x56
 12868 0e74 68010000 		.4byte	.LVL443
 12869 0e78 7A010000 		.4byte	.LVL445
 12870 0e7c 0100     		.2byte	0x1
 12871 0e7e 56       		.byte	0x56
 12872 0e7f 00020000 		.4byte	.LVL457
 12873 0e83 0A020000 		.4byte	.LVL459
 12874 0e87 0100     		.2byte	0x1
 12875 0e89 56       		.byte	0x56
 12876 0e8a 00000000 		.4byte	0
 12877 0e8e 00000000 		.4byte	0
 12878              	.LLST250:
 12879 0e92 A0000000 		.4byte	.LVL423
 12880 0e96 F6000000 		.4byte	.LVL436
 12881 0e9a 0100     		.2byte	0x1
ARM GAS  /tmp/cc2f1tkm.s 			page 227


 12882 0e9c 57       		.byte	0x57
 12883 0e9d 62010000 		.4byte	.LVL441
 12884 0ea1 72010000 		.4byte	.LVL444
 12885 0ea5 0100     		.2byte	0x1
 12886 0ea7 57       		.byte	0x57
 12887 0ea8 00000000 		.4byte	0
 12888 0eac 00000000 		.4byte	0
 12889              	.LLST251:
 12890 0eb0 D0000000 		.4byte	.LVL427
 12891 0eb4 DC000000 		.4byte	.LVL430
 12892 0eb8 0100     		.2byte	0x1
 12893 0eba 5A       		.byte	0x5a
 12894 0ebb 00000000 		.4byte	0
 12895 0ebf 00000000 		.4byte	0
 12896              	.LLST252:
 12897 0ec3 80010000 		.4byte	.LVL446
 12898 0ec7 90010000 		.4byte	.LVL448
 12899 0ecb 0600     		.2byte	0x6
 12900 0ecd 74       		.byte	0x74
 12901 0ece 00       		.sleb128 0
 12902 0ecf 77       		.byte	0x77
 12903 0ed0 00       		.sleb128 0
 12904 0ed1 1C       		.byte	0x1c
 12905 0ed2 9F       		.byte	0x9f
 12906 0ed3 00000000 		.4byte	0
 12907 0ed7 00000000 		.4byte	0
 12908              	.LLST253:
 12909 0edb DE010000 		.4byte	.LVL453
 12910 0edf 08020000 		.4byte	.LVL458
 12911 0ee3 0100     		.2byte	0x1
 12912 0ee5 57       		.byte	0x57
 12913 0ee6 08020000 		.4byte	.LVL458
 12914 0eea 0A020000 		.4byte	.LVL459
 12915 0eee 0300     		.2byte	0x3
 12916 0ef0 91       		.byte	0x91
 12917 0ef1 B87F     		.sleb128 -72
 12918 0ef3 00000000 		.4byte	0
 12919 0ef7 00000000 		.4byte	0
 12920              	.LLST216:
 12921 0efb 00000000 		.4byte	.LVL388
 12922 0eff 18000000 		.4byte	.LVL390
 12923 0f03 0600     		.2byte	0x6
 12924 0f05 52       		.byte	0x52
 12925 0f06 93       		.byte	0x93
 12926 0f07 04       		.uleb128 0x4
 12927 0f08 53       		.byte	0x53
 12928 0f09 93       		.byte	0x93
 12929 0f0a 04       		.uleb128 0x4
 12930 0f0b 18000000 		.4byte	.LVL390
 12931 0f0f DC000000 		.4byte	.LVL413
 12932 0f13 0600     		.2byte	0x6
 12933 0f15 F3       		.byte	0xf3
 12934 0f16 03       		.uleb128 0x3
 12935 0f17 F5       		.byte	0xf5
 12936 0f18 02       		.uleb128 0x2
 12937 0f19 2C       		.uleb128 0x2c
 12938 0f1a 9F       		.byte	0x9f
ARM GAS  /tmp/cc2f1tkm.s 			page 228


 12939 0f1b DC000000 		.4byte	.LVL413
 12940 0f1f E4000000 		.4byte	.LFE9
 12941 0f23 0600     		.2byte	0x6
 12942 0f25 52       		.byte	0x52
 12943 0f26 93       		.byte	0x93
 12944 0f27 04       		.uleb128 0x4
 12945 0f28 53       		.byte	0x53
 12946 0f29 93       		.byte	0x93
 12947 0f2a 04       		.uleb128 0x4
 12948 0f2b 00000000 		.4byte	0
 12949 0f2f 00000000 		.4byte	0
 12950              	.LLST217:
 12951 0f33 04000000 		.4byte	.LVL389
 12952 0f37 9C000000 		.4byte	.LVL404
 12953 0f3b 0100     		.2byte	0x1
 12954 0f3d 5C       		.byte	0x5c
 12955 0f3e DC000000 		.4byte	.LVL413
 12956 0f42 E4000000 		.4byte	.LFE9
 12957 0f46 0100     		.2byte	0x1
 12958 0f48 5C       		.byte	0x5c
 12959 0f49 00000000 		.4byte	0
 12960 0f4d 00000000 		.4byte	0
 12961              	.LLST218:
 12962 0f51 04000000 		.4byte	.LVL389
 12963 0f55 1C000000 		.4byte	.LVL391
 12964 0f59 0100     		.2byte	0x1
 12965 0f5b 5C       		.byte	0x5c
 12966 0f5c 1C000000 		.4byte	.LVL391
 12967 0f60 80000000 		.4byte	.LVL399
 12968 0f64 0100     		.2byte	0x1
 12969 0f66 52       		.byte	0x52
 12970 0f67 80000000 		.4byte	.LVL399
 12971 0f6b 82000000 		.4byte	.LVL400
 12972 0f6f 0200     		.2byte	0x2
 12973 0f71 70       		.byte	0x70
 12974 0f72 0C       		.sleb128 12
 12975 0f73 82000000 		.4byte	.LVL400
 12976 0f77 8C000000 		.4byte	.LVL402
 12977 0f7b 0100     		.2byte	0x1
 12978 0f7d 52       		.byte	0x52
 12979 0f7e 8C000000 		.4byte	.LVL402
 12980 0f82 92000000 		.4byte	.LVL403
 12981 0f86 0100     		.2byte	0x1
 12982 0f88 5E       		.byte	0x5e
 12983 0f89 92000000 		.4byte	.LVL403
 12984 0f8d DA000000 		.4byte	.LVL412
 12985 0f91 0100     		.2byte	0x1
 12986 0f93 52       		.byte	0x52
 12987 0f94 DC000000 		.4byte	.LVL413
 12988 0f98 E4000000 		.4byte	.LFE9
 12989 0f9c 0100     		.2byte	0x1
 12990 0f9e 5C       		.byte	0x5c
 12991 0f9f 00000000 		.4byte	0
 12992 0fa3 00000000 		.4byte	0
 12993              	.LLST219:
 12994 0fa7 4E000000 		.4byte	.LVL392
 12995 0fab 52000000 		.4byte	.LVL393
ARM GAS  /tmp/cc2f1tkm.s 			page 229


 12996 0faf 0100     		.2byte	0x1
 12997 0fb1 55       		.byte	0x55
 12998 0fb2 54000000 		.4byte	.LVL394
 12999 0fb6 6A000000 		.4byte	.LVL397
 13000 0fba 0100     		.2byte	0x1
 13001 0fbc 55       		.byte	0x55
 13002 0fbd 00000000 		.4byte	0
 13003 0fc1 00000000 		.4byte	0
 13004              	.LLST220:
 13005 0fc5 4E000000 		.4byte	.LVL392
 13006 0fc9 52000000 		.4byte	.LVL393
 13007 0fcd 0300     		.2byte	0x3
 13008 0fcf 70       		.byte	0x70
 13009 0fd0 0C       		.sleb128 12
 13010 0fd1 9F       		.byte	0x9f
 13011 0fd2 54000000 		.4byte	.LVL394
 13012 0fd6 6A000000 		.4byte	.LVL397
 13013 0fda 0300     		.2byte	0x3
 13014 0fdc 70       		.byte	0x70
 13015 0fdd 0C       		.sleb128 12
 13016 0fde 9F       		.byte	0x9f
 13017 0fdf 00000000 		.4byte	0
 13018 0fe3 00000000 		.4byte	0
 13019              	.LLST222:
 13020 0fe7 54000000 		.4byte	.LVL394
 13021 0feb 5C000000 		.4byte	.LVL395
 13022 0fef 0100     		.2byte	0x1
 13023 0ff1 53       		.byte	0x53
 13024 0ff2 00000000 		.4byte	0
 13025 0ff6 00000000 		.4byte	0
 13026              	.LLST223:
 13027 0ffa 4E000000 		.4byte	.LVL392
 13028 0ffe 52000000 		.4byte	.LVL393
 13029 1002 0100     		.2byte	0x1
 13030 1004 54       		.byte	0x54
 13031 1005 54000000 		.4byte	.LVL394
 13032 1009 60000000 		.4byte	.LVL396
 13033 100d 0100     		.2byte	0x1
 13034 100f 53       		.byte	0x53
 13035 1010 60000000 		.4byte	.LVL396
 13036 1014 6A000000 		.4byte	.LVL397
 13037 1018 0100     		.2byte	0x1
 13038 101a 54       		.byte	0x54
 13039 101b 00000000 		.4byte	0
 13040 101f 00000000 		.4byte	0
 13041              	.LLST224:
 13042 1023 78000000 		.4byte	.LVL398
 13043 1027 8A000000 		.4byte	.LVL401
 13044 102b 0300     		.2byte	0x3
 13045 102d 70       		.byte	0x70
 13046 102e 0C       		.sleb128 12
 13047 102f 9F       		.byte	0x9f
 13048 1030 00000000 		.4byte	0
 13049 1034 00000000 		.4byte	0
 13050              	.LLST226:
 13051 1038 78000000 		.4byte	.LVL398
 13052 103c 80000000 		.4byte	.LVL399
ARM GAS  /tmp/cc2f1tkm.s 			page 230


 13053 1040 0100     		.2byte	0x1
 13054 1042 52       		.byte	0x52
 13055 1043 80000000 		.4byte	.LVL399
 13056 1047 82000000 		.4byte	.LVL400
 13057 104b 0200     		.2byte	0x2
 13058 104d 70       		.byte	0x70
 13059 104e 0C       		.sleb128 12
 13060 104f 00000000 		.4byte	0
 13061 1053 00000000 		.4byte	0
 13062              	.LLST227:
 13063 1057 78000000 		.4byte	.LVL398
 13064 105b 80000000 		.4byte	.LVL399
 13065 105f 0100     		.2byte	0x1
 13066 1061 52       		.byte	0x52
 13067 1062 80000000 		.4byte	.LVL399
 13068 1066 8A000000 		.4byte	.LVL401
 13069 106a 0200     		.2byte	0x2
 13070 106c 70       		.byte	0x70
 13071 106d 0C       		.sleb128 12
 13072 106e 00000000 		.4byte	0
 13073 1072 00000000 		.4byte	0
 13074              	.LLST228:
 13075 1076 A6000000 		.4byte	.LVL405
 13076 107a AA000000 		.4byte	.LVL406
 13077 107e 0100     		.2byte	0x1
 13078 1080 55       		.byte	0x55
 13079 1081 AC000000 		.4byte	.LVL407
 13080 1085 C2000000 		.4byte	.LVL410
 13081 1089 0100     		.2byte	0x1
 13082 108b 55       		.byte	0x55
 13083 108c 00000000 		.4byte	0
 13084 1090 00000000 		.4byte	0
 13085              	.LLST229:
 13086 1094 A6000000 		.4byte	.LVL405
 13087 1098 AA000000 		.4byte	.LVL406
 13088 109c 0300     		.2byte	0x3
 13089 109e 70       		.byte	0x70
 13090 109f 0C       		.sleb128 12
 13091 10a0 9F       		.byte	0x9f
 13092 10a1 AC000000 		.4byte	.LVL407
 13093 10a5 C2000000 		.4byte	.LVL410
 13094 10a9 0300     		.2byte	0x3
 13095 10ab 70       		.byte	0x70
 13096 10ac 0C       		.sleb128 12
 13097 10ad 9F       		.byte	0x9f
 13098 10ae 00000000 		.4byte	0
 13099 10b2 00000000 		.4byte	0
 13100              	.LLST231:
 13101 10b6 AC000000 		.4byte	.LVL407
 13102 10ba B4000000 		.4byte	.LVL408
 13103 10be 0100     		.2byte	0x1
 13104 10c0 53       		.byte	0x53
 13105 10c1 00000000 		.4byte	0
 13106 10c5 00000000 		.4byte	0
 13107              	.LLST232:
 13108 10c9 A6000000 		.4byte	.LVL405
 13109 10cd AA000000 		.4byte	.LVL406
ARM GAS  /tmp/cc2f1tkm.s 			page 231


 13110 10d1 0100     		.2byte	0x1
 13111 10d3 54       		.byte	0x54
 13112 10d4 AC000000 		.4byte	.LVL407
 13113 10d8 B8000000 		.4byte	.LVL409
 13114 10dc 0100     		.2byte	0x1
 13115 10de 53       		.byte	0x53
 13116 10df B8000000 		.4byte	.LVL409
 13117 10e3 C2000000 		.4byte	.LVL410
 13118 10e7 0100     		.2byte	0x1
 13119 10e9 54       		.byte	0x54
 13120 10ea 00000000 		.4byte	0
 13121 10ee 00000000 		.4byte	0
 13122              	.LLST233:
 13123 10f2 D0000000 		.4byte	.LVL411
 13124 10f6 DC000000 		.4byte	.LVL413
 13125 10fa 0300     		.2byte	0x3
 13126 10fc 70       		.byte	0x70
 13127 10fd 0C       		.sleb128 12
 13128 10fe 9F       		.byte	0x9f
 13129 10ff 00000000 		.4byte	0
 13130 1103 00000000 		.4byte	0
 13131              	.LLST235:
 13132 1107 D0000000 		.4byte	.LVL411
 13133 110b DA000000 		.4byte	.LVL412
 13134 110f 0100     		.2byte	0x1
 13135 1111 52       		.byte	0x52
 13136 1112 00000000 		.4byte	0
 13137 1116 00000000 		.4byte	0
 13138              	.LLST236:
 13139 111a D0000000 		.4byte	.LVL411
 13140 111e DC000000 		.4byte	.LVL413
 13141 1122 0100     		.2byte	0x1
 13142 1124 52       		.byte	0x52
 13143 1125 00000000 		.4byte	0
 13144 1129 00000000 		.4byte	0
 13145              	.LLST127:
 13146 112d 00000000 		.4byte	.LVL236
 13147 1131 1E000000 		.4byte	.LVL240
 13148 1135 0100     		.2byte	0x1
 13149 1137 50       		.byte	0x50
 13150 1138 1E000000 		.4byte	.LVL240
 13151 113c 24000000 		.4byte	.LVL241
 13152 1140 0400     		.2byte	0x4
 13153 1142 F3       		.byte	0xf3
 13154 1143 01       		.uleb128 0x1
 13155 1144 50       		.byte	0x50
 13156 1145 9F       		.byte	0x9f
 13157 1146 24000000 		.4byte	.LVL241
 13158 114a 6C000000 		.4byte	.LVL247
 13159 114e 0100     		.2byte	0x1
 13160 1150 50       		.byte	0x50
 13161 1151 6C000000 		.4byte	.LVL247
 13162 1155 20020000 		.4byte	.LVL290
 13163 1159 0100     		.2byte	0x1
 13164 115b 55       		.byte	0x55
 13165 115c 20020000 		.4byte	.LVL290
 13166 1160 30020000 		.4byte	.LVL293
ARM GAS  /tmp/cc2f1tkm.s 			page 232


 13167 1164 0100     		.2byte	0x1
 13168 1166 50       		.byte	0x50
 13169 1167 30020000 		.4byte	.LVL293
 13170 116b 10040000 		.4byte	.LVL336
 13171 116f 0100     		.2byte	0x1
 13172 1171 55       		.byte	0x55
 13173 1172 10040000 		.4byte	.LVL336
 13174 1176 3C040000 		.4byte	.LVL344
 13175 117a 0400     		.2byte	0x4
 13176 117c F3       		.byte	0xf3
 13177 117d 01       		.uleb128 0x1
 13178 117e 50       		.byte	0x50
 13179 117f 9F       		.byte	0x9f
 13180 1180 3C040000 		.4byte	.LVL344
 13181 1184 F4040000 		.4byte	.LVL365
 13182 1188 0100     		.2byte	0x1
 13183 118a 55       		.byte	0x55
 13184 118b F4040000 		.4byte	.LVL365
 13185 118f 06050000 		.4byte	.LVL366
 13186 1193 0400     		.2byte	0x4
 13187 1195 F3       		.byte	0xf3
 13188 1196 01       		.uleb128 0x1
 13189 1197 50       		.byte	0x50
 13190 1198 9F       		.byte	0x9f
 13191 1199 06050000 		.4byte	.LVL366
 13192 119d 2E050000 		.4byte	.LVL371
 13193 11a1 0100     		.2byte	0x1
 13194 11a3 55       		.byte	0x55
 13195 11a4 2E050000 		.4byte	.LVL371
 13196 11a8 54050000 		.4byte	.LVL379
 13197 11ac 0400     		.2byte	0x4
 13198 11ae F3       		.byte	0xf3
 13199 11af 01       		.uleb128 0x1
 13200 11b0 50       		.byte	0x50
 13201 11b1 9F       		.byte	0x9f
 13202 11b2 54050000 		.4byte	.LVL379
 13203 11b6 9A050000 		.4byte	.LFE8
 13204 11ba 0100     		.2byte	0x1
 13205 11bc 55       		.byte	0x55
 13206 11bd 00000000 		.4byte	0
 13207 11c1 00000000 		.4byte	0
 13208              	.LLST128:
 13209 11c5 00000000 		.4byte	.LVL236
 13210 11c9 1E000000 		.4byte	.LVL240
 13211 11cd 0100     		.2byte	0x1
 13212 11cf 51       		.byte	0x51
 13213 11d0 1E000000 		.4byte	.LVL240
 13214 11d4 24000000 		.4byte	.LVL241
 13215 11d8 0400     		.2byte	0x4
 13216 11da F3       		.byte	0xf3
 13217 11db 01       		.uleb128 0x1
 13218 11dc 51       		.byte	0x51
 13219 11dd 9F       		.byte	0x9f
 13220 11de 24000000 		.4byte	.LVL241
 13221 11e2 8A000000 		.4byte	.LVL250
 13222 11e6 0100     		.2byte	0x1
 13223 11e8 51       		.byte	0x51
ARM GAS  /tmp/cc2f1tkm.s 			page 233


 13224 11e9 8A000000 		.4byte	.LVL250
 13225 11ed 7C010000 		.4byte	.LVL278
 13226 11f1 0300     		.2byte	0x3
 13227 11f3 91       		.byte	0x91
 13228 11f4 9C7F     		.sleb128 -100
 13229 11f6 7C010000 		.4byte	.LVL278
 13230 11fa 20020000 		.4byte	.LVL290
 13231 11fe 0400     		.2byte	0x4
 13232 1200 F3       		.byte	0xf3
 13233 1201 01       		.uleb128 0x1
 13234 1202 51       		.byte	0x51
 13235 1203 9F       		.byte	0x9f
 13236 1204 20020000 		.4byte	.LVL290
 13237 1208 30020000 		.4byte	.LVL293
 13238 120c 0100     		.2byte	0x1
 13239 120e 51       		.byte	0x51
 13240 120f 30020000 		.4byte	.LVL293
 13241 1213 3E020000 		.4byte	.LVL295
 13242 1217 0300     		.2byte	0x3
 13243 1219 91       		.byte	0x91
 13244 121a 9C7F     		.sleb128 -100
 13245 121c 3E020000 		.4byte	.LVL295
 13246 1220 3C030000 		.4byte	.LVL315
 13247 1224 0400     		.2byte	0x4
 13248 1226 F3       		.byte	0xf3
 13249 1227 01       		.uleb128 0x1
 13250 1228 51       		.byte	0x51
 13251 1229 9F       		.byte	0x9f
 13252 122a 3C030000 		.4byte	.LVL315
 13253 122e 5C030000 		.4byte	.LVL318
 13254 1232 0100     		.2byte	0x1
 13255 1234 51       		.byte	0x51
 13256 1235 5C030000 		.4byte	.LVL318
 13257 1239 6C030000 		.4byte	.LVL319
 13258 123d 0400     		.2byte	0x4
 13259 123f F3       		.byte	0xf3
 13260 1240 01       		.uleb128 0x1
 13261 1241 51       		.byte	0x51
 13262 1242 9F       		.byte	0x9f
 13263 1243 6C030000 		.4byte	.LVL319
 13264 1247 80030000 		.4byte	.LVL321
 13265 124b 0300     		.2byte	0x3
 13266 124d 91       		.byte	0x91
 13267 124e 9C7F     		.sleb128 -100
 13268 1250 80030000 		.4byte	.LVL321
 13269 1254 9A050000 		.4byte	.LFE8
 13270 1258 0400     		.2byte	0x4
 13271 125a F3       		.byte	0xf3
 13272 125b 01       		.uleb128 0x1
 13273 125c 51       		.byte	0x51
 13274 125d 9F       		.byte	0x9f
 13275 125e 00000000 		.4byte	0
 13276 1262 00000000 		.4byte	0
 13277              	.LLST129:
 13278 1266 00000000 		.4byte	.LVL236
 13279 126a 1E000000 		.4byte	.LVL240
 13280 126e 0600     		.2byte	0x6
ARM GAS  /tmp/cc2f1tkm.s 			page 234


 13281 1270 52       		.byte	0x52
 13282 1271 93       		.byte	0x93
 13283 1272 04       		.uleb128 0x4
 13284 1273 53       		.byte	0x53
 13285 1274 93       		.byte	0x93
 13286 1275 04       		.uleb128 0x4
 13287 1276 1E000000 		.4byte	.LVL240
 13288 127a 24000000 		.4byte	.LVL241
 13289 127e 0600     		.2byte	0x6
 13290 1280 F3       		.byte	0xf3
 13291 1281 03       		.uleb128 0x3
 13292 1282 F5       		.byte	0xf5
 13293 1283 02       		.uleb128 0x2
 13294 1284 2C       		.uleb128 0x2c
 13295 1285 9F       		.byte	0x9f
 13296 1286 24000000 		.4byte	.LVL241
 13297 128a 86000000 		.4byte	.LVL249
 13298 128e 0600     		.2byte	0x6
 13299 1290 52       		.byte	0x52
 13300 1291 93       		.byte	0x93
 13301 1292 04       		.uleb128 0x4
 13302 1293 53       		.byte	0x53
 13303 1294 93       		.byte	0x93
 13304 1295 04       		.uleb128 0x4
 13305 1296 86000000 		.4byte	.LVL249
 13306 129a 20020000 		.4byte	.LVL290
 13307 129e 0600     		.2byte	0x6
 13308 12a0 F3       		.byte	0xf3
 13309 12a1 03       		.uleb128 0x3
 13310 12a2 F5       		.byte	0xf5
 13311 12a3 02       		.uleb128 0x2
 13312 12a4 2C       		.uleb128 0x2c
 13313 12a5 9F       		.byte	0x9f
 13314 12a6 20020000 		.4byte	.LVL290
 13315 12aa 30020000 		.4byte	.LVL293
 13316 12ae 0600     		.2byte	0x6
 13317 12b0 52       		.byte	0x52
 13318 12b1 93       		.byte	0x93
 13319 12b2 04       		.uleb128 0x4
 13320 12b3 53       		.byte	0x53
 13321 12b4 93       		.byte	0x93
 13322 12b5 04       		.uleb128 0x4
 13323 12b6 30020000 		.4byte	.LVL293
 13324 12ba 3C030000 		.4byte	.LVL315
 13325 12be 0600     		.2byte	0x6
 13326 12c0 F3       		.byte	0xf3
 13327 12c1 03       		.uleb128 0x3
 13328 12c2 F5       		.byte	0xf5
 13329 12c3 02       		.uleb128 0x2
 13330 12c4 2C       		.uleb128 0x2c
 13331 12c5 9F       		.byte	0x9f
 13332 12c6 3C030000 		.4byte	.LVL315
 13333 12ca 5C030000 		.4byte	.LVL318
 13334 12ce 0600     		.2byte	0x6
 13335 12d0 52       		.byte	0x52
 13336 12d1 93       		.byte	0x93
 13337 12d2 04       		.uleb128 0x4
ARM GAS  /tmp/cc2f1tkm.s 			page 235


 13338 12d3 53       		.byte	0x53
 13339 12d4 93       		.byte	0x93
 13340 12d5 04       		.uleb128 0x4
 13341 12d6 5C030000 		.4byte	.LVL318
 13342 12da 9A050000 		.4byte	.LFE8
 13343 12de 0600     		.2byte	0x6
 13344 12e0 F3       		.byte	0xf3
 13345 12e1 03       		.uleb128 0x3
 13346 12e2 F5       		.byte	0xf5
 13347 12e3 02       		.uleb128 0x2
 13348 12e4 2C       		.uleb128 0x2c
 13349 12e5 9F       		.byte	0x9f
 13350 12e6 00000000 		.4byte	0
 13351 12ea 00000000 		.4byte	0
 13352              	.LLST130:
 13353 12ee 1C000000 		.4byte	.LVL239
 13354 12f2 1E000000 		.4byte	.LVL240
 13355 12f6 0100     		.2byte	0x1
 13356 12f8 57       		.byte	0x57
 13357 12f9 2C000000 		.4byte	.LVL242
 13358 12fd 92000000 		.4byte	.LVL251
 13359 1301 0100     		.2byte	0x1
 13360 1303 57       		.byte	0x57
 13361 1304 20020000 		.4byte	.LVL290
 13362 1308 30020000 		.4byte	.LVL293
 13363 130c 0100     		.2byte	0x1
 13364 130e 57       		.byte	0x57
 13365 130f 3C030000 		.4byte	.LVL315
 13366 1313 3E030000 		.4byte	.LVL316
 13367 1317 0100     		.2byte	0x1
 13368 1319 57       		.byte	0x57
 13369 131a 00000000 		.4byte	0
 13370 131e 00000000 		.4byte	0
 13371              	.LLST131:
 13372 1322 4A000000 		.4byte	.LVL243
 13373 1326 86010000 		.4byte	.LVL279
 13374 132a 0700     		.2byte	0x7
 13375 132c 74       		.byte	0x74
 13376 132d 00       		.sleb128 0
 13377 132e 48       		.byte	0x48
 13378 132f 25       		.byte	0x25
 13379 1330 4F       		.byte	0x4f
 13380 1331 1A       		.byte	0x1a
 13381 1332 9F       		.byte	0x9f
 13382 1333 20020000 		.4byte	.LVL290
 13383 1337 44020000 		.4byte	.LVL296
 13384 133b 0700     		.2byte	0x7
 13385 133d 74       		.byte	0x74
 13386 133e 00       		.sleb128 0
 13387 133f 48       		.byte	0x48
 13388 1340 25       		.byte	0x25
 13389 1341 4F       		.byte	0x4f
 13390 1342 1A       		.byte	0x1a
 13391 1343 9F       		.byte	0x9f
 13392 1344 3C030000 		.4byte	.LVL315
 13393 1348 5C030000 		.4byte	.LVL318
 13394 134c 0700     		.2byte	0x7
ARM GAS  /tmp/cc2f1tkm.s 			page 236


 13395 134e 74       		.byte	0x74
 13396 134f 00       		.sleb128 0
 13397 1350 48       		.byte	0x48
 13398 1351 25       		.byte	0x25
 13399 1352 4F       		.byte	0x4f
 13400 1353 1A       		.byte	0x1a
 13401 1354 9F       		.byte	0x9f
 13402 1355 6C030000 		.4byte	.LVL319
 13403 1359 80030000 		.4byte	.LVL321
 13404 135d 0700     		.2byte	0x7
 13405 135f 74       		.byte	0x74
 13406 1360 00       		.sleb128 0
 13407 1361 48       		.byte	0x48
 13408 1362 25       		.byte	0x25
 13409 1363 4F       		.byte	0x4f
 13410 1364 1A       		.byte	0x1a
 13411 1365 9F       		.byte	0x9f
 13412 1366 EA040000 		.4byte	.LVL363
 13413 136a F4040000 		.4byte	.LVL365
 13414 136e 0700     		.2byte	0x7
 13415 1370 74       		.byte	0x74
 13416 1371 00       		.sleb128 0
 13417 1372 48       		.byte	0x48
 13418 1373 25       		.byte	0x25
 13419 1374 4F       		.byte	0x4f
 13420 1375 1A       		.byte	0x1a
 13421 1376 9F       		.byte	0x9f
 13422 1377 00000000 		.4byte	0
 13423 137b 00000000 		.4byte	0
 13424              	.LLST132:
 13425 137f 50000000 		.4byte	.LVL244
 13426 1383 7C010000 		.4byte	.LVL278
 13427 1387 0300     		.2byte	0x3
 13428 1389 91       		.byte	0x91
 13429 138a 987F     		.sleb128 -104
 13430 138c 20020000 		.4byte	.LVL290
 13431 1390 3E020000 		.4byte	.LVL295
 13432 1394 0300     		.2byte	0x3
 13433 1396 91       		.byte	0x91
 13434 1397 987F     		.sleb128 -104
 13435 1399 3C030000 		.4byte	.LVL315
 13436 139d 5C030000 		.4byte	.LVL318
 13437 13a1 0300     		.2byte	0x3
 13438 13a3 91       		.byte	0x91
 13439 13a4 987F     		.sleb128 -104
 13440 13a6 6C030000 		.4byte	.LVL319
 13441 13aa 80030000 		.4byte	.LVL321
 13442 13ae 0300     		.2byte	0x3
 13443 13b0 91       		.byte	0x91
 13444 13b1 987F     		.sleb128 -104
 13445 13b3 00000000 		.4byte	0
 13446 13b7 00000000 		.4byte	0
 13447              	.LLST133:
 13448 13bb 7E000000 		.4byte	.LVL248
 13449 13bf CC000000 		.4byte	.LVL261
 13450 13c3 0100     		.2byte	0x1
 13451 13c5 5A       		.byte	0x5a
ARM GAS  /tmp/cc2f1tkm.s 			page 237


 13452 13c6 3C030000 		.4byte	.LVL315
 13453 13ca 5C030000 		.4byte	.LVL318
 13454 13ce 0100     		.2byte	0x1
 13455 13d0 5A       		.byte	0x5a
 13456 13d1 6C030000 		.4byte	.LVL319
 13457 13d5 80030000 		.4byte	.LVL321
 13458 13d9 0100     		.2byte	0x1
 13459 13db 5A       		.byte	0x5a
 13460 13dc 00000000 		.4byte	0
 13461 13e0 00000000 		.4byte	0
 13462              	.LLST134:
 13463 13e4 7E000000 		.4byte	.LVL248
 13464 13e8 76010000 		.4byte	.LVL277
 13465 13ec 0100     		.2byte	0x1
 13466 13ee 58       		.byte	0x58
 13467 13ef 30020000 		.4byte	.LVL293
 13468 13f3 38020000 		.4byte	.LVL294
 13469 13f7 0100     		.2byte	0x1
 13470 13f9 58       		.byte	0x58
 13471 13fa 3C030000 		.4byte	.LVL315
 13472 13fe 5C030000 		.4byte	.LVL318
 13473 1402 0100     		.2byte	0x1
 13474 1404 58       		.byte	0x58
 13475 1405 6C030000 		.4byte	.LVL319
 13476 1409 80030000 		.4byte	.LVL321
 13477 140d 0100     		.2byte	0x1
 13478 140f 58       		.byte	0x58
 13479 1410 00000000 		.4byte	0
 13480 1414 00000000 		.4byte	0
 13481              	.LLST135:
 13482 1418 7E000000 		.4byte	.LVL248
 13483 141c C8000000 		.4byte	.LVL260
 13484 1420 0200     		.2byte	0x2
 13485 1422 30       		.byte	0x30
 13486 1423 9F       		.byte	0x9f
 13487 1424 18010000 		.4byte	.LVL271
 13488 1428 20020000 		.4byte	.LVL290
 13489 142c 0100     		.2byte	0x1
 13490 142e 57       		.byte	0x57
 13491 142f 30020000 		.4byte	.LVL293
 13492 1433 3C030000 		.4byte	.LVL315
 13493 1437 0100     		.2byte	0x1
 13494 1439 57       		.byte	0x57
 13495 143a 3C030000 		.4byte	.LVL315
 13496 143e 5C030000 		.4byte	.LVL318
 13497 1442 0200     		.2byte	0x2
 13498 1444 30       		.byte	0x30
 13499 1445 9F       		.byte	0x9f
 13500 1446 5C030000 		.4byte	.LVL318
 13501 144a 6C030000 		.4byte	.LVL319
 13502 144e 0100     		.2byte	0x1
 13503 1450 57       		.byte	0x57
 13504 1451 6C030000 		.4byte	.LVL319
 13505 1455 80030000 		.4byte	.LVL321
 13506 1459 0200     		.2byte	0x2
 13507 145b 30       		.byte	0x30
 13508 145c 9F       		.byte	0x9f
ARM GAS  /tmp/cc2f1tkm.s 			page 238


 13509 145d 80030000 		.4byte	.LVL321
 13510 1461 FC030000 		.4byte	.LVL333
 13511 1465 0100     		.2byte	0x1
 13512 1467 57       		.byte	0x57
 13513 1468 FC030000 		.4byte	.LVL333
 13514 146c 04040000 		.4byte	.LVL334
 13515 1470 0100     		.2byte	0x1
 13516 1472 51       		.byte	0x51
 13517 1473 04040000 		.4byte	.LVL334
 13518 1477 1E050000 		.4byte	.LVL368
 13519 147b 0100     		.2byte	0x1
 13520 147d 57       		.byte	0x57
 13521 147e 1E050000 		.4byte	.LVL368
 13522 1482 2E050000 		.4byte	.LVL371
 13523 1486 0100     		.2byte	0x1
 13524 1488 51       		.byte	0x51
 13525 1489 2E050000 		.4byte	.LVL371
 13526 148d 9A050000 		.4byte	.LFE8
 13527 1491 0100     		.2byte	0x1
 13528 1493 57       		.byte	0x57
 13529 1494 00000000 		.4byte	0
 13530 1498 00000000 		.4byte	0
 13531              	.LLST136:
 13532 149c 32010000 		.4byte	.LVL272
 13533 14a0 54010000 		.4byte	.LVL275
 13534 14a4 0800     		.2byte	0x8
 13535 14a6 F5       		.byte	0xf5
 13536 14a7 02       		.uleb128 0x2
 13537 14a8 25       		.uleb128 0x25
 13538 14a9 30       		.byte	0x30
 13539 14aa F7       		.byte	0xf7
 13540 14ab 25       		.uleb128 0x25
 13541 14ac 29       		.byte	0x29
 13542 14ad 9F       		.byte	0x9f
 13543 14ae 54010000 		.4byte	.LVL275
 13544 14b2 C4010000 		.4byte	.LVL287
 13545 14b6 0A00     		.2byte	0xa
 13546 14b8 77       		.byte	0x77
 13547 14b9 08       		.sleb128 8
 13548 14ba F6       		.byte	0xf6
 13549 14bb 08       		.byte	0x8
 13550 14bc 25       		.uleb128 0x25
 13551 14bd 30       		.byte	0x30
 13552 14be F7       		.byte	0xf7
 13553 14bf 25       		.uleb128 0x25
 13554 14c0 29       		.byte	0x29
 13555 14c1 9F       		.byte	0x9f
 13556 14c2 30020000 		.4byte	.LVL293
 13557 14c6 A0020000 		.4byte	.LVL300
 13558 14ca 0A00     		.2byte	0xa
 13559 14cc 77       		.byte	0x77
 13560 14cd 08       		.sleb128 8
 13561 14ce F6       		.byte	0xf6
 13562 14cf 08       		.byte	0x8
 13563 14d0 25       		.uleb128 0x25
 13564 14d1 30       		.byte	0x30
 13565 14d2 F7       		.byte	0xf7
ARM GAS  /tmp/cc2f1tkm.s 			page 239


 13566 14d3 25       		.uleb128 0x25
 13567 14d4 29       		.byte	0x29
 13568 14d5 9F       		.byte	0x9f
 13569 14d6 5C030000 		.4byte	.LVL318
 13570 14da 6C030000 		.4byte	.LVL319
 13571 14de 0A00     		.2byte	0xa
 13572 14e0 77       		.byte	0x77
 13573 14e1 08       		.sleb128 8
 13574 14e2 F6       		.byte	0xf6
 13575 14e3 08       		.byte	0x8
 13576 14e4 25       		.uleb128 0x25
 13577 14e5 30       		.byte	0x30
 13578 14e6 F7       		.byte	0xf7
 13579 14e7 25       		.uleb128 0x25
 13580 14e8 29       		.byte	0x29
 13581 14e9 9F       		.byte	0x9f
 13582 14ea D0030000 		.4byte	.LVL330
 13583 14ee EA030000 		.4byte	.LVL331
 13584 14f2 0A00     		.2byte	0xa
 13585 14f4 77       		.byte	0x77
 13586 14f5 08       		.sleb128 8
 13587 14f6 F6       		.byte	0xf6
 13588 14f7 08       		.byte	0x8
 13589 14f8 25       		.uleb128 0x25
 13590 14f9 30       		.byte	0x30
 13591 14fa F7       		.byte	0xf7
 13592 14fb 25       		.uleb128 0x25
 13593 14fc 29       		.byte	0x29
 13594 14fd 9F       		.byte	0x9f
 13595 14fe 56040000 		.4byte	.LVL347
 13596 1502 A0040000 		.4byte	.LVL355
 13597 1506 0A00     		.2byte	0xa
 13598 1508 77       		.byte	0x77
 13599 1509 08       		.sleb128 8
 13600 150a F6       		.byte	0xf6
 13601 150b 08       		.byte	0x8
 13602 150c 25       		.uleb128 0x25
 13603 150d 30       		.byte	0x30
 13604 150e F7       		.byte	0xf7
 13605 150f 25       		.uleb128 0x25
 13606 1510 29       		.byte	0x29
 13607 1511 9F       		.byte	0x9f
 13608 1512 E2040000 		.4byte	.LVL361
 13609 1516 E4040000 		.4byte	.LVL362
 13610 151a 0A00     		.2byte	0xa
 13611 151c 77       		.byte	0x77
 13612 151d 08       		.sleb128 8
 13613 151e F6       		.byte	0xf6
 13614 151f 08       		.byte	0x8
 13615 1520 25       		.uleb128 0x25
 13616 1521 30       		.byte	0x30
 13617 1522 F7       		.byte	0xf7
 13618 1523 25       		.uleb128 0x25
 13619 1524 29       		.byte	0x29
 13620 1525 9F       		.byte	0x9f
 13621 1526 EA040000 		.4byte	.LVL363
 13622 152a F4040000 		.4byte	.LVL365
ARM GAS  /tmp/cc2f1tkm.s 			page 240


 13623 152e 0A00     		.2byte	0xa
 13624 1530 77       		.byte	0x77
 13625 1531 08       		.sleb128 8
 13626 1532 F6       		.byte	0xf6
 13627 1533 08       		.byte	0x8
 13628 1534 25       		.uleb128 0x25
 13629 1535 30       		.byte	0x30
 13630 1536 F7       		.byte	0xf7
 13631 1537 25       		.uleb128 0x25
 13632 1538 29       		.byte	0x29
 13633 1539 9F       		.byte	0x9f
 13634 153a 06050000 		.4byte	.LVL366
 13635 153e 19050000 		.4byte	.LVL367-1
 13636 1542 0A00     		.2byte	0xa
 13637 1544 77       		.byte	0x77
 13638 1545 08       		.sleb128 8
 13639 1546 F6       		.byte	0xf6
 13640 1547 08       		.byte	0x8
 13641 1548 25       		.uleb128 0x25
 13642 1549 30       		.byte	0x30
 13643 154a F7       		.byte	0xf7
 13644 154b 25       		.uleb128 0x25
 13645 154c 29       		.byte	0x29
 13646 154d 9F       		.byte	0x9f
 13647 154e 8C050000 		.4byte	.LVL386
 13648 1552 92050000 		.4byte	.LVL387
 13649 1556 0A00     		.2byte	0xa
 13650 1558 77       		.byte	0x77
 13651 1559 08       		.sleb128 8
 13652 155a F6       		.byte	0xf6
 13653 155b 08       		.byte	0x8
 13654 155c 25       		.uleb128 0x25
 13655 155d 30       		.byte	0x30
 13656 155e F7       		.byte	0xf7
 13657 155f 25       		.uleb128 0x25
 13658 1560 29       		.byte	0x29
 13659 1561 9F       		.byte	0x9f
 13660 1562 00000000 		.4byte	0
 13661 1566 00000000 		.4byte	0
 13662              	.LLST137:
 13663 156a 32010000 		.4byte	.LVL272
 13664 156e 54010000 		.4byte	.LVL275
 13665 1572 1300     		.2byte	0x13
 13666 1574 91       		.byte	0x91
 13667 1575 A07F     		.sleb128 -96
 13668 1577 F6       		.byte	0xf6
 13669 1578 08       		.byte	0x8
 13670 1579 2C       		.uleb128 0x2c
 13671 157a F5       		.byte	0xf5
 13672 157b 02       		.uleb128 0x2
 13673 157c 2C       		.uleb128 0x2c
 13674 157d 1C       		.byte	0x1c
 13675 157e 0C       		.byte	0xc
 13676 157f 80841E00 		.4byte	0x1e8480
 13677 1583 F7       		.byte	0xf7
 13678 1584 2C       		.uleb128 0x2c
 13679 1585 2B       		.byte	0x2b
ARM GAS  /tmp/cc2f1tkm.s 			page 241


 13680 1586 9F       		.byte	0x9f
 13681 1587 54010000 		.4byte	.LVL275
 13682 158b 7C010000 		.4byte	.LVL278
 13683 158f 1500     		.2byte	0x15
 13684 1591 91       		.byte	0x91
 13685 1592 A07F     		.sleb128 -96
 13686 1594 F6       		.byte	0xf6
 13687 1595 08       		.byte	0x8
 13688 1596 2C       		.uleb128 0x2c
 13689 1597 77       		.byte	0x77
 13690 1598 08       		.sleb128 8
 13691 1599 F6       		.byte	0xf6
 13692 159a 08       		.byte	0x8
 13693 159b 2C       		.uleb128 0x2c
 13694 159c 1C       		.byte	0x1c
 13695 159d 0C       		.byte	0xc
 13696 159e 80841E00 		.4byte	0x1e8480
 13697 15a2 F7       		.byte	0xf7
 13698 15a3 2C       		.uleb128 0x2c
 13699 15a4 2B       		.byte	0x2b
 13700 15a5 9F       		.byte	0x9f
 13701 15a6 30020000 		.4byte	.LVL293
 13702 15aa 3E020000 		.4byte	.LVL295
 13703 15ae 1500     		.2byte	0x15
 13704 15b0 91       		.byte	0x91
 13705 15b1 A07F     		.sleb128 -96
 13706 15b3 F6       		.byte	0xf6
 13707 15b4 08       		.byte	0x8
 13708 15b5 2C       		.uleb128 0x2c
 13709 15b6 77       		.byte	0x77
 13710 15b7 08       		.sleb128 8
 13711 15b8 F6       		.byte	0xf6
 13712 15b9 08       		.byte	0x8
 13713 15ba 2C       		.uleb128 0x2c
 13714 15bb 1C       		.byte	0x1c
 13715 15bc 0C       		.byte	0xc
 13716 15bd 80841E00 		.4byte	0x1e8480
 13717 15c1 F7       		.byte	0xf7
 13718 15c2 2C       		.uleb128 0x2c
 13719 15c3 2B       		.byte	0x2b
 13720 15c4 9F       		.byte	0x9f
 13721 15c5 00000000 		.4byte	0
 13722 15c9 00000000 		.4byte	0
 13723              	.LLST138:
 13724 15cd 32010000 		.4byte	.LVL272
 13725 15d1 7C010000 		.4byte	.LVL278
 13726 15d5 0800     		.2byte	0x8
 13727 15d7 91       		.byte	0x91
 13728 15d8 A87F     		.sleb128 -88
 13729 15da 94       		.byte	0x94
 13730 15db 01       		.byte	0x1
 13731 15dc 30       		.byte	0x30
 13732 15dd 2E       		.byte	0x2e
 13733 15de 9F       		.byte	0x9f
 13734 15df 30020000 		.4byte	.LVL293
 13735 15e3 3E020000 		.4byte	.LVL295
 13736 15e7 0800     		.2byte	0x8
ARM GAS  /tmp/cc2f1tkm.s 			page 242


 13737 15e9 91       		.byte	0x91
 13738 15ea A87F     		.sleb128 -88
 13739 15ec 94       		.byte	0x94
 13740 15ed 01       		.byte	0x1
 13741 15ee 30       		.byte	0x30
 13742 15ef 2E       		.byte	0x2e
 13743 15f0 9F       		.byte	0x9f
 13744 15f1 00000000 		.4byte	0
 13745 15f5 00000000 		.4byte	0
 13746              	.LLST139:
 13747 15f9 46010000 		.4byte	.LVL274
 13748 15fd FD010000 		.4byte	.LVL288-1
 13749 1601 0900     		.2byte	0x9
 13750 1603 7E       		.byte	0x7e
 13751 1604 00       		.sleb128 0
 13752 1605 40       		.byte	0x40
 13753 1606 24       		.byte	0x24
 13754 1607 40       		.byte	0x40
 13755 1608 3C       		.byte	0x3c
 13756 1609 24       		.byte	0x24
 13757 160a 2B       		.byte	0x2b
 13758 160b 9F       		.byte	0x9f
 13759 160c 30020000 		.4byte	.LVL293
 13760 1610 78020000 		.4byte	.LVL297
 13761 1614 0900     		.2byte	0x9
 13762 1616 7E       		.byte	0x7e
 13763 1617 00       		.sleb128 0
 13764 1618 40       		.byte	0x40
 13765 1619 24       		.byte	0x24
 13766 161a 40       		.byte	0x40
 13767 161b 3C       		.byte	0x3c
 13768 161c 24       		.byte	0x24
 13769 161d 2B       		.byte	0x2b
 13770 161e 9F       		.byte	0x9f
 13771 161f 5C030000 		.4byte	.LVL318
 13772 1623 6C030000 		.4byte	.LVL319
 13773 1627 0900     		.2byte	0x9
 13774 1629 7E       		.byte	0x7e
 13775 162a 00       		.sleb128 0
 13776 162b 40       		.byte	0x40
 13777 162c 24       		.byte	0x24
 13778 162d 40       		.byte	0x40
 13779 162e 3C       		.byte	0x3c
 13780 162f 24       		.byte	0x24
 13781 1630 2B       		.byte	0x2b
 13782 1631 9F       		.byte	0x9f
 13783 1632 D0030000 		.4byte	.LVL330
 13784 1636 F7030000 		.4byte	.LVL332-1
 13785 163a 0900     		.2byte	0x9
 13786 163c 7E       		.byte	0x7e
 13787 163d 00       		.sleb128 0
 13788 163e 40       		.byte	0x40
 13789 163f 24       		.byte	0x24
 13790 1640 40       		.byte	0x40
 13791 1641 3C       		.byte	0x3c
 13792 1642 24       		.byte	0x24
 13793 1643 2B       		.byte	0x2b
ARM GAS  /tmp/cc2f1tkm.s 			page 243


 13794 1644 9F       		.byte	0x9f
 13795 1645 EA040000 		.4byte	.LVL363
 13796 1649 F4040000 		.4byte	.LVL365
 13797 164d 0900     		.2byte	0x9
 13798 164f 7E       		.byte	0x7e
 13799 1650 00       		.sleb128 0
 13800 1651 40       		.byte	0x40
 13801 1652 24       		.byte	0x24
 13802 1653 40       		.byte	0x40
 13803 1654 3C       		.byte	0x3c
 13804 1655 24       		.byte	0x24
 13805 1656 2B       		.byte	0x2b
 13806 1657 9F       		.byte	0x9f
 13807 1658 06050000 		.4byte	.LVL366
 13808 165c 19050000 		.4byte	.LVL367-1
 13809 1660 0900     		.2byte	0x9
 13810 1662 7E       		.byte	0x7e
 13811 1663 00       		.sleb128 0
 13812 1664 40       		.byte	0x40
 13813 1665 24       		.byte	0x24
 13814 1666 40       		.byte	0x40
 13815 1667 3C       		.byte	0x3c
 13816 1668 24       		.byte	0x24
 13817 1669 2B       		.byte	0x2b
 13818 166a 9F       		.byte	0x9f
 13819 166b 00000000 		.4byte	0
 13820 166f 00000000 		.4byte	0
 13821              	.LLST140:
 13822 1673 6E010000 		.4byte	.LVL276
 13823 1677 B4010000 		.4byte	.LVL286
 13824 167b 0200     		.2byte	0x2
 13825 167d 31       		.byte	0x31
 13826 167e 9F       		.byte	0x9f
 13827 167f 30020000 		.4byte	.LVL293
 13828 1683 44020000 		.4byte	.LVL296
 13829 1687 0200     		.2byte	0x2
 13830 1689 31       		.byte	0x31
 13831 168a 9F       		.byte	0x9f
 13832 168b 5C030000 		.4byte	.LVL318
 13833 168f 6C030000 		.4byte	.LVL319
 13834 1693 0200     		.2byte	0x2
 13835 1695 31       		.byte	0x31
 13836 1696 9F       		.byte	0x9f
 13837 1697 EA040000 		.4byte	.LVL363
 13838 169b F4040000 		.4byte	.LVL365
 13839 169f 0200     		.2byte	0x2
 13840 16a1 31       		.byte	0x31
 13841 16a2 9F       		.byte	0x9f
 13842 16a3 00000000 		.4byte	0
 13843 16a7 00000000 		.4byte	0
 13844              	.LLST147:
 13845 16ab 9E000000 		.4byte	.LVL253
 13846 16af C8000000 		.4byte	.LVL260
 13847 16b3 0100     		.2byte	0x1
 13848 16b5 5A       		.byte	0x5a
 13849 16b6 6C030000 		.4byte	.LVL319
 13850 16ba 80030000 		.4byte	.LVL321
ARM GAS  /tmp/cc2f1tkm.s 			page 244


 13851 16be 0100     		.2byte	0x1
 13852 16c0 5A       		.byte	0x5a
 13853 16c1 00000000 		.4byte	0
 13854 16c5 00000000 		.4byte	0
 13855              	.LLST148:
 13856 16c9 9E000000 		.4byte	.LVL253
 13857 16cd C8000000 		.4byte	.LVL260
 13858 16d1 0100     		.2byte	0x1
 13859 16d3 55       		.byte	0x55
 13860 16d4 6C030000 		.4byte	.LVL319
 13861 16d8 80030000 		.4byte	.LVL321
 13862 16dc 0100     		.2byte	0x1
 13863 16de 55       		.byte	0x55
 13864 16df 00000000 		.4byte	0
 13865 16e3 00000000 		.4byte	0
 13866              	.LLST149:
 13867 16e7 A0000000 		.4byte	.LVL254
 13868 16eb A6000000 		.4byte	.LVL255
 13869 16ef 0100     		.2byte	0x1
 13870 16f1 57       		.byte	0x57
 13871 16f2 A6000000 		.4byte	.LVL255
 13872 16f6 B2000000 		.4byte	.LVL257
 13873 16fa 0200     		.2byte	0x2
 13874 16fc 75       		.byte	0x75
 13875 16fd 18       		.sleb128 24
 13876 16fe 6C030000 		.4byte	.LVL319
 13877 1702 76030000 		.4byte	.LVL320
 13878 1706 0100     		.2byte	0x1
 13879 1708 57       		.byte	0x57
 13880 1709 76030000 		.4byte	.LVL320
 13881 170d 80030000 		.4byte	.LVL321
 13882 1711 0100     		.2byte	0x1
 13883 1713 50       		.byte	0x50
 13884 1714 00000000 		.4byte	0
 13885 1718 00000000 		.4byte	0
 13886              	.LLST150:
 13887 171c A6000000 		.4byte	.LVL255
 13888 1720 B2000000 		.4byte	.LVL257
 13889 1724 0100     		.2byte	0x1
 13890 1726 57       		.byte	0x57
 13891 1727 00000000 		.4byte	0
 13892 172b 00000000 		.4byte	0
 13893              	.LLST151:
 13894 172f B2000000 		.4byte	.LVL257
 13895 1733 C6000000 		.4byte	.LVL259
 13896 1737 0100     		.2byte	0x1
 13897 1739 5A       		.byte	0x5a
 13898 173a 00000000 		.4byte	0
 13899 173e 00000000 		.4byte	0
 13900              	.LLST152:
 13901 1742 B2000000 		.4byte	.LVL257
 13902 1746 C6000000 		.4byte	.LVL259
 13903 174a 0100     		.2byte	0x1
 13904 174c 55       		.byte	0x55
 13905 174d 00000000 		.4byte	0
 13906 1751 00000000 		.4byte	0
 13907              	.LLST153:
ARM GAS  /tmp/cc2f1tkm.s 			page 245


 13908 1755 BC000000 		.4byte	.LVL258
 13909 1759 C6000000 		.4byte	.LVL259
 13910 175d 0100     		.2byte	0x1
 13911 175f 50       		.byte	0x50
 13912 1760 00000000 		.4byte	0
 13913 1764 00000000 		.4byte	0
 13914              	.LLST154:
 13915 1768 CC000000 		.4byte	.LVL261
 13916 176c 16010000 		.4byte	.LVL270
 13917 1770 0600     		.2byte	0x6
 13918 1772 5A       		.byte	0x5a
 13919 1773 93       		.byte	0x93
 13920 1774 04       		.uleb128 0x4
 13921 1775 5E       		.byte	0x5e
 13922 1776 93       		.byte	0x93
 13923 1777 04       		.uleb128 0x4
 13924 1778 00000000 		.4byte	0
 13925 177c 00000000 		.4byte	0
 13926              	.LLST155:
 13927 1780 CC000000 		.4byte	.LVL261
 13928 1784 D6000000 		.4byte	.LVL262
 13929 1788 0300     		.2byte	0x3
 13930 178a 09       		.byte	0x9
 13931 178b FF       		.byte	0xff
 13932 178c 9F       		.byte	0x9f
 13933 178d D6000000 		.4byte	.LVL262
 13934 1791 F6000000 		.4byte	.LVL263
 13935 1795 0100     		.2byte	0x1
 13936 1797 53       		.byte	0x53
 13937 1798 10010000 		.4byte	.LVL268
 13938 179c 16010000 		.4byte	.LVL270
 13939 17a0 0100     		.2byte	0x1
 13940 17a2 53       		.byte	0x53
 13941 17a3 00000000 		.4byte	0
 13942 17a7 00000000 		.4byte	0
 13943              	.LLST156:
 13944 17ab CC000000 		.4byte	.LVL261
 13945 17af D6000000 		.4byte	.LVL262
 13946 17b3 0200     		.2byte	0x2
 13947 17b5 30       		.byte	0x30
 13948 17b6 9F       		.byte	0x9f
 13949 17b7 D6000000 		.4byte	.LVL262
 13950 17bb 10010000 		.4byte	.LVL268
 13951 17bf 0100     		.2byte	0x1
 13952 17c1 50       		.byte	0x50
 13953 17c2 10010000 		.4byte	.LVL268
 13954 17c6 12010000 		.4byte	.LVL269
 13955 17ca 0300     		.2byte	0x3
 13956 17cc 70       		.byte	0x70
 13957 17cd 08       		.sleb128 8
 13958 17ce 9F       		.byte	0x9f
 13959 17cf 00000000 		.4byte	0
 13960 17d3 00000000 		.4byte	0
 13961              	.LLST157:
 13962 17d7 D6000000 		.4byte	.LVL262
 13963 17db FC000000 		.4byte	.LVL265
 13964 17df 0100     		.2byte	0x1
ARM GAS  /tmp/cc2f1tkm.s 			page 246


 13965 17e1 53       		.byte	0x53
 13966 17e2 FC000000 		.4byte	.LVL265
 13967 17e6 0A010000 		.4byte	.LVL267
 13968 17ea 0100     		.2byte	0x1
 13969 17ec 51       		.byte	0x51
 13970 17ed 0A010000 		.4byte	.LVL267
 13971 17f1 10010000 		.4byte	.LVL268
 13972 17f5 0100     		.2byte	0x1
 13973 17f7 53       		.byte	0x53
 13974 17f8 00000000 		.4byte	0
 13975 17fc 00000000 		.4byte	0
 13976              	.LLST158:
 13977 1800 F6000000 		.4byte	.LVL263
 13978 1804 F8000000 		.4byte	.LVL264
 13979 1808 0200     		.2byte	0x2
 13980 180a 30       		.byte	0x30
 13981 180b 9F       		.byte	0x9f
 13982 180c F8000000 		.4byte	.LVL264
 13983 1810 02010000 		.4byte	.LVL266
 13984 1814 0500     		.2byte	0x5
 13985 1816 39       		.byte	0x39
 13986 1817 72       		.byte	0x72
 13987 1818 00       		.sleb128 0
 13988 1819 1C       		.byte	0x1c
 13989 181a 9F       		.byte	0x9f
 13990 181b 00000000 		.4byte	0
 13991 181f 00000000 		.4byte	0
 13992              	.LLST169:
 13993 1823 FE010000 		.4byte	.LVL288
 13994 1827 1E020000 		.4byte	.LVL289
 13995 182b 0100     		.2byte	0x1
 13996 182d 57       		.byte	0x57
 13997 182e 00000000 		.4byte	0
 13998 1832 00000000 		.4byte	0
 13999              	.LLST191:
 14000 1836 F8030000 		.4byte	.LVL332
 14001 183a 10040000 		.4byte	.LVL336
 14002 183e 0100     		.2byte	0x1
 14003 1840 50       		.byte	0x50
 14004 1841 00000000 		.4byte	0
 14005 1845 00000000 		.4byte	0
 14006              	.LLST192:
 14007 1849 06040000 		.4byte	.LVL335
 14008 184d 10040000 		.4byte	.LVL336
 14009 1851 0A00     		.2byte	0xa
 14010 1853 72       		.byte	0x72
 14011 1854 0C       		.sleb128 12
 14012 1855 94       		.byte	0x94
 14013 1856 01       		.byte	0x1
 14014 1857 33       		.byte	0x33
 14015 1858 1C       		.byte	0x1c
 14016 1859 08       		.byte	0x8
 14017 185a FF       		.byte	0xff
 14018 185b 1A       		.byte	0x1a
 14019 185c 9F       		.byte	0x9f
 14020 185d 10040000 		.4byte	.LVL336
 14021 1861 3C040000 		.4byte	.LVL344
ARM GAS  /tmp/cc2f1tkm.s 			page 247


 14022 1865 1000     		.2byte	0x10
 14023 1867 91       		.byte	0x91
 14024 1868 9C7F     		.sleb128 -100
 14025 186a 06       		.byte	0x6
 14026 186b 23       		.byte	0x23
 14027 186c 0C       		.uleb128 0xc
 14028 186d 94       		.byte	0x94
 14029 186e 01       		.byte	0x1
 14030 186f 33       		.byte	0x33
 14031 1870 1C       		.byte	0x1c
 14032 1871 08       		.byte	0x8
 14033 1872 FF       		.byte	0xff
 14034 1873 1A       		.byte	0x1a
 14035 1874 31       		.byte	0x31
 14036 1875 1C       		.byte	0x1c
 14037 1876 9F       		.byte	0x9f
 14038 1877 00000000 		.4byte	0
 14039 187b 00000000 		.4byte	0
 14040              	.LLST193:
 14041 187f 06040000 		.4byte	.LVL335
 14042 1883 18040000 		.4byte	.LVL338
 14043 1887 0100     		.2byte	0x1
 14044 1889 54       		.byte	0x54
 14045 188a 18040000 		.4byte	.LVL338
 14046 188e 3C040000 		.4byte	.LVL344
 14047 1892 0300     		.2byte	0x3
 14048 1894 74       		.byte	0x74
 14049 1895 7F       		.sleb128 -1
 14050 1896 9F       		.byte	0x9f
 14051 1897 00000000 		.4byte	0
 14052 189b 00000000 		.4byte	0
 14053              	.LLST194:
 14054 189f 06040000 		.4byte	.LVL335
 14055 18a3 1C040000 		.4byte	.LVL339
 14056 18a7 0100     		.2byte	0x1
 14057 18a9 53       		.byte	0x53
 14058 18aa 00000000 		.4byte	0
 14059 18ae 00000000 		.4byte	0
 14060              	.LLST195:
 14061 18b2 14040000 		.4byte	.LVL337
 14062 18b6 18040000 		.4byte	.LVL338
 14063 18ba 0200     		.2byte	0x2
 14064 18bc 74       		.byte	0x74
 14065 18bd 7F       		.sleb128 -1
 14066 18be 18040000 		.4byte	.LVL338
 14067 18c2 3C040000 		.4byte	.LVL344
 14068 18c6 0200     		.2byte	0x2
 14069 18c8 74       		.byte	0x74
 14070 18c9 7E       		.sleb128 -2
 14071 18ca 00000000 		.4byte	0
 14072 18ce 00000000 		.4byte	0
 14073              	.LLST196:
 14074 18d2 14040000 		.4byte	.LVL337
 14075 18d6 22040000 		.4byte	.LVL341
 14076 18da 0100     		.2byte	0x1
 14077 18dc 53       		.byte	0x53
 14078 18dd 22040000 		.4byte	.LVL341
ARM GAS  /tmp/cc2f1tkm.s 			page 248


 14079 18e1 2E040000 		.4byte	.LVL343
 14080 18e5 0100     		.2byte	0x1
 14081 18e7 50       		.byte	0x50
 14082 18e8 2E040000 		.4byte	.LVL343
 14083 18ec 3C040000 		.4byte	.LVL344
 14084 18f0 0100     		.2byte	0x1
 14085 18f2 53       		.byte	0x53
 14086 18f3 00000000 		.4byte	0
 14087 18f7 00000000 		.4byte	0
 14088              	.LLST197:
 14089 18fb 1C040000 		.4byte	.LVL339
 14090 18ff 1E040000 		.4byte	.LVL340
 14091 1903 0200     		.2byte	0x2
 14092 1905 30       		.byte	0x30
 14093 1906 9F       		.byte	0x9f
 14094 1907 1E040000 		.4byte	.LVL340
 14095 190b 28040000 		.4byte	.LVL342
 14096 190f 0500     		.2byte	0x5
 14097 1911 39       		.byte	0x39
 14098 1912 72       		.byte	0x72
 14099 1913 00       		.sleb128 0
 14100 1914 1C       		.byte	0x1c
 14101 1915 9F       		.byte	0x9f
 14102 1916 00000000 		.4byte	0
 14103 191a 00000000 		.4byte	0
 14104              	.LLST198:
 14105 191e 48040000 		.4byte	.LVL345
 14106 1922 56040000 		.4byte	.LVL347
 14107 1926 0100     		.2byte	0x1
 14108 1928 51       		.byte	0x51
 14109 1929 00000000 		.4byte	0
 14110 192d 00000000 		.4byte	0
 14111              	.LLST199:
 14112 1931 48040000 		.4byte	.LVL345
 14113 1935 56040000 		.4byte	.LVL347
 14114 1939 0300     		.2byte	0x3
 14115 193b 75       		.byte	0x75
 14116 193c 0C       		.sleb128 12
 14117 193d 9F       		.byte	0x9f
 14118 193e 00000000 		.4byte	0
 14119 1942 00000000 		.4byte	0
 14120              	.LLST201:
 14121 1946 48040000 		.4byte	.LVL345
 14122 194a 50040000 		.4byte	.LVL346
 14123 194e 0100     		.2byte	0x1
 14124 1950 52       		.byte	0x52
 14125 1951 00000000 		.4byte	0
 14126 1955 00000000 		.4byte	0
 14127              	.LLST202:
 14128 1959 48040000 		.4byte	.LVL345
 14129 195d 56040000 		.4byte	.LVL347
 14130 1961 0100     		.2byte	0x1
 14131 1963 52       		.byte	0x52
 14132 1964 00000000 		.4byte	0
 14133 1968 00000000 		.4byte	0
 14134              	.LLST203:
 14135 196c 1A050000 		.4byte	.LVL367
ARM GAS  /tmp/cc2f1tkm.s 			page 249


 14136 1970 22050000 		.4byte	.LVL369
 14137 1974 0100     		.2byte	0x1
 14138 1976 50       		.byte	0x50
 14139 1977 00000000 		.4byte	0
 14140 197b 00000000 		.4byte	0
 14141              	.LLST204:
 14142 197f 24050000 		.4byte	.LVL370
 14143 1983 2E050000 		.4byte	.LVL371
 14144 1987 0E00     		.2byte	0xe
 14145 1989 91       		.byte	0x91
 14146 198a 9C7F     		.sleb128 -100
 14147 198c 06       		.byte	0x6
 14148 198d 23       		.byte	0x23
 14149 198e 0C       		.uleb128 0xc
 14150 198f 94       		.byte	0x94
 14151 1990 01       		.byte	0x1
 14152 1991 31       		.byte	0x31
 14153 1992 1C       		.byte	0x1c
 14154 1993 08       		.byte	0x8
 14155 1994 FF       		.byte	0xff
 14156 1995 1A       		.byte	0x1a
 14157 1996 9F       		.byte	0x9f
 14158 1997 2E050000 		.4byte	.LVL371
 14159 199b 54050000 		.4byte	.LVL379
 14160 199f 1000     		.2byte	0x10
 14161 19a1 91       		.byte	0x91
 14162 19a2 9C7F     		.sleb128 -100
 14163 19a4 06       		.byte	0x6
 14164 19a5 23       		.byte	0x23
 14165 19a6 0C       		.uleb128 0xc
 14166 19a7 94       		.byte	0x94
 14167 19a8 01       		.byte	0x1
 14168 19a9 31       		.byte	0x31
 14169 19aa 1C       		.byte	0x1c
 14170 19ab 08       		.byte	0x8
 14171 19ac FF       		.byte	0xff
 14172 19ad 1A       		.byte	0x1a
 14173 19ae 31       		.byte	0x31
 14174 19af 1C       		.byte	0x1c
 14175 19b0 9F       		.byte	0x9f
 14176 19b1 00000000 		.4byte	0
 14177 19b5 00000000 		.4byte	0
 14178              	.LLST205:
 14179 19b9 24050000 		.4byte	.LVL370
 14180 19bd 36050000 		.4byte	.LVL373
 14181 19c1 0100     		.2byte	0x1
 14182 19c3 54       		.byte	0x54
 14183 19c4 36050000 		.4byte	.LVL373
 14184 19c8 54050000 		.4byte	.LVL379
 14185 19cc 0300     		.2byte	0x3
 14186 19ce 74       		.byte	0x74
 14187 19cf 7F       		.sleb128 -1
 14188 19d0 9F       		.byte	0x9f
 14189 19d1 00000000 		.4byte	0
 14190 19d5 00000000 		.4byte	0
 14191              	.LLST206:
 14192 19d9 24050000 		.4byte	.LVL370
ARM GAS  /tmp/cc2f1tkm.s 			page 250


 14193 19dd 3A050000 		.4byte	.LVL374
 14194 19e1 0100     		.2byte	0x1
 14195 19e3 53       		.byte	0x53
 14196 19e4 00000000 		.4byte	0
 14197 19e8 00000000 		.4byte	0
 14198              	.LLST207:
 14199 19ec 32050000 		.4byte	.LVL372
 14200 19f0 36050000 		.4byte	.LVL373
 14201 19f4 0200     		.2byte	0x2
 14202 19f6 74       		.byte	0x74
 14203 19f7 7F       		.sleb128 -1
 14204 19f8 36050000 		.4byte	.LVL373
 14205 19fc 54050000 		.4byte	.LVL379
 14206 1a00 0200     		.2byte	0x2
 14207 1a02 74       		.byte	0x74
 14208 1a03 7E       		.sleb128 -2
 14209 1a04 00000000 		.4byte	0
 14210 1a08 00000000 		.4byte	0
 14211              	.LLST208:
 14212 1a0c 32050000 		.4byte	.LVL372
 14213 1a10 40050000 		.4byte	.LVL376
 14214 1a14 0100     		.2byte	0x1
 14215 1a16 53       		.byte	0x53
 14216 1a17 40050000 		.4byte	.LVL376
 14217 1a1b 4C050000 		.4byte	.LVL378
 14218 1a1f 0100     		.2byte	0x1
 14219 1a21 51       		.byte	0x51
 14220 1a22 4C050000 		.4byte	.LVL378
 14221 1a26 54050000 		.4byte	.LVL379
 14222 1a2a 0100     		.2byte	0x1
 14223 1a2c 53       		.byte	0x53
 14224 1a2d 00000000 		.4byte	0
 14225 1a31 00000000 		.4byte	0
 14226              	.LLST209:
 14227 1a35 3A050000 		.4byte	.LVL374
 14228 1a39 3C050000 		.4byte	.LVL375
 14229 1a3d 0200     		.2byte	0x2
 14230 1a3f 30       		.byte	0x30
 14231 1a40 9F       		.byte	0x9f
 14232 1a41 3C050000 		.4byte	.LVL375
 14233 1a45 46050000 		.4byte	.LVL377
 14234 1a49 0500     		.2byte	0x5
 14235 1a4b 39       		.byte	0x39
 14236 1a4c 72       		.byte	0x72
 14237 1a4d 00       		.sleb128 0
 14238 1a4e 1C       		.byte	0x1c
 14239 1a4f 9F       		.byte	0x9f
 14240 1a50 00000000 		.4byte	0
 14241 1a54 00000000 		.4byte	0
 14242              	.LLST210:
 14243 1a58 5C050000 		.4byte	.LVL380
 14244 1a5c 6A050000 		.4byte	.LVL382
 14245 1a60 0100     		.2byte	0x1
 14246 1a62 51       		.byte	0x51
 14247 1a63 00000000 		.4byte	0
 14248 1a67 00000000 		.4byte	0
 14249              	.LLST211:
ARM GAS  /tmp/cc2f1tkm.s 			page 251


 14250 1a6b 5C050000 		.4byte	.LVL380
 14251 1a6f 6A050000 		.4byte	.LVL382
 14252 1a73 0300     		.2byte	0x3
 14253 1a75 75       		.byte	0x75
 14254 1a76 0C       		.sleb128 12
 14255 1a77 9F       		.byte	0x9f
 14256 1a78 00000000 		.4byte	0
 14257 1a7c 00000000 		.4byte	0
 14258              	.LLST213:
 14259 1a80 5C050000 		.4byte	.LVL380
 14260 1a84 64050000 		.4byte	.LVL381
 14261 1a88 0100     		.2byte	0x1
 14262 1a8a 52       		.byte	0x52
 14263 1a8b 00000000 		.4byte	0
 14264 1a8f 00000000 		.4byte	0
 14265              	.LLST214:
 14266 1a93 5C050000 		.4byte	.LVL380
 14267 1a97 6A050000 		.4byte	.LVL382
 14268 1a9b 0100     		.2byte	0x1
 14269 1a9d 52       		.byte	0x52
 14270 1a9e 00000000 		.4byte	0
 14271 1aa2 00000000 		.4byte	0
 14272              	.LLST215:
 14273 1aa6 84050000 		.4byte	.LVL383
 14274 1aaa 88050000 		.4byte	.LVL384
 14275 1aae 0100     		.2byte	0x1
 14276 1ab0 57       		.byte	0x57
 14277 1ab1 00000000 		.4byte	0
 14278 1ab5 00000000 		.4byte	0
 14279              	.LLST170:
 14280 1ab9 8C020000 		.4byte	.LVL298
 14281 1abd 00030000 		.4byte	.LVL305
 14282 1ac1 0100     		.2byte	0x1
 14283 1ac3 5C       		.byte	0x5c
 14284 1ac4 00030000 		.4byte	.LVL305
 14285 1ac8 3C030000 		.4byte	.LVL315
 14286 1acc 0300     		.2byte	0x3
 14287 1ace 91       		.byte	0x91
 14288 1acf B47F     		.sleb128 -76
 14289 1ad1 80030000 		.4byte	.LVL321
 14290 1ad5 BC030000 		.4byte	.LVL328
 14291 1ad9 0300     		.2byte	0x3
 14292 1adb 91       		.byte	0x91
 14293 1adc B47F     		.sleb128 -76
 14294 1ade 56040000 		.4byte	.LVL347
 14295 1ae2 EA040000 		.4byte	.LVL363
 14296 1ae6 0100     		.2byte	0x1
 14297 1ae8 5C       		.byte	0x5c
 14298 1ae9 88050000 		.4byte	.LVL384
 14299 1aed 9A050000 		.4byte	.LFE8
 14300 1af1 0100     		.2byte	0x1
 14301 1af3 5C       		.byte	0x5c
 14302 1af4 00000000 		.4byte	0
 14303 1af8 00000000 		.4byte	0
 14304              	.LLST171:
 14305 1afc 8C020000 		.4byte	.LVL298
 14306 1b00 A0020000 		.4byte	.LVL300
ARM GAS  /tmp/cc2f1tkm.s 			page 252


 14307 1b04 0200     		.2byte	0x2
 14308 1b06 30       		.byte	0x30
 14309 1b07 9F       		.byte	0x9f
 14310 1b08 A0020000 		.4byte	.LVL300
 14311 1b0c BA020000 		.4byte	.LVL301
 14312 1b10 0200     		.2byte	0x2
 14313 1b12 31       		.byte	0x31
 14314 1b13 9F       		.byte	0x9f
 14315 1b14 C2020000 		.4byte	.LVL302
 14316 1b18 D0020000 		.4byte	.LVL304
 14317 1b1c 0100     		.2byte	0x1
 14318 1b1e 52       		.byte	0x52
 14319 1b1f 56040000 		.4byte	.LVL347
 14320 1b23 A0040000 		.4byte	.LVL355
 14321 1b27 0200     		.2byte	0x2
 14322 1b29 30       		.byte	0x30
 14323 1b2a 9F       		.byte	0x9f
 14324 1b2b A0040000 		.4byte	.LVL355
 14325 1b2f A2040000 		.4byte	.LVL356
 14326 1b33 0100     		.2byte	0x1
 14327 1b35 52       		.byte	0x52
 14328 1b36 A8040000 		.4byte	.LVL357
 14329 1b3a BE040000 		.4byte	.LVL358
 14330 1b3e 0300     		.2byte	0x3
 14331 1b40 71       		.byte	0x71
 14332 1b41 7F       		.sleb128 -1
 14333 1b42 9F       		.byte	0x9f
 14334 1b43 BE040000 		.4byte	.LVL358
 14335 1b47 DC040000 		.4byte	.LVL360
 14336 1b4b 0100     		.2byte	0x1
 14337 1b4d 52       		.byte	0x52
 14338 1b4e E2040000 		.4byte	.LVL361
 14339 1b52 E4040000 		.4byte	.LVL362
 14340 1b56 0200     		.2byte	0x2
 14341 1b58 30       		.byte	0x30
 14342 1b59 9F       		.byte	0x9f
 14343 1b5a 88050000 		.4byte	.LVL384
 14344 1b5e 8A050000 		.4byte	.LVL385
 14345 1b62 0100     		.2byte	0x1
 14346 1b64 52       		.byte	0x52
 14347 1b65 8C050000 		.4byte	.LVL386
 14348 1b69 92050000 		.4byte	.LVL387
 14349 1b6d 0200     		.2byte	0x2
 14350 1b6f 30       		.byte	0x30
 14351 1b70 9F       		.byte	0x9f
 14352 1b71 92050000 		.4byte	.LVL387
 14353 1b75 9A050000 		.4byte	.LFE8
 14354 1b79 0200     		.2byte	0x2
 14355 1b7b 31       		.byte	0x31
 14356 1b7c 9F       		.byte	0x9f
 14357 1b7d 00000000 		.4byte	0
 14358 1b81 00000000 		.4byte	0
 14359              	.LLST172:
 14360 1b85 90020000 		.4byte	.LVL299
 14361 1b89 A0020000 		.4byte	.LVL300
 14362 1b8d 0100     		.2byte	0x1
 14363 1b8f 5E       		.byte	0x5e
ARM GAS  /tmp/cc2f1tkm.s 			page 253


 14364 1b90 A0020000 		.4byte	.LVL300
 14365 1b94 BA020000 		.4byte	.LVL301
 14366 1b98 0300     		.2byte	0x3
 14367 1b9a 7E       		.byte	0x7e
 14368 1b9b 01       		.sleb128 1
 14369 1b9c 9F       		.byte	0x9f
 14370 1b9d 92050000 		.4byte	.LVL387
 14371 1ba1 9A050000 		.4byte	.LFE8
 14372 1ba5 0300     		.2byte	0x3
 14373 1ba7 7E       		.byte	0x7e
 14374 1ba8 01       		.sleb128 1
 14375 1ba9 9F       		.byte	0x9f
 14376 1baa 00000000 		.4byte	0
 14377 1bae 00000000 		.4byte	0
 14378              	.LLST185:
 14379 1bb2 56040000 		.4byte	.LVL347
 14380 1bb6 6A040000 		.4byte	.LVL349
 14381 1bba 0200     		.2byte	0x2
 14382 1bbc 77       		.byte	0x77
 14383 1bbd 04       		.sleb128 4
 14384 1bbe 6A040000 		.4byte	.LVL349
 14385 1bc2 74040000 		.4byte	.LVL352
 14386 1bc6 0100     		.2byte	0x1
 14387 1bc8 50       		.byte	0x50
 14388 1bc9 8C050000 		.4byte	.LVL386
 14389 1bcd 92050000 		.4byte	.LVL387
 14390 1bd1 0200     		.2byte	0x2
 14391 1bd3 77       		.byte	0x77
 14392 1bd4 04       		.sleb128 4
 14393 1bd5 00000000 		.4byte	0
 14394 1bd9 00000000 		.4byte	0
 14395              	.LLST186:
 14396 1bdd 5C040000 		.4byte	.LVL348
 14397 1be1 6A040000 		.4byte	.LVL349
 14398 1be5 0200     		.2byte	0x2
 14399 1be7 36       		.byte	0x36
 14400 1be8 9F       		.byte	0x9f
 14401 1be9 6A040000 		.4byte	.LVL349
 14402 1bed 74040000 		.4byte	.LVL352
 14403 1bf1 0100     		.2byte	0x1
 14404 1bf3 51       		.byte	0x51
 14405 1bf4 8C050000 		.4byte	.LVL386
 14406 1bf8 92050000 		.4byte	.LVL387
 14407 1bfc 0200     		.2byte	0x2
 14408 1bfe 36       		.byte	0x36
 14409 1bff 9F       		.byte	0x9f
 14410 1c00 00000000 		.4byte	0
 14411 1c04 00000000 		.4byte	0
 14412              	.LLST187:
 14413 1c08 78040000 		.4byte	.LVL353
 14414 1c0c 9C040000 		.4byte	.LVL354
 14415 1c10 0100     		.2byte	0x1
 14416 1c12 51       		.byte	0x51
 14417 1c13 00000000 		.4byte	0
 14418 1c17 00000000 		.4byte	0
 14419              	.LLST173:
 14420 1c1b 06030000 		.4byte	.LVL306
ARM GAS  /tmp/cc2f1tkm.s 			page 254


 14421 1c1f 16030000 		.4byte	.LVL307
 14422 1c23 0C00     		.2byte	0xc
 14423 1c25 91       		.byte	0x91
 14424 1c26 B47F     		.sleb128 -76
 14425 1c28 06       		.byte	0x6
 14426 1c29 23       		.byte	0x23
 14427 1c2a 01       		.uleb128 0x1
 14428 1c2b 08       		.byte	0x8
 14429 1c2c FF       		.byte	0xff
 14430 1c2d 1A       		.byte	0x1a
 14431 1c2e 31       		.byte	0x31
 14432 1c2f 1C       		.byte	0x1c
 14433 1c30 9F       		.byte	0x9f
 14434 1c31 16030000 		.4byte	.LVL307
 14435 1c35 3C030000 		.4byte	.LVL315
 14436 1c39 0C00     		.2byte	0xc
 14437 1c3b 91       		.byte	0x91
 14438 1c3c B47F     		.sleb128 -76
 14439 1c3e 06       		.byte	0x6
 14440 1c3f 23       		.byte	0x23
 14441 1c40 01       		.uleb128 0x1
 14442 1c41 08       		.byte	0x8
 14443 1c42 FF       		.byte	0xff
 14444 1c43 1A       		.byte	0x1a
 14445 1c44 32       		.byte	0x32
 14446 1c45 1C       		.byte	0x1c
 14447 1c46 9F       		.byte	0x9f
 14448 1c47 00000000 		.4byte	0
 14449 1c4b 00000000 		.4byte	0
 14450              	.LLST174:
 14451 1c4f 06030000 		.4byte	.LVL306
 14452 1c53 1E030000 		.4byte	.LVL309
 14453 1c57 0100     		.2byte	0x1
 14454 1c59 53       		.byte	0x53
 14455 1c5a 1E030000 		.4byte	.LVL309
 14456 1c5e 3C030000 		.4byte	.LVL315
 14457 1c62 0300     		.2byte	0x3
 14458 1c64 73       		.byte	0x73
 14459 1c65 7F       		.sleb128 -1
 14460 1c66 9F       		.byte	0x9f
 14461 1c67 00000000 		.4byte	0
 14462 1c6b 00000000 		.4byte	0
 14463              	.LLST175:
 14464 1c6f 06030000 		.4byte	.LVL306
 14465 1c73 22030000 		.4byte	.LVL310
 14466 1c77 0100     		.2byte	0x1
 14467 1c79 52       		.byte	0x52
 14468 1c7a 00000000 		.4byte	0
 14469 1c7e 00000000 		.4byte	0
 14470              	.LLST176:
 14471 1c82 1A030000 		.4byte	.LVL308
 14472 1c86 1E030000 		.4byte	.LVL309
 14473 1c8a 0200     		.2byte	0x2
 14474 1c8c 73       		.byte	0x73
 14475 1c8d 7F       		.sleb128 -1
 14476 1c8e 1E030000 		.4byte	.LVL309
 14477 1c92 3C030000 		.4byte	.LVL315
ARM GAS  /tmp/cc2f1tkm.s 			page 255


 14478 1c96 0200     		.2byte	0x2
 14479 1c98 73       		.byte	0x73
 14480 1c99 7E       		.sleb128 -2
 14481 1c9a 00000000 		.4byte	0
 14482 1c9e 00000000 		.4byte	0
 14483              	.LLST177:
 14484 1ca2 1A030000 		.4byte	.LVL308
 14485 1ca6 28030000 		.4byte	.LVL312
 14486 1caa 0100     		.2byte	0x1
 14487 1cac 52       		.byte	0x52
 14488 1cad 28030000 		.4byte	.LVL312
 14489 1cb1 34030000 		.4byte	.LVL314
 14490 1cb5 0100     		.2byte	0x1
 14491 1cb7 50       		.byte	0x50
 14492 1cb8 34030000 		.4byte	.LVL314
 14493 1cbc 3C030000 		.4byte	.LVL315
 14494 1cc0 0100     		.2byte	0x1
 14495 1cc2 52       		.byte	0x52
 14496 1cc3 00000000 		.4byte	0
 14497 1cc7 00000000 		.4byte	0
 14498              	.LLST178:
 14499 1ccb 22030000 		.4byte	.LVL310
 14500 1ccf 24030000 		.4byte	.LVL311
 14501 1cd3 0200     		.2byte	0x2
 14502 1cd5 30       		.byte	0x30
 14503 1cd6 9F       		.byte	0x9f
 14504 1cd7 24030000 		.4byte	.LVL311
 14505 1cdb 2E030000 		.4byte	.LVL313
 14506 1cdf 0500     		.2byte	0x5
 14507 1ce1 39       		.byte	0x39
 14508 1ce2 71       		.byte	0x71
 14509 1ce3 00       		.sleb128 0
 14510 1ce4 1C       		.byte	0x1c
 14511 1ce5 9F       		.byte	0x9f
 14512 1ce6 00000000 		.4byte	0
 14513 1cea 00000000 		.4byte	0
 14514              	.LLST179:
 14515 1cee 9A030000 		.4byte	.LVL323
 14516 1cf2 9C030000 		.4byte	.LVL324
 14517 1cf6 0100     		.2byte	0x1
 14518 1cf8 51       		.byte	0x51
 14519 1cf9 9E030000 		.4byte	.LVL325
 14520 1cfd AE030000 		.4byte	.LVL327
 14521 1d01 0100     		.2byte	0x1
 14522 1d03 51       		.byte	0x51
 14523 1d04 00000000 		.4byte	0
 14524 1d08 00000000 		.4byte	0
 14525              	.LLST180:
 14526 1d0c 9A030000 		.4byte	.LVL323
 14527 1d10 9C030000 		.4byte	.LVL324
 14528 1d14 0300     		.2byte	0x3
 14529 1d16 75       		.byte	0x75
 14530 1d17 0C       		.sleb128 12
 14531 1d18 9F       		.byte	0x9f
 14532 1d19 9E030000 		.4byte	.LVL325
 14533 1d1d AE030000 		.4byte	.LVL327
 14534 1d21 0300     		.2byte	0x3
ARM GAS  /tmp/cc2f1tkm.s 			page 256


 14535 1d23 75       		.byte	0x75
 14536 1d24 0C       		.sleb128 12
 14537 1d25 9F       		.byte	0x9f
 14538 1d26 00000000 		.4byte	0
 14539 1d2a 00000000 		.4byte	0
 14540              	.LLST182:
 14541 1d2e 9E030000 		.4byte	.LVL325
 14542 1d32 A4030000 		.4byte	.LVL326
 14543 1d36 0100     		.2byte	0x1
 14544 1d38 53       		.byte	0x53
 14545 1d39 00000000 		.4byte	0
 14546 1d3d 00000000 		.4byte	0
 14547              	.LLST183:
 14548 1d41 9A030000 		.4byte	.LVL323
 14549 1d45 9C030000 		.4byte	.LVL324
 14550 1d49 0100     		.2byte	0x1
 14551 1d4b 50       		.byte	0x50
 14552 1d4c 9E030000 		.4byte	.LVL325
 14553 1d50 AE030000 		.4byte	.LVL327
 14554 1d54 0100     		.2byte	0x1
 14555 1d56 53       		.byte	0x53
 14556 1d57 00000000 		.4byte	0
 14557 1d5b 00000000 		.4byte	0
 14558              	.LLST184:
 14559 1d5f AE030000 		.4byte	.LVL327
 14560 1d63 CE030000 		.4byte	.LVL329
 14561 1d67 0100     		.2byte	0x1
 14562 1d69 57       		.byte	0x57
 14563 1d6a 00000000 		.4byte	0
 14564 1d6e 00000000 		.4byte	0
 14565              	.LLST141:
 14566 1d72 06000000 		.4byte	.LVL237
 14567 1d76 1E000000 		.4byte	.LVL240
 14568 1d7a 0100     		.2byte	0x1
 14569 1d7c 54       		.byte	0x54
 14570 1d7d 24000000 		.4byte	.LVL241
 14571 1d81 86010000 		.4byte	.LVL279
 14572 1d85 0100     		.2byte	0x1
 14573 1d87 54       		.byte	0x54
 14574 1d88 20020000 		.4byte	.LVL290
 14575 1d8c 44020000 		.4byte	.LVL296
 14576 1d90 0100     		.2byte	0x1
 14577 1d92 54       		.byte	0x54
 14578 1d93 3C030000 		.4byte	.LVL315
 14579 1d97 5C030000 		.4byte	.LVL318
 14580 1d9b 0100     		.2byte	0x1
 14581 1d9d 54       		.byte	0x54
 14582 1d9e 6C030000 		.4byte	.LVL319
 14583 1da2 80030000 		.4byte	.LVL321
 14584 1da6 0100     		.2byte	0x1
 14585 1da8 54       		.byte	0x54
 14586 1da9 EA040000 		.4byte	.LVL363
 14587 1dad F4040000 		.4byte	.LVL365
 14588 1db1 0100     		.2byte	0x1
 14589 1db3 54       		.byte	0x54
 14590 1db4 00000000 		.4byte	0
 14591 1db8 00000000 		.4byte	0
ARM GAS  /tmp/cc2f1tkm.s 			page 257


 14592              	.LLST142:
 14593 1dbc 0A000000 		.4byte	.LVL238
 14594 1dc0 1E000000 		.4byte	.LVL240
 14595 1dc4 0500     		.2byte	0x5
 14596 1dc6 75       		.byte	0x75
 14597 1dc7 00       		.sleb128 0
 14598 1dc8 30       		.byte	0x30
 14599 1dc9 2E       		.byte	0x2e
 14600 1dca 9F       		.byte	0x9f
 14601 1dcb 24000000 		.4byte	.LVL241
 14602 1dcf 62000000 		.4byte	.LVL246
 14603 1dd3 0500     		.2byte	0x5
 14604 1dd5 75       		.byte	0x75
 14605 1dd6 00       		.sleb128 0
 14606 1dd7 30       		.byte	0x30
 14607 1dd8 2E       		.byte	0x2e
 14608 1dd9 9F       		.byte	0x9f
 14609 1dda 62000000 		.4byte	.LVL246
 14610 1dde 86010000 		.4byte	.LVL279
 14611 1de2 0800     		.2byte	0x8
 14612 1de4 74       		.byte	0x74
 14613 1de5 00       		.sleb128 0
 14614 1de6 09       		.byte	0x9
 14615 1de7 FC       		.byte	0xfc
 14616 1de8 24       		.byte	0x24
 14617 1de9 33       		.byte	0x33
 14618 1dea 25       		.byte	0x25
 14619 1deb 9F       		.byte	0x9f
 14620 1dec 20020000 		.4byte	.LVL290
 14621 1df0 30020000 		.4byte	.LVL293
 14622 1df4 0500     		.2byte	0x5
 14623 1df6 75       		.byte	0x75
 14624 1df7 00       		.sleb128 0
 14625 1df8 30       		.byte	0x30
 14626 1df9 2E       		.byte	0x2e
 14627 1dfa 9F       		.byte	0x9f
 14628 1dfb 30020000 		.4byte	.LVL293
 14629 1dff 44020000 		.4byte	.LVL296
 14630 1e03 0800     		.2byte	0x8
 14631 1e05 74       		.byte	0x74
 14632 1e06 00       		.sleb128 0
 14633 1e07 09       		.byte	0x9
 14634 1e08 FC       		.byte	0xfc
 14635 1e09 24       		.byte	0x24
 14636 1e0a 33       		.byte	0x33
 14637 1e0b 25       		.byte	0x25
 14638 1e0c 9F       		.byte	0x9f
 14639 1e0d 3C030000 		.4byte	.LVL315
 14640 1e11 5C030000 		.4byte	.LVL318
 14641 1e15 0800     		.2byte	0x8
 14642 1e17 74       		.byte	0x74
 14643 1e18 00       		.sleb128 0
 14644 1e19 09       		.byte	0x9
 14645 1e1a FC       		.byte	0xfc
 14646 1e1b 24       		.byte	0x24
 14647 1e1c 33       		.byte	0x33
 14648 1e1d 25       		.byte	0x25
ARM GAS  /tmp/cc2f1tkm.s 			page 258


 14649 1e1e 9F       		.byte	0x9f
 14650 1e1f 6C030000 		.4byte	.LVL319
 14651 1e23 80030000 		.4byte	.LVL321
 14652 1e27 0800     		.2byte	0x8
 14653 1e29 74       		.byte	0x74
 14654 1e2a 00       		.sleb128 0
 14655 1e2b 09       		.byte	0x9
 14656 1e2c FC       		.byte	0xfc
 14657 1e2d 24       		.byte	0x24
 14658 1e2e 33       		.byte	0x33
 14659 1e2f 25       		.byte	0x25
 14660 1e30 9F       		.byte	0x9f
 14661 1e31 EA040000 		.4byte	.LVL363
 14662 1e35 F4040000 		.4byte	.LVL365
 14663 1e39 0800     		.2byte	0x8
 14664 1e3b 74       		.byte	0x74
 14665 1e3c 00       		.sleb128 0
 14666 1e3d 09       		.byte	0x9
 14667 1e3e FC       		.byte	0xfc
 14668 1e3f 24       		.byte	0x24
 14669 1e40 33       		.byte	0x33
 14670 1e41 25       		.byte	0x25
 14671 1e42 9F       		.byte	0x9f
 14672 1e43 00000000 		.4byte	0
 14673 1e47 00000000 		.4byte	0
 14674              	.LLST143:
 14675 1e4b 50000000 		.4byte	.LVL244
 14676 1e4f 5A000000 		.4byte	.LVL245
 14677 1e53 0100     		.2byte	0x1
 14678 1e55 54       		.byte	0x54
 14679 1e56 20020000 		.4byte	.LVL290
 14680 1e5a 30020000 		.4byte	.LVL293
 14681 1e5e 0100     		.2byte	0x1
 14682 1e60 54       		.byte	0x54
 14683 1e61 00000000 		.4byte	0
 14684 1e65 00000000 		.4byte	0
 14685              	.LLST144:
 14686 1e69 50000000 		.4byte	.LVL244
 14687 1e6d 5A000000 		.4byte	.LVL245
 14688 1e71 0100     		.2byte	0x1
 14689 1e73 54       		.byte	0x54
 14690 1e74 00000000 		.4byte	0
 14691 1e78 00000000 		.4byte	0
 14692              	.LLST145:
 14693 1e7c 50000000 		.4byte	.LVL244
 14694 1e80 62000000 		.4byte	.LVL246
 14695 1e84 0500     		.2byte	0x5
 14696 1e86 75       		.byte	0x75
 14697 1e87 00       		.sleb128 0
 14698 1e88 30       		.byte	0x30
 14699 1e89 2E       		.byte	0x2e
 14700 1e8a 9F       		.byte	0x9f
 14701 1e8b 62000000 		.4byte	.LVL246
 14702 1e8f 86010000 		.4byte	.LVL279
 14703 1e93 0800     		.2byte	0x8
 14704 1e95 74       		.byte	0x74
 14705 1e96 00       		.sleb128 0
ARM GAS  /tmp/cc2f1tkm.s 			page 259


 14706 1e97 09       		.byte	0x9
 14707 1e98 FC       		.byte	0xfc
 14708 1e99 24       		.byte	0x24
 14709 1e9a 33       		.byte	0x33
 14710 1e9b 25       		.byte	0x25
 14711 1e9c 9F       		.byte	0x9f
 14712 1e9d 20020000 		.4byte	.LVL290
 14713 1ea1 30020000 		.4byte	.LVL293
 14714 1ea5 0500     		.2byte	0x5
 14715 1ea7 75       		.byte	0x75
 14716 1ea8 00       		.sleb128 0
 14717 1ea9 30       		.byte	0x30
 14718 1eaa 2E       		.byte	0x2e
 14719 1eab 9F       		.byte	0x9f
 14720 1eac 30020000 		.4byte	.LVL293
 14721 1eb0 44020000 		.4byte	.LVL296
 14722 1eb4 0800     		.2byte	0x8
 14723 1eb6 74       		.byte	0x74
 14724 1eb7 00       		.sleb128 0
 14725 1eb8 09       		.byte	0x9
 14726 1eb9 FC       		.byte	0xfc
 14727 1eba 24       		.byte	0x24
 14728 1ebb 33       		.byte	0x33
 14729 1ebc 25       		.byte	0x25
 14730 1ebd 9F       		.byte	0x9f
 14731 1ebe 3C030000 		.4byte	.LVL315
 14732 1ec2 5C030000 		.4byte	.LVL318
 14733 1ec6 0800     		.2byte	0x8
 14734 1ec8 74       		.byte	0x74
 14735 1ec9 00       		.sleb128 0
 14736 1eca 09       		.byte	0x9
 14737 1ecb FC       		.byte	0xfc
 14738 1ecc 24       		.byte	0x24
 14739 1ecd 33       		.byte	0x33
 14740 1ece 25       		.byte	0x25
 14741 1ecf 9F       		.byte	0x9f
 14742 1ed0 6C030000 		.4byte	.LVL319
 14743 1ed4 80030000 		.4byte	.LVL321
 14744 1ed8 0800     		.2byte	0x8
 14745 1eda 74       		.byte	0x74
 14746 1edb 00       		.sleb128 0
 14747 1edc 09       		.byte	0x9
 14748 1edd FC       		.byte	0xfc
 14749 1ede 24       		.byte	0x24
 14750 1edf 33       		.byte	0x33
 14751 1ee0 25       		.byte	0x25
 14752 1ee1 9F       		.byte	0x9f
 14753 1ee2 EA040000 		.4byte	.LVL363
 14754 1ee6 F4040000 		.4byte	.LVL365
 14755 1eea 0800     		.2byte	0x8
 14756 1eec 74       		.byte	0x74
 14757 1eed 00       		.sleb128 0
 14758 1eee 09       		.byte	0x9
 14759 1eef FC       		.byte	0xfc
 14760 1ef0 24       		.byte	0x24
 14761 1ef1 33       		.byte	0x33
 14762 1ef2 25       		.byte	0x25
ARM GAS  /tmp/cc2f1tkm.s 			page 260


 14763 1ef3 9F       		.byte	0x9f
 14764 1ef4 00000000 		.4byte	0
 14765 1ef8 00000000 		.4byte	0
 14766              	.LLST146:
 14767 1efc 26020000 		.4byte	.LVL291
 14768 1f00 30020000 		.4byte	.LVL293
 14769 1f04 0100     		.2byte	0x1
 14770 1f06 59       		.byte	0x59
 14771 1f07 00000000 		.4byte	0
 14772 1f0b 00000000 		.4byte	0
 14773              	.LLST159:
 14774 1f0f 32010000 		.4byte	.LVL272
 14775 1f13 46010000 		.4byte	.LVL274
 14776 1f17 0100     		.2byte	0x1
 14777 1f19 5A       		.byte	0x5a
 14778 1f1a 00000000 		.4byte	0
 14779 1f1e 00000000 		.4byte	0
 14780              	.LLST160:
 14781 1f22 32010000 		.4byte	.LVL272
 14782 1f26 46010000 		.4byte	.LVL274
 14783 1f2a 0B00     		.2byte	0xb
 14784 1f2c 77       		.byte	0x77
 14785 1f2d 17       		.sleb128 23
 14786 1f2e 94       		.byte	0x94
 14787 1f2f 01       		.byte	0x1
 14788 1f30 09       		.byte	0x9
 14789 1f31 FD       		.byte	0xfd
 14790 1f32 24       		.byte	0x24
 14791 1f33 09       		.byte	0x9
 14792 1f34 FF       		.byte	0xff
 14793 1f35 26       		.byte	0x26
 14794 1f36 9F       		.byte	0x9f
 14795 1f37 00000000 		.4byte	0
 14796 1f3b 00000000 		.4byte	0
 14797              	.LLST161:
 14798 1f3f 32010000 		.4byte	.LVL272
 14799 1f43 46010000 		.4byte	.LVL274
 14800 1f47 0100     		.2byte	0x1
 14801 1f49 5E       		.byte	0x5e
 14802 1f4a 00000000 		.4byte	0
 14803 1f4e 00000000 		.4byte	0
 14804              	.LLST162:
 14805 1f52 7C010000 		.4byte	.LVL278
 14806 1f56 AC010000 		.4byte	.LVL285
 14807 1f5a 0100     		.2byte	0x1
 14808 1f5c 57       		.byte	0x57
 14809 1f5d 3E020000 		.4byte	.LVL295
 14810 1f61 44020000 		.4byte	.LVL296
 14811 1f65 0100     		.2byte	0x1
 14812 1f67 57       		.byte	0x57
 14813 1f68 EA040000 		.4byte	.LVL363
 14814 1f6c F2040000 		.4byte	.LVL364
 14815 1f70 0100     		.2byte	0x1
 14816 1f72 57       		.byte	0x57
 14817 1f73 00000000 		.4byte	0
 14818 1f77 00000000 		.4byte	0
 14819              	.LLST163:
ARM GAS  /tmp/cc2f1tkm.s 			page 261


 14820 1f7b 7C010000 		.4byte	.LVL278
 14821 1f7f AC010000 		.4byte	.LVL285
 14822 1f83 0100     		.2byte	0x1
 14823 1f85 55       		.byte	0x55
 14824 1f86 3E020000 		.4byte	.LVL295
 14825 1f8a 44020000 		.4byte	.LVL296
 14826 1f8e 0100     		.2byte	0x1
 14827 1f90 55       		.byte	0x55
 14828 1f91 EA040000 		.4byte	.LVL363
 14829 1f95 F2040000 		.4byte	.LVL364
 14830 1f99 0100     		.2byte	0x1
 14831 1f9b 55       		.byte	0x55
 14832 1f9c 00000000 		.4byte	0
 14833 1fa0 00000000 		.4byte	0
 14834              	.LLST164:
 14835 1fa4 8C010000 		.4byte	.LVL280
 14836 1fa8 90010000 		.4byte	.LVL281
 14837 1fac 0100     		.2byte	0x1
 14838 1fae 50       		.byte	0x50
 14839 1faf 92010000 		.4byte	.LVL282
 14840 1fb3 A4010000 		.4byte	.LVL284
 14841 1fb7 0100     		.2byte	0x1
 14842 1fb9 50       		.byte	0x50
 14843 1fba 00000000 		.4byte	0
 14844 1fbe 00000000 		.4byte	0
 14845              	.LLST165:
 14846 1fc2 8C010000 		.4byte	.LVL280
 14847 1fc6 90010000 		.4byte	.LVL281
 14848 1fca 0300     		.2byte	0x3
 14849 1fcc 75       		.byte	0x75
 14850 1fcd 0C       		.sleb128 12
 14851 1fce 9F       		.byte	0x9f
 14852 1fcf 92010000 		.4byte	.LVL282
 14853 1fd3 A4010000 		.4byte	.LVL284
 14854 1fd7 0300     		.2byte	0x3
 14855 1fd9 75       		.byte	0x75
 14856 1fda 0C       		.sleb128 12
 14857 1fdb 9F       		.byte	0x9f
 14858 1fdc 00000000 		.4byte	0
 14859 1fe0 00000000 		.4byte	0
 14860              	.LLST167:
 14861 1fe4 92010000 		.4byte	.LVL282
 14862 1fe8 98010000 		.4byte	.LVL283
 14863 1fec 0100     		.2byte	0x1
 14864 1fee 52       		.byte	0x52
 14865 1fef 00000000 		.4byte	0
 14866 1ff3 00000000 		.4byte	0
 14867              	.LLST168:
 14868 1ff7 8C010000 		.4byte	.LVL280
 14869 1ffb 90010000 		.4byte	.LVL281
 14870 1fff 0100     		.2byte	0x1
 14871 2001 52       		.byte	0x52
 14872 2002 92010000 		.4byte	.LVL282
 14873 2006 A4010000 		.4byte	.LVL284
 14874 200a 0100     		.2byte	0x1
 14875 200c 52       		.byte	0x52
 14876 200d 00000000 		.4byte	0
ARM GAS  /tmp/cc2f1tkm.s 			page 262


 14877 2011 00000000 		.4byte	0
 14878              	.LLST189:
 14879 2015 3E030000 		.4byte	.LVL316
 14880 2019 5C030000 		.4byte	.LVL318
 14881 201d 0100     		.2byte	0x1
 14882 201f 5A       		.byte	0x5a
 14883 2020 00000000 		.4byte	0
 14884 2024 00000000 		.4byte	0
 14885              	.LLST190:
 14886 2028 3E030000 		.4byte	.LVL316
 14887 202c 5C030000 		.4byte	.LVL318
 14888 2030 0100     		.2byte	0x1
 14889 2032 57       		.byte	0x57
 14890 2033 00000000 		.4byte	0
 14891 2037 00000000 		.4byte	0
 14892              	.LLST126:
 14893 203b 0E000000 		.4byte	.LVL234
 14894 203f 18000000 		.4byte	.LVL235
 14895 2043 0100     		.2byte	0x1
 14896 2045 52       		.byte	0x52
 14897 2046 00000000 		.4byte	0
 14898 204a 00000000 		.4byte	0
 14899              	.LLST125:
 14900 204e 00000000 		.4byte	.LVL230
 14901 2052 02000000 		.4byte	.LVL231
 14902 2056 0100     		.2byte	0x1
 14903 2058 50       		.byte	0x50
 14904 2059 02000000 		.4byte	.LVL231
 14905 205d 08000000 		.4byte	.LFE6
 14906 2061 0400     		.2byte	0x4
 14907 2063 F3       		.byte	0xf3
 14908 2064 01       		.uleb128 0x1
 14909 2065 50       		.byte	0x50
 14910 2066 9F       		.byte	0x9f
 14911 2067 00000000 		.4byte	0
 14912 206b 00000000 		.4byte	0
 14913              	.LLST101:
 14914 206f 00000000 		.4byte	.LVL200
 14915 2073 53000000 		.4byte	.LVL206-1
 14916 2077 0100     		.2byte	0x1
 14917 2079 50       		.byte	0x50
 14918 207a 53000000 		.4byte	.LVL206-1
 14919 207e 70000000 		.4byte	.LVL209
 14920 2082 0400     		.2byte	0x4
 14921 2084 F3       		.byte	0xf3
 14922 2085 01       		.uleb128 0x1
 14923 2086 50       		.byte	0x50
 14924 2087 9F       		.byte	0x9f
 14925 2088 70000000 		.4byte	.LVL209
 14926 208c FA000000 		.4byte	.LVL227
 14927 2090 0100     		.2byte	0x1
 14928 2092 50       		.byte	0x50
 14929 2093 FA000000 		.4byte	.LVL227
 14930 2097 FC000000 		.4byte	.LVL228
 14931 209b 0400     		.2byte	0x4
 14932 209d F3       		.byte	0xf3
 14933 209e 01       		.uleb128 0x1
ARM GAS  /tmp/cc2f1tkm.s 			page 263


 14934 209f 50       		.byte	0x50
 14935 20a0 9F       		.byte	0x9f
 14936 20a1 FC000000 		.4byte	.LVL228
 14937 20a5 00010000 		.4byte	.LVL229
 14938 20a9 0100     		.2byte	0x1
 14939 20ab 50       		.byte	0x50
 14940 20ac 00010000 		.4byte	.LVL229
 14941 20b0 02010000 		.4byte	.LFE5
 14942 20b4 0400     		.2byte	0x4
 14943 20b6 F3       		.byte	0xf3
 14944 20b7 01       		.uleb128 0x1
 14945 20b8 50       		.byte	0x50
 14946 20b9 9F       		.byte	0x9f
 14947 20ba 00000000 		.4byte	0
 14948 20be 00000000 		.4byte	0
 14949              	.LLST102:
 14950 20c2 00000000 		.4byte	.LVL200
 14951 20c6 2C000000 		.4byte	.LVL203
 14952 20ca 0100     		.2byte	0x1
 14953 20cc 51       		.byte	0x51
 14954 20cd 2C000000 		.4byte	.LVL203
 14955 20d1 F0000000 		.4byte	.LVL226
 14956 20d5 0400     		.2byte	0x4
 14957 20d7 F3       		.byte	0xf3
 14958 20d8 01       		.uleb128 0x1
 14959 20d9 51       		.byte	0x51
 14960 20da 9F       		.byte	0x9f
 14961 20db F0000000 		.4byte	.LVL226
 14962 20df 02010000 		.4byte	.LFE5
 14963 20e3 0100     		.2byte	0x1
 14964 20e5 51       		.byte	0x51
 14965 20e6 00000000 		.4byte	0
 14966 20ea 00000000 		.4byte	0
 14967              	.LLST103:
 14968 20ee 00000000 		.4byte	.LVL200
 14969 20f2 48000000 		.4byte	.LVL205
 14970 20f6 0600     		.2byte	0x6
 14971 20f8 52       		.byte	0x52
 14972 20f9 93       		.byte	0x93
 14973 20fa 04       		.uleb128 0x4
 14974 20fb 53       		.byte	0x53
 14975 20fc 93       		.byte	0x93
 14976 20fd 04       		.uleb128 0x4
 14977 20fe 48000000 		.4byte	.LVL205
 14978 2102 70000000 		.4byte	.LVL209
 14979 2106 0600     		.2byte	0x6
 14980 2108 F3       		.byte	0xf3
 14981 2109 03       		.uleb128 0x3
 14982 210a F5       		.byte	0xf5
 14983 210b 02       		.uleb128 0x2
 14984 210c 2C       		.uleb128 0x2c
 14985 210d 9F       		.byte	0x9f
 14986 210e 70000000 		.4byte	.LVL209
 14987 2112 CA000000 		.4byte	.LVL219
 14988 2116 0600     		.2byte	0x6
 14989 2118 52       		.byte	0x52
 14990 2119 93       		.byte	0x93
ARM GAS  /tmp/cc2f1tkm.s 			page 264


 14991 211a 04       		.uleb128 0x4
 14992 211b 53       		.byte	0x53
 14993 211c 93       		.byte	0x93
 14994 211d 04       		.uleb128 0x4
 14995 211e CA000000 		.4byte	.LVL219
 14996 2122 F0000000 		.4byte	.LVL226
 14997 2126 0600     		.2byte	0x6
 14998 2128 F3       		.byte	0xf3
 14999 2129 03       		.uleb128 0x3
 15000 212a F5       		.byte	0xf5
 15001 212b 02       		.uleb128 0x2
 15002 212c 2C       		.uleb128 0x2c
 15003 212d 9F       		.byte	0x9f
 15004 212e F0000000 		.4byte	.LVL226
 15005 2132 02010000 		.4byte	.LFE5
 15006 2136 0600     		.2byte	0x6
 15007 2138 52       		.byte	0x52
 15008 2139 93       		.byte	0x93
 15009 213a 04       		.uleb128 0x4
 15010 213b 53       		.byte	0x53
 15011 213c 93       		.byte	0x93
 15012 213d 04       		.uleb128 0x4
 15013 213e 00000000 		.4byte	0
 15014 2142 00000000 		.4byte	0
 15015              	.LLST104:
 15016 2146 00000000 		.4byte	.LVL200
 15017 214a 70000000 		.4byte	.LVL209
 15018 214e 0200     		.2byte	0x2
 15019 2150 91       		.byte	0x91
 15020 2151 00       		.sleb128 0
 15021 2152 70000000 		.4byte	.LVL209
 15022 2156 02010000 		.4byte	.LFE5
 15023 215a 0200     		.2byte	0x2
 15024 215c 91       		.byte	0x91
 15025 215d 00       		.sleb128 0
 15026 215e 00000000 		.4byte	0
 15027 2162 00000000 		.4byte	0
 15028              	.LLST105:
 15029 2166 00000000 		.4byte	.LVL200
 15030 216a 70000000 		.4byte	.LVL209
 15031 216e 0200     		.2byte	0x2
 15032 2170 91       		.byte	0x91
 15033 2171 04       		.sleb128 4
 15034 2172 70000000 		.4byte	.LVL209
 15035 2176 02010000 		.4byte	.LFE5
 15036 217a 0200     		.2byte	0x2
 15037 217c 91       		.byte	0x91
 15038 217d 04       		.sleb128 4
 15039 217e 00000000 		.4byte	0
 15040 2182 00000000 		.4byte	0
 15041              	.LLST106:
 15042 2186 00000000 		.4byte	.LVL200
 15043 218a 70000000 		.4byte	.LVL209
 15044 218e 0200     		.2byte	0x2
 15045 2190 91       		.byte	0x91
 15046 2191 08       		.sleb128 8
 15047 2192 70000000 		.4byte	.LVL209
ARM GAS  /tmp/cc2f1tkm.s 			page 265


 15048 2196 02010000 		.4byte	.LFE5
 15049 219a 0200     		.2byte	0x2
 15050 219c 91       		.byte	0x91
 15051 219d 08       		.sleb128 8
 15052 219e 00000000 		.4byte	0
 15053 21a2 00000000 		.4byte	0
 15054              	.LLST107:
 15055 21a6 00000000 		.4byte	.LVL200
 15056 21aa 70000000 		.4byte	.LVL209
 15057 21ae 0200     		.2byte	0x2
 15058 21b0 91       		.byte	0x91
 15059 21b1 0C       		.sleb128 12
 15060 21b2 70000000 		.4byte	.LVL209
 15061 21b6 02010000 		.4byte	.LFE5
 15062 21ba 0200     		.2byte	0x2
 15063 21bc 91       		.byte	0x91
 15064 21bd 0C       		.sleb128 12
 15065 21be 00000000 		.4byte	0
 15066 21c2 00000000 		.4byte	0
 15067              	.LLST108:
 15068 21c6 00000000 		.4byte	.LVL200
 15069 21ca 70000000 		.4byte	.LVL209
 15070 21ce 0200     		.2byte	0x2
 15071 21d0 91       		.byte	0x91
 15072 21d1 10       		.sleb128 16
 15073 21d2 70000000 		.4byte	.LVL209
 15074 21d6 02010000 		.4byte	.LFE5
 15075 21da 0200     		.2byte	0x2
 15076 21dc 91       		.byte	0x91
 15077 21dd 10       		.sleb128 16
 15078 21de 00000000 		.4byte	0
 15079 21e2 00000000 		.4byte	0
 15080              	.LLST109:
 15081 21e6 00000000 		.4byte	.LVL200
 15082 21ea 70000000 		.4byte	.LVL209
 15083 21ee 0200     		.2byte	0x2
 15084 21f0 91       		.byte	0x91
 15085 21f1 14       		.sleb128 20
 15086 21f2 70000000 		.4byte	.LVL209
 15087 21f6 02010000 		.4byte	.LFE5
 15088 21fa 0200     		.2byte	0x2
 15089 21fc 91       		.byte	0x91
 15090 21fd 14       		.sleb128 20
 15091 21fe 00000000 		.4byte	0
 15092 2202 00000000 		.4byte	0
 15093              	.LLST110:
 15094 2206 42000000 		.4byte	.LVL204
 15095 220a 53000000 		.4byte	.LVL206-1
 15096 220e 0100     		.2byte	0x1
 15097 2210 51       		.byte	0x51
 15098 2211 70000000 		.4byte	.LVL209
 15099 2215 F0000000 		.4byte	.LVL226
 15100 2219 0100     		.2byte	0x1
 15101 221b 51       		.byte	0x51
 15102 221c 00000000 		.4byte	0
 15103 2220 00000000 		.4byte	0
 15104              	.LLST111:
ARM GAS  /tmp/cc2f1tkm.s 			page 266


 15105 2224 42000000 		.4byte	.LVL204
 15106 2228 48000000 		.4byte	.LVL205
 15107 222c 0300     		.2byte	0x3
 15108 222e 09       		.byte	0x9
 15109 222f FF       		.byte	0xff
 15110 2230 9F       		.byte	0x9f
 15111 2231 48000000 		.4byte	.LVL205
 15112 2235 6A000000 		.4byte	.LVL208
 15113 2239 0100     		.2byte	0x1
 15114 223b 54       		.byte	0x54
 15115 223c 70000000 		.4byte	.LVL209
 15116 2240 C0000000 		.4byte	.LVL218
 15117 2244 0300     		.2byte	0x3
 15118 2246 09       		.byte	0x9
 15119 2247 FF       		.byte	0xff
 15120 2248 9F       		.byte	0x9f
 15121 2249 00000000 		.4byte	0
 15122 224d 00000000 		.4byte	0
 15123              	.LLST112:
 15124 2251 54000000 		.4byte	.LVL206
 15125 2255 6A000000 		.4byte	.LVL208
 15126 2259 0100     		.2byte	0x1
 15127 225b 50       		.byte	0x50
 15128 225c 00000000 		.4byte	0
 15129 2260 00000000 		.4byte	0
 15130              	.LLST113:
 15131 2264 24000000 		.4byte	.LVL201
 15132 2268 26000000 		.4byte	.LVL202
 15133 226c 0100     		.2byte	0x1
 15134 226e 50       		.byte	0x50
 15135 226f 00000000 		.4byte	0
 15136 2273 00000000 		.4byte	0
 15137              	.LLST114:
 15138 2277 58000000 		.4byte	.LVL207
 15139 227b 6A000000 		.4byte	.LVL208
 15140 227f 0200     		.2byte	0x2
 15141 2281 91       		.byte	0x91
 15142 2282 04       		.sleb128 4
 15143 2283 00000000 		.4byte	0
 15144 2287 00000000 		.4byte	0
 15145              	.LLST115:
 15146 228b 7C000000 		.4byte	.LVL210
 15147 228f 9C000000 		.4byte	.LVL211
 15148 2293 0100     		.2byte	0x1
 15149 2295 54       		.byte	0x54
 15150 2296 B6000000 		.4byte	.LVL216
 15151 229a C0000000 		.4byte	.LVL218
 15152 229e 0100     		.2byte	0x1
 15153 22a0 54       		.byte	0x54
 15154 22a1 00000000 		.4byte	0
 15155 22a5 00000000 		.4byte	0
 15156              	.LLST116:
 15157 22a9 7C000000 		.4byte	.LVL210
 15158 22ad B6000000 		.4byte	.LVL216
 15159 22b1 0100     		.2byte	0x1
 15160 22b3 58       		.byte	0x58
 15161 22b4 B6000000 		.4byte	.LVL216
ARM GAS  /tmp/cc2f1tkm.s 			page 267


 15162 22b8 BA000000 		.4byte	.LVL217
 15163 22bc 0300     		.2byte	0x3
 15164 22be 78       		.byte	0x78
 15165 22bf 08       		.sleb128 8
 15166 22c0 9F       		.byte	0x9f
 15167 22c1 00000000 		.4byte	0
 15168 22c5 00000000 		.4byte	0
 15169              	.LLST117:
 15170 22c9 7C000000 		.4byte	.LVL210
 15171 22cd A2000000 		.4byte	.LVL213
 15172 22d1 0100     		.2byte	0x1
 15173 22d3 54       		.byte	0x54
 15174 22d4 A2000000 		.4byte	.LVL213
 15175 22d8 B0000000 		.4byte	.LVL215
 15176 22dc 0100     		.2byte	0x1
 15177 22de 56       		.byte	0x56
 15178 22df B0000000 		.4byte	.LVL215
 15179 22e3 B6000000 		.4byte	.LVL216
 15180 22e7 0100     		.2byte	0x1
 15181 22e9 54       		.byte	0x54
 15182 22ea 00000000 		.4byte	0
 15183 22ee 00000000 		.4byte	0
 15184              	.LLST118:
 15185 22f2 9C000000 		.4byte	.LVL211
 15186 22f6 9E000000 		.4byte	.LVL212
 15187 22fa 0200     		.2byte	0x2
 15188 22fc 30       		.byte	0x30
 15189 22fd 9F       		.byte	0x9f
 15190 22fe 9E000000 		.4byte	.LVL212
 15191 2302 A8000000 		.4byte	.LVL214
 15192 2306 0500     		.2byte	0x5
 15193 2308 39       		.byte	0x39
 15194 2309 75       		.byte	0x75
 15195 230a 00       		.sleb128 0
 15196 230b 1C       		.byte	0x1c
 15197 230c 9F       		.byte	0x9f
 15198 230d 00000000 		.4byte	0
 15199 2311 00000000 		.4byte	0
 15200              	.LLST119:
 15201 2315 C0000000 		.4byte	.LVL218
 15202 2319 CA000000 		.4byte	.LVL219
 15203 231d 0700     		.2byte	0x7
 15204 231f 7E       		.byte	0x7e
 15205 2320 00       		.sleb128 0
 15206 2321 0A       		.byte	0xa
 15207 2322 FFFF     		.2byte	0xffff
 15208 2324 1A       		.byte	0x1a
 15209 2325 9F       		.byte	0x9f
 15210 2326 00000000 		.4byte	0
 15211 232a 00000000 		.4byte	0
 15212              	.LLST120:
 15213 232e C0000000 		.4byte	.LVL218
 15214 2332 CA000000 		.4byte	.LVL219
 15215 2336 0100     		.2byte	0x1
 15216 2338 5C       		.byte	0x5c
 15217 2339 CA000000 		.4byte	.LVL219
 15218 233d D2000000 		.4byte	.LVL221
ARM GAS  /tmp/cc2f1tkm.s 			page 268


 15219 2341 0100     		.2byte	0x1
 15220 2343 53       		.byte	0x53
 15221 2344 D2000000 		.4byte	.LVL221
 15222 2348 F0000000 		.4byte	.LVL226
 15223 234c 0300     		.2byte	0x3
 15224 234e 73       		.byte	0x73
 15225 234f 7F       		.sleb128 -1
 15226 2350 9F       		.byte	0x9f
 15227 2351 00000000 		.4byte	0
 15228 2355 00000000 		.4byte	0
 15229              	.LLST121:
 15230 2359 CA000000 		.4byte	.LVL219
 15231 235d D8000000 		.4byte	.LVL222
 15232 2361 0100     		.2byte	0x1
 15233 2363 54       		.byte	0x54
 15234 2364 00000000 		.4byte	0
 15235 2368 00000000 		.4byte	0
 15236              	.LLST122:
 15237 236c CE000000 		.4byte	.LVL220
 15238 2370 D2000000 		.4byte	.LVL221
 15239 2374 0200     		.2byte	0x2
 15240 2376 73       		.byte	0x73
 15241 2377 7F       		.sleb128 -1
 15242 2378 D2000000 		.4byte	.LVL221
 15243 237c F0000000 		.4byte	.LVL226
 15244 2380 0200     		.2byte	0x2
 15245 2382 73       		.byte	0x73
 15246 2383 7E       		.sleb128 -2
 15247 2384 00000000 		.4byte	0
 15248 2388 00000000 		.4byte	0
 15249              	.LLST123:
 15250 238c CE000000 		.4byte	.LVL220
 15251 2390 DC000000 		.4byte	.LVL223
 15252 2394 0100     		.2byte	0x1
 15253 2396 54       		.byte	0x54
 15254 2397 DC000000 		.4byte	.LVL223
 15255 239b E8000000 		.4byte	.LVL225
 15256 239f 0100     		.2byte	0x1
 15257 23a1 55       		.byte	0x55
 15258 23a2 E8000000 		.4byte	.LVL225
 15259 23a6 F0000000 		.4byte	.LVL226
 15260 23aa 0100     		.2byte	0x1
 15261 23ac 54       		.byte	0x54
 15262 23ad 00000000 		.4byte	0
 15263 23b1 00000000 		.4byte	0
 15264              	.LLST124:
 15265 23b5 D8000000 		.4byte	.LVL222
 15266 23b9 E2000000 		.4byte	.LVL224
 15267 23bd 0500     		.2byte	0x5
 15268 23bf 39       		.byte	0x39
 15269 23c0 72       		.byte	0x72
 15270 23c1 00       		.sleb128 0
 15271 23c2 1C       		.byte	0x1c
 15272 23c3 9F       		.byte	0x9f
 15273 23c4 00000000 		.4byte	0
 15274 23c8 00000000 		.4byte	0
 15275              	.LLST72:
ARM GAS  /tmp/cc2f1tkm.s 			page 269


 15276 23cc 00000000 		.4byte	.LVL157
 15277 23d0 91000000 		.4byte	.LVL174-1
 15278 23d4 0100     		.2byte	0x1
 15279 23d6 50       		.byte	0x50
 15280 23d7 91000000 		.4byte	.LVL174-1
 15281 23db A6000000 		.4byte	.LVL176
 15282 23df 0400     		.2byte	0x4
 15283 23e1 F3       		.byte	0xf3
 15284 23e2 01       		.uleb128 0x1
 15285 23e3 50       		.byte	0x50
 15286 23e4 9F       		.byte	0x9f
 15287 23e5 A6000000 		.4byte	.LVL176
 15288 23e9 48010000 		.4byte	.LVL196
 15289 23ed 0100     		.2byte	0x1
 15290 23ef 50       		.byte	0x50
 15291 23f0 48010000 		.4byte	.LVL196
 15292 23f4 4A010000 		.4byte	.LVL197
 15293 23f8 0400     		.2byte	0x4
 15294 23fa F3       		.byte	0xf3
 15295 23fb 01       		.uleb128 0x1
 15296 23fc 50       		.byte	0x50
 15297 23fd 9F       		.byte	0x9f
 15298 23fe 4A010000 		.4byte	.LVL197
 15299 2402 54010000 		.4byte	.LVL199
 15300 2406 0100     		.2byte	0x1
 15301 2408 50       		.byte	0x50
 15302 2409 54010000 		.4byte	.LVL199
 15303 240d 56010000 		.4byte	.LFE4
 15304 2411 0400     		.2byte	0x4
 15305 2413 F3       		.byte	0xf3
 15306 2414 01       		.uleb128 0x1
 15307 2415 50       		.byte	0x50
 15308 2416 9F       		.byte	0x9f
 15309 2417 00000000 		.4byte	0
 15310 241b 00000000 		.4byte	0
 15311              	.LLST73:
 15312 241f 00000000 		.4byte	.LVL157
 15313 2423 4C000000 		.4byte	.LVL162
 15314 2427 0600     		.2byte	0x6
 15315 2429 52       		.byte	0x52
 15316 242a 93       		.byte	0x93
 15317 242b 04       		.uleb128 0x4
 15318 242c 53       		.byte	0x53
 15319 242d 93       		.byte	0x93
 15320 242e 04       		.uleb128 0x4
 15321 242f 4C000000 		.4byte	.LVL162
 15322 2433 A6000000 		.4byte	.LVL176
 15323 2437 0600     		.2byte	0x6
 15324 2439 F3       		.byte	0xf3
 15325 243a 03       		.uleb128 0x3
 15326 243b F5       		.byte	0xf5
 15327 243c 02       		.uleb128 0x2
 15328 243d 2C       		.uleb128 0x2c
 15329 243e 9F       		.byte	0x9f
 15330 243f A6000000 		.4byte	.LVL176
 15331 2443 14010000 		.4byte	.LVL187
 15332 2447 0600     		.2byte	0x6
ARM GAS  /tmp/cc2f1tkm.s 			page 270


 15333 2449 52       		.byte	0x52
 15334 244a 93       		.byte	0x93
 15335 244b 04       		.uleb128 0x4
 15336 244c 53       		.byte	0x53
 15337 244d 93       		.byte	0x93
 15338 244e 04       		.uleb128 0x4
 15339 244f 14010000 		.4byte	.LVL187
 15340 2453 3C010000 		.4byte	.LVL195
 15341 2457 0600     		.2byte	0x6
 15342 2459 F3       		.byte	0xf3
 15343 245a 03       		.uleb128 0x3
 15344 245b F5       		.byte	0xf5
 15345 245c 02       		.uleb128 0x2
 15346 245d 2C       		.uleb128 0x2c
 15347 245e 9F       		.byte	0x9f
 15348 245f 3C010000 		.4byte	.LVL195
 15349 2463 56010000 		.4byte	.LFE4
 15350 2467 0600     		.2byte	0x6
 15351 2469 52       		.byte	0x52
 15352 246a 93       		.byte	0x93
 15353 246b 04       		.uleb128 0x4
 15354 246c 53       		.byte	0x53
 15355 246d 93       		.byte	0x93
 15356 246e 04       		.uleb128 0x4
 15357 246f 00000000 		.4byte	0
 15358 2473 00000000 		.4byte	0
 15359              	.LLST74:
 15360 2477 00000000 		.4byte	.LVL157
 15361 247b A6000000 		.4byte	.LVL176
 15362 247f 0200     		.2byte	0x2
 15363 2481 91       		.byte	0x91
 15364 2482 00       		.sleb128 0
 15365 2483 A6000000 		.4byte	.LVL176
 15366 2487 56010000 		.4byte	.LFE4
 15367 248b 0200     		.2byte	0x2
 15368 248d 91       		.byte	0x91
 15369 248e 00       		.sleb128 0
 15370 248f 00000000 		.4byte	0
 15371 2493 00000000 		.4byte	0
 15372              	.LLST75:
 15373 2497 00000000 		.4byte	.LVL157
 15374 249b A6000000 		.4byte	.LVL176
 15375 249f 0200     		.2byte	0x2
 15376 24a1 91       		.byte	0x91
 15377 24a2 04       		.sleb128 4
 15378 24a3 A6000000 		.4byte	.LVL176
 15379 24a7 56010000 		.4byte	.LFE4
 15380 24ab 0200     		.2byte	0x2
 15381 24ad 91       		.byte	0x91
 15382 24ae 04       		.sleb128 4
 15383 24af 00000000 		.4byte	0
 15384 24b3 00000000 		.4byte	0
 15385              	.LLST76:
 15386 24b7 00000000 		.4byte	.LVL157
 15387 24bb A6000000 		.4byte	.LVL176
 15388 24bf 0200     		.2byte	0x2
 15389 24c1 91       		.byte	0x91
ARM GAS  /tmp/cc2f1tkm.s 			page 271


 15390 24c2 08       		.sleb128 8
 15391 24c3 A6000000 		.4byte	.LVL176
 15392 24c7 56010000 		.4byte	.LFE4
 15393 24cb 0200     		.2byte	0x2
 15394 24cd 91       		.byte	0x91
 15395 24ce 08       		.sleb128 8
 15396 24cf 00000000 		.4byte	0
 15397 24d3 00000000 		.4byte	0
 15398              	.LLST77:
 15399 24d7 00000000 		.4byte	.LVL157
 15400 24db A6000000 		.4byte	.LVL176
 15401 24df 0200     		.2byte	0x2
 15402 24e1 91       		.byte	0x91
 15403 24e2 0C       		.sleb128 12
 15404 24e3 A6000000 		.4byte	.LVL176
 15405 24e7 56010000 		.4byte	.LFE4
 15406 24eb 0200     		.2byte	0x2
 15407 24ed 91       		.byte	0x91
 15408 24ee 0C       		.sleb128 12
 15409 24ef 00000000 		.4byte	0
 15410 24f3 00000000 		.4byte	0
 15411              	.LLST78:
 15412 24f7 00000000 		.4byte	.LVL157
 15413 24fb A6000000 		.4byte	.LVL176
 15414 24ff 0200     		.2byte	0x2
 15415 2501 91       		.byte	0x91
 15416 2502 10       		.sleb128 16
 15417 2503 A6000000 		.4byte	.LVL176
 15418 2507 56010000 		.4byte	.LFE4
 15419 250b 0200     		.2byte	0x2
 15420 250d 91       		.byte	0x91
 15421 250e 10       		.sleb128 16
 15422 250f 00000000 		.4byte	0
 15423 2513 00000000 		.4byte	0
 15424              	.LLST79:
 15425 2517 24000000 		.4byte	.LVL158
 15426 251b 82000000 		.4byte	.LVL172
 15427 251f 0200     		.2byte	0x2
 15428 2521 30       		.byte	0x30
 15429 2522 9F       		.byte	0x9f
 15430 2523 82000000 		.4byte	.LVL172
 15431 2527 91000000 		.4byte	.LVL174-1
 15432 252b 0100     		.2byte	0x1
 15433 252d 51       		.byte	0x51
 15434 252e A6000000 		.4byte	.LVL176
 15435 2532 B2000000 		.4byte	.LVL177
 15436 2536 0200     		.2byte	0x2
 15437 2538 30       		.byte	0x30
 15438 2539 9F       		.byte	0x9f
 15439 253a B2000000 		.4byte	.LVL177
 15440 253e 3C010000 		.4byte	.LVL195
 15441 2542 0100     		.2byte	0x1
 15442 2544 51       		.byte	0x51
 15443 2545 4A010000 		.4byte	.LVL197
 15444 2549 50010000 		.4byte	.LVL198
 15445 254d 0100     		.2byte	0x1
 15446 254f 51       		.byte	0x51
ARM GAS  /tmp/cc2f1tkm.s 			page 272


 15447 2550 50010000 		.4byte	.LVL198
 15448 2554 56010000 		.4byte	.LFE4
 15449 2558 0200     		.2byte	0x2
 15450 255a 30       		.byte	0x30
 15451 255b 9F       		.byte	0x9f
 15452 255c 00000000 		.4byte	0
 15453 2560 00000000 		.4byte	0
 15454              	.LLST80:
 15455 2564 24000000 		.4byte	.LVL158
 15456 2568 86000000 		.4byte	.LVL173
 15457 256c 0300     		.2byte	0x3
 15458 256e 09       		.byte	0x9
 15459 256f FF       		.byte	0xff
 15460 2570 9F       		.byte	0x9f
 15461 2571 86000000 		.4byte	.LVL173
 15462 2575 A0000000 		.4byte	.LVL175
 15463 2579 0100     		.2byte	0x1
 15464 257b 54       		.byte	0x54
 15465 257c A6000000 		.4byte	.LVL176
 15466 2580 0A010000 		.4byte	.LVL186
 15467 2584 0300     		.2byte	0x3
 15468 2586 09       		.byte	0x9
 15469 2587 FF       		.byte	0xff
 15470 2588 9F       		.byte	0x9f
 15471 2589 4A010000 		.4byte	.LVL197
 15472 258d 56010000 		.4byte	.LFE4
 15473 2591 0300     		.2byte	0x3
 15474 2593 09       		.byte	0x9
 15475 2594 FF       		.byte	0xff
 15476 2595 9F       		.byte	0x9f
 15477 2596 00000000 		.4byte	0
 15478 259a 00000000 		.4byte	0
 15479              	.LLST81:
 15480 259e 92000000 		.4byte	.LVL174
 15481 25a2 A0000000 		.4byte	.LVL175
 15482 25a6 0100     		.2byte	0x1
 15483 25a8 50       		.byte	0x50
 15484 25a9 00000000 		.4byte	0
 15485 25ad 00000000 		.4byte	0
 15486              	.LLST83:
 15487 25b1 72000000 		.4byte	.LVL170
 15488 25b5 7E000000 		.4byte	.LVL171
 15489 25b9 0700     		.2byte	0x7
 15490 25bb 73       		.byte	0x73
 15491 25bc 00       		.sleb128 0
 15492 25bd 0A       		.byte	0xa
 15493 25be FE7F     		.2byte	0x7ffe
 15494 25c0 1A       		.byte	0x1a
 15495 25c1 9F       		.byte	0x9f
 15496 25c2 00000000 		.4byte	0
 15497 25c6 00000000 		.4byte	0
 15498              	.LLST84:
 15499 25ca 3A000000 		.4byte	.LVL160
 15500 25ce 4A000000 		.4byte	.LVL161
 15501 25d2 0700     		.2byte	0x7
 15502 25d4 7C       		.byte	0x7c
 15503 25d5 00       		.sleb128 0
ARM GAS  /tmp/cc2f1tkm.s 			page 273


 15504 25d6 0A       		.byte	0xa
 15505 25d7 FFFF     		.2byte	0xffff
 15506 25d9 1A       		.byte	0x1a
 15507 25da 9F       		.byte	0x9f
 15508 25db 00000000 		.4byte	0
 15509 25df 00000000 		.4byte	0
 15510              	.LLST85:
 15511 25e3 3A000000 		.4byte	.LVL160
 15512 25e7 4C000000 		.4byte	.LVL162
 15513 25eb 0100     		.2byte	0x1
 15514 25ed 57       		.byte	0x57
 15515 25ee 4C000000 		.4byte	.LVL162
 15516 25f2 50000000 		.4byte	.LVL163
 15517 25f6 0100     		.2byte	0x1
 15518 25f8 51       		.byte	0x51
 15519 25f9 50000000 		.4byte	.LVL163
 15520 25fd 6E000000 		.4byte	.LVL169
 15521 2601 0300     		.2byte	0x3
 15522 2603 71       		.byte	0x71
 15523 2604 7F       		.sleb128 -1
 15524 2605 9F       		.byte	0x9f
 15525 2606 6E000000 		.4byte	.LVL169
 15526 260a 72000000 		.4byte	.LVL170
 15527 260e 0100     		.2byte	0x1
 15528 2610 51       		.byte	0x51
 15529 2611 00000000 		.4byte	0
 15530 2615 00000000 		.4byte	0
 15531              	.LLST86:
 15532 2619 3A000000 		.4byte	.LVL160
 15533 261d 4A000000 		.4byte	.LVL161
 15534 2621 0300     		.2byte	0x3
 15535 2623 09       		.byte	0x9
 15536 2624 FF       		.byte	0xff
 15537 2625 9F       		.byte	0x9f
 15538 2626 4A000000 		.4byte	.LVL161
 15539 262a 54000000 		.4byte	.LVL164
 15540 262e 0100     		.2byte	0x1
 15541 2630 53       		.byte	0x53
 15542 2631 6E000000 		.4byte	.LVL169
 15543 2635 72000000 		.4byte	.LVL170
 15544 2639 0100     		.2byte	0x1
 15545 263b 53       		.byte	0x53
 15546 263c 00000000 		.4byte	0
 15547 2640 00000000 		.4byte	0
 15548              	.LLST87:
 15549 2644 4C000000 		.4byte	.LVL162
 15550 2648 50000000 		.4byte	.LVL163
 15551 264c 0200     		.2byte	0x2
 15552 264e 71       		.byte	0x71
 15553 264f 7F       		.sleb128 -1
 15554 2650 50000000 		.4byte	.LVL163
 15555 2654 72000000 		.4byte	.LVL170
 15556 2658 0200     		.2byte	0x2
 15557 265a 71       		.byte	0x71
 15558 265b 7E       		.sleb128 -2
 15559 265c 00000000 		.4byte	0
 15560 2660 00000000 		.4byte	0
ARM GAS  /tmp/cc2f1tkm.s 			page 274


 15561              	.LLST88:
 15562 2664 4C000000 		.4byte	.LVL162
 15563 2668 5A000000 		.4byte	.LVL166
 15564 266c 0100     		.2byte	0x1
 15565 266e 53       		.byte	0x53
 15566 266f 5A000000 		.4byte	.LVL166
 15567 2673 68000000 		.4byte	.LVL168
 15568 2677 0100     		.2byte	0x1
 15569 2679 54       		.byte	0x54
 15570 267a 68000000 		.4byte	.LVL168
 15571 267e 72000000 		.4byte	.LVL170
 15572 2682 0100     		.2byte	0x1
 15573 2684 53       		.byte	0x53
 15574 2685 00000000 		.4byte	0
 15575 2689 00000000 		.4byte	0
 15576              	.LLST89:
 15577 268d 54000000 		.4byte	.LVL164
 15578 2691 56000000 		.4byte	.LVL165
 15579 2695 0200     		.2byte	0x2
 15580 2697 30       		.byte	0x30
 15581 2698 9F       		.byte	0x9f
 15582 2699 56000000 		.4byte	.LVL165
 15583 269d 60000000 		.4byte	.LVL167
 15584 26a1 0500     		.2byte	0x5
 15585 26a3 39       		.byte	0x39
 15586 26a4 72       		.byte	0x72
 15587 26a5 00       		.sleb128 0
 15588 26a6 1C       		.byte	0x1c
 15589 26a7 9F       		.byte	0x9f
 15590 26a8 00000000 		.4byte	0
 15591 26ac 00000000 		.4byte	0
 15592              	.LLST82:
 15593 26b0 24000000 		.4byte	.LVL158
 15594 26b4 26000000 		.4byte	.LVL159
 15595 26b8 0100     		.2byte	0x1
 15596 26ba 50       		.byte	0x50
 15597 26bb 00000000 		.4byte	0
 15598 26bf 00000000 		.4byte	0
 15599              	.LLST90:
 15600 26c3 92000000 		.4byte	.LVL174
 15601 26c7 A0000000 		.4byte	.LVL175
 15602 26cb 0100     		.2byte	0x1
 15603 26cd 56       		.byte	0x56
 15604 26ce 00000000 		.4byte	0
 15605 26d2 00000000 		.4byte	0
 15606              	.LLST91:
 15607 26d6 C0000000 		.4byte	.LVL178
 15608 26da E2000000 		.4byte	.LVL179
 15609 26de 0100     		.2byte	0x1
 15610 26e0 54       		.byte	0x54
 15611 26e1 00010000 		.4byte	.LVL184
 15612 26e5 0A010000 		.4byte	.LVL186
 15613 26e9 0100     		.2byte	0x1
 15614 26eb 54       		.byte	0x54
 15615 26ec 00000000 		.4byte	0
 15616 26f0 00000000 		.4byte	0
 15617              	.LLST92:
ARM GAS  /tmp/cc2f1tkm.s 			page 275


 15618 26f4 C0000000 		.4byte	.LVL178
 15619 26f8 00010000 		.4byte	.LVL184
 15620 26fc 0100     		.2byte	0x1
 15621 26fe 58       		.byte	0x58
 15622 26ff 00010000 		.4byte	.LVL184
 15623 2703 04010000 		.4byte	.LVL185
 15624 2707 0300     		.2byte	0x3
 15625 2709 78       		.byte	0x78
 15626 270a 08       		.sleb128 8
 15627 270b 9F       		.byte	0x9f
 15628 270c 00000000 		.4byte	0
 15629 2710 00000000 		.4byte	0
 15630              	.LLST93:
 15631 2714 C0000000 		.4byte	.LVL178
 15632 2718 EA000000 		.4byte	.LVL181
 15633 271c 0100     		.2byte	0x1
 15634 271e 54       		.byte	0x54
 15635 271f EA000000 		.4byte	.LVL181
 15636 2723 FA000000 		.4byte	.LVL183
 15637 2727 0100     		.2byte	0x1
 15638 2729 5E       		.byte	0x5e
 15639 272a FA000000 		.4byte	.LVL183
 15640 272e 00010000 		.4byte	.LVL184
 15641 2732 0100     		.2byte	0x1
 15642 2734 54       		.byte	0x54
 15643 2735 00000000 		.4byte	0
 15644 2739 00000000 		.4byte	0
 15645              	.LLST94:
 15646 273d E2000000 		.4byte	.LVL179
 15647 2741 E4000000 		.4byte	.LVL180
 15648 2745 0200     		.2byte	0x2
 15649 2747 30       		.byte	0x30
 15650 2748 9F       		.byte	0x9f
 15651 2749 E4000000 		.4byte	.LVL180
 15652 274d F2000000 		.4byte	.LVL182
 15653 2751 0500     		.2byte	0x5
 15654 2753 39       		.byte	0x39
 15655 2754 75       		.byte	0x75
 15656 2755 00       		.sleb128 0
 15657 2756 1C       		.byte	0x1c
 15658 2757 9F       		.byte	0x9f
 15659 2758 00000000 		.4byte	0
 15660 275c 00000000 		.4byte	0
 15661              	.LLST95:
 15662 2760 0A010000 		.4byte	.LVL186
 15663 2764 14010000 		.4byte	.LVL187
 15664 2768 0700     		.2byte	0x7
 15665 276a 7C       		.byte	0x7c
 15666 276b 00       		.sleb128 0
 15667 276c 0A       		.byte	0xa
 15668 276d FFFF     		.2byte	0xffff
 15669 276f 1A       		.byte	0x1a
 15670 2770 9F       		.byte	0x9f
 15671 2771 00000000 		.4byte	0
 15672 2775 00000000 		.4byte	0
 15673              	.LLST96:
 15674 2779 0A010000 		.4byte	.LVL186
ARM GAS  /tmp/cc2f1tkm.s 			page 276


 15675 277d 14010000 		.4byte	.LVL187
 15676 2781 0100     		.2byte	0x1
 15677 2783 57       		.byte	0x57
 15678 2784 14010000 		.4byte	.LVL187
 15679 2788 1C010000 		.4byte	.LVL189
 15680 278c 0100     		.2byte	0x1
 15681 278e 53       		.byte	0x53
 15682 278f 1C010000 		.4byte	.LVL189
 15683 2793 3C010000 		.4byte	.LVL195
 15684 2797 0300     		.2byte	0x3
 15685 2799 73       		.byte	0x73
 15686 279a 7F       		.sleb128 -1
 15687 279b 9F       		.byte	0x9f
 15688 279c 00000000 		.4byte	0
 15689 27a0 00000000 		.4byte	0
 15690              	.LLST97:
 15691 27a4 14010000 		.4byte	.LVL187
 15692 27a8 20010000 		.4byte	.LVL190
 15693 27ac 0100     		.2byte	0x1
 15694 27ae 54       		.byte	0x54
 15695 27af 00000000 		.4byte	0
 15696 27b3 00000000 		.4byte	0
 15697              	.LLST98:
 15698 27b7 18010000 		.4byte	.LVL188
 15699 27bb 1C010000 		.4byte	.LVL189
 15700 27bf 0200     		.2byte	0x2
 15701 27c1 73       		.byte	0x73
 15702 27c2 7F       		.sleb128 -1
 15703 27c3 1C010000 		.4byte	.LVL189
 15704 27c7 3C010000 		.4byte	.LVL195
 15705 27cb 0200     		.2byte	0x2
 15706 27cd 73       		.byte	0x73
 15707 27ce 7E       		.sleb128 -2
 15708 27cf 00000000 		.4byte	0
 15709 27d3 00000000 		.4byte	0
 15710              	.LLST99:
 15711 27d7 18010000 		.4byte	.LVL188
 15712 27db 26010000 		.4byte	.LVL192
 15713 27df 0100     		.2byte	0x1
 15714 27e1 54       		.byte	0x54
 15715 27e2 26010000 		.4byte	.LVL192
 15716 27e6 34010000 		.4byte	.LVL194
 15717 27ea 0100     		.2byte	0x1
 15718 27ec 55       		.byte	0x55
 15719 27ed 34010000 		.4byte	.LVL194
 15720 27f1 3C010000 		.4byte	.LVL195
 15721 27f5 0100     		.2byte	0x1
 15722 27f7 54       		.byte	0x54
 15723 27f8 00000000 		.4byte	0
 15724 27fc 00000000 		.4byte	0
 15725              	.LLST100:
 15726 2800 20010000 		.4byte	.LVL190
 15727 2804 22010000 		.4byte	.LVL191
 15728 2808 0200     		.2byte	0x2
 15729 280a 30       		.byte	0x30
 15730 280b 9F       		.byte	0x9f
 15731 280c 22010000 		.4byte	.LVL191
ARM GAS  /tmp/cc2f1tkm.s 			page 277


 15732 2810 2C010000 		.4byte	.LVL193
 15733 2814 0500     		.2byte	0x5
 15734 2816 39       		.byte	0x39
 15735 2817 72       		.byte	0x72
 15736 2818 00       		.sleb128 0
 15737 2819 1C       		.byte	0x1c
 15738 281a 9F       		.byte	0x9f
 15739 281b 00000000 		.4byte	0
 15740 281f 00000000 		.4byte	0
 15741              	.LLST70:
 15742 2823 00000000 		.4byte	.LVL152
 15743 2827 02000000 		.4byte	.LVL153
 15744 282b 0100     		.2byte	0x1
 15745 282d 50       		.byte	0x50
 15746 282e 02000000 		.4byte	.LVL153
 15747 2832 04000000 		.4byte	.LFE1
 15748 2836 0400     		.2byte	0x4
 15749 2838 F3       		.byte	0xf3
 15750 2839 01       		.uleb128 0x1
 15751 283a 50       		.byte	0x50
 15752 283b 9F       		.byte	0x9f
 15753 283c 00000000 		.4byte	0
 15754 2840 00000000 		.4byte	0
 15755              	.LLST59:
 15756 2844 00000000 		.4byte	.LVL138
 15757 2848 30000000 		.4byte	.LVL144
 15758 284c 0100     		.2byte	0x1
 15759 284e 51       		.byte	0x51
 15760 284f 30000000 		.4byte	.LVL144
 15761 2853 4E000000 		.4byte	.LVL151
 15762 2857 0400     		.2byte	0x4
 15763 2859 F3       		.byte	0xf3
 15764 285a 01       		.uleb128 0x1
 15765 285b 51       		.byte	0x51
 15766 285c 9F       		.byte	0x9f
 15767 285d 4E000000 		.4byte	.LVL151
 15768 2861 52000000 		.4byte	.LFE0
 15769 2865 0100     		.2byte	0x1
 15770 2867 51       		.byte	0x51
 15771 2868 00000000 		.4byte	0
 15772 286c 00000000 		.4byte	0
 15773              	.LLST60:
 15774 2870 00000000 		.4byte	.LVL138
 15775 2874 04000000 		.4byte	.LVL139
 15776 2878 0100     		.2byte	0x1
 15777 287a 52       		.byte	0x52
 15778 287b 04000000 		.4byte	.LVL139
 15779 287f 52000000 		.4byte	.LFE0
 15780 2883 0400     		.2byte	0x4
 15781 2885 F3       		.byte	0xf3
 15782 2886 01       		.uleb128 0x1
 15783 2887 52       		.byte	0x52
 15784 2888 9F       		.byte	0x9f
 15785 2889 00000000 		.4byte	0
 15786 288d 00000000 		.4byte	0
 15787              	.LLST61:
 15788 2891 00000000 		.4byte	.LVL138
ARM GAS  /tmp/cc2f1tkm.s 			page 278


 15789 2895 16000000 		.4byte	.LVL141
 15790 2899 0100     		.2byte	0x1
 15791 289b 53       		.byte	0x53
 15792 289c 16000000 		.4byte	.LVL141
 15793 28a0 52000000 		.4byte	.LFE0
 15794 28a4 0200     		.2byte	0x2
 15795 28a6 70       		.byte	0x70
 15796 28a7 08       		.sleb128 8
 15797 28a8 00000000 		.4byte	0
 15798 28ac 00000000 		.4byte	0
 15799              	.LLST62:
 15800 28b0 00000000 		.4byte	.LVL138
 15801 28b4 4C000000 		.4byte	.LVL150
 15802 28b8 0200     		.2byte	0x2
 15803 28ba 91       		.byte	0x91
 15804 28bb 00       		.sleb128 0
 15805 28bc 4C000000 		.4byte	.LVL150
 15806 28c0 4E000000 		.4byte	.LVL151
 15807 28c4 0200     		.2byte	0x2
 15808 28c6 7D       		.byte	0x7d
 15809 28c7 00       		.sleb128 0
 15810 28c8 4E000000 		.4byte	.LVL151
 15811 28cc 52000000 		.4byte	.LFE0
 15812 28d0 0200     		.2byte	0x2
 15813 28d2 91       		.byte	0x91
 15814 28d3 00       		.sleb128 0
 15815 28d4 00000000 		.4byte	0
 15816 28d8 00000000 		.4byte	0
 15817              	.LLST63:
 15818 28dc 00000000 		.4byte	.LVL138
 15819 28e0 4C000000 		.4byte	.LVL150
 15820 28e4 0200     		.2byte	0x2
 15821 28e6 91       		.byte	0x91
 15822 28e7 04       		.sleb128 4
 15823 28e8 4C000000 		.4byte	.LVL150
 15824 28ec 4E000000 		.4byte	.LVL151
 15825 28f0 0200     		.2byte	0x2
 15826 28f2 7D       		.byte	0x7d
 15827 28f3 04       		.sleb128 4
 15828 28f4 4E000000 		.4byte	.LVL151
 15829 28f8 52000000 		.4byte	.LFE0
 15830 28fc 0200     		.2byte	0x2
 15831 28fe 91       		.byte	0x91
 15832 28ff 04       		.sleb128 4
 15833 2900 00000000 		.4byte	0
 15834 2904 00000000 		.4byte	0
 15835              	.LLST64:
 15836 2908 04000000 		.4byte	.LVL139
 15837 290c 14000000 		.4byte	.LVL140
 15838 2910 0100     		.2byte	0x1
 15839 2912 52       		.byte	0x52
 15840 2913 14000000 		.4byte	.LVL140
 15841 2917 4C000000 		.4byte	.LVL150
 15842 291b 0100     		.2byte	0x1
 15843 291d 55       		.byte	0x55
 15844 291e 4C000000 		.4byte	.LVL150
 15845 2922 4E000000 		.4byte	.LVL151
ARM GAS  /tmp/cc2f1tkm.s 			page 279


 15846 2926 1F00     		.2byte	0x1f
 15847 2928 F3       		.byte	0xf3
 15848 2929 01       		.uleb128 0x1
 15849 292a 52       		.byte	0x52
 15850 292b 35       		.byte	0x35
 15851 292c 25       		.byte	0x25
 15852 292d 0A       		.byte	0xa
 15853 292e FFFF     		.2byte	0xffff
 15854 2930 0A       		.byte	0xa
 15855 2931 FFFF     		.2byte	0xffff
 15856 2933 40       		.byte	0x40
 15857 2934 4B       		.byte	0x4b
 15858 2935 24       		.byte	0x24
 15859 2936 22       		.byte	0x22
 15860 2937 F3       		.byte	0xf3
 15861 2938 01       		.uleb128 0x1
 15862 2939 52       		.byte	0x52
 15863 293a 35       		.byte	0x35
 15864 293b 25       		.byte	0x25
 15865 293c 40       		.byte	0x40
 15866 293d 4B       		.byte	0x4b
 15867 293e 24       		.byte	0x24
 15868 293f 22       		.byte	0x22
 15869 2940 2A       		.byte	0x2a
 15870 2941 28       		.byte	0x28
 15871 2942 0100     		.2byte	0x1
 15872 2944 16       		.byte	0x16
 15873 2945 13       		.byte	0x13
 15874 2946 9F       		.byte	0x9f
 15875 2947 4E000000 		.4byte	.LVL151
 15876 294b 52000000 		.4byte	.LFE0
 15877 294f 0100     		.2byte	0x1
 15878 2951 55       		.byte	0x55
 15879 2952 00000000 		.4byte	0
 15880 2956 00000000 		.4byte	0
 15881              	.LLST65:
 15882 295a 1E000000 		.4byte	.LVL142
 15883 295e 4A000000 		.4byte	.LVL149
 15884 2962 0100     		.2byte	0x1
 15885 2964 56       		.byte	0x56
 15886 2965 4E000000 		.4byte	.LVL151
 15887 2969 52000000 		.4byte	.LFE0
 15888 296d 0100     		.2byte	0x1
 15889 296f 56       		.byte	0x56
 15890 2970 00000000 		.4byte	0
 15891 2974 00000000 		.4byte	0
 15892              	.LLST66:
 15893 2978 1E000000 		.4byte	.LVL142
 15894 297c 30000000 		.4byte	.LVL144
 15895 2980 0100     		.2byte	0x1
 15896 2982 51       		.byte	0x51
 15897 2983 30000000 		.4byte	.LVL144
 15898 2987 4A000000 		.4byte	.LVL149
 15899 298b 0400     		.2byte	0x4
 15900 298d F3       		.byte	0xf3
 15901 298e 01       		.uleb128 0x1
 15902 298f 51       		.byte	0x51
ARM GAS  /tmp/cc2f1tkm.s 			page 280


 15903 2990 9F       		.byte	0x9f
 15904 2991 4E000000 		.4byte	.LVL151
 15905 2995 52000000 		.4byte	.LFE0
 15906 2999 0100     		.2byte	0x1
 15907 299b 51       		.byte	0x51
 15908 299c 00000000 		.4byte	0
 15909 29a0 00000000 		.4byte	0
 15910              	.LLST67:
 15911 29a4 1E000000 		.4byte	.LVL142
 15912 29a8 2E000000 		.4byte	.LVL143
 15913 29ac 0300     		.2byte	0x3
 15914 29ae 70       		.byte	0x70
 15915 29af 0C       		.sleb128 12
 15916 29b0 9F       		.byte	0x9f
 15917 29b1 2E000000 		.4byte	.LVL143
 15918 29b5 30000000 		.4byte	.LVL144
 15919 29b9 0100     		.2byte	0x1
 15920 29bb 54       		.byte	0x54
 15921 29bc 30000000 		.4byte	.LVL144
 15922 29c0 4A000000 		.4byte	.LVL149
 15923 29c4 0300     		.2byte	0x3
 15924 29c6 70       		.byte	0x70
 15925 29c7 0C       		.sleb128 12
 15926 29c8 9F       		.byte	0x9f
 15927 29c9 4E000000 		.4byte	.LVL151
 15928 29cd 52000000 		.4byte	.LFE0
 15929 29d1 0100     		.2byte	0x1
 15930 29d3 54       		.byte	0x54
 15931 29d4 00000000 		.4byte	0
 15932 29d8 00000000 		.4byte	0
 15933              	.LLST68:
 15934 29dc 1E000000 		.4byte	.LVL142
 15935 29e0 30000000 		.4byte	.LVL144
 15936 29e4 0200     		.2byte	0x2
 15937 29e6 30       		.byte	0x30
 15938 29e7 9F       		.byte	0x9f
 15939 29e8 30000000 		.4byte	.LVL144
 15940 29ec 32000000 		.4byte	.LVL145
 15941 29f0 0100     		.2byte	0x1
 15942 29f2 53       		.byte	0x53
 15943 29f3 32000000 		.4byte	.LVL145
 15944 29f7 38000000 		.4byte	.LVL146
 15945 29fb 0300     		.2byte	0x3
 15946 29fd 73       		.byte	0x73
 15947 29fe 7F       		.sleb128 -1
 15948 29ff 9F       		.byte	0x9f
 15949 2a00 38000000 		.4byte	.LVL146
 15950 2a04 40000000 		.4byte	.LVL148
 15951 2a08 0100     		.2byte	0x1
 15952 2a0a 53       		.byte	0x53
 15953 2a0b 4E000000 		.4byte	.LVL151
 15954 2a0f 52000000 		.4byte	.LFE0
 15955 2a13 0200     		.2byte	0x2
 15956 2a15 30       		.byte	0x30
 15957 2a16 9F       		.byte	0x9f
 15958 2a17 00000000 		.4byte	0
 15959 2a1b 00000000 		.4byte	0
ARM GAS  /tmp/cc2f1tkm.s 			page 281


 15960              	.LLST69:
 15961 2a1f 2E000000 		.4byte	.LVL143
 15962 2a23 38000000 		.4byte	.LVL146
 15963 2a27 0100     		.2byte	0x1
 15964 2a29 54       		.byte	0x54
 15965 2a2a 38000000 		.4byte	.LVL146
 15966 2a2e 3C000000 		.4byte	.LVL147
 15967 2a32 0100     		.2byte	0x1
 15968 2a34 51       		.byte	0x51
 15969 2a35 3C000000 		.4byte	.LVL147
 15970 2a39 4A000000 		.4byte	.LVL149
 15971 2a3d 0100     		.2byte	0x1
 15972 2a3f 52       		.byte	0x52
 15973 2a40 4E000000 		.4byte	.LVL151
 15974 2a44 52000000 		.4byte	.LFE0
 15975 2a48 0100     		.2byte	0x1
 15976 2a4a 54       		.byte	0x54
 15977 2a4b 00000000 		.4byte	0
 15978 2a4f 00000000 		.4byte	0
 15979              	.LLST36:
 15980 2a53 00000000 		.4byte	.LVL81
 15981 2a57 08000000 		.4byte	.LVL82
 15982 2a5b 0100     		.2byte	0x1
 15983 2a5d 51       		.byte	0x51
 15984 2a5e 08000000 		.4byte	.LVL82
 15985 2a62 9E000000 		.4byte	.LFE42
 15986 2a66 0100     		.2byte	0x1
 15987 2a68 5E       		.byte	0x5e
 15988 2a69 00000000 		.4byte	0
 15989 2a6d 00000000 		.4byte	0
 15990              	.LLST37:
 15991 2a71 2C000000 		.4byte	.LVL83
 15992 2a75 8E000000 		.4byte	.LVL98
 15993 2a79 0100     		.2byte	0x1
 15994 2a7b 52       		.byte	0x52
 15995 2a7c 96000000 		.4byte	.LVL99
 15996 2a80 9E000000 		.4byte	.LFE42
 15997 2a84 0100     		.2byte	0x1
 15998 2a86 52       		.byte	0x52
 15999 2a87 00000000 		.4byte	0
 16000 2a8b 00000000 		.4byte	0
 16001              	.LLST38:
 16002 2a8f 2C000000 		.4byte	.LVL83
 16003 2a93 34000000 		.4byte	.LVL85
 16004 2a97 0100     		.2byte	0x1
 16005 2a99 53       		.byte	0x53
 16006 2a9a 3E000000 		.4byte	.LVL87
 16007 2a9e 4C000000 		.4byte	.LVL90
 16008 2aa2 0100     		.2byte	0x1
 16009 2aa4 53       		.byte	0x53
 16010 2aa5 68000000 		.4byte	.LVL91
 16011 2aa9 74000000 		.4byte	.LVL93
 16012 2aad 0100     		.2byte	0x1
 16013 2aaf 53       		.byte	0x53
 16014 2ab0 74000000 		.4byte	.LVL93
 16015 2ab4 76000000 		.4byte	.LVL94
 16016 2ab8 0200     		.2byte	0x2
ARM GAS  /tmp/cc2f1tkm.s 			page 282


 16017 2aba 72       		.byte	0x72
 16018 2abb 04       		.sleb128 4
 16019 2abc 7C000000 		.4byte	.LVL95
 16020 2ac0 80000000 		.4byte	.LVL96
 16021 2ac4 0100     		.2byte	0x1
 16022 2ac6 53       		.byte	0x53
 16023 2ac7 80000000 		.4byte	.LVL96
 16024 2acb 84000000 		.4byte	.LVL97
 16025 2acf 0200     		.2byte	0x2
 16026 2ad1 72       		.byte	0x72
 16027 2ad2 04       		.sleb128 4
 16028 2ad3 00000000 		.4byte	0
 16029 2ad7 00000000 		.4byte	0
 16030              	.LLST39:
 16031 2adb 2C000000 		.4byte	.LVL83
 16032 2adf 34000000 		.4byte	.LVL85
 16033 2ae3 0A00     		.2byte	0xa
 16034 2ae5 7E       		.byte	0x7e
 16035 2ae6 04       		.sleb128 4
 16036 2ae7 06       		.byte	0x6
 16037 2ae8 0C       		.byte	0xc
 16038 2ae9 FFFFFF1F 		.4byte	0x1fffffff
 16039 2aed 1A       		.byte	0x1a
 16040 2aee 9F       		.byte	0x9f
 16041 2aef 3E000000 		.4byte	.LVL87
 16042 2af3 4C000000 		.4byte	.LVL90
 16043 2af7 0A00     		.2byte	0xa
 16044 2af9 7E       		.byte	0x7e
 16045 2afa 04       		.sleb128 4
 16046 2afb 06       		.byte	0x6
 16047 2afc 0C       		.byte	0xc
 16048 2afd FFFFFF1F 		.4byte	0x1fffffff
 16049 2b01 1A       		.byte	0x1a
 16050 2b02 9F       		.byte	0x9f
 16051 2b03 68000000 		.4byte	.LVL91
 16052 2b07 76000000 		.4byte	.LVL94
 16053 2b0b 0A00     		.2byte	0xa
 16054 2b0d 7E       		.byte	0x7e
 16055 2b0e 04       		.sleb128 4
 16056 2b0f 06       		.byte	0x6
 16057 2b10 0C       		.byte	0xc
 16058 2b11 FFFFFF1F 		.4byte	0x1fffffff
 16059 2b15 1A       		.byte	0x1a
 16060 2b16 9F       		.byte	0x9f
 16061 2b17 7C000000 		.4byte	.LVL95
 16062 2b1b 84000000 		.4byte	.LVL97
 16063 2b1f 0A00     		.2byte	0xa
 16064 2b21 7E       		.byte	0x7e
 16065 2b22 04       		.sleb128 4
 16066 2b23 06       		.byte	0x6
 16067 2b24 0C       		.byte	0xc
 16068 2b25 FFFFFF1F 		.4byte	0x1fffffff
 16069 2b29 1A       		.byte	0x1a
 16070 2b2a 9F       		.byte	0x9f
 16071 2b2b 00000000 		.4byte	0
 16072 2b2f 00000000 		.4byte	0
 16073              	.LLST40:
ARM GAS  /tmp/cc2f1tkm.s 			page 283


 16074 2b33 2C000000 		.4byte	.LVL83
 16075 2b37 34000000 		.4byte	.LVL85
 16076 2b3b 0100     		.2byte	0x1
 16077 2b3d 54       		.byte	0x54
 16078 2b3e 46000000 		.4byte	.LVL88
 16079 2b42 4C000000 		.4byte	.LVL90
 16080 2b46 0100     		.2byte	0x1
 16081 2b48 54       		.byte	0x54
 16082 2b49 68000000 		.4byte	.LVL91
 16083 2b4d 6A000000 		.4byte	.LVL92
 16084 2b51 0100     		.2byte	0x1
 16085 2b53 54       		.byte	0x54
 16086 2b54 6A000000 		.4byte	.LVL92
 16087 2b58 74000000 		.4byte	.LVL93
 16088 2b5c 0900     		.2byte	0x9
 16089 2b5e 73       		.byte	0x73
 16090 2b5f 00       		.sleb128 0
 16091 2b60 0C       		.byte	0xc
 16092 2b61 FFFFFF1F 		.4byte	0x1fffffff
 16093 2b65 1A       		.byte	0x1a
 16094 2b66 9F       		.byte	0x9f
 16095 2b67 74000000 		.4byte	.LVL93
 16096 2b6b 76000000 		.4byte	.LVL94
 16097 2b6f 0A00     		.2byte	0xa
 16098 2b71 72       		.byte	0x72
 16099 2b72 04       		.sleb128 4
 16100 2b73 06       		.byte	0x6
 16101 2b74 0C       		.byte	0xc
 16102 2b75 FFFFFF1F 		.4byte	0x1fffffff
 16103 2b79 1A       		.byte	0x1a
 16104 2b7a 9F       		.byte	0x9f
 16105 2b7b 7C000000 		.4byte	.LVL95
 16106 2b7f 84000000 		.4byte	.LVL97
 16107 2b83 0100     		.2byte	0x1
 16108 2b85 54       		.byte	0x54
 16109 2b86 00000000 		.4byte	0
 16110 2b8a 00000000 		.4byte	0
 16111              	.LLST41:
 16112 2b8e 2C000000 		.4byte	.LVL83
 16113 2b92 34000000 		.4byte	.LVL85
 16114 2b96 0600     		.2byte	0x6
 16115 2b98 7E       		.byte	0x7e
 16116 2b99 04       		.sleb128 4
 16117 2b9a 06       		.byte	0x6
 16118 2b9b 30       		.byte	0x30
 16119 2b9c 2D       		.byte	0x2d
 16120 2b9d 9F       		.byte	0x9f
 16121 2b9e 46000000 		.4byte	.LVL88
 16122 2ba2 4C000000 		.4byte	.LVL90
 16123 2ba6 0600     		.2byte	0x6
 16124 2ba8 7E       		.byte	0x7e
 16125 2ba9 04       		.sleb128 4
 16126 2baa 06       		.byte	0x6
 16127 2bab 30       		.byte	0x30
 16128 2bac 2D       		.byte	0x2d
 16129 2bad 9F       		.byte	0x9f
 16130 2bae 68000000 		.4byte	.LVL91
ARM GAS  /tmp/cc2f1tkm.s 			page 284


 16131 2bb2 76000000 		.4byte	.LVL94
 16132 2bb6 0600     		.2byte	0x6
 16133 2bb8 7E       		.byte	0x7e
 16134 2bb9 04       		.sleb128 4
 16135 2bba 06       		.byte	0x6
 16136 2bbb 30       		.byte	0x30
 16137 2bbc 2D       		.byte	0x2d
 16138 2bbd 9F       		.byte	0x9f
 16139 2bbe 7C000000 		.4byte	.LVL95
 16140 2bc2 84000000 		.4byte	.LVL97
 16141 2bc6 0600     		.2byte	0x6
 16142 2bc8 7E       		.byte	0x7e
 16143 2bc9 04       		.sleb128 4
 16144 2bca 06       		.byte	0x6
 16145 2bcb 30       		.byte	0x30
 16146 2bcc 2D       		.byte	0x2d
 16147 2bcd 9F       		.byte	0x9f
 16148 2bce 00000000 		.4byte	0
 16149 2bd2 00000000 		.4byte	0
 16150              	.LLST42:
 16151 2bd6 2C000000 		.4byte	.LVL83
 16152 2bda 34000000 		.4byte	.LVL85
 16153 2bde 0500     		.2byte	0x5
 16154 2be0 73       		.byte	0x73
 16155 2be1 00       		.sleb128 0
 16156 2be2 30       		.byte	0x30
 16157 2be3 2D       		.byte	0x2d
 16158 2be4 9F       		.byte	0x9f
 16159 2be5 46000000 		.4byte	.LVL88
 16160 2be9 4C000000 		.4byte	.LVL90
 16161 2bed 0500     		.2byte	0x5
 16162 2bef 73       		.byte	0x73
 16163 2bf0 00       		.sleb128 0
 16164 2bf1 30       		.byte	0x30
 16165 2bf2 2D       		.byte	0x2d
 16166 2bf3 9F       		.byte	0x9f
 16167 2bf4 68000000 		.4byte	.LVL91
 16168 2bf8 74000000 		.4byte	.LVL93
 16169 2bfc 0500     		.2byte	0x5
 16170 2bfe 73       		.byte	0x73
 16171 2bff 00       		.sleb128 0
 16172 2c00 30       		.byte	0x30
 16173 2c01 2D       		.byte	0x2d
 16174 2c02 9F       		.byte	0x9f
 16175 2c03 74000000 		.4byte	.LVL93
 16176 2c07 76000000 		.4byte	.LVL94
 16177 2c0b 0600     		.2byte	0x6
 16178 2c0d 72       		.byte	0x72
 16179 2c0e 04       		.sleb128 4
 16180 2c0f 06       		.byte	0x6
 16181 2c10 30       		.byte	0x30
 16182 2c11 2D       		.byte	0x2d
 16183 2c12 9F       		.byte	0x9f
 16184 2c13 7C000000 		.4byte	.LVL95
 16185 2c17 80000000 		.4byte	.LVL96
 16186 2c1b 0500     		.2byte	0x5
 16187 2c1d 73       		.byte	0x73
ARM GAS  /tmp/cc2f1tkm.s 			page 285


 16188 2c1e 00       		.sleb128 0
 16189 2c1f 30       		.byte	0x30
 16190 2c20 2D       		.byte	0x2d
 16191 2c21 9F       		.byte	0x9f
 16192 2c22 80000000 		.4byte	.LVL96
 16193 2c26 84000000 		.4byte	.LVL97
 16194 2c2a 0600     		.2byte	0x6
 16195 2c2c 72       		.byte	0x72
 16196 2c2d 04       		.sleb128 4
 16197 2c2e 06       		.byte	0x6
 16198 2c2f 30       		.byte	0x30
 16199 2c30 2D       		.byte	0x2d
 16200 2c31 9F       		.byte	0x9f
 16201 2c32 00000000 		.4byte	0
 16202 2c36 00000000 		.4byte	0
 16203              	.LLST43:
 16204 2c3a 48000000 		.4byte	.LVL89
 16205 2c3e 4C000000 		.4byte	.LVL90
 16206 2c42 0A00     		.2byte	0xa
 16207 2c44 7E       		.byte	0x7e
 16208 2c45 04       		.sleb128 4
 16209 2c46 06       		.byte	0x6
 16210 2c47 40       		.byte	0x40
 16211 2c48 4A       		.byte	0x4a
 16212 2c49 24       		.byte	0x24
 16213 2c4a 1A       		.byte	0x1a
 16214 2c4b 30       		.byte	0x30
 16215 2c4c 2E       		.byte	0x2e
 16216 2c4d 9F       		.byte	0x9f
 16217 2c4e 7C000000 		.4byte	.LVL95
 16218 2c52 84000000 		.4byte	.LVL97
 16219 2c56 0A00     		.2byte	0xa
 16220 2c58 7E       		.byte	0x7e
 16221 2c59 04       		.sleb128 4
 16222 2c5a 06       		.byte	0x6
 16223 2c5b 40       		.byte	0x40
 16224 2c5c 4A       		.byte	0x4a
 16225 2c5d 24       		.byte	0x24
 16226 2c5e 1A       		.byte	0x1a
 16227 2c5f 30       		.byte	0x30
 16228 2c60 2E       		.byte	0x2e
 16229 2c61 9F       		.byte	0x9f
 16230 2c62 00000000 		.4byte	0
 16231 2c66 00000000 		.4byte	0
 16232              	.LLST44:
 16233 2c6a 48000000 		.4byte	.LVL89
 16234 2c6e 4C000000 		.4byte	.LVL90
 16235 2c72 0900     		.2byte	0x9
 16236 2c74 73       		.byte	0x73
 16237 2c75 00       		.sleb128 0
 16238 2c76 40       		.byte	0x40
 16239 2c77 4A       		.byte	0x4a
 16240 2c78 24       		.byte	0x24
 16241 2c79 1A       		.byte	0x1a
 16242 2c7a 30       		.byte	0x30
 16243 2c7b 2E       		.byte	0x2e
 16244 2c7c 9F       		.byte	0x9f
ARM GAS  /tmp/cc2f1tkm.s 			page 286


 16245 2c7d 7C000000 		.4byte	.LVL95
 16246 2c81 80000000 		.4byte	.LVL96
 16247 2c85 0900     		.2byte	0x9
 16248 2c87 73       		.byte	0x73
 16249 2c88 00       		.sleb128 0
 16250 2c89 40       		.byte	0x40
 16251 2c8a 4A       		.byte	0x4a
 16252 2c8b 24       		.byte	0x24
 16253 2c8c 1A       		.byte	0x1a
 16254 2c8d 30       		.byte	0x30
 16255 2c8e 2E       		.byte	0x2e
 16256 2c8f 9F       		.byte	0x9f
 16257 2c90 80000000 		.4byte	.LVL96
 16258 2c94 84000000 		.4byte	.LVL97
 16259 2c98 0A00     		.2byte	0xa
 16260 2c9a 72       		.byte	0x72
 16261 2c9b 04       		.sleb128 4
 16262 2c9c 06       		.byte	0x6
 16263 2c9d 40       		.byte	0x40
 16264 2c9e 4A       		.byte	0x4a
 16265 2c9f 24       		.byte	0x24
 16266 2ca0 1A       		.byte	0x1a
 16267 2ca1 30       		.byte	0x30
 16268 2ca2 2E       		.byte	0x2e
 16269 2ca3 9F       		.byte	0x9f
 16270 2ca4 00000000 		.4byte	0
 16271 2ca8 00000000 		.4byte	0
 16272              	.LLST45:
 16273 2cac 30000000 		.4byte	.LVL84
 16274 2cb0 34000000 		.4byte	.LVL85
 16275 2cb4 0100     		.2byte	0x1
 16276 2cb6 54       		.byte	0x54
 16277 2cb7 6A000000 		.4byte	.LVL92
 16278 2cbb 7C000000 		.4byte	.LVL95
 16279 2cbf 0100     		.2byte	0x1
 16280 2cc1 54       		.byte	0x54
 16281 2cc2 00000000 		.4byte	0
 16282 2cc6 00000000 		.4byte	0
 16283              	.LLST46:
 16284 2cca 00000000 		.4byte	.LVL100
 16285 2cce 3C000000 		.4byte	.LVL103
 16286 2cd2 0100     		.2byte	0x1
 16287 2cd4 50       		.byte	0x50
 16288 2cd5 3C000000 		.4byte	.LVL103
 16289 2cd9 4A000000 		.4byte	.LVL105
 16290 2cdd 0100     		.2byte	0x1
 16291 2cdf 58       		.byte	0x58
 16292 2ce0 4A000000 		.4byte	.LVL105
 16293 2ce4 F6000000 		.4byte	.LVL123
 16294 2ce8 0200     		.2byte	0x2
 16295 2cea 91       		.byte	0x91
 16296 2ceb 4C       		.sleb128 -52
 16297 2cec F6000000 		.4byte	.LVL123
 16298 2cf0 02010000 		.4byte	.LVL124
 16299 2cf4 0400     		.2byte	0x4
 16300 2cf6 F3       		.byte	0xf3
 16301 2cf7 01       		.uleb128 0x1
ARM GAS  /tmp/cc2f1tkm.s 			page 287


 16302 2cf8 50       		.byte	0x50
 16303 2cf9 9F       		.byte	0x9f
 16304 2cfa 02010000 		.4byte	.LVL124
 16305 2cfe 0A010000 		.4byte	.LVL127
 16306 2d02 0100     		.2byte	0x1
 16307 2d04 50       		.byte	0x50
 16308 2d05 0A010000 		.4byte	.LVL127
 16309 2d09 4A010000 		.4byte	.LVL132
 16310 2d0d 0100     		.2byte	0x1
 16311 2d0f 58       		.byte	0x58
 16312 2d10 4A010000 		.4byte	.LVL132
 16313 2d14 52010000 		.4byte	.LVL133
 16314 2d18 0400     		.2byte	0x4
 16315 2d1a F3       		.byte	0xf3
 16316 2d1b 01       		.uleb128 0x1
 16317 2d1c 50       		.byte	0x50
 16318 2d1d 9F       		.byte	0x9f
 16319 2d1e 52010000 		.4byte	.LVL133
 16320 2d22 6C010000 		.4byte	.LVL137
 16321 2d26 0200     		.2byte	0x2
 16322 2d28 91       		.byte	0x91
 16323 2d29 4C       		.sleb128 -52
 16324 2d2a 6C010000 		.4byte	.LVL137
 16325 2d2e 72010000 		.4byte	.LFE18
 16326 2d32 0100     		.2byte	0x1
 16327 2d34 50       		.byte	0x50
 16328 2d35 00000000 		.4byte	0
 16329 2d39 00000000 		.4byte	0
 16330              	.LLST47:
 16331 2d3d 00000000 		.4byte	.LVL100
 16332 2d41 4D000000 		.4byte	.LVL106-1
 16333 2d45 0100     		.2byte	0x1
 16334 2d47 51       		.byte	0x51
 16335 2d48 4D000000 		.4byte	.LVL106-1
 16336 2d4c 02010000 		.4byte	.LVL124
 16337 2d50 0200     		.2byte	0x2
 16338 2d52 91       		.byte	0x91
 16339 2d53 44       		.sleb128 -60
 16340 2d54 02010000 		.4byte	.LVL124
 16341 2d58 0D010000 		.4byte	.LVL128-1
 16342 2d5c 0100     		.2byte	0x1
 16343 2d5e 51       		.byte	0x51
 16344 2d5f 0D010000 		.4byte	.LVL128-1
 16345 2d63 4A010000 		.4byte	.LVL132
 16346 2d67 0200     		.2byte	0x2
 16347 2d69 91       		.byte	0x91
 16348 2d6a 44       		.sleb128 -60
 16349 2d6b 4A010000 		.4byte	.LVL132
 16350 2d6f 52010000 		.4byte	.LVL133
 16351 2d73 0400     		.2byte	0x4
 16352 2d75 F3       		.byte	0xf3
 16353 2d76 01       		.uleb128 0x1
 16354 2d77 51       		.byte	0x51
 16355 2d78 9F       		.byte	0x9f
 16356 2d79 52010000 		.4byte	.LVL133
 16357 2d7d 6C010000 		.4byte	.LVL137
 16358 2d81 0200     		.2byte	0x2
ARM GAS  /tmp/cc2f1tkm.s 			page 288


 16359 2d83 91       		.byte	0x91
 16360 2d84 44       		.sleb128 -60
 16361 2d85 6C010000 		.4byte	.LVL137
 16362 2d89 72010000 		.4byte	.LFE18
 16363 2d8d 0100     		.2byte	0x1
 16364 2d8f 51       		.byte	0x51
 16365 2d90 00000000 		.4byte	0
 16366 2d94 00000000 		.4byte	0
 16367              	.LLST48:
 16368 2d98 00000000 		.4byte	.LVL100
 16369 2d9c 4D000000 		.4byte	.LVL106-1
 16370 2da0 0100     		.2byte	0x1
 16371 2da2 52       		.byte	0x52
 16372 2da3 4D000000 		.4byte	.LVL106-1
 16373 2da7 02010000 		.4byte	.LVL124
 16374 2dab 0200     		.2byte	0x2
 16375 2dad 91       		.byte	0x91
 16376 2dae 48       		.sleb128 -56
 16377 2daf 02010000 		.4byte	.LVL124
 16378 2db3 0D010000 		.4byte	.LVL128-1
 16379 2db7 0100     		.2byte	0x1
 16380 2db9 52       		.byte	0x52
 16381 2dba 0D010000 		.4byte	.LVL128-1
 16382 2dbe 4A010000 		.4byte	.LVL132
 16383 2dc2 0200     		.2byte	0x2
 16384 2dc4 91       		.byte	0x91
 16385 2dc5 48       		.sleb128 -56
 16386 2dc6 4A010000 		.4byte	.LVL132
 16387 2dca 52010000 		.4byte	.LVL133
 16388 2dce 0400     		.2byte	0x4
 16389 2dd0 F3       		.byte	0xf3
 16390 2dd1 01       		.uleb128 0x1
 16391 2dd2 52       		.byte	0x52
 16392 2dd3 9F       		.byte	0x9f
 16393 2dd4 52010000 		.4byte	.LVL133
 16394 2dd8 6C010000 		.4byte	.LVL137
 16395 2ddc 0200     		.2byte	0x2
 16396 2dde 91       		.byte	0x91
 16397 2ddf 48       		.sleb128 -56
 16398 2de0 6C010000 		.4byte	.LVL137
 16399 2de4 72010000 		.4byte	.LFE18
 16400 2de8 0100     		.2byte	0x1
 16401 2dea 52       		.byte	0x52
 16402 2deb 00000000 		.4byte	0
 16403 2def 00000000 		.4byte	0
 16404              	.LLST49:
 16405 2df3 00000000 		.4byte	.LVL100
 16406 2df7 20000000 		.4byte	.LVL101
 16407 2dfb 0100     		.2byte	0x1
 16408 2dfd 53       		.byte	0x53
 16409 2dfe 20000000 		.4byte	.LVL101
 16410 2e02 02010000 		.4byte	.LVL124
 16411 2e06 0400     		.2byte	0x4
 16412 2e08 F3       		.byte	0xf3
 16413 2e09 01       		.uleb128 0x1
 16414 2e0a 53       		.byte	0x53
 16415 2e0b 9F       		.byte	0x9f
ARM GAS  /tmp/cc2f1tkm.s 			page 289


 16416 2e0c 02010000 		.4byte	.LVL124
 16417 2e10 06010000 		.4byte	.LVL125
 16418 2e14 0100     		.2byte	0x1
 16419 2e16 53       		.byte	0x53
 16420 2e17 06010000 		.4byte	.LVL125
 16421 2e1b 72010000 		.4byte	.LFE18
 16422 2e1f 0400     		.2byte	0x4
 16423 2e21 F3       		.byte	0xf3
 16424 2e22 01       		.uleb128 0x1
 16425 2e23 53       		.byte	0x53
 16426 2e24 9F       		.byte	0x9f
 16427 2e25 00000000 		.4byte	0
 16428 2e29 00000000 		.4byte	0
 16429              	.LLST50:
 16430 2e2d 00000000 		.4byte	.LVL100
 16431 2e31 02010000 		.4byte	.LVL124
 16432 2e35 0200     		.2byte	0x2
 16433 2e37 91       		.byte	0x91
 16434 2e38 00       		.sleb128 0
 16435 2e39 02010000 		.4byte	.LVL124
 16436 2e3d 72010000 		.4byte	.LFE18
 16437 2e41 0200     		.2byte	0x2
 16438 2e43 91       		.byte	0x91
 16439 2e44 00       		.sleb128 0
 16440 2e45 00000000 		.4byte	0
 16441 2e49 00000000 		.4byte	0
 16442              	.LLST51:
 16443 2e4d 00000000 		.4byte	.LVL100
 16444 2e51 02010000 		.4byte	.LVL124
 16445 2e55 0200     		.2byte	0x2
 16446 2e57 91       		.byte	0x91
 16447 2e58 04       		.sleb128 4
 16448 2e59 02010000 		.4byte	.LVL124
 16449 2e5d 72010000 		.4byte	.LFE18
 16450 2e61 0200     		.2byte	0x2
 16451 2e63 91       		.byte	0x91
 16452 2e64 04       		.sleb128 4
 16453 2e65 00000000 		.4byte	0
 16454 2e69 00000000 		.4byte	0
 16455              	.LLST52:
 16456 2e6d 26000000 		.4byte	.LVL102
 16457 2e71 02010000 		.4byte	.LVL124
 16458 2e75 0200     		.2byte	0x2
 16459 2e77 30       		.byte	0x30
 16460 2e78 9F       		.byte	0x9f
 16461 2e79 08010000 		.4byte	.LVL126
 16462 2e7d 48010000 		.4byte	.LVL131
 16463 2e81 0200     		.2byte	0x2
 16464 2e83 30       		.byte	0x30
 16465 2e84 9F       		.byte	0x9f
 16466 2e85 48010000 		.4byte	.LVL131
 16467 2e89 4A010000 		.4byte	.LVL132
 16468 2e8d 0200     		.2byte	0x2
 16469 2e8f 31       		.byte	0x31
 16470 2e90 9F       		.byte	0x9f
 16471 2e91 52010000 		.4byte	.LVL133
 16472 2e95 6C010000 		.4byte	.LVL137
ARM GAS  /tmp/cc2f1tkm.s 			page 290


 16473 2e99 0200     		.2byte	0x2
 16474 2e9b 30       		.byte	0x30
 16475 2e9c 9F       		.byte	0x9f
 16476 2e9d 00000000 		.4byte	0
 16477 2ea1 00000000 		.4byte	0
 16478              	.LLST53:
 16479 2ea5 46000000 		.4byte	.LVL104
 16480 2ea9 6A000000 		.4byte	.LVL109
 16481 2ead 0100     		.2byte	0x1
 16482 2eaf 54       		.byte	0x54
 16483 2eb0 6E000000 		.4byte	.LVL110
 16484 2eb4 94000000 		.4byte	.LVL112
 16485 2eb8 0100     		.2byte	0x1
 16486 2eba 54       		.byte	0x54
 16487 2ebb 9E000000 		.4byte	.LVL113
 16488 2ebf B0000000 		.4byte	.LVL114
 16489 2ec3 0100     		.2byte	0x1
 16490 2ec5 54       		.byte	0x54
 16491 2ec6 E6000000 		.4byte	.LVL120
 16492 2eca F6000000 		.4byte	.LVL123
 16493 2ece 0100     		.2byte	0x1
 16494 2ed0 54       		.byte	0x54
 16495 2ed1 52010000 		.4byte	.LVL133
 16496 2ed5 5C010000 		.4byte	.LVL134
 16497 2ed9 0100     		.2byte	0x1
 16498 2edb 54       		.byte	0x54
 16499 2edc 64010000 		.4byte	.LVL136
 16500 2ee0 6C010000 		.4byte	.LVL137
 16501 2ee4 0100     		.2byte	0x1
 16502 2ee6 54       		.byte	0x54
 16503 2ee7 00000000 		.4byte	0
 16504 2eeb 00000000 		.4byte	0
 16505              	.LLST54:
 16506 2eef 46000000 		.4byte	.LVL104
 16507 2ef3 E4000000 		.4byte	.LVL119
 16508 2ef7 0100     		.2byte	0x1
 16509 2ef9 57       		.byte	0x57
 16510 2efa E6000000 		.4byte	.LVL120
 16511 2efe F6000000 		.4byte	.LVL123
 16512 2f02 0100     		.2byte	0x1
 16513 2f04 57       		.byte	0x57
 16514 2f05 52010000 		.4byte	.LVL133
 16515 2f09 6C010000 		.4byte	.LVL137
 16516 2f0d 0100     		.2byte	0x1
 16517 2f0f 57       		.byte	0x57
 16518 2f10 00000000 		.4byte	0
 16519 2f14 00000000 		.4byte	0
 16520              	.LLST55:
 16521 2f18 46000000 		.4byte	.LVL104
 16522 2f1c C2000000 		.4byte	.LVL115
 16523 2f20 0100     		.2byte	0x1
 16524 2f22 5A       		.byte	0x5a
 16525 2f23 E6000000 		.4byte	.LVL120
 16526 2f27 EC000000 		.4byte	.LVL121
 16527 2f2b 0200     		.2byte	0x2
 16528 2f2d 30       		.byte	0x30
 16529 2f2e 9F       		.byte	0x9f
ARM GAS  /tmp/cc2f1tkm.s 			page 291


 16530 2f2f EC000000 		.4byte	.LVL121
 16531 2f33 F6000000 		.4byte	.LVL123
 16532 2f37 0100     		.2byte	0x1
 16533 2f39 5A       		.byte	0x5a
 16534 2f3a 52010000 		.4byte	.LVL133
 16535 2f3e 62010000 		.4byte	.LVL135
 16536 2f42 0100     		.2byte	0x1
 16537 2f44 5A       		.byte	0x5a
 16538 2f45 64010000 		.4byte	.LVL136
 16539 2f49 6C010000 		.4byte	.LVL137
 16540 2f4d 0100     		.2byte	0x1
 16541 2f4f 5A       		.byte	0x5a
 16542 2f50 00000000 		.4byte	0
 16543 2f54 00000000 		.4byte	0
 16544              	.LLST56:
 16545 2f58 4E000000 		.4byte	.LVL106
 16546 2f5c D8000000 		.4byte	.LVL116
 16547 2f60 0100     		.2byte	0x1
 16548 2f62 50       		.byte	0x50
 16549 2f63 D8000000 		.4byte	.LVL116
 16550 2f67 DB000000 		.4byte	.LVL117-1
 16551 2f6b 0100     		.2byte	0x1
 16552 2f6d 51       		.byte	0x51
 16553 2f6e F2000000 		.4byte	.LVL122
 16554 2f72 F6000000 		.4byte	.LVL123
 16555 2f76 0100     		.2byte	0x1
 16556 2f78 50       		.byte	0x50
 16557 2f79 52010000 		.4byte	.LVL133
 16558 2f7d 6C010000 		.4byte	.LVL137
 16559 2f81 0100     		.2byte	0x1
 16560 2f83 50       		.byte	0x50
 16561 2f84 00000000 		.4byte	0
 16562 2f88 00000000 		.4byte	0
 16563              	.LLST57:
 16564 2f8c 52000000 		.4byte	.LVL107
 16565 2f90 5E000000 		.4byte	.LVL108
 16566 2f94 0200     		.2byte	0x2
 16567 2f96 30       		.byte	0x30
 16568 2f97 9F       		.byte	0x9f
 16569 2f98 82000000 		.4byte	.LVL111
 16570 2f9c 9E000000 		.4byte	.LVL113
 16571 2fa0 0100     		.2byte	0x1
 16572 2fa2 51       		.byte	0x51
 16573 2fa3 5C010000 		.4byte	.LVL134
 16574 2fa7 64010000 		.4byte	.LVL136
 16575 2fab 0100     		.2byte	0x1
 16576 2fad 51       		.byte	0x51
 16577 2fae 00000000 		.4byte	0
 16578 2fb2 00000000 		.4byte	0
 16579              	.LLST58:
 16580 2fb6 0E010000 		.4byte	.LVL128
 16581 2fba 1A010000 		.4byte	.LVL129
 16582 2fbe 0100     		.2byte	0x1
 16583 2fc0 50       		.byte	0x50
 16584 2fc1 1A010000 		.4byte	.LVL129
 16585 2fc5 4A010000 		.4byte	.LVL132
 16586 2fc9 0100     		.2byte	0x1
ARM GAS  /tmp/cc2f1tkm.s 			page 292


 16587 2fcb 54       		.byte	0x54
 16588 2fcc 00000000 		.4byte	0
 16589 2fd0 00000000 		.4byte	0
 16590              	.LLST71:
 16591 2fd4 00000000 		.4byte	.LVL155
 16592 2fd8 02000000 		.4byte	.LVL156
 16593 2fdc 0100     		.2byte	0x1
 16594 2fde 50       		.byte	0x50
 16595 2fdf 02000000 		.4byte	.LVL156
 16596 2fe3 04000000 		.4byte	.LFE3
 16597 2fe7 0400     		.2byte	0x4
 16598 2fe9 F3       		.byte	0xf3
 16599 2fea 01       		.uleb128 0x1
 16600 2feb 50       		.byte	0x50
 16601 2fec 9F       		.byte	0x9f
 16602 2fed 00000000 		.4byte	0
 16603 2ff1 00000000 		.4byte	0
 16604              	.LLST259:
 16605 2ff5 0C000000 		.4byte	.LVL503
 16606 2ff9 0E000000 		.4byte	.LVL504
 16607 2ffd 0100     		.2byte	0x1
 16608 2fff 54       		.byte	0x54
 16609 3000 10000000 		.4byte	.LVL505
 16610 3004 20000000 		.4byte	.LVL507
 16611 3008 0100     		.2byte	0x1
 16612 300a 54       		.byte	0x54
 16613 300b 00000000 		.4byte	0
 16614 300f 00000000 		.4byte	0
 16615              	.LLST260:
 16616 3013 0C000000 		.4byte	.LVL503
 16617 3017 0E000000 		.4byte	.LVL504
 16618 301b 0300     		.2byte	0x3
 16619 301d 70       		.byte	0x70
 16620 301e 0C       		.sleb128 12
 16621 301f 9F       		.byte	0x9f
 16622 3020 10000000 		.4byte	.LVL505
 16623 3024 20000000 		.4byte	.LVL507
 16624 3028 0300     		.2byte	0x3
 16625 302a 70       		.byte	0x70
 16626 302b 0C       		.sleb128 12
 16627 302c 9F       		.byte	0x9f
 16628 302d 00000000 		.4byte	0
 16629 3031 00000000 		.4byte	0
 16630              	.LLST262:
 16631 3035 10000000 		.4byte	.LVL505
 16632 3039 16000000 		.4byte	.LVL506
 16633 303d 0100     		.2byte	0x1
 16634 303f 53       		.byte	0x53
 16635 3040 00000000 		.4byte	0
 16636 3044 00000000 		.4byte	0
 16637              	.LLST263:
 16638 3048 0C000000 		.4byte	.LVL503
 16639 304c 0E000000 		.4byte	.LVL504
 16640 3050 0100     		.2byte	0x1
 16641 3052 53       		.byte	0x53
 16642 3053 10000000 		.4byte	.LVL505
 16643 3057 20000000 		.4byte	.LVL507
ARM GAS  /tmp/cc2f1tkm.s 			page 293


 16644 305b 0100     		.2byte	0x1
 16645 305d 53       		.byte	0x53
 16646 305e 00000000 		.4byte	0
 16647 3062 00000000 		.4byte	0
 16648              		.section	.debug_aranges,"",%progbits
 16649 0000 C4000000 		.4byte	0xc4
 16650 0004 0200     		.2byte	0x2
 16651 0006 00000000 		.4byte	.Ldebug_info0
 16652 000a 04       		.byte	0x4
 16653 000b 00       		.byte	0
 16654 000c 0000     		.2byte	0
 16655 000e 0000     		.2byte	0
 16656 0010 00000000 		.4byte	.LFB30
 16657 0014 88010000 		.4byte	.LFE30-.LFB30
 16658 0018 00000000 		.4byte	.LFB32
 16659 001c 70000000 		.4byte	.LFE32-.LFB32
 16660 0020 00000000 		.4byte	.LFB20
 16661 0024 32000000 		.4byte	.LFE20-.LFB20
 16662 0028 00000000 		.4byte	.LFB28
 16663 002c 48000000 		.4byte	.LFE28-.LFB28
 16664 0030 00000000 		.4byte	.LFB42
 16665 0034 9E000000 		.4byte	.LFE42-.LFB42
 16666 0038 00000000 		.4byte	.LFB18
 16667 003c 72010000 		.4byte	.LFE18-.LFB18
 16668 0040 00000000 		.4byte	.LFB0
 16669 0044 52000000 		.4byte	.LFE0-.LFB0
 16670 0048 00000000 		.4byte	.LFB1
 16671 004c 04000000 		.4byte	.LFE1-.LFB1
 16672 0050 00000000 		.4byte	.LFB2
 16673 0054 0E000000 		.4byte	.LFE2-.LFB2
 16674 0058 00000000 		.4byte	.LFB3
 16675 005c 04000000 		.4byte	.LFE3-.LFB3
 16676 0060 00000000 		.4byte	.LFB4
 16677 0064 56010000 		.4byte	.LFE4-.LFB4
 16678 0068 00000000 		.4byte	.LFB5
 16679 006c 02010000 		.4byte	.LFE5-.LFB5
 16680 0070 00000000 		.4byte	.LFB6
 16681 0074 08000000 		.4byte	.LFE6-.LFB6
 16682 0078 00000000 		.4byte	.LFB7
 16683 007c 1A000000 		.4byte	.LFE7-.LFB7
 16684 0080 00000000 		.4byte	.LFB8
 16685 0084 9A050000 		.4byte	.LFE8-.LFB8
 16686 0088 00000000 		.4byte	.LFB9
 16687 008c E4000000 		.4byte	.LFE9-.LFB9
 16688 0090 00000000 		.4byte	.LFB10
 16689 0094 0E030000 		.4byte	.LFE10-.LFB10
 16690 0098 00000000 		.4byte	.LFB11
 16691 009c 96000000 		.4byte	.LFE11-.LFB11
 16692 00a0 00000000 		.4byte	.LFB12
 16693 00a4 2E000000 		.4byte	.LFE12-.LFB12
 16694 00a8 00000000 		.4byte	.LFB13
 16695 00ac 0E000000 		.4byte	.LFE13-.LFB13
 16696 00b0 00000000 		.4byte	.LFB14
 16697 00b4 5C000000 		.4byte	.LFE14-.LFB14
 16698 00b8 00000000 		.4byte	.LFB15
 16699 00bc 44000000 		.4byte	.LFE15-.LFB15
 16700 00c0 00000000 		.4byte	0
ARM GAS  /tmp/cc2f1tkm.s 			page 294


 16701 00c4 00000000 		.4byte	0
 16702              		.section	.debug_ranges,"",%progbits
 16703              	.Ldebug_ranges0:
 16704 0000 14000000 		.4byte	.LBB187
 16705 0004 2C000000 		.4byte	.LBE187
 16706 0008 32000000 		.4byte	.LBB188
 16707 000c 44000000 		.4byte	.LBE188
 16708 0010 00000000 		.4byte	0
 16709 0014 00000000 		.4byte	0
 16710 0018 90000000 		.4byte	.LBB193
 16711 001c 96000000 		.4byte	.LBE193
 16712 0020 42010000 		.4byte	.LBB207
 16713 0024 46010000 		.4byte	.LBE207
 16714 0028 4E010000 		.4byte	.LBB208
 16715 002c 68010000 		.4byte	.LBE208
 16716 0030 00000000 		.4byte	0
 16717 0034 00000000 		.4byte	0
 16718 0038 42010000 		.4byte	.LBB195
 16719 003c 46010000 		.4byte	.LBE195
 16720 0040 4E010000 		.4byte	.LBB198
 16721 0044 64010000 		.4byte	.LBE198
 16722 0048 00000000 		.4byte	0
 16723 004c 00000000 		.4byte	0
 16724 0050 1C000000 		.4byte	.LBB209
 16725 0054 62000000 		.4byte	.LBE209
 16726 0058 64000000 		.4byte	.LBB210
 16727 005c 6A000000 		.4byte	.LBE210
 16728 0060 00000000 		.4byte	0
 16729 0064 00000000 		.4byte	0
 16730 0068 00000000 		.4byte	.LBB211
 16731 006c 0E000000 		.4byte	.LBE211
 16732 0070 10000000 		.4byte	.LBB215
 16733 0074 18000000 		.4byte	.LBE215
 16734 0078 1A000000 		.4byte	.LBB216
 16735 007c 1C000000 		.4byte	.LBE216
 16736 0080 00000000 		.4byte	0
 16737 0084 00000000 		.4byte	0
 16738 0088 12000000 		.4byte	.LBB217
 16739 008c 14000000 		.4byte	.LBE217
 16740 0090 16000000 		.4byte	.LBB220
 16741 0094 2C000000 		.4byte	.LBE220
 16742 0098 00000000 		.4byte	0
 16743 009c 00000000 		.4byte	0
 16744 00a0 10000000 		.4byte	.LBB224
 16745 00a4 34000000 		.4byte	.LBE224
 16746 00a8 3E000000 		.4byte	.LBB232
 16747 00ac 54000000 		.4byte	.LBE232
 16748 00b0 68000000 		.4byte	.LBB233
 16749 00b4 76000000 		.4byte	.LBE233
 16750 00b8 7C000000 		.4byte	.LBB234
 16751 00bc 84000000 		.4byte	.LBE234
 16752 00c0 00000000 		.4byte	0
 16753 00c4 00000000 		.4byte	0
 16754 00c8 14000000 		.4byte	.LBB226
 16755 00cc 20000000 		.4byte	.LBE226
 16756 00d0 26000000 		.4byte	.LBB227
 16757 00d4 34000000 		.4byte	.LBE227
ARM GAS  /tmp/cc2f1tkm.s 			page 295


 16758 00d8 68000000 		.4byte	.LBB228
 16759 00dc 76000000 		.4byte	.LBE228
 16760 00e0 00000000 		.4byte	0
 16761 00e4 00000000 		.4byte	0
 16762 00e8 32000000 		.4byte	.LBB241
 16763 00ec FA000000 		.4byte	.LBE241
 16764 00f0 52010000 		.4byte	.LBB254
 16765 00f4 6C010000 		.4byte	.LBE254
 16766 00f8 00000000 		.4byte	0
 16767 00fc 00000000 		.4byte	0
 16768 0100 32000000 		.4byte	.LBB243
 16769 0104 36000000 		.4byte	.LBE243
 16770 0108 38000000 		.4byte	.LBB250
 16771 010c FA000000 		.4byte	.LBE250
 16772 0110 52010000 		.4byte	.LBB251
 16773 0114 6C010000 		.4byte	.LBE251
 16774 0118 00000000 		.4byte	0
 16775 011c 00000000 		.4byte	0
 16776 0120 32000000 		.4byte	.LBB244
 16777 0124 34000000 		.4byte	.LBE244
 16778 0128 38000000 		.4byte	.LBB245
 16779 012c 3E000000 		.4byte	.LBE245
 16780 0130 4A000000 		.4byte	.LBB246
 16781 0134 DE000000 		.4byte	.LBE246
 16782 0138 E0000000 		.4byte	.LBB247
 16783 013c EA000000 		.4byte	.LBE247
 16784 0140 EC000000 		.4byte	.LBB248
 16785 0144 FA000000 		.4byte	.LBE248
 16786 0148 52010000 		.4byte	.LBB249
 16787 014c 6C010000 		.4byte	.LBE249
 16788 0150 00000000 		.4byte	0
 16789 0154 00000000 		.4byte	0
 16790 0158 2A000000 		.4byte	.LBB255
 16791 015c 4A000000 		.4byte	.LBE255
 16792 0160 4E000000 		.4byte	.LBB258
 16793 0164 52000000 		.4byte	.LBE258
 16794 0168 00000000 		.4byte	0
 16795 016c 00000000 		.4byte	0
 16796 0170 2A000000 		.4byte	.LBB261
 16797 0174 82000000 		.4byte	.LBE261
 16798 0178 50010000 		.4byte	.LBB290
 16799 017c 56010000 		.4byte	.LBE290
 16800 0180 00000000 		.4byte	0
 16801 0184 00000000 		.4byte	0
 16802 0188 40000000 		.4byte	.LBB262
 16803 018c 42000000 		.4byte	.LBE262
 16804 0190 46000000 		.4byte	.LBB271
 16805 0194 72000000 		.4byte	.LBE271
 16806 0198 00000000 		.4byte	0
 16807 019c 00000000 		.4byte	0
 16808 01a0 46000000 		.4byte	.LBB264
 16809 01a4 4A000000 		.4byte	.LBE264
 16810 01a8 4C000000 		.4byte	.LBB269
 16811 01ac 6E000000 		.4byte	.LBE269
 16812 01b0 00000000 		.4byte	0
 16813 01b4 00000000 		.4byte	0
 16814 01b8 46000000 		.4byte	.LBB266
ARM GAS  /tmp/cc2f1tkm.s 			page 296


 16815 01bc 4A000000 		.4byte	.LBE266
 16816 01c0 56000000 		.4byte	.LBB267
 16817 01c4 6E000000 		.4byte	.LBE267
 16818 01c8 00000000 		.4byte	0
 16819 01cc 00000000 		.4byte	0
 16820 01d0 BC000000 		.4byte	.LBB276
 16821 01d4 C0000000 		.4byte	.LBE276
 16822 01d8 DC000000 		.4byte	.LBB281
 16823 01dc 04010000 		.4byte	.LBE281
 16824 01e0 00000000 		.4byte	0
 16825 01e4 00000000 		.4byte	0
 16826 01e8 BC000000 		.4byte	.LBB278
 16827 01ec C0000000 		.4byte	.LBE278
 16828 01f0 E4000000 		.4byte	.LBB279
 16829 01f4 04010000 		.4byte	.LBE279
 16830 01f8 00000000 		.4byte	0
 16831 01fc 00000000 		.4byte	0
 16832 0200 10010000 		.4byte	.LBB284
 16833 0204 14010000 		.4byte	.LBE284
 16834 0208 18010000 		.4byte	.LBB289
 16835 020c 3C010000 		.4byte	.LBE289
 16836 0210 00000000 		.4byte	0
 16837 0214 00000000 		.4byte	0
 16838 0218 10010000 		.4byte	.LBB286
 16839 021c 14010000 		.4byte	.LBE286
 16840 0220 22010000 		.4byte	.LBB287
 16841 0224 3C010000 		.4byte	.LBE287
 16842 0228 00000000 		.4byte	0
 16843 022c 00000000 		.4byte	0
 16844 0230 78000000 		.4byte	.LBB297
 16845 0234 7C000000 		.4byte	.LBE297
 16846 0238 96000000 		.4byte	.LBB302
 16847 023c BA000000 		.4byte	.LBE302
 16848 0240 00000000 		.4byte	0
 16849 0244 00000000 		.4byte	0
 16850 0248 78000000 		.4byte	.LBB299
 16851 024c 7C000000 		.4byte	.LBE299
 16852 0250 9E000000 		.4byte	.LBB300
 16853 0254 BA000000 		.4byte	.LBE300
 16854 0258 00000000 		.4byte	0
 16855 025c 00000000 		.4byte	0
 16856 0260 C6000000 		.4byte	.LBB305
 16857 0264 CA000000 		.4byte	.LBE305
 16858 0268 CE000000 		.4byte	.LBB310
 16859 026c F0000000 		.4byte	.LBE310
 16860 0270 00000000 		.4byte	0
 16861 0274 00000000 		.4byte	0
 16862 0278 C6000000 		.4byte	.LBB307
 16863 027c CA000000 		.4byte	.LBE307
 16864 0280 D8000000 		.4byte	.LBB308
 16865 0284 F0000000 		.4byte	.LBE308
 16866 0288 00000000 		.4byte	0
 16867 028c 00000000 		.4byte	0
 16868 0290 02000000 		.4byte	.LBB311
 16869 0294 06000000 		.4byte	.LBE311
 16870 0298 08000000 		.4byte	.LBB316
 16871 029c 0A000000 		.4byte	.LBE316
ARM GAS  /tmp/cc2f1tkm.s 			page 297


 16872 02a0 0E000000 		.4byte	.LBB317
 16873 02a4 10000000 		.4byte	.LBE317
 16874 02a8 14000000 		.4byte	.LBB318
 16875 02ac 18000000 		.4byte	.LBE318
 16876 02b0 00000000 		.4byte	0
 16877 02b4 00000000 		.4byte	0
 16878 02b8 06000000 		.4byte	.LBB395
 16879 02bc 0A000000 		.4byte	.LBE395
 16880 02c0 10000000 		.4byte	.LBB398
 16881 02c4 12000000 		.4byte	.LBE398
 16882 02c8 00000000 		.4byte	0
 16883 02cc 00000000 		.4byte	0
 16884 02d0 50000000 		.4byte	.LBB399
 16885 02d4 5A000000 		.4byte	.LBE399
 16886 02d8 20020000 		.4byte	.LBB439
 16887 02dc 30020000 		.4byte	.LBE439
 16888 02e0 00000000 		.4byte	0
 16889 02e4 00000000 		.4byte	0
 16890 02e8 84000000 		.4byte	.LBB405
 16891 02ec 18010000 		.4byte	.LBE405
 16892 02f0 6C030000 		.4byte	.LBB467
 16893 02f4 80030000 		.4byte	.LBE467
 16894 02f8 00000000 		.4byte	0
 16895 02fc 00000000 		.4byte	0
 16896 0300 9E000000 		.4byte	.LBB406
 16897 0304 C8000000 		.4byte	.LBE406
 16898 0308 6C030000 		.4byte	.LBB421
 16899 030c 80030000 		.4byte	.LBE421
 16900 0310 00000000 		.4byte	0
 16901 0314 00000000 		.4byte	0
 16902 0318 D2000000 		.4byte	.LBB415
 16903 031c D6000000 		.4byte	.LBE415
 16904 0320 F0000000 		.4byte	.LBB420
 16905 0324 12010000 		.4byte	.LBE420
 16906 0328 00000000 		.4byte	0
 16907 032c 00000000 		.4byte	0
 16908 0330 D2000000 		.4byte	.LBB417
 16909 0334 D6000000 		.4byte	.LBE417
 16910 0338 F8000000 		.4byte	.LBB418
 16911 033c 12010000 		.4byte	.LBE418
 16912 0340 00000000 		.4byte	0
 16913 0344 00000000 		.4byte	0
 16914 0348 20010000 		.4byte	.LBB422
 16915 034c 2E010000 		.4byte	.LBE422
 16916 0350 32010000 		.4byte	.LBB425
 16917 0354 3E010000 		.4byte	.LBE425
 16918 0358 00000000 		.4byte	0
 16919 035c 00000000 		.4byte	0
 16920 0360 70010000 		.4byte	.LBB426
 16921 0364 72010000 		.4byte	.LBE426
 16922 0368 7C010000 		.4byte	.LBB435
 16923 036c AC010000 		.4byte	.LBE435
 16924 0370 32020000 		.4byte	.LBB440
 16925 0374 34020000 		.4byte	.LBE440
 16926 0378 3E020000 		.4byte	.LBB441
 16927 037c 48020000 		.4byte	.LBE441
 16928 0380 EA040000 		.4byte	.LBB486
ARM GAS  /tmp/cc2f1tkm.s 			page 298


 16929 0384 F4040000 		.4byte	.LBE486
 16930 0388 00000000 		.4byte	0
 16931 038c 00000000 		.4byte	0
 16932 0390 74020000 		.4byte	.LBB442
 16933 0394 3C030000 		.4byte	.LBE442
 16934 0398 80030000 		.4byte	.LBB468
 16935 039c D0030000 		.4byte	.LBE468
 16936 03a0 56040000 		.4byte	.LBB485
 16937 03a4 EA040000 		.4byte	.LBE485
 16938 03a8 88050000 		.4byte	.LBB510
 16939 03ac 9A050000 		.4byte	.LBE510
 16940 03b0 00000000 		.4byte	0
 16941 03b4 00000000 		.4byte	0
 16942 03b8 90020000 		.4byte	.LBB443
 16943 03bc D6020000 		.4byte	.LBE443
 16944 03c0 94050000 		.4byte	.LBB464
 16945 03c4 9A050000 		.4byte	.LBE464
 16946 03c8 00000000 		.4byte	0
 16947 03cc 00000000 		.4byte	0
 16948 03d0 12030000 		.4byte	.LBB446
 16949 03d4 16030000 		.4byte	.LBE446
 16950 03d8 1A030000 		.4byte	.LBB451
 16951 03dc 3C030000 		.4byte	.LBE451
 16952 03e0 00000000 		.4byte	0
 16953 03e4 00000000 		.4byte	0
 16954 03e8 12030000 		.4byte	.LBB448
 16955 03ec 16030000 		.4byte	.LBE448
 16956 03f0 24030000 		.4byte	.LBB449
 16957 03f4 3C030000 		.4byte	.LBE449
 16958 03f8 00000000 		.4byte	0
 16959 03fc 00000000 		.4byte	0
 16960 0400 56040000 		.4byte	.LBB459
 16961 0404 C4040000 		.4byte	.LBE459
 16962 0408 8C050000 		.4byte	.LBB463
 16963 040c 94050000 		.4byte	.LBE463
 16964 0410 00000000 		.4byte	0
 16965 0414 00000000 		.4byte	0
 16966 0418 5C040000 		.4byte	.LBB460
 16967 041c C4040000 		.4byte	.LBE460
 16968 0420 8C050000 		.4byte	.LBB462
 16969 0424 94050000 		.4byte	.LBE462
 16970 0428 00000000 		.4byte	0
 16971 042c 00000000 		.4byte	0
 16972 0430 0C040000 		.4byte	.LBB472
 16973 0434 10040000 		.4byte	.LBE472
 16974 0438 14040000 		.4byte	.LBB477
 16975 043c 3C040000 		.4byte	.LBE477
 16976 0440 00000000 		.4byte	0
 16977 0444 00000000 		.4byte	0
 16978 0448 0C040000 		.4byte	.LBB474
 16979 044c 10040000 		.4byte	.LBE474
 16980 0450 1E040000 		.4byte	.LBB475
 16981 0454 3C040000 		.4byte	.LBE475
 16982 0458 00000000 		.4byte	0
 16983 045c 00000000 		.4byte	0
 16984 0460 44040000 		.4byte	.LBB481
 16985 0464 46040000 		.4byte	.LBE481
ARM GAS  /tmp/cc2f1tkm.s 			page 299


 16986 0468 48040000 		.4byte	.LBB484
 16987 046c 52040000 		.4byte	.LBE484
 16988 0470 00000000 		.4byte	0
 16989 0474 00000000 		.4byte	0
 16990 0478 F4040000 		.4byte	.LBB487
 16991 047c F6040000 		.4byte	.LBE487
 16992 0480 08050000 		.4byte	.LBB509
 16993 0484 88050000 		.4byte	.LBE509
 16994 0488 00000000 		.4byte	0
 16995 048c 00000000 		.4byte	0
 16996 0490 2A050000 		.4byte	.LBB490
 16997 0494 2E050000 		.4byte	.LBE490
 16998 0498 32050000 		.4byte	.LBB495
 16999 049c 54050000 		.4byte	.LBE495
 17000 04a0 00000000 		.4byte	0
 17001 04a4 00000000 		.4byte	0
 17002 04a8 2A050000 		.4byte	.LBB492
 17003 04ac 2E050000 		.4byte	.LBE492
 17004 04b0 3C050000 		.4byte	.LBB493
 17005 04b4 54050000 		.4byte	.LBE493
 17006 04b8 00000000 		.4byte	0
 17007 04bc 00000000 		.4byte	0
 17008 04c0 54050000 		.4byte	.LBB496
 17009 04c4 70050000 		.4byte	.LBE496
 17010 04c8 82050000 		.4byte	.LBB507
 17011 04cc 84050000 		.4byte	.LBE507
 17012 04d0 00000000 		.4byte	0
 17013 04d4 00000000 		.4byte	0
 17014 04d8 58050000 		.4byte	.LBB499
 17015 04dc 5A050000 		.4byte	.LBE499
 17016 04e0 5C050000 		.4byte	.LBB502
 17017 04e4 66050000 		.4byte	.LBE502
 17018 04e8 00000000 		.4byte	0
 17019 04ec 00000000 		.4byte	0
 17020 04f0 70050000 		.4byte	.LBB504
 17021 04f4 82050000 		.4byte	.LBE504
 17022 04f8 84050000 		.4byte	.LBB508
 17023 04fc 88050000 		.4byte	.LBE508
 17024 0500 00000000 		.4byte	0
 17025 0504 00000000 		.4byte	0
 17026 0508 72000000 		.4byte	.LBB516
 17027 050c 74000000 		.4byte	.LBE516
 17028 0510 78000000 		.4byte	.LBB520
 17029 0514 7E000000 		.4byte	.LBE520
 17030 0518 80000000 		.4byte	.LBB521
 17031 051c 82000000 		.4byte	.LBE521
 17032 0520 00000000 		.4byte	0
 17033 0524 00000000 		.4byte	0
 17034 0528 CA000000 		.4byte	.LBB527
 17035 052c CC000000 		.4byte	.LBE527
 17036 0530 D0000000 		.4byte	.LBB531
 17037 0534 D4000000 		.4byte	.LBE531
 17038 0538 D6000000 		.4byte	.LBB532
 17039 053c DA000000 		.4byte	.LBE532
 17040 0540 00000000 		.4byte	0
 17041 0544 00000000 		.4byte	0
 17042 0548 38000000 		.4byte	.LBB542
ARM GAS  /tmp/cc2f1tkm.s 			page 300


 17043 054c 3E000000 		.4byte	.LBE542
 17044 0550 40000000 		.4byte	.LBB565
 17045 0554 42000000 		.4byte	.LBE565
 17046 0558 46000000 		.4byte	.LBB566
 17047 055c FA000000 		.4byte	.LBE566
 17048 0560 62010000 		.4byte	.LBB567
 17049 0564 92010000 		.4byte	.LBE567
 17050 0568 BC010000 		.4byte	.LBB568
 17051 056c 0A020000 		.4byte	.LBE568
 17052 0570 14020000 		.4byte	.LBB569
 17053 0574 24020000 		.4byte	.LBE569
 17054 0578 EA020000 		.4byte	.LBB570
 17055 057c FC020000 		.4byte	.LBE570
 17056 0580 02030000 		.4byte	.LBB571
 17057 0584 0E030000 		.4byte	.LBE571
 17058 0588 00000000 		.4byte	0
 17059 058c 00000000 		.4byte	0
 17060 0590 68000000 		.4byte	.LBB544
 17061 0594 F6000000 		.4byte	.LBE544
 17062 0598 62010000 		.4byte	.LBB554
 17063 059c 90010000 		.4byte	.LBE554
 17064 05a0 C4010000 		.4byte	.LBB555
 17065 05a4 0A020000 		.4byte	.LBE555
 17066 05a8 14020000 		.4byte	.LBB556
 17067 05ac 24020000 		.4byte	.LBE556
 17068 05b0 02030000 		.4byte	.LBB557
 17069 05b4 0E030000 		.4byte	.LBE557
 17070 05b8 00000000 		.4byte	0
 17071 05bc 00000000 		.4byte	0
 17072 05c0 90000000 		.4byte	.LBB545
 17073 05c4 E8000000 		.4byte	.LBE545
 17074 05c8 62010000 		.4byte	.LBB549
 17075 05cc 68010000 		.4byte	.LBE549
 17076 05d0 00000000 		.4byte	0
 17077 05d4 00000000 		.4byte	0
 17078 05d8 A2000000 		.4byte	.LBB546
 17079 05dc A8000000 		.4byte	.LBE546
 17080 05e0 AA000000 		.4byte	.LBB547
 17081 05e4 D8000000 		.4byte	.LBE547
 17082 05e8 DA000000 		.4byte	.LBB548
 17083 05ec E8000000 		.4byte	.LBE548
 17084 05f0 00000000 		.4byte	0
 17085 05f4 00000000 		.4byte	0
 17086 05f8 CA010000 		.4byte	.LBB551
 17087 05fc F0010000 		.4byte	.LBE551
 17088 0600 FC010000 		.4byte	.LBB552
 17089 0604 FE010000 		.4byte	.LBE552
 17090 0608 14020000 		.4byte	.LBB553
 17091 060c 24020000 		.4byte	.LBE553
 17092 0610 00000000 		.4byte	0
 17093 0614 00000000 		.4byte	0
 17094 0618 00000000 		.4byte	.LFB30
 17095 061c 88010000 		.4byte	.LFE30
 17096 0620 00000000 		.4byte	.LFB32
 17097 0624 70000000 		.4byte	.LFE32
 17098 0628 00000000 		.4byte	.LFB20
 17099 062c 32000000 		.4byte	.LFE20
ARM GAS  /tmp/cc2f1tkm.s 			page 301


 17100 0630 00000000 		.4byte	.LFB28
 17101 0634 48000000 		.4byte	.LFE28
 17102 0638 00000000 		.4byte	.LFB42
 17103 063c 9E000000 		.4byte	.LFE42
 17104 0640 00000000 		.4byte	.LFB18
 17105 0644 72010000 		.4byte	.LFE18
 17106 0648 00000000 		.4byte	.LFB0
 17107 064c 52000000 		.4byte	.LFE0
 17108 0650 00000000 		.4byte	.LFB1
 17109 0654 04000000 		.4byte	.LFE1
 17110 0658 00000000 		.4byte	.LFB2
 17111 065c 0E000000 		.4byte	.LFE2
 17112 0660 00000000 		.4byte	.LFB3
 17113 0664 04000000 		.4byte	.LFE3
 17114 0668 00000000 		.4byte	.LFB4
 17115 066c 56010000 		.4byte	.LFE4
 17116 0670 00000000 		.4byte	.LFB5
 17117 0674 02010000 		.4byte	.LFE5
 17118 0678 00000000 		.4byte	.LFB6
 17119 067c 08000000 		.4byte	.LFE6
 17120 0680 00000000 		.4byte	.LFB7
 17121 0684 1A000000 		.4byte	.LFE7
 17122 0688 00000000 		.4byte	.LFB8
 17123 068c 9A050000 		.4byte	.LFE8
 17124 0690 00000000 		.4byte	.LFB9
 17125 0694 E4000000 		.4byte	.LFE9
 17126 0698 00000000 		.4byte	.LFB10
 17127 069c 0E030000 		.4byte	.LFE10
 17128 06a0 00000000 		.4byte	.LFB11
 17129 06a4 96000000 		.4byte	.LFE11
 17130 06a8 00000000 		.4byte	.LFB12
 17131 06ac 2E000000 		.4byte	.LFE12
 17132 06b0 00000000 		.4byte	.LFB13
 17133 06b4 0E000000 		.4byte	.LFE13
 17134 06b8 00000000 		.4byte	.LFB14
 17135 06bc 5C000000 		.4byte	.LFE14
 17136 06c0 00000000 		.4byte	.LFB15
 17137 06c4 44000000 		.4byte	.LFE15
 17138 06c8 00000000 		.4byte	0
 17139 06cc 00000000 		.4byte	0
 17140              		.section	.debug_line,"",%progbits
 17141              	.Ldebug_line0:
 17142 0000 FF080000 		.section	.debug_str,"MS",%progbits,1
 17142      0200FC00 
 17142      00000201 
 17142      FB0E0D00 
 17142      01010101 
 17143              	.LASF89:
 17144 0000 5F666C6F 		.ascii	"_flock_t\000"
 17144      636B5F74 
 17144      00
 17145              	.LASF195:
 17146 0009 63757272 		.ascii	"current_index\000"
 17146      656E745F 
 17146      696E6465 
 17146      7800
 17147              	.LASF324:
ARM GAS  /tmp/cc2f1tkm.s 			page 302


 17148 0017 6D656D5F 		.ascii	"mem_arena\000"
 17148      6172656E 
 17148      6100
 17149              	.LASF75:
 17150 0021 43616E61 		.ascii	"CanardPoolAllocatorStatistics\000"
 17150      7264506F 
 17150      6F6C416C 
 17150      6C6F6361 
 17150      746F7253 
 17151              	.LASF316:
 17152 003f 63616E61 		.ascii	"canardBroadcast\000"
 17152      72644272 
 17152      6F616463 
 17152      61737400 
 17153              	.LASF212:
 17154 004f 6F757470 		.ascii	"output\000"
 17154      757400
 17155              	.LASF106:
 17156 0056 5F6F6E5F 		.ascii	"_on_exit_args\000"
 17156      65786974 
 17156      5F617267 
 17156      7300
 17157              	.LASF205:
 17158 0064 73776170 		.ascii	"swapByteOrder\000"
 17158      42797465 
 17158      4F726465 
 17158      7200
 17159              	.LASF173:
 17160 0072 5F776374 		.ascii	"_wctomb_state\000"
 17160      6F6D625F 
 17160      73746174 
 17160      6500
 17161              	.LASF55:
 17162 0080 736F7572 		.ascii	"source_node_id\000"
 17162      63655F6E 
 17162      6F64655F 
 17162      696400
 17163              	.LASF167:
 17164 008f 5F6C6F63 		.ascii	"_localtime_buf\000"
 17164      616C7469 
 17164      6D655F62 
 17164      756600
 17165              	.LASF300:
 17166 009e 7461696C 		.ascii	"tail_byte\000"
 17166      5F627974 
 17166      6500
 17167              	.LASF170:
 17168 00a8 5F723438 		.ascii	"_r48\000"
 17168      00
 17169              	.LASF230:
 17170 00ad 77726974 		.ascii	"write_mask\000"
 17170      655F6D61 
 17170      736B00
 17171              	.LASF265:
 17172 00b8 70726576 		.ascii	"previous\000"
 17172      696F7573 
 17172      00
ARM GAS  /tmp/cc2f1tkm.s 			page 303


 17173              	.LASF38:
 17174 00c1 6E6F6465 		.ascii	"node_id\000"
 17174      5F696400 
 17175              	.LASF255:
 17176 00c9 636C6561 		.ascii	"clean_id\000"
 17176      6E5F6964 
 17176      00
 17177              	.LASF175:
 17178 00d2 5F736967 		.ascii	"_signal_buf\000"
 17178      6E616C5F 
 17178      62756600 
 17179              	.LASF272:
 17180 00de 696E6372 		.ascii	"incrementTransferID\000"
 17180      656D656E 
 17180      74547261 
 17180      6E736665 
 17180      72494400 
 17181              	.LASF2:
 17182 00f2 756E7369 		.ascii	"unsigned int\000"
 17182      676E6564 
 17182      20696E74 
 17182      00
 17183              	.LASF46:
 17184 00ff 74696D65 		.ascii	"timestamp_usec\000"
 17184      7374616D 
 17184      705F7573 
 17184      656300
 17185              	.LASF276:
 17186 010e 46503332 		.ascii	"FP32\000"
 17186      00
 17187              	.LASF283:
 17188 0113 7369676E 		.ascii	"sign_mask\000"
 17188      5F6D6173 
 17188      6B00
 17189              	.LASF120:
 17190 011d 5F6C6266 		.ascii	"_lbfsize\000"
 17190      73697A65 
 17190      00
 17191              	.LASF118:
 17192 0126 5F666C61 		.ascii	"_flags\000"
 17192      677300
 17193              	.LASF245:
 17194 012d 70726570 		.ascii	"prependRxState\000"
 17194      656E6452 
 17194      78537461 
 17194      746500
 17195              	.LASF12:
 17196 013c 5F5F696E 		.ascii	"__int32_t\000"
 17196      7433325F 
 17196      7400
 17197              	.LASF203:
 17198 0146 63726341 		.ascii	"crcAddByte\000"
 17198      64644279 
 17198      746500
 17199              	.LASF135:
 17200 0151 5F657272 		.ascii	"_errno\000"
 17200      6E6F00
ARM GAS  /tmp/cc2f1tkm.s 			page 304


 17201              	.LASF192:
 17202 0158 66726565 		.ascii	"freeBlock\000"
 17202      426C6F63 
 17202      6B00
 17203              	.LASF280:
 17204 0162 63616E61 		.ascii	"canardConvertNativeFloatToFloat16\000"
 17204      7264436F 
 17204      6E766572 
 17204      744E6174 
 17204      69766546 
 17205              	.LASF259:
 17206 0184 61726231 		.ascii	"arb11\000"
 17206      3100
 17207              	.LASF132:
 17208 018a 5F6D6273 		.ascii	"_mbstate\000"
 17208      74617465 
 17208      00
 17209              	.LASF122:
 17210 0193 5F726561 		.ascii	"_read\000"
 17210      6400
 17211              	.LASF177:
 17212 0199 5F6D6272 		.ascii	"_mbrlen_state\000"
 17212      6C656E5F 
 17212      73746174 
 17212      6500
 17213              	.LASF297:
 17214 01a7 70726576 		.ascii	"prev\000"
 17214      00
 17215              	.LASF216:
 17216 01ac 72656D61 		.ascii	"remaining_bits\000"
 17216      696E696E 
 17216      675F6269 
 17216      747300
 17217              	.LASF330:
 17218 01bb 5F5F6275 		.ascii	"__builtin_memcpy\000"
 17218      696C7469 
 17218      6E5F6D65 
 17218      6D637079 
 17218      00
 17219              	.LASF266:
 17220 01cc 656E7175 		.ascii	"enqueueTxFrames\000"
 17220      65756554 
 17220      78467261 
 17220      6D657300 
 17221              	.LASF314:
 17222 01dc 696E6F75 		.ascii	"inout_transfer_id\000"
 17222      745F7472 
 17222      616E7366 
 17222      65725F69 
 17222      6400
 17223              	.LASF137:
 17224 01ee 5F737464 		.ascii	"_stdout\000"
 17224      6F757400 
 17225              	.LASF56:
 17226 01f6 43616E61 		.ascii	"CanardRxState\000"
 17226      72645278 
 17226      53746174 
ARM GAS  /tmp/cc2f1tkm.s 			page 305


 17226      6500
 17227              	.LASF238:
 17228 0204 72656C65 		.ascii	"releaseStatePayload\000"
 17228      61736553 
 17228      74617465 
 17228      5061796C 
 17228      6F616400 
 17229              	.LASF82:
 17230 0218 5F66706F 		.ascii	"_fpos_t\000"
 17230      735F7400 
 17231              	.LASF42:
 17232 0220 72785F73 		.ascii	"rx_states\000"
 17232      74617465 
 17232      7300
 17233              	.LASF121:
 17234 022a 5F636F6F 		.ascii	"_cookie\000"
 17234      6B696500 
 17235              	.LASF209:
 17236 0232 7472616E 		.ascii	"transfer\000"
 17236      73666572 
 17236      00
 17237              	.LASF189:
 17238 023b 5F676C6F 		.ascii	"_global_impure_ptr\000"
 17238      62616C5F 
 17238      696D7075 
 17238      72655F70 
 17238      747200
 17239              	.LASF321:
 17240 024e 63616E61 		.ascii	"canardGetUserReference\000"
 17240      72644765 
 17240      74557365 
 17240      72526566 
 17240      6572656E 
 17241              	.LASF91:
 17242 0265 5F426967 		.ascii	"_Bigint\000"
 17242      696E7400 
 17243              	.LASF103:
 17244 026d 5F5F746D 		.ascii	"__tm_wday\000"
 17244      5F776461 
 17244      7900
 17245              	.LASF51:
 17246 0277 64617461 		.ascii	"data_type_id\000"
 17246      5F747970 
 17246      655F6964 
 17246      00
 17247              	.LASF145:
 17248 0284 5F726573 		.ascii	"_result\000"
 17248      756C7400 
 17249              	.LASF197:
 17250 028c 616C6C6F 		.ascii	"allocateBlock\000"
 17250      63617465 
 17250      426C6F63 
 17250      6B00
 17251              	.LASF23:
 17252 029a 75696E74 		.ascii	"uint32_t\000"
 17252      33325F74 
 17252      00
ARM GAS  /tmp/cc2f1tkm.s 			page 306


 17253              	.LASF18:
 17254 02a3 696E7438 		.ascii	"int8_t\000"
 17254      5F7400
 17255              	.LASF99:
 17256 02aa 5F5F746D 		.ascii	"__tm_hour\000"
 17256      5F686F75 
 17256      7200
 17257              	.LASF64:
 17258 02b4 43616E61 		.ascii	"CanardTxQueueItem\000"
 17258      72645478 
 17258      51756575 
 17258      65497465 
 17258      6D00
 17259              	.LASF33:
 17260 02c6 43616E61 		.ascii	"CanardTransferType\000"
 17260      72645472 
 17260      616E7366 
 17260      65725479 
 17260      706500
 17261              	.LASF206:
 17262 02d9 73697A65 		.ascii	"size\000"
 17262      00
 17263              	.LASF113:
 17264 02de 5F666E73 		.ascii	"_fns\000"
 17264      00
 17265              	.LASF86:
 17266 02e3 5F5F636F 		.ascii	"__count\000"
 17266      756E7400 
 17267              	.LASF61:
 17268 02eb 6E657874 		.ascii	"next_toggle\000"
 17268      5F746F67 
 17268      676C6500 
 17269              	.LASF3:
 17270 02f7 666C6F61 		.ascii	"float\000"
 17270      7400
 17271              	.LASF105:
 17272 02fd 5F5F746D 		.ascii	"__tm_isdst\000"
 17272      5F697364 
 17272      737400
 17273              	.LASF98:
 17274 0308 5F5F746D 		.ascii	"__tm_min\000"
 17274      5F6D696E 
 17274      00
 17275              	.LASF188:
 17276 0311 5F696D70 		.ascii	"_impure_ptr\000"
 17276      7572655F 
 17276      70747200 
 17277              	.LASF278:
 17278 031d 7761735F 		.ascii	"was_inf_nan\000"
 17278      696E665F 
 17278      6E616E00 
 17279              	.LASF183:
 17280 0329 5F6E6578 		.ascii	"_nextf\000"
 17280      746600
 17281              	.LASF260:
 17282 0330 7268735F 		.ascii	"rhs_arb11\000"
 17282      61726231 
ARM GAS  /tmp/cc2f1tkm.s 			page 307


 17282      3100
 17283              	.LASF331:
 17284 033a 474E5520 		.ascii	"GNU C99 7.3.1 20180622 (release) [ARM/embedded-7-br"
 17284      43393920 
 17284      372E332E 
 17284      31203230 
 17284      31383036 
 17285 036d 616E6368 		.ascii	"anch revision 261907] -mcpu=cortex-m4 -mfloat-abi=h"
 17285      20726576 
 17285      6973696F 
 17285      6E203236 
 17285      31393037 
 17286 03a0 61726420 		.ascii	"ard -mfpu=fpv4-sp-d16 -mno-thumb-interwork -mthumb "
 17286      2D6D6670 
 17286      753D6670 
 17286      76342D73 
 17286      702D6431 
 17287 03d3 2D676764 		.ascii	"-ggdb -O2 -std=gnu99 -fomit-frame-pointer -falign-f"
 17287      62202D4F 
 17287      32202D73 
 17287      74643D67 
 17287      6E753939 
 17288 0406 756E6374 		.ascii	"unctions=16 -ffunction-sections -fdata-sections -fn"
 17288      696F6E73 
 17288      3D313620 
 17288      2D666675 
 17288      6E637469 
 17289 0439 6F2D636F 		.ascii	"o-common -fsingle-precision-constant\000"
 17289      6D6D6F6E 
 17289      202D6673 
 17289      696E676C 
 17289      652D7072 
 17290              	.LASF20:
 17291 045e 696E7431 		.ascii	"int16_t\000"
 17291      365F7400 
 17292              	.LASF160:
 17293 0466 5F72616E 		.ascii	"_rand48\000"
 17293      64343800 
 17294              	.LASF191:
 17295 046e 72657375 		.ascii	"result\000"
 17295      6C7400
 17296              	.LASF320:
 17297 0475 73656C66 		.ascii	"self_node_id\000"
 17297      5F6E6F64 
 17297      655F6964 
 17297      00
 17298              	.LASF146:
 17299 0482 5F726573 		.ascii	"_result_k\000"
 17299      756C745F 
 17299      6B00
 17300              	.LASF1:
 17301 048c 6C6F6E67 		.ascii	"long long unsigned int\000"
 17301      206C6F6E 
 17301      6720756E 
 17301      7369676E 
 17301      65642069 
 17302              	.LASF166:
ARM GAS  /tmp/cc2f1tkm.s 			page 308


 17303 04a3 5F617363 		.ascii	"_asctime_buf\000"
 17303      74696D65 
 17303      5F627566 
 17303      00
 17304              	.LASF117:
 17305 04b0 5F5F7346 		.ascii	"__sFILE\000"
 17305      494C4500 
 17306              	.LASF95:
 17307 04b8 5F776473 		.ascii	"_wds\000"
 17307      00
 17308              	.LASF250:
 17309 04bd 69735F73 		.ascii	"is_service\000"
 17309      65727669 
 17309      636500
 17310              	.LASF198:
 17311 04c8 63726341 		.ascii	"crcAdd\000"
 17311      646400
 17312              	.LASF252:
 17313 04cf 64746964 		.ascii	"dtid\000"
 17313      00
 17314              	.LASF315:
 17315 04d4 6B696E64 		.ascii	"kind\000"
 17315      00
 17316              	.LASF10:
 17317 04d9 5F5F7569 		.ascii	"__uint16_t\000"
 17317      6E743136 
 17317      5F7400
 17318              	.LASF241:
 17319 04e4 62756666 		.ascii	"bufferBlockPushBytes\000"
 17319      6572426C 
 17319      6F636B50 
 17319      75736842 
 17319      79746573 
 17320              	.LASF156:
 17321 04f9 5F5F4649 		.ascii	"__FILE\000"
 17321      4C4500
 17322              	.LASF182:
 17323 0500 5F685F65 		.ascii	"_h_errno\000"
 17323      72726E6F 
 17323      00
 17324              	.LASF256:
 17325 0509 7268735F 		.ascii	"rhs_clean_id\000"
 17325      636C6561 
 17325      6E5F6964 
 17325      00
 17326              	.LASF129:
 17327 0516 5F6F6666 		.ascii	"_offset\000"
 17327      73657400 
 17328              	.LASF261:
 17329 051e 63726561 		.ascii	"createTxItem\000"
 17329      74655478 
 17329      4974656D 
 17329      00
 17330              	.LASF251:
 17331 052b 65787472 		.ascii	"extractDataType\000"
 17331      61637444 
 17331      61746154 
ARM GAS  /tmp/cc2f1tkm.s 			page 309


 17331      79706500 
 17332              	.LASF242:
 17333 053b 63726561 		.ascii	"createRxState\000"
 17333      74655278 
 17333      53746174 
 17333      6500
 17334              	.LASF281:
 17335 0549 66333269 		.ascii	"f32inf\000"
 17335      6E6600
 17336              	.LASF274:
 17337 0550 76616C75 		.ascii	"value\000"
 17337      6500
 17338              	.LASF282:
 17339 0556 66313669 		.ascii	"f16inf\000"
 17339      6E6600
 17340              	.LASF140:
 17341 055d 5F656D65 		.ascii	"_emergency\000"
 17341      7267656E 
 17341      637900
 17342              	.LASF40:
 17343 0568 6F6E5F72 		.ascii	"on_reception\000"
 17343      65636570 
 17343      74696F6E 
 17343      00
 17344              	.LASF308:
 17345 0575 6672616D 		.ascii	"frame_payload_size\000"
 17345      655F7061 
 17345      796C6F61 
 17345      645F7369 
 17345      7A6500
 17346              	.LASF217:
 17347 0588 626C6F63 		.ascii	"block_bit_offset\000"
 17347      6B5F6269 
 17347      745F6F66 
 17347      66736574 
 17347      00
 17348              	.LASF253:
 17349 0599 70726570 		.ascii	"prepareForNextTransfer\000"
 17349      61726546 
 17349      6F724E65 
 17349      78745472 
 17349      616E7366 
 17350              	.LASF291:
 17351 05b0 63616E61 		.ascii	"canardDecodeScalar\000"
 17351      72644465 
 17351      636F6465 
 17351      5363616C 
 17351      617200
 17352              	.LASF215:
 17353 05c3 72656D61 		.ascii	"remaining_bit_length\000"
 17353      696E696E 
 17353      675F6269 
 17353      745F6C65 
 17353      6E677468 
 17354              	.LASF26:
 17355 05d8 73697A65 		.ascii	"size_t\000"
 17355      5F7400
ARM GAS  /tmp/cc2f1tkm.s 			page 310


 17356              	.LASF285:
 17357 05df 7369676E 		.ascii	"sign\000"
 17357      00
 17358              	.LASF312:
 17359 05e4 63616E61 		.ascii	"canardPeekTxQueue\000"
 17359      72645065 
 17359      656B5478 
 17359      51756575 
 17359      6500
 17360              	.LASF268:
 17361 05f6 7061796C 		.ascii	"payload\000"
 17361      6F616400 
 17362              	.LASF24:
 17363 05fe 696E7436 		.ascii	"int64_t\000"
 17363      345F7400 
 17364              	.LASF221:
 17365 0606 6F666673 		.ascii	"offset\000"
 17365      657400
 17366              	.LASF39:
 17367 060d 73686F75 		.ascii	"should_accept\000"
 17367      6C645F61 
 17367      63636570 
 17367      7400
 17368              	.LASF97:
 17369 061b 5F5F746D 		.ascii	"__tm_sec\000"
 17369      5F736563 
 17369      00
 17370              	.LASF284:
 17371 0624 726F756E 		.ascii	"round_mask\000"
 17371      645F6D61 
 17371      736B00
 17372              	.LASF335:
 17373 062f 63616E61 		.ascii	"canardReleaseRxTransferPayload\000"
 17373      72645265 
 17373      6C656173 
 17373      65527854 
 17373      72616E73 
 17374              	.LASF104:
 17375 064e 5F5F746D 		.ascii	"__tm_yday\000"
 17375      5F796461 
 17375      7900
 17376              	.LASF139:
 17377 0658 5F696E63 		.ascii	"_inc\000"
 17377      00
 17378              	.LASF67:
 17379 065d 5F426F6F 		.ascii	"_Bool\000"
 17379      6C00
 17380              	.LASF318:
 17381 0663 64697363 		.ascii	"discriminator\000"
 17381      72696D69 
 17381      6E61746F 
 17381      7200
 17382              	.LASF229:
 17383 0671 636F7079 		.ascii	"copy_bits\000"
 17383      5F626974 
 17383      7300
 17384              	.LASF92:
ARM GAS  /tmp/cc2f1tkm.s 			page 311


 17385 067b 5F6E6578 		.ascii	"_next\000"
 17385      7400
 17386              	.LASF69:
 17387 0681 62797465 		.ascii	"bytes\000"
 17387      7300
 17388              	.LASF36:
 17389 0687 43616E61 		.ascii	"CanardRequestResponse\000"
 17389      72645265 
 17389      71756573 
 17389      74526573 
 17389      706F6E73 
 17390              	.LASF41:
 17391 069d 616C6C6F 		.ascii	"allocator\000"
 17391      6361746F 
 17391      7200
 17392              	.LASF17:
 17393 06a7 5F5F7569 		.ascii	"__uint64_t\000"
 17393      6E743634 
 17393      5F7400
 17394              	.LASF199:
 17395 06b2 6372635F 		.ascii	"crc_val\000"
 17395      76616C00 
 17396              	.LASF249:
 17397 06ba 65787472 		.ascii	"extractTransferType\000"
 17397      61637454 
 17397      72616E73 
 17397      66657254 
 17397      79706500 
 17398              	.LASF77:
 17399 06ce 73746174 		.ascii	"statistics\000"
 17399      69737469 
 17399      637300
 17400              	.LASF87:
 17401 06d9 5F5F7661 		.ascii	"__value\000"
 17401      6C756500 
 17402              	.LASF273:
 17403 06e1 636F6D70 		.ascii	"computeTransferIDForwardDistance\000"
 17403      75746554 
 17403      72616E73 
 17403      66657249 
 17403      44466F72 
 17404              	.LASF147:
 17405 0702 5F703573 		.ascii	"_p5s\000"
 17405      00
 17406              	.LASF181:
 17407 0707 5F776373 		.ascii	"_wcsrtombs_state\000"
 17407      72746F6D 
 17407      62735F73 
 17407      74617465 
 17407      00
 17408              	.LASF171:
 17409 0718 5F6D626C 		.ascii	"_mblen_state\000"
 17409      656E5F73 
 17409      74617465 
 17409      00
 17410              	.LASF248:
 17411 0725 73746174 		.ascii	"states\000"
ARM GAS  /tmp/cc2f1tkm.s 			page 312


 17411      657300
 17412              	.LASF292:
 17413 072c 76616C75 		.ascii	"value_is_signed\000"
 17413      655F6973 
 17413      5F736967 
 17413      6E656400 
 17414              	.LASF70:
 17415 073c 63686172 		.ascii	"char\000"
 17415      00
 17416              	.LASF100:
 17417 0741 5F5F746D 		.ascii	"__tm_mday\000"
 17417      5F6D6461 
 17417      7900
 17418              	.LASF153:
 17419 074b 5F736967 		.ascii	"_sig_func\000"
 17419      5F66756E 
 17419      6300
 17420              	.LASF178:
 17421 0755 5F6D6272 		.ascii	"_mbrtowc_state\000"
 17421      746F7763 
 17421      5F737461 
 17421      746500
 17422              	.LASF152:
 17423 0764 5F617465 		.ascii	"_atexit0\000"
 17423      78697430 
 17423      00
 17424              	.LASF289:
 17425 076d 73746F72 		.ascii	"storage\000"
 17425      61676500 
 17426              	.LASF48:
 17427 0775 7061796C 		.ascii	"payload_middle\000"
 17427      6F61645F 
 17427      6D696464 
 17427      6C6500
 17428              	.LASF27:
 17429 0784 64617461 		.ascii	"data\000"
 17429      00
 17430              	.LASF290:
 17431 0789 7374645F 		.ascii	"std_byte_length\000"
 17431      62797465 
 17431      5F6C656E 
 17431      67746800 
 17432              	.LASF84:
 17433 0799 5F5F7763 		.ascii	"__wch\000"
 17433      6800
 17434              	.LASF159:
 17435 079f 5F696F62 		.ascii	"_iobs\000"
 17435      7300
 17436              	.LASF19:
 17437 07a5 75696E74 		.ascii	"uint8_t\000"
 17437      385F7400 
 17438              	.LASF322:
 17439 07ad 63616E61 		.ascii	"canardInit\000"
 17439      7264496E 
 17439      697400
 17440              	.LASF125:
 17441 07b8 5F636C6F 		.ascii	"_close\000"
ARM GAS  /tmp/cc2f1tkm.s 			page 313


 17441      736500
 17442              	.LASF44:
 17443 07bf 75736572 		.ascii	"user_reference\000"
 17443      5F726566 
 17443      6572656E 
 17443      636500
 17444              	.LASF143:
 17445 07ce 5F5F7364 		.ascii	"__sdidinit\000"
 17445      6964696E 
 17445      697400
 17446              	.LASF288:
 17447 07d9 626F6F6C 		.ascii	"boolean\000"
 17447      65616E00 
 17448              	.LASF298:
 17449 07e1 63616E61 		.ascii	"canardHandleRxFrame\000"
 17449      72644861 
 17449      6E646C65 
 17449      52784672 
 17449      616D6500 
 17450              	.LASF179:
 17451 07f5 5F6D6273 		.ascii	"_mbsrtowcs_state\000"
 17451      72746F77 
 17451      63735F73 
 17451      74617465 
 17451      00
 17452              	.LASF50:
 17453 0806 7061796C 		.ascii	"payload_len\000"
 17453      6F61645F 
 17453      6C656E00 
 17454              	.LASF29:
 17455 0812 43616E61 		.ascii	"CanardCANFrame\000"
 17455      72644341 
 17455      4E467261 
 17455      6D6500
 17456              	.LASF136:
 17457 0821 5F737464 		.ascii	"_stdin\000"
 17457      696E00
 17458              	.LASF168:
 17459 0828 5F67616D 		.ascii	"_gamma_signgam\000"
 17459      6D615F73 
 17459      69676E67 
 17459      616D00
 17460              	.LASF223:
 17461 0837 7372635F 		.ascii	"src_len\000"
 17461      6C656E00 
 17462              	.LASF0:
 17463 083f 6C6F6E67 		.ascii	"long long int\000"
 17463      206C6F6E 
 17463      6720696E 
 17463      7400
 17464              	.LASF313:
 17465 084d 63616E61 		.ascii	"canardRequestOrRespond\000"
 17465      72645265 
 17465      71756573 
 17465      744F7252 
 17465      6573706F 
 17466              	.LASF115:
ARM GAS  /tmp/cc2f1tkm.s 			page 314


 17467 0864 5F626173 		.ascii	"_base\000"
 17467      6500
 17468              	.LASF148:
 17469 086a 5F667265 		.ascii	"_freelist\000"
 17469      656C6973 
 17469      7400
 17470              	.LASF162:
 17471 0874 5F6D756C 		.ascii	"_mult\000"
 17471      7400
 17472              	.LASF90:
 17473 087a 5F5F554C 		.ascii	"__ULong\000"
 17473      6F6E6700 
 17474              	.LASF196:
 17475 0882 63757272 		.ascii	"current_block\000"
 17475      656E745F 
 17475      626C6F63 
 17475      6B00
 17476              	.LASF317:
 17477 0890 44544944 		.ascii	"DTIDMask\000"
 17477      4D61736B 
 17477      00
 17478              	.LASF231:
 17479 0899 7372635F 		.ascii	"src_data\000"
 17479      64617461 
 17479      00
 17480              	.LASF73:
 17481 08a2 63757272 		.ascii	"current_usage_blocks\000"
 17481      656E745F 
 17481      75736167 
 17481      655F626C 
 17481      6F636B73 
 17482              	.LASF180:
 17483 08b7 5F776372 		.ascii	"_wcrtomb_state\000"
 17483      746F6D62 
 17483      5F737461 
 17483      746500
 17484              	.LASF323:
 17485 08c6 6F75745F 		.ascii	"out_ins\000"
 17485      696E7300 
 17486              	.LASF119:
 17487 08ce 5F66696C 		.ascii	"_file\000"
 17487      6500
 17488              	.LASF263:
 17489 08d4 70757368 		.ascii	"pushTxQueue\000"
 17489      54785175 
 17489      65756500 
 17490              	.LASF49:
 17491 08e0 7061796C 		.ascii	"payload_tail\000"
 17491      6F61645F 
 17491      7461696C 
 17491      00
 17492              	.LASF8:
 17493 08ed 5F5F696E 		.ascii	"__int16_t\000"
 17493      7431365F 
 17493      7400
 17494              	.LASF34:
 17495 08f7 43616E61 		.ascii	"CanardResponse\000"
ARM GAS  /tmp/cc2f1tkm.s 			page 315


 17495      72645265 
 17495      73706F6E 
 17495      736500
 17496              	.LASF220:
 17497 0906 6269745F 		.ascii	"bit_offset_within_block\000"
 17497      6F666673 
 17497      65745F77 
 17497      69746869 
 17497      6E5F626C 
 17498              	.LASF246:
 17499 091e 66696E64 		.ascii	"findRxState\000"
 17499      52785374 
 17499      61746500 
 17500              	.LASF270:
 17501 092a 746F6767 		.ascii	"toggle\000"
 17501      6C6500
 17502              	.LASF327:
 17503 0931 6D656D73 		.ascii	"memset\000"
 17503      657400
 17504              	.LASF144:
 17505 0938 5F5F636C 		.ascii	"__cleanup\000"
 17505      65616E75 
 17505      7000
 17506              	.LASF52:
 17507 0942 7472616E 		.ascii	"transfer_type\000"
 17507      73666572 
 17507      5F747970 
 17507      6500
 17508              	.LASF88:
 17509 0950 5F6D6273 		.ascii	"_mbstate_t\000"
 17509      74617465 
 17509      5F7400
 17510              	.LASF201:
 17511 095b 64617461 		.ascii	"data_type_signature\000"
 17511      5F747970 
 17511      655F7369 
 17511      676E6174 
 17511      75726500 
 17512              	.LASF74:
 17513 096f 7065616B 		.ascii	"peak_usage_blocks\000"
 17513      5F757361 
 17513      67655F62 
 17513      6C6F636B 
 17513      7300
 17514              	.LASF319:
 17515 0981 63616E61 		.ascii	"canardSetLocalNodeID\000"
 17515      72645365 
 17515      744C6F63 
 17515      616C4E6F 
 17515      64654944 
 17516              	.LASF325:
 17517 0996 6D656D5F 		.ascii	"mem_arena_size\000"
 17517      6172656E 
 17517      615F7369 
 17517      7A6500
 17518              	.LASF237:
 17519 09a5 6E756D5F 		.ascii	"num_buffer_blocks\000"
ARM GAS  /tmp/cc2f1tkm.s 			page 316


 17519      62756666 
 17519      65725F62 
 17519      6C6F636B 
 17519      7300
 17520              	.LASF71:
 17521 09b7 43616E61 		.ascii	"CanardPoolAllocatorBlock\000"
 17521      7264506F 
 17521      6F6C416C 
 17521      6C6F6361 
 17521      746F7242 
 17522              	.LASF225:
 17523 09d0 6C617374 		.ascii	"last_bit\000"
 17523      5F626974 
 17523      00
 17524              	.LASF305:
 17525 09d9 6E6F745F 		.ascii	"not_previous_tid\000"
 17525      70726576 
 17525      696F7573 
 17525      5F746964 
 17525      00
 17526              	.LASF287:
 17527 09ea 64657374 		.ascii	"destination\000"
 17527      696E6174 
 17527      696F6E00 
 17528              	.LASF112:
 17529 09f6 5F696E64 		.ascii	"_ind\000"
 17529      00
 17530              	.LASF302:
 17531 09fb 6E6F745F 		.ascii	"not_initialized\000"
 17531      696E6974 
 17531      69616C69 
 17531      7A656400 
 17532              	.LASF53:
 17533 0a0b 7472616E 		.ascii	"transfer_id\000"
 17533      73666572 
 17533      5F696400 
 17534              	.LASF210:
 17535 0a17 6269745F 		.ascii	"bit_offset\000"
 17535      6F666673 
 17535      657400
 17536              	.LASF94:
 17537 0a22 5F736967 		.ascii	"_sign\000"
 17537      6E00
 17538              	.LASF334:
 17539 0a28 636F7079 		.ascii	"copyBitArray\000"
 17539      42697441 
 17539      72726179 
 17539      00
 17540              	.LASF5:
 17541 0a35 5F5F696E 		.ascii	"__int8_t\000"
 17541      74385F74 
 17541      00
 17542              	.LASF63:
 17543 0a3e 62756666 		.ascii	"buffer_head\000"
 17543      65725F68 
 17543      65616400 
 17544              	.LASF333:
ARM GAS  /tmp/cc2f1tkm.s 			page 317


 17545 0a4a 2F626C64 		.ascii	"/bldc\000"
 17545      6300
 17546              	.LASF101:
 17547 0a50 5F5F746D 		.ascii	"__tm_mon\000"
 17547      5F6D6F6E 
 17547      00
 17548              	.LASF16:
 17549 0a59 5F5F696E 		.ascii	"__int64_t\000"
 17549      7436345F 
 17549      7400
 17550              	.LASF193:
 17551 0a63 696E6974 		.ascii	"initPoolAllocator\000"
 17551      506F6F6C 
 17551      416C6C6F 
 17551      6361746F 
 17551      7200
 17552              	.LASF80:
 17553 0a75 5F4C4F43 		.ascii	"_LOCK_T\000"
 17553      4B5F5400 
 17554              	.LASF21:
 17555 0a7d 75696E74 		.ascii	"uint16_t\000"
 17555      31365F74 
 17555      00
 17556              	.LASF243:
 17557 0a86 7472616E 		.ascii	"transfer_descriptor\000"
 17557      73666572 
 17557      5F646573 
 17557      63726970 
 17557      746F7200 
 17558              	.LASF123:
 17559 0a9a 5F777269 		.ascii	"_write\000"
 17559      746500
 17560              	.LASF271:
 17561 0aa1 736F745F 		.ascii	"sot_eot\000"
 17561      656F7400 
 17562              	.LASF233:
 17563 0aa9 73746174 		.ascii	"state\000"
 17563      6500
 17564              	.LASF28:
 17565 0aaf 64617461 		.ascii	"data_len\000"
 17565      5F6C656E 
 17565      00
 17566              	.LASF258:
 17567 0ab8 7268735F 		.ascii	"rhs_rtr\000"
 17567      72747200 
 17568              	.LASF45:
 17569 0ac0 43616E61 		.ascii	"CanardRxTransfer\000"
 17569      72645278 
 17569      5472616E 
 17569      73666572 
 17569      00
 17570              	.LASF222:
 17571 0ad1 7372635F 		.ascii	"src_offset\000"
 17571      6F666673 
 17571      657400
 17572              	.LASF296:
 17573 0adc 63757272 		.ascii	"current_time_usec\000"
ARM GAS  /tmp/cc2f1tkm.s 			page 318


 17573      656E745F 
 17573      74696D65 
 17573      5F757365 
 17573      6300
 17574              	.LASF111:
 17575 0aee 5F617465 		.ascii	"_atexit\000"
 17575      78697400 
 17576              	.LASF47:
 17577 0af6 7061796C 		.ascii	"payload_head\000"
 17577      6F61645F 
 17577      68656164 
 17577      00
 17578              	.LASF172:
 17579 0b03 5F6D6274 		.ascii	"_mbtowc_state\000"
 17579      6F77635F 
 17579      73746174 
 17579      6500
 17580              	.LASF311:
 17581 0b11 63616E61 		.ascii	"canardPopTxQueue\000"
 17581      7264506F 
 17581      70547851 
 17581      75657565 
 17581      00
 17582              	.LASF79:
 17583 0b22 43616E61 		.ascii	"CanardBufferBlock\000"
 17583      72644275 
 17583      66666572 
 17583      426C6F63 
 17583      6B00
 17584              	.LASF219:
 17585 0b34 626C6F63 		.ascii	"block_end_bit_offset\000"
 17585      6B5F656E 
 17585      645F6269 
 17585      745F6F66 
 17585      66736574 
 17586              	.LASF76:
 17587 0b49 66726565 		.ascii	"free_list\000"
 17587      5F6C6973 
 17587      7400
 17588              	.LASF257:
 17589 0b53 7268735F 		.ascii	"rhs_ext\000"
 17589      65787400 
 17590              	.LASF9:
 17591 0b5b 73686F72 		.ascii	"short int\000"
 17591      7420696E 
 17591      7400
 17592              	.LASF13:
 17593 0b65 6C6F6E67 		.ascii	"long int\000"
 17593      20696E74 
 17593      00
 17594              	.LASF207:
 17595 0b6e 69734269 		.ascii	"isBigEndian\000"
 17595      67456E64 
 17595      69616E00 
 17596              	.LASF336:
 17597 0b7a 63616E61 		.ascii	"canardGetLocalNodeID\000"
 17597      72644765 
ARM GAS  /tmp/cc2f1tkm.s 			page 319


 17597      744C6F63 
 17597      616C4E6F 
 17597      64654944 
 17598              	.LASF239:
 17599 0b8f 72787374 		.ascii	"rxstate\000"
 17599      61746500 
 17600              	.LASF228:
 17601 0b97 6D61785F 		.ascii	"max_offset\000"
 17601      6F666673 
 17601      657400
 17602              	.LASF232:
 17603 0ba2 63726561 		.ascii	"createBufferBlock\000"
 17603      74654275 
 17603      66666572 
 17603      426C6F63 
 17603      6B00
 17604              	.LASF57:
 17605 0bb4 6E657874 		.ascii	"next\000"
 17605      00
 17606              	.LASF54:
 17607 0bb9 7072696F 		.ascii	"priority\000"
 17607      72697479 
 17607      00
 17608              	.LASF240:
 17609 0bc2 74656D70 		.ascii	"temp\000"
 17609      00
 17610              	.LASF275:
 17611 0bc7 43616E61 		.ascii	"CanardPoolAllocatorBlock_u\000"
 17611      7264506F 
 17611      6F6C416C 
 17611      6C6F6361 
 17611      746F7242 
 17612              	.LASF304:
 17613 0be2 66697273 		.ascii	"first_frame\000"
 17613      745F6672 
 17613      616D6500 
 17614              	.LASF299:
 17615 0bee 64657374 		.ascii	"destination_node_id\000"
 17615      696E6174 
 17615      696F6E5F 
 17615      6E6F6465 
 17615      5F696400 
 17616              	.LASF78:
 17617 0c02 43616E61 		.ascii	"CanardPoolAllocator\000"
 17617      7264506F 
 17617      6F6C416C 
 17617      6C6F6361 
 17617      746F7200 
 17618              	.LASF85:
 17619 0c16 5F5F7763 		.ascii	"__wchb\000"
 17619      686200
 17620              	.LASF25:
 17621 0c1d 75696E74 		.ascii	"uint64_t\000"
 17621      36345F74 
 17621      00
 17622              	.LASF102:
 17623 0c26 5F5F746D 		.ascii	"__tm_year\000"
ARM GAS  /tmp/cc2f1tkm.s 			page 320


 17623      5F796561 
 17623      7200
 17624              	.LASF190:
 17625 0c30 626C6F63 		.ascii	"block\000"
 17625      6B00
 17626              	.LASF247:
 17627 0c36 74726176 		.ascii	"traverseRxStates\000"
 17627      65727365 
 17627      52785374 
 17627      61746573 
 17627      00
 17628              	.LASF165:
 17629 0c47 5F737472 		.ascii	"_strtok_last\000"
 17629      746F6B5F 
 17629      6C617374 
 17629      00
 17630              	.LASF68:
 17631 0c54 43616E61 		.ascii	"CanardOnTransferReception\000"
 17631      72644F6E 
 17631      5472616E 
 17631      73666572 
 17631      52656365 
 17632              	.LASF185:
 17633 0c6e 5F756E75 		.ascii	"_unused\000"
 17633      73656400 
 17634              	.LASF6:
 17635 0c76 5F5F7569 		.ascii	"__uint8_t\000"
 17635      6E74385F 
 17635      7400
 17636              	.LASF151:
 17637 0c80 5F6E6577 		.ascii	"_new\000"
 17637      00
 17638              	.LASF155:
 17639 0c85 5F5F7366 		.ascii	"__sf\000"
 17639      00
 17640              	.LASF149:
 17641 0c8a 5F637674 		.ascii	"_cvtlen\000"
 17641      6C656E00 
 17642              	.LASF93:
 17643 0c92 5F6D6178 		.ascii	"_maxwds\000"
 17643      77647300 
 17644              	.LASF174:
 17645 0c9a 5F6C3634 		.ascii	"_l64a_buf\000"
 17645      615F6275 
 17645      6600
 17646              	.LASF62:
 17647 0ca4 7061796C 		.ascii	"payload_crc\000"
 17647      6F61645F 
 17647      63726300 
 17648              	.LASF267:
 17649 0cb0 63616E5F 		.ascii	"can_id\000"
 17649      696400
 17650              	.LASF59:
 17651 0cb7 64746964 		.ascii	"dtid_tt_snid_dnid\000"
 17651      5F74745F 
 17651      736E6964 
 17651      5F646E69 
ARM GAS  /tmp/cc2f1tkm.s 			page 321


 17651      6400
 17652              	.LASF277:
 17653 0cc9 6D616769 		.ascii	"magic\000"
 17653      6300
 17654              	.LASF329:
 17655 0ccf 5F5F6275 		.ascii	"__builtin_memset\000"
 17655      696C7469 
 17655      6E5F6D65 
 17655      6D736574 
 17655      00
 17656              	.LASF194:
 17657 0ce0 6275665F 		.ascii	"buf_len\000"
 17657      6C656E00 
 17658              	.LASF128:
 17659 0ce8 5F626C6B 		.ascii	"_blksize\000"
 17659      73697A65 
 17659      00
 17660              	.LASF96:
 17661 0cf1 5F5F746D 		.ascii	"__tm\000"
 17661      00
 17662              	.LASF244:
 17663 0cf6 696E6974 		.ascii	"init\000"
 17663      00
 17664              	.LASF131:
 17665 0cfb 5F6C6F63 		.ascii	"_lock\000"
 17665      6B00
 17666              	.LASF200:
 17667 0d01 63726341 		.ascii	"crcAddSignature\000"
 17667      64645369 
 17667      676E6174 
 17667      75726500 
 17668              	.LASF15:
 17669 0d11 6C6F6E67 		.ascii	"long unsigned int\000"
 17669      20756E73 
 17669      69676E65 
 17669      6420696E 
 17669      7400
 17670              	.LASF303:
 17671 0d23 7469645F 		.ascii	"tid_timed_out\000"
 17671      74696D65 
 17671      645F6F75 
 17671      7400
 17672              	.LASF66:
 17673 0d31 43616E61 		.ascii	"CanardShouldAcceptTransfer\000"
 17673      72645368 
 17673      6F756C64 
 17673      41636365 
 17673      70745472 
 17674              	.LASF202:
 17675 0d4c 73686966 		.ascii	"shift_val\000"
 17675      745F7661 
 17675      6C00
 17676              	.LASF158:
 17677 0d56 5F6E696F 		.ascii	"_niobs\000"
 17677      627300
 17678              	.LASF83:
 17679 0d5d 77696E74 		.ascii	"wint_t\000"
ARM GAS  /tmp/cc2f1tkm.s 			page 322


 17679      5F7400
 17680              	.LASF264:
 17681 0d64 71756575 		.ascii	"queue\000"
 17681      6500
 17682              	.LASF22:
 17683 0d6a 696E7433 		.ascii	"int32_t\000"
 17683      325F7400 
 17684              	.LASF310:
 17685 0d72 6F666673 		.ascii	"offset_within_block\000"
 17685      65745F77 
 17685      69746869 
 17685      6E5F626C 
 17685      6F636B00 
 17686              	.LASF37:
 17687 0d86 43616E61 		.ascii	"CanardInstance\000"
 17687      7264496E 
 17687      7374616E 
 17687      636500
 17688              	.LASF108:
 17689 0d95 5F64736F 		.ascii	"_dso_handle\000"
 17689      5F68616E 
 17689      646C6500 
 17690              	.LASF204:
 17691 0da1 62797465 		.ascii	"byte\000"
 17691      00
 17692              	.LASF294:
 17693 0da6 63616E61 		.ascii	"canardEncodeScalar\000"
 17693      7264456E 
 17693      636F6465 
 17693      5363616C 
 17693      617200
 17694              	.LASF186:
 17695 0db9 5F5F6C6F 		.ascii	"__lock\000"
 17695      636B00
 17696              	.LASF234:
 17697 0dc0 64617461 		.ascii	"data_index\000"
 17697      5F696E64 
 17697      657800
 17698              	.LASF31:
 17699 0dcb 43616E61 		.ascii	"CanardTransferTypeRequest\000"
 17699      72645472 
 17699      616E7366 
 17699      65725479 
 17699      70655265 
 17700              	.LASF295:
 17701 0de5 63616E61 		.ascii	"canardCleanupStaleTransfers\000"
 17701      7264436C 
 17701      65616E75 
 17701      70537461 
 17701      6C655472 
 17702              	.LASF279:
 17703 0e01 63616E61 		.ascii	"canardConvertFloat16ToNativeFloat\000"
 17703      7264436F 
 17703      6E766572 
 17703      74466C6F 
 17703      61743136 
 17704              	.LASF150:
ARM GAS  /tmp/cc2f1tkm.s 			page 323


 17705 0e23 5F637674 		.ascii	"_cvtbuf\000"
 17705      62756600 
 17706              	.LASF7:
 17707 0e2b 756E7369 		.ascii	"unsigned char\000"
 17707      676E6564 
 17707      20636861 
 17707      7200
 17708              	.LASF326:
 17709 0e39 706F6F6C 		.ascii	"pool_capacity\000"
 17709      5F636170 
 17709      61636974 
 17709      7900
 17710              	.LASF14:
 17711 0e47 5F5F7569 		.ascii	"__uint32_t\000"
 17711      6E743332 
 17711      5F7400
 17712              	.LASF32:
 17713 0e52 43616E61 		.ascii	"CanardTransferTypeBroadcast\000"
 17713      72645472 
 17713      616E7366 
 17713      65725479 
 17713      70654272 
 17714              	.LASF176:
 17715 0e6e 5F676574 		.ascii	"_getdate_err\000"
 17715      64617465 
 17715      5F657272 
 17715      00
 17716              	.LASF254:
 17717 0e7b 69735072 		.ascii	"isPriorityHigher\000"
 17717      696F7269 
 17717      74794869 
 17717      67686572 
 17717      00
 17718              	.LASF58:
 17719 0e8c 62756666 		.ascii	"buffer_blocks\000"
 17719      65725F62 
 17719      6C6F636B 
 17719      7300
 17720              	.LASF163:
 17721 0e9a 5F616464 		.ascii	"_add\000"
 17721      00
 17722              	.LASF72:
 17723 0e9f 63617061 		.ascii	"capacity_blocks\000"
 17723      63697479 
 17723      5F626C6F 
 17723      636B7300 
 17724              	.LASF218:
 17725 0eaf 616D6F75 		.ascii	"amount\000"
 17725      6E7400
 17726              	.LASF114:
 17727 0eb6 5F5F7362 		.ascii	"__sbuf\000"
 17727      756600
 17728              	.LASF227:
 17729 0ebd 6473745F 		.ascii	"dst_bit_offset\000"
 17729      6269745F 
 17729      6F666673 
 17729      657400
ARM GAS  /tmp/cc2f1tkm.s 			page 324


 17730              	.LASF157:
 17731 0ecc 5F676C75 		.ascii	"_glue\000"
 17731      6500
 17732              	.LASF226:
 17733 0ed2 7372635F 		.ascii	"src_bit_offset\000"
 17733      6269745F 
 17733      6F666673 
 17733      657400
 17734              	.LASF332:
 17735 0ee1 6C696263 		.ascii	"libcanard/canard.c\000"
 17735      616E6172 
 17735      642F6361 
 17735      6E617264 
 17735      2E6300
 17736              	.LASF262:
 17737 0ef4 6974656D 		.ascii	"item\000"
 17737      00
 17738              	.LASF154:
 17739 0ef9 5F5F7367 		.ascii	"__sglue\000"
 17739      6C756500 
 17740              	.LASF130:
 17741 0f01 5F646174 		.ascii	"_data\000"
 17741      6100
 17742              	.LASF60:
 17743 0f07 63616C63 		.ascii	"calculated_crc\000"
 17743      756C6174 
 17743      65645F63 
 17743      726300
 17744              	.LASF65:
 17745 0f16 6672616D 		.ascii	"frame\000"
 17745      6500
 17746              	.LASF142:
 17747 0f1c 5F6C6F63 		.ascii	"_locale\000"
 17747      616C6500 
 17748              	.LASF43:
 17749 0f24 74785F71 		.ascii	"tx_queue\000"
 17749      75657565 
 17749      00
 17750              	.LASF107:
 17751 0f2d 5F666E61 		.ascii	"_fnargs\000"
 17751      72677300 
 17752              	.LASF4:
 17753 0f35 7369676E 		.ascii	"signed char\000"
 17753      65642063 
 17753      68617200 
 17754              	.LASF134:
 17755 0f41 5F726565 		.ascii	"_reent\000"
 17755      6E7400
 17756              	.LASF11:
 17757 0f48 73686F72 		.ascii	"short unsigned int\000"
 17757      7420756E 
 17757      7369676E 
 17757      65642069 
 17757      6E7400
 17758              	.LASF224:
 17759 0f5b 6473745F 		.ascii	"dst_offset\000"
 17759      6F666673 
ARM GAS  /tmp/cc2f1tkm.s 			page 325


 17759      657400
 17760              	.LASF328:
 17761 0f66 6D656D63 		.ascii	"memcpy\000"
 17761      707900
 17762              	.LASF307:
 17763 0f6d 72785F74 		.ascii	"rx_transfer\000"
 17763      72616E73 
 17763      66657200 
 17764              	.LASF269:
 17765 0f79 71756575 		.ascii	"queue_item\000"
 17765      655F6974 
 17765      656D00
 17766              	.LASF109:
 17767 0f84 5F666E74 		.ascii	"_fntypes\000"
 17767      79706573 
 17767      00
 17768              	.LASF235:
 17769 0f8d 696E6465 		.ascii	"index_at_nth_block\000"
 17769      785F6174 
 17769      5F6E7468 
 17769      5F626C6F 
 17769      636B00
 17770              	.LASF213:
 17771 0fa0 696E7075 		.ascii	"input_bit_offset\000"
 17771      745F6269 
 17771      745F6F66 
 17771      66736574 
 17771      00
 17772              	.LASF116:
 17773 0fb1 5F73697A 		.ascii	"_size\000"
 17773      6500
 17774              	.LASF309:
 17775 0fb7 7461696C 		.ascii	"tail_offset\000"
 17775      5F6F6666 
 17775      73657400 
 17776              	.LASF293:
 17777 0fc3 6F75745F 		.ascii	"out_value\000"
 17777      76616C75 
 17777      6500
 17778              	.LASF81:
 17779 0fcd 5F6F6666 		.ascii	"_off_t\000"
 17779      5F7400
 17780              	.LASF127:
 17781 0fd4 5F6E6275 		.ascii	"_nbuf\000"
 17781      6600
 17782              	.LASF164:
 17783 0fda 5F756E75 		.ascii	"_unused_rand\000"
 17783      7365645F 
 17783      72616E64 
 17783      00
 17784              	.LASF236:
 17785 0fe7 6E74685F 		.ascii	"nth_block\000"
 17785      626C6F63 
 17785      6B00
 17786              	.LASF211:
 17787 0ff1 6269745F 		.ascii	"bit_length\000"
 17787      6C656E67 
ARM GAS  /tmp/cc2f1tkm.s 			page 326


 17787      746800
 17788              	.LASF141:
 17789 0ffc 5F756E73 		.ascii	"_unspecified_locale_info\000"
 17789      70656369 
 17789      66696564 
 17789      5F6C6F63 
 17789      616C655F 
 17790              	.LASF133:
 17791 1015 5F666C61 		.ascii	"_flags2\000"
 17791      67733200 
 17792              	.LASF301:
 17793 101d 72785F73 		.ascii	"rx_state\000"
 17793      74617465 
 17793      00
 17794              	.LASF110:
 17795 1026 5F69735F 		.ascii	"_is_cxa\000"
 17795      63786100 
 17796              	.LASF30:
 17797 102e 43616E61 		.ascii	"CanardTransferTypeResponse\000"
 17797      72645472 
 17797      616E7366 
 17797      65725479 
 17797      70655265 
 17798              	.LASF161:
 17799 1049 5F736565 		.ascii	"_seed\000"
 17799      6400
 17800              	.LASF169:
 17801 104f 5F72616E 		.ascii	"_rand_next\000"
 17801      645F6E65 
 17801      787400
 17802              	.LASF187:
 17803 105a 5F5F6C6F 		.ascii	"__locale_t\000"
 17803      63616C65 
 17803      5F7400
 17804              	.LASF214:
 17805 1065 6F757470 		.ascii	"output_bit_offset\000"
 17805      75745F62 
 17805      69745F6F 
 17805      66667365 
 17805      7400
 17806              	.LASF208:
 17807 1077 64657363 		.ascii	"descatterTransferPayload\000"
 17807      61747465 
 17807      72547261 
 17807      6E736665 
 17807      72506179 
 17808              	.LASF124:
 17809 1090 5F736565 		.ascii	"_seek\000"
 17809      6B00
 17810              	.LASF35:
 17811 1096 43616E61 		.ascii	"CanardRequest\000"
 17811      72645265 
 17811      71756573 
 17811      7400
 17812              	.LASF138:
 17813 10a4 5F737464 		.ascii	"_stderr\000"
 17813      65727200 
ARM GAS  /tmp/cc2f1tkm.s 			page 327


 17814              	.LASF184:
 17815 10ac 5F6E6D61 		.ascii	"_nmalloc\000"
 17815      6C6C6F63 
 17815      00
 17816              	.LASF126:
 17817 10b5 5F756275 		.ascii	"_ubuf\000"
 17817      6600
 17818              	.LASF286:
 17819 10bb 63616E61 		.ascii	"canardGetPoolAllocatorStatistics\000"
 17819      72644765 
 17819      74506F6F 
 17819      6C416C6C 
 17819      6F636174 
 17820              	.LASF306:
 17821 10dc 6E656564 		.ascii	"need_restart\000"
 17821      5F726573 
 17821      74617274 
 17821      00
 17822              		.ident	"GCC: (GNU Tools for Arm Embedded Processors 7-2018-q3-update) 7.3.1 20180622 (release) [AR
ARM GAS  /tmp/cc2f1tkm.s 			page 328


DEFINED SYMBOLS
                            *ABS*:0000000000000000 canard.c
     /tmp/cc2f1tkm.s:18     .text.unlikely.bufferBlockPushBytes:0000000000000000 $t
     /tmp/cc2f1tkm.s:24     .text.unlikely.bufferBlockPushBytes:0000000000000000 bufferBlockPushBytes
     /tmp/cc2f1tkm.s:384    .text.copyBitArray:0000000000000000 $t
     /tmp/cc2f1tkm.s:391    .text.copyBitArray:0000000000000000 copyBitArray
     /tmp/cc2f1tkm.s:499    .text.createTxItem:0000000000000000 $t
     /tmp/cc2f1tkm.s:506    .text.createTxItem:0000000000000000 createTxItem
     /tmp/cc2f1tkm.s:577    .text.createRxState:0000000000000000 $t
     /tmp/cc2f1tkm.s:584    .text.createRxState:0000000000000000 createRxState
     /tmp/cc2f1tkm.s:669    .text.pushTxQueue.isra.0:0000000000000000 $t
     /tmp/cc2f1tkm.s:676    .text.pushTxQueue.isra.0:0000000000000000 pushTxQueue.isra.0
     /tmp/cc2f1tkm.s:841    .text.enqueueTxFrames:0000000000000000 $t
     /tmp/cc2f1tkm.s:848    .text.enqueueTxFrames:0000000000000000 enqueueTxFrames
     /tmp/cc2f1tkm.s:1158   .text.canardInit:0000000000000000 $t
     /tmp/cc2f1tkm.s:1166   .text.canardInit:0000000000000000 canardInit
     /tmp/cc2f1tkm.s:1272   .text.canardGetUserReference:0000000000000000 $t
     /tmp/cc2f1tkm.s:1280   .text.canardGetUserReference:0000000000000000 canardGetUserReference
     /tmp/cc2f1tkm.s:1296   .text.canardSetLocalNodeID:0000000000000000 $t
     /tmp/cc2f1tkm.s:1304   .text.canardSetLocalNodeID:0000000000000000 canardSetLocalNodeID
     /tmp/cc2f1tkm.s:1328   .text.canardGetLocalNodeID:0000000000000000 $t
     /tmp/cc2f1tkm.s:1336   .text.canardGetLocalNodeID:0000000000000000 canardGetLocalNodeID
     /tmp/cc2f1tkm.s:1352   .text.canardBroadcast:0000000000000000 $t
     /tmp/cc2f1tkm.s:1360   .text.canardBroadcast:0000000000000000 canardBroadcast
     /tmp/cc2f1tkm.s:1666   .text.canardRequestOrRespond:0000000000000000 $t
     /tmp/cc2f1tkm.s:1674   .text.canardRequestOrRespond:0000000000000000 canardRequestOrRespond
     /tmp/cc2f1tkm.s:1904   .text.canardPeekTxQueue:0000000000000000 $t
     /tmp/cc2f1tkm.s:1912   .text.canardPeekTxQueue:0000000000000000 canardPeekTxQueue
     /tmp/cc2f1tkm.s:1933   .text.canardPopTxQueue:0000000000000000 $t
     /tmp/cc2f1tkm.s:1941   .text.canardPopTxQueue:0000000000000000 canardPopTxQueue
     /tmp/cc2f1tkm.s:1999   .text.canardHandleRxFrame:0000000000000000 $t
     /tmp/cc2f1tkm.s:2007   .text.canardHandleRxFrame:0000000000000000 canardHandleRxFrame
     /tmp/cc2f1tkm.s:2904   .text.canardHandleRxFrame:0000000000000438 $d
     /tmp/cc2f1tkm.s:2915   .text.canardHandleRxFrame:000000000000043c $t
     /tmp/cc2f1tkm.s:3260   .text.canardCleanupStaleTransfers:0000000000000000 $t
     /tmp/cc2f1tkm.s:3268   .text.canardCleanupStaleTransfers:0000000000000000 canardCleanupStaleTransfers
     /tmp/cc2f1tkm.s:3500   .text.canardCleanupStaleTransfers:00000000000000e0 $d
     /tmp/cc2f1tkm.s:3505   .text.canardDecodeScalar:0000000000000000 $t
     /tmp/cc2f1tkm.s:3513   .text.canardDecodeScalar:0000000000000000 canardDecodeScalar
     /tmp/cc2f1tkm.s:4083   .text.canardEncodeScalar:0000000000000000 $t
     /tmp/cc2f1tkm.s:4091   .text.canardEncodeScalar:0000000000000000 canardEncodeScalar
     /tmp/cc2f1tkm.s:4234   .text.canardReleaseRxTransferPayload:0000000000000000 $t
     /tmp/cc2f1tkm.s:4242   .text.canardReleaseRxTransferPayload:0000000000000000 canardReleaseRxTransferPayload
     /tmp/cc2f1tkm.s:4309   .text.canardGetPoolAllocatorStatistics:0000000000000000 $t
     /tmp/cc2f1tkm.s:4317   .text.canardGetPoolAllocatorStatistics:0000000000000000 canardGetPoolAllocatorStatistics
     /tmp/cc2f1tkm.s:4340   .text.canardConvertNativeFloatToFloat16:0000000000000000 $t
     /tmp/cc2f1tkm.s:4348   .text.canardConvertNativeFloatToFloat16:0000000000000000 canardConvertNativeFloatToFloat16
     /tmp/cc2f1tkm.s:4413   .text.canardConvertNativeFloatToFloat16:0000000000000054 $d
     /tmp/cc2f1tkm.s:4419   .text.canardConvertFloat16ToNativeFloat:0000000000000000 $t
     /tmp/cc2f1tkm.s:4427   .text.canardConvertFloat16ToNativeFloat:0000000000000000 canardConvertFloat16ToNativeFloat
     /tmp/cc2f1tkm.s:4469   .text.canardConvertFloat16ToNativeFloat:0000000000000038 $d

UNDEFINED SYMBOLS
memset
memcpy
