ARM GAS  /tmp/cc2f1tkm.s 			page 1


   1              		.cpu cortex-m4
   2              		.eabi_attribute 27, 1
   3              		.eabi_attribute 28, 1
   4              		.eabi_attribute 20, 1
   5              		.eabi_attribute 21, 1
   6              		.eabi_attribute 23, 3
   7              		.eabi_attribute 24, 1
   8              		.eabi_attribute 25, 1
   9              		.eabi_attribute 26, 1
  10              		.eabi_attribute 30, 2
  11              		.eabi_attribute 34, 1
  12              		.eabi_attribute 18, 4
  13              		.file	"canard.c"
  14              		.text
  15              	.Ltext0:
  16              		.cfi_sections	.debug_frame
  17              		.section	.text.unlikely.bufferBlockPushBytes,"ax",%progbits
  18              		.align	1
  19              		.syntax unified
  20              		.thumb
  21              		.thumb_func
  22              		.fpu fpv4-sp-d16
  23              		.type	bufferBlockPushBytes, %function
  24              	bufferBlockPushBytes:
  25              	.LFB30:
  26              		.file 1 "libcanard/canard.c"
  27              		.loc 1 1218 0
  28              		.cfi_startproc
  29              		@ args = 0, pretend = 0, frame = 8
  30              		@ frame_needed = 0, uses_anonymous_args = 0
  31              	.LVL0:
  32 0000 2DE9F04F 		push	{r4, r5, r6, r7, r8, r9, r10, fp, lr}
  33              		.cfi_def_cfa_offset 36
  34              		.cfi_offset 4, -36
  35              		.cfi_offset 5, -32
  36              		.cfi_offset 6, -28
  37              		.cfi_offset 7, -24
  38              		.cfi_offset 8, -20
  39              		.cfi_offset 9, -16
  40              		.cfi_offset 10, -12
  41              		.cfi_offset 11, -8
  42              		.cfi_offset 14, -4
  43 0004 CD8A     		ldrh	r5, [r1, #22]
  44 0006 83B0     		sub	sp, sp, #12
  45              		.cfi_def_cfa_offset 48
  46              		.loc 1 1222 0
  47 0008 C5F30904 		ubfx	r4, r5, #0, #10
  48 000c 062C     		cmp	r4, #6
  49              		.loc 1 1218 0
  50 000e 0192     		str	r2, [sp, #4]
  51 0010 2546     		mov	r5, r4
  52              		.loc 1 1222 0
  53 0012 1ED0     		beq	.L21
  54              	.LVL1:
  55              	.LBB187:
  56              		.loc 1 1224 0
  57 0014 0026     		movs	r6, #0
ARM GAS  /tmp/cc2f1tkm.s 			page 2


  58 0016 9CB2     		uxth	r4, r3
  59              	.LVL2:
  60              	.L3:
  61 0018 B7B2     		uxth	r7, r6
  62              	.LVL3:
  63              		.loc 1 1224 0 is_stmt 0 discriminator 1
  64 001a 07EB050C 		add	ip, r7, r5
  65 001e 1FFA8CFC 		uxth	ip, ip
  66 0022 BCF1050F 		cmp	ip, #5
  67              		.loc 1 1228 0 is_stmt 1 discriminator 1
  68 0026 05EB060C 		add	ip, r5, r6
  69              		.loc 1 1224 0 discriminator 1
  70 002a 02D9     		bls	.L4
  71              	.LBE187:
  72              		.loc 1 1230 0
  73 002c A742     		cmp	r7, r4
  74 002e 11D3     		bcc	.L2
  75 0030 08E0     		b	.L5
  76              	.L4:
  77              	.LBB188:
  78              		.loc 1 1225 0
  79 0032 A742     		cmp	r7, r4
  80 0034 06D2     		bcs	.L5
  81              		.loc 1 1228 0
  82 0036 019A     		ldr	r2, [sp, #4]
  83 0038 8C44     		add	ip, ip, r1
  84 003a 975D     		ldrb	r7, [r2, r6]	@ zero_extendqisi2
  85              	.LVL4:
  86 003c 8CF81A70 		strb	r7, [ip, #26]
  87              	.LVL5:
  88 0040 0136     		adds	r6, r6, #1
  89 0042 E9E7     		b	.L3
  90              	.LVL6:
  91              	.L5:
  92              	.LBE188:
  93              		.loc 1 1232 0
  94 0044 CB8A     		ldrh	r3, [r1, #22]
  95              	.LVL7:
  96              		.loc 1 1233 0
  97 0046 2544     		add	r5, r5, r4
  98              	.LVL8:
  99              		.loc 1 1232 0
 100 0048 65F30903 		bfi	r3, r5, #0, #10
 101 004c CB82     		strh	r3, [r1, #22]	@ movhi
 102              	.LVL9:
 103              		.loc 1 1234 0
 104 004e 0120     		movs	r0, #1
 105              	.LVL10:
 106 0050 97E0     		b	.L7
 107              	.LVL11:
 108              	.L21:
 109              		.loc 1 1219 0
 110 0052 0027     		movs	r7, #0
 111              	.LVL12:
 112              	.L2:
 113              		.loc 1 1239 0
 114 0054 1C26     		movs	r6, #28
ARM GAS  /tmp/cc2f1tkm.s 			page 3


 115 0056 A5F1060C 		sub	ip, r5, #6
 116              		.loc 1 1245 0
 117 005a 4C68     		ldr	r4, [r1, #4]
 118              		.loc 1 1239 0
 119 005c BCFBF6FE 		udiv	lr, ip, r6
 120 0060 06FB1ECE 		mls	lr, r6, lr, ip
 121              		.loc 1 1238 0
 122 0064 1FFA8EF6 		uxth	r6, lr
 123              	.LVL13:
 124              		.loc 1 1245 0
 125 0068 ACB9     		cbnz	r4, .L22
 126              	.LVL14:
 127              	.LBB189:
 128              	.LBB190:
 129              	.LBB191:
 130              	.LBB192:
 131              		.loc 1 1557 0
 132 006a 0468     		ldr	r4, [r0]
 133 006c 002C     		cmp	r4, #0
 134 006e 00F08680 		beq	.L23
 135              	.LVL15:
 136              		.loc 1 1567 0
 137 0072 C688     		ldrh	r6, [r0, #6]
 138              	.LVL16:
 139              		.loc 1 1568 0
 140 0074 B0F808C0 		ldrh	ip, [r0, #8]
 141              		.loc 1 1564 0
 142 0078 2268     		ldr	r2, [r4]
 143 007a 0260     		str	r2, [r0]
 144              		.loc 1 1567 0
 145 007c 0136     		adds	r6, r6, #1
 146 007e B6B2     		uxth	r6, r6
 147              		.loc 1 1568 0
 148 0080 B445     		cmp	ip, r6
 149              		.loc 1 1567 0
 150 0082 C680     		strh	r6, [r0, #6]	@ movhi
 151              		.loc 1 1570 0
 152 0084 38BF     		it	cc
 153 0086 0681     		strhcc	r6, [r0, #8]	@ movhi
 154              	.LVL17:
 155              	.LBE192:
 156              	.LBE191:
 157              		.loc 1 1318 0
 158 0088 0026     		movs	r6, #0
 159 008a 2660     		str	r6, [r4]
 160              	.LVL18:
 161              	.LBE190:
 162              	.LBE189:
 163              		.loc 1 1247 0
 164 008c 4C60     		str	r4, [r1, #4]
 165              	.LVL19:
 166              	.L12:
 167              		.loc 1 1285 0
 168 008e 9BB2     		uxth	r3, r3
 169              	.LVL20:
 170              	.LBB193:
 171              	.LBB194:
ARM GAS  /tmp/cc2f1tkm.s 			page 4


 172              		.loc 1 1318 0
 173 0090 4FF0000E 		mov	lr, #0
 174 0094 48E0     		b	.L10
 175              	.LVL21:
 176              	.L22:
 177              	.LBE194:
 178              	.LBE193:
 179              	.LBB201:
 180              		.loc 1 1259 0
 181 0096 4FF00108 		mov	r8, #1
 182              	.LVL22:
 183              	.L8:
 184              		.loc 1 1263 0
 185 009a D4F800C0 		ldr	ip, [r4]
 186              		.loc 1 1265 0
 187 009e 08F10109 		add	r9, r8, #1
 188              		.loc 1 1263 0
 189 00a2 BCF1000F 		cmp	ip, #0
 190 00a6 03D0     		beq	.L28
 191              		.loc 1 1265 0
 192 00a8 1FFA89F8 		uxth	r8, r9
 193              	.LVL23:
 194 00ac 6446     		mov	r4, ip
 195 00ae F4E7     		b	.L8
 196              	.LVL24:
 197              	.L28:
 198              		.loc 1 1270 0
 199 00b0 A3F1060C 		sub	ip, r3, #6
 200 00b4 AC44     		add	ip, ip, r5
 201 00b6 4FF01C09 		mov	r9, #28
 202 00ba BCFBF9FC 		udiv	ip, ip, r9
 203              		.loc 1 1269 0
 204 00be 0CF1010C 		add	ip, ip, #1
 205              		.loc 1 1273 0
 206 00c2 1FFA8CFC 		uxth	ip, ip
 207 00c6 E045     		cmp	r8, ip
 208 00c8 E1D2     		bcs	.L12
 209              		.loc 1 1273 0 is_stmt 0 discriminator 1
 210 00ca BEF1000F 		cmp	lr, #0
 211 00ce DED1     		bne	.L12
 212              	.LVL25:
 213              	.LBB202:
 214              	.LBB203:
 215              	.LBB204:
 216              	.LBB205:
 217              		.loc 1 1557 0 is_stmt 1
 218 00d0 D0F800C0 		ldr	ip, [r0]
 219 00d4 BCF1000F 		cmp	ip, #0
 220 00d8 51D0     		beq	.L23
 221              	.LVL26:
 222              		.loc 1 1567 0
 223 00da C688     		ldrh	r6, [r0, #6]
 224              	.LVL27:
 225              		.loc 1 1568 0
 226 00dc B0F808E0 		ldrh	lr, [r0, #8]
 227              	.LVL28:
 228              		.loc 1 1564 0
ARM GAS  /tmp/cc2f1tkm.s 			page 5


 229 00e0 DCF80020 		ldr	r2, [ip]
 230 00e4 0260     		str	r2, [r0]
 231              		.loc 1 1567 0
 232 00e6 0136     		adds	r6, r6, #1
 233 00e8 B6B2     		uxth	r6, r6
 234              		.loc 1 1568 0
 235 00ea B645     		cmp	lr, r6
 236              		.loc 1 1567 0
 237 00ec C680     		strh	r6, [r0, #6]	@ movhi
 238              		.loc 1 1570 0
 239 00ee 38BF     		it	cc
 240 00f0 0681     		strhcc	r6, [r0, #8]	@ movhi
 241              	.LVL29:
 242              	.LBE205:
 243              	.LBE204:
 244              		.loc 1 1318 0
 245 00f2 0026     		movs	r6, #0
 246 00f4 CCF80060 		str	r6, [ip]
 247              	.LVL30:
 248              	.LBE203:
 249              	.LBE202:
 250              		.loc 1 1275 0
 251 00f8 C4F800C0 		str	ip, [r4]
 252 00fc 6446     		mov	r4, ip
 253              	.LVL31:
 254 00fe C6E7     		b	.L12
 255              	.LVL32:
 256              	.L16:
 257              	.LBE201:
 258              	.LBB206:
 259              		.loc 1 1289 0
 260 0100 0CF1010C 		add	ip, ip, #1
 261              	.LVL33:
 262 0104 1FFA8CFC 		uxth	ip, ip
 263              	.LVL34:
 264              		.loc 1 1287 0
 265 0108 06EB0C0A 		add	r10, r6, ip
 266 010c AAEB070A 		sub	r10, r10, r7
 267 0110 1FFA8AFA 		uxth	r10, r10
 268              		.loc 1 1291 0
 269 0114 19F801BF 		ldrb	fp, [r9, #1]!	@ zero_extendqisi2
 270 0118 08F801BF 		strb	fp, [r8, #1]!
 271              		.loc 1 1287 0
 272 011c BAF11C0F 		cmp	r10, #28
 273 0120 0DD0     		beq	.L15
 274              		.loc 1 1288 0
 275 0122 6345     		cmp	r3, ip
 276 0124 ECD8     		bhi	.L16
 277              	.LVL35:
 278              	.L17:
 279              	.LBE206:
 280              		.loc 1 1302 0
 281 0126 6746     		mov	r7, ip
 282              	.LVL36:
 283              	.L10:
 284              		.loc 1 1285 0
 285 0128 BB42     		cmp	r3, r7
ARM GAS  /tmp/cc2f1tkm.s 			page 6


 286 012a 21D9     		bls	.L29
 287 012c 019A     		ldr	r2, [sp, #4]
 288 012e 07F1FF39 		add	r9, r7, #-1
 289 0132 06F10308 		add	r8, r6, #3
 290 0136 9144     		add	r9, r9, r2
 291 0138 A044     		add	r8, r8, r4
 292 013a BC46     		mov	ip, r7
 293 013c E0E7     		b	.L16
 294              	.LVL37:
 295              	.L15:
 296              		.loc 1 1294 0
 297 013e 6345     		cmp	r3, ip
 298 0140 F1D9     		bls	.L17
 299              	.LVL38:
 300              	.LBB207:
 301              	.LBB199:
 302              	.LBB195:
 303              	.LBB196:
 304              		.loc 1 1557 0
 305 0142 0768     		ldr	r7, [r0]
 306 0144 1FB9     		cbnz	r7, .L18
 307              	.LVL39:
 308              	.LBE196:
 309              	.LBE195:
 310              	.LBE199:
 311              	.LBE207:
 312              		.loc 1 1296 0
 313 0146 2760     		str	r7, [r4]
 314              		.loc 1 1299 0
 315 0148 6FF00200 		mvn	r0, #2
 316              	.LVL40:
 317 014c 19E0     		b	.L7
 318              	.LVL41:
 319              	.L18:
 320              	.LBB208:
 321              	.LBB200:
 322              	.LBB198:
 323              	.LBB197:
 324              		.loc 1 1567 0
 325 014e C688     		ldrh	r6, [r0, #6]
 326              	.LVL42:
 327              		.loc 1 1568 0
 328 0150 B0F80890 		ldrh	r9, [r0, #8]
 329              		.loc 1 1564 0
 330 0154 3A68     		ldr	r2, [r7]
 331 0156 0260     		str	r2, [r0]
 332              		.loc 1 1567 0
 333 0158 0136     		adds	r6, r6, #1
 334 015a B6B2     		uxth	r6, r6
 335              		.loc 1 1568 0
 336 015c B145     		cmp	r9, r6
 337              		.loc 1 1567 0
 338 015e C680     		strh	r6, [r0, #6]	@ movhi
 339              		.loc 1 1570 0
 340 0160 38BF     		it	cc
 341 0162 0681     		strhcc	r6, [r0, #8]	@ movhi
 342              	.LVL43:
ARM GAS  /tmp/cc2f1tkm.s 			page 7


 343              	.LBE197:
 344              	.LBE198:
 345              		.loc 1 1318 0
 346 0164 C7F800E0 		str	lr, [r7]
 347              	.LVL44:
 348              	.LBE200:
 349              	.LBE208:
 350              		.loc 1 1302 0
 351 0168 0026     		movs	r6, #0
 352              		.loc 1 1296 0
 353 016a 2760     		str	r7, [r4]
 354 016c 3C46     		mov	r4, r7
 355              	.LVL45:
 356 016e DAE7     		b	.L17
 357              	.LVL46:
 358              	.L29:
 359              		.loc 1 1306 0
 360 0170 CA8A     		ldrh	r2, [r1, #22]
 361 0172 1D44     		add	r5, r5, r3
 362 0174 65F30902 		bfi	r2, r5, #0, #10
 363 0178 CA82     		strh	r2, [r1, #22]	@ movhi
 364              	.LVL47:
 365              		.loc 1 1308 0
 366 017a 0120     		movs	r0, #1
 367              	.LVL48:
 368 017c 01E0     		b	.L7
 369              	.LVL49:
 370              	.L23:
 371              		.loc 1 1251 0
 372 017e 6FF00200 		mvn	r0, #2
 373              	.LVL50:
 374              	.L7:
 375              		.loc 1 1309 0
 376 0182 03B0     		add	sp, sp, #12
 377              		.cfi_def_cfa_offset 36
 378              		@ sp needed
 379 0184 BDE8F08F 		pop	{r4, r5, r6, r7, r8, r9, r10, fp, pc}
 380              		.cfi_endproc
 381              	.LFE30:
 382              		.size	bufferBlockPushBytes, .-bufferBlockPushBytes
 383              		.section	.text.copyBitArray,"ax",%progbits
 384              		.align	1
 385              		.p2align 4,,15
 386              		.syntax unified
 387              		.thumb
 388              		.thumb_func
 389              		.fpu fpv4-sp-d16
 390              		.type	copyBitArray, %function
 391              	copyBitArray:
 392              	.LFB32:
 393              		.loc 1 1327 0
 394              		.cfi_startproc
 395              		@ args = 4, pretend = 0, frame = 0
 396              		@ frame_needed = 0, uses_anonymous_args = 0
 397              	.LVL51:
 398 0000 2DE9F047 		push	{r4, r5, r6, r7, r8, r9, r10, lr}
 399              		.cfi_def_cfa_offset 32
ARM GAS  /tmp/cc2f1tkm.s 			page 8


 400              		.cfi_offset 4, -32
 401              		.cfi_offset 5, -28
 402              		.cfi_offset 6, -24
 403              		.cfi_offset 7, -20
 404              		.cfi_offset 8, -16
 405              		.cfi_offset 9, -12
 406              		.cfi_offset 10, -8
 407              		.cfi_offset 14, -4
 408              		.loc 1 1334 0
 409 0004 01F00705 		and	r5, r1, #7
 410              		.loc 1 1337 0
 411 0008 2A44     		add	r2, r2, r5
 412              	.LVL52:
 413              		.loc 1 1338 0
 414 000a 9542     		cmp	r5, r2
 415              		.loc 1 1327 0
 416 000c 089C     		ldr	r4, [sp, #32]
 417              	.LVL53:
 418              		.loc 1 1338 0
 419 000e 2DD0     		beq	.L30
 420 0010 C908     		lsrs	r1, r1, #3
 421              	.LVL54:
 422 0012 4FEAD408 		lsr	r8, r4, #3
 423              	.LVL55:
 424 0016 04F0070C 		and	ip, r4, #7
 425              	.LVL56:
 426 001a 0844     		add	r0, r0, r1
 427              	.LVL57:
 428              	.LBB209:
 429              		.loc 1 1346 0
 430 001c 4FF47F49 		mov	r9, #65280
 431              	.LVL58:
 432              	.L32:
 433              		.loc 1 1340 0
 434 0020 05F00706 		and	r6, r5, #7
 435              	.LVL59:
 436              		.loc 1 1341 0
 437 0024 0CF0070A 		and	r10, ip, #7
 438              	.LVL60:
 439              		.loc 1 1344 0
 440 0028 5645     		cmp	r6, r10
 441 002a 3446     		mov	r4, r6
 442              		.loc 1 1347 0
 443 002c 4FEAD501 		lsr	r1, r5, #3
 444              		.loc 1 1344 0
 445 0030 38BF     		it	cc
 446 0032 5446     		movcc	r4, r10
 447 0034 C4F10804 		rsb	r4, r4, #8
 448 0038 571B     		subs	r7, r2, r5
 449              		.loc 1 1350 0
 450 003a 08EBDC0E 		add	lr, r8, ip, lsr #3
 451              		.loc 1 1344 0
 452 003e BC42     		cmp	r4, r7
 453              		.loc 1 1347 0
 454 0040 415C     		ldrb	r1, [r0, r1]	@ zero_extendqisi2
 455              		.loc 1 1344 0
 456 0042 28BF     		it	cs
ARM GAS  /tmp/cc2f1tkm.s 			page 9


 457 0044 3C46     		movcs	r4, r7
 458              	.LVL61:
 459              		.loc 1 1347 0
 460 0046 B140     		lsls	r1, r1, r6
 461              		.loc 1 1350 0
 462 0048 13F80E70 		ldrb	r7, [r3, lr]	@ zero_extendqisi2
 463              		.loc 1 1346 0
 464 004c 29FA04F6 		lsr	r6, r9, r4
 465              	.LVL62:
 466              		.loc 1 1347 0
 467 0050 21FA0AF1 		lsr	r1, r1, r10
 468              		.loc 1 1346 0
 469 0054 F6B2     		uxtb	r6, r6
 470 0056 46FA0AF6 		asr	r6, r6, r10
 471              		.loc 1 1350 0
 472 005a 7940     		eors	r1, r1, r7
 473 005c 3140     		ands	r1, r1, r6
 474              		.loc 1 1352 0
 475 005e 2544     		add	r5, r5, r4
 476              	.LVL63:
 477              		.loc 1 1350 0
 478 0060 7940     		eors	r1, r1, r7
 479              	.LBE209:
 480              		.loc 1 1338 0
 481 0062 AA42     		cmp	r2, r5
 482              	.LBB210:
 483              		.loc 1 1353 0
 484 0064 A444     		add	ip, ip, r4
 485              	.LVL64:
 486              		.loc 1 1349 0
 487 0066 03F80E10 		strb	r1, [r3, lr]
 488              	.LBE210:
 489              		.loc 1 1338 0
 490 006a D9D1     		bne	.L32
 491              	.LVL65:
 492              	.L30:
 493              		.loc 1 1355 0
 494 006c BDE8F087 		pop	{r4, r5, r6, r7, r8, r9, r10, pc}
 495              		.cfi_endproc
 496              	.LFE32:
 497              		.size	copyBitArray, .-copyBitArray
 498              		.section	.text.createTxItem,"ax",%progbits
 499              		.align	1
 500              		.p2align 4,,15
 501              		.syntax unified
 502              		.thumb
 503              		.thumb_func
 504              		.fpu fpv4-sp-d16
 505              		.type	createTxItem, %function
 506              	createTxItem:
 507              	.LFB20:
 508              		.loc 1 1004 0
 509              		.cfi_startproc
 510              		@ args = 0, pretend = 0, frame = 0
 511              		@ frame_needed = 0, uses_anonymous_args = 0
 512              		@ link register save eliminated.
 513              	.LVL66:
ARM GAS  /tmp/cc2f1tkm.s 			page 10


 514              	.LBB211:
 515              	.LBB212:
 516              		.loc 1 1557 0
 517 0000 0368     		ldr	r3, [r0]
 518 0002 A3B1     		cbz	r3, .L41
 519              	.LVL67:
 520              		.loc 1 1567 0
 521 0004 C288     		ldrh	r2, [r0, #6]
 522              		.loc 1 1568 0
 523 0006 0189     		ldrh	r1, [r0, #8]
 524              		.loc 1 1567 0
 525 0008 0132     		adds	r2, r2, #1
 526 000a 92B2     		uxth	r2, r2
 527              		.loc 1 1568 0
 528 000c 9142     		cmp	r1, r2
 529              	.LBE212:
 530              	.LBE211:
 531              		.loc 1 1004 0
 532 000e 10B4     		push	{r4}
 533              		.cfi_def_cfa_offset 4
 534              		.cfi_offset 4, -4
 535              	.LBB215:
 536              	.LBB213:
 537              		.loc 1 1564 0
 538 0010 1C68     		ldr	r4, [r3]
 539              		.loc 1 1567 0
 540 0012 C280     		strh	r2, [r0, #6]	@ movhi
 541              		.loc 1 1570 0
 542 0014 38BF     		it	cc
 543 0016 0281     		strhcc	r2, [r0, #8]	@ movhi
 544              	.LVL68:
 545              	.LBE213:
 546              	.LBE215:
 547              		.loc 1 1010 0
 548 0018 0022     		movs	r2, #0
 549              	.LBB216:
 550              	.LBB214:
 551              		.loc 1 1564 0
 552 001a 0460     		str	r4, [r0]
 553              	.LBE214:
 554              	.LBE216:
 555              		.loc 1 1010 0
 556 001c 1A60     		str	r2, [r3]	@ unaligned
 557 001e 5A60     		str	r2, [r3, #4]	@ unaligned
 558 0020 9A60     		str	r2, [r3, #8]	@ unaligned
 559 0022 DA60     		str	r2, [r3, #12]	@ unaligned
 560 0024 1A61     		str	r2, [r3, #16]	@ unaligned
 561              		.loc 1 1012 0
 562 0026 1846     		mov	r0, r3
 563              	.LVL69:
 564 0028 5DF8044B 		ldr	r4, [sp], #4
 565              		.cfi_restore 4
 566              		.cfi_def_cfa_offset 0
 567 002c 7047     		bx	lr
 568              	.LVL70:
 569              	.L41:
 570 002e 1846     		mov	r0, r3
ARM GAS  /tmp/cc2f1tkm.s 			page 11


 571              	.LVL71:
 572 0030 7047     		bx	lr
 573              		.cfi_endproc
 574              	.LFE20:
 575              		.size	createTxItem, .-createTxItem
 576 0032 00BF     		.section	.text.createRxState,"ax",%progbits
 577              		.align	1
 578              		.p2align 4,,15
 579              		.syntax unified
 580              		.thumb
 581              		.thumb_func
 582              		.fpu fpv4-sp-d16
 583              		.type	createRxState, %function
 584              	createRxState:
 585              	.LFB28:
 586              		.loc 1 1178 0
 587              		.cfi_startproc
 588              		@ args = 0, pretend = 0, frame = 32
 589              		@ frame_needed = 0, uses_anonymous_args = 0
 590              	.LVL72:
 591 0000 70B5     		push	{r4, r5, r6, lr}
 592              		.cfi_def_cfa_offset 16
 593              		.cfi_offset 4, -16
 594              		.cfi_offset 5, -12
 595              		.cfi_offset 6, -8
 596              		.cfi_offset 14, -4
 597 0002 0446     		mov	r4, r0
 598 0004 88B0     		sub	sp, sp, #32
 599              		.cfi_def_cfa_offset 48
 600              		.loc 1 1178 0
 601 0006 0E46     		mov	r6, r1
 602              		.loc 1 1179 0
 603 0008 6846     		mov	r0, sp
 604              	.LVL73:
 605 000a 2022     		movs	r2, #32
 606 000c 0021     		movs	r1, #0
 607              	.LVL74:
 608 000e FFF7FEFF 		bl	memset
 609              	.LVL75:
 610              	.LBB217:
 611              	.LBB218:
 612              		.loc 1 1557 0
 613 0012 2568     		ldr	r5, [r4]
 614              	.LBE218:
 615              	.LBE217:
 616              		.loc 1 1179 0
 617 0014 0496     		str	r6, [sp, #16]
 618              	.LVL76:
 619              	.LBB220:
 620              	.LBB219:
 621              		.loc 1 1557 0
 622 0016 A5B1     		cbz	r5, .L44
 623              	.LVL77:
 624              		.loc 1 1567 0
 625 0018 E388     		ldrh	r3, [r4, #6]
 626              		.loc 1 1568 0
 627 001a 2289     		ldrh	r2, [r4, #8]
ARM GAS  /tmp/cc2f1tkm.s 			page 12


 628              		.loc 1 1564 0
 629 001c 2968     		ldr	r1, [r5]
 630 001e 2160     		str	r1, [r4]
 631              		.loc 1 1567 0
 632 0020 0133     		adds	r3, r3, #1
 633 0022 9BB2     		uxth	r3, r3
 634              		.loc 1 1568 0
 635 0024 9A42     		cmp	r2, r3
 636              		.loc 1 1567 0
 637 0026 E380     		strh	r3, [r4, #6]	@ movhi
 638              		.loc 1 1570 0
 639 0028 38BF     		it	cc
 640 002a 2381     		strhcc	r3, [r4, #8]	@ movhi
 641              	.LVL78:
 642              	.LBE219:
 643              	.LBE220:
 644              		.loc 1 1190 0
 645 002c 6C46     		mov	r4, sp
 646              	.LVL79:
 647 002e 0FCC     		ldmia	r4!, {r0, r1, r2, r3}
 648 0030 2860     		str	r0, [r5]	@ unaligned
 649 0032 6960     		str	r1, [r5, #4]	@ unaligned
 650 0034 AA60     		str	r2, [r5, #8]	@ unaligned
 651 0036 EB60     		str	r3, [r5, #12]	@ unaligned
 652 0038 0FCC     		ldmia	r4!, {r0, r1, r2, r3}
 653 003a 2861     		str	r0, [r5, #16]	@ unaligned
 654 003c 6961     		str	r1, [r5, #20]	@ unaligned
 655 003e AA61     		str	r2, [r5, #24]	@ unaligned
 656 0040 EB61     		str	r3, [r5, #28]	@ unaligned
 657              	.LVL80:
 658              	.L44:
 659              		.loc 1 1193 0
 660 0042 2846     		mov	r0, r5
 661 0044 08B0     		add	sp, sp, #32
 662              		.cfi_def_cfa_offset 16
 663              		@ sp needed
 664 0046 70BD     		pop	{r4, r5, r6, pc}
 665              		.cfi_endproc
 666              	.LFE28:
 667              		.size	createRxState, .-createRxState
 668              		.section	.text.pushTxQueue.isra.0,"ax",%progbits
 669              		.align	1
 670              		.p2align 4,,15
 671              		.syntax unified
 672              		.thumb
 673              		.thumb_func
 674              		.fpu fpv4-sp-d16
 675              		.type	pushTxQueue.isra.0, %function
 676              	pushTxQueue.isra.0:
 677              	.LFB42:
 678              		.loc 1 954 0
 679              		.cfi_startproc
 680              		@ args = 0, pretend = 0, frame = 0
 681              		@ frame_needed = 0, uses_anonymous_args = 0
 682              	.LVL81:
 683 0000 2DE9F041 		push	{r4, r5, r6, r7, r8, lr}
 684              		.cfi_def_cfa_offset 24
ARM GAS  /tmp/cc2f1tkm.s 			page 13


 685              		.cfi_offset 4, -24
 686              		.cfi_offset 5, -20
 687              		.cfi_offset 6, -16
 688              		.cfi_offset 7, -12
 689              		.cfi_offset 8, -8
 690              		.cfi_offset 14, -4
 691              		.loc 1 954 0
 692 0004 8E46     		mov	lr, r1
 693              		.loc 1 959 0
 694 0006 0168     		ldr	r1, [r0]
 695              	.LVL82:
 696 0008 0029     		cmp	r1, #0
 697 000a 40D0     		beq	.L67
 698              		.loc 1 970 0
 699 000c DEF80430 		ldr	r3, [lr, #4]
 700              	.LBB224:
 701              	.LBB225:
 702              		.loc 1 1019 0
 703 0010 23F0604C 		bic	ip, r3, #-536870912
 704              	.LBB226:
 705              		.loc 1 1029 0
 706 0014 4FEA9C45 		lsr	r5, ip, #18
 707 0018 15EA2305 		ands	r5, r5, r3, asr #32
 708 001c 38BF     		it	cc
 709 001e 6546     		movcc	r5, ip
 710              	.LBE226:
 711              		.loc 1 1025 0
 712 0020 DE0F     		lsrs	r6, r3, #31
 713              		.loc 1 1044 0
 714 0022 C3F38078 		ubfx	r8, r3, #30, #1
 715              	.LBB227:
 716              		.loc 1 1029 0
 717 0026 0F46     		mov	r7, r1
 718 0028 0A46     		mov	r2, r1
 719 002a 07E0     		b	.L63
 720              	.LVL83:
 721              	.L71:
 722              		.loc 1 1030 0
 723 002c 002B     		cmp	r3, #0
 724 002e 1BDB     		blt	.L69
 725              	.LVL84:
 726              		.loc 1 1031 0
 727 0030 AC42     		cmp	r4, r5
 728 0032 1CD1     		bne	.L56
 729              	.LVL85:
 730              	.L62:
 731              	.LBE227:
 732              	.LBE225:
 733              	.LBE224:
 734              		.loc 1 986 0
 735 0034 1368     		ldr	r3, [r2]
 736 0036 1746     		mov	r7, r2
 737 0038 6BB3     		cbz	r3, .L70
 738 003a 1A46     		mov	r2, r3
 739              	.LVL86:
 740              	.L63:
 741              		.loc 1 970 0
ARM GAS  /tmp/cc2f1tkm.s 			page 14


 742 003c 5368     		ldr	r3, [r2, #4]
 743              	.LVL87:
 744              	.LBB232:
 745              	.LBB229:
 746              		.loc 1 1027 0
 747 003e B6EBD37F 		cmp	r6, r3, lsr #31
 748              		.loc 1 1020 0
 749 0042 23F06044 		bic	r4, r3, #-536870912
 750              	.LVL88:
 751              		.loc 1 1027 0
 752 0046 F1D1     		bne	.L71
 753              	.LVL89:
 754              		.loc 1 1046 0
 755 0048 A445     		cmp	ip, r4
 756 004a 17D0     		beq	.L72
 757              	.LVL90:
 758              	.L60:
 759              		.loc 1 1054 0
 760 004c A445     		cmp	ip, r4
 761 004e 2CBF     		ite	cs
 762 0050 0023     		movcs	r3, #0
 763 0052 0123     		movcc	r3, #1
 764              	.LBE229:
 765              	.LBE232:
 766              		.loc 1 970 0
 767 0054 002B     		cmp	r3, #0
 768 0056 EDD0     		beq	.L62
 769              	.L61:
 770              		.loc 1 972 0
 771 0058 9142     		cmp	r1, r2
 772 005a 16D0     		beq	.L73
 773              		.loc 1 979 0
 774 005c C7F800E0 		str	lr, [r7]
 775              		.loc 1 980 0
 776 0060 CEF80020 		str	r2, [lr]
 777              		.loc 1 998 0
 778 0064 BDE8F081 		pop	{r4, r5, r6, r7, r8, pc}
 779              	.LVL91:
 780              	.L69:
 781              	.LBB233:
 782              	.LBB230:
 783              	.LBB228:
 784              		.loc 1 1030 0
 785 0068 A40C     		lsrs	r4, r4, #18
 786              	.LVL92:
 787              		.loc 1 1031 0
 788 006a AC42     		cmp	r4, r5
 789 006c F4D0     		beq	.L61
 790              	.L56:
 791              		.loc 1 1033 0
 792 006e AC42     		cmp	r4, r5
 793 0070 94BF     		ite	ls
 794 0072 0023     		movls	r3, #0
 795              	.LVL93:
 796 0074 0123     		movhi	r3, #1
 797              	.LVL94:
 798              	.LBE228:
ARM GAS  /tmp/cc2f1tkm.s 			page 15


 799              	.LBE230:
 800              	.LBE233:
 801              		.loc 1 970 0
 802 0076 002B     		cmp	r3, #0
 803 0078 DCD0     		beq	.L62
 804 007a EDE7     		b	.L61
 805              	.LVL95:
 806              	.L72:
 807              	.LBB234:
 808              	.LBB231:
 809              		.loc 1 1045 0
 810 007c C3F38073 		ubfx	r3, r3, #30, #1
 811              	.LVL96:
 812              		.loc 1 1046 0
 813 0080 9845     		cmp	r8, r3
 814 0082 E3D0     		beq	.L60
 815              	.LVL97:
 816              	.LBE231:
 817              	.LBE234:
 818              		.loc 1 970 0
 819 0084 002B     		cmp	r3, #0
 820 0086 D5D0     		beq	.L62
 821 0088 E6E7     		b	.L61
 822              	.L73:
 823              		.loc 1 974 0
 824 008a CEF80010 		str	r1, [lr]
 825              	.LVL98:
 826              	.L67:
 827              		.loc 1 975 0
 828 008e C0F800E0 		str	lr, [r0]
 829              		.loc 1 998 0
 830 0092 BDE8F081 		pop	{r4, r5, r6, r7, r8, pc}
 831              	.LVL99:
 832              	.L70:
 833              		.loc 1 988 0
 834 0096 C2F800E0 		str	lr, [r2]
 835              		.loc 1 998 0
 836 009a BDE8F081 		pop	{r4, r5, r6, r7, r8, pc}
 837              		.cfi_endproc
 838              	.LFE42:
 839              		.size	pushTxQueue.isra.0, .-pushTxQueue.isra.0
 840 009e 00BF     		.section	.text.enqueueTxFrames,"ax",%progbits
 841              		.align	1
 842              		.p2align 4,,15
 843              		.syntax unified
 844              		.thumb
 845              		.thumb_func
 846              		.fpu fpv4-sp-d16
 847              		.type	enqueueTxFrames, %function
 848              	enqueueTxFrames:
 849              	.LFB18:
 850              		.loc 1 868 0
 851              		.cfi_startproc
 852              		@ args = 8, pretend = 0, frame = 24
 853              		@ frame_needed = 0, uses_anonymous_args = 0
 854              	.LVL100:
 855 0000 2DE9F04F 		push	{r4, r5, r6, r7, r8, r9, r10, fp, lr}
ARM GAS  /tmp/cc2f1tkm.s 			page 16


 856              		.cfi_def_cfa_offset 36
 857              		.cfi_offset 4, -36
 858              		.cfi_offset 5, -32
 859              		.cfi_offset 6, -28
 860              		.cfi_offset 7, -24
 861              		.cfi_offset 8, -20
 862              		.cfi_offset 9, -16
 863              		.cfi_offset 10, -12
 864              		.cfi_offset 11, -8
 865              		.cfi_offset 14, -4
 866 0004 87B0     		sub	sp, sp, #28
 867              		.cfi_def_cfa_offset 64
 868              		.loc 1 868 0
 869 0006 BDF84490 		ldrh	r9, [sp, #68]
 870              		.loc 1 872 0
 871 000a 002A     		cmp	r2, #0
 872 000c 00F0AE80 		beq	.L87
 873 0010 0292     		str	r2, [sp, #8]
 874 0012 0493     		str	r3, [sp, #16]
 875 0014 0191     		str	r1, [sp, #4]
 876 0016 8046     		mov	r8, r0
 877              		.loc 1 877 0
 878 0018 B9F1000F 		cmp	r9, #0
 879 001c 71D0     		beq	.L100
 880              		.loc 1 877 0 is_stmt 0 discriminator 1
 881 001e 109B     		ldr	r3, [sp, #64]
 882              	.LVL101:
 883 0020 002B     		cmp	r3, #0
 884 0022 00F0A380 		beq	.L87
 885              	.LVL102:
 886 0026 00F10C03 		add	r3, r0, #12
 887              		.loc 1 884 0 is_stmt 1
 888 002a B9F1070F 		cmp	r9, #7
 889 002e 0093     		str	r3, [sp]
 890 0030 6AD9     		bls	.L76
 891              	.LBB241:
 892              	.LBB242:
 893              	.LBB243:
 894              	.LBB244:
 895              		.loc 1 922 0
 896 0032 049B     		ldr	r3, [sp, #16]
 897              	.LBE244:
 898              		.loc 1 905 0
 899 0034 0390     		str	r0, [sp, #12]
 900              	.LBE243:
 901              		.loc 1 882 0
 902 0036 0026     		movs	r6, #0
 903              	.LBB250:
 904              	.LBB245:
 905              		.loc 1 922 0
 906 0038 1B0A     		lsrs	r3, r3, #8
 907              		.loc 1 911 0
 908 003a 0098     		ldr	r0, [sp]
 909              	.LVL103:
 910              		.loc 1 922 0
 911 003c 0593     		str	r3, [sp, #20]
 912              	.LBE245:
ARM GAS  /tmp/cc2f1tkm.s 			page 17


 913              		.loc 1 904 0
 914 003e 3746     		mov	r7, r6
 915              		.loc 1 903 0
 916 0040 3446     		mov	r4, r6
 917              		.loc 1 905 0
 918 0042 4FF0800A 		mov	r10, #128
 919              	.LVL104:
 920 0046 DDF84080 		ldr	r8, [sp, #64]
 921              	.LVL105:
 922              	.LBB246:
 923              		.loc 1 911 0
 924 004a FFF7FEFF 		bl	createTxItem
 925              	.LVL106:
 926              		.loc 1 912 0
 927 004e 0028     		cmp	r0, #0
 928 0050 51D0     		beq	.L85
 929              	.L77:
 930              	.LVL107:
 931              		.loc 1 918 0
 932 0052 002C     		cmp	r4, #0
 933 0054 7DD1     		bne	.L78
 934              		.loc 1 921 0
 935 0056 049B     		ldr	r3, [sp, #16]
 936 0058 0372     		strb	r3, [r0, #8]
 937              		.loc 1 922 0
 938 005a 059B     		ldr	r3, [sp, #20]
 939 005c 4372     		strb	r3, [r0, #9]
 940              	.LVL108:
 941 005e 0321     		movs	r1, #3
 942 0060 0223     		movs	r3, #2
 943              	.L79:
 944              		.loc 1 932 0
 945 0062 0344     		add	r3, r3, r0
 946              		.loc 1 930 0
 947 0064 621C     		adds	r2, r4, #1
 948              		.loc 1 932 0
 949 0066 18F80440 		ldrb	r4, [r8, r4]	@ zero_extendqisi2
 950              	.LVL109:
 951 006a 1C72     		strb	r4, [r3, #8]
 952              		.loc 1 930 0
 953 006c 94B2     		uxth	r4, r2
 954              	.LVL110:
 955 006e 651E     		subs	r5, r4, #1
 956 0070 CA1D     		adds	r2, r1, #7
 957 0072 6FF0060B 		mvn	fp, #6
 958 0076 4544     		add	r5, r5, r8
 959 0078 0244     		add	r2, r2, r0
 960 007a ABEB000B 		sub	fp, fp, r0
 961 007e 00E0     		b	.L80
 962              	.L88:
 963 0080 1946     		mov	r1, r3
 964              	.L80:
 965              	.LVL111:
 966 0082 4B1C     		adds	r3, r1, #1
 967 0084 04F1010C 		add	ip, r4, #1
 968 0088 A145     		cmp	r9, r4
 969 008a DBB2     		uxtb	r3, r3
ARM GAS  /tmp/cc2f1tkm.s 			page 18


 970 008c 0BEB020E 		add	lr, fp, r2
 971 0090 1FFA8CF4 		uxth	r4, ip
 972              	.LVL112:
 973 0094 62D0     		beq	.L101
 974              		.loc 1 932 0
 975 0096 15F801CF 		ldrb	ip, [r5, #1]!	@ zero_extendqisi2
 976 009a 02F801CF 		strb	ip, [r2, #1]!
 977              	.LVL113:
 978              		.loc 1 930 0
 979 009e 062B     		cmp	r3, #6
 980 00a0 EED9     		bls	.L88
 981 00a2 0231     		adds	r1, r1, #2
 982 00a4 9E46     		mov	lr, r3
 983 00a6 CBB2     		uxtb	r3, r1
 984              	.L81:
 985              		.loc 1 935 0
 986 00a8 A145     		cmp	r9, r4
 987 00aa 08BF     		it	eq
 988 00ac 4FF0400A 		moveq	r10, #64
 989              	.LVL114:
 990              	.L83:
 991              		.loc 1 937 0
 992 00b0 029A     		ldr	r2, [sp, #8]
 993 00b2 1278     		ldrb	r2, [r2]	@ zero_extendqisi2
 994 00b4 02F01F02 		and	r2, r2, #31
 995 00b8 8644     		add	lr, lr, r0
 996 00ba 42EA4712 		orr	r2, r2, r7, lsl #5
 997 00be 4AEA020A 		orr	r10, r10, r2
 998              	.LVL115:
 999              		.loc 1 938 0
 1000 00c2 019A     		ldr	r2, [sp, #4]
 1001              		.loc 1 937 0
 1002 00c4 8EF808A0 		strb	r10, [lr, #8]
 1003              		.loc 1 939 0
 1004 00c8 0374     		strb	r3, [r0, #16]
 1005              		.loc 1 940 0
 1006 00ca 039B     		ldr	r3, [sp, #12]
 1007              		.loc 1 938 0
 1008 00cc 42F00045 		orr	r5, r2, #-2147483648
 1009              		.loc 1 940 0
 1010 00d0 0146     		mov	r1, r0
 1011              		.loc 1 938 0
 1012 00d2 4560     		str	r5, [r0, #4]
 1013              		.loc 1 940 0
 1014 00d4 03F11C00 		add	r0, r3, #28
 1015              	.LVL116:
 1016 00d8 FFF7FEFF 		bl	pushTxQueue.isra.0
 1017              	.LVL117:
 1018 00dc 0136     		adds	r6, r6, #1
 1019              	.LVL118:
 1020              	.LBE246:
 1021              		.loc 1 909 0
 1022 00de A145     		cmp	r9, r4
 1023              	.LBB247:
 1024              		.loc 1 943 0
 1025 00e0 87F00107 		eor	r7, r7, #1
 1026              	.LVL119:
ARM GAS  /tmp/cc2f1tkm.s 			page 19


 1027 00e4 36B2     		sxth	r6, r6
 1028              	.LVL120:
 1029              		.loc 1 944 0
 1030 00e6 4FF0000A 		mov	r10, #0
 1031              	.LBE247:
 1032              		.loc 1 909 0
 1033 00ea 2ED0     		beq	.L97
 1034              	.LVL121:
 1035              	.LBB248:
 1036              		.loc 1 911 0
 1037 00ec 0098     		ldr	r0, [sp]
 1038 00ee FFF7FEFF 		bl	createTxItem
 1039              	.LVL122:
 1040              		.loc 1 912 0
 1041 00f2 0028     		cmp	r0, #0
 1042 00f4 ADD1     		bne	.L77
 1043              	.LVL123:
 1044              	.L85:
 1045              		.loc 1 914 0
 1046 00f6 6FF00206 		mvn	r6, #2
 1047              	.LBE248:
 1048              	.LBE250:
 1049              	.LBE242:
 1050              	.LBE241:
 1051              		.loc 1 949 0
 1052 00fa 3046     		mov	r0, r6
 1053 00fc 07B0     		add	sp, sp, #28
 1054              		.cfi_remember_state
 1055              		.cfi_def_cfa_offset 36
 1056              		@ sp needed
 1057 00fe BDE8F08F 		pop	{r4, r5, r6, r7, r8, r9, r10, fp, pc}
 1058              	.LVL124:
 1059              	.L100:
 1060              		.cfi_restore_state
 1061 0102 00F10C03 		add	r3, r0, #12
 1062              	.LVL125:
 1063 0106 0093     		str	r3, [sp]
 1064              	.L76:
 1065              	.LVL126:
 1066              	.LBB253:
 1067              		.loc 1 886 0
 1068 0108 0098     		ldr	r0, [sp]
 1069              	.LVL127:
 1070 010a FFF7FEFF 		bl	createTxItem
 1071              	.LVL128:
 1072              		.loc 1 887 0
 1073 010e 0446     		mov	r4, r0
 1074 0110 0028     		cmp	r0, #0
 1075 0112 F0D0     		beq	.L85
 1076              		.loc 1 892 0
 1077 0114 4A46     		mov	r2, r9
 1078 0116 1099     		ldr	r1, [sp, #64]
 1079 0118 0830     		adds	r0, r0, #8
 1080              	.LVL129:
 1081 011a FFF7FEFF 		bl	memcpy
 1082              	.LVL130:
 1083              		.loc 1 894 0
ARM GAS  /tmp/cc2f1tkm.s 			page 20


 1084 011e 09F10103 		add	r3, r9, #1
 1085 0122 2374     		strb	r3, [r4, #16]
 1086              		.loc 1 895 0
 1087 0124 029B     		ldr	r3, [sp, #8]
 1088 0126 1A78     		ldrb	r2, [r3]	@ zero_extendqisi2
 1089              		.loc 1 896 0
 1090 0128 019B     		ldr	r3, [sp, #4]
 1091              		.loc 1 895 0
 1092 012a A144     		add	r9, r9, r4
 1093 012c 02F01F02 		and	r2, r2, #31
 1094              		.loc 1 896 0
 1095 0130 43F00043 		orr	r3, r3, #-2147483648
 1096              		.loc 1 895 0
 1097 0134 62F03F02 		orn	r2, r2, #63
 1098 0138 89F80820 		strb	r2, [r9, #8]
 1099              		.loc 1 898 0
 1100 013c 08F11C00 		add	r0, r8, #28
 1101 0140 2146     		mov	r1, r4
 1102              		.loc 1 896 0
 1103 0142 6360     		str	r3, [r4, #4]
 1104              		.loc 1 898 0
 1105 0144 FFF7FEFF 		bl	pushTxQueue.isra.0
 1106              	.LVL131:
 1107              		.loc 1 899 0
 1108 0148 0126     		movs	r6, #1
 1109              	.LVL132:
 1110              	.L97:
 1111              	.LBE253:
 1112              		.loc 1 949 0
 1113 014a 3046     		mov	r0, r6
 1114 014c 07B0     		add	sp, sp, #28
 1115              		.cfi_remember_state
 1116              		.cfi_def_cfa_offset 36
 1117              		@ sp needed
 1118 014e BDE8F08F 		pop	{r4, r5, r6, r7, r8, r9, r10, fp, pc}
 1119              	.LVL133:
 1120              	.L78:
 1121              		.cfi_restore_state
 1122              	.LBB254:
 1123              	.LBB252:
 1124              	.LBB251:
 1125              	.LBB249:
 1126              		.loc 1 930 0
 1127 0152 A145     		cmp	r9, r4
 1128 0154 06D9     		bls	.L102
 1129 0156 0121     		movs	r1, #1
 1130 0158 0023     		movs	r3, #0
 1131 015a 82E7     		b	.L79
 1132              	.LVL134:
 1133              	.L101:
 1134 015c 4C46     		mov	r4, r9
 1135              		.loc 1 935 0
 1136 015e 4FF0400A 		mov	r10, #64
 1137              	.LVL135:
 1138 0162 A5E7     		b	.L83
 1139              	.LVL136:
 1140              	.L102:
ARM GAS  /tmp/cc2f1tkm.s 			page 21


 1141              		.loc 1 930 0
 1142 0164 0123     		movs	r3, #1
 1143 0166 4FF0000E 		mov	lr, #0
 1144 016a 9DE7     		b	.L81
 1145              	.LVL137:
 1146              	.L87:
 1147              	.LBE249:
 1148              	.LBE251:
 1149              	.LBE252:
 1150              	.LBE254:
 1151              		.loc 1 874 0
 1152 016c 6FF00106 		mvn	r6, #1
 1153 0170 EBE7     		b	.L97
 1154              		.cfi_endproc
 1155              	.LFE18:
 1156              		.size	enqueueTxFrames, .-enqueueTxFrames
 1157 0172 00BF     		.section	.text.canardInit,"ax",%progbits
 1158              		.align	1
 1159              		.p2align 4,,15
 1160              		.global	canardInit
 1161              		.syntax unified
 1162              		.thumb
 1163              		.thumb_func
 1164              		.fpu fpv4-sp-d16
 1165              		.type	canardInit, %function
 1166              	canardInit:
 1167              	.LFB0:
 1168              		.loc 1 78 0
 1169              		.cfi_startproc
 1170              		@ args = 8, pretend = 0, frame = 0
 1171              		@ frame_needed = 0, uses_anonymous_args = 0
 1172              		@ link register save eliminated.
 1173              	.LVL138:
 1174 0000 70B4     		push	{r4, r5, r6}
 1175              		.cfi_def_cfa_offset 12
 1176              		.cfi_offset 4, -12
 1177              		.cfi_offset 5, -8
 1178              		.cfi_offset 6, -4
 1179              		.loc 1 98 0
 1180 0002 5209     		lsrs	r2, r2, #5
 1181              	.LVL139:
 1182              		.loc 1 78 0
 1183 0004 DDE90364 		ldrd	r6, r4, [sp, #12]
 1184 0008 4FF6FF75 		movw	r5, #65535
 1185 000c 9542     		cmp	r5, r2
 1186              		.loc 1 92 0
 1187 000e 8360     		str	r3, [r0, #8]
 1188 0010 28BF     		it	cs
 1189 0012 1546     		movcs	r5, r2
 1190              	.LVL140:
 1191              		.loc 1 89 0
 1192 0014 0023     		movs	r3, #0
 1193              	.LVL141:
 1194              		.loc 1 93 0
 1195 0016 4660     		str	r6, [r0, #4]
 1196              		.loc 1 96 0
 1197 0018 0462     		str	r4, [r0, #32]
ARM GAS  /tmp/cc2f1tkm.s 			page 22


 1198              		.loc 1 89 0
 1199 001a 0360     		str	r3, [r0]	@ unaligned
 1200              		.loc 1 104 0
 1201 001c AEB2     		uxth	r6, r5
 1202              	.LVL142:
 1203              		.loc 1 89 0
 1204 001e C360     		str	r3, [r0, #12]	@ unaligned
 1205 0020 0361     		str	r3, [r0, #16]	@ unaligned
 1206 0022 4361     		str	r3, [r0, #20]	@ unaligned
 1207              		.loc 1 91 0
 1208 0024 0370     		strb	r3, [r0]
 1209              		.loc 1 95 0
 1210 0026 C0E90633 		strd	r3, r3, [r0, #24]
 1211              	.LBB255:
 1212              	.LBB256:
 1213              		.loc 1 1540 0
 1214 002a 00F10C04 		add	r4, r0, #12
 1215              	.LVL143:
 1216              		.loc 1 1541 0
 1217 002e 72B1     		cbz	r2, .L106
 1218              	.LVL144:
 1219              	.L105:
 1220              		.loc 1 1545 0
 1221 0030 0133     		adds	r3, r3, #1
 1222              	.LVL145:
 1223              		.loc 1 1543 0
 1224 0032 0A46     		mov	r2, r1
 1225              		.loc 1 1541 0
 1226 0034 9D42     		cmp	r5, r3
 1227              		.loc 1 1543 0
 1228 0036 2160     		str	r1, [r4]
 1229              	.LVL146:
 1230 0038 01F12001 		add	r1, r1, #32
 1231              	.LVL147:
 1232 003c 1446     		mov	r4, r2
 1233              		.loc 1 1541 0
 1234 003e F7D8     		bhi	.L105
 1235              	.LVL148:
 1236              	.L104:
 1237              		.loc 1 1547 0
 1238 0040 0023     		movs	r3, #0
 1239 0042 1360     		str	r3, [r2]
 1240              		.loc 1 1549 0
 1241 0044 0682     		strh	r6, [r0, #16]	@ movhi
 1242              		.loc 1 1550 0
 1243 0046 4382     		strh	r3, [r0, #18]	@ movhi
 1244              		.loc 1 1551 0
 1245 0048 8382     		strh	r3, [r0, #20]	@ movhi
 1246              	.LVL149:
 1247              	.LBE256:
 1248              	.LBE255:
 1249              		.loc 1 105 0
 1250 004a 70BC     		pop	{r4, r5, r6}
 1251              		.cfi_remember_state
 1252              		.cfi_restore 6
 1253              		.cfi_restore 5
 1254              		.cfi_restore 4
ARM GAS  /tmp/cc2f1tkm.s 			page 23


 1255              		.cfi_def_cfa_offset 0
 1256              	.LVL150:
 1257 004c 7047     		bx	lr
 1258              	.LVL151:
 1259              	.L106:
 1260              		.cfi_restore_state
 1261              	.LBB258:
 1262              	.LBB257:
 1263              		.loc 1 1540 0
 1264 004e 2246     		mov	r2, r4
 1265 0050 F6E7     		b	.L104
 1266              	.LBE257:
 1267              	.LBE258:
 1268              		.cfi_endproc
 1269              	.LFE0:
 1270              		.size	canardInit, .-canardInit
 1271 0052 00BF     		.section	.text.canardGetUserReference,"ax",%progbits
 1272              		.align	1
 1273              		.p2align 4,,15
 1274              		.global	canardGetUserReference
 1275              		.syntax unified
 1276              		.thumb
 1277              		.thumb_func
 1278              		.fpu fpv4-sp-d16
 1279              		.type	canardGetUserReference, %function
 1280              	canardGetUserReference:
 1281              	.LFB1:
 1282              		.loc 1 108 0
 1283              		.cfi_startproc
 1284              		@ args = 0, pretend = 0, frame = 0
 1285              		@ frame_needed = 0, uses_anonymous_args = 0
 1286              		@ link register save eliminated.
 1287              	.LVL152:
 1288              		.loc 1 111 0
 1289 0000 006A     		ldr	r0, [r0, #32]
 1290              	.LVL153:
 1291 0002 7047     		bx	lr
 1292              		.cfi_endproc
 1293              	.LFE1:
 1294              		.size	canardGetUserReference, .-canardGetUserReference
 1295              		.section	.text.canardSetLocalNodeID,"ax",%progbits
 1296              		.align	1
 1297              		.p2align 4,,15
 1298              		.global	canardSetLocalNodeID
 1299              		.syntax unified
 1300              		.thumb
 1301              		.thumb_func
 1302              		.fpu fpv4-sp-d16
 1303              		.type	canardSetLocalNodeID, %function
 1304              	canardSetLocalNodeID:
 1305              	.LFB2:
 1306              		.loc 1 114 0
 1307              		.cfi_startproc
 1308              		@ args = 0, pretend = 0, frame = 0
 1309              		@ frame_needed = 0, uses_anonymous_args = 0
 1310              		@ link register save eliminated.
 1311              	.LVL154:
ARM GAS  /tmp/cc2f1tkm.s 			page 24


 1312              		.loc 1 117 0
 1313 0000 0378     		ldrb	r3, [r0]	@ zero_extendqisi2
 1314 0002 1BB9     		cbnz	r3, .L110
 1315              		.loc 1 117 0 is_stmt 0 discriminator 1
 1316 0004 4BB2     		sxtb	r3, r1
 1317 0006 002B     		cmp	r3, #0
 1318              		.loc 1 121 0 is_stmt 1 discriminator 1
 1319 0008 C8BF     		it	gt
 1320 000a 0170     		strbgt	r1, [r0]
 1321              	.L110:
 1322              		.loc 1 127 0
 1323 000c 7047     		bx	lr
 1324              		.cfi_endproc
 1325              	.LFE2:
 1326              		.size	canardSetLocalNodeID, .-canardSetLocalNodeID
 1327 000e 00BF     		.section	.text.canardGetLocalNodeID,"ax",%progbits
 1328              		.align	1
 1329              		.p2align 4,,15
 1330              		.global	canardGetLocalNodeID
 1331              		.syntax unified
 1332              		.thumb
 1333              		.thumb_func
 1334              		.fpu fpv4-sp-d16
 1335              		.type	canardGetLocalNodeID, %function
 1336              	canardGetLocalNodeID:
 1337              	.LFB3:
 1338              		.loc 1 130 0
 1339              		.cfi_startproc
 1340              		@ args = 0, pretend = 0, frame = 0
 1341              		@ frame_needed = 0, uses_anonymous_args = 0
 1342              		@ link register save eliminated.
 1343              	.LVL155:
 1344              		.loc 1 132 0
 1345 0000 0078     		ldrb	r0, [r0]	@ zero_extendqisi2
 1346              	.LVL156:
 1347 0002 7047     		bx	lr
 1348              		.cfi_endproc
 1349              	.LFE3:
 1350              		.size	canardGetLocalNodeID, .-canardGetLocalNodeID
 1351              		.section	.text.canardBroadcast,"ax",%progbits
 1352              		.align	1
 1353              		.p2align 4,,15
 1354              		.global	canardBroadcast
 1355              		.syntax unified
 1356              		.thumb
 1357              		.thumb_func
 1358              		.fpu fpv4-sp-d16
 1359              		.type	canardBroadcast, %function
 1360              	canardBroadcast:
 1361              	.LFB4:
 1362              		.loc 1 141 0
 1363              		.cfi_startproc
 1364              		@ args = 20, pretend = 0, frame = 0
 1365              		@ frame_needed = 0, uses_anonymous_args = 0
 1366              	.LVL157:
 1367 0000 2DE9F047 		push	{r4, r5, r6, r7, r8, r9, r10, lr}
 1368              		.cfi_def_cfa_offset 32
ARM GAS  /tmp/cc2f1tkm.s 			page 25


 1369              		.cfi_offset 4, -32
 1370              		.cfi_offset 5, -28
 1371              		.cfi_offset 6, -24
 1372              		.cfi_offset 7, -20
 1373              		.cfi_offset 8, -16
 1374              		.cfi_offset 9, -12
 1375              		.cfi_offset 10, -8
 1376              		.cfi_offset 14, -4
 1377 0004 82B0     		sub	sp, sp, #8
 1378              		.cfi_def_cfa_offset 40
 1379              		.loc 1 141 0
 1380 0006 0D9F     		ldr	r7, [sp, #52]
 1381 0008 BDF82850 		ldrh	r5, [sp, #40]
 1382 000c 0B9E     		ldr	r6, [sp, #44]
 1383 000e 9DF830E0 		ldrb	lr, [sp, #48]	@ zero_extendqisi2
 1384 0012 BDF838C0 		ldrh	ip, [sp, #56]
 1385              		.loc 1 142 0
 1386 0016 002F     		cmp	r7, #0
 1387 0018 00F09080 		beq	.L141
 1388              	.L114:
 1389              		.loc 1 146 0
 1390 001c BEF11F0F 		cmp	lr, #31
 1391 0020 00F29080 		bhi	.L133
 1392              	.LVL158:
 1393              	.LBB259:
 1394              	.LBB260:
 1395              		.loc 1 131 0
 1396 0024 0178     		ldrb	r1, [r0]	@ zero_extendqisi2
 1397              	.LVL159:
 1398              	.LBE260:
 1399              	.LBE259:
 1400              		.loc 1 154 0
 1401 0026 0029     		cmp	r1, #0
 1402 0028 3DD1     		bne	.L116
 1403              	.LBB261:
 1404              		.loc 1 156 0
 1405 002a BCF1070F 		cmp	ip, #7
 1406 002e 00F28F80 		bhi	.L132
 1407              		.loc 1 163 0
 1408 0032 35F00303 		bics	r3, r5, #3
 1409 0036 40F08580 		bne	.L133
 1410              	.LVL160:
 1411 003a 07EB0C09 		add	r9, r7, ip
 1412              		.loc 1 169 0
 1413 003e 3946     		mov	r1, r7
 1414              	.LBB262:
 1415              	.LBB263:
 1416              		.loc 1 1525 0
 1417 0040 4945     		cmp	r1, r9
 1418              	.LBE263:
 1419              	.LBE262:
 1420              		.loc 1 169 0
 1421 0042 4FF6FF73 		movw	r3, #65535
 1422              	.LBB271:
 1423              	.LBB270:
 1424              	.LBB264:
 1425              	.LBB265:
ARM GAS  /tmp/cc2f1tkm.s 			page 26


 1426              	.LBB266:
 1427              		.loc 1 1504 0
 1428 0046 41F22108 		movw	r8, #4129
 1429              	.LVL161:
 1430              	.LBE266:
 1431              	.LBE265:
 1432              	.LBE264:
 1433              		.loc 1 1525 0
 1434 004a 12D0     		beq	.L142
 1435              	.LVL162:
 1436              	.L120:
 1437              	.LBB269:
 1438              	.LBB268:
 1439              		.loc 1 1499 0
 1440 004c 11F8012B 		ldrb	r2, [r1], #1	@ zero_extendqisi2
 1441              	.LVL163:
 1442 0050 83EA0223 		eor	r3, r3, r2, lsl #8
 1443              	.LVL164:
 1444 0054 0822     		movs	r2, #8
 1445              	.LVL165:
 1446              	.L119:
 1447              	.LBB267:
 1448              		.loc 1 1502 0
 1449 0056 1CB2     		sxth	r4, r3
 1450 0058 5B00     		lsls	r3, r3, #1
 1451              	.LVL166:
 1452 005a 002C     		cmp	r4, #0
 1453 005c 02F1FF32 		add	r2, r2, #-1
 1454              	.LVL167:
 1455 0060 9BB2     		uxth	r3, r3
 1456              		.loc 1 1504 0
 1457 0062 B8BF     		it	lt
 1458 0064 83EA0803 		eorlt	r3, r3, r8
 1459              	.LVL168:
 1460              		.loc 1 1500 0
 1461 0068 12F0FF02 		ands	r2, r2, #255
 1462 006c F3D1     		bne	.L119
 1463              	.LVL169:
 1464              	.LBE267:
 1465              	.LBE268:
 1466              	.LBE269:
 1467              		.loc 1 1525 0
 1468 006e 4945     		cmp	r1, r9
 1469 0070 ECD1     		bne	.L120
 1470              	.LVL170:
 1471              	.L142:
 1472              	.LBE270:
 1473              	.LBE271:
 1474              		.loc 1 171 0
 1475 0072 2902     		lsls	r1, r5, #8
 1476              		.loc 1 169 0
 1477 0074 47F6FE72 		movw	r2, #32766
 1478              		.loc 1 170 0
 1479 0078 41EA0E61 		orr	r1, r1, lr, lsl #24
 1480 007c 1340     		ands	r3, r3, r2
 1481              	.LVL171:
 1482 007e 41EA4321 		orr	r1, r1, r3, lsl #9
ARM GAS  /tmp/cc2f1tkm.s 			page 27


 1483              	.LVL172:
 1484              	.LBE261:
 1485              		.loc 1 152 0
 1486 0082 4FF6FF74 		movw	r4, #65535
 1487              	.LVL173:
 1488              	.L121:
 1489              		.loc 1 184 0
 1490 0086 2346     		mov	r3, r4
 1491 0088 CDE9007C 		strd	r7, ip, [sp]
 1492 008c 3246     		mov	r2, r6
 1493 008e FFF7FEFF 		bl	enqueueTxFrames
 1494              	.LVL174:
 1495              	.LBB272:
 1496              	.LBB273:
 1497              		.loc 1 855 0
 1498 0092 3378     		ldrb	r3, [r6]	@ zero_extendqisi2
 1499 0094 0133     		adds	r3, r3, #1
 1500 0096 DBB2     		uxtb	r3, r3
 1501              		.loc 1 856 0
 1502 0098 1F2B     		cmp	r3, #31
 1503              		.loc 1 858 0
 1504 009a 88BF     		it	hi
 1505 009c 0023     		movhi	r3, #0
 1506 009e 3370     		strb	r3, [r6]
 1507              	.LVL175:
 1508              	.L115:
 1509              	.LBE273:
 1510              	.LBE272:
 1511              		.loc 1 189 0
 1512 00a0 02B0     		add	sp, sp, #8
 1513              		.cfi_remember_state
 1514              		.cfi_def_cfa_offset 32
 1515              		@ sp needed
 1516 00a2 BDE8F087 		pop	{r4, r5, r6, r7, r8, r9, r10, pc}
 1517              	.LVL176:
 1518              	.L116:
 1519              		.cfi_restore_state
 1520              		.loc 1 175 0
 1521 00a6 41EA0521 		orr	r1, r1, r5, lsl #8
 1522              		.loc 1 177 0
 1523 00aa BCF1070F 		cmp	ip, #7
 1524              		.loc 1 175 0
 1525 00ae 41EA0E61 		orr	r1, r1, lr, lsl #24
 1526              	.LVL177:
 1527              		.loc 1 177 0
 1528 00b2 4AD9     		bls	.L134
 1529 00b4 4FF00008 		mov	r8, #0
 1530 00b8 4FF6FF74 		movw	r4, #65535
 1531              	.LBB274:
 1532              	.LBB275:
 1533              	.LBB276:
 1534              	.LBB277:
 1535              	.LBB278:
 1536              		.loc 1 1504 0
 1537 00bc 41F22109 		movw	r9, #4129
 1538              	.L124:
 1539              	.LVL178:
ARM GAS  /tmp/cc2f1tkm.s 			page 28


 1540              	.LBE278:
 1541              	.LBE277:
 1542              	.LBE276:
 1543              		.loc 1 1518 0
 1544 00c0 C8F1200A 		rsb	r10, r8, #32
 1545 00c4 03FA0AFA 		lsl	r10, r3, r10
 1546 00c8 22FA08F5 		lsr	r5, r2, r8
 1547 00cc A8F1200E 		sub	lr, r8, #32
 1548 00d0 45EA0A05 		orr	r5, r5, r10
 1549 00d4 23FA0EFE 		lsr	lr, r3, lr
 1550 00d8 45EA0E05 		orr	r5, r5, lr
 1551              	.LBB281:
 1552              	.LBB280:
 1553              		.loc 1 1499 0
 1554 00dc EDB2     		uxtb	r5, r5
 1555 00de 84EA0524 		eor	r4, r4, r5, lsl #8
 1556              	.LVL179:
 1557 00e2 0825     		movs	r5, #8
 1558              	.LVL180:
 1559              	.L123:
 1560              	.LBB279:
 1561              		.loc 1 1502 0
 1562 00e4 0FFA84FE 		sxth	lr, r4
 1563 00e8 6400     		lsls	r4, r4, #1
 1564              	.LVL181:
 1565 00ea BEF1000F 		cmp	lr, #0
 1566 00ee 05F1FF35 		add	r5, r5, #-1
 1567              	.LVL182:
 1568 00f2 A4B2     		uxth	r4, r4
 1569              		.loc 1 1504 0
 1570 00f4 B8BF     		it	lt
 1571 00f6 84EA0904 		eorlt	r4, r4, r9
 1572              	.LVL183:
 1573              		.loc 1 1500 0
 1574 00fa 15F0FF05 		ands	r5, r5, #255
 1575 00fe F1D1     		bne	.L123
 1576              	.LVL184:
 1577 0100 08F10808 		add	r8, r8, #8
 1578              	.LVL185:
 1579              	.LBE279:
 1580              	.LBE280:
 1581              	.LBE281:
 1582              		.loc 1 1516 0
 1583 0104 B8F1400F 		cmp	r8, #64
 1584 0108 DAD1     		bne	.L124
 1585              	.LVL186:
 1586 010a 07EB0C08 		add	r8, r7, ip
 1587              	.LBE275:
 1588              	.LBE274:
 1589              		.loc 1 180 0
 1590 010e 3B46     		mov	r3, r7
 1591              	.LBB282:
 1592              	.LBB283:
 1593              	.LBB284:
 1594              	.LBB285:
 1595              	.LBB286:
 1596              		.loc 1 1504 0
ARM GAS  /tmp/cc2f1tkm.s 			page 29


 1597 0110 41F2210E 		movw	lr, #4129
 1598              	.LVL187:
 1599              	.L125:
 1600              	.LBE286:
 1601              	.LBE285:
 1602              	.LBE284:
 1603              		.loc 1 1525 0
 1604 0114 9845     		cmp	r8, r3
 1605 0116 B6D0     		beq	.L121
 1606              	.LVL188:
 1607              	.LBB289:
 1608              	.LBB288:
 1609              		.loc 1 1499 0
 1610 0118 13F8012B 		ldrb	r2, [r3], #1	@ zero_extendqisi2
 1611              	.LVL189:
 1612 011c 84EA0224 		eor	r4, r4, r2, lsl #8
 1613              	.LVL190:
 1614 0120 0822     		movs	r2, #8
 1615              	.LVL191:
 1616              	.L127:
 1617              	.LBB287:
 1618              		.loc 1 1502 0
 1619 0122 25B2     		sxth	r5, r4
 1620 0124 6400     		lsls	r4, r4, #1
 1621              	.LVL192:
 1622 0126 002D     		cmp	r5, #0
 1623 0128 02F1FF32 		add	r2, r2, #-1
 1624              	.LVL193:
 1625 012c A4B2     		uxth	r4, r4
 1626              		.loc 1 1504 0
 1627 012e B8BF     		it	lt
 1628 0130 84EA0E04 		eorlt	r4, r4, lr
 1629              	.LVL194:
 1630              		.loc 1 1500 0
 1631 0134 12F0FF02 		ands	r2, r2, #255
 1632 0138 F3D1     		bne	.L127
 1633 013a EBE7     		b	.L125
 1634              	.LVL195:
 1635              	.L141:
 1636              	.LBE287:
 1637              	.LBE288:
 1638              	.LBE289:
 1639              	.LBE283:
 1640              	.LBE282:
 1641              		.loc 1 142 0 discriminator 1
 1642 013c BCF1000F 		cmp	ip, #0
 1643 0140 3FF46CAF 		beq	.L114
 1644              	.L133:
 1645              		.loc 1 144 0
 1646 0144 6FF00100 		mvn	r0, #1
 1647              	.LVL196:
 1648 0148 AAE7     		b	.L115
 1649              	.LVL197:
 1650              	.L134:
 1651              		.loc 1 152 0
 1652 014a 4FF6FF74 		movw	r4, #65535
 1653 014e 9AE7     		b	.L121
ARM GAS  /tmp/cc2f1tkm.s 			page 30


 1654              	.LVL198:
 1655              	.L132:
 1656              	.LBB290:
 1657              		.loc 1 158 0
 1658 0150 6FF00300 		mvn	r0, #3
 1659              	.LVL199:
 1660 0154 A4E7     		b	.L115
 1661              	.LBE290:
 1662              		.cfi_endproc
 1663              	.LFE4:
 1664              		.size	canardBroadcast, .-canardBroadcast
 1665 0156 00BF     		.section	.text.canardRequestOrRespond,"ax",%progbits
 1666              		.align	1
 1667              		.p2align 4,,15
 1668              		.global	canardRequestOrRespond
 1669              		.syntax unified
 1670              		.thumb
 1671              		.thumb_func
 1672              		.fpu fpv4-sp-d16
 1673              		.type	canardRequestOrRespond, %function
 1674              	canardRequestOrRespond:
 1675              	.LFB5:
 1676              		.loc 1 200 0
 1677              		.cfi_startproc
 1678              		@ args = 24, pretend = 0, frame = 0
 1679              		@ frame_needed = 0, uses_anonymous_args = 0
 1680              	.LVL200:
 1681 0000 2DE9F047 		push	{r4, r5, r6, r7, r8, r9, r10, lr}
 1682              		.cfi_def_cfa_offset 32
 1683              		.cfi_offset 4, -32
 1684              		.cfi_offset 5, -28
 1685              		.cfi_offset 6, -24
 1686              		.cfi_offset 7, -20
 1687              		.cfi_offset 8, -16
 1688              		.cfi_offset 9, -12
 1689              		.cfi_offset 10, -8
 1690              		.cfi_offset 14, -4
 1691 0004 82B0     		sub	sp, sp, #8
 1692              		.cfi_def_cfa_offset 40
 1693              		.loc 1 200 0
 1694 0006 DDF838C0 		ldr	ip, [sp, #56]
 1695 000a 9DF82850 		ldrb	r5, [sp, #40]	@ zero_extendqisi2
 1696 000e 9DF83040 		ldrb	r4, [sp, #48]	@ zero_extendqisi2
 1697 0012 9DF83470 		ldrb	r7, [sp, #52]	@ zero_extendqisi2
 1698 0016 BDF83CE0 		ldrh	lr, [sp, #60]
 1699              		.loc 1 201 0
 1700 001a BCF1000F 		cmp	ip, #0
 1701 001e 67D0     		beq	.L164
 1702              	.L144:
 1703              		.loc 1 205 0
 1704 0020 1F2C     		cmp	r4, #31
 1705 0022 68D8     		bhi	.L156
 1706              	.LVL201:
 1707              	.LBB291:
 1708              	.LBB292:
 1709              		.loc 1 131 0
 1710 0024 0678     		ldrb	r6, [r0]	@ zero_extendqisi2
ARM GAS  /tmp/cc2f1tkm.s 			page 31


 1711              	.LVL202:
 1712              	.LBE292:
 1713              	.LBE291:
 1714              		.loc 1 209 0
 1715 0026 002E     		cmp	r6, #0
 1716 0028 68D0     		beq	.L157
 1717              		.loc 1 215 0
 1718 002a 0902     		lsls	r1, r1, #8
 1719              	.LVL203:
 1720              		.loc 1 214 0
 1721 002c 41F08001 		orr	r1, r1, #128
 1722 0030 41EAC731 		orr	r1, r1, r7, lsl #15
 1723 0034 41EA0541 		orr	r1, r1, r5, lsl #16
 1724 0038 3143     		orrs	r1, r1, r6
 1725              		.loc 1 219 0
 1726 003a BEF1070F 		cmp	lr, #7
 1727              		.loc 1 214 0
 1728 003e 41EA0461 		orr	r1, r1, r4, lsl #24
 1729              	.LVL204:
 1730              		.loc 1 219 0
 1731 0042 15D8     		bhi	.L165
 1732              		.loc 1 217 0
 1733 0044 4FF6FF74 		movw	r4, #65535
 1734              	.LVL205:
 1735              	.L146:
 1736              		.loc 1 225 0
 1737 0048 CDE900CE 		strd	ip, lr, [sp]
 1738 004c 2346     		mov	r3, r4
 1739 004e 0B9A     		ldr	r2, [sp, #44]
 1740 0050 FFF7FEFF 		bl	enqueueTxFrames
 1741              	.LVL206:
 1742              		.loc 1 227 0
 1743 0054 012F     		cmp	r7, #1
 1744 0056 08D1     		bne	.L145
 1745              	.LVL207:
 1746              	.LBB293:
 1747              	.LBB294:
 1748              		.loc 1 855 0
 1749 0058 0B9B     		ldr	r3, [sp, #44]
 1750              		.loc 1 858 0
 1751 005a 0B9A     		ldr	r2, [sp, #44]
 1752              		.loc 1 855 0
 1753 005c 1B78     		ldrb	r3, [r3]	@ zero_extendqisi2
 1754 005e 0133     		adds	r3, r3, #1
 1755 0060 DBB2     		uxtb	r3, r3
 1756              		.loc 1 856 0
 1757 0062 1F2B     		cmp	r3, #31
 1758              		.loc 1 858 0
 1759 0064 88BF     		it	hi
 1760 0066 0023     		movhi	r3, #0
 1761 0068 1370     		strb	r3, [r2]
 1762              	.LVL208:
 1763              	.L145:
 1764              	.LBE294:
 1765              	.LBE293:
 1766              		.loc 1 233 0
 1767 006a 02B0     		add	sp, sp, #8
ARM GAS  /tmp/cc2f1tkm.s 			page 32


 1768              		.cfi_remember_state
 1769              		.cfi_def_cfa_offset 32
 1770              		@ sp needed
 1771 006c BDE8F087 		pop	{r4, r5, r6, r7, r8, r9, r10, pc}
 1772              	.LVL209:
 1773              	.L165:
 1774              		.cfi_restore_state
 1775 0070 4FF00008 		mov	r8, #0
 1776 0074 4FF6FF74 		movw	r4, #65535
 1777              	.LBB295:
 1778              	.LBB296:
 1779              	.LBB297:
 1780              	.LBB298:
 1781              	.LBB299:
 1782              		.loc 1 1504 0
 1783 0078 41F22109 		movw	r9, #4129
 1784              	.L149:
 1785              	.LVL210:
 1786              	.LBE299:
 1787              	.LBE298:
 1788              	.LBE297:
 1789              		.loc 1 1518 0
 1790 007c C8F1200A 		rsb	r10, r8, #32
 1791 0080 03FA0AFA 		lsl	r10, r3, r10
 1792 0084 22FA08F5 		lsr	r5, r2, r8
 1793 0088 A8F12006 		sub	r6, r8, #32
 1794 008c 45EA0A05 		orr	r5, r5, r10
 1795 0090 23FA06F6 		lsr	r6, r3, r6
 1796 0094 3543     		orrs	r5, r5, r6
 1797              	.LBB302:
 1798              	.LBB301:
 1799              		.loc 1 1499 0
 1800 0096 EDB2     		uxtb	r5, r5
 1801 0098 84EA0524 		eor	r4, r4, r5, lsl #8
 1802              	.LVL211:
 1803 009c 0825     		movs	r5, #8
 1804              	.LVL212:
 1805              	.L148:
 1806              	.LBB300:
 1807              		.loc 1 1502 0
 1808 009e 26B2     		sxth	r6, r4
 1809 00a0 6400     		lsls	r4, r4, #1
 1810              	.LVL213:
 1811 00a2 002E     		cmp	r6, #0
 1812 00a4 05F1FF35 		add	r5, r5, #-1
 1813              	.LVL214:
 1814 00a8 A4B2     		uxth	r4, r4
 1815              		.loc 1 1504 0
 1816 00aa B8BF     		it	lt
 1817 00ac 84EA0904 		eorlt	r4, r4, r9
 1818              	.LVL215:
 1819              		.loc 1 1500 0
 1820 00b0 15F0FF05 		ands	r5, r5, #255
 1821 00b4 F3D1     		bne	.L148
 1822              	.LVL216:
 1823 00b6 08F10808 		add	r8, r8, #8
 1824              	.LVL217:
ARM GAS  /tmp/cc2f1tkm.s 			page 33


 1825              	.LBE300:
 1826              	.LBE301:
 1827              	.LBE302:
 1828              		.loc 1 1516 0
 1829 00ba B8F1400F 		cmp	r8, #64
 1830 00be DDD1     		bne	.L149
 1831              	.LVL218:
 1832 00c0 0CEB0E08 		add	r8, ip, lr
 1833              	.LBE296:
 1834              	.LBE295:
 1835              		.loc 1 222 0
 1836 00c4 6346     		mov	r3, ip
 1837              	.LBB303:
 1838              	.LBB304:
 1839              	.LBB305:
 1840              	.LBB306:
 1841              	.LBB307:
 1842              		.loc 1 1504 0
 1843 00c6 41F22106 		movw	r6, #4129
 1844              	.LVL219:
 1845              	.L150:
 1846              	.LBE307:
 1847              	.LBE306:
 1848              	.LBE305:
 1849              		.loc 1 1525 0
 1850 00ca 4345     		cmp	r3, r8
 1851 00cc BCD0     		beq	.L146
 1852              	.LVL220:
 1853              	.LBB310:
 1854              	.LBB309:
 1855              		.loc 1 1499 0
 1856 00ce 13F8015B 		ldrb	r5, [r3], #1	@ zero_extendqisi2
 1857              	.LVL221:
 1858 00d2 0822     		movs	r2, #8
 1859 00d4 84EA0524 		eor	r4, r4, r5, lsl #8
 1860              	.LVL222:
 1861              	.L152:
 1862              	.LBB308:
 1863              		.loc 1 1502 0
 1864 00d8 25B2     		sxth	r5, r4
 1865 00da 6400     		lsls	r4, r4, #1
 1866              	.LVL223:
 1867 00dc 002D     		cmp	r5, #0
 1868 00de 02F1FF32 		add	r2, r2, #-1
 1869              	.LVL224:
 1870 00e2 A4B2     		uxth	r4, r4
 1871              		.loc 1 1504 0
 1872 00e4 B8BF     		it	lt
 1873 00e6 7440     		eorlt	r4, r4, r6
 1874              	.LVL225:
 1875              		.loc 1 1500 0
 1876 00e8 12F0FF02 		ands	r2, r2, #255
 1877 00ec F4D1     		bne	.L152
 1878 00ee ECE7     		b	.L150
 1879              	.LVL226:
 1880              	.L164:
 1881              	.LBE308:
ARM GAS  /tmp/cc2f1tkm.s 			page 34


 1882              	.LBE309:
 1883              	.LBE310:
 1884              	.LBE304:
 1885              	.LBE303:
 1886              		.loc 1 201 0 discriminator 1
 1887 00f0 BEF1000F 		cmp	lr, #0
 1888 00f4 94D0     		beq	.L144
 1889              	.L156:
 1890              		.loc 1 203 0
 1891 00f6 6FF00100 		mvn	r0, #1
 1892              	.LVL227:
 1893 00fa B6E7     		b	.L145
 1894              	.LVL228:
 1895              	.L157:
 1896              		.loc 1 211 0
 1897 00fc 6FF00300 		mvn	r0, #3
 1898              	.LVL229:
 1899 0100 B3E7     		b	.L145
 1900              		.cfi_endproc
 1901              	.LFE5:
 1902              		.size	canardRequestOrRespond, .-canardRequestOrRespond
 1903 0102 00BF     		.section	.text.canardPeekTxQueue,"ax",%progbits
 1904              		.align	1
 1905              		.p2align 4,,15
 1906              		.global	canardPeekTxQueue
 1907              		.syntax unified
 1908              		.thumb
 1909              		.thumb_func
 1910              		.fpu fpv4-sp-d16
 1911              		.type	canardPeekTxQueue, %function
 1912              	canardPeekTxQueue:
 1913              	.LFB6:
 1914              		.loc 1 236 0
 1915              		.cfi_startproc
 1916              		@ args = 0, pretend = 0, frame = 0
 1917              		@ frame_needed = 0, uses_anonymous_args = 0
 1918              		@ link register save eliminated.
 1919              	.LVL230:
 1920              		.loc 1 237 0
 1921 0000 C069     		ldr	r0, [r0, #28]
 1922              	.LVL231:
 1923 0002 00B1     		cbz	r0, .L166
 1924              		.loc 1 241 0
 1925 0004 0430     		adds	r0, r0, #4
 1926              	.L166:
 1927              		.loc 1 242 0
 1928 0006 7047     		bx	lr
 1929              		.cfi_endproc
 1930              	.LFE6:
 1931              		.size	canardPeekTxQueue, .-canardPeekTxQueue
 1932              		.section	.text.canardPopTxQueue,"ax",%progbits
 1933              		.align	1
 1934              		.p2align 4,,15
 1935              		.global	canardPopTxQueue
 1936              		.syntax unified
 1937              		.thumb
 1938              		.thumb_func
ARM GAS  /tmp/cc2f1tkm.s 			page 35


 1939              		.fpu fpv4-sp-d16
 1940              		.type	canardPopTxQueue, %function
 1941              	canardPopTxQueue:
 1942              	.LFB7:
 1943              		.loc 1 245 0
 1944              		.cfi_startproc
 1945              		@ args = 0, pretend = 0, frame = 0
 1946              		@ frame_needed = 0, uses_anonymous_args = 0
 1947              		@ link register save eliminated.
 1948              	.LVL232:
 1949              		.loc 1 246 0
 1950 0000 C269     		ldr	r2, [r0, #28]
 1951              	.LVL233:
 1952              	.LBB311:
 1953              	.LBB312:
 1954              		.loc 1 1584 0
 1955 0002 438A     		ldrh	r3, [r0, #18]
 1956              		.loc 1 1580 0
 1957 0004 C168     		ldr	r1, [r0, #12]
 1958              	.LBE312:
 1959              	.LBE311:
 1960              		.loc 1 245 0
 1961 0006 10B4     		push	{r4}
 1962              		.cfi_def_cfa_offset 4
 1963              		.cfi_offset 4, -4
 1964              	.LBB316:
 1965              	.LBB313:
 1966              		.loc 1 1584 0
 1967 0008 013B     		subs	r3, r3, #1
 1968              	.LBE313:
 1969              	.LBE316:
 1970              		.loc 1 247 0
 1971 000a 1468     		ldr	r4, [r2]
 1972 000c C461     		str	r4, [r0, #28]
 1973              	.LVL234:
 1974              	.LBB317:
 1975              	.LBB314:
 1976              		.loc 1 1580 0
 1977 000e 1160     		str	r1, [r2]
 1978              	.LBE314:
 1979              	.LBE317:
 1980              		.loc 1 249 0
 1981 0010 5DF8044B 		ldr	r4, [sp], #4
 1982              		.cfi_restore 4
 1983              		.cfi_def_cfa_offset 0
 1984              	.LBB318:
 1985              	.LBB315:
 1986              		.loc 1 1581 0
 1987 0014 C260     		str	r2, [r0, #12]
 1988              		.loc 1 1584 0
 1989 0016 4382     		strh	r3, [r0, #18]	@ movhi
 1990              	.LVL235:
 1991              	.LBE315:
 1992              	.LBE318:
 1993              		.loc 1 249 0
 1994 0018 7047     		bx	lr
 1995              		.cfi_endproc
ARM GAS  /tmp/cc2f1tkm.s 			page 36


 1996              	.LFE7:
 1997              		.size	canardPopTxQueue, .-canardPopTxQueue
 1998 001a 00BF     		.section	.text.canardHandleRxFrame,"ax",%progbits
 1999              		.align	1
 2000              		.p2align 4,,15
 2001              		.global	canardHandleRxFrame
 2002              		.syntax unified
 2003              		.thumb
 2004              		.thumb_func
 2005              		.fpu fpv4-sp-d16
 2006              		.type	canardHandleRxFrame, %function
 2007              	canardHandleRxFrame:
 2008              	.LFB8:
 2009              		.loc 1 252 0
 2010              		.cfi_startproc
 2011              		@ args = 0, pretend = 0, frame = 64
 2012              		@ frame_needed = 0, uses_anonymous_args = 0
 2013              	.LVL236:
 2014 0000 2DE9F04F 		push	{r4, r5, r6, r7, r8, r9, r10, fp, lr}
 2015              		.cfi_def_cfa_offset 36
 2016              		.cfi_offset 4, -36
 2017              		.cfi_offset 5, -32
 2018              		.cfi_offset 6, -28
 2019              		.cfi_offset 7, -24
 2020              		.cfi_offset 8, -20
 2021              		.cfi_offset 9, -16
 2022              		.cfi_offset 10, -12
 2023              		.cfi_offset 11, -8
 2024              		.cfi_offset 14, -4
 2025              		.loc 1 253 0
 2026 0004 0C68     		ldr	r4, [r1]
 2027              	.LVL237:
 2028              	.LBB395:
 2029              	.LBB396:
 2030              		.loc 1 1093 0
 2031 0006 C4F3C015 		ubfx	r5, r4, #7, #1
 2032              	.LVL238:
 2033              	.LBE396:
 2034              	.LBE395:
 2035              		.loc 1 252 0
 2036 000a 93B0     		sub	sp, sp, #76
 2037              		.cfi_def_cfa_offset 112
 2038              		.loc 1 252 0
 2039 000c 9246     		mov	r10, r2
 2040 000e 9B46     		mov	fp, r3
 2041              	.LBB398:
 2042              	.LBB397:
 2043              		.loc 1 1094 0
 2044 0010 45B1     		cbz	r5, .L235
 2045              	.LBE397:
 2046              	.LBE398:
 2047              		.loc 1 260 0
 2048 0012 002C     		cmp	r4, #0
 2049              		.loc 1 253 0
 2050 0014 C4F3C036 		ubfx	r6, r4, #15, #1
 2051              		.loc 1 254 0
 2052 0018 C4F30627 		ubfx	r7, r4, #8, #7
ARM GAS  /tmp/cc2f1tkm.s 			page 37


 2053              	.LVL239:
 2054              		.loc 1 260 0
 2055 001c 07DB     		blt	.L307
 2056              	.LVL240:
 2057              	.L171:
 2058              		.loc 1 475 0
 2059 001e 13B0     		add	sp, sp, #76
 2060              		.cfi_remember_state
 2061              		.cfi_def_cfa_offset 36
 2062              		@ sp needed
 2063 0020 BDE8F08F 		pop	{r4, r5, r6, r7, r8, r9, r10, fp, pc}
 2064              	.LVL241:
 2065              	.L235:
 2066              		.cfi_restore_state
 2067              		.loc 1 260 0
 2068 0024 002C     		cmp	r4, #0
 2069              		.loc 1 253 0
 2070 0026 4FF00206 		mov	r6, #2
 2071              		.loc 1 254 0
 2072 002a 2F46     		mov	r7, r5
 2073              	.LVL242:
 2074              		.loc 1 260 0
 2075 002c F7DA     		bge	.L171
 2076              	.L307:
 2077              		.loc 1 261 0
 2078 002e 14F0C04F 		tst	r4, #1610612736
 2079 0032 F4D1     		bne	.L171
 2080              		.loc 1 263 0
 2081 0034 91F80CC0 		ldrb	ip, [r1, #12]	@ zero_extendqisi2
 2082              		.loc 1 262 0
 2083 0038 BCF1000F 		cmp	ip, #0
 2084 003c EFD0     		beq	.L171
 2085              		.loc 1 268 0
 2086 003e 022E     		cmp	r6, #2
 2087 0040 03D0     		beq	.L176
 2088 0042 90F800E0 		ldrb	lr, [r0]	@ zero_extendqisi2
 2089 0046 BE45     		cmp	lr, r7
 2090 0048 E9D1     		bne	.L171
 2091              	.L176:
 2092              	.LVL243:
 2093              		.loc 1 275 0
 2094 004a 04F07F03 		and	r3, r4, #127
 2095 004e 0293     		str	r3, [sp, #8]
 2096              	.LVL244:
 2097              	.LBB399:
 2098              	.LBB400:
 2099              	.LBB401:
 2100              	.LBB402:
 2101              		.loc 1 1094 0
 2102 0050 002D     		cmp	r5, #0
 2103 0052 00F0E580 		beq	.L308
 2104              	.LBE402:
 2105              	.LBE401:
 2106              		.loc 1 1084 0
 2107 0056 C4F30749 		ubfx	r9, r4, #16, #8
 2108              	.LVL245:
 2109              	.L179:
ARM GAS  /tmp/cc2f1tkm.s 			page 38


 2110              	.LBE400:
 2111              	.LBE399:
 2112              		.loc 1 280 0
 2113 005a 8C44     		add	ip, ip, r1
 2114 005c CDE904AB 		strd	r10, [sp, #16]
 2115 0060 0546     		mov	r5, r0
 2116              	.LVL246:
 2117              		.loc 1 278 0
 2118 0062 4FEA476A 		lsl	r10, r7, #25
 2119              		.loc 1 280 0
 2120 0066 9CF80380 		ldrb	r8, [ip, #3]	@ zero_extendqisi2
 2121              		.loc 1 277 0
 2122 006a 0298     		ldr	r0, [sp, #8]
 2123              	.LVL247:
 2124 006c 0391     		str	r1, [sp, #12]
 2125 006e 4AEA064A 		orr	r10, r10, r6, lsl #16
 2126 0072 4AEA804A 		orr	r10, r10, r0, lsl #18
 2127              		.loc 1 284 0
 2128 0076 5FEAD813 		lsrs	r3, r8, #7
 2129              		.loc 1 277 0
 2130 007a 4AEA090A 		orr	r10, r10, r9
 2131              	.LVL248:
 2132              		.loc 1 284 0
 2133 007e 0693     		str	r3, [sp, #24]
 2134 0080 00F05C81 		beq	.L180
 2135              	.LBB405:
 2136              		.loc 1 286 0
 2137 0084 0022     		movs	r2, #0
 2138              	.LVL249:
 2139 0086 0023     		movs	r3, #0
 2140 0088 12A9     		add	r1, sp, #72
 2141              	.LVL250:
 2142 008a 61E90823 		strd	r2, [r1, #-32]!
 2143              		.loc 1 288 0
 2144 008e 0090     		str	r0, [sp]
 2145 0090 6F68     		ldr	r7, [r5, #4]
 2146              	.LVL251:
 2147 0092 3346     		mov	r3, r6
 2148 0094 4A46     		mov	r2, r9
 2149 0096 2846     		mov	r0, r5
 2150 0098 B847     		blx	r7
 2151              	.LVL252:
 2152 009a 0028     		cmp	r0, #0
 2153 009c BFD0     		beq	.L171
 2154              	.LVL253:
 2155              	.LBB406:
 2156              	.LBB407:
 2157              		.loc 1 1118 0
 2158 009e AF69     		ldr	r7, [r5, #24]
 2159              	.LVL254:
 2160              		.loc 1 1120 0
 2161 00a0 002F     		cmp	r7, #0
 2162 00a2 00F06381 		beq	.L309
 2163              	.LVL255:
 2164              	.L182:
 2165              	.LBB408:
 2166              	.LBB409:
ARM GAS  /tmp/cc2f1tkm.s 			page 39


 2167              		.loc 1 1151 0
 2168 00a6 3B69     		ldr	r3, [r7, #16]
 2169 00a8 9A45     		cmp	r10, r3
 2170 00aa 0DD0     		beq	.L183
 2171              		.loc 1 1155 0
 2172 00ac 3F68     		ldr	r7, [r7]
 2173              	.LVL256:
 2174              		.loc 1 1149 0
 2175 00ae 002F     		cmp	r7, #0
 2176 00b0 F9D1     		bne	.L182
 2177              	.LVL257:
 2178              	.LBE409:
 2179              	.LBE408:
 2180              	.LBB410:
 2181              	.LBB411:
 2182              		.loc 1 1165 0
 2183 00b2 5146     		mov	r1, r10
 2184 00b4 05F10C00 		add	r0, r5, #12
 2185 00b8 FFF7FEFF 		bl	createRxState
 2186              	.LVL258:
 2187              		.loc 1 1167 0
 2188 00bc 0746     		mov	r7, r0
 2189 00be 0028     		cmp	r0, #0
 2190 00c0 ADD0     		beq	.L171
 2191              		.loc 1 1172 0
 2192 00c2 AB69     		ldr	r3, [r5, #24]
 2193 00c4 3B60     		str	r3, [r7]
 2194              	.LVL259:
 2195              	.L304:
 2196              		.loc 1 1173 0
 2197 00c6 AF61     		str	r7, [r5, #24]
 2198              	.L183:
 2199              	.LVL260:
 2200              	.LBE411:
 2201              	.LBE410:
 2202              	.LBE407:
 2203              	.LBE406:
 2204              		.loc 1 297 0
 2205 00c8 DDE90AAE 		ldrd	r10, lr, [sp, #40]
 2206              	.LVL261:
 2207 00cc 0020     		movs	r0, #0
 2208 00ce 4FF6FF73 		movw	r3, #65535
 2209              	.LBB413:
 2210              	.LBB414:
 2211              	.LBB415:
 2212              	.LBB416:
 2213              	.LBB417:
 2214              		.loc 1 1504 0
 2215 00d2 41F2210C 		movw	ip, #4129
 2216              	.LVL262:
 2217              	.L187:
 2218              	.LBE417:
 2219              	.LBE416:
 2220              	.LBE415:
 2221              		.loc 1 1518 0
 2222 00d6 C0F1200B 		rsb	fp, r0, #32
 2223 00da 0EFA0BFB 		lsl	fp, lr, fp
ARM GAS  /tmp/cc2f1tkm.s 			page 40


 2224 00de 2AFA00F2 		lsr	r2, r10, r0
 2225 00e2 A0F12001 		sub	r1, r0, #32
 2226 00e6 42EA0B02 		orr	r2, r2, fp
 2227 00ea 2EFA01F1 		lsr	r1, lr, r1
 2228 00ee 0A43     		orrs	r2, r2, r1
 2229              	.LBB420:
 2230              	.LBB419:
 2231              		.loc 1 1499 0
 2232 00f0 D2B2     		uxtb	r2, r2
 2233 00f2 83EA0223 		eor	r3, r3, r2, lsl #8
 2234              	.LVL263:
 2235 00f6 0822     		movs	r2, #8
 2236              	.LVL264:
 2237              	.L186:
 2238              	.LBB418:
 2239              		.loc 1 1502 0
 2240 00f8 19B2     		sxth	r1, r3
 2241 00fa 5B00     		lsls	r3, r3, #1
 2242              	.LVL265:
 2243 00fc 0029     		cmp	r1, #0
 2244 00fe 02F1FF32 		add	r2, r2, #-1
 2245              	.LVL266:
 2246 0102 9BB2     		uxth	r3, r3
 2247              		.loc 1 1504 0
 2248 0104 B8BF     		it	lt
 2249 0106 83EA0C03 		eorlt	r3, r3, ip
 2250              	.LVL267:
 2251              		.loc 1 1500 0
 2252 010a 12F0FF02 		ands	r2, r2, #255
 2253 010e F3D1     		bne	.L186
 2254              	.LVL268:
 2255 0110 0830     		adds	r0, r0, #8
 2256              	.LVL269:
 2257              	.LBE418:
 2258              	.LBE419:
 2259              	.LBE420:
 2260              		.loc 1 1516 0
 2261 0112 4028     		cmp	r0, #64
 2262 0114 DFD1     		bne	.L187
 2263              	.LVL270:
 2264              	.LBE414:
 2265              	.LBE413:
 2266              		.loc 1 297 0
 2267 0116 BB82     		strh	r3, [r7, #20]	@ movhi
 2268              	.L188:
 2269              	.LVL271:
 2270              	.LBE405:
 2271              		.loc 1 321 0
 2272 0118 97F817C0 		ldrb	ip, [r7, #23]	@ zero_extendqisi2
 2273 011c 08F01F0A 		and	r10, r8, #31
 2274              	.LBB422:
 2275              	.LBB423:
 2276              		.loc 1 843 0
 2277 0120 CCF38401 		ubfx	r1, ip, #2, #5
 2278 0124 AAEB0101 		sub	r1, r10, r1
 2279 0128 89B2     		uxth	r1, r1
 2280 012a 0FFA81FE 		sxth	lr, r1
ARM GAS  /tmp/cc2f1tkm.s 			page 41


 2281              	.LBE423:
 2282              	.LBE422:
 2283              		.loc 1 317 0
 2284 012e D7E90223 		ldrd	r2, [r7, #8]
 2285              	.LVL272:
 2286              	.LBB425:
 2287              	.LBB424:
 2288              		.loc 1 844 0
 2289 0132 BEF1000F 		cmp	lr, #0
 2290              		.loc 1 846 0
 2291 0136 BCBF     		itt	lt
 2292 0138 2031     		addlt	r1, r1, #32
 2293 013a 0FFA81FE 		sxthlt	lr, r1
 2294              	.LVL273:
 2295              	.LBE424:
 2296              	.LBE425:
 2297              		.loc 1 325 0
 2298 013e 52EA0301 		orrs	r1, r2, r3
 2299              		.loc 1 274 0
 2300 0142 C4F3046B 		ubfx	fp, r4, #24, #5
 2301              	.LVL274:
 2302              		.loc 1 325 0
 2303 0146 73D0     		beq	.L192
 2304              		.loc 1 318 0
 2305 0148 DDE90401 		ldrd	r0, [sp, #16]
 2306 014c 801A     		subs	r0, r0, r2
 2307 014e 61EB0301 		sbc	r1, r1, r3
 2308 0152 0246     		mov	r2, r0
 2309              	.LVL275:
 2310 0154 0B46     		mov	r3, r1
 2311              		.loc 1 324 0
 2312 0156 B848     		ldr	r0, .L317
 2313 0158 0021     		movs	r1, #0
 2314 015a 9942     		cmp	r1, r3
 2315 015c 08BF     		it	eq
 2316 015e 9042     		cmpeq	r0, r2
 2317 0160 66D3     		bcc	.L192
 2318              		.loc 1 325 0
 2319 0162 069B     		ldr	r3, [sp, #24]
 2320 0164 002B     		cmp	r3, #0
 2321 0166 6FD0     		beq	.L193
 2322              		.loc 1 326 0
 2323 0168 BEF1010F 		cmp	lr, #1
 2324 016c 22DD     		ble	.L195
 2325              	.LVL276:
 2326              		.loc 1 330 0
 2327 016e FB7D     		ldrb	r3, [r7, #23]	@ zero_extendqisi2
 2328              	.LBB426:
 2329              	.LBB427:
 2330              		.loc 1 1197 0
 2331 0170 7A68     		ldr	r2, [r7, #4]
 2332              	.LBE427:
 2333              	.LBE426:
 2334              		.loc 1 330 0
 2335 0172 68F38603 		bfi	r3, r8, #2, #5
 2336              	.LVL277:
 2337              		.loc 1 331 0
ARM GAS  /tmp/cc2f1tkm.s 			page 42


 2338 0176 6FF3C713 		bfc	r3, #7, #1
 2339 017a FB75     		strb	r3, [r7, #23]
 2340              	.LVL278:
 2341              	.LBB435:
 2342              	.LBB431:
 2343              		.loc 1 1197 0
 2344 017c 002A     		cmp	r2, #0
 2345 017e 00F0B481 		beq	.L310
 2346              	.L232:
 2347 0182 698A     		ldrh	r1, [r5, #18]
 2348 0184 EC68     		ldr	r4, [r5, #12]
 2349              	.LVL279:
 2350 0186 0139     		subs	r1, r1, #1
 2351 0188 89B2     		uxth	r1, r1
 2352 018a 01E0     		b	.L196
 2353              	.LVL280:
 2354              	.L236:
 2355 018c 1946     		mov	r1, r3
 2356 018e 0246     		mov	r2, r0
 2357              	.LVL281:
 2358              	.L196:
 2359              	.LBB428:
 2360              		.loc 1 1199 0
 2361 0190 1068     		ldr	r0, [r2]
 2362              	.LVL282:
 2363              	.LBB429:
 2364              	.LBB430:
 2365              		.loc 1 1580 0
 2366 0192 1460     		str	r4, [r2]
 2367 0194 4B1E     		subs	r3, r1, #1
 2368              		.loc 1 1581 0
 2369 0196 EA60     		str	r2, [r5, #12]
 2370              	.LVL283:
 2371 0198 1446     		mov	r4, r2
 2372 019a 9BB2     		uxth	r3, r3
 2373              	.LBE430:
 2374              	.LBE429:
 2375              	.LBE428:
 2376              		.loc 1 1197 0
 2377 019c 0028     		cmp	r0, #0
 2378 019e F5D1     		bne	.L236
 2379 01a0 6982     		strh	r1, [r5, #18]	@ movhi
 2380 01a2 7860     		str	r0, [r7, #4]
 2381              	.LVL284:
 2382              	.L233:
 2383              		.loc 1 1203 0
 2384 01a4 FB8A     		ldrh	r3, [r7, #22]
 2385 01a6 6FF30903 		bfc	r3, #0, #10
 2386 01aa FB82     		strh	r3, [r7, #22]	@ movhi
 2387              	.LVL285:
 2388              	.LBE431:
 2389              	.LBE435:
 2390              		.loc 1 333 0
 2391 01ac 069B     		ldr	r3, [sp, #24]
 2392 01ae 002B     		cmp	r3, #0
 2393 01b0 00F0D480 		beq	.L311
 2394              	.LVL286:
ARM GAS  /tmp/cc2f1tkm.s 			page 43


 2395              	.L195:
 2396              		.loc 1 340 0
 2397 01b4 4FEA9813 		lsr	r3, r8, #6
 2398 01b8 022B     		cmp	r3, #2
 2399 01ba 43D0     		beq	.L312
 2400              	.LBB436:
 2401              		.loc 1 342 0
 2402 01bc DDE90401 		ldrd	r0, [sp, #16]
 2403 01c0 C7E90201 		strd	r0, [r7, #8]
 2404              	.LVL287:
 2405              		.loc 1 346 0
 2406 01c4 039A     		ldr	r2, [sp, #12]
 2407              		.loc 1 343 0
 2408 01c6 ADF83E90 		strh	r9, [sp, #62]	@ movhi
 2409              		.loc 1 346 0
 2410 01ca 137B     		ldrb	r3, [r2, #12]	@ zero_extendqisi2
 2411              		.loc 1 343 0
 2412 01cc 8DF84060 		strb	r6, [sp, #64]
 2413              		.loc 1 346 0
 2414 01d0 013B     		subs	r3, r3, #1
 2415              		.loc 1 343 0
 2416 01d2 0024     		movs	r4, #0
 2417              		.loc 1 345 0
 2418 01d4 0432     		adds	r2, r2, #4
 2419              		.loc 1 343 0
 2420 01d6 CDE90A01 		strd	r0, [sp, #40]
 2421              		.loc 1 346 0
 2422 01da DBB2     		uxtb	r3, r3
 2423              		.loc 1 343 0
 2424 01dc 0299     		ldr	r1, [sp, #8]
 2425 01de 8DF84310 		strb	r1, [sp, #67]
 2426              		.loc 1 346 0
 2427 01e2 ADF83C30 		strh	r3, [sp, #60]	@ movhi
 2428              		.loc 1 343 0
 2429 01e6 0C92     		str	r2, [sp, #48]
 2430              		.loc 1 354 0
 2431 01e8 AB68     		ldr	r3, [r5, #8]
 2432              		.loc 1 343 0
 2433 01ea 8DF841A0 		strb	r10, [sp, #65]
 2434 01ee 8DF842B0 		strb	fp, [sp, #66]
 2435 01f2 CDE90D44 		strd	r4, r4, [sp, #52]
 2436 01f6 1194     		str	r4, [sp, #68]
 2437              		.loc 1 354 0
 2438 01f8 2846     		mov	r0, r5
 2439 01fa 0AA9     		add	r1, sp, #40
 2440 01fc 9847     		blx	r3
 2441              	.LVL288:
 2442              	.LBB437:
 2443              	.LBB438:
 2444              		.loc 1 1063 0
 2445 01fe FB7D     		ldrb	r3, [r7, #23]	@ zero_extendqisi2
 2446 0200 C3F38402 		ubfx	r2, r3, #2, #5
 2447 0204 0132     		adds	r2, r2, #1
 2448 0206 62F38603 		bfi	r3, r2, #2, #5
 2449 020a FB75     		strb	r3, [r7, #23]
 2450              		.loc 1 1064 0
 2451 020c FB8A     		ldrh	r3, [r7, #22]
ARM GAS  /tmp/cc2f1tkm.s 			page 44


 2452 020e 64F30903 		bfi	r3, r4, #0, #10
 2453              		.loc 1 1065 0
 2454 0212 C3F30722 		ubfx	r2, r3, #8, #8
 2455 0216 64F3C712 		bfi	r2, r4, #7, #1
 2456              		.loc 1 1064 0
 2457 021a FB82     		strh	r3, [r7, #22]	@ movhi
 2458              		.loc 1 1065 0
 2459 021c FA75     		strb	r2, [r7, #23]
 2460              	.LVL289:
 2461 021e FEE6     		b	.L171
 2462              	.LVL290:
 2463              	.L308:
 2464              	.LBE438:
 2465              	.LBE437:
 2466              	.LBE436:
 2467              	.LBB439:
 2468              	.LBB404:
 2469              	.LBB403:
 2470              		.loc 1 1076 0
 2471 0220 6306     		lsls	r3, r4, #25
 2472              		.loc 1 1075 0
 2473 0222 C4F30F29 		ubfx	r9, r4, #8, #16
 2474              	.LVL291:
 2475              		.loc 1 1076 0
 2476 0226 7FF418AF 		bne	.L179
 2477              		.loc 1 1078 0
 2478 022a 09F00309 		and	r9, r9, #3
 2479              	.LVL292:
 2480 022e 14E7     		b	.L179
 2481              	.LVL293:
 2482              	.L192:
 2483              	.LBE403:
 2484              	.LBE404:
 2485              	.LBE439:
 2486              		.loc 1 330 0
 2487 0230 FB7D     		ldrb	r3, [r7, #23]	@ zero_extendqisi2
 2488              	.LBB440:
 2489              	.LBB432:
 2490              		.loc 1 1197 0
 2491 0232 7A68     		ldr	r2, [r7, #4]
 2492              	.LBE432:
 2493              	.LBE440:
 2494              		.loc 1 330 0
 2495 0234 68F38603 		bfi	r3, r8, #2, #5
 2496              	.LVL294:
 2497              		.loc 1 331 0
 2498 0238 6FF3C713 		bfc	r3, #7, #1
 2499 023c FB75     		strb	r3, [r7, #23]
 2500              	.LVL295:
 2501              	.LBB441:
 2502              	.LBB433:
 2503              		.loc 1 1197 0
 2504 023e 002A     		cmp	r2, #0
 2505 0240 9FD1     		bne	.L232
 2506 0242 AFE7     		b	.L233
 2507              	.LVL296:
 2508              	.L312:
ARM GAS  /tmp/cc2f1tkm.s 			page 45


 2509 0244 97F817C0 		ldrb	ip, [r7, #23]	@ zero_extendqisi2
 2510              	.L193:
 2511              	.LBE433:
 2512              	.LBE441:
 2513              		.loc 1 360 0
 2514 0248 C8F34013 		ubfx	r3, r8, #5, #1
 2515 024c B3EBDC1F 		cmp	r3, ip, lsr #7
 2516 0250 7FF4E5AE 		bne	.L171
 2517              		.loc 1 365 0
 2518 0254 CCF3840C 		ubfx	ip, ip, #2, #5
 2519 0258 D445     		cmp	ip, r10
 2520 025a 7FF4E0AE 		bne	.L171
 2521 025e 039B     		ldr	r3, [sp, #12]
 2522              		.loc 1 370 0
 2523 0260 0699     		ldr	r1, [sp, #24]
 2524 0262 1B7B     		ldrb	r3, [r3, #12]	@ zero_extendqisi2
 2525 0264 4FEA9812 		lsr	r2, r8, #6
 2526 0268 0029     		cmp	r1, #0
 2527 026a 40F0B180 		bne	.L313
 2528              		.loc 1 391 0 discriminator 1
 2529 026e 002A     		cmp	r2, #0
 2530 0270 00F04981 		beq	.L314
 2531              	.L198:
 2532              	.LBB442:
 2533              		.loc 1 410 0
 2534 0274 B7F816E0 		ldrh	lr, [r7, #22]
 2535              	.LVL297:
 2536 0278 D7F80480 		ldr	r8, [r7, #4]
 2537 027c CEF3090E 		ubfx	lr, lr, #0, #10
 2538              		.loc 1 406 0
 2539 0280 5A1E     		subs	r2, r3, #1
 2540              		.loc 1 410 0
 2541 0282 BEF1050F 		cmp	lr, #5
 2542              		.loc 1 406 0
 2543 0286 0992     		str	r2, [sp, #36]
 2544 0288 5FFA82FC 		uxtb	ip, r2
 2545              	.LVL298:
 2546              		.loc 1 410 0
 2547 028c 00F2E380 		bhi	.L214
 2548              	.LVL299:
 2549              	.LBB443:
 2550              		.loc 1 414 0
 2551 0290 BCF1000F 		cmp	ip, #0
 2552 0294 1DD0     		beq	.L305
 2553              		.loc 1 417 0
 2554 0296 0399     		ldr	r1, [sp, #12]
 2555 0298 07EB0E03 		add	r3, r7, lr
 2556 029c 0A79     		ldrb	r2, [r1, #4]	@ zero_extendqisi2
 2557 029e 9A76     		strb	r2, [r3, #26]
 2558              	.LVL300:
 2559              		.loc 1 413 0
 2560 02a0 BEF1050F 		cmp	lr, #5
 2561 02a4 00F07581 		beq	.L237
 2562 02a8 0EF11B03 		add	r3, lr, #27
 2563 02ac 6FF01900 		mvn	r0, #25
 2564 02b0 3B44     		add	r3, r3, r7
 2565 02b2 C01B     		subs	r0, r0, r7
ARM GAS  /tmp/cc2f1tkm.s 			page 46


 2566 02b4 0531     		adds	r1, r1, #5
 2567              		.loc 1 415 0
 2568 02b6 0122     		movs	r2, #1
 2569 02b8 07E0     		b	.L217
 2570              	.LVL301:
 2571              	.L218:
 2572              		.loc 1 417 0
 2573 02ba 11F8014B 		ldrb	r4, [r1], #1	@ zero_extendqisi2
 2574 02be 03F8014B 		strb	r4, [r3], #1
 2575              	.LVL302:
 2576              		.loc 1 413 0
 2577 02c2 C418     		adds	r4, r0, r3
 2578 02c4 062C     		cmp	r4, #6
 2579 02c6 00F00D81 		beq	.L302
 2580              	.LVL303:
 2581              	.L217:
 2582              		.loc 1 415 0
 2583 02ca 541C     		adds	r4, r2, #1
 2584              		.loc 1 414 0
 2585 02cc 9445     		cmp	ip, r2
 2586              		.loc 1 415 0
 2587 02ce E2B2     		uxtb	r2, r4
 2588              	.LVL304:
 2589              		.loc 1 414 0
 2590 02d0 F3D1     		bne	.L218
 2591              	.L305:
 2592 02d2 039B     		ldr	r3, [sp, #12]
 2593 02d4 0433     		adds	r3, r3, #4
 2594              	.L215:
 2595              	.LBE443:
 2596              		.loc 1 446 0
 2597 02d6 DDE90401 		ldrd	r0, [sp, #16]
 2598 02da CDE90A01 		strd	r0, [sp, #40]
 2599              		.loc 1 448 0
 2600 02de 07F11A02 		add	r2, r7, #26
 2601              		.loc 1 446 0
 2602 02e2 CDE90C28 		strd	r2, r8, [sp, #48]
 2603              		.loc 1 450 0
 2604 02e6 0022     		movs	r2, #0
 2605              	.L222:
 2606              		.loc 1 446 0
 2607 02e8 0299     		ldr	r1, [sp, #8]
 2608 02ea 0998     		ldr	r0, [sp, #36]
 2609 02ec 8DF84060 		strb	r6, [sp, #64]
 2610 02f0 8DF84310 		strb	r1, [sp, #67]
 2611 02f4 8DF841A0 		strb	r10, [sp, #65]
 2612 02f8 8DF842B0 		strb	fp, [sp, #66]
 2613 02fc 0E92     		str	r2, [sp, #56]
 2614              		.loc 1 451 0
 2615 02fe F444     		add	ip, ip, lr
 2616              	.LVL305:
 2617              		.loc 1 459 0
 2618 0300 0021     		movs	r1, #0
 2619 0302 1844     		add	r0, r0, r3
 2620              		.loc 1 462 0
 2621 0304 BA8A     		ldrh	r2, [r7, #20]
 2622              	.LVL306:
ARM GAS  /tmp/cc2f1tkm.s 			page 47


 2623              		.loc 1 446 0
 2624 0306 ADF83CC0 		strh	ip, [sp, #60]	@ movhi
 2625 030a ADF83E90 		strh	r9, [sp, #62]	@ movhi
 2626 030e 0646     		mov	r6, r0
 2627              		.loc 1 459 0
 2628 0310 7960     		str	r1, [r7, #4]
 2629              	.LBB444:
 2630              	.LBB445:
 2631              	.LBB446:
 2632              	.LBB447:
 2633              	.LBB448:
 2634              		.loc 1 1504 0
 2635 0312 41F22104 		movw	r4, #4129
 2636              	.LVL307:
 2637              	.L223:
 2638              	.LBE448:
 2639              	.LBE447:
 2640              	.LBE446:
 2641              		.loc 1 1525 0
 2642 0316 B342     		cmp	r3, r6
 2643 0318 32D0     		beq	.L315
 2644              	.LVL308:
 2645              	.LBB451:
 2646              	.LBB450:
 2647              		.loc 1 1499 0
 2648 031a 13F8011B 		ldrb	r1, [r3], #1	@ zero_extendqisi2
 2649              	.LVL309:
 2650 031e 82EA0122 		eor	r2, r2, r1, lsl #8
 2651              	.LVL310:
 2652 0322 0821     		movs	r1, #8
 2653              	.LVL311:
 2654              	.L225:
 2655              	.LBB449:
 2656              		.loc 1 1502 0
 2657 0324 10B2     		sxth	r0, r2
 2658 0326 5200     		lsls	r2, r2, #1
 2659              	.LVL312:
 2660 0328 0028     		cmp	r0, #0
 2661 032a 01F1FF31 		add	r1, r1, #-1
 2662              	.LVL313:
 2663 032e 92B2     		uxth	r2, r2
 2664              		.loc 1 1504 0
 2665 0330 B8BF     		it	lt
 2666 0332 6240     		eorlt	r2, r2, r4
 2667              	.LVL314:
 2668              		.loc 1 1500 0
 2669 0334 11F0FF01 		ands	r1, r1, #255
 2670 0338 F4D1     		bne	.L225
 2671 033a ECE7     		b	.L223
 2672              	.LVL315:
 2673              	.L180:
 2674              	.LBE449:
 2675              	.LBE450:
 2676              	.LBE451:
 2677              	.LBE445:
 2678              	.LBE444:
 2679              	.LBE442:
ARM GAS  /tmp/cc2f1tkm.s 			page 48


 2680              		.loc 1 306 0
 2681 033c AF69     		ldr	r7, [r5, #24]
 2682              	.LVL316:
 2683              	.LBB465:
 2684              	.LBB466:
 2685              		.loc 1 1149 0
 2686 033e 002F     		cmp	r7, #0
 2687 0340 3FF46DAE 		beq	.L171
 2688              		.loc 1 1151 0
 2689 0344 3B69     		ldr	r3, [r7, #16]
 2690 0346 5345     		cmp	r3, r10
 2691 0348 04D1     		bne	.L189
 2692 034a E5E6     		b	.L188
 2693              	.L190:
 2694 034c 3B69     		ldr	r3, [r7, #16]
 2695 034e 9A45     		cmp	r10, r3
 2696 0350 3FF4E2AE 		beq	.L188
 2697              	.L189:
 2698              		.loc 1 1155 0
 2699 0354 3F68     		ldr	r7, [r7]
 2700              	.LVL317:
 2701              		.loc 1 1149 0
 2702 0356 002F     		cmp	r7, #0
 2703 0358 F8D1     		bne	.L190
 2704 035a 60E6     		b	.L171
 2705              	.LVL318:
 2706              	.L311:
 2707              	.LBE466:
 2708              	.LBE465:
 2709              		.loc 1 335 0
 2710 035c FB7D     		ldrb	r3, [r7, #23]	@ zero_extendqisi2
 2711 035e C3F38402 		ubfx	r2, r3, #2, #5
 2712 0362 0132     		adds	r2, r2, #1
 2713 0364 62F38603 		bfi	r3, r2, #2, #5
 2714 0368 FB75     		strb	r3, [r7, #23]
 2715              		.loc 1 336 0
 2716 036a 58E6     		b	.L171
 2717              	.LVL319:
 2718              	.L309:
 2719              	.LBB467:
 2720              	.LBB421:
 2721              	.LBB412:
 2722              		.loc 1 1122 0
 2723 036c 5146     		mov	r1, r10
 2724 036e 05F10C00 		add	r0, r5, #12
 2725 0372 FFF7FEFF 		bl	createRxState
 2726              	.LVL320:
 2727              		.loc 1 1124 0
 2728 0376 0746     		mov	r7, r0
 2729 0378 0028     		cmp	r0, #0
 2730 037a 7FF4A4AE 		bne	.L304
 2731 037e 4EE6     		b	.L171
 2732              	.LVL321:
 2733              	.L315:
 2734              	.LBE412:
 2735              	.LBE421:
 2736              	.LBE467:
ARM GAS  /tmp/cc2f1tkm.s 			page 49


 2737              	.LBB468:
 2738              		.loc 1 463 0
 2739 0380 3B8B     		ldrh	r3, [r7, #24]
 2740              		.loc 1 462 0
 2741 0382 BA82     		strh	r2, [r7, #20]	@ movhi
 2742              		.loc 1 463 0
 2743 0384 9342     		cmp	r3, r2
 2744 0386 03D1     		bne	.L227
 2745              		.loc 1 465 0
 2746 0388 AB68     		ldr	r3, [r5, #8]
 2747 038a 0AA9     		add	r1, sp, #40
 2748 038c 2846     		mov	r0, r5
 2749 038e 9847     		blx	r3
 2750              	.LVL322:
 2751              	.L227:
 2752              	.LBB452:
 2753              	.LBB453:
 2754              		.loc 1 751 0
 2755 0390 0D9B     		ldr	r3, [sp, #52]
 2756 0392 63B1     		cbz	r3, .L229
 2757 0394 6A8A     		ldrh	r2, [r5, #18]
 2758 0396 E868     		ldr	r0, [r5, #12]
 2759 0398 00E0     		b	.L228
 2760              	.LVL323:
 2761              	.L243:
 2762 039a 0B46     		mov	r3, r1
 2763              	.LVL324:
 2764              	.L228:
 2765              	.LBB454:
 2766              		.loc 1 753 0
 2767 039c 1968     		ldr	r1, [r3]
 2768              	.LVL325:
 2769              	.LBB455:
 2770              	.LBB456:
 2771              		.loc 1 1580 0
 2772 039e 1860     		str	r0, [r3]
 2773              		.loc 1 1584 0
 2774 03a0 013A     		subs	r2, r2, #1
 2775 03a2 92B2     		uxth	r2, r2
 2776              	.LVL326:
 2777              		.loc 1 1581 0
 2778 03a4 EB60     		str	r3, [r5, #12]
 2779 03a6 1846     		mov	r0, r3
 2780              	.LBE456:
 2781              	.LBE455:
 2782              	.LBE454:
 2783              		.loc 1 751 0
 2784 03a8 0029     		cmp	r1, #0
 2785 03aa F6D1     		bne	.L243
 2786 03ac 6A82     		strh	r2, [r5, #18]	@ movhi
 2787              	.LVL327:
 2788              	.L229:
 2789              	.LBE453:
 2790              	.LBE452:
 2791              	.LBB457:
 2792              	.LBB458:
 2793              		.loc 1 1063 0
ARM GAS  /tmp/cc2f1tkm.s 			page 50


 2794 03ae FB7D     		ldrb	r3, [r7, #23]	@ zero_extendqisi2
 2795 03b0 C3F38402 		ubfx	r2, r3, #2, #5
 2796 03b4 0132     		adds	r2, r2, #1
 2797 03b6 62F38603 		bfi	r3, r2, #2, #5
 2798 03ba FB75     		strb	r3, [r7, #23]
 2799              	.LVL328:
 2800              		.loc 1 1064 0
 2801 03bc FB8A     		ldrh	r3, [r7, #22]
 2802 03be 6FF30903 		bfc	r3, #0, #10
 2803              		.loc 1 1065 0
 2804 03c2 C3F30722 		ubfx	r2, r3, #8, #8
 2805 03c6 6FF3C712 		bfc	r2, #7, #1
 2806              		.loc 1 1064 0
 2807 03ca FB82     		strh	r3, [r7, #22]	@ movhi
 2808              		.loc 1 1065 0
 2809 03cc FA75     		strb	r2, [r7, #23]
 2810              	.LVL329:
 2811 03ce 26E6     		b	.L171
 2812              	.LVL330:
 2813              	.L313:
 2814              	.LBE458:
 2815              	.LBE457:
 2816              	.LBE468:
 2817              		.loc 1 370 0 discriminator 1
 2818 03d0 022A     		cmp	r2, #2
 2819 03d2 7FF44FAF 		bne	.L198
 2820              	.LBB469:
 2821              		.loc 1 372 0
 2822 03d6 032B     		cmp	r3, #3
 2823 03d8 7FF621AE 		bls	.L171
 2824              		.loc 1 379 0
 2825 03dc 039A     		ldr	r2, [sp, #12]
 2826 03de 941D     		adds	r4, r2, #6
 2827              		.loc 1 378 0
 2828 03e0 DDE90412 		ldrd	r1, [sp, #16]
 2829              		.loc 1 379 0
 2830 03e4 033B     		subs	r3, r3, #3
 2831              		.loc 1 378 0
 2832 03e6 C7E90212 		strd	r1, [r7, #8]
 2833              	.LVL331:
 2834              		.loc 1 379 0
 2835 03ea DBB2     		uxtb	r3, r3
 2836 03ec 2246     		mov	r2, r4
 2837 03ee 3946     		mov	r1, r7
 2838 03f0 05F10C00 		add	r0, r5, #12
 2839 03f4 FFF7FEFF 		bl	bufferBlockPushBytes
 2840              	.LVL332:
 2841              		.loc 1 381 0
 2842 03f8 0028     		cmp	r0, #0
 2843 03fa 1FDB     		blt	.L199
 2844              	.LVL333:
 2845              		.loc 1 387 0
 2846 03fc 039A     		ldr	r2, [sp, #12]
 2847 03fe 9388     		ldrh	r3, [r2, #4]
 2848 0400 3B83     		strh	r3, [r7, #24]	@ movhi
 2849              		.loc 1 389 0
 2850 0402 117B     		ldrb	r1, [r2, #12]	@ zero_extendqisi2
ARM GAS  /tmp/cc2f1tkm.s 			page 51


 2851              	.LVL334:
 2852              		.loc 1 388 0
 2853 0404 BB8A     		ldrh	r3, [r7, #20]
 2854              	.LVL335:
 2855              		.loc 1 389 0
 2856 0406 0339     		subs	r1, r1, #3
 2857 0408 54FA81F1 		uxtab	r1, r4, r1
 2858              	.LBB470:
 2859              	.LBB471:
 2860              	.LBB472:
 2861              	.LBB473:
 2862              	.LBB474:
 2863              		.loc 1 1504 0
 2864 040c 41F22105 		movw	r5, #4129
 2865              	.LVL336:
 2866              	.L202:
 2867              	.LBE474:
 2868              	.LBE473:
 2869              	.LBE472:
 2870              		.loc 1 1525 0
 2871 0410 8C42     		cmp	r4, r1
 2872 0412 6FD0     		beq	.L303
 2873              	.LVL337:
 2874              	.LBB477:
 2875              	.LBB476:
 2876              		.loc 1 1499 0
 2877 0414 14F8012B 		ldrb	r2, [r4], #1	@ zero_extendqisi2
 2878              	.LVL338:
 2879 0418 83EA0223 		eor	r3, r3, r2, lsl #8
 2880              	.LVL339:
 2881 041c 0822     		movs	r2, #8
 2882              	.LVL340:
 2883              	.L204:
 2884              	.LBB475:
 2885              		.loc 1 1502 0
 2886 041e 18B2     		sxth	r0, r3
 2887 0420 5B00     		lsls	r3, r3, #1
 2888              	.LVL341:
 2889 0422 0028     		cmp	r0, #0
 2890 0424 02F1FF32 		add	r2, r2, #-1
 2891              	.LVL342:
 2892 0428 9BB2     		uxth	r3, r3
 2893              		.loc 1 1504 0
 2894 042a B8BF     		it	lt
 2895 042c 6B40     		eorlt	r3, r3, r5
 2896              	.LVL343:
 2897              		.loc 1 1500 0
 2898 042e 12F0FF02 		ands	r2, r2, #255
 2899 0432 F4D1     		bne	.L204
 2900 0434 ECE7     		b	.L202
 2901              	.L318:
 2902 0436 00BF     		.align	2
 2903              	.L317:
 2904 0438 80841E00 		.word	2000000
 2905              	.LVL344:
 2906              	.L199:
 2907              	.LBE475:
ARM GAS  /tmp/cc2f1tkm.s 			page 52


 2908              	.LBE476:
 2909              	.LBE477:
 2910              	.LBE471:
 2911              	.LBE470:
 2912              	.LBB478:
 2913              	.LBB479:
 2914              		.loc 1 1197 0
 2915 043c 7A68     		ldr	r2, [r7, #4]
 2916 043e 002A     		cmp	r2, #0
 2917 0440 00F09380 		beq	.L306
 2918              	.LBB480:
 2919              	.LBB481:
 2920              	.LBB482:
 2921              		.loc 1 1584 0
 2922 0444 6B8A     		ldrh	r3, [r5, #18]
 2923              	.LBE482:
 2924              	.LBE481:
 2925              		.loc 1 1199 0
 2926 0446 1168     		ldr	r1, [r2]
 2927              	.LVL345:
 2928              	.LBB484:
 2929              	.LBB483:
 2930              		.loc 1 1580 0
 2931 0448 E868     		ldr	r0, [r5, #12]
 2932 044a 1060     		str	r0, [r2]
 2933              		.loc 1 1584 0
 2934 044c 013B     		subs	r3, r3, #1
 2935 044e 6B82     		strh	r3, [r5, #18]	@ movhi
 2936              	.LVL346:
 2937              		.loc 1 1581 0
 2938 0450 EA60     		str	r2, [r5, #12]
 2939              	.LBE483:
 2940              	.LBE484:
 2941              		.loc 1 1201 0
 2942 0452 7960     		str	r1, [r7, #4]
 2943 0454 F2E7     		b	.L199
 2944              	.LVL347:
 2945              	.L214:
 2946              	.LBE480:
 2947              	.LBE479:
 2948              	.LBE478:
 2949              	.LBE469:
 2950              	.LBB485:
 2951              	.LBB459:
 2952              		.loc 1 424 0
 2953 0456 B8F1000F 		cmp	r8, #0
 2954 045a 42D0     		beq	.L241
 2955              	.LVL348:
 2956              	.LBB460:
 2957              		.loc 1 427 0
 2958 045c D8F80000 		ldr	r0, [r8]
 2959 0460 0028     		cmp	r0, #0
 2960 0462 00F09380 		beq	.L239
 2961              		.loc 1 426 0
 2962 0466 0621     		movs	r1, #6
 2963 0468 00E0     		b	.L220
 2964              	.LVL349:
ARM GAS  /tmp/cc2f1tkm.s 			page 53


 2965              	.L240:
 2966 046a 1046     		mov	r0, r2
 2967              	.LVL350:
 2968              	.L220:
 2969              		.loc 1 427 0
 2970 046c 0268     		ldr	r2, [r0]
 2971              		.loc 1 430 0
 2972 046e 1C31     		adds	r1, r1, #28
 2973              	.LVL351:
 2974              		.loc 1 427 0
 2975 0470 002A     		cmp	r2, #0
 2976 0472 FAD1     		bne	.L240
 2977              	.LVL352:
 2978              	.L219:
 2979              		.loc 1 434 0
 2980 0474 AEEB0101 		sub	r1, lr, r1
 2981              	.LVL353:
 2982              	.LBB461:
 2983              		.loc 1 437 0
 2984 0478 1B29     		cmp	r1, #27
 2985 047a 32D8     		bhi	.L241
 2986              		.loc 1 438 0
 2987 047c BCF1000F 		cmp	ip, #0
 2988 0480 3FF427AF 		beq	.L305
 2989 0484 023B     		subs	r3, r3, #2
 2990 0486 DAB2     		uxtb	r2, r3
 2991 0488 039B     		ldr	r3, [sp, #12]
 2992 048a CC1C     		adds	r4, r1, #3
 2993 048c 2044     		add	r0, r0, r4
 2994 048e 0433     		adds	r3, r3, #4
 2995 0490 0232     		adds	r2, r2, #2
 2996 0492 C1F11C04 		rsb	r4, r1, #28
 2997 0496 0892     		str	r2, [sp, #32]
 2998 0498 0693     		str	r3, [sp, #24]
 2999 049a 0121     		movs	r1, #1
 3000              	.LVL354:
 3001 049c 0790     		str	r0, [sp, #28]
 3002 049e 03E0     		b	.L221
 3003              	.LVL355:
 3004              	.L316:
 3005 04a0 089A     		ldr	r2, [sp, #32]
 3006              	.LVL356:
 3007 04a2 8A42     		cmp	r2, r1
 3008 04a4 3FF417AF 		beq	.L215
 3009              	.L221:
 3010              	.LVL357:
 3011              		.loc 1 441 0
 3012 04a8 069A     		ldr	r2, [sp, #24]
 3013 04aa 12F8010B 		ldrb	r0, [r2], #1	@ zero_extendqisi2
 3014 04ae 0692     		str	r2, [sp, #24]
 3015 04b0 0246     		mov	r2, r0
 3016 04b2 0798     		ldr	r0, [sp, #28]
 3017 04b4 00F8012F 		strb	r2, [r0, #1]!
 3018              		.loc 1 437 0
 3019 04b8 8C42     		cmp	r4, r1
 3020              		.loc 1 439 0
 3021 04ba CAB2     		uxtb	r2, r1
ARM GAS  /tmp/cc2f1tkm.s 			page 54


 3022              		.loc 1 441 0
 3023 04bc 0790     		str	r0, [sp, #28]
 3024              	.LVL358:
 3025 04be 01F10101 		add	r1, r1, #1
 3026              		.loc 1 437 0
 3027 04c2 EDD1     		bne	.L316
 3028              	.LVL359:
 3029              	.L216:
 3030              	.LBE461:
 3031              	.LBE460:
 3032              	.LBE459:
 3033              		.loc 1 446 0
 3034 04c4 DDE90401 		ldrd	r0, [sp, #16]
 3035              		.loc 1 448 0
 3036 04c8 07F11A04 		add	r4, r7, #26
 3037              		.loc 1 450 0
 3038 04cc 6245     		cmp	r2, ip
 3039              		.loc 1 446 0
 3040 04ce CDE90A01 		strd	r0, [sp, #40]
 3041 04d2 CDE90C48 		strd	r4, r8, [sp, #48]
 3042              		.loc 1 450 0
 3043 04d6 57D2     		bcs	.L242
 3044              		.loc 1 450 0 is_stmt 0 discriminator 1
 3045 04d8 0399     		ldr	r1, [sp, #12]
 3046 04da 0432     		adds	r2, r2, #4
 3047              	.LVL360:
 3048 04dc 1144     		add	r1, r1, r2
 3049 04de 0A46     		mov	r2, r1
 3050 04e0 02E7     		b	.L222
 3051              	.LVL361:
 3052              	.L241:
 3053              		.loc 1 408 0 is_stmt 1
 3054 04e2 0022     		movs	r2, #0
 3055              	.LVL362:
 3056              	.L302:
 3057 04e4 039B     		ldr	r3, [sp, #12]
 3058 04e6 0433     		adds	r3, r3, #4
 3059 04e8 ECE7     		b	.L216
 3060              	.LVL363:
 3061              	.L310:
 3062              	.LBE485:
 3063              	.LBB486:
 3064              	.LBB434:
 3065              		.loc 1 1203 0
 3066 04ea FB8A     		ldrh	r3, [r7, #22]
 3067 04ec 62F30903 		bfi	r3, r2, #0, #10
 3068 04f0 FB82     		strh	r3, [r7, #22]	@ movhi
 3069              	.LVL364:
 3070 04f2 5FE6     		b	.L195
 3071              	.LVL365:
 3072              	.L303:
 3073              	.LBE434:
 3074              	.LBE486:
 3075              	.LBB487:
 3076              		.loc 1 401 0
 3077 04f4 BB82     		strh	r3, [r7, #20]	@ movhi
 3078              	.LBE487:
ARM GAS  /tmp/cc2f1tkm.s 			page 55


 3079              		.loc 1 474 0
 3080 04f6 FB7D     		ldrb	r3, [r7, #23]	@ zero_extendqisi2
 3081 04f8 DA43     		mvns	r2, r3
 3082 04fa C2F3C012 		ubfx	r2, r2, #7, #1
 3083 04fe 62F3C713 		bfi	r3, r2, #7, #1
 3084 0502 FB75     		strb	r3, [r7, #23]
 3085 0504 8BE5     		b	.L171
 3086              	.LVL366:
 3087              	.L314:
 3088 0506 039A     		ldr	r2, [sp, #12]
 3089              	.LBB509:
 3090              		.loc 1 393 0
 3091 0508 013B     		subs	r3, r3, #1
 3092 050a 141D     		adds	r4, r2, #4
 3093 050c DBB2     		uxtb	r3, r3
 3094 050e 2246     		mov	r2, r4
 3095 0510 3946     		mov	r1, r7
 3096 0512 05F10C00 		add	r0, r5, #12
 3097 0516 FFF7FEFF 		bl	bufferBlockPushBytes
 3098              	.LVL367:
 3099              		.loc 1 395 0
 3100 051a 0028     		cmp	r0, #0
 3101 051c 1ADB     		blt	.L207
 3102              	.LVL368:
 3103              		.loc 1 402 0
 3104 051e 039B     		ldr	r3, [sp, #12]
 3105 0520 187B     		ldrb	r0, [r3, #12]	@ zero_extendqisi2
 3106              	.LVL369:
 3107              		.loc 1 401 0
 3108 0522 BB8A     		ldrh	r3, [r7, #20]
 3109              	.LVL370:
 3110              		.loc 1 402 0
 3111 0524 0138     		subs	r0, r0, #1
 3112 0526 54FA80F0 		uxtab	r0, r4, r0
 3113              	.LBB488:
 3114              	.LBB489:
 3115              	.LBB490:
 3116              	.LBB491:
 3117              	.LBB492:
 3118              		.loc 1 1504 0
 3119 052a 41F22105 		movw	r5, #4129
 3120              	.LVL371:
 3121              	.L210:
 3122              	.LBE492:
 3123              	.LBE491:
 3124              	.LBE490:
 3125              		.loc 1 1525 0
 3126 052e 8442     		cmp	r4, r0
 3127 0530 E0D0     		beq	.L303
 3128              	.LVL372:
 3129              	.LBB495:
 3130              	.LBB494:
 3131              		.loc 1 1499 0
 3132 0532 14F8012B 		ldrb	r2, [r4], #1	@ zero_extendqisi2
 3133              	.LVL373:
 3134 0536 83EA0223 		eor	r3, r3, r2, lsl #8
 3135              	.LVL374:
ARM GAS  /tmp/cc2f1tkm.s 			page 56


 3136 053a 0822     		movs	r2, #8
 3137              	.LVL375:
 3138              	.L212:
 3139              	.LBB493:
 3140              		.loc 1 1502 0
 3141 053c 19B2     		sxth	r1, r3
 3142 053e 5B00     		lsls	r3, r3, #1
 3143              	.LVL376:
 3144 0540 0029     		cmp	r1, #0
 3145 0542 02F1FF32 		add	r2, r2, #-1
 3146              	.LVL377:
 3147 0546 9BB2     		uxth	r3, r3
 3148              		.loc 1 1504 0
 3149 0548 B8BF     		it	lt
 3150 054a 6B40     		eorlt	r3, r3, r5
 3151              	.LVL378:
 3152              		.loc 1 1500 0
 3153 054c 12F0FF02 		ands	r2, r2, #255
 3154 0550 F4D1     		bne	.L212
 3155 0552 ECE7     		b	.L210
 3156              	.LVL379:
 3157              	.L207:
 3158              	.LBE493:
 3159              	.LBE494:
 3160              	.LBE495:
 3161              	.LBE489:
 3162              	.LBE488:
 3163              	.LBB496:
 3164              	.LBB497:
 3165              		.loc 1 1197 0
 3166 0554 7A68     		ldr	r2, [r7, #4]
 3167 0556 42B1     		cbz	r2, .L306
 3168              	.LBB498:
 3169              	.LBB499:
 3170              	.LBB500:
 3171              		.loc 1 1584 0
 3172 0558 6B8A     		ldrh	r3, [r5, #18]
 3173              	.LBE500:
 3174              	.LBE499:
 3175              		.loc 1 1199 0
 3176 055a 1168     		ldr	r1, [r2]
 3177              	.LVL380:
 3178              	.LBB502:
 3179              	.LBB501:
 3180              		.loc 1 1580 0
 3181 055c E868     		ldr	r0, [r5, #12]
 3182 055e 1060     		str	r0, [r2]
 3183              		.loc 1 1584 0
 3184 0560 013B     		subs	r3, r3, #1
 3185 0562 6B82     		strh	r3, [r5, #18]	@ movhi
 3186              	.LVL381:
 3187              		.loc 1 1581 0
 3188 0564 EA60     		str	r2, [r5, #12]
 3189              	.LBE501:
 3190              	.LBE502:
 3191              		.loc 1 1201 0
 3192 0566 7960     		str	r1, [r7, #4]
ARM GAS  /tmp/cc2f1tkm.s 			page 57


 3193 0568 F4E7     		b	.L207
 3194              	.LVL382:
 3195              	.L306:
 3196              	.LBE498:
 3197              		.loc 1 1203 0
 3198 056a F98A     		ldrh	r1, [r7, #22]
 3199 056c 62F30901 		bfi	r1, r2, #0, #10
 3200              	.LBE497:
 3201              	.LBE496:
 3202              	.LBB504:
 3203              	.LBB505:
 3204              		.loc 1 1063 0
 3205 0570 C1F30723 		ubfx	r3, r1, #8, #8
 3206 0574 C3F38400 		ubfx	r0, r3, #2, #5
 3207 0578 0130     		adds	r0, r0, #1
 3208 057a 60F38603 		bfi	r3, r0, #2, #5
 3209              		.loc 1 1065 0
 3210 057e 62F3C713 		bfi	r3, r2, #7, #1
 3211              	.LBE505:
 3212              	.LBE504:
 3213              	.LBB507:
 3214              	.LBB503:
 3215              		.loc 1 1203 0
 3216 0582 F982     		strh	r1, [r7, #22]	@ movhi
 3217              	.LVL383:
 3218              	.LBE503:
 3219              	.LBE507:
 3220              	.LBB508:
 3221              	.LBB506:
 3222              		.loc 1 1065 0
 3223 0584 FB75     		strb	r3, [r7, #23]
 3224 0586 4AE5     		b	.L171
 3225              	.LVL384:
 3226              	.L242:
 3227              	.LBE506:
 3228              	.LBE508:
 3229              	.LBE509:
 3230              	.LBB510:
 3231              		.loc 1 450 0
 3232 0588 0022     		movs	r2, #0
 3233              	.LVL385:
 3234 058a ADE6     		b	.L222
 3235              	.LVL386:
 3236              	.L239:
 3237              	.LBB463:
 3238              	.LBB462:
 3239              		.loc 1 427 0
 3240 058c 4046     		mov	r0, r8
 3241              		.loc 1 426 0
 3242 058e 0621     		movs	r1, #6
 3243 0590 70E7     		b	.L219
 3244              	.LVL387:
 3245              	.L237:
 3246 0592 039B     		ldr	r3, [sp, #12]
 3247              	.LBE462:
 3248              	.LBE463:
 3249              	.LBB464:
ARM GAS  /tmp/cc2f1tkm.s 			page 58


 3250              		.loc 1 415 0
 3251 0594 0122     		movs	r2, #1
 3252 0596 0433     		adds	r3, r3, #4
 3253 0598 94E7     		b	.L216
 3254              	.LBE464:
 3255              	.LBE510:
 3256              		.cfi_endproc
 3257              	.LFE8:
 3258              		.size	canardHandleRxFrame, .-canardHandleRxFrame
 3259 059a 00BF     		.section	.text.canardCleanupStaleTransfers,"ax",%progbits
 3260              		.align	1
 3261              		.p2align 4,,15
 3262              		.global	canardCleanupStaleTransfers
 3263              		.syntax unified
 3264              		.thumb
 3265              		.thumb_func
 3266              		.fpu fpv4-sp-d16
 3267              		.type	canardCleanupStaleTransfers, %function
 3268              	canardCleanupStaleTransfers:
 3269              	.LFB9:
 3270              		.loc 1 478 0
 3271              		.cfi_startproc
 3272              		@ args = 0, pretend = 0, frame = 0
 3273              		@ frame_needed = 0, uses_anonymous_args = 0
 3274              	.LVL388:
 3275              		.loc 1 479 0
 3276 0000 D0F818C0 		ldr	ip, [r0, #24]
 3277              	.LVL389:
 3278              		.loc 1 481 0
 3279 0004 BCF1000F 		cmp	ip, #0
 3280 0008 68D0     		beq	.L340
 3281              		.loc 1 478 0
 3282 000a 2DE9F04F 		push	{r4, r5, r6, r7, r8, r9, r10, fp, lr}
 3283              		.cfi_def_cfa_offset 36
 3284              		.cfi_offset 4, -36
 3285              		.cfi_offset 5, -32
 3286              		.cfi_offset 6, -28
 3287              		.cfi_offset 7, -24
 3288              		.cfi_offset 8, -20
 3289              		.cfi_offset 9, -16
 3290              		.cfi_offset 10, -12
 3291              		.cfi_offset 11, -8
 3292              		.cfi_offset 14, -4
 3293              		.loc 1 483 0
 3294 000e DFF8D080 		ldr	r8, .L343
 3295 0012 1646     		mov	r6, r2
 3296 0014 1F46     		mov	r7, r3
 3297              		.loc 1 481 0
 3298 0016 6246     		mov	r2, ip
 3299              	.LVL390:
 3300              		.loc 1 483 0
 3301 0018 4FF00009 		mov	r9, #0
 3302              	.LVL391:
 3303              	.L328:
 3304 001c D2E90245 		ldrd	r4, [r2, #8]
 3305 0020 B6EB040A 		subs	r10, r6, r4
 3306 0024 67EB050B 		sbc	fp, r7, r5
ARM GAS  /tmp/cc2f1tkm.s 			page 59


 3307 0028 D945     		cmp	r9, fp
 3308 002a 08BF     		it	eq
 3309 002c D045     		cmpeq	r8, r10
 3310 002e D2F800E0 		ldr	lr, [r2]
 3311 0032 2AD2     		bcs	.L329
 3312              		.loc 1 485 0
 3313 0034 8169     		ldr	r1, [r0, #24]
 3314 0036 5368     		ldr	r3, [r2, #4]
 3315 0038 C468     		ldr	r4, [r0, #12]
 3316 003a 9142     		cmp	r1, r2
 3317 003c 2BD0     		beq	.L322
 3318              	.LBB511:
 3319              	.LBB512:
 3320              		.loc 1 1197 0
 3321 003e A3B1     		cbz	r3, .L324
 3322 0040 B0F812A0 		ldrh	r10, [r0, #18]
 3323 0044 0AF1FF3A 		add	r10, r10, #-1
 3324 0048 1FFA8AFA 		uxth	r10, r10
 3325 004c 01E0     		b	.L327
 3326              	.LVL392:
 3327              	.L331:
 3328 004e 9A46     		mov	r10, r3
 3329 0050 2B46     		mov	r3, r5
 3330              	.LVL393:
 3331              	.L327:
 3332              	.LBB513:
 3333              		.loc 1 1199 0
 3334 0052 1D68     		ldr	r5, [r3]
 3335              	.LVL394:
 3336              	.LBB514:
 3337              	.LBB515:
 3338              		.loc 1 1580 0
 3339 0054 1C60     		str	r4, [r3]
 3340 0056 0AF1FF31 		add	r1, r10, #-1
 3341              		.loc 1 1581 0
 3342 005a C360     		str	r3, [r0, #12]
 3343              	.LVL395:
 3344 005c 1C46     		mov	r4, r3
 3345 005e 8BB2     		uxth	r3, r1
 3346              	.LVL396:
 3347              	.LBE515:
 3348              	.LBE514:
 3349              	.LBE513:
 3350              		.loc 1 1197 0
 3351 0060 002D     		cmp	r5, #0
 3352 0062 F4D1     		bne	.L331
 3353 0064 A0F812A0 		strh	r10, [r0, #18]	@ movhi
 3354 0068 5560     		str	r5, [r2, #4]
 3355              	.LVL397:
 3356              	.L324:
 3357              		.loc 1 1203 0
 3358 006a D38A     		ldrh	r3, [r2, #22]
 3359 006c 6FF30903 		bfc	r3, #0, #10
 3360 0070 D382     		strh	r3, [r2, #22]	@ movhi
 3361              	.LBE512:
 3362              	.LBE511:
 3363              	.LBB516:
ARM GAS  /tmp/cc2f1tkm.s 			page 60


 3364              	.LBB517:
 3365              		.loc 1 1584 0
 3366 0072 438A     		ldrh	r3, [r0, #18]
 3367              	.LBE517:
 3368              	.LBE516:
 3369              		.loc 1 496 0
 3370 0074 CCF800E0 		str	lr, [ip]
 3371              	.LVL398:
 3372              	.LBB520:
 3373              	.LBB518:
 3374              		.loc 1 1584 0
 3375 0078 013B     		subs	r3, r3, #1
 3376              		.loc 1 1580 0
 3377 007a 1460     		str	r4, [r2]
 3378              		.loc 1 1581 0
 3379 007c C260     		str	r2, [r0, #12]
 3380              	.LBE518:
 3381              	.LBE520:
 3382              		.loc 1 481 0
 3383 007e 7246     		mov	r2, lr
 3384              	.LVL399:
 3385              	.LBB521:
 3386              	.LBB519:
 3387              		.loc 1 1584 0
 3388 0080 4382     		strh	r3, [r0, #18]	@ movhi
 3389              	.LVL400:
 3390              	.LBE519:
 3391              	.LBE521:
 3392              		.loc 1 481 0
 3393 0082 002A     		cmp	r2, #0
 3394 0084 CAD1     		bne	.L328
 3395              		.loc 1 507 0
 3396 0086 BDE8F08F 		pop	{r4, r5, r6, r7, r8, r9, r10, fp, pc}
 3397              	.LVL401:
 3398              	.L329:
 3399 008a 9446     		mov	ip, r2
 3400              	.LVL402:
 3401              	.L321:
 3402              		.loc 1 481 0
 3403 008c 7246     		mov	r2, lr
 3404 008e 002A     		cmp	r2, #0
 3405 0090 C4D1     		bne	.L328
 3406              	.LVL403:
 3407              		.loc 1 507 0
 3408 0092 BDE8F08F 		pop	{r4, r5, r6, r7, r8, r9, r10, fp, pc}
 3409              	.L322:
 3410              	.LBB522:
 3411              	.LBB523:
 3412              		.loc 1 1197 0
 3413 0096 A3B1     		cbz	r3, .L325
 3414 0098 B0F812C0 		ldrh	ip, [r0, #18]
 3415              	.LVL404:
 3416 009c 0CF1FF3C 		add	ip, ip, #-1
 3417 00a0 1FFA8CFC 		uxth	ip, ip
 3418 00a4 01E0     		b	.L326
 3419              	.LVL405:
 3420              	.L330:
ARM GAS  /tmp/cc2f1tkm.s 			page 61


 3421 00a6 9C46     		mov	ip, r3
 3422 00a8 2B46     		mov	r3, r5
 3423              	.LVL406:
 3424              	.L326:
 3425              	.LBB524:
 3426              		.loc 1 1199 0
 3427 00aa 1D68     		ldr	r5, [r3]
 3428              	.LVL407:
 3429              	.LBB525:
 3430              	.LBB526:
 3431              		.loc 1 1580 0
 3432 00ac 1C60     		str	r4, [r3]
 3433 00ae 0CF1FF31 		add	r1, ip, #-1
 3434              		.loc 1 1581 0
 3435 00b2 C360     		str	r3, [r0, #12]
 3436              	.LVL408:
 3437 00b4 1C46     		mov	r4, r3
 3438 00b6 8BB2     		uxth	r3, r1
 3439              	.LVL409:
 3440              	.LBE526:
 3441              	.LBE525:
 3442              	.LBE524:
 3443              		.loc 1 1197 0
 3444 00b8 002D     		cmp	r5, #0
 3445 00ba F4D1     		bne	.L330
 3446 00bc A0F812C0 		strh	ip, [r0, #18]	@ movhi
 3447 00c0 5560     		str	r5, [r2, #4]
 3448              	.LVL410:
 3449              	.L325:
 3450              		.loc 1 1203 0
 3451 00c2 D38A     		ldrh	r3, [r2, #22]
 3452 00c4 6FF30903 		bfc	r3, #0, #10
 3453 00c8 D382     		strh	r3, [r2, #22]	@ movhi
 3454              	.LBE523:
 3455              	.LBE522:
 3456              	.LBB527:
 3457              	.LBB528:
 3458              		.loc 1 1584 0
 3459 00ca 438A     		ldrh	r3, [r0, #18]
 3460              	.LBE528:
 3461              	.LBE527:
 3462              		.loc 1 488 0
 3463 00cc C0F818E0 		str	lr, [r0, #24]
 3464              	.LVL411:
 3465              	.LBB531:
 3466              	.LBB529:
 3467              		.loc 1 1584 0
 3468 00d0 013B     		subs	r3, r3, #1
 3469              		.loc 1 1580 0
 3470 00d2 1460     		str	r4, [r2]
 3471              	.LBE529:
 3472              	.LBE531:
 3473 00d4 F446     		mov	ip, lr
 3474              	.LBB532:
 3475              	.LBB530:
 3476              		.loc 1 1581 0
 3477 00d6 C260     		str	r2, [r0, #12]
ARM GAS  /tmp/cc2f1tkm.s 			page 62


 3478              		.loc 1 1584 0
 3479 00d8 4382     		strh	r3, [r0, #18]	@ movhi
 3480              	.LVL412:
 3481              	.LBE530:
 3482              	.LBE532:
 3483 00da D7E7     		b	.L321
 3484              	.LVL413:
 3485              	.L340:
 3486              		.cfi_def_cfa_offset 0
 3487              		.cfi_restore 4
 3488              		.cfi_restore 5
 3489              		.cfi_restore 6
 3490              		.cfi_restore 7
 3491              		.cfi_restore 8
 3492              		.cfi_restore 9
 3493              		.cfi_restore 10
 3494              		.cfi_restore 11
 3495              		.cfi_restore 14
 3496 00dc 7047     		bx	lr
 3497              	.L344:
 3498 00de 00BF     		.align	2
 3499              	.L343:
 3500 00e0 80841E00 		.word	2000000
 3501              		.cfi_endproc
 3502              	.LFE9:
 3503              		.size	canardCleanupStaleTransfers, .-canardCleanupStaleTransfers
 3504              		.section	.text.canardDecodeScalar,"ax",%progbits
 3505              		.align	1
 3506              		.p2align 4,,15
 3507              		.global	canardDecodeScalar
 3508              		.syntax unified
 3509              		.thumb
 3510              		.thumb_func
 3511              		.fpu fpv4-sp-d16
 3512              		.type	canardDecodeScalar, %function
 3513              	canardDecodeScalar:
 3514              	.LFB10:
 3515              		.loc 1 514 0
 3516              		.cfi_startproc
 3517              		@ args = 4, pretend = 0, frame = 32
 3518              		@ frame_needed = 0, uses_anonymous_args = 0
 3519              	.LVL414:
 3520 0000 2DE9F04F 		push	{r4, r5, r6, r7, r8, r9, r10, fp, lr}
 3521              		.cfi_def_cfa_offset 36
 3522              		.cfi_offset 4, -36
 3523              		.cfi_offset 5, -32
 3524              		.cfi_offset 6, -28
 3525              		.cfi_offset 7, -24
 3526              		.cfi_offset 8, -20
 3527              		.cfi_offset 9, -16
 3528              		.cfi_offset 10, -12
 3529              		.cfi_offset 11, -8
 3530              		.cfi_offset 14, -4
 3531 0004 8BB0     		sub	sp, sp, #44
 3532              		.cfi_def_cfa_offset 80
 3533              		.loc 1 514 0
 3534 0006 9346     		mov	fp, r2
ARM GAS  /tmp/cc2f1tkm.s 			page 63


 3535 0008 0593     		str	r3, [sp, #20]
 3536              		.loc 1 515 0
 3537 000a 0390     		str	r0, [sp, #12]
 3538 000c 0028     		cmp	r0, #0
 3539 000e 00F06981 		beq	.L392
 3540              		.loc 1 515 0 is_stmt 0 discriminator 1
 3541 0012 149A     		ldr	r2, [sp, #80]
 3542              	.LVL415:
 3543 0014 002A     		cmp	r2, #0
 3544 0016 00F06581 		beq	.L392
 3545              		.loc 1 520 0 is_stmt 1
 3546 001a 0BF1FF32 		add	r2, fp, #-1
 3547 001e 0C46     		mov	r4, r1
 3548 0020 1946     		mov	r1, r3
 3549              	.LVL416:
 3550 0022 D3B2     		uxtb	r3, r2
 3551              	.LVL417:
 3552 0024 3F2B     		cmp	r3, #63
 3553 0026 0692     		str	r2, [sp, #24]
 3554 0028 00F25C81 		bhi	.L392
 3555              		.loc 1 525 0
 3556 002c BBF1010F 		cmp	fp, #1
 3557 0030 02D1     		bne	.L347
 3558              		.loc 1 525 0 is_stmt 0 discriminator 1
 3559 0032 0029     		cmp	r1, #0
 3560 0034 40F05681 		bne	.L392
 3561              	.L347:
 3562              	.LBB542:
 3563              	.LBB543:
 3564              		.loc 1 1364 0 is_stmt 1
 3565 0038 039B     		ldr	r3, [sp, #12]
 3566 003a 9D8A     		ldrh	r5, [r3, #20]
 3567 003c EB00     		lsls	r3, r5, #3
 3568              	.LBE543:
 3569              	.LBE542:
 3570              		.loc 1 548 0
 3571 003e 0022     		movs	r2, #0
 3572              	.LBB565:
 3573              	.LBB558:
 3574              		.loc 1 1364 0
 3575 0040 9C42     		cmp	r4, r3
 3576              	.LBE558:
 3577              	.LBE565:
 3578              		.loc 1 548 0
 3579 0042 CDE90822 		strd	r2, r2, [sp, #32]
 3580              	.LBB566:
 3581              	.LBB559:
 3582              		.loc 1 1364 0
 3583 0046 80F0A380 		bcs	.L362
 3584              		.loc 1 1369 0
 3585 004a 04EB0B02 		add	r2, r4, fp
 3586 004e 9342     		cmp	r3, r2
 3587              		.loc 1 1371 0
 3588 0050 3EBF     		ittt	cc
 3589 0052 1B1B     		subcc	r3, r3, r4
 3590 0054 DBB2     		uxtbcc	r3, r3
 3591 0056 0493     		strcc	r3, [sp, #16]
ARM GAS  /tmp/cc2f1tkm.s 			page 64


 3592              	.LVL418:
 3593              		.loc 1 1376 0
 3594 0058 039B     		ldr	r3, [sp, #12]
 3595              		.loc 1 1369 0
 3596 005a 28BF     		it	cs
 3597 005c CDF810B0 		strcs	fp, [sp, #16]
 3598              	.LVL419:
 3599              		.loc 1 1376 0
 3600 0060 DE68     		ldr	r6, [r3, #12]
 3601 0062 002E     		cmp	r6, #0
 3602 0064 00F0AA80 		beq	.L441
 3603              	.LVL420:
 3604              	.LBB544:
 3605              		.loc 1 1388 0
 3606 0068 2F2C     		cmp	r4, #47
 3607 006a 40F2AE80 		bls	.L380
 3608              		.loc 1 1401 0
 3609 006e 05F10055 		add	r5, r5, #536870912
 3610 0072 063D     		subs	r5, r5, #6
 3611              		.loc 1 1384 0
 3612 0074 0023     		movs	r3, #0
 3613              		.loc 1 1385 0
 3614 0076 DDF81080 		ldr	r8, [sp, #16]
 3615              		.loc 1 1384 0
 3616 007a 0293     		str	r3, [sp, #8]
 3617              		.loc 1 1401 0
 3618 007c ED00     		lsls	r5, r5, #3
 3619              	.LVL421:
 3620              	.L382:
 3621              		.loc 1 1405 0
 3622 007e B8F1000F 		cmp	r8, #0
 3623 0082 38D0     		beq	.L356
 3624              		.loc 1 1402 0
 3625 0084 4346     		mov	r3, r8
 3626 0086 3021     		movs	r1, #48
 3627 0088 A846     		mov	r8, r5
 3628 008a CDF81CB0 		str	fp, [sp, #28]
 3629 008e 1D46     		mov	r5, r3
 3630              	.LVL422:
 3631              	.L355:
 3632              	.LBB545:
 3633              		.loc 1 1408 0
 3634 0090 B8F1E00F 		cmp	r8, #224
 3635 0094 C146     		mov	r9, r8
 3636 0096 28BF     		it	cs
 3637 0098 4FF0E009 		movcs	r9, #224
 3638 009c 09EB0107 		add	r7, r9, r1
 3639              	.LVL423:
 3640              		.loc 1 1412 0
 3641 00a0 A742     		cmp	r7, r4
 3642              	.LBB546:
 3643              		.loc 1 1414 0
 3644 00a2 A7EB0403 		sub	r3, r7, r4
 3645 00a6 AB46     		mov	fp, r5
 3646              	.LBE546:
 3647              		.loc 1 1412 0
 3648 00a8 5BD9     		bls	.L357
ARM GAS  /tmp/cc2f1tkm.s 			page 65


 3649              	.LBB547:
 3650              		.loc 1 1414 0
 3651 00aa 5FFA83FA 		uxtb	r10, r3
 3652 00ae 9D42     		cmp	r5, r3
 3653 00b0 A5EB0A03 		sub	r3, r5, r10
 3654              	.LVL424:
 3655 00b4 24BF     		itt	cs
 3656 00b6 D346     		movcs	fp, r10
 3657 00b8 DDB2     		uxtbcs	r5, r3
 3658              		.loc 1 1419 0
 3659 00ba 08A8     		add	r0, sp, #32
 3660 00bc 029B     		ldr	r3, [sp, #8]
 3661              	.LVL425:
 3662 00be 0093     		str	r3, [sp]
 3663 00c0 A4EB0101 		sub	r1, r4, r1
 3664              	.LVL426:
 3665 00c4 0346     		mov	r3, r0
 3666 00c6 5A46     		mov	r2, fp
 3667 00c8 06F10400 		add	r0, r6, #4
 3668              		.loc 1 1414 0
 3669 00cc 3CBF     		itt	cc
 3670 00ce AA46     		movcc	r10, r5
 3671              	.LVL427:
 3672 00d0 0025     		movcc	r5, #0
 3673              		.loc 1 1419 0
 3674 00d2 FFF7FEFF 		bl	copyBitArray
 3675              	.LVL428:
 3676              		.loc 1 1422 0
 3677 00d6 029B     		ldr	r3, [sp, #8]
 3678              	.LBE547:
 3679              		.loc 1 1429 0
 3680 00d8 3668     		ldr	r6, [r6]
 3681              	.LVL429:
 3682              	.LBB548:
 3683              		.loc 1 1422 0
 3684 00da 9A44     		add	r10, r10, r3
 3685              	.LVL430:
 3686 00dc 5FFA8AF3 		uxtb	r3, r10
 3687              		.loc 1 1421 0
 3688 00e0 5C44     		add	r4, r4, fp
 3689              	.LVL431:
 3690 00e2 A8EB0908 		sub	r8, r8, r9
 3691              	.LVL432:
 3692              		.loc 1 1422 0
 3693 00e6 0293     		str	r3, [sp, #8]
 3694              	.LVL433:
 3695              	.LBE548:
 3696              	.LBE545:
 3697              		.loc 1 1405 0
 3698 00e8 002E     		cmp	r6, #0
 3699 00ea 3FD0     		beq	.L433
 3700 00ec 0DB1     		cbz	r5, .L442
 3701              	.LVL434:
 3702              	.L360:
 3703              		.loc 1 1384 0
 3704 00ee 3946     		mov	r1, r7
 3705 00f0 CEE7     		b	.L355
ARM GAS  /tmp/cc2f1tkm.s 			page 66


 3706              	.LVL435:
 3707              	.L442:
 3708 00f2 DDF81CB0 		ldr	fp, [sp, #28]
 3709              	.LVL436:
 3710              	.L356:
 3711              	.LBE544:
 3712              		.loc 1 1457 0
 3713 00f6 049B     		ldr	r3, [sp, #16]
 3714 00f8 18B2     		sxth	r0, r3
 3715              	.LBE559:
 3716              	.LBE566:
 3717              		.loc 1 551 0
 3718 00fa 002B     		cmp	r3, #0
 3719 00fc 48D0     		beq	.L362
 3720              		.loc 1 564 0
 3721 00fe 1BF0070F 		tst	fp, #7
 3722 0102 0CD0     		beq	.L363
 3723              		.loc 1 567 0
 3724 0104 0AAA     		add	r2, sp, #40
 3725 0106 02EBDB02 		add	r2, r2, fp, lsr #3
 3726 010a CBF10003 		rsb	r3, fp, #0
 3727 010e 12F8081C 		ldrb	r1, [r2, #-8]	@ zero_extendqisi2
 3728 0112 03F00703 		and	r3, r3, #7
 3729 0116 41FA03F3 		asr	r3, r1, r3
 3730 011a 02F8083C 		strb	r3, [r2, #-8]
 3731              	.L363:
 3732              	.LVL437:
 3733              		.loc 1 575 0
 3734 011e BBF1080F 		cmp	fp, #8
 3735 0122 72D8     		bhi	.L443
 3736 0124 0123     		movs	r3, #1
 3737              	.L364:
 3738              	.LVL438:
 3739              		.loc 1 599 0
 3740 0126 059A     		ldr	r2, [sp, #20]
 3741 0128 002A     		cmp	r2, #0
 3742 012a 35D0     		beq	.L365
 3743              		.loc 1 599 0 is_stmt 0 discriminator 1
 3744 012c BBEBC30F 		cmp	fp, r3, lsl #3
 3745 0130 35D0     		beq	.L429
 3746              		.loc 1 601 0 is_stmt 1
 3747 0132 BBF1080F 		cmp	fp, #8
 3748 0136 7BD8     		bhi	.L367
 3749              		.loc 1 603 0
 3750 0138 9DF82030 		ldrb	r3, [sp, #32]	@ zero_extendqisi2
 3751              	.LVL439:
 3752 013c 069A     		ldr	r2, [sp, #24]
 3753 013e 23FA02F2 		lsr	r2, r3, r2
 3754 0142 D107     		lsls	r1, r2, #31
 3755 0144 06D5     		bpl	.L437
 3756              		.loc 1 605 0
 3757 0146 4FF0FF32 		mov	r2, #-1
 3758 014a 02FA0BF2 		lsl	r2, r2, fp
 3759 014e 1343     		orrs	r3, r3, r2
 3760 0150 8DF82030 		strb	r3, [sp, #32]
 3761              	.L437:
 3762              		.loc 1 654 0 discriminator 1
ARM GAS  /tmp/cc2f1tkm.s 			page 67


 3763 0154 9DF82030 		ldrb	r3, [sp, #32]	@ zero_extendqisi2
 3764 0158 149A     		ldr	r2, [sp, #80]
 3765 015a 1370     		strb	r3, [r2]
 3766              	.LVL440:
 3767              		.loc 1 668 0 discriminator 1
 3768 015c 0BB0     		add	sp, sp, #44
 3769              		.cfi_remember_state
 3770              		.cfi_def_cfa_offset 36
 3771              		@ sp needed
 3772 015e BDE8F08F 		pop	{r4, r5, r6, r7, r8, r9, r10, fp, pc}
 3773              	.LVL441:
 3774              	.L357:
 3775              		.cfi_restore_state
 3776              	.LBB567:
 3777              	.LBB560:
 3778              	.LBB554:
 3779              	.LBB549:
 3780              		.loc 1 1429 0
 3781 0162 3668     		ldr	r6, [r6]
 3782              	.LVL442:
 3783 0164 A8EB0908 		sub	r8, r8, r9
 3784              	.LVL443:
 3785              	.LBE549:
 3786              		.loc 1 1405 0
 3787 0168 002E     		cmp	r6, #0
 3788 016a C0D1     		bne	.L360
 3789              	.L433:
 3790 016c DDF81CB0 		ldr	fp, [sp, #28]
 3791 0170 A846     		mov	r8, r5
 3792              	.LVL444:
 3793              	.L354:
 3794              		.loc 1 1435 0
 3795 0172 039B     		ldr	r3, [sp, #12]
 3796 0174 1869     		ldr	r0, [r3, #16]
 3797 0176 0028     		cmp	r0, #0
 3798 0178 BDD0     		beq	.L356
 3799              	.LVL445:
 3800              	.L386:
 3801 017a B8F1000F 		cmp	r8, #0
 3802 017e BAD0     		beq	.L356
 3803              	.LVL446:
 3804              	.LBB550:
 3805              		.loc 1 1440 0
 3806 0180 029B     		ldr	r3, [sp, #8]
 3807 0182 0093     		str	r3, [sp]
 3808 0184 4246     		mov	r2, r8
 3809 0186 08AB     		add	r3, sp, #32
 3810 0188 E11B     		subs	r1, r4, r7
 3811 018a FFF7FEFF 		bl	copyBitArray
 3812              	.LVL447:
 3813 018e B2E7     		b	.L356
 3814              	.LVL448:
 3815              	.L362:
 3816              	.LBE550:
 3817              	.LBE554:
 3818              		.loc 1 1366 0
 3819 0190 0020     		movs	r0, #0
ARM GAS  /tmp/cc2f1tkm.s 			page 68


 3820              	.L426:
 3821              	.LBE560:
 3822              	.LBE567:
 3823              		.loc 1 668 0
 3824 0192 0BB0     		add	sp, sp, #44
 3825              		.cfi_remember_state
 3826              		.cfi_def_cfa_offset 36
 3827              		@ sp needed
 3828 0194 BDE8F08F 		pop	{r4, r5, r6, r7, r8, r9, r10, fp, pc}
 3829              	.LVL449:
 3830              	.L365:
 3831              		.cfi_restore_state
 3832              		.loc 1 653 0
 3833 0198 BBF1010F 		cmp	fp, #1
 3834 019c DAD0     		beq	.L437
 3835              	.L429:
 3836              		.loc 1 654 0
 3837 019e BBF1080F 		cmp	fp, #8
 3838 01a2 D7D9     		bls	.L437
 3839              		.loc 1 655 0
 3840 01a4 BBF1100F 		cmp	fp, #16
 3841 01a8 53D9     		bls	.L435
 3842              		.loc 1 656 0
 3843 01aa BBF1200F 		cmp	fp, #32
 3844 01ae 66D9     		bls	.L436
 3845              	.LVL450:
 3846              	.L376:
 3847              		.loc 1 657 0 discriminator 1
 3848 01b0 DDE90823 		ldrd	r2, [sp, #32]
 3849 01b4 1499     		ldr	r1, [sp, #80]
 3850 01b6 C1E90023 		strd	r2, [r1]
 3851 01ba EAE7     		b	.L426
 3852              	.LVL451:
 3853              	.L441:
 3854              	.LBB568:
 3855              	.LBB561:
 3856              		.loc 1 1376 0
 3857 01bc 1B69     		ldr	r3, [r3, #16]
 3858 01be 002B     		cmp	r3, #0
 3859 01c0 00F09380 		beq	.L444
 3860              	.LVL452:
 3861              	.LBB555:
 3862              		.loc 1 1388 0
 3863 01c4 2F2C     		cmp	r4, #47
 3864 01c6 00F29C80 		bhi	.L445
 3865              	.L380:
 3866              	.LBB551:
 3867              		.loc 1 1390 0
 3868 01ca 049B     		ldr	r3, [sp, #16]
 3869 01cc C4F1300A 		rsb	r10, r4, #48
 3870 01d0 5345     		cmp	r3, r10
 3871 01d2 1F46     		mov	r7, r3
 3872 01d4 1ED2     		bcs	.L446
 3873 01d6 049B     		ldr	r3, [sp, #16]
 3874 01d8 0293     		str	r3, [sp, #8]
 3875 01da 4FF00008 		mov	r8, #0
 3876              	.L353:
ARM GAS  /tmp/cc2f1tkm.s 			page 69


 3877              	.LVL453:
 3878              		.loc 1 1393 0
 3879 01de 039D     		ldr	r5, [sp, #12]
 3880 01e0 0023     		movs	r3, #0
 3881 01e2 A868     		ldr	r0, [r5, #8]
 3882              	.LVL454:
 3883 01e4 0093     		str	r3, [sp]
 3884 01e6 2146     		mov	r1, r4
 3885 01e8 08AB     		add	r3, sp, #32
 3886 01ea 3A46     		mov	r2, r7
 3887 01ec FFF7FEFF 		bl	copyBitArray
 3888              	.LVL455:
 3889              	.LBE551:
 3890              		.loc 1 1401 0
 3891 01f0 2B46     		mov	r3, r5
 3892 01f2 AD8A     		ldrh	r5, [r5, #20]
 3893              		.loc 1 1403 0
 3894 01f4 DE68     		ldr	r6, [r3, #12]
 3895              		.loc 1 1401 0
 3896 01f6 05F10055 		add	r5, r5, #536870912
 3897 01fa 063D     		subs	r5, r5, #6
 3898              	.LBB552:
 3899              		.loc 1 1395 0
 3900 01fc 3C44     		add	r4, r4, r7
 3901              	.LVL456:
 3902              	.LBE552:
 3903              		.loc 1 1401 0
 3904 01fe ED00     		lsls	r5, r5, #3
 3905              	.LVL457:
 3906              		.loc 1 1405 0
 3907 0200 002E     		cmp	r6, #0
 3908 0202 7FF43CAF 		bne	.L382
 3909              		.loc 1 1402 0
 3910 0206 3027     		movs	r7, #48
 3911              	.LVL458:
 3912 0208 B3E7     		b	.L354
 3913              	.LVL459:
 3914              	.L443:
 3915              	.LBE555:
 3916              	.LBE561:
 3917              	.LBE568:
 3918              		.loc 1 576 0
 3919 020a BBF1100F 		cmp	fp, #16
 3920 020e 09D8     		bhi	.L447
 3921 0210 0223     		movs	r3, #2
 3922 0212 88E7     		b	.L364
 3923              	.LVL460:
 3924              	.L446:
 3925              	.LBB569:
 3926              	.LBB562:
 3927              	.LBB556:
 3928              	.LBB553:
 3929              		.loc 1 1390 0
 3930 0214 5FFA8AF7 		uxtb	r7, r10
 3931 0218 A3EB0708 		sub	r8, r3, r7
 3932 021c 0297     		str	r7, [sp, #8]
 3933 021e 5FFA88F8 		uxtb	r8, r8
ARM GAS  /tmp/cc2f1tkm.s 			page 70


 3934 0222 DCE7     		b	.L353
 3935              	.LVL461:
 3936              	.L447:
 3937              	.LBE553:
 3938              	.LBE556:
 3939              	.LBE562:
 3940              	.LBE569:
 3941              		.loc 1 578 0
 3942 0224 BBF1210F 		cmp	fp, #33
 3943 0228 34BF     		ite	cc
 3944 022a 0423     		movcc	r3, #4
 3945 022c 0823     		movcs	r3, #8
 3946 022e 7AE7     		b	.L364
 3947              	.LVL462:
 3948              	.L367:
 3949              		.loc 1 608 0
 3950 0230 BBF1100F 		cmp	fp, #16
 3951 0234 14D8     		bhi	.L369
 3952              		.loc 1 610 0
 3953 0236 BDF82030 		ldrh	r3, [sp, #32]
 3954              	.LVL463:
 3955 023a 069A     		ldr	r2, [sp, #24]
 3956 023c 23FA02F2 		lsr	r2, r3, r2
 3957 0240 D207     		lsls	r2, r2, #31
 3958 0242 06D5     		bpl	.L435
 3959              		.loc 1 612 0
 3960 0244 4FF0FF32 		mov	r2, #-1
 3961 0248 02FA0BF2 		lsl	r2, r2, fp
 3962 024c 1343     		orrs	r3, r3, r2
 3963 024e ADF82030 		strh	r3, [sp, #32]	@ movhi
 3964              	.L435:
 3965              		.loc 1 655 0 discriminator 1
 3966 0252 BDF82030 		ldrh	r3, [sp, #32]
 3967 0256 149A     		ldr	r2, [sp, #80]
 3968 0258 1380     		strh	r3, [r2]	@ movhi
 3969              		.loc 1 668 0 discriminator 1
 3970 025a 0BB0     		add	sp, sp, #44
 3971              		.cfi_remember_state
 3972              		.cfi_def_cfa_offset 36
 3973              		@ sp needed
 3974 025c BDE8F08F 		pop	{r4, r5, r6, r7, r8, r9, r10, fp, pc}
 3975              	.LVL464:
 3976              	.L369:
 3977              		.cfi_restore_state
 3978              		.loc 1 615 0
 3979 0260 BBF1200F 		cmp	fp, #32
 3980 0264 0FD8     		bhi	.L371
 3981              		.loc 1 617 0
 3982 0266 089A     		ldr	r2, [sp, #32]
 3983 0268 069B     		ldr	r3, [sp, #24]
 3984              	.LVL465:
 3985 026a 22FA03F3 		lsr	r3, r2, r3
 3986 026e DB07     		lsls	r3, r3, #31
 3987 0270 05D5     		bpl	.L436
 3988              		.loc 1 619 0
 3989 0272 4FF0FF33 		mov	r3, #-1
 3990 0276 03FA0BF3 		lsl	r3, r3, fp
ARM GAS  /tmp/cc2f1tkm.s 			page 71


 3991 027a 1343     		orrs	r3, r3, r2
 3992 027c 0893     		str	r3, [sp, #32]
 3993              	.L436:
 3994              		.loc 1 656 0 discriminator 1
 3995 027e 149A     		ldr	r2, [sp, #80]
 3996 0280 089B     		ldr	r3, [sp, #32]
 3997 0282 1360     		str	r3, [r2]
 3998 0284 85E7     		b	.L426
 3999              	.LVL466:
 4000              	.L371:
 4001              		.loc 1 622 0
 4002 0286 BBF1400F 		cmp	fp, #64
 4003 028a 37D0     		beq	.L401
 4004              		.loc 1 624 0
 4005 028c DDE90889 		ldrd	r8, [sp, #32]
 4006 0290 069B     		ldr	r3, [sp, #24]
 4007              	.LVL467:
 4008 0292 C3F12006 		rsb	r6, r3, #32
 4009 0296 28FA03F4 		lsr	r4, r8, r3
 4010 029a 09FA06F6 		lsl	r6, r9, r6
 4011 029e ABF12101 		sub	r1, fp, #33
 4012 02a2 3443     		orrs	r4, r4, r6
 4013 02a4 29FA01F1 		lsr	r1, r9, r1
 4014 02a8 0C43     		orrs	r4, r4, r1
 4015 02aa 04F00102 		and	r2, r4, #1
 4016 02ae 0023     		movs	r3, #0
 4017 02b0 1343     		orrs	r3, r2, r3
 4018 02b2 3FF47DAF 		beq	.L376
 4019              		.loc 1 626 0
 4020 02b6 0121     		movs	r1, #1
 4021 02b8 ABF12007 		sub	r7, fp, #32
 4022 02bc CBF12006 		rsb	r6, fp, #32
 4023 02c0 01FA07F3 		lsl	r3, r1, r7
 4024 02c4 21FA06F6 		lsr	r6, r1, r6
 4025 02c8 01FA0BF2 		lsl	r2, r1, fp
 4026 02cc 5242     		rsbs	r2, r2, #0
 4027 02ce 43EA0603 		orr	r3, r3, r6
 4028 02d2 63EB4303 		sbc	r3, r3, r3, lsl #1
 4029 02d6 48EA0204 		orr	r4, r8, r2
 4030 02da 49EA0305 		orr	r5, r9, r3
 4031 02de CDE90845 		strd	r4, [sp, #32]
 4032 02e2 65E7     		b	.L376
 4033              	.LVL468:
 4034              	.L392:
 4035              		.loc 1 517 0
 4036 02e4 6FF00100 		mvn	r0, #1
 4037              	.LVL469:
 4038 02e8 53E7     		b	.L426
 4039              	.LVL470:
 4040              	.L444:
 4041              	.LBB570:
 4042              	.LBB563:
 4043              		.loc 1 1454 0
 4044 02ea 039A     		ldr	r2, [sp, #12]
 4045 02ec 2146     		mov	r1, r4
 4046 02ee 9068     		ldr	r0, [r2, #8]
 4047              	.LVL471:
ARM GAS  /tmp/cc2f1tkm.s 			page 72


 4048 02f0 0093     		str	r3, [sp]
 4049 02f2 049A     		ldr	r2, [sp, #16]
 4050 02f4 08AB     		add	r3, sp, #32
 4051 02f6 FFF7FEFF 		bl	copyBitArray
 4052              	.LVL472:
 4053 02fa FCE6     		b	.L356
 4054              	.LVL473:
 4055              	.L401:
 4056              	.LBE563:
 4057              	.LBE570:
 4058              		.loc 1 632 0
 4059 02fc 6FF00800 		mvn	r0, #8
 4060 0300 47E7     		b	.L426
 4061              	.LVL474:
 4062              	.L445:
 4063              	.LBB571:
 4064              	.LBB564:
 4065              	.LBB557:
 4066              		.loc 1 1435 0
 4067 0302 1846     		mov	r0, r3
 4068              	.LVL475:
 4069              		.loc 1 1384 0
 4070 0304 0296     		str	r6, [sp, #8]
 4071              		.loc 1 1385 0
 4072 0306 DDF81080 		ldr	r8, [sp, #16]
 4073              		.loc 1 1402 0
 4074 030a 3027     		movs	r7, #48
 4075 030c 35E7     		b	.L386
 4076              	.LBE557:
 4077              	.LBE564:
 4078              	.LBE571:
 4079              		.cfi_endproc
 4080              	.LFE10:
 4081              		.size	canardDecodeScalar, .-canardDecodeScalar
 4082 030e 00BF     		.section	.text.canardEncodeScalar,"ax",%progbits
 4083              		.align	1
 4084              		.p2align 4,,15
 4085              		.global	canardEncodeScalar
 4086              		.syntax unified
 4087              		.thumb
 4088              		.thumb_func
 4089              		.fpu fpv4-sp-d16
 4090              		.type	canardEncodeScalar, %function
 4091              	canardEncodeScalar:
 4092              	.LFB11:
 4093              		.loc 1 674 0
 4094              		.cfi_startproc
 4095              		@ args = 0, pretend = 0, frame = 8
 4096              		@ frame_needed = 0, uses_anonymous_args = 0
 4097              	.LVL476:
 4098 0000 2DE9F043 		push	{r4, r5, r6, r7, r8, r9, lr}
 4099              		.cfi_def_cfa_offset 28
 4100              		.cfi_offset 4, -28
 4101              		.cfi_offset 5, -24
 4102              		.cfi_offset 6, -20
 4103              		.cfi_offset 7, -16
 4104              		.cfi_offset 8, -12
ARM GAS  /tmp/cc2f1tkm.s 			page 73


 4105              		.cfi_offset 9, -8
 4106              		.cfi_offset 14, -4
 4107              		.loc 1 683 0
 4108 0004 402A     		cmp	r2, #64
 4109              		.loc 1 674 0
 4110 0006 85B0     		sub	sp, sp, #20
 4111              		.cfi_def_cfa_offset 48
 4112              		.loc 1 674 0
 4113 0008 0646     		mov	r6, r0
 4114              		.loc 1 683 0
 4115 000a 0ED9     		bls	.L463
 4116              	.LVL477:
 4117              		.loc 1 717 0
 4118 000c D3E90023 		ldrd	r2, [r3]
 4119              	.LVL478:
 4120 0010 04A8     		add	r0, sp, #16
 4121              	.LVL479:
 4122 0012 60E90223 		strd	r2, [r0, #-8]!
 4123              	.LVL480:
 4124 0016 4027     		movs	r7, #64
 4125              	.LVL481:
 4126              	.L458:
 4127              		.loc 1 746 0
 4128 0018 0091     		str	r1, [sp]
 4129 001a 3346     		mov	r3, r6
 4130 001c 3A46     		mov	r2, r7
 4131 001e 0021     		movs	r1, #0
 4132              	.LVL482:
 4133 0020 FFF7FEFF 		bl	copyBitArray
 4134              	.LVL483:
 4135              		.loc 1 747 0
 4136 0024 05B0     		add	sp, sp, #20
 4137              		.cfi_remember_state
 4138              		.cfi_def_cfa_offset 28
 4139              		@ sp needed
 4140 0026 BDE8F083 		pop	{r4, r5, r6, r7, r8, r9, pc}
 4141              	.LVL484:
 4142              	.L463:
 4143              		.cfi_restore_state
 4144              		.loc 1 708 0
 4145 002a 02A8     		add	r0, sp, #8
 4146              	.LVL485:
 4147              		.loc 1 689 0
 4148 002c 7AB9     		cbnz	r2, .L450
 4149              	.LVL486:
 4150              		.loc 1 708 0
 4151 002e 0292     		str	r2, [sp, #8]
 4152 0030 4260     		str	r2, [r0, #4]
 4153              	.LVL487:
 4154              	.L451:
 4155              		.loc 1 713 0 discriminator 1
 4156 0032 1B78     		ldrb	r3, [r3]	@ zero_extendqisi2
 4157              	.LVL488:
 4158 0034 8DF80830 		strb	r3, [sp, #8]
 4159              	.LVL489:
 4160 0038 0725     		movs	r5, #7
 4161 003a 0127     		movs	r7, #1
ARM GAS  /tmp/cc2f1tkm.s 			page 74


 4162 003c 0023     		movs	r3, #0
 4163              	.L453:
 4164              		.loc 1 740 0
 4165 003e 04AA     		add	r2, sp, #16
 4166 0040 1344     		add	r3, r3, r2
 4167 0042 13F8084C 		ldrb	r4, [r3, #-8]	@ zero_extendqisi2
 4168 0046 AC40     		lsls	r4, r4, r5
 4169 0048 03F8084C 		strb	r4, [r3, #-8]
 4170 004c E4E7     		b	.L458
 4171              	.LVL490:
 4172              	.L450:
 4173              		.loc 1 708 0
 4174 004e 0024     		movs	r4, #0
 4175              		.loc 1 713 0
 4176 0050 012A     		cmp	r2, #1
 4177              		.loc 1 708 0
 4178 0052 0294     		str	r4, [sp, #8]
 4179 0054 4460     		str	r4, [r0, #4]
 4180              	.LVL491:
 4181              		.loc 1 713 0
 4182 0056 ECD0     		beq	.L451
 4183              		.loc 1 714 0
 4184 0058 082A     		cmp	r2, #8
 4185 005a 02F00704 		and	r4, r2, #7
 4186 005e 1746     		mov	r7, r2
 4187 0060 09D8     		bhi	.L454
 4188              	.LVL492:
 4189              		.loc 1 714 0 is_stmt 0 discriminator 1
 4190 0062 1B78     		ldrb	r3, [r3]	@ zero_extendqisi2
 4191              	.LVL493:
 4192 0064 8DF80830 		strb	r3, [sp, #8]
 4193              	.LVL494:
 4194              	.L455:
 4195              		.loc 1 737 0 is_stmt 1
 4196 0068 002C     		cmp	r4, #0
 4197 006a D5D0     		beq	.L458
 4198 006c 5442     		negs	r4, r2
 4199 006e 04F00705 		and	r5, r4, #7
 4200 0072 D308     		lsrs	r3, r2, #3
 4201 0074 E3E7     		b	.L453
 4202              	.LVL495:
 4203              	.L454:
 4204              		.loc 1 715 0
 4205 0076 102A     		cmp	r2, #16
 4206 0078 03D8     		bhi	.L456
 4207              	.LVL496:
 4208              		.loc 1 715 0 is_stmt 0 discriminator 1
 4209 007a 1B88     		ldrh	r3, [r3]
 4210              	.LVL497:
 4211 007c ADF80830 		strh	r3, [sp, #8]	@ movhi
 4212 0080 F2E7     		b	.L455
 4213              	.LVL498:
 4214              	.L456:
 4215              		.loc 1 716 0 is_stmt 1
 4216 0082 202A     		cmp	r2, #32
 4217 0084 04D9     		bls	.L464
 4218              	.LVL499:
ARM GAS  /tmp/cc2f1tkm.s 			page 75


 4219              		.loc 1 717 0 discriminator 1
 4220 0086 D3E90089 		ldrd	r8, [r3]
 4221 008a CDE90289 		strd	r8, [sp, #8]
 4222 008e EBE7     		b	.L455
 4223              	.LVL500:
 4224              	.L464:
 4225              		.loc 1 716 0 discriminator 1
 4226 0090 1B68     		ldr	r3, [r3]
 4227              	.LVL501:
 4228 0092 0293     		str	r3, [sp, #8]
 4229 0094 E8E7     		b	.L455
 4230              		.cfi_endproc
 4231              	.LFE11:
 4232              		.size	canardEncodeScalar, .-canardEncodeScalar
 4233 0096 00BF     		.section	.text.canardReleaseRxTransferPayload,"ax",%progbits
 4234              		.align	1
 4235              		.p2align 4,,15
 4236              		.global	canardReleaseRxTransferPayload
 4237              		.syntax unified
 4238              		.thumb
 4239              		.thumb_func
 4240              		.fpu fpv4-sp-d16
 4241              		.type	canardReleaseRxTransferPayload, %function
 4242              	canardReleaseRxTransferPayload:
 4243              	.LFB12:
 4244              		.loc 1 750 0
 4245              		.cfi_startproc
 4246              		@ args = 0, pretend = 0, frame = 0
 4247              		@ frame_needed = 0, uses_anonymous_args = 0
 4248              		@ link register save eliminated.
 4249              	.LVL502:
 4250              		.loc 1 751 0
 4251 0000 CB68     		ldr	r3, [r1, #12]
 4252              		.loc 1 750 0
 4253 0002 30B4     		push	{r4, r5}
 4254              		.cfi_def_cfa_offset 8
 4255              		.cfi_offset 4, -8
 4256              		.cfi_offset 5, -4
 4257              		.loc 1 751 0
 4258 0004 63B1     		cbz	r3, .L466
 4259 0006 428A     		ldrh	r2, [r0, #18]
 4260 0008 C568     		ldr	r5, [r0, #12]
 4261 000a 00E0     		b	.L467
 4262              	.LVL503:
 4263              	.L468:
 4264 000c 2346     		mov	r3, r4
 4265              	.LVL504:
 4266              	.L467:
 4267              	.LBB572:
 4268              		.loc 1 753 0
 4269 000e 1C68     		ldr	r4, [r3]
 4270              	.LVL505:
 4271              	.LBB573:
 4272              	.LBB574:
 4273              		.loc 1 1580 0
 4274 0010 1D60     		str	r5, [r3]
 4275              		.loc 1 1584 0
ARM GAS  /tmp/cc2f1tkm.s 			page 76


 4276 0012 013A     		subs	r2, r2, #1
 4277 0014 92B2     		uxth	r2, r2
 4278              	.LVL506:
 4279              		.loc 1 1581 0
 4280 0016 C360     		str	r3, [r0, #12]
 4281 0018 1D46     		mov	r5, r3
 4282              	.LBE574:
 4283              	.LBE573:
 4284              	.LBE572:
 4285              		.loc 1 751 0
 4286 001a 002C     		cmp	r4, #0
 4287 001c F6D1     		bne	.L468
 4288 001e 4282     		strh	r2, [r0, #18]	@ movhi
 4289              	.LVL507:
 4290              	.L466:
 4291              		.loc 1 758 0
 4292 0020 0023     		movs	r3, #0
 4293              		.loc 1 759 0
 4294 0022 C1E90233 		strd	r3, r3, [r1, #8]
 4295              		.loc 1 760 0
 4296 0026 0B61     		str	r3, [r1, #16]
 4297              		.loc 1 761 0
 4298 0028 8B82     		strh	r3, [r1, #20]	@ movhi
 4299              		.loc 1 762 0
 4300 002a 30BC     		pop	{r4, r5}
 4301              		.cfi_restore 5
 4302              		.cfi_restore 4
 4303              		.cfi_def_cfa_offset 0
 4304 002c 7047     		bx	lr
 4305              		.cfi_endproc
 4306              	.LFE12:
 4307              		.size	canardReleaseRxTransferPayload, .-canardReleaseRxTransferPayload
 4308 002e 00BF     		.section	.text.canardGetPoolAllocatorStatistics,"ax",%progbits
 4309              		.align	1
 4310              		.p2align 4,,15
 4311              		.global	canardGetPoolAllocatorStatistics
 4312              		.syntax unified
 4313              		.thumb
 4314              		.thumb_func
 4315              		.fpu fpv4-sp-d16
 4316              		.type	canardGetPoolAllocatorStatistics, %function
 4317              	canardGetPoolAllocatorStatistics:
 4318              	.LFB13:
 4319              		.loc 1 765 0
 4320              		.cfi_startproc
 4321              		@ args = 0, pretend = 0, frame = 0
 4322              		@ frame_needed = 0, uses_anonymous_args = 0
 4323              		@ link register save eliminated.
 4324              	.LVL508:
 4325              		.loc 1 765 0
 4326 0000 0346     		mov	r3, r0
 4327              		.loc 1 766 0
 4328 0002 8A8A     		ldrh	r2, [r1, #20]	@ unaligned
 4329 0004 0869     		ldr	r0, [r1, #16]
 4330              	.LVL509:
 4331 0006 1860     		str	r0, [r3]	@ unaligned
 4332 0008 9A80     		strh	r2, [r3, #4]	@ unaligned
ARM GAS  /tmp/cc2f1tkm.s 			page 77


 4333              		.loc 1 767 0
 4334 000a 1846     		mov	r0, r3
 4335 000c 7047     		bx	lr
 4336              		.cfi_endproc
 4337              	.LFE13:
 4338              		.size	canardGetPoolAllocatorStatistics, .-canardGetPoolAllocatorStatistics
 4339 000e 00BF     		.section	.text.canardConvertNativeFloatToFloat16,"ax",%progbits
 4340              		.align	1
 4341              		.p2align 4,,15
 4342              		.global	canardConvertNativeFloatToFloat16
 4343              		.syntax unified
 4344              		.thumb
 4345              		.thumb_func
 4346              		.fpu fpv4-sp-d16
 4347              		.type	canardConvertNativeFloatToFloat16, %function
 4348              	canardConvertNativeFloatToFloat16:
 4349              	.LFB14:
 4350              		.loc 1 770 0
 4351              		.cfi_startproc
 4352              		@ args = 0, pretend = 0, frame = 0
 4353              		@ frame_needed = 0, uses_anonymous_args = 0
 4354              		@ link register save eliminated.
 4355              	.LVL510:
 4356              		.loc 1 787 0
 4357 0000 10EE103A 		vmov	r3, s0	@ int
 4358              	.LVL511:
 4359              		.loc 1 788 0
 4360 0004 23F00042 		bic	r2, r3, #-2147483648
 4361              	.LVL512:
 4362              		.loc 1 792 0
 4363 0008 B2F1FF4F 		cmp	r2, #2139095040
 4364 000c 0AD3     		bcc	.L475
 4365              		.loc 1 808 0
 4366 000e 4FEA1343 		lsr	r3, r3, #16
 4367              		.loc 1 794 0
 4368 0012 47F6FF70 		movw	r0, #32767
 4369              		.loc 1 808 0
 4370 0016 03F40043 		and	r3, r3, #32768
 4371              		.loc 1 794 0
 4372 001a 08BF     		it	eq
 4373 001c 4FF4F840 		moveq	r0, #31744
 4374              	.LVL513:
 4375              		.loc 1 811 0
 4376 0020 1843     		orrs	r0, r0, r3
 4377              	.LVL514:
 4378 0022 7047     		bx	lr
 4379              	.LVL515:
 4380              	.L475:
 4381              		.loc 1 798 0
 4382 0024 0B48     		ldr	r0, .L480
 4383              		.loc 1 799 0
 4384 0026 DFED0C7A 		vldr.32	s15, .L480+4
 4385              		.loc 1 798 0
 4386 002a 1840     		ands	r0, r0, r3
 4387              		.loc 1 799 0
 4388 002c 07EE100A 		vmov	s14, r0
 4389 0030 67EE277A 		vmul.f32	s15, s14, s15
ARM GAS  /tmp/cc2f1tkm.s 			page 78


 4390              		.loc 1 808 0
 4391 0034 1B0C     		lsrs	r3, r3, #16
 4392              		.loc 1 799 0
 4393 0036 17EE900A 		vmov	r0, s15
 4394              		.loc 1 800 0
 4395 003a 00F58050 		add	r0, r0, #4096
 4396              	.LVL516:
 4397              		.loc 1 801 0
 4398 003e B0F1786F 		cmp	r0, #260046848
 4399 0042 94BF     		ite	ls
 4400 0044 C0F34F30 		ubfxls	r0, r0, #13, #16
 4401              	.LVL517:
 4402 0048 4FF4F840 		movhi	r0, #31744
 4403              	.LVL518:
 4404              		.loc 1 808 0
 4405 004c 03F40043 		and	r3, r3, #32768
 4406              		.loc 1 811 0
 4407 0050 1843     		orrs	r0, r0, r3
 4408              	.LVL519:
 4409 0052 7047     		bx	lr
 4410              	.L481:
 4411              		.align	2
 4412              	.L480:
 4413 0054 00F0FF7F 		.word	2147479552
 4414 0058 00008007 		.word	125829120
 4415              		.cfi_endproc
 4416              	.LFE14:
 4417              		.size	canardConvertNativeFloatToFloat16, .-canardConvertNativeFloatToFloat16
 4418              		.section	.text.canardConvertFloat16ToNativeFloat,"ax",%progbits
 4419              		.align	1
 4420              		.p2align 4,,15
 4421              		.global	canardConvertFloat16ToNativeFloat
 4422              		.syntax unified
 4423              		.thumb
 4424              		.thumb_func
 4425              		.fpu fpv4-sp-d16
 4426              		.type	canardConvertFloat16ToNativeFloat, %function
 4427              	canardConvertFloat16ToNativeFloat:
 4428              	.LFB15:
 4429              		.loc 1 814 0
 4430              		.cfi_startproc
 4431              		@ args = 0, pretend = 0, frame = 0
 4432              		@ frame_needed = 0, uses_anonymous_args = 0
 4433              		@ link register save eliminated.
 4434              	.LVL520:
 4435              		.loc 1 827 0
 4436 0000 0D4B     		ldr	r3, .L486
 4437              		.loc 1 828 0
 4438 0002 DFED0E7A 		vldr.32	s15, .L486+4
 4439              		.loc 1 829 0
 4440 0006 9FED0E7A 		vldr.32	s14, .L486+8
 4441              	.LVL521:
 4442              		.loc 1 827 0
 4443 000a 03EA4033 		and	r3, r3, r0, lsl #13
 4444              		.loc 1 828 0
 4445 000e 06EE903A 		vmov	s13, r3
 4446 0012 66EEA77A 		vmul.f32	s15, s13, s15
ARM GAS  /tmp/cc2f1tkm.s 			page 79


 4447              	.LVL522:
 4448              		.loc 1 833 0
 4449 0016 0004     		lsls	r0, r0, #16
 4450              	.LVL523:
 4451 0018 17EE903A 		vmov	r3, s15	@ int
 4452              		.loc 1 829 0
 4453 001c F4EEC77A 		vcmpe.f32	s15, s14
 4454 0020 F1EE10FA 		vmrs	APSR_nzcv, FPSCR
 4455              		.loc 1 831 0
 4456 0024 A8BF     		it	ge
 4457 0026 43F0FF43 		orrge	r3, r3, #2139095040
 4458              	.LVL524:
 4459              		.loc 1 833 0
 4460 002a 00F00040 		and	r0, r0, #-2147483648
 4461              		.loc 1 835 0
 4462 002e 1843     		orrs	r0, r0, r3
 4463              		.loc 1 836 0
 4464 0030 00EE100A 		vmov	s0, r0
 4465 0034 7047     		bx	lr
 4466              	.L487:
 4467 0036 00BF     		.align	2
 4468              	.L486:
 4469 0038 00E0FF0F 		.word	268427264
 4470 003c 00008077 		.word	2004877312
 4471 0040 00008047 		.word	1199570944
 4472              		.cfi_endproc
 4473              	.LFE15:
 4474              		.size	canardConvertFloat16ToNativeFloat, .-canardConvertFloat16ToNativeFloat
 4475              		.text
 4476              	.Letext0:
 4477              		.file 2 "/usr/arm-none-eabi/include/machine/_default_types.h"
 4478              		.file 3 "/usr/arm-none-eabi/include/sys/_stdint.h"
 4479              		.file 4 "/usr/lib/gcc/arm-none-eabi/7.3.1/include/stddef.h"
 4480              		.file 5 "libcanard/canard.h"
 4481              		.file 6 "/usr/arm-none-eabi/include/sys/lock.h"
 4482              		.file 7 "/usr/arm-none-eabi/include/sys/_types.h"
 4483              		.file 8 "/usr/arm-none-eabi/include/sys/reent.h"
 4484              		.file 9 "<built-in>"