ARM GAS  /tmp/cclkPJWb.s 			page 1


   1              		.cpu cortex-m4
   2              		.eabi_attribute 27, 1
   3              		.eabi_attribute 28, 1
   4              		.eabi_attribute 20, 1
   5              		.eabi_attribute 21, 1
   6              		.eabi_attribute 23, 3
   7              		.eabi_attribute 24, 1
   8              		.eabi_attribute 25, 1
   9              		.eabi_attribute 26, 1
  10              		.eabi_attribute 30, 2
  11              		.eabi_attribute 34, 1
  12              		.eabi_attribute 18, 4
  13              		.file	"canard_driver.c"
  14              		.text
  15              	.Ltext0:
  16              		.cfi_sections	.debug_frame
  17              		.section	.text.shouldAcceptTransfer,"ax",%progbits
  18              		.align	1
  19              		.p2align 4,,15
  20              		.syntax unified
  21              		.thumb
  22              		.thumb_func
  23              		.fpu fpv4-sp-d16
  24              		.type	shouldAcceptTransfer, %function
  25              	shouldAcceptTransfer:
  26              	.LFB279:
  27              		.file 1 "libcanard/canard_driver.c"
  28              		.loc 1 1042 0
  29              		.cfi_startproc
  30              		@ args = 4, pretend = 0, frame = 0
  31              		@ frame_needed = 0, uses_anonymous_args = 0
  32              	.LVL0:
  33 0000 70B5     		push	{r4, r5, r6, lr}
  34              		.cfi_def_cfa_offset 16
  35              		.cfi_offset 4, -16
  36              		.cfi_offset 5, -12
  37              		.cfi_offset 6, -8
  38              		.cfi_offset 14, -4
  39              		.loc 1 1046 0
  40 0002 4148     		ldr	r0, .L22+64
  41              	.LVL1:
  42              		.loc 1 1042 0
  43 0004 9DF81060 		ldrb	r6, [sp, #16]	@ zero_extendqisi2
  44              		.loc 1 1046 0
  45 0008 0068     		ldr	r0, [r0]
  46 000a 0428     		cmp	r0, #4
  47              		.loc 1 1042 0
  48 000c 0D46     		mov	r5, r1
  49 000e 1446     		mov	r4, r2
  50              		.loc 1 1046 0
  51 0010 1ED0     		beq	.L17
  52              		.loc 1 1066 0
  53 0012 282C     		cmp	r4, #40
  54 0014 24D0     		beq	.L4
  55              	.LVL2:
  56              	.L21:
  57 0016 13D9     		bls	.L18
ARM GAS  /tmp/cclkPJWb.s 			page 2


  58 0018 40F20643 		movw	r3, #1030
  59 001c 9C42     		cmp	r4, r3
  60 001e 4BD0     		beq	.L9
  61 0020 33D9     		bls	.L19
  62 0022 40F20743 		movw	r3, #1031
  63 0026 9C42     		cmp	r4, r3
  64 0028 28D0     		beq	.L12
  65 002a 40F20A43 		movw	r3, #1034
  66 002e 9C42     		cmp	r4, r3
  67 0030 0CD1     		bne	.L14
  68              		.loc 1 1080 0
  69 0032 25A3     		adr	r3, .L22
  70 0034 D3E90023 		ldrd	r2, [r3]
  71              		.loc 1 1081 0
  72 0038 0120     		movs	r0, #1
  73              		.loc 1 1080 0
  74 003a C5E90023 		strd	r2, [r5]
  75              		.loc 1 1104 0
  76 003e 70BD     		pop	{r4, r5, r6, pc}
  77              	.LVL3:
  78              	.L18:
  79              		.loc 1 1066 0
  80 0040 052C     		cmp	r4, #5
  81 0042 32D0     		beq	.L6
  82 0044 0B2C     		cmp	r4, #11
  83 0046 12D0     		beq	.L7
  84 0048 012C     		cmp	r4, #1
  85 004a 27D0     		beq	.L20
  86              	.L14:
  87              		.loc 1 1103 0
  88 004c 0020     		movs	r0, #0
  89              		.loc 1 1104 0
  90 004e 70BD     		pop	{r4, r5, r6, pc}
  91              	.LVL4:
  92              	.L17:
  93              		.loc 1 1047 0
  94 0050 1A46     		mov	r2, r3
  95              	.LVL5:
  96 0052 3146     		mov	r1, r6
  97              	.LVL6:
  98 0054 2346     		mov	r3, r4
  99              	.LVL7:
 100 0056 2D48     		ldr	r0, .L22+68
 101 0058 FFF7FEFF 		bl	commands_printf
 102              	.LVL8:
 103              		.loc 1 1066 0
 104 005c 282C     		cmp	r4, #40
 105 005e DAD1     		bne	.L21
 106              	.L4:
 107              		.loc 1 1096 0
 108 0060 1BA3     		adr	r3, .L22+8
 109 0062 D3E90023 		ldrd	r2, [r3]
 110              		.loc 1 1097 0
 111 0066 0120     		movs	r0, #1
 112              		.loc 1 1096 0
 113 0068 C5E90023 		strd	r2, [r5]
 114              		.loc 1 1104 0
ARM GAS  /tmp/cclkPJWb.s 			page 3


 115 006c 70BD     		pop	{r4, r5, r6, pc}
 116              	.LVL9:
 117              	.L7:
 118              		.loc 1 1088 0
 119 006e 1AA3     		adr	r3, .L22+16
 120 0070 D3E90023 		ldrd	r2, [r3]
 121              		.loc 1 1089 0
 122 0074 0120     		movs	r0, #1
 123              		.loc 1 1088 0
 124 0076 C5E90023 		strd	r2, [r5]
 125              		.loc 1 1104 0
 126 007a 70BD     		pop	{r4, r5, r6, pc}
 127              	.LVL10:
 128              	.L12:
 129              		.loc 1 1076 0
 130 007c 18A3     		adr	r3, .L22+24
 131 007e D3E90023 		ldrd	r2, [r3]
 132              		.loc 1 1077 0
 133 0082 0120     		movs	r0, #1
 134              		.loc 1 1076 0
 135 0084 C5E90023 		strd	r2, [r5]
 136              		.loc 1 1104 0
 137 0088 70BD     		pop	{r4, r5, r6, pc}
 138              	.LVL11:
 139              	.L19:
 140              		.loc 1 1066 0
 141 008a 302C     		cmp	r4, #48
 142 008c DED1     		bne	.L14
 143              		.loc 1 1092 0
 144 008e 16A3     		adr	r3, .L22+32
 145 0090 D3E90023 		ldrd	r2, [r3]
 146              		.loc 1 1093 0
 147 0094 0120     		movs	r0, #1
 148              		.loc 1 1092 0
 149 0096 C5E90023 		strd	r2, [r5]
 150              		.loc 1 1104 0
 151 009a 70BD     		pop	{r4, r5, r6, pc}
 152              	.LVL12:
 153              	.L20:
 154              		.loc 1 1068 0
 155 009c 14A3     		adr	r3, .L22+40
 156 009e D3E90023 		ldrd	r2, [r3]
 157              		.loc 1 1069 0
 158 00a2 2046     		mov	r0, r4
 159              		.loc 1 1068 0
 160 00a4 C5E90023 		strd	r2, [r5]
 161              		.loc 1 1104 0
 162 00a8 70BD     		pop	{r4, r5, r6, pc}
 163              	.LVL13:
 164              	.L6:
 165              		.loc 1 1084 0
 166 00aa 13A3     		adr	r3, .L22+48
 167 00ac D3E90023 		ldrd	r2, [r3]
 168              		.loc 1 1085 0
 169 00b0 0120     		movs	r0, #1
 170              		.loc 1 1084 0
 171 00b2 C5E90023 		strd	r2, [r5]
ARM GAS  /tmp/cclkPJWb.s 			page 4


 172              		.loc 1 1104 0
 173 00b6 70BD     		pop	{r4, r5, r6, pc}
 174              	.LVL14:
 175              	.L9:
 176              		.loc 1 1072 0
 177 00b8 11A3     		adr	r3, .L22+56
 178 00ba D3E90023 		ldrd	r2, [r3]
 179              		.loc 1 1073 0
 180 00be 0120     		movs	r0, #1
 181              		.loc 1 1072 0
 182 00c0 C5E90023 		strd	r2, [r5]
 183              		.loc 1 1104 0
 184 00c4 70BD     		pop	{r4, r5, r6, pc}
 185              	.LVL15:
 186              	.L23:
 187 00c6 00BF     		.align	3
 188              	.L22:
 189 00c8 54B2FBA2 		.word	-1560563116
 190 00cc AE28AFA9 		.word	-1448138578
 191 00d0 26417272 		.word	1920090406
 192 00d4 DF25D7B7 		.word	-1210636833
 193 00d8 D5A4D139 		.word	970040533
 194 00dc F922B6A7 		.word	-1481235719
 195 00e0 0BE7F71C 		.word	486008587
 196 00e4 629F0FCE 		.word	-837836958
 197 00e8 78F6339F 		.word	-1623984520
 198 00ec 93CACD8D 		.word	-1915893101
 199 00f0 9E6AC421 		.word	566520478
 200 00f4 818A46EE 		.word	-297366911
 201 00f8 F017304A 		.word	1244665840
 202 00fc 39059E56 		.word	1453196601
 203 0100 1D95ECD7 		.word	-672361187
 204 0104 875C7F21 		.word	561994887
 205 0108 00000000 		.word	.LANCHOR0
 206 010c 00000000 		.word	.LC0
 207              		.cfi_endproc
 208              	.LFE279:
 209              		.size	shouldAcceptTransfer, .-shouldAcceptTransfer
 210              		.section	.text.handle_get_node_info,"ax",%progbits
 211              		.align	1
 212              		.p2align 4,,15
 213              		.syntax unified
 214              		.thumb
 215              		.thumb_func
 216              		.fpu fpv4-sp-d16
 217              		.type	handle_get_node_info, %function
 218              	handle_get_node_info:
 219              	.LFB269:
 220              		.loc 1 448 0
 221              		.cfi_startproc
 222              		@ args = 0, pretend = 0, frame = 480
 223              		@ frame_needed = 0, uses_anonymous_args = 0
 224              	.LVL16:
 225              	.LBB98:
 226              	.LBB99:
 227              		.file 2 "ChibiOS_3.0.5/os/rt/include/chvt.h"
 228              		.loc 2 231 0
ARM GAS  /tmp/cclkPJWb.s 			page 5


 229 0000 314B     		ldr	r3, .L28+8
 230              	.LBE99:
 231              	.LBE98:
 232              		.loc 1 452 0
 233 0002 324A     		ldr	r2, .L28+12
 234              	.LBB101:
 235              	.LBB100:
 236              		.loc 2 231 0
 237 0004 9B6A     		ldr	r3, [r3, #40]
 238              	.LBE100:
 239              	.LBE101:
 240              		.loc 1 448 0
 241 0006 2DE9F047 		push	{r4, r5, r6, r7, r8, r9, r10, lr}
 242              		.cfi_def_cfa_offset 32
 243              		.cfi_offset 4, -32
 244              		.cfi_offset 5, -28
 245              		.cfi_offset 6, -24
 246              		.cfi_offset 7, -20
 247              		.cfi_offset 8, -16
 248              		.cfi_offset 9, -12
 249              		.cfi_offset 10, -8
 250              		.cfi_offset 14, -4
 251              		.loc 1 452 0
 252 000a 03F51C53 		add	r3, r3, #9984
 253 000e 304C     		ldr	r4, .L28+16
 254              	.LBB102:
 255              	.LBB103:
 256              		.loc 1 437 0
 257 0010 304D     		ldr	r5, .L28+20
 258              	.LBE103:
 259              	.LBE102:
 260              		.loc 1 476 0
 261 0012 314E     		ldr	r6, .L28+24
 262              		.loc 1 452 0
 263 0014 0F33     		adds	r3, r3, #15
 264 0016 A4FB0343 		umull	r4, r3, r4, r3
 265 001a 5B0B     		lsrs	r3, r3, #13
 266 001c 1360     		str	r3, [r2]
 267              		.loc 1 448 0
 268 001e 0F46     		mov	r7, r1
 269 0020 8146     		mov	r9, r0
 270              		.loc 1 454 0
 271 0022 07CA     		ldm	r2, {r0, r1, r2}
 272              	.LVL17:
 273              		.loc 1 448 0
 274 0024 FEB0     		sub	sp, sp, #504
 275              		.cfi_def_cfa_offset 536
 276              		.loc 1 454 0
 277 0026 0CAC     		add	r4, sp, #48
 278              		.loc 1 460 0
 279 0028 4FF00008 		mov	r8, #0
 280              		.loc 1 454 0
 281 002c 84E80700 		stm	r4, {r0, r1, r2}
 282              		.loc 1 458 0
 283 0030 0723     		movs	r3, #7
 284              		.loc 1 460 0
 285 0032 C4E90538 		strd	r3, r8, [r4, #20]
ARM GAS  /tmp/cclkPJWb.s 			page 6


 286              		.loc 1 455 0
 287 0036 0621     		movs	r1, #6
 288              		.loc 1 456 0
 289 0038 0322     		movs	r2, #3
 290              	.LBB106:
 291              	.LBB104:
 292              		.loc 1 436 0
 293 003a CDF85E80 		str	r8, [sp, #94]	@ unaligned
 294              	.LBE104:
 295              	.LBE106:
 296              		.loc 1 455 0
 297 003e 2182     		strh	r1, [r4, #16]	@ movhi
 298              		.loc 1 456 0
 299 0040 A274     		strb	r2, [r4, #18]
 300              		.loc 1 461 0
 301 0042 C4F81C80 		str	r8, [r4, #28]
 302              	.LVL18:
 303              	.LBB107:
 304              	.LBB105:
 305              		.loc 1 437 0
 306 0046 07CD     		ldmia	r5!, {r0, r1, r2}
 307 0048 CDF85200 		str	r0, [sp, #82]	@ unaligned
 308 004c CDF85610 		str	r1, [sp, #86]	@ unaligned
 309 0050 CDF85A20 		str	r2, [sp, #90]	@ unaligned
 310              	.LVL19:
 311              	.LBE105:
 312              	.LBE107:
 313              		.loc 1 476 0
 314 0054 0FCE     		ldmia	r6!, {r0, r1, r2, r3}
 315 0056 0DF11C0C 		add	ip, sp, #28
 316 005a 6546     		mov	r5, ip
 317 005c 0FC5     		stmia	r5!, {r0, r1, r2, r3}
 318              		.loc 1 480 0
 319 005e 0DF17C0A 		add	r10, sp, #124
 320              		.loc 1 477 0
 321 0062 1122     		movs	r2, #17
 322              		.loc 1 476 0
 323 0064 3368     		ldr	r3, [r6]
 324              		.loc 1 477 0
 325 0066 84F83C20 		strb	r2, [r4, #60]
 326              		.loc 1 480 0
 327 006a 5146     		mov	r1, r10
 328 006c 2046     		mov	r0, r4
 329              		.loc 1 471 0
 330 006e A4F82080 		strh	r8, [r4, #32]	@ movhi
 331              	.LVL20:
 332              		.loc 1 476 0
 333 0072 2B80     		strh	r3, [r5]	@ movhi
 334              		.loc 1 478 0
 335 0074 C4F840C0 		str	ip, [r4, #64]
 336              		.loc 1 480 0
 337 0078 FFF7FEFF 		bl	uavcan_protocol_GetNodeInfoResponse_encode
 338              	.LVL21:
 339              		.loc 1 482 0
 340 007c BA7E     		ldrb	r2, [r7, #26]	@ zero_extendqisi2
 341 007e F97E     		ldrb	r1, [r7, #27]	@ zero_extendqisi2
 342 0080 CDF80C80 		str	r8, [sp, #12]
ARM GAS  /tmp/cclkPJWb.s 			page 7


 343 0084 80B2     		uxth	r0, r0
 344 0086 0123     		movs	r3, #1
 345 0088 1937     		adds	r7, r7, #25
 346              	.LVL22:
 347 008a CDE904A0 		strd	r10, r0, [sp, #16]
 348 008e CDE90172 		strd	r7, r2, [sp, #4]
 349 0092 0093     		str	r3, [sp]
 350 0094 4846     		mov	r0, r9
 351              	.LVL23:
 352 0096 0AA3     		adr	r3, .L28
 353 0098 D3E90023 		ldrd	r2, [r3]
 354 009c FFF7FEFF 		bl	canardRequestOrRespond
 355              	.LVL24:
 356              		.loc 1 491 0
 357 00a0 011E     		subs	r1, r0, #0
 358 00a2 02DD     		ble	.L27
 359              	.L24:
 360              		.loc 1 496 0
 361 00a4 7EB0     		add	sp, sp, #504
 362              		.cfi_remember_state
 363              		.cfi_def_cfa_offset 32
 364              		@ sp needed
 365 00a6 BDE8F087 		pop	{r4, r5, r6, r7, r8, r9, r10, pc}
 366              	.LVL25:
 367              	.L27:
 368              		.cfi_restore_state
 369              		.loc 1 492 0
 370 00aa 0C4B     		ldr	r3, .L28+28
 371 00ac 1B68     		ldr	r3, [r3]
 372 00ae 012B     		cmp	r3, #1
 373 00b0 F8DD     		ble	.L24
 374              		.loc 1 493 0
 375 00b2 0B48     		ldr	r0, .L28+32
 376              	.LVL26:
 377 00b4 FFF7FEFF 		bl	commands_printf
 378              	.LVL27:
 379              		.loc 1 496 0
 380 00b8 7EB0     		add	sp, sp, #504
 381              		.cfi_def_cfa_offset 32
 382              		@ sp needed
 383 00ba BDE8F087 		pop	{r4, r5, r6, r7, r8, r9, r10, pc}
 384              	.LVL28:
 385              	.L29:
 386 00be 00BF     		.align	3
 387              	.L28:
 388 00c0 9E6AC421 		.word	566520478
 389 00c4 818A46EE 		.word	-297366911
 390 00c8 00000000 		.word	ch
 391 00cc 00000000 		.word	.LANCHOR1
 392 00d0 5917B7D1 		.word	-776530087
 393 00d4 107AFF1F 		.word	536836624
 394 00d8 28000000 		.word	.LC1
 395 00dc 00000000 		.word	.LANCHOR0
 396 00e0 00000000 		.word	.LC2
 397              		.cfi_endproc
 398              	.LFE269:
 399              		.size	handle_get_node_info, .-handle_get_node_info
ARM GAS  /tmp/cclkPJWb.s 			page 8


 400              		.section	.text.getParamByName,"ax",%progbits
 401              		.align	1
 402              		.p2align 4,,15
 403              		.syntax unified
 404              		.thumb
 405              		.thumb_func
 406              		.fpu fpv4-sp-d16
 407              		.type	getParamByName, %function
 408              	getParamByName:
 409              	.LFB263:
 410              		.loc 1 295 0
 411              		.cfi_startproc
 412              		@ args = 0, pretend = 0, frame = 0
 413              		@ frame_needed = 0, uses_anonymous_args = 0
 414              	.LVL29:
 415 0000 2DE9F843 		push	{r3, r4, r5, r6, r7, r8, r9, lr}
 416              		.cfi_def_cfa_offset 32
 417              		.cfi_offset 3, -32
 418              		.cfi_offset 4, -28
 419              		.cfi_offset 5, -24
 420              		.cfi_offset 6, -20
 421              		.cfi_offset 7, -16
 422              		.cfi_offset 8, -12
 423              		.cfi_offset 9, -8
 424              		.cfi_offset 14, -4
 425 0004 DFF86480 		ldr	r8, .L41+8
 426 0008 164F     		ldr	r7, .L41
 427              	.LBB108:
 428              		.loc 1 299 0
 429 000a DFF86490 		ldr	r9, .L41+12
 430              	.LBE108:
 431              		.loc 1 295 0
 432 000e 0646     		mov	r6, r0
 433 0010 4446     		mov	r4, r8
 434 0012 0025     		movs	r5, #0
 435              	.LVL30:
 436              	.L35:
 437              	.LBB109:
 438              		.loc 1 298 0
 439 0014 3B68     		ldr	r3, [r7]
 440 0016 2168     		ldr	r1, [r4]
 441 0018 022B     		cmp	r3, #2
 442 001a 0AD0     		beq	.L38
 443              		.loc 1 302 0
 444 001c 3046     		mov	r0, r6
 445 001e FFF7FEFF 		bl	strcmp
 446              	.LVL31:
 447 0022 2834     		adds	r4, r4, #40
 448 0024 88B1     		cbz	r0, .L39
 449              	.LVL32:
 450              	.L32:
 451 0026 0135     		adds	r5, r5, #1
 452              		.loc 1 296 0 discriminator 2
 453 0028 062D     		cmp	r5, #6
 454 002a F3D1     		bne	.L35
 455              	.LBE109:
 456              		.loc 1 310 0
ARM GAS  /tmp/cclkPJWb.s 			page 9


 457 002c 0020     		movs	r0, #0
 458              		.loc 1 311 0
 459 002e BDE8F883 		pop	{r3, r4, r5, r6, r7, r8, r9, pc}
 460              	.LVL33:
 461              	.L38:
 462              	.LBB110:
 463              		.loc 1 299 0
 464 0032 0A46     		mov	r2, r1
 465 0034 4846     		mov	r0, r9
 466 0036 3146     		mov	r1, r6
 467 0038 FFF7FEFF 		bl	commands_printf
 468              	.LVL34:
 469 003c 2168     		ldr	r1, [r4]
 470              		.loc 1 302 0
 471 003e 3046     		mov	r0, r6
 472 0040 FFF7FEFF 		bl	strcmp
 473              	.LVL35:
 474 0044 2834     		adds	r4, r4, #40
 475 0046 0028     		cmp	r0, #0
 476 0048 EDD1     		bne	.L32
 477              	.LVL36:
 478              	.L39:
 479              		.loc 1 304 0
 480 004a 3B68     		ldr	r3, [r7]
 481 004c 022B     		cmp	r3, #2
 482 004e 05D0     		beq	.L40
 483              	.L33:
 484              		.loc 1 307 0
 485 0050 05EB8505 		add	r5, r5, r5, lsl #2
 486 0054 08EBC500 		add	r0, r8, r5, lsl #3
 487              	.LBE110:
 488              		.loc 1 311 0
 489 0058 BDE8F883 		pop	{r3, r4, r5, r6, r7, r8, r9, pc}
 490              	.LVL37:
 491              	.L40:
 492              	.LBB111:
 493              		.loc 1 305 0
 494 005c 0248     		ldr	r0, .L41+4
 495 005e FFF7FEFF 		bl	commands_printf
 496              	.LVL38:
 497 0062 F5E7     		b	.L33
 498              	.L42:
 499              		.align	2
 500              	.L41:
 501 0064 00000000 		.word	.LANCHOR0
 502 0068 18000000 		.word	.LC4
 503 006c 00000000 		.word	.LANCHOR2
 504 0070 00000000 		.word	.LC3
 505              	.LBE111:
 506              		.cfi_endproc
 507              	.LFE263:
 508              		.size	getParamByName, .-getParamByName
 509              		.global	__aeabi_l2f
 510              		.global	__aeabi_f2lz
 511              		.section	.text.handle_param_getset,"ax",%progbits
 512              		.align	1
 513              		.p2align 4,,15
ARM GAS  /tmp/cclkPJWb.s 			page 10


 514              		.syntax unified
 515              		.thumb
 516              		.thumb_func
 517              		.fpu fpv4-sp-d16
 518              		.type	handle_param_getset, %function
 519              	handle_param_getset:
 520              	.LFB273:
 521              		.loc 1 599 0
 522              		.cfi_startproc
 523              		@ args = 0, pretend = 0, frame = 592
 524              		@ frame_needed = 0, uses_anonymous_args = 0
 525              	.LVL39:
 526 0000 2DE9F04F 		push	{r4, r5, r6, r7, r8, r9, r10, fp, lr}
 527              		.cfi_def_cfa_offset 36
 528              		.cfi_offset 4, -36
 529              		.cfi_offset 5, -32
 530              		.cfi_offset 6, -28
 531              		.cfi_offset 7, -24
 532              		.cfi_offset 8, -20
 533              		.cfi_offset 9, -16
 534              		.cfi_offset 10, -12
 535              		.cfi_offset 11, -8
 536              		.cfi_offset 14, -4
 537 0004 ADF51B7D 		sub	sp, sp, #620
 538              		.cfi_def_cfa_offset 656
 539              		.loc 1 599 0
 540 0008 0C46     		mov	r4, r1
 541              		.loc 1 602 0
 542 000a 26AA     		add	r2, sp, #152
 543 000c 0692     		str	r2, [sp, #24]
 544              		.loc 1 599 0
 545 000e 8146     		mov	r9, r0
 546              		.loc 1 603 0
 547 0010 898A     		ldrh	r1, [r1, #20]
 548              	.LVL40:
 549 0012 2046     		mov	r0, r4
 550              	.LVL41:
 551 0014 06AB     		add	r3, sp, #24
 552 0016 0CAA     		add	r2, sp, #48
 553 0018 FFF7FEFF 		bl	uavcan_protocol_param_GetSetRequest_decode
 554              	.LVL42:
 555 001c 0028     		cmp	r0, #0
 556 001e 03DA     		bge	.L80
 557              	.LVL43:
 558              	.L43:
 559              		.loc 1 751 0
 560 0020 0DF51B7D 		add	sp, sp, #620
 561              		.cfi_remember_state
 562              		.cfi_def_cfa_offset 36
 563              		@ sp needed
 564 0024 BDE8F08F 		pop	{r4, r5, r6, r7, r8, r9, r10, fp, pc}
 565              	.LVL44:
 566              	.L80:
 567              		.cfi_restore_state
 568              		.loc 1 609 0
 569 0028 4822     		movs	r2, #72
 570 002a 14A8     		add	r0, sp, #80
ARM GAS  /tmp/cclkPJWb.s 			page 11


 571 002c 0021     		movs	r1, #0
 572 002e FFF7FEFF 		bl	memset
 573              	.LVL45:
 574              		.loc 1 616 0
 575 0032 9DF84820 		ldrb	r2, [sp, #72]	@ zero_extendqisi2
 576 0036 DFF83883 		ldr	r8, .L86+72
 577              		.loc 1 611 0
 578 003a 0023     		movs	r3, #0
 579              		.loc 1 616 0
 580 003c 102A     		cmp	r2, #16
 581              		.loc 1 611 0
 582 003e CDE90733 		strd	r3, r3, [sp, #28]
 583 0042 CDE90933 		strd	r3, r3, [sp, #36]
 584 0046 8DF82C30 		strb	r3, [sp, #44]
 585              	.LVL46:
 586 004a D8F80060 		ldr	r6, [r8]
 587              		.loc 1 616 0
 588 004e 22D9     		bls	.L45
 589              		.loc 1 617 0
 590 0050 012E     		cmp	r6, #1
 591 0052 39DC     		bgt	.L81
 592              	.LVL47:
 593              	.L55:
 594              		.loc 1 736 0
 595 0054 3DAD     		add	r5, sp, #244
 596 0056 2946     		mov	r1, r5
 597 0058 14A8     		add	r0, sp, #80
 598 005a FFF7FEFF 		bl	uavcan_protocol_param_GetSetResponse_encode
 599              	.LVL48:
 600              		.loc 1 738 0
 601 005e A27E     		ldrb	r2, [r4, #26]	@ zero_extendqisi2
 602 0060 E17E     		ldrb	r1, [r4, #27]	@ zero_extendqisi2
 603 0062 0495     		str	r5, [sp, #16]
 604 0064 80B2     		uxth	r0, r0
 605 0066 0B23     		movs	r3, #11
 606 0068 1934     		adds	r4, r4, #25
 607              	.LVL49:
 608 006a 0025     		movs	r5, #0
 609 006c 0590     		str	r0, [sp, #20]
 610 006e CDE90225 		strd	r2, r5, [sp, #8]
 611 0072 CDE90034 		strd	r3, r4, [sp]
 612 0076 4846     		mov	r0, r9
 613              	.LVL50:
 614 0078 BBA3     		adr	r3, .L86+64
 615 007a D3E90023 		ldrd	r2, [r3]
 616 007e FFF7FEFF 		bl	canardRequestOrRespond
 617              	.LVL51:
 618              		.loc 1 748 0
 619 0082 011E     		subs	r1, r0, #0
 620 0084 CCDC     		bgt	.L43
 621              		.loc 1 748 0 is_stmt 0 discriminator 1
 622 0086 D8F80030 		ldr	r3, [r8]
 623 008a 012B     		cmp	r3, #1
 624 008c C8DD     		ble	.L43
 625              		.loc 1 749 0 is_stmt 1
 626 008e A648     		ldr	r0, .L86
 627              	.LVL52:
ARM GAS  /tmp/cclkPJWb.s 			page 12


 628 0090 FFF7FEFF 		bl	commands_printf
 629              	.LVL53:
 630 0094 C4E7     		b	.L43
 631              	.LVL54:
 632              	.L45:
 633              		.loc 1 621 0
 634 0096 531E     		subs	r3, r2, #1
 635 0098 0F2B     		cmp	r3, #15
 636 009a 21D9     		bls	.L82
 637              		.loc 1 628 0
 638 009c 012E     		cmp	r6, #1
 639 009e BDF83070 		ldrh	r7, [sp, #48]
 640 00a2 07DD     		ble	.L52
 641              		.loc 1 629 0
 642 00a4 3946     		mov	r1, r7
 643 00a6 A148     		ldr	r0, .L86+4
 644 00a8 FFF7FEFF 		bl	commands_printf
 645              	.LVL55:
 646 00ac BDF83070 		ldrh	r7, [sp, #48]
 647 00b0 D8F80060 		ldr	r6, [r8]
 648              	.L52:
 649              	.LVL56:
 650              	.LBB117:
 651              	.LBB118:
 652              		.loc 1 276 0
 653 00b4 052F     		cmp	r7, #5
 654 00b6 23D9     		bls	.L53
 655              		.loc 1 278 0
 656 00b8 022E     		cmp	r6, #2
 657 00ba CBD1     		bne	.L55
 658              		.loc 1 279 0
 659 00bc 9C48     		ldr	r0, .L86+8
 660 00be FFF7FEFF 		bl	commands_printf
 661              	.LVL57:
 662              	.L79:
 663 00c2 D8F80030 		ldr	r3, [r8]
 664 00c6 04E0     		b	.L47
 665              	.L81:
 666              	.LBE118:
 667              	.LBE117:
 668              		.loc 1 618 0
 669 00c8 9A48     		ldr	r0, .L86+12
 670 00ca FFF7FEFF 		bl	commands_printf
 671              	.LVL58:
 672 00ce D8F80030 		ldr	r3, [r8]
 673              	.LVL59:
 674              	.L47:
 675              		.loc 1 732 0
 676 00d2 022B     		cmp	r3, #2
 677 00d4 BED1     		bne	.L55
 678              		.loc 1 733 0
 679 00d6 2599     		ldr	r1, [sp, #148]
 680 00d8 9748     		ldr	r0, .L86+16
 681 00da FFF7FEFF 		bl	commands_printf
 682              	.LVL60:
 683 00de B9E7     		b	.L55
 684              	.LVL61:
ARM GAS  /tmp/cclkPJWb.s 			page 13


 685              	.L82:
 686              		.loc 1 622 0
 687 00e0 1399     		ldr	r1, [sp, #76]
 688 00e2 07A8     		add	r0, sp, #28
 689 00e4 FFF7FEFF 		bl	strncpy
 690              	.LVL62:
 691              		.loc 1 623 0
 692 00e8 012E     		cmp	r6, #1
 693 00ea 00F3F380 		bgt	.L83
 694              	.L49:
 695              		.loc 1 626 0
 696 00ee 07A8     		add	r0, sp, #28
 697 00f0 FFF7FEFF 		bl	getParamByName
 698              	.LVL63:
 699              		.loc 1 635 0
 700 00f4 0546     		mov	r5, r0
 701 00f6 0028     		cmp	r0, #0
 702 00f8 E3D0     		beq	.L79
 703 00fa D8F80060 		ldr	r6, [r8]
 704 00fe 07E0     		b	.L51
 705              	.LVL64:
 706              	.L53:
 707              	.LBB121:
 708              	.LBB119:
 709              		.loc 1 283 0
 710 0100 022E     		cmp	r6, #2
 711 0102 00F00881 		beq	.L84
 712              	.LVL65:
 713              	.L56:
 714              		.loc 1 286 0
 715 0106 8D4D     		ldr	r5, .L86+20
 716 0108 07EB8707 		add	r7, r7, r7, lsl #2
 717 010c 05EBC705 		add	r5, r5, r7, lsl #3
 718              	.LVL66:
 719              	.L51:
 720              	.LBE119:
 721              	.LBE121:
 722              		.loc 1 635 0 discriminator 1
 723 0110 012E     		cmp	r6, #1
 724 0112 0DDD     		ble	.L57
 725              	.LBB122:
 726              		.loc 1 636 0
 727 0114 2E68     		ldr	r6, [r5]
 728 0116 3046     		mov	r0, r6
 729 0118 FFF7FEFF 		bl	strlen
 730              	.LVL67:
 731              		.loc 1 637 0
 732 011c D5E902AB 		ldrd	r10, [r5, #8]
 733 0120 2B79     		ldrb	r3, [r5, #4]	@ zero_extendqisi2
 734 0122 C2B2     		uxtb	r2, r0
 735 0124 3146     		mov	r1, r6
 736 0126 CDE900AB 		strd	r10, [sp]
 737 012a 8548     		ldr	r0, .L86+24
 738              	.LVL68:
 739 012c FFF7FEFF 		bl	commands_printf
 740              	.LVL69:
 741              	.L57:
ARM GAS  /tmp/cclkPJWb.s 			page 14


 742              	.LBE122:
 743              		.loc 1 641 0
 744 0130 9DF84830 		ldrb	r3, [sp, #72]	@ zero_extendqisi2
 745 0134 002B     		cmp	r3, #0
 746 0136 3DD0     		beq	.L58
 747              		.loc 1 641 0 is_stmt 0 discriminator 2
 748 0138 9DF83830 		ldrb	r3, [sp, #56]	@ zero_extendqisi2
 749 013c 002B     		cmp	r3, #0
 750 013e 39D0     		beq	.L58
 751              		.loc 1 644 0 is_stmt 1
 752 0140 804F     		ldr	r7, .L86+28
 753 0142 0022     		movs	r2, #0
 754              		.loc 1 646 0
 755 0144 012B     		cmp	r3, #1
 756              		.loc 1 644 0
 757 0146 3A70     		strb	r2, [r7]
 758              		.loc 1 646 0
 759 0148 00F0BB80 		beq	.L85
 760              	.L59:
 761              	.LBB123:
 762              	.LBB124:
 763              		.loc 1 234 0
 764 014c FFF7FEFF 		bl	mempools_alloc_appconf
 765              	.LVL70:
 766 0150 0646     		mov	r6, r0
 767              	.LVL71:
 768              		.loc 1 235 0
 769 0152 FFF7FEFF 		bl	app_get_configuration
 770              	.LVL72:
 771 0156 4FF40E72 		mov	r2, #568
 772 015a 0146     		mov	r1, r0
 773 015c 3046     		mov	r0, r6
 774 015e FFF7FEFF 		bl	memcpy
 775              	.LVL73:
 776              		.loc 1 237 0
 777 0162 7948     		ldr	r0, .L86+32
 778 0164 FFF7FEFF 		bl	getParamByName
 779              	.LVL74:
 780 0168 8368     		ldr	r3, [r0, #8]
 781 016a B376     		strb	r3, [r6, #26]
 782              		.loc 1 238 0
 783 016c 7748     		ldr	r0, .L86+36
 784 016e FFF7FEFF 		bl	getParamByName
 785              	.LVL75:
 786 0172 8368     		ldr	r3, [r0, #8]
 787 0174 3375     		strb	r3, [r6, #20]
 788              		.loc 1 239 0
 789 0176 7648     		ldr	r0, .L86+40
 790 0178 FFF7FEFF 		bl	getParamByName
 791              	.LVL76:
 792 017c 8368     		ldr	r3, [r0, #8]
 793 017e 3361     		str	r3, [r6, #16]
 794              		.loc 1 240 0
 795 0180 7448     		ldr	r0, .L86+44
 796 0182 FFF7FEFF 		bl	getParamByName
 797              	.LVL77:
 798 0186 8368     		ldr	r3, [r0, #8]
ARM GAS  /tmp/cclkPJWb.s 			page 15


 799 0188 3373     		strb	r3, [r6, #12]
 800              		.loc 1 241 0
 801 018a 7348     		ldr	r0, .L86+48
 802 018c FFF7FEFF 		bl	getParamByName
 803              	.LVL78:
 804 0190 8368     		ldr	r3, [r0, #8]
 805 0192 F376     		strb	r3, [r6, #27]
 806              		.loc 1 242 0
 807 0194 7148     		ldr	r0, .L86+52
 808 0196 FFF7FEFF 		bl	getParamByName
 809              	.LVL79:
 810 019a 8368     		ldr	r3, [r0, #8]
 811 019c 3370     		strb	r3, [r6]
 812              		.loc 1 244 0
 813 019e 3046     		mov	r0, r6
 814 01a0 FFF7FEFF 		bl	conf_general_store_app_configuration
 815              	.LVL80:
 816              		.loc 1 245 0
 817 01a4 3046     		mov	r0, r6
 818 01a6 FFF7FEFF 		bl	app_set_configuration
 819              	.LVL81:
 820              		.loc 1 247 0
 821 01aa 3046     		mov	r0, r6
 822 01ac FFF7FEFF 		bl	mempools_free_appconf
 823              	.LVL82:
 824              		.loc 1 249 0
 825 01b0 0123     		movs	r3, #1
 826 01b2 3B70     		strb	r3, [r7]
 827              	.LVL83:
 828              	.L58:
 829              	.LBE124:
 830              	.LBE123:
 831              		.loc 1 682 0
 832 01b4 2B79     		ldrb	r3, [r5, #4]	@ zero_extendqisi2
 833 01b6 013B     		subs	r3, r3, #1
 834 01b8 032B     		cmp	r3, #3
 835 01ba 20D8     		bhi	.L67
 836 01bc DFE803F0 		tbb	[pc, r3]
 837              	.L74:
 838 01c0 45       		.byte	(.L66-.L74)/2
 839 01c1 63       		.byte	(.L68-.L74)/2
 840 01c2 29       		.byte	(.L69-.L74)/2
 841 01c3 02       		.byte	(.L70-.L74)/2
 842              		.p2align 1
 843              	.L70:
 844              		.loc 1 721 0
 845 01c4 D5E90201 		ldrd	r0, [r5, #8]
 846              		.loc 1 717 0
 847 01c8 0223     		movs	r3, #2
 848 01ca 8DF85030 		strb	r3, [sp, #80]
 849              		.loc 1 718 0
 850 01ce 8DF86030 		strb	r3, [sp, #96]
 851              		.loc 1 719 0
 852 01d2 8DF88030 		strb	r3, [sp, #128]
 853              		.loc 1 720 0
 854 01d6 8DF87030 		strb	r3, [sp, #112]
 855              		.loc 1 721 0
ARM GAS  /tmp/cclkPJWb.s 			page 16


 856 01da FFF7FEFF 		bl	__aeabi_l2f
 857              	.LVL84:
 858 01de 1690     		str	r0, [sp, #88]	@ float
 859              		.loc 1 722 0
 860 01e0 D5E90801 		ldrd	r0, [r5, #32]
 861 01e4 FFF7FEFF 		bl	__aeabi_l2f
 862              	.LVL85:
 863 01e8 1A90     		str	r0, [sp, #104]	@ float
 864              		.loc 1 723 0
 865 01ea D5E90401 		ldrd	r0, [r5, #16]
 866 01ee FFF7FEFF 		bl	__aeabi_l2f
 867              	.LVL86:
 868 01f2 2290     		str	r0, [sp, #136]	@ float
 869              		.loc 1 724 0
 870 01f4 D5E90601 		ldrd	r0, [r5, #24]
 871 01f8 FFF7FEFF 		bl	__aeabi_l2f
 872              	.LVL87:
 873 01fc 1E90     		str	r0, [sp, #120]	@ float
 874              	.L67:
 875              		.loc 1 728 0
 876 01fe 2D68     		ldr	r5, [r5]
 877 0200 2846     		mov	r0, r5
 878 0202 FFF7FEFF 		bl	strlen
 879              	.LVL88:
 880 0206 D8F80030 		ldr	r3, [r8]
 881 020a 8DF89000 		strb	r0, [sp, #144]
 882              		.loc 1 729 0
 883 020e 2595     		str	r5, [sp, #148]
 884 0210 5FE7     		b	.L47
 885              	.L69:
 886              		.loc 1 710 0
 887 0212 AB68     		ldr	r3, [r5, #8]
 888              		.loc 1 712 0
 889 0214 2A69     		ldr	r2, [r5, #16]
 890              		.loc 1 711 0
 891 0216 2E6A     		ldr	r6, [r5, #32]
 892              		.loc 1 713 0
 893 0218 A869     		ldr	r0, [r5, #24]
 894              		.loc 1 710 0
 895 021a 9A46     		mov	r10, r3
 896 021c 4FEAE37B 		asr	fp, r3, #31
 897              		.loc 1 712 0
 898 0220 D317     		asrs	r3, r2, #31
 899              		.loc 1 711 0
 900 0222 F717     		asrs	r7, r6, #31
 901              		.loc 1 712 0
 902 0224 CDE92223 		strd	r2, [sp, #136]
 903              		.loc 1 713 0
 904 0228 C117     		asrs	r1, r0, #31
 905              		.loc 1 706 0
 906 022a 0123     		movs	r3, #1
 907              		.loc 1 710 0
 908 022c CDE916AB 		strd	r10, [sp, #88]
 909              		.loc 1 711 0
 910 0230 CDE91A67 		strd	r6, [sp, #104]
 911              		.loc 1 713 0
 912 0234 CDE91E01 		strd	r0, [sp, #120]
ARM GAS  /tmp/cclkPJWb.s 			page 17


 913              		.loc 1 706 0
 914 0238 8DF85030 		strb	r3, [sp, #80]
 915              		.loc 1 707 0
 916 023c 8DF86030 		strb	r3, [sp, #96]
 917              		.loc 1 708 0
 918 0240 8DF88030 		strb	r3, [sp, #128]
 919              		.loc 1 709 0
 920 0244 8DF87030 		strb	r3, [sp, #112]
 921              		.loc 1 714 0
 922 0248 D9E7     		b	.L67
 923              	.L66:
 924              		.loc 1 689 0
 925 024a 95F92020 		ldrsb	r2, [r5, #32]
 926              		.loc 1 688 0
 927 024e 95F90800 		ldrsb	r0, [r5, #8]
 928              		.loc 1 684 0
 929 0252 0123     		movs	r3, #1
 930 0254 8DF85030 		strb	r3, [sp, #80]
 931              		.loc 1 685 0
 932 0258 8DF86030 		strb	r3, [sp, #96]
 933              		.loc 1 686 0
 934 025c 8DF88030 		strb	r3, [sp, #128]
 935              		.loc 1 687 0
 936 0260 8DF87030 		strb	r3, [sp, #112]
 937              		.loc 1 689 0
 938 0264 D317     		asrs	r3, r2, #31
 939 0266 CDE91A23 		strd	r2, [sp, #104]
 940              		.loc 1 690 0
 941 026a 95F91020 		ldrsb	r2, [r5, #16]
 942 026e D317     		asrs	r3, r2, #31
 943 0270 CDE92223 		strd	r2, [sp, #136]
 944              		.loc 1 691 0
 945 0274 95F91820 		ldrsb	r2, [r5, #24]
 946              		.loc 1 688 0
 947 0278 C117     		asrs	r1, r0, #31
 948              		.loc 1 691 0
 949 027a D317     		asrs	r3, r2, #31
 950              		.loc 1 688 0
 951 027c CDE91601 		strd	r0, [sp, #88]
 952              		.loc 1 691 0
 953 0280 CDE91E23 		strd	r2, [sp, #120]
 954              		.loc 1 692 0
 955 0284 BBE7     		b	.L67
 956              	.L68:
 957              		.loc 1 700 0
 958 0286 B5F92020 		ldrsh	r2, [r5, #32]
 959              		.loc 1 699 0
 960 028a B5F90800 		ldrsh	r0, [r5, #8]
 961              		.loc 1 695 0
 962 028e 0123     		movs	r3, #1
 963 0290 8DF85030 		strb	r3, [sp, #80]
 964              		.loc 1 696 0
 965 0294 8DF86030 		strb	r3, [sp, #96]
 966              		.loc 1 697 0
 967 0298 8DF88030 		strb	r3, [sp, #128]
 968              		.loc 1 698 0
 969 029c 8DF87030 		strb	r3, [sp, #112]
ARM GAS  /tmp/cclkPJWb.s 			page 18


 970              		.loc 1 700 0
 971 02a0 D317     		asrs	r3, r2, #31
 972 02a2 CDE91A23 		strd	r2, [sp, #104]
 973              		.loc 1 701 0
 974 02a6 B5F91020 		ldrsh	r2, [r5, #16]
 975 02aa D317     		asrs	r3, r2, #31
 976 02ac CDE92223 		strd	r2, [sp, #136]
 977              		.loc 1 702 0
 978 02b0 B5F91820 		ldrsh	r2, [r5, #24]
 979              		.loc 1 699 0
 980 02b4 C117     		asrs	r1, r0, #31
 981              		.loc 1 702 0
 982 02b6 D317     		asrs	r3, r2, #31
 983              		.loc 1 699 0
 984 02b8 CDE91601 		strd	r0, [sp, #88]
 985              		.loc 1 702 0
 986 02bc CDE91E23 		strd	r2, [sp, #120]
 987              		.loc 1 703 0
 988 02c0 9DE7     		b	.L67
 989              	.L85:
 990              		.loc 1 652 0
 991 02c2 2B79     		ldrb	r3, [r5, #4]	@ zero_extendqisi2
 992 02c4 013B     		subs	r3, r3, #1
 993 02c6 032B     		cmp	r3, #3
 994 02c8 3FF640AF 		bhi	.L59
 995 02cc DFE803F0 		tbb	[pc, r3]
 996              	.L62:
 997 02d0 1D       		.byte	(.L61-.L62)/2
 998 02d1 17       		.byte	(.L63-.L62)/2
 999 02d2 10       		.byte	(.L64-.L62)/2
 1000 02d3 07       		.byte	(.L65-.L62)/2
 1001              	.LVL89:
 1002              		.p2align 1
 1003              	.L83:
 1004              		.loc 1 624 0
 1005 02d4 07A9     		add	r1, sp, #28
 1006 02d6 2248     		ldr	r0, .L86+56
 1007 02d8 FFF7FEFF 		bl	commands_printf
 1008              	.LVL90:
 1009 02dc 07E7     		b	.L49
 1010              	.LVL91:
 1011              	.L65:
 1012              		.loc 1 666 0
 1013 02de DDE91001 		ldrd	r0, [sp, #64]
 1014 02e2 FFF7FEFF 		bl	__aeabi_l2f
 1015              	.LVL92:
 1016 02e6 FFF7FEFF 		bl	__aeabi_f2lz
 1017              	.LVL93:
 1018 02ea C5E90201 		strd	r0, [r5, #8]
 1019              		.loc 1 667 0
 1020 02ee 2DE7     		b	.L59
 1021              	.L64:
 1022              		.loc 1 662 0
 1023 02f0 DDE91023 		ldrd	r2, [sp, #64]
 1024 02f4 0021     		movs	r1, #0
 1025 02f6 1046     		mov	r0, r2
 1026 02f8 C5E90201 		strd	r0, [r5, #8]
ARM GAS  /tmp/cclkPJWb.s 			page 19


 1027              		.loc 1 663 0
 1028 02fc 26E7     		b	.L59
 1029              	.L63:
 1030              		.loc 1 658 0
 1031 02fe BDF84020 		ldrh	r2, [sp, #64]
 1032 0302 0023     		movs	r3, #0
 1033 0304 C5E90223 		strd	r2, [r5, #8]
 1034              		.loc 1 659 0
 1035 0308 20E7     		b	.L59
 1036              	.L61:
 1037              		.loc 1 654 0
 1038 030a 9DF84020 		ldrb	r2, [sp, #64]	@ zero_extendqisi2
 1039 030e 0023     		movs	r3, #0
 1040 0310 C5E90223 		strd	r2, [r5, #8]
 1041              		.loc 1 655 0
 1042 0314 1AE7     		b	.L59
 1043              	.LVL94:
 1044              	.L84:
 1045              	.LBB125:
 1046              	.LBB120:
 1047              		.loc 1 284 0
 1048 0316 0621     		movs	r1, #6
 1049 0318 1248     		ldr	r0, .L86+60
 1050 031a FFF7FEFF 		bl	commands_printf
 1051              	.LVL95:
 1052 031e D8F80060 		ldr	r6, [r8]
 1053 0322 F0E6     		b	.L56
 1054              	.L87:
 1055 0324 AFF30080 		.align	3
 1056              	.L86:
 1057 0328 70010000 		.word	.LC18
 1058 032c 58000000 		.word	.LC7
 1059 0330 7C000000 		.word	.LC8
 1060 0334 00000000 		.word	.LC5
 1061 0338 50010000 		.word	.LC17
 1062 033c 00000000 		.word	.LANCHOR2
 1063 0340 B4000000 		.word	.LC10
 1064 0344 00000000 		.word	.LANCHOR3
 1065 0348 F4000000 		.word	.LC11
 1066 034c 00010000 		.word	.LC12
 1067 0350 10010000 		.word	.LC13
 1068 0354 20010000 		.word	.LC14
 1069 0358 30010000 		.word	.LC15
 1070 035c 40010000 		.word	.LC16
 1071 0360 34000000 		.word	.LC6
 1072 0364 94000000 		.word	.LC9
 1073 0368 D5A4D139 		.word	970040533
 1074 036c F922B6A7 		.word	-1481235719
 1075 0370 00000000 		.word	.LANCHOR0
 1076              	.LBE120:
 1077              	.LBE125:
 1078              		.cfi_endproc
 1079              	.LFE273:
 1080              		.size	handle_param_getset, .-handle_param_getset
 1081              		.section	.text.send_fw_read,"ax",%progbits
 1082              		.align	1
 1083              		.p2align 4,,15
ARM GAS  /tmp/cclkPJWb.s 			page 20


 1084              		.syntax unified
 1085              		.thumb
 1086              		.thumb_func
 1087              		.fpu fpv4-sp-d16
 1088              		.type	send_fw_read, %function
 1089              	send_fw_read:
 1090              	.LFB275:
 1091              		.loc 1 772 0
 1092              		.cfi_startproc
 1093              		@ args = 0, pretend = 0, frame = 208
 1094              		@ frame_needed = 0, uses_anonymous_args = 0
 1095              	.LBB126:
 1096              	.LBB127:
 1097              		.loc 2 231 0
 1098 0000 2D4A     		ldr	r2, .L97+8
 1099              	.LBE127:
 1100              	.LBE126:
 1101              		.loc 1 773 0
 1102 0002 2E4B     		ldr	r3, .L97+12
 1103              		.loc 1 772 0
 1104 0004 2DE9F041 		push	{r4, r5, r6, r7, r8, lr}
 1105              		.cfi_def_cfa_offset 24
 1106              		.cfi_offset 4, -24
 1107              		.cfi_offset 5, -20
 1108              		.cfi_offset 6, -16
 1109              		.cfi_offset 7, -12
 1110              		.cfi_offset 8, -8
 1111              		.cfi_offset 14, -4
 1112              	.LBB129:
 1113              	.LBB128:
 1114              		.loc 2 231 0
 1115 0008 946A     		ldr	r4, [r2, #40]
 1116              	.LBE128:
 1117              	.LBE129:
 1118              		.loc 1 774 0
 1119 000a 2D4D     		ldr	r5, .L97+16
 1120              		.loc 1 773 0
 1121 000c 4FF47A71 		mov	r1, #1000
 1122 0010 42F20F72 		movw	r2, #9999
 1123 0014 01FB0424 		mla	r4, r1, r4, r2
 1124 0018 A3FB0434 		umull	r3, r4, r3, r4
 1125              		.loc 1 774 0
 1126 001c AB68     		ldr	r3, [r5, #8]
 1127              		.loc 1 773 0
 1128 001e 640B     		lsrs	r4, r4, #13
 1129              	.LVL96:
 1130              		.loc 1 774 0
 1131 0020 E31A     		subs	r3, r4, r3
 1132 0022 F92B     		cmp	r3, #249
 1133              		.loc 1 772 0
 1134 0024 BAB0     		sub	sp, sp, #232
 1135              		.cfi_def_cfa_offset 256
 1136              		.loc 1 774 0
 1137 0026 02D8     		bhi	.L96
 1138              		.loc 1 799 0
 1139 0028 3AB0     		add	sp, sp, #232
 1140              		.cfi_remember_state
ARM GAS  /tmp/cclkPJWb.s 			page 21


 1141              		.cfi_def_cfa_offset 24
 1142              		@ sp needed
 1143 002a BDE8F081 		pop	{r4, r5, r6, r7, r8, pc}
 1144              	.LVL97:
 1145              	.L96:
 1146              		.cfi_restore_state
 1147              		.loc 1 781 0
 1148 002e 06AF     		add	r7, sp, #24
 1149 0030 3846     		mov	r0, r7
 1150 0032 2B46     		mov	r3, r5
 1151 0034 2822     		movs	r2, #40
 1152 0036 0021     		movs	r1, #0
 1153              		.loc 1 778 0
 1154 0038 AC60     		str	r4, [r5, #8]
 1155              		.loc 1 781 0
 1156 003a FFF7FEFF 		bl	canardEncodeScalar
 1157              	.LVL98:
 1158              		.loc 1 783 0
 1159 003e 05F10E00 		add	r0, r5, #14
 1160 0042 FFF7FEFF 		bl	strlen
 1161              	.LVL99:
 1162 0046 C0B2     		uxtb	r0, r0
 1163              	.LVL100:
 1164              	.LBB130:
 1165              		.loc 1 784 0
 1166 0048 78B3     		cbz	r0, .L93
 1167 004a 00F1FF38 		add	r8, r0, #-1
 1168 004e 5FFA88F8 		uxtb	r8, r8
 1169 0052 08F10608 		add	r8, r8, #6
 1170 0056 4FEAC808 		lsl	r8, r8, #3
 1171 005a 05F10E06 		add	r6, r5, #14
 1172              	.LBE130:
 1173              		.loc 1 782 0
 1174 005e 2824     		movs	r4, #40
 1175              	.LVL101:
 1176 0060 00E0     		b	.L91
 1177              	.LVL102:
 1178              	.L94:
 1179              	.LBB131:
 1180 0062 1C46     		mov	r4, r3
 1181              	.LVL103:
 1182              	.L91:
 1183              		.loc 1 785 0 discriminator 3
 1184 0064 3346     		mov	r3, r6
 1185 0066 0822     		movs	r2, #8
 1186 0068 2146     		mov	r1, r4
 1187 006a 3846     		mov	r0, r7
 1188 006c FFF7FEFF 		bl	canardEncodeScalar
 1189              	.LVL104:
 1190              		.loc 1 786 0 discriminator 3
 1191 0070 04F10803 		add	r3, r4, #8
 1192              	.LVL105:
 1193              		.loc 1 784 0 discriminator 3
 1194 0074 4345     		cmp	r3, r8
 1195 0076 06F10106 		add	r6, r6, #1
 1196              	.LVL106:
 1197 007a F2D1     		bne	.L94
ARM GAS  /tmp/cclkPJWb.s 			page 22


 1198 007c 0F34     		adds	r4, r4, #15
 1199 007e C4F3CF04 		ubfx	r4, r4, #3, #16
 1200              	.LVL107:
 1201              	.L90:
 1202              	.LBE131:
 1203              		.loc 1 790 0
 1204 0082 104A     		ldr	r2, .L97+20
 1205 0084 0594     		str	r4, [sp, #20]
 1206 0086 0820     		movs	r0, #8
 1207 0088 0124     		movs	r4, #1
 1208 008a 3023     		movs	r3, #48
 1209 008c CDE90120 		strd	r2, r0, [sp, #4]
 1210 0090 0093     		str	r3, [sp]
 1211 0092 297B     		ldrb	r1, [r5, #12]	@ zero_extendqisi2
 1212 0094 0C48     		ldr	r0, .L97+24
 1213 0096 CDE90347 		strd	r4, r7, [sp, #12]
 1214 009a 05A3     		adr	r3, .L97
 1215 009c D3E90023 		ldrd	r2, [r3]
 1216 00a0 FFF7FEFF 		bl	canardRequestOrRespond
 1217              	.LVL108:
 1218              		.loc 1 799 0
 1219 00a4 3AB0     		add	sp, sp, #232
 1220              		.cfi_remember_state
 1221              		.cfi_def_cfa_offset 24
 1222              		@ sp needed
 1223 00a6 BDE8F081 		pop	{r4, r5, r6, r7, r8, pc}
 1224              	.LVL109:
 1225              	.L93:
 1226              		.cfi_restore_state
 1227              	.LBB132:
 1228              		.loc 1 784 0
 1229 00aa 0524     		movs	r4, #5
 1230              	.LVL110:
 1231 00ac E9E7     		b	.L90
 1232              	.L98:
 1233 00ae 00BF     		.align	3
 1234              	.L97:
 1235 00b0 78F6339F 		.word	-1623984520
 1236 00b4 93CACD8D 		.word	-1915893101
 1237 00b8 00000000 		.word	ch
 1238 00bc 5917B7D1 		.word	-776530087
 1239 00c0 00000000 		.word	.LANCHOR4
 1240 00c4 0D000000 		.word	.LANCHOR4+13
 1241 00c8 00000000 		.word	.LANCHOR5
 1242              	.LBE132:
 1243              		.cfi_endproc
 1244              	.LFE275:
 1245              		.size	send_fw_read, .-send_fw_read
 1246              		.section	.text.terminal_debug_on,"ax",%progbits
 1247              		.align	1
 1248              		.p2align 4,,15
 1249              		.syntax unified
 1250              		.thumb
 1251              		.thumb_func
 1252              		.fpu fpv4-sp-d16
 1253              		.type	terminal_debug_on, %function
 1254              	terminal_debug_on:
ARM GAS  /tmp/cclkPJWb.s 			page 23


 1255              	.LFB280:
 1256              		.loc 1 1106 0
 1257              		.cfi_startproc
 1258              		@ args = 0, pretend = 0, frame = 8
 1259              		@ frame_needed = 0, uses_anonymous_args = 0
 1260              	.LVL111:
 1261 0000 00B5     		push	{lr}
 1262              		.cfi_def_cfa_offset 4
 1263              		.cfi_offset 14, -4
 1264              		.loc 1 1107 0
 1265 0002 0228     		cmp	r0, #2
 1266              		.loc 1 1106 0
 1267 0004 83B0     		sub	sp, sp, #12
 1268              		.cfi_def_cfa_offset 16
 1269              		.loc 1 1107 0
 1270 0006 05D0     		beq	.L105
 1271              		.loc 1 1118 0
 1272 0008 0F48     		ldr	r0, .L106
 1273              	.LVL112:
 1274 000a FFF7FEFF 		bl	commands_printf
 1275              	.LVL113:
 1276              		.loc 1 1120 0
 1277 000e 03B0     		add	sp, sp, #12
 1278              		.cfi_remember_state
 1279              		.cfi_def_cfa_offset 4
 1280              		@ sp needed
 1281 0010 5DF804FB 		ldr	pc, [sp], #4
 1282              	.LVL114:
 1283              	.L105:
 1284              		.cfi_restore_state
 1285              	.LBB136:
 1286              	.LBB137:
 1287              		.loc 1 1108 0
 1288 0014 02AA     		add	r2, sp, #8
 1289 0016 4FF0FF33 		mov	r3, #-1
 1290              		.loc 1 1109 0
 1291 001a 4868     		ldr	r0, [r1, #4]
 1292              	.LVL115:
 1293              		.loc 1 1108 0
 1294 001c 42F8043D 		str	r3, [r2, #-4]!
 1295              		.loc 1 1109 0
 1296 0020 0A49     		ldr	r1, .L106+4
 1297              	.LVL116:
 1298 0022 FFF7FEFF 		bl	sscanf
 1299              	.LVL117:
 1300              		.loc 1 1111 0
 1301 0026 0199     		ldr	r1, [sp, #4]
 1302 0028 0029     		cmp	r1, #0
 1303 002a 07DB     		blt	.L101
 1304              		.loc 1 1112 0
 1305 002c 084B     		ldr	r3, .L106+8
 1306              		.loc 1 1113 0
 1307 002e 0948     		ldr	r0, .L106+12
 1308              		.loc 1 1112 0
 1309 0030 1960     		str	r1, [r3]
 1310              		.loc 1 1113 0
 1311 0032 FFF7FEFF 		bl	commands_printf
ARM GAS  /tmp/cclkPJWb.s 			page 24


 1312              	.LVL118:
 1313              	.LBE137:
 1314              	.LBE136:
 1315              		.loc 1 1120 0
 1316 0036 03B0     		add	sp, sp, #12
 1317              		.cfi_remember_state
 1318              		.cfi_def_cfa_offset 4
 1319              		@ sp needed
 1320 0038 5DF804FB 		ldr	pc, [sp], #4
 1321              	.L101:
 1322              		.cfi_restore_state
 1323              	.LBB139:
 1324              	.LBB138:
 1325              		.loc 1 1115 0
 1326 003c 0648     		ldr	r0, .L106+16
 1327 003e FFF7FEFF 		bl	commands_printf
 1328              	.LVL119:
 1329              	.LBE138:
 1330              	.LBE139:
 1331              		.loc 1 1120 0
 1332 0042 03B0     		add	sp, sp, #12
 1333              		.cfi_def_cfa_offset 4
 1334              		@ sp needed
 1335 0044 5DF804FB 		ldr	pc, [sp], #4
 1336              	.L107:
 1337              		.align	2
 1338              	.L106:
 1339 0048 3C000000 		.word	.LC22
 1340 004c 00000000 		.word	.LC19
 1341 0050 00000000 		.word	.LANCHOR0
 1342 0054 04000000 		.word	.LC20
 1343 0058 24000000 		.word	.LC21
 1344              		.cfi_endproc
 1345              	.LFE280:
 1346              		.size	terminal_debug_on, .-terminal_debug_on
 1347              		.global	__aeabi_f2d
 1348              		.global	__aeabi_l2d
 1349              		.section	.text.updateParamByName,"ax",%progbits
 1350              		.align	1
 1351              		.p2align 4,,15
 1352              		.syntax unified
 1353              		.thumb
 1354              		.thumb_func
 1355              		.fpu fpv4-sp-d16
 1356              		.type	updateParamByName, %function
 1357              	updateParamByName:
 1358              	.LFB259:
 1359              		.loc 1 212 0
 1360              		.cfi_startproc
 1361              		@ args = 0, pretend = 0, frame = 0
 1362              		@ frame_needed = 0, uses_anonymous_args = 0
 1363              	.LVL120:
 1364 0000 2DE9F041 		push	{r4, r5, r6, r7, r8, lr}
 1365              		.cfi_def_cfa_offset 24
 1366              		.cfi_offset 4, -24
 1367              		.cfi_offset 5, -20
 1368              		.cfi_offset 6, -16
ARM GAS  /tmp/cclkPJWb.s 			page 25


 1369              		.cfi_offset 7, -12
 1370              		.cfi_offset 8, -8
 1371              		.cfi_offset 14, -4
 1372 0004 2DED028B 		vpush.64	{d8}
 1373              		.cfi_def_cfa_offset 32
 1374              		.cfi_offset 80, -32
 1375              		.cfi_offset 81, -28
 1376 0008 84B0     		sub	sp, sp, #16
 1377              		.cfi_def_cfa_offset 48
 1378              		.loc 1 212 0
 1379 000a B0EE408A 		vmov.f32	s16, s0
 1380 000e 0546     		mov	r5, r0
 1381              	.LVL121:
 1382              		.loc 1 214 0
 1383 0010 FFF7FEFF 		bl	getParamByName
 1384              	.LVL122:
 1385              		.loc 1 215 0
 1386 0014 78B3     		cbz	r0, .L109
 1387              		.loc 1 216 0
 1388 0016 D0E90267 		ldrd	r6, [r0, #8]
 1389 001a 0446     		mov	r4, r0
 1390 001c 3946     		mov	r1, r7
 1391 001e 3046     		mov	r0, r6
 1392              	.LVL123:
 1393 0020 FFF7FEFF 		bl	__aeabi_l2f
 1394              	.LVL124:
 1395 0024 07EE900A 		vmov	s15, r0
 1396 0028 F4EE487A 		vcmp.f32	s15, s16
 1397 002c F1EE10FA 		vmrs	APSR_nzcv, FPSCR
 1398 0030 1CD0     		beq	.L108
 1399              		.loc 1 217 0
 1400 0032 174B     		ldr	r3, .L113
 1401 0034 1B68     		ldr	r3, [r3]
 1402 0036 002B     		cmp	r3, #0
 1403 0038 12DD     		ble	.L111
 1404              		.loc 1 218 0
 1405 003a 18EE100A 		vmov	r0, s16
 1406 003e FFF7FEFF 		bl	__aeabi_f2d
 1407              	.LVL125:
 1408 0042 D4F80080 		ldr	r8, [r4]
 1409 0046 CDE90201 		strd	r0, [sp, #8]
 1410 004a 3046     		mov	r0, r6
 1411 004c 3946     		mov	r1, r7
 1412 004e FFF7FEFF 		bl	__aeabi_l2d
 1413              	.LVL126:
 1414 0052 2A46     		mov	r2, r5
 1415 0054 CDE90001 		strd	r0, [sp]
 1416 0058 4146     		mov	r1, r8
 1417 005a 0E48     		ldr	r0, .L113+4
 1418 005c FFF7FEFF 		bl	commands_printf
 1419              	.LVL127:
 1420              	.L111:
 1421              		.loc 1 220 0
 1422 0060 18EE100A 		vmov	r0, s16
 1423 0064 FFF7FEFF 		bl	__aeabi_f2lz
 1424              	.LVL128:
 1425 0068 C4E90201 		strd	r0, [r4, #8]
ARM GAS  /tmp/cclkPJWb.s 			page 26


 1426              	.LVL129:
 1427              	.L108:
 1428              		.loc 1 227 0
 1429 006c 04B0     		add	sp, sp, #16
 1430              		.cfi_remember_state
 1431              		.cfi_def_cfa_offset 32
 1432              		@ sp needed
 1433 006e BDEC028B 		vldm	sp!, {d8}
 1434              		.cfi_restore 80
 1435              		.cfi_restore 81
 1436              		.cfi_def_cfa_offset 24
 1437              	.LVL130:
 1438 0072 BDE8F081 		pop	{r4, r5, r6, r7, r8, pc}
 1439              	.LVL131:
 1440              	.L109:
 1441              		.cfi_restore_state
 1442              	.LBB142:
 1443              	.LBB143:
 1444              		.loc 1 223 0
 1445 0076 064B     		ldr	r3, .L113
 1446 0078 1B68     		ldr	r3, [r3]
 1447 007a 002B     		cmp	r3, #0
 1448 007c F6DD     		ble	.L108
 1449              		.loc 1 224 0
 1450 007e 0648     		ldr	r0, .L113+8
 1451              	.LVL132:
 1452              	.LBE143:
 1453              	.LBE142:
 1454              		.loc 1 227 0
 1455 0080 04B0     		add	sp, sp, #16
 1456              		.cfi_def_cfa_offset 32
 1457              		@ sp needed
 1458 0082 BDEC028B 		vldm	sp!, {d8}
 1459              		.cfi_restore 80
 1460              		.cfi_restore 81
 1461              		.cfi_def_cfa_offset 24
 1462              	.LVL133:
 1463 0086 BDE8F041 		pop	{r4, r5, r6, r7, r8, lr}
 1464              		.cfi_restore 14
 1465              		.cfi_restore 8
 1466              		.cfi_restore 7
 1467              		.cfi_restore 6
 1468              		.cfi_restore 5
 1469              		.cfi_restore 4
 1470              		.cfi_def_cfa_offset 0
 1471              	.LVL134:
 1472              	.LBB145:
 1473              	.LBB144:
 1474              		.loc 1 224 0
 1475 008a FFF7FEBF 		b	commands_printf
 1476              	.LVL135:
 1477              	.L114:
 1478 008e 00BF     		.align	2
 1479              	.L113:
 1480 0090 00000000 		.word	.LANCHOR0
 1481 0094 00000000 		.word	.LC23
 1482 0098 24000000 		.word	.LC24
ARM GAS  /tmp/cclkPJWb.s 			page 27


 1483              	.LBE144:
 1484              	.LBE145:
 1485              		.cfi_endproc
 1486              	.LFE259:
 1487              		.size	updateParamByName, .-updateParamByName
 1488              		.section	.text.canard_thread,"ax",%progbits
 1489              		.align	1
 1490              		.p2align 4,,15
 1491              		.syntax unified
 1492              		.thumb
 1493              		.thumb_func
 1494              		.fpu fpv4-sp-d16
 1495              		.type	canard_thread, %function
 1496              	canard_thread:
 1497              	.LFB281:
 1498              		.loc 1 1122 0
 1499              		.cfi_startproc
 1500              		@ args = 0, pretend = 0, frame = 56
 1501              		@ frame_needed = 0, uses_anonymous_args = 0
 1502              	.LVL136:
 1503 0000 2DE9F04F 		push	{r4, r5, r6, r7, r8, r9, r10, fp, lr}
 1504              		.cfi_def_cfa_offset 36
 1505              		.cfi_offset 4, -36
 1506              		.cfi_offset 5, -32
 1507              		.cfi_offset 6, -28
 1508              		.cfi_offset 7, -24
 1509              		.cfi_offset 8, -20
 1510              		.cfi_offset 9, -16
 1511              		.cfi_offset 10, -12
 1512              		.cfi_offset 11, -8
 1513              		.cfi_offset 14, -4
 1514              	.LBB207:
 1515              	.LBB208:
 1516              		.file 3 "ChibiOS_3.0.5/os/rt/include/chregistry.h"
 1517              		.loc 3 135 0
 1518 0004 AA4D     		ldr	r5, .L172
 1519              	.LBE208:
 1520              	.LBE207:
 1521              		.loc 1 1126 0
 1522 0006 AB4B     		ldr	r3, .L172+4
 1523              	.LBB211:
 1524              	.LBB209:
 1525              		.loc 3 135 0
 1526 0008 AA69     		ldr	r2, [r5, #24]
 1527 000a AB49     		ldr	r1, .L172+8
 1528              	.LBE209:
 1529              	.LBE211:
 1530              		.loc 1 1126 0
 1531 000c AB48     		ldr	r0, .L172+12
 1532              	.LVL137:
 1533 000e DFF80483 		ldr	r8, .L172+100
 1534              	.LBB212:
 1535              	.LBB213:
 1536              		.loc 1 1157 0
 1537 0012 AB4E     		ldr	r6, .L172+16
 1538              	.LBE213:
 1539              	.LBB216:
ARM GAS  /tmp/cclkPJWb.s 			page 28


 1540              	.LBB217:
 1541              	.LBB218:
 1542              	.LBB219:
 1543              	.LBB220:
 1544              		.loc 1 348 0
 1545 0014 DFF80093 		ldr	r9, .L172+104
 1546              	.LBE220:
 1547              	.LBE219:
 1548              	.LBE218:
 1549              	.LBE217:
 1550              	.LBE216:
 1551              	.LBE212:
 1552              		.loc 1 1122 0
 1553 0018 2DED048B 		vpush.64	{d8, d9}
 1554              		.cfi_def_cfa_offset 52
 1555              		.cfi_offset 80, -52
 1556              		.cfi_offset 81, -48
 1557              		.cfi_offset 82, -44
 1558              		.cfi_offset 83, -40
 1559              		.loc 1 1126 0
 1560 001c 0024     		movs	r4, #0
 1561              		.loc 1 1122 0
 1562 001e 95B0     		sub	sp, sp, #84
 1563              		.cfi_def_cfa_offset 136
 1564              	.LBB298:
 1565              	.LBB210:
 1566              		.loc 3 135 0
 1567 0020 9161     		str	r1, [r2, #24]
 1568              	.LVL138:
 1569              	.LBE210:
 1570              	.LBE298:
 1571              		.loc 1 1126 0
 1572 0022 CDE90034 		strd	r3, r4, [sp]
 1573 0026 A749     		ldr	r1, .L172+20
 1574 0028 A74B     		ldr	r3, .L172+24
 1575 002a 4FF48062 		mov	r2, #1024
 1576 002e FFF7FEFF 		bl	canardInit
 1577              	.LVL139:
 1578              		.loc 1 1130 0
 1579 0032 CDE90644 		strd	r4, r4, [sp, #24]
 1580              		.loc 1 1128 0
 1581 0036 CDE90844 		strd	r4, r4, [sp, #32]
 1582 003a 0EAF     		add	r7, sp, #56
 1583              	.LVL140:
 1584              	.L116:
 1585              	.LBB299:
 1586              		.loc 1 1134 0
 1587 003c FFF7FEFF 		bl	app_get_configuration
 1588              	.LVL141:
 1589              		.loc 1 1136 0
 1590 0040 837E     		ldrb	r3, [r0, #26]	@ zero_extendqisi2
 1591 0042 012B     		cmp	r3, #1
 1592              		.loc 1 1134 0
 1593 0044 0446     		mov	r4, r0
 1594              	.LVL142:
 1595              		.loc 1 1136 0
 1596 0046 09D0     		beq	.L117
ARM GAS  /tmp/cclkPJWb.s 			page 29


 1597              	.L160:
 1598              		.loc 1 1137 0
 1599 0048 4FF47A70 		mov	r0, #1000
 1600              	.LVL143:
 1601 004c FFF7FEFF 		bl	chThdSleep
 1602              	.LVL144:
 1603              		.loc 1 1134 0
 1604 0050 FFF7FEFF 		bl	app_get_configuration
 1605              	.LVL145:
 1606              		.loc 1 1136 0
 1607 0054 837E     		ldrb	r3, [r0, #26]	@ zero_extendqisi2
 1608 0056 012B     		cmp	r3, #1
 1609              		.loc 1 1134 0
 1610 0058 0446     		mov	r4, r0
 1611              	.LVL146:
 1612              		.loc 1 1136 0
 1613 005a F5D1     		bne	.L160
 1614              	.L117:
 1615              		.loc 1 1142 0
 1616 005c 0178     		ldrb	r1, [r0]	@ zero_extendqisi2
 1617 005e 9748     		ldr	r0, .L172+12
 1618              	.LVL147:
 1619              	.LBB232:
 1620              		.loc 1 1157 0
 1621 0060 DFF8ACB2 		ldr	fp, .L172+96
 1622 0064 DFF854A2 		ldr	r10, .L172+12
 1623              	.LBE232:
 1624              		.loc 1 1142 0
 1625 0068 FFF7FEFF 		bl	canardSetLocalNodeID
 1626              	.LVL148:
 1627              		.loc 1 1145 0
 1628 006c 1CE0     		b	.L119
 1629              	.LVL149:
 1630              	.L162:
 1631              	.LBB233:
 1632              		.loc 1 1149 0
 1633 006e 8268     		ldr	r2, [r0, #8]
 1634 0070 C2F31C02 		ubfx	r2, r2, #0, #29
 1635 0074 42F00042 		orr	r2, r2, #-2147483648
 1636 0078 0E92     		str	r2, [sp, #56]
 1637              	.L121:
 1638              		.loc 1 1154 0
 1639 007a C3F30303 		ubfx	r3, r3, #0, #4
 1640              		.loc 1 1155 0
 1641 007e 1A46     		mov	r2, r3
 1642 0080 00F10C01 		add	r1, r0, #12
 1643 0084 0FA8     		add	r0, sp, #60
 1644              	.LVL150:
 1645              		.loc 1 1154 0
 1646 0086 8DF84430 		strb	r3, [sp, #68]
 1647              		.loc 1 1155 0
 1648 008a FFF7FEFF 		bl	memcpy
 1649              	.LVL151:
 1650              	.LBB214:
 1651              	.LBB215:
 1652              		.loc 2 231 0
 1653 008e AA6A     		ldr	r2, [r5, #40]
ARM GAS  /tmp/cclkPJWb.s 			page 30


 1654              	.LBE215:
 1655              	.LBE214:
 1656              		.loc 1 1157 0
 1657 0090 42F20F73 		movw	r3, #9999
 1658 0094 0BFB0232 		mla	r2, fp, r2, r3
 1659 0098 A6FB0232 		umull	r3, r2, r6, r2
 1660 009c 520B     		lsrs	r2, r2, #13
 1661 009e 0023     		movs	r3, #0
 1662 00a0 3946     		mov	r1, r7
 1663 00a2 5046     		mov	r0, r10
 1664 00a4 FFF7FEFF 		bl	canardHandleRxFrame
 1665              	.LVL152:
 1666              	.L119:
 1667              	.LBE233:
 1668              		.loc 1 1145 0
 1669 00a8 FFF7FEFF 		bl	comm_can_get_rx_frame
 1670              	.LVL153:
 1671 00ac 38B1     		cbz	r0, .L161
 1672              	.LBB234:
 1673              		.loc 1 1148 0
 1674 00ae 0379     		ldrb	r3, [r0, #4]	@ zero_extendqisi2
 1675 00b0 9A06     		lsls	r2, r3, #26
 1676 00b2 DCD4     		bmi	.L162
 1677              		.loc 1 1151 0
 1678 00b4 0289     		ldrh	r2, [r0, #8]
 1679 00b6 C2F30A02 		ubfx	r2, r2, #0, #11
 1680 00ba 0E92     		str	r2, [sp, #56]
 1681 00bc DDE7     		b	.L121
 1682              	.L161:
 1683              	.LBE234:
 1684              	.LBB235:
 1685              		.loc 1 1160 0
 1686 00be DFF8FCB1 		ldr	fp, .L172+12
 1687 00c2 06E0     		b	.L123
 1688              	.LVL154:
 1689              	.L124:
 1690              		.loc 1 1161 0
 1691 00c4 027B     		ldrb	r2, [r0, #12]	@ zero_extendqisi2
 1692 00c6 0068     		ldr	r0, [r0]
 1693              	.LVL155:
 1694 00c8 FFF7FEFF 		bl	comm_can_transmit_eid
 1695              	.LVL156:
 1696              		.loc 1 1162 0
 1697 00cc 5846     		mov	r0, fp
 1698 00ce FFF7FEFF 		bl	canardPopTxQueue
 1699              	.LVL157:
 1700              	.L123:
 1701              		.loc 1 1160 0 discriminator 1
 1702 00d2 5846     		mov	r0, fp
 1703 00d4 FFF7FEFF 		bl	canardPeekTxQueue
 1704              	.LVL158:
 1705              		.loc 1 1161 0 discriminator 1
 1706 00d8 011D     		adds	r1, r0, #4
 1707              		.loc 1 1160 0 discriminator 1
 1708 00da 0028     		cmp	r0, #0
 1709 00dc F2D1     		bne	.L124
 1710              	.LVL159:
ARM GAS  /tmp/cclkPJWb.s 			page 31


 1711              	.LBE235:
 1712              	.LBB236:
 1713              	.LBB237:
 1714              	.LBB238:
 1715              	.LBB239:
 1716              		.loc 2 231 0
 1717 00de AB6A     		ldr	r3, [r5, #40]
 1718              	.LVL160:
 1719              	.LBE239:
 1720              	.LBE238:
 1721              		.loc 2 267 0
 1722 00e0 0899     		ldr	r1, [sp, #32]
 1723              	.LBE237:
 1724              	.LBE236:
 1725              		.loc 1 1165 0
 1726 00e2 4FF47A72 		mov	r2, #1000
 1727              	.LBB241:
 1728              	.LBB240:
 1729              		.loc 2 267 0
 1730 00e6 5B1A     		subs	r3, r3, r1
 1731              	.LBE240:
 1732              	.LBE241:
 1733              		.loc 1 1165 0
 1734 00e8 42F20F7B 		movw	fp, #9999
 1735 00ec 02FB03B3 		mla	r3, r2, r3, fp
 1736 00f0 764A     		ldr	r2, .L172+28
 1737 00f2 9342     		cmp	r3, r2
 1738 00f4 8246     		mov	r10, r0
 1739 00f6 00F21381 		bhi	.L163
 1740              	.LVL161:
 1741              	.L125:
 1742              		.loc 1 1171 0
 1743 00fa 2169     		ldr	r1, [r4, #16]
 1744 00fc 99B1     		cbz	r1, .L127
 1745              	.LVL162:
 1746              	.LBB242:
 1747              	.LBB243:
 1748              		.loc 2 267 0
 1749 00fe 0998     		ldr	r0, [sp, #36]
 1750              	.LBB244:
 1751              	.LBB245:
 1752              		.loc 2 231 0
 1753 0100 AB6A     		ldr	r3, [r5, #40]
 1754              	.LVL163:
 1755              	.LBE245:
 1756              	.LBE244:
 1757              	.LBE243:
 1758              	.LBE242:
 1759              		.loc 1 1172 0
 1760 0102 4FF47A72 		mov	r2, #1000
 1761              	.LBB247:
 1762              	.LBB246:
 1763              		.loc 2 267 0
 1764 0106 1B1A     		subs	r3, r3, r0
 1765              	.LBE246:
 1766              	.LBE247:
 1767              		.loc 1 1172 0
ARM GAS  /tmp/cclkPJWb.s 			page 32


 1768 0108 42F20F70 		movw	r0, #9999
 1769 010c 02FB0303 		mla	r3, r2, r3, r0
 1770 0110 A6FB0303 		umull	r0, r3, r6, r3
 1771 0114 B2FBF1F2 		udiv	r2, r2, r1
 1772              		.loc 1 1171 0
 1773 0118 B2EB533F 		cmp	r2, r3, lsr #13
 1774 011c 03D8     		bhi	.L127
 1775              		.loc 1 1172 0
 1776 011e 237B     		ldrb	r3, [r4, #12]	@ zero_extendqisi2
 1777 0120 002B     		cmp	r3, #0
 1778 0122 40F08281 		bne	.L164
 1779              	.LVL164:
 1780              	.L127:
 1781              	.LBB248:
 1782              	.LBB249:
 1783              		.loc 2 267 0
 1784 0126 0799     		ldr	r1, [sp, #28]
 1785              	.LBB250:
 1786              	.LBB251:
 1787              		.loc 2 231 0
 1788 0128 AB6A     		ldr	r3, [r5, #40]
 1789              	.LVL165:
 1790              	.LBE251:
 1791              	.LBE250:
 1792              	.LBE249:
 1793              	.LBE248:
 1794              		.loc 1 1178 0
 1795 012a 694A     		ldr	r2, .L172+32
 1796              	.LBB253:
 1797              	.LBB252:
 1798              		.loc 2 267 0
 1799 012c 5B1A     		subs	r3, r3, r1
 1800              	.LBE252:
 1801              	.LBE253:
 1802              		.loc 1 1178 0
 1803 012e 4FF47A7A 		mov	r10, #1000
 1804              	.LVL166:
 1805 0132 42F20F71 		movw	r1, #9999
 1806 0136 0AFB0313 		mla	r3, r10, r3, r1
 1807 013a 9342     		cmp	r3, r2
 1808 013c 3FD8     		bhi	.L165
 1809              	.LVL167:
 1810              	.L129:
 1811              	.LBB254:
 1812              	.LBB255:
 1813              		.loc 2 267 0
 1814 013e 0699     		ldr	r1, [sp, #24]
 1815              	.LBB256:
 1816              	.LBB257:
 1817              		.loc 2 231 0
 1818 0140 AB6A     		ldr	r3, [r5, #40]
 1819              	.LVL168:
 1820              	.LBE257:
 1821              	.LBE256:
 1822              	.LBE255:
 1823              	.LBE254:
 1824              		.loc 1 1187 0
ARM GAS  /tmp/cclkPJWb.s 			page 33


 1825 0142 634A     		ldr	r2, .L172+32
 1826              	.LBB259:
 1827              	.LBB258:
 1828              		.loc 2 267 0
 1829 0144 5B1A     		subs	r3, r3, r1
 1830              	.LBE258:
 1831              	.LBE259:
 1832              		.loc 1 1187 0
 1833 0146 4FF47A70 		mov	r0, #1000
 1834 014a 42F20F71 		movw	r1, #9999
 1835 014e 00FB0313 		mla	r3, r0, r3, r1
 1836 0152 9342     		cmp	r3, r2
 1837 0154 0BD9     		bls	.L134
 1838              		.loc 1 1189 0
 1839 0156 5F4B     		ldr	r3, .L172+36
 1840              	.LBB260:
 1841              	.LBB261:
 1842              		.loc 2 231 0
 1843 0158 AA6A     		ldr	r2, [r5, #40]
 1844              	.LVL169:
 1845              	.LBE261:
 1846              	.LBE260:
 1847              		.loc 1 1189 0
 1848 015a 1B78     		ldrb	r3, [r3]	@ zero_extendqisi2
 1849              	.LBB263:
 1850              	.LBB262:
 1851              		.loc 2 231 0
 1852 015c 0692     		str	r2, [sp, #24]
 1853              	.LBE262:
 1854              	.LBE263:
 1855              		.loc 1 1189 0
 1856 015e 002B     		cmp	r3, #0
 1857 0160 40F01C81 		bne	.L166
 1858              		.loc 1 1193 0
 1859 0164 5C4B     		ldr	r3, .L172+40
 1860 0166 1B68     		ldr	r3, [r3]
 1861 0168 072B     		cmp	r3, #7
 1862 016a 00F04E81 		beq	.L167
 1863              	.L134:
 1864              	.LVL170:
 1865              	.LBB264:
 1866              	.LBB265:
 1867              		.loc 2 267 0
 1868 016e 5B4A     		ldr	r2, .L172+44
 1869              	.LBB266:
 1870              	.LBB267:
 1871              		.loc 2 231 0
 1872 0170 AB6A     		ldr	r3, [r5, #40]
 1873              	.LVL171:
 1874              	.LBE267:
 1875              	.LBE266:
 1876              		.loc 2 267 0
 1877 0172 1168     		ldr	r1, [r2]
 1878              	.LBE265:
 1879              	.LBE264:
 1880              		.loc 1 1198 0
 1881 0174 5A4A     		ldr	r2, .L172+48
ARM GAS  /tmp/cclkPJWb.s 			page 34


 1882              	.LBB269:
 1883              	.LBB268:
 1884              		.loc 2 267 0
 1885 0176 5B1A     		subs	r3, r3, r1
 1886              	.LBE268:
 1887              	.LBE269:
 1888              		.loc 1 1198 0
 1889 0178 4FF47A70 		mov	r0, #1000
 1890 017c 42F20F71 		movw	r1, #9999
 1891 0180 00FB0313 		mla	r3, r0, r3, r1
 1892 0184 9342     		cmp	r3, r2
 1893 0186 04D9     		bls	.L136
 1894              		.loc 1 1198 0 is_stmt 0 discriminator 1
 1895 0188 564B     		ldr	r3, .L172+52
 1896 018a 1B7B     		ldrb	r3, [r3, #12]	@ zero_extendqisi2
 1897 018c 002B     		cmp	r3, #0
 1898 018e 40F0FF80 		bne	.L168
 1899              	.L136:
 1900              	.LVL172:
 1901              	.LBB270:
 1902              	.LBB271:
 1903              		.loc 2 267 0 is_stmt 1
 1904 0192 554A     		ldr	r2, .L172+56
 1905              	.LBB272:
 1906              	.LBB273:
 1907              		.loc 2 231 0
 1908 0194 AB6A     		ldr	r3, [r5, #40]
 1909              	.LVL173:
 1910              	.LBE273:
 1911              	.LBE272:
 1912              		.loc 2 267 0
 1913 0196 1168     		ldr	r1, [r2]
 1914              	.LBE271:
 1915              	.LBE270:
 1916              		.loc 1 1204 0
 1917 0198 544A     		ldr	r2, .L172+60
 1918              	.LBB275:
 1919              	.LBB274:
 1920              		.loc 2 267 0
 1921 019a 5B1A     		subs	r3, r3, r1
 1922              	.LBE274:
 1923              	.LBE275:
 1924              		.loc 1 1204 0
 1925 019c 4FF47A70 		mov	r0, #1000
 1926 01a0 42F20F71 		movw	r1, #9999
 1927 01a4 00FB0313 		mla	r3, r0, r3, r1
 1928 01a8 9342     		cmp	r3, r2
 1929 01aa 04D9     		bls	.L137
 1930              		.loc 1 1204 0 is_stmt 0 discriminator 1
 1931 01ac 504B     		ldr	r3, .L172+64
 1932 01ae 1B78     		ldrb	r3, [r3]	@ zero_extendqisi2
 1933 01b0 002B     		cmp	r3, #0
 1934 01b2 40F0EA80 		bne	.L169
 1935              	.L137:
 1936              		.loc 1 1208 0 is_stmt 1
 1937 01b6 0A20     		movs	r0, #10
 1938 01b8 FFF7FEFF 		bl	chThdSleep
ARM GAS  /tmp/cclkPJWb.s 			page 35


 1939              	.LVL174:
 1940 01bc 3EE7     		b	.L116
 1941              	.LVL175:
 1942              	.L165:
 1943              	.LBB276:
 1944              	.LBB277:
 1945              		.loc 2 231 0
 1946 01be AB6A     		ldr	r3, [r5, #40]
 1947              	.LVL176:
 1948 01c0 0793     		str	r3, [sp, #28]
 1949              	.LBE277:
 1950              	.LBE276:
 1951              	.LBB278:
 1952              	.LBB231:
 1953              		.loc 1 338 0
 1954 01c2 FFF7FEFF 		bl	mc_interface_get_tot_current
 1955              	.LVL177:
 1956 01c6 B0EE409A 		vmov.f32	s18, s0
 1957              	.LVL178:
 1958              		.loc 1 339 0
 1959 01ca FFF7FEFF 		bl	mc_interface_get_input_voltage_filtered
 1960              	.LVL179:
 1961 01ce 424B     		ldr	r3, .L172+40
 1962 01d0 DFF848B1 		ldr	fp, .L172+108
 1963 01d4 D3F800C0 		ldr	ip, [r3]
 1964              		.loc 1 340 0
 1965 01d8 DFED468A 		vldr.32	s17, .L172+68
 1966              		.loc 1 339 0
 1967 01dc B0EE408A 		vmov.f32	s16, s0
 1968              	.LVL180:
 1969              		.loc 1 342 0
 1970 01e0 0124     		movs	r4, #1
 1971              	.LVL181:
 1972 01e2 6246     		mov	r2, ip
 1973 01e4 0EE0     		b	.L133
 1974              	.LVL182:
 1975              	.L171:
 1976              	.LBB230:
 1977              	.LBB227:
 1978              	.LBB223:
 1979              		.loc 1 349 0
 1980 01e6 002A     		cmp	r2, #0
 1981 01e8 04DD     		ble	.L132
 1982              		.loc 1 350 0
 1983 01ea 4348     		ldr	r0, .L172+72
 1984 01ec FFF7FEFF 		bl	commands_printf
 1985              	.LVL183:
 1986 01f0 394B     		ldr	r3, .L172+40
 1987 01f2 1A68     		ldr	r2, [r3]
 1988              	.L132:
 1989              		.loc 1 352 0
 1990 01f4 4FF0FF33 		mov	r3, #-1
 1991 01f8 CBF80030 		str	r3, [fp]
 1992              	.L130:
 1993 01fc 0BF1240B 		add	fp, fp, #36
 1994              	.LBE223:
 1995              	.LBE227:
ARM GAS  /tmp/cclkPJWb.s 			page 36


 1996              		.loc 1 344 0
 1997 0200 C345     		cmp	fp, r8
 1998 0202 1DD0     		beq	.L170
 1999              	.LVL184:
 2000              	.L133:
 2001              	.LBB228:
 2002              		.loc 1 346 0
 2003 0204 DBF80010 		ldr	r1, [fp]
 2004 0208 4B1C     		adds	r3, r1, #1
 2005              	.LBB224:
 2006              		.loc 1 348 0
 2007 020a 42F20F7C 		movw	ip, #9999
 2008              	.LBE224:
 2009              		.loc 1 346 0
 2010 020e F5D0     		beq	.L130
 2011              	.LBB225:
 2012              	.LBB221:
 2013              	.LBB222:
 2014              		.loc 2 231 0
 2015 0210 AB6A     		ldr	r3, [r5, #40]
 2016              	.LVL185:
 2017              	.LBE222:
 2018              	.LBE221:
 2019              		.loc 1 347 0
 2020 0212 DBF80400 		ldr	r0, [fp, #4]
 2021 0216 1B1A     		subs	r3, r3, r0
 2022              	.LVL186:
 2023              		.loc 1 348 0
 2024 0218 0AFB03C3 		mla	r3, r10, r3, ip
 2025              	.LVL187:
 2026 021c 4B45     		cmp	r3, r9
 2027 021e E2D8     		bhi	.L171
 2028              		.loc 1 354 0
 2029 0220 DBED057A 		vldr.32	s15, [fp, #20]
 2030              		.loc 1 357 0
 2031 0224 9BED047A 		vldr.32	s14, [fp, #16]
 2032 0228 0BF1240B 		add	fp, fp, #36
 2033              		.loc 1 356 0
 2034 022c 0134     		adds	r4, r4, #1
 2035              	.LVL188:
 2036              	.LBE225:
 2037              	.LBE228:
 2038              		.loc 1 344 0
 2039 022e C345     		cmp	fp, r8
 2040              	.LBB229:
 2041              	.LBB226:
 2042              		.loc 1 354 0
 2043 0230 39EE279A 		vadd.f32	s18, s18, s15
 2044              	.LVL189:
 2045              		.loc 1 355 0
 2046 0234 78EEA78A 		vadd.f32	s17, s17, s15
 2047              	.LVL190:
 2048              		.loc 1 357 0
 2049 0238 38EE078A 		vadd.f32	s16, s16, s14
 2050              	.LVL191:
 2051              		.loc 1 356 0
 2052 023c E4B2     		uxtb	r4, r4
ARM GAS  /tmp/cclkPJWb.s 			page 37


 2053              	.LVL192:
 2054              	.LBE226:
 2055              	.LBE229:
 2056              		.loc 1 344 0
 2057 023e E1D1     		bne	.L133
 2058              	.L170:
 2059              	.LVL193:
 2060              	.LBE230:
 2061              		.loc 1 363 0
 2062 0240 032A     		cmp	r2, #3
 2063 0242 7FF47CAF 		bne	.L129
 2064              		.loc 1 364 0
 2065 0246 2146     		mov	r1, r4
 2066 0248 2C48     		ldr	r0, .L172+76
 2067 024a FFF7FEFF 		bl	commands_printf
 2068              	.LVL194:
 2069              		.loc 1 365 0
 2070 024e 19EE100A 		vmov	r0, s18
 2071 0252 FFF7FEFF 		bl	__aeabi_f2d
 2072              	.LVL195:
 2073 0256 0246     		mov	r2, r0
 2074 0258 0B46     		mov	r3, r1
 2075 025a 2948     		ldr	r0, .L172+80
 2076 025c FFF7FEFF 		bl	commands_printf
 2077              	.LVL196:
 2078              		.loc 1 366 0
 2079 0260 18EE900A 		vmov	r0, s17
 2080 0264 FFF7FEFF 		bl	__aeabi_f2d
 2081              	.LVL197:
 2082 0268 0246     		mov	r2, r0
 2083 026a 0B46     		mov	r3, r1
 2084 026c 2548     		ldr	r0, .L172+84
 2085 026e FFF7FEFF 		bl	commands_printf
 2086              	.LVL198:
 2087              		.loc 1 362 0
 2088 0272 07EE904A 		vmov	s15, r4	@ int
 2089 0276 F8EEE77A 		vcvt.f32.s32	s15, s15
 2090              		.loc 1 367 0
 2091 027a C8EE277A 		vdiv.f32	s15, s16, s15
 2092 027e 17EE900A 		vmov	r0, s15
 2093 0282 FFF7FEFF 		bl	__aeabi_f2d
 2094              	.LVL199:
 2095 0286 0246     		mov	r2, r0
 2096 0288 0B46     		mov	r3, r1
 2097 028a 1F48     		ldr	r0, .L172+88
 2098 028c FFF7FEFF 		bl	commands_printf
 2099              	.LVL200:
 2100              	.LBE231:
 2101              	.LBE278:
 2102              		.loc 1 1181 0
 2103 0290 114B     		ldr	r3, .L172+40
 2104 0292 1B68     		ldr	r3, [r3]
 2105 0294 032B     		cmp	r3, #3
 2106 0296 7FF452AF 		bne	.L129
 2107              	.LBB279:
 2108              		.loc 1 1182 0
 2109 029a FFF7FEFF 		bl	mc_interface_get_configuration
ARM GAS  /tmp/cclkPJWb.s 			page 38


 2110              	.LVL201:
 2111              		.loc 1 1183 0
 2112 029e C06F     		ldr	r0, [r0, #124]	@ float
 2113              	.LVL202:
 2114 02a0 FFF7FEFF 		bl	__aeabi_f2d
 2115              	.LVL203:
 2116 02a4 0246     		mov	r2, r0
 2117 02a6 0B46     		mov	r3, r1
 2118 02a8 1848     		ldr	r0, .L172+92
 2119 02aa FFF7FEFF 		bl	commands_printf
 2120              	.LVL204:
 2121 02ae 46E7     		b	.L129
 2122              	.L173:
 2123              		.align	2
 2124              	.L172:
 2125 02b0 00000000 		.word	ch
 2126 02b4 00000000 		.word	shouldAcceptTransfer
 2127 02b8 00000000 		.word	.LC25
 2128 02bc 00000000 		.word	.LANCHOR5
 2129 02c0 5917B7D1 		.word	-776530087
 2130 02c4 00000000 		.word	.LANCHOR6
 2131 02c8 00000000 		.word	onTransferReceived
 2132 02cc 7F969800 		.word	9999999
 2133 02d0 3F420F00 		.word	999999
 2134 02d4 00000000 		.word	.LANCHOR3
 2135 02d8 00000000 		.word	.LANCHOR0
 2136 02dc 00000000 		.word	.LANCHOR10
 2137 02e0 9F860100 		.word	99999
 2138 02e4 00000000 		.word	.LANCHOR4
 2139 02e8 00000000 		.word	.LANCHOR11
 2140 02ec 3F4B4C00 		.word	4999999
 2141 02f0 00000000 		.word	.LANCHOR12
 2142 02f4 00000000 		.word	0
 2143 02f8 20000000 		.word	.LC27
 2144 02fc 3C000000 		.word	.LC28
 2145 0300 58000000 		.word	.LC29
 2146 0304 70000000 		.word	.LC30
 2147 0308 88000000 		.word	.LC31
 2148 030c A0000000 		.word	.LC32
 2149 0310 40420F00 		.word	1000000
 2150 0314 68010000 		.word	.LANCHOR9+360
 2151 0318 4F724C00 		.word	5009999
 2152 031c 00000000 		.word	.LANCHOR9
 2153              	.LVL205:
 2154              	.L163:
 2155              	.LBE279:
 2156              	.LBB280:
 2157              	.LBB281:
 2158              		.loc 2 231 0
 2159 0320 AB6A     		ldr	r3, [r5, #40]
 2160              	.LVL206:
 2161 0322 0893     		str	r3, [sp, #32]
 2162              	.LBE281:
 2163              	.LBE280:
 2164              	.LBB282:
 2165              	.LBB283:
 2166 0324 AA6A     		ldr	r2, [r5, #40]
ARM GAS  /tmp/cclkPJWb.s 			page 39


 2167              	.LBE283:
 2168              	.LBE282:
 2169              		.loc 1 1167 0
 2170 0326 724B     		ldr	r3, .L174+16
 2171 0328 7248     		ldr	r0, .L174+20
 2172              	.LVL207:
 2173 032a 03FB02B2 		mla	r2, r3, r2, fp
 2174 032e A6FB0232 		umull	r3, r2, r6, r2
 2175 0332 520B     		lsrs	r2, r2, #13
 2176 0334 5346     		mov	r3, r10
 2177 0336 FFF7FEFF 		bl	canardCleanupStaleTransfers
 2178              	.LVL208:
 2179              	.LBB284:
 2180              	.LBB285:
 2181              		.loc 1 377 0
 2182 033a 6F4A     		ldr	r2, .L174+24
 2183              	.LBB286:
 2184              	.LBB287:
 2185              		.loc 2 231 0
 2186 033c AB6A     		ldr	r3, [r5, #40]
 2187              	.LBE287:
 2188              	.LBE286:
 2189              		.loc 1 377 0
 2190 033e 92F80CE0 		ldrb	lr, [r2, #12]	@ zero_extendqisi2
 2191              		.loc 1 387 0
 2192 0342 6E48     		ldr	r0, .L174+28
 2193              		.loc 1 384 0
 2194 0344 5B44     		add	r3, r3, fp
 2195              		.loc 1 377 0
 2196 0346 BEF1000F 		cmp	lr, #0
 2197              		.loc 1 384 0
 2198 034a A6FB03C3 		umull	ip, r3, r6, r3
 2199 034e 4FEA5333 		lsr	r3, r3, #13
 2200              		.loc 1 377 0
 2201 0352 18BF     		it	ne
 2202 0354 4FF0030E 		movne	lr, #3
 2203              		.loc 1 387 0
 2204 0358 3946     		mov	r1, r7
 2205              		.loc 1 382 0
 2206 035a 80F804A0 		strb	r10, [r0, #4]
 2207              		.loc 1 384 0
 2208 035e 0360     		str	r3, [r0]
 2209              		.loc 1 383 0
 2210 0360 80F805E0 		strb	lr, [r0, #5]
 2211              		.loc 1 387 0
 2212 0364 FFF7FEFF 		bl	uavcan_protocol_NodeStatus_encode
 2213              	.LVL209:
 2214              		.loc 1 389 0
 2215 0368 0721     		movs	r1, #7
 2216 036a 1822     		movs	r2, #24
 2217 036c 40F25513 		movw	r3, #341
 2218 0370 6348     		ldr	r0, .L174+32
 2219 0372 0190     		str	r0, [sp, #4]
 2220 0374 0292     		str	r2, [sp, #8]
 2221 0376 0093     		str	r3, [sp]
 2222 0378 0397     		str	r7, [sp, #12]
 2223 037a 0491     		str	r1, [sp, #16]
ARM GAS  /tmp/cclkPJWb.s 			page 40


 2224 037c 58A3     		adr	r3, .L174
 2225 037e D3E90023 		ldrd	r2, [r3]
 2226 0382 5C48     		ldr	r0, .L174+20
 2227 0384 FFF7FEFF 		bl	canardBroadcast
 2228              	.LVL210:
 2229 0388 B7E6     		b	.L125
 2230              	.LVL211:
 2231              	.L169:
 2232              	.LBE285:
 2233              	.LBE284:
 2234              		.loc 1 1205 0
 2235 038a FFF7FEFF 		bl	flash_helper_jump_to_bootloader
 2236              	.LVL212:
 2237 038e 12E7     		b	.L137
 2238              	.L168:
 2239              		.loc 1 1199 0
 2240 0390 5C4A     		ldr	r2, .L174+36
 2241              	.LBB288:
 2242              	.LBB289:
 2243              		.loc 2 231 0
 2244 0392 AB6A     		ldr	r3, [r5, #40]
 2245              	.LBE289:
 2246              	.LBE288:
 2247              		.loc 1 1199 0
 2248 0394 1360     		str	r3, [r2]
 2249              		.loc 1 1200 0
 2250 0396 FFF7FEFF 		bl	send_fw_read
 2251              	.LVL213:
 2252 039a FAE6     		b	.L136
 2253              	.LVL214:
 2254              	.L166:
 2255              	.LBB290:
 2256              	.LBB291:
 2257              		.loc 1 259 0
 2258 039c FFF7FEFF 		bl	app_get_configuration
 2259              	.LVL215:
 2260 03a0 0446     		mov	r4, r0
 2261              	.LVL216:
 2262              		.loc 1 261 0
 2263 03a2 5948     		ldr	r0, .L174+40
 2264              	.LVL217:
 2265 03a4 A37E     		ldrb	r3, [r4, #26]	@ zero_extendqisi2
 2266 03a6 00EE103A 		vmov	s0, r3	@ int
 2267 03aa B8EE400A 		vcvt.f32.u32	s0, s0
 2268 03ae FFF7FEFF 		bl	updateParamByName
 2269              	.LVL218:
 2270              		.loc 1 262 0
 2271 03b2 237D     		ldrb	r3, [r4, #20]	@ zero_extendqisi2
 2272 03b4 5548     		ldr	r0, .L174+44
 2273 03b6 00EE103A 		vmov	s0, r3	@ int
 2274 03ba B8EE400A 		vcvt.f32.u32	s0, s0
 2275 03be FFF7FEFF 		bl	updateParamByName
 2276              	.LVL219:
 2277              		.loc 1 263 0
 2278 03c2 D4ED047A 		vldr.32	s15, [r4, #16]	@ int
 2279 03c6 5248     		ldr	r0, .L174+48
 2280 03c8 B8EE670A 		vcvt.f32.u32	s0, s15
ARM GAS  /tmp/cclkPJWb.s 			page 41


 2281 03cc FFF7FEFF 		bl	updateParamByName
 2282              	.LVL220:
 2283              		.loc 1 264 0
 2284 03d0 237B     		ldrb	r3, [r4, #12]	@ zero_extendqisi2
 2285 03d2 5048     		ldr	r0, .L174+52
 2286 03d4 00EE103A 		vmov	s0, r3	@ int
 2287 03d8 B8EE400A 		vcvt.f32.u32	s0, s0
 2288 03dc FFF7FEFF 		bl	updateParamByName
 2289              	.LVL221:
 2290              		.loc 1 265 0
 2291 03e0 E37E     		ldrb	r3, [r4, #27]	@ zero_extendqisi2
 2292 03e2 4D48     		ldr	r0, .L174+56
 2293 03e4 00EE103A 		vmov	s0, r3	@ int
 2294 03e8 B8EE400A 		vcvt.f32.u32	s0, s0
 2295 03ec FFF7FEFF 		bl	updateParamByName
 2296              	.LVL222:
 2297              		.loc 1 266 0
 2298 03f0 2378     		ldrb	r3, [r4]	@ zero_extendqisi2
 2299 03f2 4A48     		ldr	r0, .L174+60
 2300 03f4 00EE103A 		vmov	s0, r3	@ int
 2301 03f8 B8EE400A 		vcvt.f32.u32	s0, s0
 2302 03fc FFF7FEFF 		bl	updateParamByName
 2303              	.LVL223:
 2304              	.LBE291:
 2305              	.LBE290:
 2306              		.loc 1 1193 0
 2307 0400 474B     		ldr	r3, .L174+64
 2308 0402 1B68     		ldr	r3, [r3]
 2309 0404 072B     		cmp	r3, #7
 2310 0406 7FF4B2AE 		bne	.L134
 2311              	.LVL224:
 2312              	.L167:
 2313              		.loc 1 1194 0
 2314 040a 069B     		ldr	r3, [sp, #24]
 2315              	.LBB292:
 2316              	.LBB293:
 2317              		.loc 2 231 0
 2318 040c A96A     		ldr	r1, [r5, #40]
 2319              	.LBE293:
 2320              	.LBE292:
 2321              		.loc 1 1194 0
 2322 040e 4548     		ldr	r0, .L174+68
 2323 0410 C91A     		subs	r1, r1, r3
 2324 0412 4FF47A72 		mov	r2, #1000
 2325 0416 42F20F73 		movw	r3, #9999
 2326 041a 02FB0131 		mla	r1, r2, r1, r3
 2327 041e A6FB0131 		umull	r3, r1, r6, r1
 2328 0422 490B     		lsrs	r1, r1, #13
 2329 0424 FFF7FEFF 		bl	commands_printf
 2330              	.LVL225:
 2331 0428 A1E6     		b	.L134
 2332              	.LVL226:
 2333              	.L164:
 2334              	.LBB294:
 2335              	.LBB295:
 2336              		.loc 2 231 0
 2337 042a AB6A     		ldr	r3, [r5, #40]
ARM GAS  /tmp/cclkPJWb.s 			page 42


 2338              	.LVL227:
 2339 042c 0993     		str	r3, [sp, #36]
 2340              	.LBE295:
 2341              	.LBE294:
 2342              	.LBB296:
 2343              	.LBB297:
 2344              		.loc 1 404 0
 2345 042e FFF7FEFF 		bl	mc_interface_get_tot_current
 2346              	.LVL228:
 2347 0432 8DED100A 		vstr.32	s0, [sp, #64]
 2348              		.loc 1 405 0
 2349 0436 FFF7FEFF 		bl	mc_interface_get_fault
 2350              	.LVL229:
 2351 043a 0E90     		str	r0, [sp, #56]
 2352              		.loc 1 406 0
 2353 043c FFF7FEFF 		bl	app_get_configuration
 2354              	.LVL230:
 2355 0440 C37E     		ldrb	r3, [r0, #27]	@ zero_extendqisi2
 2356 0442 8DF84D30 		strb	r3, [sp, #77]
 2357              		.loc 1 407 0
 2358 0446 FFF7FEFF 		bl	mc_interface_get_tot_current
 2359              	.LVL231:
 2360 044a B0EE408A 		vmov.f32	s16, s0
 2361              		.loc 1 408 0
 2362 044e FFF7FEFF 		bl	mc_interface_get_configuration
 2363              	.LVL232:
 2364 0452 90ED007A 		vldr.32	s14, [r0]
 2365              		.loc 1 407 0
 2366 0456 F0EEC87A 		vabs.f32	s15, s16
 2367 045a 87EE878A 		vdiv.f32	s16, s15, s14
 2368              		.loc 1 409 0
 2369 045e FFF7FEFF 		bl	mc_interface_get_configuration
 2370              	.LVL233:
 2371 0462 90ED187A 		vldr.32	s14, [r0, #96]
 2372 0466 DFED307A 		vldr.32	s15, .L174+72
 2373              		.loc 1 408 0
 2374 046a 28EE077A 		vmul.f32	s14, s16, s14
 2375              		.loc 1 409 0
 2376 046e 67EE277A 		vmul.f32	s15, s14, s15
 2377              		.loc 1 407 0
 2378 0472 FCEEE77A 		vcvt.u32.f32	s15, s15
 2379 0476 17EE903A 		vmov	r3, s15	@ int
 2380 047a 8DF84C30 		strb	r3, [sp, #76]
 2381              		.loc 1 410 0
 2382 047e FFF7FEFF 		bl	mc_interface_get_rpm
 2383              	.LVL234:
 2384 0482 BDEEC00A 		vcvt.s32.f32	s0, s0
 2385 0486 8DED120A 		vstr.32	s0, [sp, #72]	@ int
 2386              		.loc 1 411 0
 2387 048a FFF7FEFF 		bl	mc_interface_temp_fet_filtered
 2388              	.LVL235:
 2389 048e DFED277A 		vldr.32	s15, .L174+76
 2390 0492 70EE277A 		vadd.f32	s15, s0, s15
 2391 0496 CDED117A 		vstr.32	s15, [sp, #68]
 2392              		.loc 1 412 0
 2393 049a FFF7FEFF 		bl	mc_interface_get_input_voltage_filtered
 2394              	.LVL236:
ARM GAS  /tmp/cclkPJWb.s 			page 43


 2395              		.loc 1 414 0
 2396 049e 0AA9     		add	r1, sp, #40
 2397 04a0 3846     		mov	r0, r7
 2398              		.loc 1 412 0
 2399 04a2 8DED0F0A 		vstr.32	s0, [sp, #60]
 2400              		.loc 1 414 0
 2401 04a6 FFF7FEFF 		bl	uavcan_equipment_esc_Status_encode
 2402              	.LVL237:
 2403              		.loc 1 418 0
 2404 04aa 1D4B     		ldr	r3, .L174+64
 2405 04ac 1B68     		ldr	r3, [r3]
 2406 04ae 0B2B     		cmp	r3, #11
 2407 04b0 02DD     		ble	.L128
 2408              		.loc 1 419 0
 2409 04b2 1F48     		ldr	r0, .L174+80
 2410 04b4 FFF7FEFF 		bl	commands_printf
 2411              	.LVL238:
 2412              	.L128:
 2413              		.loc 1 422 0
 2414 04b8 0AA8     		add	r0, sp, #40
 2415 04ba 0E21     		movs	r1, #14
 2416 04bc 1822     		movs	r2, #24
 2417 04be 40F20A43 		movw	r3, #1034
 2418 04c2 0390     		str	r0, [sp, #12]
 2419 04c4 1B48     		ldr	r0, .L174+84
 2420 04c6 0190     		str	r0, [sp, #4]
 2421 04c8 0292     		str	r2, [sp, #8]
 2422 04ca 0093     		str	r3, [sp]
 2423 04cc 0491     		str	r1, [sp, #16]
 2424 04ce 06A3     		adr	r3, .L174+8
 2425 04d0 D3E90023 		ldrd	r2, [r3]
 2426 04d4 0748     		ldr	r0, .L174+20
 2427 04d6 FFF7FEFF 		bl	canardBroadcast
 2428              	.LVL239:
 2429 04da 24E6     		b	.L127
 2430              	.L175:
 2431 04dc AFF30080 		.align	3
 2432              	.L174:
 2433 04e0 F1C6A7C1 		.word	-1045969167
 2434 04e4 D068080F 		.word	252209360
 2435 04e8 54B2FBA2 		.word	-1560563116
 2436 04ec AE28AFA9 		.word	-1448138578
 2437 04f0 40420F00 		.word	1000000
 2438 04f4 00000000 		.word	.LANCHOR5
 2439 04f8 00000000 		.word	.LANCHOR4
 2440 04fc 00000000 		.word	.LANCHOR1
 2441 0500 00000000 		.word	.LANCHOR7
 2442 0504 00000000 		.word	.LANCHOR10
 2443 0508 F4000000 		.word	.LC11
 2444 050c 00010000 		.word	.LC12
 2445 0510 10010000 		.word	.LC13
 2446 0514 20010000 		.word	.LC14
 2447 0518 30010000 		.word	.LC15
 2448 051c 40010000 		.word	.LC16
 2449 0520 00000000 		.word	.LANCHOR0
 2450 0524 B4000000 		.word	.LC33
 2451 0528 0000C842 		.word	1120403456
ARM GAS  /tmp/cclkPJWb.s 			page 44


 2452 052c 33938843 		.word	1133024051
 2453 0530 08000000 		.word	.LC26
 2454 0534 00000000 		.word	.LANCHOR8
 2455              	.LBE297:
 2456              	.LBE296:
 2457              	.LBE299:
 2458              		.cfi_endproc
 2459              	.LFE281:
 2460              		.size	canard_thread, .-canard_thread
 2461              		.section	.text.onTransferReceived,"ax",%progbits
 2462              		.align	1
 2463              		.p2align 4,,15
 2464              		.syntax unified
 2465              		.thumb
 2466              		.thumb_func
 2467              		.fpu fpv4-sp-d16
 2468              		.type	onTransferReceived, %function
 2469              	onTransferReceived:
 2470              	.LFB278:
 2471              		.loc 1 975 0
 2472              		.cfi_startproc
 2473              		@ args = 0, pretend = 0, frame = 168
 2474              		@ frame_needed = 1, uses_anonymous_args = 0
 2475              	.LVL240:
 2476 0000 2DE9F04F 		push	{r4, r5, r6, r7, r8, r9, r10, fp, lr}
 2477              		.cfi_def_cfa_offset 36
 2478              		.cfi_offset 4, -36
 2479              		.cfi_offset 5, -32
 2480              		.cfi_offset 6, -28
 2481              		.cfi_offset 7, -24
 2482              		.cfi_offset 8, -20
 2483              		.cfi_offset 9, -16
 2484              		.cfi_offset 10, -12
 2485              		.cfi_offset 11, -8
 2486              		.cfi_offset 14, -4
 2487 0004 2DED028B 		vpush.64	{d8}
 2488              		.cfi_def_cfa_offset 44
 2489              		.cfi_offset 80, -44
 2490              		.cfi_offset 81, -40
 2491              		.loc 1 976 0
 2492 0008 DFF84093 		ldr	r9, .L249+44
 2493              		.loc 1 975 0
 2494 000c B1B0     		sub	sp, sp, #196
 2495              		.cfi_def_cfa_offset 240
 2496              		.loc 1 976 0
 2497 000e D9F80020 		ldr	r2, [r9]
 2498 0012 CB8A     		ldrh	r3, [r1, #22]
 2499 0014 042A     		cmp	r2, #4
 2500              		.loc 1 975 0
 2501 0016 06AF     		add	r7, sp, #24
 2502              		.cfi_def_cfa 7, 216
 2503              		.loc 1 975 0
 2504 0018 0C46     		mov	r4, r1
 2505 001a 8046     		mov	r8, r0
 2506              		.loc 1 976 0
 2507 001c 00F08D80 		beq	.L240
 2508              		.loc 1 993 0
ARM GAS  /tmp/cclkPJWb.s 			page 45


 2509 0020 282B     		cmp	r3, #40
 2510 0022 00F09380 		beq	.L179
 2511              	.LVL241:
 2512              	.L245:
 2513 0026 3FD9     		bls	.L241
 2514 0028 40F20642 		movw	r2, #1030
 2515 002c 9342     		cmp	r3, r2
 2516 002e 4CD0     		beq	.L184
 2517 0030 40F2FE80 		bls	.L242
 2518 0034 40F20742 		movw	r2, #1031
 2519 0038 9342     		cmp	r3, r2
 2520 003a 00F0CD80 		beq	.L187
 2521 003e 40F20A42 		movw	r2, #1034
 2522 0042 9342     		cmp	r3, r2
 2523 0044 3BD1     		bne	.L176
 2524              	.LVL242:
 2525              	.LBB329:
 2526              	.LBB330:
 2527              		.loc 1 572 0
 2528 0046 0025     		movs	r5, #0
 2529 0048 A18A     		ldrh	r1, [r4, #20]
 2530 004a 0095     		str	r5, [sp]
 2531 004c 07F12402 		add	r2, r7, #36
 2532 0050 2B46     		mov	r3, r5
 2533 0052 2046     		mov	r0, r4
 2534 0054 FFF7FEFF 		bl	uavcan_equipment_esc_Status_decode_internal
 2535              	.LVL243:
 2536 0058 A842     		cmp	r0, r5
 2537 005a 30DB     		blt	.L176
 2538 005c B24E     		ldr	r6, .L249+8
 2539 005e 94F81BE0 		ldrb	lr, [r4, #27]	@ zero_extendqisi2
 2540              	.LBB331:
 2541              		.loc 1 573 0
 2542 0062 2B46     		mov	r3, r5
 2543 0064 3246     		mov	r2, r6
 2544 0066 04E0     		b	.L206
 2545              	.LVL244:
 2546              	.L243:
 2547              	.LBB332:
 2548              		.loc 1 575 0
 2549 0068 7145     		cmp	r1, lr
 2550 006a 07D0     		beq	.L204
 2551              	.LBE332:
 2552              		.loc 1 573 0
 2553 006c 0133     		adds	r3, r3, #1
 2554              	.LVL245:
 2555 006e 0A2B     		cmp	r3, #10
 2556 0070 25D0     		beq	.L176
 2557              	.LVL246:
 2558              	.L206:
 2559              	.LBB337:
 2560              		.loc 1 575 0
 2561 0072 1168     		ldr	r1, [r2]
 2562 0074 481C     		adds	r0, r1, #1
 2563 0076 02F12402 		add	r2, r2, #36
 2564 007a F5D1     		bne	.L243
 2565              	.L204:
ARM GAS  /tmp/cclkPJWb.s 			page 46


 2566              		.loc 1 578 0
 2567 007c 07F12404 		add	r4, r7, #36
 2568              	.LVL247:
 2569              		.loc 1 576 0
 2570 0080 2425     		movs	r5, #36
 2571 0082 05FB03F5 		mul	r5, r5, r3
 2572              		.loc 1 578 0
 2573 0086 0FCC     		ldmia	r4!, {r0, r1, r2, r3}
 2574              	.LVL248:
 2575              		.loc 1 576 0
 2576 0088 06EB050C 		add	ip, r6, r5
 2577 008c 46F805E0 		str	lr, [r6, r5]
 2578              		.loc 1 578 0
 2579 0090 0CF10C05 		add	r5, ip, #12
 2580 0094 0FC5     		stmia	r5!, {r0, r1, r2, r3}
 2581              	.LBB333:
 2582              	.LBB334:
 2583              		.loc 2 231 0
 2584 0096 A54B     		ldr	r3, .L249+12
 2585              	.LBE334:
 2586              	.LBE333:
 2587              		.loc 1 578 0
 2588 0098 94E80300 		ldm	r4, {r0, r1}
 2589              	.LBB336:
 2590              	.LBB335:
 2591              		.loc 2 231 0
 2592 009c 9B6A     		ldr	r3, [r3, #40]
 2593              	.LBE335:
 2594              	.LBE336:
 2595              		.loc 1 577 0
 2596 009e CCF80430 		str	r3, [ip, #4]
 2597              		.loc 1 578 0
 2598 00a2 85E80300 		stm	r5, {r0, r1}
 2599 00a6 0AE0     		b	.L176
 2600              	.LVL249:
 2601              	.L241:
 2602              	.LBE337:
 2603              	.LBE331:
 2604              	.LBE330:
 2605              	.LBE329:
 2606              		.loc 1 993 0
 2607 00a8 052B     		cmp	r3, #5
 2608 00aa 3FD0     		beq	.L181
 2609 00ac 0B2B     		cmp	r3, #11
 2610 00ae 00F08980 		beq	.L182
 2611 00b2 012B     		cmp	r3, #1
 2612 00b4 03D1     		bne	.L176
 2613              		.loc 1 995 0
 2614 00b6 2146     		mov	r1, r4
 2615 00b8 4046     		mov	r0, r8
 2616 00ba FFF7FEFF 		bl	handle_get_node_info
 2617              	.LVL250:
 2618              	.L176:
 2619              		.loc 1 1029 0
 2620 00be AC37     		adds	r7, r7, #172
 2621              		.cfi_remember_state
 2622              		.cfi_def_cfa_offset 44
ARM GAS  /tmp/cclkPJWb.s 			page 47


 2623 00c0 BD46     		mov	sp, r7
 2624              		.cfi_def_cfa_register 13
 2625              		@ sp needed
 2626 00c2 BDEC028B 		vldm	sp!, {d8}
 2627              		.cfi_restore 80
 2628              		.cfi_restore 81
 2629              		.cfi_def_cfa_offset 36
 2630 00c6 BDE8F08F 		pop	{r4, r5, r6, r7, r8, r9, r10, fp, pc}
 2631              	.LVL251:
 2632              	.L184:
 2633              		.cfi_restore_state
 2634              	.LBB338:
 2635              	.LBB339:
 2636              		.loc 1 506 0
 2637 00ca 07F12405 		add	r5, r7, #36
 2638 00ce 2422     		movs	r2, #36
 2639 00d0 0021     		movs	r1, #0
 2640 00d2 2846     		mov	r0, r5
 2641 00d4 FFF7FEFF 		bl	memset
 2642              	.LVL252:
 2643              		.loc 1 507 0
 2644 00d8 07F1A803 		add	r3, r7, #168
 2645              		.loc 1 509 0
 2646 00dc 0022     		movs	r2, #0
 2647 00de A18A     		ldrh	r1, [r4, #20]
 2648              		.loc 1 507 0
 2649 00e0 43F8945D 		str	r5, [r3, #-148]!
 2650              		.loc 1 509 0
 2651 00e4 2046     		mov	r0, r4
 2652 00e6 0092     		str	r2, [sp]
 2653 00e8 07F11802 		add	r2, r7, #24
 2654 00ec FFF7FEFF 		bl	uavcan_equipment_esc_RawCommand_decode_internal
 2655              	.LVL253:
 2656 00f0 0028     		cmp	r0, #0
 2657 00f2 E4DB     		blt	.L176
 2658              		.loc 1 510 0
 2659 00f4 3C7E     		ldrb	r4, [r7, #24]	@ zero_extendqisi2
 2660              	.LVL254:
 2661 00f6 FFF7FEFF 		bl	app_get_configuration
 2662              	.LVL255:
 2663 00fa C37E     		ldrb	r3, [r0, #27]	@ zero_extendqisi2
 2664 00fc A342     		cmp	r3, r4
 2665 00fe DED2     		bcs	.L176
 2666              	.LBB340:
 2667              		.loc 1 511 0
 2668 0100 FC69     		ldr	r4, [r7, #28]
 2669 0102 FFF7FEFF 		bl	app_get_configuration
 2670              	.LVL256:
 2671 0106 C37E     		ldrb	r3, [r0, #27]	@ zero_extendqisi2
 2672 0108 34F91330 		ldrsh	r3, [r4, r3, lsl #1]
 2673 010c 08EE103A 		vmov	s16, r3	@ int
 2674              		.loc 1 513 0
 2675 0110 FFF7FEFF 		bl	app_get_configuration
 2676              	.LVL257:
 2677              		.loc 1 515 0
 2678 0114 037F     		ldrb	r3, [r0, #28]	@ zero_extendqisi2
 2679              		.loc 1 511 0
ARM GAS  /tmp/cclkPJWb.s 			page 48


 2680 0116 BAEEE98A 		vcvt.f32.s32	s16, s16, #13
 2681              	.LVL258:
 2682              		.loc 1 515 0
 2683 011a 032B     		cmp	r3, #3
 2684 011c 00F2F781 		bhi	.L192
 2685 0120 DFE813F0 		tbh	[pc, r3, lsl #1]
 2686              	.L194:
 2687 0124 FD01     		.2byte	(.L239-.L194)/2
 2688 0126 0202     		.2byte	(.L195-.L194)/2
 2689 0128 F801     		.2byte	(.L196-.L194)/2
 2690 012a EF01     		.2byte	(.L197-.L194)/2
 2691              	.LVL259:
 2692              		.p2align 1
 2693              	.L181:
 2694              	.LBE340:
 2695              	.LBE339:
 2696              	.LBE338:
 2697              		.loc 1 1011 0
 2698 012c D9F80030 		ldr	r3, [r9]
 2699 0130 002B     		cmp	r3, #0
 2700 0132 00F3EF80 		bgt	.L244
 2701              	.L207:
 2702              	.LBB343:
 2703              	.LBB344:
 2704              	.LBB345:
 2705              		.file 4 "ChibiOS_3.0.5/os/ext/CMSIS/include/core_cmFunc.h"
 2706              		.loc 4 342 0
 2707              		.syntax unified
 2708              	@ 342 "ChibiOS_3.0.5/os/ext/CMSIS/include/core_cmFunc.h" 1
 2709 0136 72B6     		cpsid i
 2710              	@ 0 "" 2
 2711              		.thumb
 2712              		.syntax unified
 2713              	.L208:
 2714 0138 FEE7     		b	.L208
 2715              	.LVL260:
 2716              	.L240:
 2717              	.LBE345:
 2718              	.LBE344:
 2719              	.LBE343:
 2720              		.loc 1 977 0
 2721 013a 0A7E     		ldrb	r2, [r1, #24]	@ zero_extendqisi2
 2722 013c 7C48     		ldr	r0, .L249+16
 2723              	.LVL261:
 2724 013e C97E     		ldrb	r1, [r1, #27]	@ zero_extendqisi2
 2725              	.LVL262:
 2726 0140 FFF7FEFF 		bl	commands_printf
 2727              	.LVL263:
 2728 0144 E38A     		ldrh	r3, [r4, #22]
 2729              		.loc 1 993 0
 2730 0146 282B     		cmp	r3, #40
 2731 0148 7FF46DAF 		bne	.L245
 2732              	.L179:
 2733              	.LVL264:
 2734              	.LBB346:
 2735              	.LBB347:
 2736              		.loc 1 922 0
ARM GAS  /tmp/cclkPJWb.s 			page 49


 2737 014c A38A     		ldrh	r3, [r4, #20]
 2738 014e 013B     		subs	r3, r3, #1
 2739 0150 C92B     		cmp	r3, #201
 2740 0152 B4D8     		bhi	.L176
 2741              		.loc 1 926 0
 2742 0154 774D     		ldr	r5, .L249+20
 2743 0156 2E7B     		ldrb	r6, [r5, #12]	@ zero_extendqisi2
 2744 0158 002E     		cmp	r6, #0
 2745 015a 00F0F980 		beq	.L210
 2746 015e DFF8CCA1 		ldr	r10, .L249+12
 2747 0162 754E     		ldr	r6, .L249+24
 2748              	.L211:
 2749              		.loc 1 949 0
 2750 0164 07F12403 		add	r3, r7, #36
 2751 0168 1946     		mov	r1, r3
 2752              		.loc 1 947 0
 2753 016a 4FF0000B 		mov	fp, #0
 2754              		.loc 1 949 0
 2755 016e 07F11800 		add	r0, r7, #24
 2756 0172 FB60     		str	r3, [r7, #12]
 2757              		.loc 1 947 0
 2758 0174 87F818B0 		strb	fp, [r7, #24]
 2759              		.loc 1 949 0
 2760 0178 FFF7FEFF 		bl	uavcan_protocol_file_BeginFirmwareUpdateResponse_encode
 2761              	.LVL265:
 2762              		.loc 1 950 0
 2763 017c 80B2     		uxth	r0, r0
 2764              	.LVL266:
 2765 017e E17E     		ldrb	r1, [r4, #27]	@ zero_extendqisi2
 2766 0180 0590     		str	r0, [sp, #20]
 2767 0182 FB68     		ldr	r3, [r7, #12]
 2768 0184 CDE903B3 		strd	fp, r3, [sp, #12]
 2769 0188 A37E     		ldrb	r3, [r4, #26]	@ zero_extendqisi2
 2770 018a 0293     		str	r3, [sp, #8]
 2771 018c 1934     		adds	r4, r4, #25
 2772              	.LVL267:
 2773 018e 2823     		movs	r3, #40
 2774 0190 CDE90034 		strd	r3, r4, [sp]
 2775 0194 4046     		mov	r0, r8
 2776 0196 62A3     		adr	r3, .L249
 2777 0198 D3E90023 		ldrd	r2, [r3]
 2778 019c FFF7FEFF 		bl	canardRequestOrRespond
 2779              	.LVL268:
 2780              		.loc 1 961 0
 2781 01a0 4FF4C020 		mov	r0, #393216
 2782 01a4 FFF7FEFF 		bl	flash_helper_erase_new_app
 2783              	.LVL269:
 2784              		.loc 1 965 0
 2785 01a8 D9F80030 		ldr	r3, [r9]
 2786              	.LBB348:
 2787              	.LBB349:
 2788              		.loc 2 231 0
 2789 01ac DAF82820 		ldr	r2, [r10, #40]
 2790              	.LBE349:
 2791              	.LBE348:
 2792              		.loc 1 963 0
 2793 01b0 3260     		str	r2, [r6]
ARM GAS  /tmp/cclkPJWb.s 			page 50


 2794              		.loc 1 965 0
 2795 01b2 5B45     		cmp	r3, fp
 2796 01b4 03DD     		ble	.L215
 2797              		.loc 1 966 0
 2798 01b6 297B     		ldrb	r1, [r5, #12]	@ zero_extendqisi2
 2799 01b8 6048     		ldr	r0, .L249+28
 2800 01ba FFF7FEFF 		bl	commands_printf
 2801              	.LVL270:
 2802              	.L215:
 2803              		.loc 1 969 0
 2804 01be FFF7FEFF 		bl	send_fw_read
 2805              	.LVL271:
 2806 01c2 7CE7     		b	.L176
 2807              	.LVL272:
 2808              	.L182:
 2809              	.LBE347:
 2810              	.LBE346:
 2811              		.loc 1 1018 0
 2812 01c4 2146     		mov	r1, r4
 2813 01c6 4046     		mov	r0, r8
 2814 01c8 FFF7FEFF 		bl	handle_param_getset
 2815              	.LVL273:
 2816              		.loc 1 1029 0
 2817 01cc AC37     		adds	r7, r7, #172
 2818              		.cfi_remember_state
 2819              		.cfi_def_cfa_offset 44
 2820 01ce BD46     		mov	sp, r7
 2821              		.cfi_def_cfa_register 13
 2822              		@ sp needed
 2823 01d0 BDEC028B 		vldm	sp!, {d8}
 2824              		.cfi_restore 80
 2825              		.cfi_restore 81
 2826              		.cfi_def_cfa_offset 36
 2827 01d4 BDE8F08F 		pop	{r4, r5, r6, r7, r8, r9, r10, fp, pc}
 2828              	.LVL274:
 2829              	.L187:
 2830              		.cfi_restore_state
 2831              	.LBB358:
 2832              	.LBB359:
 2833              		.loc 1 552 0
 2834 01d8 07F12405 		add	r5, r7, #36
 2835 01dc 2E22     		movs	r2, #46
 2836 01de 0021     		movs	r1, #0
 2837 01e0 2846     		mov	r0, r5
 2838 01e2 FFF7FEFF 		bl	memset
 2839              	.LVL275:
 2840              		.loc 1 553 0
 2841 01e6 07F1A803 		add	r3, r7, #168
 2842              		.loc 1 555 0
 2843 01ea 0022     		movs	r2, #0
 2844 01ec A18A     		ldrh	r1, [r4, #20]
 2845              		.loc 1 553 0
 2846 01ee 43F8945D 		str	r5, [r3, #-148]!
 2847              		.loc 1 555 0
 2848 01f2 2046     		mov	r0, r4
 2849 01f4 0092     		str	r2, [sp]
 2850 01f6 07F11802 		add	r2, r7, #24
ARM GAS  /tmp/cclkPJWb.s 			page 51


 2851 01fa FFF7FEFF 		bl	uavcan_equipment_esc_RPMCommand_decode_internal
 2852              	.LVL276:
 2853 01fe 0028     		cmp	r0, #0
 2854 0200 FFF65DAF 		blt	.L176
 2855              		.loc 1 556 0
 2856 0204 3C7E     		ldrb	r4, [r7, #24]	@ zero_extendqisi2
 2857              	.LVL277:
 2858 0206 FFF7FEFF 		bl	app_get_configuration
 2859              	.LVL278:
 2860 020a C37E     		ldrb	r3, [r0, #27]	@ zero_extendqisi2
 2861 020c A342     		cmp	r3, r4
 2862 020e BFF456AF 		bcs	.L176
 2863              		.loc 1 557 0
 2864 0212 FC69     		ldr	r4, [r7, #28]
 2865 0214 FFF7FEFF 		bl	app_get_configuration
 2866              	.LVL279:
 2867 0218 C37E     		ldrb	r3, [r0, #27]	@ zero_extendqisi2
 2868 021a 54F82330 		ldr	r3, [r4, r3, lsl #2]
 2869 021e 00EE103A 		vmov	s0, r3	@ int
 2870 0222 B8EEC00A 		vcvt.f32.s32	s0, s0
 2871 0226 FFF7FEFF 		bl	mc_interface_set_pid_speed
 2872              	.LVL280:
 2873              		.loc 1 558 0
 2874 022a FFF7FEFF 		bl	timeout_reset
 2875              	.LVL281:
 2876 022e 46E7     		b	.L176
 2877              	.LVL282:
 2878              	.L242:
 2879              	.LBE359:
 2880              	.LBE358:
 2881              		.loc 1 993 0
 2882 0230 302B     		cmp	r3, #48
 2883 0232 7FF444AF 		bne	.L176
 2884              	.LVL283:
 2885              	.LBB360:
 2886              	.LBB361:
 2887              		.loc 1 809 0
 2888 0236 637E     		ldrb	r3, [r4, #25]	@ zero_extendqisi2
 2889 0238 3E4D     		ldr	r5, .L249+20
 2890              		.loc 1 806 0
 2891 023a C7F80CD0 		str	sp, [r7, #12]
 2892              		.loc 1 809 0
 2893 023e 0133     		adds	r3, r3, #1
 2894 0240 6A7B     		ldrb	r2, [r5, #13]	@ zero_extendqisi2
 2895 0242 DBB2     		uxtb	r3, r3
 2896 0244 9342     		cmp	r3, r2
 2897 0246 07D0     		beq	.L246
 2898              	.L216:
 2899 0248 D7F80CD0 		ldr	sp, [r7, #12]
 2900              	.LBE361:
 2901              	.LBE360:
 2902              		.loc 1 1029 0
 2903 024c AC37     		adds	r7, r7, #172
 2904              		.cfi_remember_state
 2905              		.cfi_def_cfa_offset 44
 2906 024e BD46     		mov	sp, r7
 2907              		.cfi_def_cfa_register 13
ARM GAS  /tmp/cclkPJWb.s 			page 52


 2908              		@ sp needed
 2909 0250 BDEC028B 		vldm	sp!, {d8}
 2910              		.cfi_restore 80
 2911              		.cfi_restore 81
 2912              		.cfi_def_cfa_offset 36
 2913 0254 BDE8F08F 		pop	{r4, r5, r6, r7, r8, r9, r10, fp, pc}
 2914              	.LVL284:
 2915              	.L246:
 2916              		.cfi_restore_state
 2917              	.LBB371:
 2918              	.LBB369:
 2919              		.loc 1 809 0
 2920 0258 E27E     		ldrb	r2, [r4, #27]	@ zero_extendqisi2
 2921 025a 2B7B     		ldrb	r3, [r5, #12]	@ zero_extendqisi2
 2922 025c 9A42     		cmp	r2, r3
 2923 025e F3D1     		bne	.L216
 2924              		.loc 1 813 0
 2925 0260 07F1A803 		add	r3, r7, #168
 2926 0264 0021     		movs	r1, #0
 2927 0266 23F8941D 		strh	r1, [r3, #-148]!	@ movhi
 2928              		.loc 1 814 0
 2929 026a 1022     		movs	r2, #16
 2930 026c 0093     		str	r3, [sp]
 2931 026e 2046     		mov	r0, r4
 2932 0270 0123     		movs	r3, #1
 2933 0272 FFF7FEFF 		bl	canardDecodeScalar
 2934              	.LVL285:
 2935              		.loc 1 815 0
 2936 0276 A68A     		ldrh	r6, [r4, #20]
 2937 0278 023E     		subs	r6, r6, #2
 2938 027a B6B2     		uxth	r6, r6
 2939              	.LVL286:
 2940              		.loc 1 818 0
 2941 027c F31C     		adds	r3, r6, #3
 2942 027e 9B10     		asrs	r3, r3, #2
 2943 0280 9B00     		lsls	r3, r3, #2
 2944 0282 0A33     		adds	r3, r3, #10
 2945 0284 6A46     		mov	r2, sp
 2946 0286 DB08     		lsrs	r3, r3, #3
 2947 0288 A2EBC303 		sub	r3, r2, r3, lsl #3
 2948 028c 9D46     		mov	sp, r3
 2949 028e 0DF1180A 		add	r10, sp, #24
 2950              	.LVL287:
 2951              		.loc 1 819 0
 2952 0292 D046     		mov	r8, r10
 2953              	.LVL288:
 2954              		.loc 1 817 0
 2955 0294 4FF0100B 		mov	fp, #16
 2956              	.LVL289:
 2957              	.L217:
 2958              	.LBB362:
 2959              		.loc 1 820 0
 2960 0298 A8EB0A03 		sub	r3, r8, r10
 2961 029c 9BB2     		uxth	r3, r3
 2962 029e 9E42     		cmp	r6, r3
 2963              		.loc 1 821 0
 2964 02a0 5946     		mov	r1, fp
ARM GAS  /tmp/cclkPJWb.s 			page 53


 2965 02a2 4FF00003 		mov	r3, #0
 2966 02a6 4FF00802 		mov	r2, #8
 2967 02aa 2046     		mov	r0, r4
 2968              		.loc 1 820 0
 2969 02ac 08D9     		bls	.L247
 2970              	.LVL290:
 2971              		.loc 1 821 0
 2972 02ae CDF80080 		str	r8, [sp]
 2973 02b2 FFF7FEFF 		bl	canardDecodeScalar
 2974              	.LVL291:
 2975              		.loc 1 822 0
 2976 02b6 0BF1080B 		add	fp, fp, #8
 2977              	.LVL292:
 2978 02ba 08F10108 		add	r8, r8, #1
 2979              	.LVL293:
 2980 02be EBE7     		b	.L217
 2981              	.LVL294:
 2982              	.L247:
 2983              	.LBE362:
 2984              		.loc 1 825 0
 2985 02c0 D9F80030 		ldr	r3, [r9]
 2986 02c4 092B     		cmp	r3, #9
 2987 02c6 05D1     		bne	.L219
 2988              		.loc 1 826 0
 2989 02c8 D5E90023 		ldrd	r2, [r5]
 2990 02cc 3146     		mov	r1, r6
 2991              	.LVL295:
 2992 02ce 1C48     		ldr	r0, .L249+32
 2993              	.LVL296:
 2994 02d0 FFF7FEFF 		bl	commands_printf
 2995              	.LVL297:
 2996              	.L219:
 2997              		.loc 1 829 0
 2998 02d4 FFF7FEFF 		bl	nrf_driver_ext_nrf_running
 2999              	.LVL298:
 3000 02d8 18B1     		cbz	r0, .L220
 3001              		.loc 1 830 0
 3002 02da 4FF4FA60 		mov	r0, #2000
 3003 02de FFF7FEFF 		bl	nrf_driver_pause
 3004              	.LVL299:
 3005              	.L220:
 3006              		.loc 1 834 0
 3007 02e2 2868     		ldr	r0, [r5]
 3008 02e4 5146     		mov	r1, r10
 3009 02e6 3246     		mov	r2, r6
 3010 02e8 0630     		adds	r0, r0, #6
 3011 02ea FFF7FEFF 		bl	flash_helper_write_new_app_data
 3012              	.LVL300:
 3013              		.loc 1 835 0
 3014 02ee D5E90023 		ldrd	r2, [r5]
 3015 02f2 9019     		adds	r0, r2, r6
 3016 02f4 43F10001 		adc	r1, r3, #0
 3017              		.loc 1 842 0
 3018 02f8 FF2E     		cmp	r6, #255
 3019              		.loc 1 835 0
 3020 02fa C5E90001 		strd	r0, [r5]
 3021              		.loc 1 842 0
ARM GAS  /tmp/cclkPJWb.s 			page 54


 3022 02fe 5ED9     		bls	.L248
 3023              	.LVL301:
 3024              	.L221:
 3025              		.loc 1 905 0
 3026 0300 2B68     		ldr	r3, [r5]
 3027 0302 1049     		ldr	r1, .L249+36
 3028 0304 9B0A     		lsrs	r3, r3, #10
 3029 0306 0133     		adds	r3, r3, #1
 3030              		.loc 1 908 0
 3031 0308 0022     		movs	r2, #0
 3032              		.loc 1 905 0
 3033 030a 0B81     		strh	r3, [r1, #8]	@ movhi
 3034              		.loc 1 908 0
 3035 030c AA60     		str	r2, [r5, #8]
 3036 030e D7F80CD0 		ldr	sp, [r7, #12]
 3037              	.LVL302:
 3038 0312 D4E6     		b	.L176
 3039              	.LVL303:
 3040              	.L244:
 3041              	.LBE369:
 3042              	.LBE371:
 3043              		.loc 1 1012 0
 3044 0314 0C48     		ldr	r0, .L249+40
 3045 0316 FFF7FEFF 		bl	commands_printf
 3046              	.LVL304:
 3047 031a 0CE7     		b	.L207
 3048              	.L250:
 3049 031c AFF30080 		.align	3
 3050              	.L249:
 3051 0320 26417272 		.word	1920090406
 3052 0324 DF25D7B7 		.word	-1210636833
 3053 0328 00000000 		.word	.LANCHOR9
 3054 032c 00000000 		.word	ch
 3055 0330 00000000 		.word	.LC34
 3056 0334 00000000 		.word	.LANCHOR4
 3057 0338 00000000 		.word	.LANCHOR10
 3058 033c 40000000 		.word	.LC36
 3059 0340 70000000 		.word	.LC37
 3060 0344 00000000 		.word	.LANCHOR1
 3061 0348 30000000 		.word	.LC35
 3062 034c 00000000 		.word	.LANCHOR0
 3063              	.LVL305:
 3064              	.L210:
 3065              	.LBB372:
 3066              	.LBB357:
 3067              	.LBB350:
 3068              		.loc 1 928 0
 3069 0350 05F10C03 		add	r3, r5, #12
 3070 0354 0093     		str	r3, [sp]
 3071 0356 0822     		movs	r2, #8
 3072 0358 3346     		mov	r3, r6
 3073 035a 3146     		mov	r1, r6
 3074 035c 2046     		mov	r0, r4
 3075 035e FFF7FEFF 		bl	canardDecodeScalar
 3076              	.LVL306:
 3077              	.LBB351:
 3078              		.loc 1 930 0
ARM GAS  /tmp/cclkPJWb.s 			page 55


 3079 0362 A38A     		ldrh	r3, [r4, #20]
 3080 0364 012B     		cmp	r3, #1
 3081 0366 13D9     		bls	.L212
 3082              	.LBE351:
 3083              		.loc 1 929 0
 3084 0368 4FF0080A 		mov	r10, #8
 3085              	.LVL307:
 3086              	.L213:
 3087              	.LBB352:
 3088              		.loc 1 931 0
 3089 036c 06F10E03 		add	r3, r6, #14
 3090 0370 2B44     		add	r3, r3, r5
 3091 0372 0093     		str	r3, [sp]
 3092 0374 5146     		mov	r1, r10
 3093 0376 0023     		movs	r3, #0
 3094 0378 0822     		movs	r2, #8
 3095 037a 2046     		mov	r0, r4
 3096 037c FFF7FEFF 		bl	canardDecodeScalar
 3097              	.LVL308:
 3098              		.loc 1 930 0
 3099 0380 A38A     		ldrh	r3, [r4, #20]
 3100 0382 0136     		adds	r6, r6, #1
 3101              	.LVL309:
 3102 0384 F6B2     		uxtb	r6, r6
 3103 0386 013B     		subs	r3, r3, #1
 3104 0388 9E42     		cmp	r6, r3
 3105              		.loc 1 932 0
 3106 038a 0AF1080A 		add	r10, r10, #8
 3107              	.LVL310:
 3108              		.loc 1 930 0
 3109 038e EDDB     		blt	.L213
 3110              	.LVL311:
 3111              	.L212:
 3112              	.LBE352:
 3113              		.loc 1 939 0
 3114 0390 2A7B     		ldrb	r2, [r5, #12]	@ zero_extendqisi2
 3115              	.LBB353:
 3116              	.LBB354:
 3117              		.loc 2 231 0
 3118 0392 DFF8DCA1 		ldr	r10, .L251+52
 3119              	.LBE354:
 3120              	.LBE353:
 3121              		.loc 1 940 0
 3122 0396 694E     		ldr	r6, .L251
 3123              		.loc 1 936 0
 3124 0398 0023     		movs	r3, #0
 3125              		.loc 1 935 0
 3126 039a 0020     		movs	r0, #0
 3127 039c 0021     		movs	r1, #0
 3128 039e C5E90001 		strd	r0, [r5]
 3129              		.loc 1 936 0
 3130 03a2 AB60     		str	r3, [r5, #8]
 3131              		.loc 1 937 0
 3132 03a4 85F8D730 		strb	r3, [r5, #215]
 3133              		.loc 1 938 0
 3134 03a8 C5F8D830 		str	r3, [r5, #216]
 3135              		.loc 1 939 0
ARM GAS  /tmp/cclkPJWb.s 			page 56


 3136 03ac 002A     		cmp	r2, #0
 3137 03ae 7FF4D9AE 		bne	.L211
 3138              	.LBB356:
 3139              	.LBB355:
 3140              		.loc 2 231 0
 3141 03b2 DAF82820 		ldr	r2, [r10, #40]
 3142              	.LBE355:
 3143              	.LBE356:
 3144              		.loc 1 941 0
 3145 03b6 E37E     		ldrb	r3, [r4, #27]	@ zero_extendqisi2
 3146              		.loc 1 940 0
 3147 03b8 3260     		str	r2, [r6]
 3148              		.loc 1 941 0
 3149 03ba 2B73     		strb	r3, [r5, #12]
 3150 03bc D2E6     		b	.L211
 3151              	.LVL312:
 3152              	.L248:
 3153              	.LBE350:
 3154              	.LBE357:
 3155              	.LBE372:
 3156              	.LBB373:
 3157              	.LBB370:
 3158              	.LBB363:
 3159              		.loc 1 844 0
 3160 03be A0F10608 		sub	r8, r0, #6
 3161              	.LVL313:
 3162              		.loc 1 843 0
 3163 03c2 0024     		movs	r4, #0
 3164              	.LVL314:
 3165              		.loc 1 845 0
 3166 03c4 4146     		mov	r1, r8
 3167 03c6 5E48     		ldr	r0, .L251+4
 3168              		.loc 1 843 0
 3169 03c8 2C73     		strb	r4, [r5, #12]
 3170              		.loc 1 845 0
 3171 03ca FFF7FEFF 		bl	crc16
 3172              	.LVL315:
 3173              		.loc 1 854 0
 3174 03ce D9F80030 		ldr	r3, [r9]
 3175              		.loc 1 847 0
 3176 03d2 BC61     		str	r4, [r7, #24]
 3177              		.loc 1 854 0
 3178 03d4 082B     		cmp	r3, #8
 3179              		.loc 1 845 0
 3180 03d6 8346     		mov	fp, r0
 3181              	.LVL316:
 3182              		.loc 1 854 0
 3183 03d8 66D0     		beq	.L237
 3184 03da 07F11804 		add	r4, r7, #24
 3185              	.LVL317:
 3186              	.L222:
 3187              		.loc 1 869 0
 3188 03de 07F12400 		add	r0, r7, #36
 3189              		.loc 1 868 0
 3190 03e2 4FF0000A 		mov	r10, #0
 3191              		.loc 1 869 0
 3192 03e6 2246     		mov	r2, r4
ARM GAS  /tmp/cclkPJWb.s 			page 57


 3193 03e8 4146     		mov	r1, r8
 3194              		.loc 1 868 0
 3195 03ea C7F818A0 		str	r10, [r7, #24]
 3196              		.loc 1 869 0
 3197 03ee FFF7FEFF 		bl	buffer_append_uint32
 3198              	.LVL318:
 3199              		.loc 1 870 0
 3200 03f2 2246     		mov	r2, r4
 3201 03f4 5946     		mov	r1, fp
 3202 03f6 07F12400 		add	r0, r7, #36
 3203 03fa FFF7FEFF 		bl	buffer_append_uint16
 3204              	.LVL319:
 3205              		.loc 1 872 0
 3206 03fe 07F12401 		add	r1, r7, #36
 3207 0402 5046     		mov	r0, r10
 3208 0404 0622     		movs	r2, #6
 3209 0406 FFF7FEFF 		bl	flash_helper_write_new_app_data
 3210              	.LVL320:
 3211              		.loc 1 874 0
 3212 040a D9F80030 		ldr	r3, [r9]
 3213 040e 082B     		cmp	r3, #8
 3214 0410 46D1     		bne	.L223
 3215              	.LBB364:
 3216              		.loc 1 876 0
 3217 0412 2968     		ldr	r1, [r5]
 3218 0414 4B48     		ldr	r0, .L251+8
 3219 0416 FFF7FEFF 		bl	commands_printf
 3220              	.LVL321:
 3221              		.loc 1 877 0
 3222 041a 3146     		mov	r1, r6
 3223 041c 4A48     		ldr	r0, .L251+12
 3224 041e FFF7FEFF 		bl	commands_printf
 3225              	.LVL322:
 3226              		.loc 1 878 0
 3227 0422 4146     		mov	r1, r8
 3228 0424 4948     		ldr	r0, .L251+16
 3229 0426 FFF7FEFF 		bl	commands_printf
 3230              	.LVL323:
 3231              		.loc 1 879 0
 3232 042a 5946     		mov	r1, fp
 3233 042c 4848     		ldr	r0, .L251+20
 3234 042e FFF7FEFF 		bl	commands_printf
 3235              	.LVL324:
 3236              		.loc 1 880 0
 3237 0432 4146     		mov	r1, r8
 3238 0434 4FF00060 		mov	r0, #134217728
 3239 0438 FFF7FEFF 		bl	crc16
 3240              	.LVL325:
 3241              		.loc 1 881 0
 3242 043c 0146     		mov	r1, r0
 3243 043e 4548     		ldr	r0, .L251+24
 3244              	.LVL326:
 3245 0440 FFF7FEFF 		bl	commands_printf
 3246              	.LVL327:
 3247              		.loc 1 885 0
 3248 0444 2146     		mov	r1, r4
 3249 0446 4448     		ldr	r0, .L251+28
ARM GAS  /tmp/cclkPJWb.s 			page 58


 3250              		.loc 1 884 0
 3251 0448 C7F818A0 		str	r10, [r7, #24]
 3252              		.loc 1 885 0
 3253 044c FFF7FEFF 		bl	buffer_get_uint32
 3254              	.LVL328:
 3255              		.loc 1 886 0
 3256 0450 2146     		mov	r1, r4
 3257              		.loc 1 885 0
 3258 0452 8046     		mov	r8, r0
 3259              	.LVL329:
 3260              		.loc 1 886 0
 3261 0454 4048     		ldr	r0, .L251+28
 3262              	.LVL330:
 3263 0456 FFF7FEFF 		bl	buffer_get_uint16
 3264              	.LVL331:
 3265              		.loc 1 887 0
 3266 045a 4146     		mov	r1, r8
 3267              		.loc 1 886 0
 3268 045c 0646     		mov	r6, r0
 3269              	.LVL332:
 3270              		.loc 1 887 0
 3271 045e 3F48     		ldr	r0, .L251+32
 3272 0460 FFF7FEFF 		bl	commands_printf
 3273              	.LVL333:
 3274              		.loc 1 888 0
 3275 0464 3146     		mov	r1, r6
 3276 0466 3E48     		ldr	r0, .L251+36
 3277 0468 FFF7FEFF 		bl	commands_printf
 3278              	.LVL334:
 3279              		.loc 1 889 0
 3280 046c 2146     		mov	r1, r4
 3281 046e 3A48     		ldr	r0, .L251+28
 3282 0470 FFF7FEFF 		bl	buffer_get_uint32
 3283              	.LVL335:
 3284              		.loc 1 890 0
 3285 0474 0146     		mov	r1, r0
 3286 0476 3B48     		ldr	r0, .L251+40
 3287              	.LVL336:
 3288 0478 FFF7FEFF 		bl	commands_printf
 3289              	.LVL337:
 3290              		.loc 1 892 0
 3291 047c 2146     		mov	r1, r4
 3292 047e 4FF00060 		mov	r0, #134217728
 3293              		.loc 1 891 0
 3294 0482 C7F818A0 		str	r10, [r7, #24]
 3295              		.loc 1 892 0
 3296 0486 FFF7FEFF 		bl	buffer_get_uint32
 3297              	.LVL338:
 3298              		.loc 1 893 0
 3299 048a 0146     		mov	r1, r0
 3300 048c 3648     		ldr	r0, .L251+44
 3301              	.LVL339:
 3302 048e FFF7FEFF 		bl	commands_printf
 3303              	.LVL340:
 3304              		.loc 1 894 0
 3305 0492 3648     		ldr	r0, .L251+48
 3306 0494 FFF7FEFF 		bl	commands_printf
ARM GAS  /tmp/cclkPJWb.s 			page 59


 3307              	.LVL341:
 3308              	.LBB365:
 3309              	.LBB366:
 3310              		.loc 2 231 0
 3311 0498 354A     		ldr	r2, .L251+52
 3312              	.LBE366:
 3313              	.LBE365:
 3314              		.loc 1 895 0
 3315 049a 364B     		ldr	r3, .L251+56
 3316              	.LBB368:
 3317              	.LBB367:
 3318              		.loc 2 231 0
 3319 049c 926A     		ldr	r2, [r2, #40]
 3320              	.LBE367:
 3321              	.LBE368:
 3322              		.loc 1 895 0
 3323 049e 1A60     		str	r2, [r3]
 3324              	.LVL342:
 3325              	.L223:
 3326              	.LBE364:
 3327              		.loc 1 901 0
 3328 04a0 354B     		ldr	r3, .L251+60
 3329 04a2 0122     		movs	r2, #1
 3330 04a4 1A70     		strb	r2, [r3]
 3331 04a6 2BE7     		b	.L221
 3332              	.LVL343:
 3333              	.L237:
 3334              		.loc 1 855 0
 3335 04a8 D5E90023 		ldrd	r2, r3, [r5]
 3336 04ac 920A     		lsrs	r2, r2, #10
 3337 04ae 42EA8352 		orr	r2, r2, r3, lsl #22
 3338 04b2 3248     		ldr	r0, .L251+64
 3339 04b4 9B0A     		lsrs	r3, r3, #10
 3340 04b6 FFF7FEFF 		bl	commands_printf
 3341              	.LVL344:
 3342              		.loc 1 859 0
 3343 04ba 07F11804 		add	r4, r7, #24
 3344              		.loc 1 856 0
 3345 04be 2649     		ldr	r1, .L251+28
 3346 04c0 2F48     		ldr	r0, .L251+68
 3347 04c2 FFF7FEFF 		bl	commands_printf
 3348              	.LVL345:
 3349              		.loc 1 859 0
 3350 04c6 2146     		mov	r1, r4
 3351 04c8 2348     		ldr	r0, .L251+28
 3352 04ca FFF7FEFF 		bl	buffer_get_uint32
 3353              	.LVL346:
 3354              		.loc 1 860 0
 3355 04ce 2146     		mov	r1, r4
 3356              		.loc 1 859 0
 3357 04d0 7860     		str	r0, [r7, #4]
 3358              	.LVL347:
 3359              		.loc 1 860 0
 3360 04d2 2148     		ldr	r0, .L251+28
 3361              	.LVL348:
 3362 04d4 FFF7FEFF 		bl	buffer_get_uint16
 3363              	.LVL349:
ARM GAS  /tmp/cclkPJWb.s 			page 60


 3364              		.loc 1 861 0
 3365 04d8 2146     		mov	r1, r4
 3366              		.loc 1 860 0
 3367 04da 8246     		mov	r10, r0
 3368              	.LVL350:
 3369              		.loc 1 861 0
 3370 04dc 1E48     		ldr	r0, .L251+28
 3371 04de FFF7FEFF 		bl	buffer_get_uint32
 3372              	.LVL351:
 3373              		.loc 1 862 0
 3374 04e2 7B68     		ldr	r3, [r7, #4]
 3375              		.loc 1 861 0
 3376 04e4 B860     		str	r0, [r7, #8]
 3377              	.LVL352:
 3378              		.loc 1 862 0
 3379 04e6 1946     		mov	r1, r3
 3380 04e8 2648     		ldr	r0, .L251+72
 3381              	.LVL353:
 3382 04ea FFF7FEFF 		bl	commands_printf
 3383              	.LVL354:
 3384              		.loc 1 863 0
 3385 04ee 5146     		mov	r1, r10
 3386 04f0 2548     		ldr	r0, .L251+76
 3387 04f2 FFF7FEFF 		bl	commands_printf
 3388              	.LVL355:
 3389              		.loc 1 864 0
 3390 04f6 BA68     		ldr	r2, [r7, #8]
 3391 04f8 2448     		ldr	r0, .L251+80
 3392 04fa 1146     		mov	r1, r2
 3393 04fc FFF7FEFF 		bl	commands_printf
 3394              	.LVL356:
 3395 0500 6DE7     		b	.L222
 3396              	.LVL357:
 3397              	.L197:
 3398              	.LBE363:
 3399              	.LBE370:
 3400              	.LBE373:
 3401              	.LBB374:
 3402              	.LBB342:
 3403              	.LBB341:
 3404              		.loc 1 533 0
 3405 0502 90ED080A 		vldr.32	s0, [r0, #32]
 3406 0506 28EE000A 		vmul.f32	s0, s16, s0
 3407 050a FFF7FEFF 		bl	mc_interface_set_pid_speed
 3408              	.LVL358:
 3409              	.L192:
 3410              		.loc 1 539 0
 3411 050e FFF7FEFF 		bl	timeout_reset
 3412              	.LVL359:
 3413 0512 D4E5     		b	.L176
 3414              	.LVL360:
 3415              	.L196:
 3416              		.loc 1 529 0
 3417 0514 B0EE480A 		vmov.f32	s0, s16
 3418 0518 FFF7FEFF 		bl	mc_interface_set_duty
 3419              	.LVL361:
 3420 051c F7E7     		b	.L192
ARM GAS  /tmp/cclkPJWb.s 			page 61


 3421              	.LVL362:
 3422              	.L239:
 3423              		.loc 1 522 0
 3424 051e B0EE480A 		vmov.f32	s0, s16
 3425 0522 FFF7FEFF 		bl	mc_interface_set_current_rel
 3426              	.LVL363:
 3427 0526 F2E7     		b	.L192
 3428              	.LVL364:
 3429              	.L195:
 3430              		.loc 1 521 0
 3431 0528 B5EEC08A 		vcmpe.f32	s16, #0
 3432 052c F1EE10FA 		vmrs	APSR_nzcv, FPSCR
 3433 0530 F5DA     		bge	.L239
 3434              		.loc 1 524 0
 3435 0532 B1EE480A 		vneg.f32	s0, s16
 3436 0536 FFF7FEFF 		bl	mc_interface_set_brake_current_rel
 3437              	.LVL365:
 3438 053a E8E7     		b	.L192
 3439              	.L252:
 3440              		.align	2
 3441              	.L251:
 3442 053c 00000000 		.word	.LANCHOR10
 3443 0540 06000808 		.word	134742022
 3444 0544 34010000 		.word	.LC43
 3445 0548 40010000 		.word	.LC44
 3446 054c 48010000 		.word	.LC45
 3447 0550 54010000 		.word	.LC46
 3448 0554 64010000 		.word	.LC47
 3449 0558 00000808 		.word	134742016
 3450 055c 78010000 		.word	.LC48
 3451 0560 90010000 		.word	.LC49
 3452 0564 AC010000 		.word	.LC50
 3453 0568 BC010000 		.word	.LC51
 3454 056c D4010000 		.word	.LC52
 3455 0570 00000000 		.word	ch
 3456 0574 00000000 		.word	.LANCHOR11
 3457 0578 00000000 		.word	.LANCHOR12
 3458 057c 98000000 		.word	.LC38
 3459 0580 C8000000 		.word	.LC39
 3460 0584 E0000000 		.word	.LC40
 3461 0588 FC000000 		.word	.LC41
 3462 058c 1C010000 		.word	.LC42
 3463              	.LBE341:
 3464              	.LBE342:
 3465              	.LBE374:
 3466              		.cfi_endproc
 3467              	.LFE278:
 3468              		.size	onTransferReceived, .-onTransferReceived
 3469              		.section	.text.canard_driver_init,"ax",%progbits
 3470              		.align	1
 3471              		.p2align 4,,15
 3472              		.global	canard_driver_init
 3473              		.syntax unified
 3474              		.thumb
 3475              		.thumb_func
 3476              		.fpu fpv4-sp-d16
 3477              		.type	canard_driver_init, %function
ARM GAS  /tmp/cclkPJWb.s 			page 62


 3478              	canard_driver_init:
 3479              	.LFB264:
 3480              		.loc 1 316 0
 3481              		.cfi_startproc
 3482              		@ args = 0, pretend = 0, frame = 0
 3483              		@ frame_needed = 0, uses_anonymous_args = 0
 3484 0000 00B5     		push	{lr}
 3485              		.cfi_def_cfa_offset 4
 3486              		.cfi_offset 14, -4
 3487              		.loc 1 317 0
 3488 0002 0F4A     		ldr	r2, .L257
 3489 0004 0F4B     		ldr	r3, .L257+4
 3490 0006 0021     		movs	r1, #0
 3491 0008 1160     		str	r1, [r2]
 3492              	.LVL366:
 3493              		.loc 1 316 0
 3494 000a 83B0     		sub	sp, sp, #12
 3495              		.cfi_def_cfa_offset 16
 3496 000c 03F5B471 		add	r1, r3, #360
 3497              	.LBB375:
 3498              		.loc 1 320 0
 3499 0010 4FF0FF32 		mov	r2, #-1
 3500              	.LVL367:
 3501              	.L254:
 3502              		.loc 1 320 0 is_stmt 0 discriminator 3
 3503 0014 43F8242B 		str	r2, [r3], #36
 3504              		.loc 1 319 0 is_stmt 1 discriminator 3
 3505 0018 8B42     		cmp	r3, r1
 3506 001a FBD1     		bne	.L254
 3507              	.LBE375:
 3508              		.loc 1 323 0
 3509 001c 0023     		movs	r3, #0
 3510 001e 0093     		str	r3, [sp]
 3511 0020 4022     		movs	r2, #64
 3512 0022 094B     		ldr	r3, .L257+8
 3513 0024 0948     		ldr	r0, .L257+12
 3514 0026 4FF4B461 		mov	r1, #1440
 3515 002a FFF7FEFF 		bl	chThdCreateStatic
 3516              	.LVL368:
 3517              		.loc 1 325 0
 3518 002e 084B     		ldr	r3, .L257+16
 3519 0030 084A     		ldr	r2, .L257+20
 3520 0032 0949     		ldr	r1, .L257+24
 3521 0034 0948     		ldr	r0, .L257+28
 3522              		.loc 1 330 0
 3523 0036 03B0     		add	sp, sp, #12
 3524              		.cfi_def_cfa_offset 4
 3525              		@ sp needed
 3526 0038 5DF804EB 		ldr	lr, [sp], #4
 3527              		.cfi_restore 14
 3528              		.cfi_def_cfa_offset 0
 3529              		.loc 1 325 0
 3530 003c FFF7FEBF 		b	terminal_register_command_callback
 3531              	.LVL369:
 3532              	.L258:
 3533              		.align	2
 3534              	.L257:
ARM GAS  /tmp/cclkPJWb.s 			page 63


 3535 0040 00000000 		.word	.LANCHOR0
 3536 0044 00000000 		.word	.LANCHOR9
 3537 0048 00000000 		.word	canard_thread
 3538 004c 00000000 		.word	.LANCHOR13
 3539 0050 00000000 		.word	terminal_debug_on
 3540 0054 00000000 		.word	.LC53
 3541 0058 08000000 		.word	.LC54
 3542 005c 64000000 		.word	.LC55
 3543              		.cfi_endproc
 3544              	.LFE264:
 3545              		.size	canard_driver_init, .-canard_driver_init
 3546              		.global	jump_to_bootloader
 3547              		.global	jump_delay_start
 3548              		.global	last_read_file_req
 3549              		.section	.bss.canard,"aw",%nobits
 3550              		.align	2
 3551              		.set	.LANCHOR5,. + 0
 3552              		.type	canard, %object
 3553              		.size	canard, 36
 3554              	canard:
 3555 0000 00000000 		.space	36
 3555      00000000 
 3555      00000000 
 3555      00000000 
 3555      00000000 
 3556              		.section	.bss.canard_memory_pool,"aw",%nobits
 3557              		.align	2
 3558              		.set	.LANCHOR6,. + 0
 3559              		.type	canard_memory_pool, %object
 3560              		.size	canard_memory_pool, 1024
 3561              	canard_memory_pool:
 3562 0000 00000000 		.space	1024
 3562      00000000 
 3562      00000000 
 3562      00000000 
 3562      00000000 
 3563              		.section	.bss.canard_thread_wa,"aw",%nobits
 3564              		.align	3
 3565              		.set	.LANCHOR13,. + 0
 3566              		.type	canard_thread_wa, %object
 3567              		.size	canard_thread_wa, 1440
 3568              	canard_thread_wa:
 3569 0000 00000000 		.space	1440
 3569      00000000 
 3569      00000000 
 3569      00000000 
 3569      00000000 
 3570              		.section	.bss.debug_level,"aw",%nobits
 3571              		.align	2
 3572              		.set	.LANCHOR0,. + 0
 3573              		.type	debug_level, %object
 3574              		.size	debug_level, 4
 3575              	debug_level:
 3576 0000 00000000 		.space	4
 3577              		.section	.bss.fw_update,"aw",%nobits
 3578              		.align	3
 3579              		.set	.LANCHOR4,. + 0
ARM GAS  /tmp/cclkPJWb.s 			page 64


 3580              		.type	fw_update, %object
 3581              		.size	fw_update, 224
 3582              	fw_update:
 3583 0000 00000000 		.space	224
 3583      00000000 
 3583      00000000 
 3583      00000000 
 3583      00000000 
 3584              		.section	.bss.jump_delay_start,"aw",%nobits
 3585              		.align	2
 3586              		.set	.LANCHOR11,. + 0
 3587              		.type	jump_delay_start, %object
 3588              		.size	jump_delay_start, 4
 3589              	jump_delay_start:
 3590 0000 00000000 		.space	4
 3591              		.section	.bss.jump_to_bootloader,"aw",%nobits
 3592              		.set	.LANCHOR12,. + 0
 3593              		.type	jump_to_bootloader, %object
 3594              		.size	jump_to_bootloader, 1
 3595              	jump_to_bootloader:
 3596 0000 00       		.space	1
 3597              		.section	.bss.last_read_file_req,"aw",%nobits
 3598              		.align	2
 3599              		.set	.LANCHOR10,. + 0
 3600              		.type	last_read_file_req, %object
 3601              		.size	last_read_file_req, 4
 3602              	last_read_file_req:
 3603 0000 00000000 		.space	4
 3604              		.section	.bss.node_status,"aw",%nobits
 3605              		.align	2
 3606              		.set	.LANCHOR1,. + 0
 3607              		.type	node_status, %object
 3608              		.size	node_status, 12
 3609              	node_status:
 3610 0000 00000000 		.space	12
 3610      00000000 
 3610      00000000 
 3611              		.section	.bss.stat_msgs,"aw",%nobits
 3612              		.align	2
 3613              		.set	.LANCHOR9,. + 0
 3614              		.type	stat_msgs, %object
 3615              		.size	stat_msgs, 360
 3616              	stat_msgs:
 3617 0000 00000000 		.space	360
 3617      00000000 
 3617      00000000 
 3617      00000000 
 3617      00000000 
 3618              		.section	.bss.transfer_id.14472,"aw",%nobits
 3619              		.set	.LANCHOR7,. + 0
 3620              		.type	transfer_id.14472, %object
 3621              		.size	transfer_id.14472, 1
 3622              	transfer_id.14472:
 3623 0000 00       		.space	1
 3624              		.section	.bss.transfer_id.14478,"aw",%nobits
 3625              		.set	.LANCHOR8,. + 0
 3626              		.type	transfer_id.14478, %object
ARM GAS  /tmp/cclkPJWb.s 			page 65


 3627              		.size	transfer_id.14478, 1
 3628              	transfer_id.14478:
 3629 0000 00       		.space	1
 3630              		.section	.data.parameters,"aw",%progbits
 3631              		.align	3
 3632              		.set	.LANCHOR2,. + 0
 3633              		.type	parameters, %object
 3634              		.size	parameters, 240
 3635              	parameters:
 3636 0000 F4000000 		.word	.LC11
 3637 0004 01       		.byte	1
 3638 0005 000000   		.space	3
 3639 0008 00000000 		.word	0
 3640 000c 00000000 		.word	0
 3641 0010 00000000 		.word	0
 3642 0014 00000000 		.word	0
 3643 0018 02000000 		.word	2
 3644 001c 00000000 		.word	0
 3645 0020 01000000 		.word	1
 3646 0024 00000000 		.word	0
 3647 0028 00010000 		.word	.LC12
 3648 002c 01       		.byte	1
 3649 002d 000000   		.space	3
 3650 0030 00000000 		.word	0
 3651 0034 00000000 		.word	0
 3652 0038 00000000 		.word	0
 3653 003c 00000000 		.word	0
 3654 0040 08000000 		.word	8
 3655 0044 00000000 		.word	0
 3656 0048 03000000 		.word	3
 3657 004c 00000000 		.word	0
 3658 0050 10010000 		.word	.LC13
 3659 0054 03       		.byte	3
 3660 0055 000000   		.space	3
 3661 0058 00000000 		.word	0
 3662 005c 00000000 		.word	0
 3663 0060 00000000 		.word	0
 3664 0064 00000000 		.word	0
 3665 0068 64000000 		.word	100
 3666 006c 00000000 		.word	0
 3667 0070 32000000 		.word	50
 3668 0074 00000000 		.word	0
 3669 0078 20010000 		.word	.LC14
 3670 007c 01       		.byte	1
 3671 007d 000000   		.space	3
 3672 0080 00000000 		.word	0
 3673 0084 00000000 		.word	0
 3674 0088 00000000 		.word	0
 3675 008c 00000000 		.word	0
 3676 0090 05000000 		.word	5
 3677 0094 00000000 		.word	0
 3678 0098 01000000 		.word	1
 3679 009c 00000000 		.word	0
 3680 00a0 30010000 		.word	.LC15
 3681 00a4 01       		.byte	1
 3682 00a5 000000   		.space	3
 3683 00a8 00000000 		.word	0
ARM GAS  /tmp/cclkPJWb.s 			page 66


 3684 00ac 00000000 		.word	0
 3685 00b0 00000000 		.word	0
 3686 00b4 00000000 		.word	0
 3687 00b8 FF000000 		.word	255
 3688 00bc 00000000 		.word	0
 3689 00c0 00000000 		.word	0
 3690 00c4 00000000 		.word	0
 3691 00c8 40010000 		.word	.LC16
 3692 00cc 01       		.byte	1
 3693 00cd 000000   		.space	3
 3694 00d0 00000000 		.word	0
 3695 00d4 00000000 		.word	0
 3696 00d8 00000000 		.word	0
 3697 00dc 00000000 		.word	0
 3698 00e0 FF000000 		.word	255
 3699 00e4 00000000 		.word	0
 3700 00e8 00000000 		.word	0
 3701 00ec 00000000 		.word	0
 3702              		.section	.data.refresh_parameters_enabled,"aw",%progbits
 3703              		.set	.LANCHOR3,. + 0
 3704              		.type	refresh_parameters_enabled, %object
 3705              		.size	refresh_parameters_enabled, 1
 3706              	refresh_parameters_enabled:
 3707 0000 01       		.byte	1
 3708              		.section	.rodata.canard_driver_init.str1.4,"aMS",%progbits,1
 3709              		.align	2
 3710              	.LC53:
 3711 0000 5B6C6576 		.ascii	"[level]\000"
 3711      656C5D00 
 3712              	.LC54:
 3713 0008 456E6162 		.ascii	"Enable UAVCAN debug prints 0: off 1: errors 2: para"
 3713      6C652055 
 3713      41564341 
 3713      4E206465 
 3713      62756720 
 3714 003b 6D206765 		.ascii	"m getset 3: current calc 4: comms stuff)\000"
 3714      74736574 
 3714      20333A20 
 3714      63757272 
 3714      656E7420 
 3715              	.LC55:
 3716 0064 75617663 		.ascii	"uavcan_debug\000"
 3716      616E5F64 
 3716      65627567 
 3716      00
 3717              		.section	.rodata.canard_thread.str1.4,"aMS",%progbits,1
 3718              		.align	2
 3719              	.LC25:
 3720 0000 55415643 		.ascii	"UAVCAN\000"
 3720      414E00
 3721 0007 00       		.space	1
 3722              	.LC26:
 3723 0008 55415643 		.ascii	"UAVCAN sendESCStatus\000"
 3723      414E2073 
 3723      656E6445 
 3723      53435374 
 3723      61747573 
ARM GAS  /tmp/cclkPJWb.s 			page 67


 3724 001d 000000   		.space	3
 3725              	.LC27:
 3726 0020 45534320 		.ascii	"ESC timeout for NodeID: %d\000"
 3726      74696D65 
 3726      6F757420 
 3726      666F7220 
 3726      4E6F6465 
 3727 003b 00       		.space	1
 3728              	.LC28:
 3729 003c 546F7461 		.ascii	"Total number of nodes: %d\000"
 3729      6C206E75 
 3729      6D626572 
 3729      206F6620 
 3729      6E6F6465 
 3730 0056 0000     		.space	2
 3731              	.LC29:
 3732 0058 546F7461 		.ascii	"Total Current: %0.02f\000"
 3732      6C204375 
 3732      7272656E 
 3732      743A2025 
 3732      302E3032 
 3733 006e 0000     		.space	2
 3734              	.LC30:
 3735 0070 546F7461 		.ascii	"Total Sys Curr: %0.02f\000"
 3735      6C205379 
 3735      73204375 
 3735      72723A20 
 3735      25302E30 
 3736 0087 00       		.space	1
 3737              	.LC31:
 3738 0088 41766572 		.ascii	"Average Voltage: %0.02f\000"
 3738      61676520 
 3738      566F6C74 
 3738      6167653A 
 3738      2025302E 
 3739              	.LC32:
 3740 00a0 4D617820 		.ascii	"Max Current: %0.02f\000"
 3740      43757272 
 3740      656E743A 
 3740      2025302E 
 3740      30326600 
 3741              	.LC33:
 3742 00b4 52656672 		.ascii	"Refreshing Parameters Time Delta: %d\000"
 3742      65736869 
 3742      6E672050 
 3742      6172616D 
 3742      65746572 
 3743              		.section	.rodata.getParamByName.str1.4,"aMS",%progbits,1
 3744              		.align	2
 3745              	.LC3:
 3746 0000 6E616D65 		.ascii	"name: %s paramname: %s\000"
 3746      3A202573 
 3746      20706172 
 3746      616D6E61 
 3746      6D653A20 
 3747 0017 00       		.space	1
 3748              	.LC4:
ARM GAS  /tmp/cclkPJWb.s 			page 68


 3749 0018 666F756E 		.ascii	"found match!\000"
 3749      64206D61 
 3749      74636821 
 3749      00
 3750              		.section	.rodata.handle_get_node_info.str1.4,"aMS",%progbits,1
 3751              		.align	2
 3752              	.LC2:
 3753 0000 436F756C 		.ascii	"Could not respond to GetNodeInfo: %d\012\000"
 3753      64206E6F 
 3753      74207265 
 3753      73706F6E 
 3753      6420746F 
 3754 0026 0000     		.space	2
 3755              	.LC1:
 3756 0028 6F72672E 		.ascii	"org.vesc.GIGAVESC\000"
 3756      76657363 
 3756      2E474947 
 3756      41564553 
 3756      4300
 3757              		.section	.rodata.handle_param_getset.str1.4,"aMS",%progbits,1
 3758              		.align	2
 3759              	.LC5:
 3760 0000 55415643 		.ascii	"UAVCAN param_getset: Parameter Name is too long!\000"
 3760      414E2070 
 3760      6172616D 
 3760      5F676574 
 3760      7365743A 
 3761 0031 000000   		.space	3
 3762              	.LC6:
 3763 0034 55415643 		.ascii	"UAVCAN param_getset param name: %s\000"
 3763      414E2070 
 3763      6172616D 
 3763      5F676574 
 3763      73657420 
 3764 0057 00       		.space	1
 3765              	.LC7:
 3766 0058 55415643 		.ascii	"UAVCAN param_getset param index: %d\000"
 3766      414E2070 
 3766      6172616D 
 3766      5F676574 
 3766      73657420 
 3767              	.LC8:
 3768 007c 496E6465 		.ascii	"Index is out of range\000"
 3768      78206973 
 3768      206F7574 
 3768      206F6620 
 3768      72616E67 
 3769 0092 0000     		.space	2
 3770              	.LC9:
 3771 0094 53697A65 		.ascii	"Size of parameter array is: %d\000"
 3771      206F6620 
 3771      70617261 
 3771      6D657465 
 3771      72206172 
 3772 00b3 00       		.space	1
 3773              	.LC10:
 3774 00b4 55415643 		.ascii	"UAVCAN param_getset got\012name: %s\012size: %d\012"
ARM GAS  /tmp/cclkPJWb.s 			page 69


 3774      414E2070 
 3774      6172616D 
 3774      5F676574 
 3774      73657420 
 3775 00de 74797065 		.ascii	"type: %d\012value: %d\000"
 3775      3A202564 
 3775      0A76616C 
 3775      75653A20 
 3775      256400
 3776 00f1 000000   		.space	3
 3777              	.LC11:
 3778 00f4 75617663 		.ascii	"uavcan_mode\000"
 3778      616E5F6D 
 3778      6F646500 
 3779              	.LC12:
 3780 0100 63616E5F 		.ascii	"can_baud_rate\000"
 3780      62617564 
 3780      5F726174 
 3780      6500
 3781 010e 0000     		.space	2
 3782              	.LC13:
 3783 0110 63616E5F 		.ascii	"can_status_rate\000"
 3783      73746174 
 3783      75735F72 
 3783      61746500 
 3784              	.LC14:
 3785 0120 63616E5F 		.ascii	"can_send_status\000"
 3785      73656E64 
 3785      5F737461 
 3785      74757300 
 3786              	.LC15:
 3787 0130 63616E5F 		.ascii	"can_esc_index\000"
 3787      6573635F 
 3787      696E6465 
 3787      7800
 3788 013e 0000     		.space	2
 3789              	.LC16:
 3790 0140 636F6E74 		.ascii	"controller_id\000"
 3790      726F6C6C 
 3790      65725F69 
 3790      6400
 3791 014e 0000     		.space	2
 3792              	.LC17:
 3793 0150 55415643 		.ascii	"UAVCAN param_getset: Sending %s\000"
 3793      414E2070 
 3793      6172616D 
 3793      5F676574 
 3793      7365743A 
 3794              	.LC18:
 3795 0170 436F756C 		.ascii	"Could not respond to param_getset_req: %d\012\000"
 3795      64206E6F 
 3795      74207265 
 3795      73706F6E 
 3795      6420746F 
 3796              		.section	.rodata.onTransferReceived.str1.4,"aMS",%progbits,1
 3797              		.align	2
 3798              	.LC34:
ARM GAS  /tmp/cclkPJWb.s 			page 70


 3799 0000 55415643 		.ascii	"UAVCAN transfer RX: NODE: %d Type: %d ID: %d\000"
 3799      414E2074 
 3799      72616E73 
 3799      66657220 
 3799      52583A20 
 3800 002d 000000   		.space	3
 3801              	.LC35:
 3802 0030 52657374 		.ascii	"RestartNode\012\000"
 3802      6172744E 
 3802      6F64650A 
 3802      00
 3803 003d 000000   		.space	3
 3804              	.LC36:
 3805 0040 55415643 		.ascii	"UAVCAN Begin firmware update from node_id: %d\000"
 3805      414E2042 
 3805      6567696E 
 3805      20666972 
 3805      6D776172 
 3806 006e 0000     		.space	2
 3807              	.LC37:
 3808 0070 55415643 		.ascii	"UAVCAN read_response\012len: %d\012offset: %d\000"
 3808      414E2072 
 3808      6561645F 
 3808      72657370 
 3808      6F6E7365 
 3809              	.LC38:
 3810 0098 55415643 		.ascii	"UAVCAN read_response transfer finished %d kB\000"
 3810      414E2072 
 3810      6561645F 
 3810      72657370 
 3810      6F6E7365 
 3811 00c5 000000   		.space	3
 3812              	.LC39:
 3813 00c8 6E657720 		.ascii	"new app address: 0x%lx\000"
 3813      61707020 
 3813      61646472 
 3813      6573733A 
 3813      20307825 
 3814 00df 00       		.space	1
 3815              	.LC40:
 3816 00e0 6F726967 		.ascii	"orig size from flash: 0x%lx\000"
 3816      2073697A 
 3816      65206672 
 3816      6F6D2066 
 3816      6C617368 
 3817              	.LC41:
 3818 00fc 6F726967 		.ascii	"orig crc from flash: 0x%02hhX\000"
 3818      20637263 
 3818      2066726F 
 3818      6D20666C 
 3818      6173683A 
 3819 011a 0000     		.space	2
 3820              	.LC42:
 3821 011c 6F726967 		.ascii	"orig nextData: 0x%08lx\000"
 3821      206E6578 
 3821      74446174 
 3821      613A2030 
ARM GAS  /tmp/cclkPJWb.s 			page 71


 3821      78253038 
 3822 0133 00       		.space	1
 3823              	.LC43:
 3824 0134 6F66733A 		.ascii	"ofs: %ld\000"
 3824      20256C64 
 3824      00
 3825 013d 000000   		.space	3
 3826              	.LC44:
 3827 0140 6C656E3A 		.ascii	"len: %d\000"
 3827      20256400 
 3828              	.LC45:
 3829 0148 53697A65 		.ascii	"Size: 0x%lx\000"
 3829      3A203078 
 3829      256C7800 
 3830              	.LC46:
 3831 0154 63726331 		.ascii	"crc16: 0x%02hhX\000"
 3831      363A2030 
 3831      78253032 
 3831      68685800 
 3832              	.LC47:
 3833 0164 61707020 		.ascii	"app crc16: 0x%02hhX\000"
 3833      63726331 
 3833      363A2030 
 3833      78253032 
 3833      68685800 
 3834              	.LC48:
 3835 0178 73697A65 		.ascii	"size from flash: 0x%lx\000"
 3835      2066726F 
 3835      6D20666C 
 3835      6173683A 
 3835      20307825 
 3836 018f 00       		.space	1
 3837              	.LC49:
 3838 0190 63726320 		.ascii	"crc from flash: 0x%02hhX\000"
 3838      66726F6D 
 3838      20666C61 
 3838      73683A20 
 3838      30782530 
 3839 01a9 000000   		.space	3
 3840              	.LC50:
 3841 01ac 6E657874 		.ascii	"nextData: 0x%lx\000"
 3841      44617461 
 3841      3A203078 
 3841      256C7800 
 3842              	.LC51:
 3843 01bc 61707053 		.ascii	"appStartData: 0x%08lx\000"
 3843      74617274 
 3843      44617461 
 3843      3A203078 
 3843      2530386C 
 3844 01d2 0000     		.space	2
 3845              	.LC52:
 3846 01d4 4A756D70 		.ascii	"Jumping to Bootloader in 500ms!\000"
 3846      696E6720 
 3846      746F2042 
 3846      6F6F746C 
 3846      6F616465 
ARM GAS  /tmp/cclkPJWb.s 			page 72


 3847              		.section	.rodata.shouldAcceptTransfer.str1.4,"aMS",%progbits,1
 3848              		.align	2
 3849              	.LC0:
 3850 0000 55415643 		.ascii	"UAVCAN shouldAccept: NODE: %d Type: %d ID: %d\000"
 3850      414E2073 
 3850      686F756C 
 3850      64416363 
 3850      6570743A 
 3851              		.section	.rodata.terminal_debug_on.str1.4,"aMS",%progbits,1
 3852              		.align	2
 3853              	.LC19:
 3854 0000 256400   		.ascii	"%d\000"
 3855 0003 00       		.space	1
 3856              	.LC20:
 3857 0004 55415643 		.ascii	"UAVCAN debug level is now %d\000"
 3857      414E2064 
 3857      65627567 
 3857      206C6576 
 3857      656C2069 
 3858 0021 000000   		.space	3
 3859              	.LC21:
 3860 0024 496E7661 		.ascii	"Invalid argument(s).\012\000"
 3860      6C696420 
 3860      61726775 
 3860      6D656E74 
 3860      2873292E 
 3861 003a 0000     		.space	2
 3862              	.LC22:
 3863 003c 54686973 		.ascii	"This command requires one argument.\012\000"
 3863      20636F6D 
 3863      6D616E64 
 3863      20726571 
 3863      75697265 
 3864              		.section	.rodata.updateParamByName.str1.4,"aMS",%progbits,1
 3865              		.align	2
 3866              	.LC23:
 3867 0000 25732C20 		.ascii	"%s, %s p->val %0.02f, value %0.02f\000"
 3867      25732070 
 3867      2D3E7661 
 3867      6C202530 
 3867      2E303266 
 3868 0023 00       		.space	1
 3869              	.LC24:
 3870 0024 55415643 		.ascii	"UAVCAN updateParamByName(): Parameter name not foun"
 3870      414E2075 
 3870      70646174 
 3870      65506172 
 3870      616D4279 
 3871 0057 6400     		.ascii	"d\000"
 3872              		.text
 3873              	.Letext0:
 3874              		.file 5 "/usr/lib/gcc/arm-none-eabi/7.3.1/include/stddef.h"
 3875              		.file 6 "/usr/arm-none-eabi/include/machine/_default_types.h"
 3876              		.file 7 "/usr/arm-none-eabi/include/sys/lock.h"
 3877              		.file 8 "/usr/arm-none-eabi/include/sys/_types.h"
 3878              		.file 9 "/usr/arm-none-eabi/include/sys/reent.h"
 3879              		.file 10 "/usr/arm-none-eabi/include/math.h"
ARM GAS  /tmp/cclkPJWb.s 			page 73


 3880              		.file 11 "/usr/arm-none-eabi/include/sys/_stdint.h"
 3881              		.file 12 "ChibiOS_3.0.5/os/rt/ports/ARMCMx/compilers/GCC/chtypes.h"
 3882              		.file 13 "ChibiOS_3.0.5/os/rt/include/chsystypes.h"
 3883              		.file 14 "ChibiOS_3.0.5/os/rt/include/chschd.h"
 3884              		.file 15 "ChibiOS_3.0.5/os/ext/CMSIS/include/core_cm4.h"
 3885              		.file 16 "ChibiOS_3.0.5/os/ext/CMSIS/ST/system_stm32f4xx.h"
 3886              		.file 17 "ChibiOS_3.0.5/os/ext/CMSIS/ST/stm32f407xx.h"
 3887              		.file 18 "ChibiOS_3.0.5/os/rt/ports/ARMCMx/chcore.h"
 3888              		.file 19 "ChibiOS_3.0.5/os/rt/ports/ARMCMx/chcore_v7m.h"
 3889              		.file 20 "ChibiOS_3.0.5/os/rt/include/chtm.h"
 3890              		.file 21 "ChibiOS_3.0.5/os/rt/include/chsem.h"
 3891              		.file 22 "ChibiOS_3.0.5/os/rt/include/chmtx.h"
 3892              		.file 23 "ChibiOS_3.0.5/os/rt/include/chevents.h"
 3893              		.file 24 "ChibiOS_3.0.5/os/rt/include/chqueues.h"
 3894              		.file 25 "./datatypes.h"
 3895              		.file 26 "./conf_general.h"
 3896              		.file 27 "ChibiOS_3.0.5/os/hal/ports/STM32/STM32F4xx/stm32_dma.h"
 3897              		.file 28 "ChibiOS_3.0.5/os/hal/ports/STM32/LLD/GPIOv2/pal_lld.h"
 3898              		.file 29 "ChibiOS_3.0.5/os/hal/include/can.h"
 3899              		.file 30 "ChibiOS_3.0.5/os/hal/ports/STM32/LLD/can_lld.h"
 3900              		.file 31 "ChibiOS_3.0.5/os/hal/include/i2c.h"
 3901              		.file 32 "ChibiOS_3.0.5/os/hal/ports/STM32/LLD/I2Cv1/i2c_lld.h"
 3902              		.file 33 "ChibiOS_3.0.5/os/hal/include/icu.h"
 3903              		.file 34 "ChibiOS_3.0.5/os/hal/ports/STM32/LLD/TIMv1/icu_lld.h"
 3904              		.file 35 "ChibiOS_3.0.5/os/hal/ports/STM32/LLD/TIMv1/stm32_tim.h"
 3905              		.file 36 "ChibiOS_3.0.5/os/hal/include/serial.h"
 3906              		.file 37 "ChibiOS_3.0.5/os/hal/ports/STM32/LLD/USARTv1/serial_lld.h"
 3907              		.file 38 "ChibiOS_3.0.5/os/hal/include/spi.h"
 3908              		.file 39 "ChibiOS_3.0.5/os/hal/ports/STM32/LLD/SPIv1/spi_lld.h"
 3909              		.file 40 "ChibiOS_3.0.5/os/hal/include/usb.h"
 3910              		.file 41 "ChibiOS_3.0.5/os/hal/ports/STM32/LLD/OTGv1/usb_lld.h"
 3911              		.file 42 "ChibiOS_3.0.5/os/hal/ports/STM32/LLD/OTGv1/stm32_otg.h"
 3912              		.file 43 "libcanard/canard.h"
 3913              		.file 44 "libcanard/dsdl/uavcan/equipment/esc/Status.h"
 3914              		.file 45 "libcanard/dsdl/uavcan/equipment/esc/RawCommand.h"
 3915              		.file 46 "libcanard/dsdl/uavcan/equipment/esc/RPMCommand.h"
 3916              		.file 47 "libcanard/dsdl/uavcan/protocol/param/Empty.h"
 3917              		.file 48 "libcanard/dsdl/uavcan/protocol/param/NumericValue.h"
 3918              		.file 49 "libcanard/dsdl/uavcan/protocol/param/Value.h"
 3919              		.file 50 "libcanard/dsdl/uavcan/protocol/param/GetSet.h"
 3920              		.file 51 "libcanard/dsdl/uavcan/protocol/HardwareVersion.h"
 3921              		.file 52 "libcanard/dsdl/uavcan/protocol/NodeStatus.h"
 3922              		.file 53 "libcanard/dsdl/uavcan/protocol/SoftwareVersion.h"
 3923              		.file 54 "libcanard/dsdl/uavcan/protocol/GetNodeInfo.h"
 3924              		.file 55 "libcanard/dsdl/uavcan/protocol/file/BeginFirmwareUpdate.h"
 3925              		.file 56 "./commands.h"
 3926              		.file 57 "./mc_interface.h"
 3927              		.file 58 "./comm_can.h"
 3928              		.file 59 "applications/app.h"
 3929              		.file 60 "ChibiOS_3.0.5/os/rt/include/chthreads.h"
 3930              		.file 61 "./flash_helper.h"
 3931              		.file 62 "./timeout.h"
 3932              		.file 63 "<built-in>"
 3933              		.file 64 "./crc.h"
 3934              		.file 65 "./buffer.h"
 3935              		.file 66 "nrf/nrf_driver.h"
 3936              		.file 67 "/usr/arm-none-eabi/include/string.h"
ARM GAS  /tmp/cclkPJWb.s 			page 74


 3937              		.file 68 "./mempools.h"
 3938              		.file 69 "./terminal.h"
 3939              		.file 70 "/usr/arm-none-eabi/include/stdio.h"