ARM GAS  /tmp/ccX4yBEC.s 			page 1


   1              		.cpu cortex-m4
   2              		.eabi_attribute 27, 1
   3              		.eabi_attribute 28, 1
   4              		.eabi_attribute 20, 1
   5              		.eabi_attribute 21, 1
   6              		.eabi_attribute 23, 3
   7              		.eabi_attribute 24, 1
   8              		.eabi_attribute 25, 1
   9              		.eabi_attribute 26, 1
  10              		.eabi_attribute 30, 2
  11              		.eabi_attribute 34, 1
  12              		.eabi_attribute 18, 4
  13              		.file	"chcond.c"
  14              		.text
  15              	.Ltext0:
  16              		.cfi_sections	.debug_frame
  17              		.section	.text.chCondObjectInit,"ax",%progbits
  18              		.align	1
  19              		.p2align 4,,15
  20              		.global	chCondObjectInit
  21              		.syntax unified
  22              		.thumb
  23              		.thumb_func
  24              		.fpu fpv4-sp-d16
  25              		.type	chCondObjectInit, %function
  26              	chCondObjectInit:
  27              	.LFB219:
  28              		.file 1 "ChibiOS_3.0.5/os/rt/src/chcond.c"
  29              		.loc 1 75 0
  30              		.cfi_startproc
  31              		@ args = 0, pretend = 0, frame = 0
  32              		@ frame_needed = 0, uses_anonymous_args = 0
  33              		@ link register save eliminated.
  34              	.LVL0:
  35              	.LBB89:
  36              	.LBB90:
  37              		.file 2 "ChibiOS_3.0.5/os/rt/include/chschd.h"
  38              		.loc 2 605 0
  39 0000 C0E90000 		strd	r0, r0, [r0]
  40              	.LVL1:
  41              	.LBE90:
  42              	.LBE89:
  43              		.loc 1 80 0
  44 0004 7047     		bx	lr
  45              		.cfi_endproc
  46              	.LFE219:
  47              		.size	chCondObjectInit, .-chCondObjectInit
  48 0006 00BF     		.section	.text.chCondSignal,"ax",%progbits
  49              		.align	1
  50              		.p2align 4,,15
  51              		.global	chCondSignal
  52              		.syntax unified
  53              		.thumb
  54              		.thumb_func
  55              		.fpu fpv4-sp-d16
  56              		.type	chCondSignal, %function
  57              	chCondSignal:
ARM GAS  /tmp/ccX4yBEC.s 			page 2


  58              	.LFB220:
  59              		.loc 1 89 0
  60              		.cfi_startproc
  61              		@ args = 0, pretend = 0, frame = 0
  62              		@ frame_needed = 0, uses_anonymous_args = 0
  63              	.LVL2:
  64              	.LBB91:
  65              	.LBB92:
  66              	.LBB93:
  67              	.LBB94:
  68              		.file 3 "ChibiOS_3.0.5/os/ext/CMSIS/include/core_cmFunc.h"
  69              		.loc 3 342 0
  70              		.syntax unified
  71              	@ 342 "ChibiOS_3.0.5/os/ext/CMSIS/include/core_cmFunc.h" 1
  72 0000 72B6     		cpsid i
  73              	@ 0 "" 2
  74              	.LVL3:
  75              		.thumb
  76              		.syntax unified
  77              	.LBE94:
  78              	.LBE93:
  79              	.LBE92:
  80              	.LBE91:
  81              	.LBB95:
  82              	.LBB96:
  83              		.loc 2 631 0
  84 0002 0268     		ldr	r2, [r0]
  85              	.LVL4:
  86              	.LBE96:
  87              	.LBE95:
  88              		.loc 1 94 0
  89 0004 9042     		cmp	r0, r2
  90 0006 0AD0     		beq	.L6
  91              	.LBB97:
  92              	.LBB98:
  93              		.loc 2 674 0
  94 0008 1168     		ldr	r1, [r2]
  95              	.LBE98:
  96              	.LBE97:
  97              		.loc 1 89 0
  98 000a 08B5     		push	{r3, lr}
  99              		.cfi_def_cfa_offset 8
 100              		.cfi_offset 3, -8
 101              		.cfi_offset 14, -4
 102 000c 0346     		mov	r3, r0
 103              	.LVL5:
 104              	.LBB100:
 105              	.LBB99:
 106              		.loc 2 674 0
 107 000e 0160     		str	r1, [r0]
 108              		.loc 2 675 0
 109 0010 4B60     		str	r3, [r1, #4]
 110              	.LVL6:
 111              	.LBE99:
 112              	.LBE100:
 113              		.loc 1 95 0
 114 0012 1046     		mov	r0, r2
ARM GAS  /tmp/ccX4yBEC.s 			page 3


 115              	.LVL7:
 116 0014 0021     		movs	r1, #0
 117 0016 FFF7FEFF 		bl	chSchWakeupS
 118              	.LVL8:
 119              	.LBB101:
 120              	.LBB102:
 121              	.LBB103:
 122              	.LBB104:
 123              	.LBB105:
 124              		.loc 3 331 0
 125              		.syntax unified
 126              	@ 331 "ChibiOS_3.0.5/os/ext/CMSIS/include/core_cmFunc.h" 1
 127 001a 62B6     		cpsie i
 128              	@ 0 "" 2
 129              		.thumb
 130              		.syntax unified
 131              	.LBE105:
 132              	.LBE104:
 133              	.LBE103:
 134              	.LBE102:
 135              	.LBE101:
 136              		.loc 1 98 0
 137 001c 08BD     		pop	{r3, pc}
 138              	.LVL9:
 139              	.L6:
 140              		.cfi_def_cfa_offset 0
 141              		.cfi_restore 3
 142              		.cfi_restore 14
 143              	.LBB110:
 144              	.LBB109:
 145              	.LBB108:
 146              	.LBB107:
 147              	.LBB106:
 148              		.loc 3 331 0
 149              		.syntax unified
 150              	@ 331 "ChibiOS_3.0.5/os/ext/CMSIS/include/core_cmFunc.h" 1
 151 001e 62B6     		cpsie i
 152              	@ 0 "" 2
 153              		.thumb
 154              		.syntax unified
 155 0020 7047     		bx	lr
 156              	.LBE106:
 157              	.LBE107:
 158              	.LBE108:
 159              	.LBE109:
 160              	.LBE110:
 161              		.cfi_endproc
 162              	.LFE220:
 163              		.size	chCondSignal, .-chCondSignal
 164 0022 00BF     		.section	.text.chCondSignalI,"ax",%progbits
 165              		.align	1
 166              		.p2align 4,,15
 167              		.global	chCondSignalI
 168              		.syntax unified
 169              		.thumb
 170              		.thumb_func
 171              		.fpu fpv4-sp-d16
ARM GAS  /tmp/ccX4yBEC.s 			page 4


 172              		.type	chCondSignalI, %function
 173              	chCondSignalI:
 174              	.LFB221:
 175              		.loc 1 111 0
 176              		.cfi_startproc
 177              		@ args = 0, pretend = 0, frame = 0
 178              		@ frame_needed = 0, uses_anonymous_args = 0
 179              		@ link register save eliminated.
 180              	.LVL10:
 181              	.LBB111:
 182              	.LBB112:
 183              		.loc 2 631 0
 184 0000 0368     		ldr	r3, [r0]
 185              	.LVL11:
 186              	.LBE112:
 187              	.LBE111:
 188              		.loc 1 116 0
 189 0002 9842     		cmp	r0, r3
 190 0004 07D0     		beq	.L9
 191              	.LVL12:
 192              	.LBB113:
 193              	.LBB114:
 194              	.LBB115:
 195              		.loc 2 674 0
 196 0006 1A68     		ldr	r2, [r3]
 197 0008 0260     		str	r2, [r0]
 198              	.LBE115:
 199              	.LBE114:
 200              		.loc 1 118 0
 201 000a 0021     		movs	r1, #0
 202              	.LBB117:
 203              	.LBB116:
 204              		.loc 2 675 0
 205 000c 5060     		str	r0, [r2, #4]
 206              	.LVL13:
 207              	.LBE116:
 208              	.LBE117:
 209              		.loc 1 119 0
 210 000e 1846     		mov	r0, r3
 211              	.LVL14:
 212              		.loc 1 118 0
 213 0010 9962     		str	r1, [r3, #40]
 214              		.loc 1 119 0
 215 0012 FFF7FEBF 		b	chSchReadyI
 216              	.LVL15:
 217              	.L9:
 218              	.LBE113:
 219              		.loc 1 121 0
 220 0016 7047     		bx	lr
 221              		.cfi_endproc
 222              	.LFE221:
 223              		.size	chCondSignalI, .-chCondSignalI
 224              		.section	.text.chCondBroadcast,"ax",%progbits
 225              		.align	1
 226              		.p2align 4,,15
 227              		.global	chCondBroadcast
 228              		.syntax unified
ARM GAS  /tmp/ccX4yBEC.s 			page 5


 229              		.thumb
 230              		.thumb_func
 231              		.fpu fpv4-sp-d16
 232              		.type	chCondBroadcast, %function
 233              	chCondBroadcast:
 234              	.LFB222:
 235              		.loc 1 130 0
 236              		.cfi_startproc
 237              		@ args = 0, pretend = 0, frame = 0
 238              		@ frame_needed = 0, uses_anonymous_args = 0
 239              	.LVL16:
 240 0000 38B5     		push	{r3, r4, r5, lr}
 241              		.cfi_def_cfa_offset 16
 242              		.cfi_offset 3, -16
 243              		.cfi_offset 4, -12
 244              		.cfi_offset 5, -8
 245              		.cfi_offset 14, -4
 246              	.LBB118:
 247              	.LBB119:
 248              	.LBB120:
 249              	.LBB121:
 250              		.loc 3 342 0
 251              		.syntax unified
 252              	@ 342 "ChibiOS_3.0.5/os/ext/CMSIS/include/core_cmFunc.h" 1
 253 0002 72B6     		cpsid i
 254              	@ 0 "" 2
 255              	.LVL17:
 256              		.thumb
 257              		.syntax unified
 258              	.LBE121:
 259              	.LBE120:
 260              	.LBE119:
 261              	.LBE118:
 262              	.LBB122:
 263              	.LBB123:
 264              	.LBB124:
 265              	.LBB125:
 266              		.loc 2 631 0
 267 0004 0368     		ldr	r3, [r0]
 268              	.LVL18:
 269              	.LBE125:
 270              	.LBE124:
 271              		.loc 1 157 0
 272 0006 9842     		cmp	r0, r3
 273 0008 0CD0     		beq	.L12
 274 000a 0446     		mov	r4, r0
 275              		.loc 1 158 0
 276 000c 6FF00105 		mvn	r5, #1
 277              	.LVL19:
 278              	.L13:
 279              	.LBB127:
 280              	.LBB128:
 281              		.loc 2 674 0
 282 0010 1A68     		ldr	r2, [r3]
 283 0012 2260     		str	r2, [r4]
 284              	.LBE128:
 285              	.LBE127:
ARM GAS  /tmp/ccX4yBEC.s 			page 6


 286              		.loc 1 158 0
 287 0014 1846     		mov	r0, r3
 288              	.LBB130:
 289              	.LBB129:
 290              		.loc 2 675 0
 291 0016 5460     		str	r4, [r2, #4]
 292              	.LVL20:
 293              	.LBE129:
 294              	.LBE130:
 295              		.loc 1 158 0
 296 0018 FFF7FEFF 		bl	chSchReadyI
 297              	.LVL21:
 298              	.LBB131:
 299              	.LBB126:
 300              		.loc 2 631 0
 301 001c 2368     		ldr	r3, [r4]
 302              	.LBE126:
 303              	.LBE131:
 304              		.loc 1 158 0
 305 001e 8562     		str	r5, [r0, #40]
 306              		.loc 1 157 0
 307 0020 A342     		cmp	r3, r4
 308 0022 F5D1     		bne	.L13
 309              	.LVL22:
 310              	.L12:
 311              	.LBE123:
 312              	.LBE122:
 313              		.loc 1 134 0
 314 0024 FFF7FEFF 		bl	chSchRescheduleS
 315              	.LVL23:
 316              	.LBB132:
 317              	.LBB133:
 318              	.LBB134:
 319              	.LBB135:
 320              	.LBB136:
 321              		.loc 3 331 0
 322              		.syntax unified
 323              	@ 331 "ChibiOS_3.0.5/os/ext/CMSIS/include/core_cmFunc.h" 1
 324 0028 62B6     		cpsie i
 325              	@ 0 "" 2
 326              		.thumb
 327              		.syntax unified
 328              	.LBE136:
 329              	.LBE135:
 330              	.LBE134:
 331              	.LBE133:
 332              	.LBE132:
 333              		.loc 1 136 0
 334 002a 38BD     		pop	{r3, r4, r5, pc}
 335              		.cfi_endproc
 336              	.LFE222:
 337              		.size	chCondBroadcast, .-chCondBroadcast
 338              		.section	.text.chCondBroadcastI,"ax",%progbits
 339              		.align	1
 340              		.p2align 4,,15
 341              		.global	chCondBroadcastI
 342              		.syntax unified
ARM GAS  /tmp/ccX4yBEC.s 			page 7


 343              		.thumb
 344              		.thumb_func
 345              		.fpu fpv4-sp-d16
 346              		.type	chCondBroadcastI, %function
 347              	chCondBroadcastI:
 348              	.LFB223:
 349              		.loc 1 149 0
 350              		.cfi_startproc
 351              		@ args = 0, pretend = 0, frame = 0
 352              		@ frame_needed = 0, uses_anonymous_args = 0
 353              	.LVL24:
 354 0000 38B5     		push	{r3, r4, r5, lr}
 355              		.cfi_def_cfa_offset 16
 356              		.cfi_offset 3, -16
 357              		.cfi_offset 4, -12
 358              		.cfi_offset 5, -8
 359              		.cfi_offset 14, -4
 360              	.LBB137:
 361              	.LBB138:
 362              		.loc 2 631 0
 363 0002 0368     		ldr	r3, [r0]
 364              	.LVL25:
 365              	.LBE138:
 366              	.LBE137:
 367              		.loc 1 157 0
 368 0004 8342     		cmp	r3, r0
 369 0006 0CD0     		beq	.L16
 370 0008 0446     		mov	r4, r0
 371              		.loc 1 158 0
 372 000a 6FF00105 		mvn	r5, #1
 373              	.LVL26:
 374              	.L18:
 375              	.LBB140:
 376              	.LBB141:
 377              		.loc 2 674 0
 378 000e 1A68     		ldr	r2, [r3]
 379 0010 2260     		str	r2, [r4]
 380              	.LBE141:
 381              	.LBE140:
 382              		.loc 1 158 0
 383 0012 1846     		mov	r0, r3
 384              	.LBB143:
 385              	.LBB142:
 386              		.loc 2 675 0
 387 0014 5460     		str	r4, [r2, #4]
 388              	.LVL27:
 389              	.LBE142:
 390              	.LBE143:
 391              		.loc 1 158 0
 392 0016 FFF7FEFF 		bl	chSchReadyI
 393              	.LVL28:
 394              	.LBB144:
 395              	.LBB139:
 396              		.loc 2 631 0
 397 001a 2368     		ldr	r3, [r4]
 398              	.LBE139:
 399              	.LBE144:
ARM GAS  /tmp/ccX4yBEC.s 			page 8


 400              		.loc 1 158 0
 401 001c 8562     		str	r5, [r0, #40]
 402              		.loc 1 157 0
 403 001e A342     		cmp	r3, r4
 404 0020 F5D1     		bne	.L18
 405              	.LVL29:
 406              	.L16:
 407              		.loc 1 160 0
 408 0022 38BD     		pop	{r3, r4, r5, pc}
 409              		.cfi_endproc
 410              	.LFE223:
 411              		.size	chCondBroadcastI, .-chCondBroadcastI
 412              		.section	.text.chCondWaitS,"ax",%progbits
 413              		.align	1
 414              		.p2align 4,,15
 415              		.global	chCondWaitS
 416              		.syntax unified
 417              		.thumb
 418              		.thumb_func
 419              		.fpu fpv4-sp-d16
 420              		.type	chCondWaitS, %function
 421              	chCondWaitS:
 422              	.LFB225:
 423              		.loc 1 205 0
 424              		.cfi_startproc
 425              		@ args = 0, pretend = 0, frame = 0
 426              		@ frame_needed = 0, uses_anonymous_args = 0
 427              	.LVL30:
 428 0000 F8B5     		push	{r3, r4, r5, r6, r7, lr}
 429              		.cfi_def_cfa_offset 24
 430              		.cfi_offset 3, -24
 431              		.cfi_offset 4, -20
 432              		.cfi_offset 5, -16
 433              		.cfi_offset 6, -12
 434              		.cfi_offset 7, -8
 435              		.cfi_offset 14, -4
 436              		.loc 1 206 0
 437 0002 114B     		ldr	r3, .L28
 438 0004 9C69     		ldr	r4, [r3, #24]
 439              	.LVL31:
 440              	.LBB145:
 441              	.LBB146:
 442              		.file 4 "ChibiOS_3.0.5/os/rt/include/chmtx.h"
 443              		.loc 4 146 0
 444 0006 276C     		ldr	r7, [r4, #64]
 445              	.LBE146:
 446              	.LBE145:
 447              		.loc 1 205 0
 448 0008 0546     		mov	r5, r0
 449              		.loc 1 216 0
 450 000a 3846     		mov	r0, r7
 451              	.LVL32:
 452 000c FFF7FEFF 		bl	chMtxUnlockS
 453              	.LVL33:
 454              		.loc 1 221 0
 455 0010 2E46     		mov	r6, r5
 456              	.LVL34:
ARM GAS  /tmp/ccX4yBEC.s 			page 9


 457              		.loc 1 220 0
 458 0012 A562     		str	r5, [r4, #40]
 459              		.loc 1 221 0
 460 0014 2B46     		mov	r3, r5
 461 0016 03E0     		b	.L23
 462              	.LVL35:
 463              	.L27:
 464              	.LBB147:
 465              	.LBB148:
 466              		.loc 2 656 0
 467 0018 9968     		ldr	r1, [r3, #8]
 468 001a A268     		ldr	r2, [r4, #8]
 469 001c 9142     		cmp	r1, r2
 470 001e 10D3     		bcc	.L26
 471              	.LVL36:
 472              	.L23:
 473              		.loc 2 655 0
 474 0020 1B68     		ldr	r3, [r3]
 475              	.LVL37:
 476              		.loc 2 656 0
 477 0022 9D42     		cmp	r5, r3
 478 0024 F8D1     		bne	.L27
 479              	.L22:
 480              		.loc 2 658 0
 481 0026 7368     		ldr	r3, [r6, #4]
 482              	.LVL38:
 483              	.LBE148:
 484              	.LBE147:
 485              		.loc 1 222 0
 486 0028 0720     		movs	r0, #7
 487              	.LBB151:
 488              	.LBB149:
 489              		.loc 2 658 0
 490 002a C4E90063 		strd	r6, r3, [r4]
 491              		.loc 2 659 0
 492 002e 1C60     		str	r4, [r3]
 493              		.loc 2 660 0
 494 0030 7460     		str	r4, [r6, #4]
 495              	.LVL39:
 496              	.LBE149:
 497              	.LBE151:
 498              		.loc 1 222 0
 499 0032 FFF7FEFF 		bl	chSchGoSleepS
 500              	.LVL40:
 501              		.loc 1 223 0
 502 0036 A46A     		ldr	r4, [r4, #40]
 503              	.LVL41:
 504              		.loc 1 224 0
 505 0038 3846     		mov	r0, r7
 506 003a FFF7FEFF 		bl	chMtxLockS
 507              	.LVL42:
 508              		.loc 1 227 0
 509 003e 2046     		mov	r0, r4
 510 0040 F8BD     		pop	{r3, r4, r5, r6, r7, pc}
 511              	.LVL43:
 512              	.L26:
 513              	.LBB152:
ARM GAS  /tmp/ccX4yBEC.s 			page 10


 514              	.LBB150:
 515              		.loc 2 655 0
 516 0042 1E46     		mov	r6, r3
 517 0044 EFE7     		b	.L22
 518              	.L29:
 519 0046 00BF     		.align	2
 520              	.L28:
 521 0048 00000000 		.word	ch
 522              	.LBE150:
 523              	.LBE152:
 524              		.cfi_endproc
 525              	.LFE225:
 526              		.size	chCondWaitS, .-chCondWaitS
 527              		.section	.text.chCondWait,"ax",%progbits
 528              		.align	1
 529              		.p2align 4,,15
 530              		.global	chCondWait
 531              		.syntax unified
 532              		.thumb
 533              		.thumb_func
 534              		.fpu fpv4-sp-d16
 535              		.type	chCondWait, %function
 536              	chCondWait:
 537              	.LFB224:
 538              		.loc 1 179 0
 539              		.cfi_startproc
 540              		@ args = 0, pretend = 0, frame = 0
 541              		@ frame_needed = 0, uses_anonymous_args = 0
 542              	.LVL44:
 543 0000 08B5     		push	{r3, lr}
 544              		.cfi_def_cfa_offset 8
 545              		.cfi_offset 3, -8
 546              		.cfi_offset 14, -4
 547              	.LBB153:
 548              	.LBB154:
 549              	.LBB155:
 550              	.LBB156:
 551              		.loc 3 342 0
 552              		.syntax unified
 553              	@ 342 "ChibiOS_3.0.5/os/ext/CMSIS/include/core_cmFunc.h" 1
 554 0002 72B6     		cpsid i
 555              	@ 0 "" 2
 556              		.thumb
 557              		.syntax unified
 558              	.LBE156:
 559              	.LBE155:
 560              	.LBE154:
 561              	.LBE153:
 562              		.loc 1 183 0
 563 0004 FFF7FEFF 		bl	chCondWaitS
 564              	.LVL45:
 565              	.LBB157:
 566              	.LBB158:
 567              	.LBB159:
 568              	.LBB160:
 569              	.LBB161:
 570              		.loc 3 331 0
ARM GAS  /tmp/ccX4yBEC.s 			page 11


 571              		.syntax unified
 572              	@ 331 "ChibiOS_3.0.5/os/ext/CMSIS/include/core_cmFunc.h" 1
 573 0008 62B6     		cpsie i
 574              	@ 0 "" 2
 575              		.thumb
 576              		.syntax unified
 577              	.LBE161:
 578              	.LBE160:
 579              	.LBE159:
 580              	.LBE158:
 581              	.LBE157:
 582              		.loc 1 186 0
 583 000a 08BD     		pop	{r3, pc}
 584              		.cfi_endproc
 585              	.LFE224:
 586              		.size	chCondWait, .-chCondWait
 587              		.section	.text.chCondWaitTimeoutS,"ax",%progbits
 588              		.align	1
 589              		.p2align 4,,15
 590              		.global	chCondWaitTimeoutS
 591              		.syntax unified
 592              		.thumb
 593              		.thumb_func
 594              		.fpu fpv4-sp-d16
 595              		.type	chCondWaitTimeoutS, %function
 596              	chCondWaitTimeoutS:
 597              	.LFB227:
 598              		.loc 1 296 0
 599              		.cfi_startproc
 600              		@ args = 0, pretend = 0, frame = 0
 601              		@ frame_needed = 0, uses_anonymous_args = 0
 602              	.LVL46:
 603 0000 2DE9F041 		push	{r4, r5, r6, r7, r8, lr}
 604              		.cfi_def_cfa_offset 24
 605              		.cfi_offset 4, -24
 606              		.cfi_offset 5, -20
 607              		.cfi_offset 6, -16
 608              		.cfi_offset 7, -12
 609              		.cfi_offset 8, -8
 610              		.cfi_offset 14, -4
 611              	.LBB162:
 612              	.LBB163:
 613              	.LBB164:
 614              	.LBB165:
 615              		.file 5 "ChibiOS_3.0.5/os/rt/include/chthreads.h"
 616              		.loc 5 176 0
 617 0004 134C     		ldr	r4, .L43
 618              	.LBE165:
 619              	.LBE164:
 620              		.loc 4 146 0
 621 0006 A369     		ldr	r3, [r4, #24]
 622 0008 1F6C     		ldr	r7, [r3, #64]
 623              	.LBE163:
 624              	.LBE162:
 625              		.loc 1 296 0
 626 000a 0546     		mov	r5, r0
 627              		.loc 1 306 0
ARM GAS  /tmp/ccX4yBEC.s 			page 12


 628 000c 3846     		mov	r0, r7
 629              	.LVL47:
 630              		.loc 1 296 0
 631 000e 8846     		mov	r8, r1
 632              		.loc 1 306 0
 633 0010 FFF7FEFF 		bl	chMtxUnlockS
 634              	.LVL48:
 635              		.loc 1 310 0
 636 0014 A469     		ldr	r4, [r4, #24]
 637              		.loc 1 311 0
 638 0016 2E46     		mov	r6, r5
 639              	.LVL49:
 640              		.loc 1 310 0
 641 0018 A562     		str	r5, [r4, #40]
 642              		.loc 1 311 0
 643 001a 2B46     		mov	r3, r5
 644 001c 03E0     		b	.L34
 645              	.LVL50:
 646              	.L42:
 647              	.LBB166:
 648              	.LBB167:
 649              		.loc 2 656 0
 650 001e 9868     		ldr	r0, [r3, #8]
 651 0020 A268     		ldr	r2, [r4, #8]
 652 0022 9042     		cmp	r0, r2
 653 0024 14D3     		bcc	.L41
 654              	.LVL51:
 655              	.L34:
 656              		.loc 2 655 0
 657 0026 1B68     		ldr	r3, [r3]
 658              	.LVL52:
 659              		.loc 2 656 0
 660 0028 9D42     		cmp	r5, r3
 661 002a F8D1     		bne	.L42
 662              	.L33:
 663              		.loc 2 658 0
 664 002c 7368     		ldr	r3, [r6, #4]
 665              	.LVL53:
 666 002e 6360     		str	r3, [r4, #4]
 667              		.loc 2 657 0
 668 0030 2660     		str	r6, [r4]
 669              	.LBE167:
 670              	.LBE166:
 671              		.loc 1 312 0
 672 0032 4146     		mov	r1, r8
 673              	.LBB171:
 674              	.LBB168:
 675              		.loc 2 659 0
 676 0034 1C60     		str	r4, [r3]
 677              	.LBE168:
 678              	.LBE171:
 679              		.loc 1 312 0
 680 0036 0720     		movs	r0, #7
 681              	.LBB172:
 682              	.LBB169:
 683              		.loc 2 660 0
 684 0038 7460     		str	r4, [r6, #4]
ARM GAS  /tmp/ccX4yBEC.s 			page 13


 685              	.LVL54:
 686              	.LBE169:
 687              	.LBE172:
 688              		.loc 1 312 0
 689 003a FFF7FEFF 		bl	chSchGoSleepTimeoutS
 690              	.LVL55:
 691              		.loc 1 313 0
 692 003e 431C     		adds	r3, r0, #1
 693              		.loc 1 312 0
 694 0040 0446     		mov	r4, r0
 695              	.LVL56:
 696              		.loc 1 313 0
 697 0042 02D0     		beq	.L32
 698              		.loc 1 314 0
 699 0044 3846     		mov	r0, r7
 700              	.LVL57:
 701 0046 FFF7FEFF 		bl	chMtxLockS
 702              	.LVL58:
 703              	.L32:
 704              		.loc 1 318 0
 705 004a 2046     		mov	r0, r4
 706 004c BDE8F081 		pop	{r4, r5, r6, r7, r8, pc}
 707              	.LVL59:
 708              	.L41:
 709              	.LBB173:
 710              	.LBB170:
 711              		.loc 2 655 0
 712 0050 1E46     		mov	r6, r3
 713 0052 EBE7     		b	.L33
 714              	.L44:
 715              		.align	2
 716              	.L43:
 717 0054 00000000 		.word	ch
 718              	.LBE170:
 719              	.LBE173:
 720              		.cfi_endproc
 721              	.LFE227:
 722              		.size	chCondWaitTimeoutS, .-chCondWaitTimeoutS
 723              		.section	.text.chCondWaitTimeout,"ax",%progbits
 724              		.align	1
 725              		.p2align 4,,15
 726              		.global	chCondWaitTimeout
 727              		.syntax unified
 728              		.thumb
 729              		.thumb_func
 730              		.fpu fpv4-sp-d16
 731              		.type	chCondWaitTimeout, %function
 732              	chCondWaitTimeout:
 733              	.LFB226:
 734              		.loc 1 258 0
 735              		.cfi_startproc
 736              		@ args = 0, pretend = 0, frame = 0
 737              		@ frame_needed = 0, uses_anonymous_args = 0
 738              	.LVL60:
 739 0000 08B5     		push	{r3, lr}
 740              		.cfi_def_cfa_offset 8
 741              		.cfi_offset 3, -8
ARM GAS  /tmp/ccX4yBEC.s 			page 14


 742              		.cfi_offset 14, -4
 743              	.LBB174:
 744              	.LBB175:
 745              	.LBB176:
 746              	.LBB177:
 747              		.loc 3 342 0
 748              		.syntax unified
 749              	@ 342 "ChibiOS_3.0.5/os/ext/CMSIS/include/core_cmFunc.h" 1
 750 0002 72B6     		cpsid i
 751              	@ 0 "" 2
 752              		.thumb
 753              		.syntax unified
 754              	.LBE177:
 755              	.LBE176:
 756              	.LBE175:
 757              	.LBE174:
 758              		.loc 1 262 0
 759 0004 FFF7FEFF 		bl	chCondWaitTimeoutS
 760              	.LVL61:
 761              	.LBB178:
 762              	.LBB179:
 763              	.LBB180:
 764              	.LBB181:
 765              	.LBB182:
 766              		.loc 3 331 0
 767              		.syntax unified
 768              	@ 331 "ChibiOS_3.0.5/os/ext/CMSIS/include/core_cmFunc.h" 1
 769 0008 62B6     		cpsie i
 770              	@ 0 "" 2
 771              		.thumb
 772              		.syntax unified
 773              	.LBE182:
 774              	.LBE181:
 775              	.LBE180:
 776              	.LBE179:
 777              	.LBE178:
 778              		.loc 1 266 0
 779 000a 08BD     		pop	{r3, pc}
 780              		.cfi_endproc
 781              	.LFE226:
 782              		.size	chCondWaitTimeout, .-chCondWaitTimeout
 783              		.text
 784              	.Letext0:
 785              		.file 6 "/usr/arm-none-eabi/include/machine/_default_types.h"
 786              		.file 7 "/usr/arm-none-eabi/include/sys/_stdint.h"
 787              		.file 8 "ChibiOS_3.0.5/os/rt/ports/ARMCMx/compilers/GCC/chtypes.h"
 788              		.file 9 "ChibiOS_3.0.5/os/rt/include/chsystypes.h"
 789              		.file 10 "ChibiOS_3.0.5/os/ext/CMSIS/include/core_cm4.h"
 790              		.file 11 "ChibiOS_3.0.5/os/ext/CMSIS/ST/system_stm32f4xx.h"
 791              		.file 12 "ChibiOS_3.0.5/os/rt/ports/ARMCMx/chcore.h"
 792              		.file 13 "ChibiOS_3.0.5/os/rt/ports/ARMCMx/chcore_v7m.h"
 793              		.file 14 "ChibiOS_3.0.5/os/rt/include/chtm.h"
 794              		.file 15 "ChibiOS_3.0.5/os/rt/include/chsem.h"
 795              		.file 16 "ChibiOS_3.0.5/os/rt/include/chregistry.h"
 796              		.file 17 "ChibiOS_3.0.5/os/rt/include/chcond.h"
 797              		.file 18 "ChibiOS_3.0.5/os/rt/include/chsys.h"