ARM GAS  /tmp/ccX4yBEC.s 			page 1


   1              		.cpu cortex-m4
   2              		.eabi_attribute 27, 1
   3              		.eabi_attribute 28, 1
   4              		.eabi_attribute 20, 1
   5              		.eabi_attribute 21, 1
   6              		.eabi_attribute 23, 3
   7              		.eabi_attribute 24, 1
   8              		.eabi_attribute 25, 1
   9              		.eabi_attribute 26, 1
  10              		.eabi_attribute 30, 2
  11              		.eabi_attribute 34, 1
  12              		.eabi_attribute 18, 4
  13              		.file	"chcond.c"
  14              		.text
  15              	.Ltext0:
  16              		.cfi_sections	.debug_frame
  17              		.section	.text.chCondObjectInit,"ax",%progbits
  18              		.align	1
  19              		.p2align 4,,15
  20              		.global	chCondObjectInit
  21              		.syntax unified
  22              		.thumb
  23              		.thumb_func
  24              		.fpu fpv4-sp-d16
  25              		.type	chCondObjectInit, %function
  26              	chCondObjectInit:
  27              	.LFB219:
  28              		.file 1 "ChibiOS_3.0.5/os/rt/src/chcond.c"
  29              		.loc 1 75 0
  30              		.cfi_startproc
  31              		@ args = 0, pretend = 0, frame = 0
  32              		@ frame_needed = 0, uses_anonymous_args = 0
  33              		@ link register save eliminated.
  34              	.LVL0:
  35              	.LBB89:
  36              	.LBB90:
  37              		.file 2 "ChibiOS_3.0.5/os/rt/include/chschd.h"
  38              		.loc 2 605 0
  39 0000 C0E90000 		strd	r0, r0, [r0]
  40              	.LVL1:
  41              	.LBE90:
  42              	.LBE89:
  43              		.loc 1 80 0
  44 0004 7047     		bx	lr
  45              		.cfi_endproc
  46              	.LFE219:
  47              		.size	chCondObjectInit, .-chCondObjectInit
  48 0006 00BF     		.section	.text.chCondSignal,"ax",%progbits
  49              		.align	1
  50              		.p2align 4,,15
  51              		.global	chCondSignal
  52              		.syntax unified
  53              		.thumb
  54              		.thumb_func
  55              		.fpu fpv4-sp-d16
  56              		.type	chCondSignal, %function
  57              	chCondSignal:
ARM GAS  /tmp/ccX4yBEC.s 			page 2


  58              	.LFB220:
  59              		.loc 1 89 0
  60              		.cfi_startproc
  61              		@ args = 0, pretend = 0, frame = 0
  62              		@ frame_needed = 0, uses_anonymous_args = 0
  63              	.LVL2:
  64              	.LBB91:
  65              	.LBB92:
  66              	.LBB93:
  67              	.LBB94:
  68              		.file 3 "ChibiOS_3.0.5/os/ext/CMSIS/include/core_cmFunc.h"
  69              		.loc 3 342 0
  70              		.syntax unified
  71              	@ 342 "ChibiOS_3.0.5/os/ext/CMSIS/include/core_cmFunc.h" 1
  72 0000 72B6     		cpsid i
  73              	@ 0 "" 2
  74              	.LVL3:
  75              		.thumb
  76              		.syntax unified
  77              	.LBE94:
  78              	.LBE93:
  79              	.LBE92:
  80              	.LBE91:
  81              	.LBB95:
  82              	.LBB96:
  83              		.loc 2 631 0
  84 0002 0268     		ldr	r2, [r0]
  85              	.LVL4:
  86              	.LBE96:
  87              	.LBE95:
  88              		.loc 1 94 0
  89 0004 9042     		cmp	r0, r2
  90 0006 0AD0     		beq	.L6
  91              	.LBB97:
  92              	.LBB98:
  93              		.loc 2 674 0
  94 0008 1168     		ldr	r1, [r2]
  95              	.LBE98:
  96              	.LBE97:
  97              		.loc 1 89 0
  98 000a 08B5     		push	{r3, lr}
  99              		.cfi_def_cfa_offset 8
 100              		.cfi_offset 3, -8
 101              		.cfi_offset 14, -4
 102 000c 0346     		mov	r3, r0
 103              	.LVL5:
 104              	.LBB100:
 105              	.LBB99:
 106              		.loc 2 674 0
 107 000e 0160     		str	r1, [r0]
 108              		.loc 2 675 0
 109 0010 4B60     		str	r3, [r1, #4]
 110              	.LVL6:
 111              	.LBE99:
 112              	.LBE100:
 113              		.loc 1 95 0
 114 0012 1046     		mov	r0, r2
ARM GAS  /tmp/ccX4yBEC.s 			page 3


 115              	.LVL7:
 116 0014 0021     		movs	r1, #0
 117 0016 FFF7FEFF 		bl	chSchWakeupS
 118              	.LVL8:
 119              	.LBB101:
 120              	.LBB102:
 121              	.LBB103:
 122              	.LBB104:
 123              	.LBB105:
 124              		.loc 3 331 0
 125              		.syntax unified
 126              	@ 331 "ChibiOS_3.0.5/os/ext/CMSIS/include/core_cmFunc.h" 1
 127 001a 62B6     		cpsie i
 128              	@ 0 "" 2
 129              		.thumb
 130              		.syntax unified
 131              	.LBE105:
 132              	.LBE104:
 133              	.LBE103:
 134              	.LBE102:
 135              	.LBE101:
 136              		.loc 1 98 0
 137 001c 08BD     		pop	{r3, pc}
 138              	.LVL9:
 139              	.L6:
 140              		.cfi_def_cfa_offset 0
 141              		.cfi_restore 3
 142              		.cfi_restore 14
 143              	.LBB110:
 144              	.LBB109:
 145              	.LBB108:
 146              	.LBB107:
 147              	.LBB106:
 148              		.loc 3 331 0
 149              		.syntax unified
 150              	@ 331 "ChibiOS_3.0.5/os/ext/CMSIS/include/core_cmFunc.h" 1
 151 001e 62B6     		cpsie i
 152              	@ 0 "" 2
 153              		.thumb
 154              		.syntax unified
 155 0020 7047     		bx	lr
 156              	.LBE106:
 157              	.LBE107:
 158              	.LBE108:
 159              	.LBE109:
 160              	.LBE110:
 161              		.cfi_endproc
 162              	.LFE220:
 163              		.size	chCondSignal, .-chCondSignal
 164 0022 00BF     		.section	.text.chCondSignalI,"ax",%progbits
 165              		.align	1
 166              		.p2align 4,,15
 167              		.global	chCondSignalI
 168              		.syntax unified
 169              		.thumb
 170              		.thumb_func
 171              		.fpu fpv4-sp-d16
ARM GAS  /tmp/ccX4yBEC.s 			page 4


 172              		.type	chCondSignalI, %function
 173              	chCondSignalI:
 174              	.LFB221:
 175              		.loc 1 111 0
 176              		.cfi_startproc
 177              		@ args = 0, pretend = 0, frame = 0
 178              		@ frame_needed = 0, uses_anonymous_args = 0
 179              		@ link register save eliminated.
 180              	.LVL10:
 181              	.LBB111:
 182              	.LBB112:
 183              		.loc 2 631 0
 184 0000 0368     		ldr	r3, [r0]
 185              	.LVL11:
 186              	.LBE112:
 187              	.LBE111:
 188              		.loc 1 116 0
 189 0002 9842     		cmp	r0, r3
 190 0004 07D0     		beq	.L9
 191              	.LVL12:
 192              	.LBB113:
 193              	.LBB114:
 194              	.LBB115:
 195              		.loc 2 674 0
 196 0006 1A68     		ldr	r2, [r3]
 197 0008 0260     		str	r2, [r0]
 198              	.LBE115:
 199              	.LBE114:
 200              		.loc 1 118 0
 201 000a 0021     		movs	r1, #0
 202              	.LBB117:
 203              	.LBB116:
 204              		.loc 2 675 0
 205 000c 5060     		str	r0, [r2, #4]
 206              	.LVL13:
 207              	.LBE116:
 208              	.LBE117:
 209              		.loc 1 119 0
 210 000e 1846     		mov	r0, r3
 211              	.LVL14:
 212              		.loc 1 118 0
 213 0010 9962     		str	r1, [r3, #40]
 214              		.loc 1 119 0
 215 0012 FFF7FEBF 		b	chSchReadyI
 216              	.LVL15:
 217              	.L9:
 218              	.LBE113:
 219              		.loc 1 121 0
 220 0016 7047     		bx	lr
 221              		.cfi_endproc
 222              	.LFE221:
 223              		.size	chCondSignalI, .-chCondSignalI
 224              		.section	.text.chCondBroadcast,"ax",%progbits
 225              		.align	1
 226              		.p2align 4,,15
 227              		.global	chCondBroadcast
 228              		.syntax unified
ARM GAS  /tmp/ccX4yBEC.s 			page 5


 229              		.thumb
 230              		.thumb_func
 231              		.fpu fpv4-sp-d16
 232              		.type	chCondBroadcast, %function
 233              	chCondBroadcast:
 234              	.LFB222:
 235              		.loc 1 130 0
 236              		.cfi_startproc
 237              		@ args = 0, pretend = 0, frame = 0
 238              		@ frame_needed = 0, uses_anonymous_args = 0
 239              	.LVL16:
 240 0000 38B5     		push	{r3, r4, r5, lr}
 241              		.cfi_def_cfa_offset 16
 242              		.cfi_offset 3, -16
 243              		.cfi_offset 4, -12
 244              		.cfi_offset 5, -8
 245              		.cfi_offset 14, -4
 246              	.LBB118:
 247              	.LBB119:
 248              	.LBB120:
 249              	.LBB121:
 250              		.loc 3 342 0
 251              		.syntax unified
 252              	@ 342 "ChibiOS_3.0.5/os/ext/CMSIS/include/core_cmFunc.h" 1
 253 0002 72B6     		cpsid i
 254              	@ 0 "" 2
 255              	.LVL17:
 256              		.thumb
 257              		.syntax unified
 258              	.LBE121:
 259              	.LBE120:
 260              	.LBE119:
 261              	.LBE118:
 262              	.LBB122:
 263              	.LBB123:
 264              	.LBB124:
 265              	.LBB125:
 266              		.loc 2 631 0
 267 0004 0368     		ldr	r3, [r0]
 268              	.LVL18:
 269              	.LBE125:
 270              	.LBE124:
 271              		.loc 1 157 0
 272 0006 9842     		cmp	r0, r3
 273 0008 0CD0     		beq	.L12
 274 000a 0446     		mov	r4, r0
 275              		.loc 1 158 0
 276 000c 6FF00105 		mvn	r5, #1
 277              	.LVL19:
 278              	.L13:
 279              	.LBB127:
 280              	.LBB128:
 281              		.loc 2 674 0
 282 0010 1A68     		ldr	r2, [r3]
 283 0012 2260     		str	r2, [r4]
 284              	.LBE128:
 285              	.LBE127:
ARM GAS  /tmp/ccX4yBEC.s 			page 6


 286              		.loc 1 158 0
 287 0014 1846     		mov	r0, r3
 288              	.LBB130:
 289              	.LBB129:
 290              		.loc 2 675 0
 291 0016 5460     		str	r4, [r2, #4]
 292              	.LVL20:
 293              	.LBE129:
 294              	.LBE130:
 295              		.loc 1 158 0
 296 0018 FFF7FEFF 		bl	chSchReadyI
 297              	.LVL21:
 298              	.LBB131:
 299              	.LBB126:
 300              		.loc 2 631 0
 301 001c 2368     		ldr	r3, [r4]
 302              	.LBE126:
 303              	.LBE131:
 304              		.loc 1 158 0
 305 001e 8562     		str	r5, [r0, #40]
 306              		.loc 1 157 0
 307 0020 A342     		cmp	r3, r4
 308 0022 F5D1     		bne	.L13
 309              	.LVL22:
 310              	.L12:
 311              	.LBE123:
 312              	.LBE122:
 313              		.loc 1 134 0
 314 0024 FFF7FEFF 		bl	chSchRescheduleS
 315              	.LVL23:
 316              	.LBB132:
 317              	.LBB133:
 318              	.LBB134:
 319              	.LBB135:
 320              	.LBB136:
 321              		.loc 3 331 0
 322              		.syntax unified
 323              	@ 331 "ChibiOS_3.0.5/os/ext/CMSIS/include/core_cmFunc.h" 1
 324 0028 62B6     		cpsie i
 325              	@ 0 "" 2
 326              		.thumb
 327              		.syntax unified
 328              	.LBE136:
 329              	.LBE135:
 330              	.LBE134:
 331              	.LBE133:
 332              	.LBE132:
 333              		.loc 1 136 0
 334 002a 38BD     		pop	{r3, r4, r5, pc}
 335              		.cfi_endproc
 336              	.LFE222:
 337              		.size	chCondBroadcast, .-chCondBroadcast
 338              		.section	.text.chCondBroadcastI,"ax",%progbits
 339              		.align	1
 340              		.p2align 4,,15
 341              		.global	chCondBroadcastI
 342              		.syntax unified
ARM GAS  /tmp/ccX4yBEC.s 			page 7


 343              		.thumb
 344              		.thumb_func
 345              		.fpu fpv4-sp-d16
 346              		.type	chCondBroadcastI, %function
 347              	chCondBroadcastI:
 348              	.LFB223:
 349              		.loc 1 149 0
 350              		.cfi_startproc
 351              		@ args = 0, pretend = 0, frame = 0
 352              		@ frame_needed = 0, uses_anonymous_args = 0
 353              	.LVL24:
 354 0000 38B5     		push	{r3, r4, r5, lr}
 355              		.cfi_def_cfa_offset 16
 356              		.cfi_offset 3, -16
 357              		.cfi_offset 4, -12
 358              		.cfi_offset 5, -8
 359              		.cfi_offset 14, -4
 360              	.LBB137:
 361              	.LBB138:
 362              		.loc 2 631 0
 363 0002 0368     		ldr	r3, [r0]
 364              	.LVL25:
 365              	.LBE138:
 366              	.LBE137:
 367              		.loc 1 157 0
 368 0004 8342     		cmp	r3, r0
 369 0006 0CD0     		beq	.L16
 370 0008 0446     		mov	r4, r0
 371              		.loc 1 158 0
 372 000a 6FF00105 		mvn	r5, #1
 373              	.LVL26:
 374              	.L18:
 375              	.LBB140:
 376              	.LBB141:
 377              		.loc 2 674 0
 378 000e 1A68     		ldr	r2, [r3]
 379 0010 2260     		str	r2, [r4]
 380              	.LBE141:
 381              	.LBE140:
 382              		.loc 1 158 0
 383 0012 1846     		mov	r0, r3
 384              	.LBB143:
 385              	.LBB142:
 386              		.loc 2 675 0
 387 0014 5460     		str	r4, [r2, #4]
 388              	.LVL27:
 389              	.LBE142:
 390              	.LBE143:
 391              		.loc 1 158 0
 392 0016 FFF7FEFF 		bl	chSchReadyI
 393              	.LVL28:
 394              	.LBB144:
 395              	.LBB139:
 396              		.loc 2 631 0
 397 001a 2368     		ldr	r3, [r4]
 398              	.LBE139:
 399              	.LBE144:
ARM GAS  /tmp/ccX4yBEC.s 			page 8


 400              		.loc 1 158 0
 401 001c 8562     		str	r5, [r0, #40]
 402              		.loc 1 157 0
 403 001e A342     		cmp	r3, r4
 404 0020 F5D1     		bne	.L18
 405              	.LVL29:
 406              	.L16:
 407              		.loc 1 160 0
 408 0022 38BD     		pop	{r3, r4, r5, pc}
 409              		.cfi_endproc
 410              	.LFE223:
 411              		.size	chCondBroadcastI, .-chCondBroadcastI
 412              		.section	.text.chCondWaitS,"ax",%progbits
 413              		.align	1
 414              		.p2align 4,,15
 415              		.global	chCondWaitS
 416              		.syntax unified
 417              		.thumb
 418              		.thumb_func
 419              		.fpu fpv4-sp-d16
 420              		.type	chCondWaitS, %function
 421              	chCondWaitS:
 422              	.LFB225:
 423              		.loc 1 205 0
 424              		.cfi_startproc
 425              		@ args = 0, pretend = 0, frame = 0
 426              		@ frame_needed = 0, uses_anonymous_args = 0
 427              	.LVL30:
 428 0000 F8B5     		push	{r3, r4, r5, r6, r7, lr}
 429              		.cfi_def_cfa_offset 24
 430              		.cfi_offset 3, -24
 431              		.cfi_offset 4, -20
 432              		.cfi_offset 5, -16
 433              		.cfi_offset 6, -12
 434              		.cfi_offset 7, -8
 435              		.cfi_offset 14, -4
 436              		.loc 1 206 0
 437 0002 114B     		ldr	r3, .L28
 438 0004 9C69     		ldr	r4, [r3, #24]
 439              	.LVL31:
 440              	.LBB145:
 441              	.LBB146:
 442              		.file 4 "ChibiOS_3.0.5/os/rt/include/chmtx.h"
 443              		.loc 4 146 0
 444 0006 276C     		ldr	r7, [r4, #64]
 445              	.LBE146:
 446              	.LBE145:
 447              		.loc 1 205 0
 448 0008 0546     		mov	r5, r0
 449              		.loc 1 216 0
 450 000a 3846     		mov	r0, r7
 451              	.LVL32:
 452 000c FFF7FEFF 		bl	chMtxUnlockS
 453              	.LVL33:
 454              		.loc 1 221 0
 455 0010 2E46     		mov	r6, r5
 456              	.LVL34:
ARM GAS  /tmp/ccX4yBEC.s 			page 9


 457              		.loc 1 220 0
 458 0012 A562     		str	r5, [r4, #40]
 459              		.loc 1 221 0
 460 0014 2B46     		mov	r3, r5
 461 0016 03E0     		b	.L23
 462              	.LVL35:
 463              	.L27:
 464              	.LBB147:
 465              	.LBB148:
 466              		.loc 2 656 0
 467 0018 9968     		ldr	r1, [r3, #8]
 468 001a A268     		ldr	r2, [r4, #8]
 469 001c 9142     		cmp	r1, r2
 470 001e 10D3     		bcc	.L26
 471              	.LVL36:
 472              	.L23:
 473              		.loc 2 655 0
 474 0020 1B68     		ldr	r3, [r3]
 475              	.LVL37:
 476              		.loc 2 656 0
 477 0022 9D42     		cmp	r5, r3
 478 0024 F8D1     		bne	.L27
 479              	.L22:
 480              		.loc 2 658 0
 481 0026 7368     		ldr	r3, [r6, #4]
 482              	.LVL38:
 483              	.LBE148:
 484              	.LBE147:
 485              		.loc 1 222 0
 486 0028 0720     		movs	r0, #7
 487              	.LBB151:
 488              	.LBB149:
 489              		.loc 2 658 0
 490 002a C4E90063 		strd	r6, r3, [r4]
 491              		.loc 2 659 0
 492 002e 1C60     		str	r4, [r3]
 493              		.loc 2 660 0
 494 0030 7460     		str	r4, [r6, #4]
 495              	.LVL39:
 496              	.LBE149:
 497              	.LBE151:
 498              		.loc 1 222 0
 499 0032 FFF7FEFF 		bl	chSchGoSleepS
 500              	.LVL40:
 501              		.loc 1 223 0
 502 0036 A46A     		ldr	r4, [r4, #40]
 503              	.LVL41:
 504              		.loc 1 224 0
 505 0038 3846     		mov	r0, r7
 506 003a FFF7FEFF 		bl	chMtxLockS
 507              	.LVL42:
 508              		.loc 1 227 0
 509 003e 2046     		mov	r0, r4
 510 0040 F8BD     		pop	{r3, r4, r5, r6, r7, pc}
 511              	.LVL43:
 512              	.L26:
 513              	.LBB152:
ARM GAS  /tmp/ccX4yBEC.s 			page 10


 514              	.LBB150:
 515              		.loc 2 655 0
 516 0042 1E46     		mov	r6, r3
 517 0044 EFE7     		b	.L22
 518              	.L29:
 519 0046 00BF     		.align	2
 520              	.L28:
 521 0048 00000000 		.word	ch
 522              	.LBE150:
 523              	.LBE152:
 524              		.cfi_endproc
 525              	.LFE225:
 526              		.size	chCondWaitS, .-chCondWaitS
 527              		.section	.text.chCondWait,"ax",%progbits
 528              		.align	1
 529              		.p2align 4,,15
 530              		.global	chCondWait
 531              		.syntax unified
 532              		.thumb
 533              		.thumb_func
 534              		.fpu fpv4-sp-d16
 535              		.type	chCondWait, %function
 536              	chCondWait:
 537              	.LFB224:
 538              		.loc 1 179 0
 539              		.cfi_startproc
 540              		@ args = 0, pretend = 0, frame = 0
 541              		@ frame_needed = 0, uses_anonymous_args = 0
 542              	.LVL44:
 543 0000 08B5     		push	{r3, lr}
 544              		.cfi_def_cfa_offset 8
 545              		.cfi_offset 3, -8
 546              		.cfi_offset 14, -4
 547              	.LBB153:
 548              	.LBB154:
 549              	.LBB155:
 550              	.LBB156:
 551              		.loc 3 342 0
 552              		.syntax unified
 553              	@ 342 "ChibiOS_3.0.5/os/ext/CMSIS/include/core_cmFunc.h" 1
 554 0002 72B6     		cpsid i
 555              	@ 0 "" 2
 556              		.thumb
 557              		.syntax unified
 558              	.LBE156:
 559              	.LBE155:
 560              	.LBE154:
 561              	.LBE153:
 562              		.loc 1 183 0
 563 0004 FFF7FEFF 		bl	chCondWaitS
 564              	.LVL45:
 565              	.LBB157:
 566              	.LBB158:
 567              	.LBB159:
 568              	.LBB160:
 569              	.LBB161:
 570              		.loc 3 331 0
ARM GAS  /tmp/ccX4yBEC.s 			page 11


 571              		.syntax unified
 572              	@ 331 "ChibiOS_3.0.5/os/ext/CMSIS/include/core_cmFunc.h" 1
 573 0008 62B6     		cpsie i
 574              	@ 0 "" 2
 575              		.thumb
 576              		.syntax unified
 577              	.LBE161:
 578              	.LBE160:
 579              	.LBE159:
 580              	.LBE158:
 581              	.LBE157:
 582              		.loc 1 186 0
 583 000a 08BD     		pop	{r3, pc}
 584              		.cfi_endproc
 585              	.LFE224:
 586              		.size	chCondWait, .-chCondWait
 587              		.section	.text.chCondWaitTimeoutS,"ax",%progbits
 588              		.align	1
 589              		.p2align 4,,15
 590              		.global	chCondWaitTimeoutS
 591              		.syntax unified
 592              		.thumb
 593              		.thumb_func
 594              		.fpu fpv4-sp-d16
 595              		.type	chCondWaitTimeoutS, %function
 596              	chCondWaitTimeoutS:
 597              	.LFB227:
 598              		.loc 1 296 0
 599              		.cfi_startproc
 600              		@ args = 0, pretend = 0, frame = 0
 601              		@ frame_needed = 0, uses_anonymous_args = 0
 602              	.LVL46:
 603 0000 2DE9F041 		push	{r4, r5, r6, r7, r8, lr}
 604              		.cfi_def_cfa_offset 24
 605              		.cfi_offset 4, -24
 606              		.cfi_offset 5, -20
 607              		.cfi_offset 6, -16
 608              		.cfi_offset 7, -12
 609              		.cfi_offset 8, -8
 610              		.cfi_offset 14, -4
 611              	.LBB162:
 612              	.LBB163:
 613              	.LBB164:
 614              	.LBB165:
 615              		.file 5 "ChibiOS_3.0.5/os/rt/include/chthreads.h"
 616              		.loc 5 176 0
 617 0004 134C     		ldr	r4, .L43
 618              	.LBE165:
 619              	.LBE164:
 620              		.loc 4 146 0
 621 0006 A369     		ldr	r3, [r4, #24]
 622 0008 1F6C     		ldr	r7, [r3, #64]
 623              	.LBE163:
 624              	.LBE162:
 625              		.loc 1 296 0
 626 000a 0546     		mov	r5, r0
 627              		.loc 1 306 0
ARM GAS  /tmp/ccX4yBEC.s 			page 12


 628 000c 3846     		mov	r0, r7
 629              	.LVL47:
 630              		.loc 1 296 0
 631 000e 8846     		mov	r8, r1
 632              		.loc 1 306 0
 633 0010 FFF7FEFF 		bl	chMtxUnlockS
 634              	.LVL48:
 635              		.loc 1 310 0
 636 0014 A469     		ldr	r4, [r4, #24]
 637              		.loc 1 311 0
 638 0016 2E46     		mov	r6, r5
 639              	.LVL49:
 640              		.loc 1 310 0
 641 0018 A562     		str	r5, [r4, #40]
 642              		.loc 1 311 0
 643 001a 2B46     		mov	r3, r5
 644 001c 03E0     		b	.L34
 645              	.LVL50:
 646              	.L42:
 647              	.LBB166:
 648              	.LBB167:
 649              		.loc 2 656 0
 650 001e 9868     		ldr	r0, [r3, #8]
 651 0020 A268     		ldr	r2, [r4, #8]
 652 0022 9042     		cmp	r0, r2
 653 0024 14D3     		bcc	.L41
 654              	.LVL51:
 655              	.L34:
 656              		.loc 2 655 0
 657 0026 1B68     		ldr	r3, [r3]
 658              	.LVL52:
 659              		.loc 2 656 0
 660 0028 9D42     		cmp	r5, r3
 661 002a F8D1     		bne	.L42
 662              	.L33:
 663              		.loc 2 658 0
 664 002c 7368     		ldr	r3, [r6, #4]
 665              	.LVL53:
 666 002e 6360     		str	r3, [r4, #4]
 667              		.loc 2 657 0
 668 0030 2660     		str	r6, [r4]
 669              	.LBE167:
 670              	.LBE166:
 671              		.loc 1 312 0
 672 0032 4146     		mov	r1, r8
 673              	.LBB171:
 674              	.LBB168:
 675              		.loc 2 659 0
 676 0034 1C60     		str	r4, [r3]
 677              	.LBE168:
 678              	.LBE171:
 679              		.loc 1 312 0
 680 0036 0720     		movs	r0, #7
 681              	.LBB172:
 682              	.LBB169:
 683              		.loc 2 660 0
 684 0038 7460     		str	r4, [r6, #4]
ARM GAS  /tmp/ccX4yBEC.s 			page 13


 685              	.LVL54:
 686              	.LBE169:
 687              	.LBE172:
 688              		.loc 1 312 0
 689 003a FFF7FEFF 		bl	chSchGoSleepTimeoutS
 690              	.LVL55:
 691              		.loc 1 313 0
 692 003e 431C     		adds	r3, r0, #1
 693              		.loc 1 312 0
 694 0040 0446     		mov	r4, r0
 695              	.LVL56:
 696              		.loc 1 313 0
 697 0042 02D0     		beq	.L32
 698              		.loc 1 314 0
 699 0044 3846     		mov	r0, r7
 700              	.LVL57:
 701 0046 FFF7FEFF 		bl	chMtxLockS
 702              	.LVL58:
 703              	.L32:
 704              		.loc 1 318 0
 705 004a 2046     		mov	r0, r4
 706 004c BDE8F081 		pop	{r4, r5, r6, r7, r8, pc}
 707              	.LVL59:
 708              	.L41:
 709              	.LBB173:
 710              	.LBB170:
 711              		.loc 2 655 0
 712 0050 1E46     		mov	r6, r3
 713 0052 EBE7     		b	.L33
 714              	.L44:
 715              		.align	2
 716              	.L43:
 717 0054 00000000 		.word	ch
 718              	.LBE170:
 719              	.LBE173:
 720              		.cfi_endproc
 721              	.LFE227:
 722              		.size	chCondWaitTimeoutS, .-chCondWaitTimeoutS
 723              		.section	.text.chCondWaitTimeout,"ax",%progbits
 724              		.align	1
 725              		.p2align 4,,15
 726              		.global	chCondWaitTimeout
 727              		.syntax unified
 728              		.thumb
 729              		.thumb_func
 730              		.fpu fpv4-sp-d16
 731              		.type	chCondWaitTimeout, %function
 732              	chCondWaitTimeout:
 733              	.LFB226:
 734              		.loc 1 258 0
 735              		.cfi_startproc
 736              		@ args = 0, pretend = 0, frame = 0
 737              		@ frame_needed = 0, uses_anonymous_args = 0
 738              	.LVL60:
 739 0000 08B5     		push	{r3, lr}
 740              		.cfi_def_cfa_offset 8
 741              		.cfi_offset 3, -8
ARM GAS  /tmp/ccX4yBEC.s 			page 14


 742              		.cfi_offset 14, -4
 743              	.LBB174:
 744              	.LBB175:
 745              	.LBB176:
 746              	.LBB177:
 747              		.loc 3 342 0
 748              		.syntax unified
 749              	@ 342 "ChibiOS_3.0.5/os/ext/CMSIS/include/core_cmFunc.h" 1
 750 0002 72B6     		cpsid i
 751              	@ 0 "" 2
 752              		.thumb
 753              		.syntax unified
 754              	.LBE177:
 755              	.LBE176:
 756              	.LBE175:
 757              	.LBE174:
 758              		.loc 1 262 0
 759 0004 FFF7FEFF 		bl	chCondWaitTimeoutS
 760              	.LVL61:
 761              	.LBB178:
 762              	.LBB179:
 763              	.LBB180:
 764              	.LBB181:
 765              	.LBB182:
 766              		.loc 3 331 0
 767              		.syntax unified
 768              	@ 331 "ChibiOS_3.0.5/os/ext/CMSIS/include/core_cmFunc.h" 1
 769 0008 62B6     		cpsie i
 770              	@ 0 "" 2
 771              		.thumb
 772              		.syntax unified
 773              	.LBE182:
 774              	.LBE181:
 775              	.LBE180:
 776              	.LBE179:
 777              	.LBE178:
 778              		.loc 1 266 0
 779 000a 08BD     		pop	{r3, pc}
 780              		.cfi_endproc
 781              	.LFE226:
 782              		.size	chCondWaitTimeout, .-chCondWaitTimeout
 783              		.text
 784              	.Letext0:
 785              		.file 6 "/usr/arm-none-eabi/include/machine/_default_types.h"
 786              		.file 7 "/usr/arm-none-eabi/include/sys/_stdint.h"
 787              		.file 8 "ChibiOS_3.0.5/os/rt/ports/ARMCMx/compilers/GCC/chtypes.h"
 788              		.file 9 "ChibiOS_3.0.5/os/rt/include/chsystypes.h"
 789              		.file 10 "ChibiOS_3.0.5/os/ext/CMSIS/include/core_cm4.h"
 790              		.file 11 "ChibiOS_3.0.5/os/ext/CMSIS/ST/system_stm32f4xx.h"
 791              		.file 12 "ChibiOS_3.0.5/os/rt/ports/ARMCMx/chcore.h"
 792              		.file 13 "ChibiOS_3.0.5/os/rt/ports/ARMCMx/chcore_v7m.h"
 793              		.file 14 "ChibiOS_3.0.5/os/rt/include/chtm.h"
 794              		.file 15 "ChibiOS_3.0.5/os/rt/include/chsem.h"
 795              		.file 16 "ChibiOS_3.0.5/os/rt/include/chregistry.h"
 796              		.file 17 "ChibiOS_3.0.5/os/rt/include/chcond.h"
 797              		.file 18 "ChibiOS_3.0.5/os/rt/include/chsys.h"
 798              		.section	.debug_info,"",%progbits
ARM GAS  /tmp/ccX4yBEC.s 			page 15


 799              	.Ldebug_info0:
 800 0000 1E110000 		.4byte	0x111e
 801 0004 0400     		.2byte	0x4
 802 0006 00000000 		.4byte	.Ldebug_abbrev0
 803 000a 04       		.byte	0x4
 804 000b 01       		.uleb128 0x1
 805 000c 60000000 		.4byte	.LASF163
 806 0010 0C       		.byte	0xc
 807 0011 7A040000 		.4byte	.LASF164
 808 0015 7A060000 		.4byte	.LASF165
 809 0019 F0000000 		.4byte	.Ldebug_ranges0+0xf0
 810 001d 00000000 		.4byte	0
 811 0021 00000000 		.4byte	.Ldebug_line0
 812 0025 02       		.uleb128 0x2
 813 0026 04       		.byte	0x4
 814 0027 05       		.byte	0x5
 815 0028 696E7400 		.ascii	"int\000"
 816 002c 03       		.uleb128 0x3
 817 002d 04       		.byte	0x4
 818 002e 07       		.byte	0x7
 819 002f 7E030000 		.4byte	.LASF0
 820 0033 03       		.uleb128 0x3
 821 0034 01       		.byte	0x1
 822 0035 06       		.byte	0x6
 823 0036 49020000 		.4byte	.LASF1
 824 003a 04       		.uleb128 0x4
 825 003b 30000000 		.4byte	.LASF4
 826 003f 06       		.byte	0x6
 827 0040 2B       		.byte	0x2b
 828 0041 45000000 		.4byte	0x45
 829 0045 03       		.uleb128 0x3
 830 0046 01       		.byte	0x1
 831 0047 08       		.byte	0x8
 832 0048 AB050000 		.4byte	.LASF2
 833 004c 03       		.uleb128 0x3
 834 004d 02       		.byte	0x2
 835 004e 05       		.byte	0x5
 836 004f C3050000 		.4byte	.LASF3
 837 0053 04       		.uleb128 0x4
 838 0054 F2060000 		.4byte	.LASF5
 839 0058 06       		.byte	0x6
 840 0059 39       		.byte	0x39
 841 005a 5E000000 		.4byte	0x5e
 842 005e 03       		.uleb128 0x3
 843 005f 02       		.byte	0x2
 844 0060 07       		.byte	0x7
 845 0061 DD030000 		.4byte	.LASF6
 846 0065 04       		.uleb128 0x4
 847 0066 3F040000 		.4byte	.LASF7
 848 006a 06       		.byte	0x6
 849 006b 4D       		.byte	0x4d
 850 006c 70000000 		.4byte	0x70
 851 0070 03       		.uleb128 0x3
 852 0071 04       		.byte	0x4
 853 0072 05       		.byte	0x5
 854 0073 BE020000 		.4byte	.LASF8
 855 0077 04       		.uleb128 0x4
ARM GAS  /tmp/ccX4yBEC.s 			page 16


 856 0078 3E070000 		.4byte	.LASF9
 857 007c 06       		.byte	0x6
 858 007d 4F       		.byte	0x4f
 859 007e 82000000 		.4byte	0x82
 860 0082 03       		.uleb128 0x3
 861 0083 04       		.byte	0x4
 862 0084 07       		.byte	0x7
 863 0085 D4060000 		.4byte	.LASF10
 864 0089 03       		.uleb128 0x3
 865 008a 08       		.byte	0x8
 866 008b 05       		.byte	0x5
 867 008c 3B020000 		.4byte	.LASF11
 868 0090 04       		.uleb128 0x4
 869 0091 4C050000 		.4byte	.LASF12
 870 0095 06       		.byte	0x6
 871 0096 69       		.byte	0x69
 872 0097 9B000000 		.4byte	0x9b
 873 009b 03       		.uleb128 0x3
 874 009c 08       		.byte	0x8
 875 009d 07       		.byte	0x7
 876 009e AF010000 		.4byte	.LASF13
 877 00a2 04       		.uleb128 0x4
 878 00a3 C8070000 		.4byte	.LASF14
 879 00a7 07       		.byte	0x7
 880 00a8 18       		.byte	0x18
 881 00a9 3A000000 		.4byte	0x3a
 882 00ad 04       		.uleb128 0x4
 883 00ae 93030000 		.4byte	.LASF15
 884 00b2 07       		.byte	0x7
 885 00b3 24       		.byte	0x24
 886 00b4 53000000 		.4byte	0x53
 887 00b8 04       		.uleb128 0x4
 888 00b9 A3050000 		.4byte	.LASF16
 889 00bd 07       		.byte	0x7
 890 00be 2C       		.byte	0x2c
 891 00bf 65000000 		.4byte	0x65
 892 00c3 05       		.uleb128 0x5
 893 00c4 B8000000 		.4byte	0xb8
 894 00c8 04       		.uleb128 0x4
 895 00c9 93060000 		.4byte	.LASF17
 896 00cd 07       		.byte	0x7
 897 00ce 30       		.byte	0x30
 898 00cf 77000000 		.4byte	0x77
 899 00d3 04       		.uleb128 0x4
 900 00d4 27000000 		.4byte	.LASF18
 901 00d8 07       		.byte	0x7
 902 00d9 3C       		.byte	0x3c
 903 00da 90000000 		.4byte	0x90
 904 00de 04       		.uleb128 0x4
 905 00df 9B040000 		.4byte	.LASF19
 906 00e3 08       		.byte	0x8
 907 00e4 45       		.byte	0x45
 908 00e5 C8000000 		.4byte	0xc8
 909 00e9 04       		.uleb128 0x4
 910 00ea F4050000 		.4byte	.LASF20
 911 00ee 08       		.byte	0x8
 912 00ef 48       		.byte	0x48
ARM GAS  /tmp/ccX4yBEC.s 			page 17


 913 00f0 A2000000 		.4byte	0xa2
 914 00f4 04       		.uleb128 0x4
 915 00f5 D3020000 		.4byte	.LASF21
 916 00f9 08       		.byte	0x8
 917 00fa 49       		.byte	0x49
 918 00fb A2000000 		.4byte	0xa2
 919 00ff 04       		.uleb128 0x4
 920 0100 16030000 		.4byte	.LASF22
 921 0104 08       		.byte	0x8
 922 0105 4A       		.byte	0x4a
 923 0106 A2000000 		.4byte	0xa2
 924 010a 04       		.uleb128 0x4
 925 010b AA020000 		.4byte	.LASF23
 926 010f 08       		.byte	0x8
 927 0110 4B       		.byte	0x4b
 928 0111 A2000000 		.4byte	0xa2
 929 0115 04       		.uleb128 0x4
 930 0116 87050000 		.4byte	.LASF24
 931 011a 08       		.byte	0x8
 932 011b 4C       		.byte	0x4c
 933 011c C8000000 		.4byte	0xc8
 934 0120 04       		.uleb128 0x4
 935 0121 07040000 		.4byte	.LASF25
 936 0125 08       		.byte	0x8
 937 0126 4D       		.byte	0x4d
 938 0127 B8000000 		.4byte	0xb8
 939 012b 04       		.uleb128 0x4
 940 012c 33040000 		.4byte	.LASF26
 941 0130 08       		.byte	0x8
 942 0131 4F       		.byte	0x4f
 943 0132 C8000000 		.4byte	0xc8
 944 0136 04       		.uleb128 0x4
 945 0137 6B030000 		.4byte	.LASF27
 946 013b 08       		.byte	0x8
 947 013c 51       		.byte	0x51
 948 013d B8000000 		.4byte	0xb8
 949 0141 04       		.uleb128 0x4
 950 0142 20070000 		.4byte	.LASF28
 951 0146 09       		.byte	0x9
 952 0147 33       		.byte	0x33
 953 0148 C8000000 		.4byte	0xc8
 954 014c 05       		.uleb128 0x5
 955 014d 41010000 		.4byte	0x141
 956 0151 04       		.uleb128 0x4
 957 0152 AB070000 		.4byte	.LASF29
 958 0156 09       		.byte	0x9
 959 0157 3F       		.byte	0x3f
 960 0158 5C010000 		.4byte	0x15c
 961 015c 06       		.uleb128 0x6
 962 015d F0030000 		.4byte	.LASF53
 963 0161 50       		.byte	0x50
 964 0162 02       		.byte	0x2
 965 0163 C2       		.byte	0xc2
 966 0164 7A020000 		.4byte	0x27a
 967 0168 07       		.uleb128 0x7
 968 0169 ED050000 		.4byte	.LASF30
 969 016d 02       		.byte	0x2
ARM GAS  /tmp/ccX4yBEC.s 			page 18


 970 016e C3       		.byte	0xc3
 971 016f 85020000 		.4byte	0x285
 972 0173 00       		.byte	0
 973 0174 07       		.uleb128 0x7
 974 0175 80050000 		.4byte	.LASF31
 975 0179 02       		.byte	0x2
 976 017a C5       		.byte	0xc5
 977 017b 85020000 		.4byte	0x285
 978 017f 04       		.byte	0x4
 979 0180 07       		.uleb128 0x7
 980 0181 1C020000 		.4byte	.LASF32
 981 0185 02       		.byte	0x2
 982 0186 C7       		.byte	0xc7
 983 0187 15010000 		.4byte	0x115
 984 018b 08       		.byte	0x8
 985 018c 07       		.uleb128 0x7
 986 018d 06050000 		.4byte	.LASF33
 987 0191 02       		.byte	0x2
 988 0192 C8       		.byte	0xc8
 989 0193 CA040000 		.4byte	0x4ca
 990 0197 0C       		.byte	0xc
 991 0198 07       		.uleb128 0x7
 992 0199 F5020000 		.4byte	.LASF34
 993 019d 02       		.byte	0x2
 994 019e CA       		.byte	0xca
 995 019f 85020000 		.4byte	0x285
 996 01a3 10       		.byte	0x10
 997 01a4 07       		.uleb128 0x7
 998 01a5 F8040000 		.4byte	.LASF35
 999 01a9 02       		.byte	0x2
 1000 01aa CB       		.byte	0xcb
 1001 01ab 85020000 		.4byte	0x285
 1002 01af 14       		.byte	0x14
 1003 01b0 07       		.uleb128 0x7
 1004 01b1 EA070000 		.4byte	.LASF36
 1005 01b5 02       		.byte	0x2
 1006 01b6 D2       		.byte	0xd2
 1007 01b7 0F070000 		.4byte	0x70f
 1008 01bb 18       		.byte	0x18
 1009 01bc 07       		.uleb128 0x7
 1010 01bd 1D050000 		.4byte	.LASF37
 1011 01c1 02       		.byte	0x2
 1012 01c2 D8       		.byte	0xd8
 1013 01c3 26070000 		.4byte	0x726
 1014 01c7 1C       		.byte	0x1c
 1015 01c8 07       		.uleb128 0x7
 1016 01c9 CD050000 		.4byte	.LASF38
 1017 01cd 02       		.byte	0x2
 1018 01ce DD       		.byte	0xdd
 1019 01cf F4000000 		.4byte	0xf4
 1020 01d3 20       		.byte	0x20
 1021 01d4 07       		.uleb128 0x7
 1022 01d5 0B060000 		.4byte	.LASF39
 1023 01d9 02       		.byte	0x2
 1024 01da E1       		.byte	0xe1
 1025 01db E9000000 		.4byte	0xe9
 1026 01df 21       		.byte	0x21
ARM GAS  /tmp/ccX4yBEC.s 			page 19


 1027 01e0 07       		.uleb128 0x7
 1028 01e1 8E070000 		.4byte	.LASF40
 1029 01e5 02       		.byte	0x2
 1030 01e6 E6       		.byte	0xe6
 1031 01e7 FF000000 		.4byte	0xff
 1032 01eb 22       		.byte	0x22
 1033 01ec 07       		.uleb128 0x7
 1034 01ed D5050000 		.4byte	.LASF41
 1035 01f1 02       		.byte	0x2
 1036 01f2 EC       		.byte	0xec
 1037 01f3 0A010000 		.4byte	0x10a
 1038 01f7 23       		.byte	0x23
 1039 01f8 07       		.uleb128 0x7
 1040 01f9 AC030000 		.4byte	.LASF42
 1041 01fd 02       		.byte	0x2
 1042 01fe F3       		.byte	0xf3
 1043 01ff 4C010000 		.4byte	0x14c
 1044 0203 24       		.byte	0x24
 1045 0204 08       		.uleb128 0x8
 1046 0205 705F7500 		.ascii	"p_u\000"
 1047 0209 02       		.byte	0x2
 1048 020a 3101     		.2byte	0x131
 1049 020c 4A060000 		.4byte	0x64a
 1050 0210 28       		.byte	0x28
 1051 0211 09       		.uleb128 0x9
 1052 0212 70040000 		.4byte	.LASF43
 1053 0216 02       		.byte	0x2
 1054 0217 3601     		.2byte	0x136
 1055 0219 8B020000 		.4byte	0x28b
 1056 021d 2C       		.byte	0x2c
 1057 021e 09       		.uleb128 0x9
 1058 021f C3030000 		.4byte	.LASF44
 1059 0223 02       		.byte	0x2
 1060 0224 3C01     		.2byte	0x13c
 1061 0226 AF020000 		.4byte	0x2af
 1062 022a 30       		.byte	0x30
 1063 022b 09       		.uleb128 0x9
 1064 022c 62070000 		.4byte	.LASF45
 1065 0230 02       		.byte	0x2
 1066 0231 4001     		.2byte	0x140
 1067 0233 20010000 		.4byte	0x120
 1068 0237 38       		.byte	0x38
 1069 0238 09       		.uleb128 0x9
 1070 0239 6F060000 		.4byte	.LASF46
 1071 023d 02       		.byte	0x2
 1072 023e 4601     		.2byte	0x146
 1073 0240 2B010000 		.4byte	0x12b
 1074 0244 3C       		.byte	0x3c
 1075 0245 09       		.uleb128 0x9
 1076 0246 B9050000 		.4byte	.LASF47
 1077 024a 02       		.byte	0x2
 1078 024b 4D01     		.2byte	0x14d
 1079 024d 09070000 		.4byte	0x709
 1080 0251 40       		.byte	0x40
 1081 0252 09       		.uleb128 0x9
 1082 0253 2A070000 		.4byte	.LASF48
 1083 0257 02       		.byte	0x2
ARM GAS  /tmp/ccX4yBEC.s 			page 20


 1084 0258 5101     		.2byte	0x151
 1085 025a 15010000 		.4byte	0x115
 1086 025e 44       		.byte	0x44
 1087 025f 09       		.uleb128 0x9
 1088 0260 87020000 		.4byte	.LASF49
 1089 0264 02       		.byte	0x2
 1090 0265 5801     		.2byte	0x158
 1091 0267 67030000 		.4byte	0x367
 1092 026b 48       		.byte	0x48
 1093 026c 09       		.uleb128 0x9
 1094 026d 9C070000 		.4byte	.LASF50
 1095 0271 02       		.byte	0x2
 1096 0272 6201     		.2byte	0x162
 1097 0274 25000000 		.4byte	0x25
 1098 0278 4C       		.byte	0x4c
 1099 0279 00       		.byte	0
 1100 027a 04       		.uleb128 0x4
 1101 027b D0070000 		.4byte	.LASF51
 1102 027f 09       		.byte	0x9
 1103 0280 44       		.byte	0x44
 1104 0281 85020000 		.4byte	0x285
 1105 0285 0A       		.uleb128 0xa
 1106 0286 04       		.byte	0x4
 1107 0287 51010000 		.4byte	0x151
 1108 028b 04       		.uleb128 0x4
 1109 028c 03080000 		.4byte	.LASF52
 1110 0290 09       		.byte	0x9
 1111 0291 49       		.byte	0x49
 1112 0292 96020000 		.4byte	0x296
 1113 0296 06       		.uleb128 0x6
 1114 0297 BC060000 		.4byte	.LASF54
 1115 029b 04       		.byte	0x4
 1116 029c 02       		.byte	0x2
 1117 029d B0       		.byte	0xb0
 1118 029e AF020000 		.4byte	0x2af
 1119 02a2 07       		.uleb128 0x7
 1120 02a3 ED050000 		.4byte	.LASF30
 1121 02a7 02       		.byte	0x2
 1122 02a8 B1       		.byte	0xb1
 1123 02a9 85020000 		.4byte	0x285
 1124 02ad 00       		.byte	0
 1125 02ae 00       		.byte	0
 1126 02af 04       		.uleb128 0x4
 1127 02b0 26060000 		.4byte	.LASF55
 1128 02b4 09       		.byte	0x9
 1129 02b5 50       		.byte	0x50
 1130 02b6 BF020000 		.4byte	0x2bf
 1131 02ba 0B       		.uleb128 0xb
 1132 02bb AF020000 		.4byte	0x2af
 1133 02bf 06       		.uleb128 0x6
 1134 02c0 0B020000 		.4byte	.LASF56
 1135 02c4 08       		.byte	0x8
 1136 02c5 02       		.byte	0x2
 1137 02c6 B7       		.byte	0xb7
 1138 02c7 E4020000 		.4byte	0x2e4
 1139 02cb 07       		.uleb128 0x7
 1140 02cc ED050000 		.4byte	.LASF30
ARM GAS  /tmp/ccX4yBEC.s 			page 21


 1141 02d0 02       		.byte	0x2
 1142 02d1 B8       		.byte	0xb8
 1143 02d2 85020000 		.4byte	0x285
 1144 02d6 00       		.byte	0
 1145 02d7 07       		.uleb128 0x7
 1146 02d8 80050000 		.4byte	.LASF31
 1147 02dc 02       		.byte	0x2
 1148 02dd B9       		.byte	0xb9
 1149 02de 85020000 		.4byte	0x285
 1150 02e2 04       		.byte	0x4
 1151 02e3 00       		.byte	0
 1152 02e4 04       		.uleb128 0x4
 1153 02e5 0D000000 		.4byte	.LASF57
 1154 02e9 09       		.byte	0x9
 1155 02ea 57       		.byte	0x57
 1156 02eb EF020000 		.4byte	0x2ef
 1157 02ef 0C       		.uleb128 0xc
 1158 02f0 25040000 		.4byte	.LASF58
 1159 02f4 1C       		.byte	0x1c
 1160 02f5 02       		.byte	0x2
 1161 02f6 9001     		.2byte	0x190
 1162 02f8 4B030000 		.4byte	0x34b
 1163 02fc 09       		.uleb128 0x9
 1164 02fd A8060000 		.4byte	.LASF59
 1165 0301 02       		.byte	0x2
 1166 0302 9101     		.2byte	0x191
 1167 0304 AF020000 		.4byte	0x2af
 1168 0308 00       		.byte	0
 1169 0309 09       		.uleb128 0x9
 1170 030a DF050000 		.4byte	.LASF60
 1171 030e 02       		.byte	0x2
 1172 030f 9201     		.2byte	0x192
 1173 0311 15010000 		.4byte	0x115
 1174 0315 08       		.byte	0x8
 1175 0316 09       		.uleb128 0x9
 1176 0317 00050000 		.4byte	.LASF61
 1177 031b 02       		.byte	0x2
 1178 031c 9401     		.2byte	0x194
 1179 031e CA040000 		.4byte	0x4ca
 1180 0322 0C       		.byte	0xc
 1181 0323 09       		.uleb128 0x9
 1182 0324 1E030000 		.4byte	.LASF62
 1183 0328 02       		.byte	0x2
 1184 0329 9701     		.2byte	0x197
 1185 032b 85020000 		.4byte	0x285
 1186 032f 10       		.byte	0x10
 1187 0330 09       		.uleb128 0x9
 1188 0331 37050000 		.4byte	.LASF63
 1189 0335 02       		.byte	0x2
 1190 0336 9801     		.2byte	0x198
 1191 0338 85020000 		.4byte	0x285
 1192 033c 14       		.byte	0x14
 1193 033d 09       		.uleb128 0x9
 1194 033e 2D050000 		.4byte	.LASF64
 1195 0342 02       		.byte	0x2
 1196 0343 9B01     		.2byte	0x19b
 1197 0345 85020000 		.4byte	0x285
ARM GAS  /tmp/ccX4yBEC.s 			page 22


 1198 0349 18       		.byte	0x18
 1199 034a 00       		.byte	0
 1200 034b 04       		.uleb128 0x4
 1201 034c 35070000 		.4byte	.LASF65
 1202 0350 09       		.byte	0x9
 1203 0351 5C       		.byte	0x5c
 1204 0352 56030000 		.4byte	0x356
 1205 0356 0A       		.uleb128 0xa
 1206 0357 04       		.byte	0x4
 1207 0358 5C030000 		.4byte	0x35c
 1208 035c 0D       		.uleb128 0xd
 1209 035d 67030000 		.4byte	0x367
 1210 0361 0E       		.uleb128 0xe
 1211 0362 67030000 		.4byte	0x367
 1212 0366 00       		.byte	0
 1213 0367 0F       		.uleb128 0xf
 1214 0368 04       		.byte	0x4
 1215 0369 04       		.uleb128 0x4
 1216 036a 70050000 		.4byte	.LASF66
 1217 036e 09       		.byte	0x9
 1218 036f 61       		.byte	0x61
 1219 0370 74030000 		.4byte	0x374
 1220 0374 0C       		.uleb128 0xc
 1221 0375 36060000 		.4byte	.LASF67
 1222 0379 14       		.byte	0x14
 1223 037a 02       		.byte	0x2
 1224 037b 6B01     		.2byte	0x16b
 1225 037d C3030000 		.4byte	0x3c3
 1226 0381 09       		.uleb128 0x9
 1227 0382 8B030000 		.4byte	.LASF68
 1228 0386 02       		.byte	0x2
 1229 0387 6C01     		.2byte	0x16c
 1230 0389 2C070000 		.4byte	0x72c
 1231 038d 00       		.byte	0
 1232 038e 09       		.uleb128 0x9
 1233 038f 2F030000 		.4byte	.LASF69
 1234 0393 02       		.byte	0x2
 1235 0394 6D01     		.2byte	0x16d
 1236 0396 2C070000 		.4byte	0x72c
 1237 039a 04       		.byte	0x4
 1238 039b 09       		.uleb128 0x9
 1239 039c BA030000 		.4byte	.LASF70
 1240 03a0 02       		.byte	0x2
 1241 03a1 6E01     		.2byte	0x16e
 1242 03a3 41010000 		.4byte	0x141
 1243 03a7 08       		.byte	0x8
 1244 03a8 09       		.uleb128 0x9
 1245 03a9 71080000 		.4byte	.LASF71
 1246 03ad 02       		.byte	0x2
 1247 03ae 6F01     		.2byte	0x16f
 1248 03b0 4B030000 		.4byte	0x34b
 1249 03b4 0C       		.byte	0xc
 1250 03b5 09       		.uleb128 0x9
 1251 03b6 73070000 		.4byte	.LASF72
 1252 03ba 02       		.byte	0x2
 1253 03bb 7101     		.2byte	0x171
 1254 03bd 67030000 		.4byte	0x367
ARM GAS  /tmp/ccX4yBEC.s 			page 23


 1255 03c1 10       		.byte	0x10
 1256 03c2 00       		.byte	0
 1257 03c3 04       		.uleb128 0x4
 1258 03c4 E8010000 		.4byte	.LASF73
 1259 03c8 09       		.byte	0x9
 1260 03c9 66       		.byte	0x66
 1261 03ca CE030000 		.4byte	0x3ce
 1262 03ce 0C       		.uleb128 0xc
 1263 03cf A3040000 		.4byte	.LASF74
 1264 03d3 10       		.byte	0x10
 1265 03d4 02       		.byte	0x2
 1266 03d5 7B01     		.2byte	0x17b
 1267 03d7 10040000 		.4byte	0x410
 1268 03db 09       		.uleb128 0x9
 1269 03dc 8B030000 		.4byte	.LASF68
 1270 03e0 02       		.byte	0x2
 1271 03e1 7C01     		.2byte	0x17c
 1272 03e3 2C070000 		.4byte	0x72c
 1273 03e7 00       		.byte	0
 1274 03e8 09       		.uleb128 0x9
 1275 03e9 2F030000 		.4byte	.LASF69
 1276 03ed 02       		.byte	0x2
 1277 03ee 7E01     		.2byte	0x17e
 1278 03f0 2C070000 		.4byte	0x72c
 1279 03f4 04       		.byte	0x4
 1280 03f5 09       		.uleb128 0x9
 1281 03f6 BA030000 		.4byte	.LASF70
 1282 03fa 02       		.byte	0x2
 1283 03fb 8001     		.2byte	0x180
 1284 03fd 41010000 		.4byte	0x141
 1285 0401 08       		.byte	0x8
 1286 0402 09       		.uleb128 0x9
 1287 0403 30020000 		.4byte	.LASF75
 1288 0407 02       		.byte	0x2
 1289 0408 8201     		.2byte	0x182
 1290 040a 4C010000 		.4byte	0x14c
 1291 040e 0C       		.byte	0xc
 1292 040f 00       		.byte	0
 1293 0410 04       		.uleb128 0x4
 1294 0411 46000000 		.4byte	.LASF76
 1295 0415 09       		.byte	0x9
 1296 0416 6B       		.byte	0x6b
 1297 0417 1B040000 		.4byte	0x41b
 1298 041b 0C       		.uleb128 0xc
 1299 041c 37030000 		.4byte	.LASF77
 1300 0420 04       		.byte	0x4
 1301 0421 02       		.byte	0x2
 1302 0422 A201     		.2byte	0x1a2
 1303 0424 36040000 		.4byte	0x436
 1304 0428 09       		.uleb128 0x9
 1305 0429 49070000 		.4byte	.LASF78
 1306 042d 02       		.byte	0x2
 1307 042e AA01     		.2byte	0x1aa
 1308 0430 15070000 		.4byte	0x715
 1309 0434 00       		.byte	0
 1310 0435 00       		.byte	0
 1311 0436 04       		.uleb128 0x4
ARM GAS  /tmp/ccX4yBEC.s 			page 24


 1312 0437 0D040000 		.4byte	.LASF79
 1313 043b 09       		.byte	0x9
 1314 043c 70       		.byte	0x70
 1315 043d 41040000 		.4byte	0x441
 1316 0441 10       		.uleb128 0x10
 1317 0442 B4020000 		.4byte	.LASF80
 1318 0446 6802     		.2byte	0x268
 1319 0448 02       		.byte	0x2
 1320 0449 C201     		.2byte	0x1c2
 1321 044b 9D040000 		.4byte	0x49d
 1322 044f 09       		.uleb128 0x9
 1323 0450 B4070000 		.4byte	.LASF81
 1324 0454 02       		.byte	0x2
 1325 0455 C601     		.2byte	0x1c6
 1326 0457 E4020000 		.4byte	0x2e4
 1327 045b 00       		.byte	0
 1328 045c 09       		.uleb128 0x9
 1329 045d 97020000 		.4byte	.LASF82
 1330 0461 02       		.byte	0x2
 1331 0462 CA01     		.2byte	0x1ca
 1332 0464 C3030000 		.4byte	0x3c3
 1333 0468 1C       		.byte	0x1c
 1334 0469 08       		.uleb128 0x8
 1335 046a 64626700 		.ascii	"dbg\000"
 1336 046e 02       		.byte	0x2
 1337 046f CE01     		.2byte	0x1ce
 1338 0471 10040000 		.4byte	0x410
 1339 0475 2C       		.byte	0x2c
 1340 0476 09       		.uleb128 0x9
 1341 0477 DD010000 		.4byte	.LASF83
 1342 047b 02       		.byte	0x2
 1343 047c D201     		.2byte	0x1d2
 1344 047e 51010000 		.4byte	0x151
 1345 0482 30       		.byte	0x30
 1346 0483 08       		.uleb128 0x8
 1347 0484 746D00   		.ascii	"tm\000"
 1348 0487 02       		.byte	0x2
 1349 0488 D701     		.2byte	0x1d7
 1350 048a 3F060000 		.4byte	0x63f
 1351 048e 80       		.byte	0x80
 1352 048f 09       		.uleb128 0x9
 1353 0490 5C030000 		.4byte	.LASF84
 1354 0494 02       		.byte	0x2
 1355 0495 E301     		.2byte	0x1e3
 1356 0497 32070000 		.4byte	0x732
 1357 049b 88       		.byte	0x88
 1358 049c 00       		.byte	0
 1359 049d 11       		.uleb128 0x11
 1360 049e FE010000 		.4byte	.LASF85
 1361 04a2 0A       		.byte	0xa
 1362 04a3 A706     		.2byte	0x6a7
 1363 04a5 C3000000 		.4byte	0xc3
 1364 04a9 12       		.uleb128 0x12
 1365 04aa 9C030000 		.4byte	.LASF86
 1366 04ae 0B       		.byte	0xb
 1367 04af 4C       		.byte	0x4c
 1368 04b0 C8000000 		.4byte	0xc8
ARM GAS  /tmp/ccX4yBEC.s 			page 25


 1369 04b4 04       		.uleb128 0x4
 1370 04b5 26030000 		.4byte	.LASF87
 1371 04b9 0C       		.byte	0xc
 1372 04ba 65       		.byte	0x65
 1373 04bb 67030000 		.4byte	0x367
 1374 04bf 04       		.uleb128 0x4
 1375 04c0 49040000 		.4byte	.LASF88
 1376 04c4 0C       		.byte	0xc
 1377 04c5 6D       		.byte	0x6d
 1378 04c6 D3000000 		.4byte	0xd3
 1379 04ca 06       		.uleb128 0x6
 1380 04cb 5A070000 		.4byte	.LASF89
 1381 04cf 04       		.byte	0x4
 1382 04d0 0C       		.byte	0xc
 1383 04d1 89       		.byte	0x89
 1384 04d2 E3040000 		.4byte	0x4e3
 1385 04d6 13       		.uleb128 0x13
 1386 04d7 72313300 		.ascii	"r13\000"
 1387 04db 0C       		.byte	0xc
 1388 04dc 8A       		.byte	0x8a
 1389 04dd 24060000 		.4byte	0x624
 1390 04e1 00       		.byte	0
 1391 04e2 00       		.byte	0
 1392 04e3 06       		.uleb128 0x6
 1393 04e4 3A000000 		.4byte	.LASF90
 1394 04e8 64       		.byte	0x64
 1395 04e9 0D       		.byte	0xd
 1396 04ea F4       		.byte	0xf4
 1397 04eb 24060000 		.4byte	0x624
 1398 04ef 13       		.uleb128 0x13
 1399 04f0 73313600 		.ascii	"s16\000"
 1400 04f4 0D       		.byte	0xd
 1401 04f5 F6       		.byte	0xf6
 1402 04f6 B4040000 		.4byte	0x4b4
 1403 04fa 00       		.byte	0
 1404 04fb 13       		.uleb128 0x13
 1405 04fc 73313700 		.ascii	"s17\000"
 1406 0500 0D       		.byte	0xd
 1407 0501 F7       		.byte	0xf7
 1408 0502 B4040000 		.4byte	0x4b4
 1409 0506 04       		.byte	0x4
 1410 0507 13       		.uleb128 0x13
 1411 0508 73313800 		.ascii	"s18\000"
 1412 050c 0D       		.byte	0xd
 1413 050d F8       		.byte	0xf8
 1414 050e B4040000 		.4byte	0x4b4
 1415 0512 08       		.byte	0x8
 1416 0513 13       		.uleb128 0x13
 1417 0514 73313900 		.ascii	"s19\000"
 1418 0518 0D       		.byte	0xd
 1419 0519 F9       		.byte	0xf9
 1420 051a B4040000 		.4byte	0x4b4
 1421 051e 0C       		.byte	0xc
 1422 051f 13       		.uleb128 0x13
 1423 0520 73323000 		.ascii	"s20\000"
 1424 0524 0D       		.byte	0xd
 1425 0525 FA       		.byte	0xfa
ARM GAS  /tmp/ccX4yBEC.s 			page 26


 1426 0526 B4040000 		.4byte	0x4b4
 1427 052a 10       		.byte	0x10
 1428 052b 13       		.uleb128 0x13
 1429 052c 73323100 		.ascii	"s21\000"
 1430 0530 0D       		.byte	0xd
 1431 0531 FB       		.byte	0xfb
 1432 0532 B4040000 		.4byte	0x4b4
 1433 0536 14       		.byte	0x14
 1434 0537 13       		.uleb128 0x13
 1435 0538 73323200 		.ascii	"s22\000"
 1436 053c 0D       		.byte	0xd
 1437 053d FC       		.byte	0xfc
 1438 053e B4040000 		.4byte	0x4b4
 1439 0542 18       		.byte	0x18
 1440 0543 13       		.uleb128 0x13
 1441 0544 73323300 		.ascii	"s23\000"
 1442 0548 0D       		.byte	0xd
 1443 0549 FD       		.byte	0xfd
 1444 054a B4040000 		.4byte	0x4b4
 1445 054e 1C       		.byte	0x1c
 1446 054f 13       		.uleb128 0x13
 1447 0550 73323400 		.ascii	"s24\000"
 1448 0554 0D       		.byte	0xd
 1449 0555 FE       		.byte	0xfe
 1450 0556 B4040000 		.4byte	0x4b4
 1451 055a 20       		.byte	0x20
 1452 055b 13       		.uleb128 0x13
 1453 055c 73323500 		.ascii	"s25\000"
 1454 0560 0D       		.byte	0xd
 1455 0561 FF       		.byte	0xff
 1456 0562 B4040000 		.4byte	0x4b4
 1457 0566 24       		.byte	0x24
 1458 0567 08       		.uleb128 0x8
 1459 0568 73323600 		.ascii	"s26\000"
 1460 056c 0D       		.byte	0xd
 1461 056d 0001     		.2byte	0x100
 1462 056f B4040000 		.4byte	0x4b4
 1463 0573 28       		.byte	0x28
 1464 0574 08       		.uleb128 0x8
 1465 0575 73323700 		.ascii	"s27\000"
 1466 0579 0D       		.byte	0xd
 1467 057a 0101     		.2byte	0x101
 1468 057c B4040000 		.4byte	0x4b4
 1469 0580 2C       		.byte	0x2c
 1470 0581 08       		.uleb128 0x8
 1471 0582 73323800 		.ascii	"s28\000"
 1472 0586 0D       		.byte	0xd
 1473 0587 0201     		.2byte	0x102
 1474 0589 B4040000 		.4byte	0x4b4
 1475 058d 30       		.byte	0x30
 1476 058e 08       		.uleb128 0x8
 1477 058f 73323900 		.ascii	"s29\000"
 1478 0593 0D       		.byte	0xd
 1479 0594 0301     		.2byte	0x103
 1480 0596 B4040000 		.4byte	0x4b4
 1481 059a 34       		.byte	0x34
 1482 059b 08       		.uleb128 0x8
ARM GAS  /tmp/ccX4yBEC.s 			page 27


 1483 059c 73333000 		.ascii	"s30\000"
 1484 05a0 0D       		.byte	0xd
 1485 05a1 0401     		.2byte	0x104
 1486 05a3 B4040000 		.4byte	0x4b4
 1487 05a7 38       		.byte	0x38
 1488 05a8 08       		.uleb128 0x8
 1489 05a9 73333100 		.ascii	"s31\000"
 1490 05ad 0D       		.byte	0xd
 1491 05ae 0501     		.2byte	0x105
 1492 05b0 B4040000 		.4byte	0x4b4
 1493 05b4 3C       		.byte	0x3c
 1494 05b5 08       		.uleb128 0x8
 1495 05b6 723400   		.ascii	"r4\000"
 1496 05b9 0D       		.byte	0xd
 1497 05ba 0701     		.2byte	0x107
 1498 05bc B4040000 		.4byte	0x4b4
 1499 05c0 40       		.byte	0x40
 1500 05c1 08       		.uleb128 0x8
 1501 05c2 723500   		.ascii	"r5\000"
 1502 05c5 0D       		.byte	0xd
 1503 05c6 0801     		.2byte	0x108
 1504 05c8 B4040000 		.4byte	0x4b4
 1505 05cc 44       		.byte	0x44
 1506 05cd 08       		.uleb128 0x8
 1507 05ce 723600   		.ascii	"r6\000"
 1508 05d1 0D       		.byte	0xd
 1509 05d2 0901     		.2byte	0x109
 1510 05d4 B4040000 		.4byte	0x4b4
 1511 05d8 48       		.byte	0x48
 1512 05d9 08       		.uleb128 0x8
 1513 05da 723700   		.ascii	"r7\000"
 1514 05dd 0D       		.byte	0xd
 1515 05de 0A01     		.2byte	0x10a
 1516 05e0 B4040000 		.4byte	0x4b4
 1517 05e4 4C       		.byte	0x4c
 1518 05e5 08       		.uleb128 0x8
 1519 05e6 723800   		.ascii	"r8\000"
 1520 05e9 0D       		.byte	0xd
 1521 05ea 0B01     		.2byte	0x10b
 1522 05ec B4040000 		.4byte	0x4b4
 1523 05f0 50       		.byte	0x50
 1524 05f1 08       		.uleb128 0x8
 1525 05f2 723900   		.ascii	"r9\000"
 1526 05f5 0D       		.byte	0xd
 1527 05f6 0C01     		.2byte	0x10c
 1528 05f8 B4040000 		.4byte	0x4b4
 1529 05fc 54       		.byte	0x54
 1530 05fd 08       		.uleb128 0x8
 1531 05fe 72313000 		.ascii	"r10\000"
 1532 0602 0D       		.byte	0xd
 1533 0603 0D01     		.2byte	0x10d
 1534 0605 B4040000 		.4byte	0x4b4
 1535 0609 58       		.byte	0x58
 1536 060a 08       		.uleb128 0x8
 1537 060b 72313100 		.ascii	"r11\000"
 1538 060f 0D       		.byte	0xd
 1539 0610 0E01     		.2byte	0x10e
ARM GAS  /tmp/ccX4yBEC.s 			page 28


 1540 0612 B4040000 		.4byte	0x4b4
 1541 0616 5C       		.byte	0x5c
 1542 0617 08       		.uleb128 0x8
 1543 0618 6C7200   		.ascii	"lr\000"
 1544 061b 0D       		.byte	0xd
 1545 061c 0F01     		.2byte	0x10f
 1546 061e B4040000 		.4byte	0x4b4
 1547 0622 60       		.byte	0x60
 1548 0623 00       		.byte	0
 1549 0624 0A       		.uleb128 0xa
 1550 0625 04       		.byte	0x4
 1551 0626 E3040000 		.4byte	0x4e3
 1552 062a 14       		.uleb128 0x14
 1553 062b 04       		.byte	0x4
 1554 062c 0E       		.byte	0xe
 1555 062d 38       		.byte	0x38
 1556 062e 3F060000 		.4byte	0x63f
 1557 0632 07       		.uleb128 0x7
 1558 0633 53070000 		.4byte	.LASF91
 1559 0637 0E       		.byte	0xe
 1560 0638 3C       		.byte	0x3c
 1561 0639 DE000000 		.4byte	0xde
 1562 063d 00       		.byte	0
 1563 063e 00       		.byte	0
 1564 063f 04       		.uleb128 0x4
 1565 0640 0C050000 		.4byte	.LASF92
 1566 0644 0E       		.byte	0xe
 1567 0645 3D       		.byte	0x3d
 1568 0646 2A060000 		.4byte	0x62a
 1569 064a 15       		.uleb128 0x15
 1570 064b 04       		.byte	0x4
 1571 064c 02       		.byte	0x2
 1572 064d FA       		.byte	0xfa
 1573 064e A7060000 		.4byte	0x6a7
 1574 0652 16       		.uleb128 0x16
 1575 0653 20000000 		.4byte	.LASF93
 1576 0657 02       		.byte	0x2
 1577 0658 0101     		.2byte	0x101
 1578 065a 20010000 		.4byte	0x120
 1579 065e 16       		.uleb128 0x16
 1580 065f D4010000 		.4byte	.LASF94
 1581 0663 02       		.byte	0x2
 1582 0664 0801     		.2byte	0x108
 1583 0666 20010000 		.4byte	0x120
 1584 066a 16       		.uleb128 0x16
 1585 066b E3070000 		.4byte	.LASF95
 1586 066f 02       		.byte	0x2
 1587 0670 0F01     		.2byte	0x10f
 1588 0672 67030000 		.4byte	0x367
 1589 0676 16       		.uleb128 0x16
 1590 0677 1A000000 		.4byte	.LASF96
 1591 067b 02       		.byte	0x2
 1592 067c 1601     		.2byte	0x116
 1593 067e A7060000 		.4byte	0x6a7
 1594 0682 16       		.uleb128 0x16
 1595 0683 B3030000 		.4byte	.LASF97
 1596 0687 02       		.byte	0x2
ARM GAS  /tmp/ccX4yBEC.s 			page 29


 1597 0688 1E01     		.2byte	0x11e
 1598 068a D2060000 		.4byte	0x6d2
 1599 068e 16       		.uleb128 0x16
 1600 068f EB060000 		.4byte	.LASF98
 1601 0693 02       		.byte	0x2
 1602 0694 2701     		.2byte	0x127
 1603 0696 09070000 		.4byte	0x709
 1604 069a 16       		.uleb128 0x16
 1605 069b E6050000 		.4byte	.LASF99
 1606 069f 02       		.byte	0x2
 1607 06a0 2F01     		.2byte	0x12f
 1608 06a2 2B010000 		.4byte	0x12b
 1609 06a6 00       		.byte	0
 1610 06a7 0A       		.uleb128 0xa
 1611 06a8 04       		.byte	0x4
 1612 06a9 7A020000 		.4byte	0x27a
 1613 06ad 06       		.uleb128 0x6
 1614 06ae 54060000 		.4byte	.LASF100
 1615 06b2 0C       		.byte	0xc
 1616 06b3 0F       		.byte	0xf
 1617 06b4 34       		.byte	0x34
 1618 06b5 D2060000 		.4byte	0x6d2
 1619 06b9 07       		.uleb128 0x7
 1620 06ba FD020000 		.4byte	.LASF101
 1621 06be 0F       		.byte	0xf
 1622 06bf 35       		.byte	0x35
 1623 06c0 AF020000 		.4byte	0x2af
 1624 06c4 00       		.byte	0
 1625 06c5 07       		.uleb128 0x7
 1626 06c6 D7030000 		.4byte	.LASF102
 1627 06ca 0F       		.byte	0xf
 1628 06cb 37       		.byte	0x37
 1629 06cc 36010000 		.4byte	0x136
 1630 06d0 08       		.byte	0x8
 1631 06d1 00       		.byte	0
 1632 06d2 0A       		.uleb128 0xa
 1633 06d3 04       		.byte	0x4
 1634 06d4 AD060000 		.4byte	0x6ad
 1635 06d8 06       		.uleb128 0x6
 1636 06d9 85070000 		.4byte	.LASF103
 1637 06dd 10       		.byte	0x10
 1638 06de 04       		.byte	0x4
 1639 06df 39       		.byte	0x39
 1640 06e0 09070000 		.4byte	0x709
 1641 06e4 07       		.uleb128 0x7
 1642 06e5 8F020000 		.4byte	.LASF104
 1643 06e9 04       		.byte	0x4
 1644 06ea 3A       		.byte	0x3a
 1645 06eb AF020000 		.4byte	0x2af
 1646 06ef 00       		.byte	0
 1647 06f0 07       		.uleb128 0x7
 1648 06f1 5B080000 		.4byte	.LASF105
 1649 06f5 04       		.byte	0x4
 1650 06f6 3C       		.byte	0x3c
 1651 06f7 85020000 		.4byte	0x285
 1652 06fb 08       		.byte	0x8
 1653 06fc 07       		.uleb128 0x7
ARM GAS  /tmp/ccX4yBEC.s 			page 30


 1654 06fd 95070000 		.4byte	.LASF106
 1655 0701 04       		.byte	0x4
 1656 0702 3E       		.byte	0x3e
 1657 0703 64080000 		.4byte	0x864
 1658 0707 0C       		.byte	0xc
 1659 0708 00       		.byte	0
 1660 0709 0A       		.uleb128 0xa
 1661 070a 04       		.byte	0x4
 1662 070b D8060000 		.4byte	0x6d8
 1663 070f 0A       		.uleb128 0xa
 1664 0710 04       		.byte	0x4
 1665 0711 21070000 		.4byte	0x721
 1666 0715 05       		.uleb128 0x5
 1667 0716 0F070000 		.4byte	0x70f
 1668 071a 03       		.uleb128 0x3
 1669 071b 01       		.byte	0x1
 1670 071c 08       		.byte	0x8
 1671 071d E6060000 		.4byte	.LASF107
 1672 0721 0B       		.uleb128 0xb
 1673 0722 1A070000 		.4byte	0x71a
 1674 0726 0A       		.uleb128 0xa
 1675 0727 04       		.byte	0x4
 1676 0728 BF040000 		.4byte	0x4bf
 1677 072c 0A       		.uleb128 0xa
 1678 072d 04       		.byte	0x4
 1679 072e 69030000 		.4byte	0x369
 1680 0732 17       		.uleb128 0x17
 1681 0733 BF040000 		.4byte	0x4bf
 1682 0737 42070000 		.4byte	0x742
 1683 073b 18       		.uleb128 0x18
 1684 073c 2C000000 		.4byte	0x2c
 1685 0740 3B       		.byte	0x3b
 1686 0741 00       		.byte	0
 1687 0742 19       		.uleb128 0x19
 1688 0743 636800   		.ascii	"ch\000"
 1689 0746 02       		.byte	0x2
 1690 0747 0902     		.2byte	0x209
 1691 0749 36040000 		.4byte	0x436
 1692 074d 14       		.uleb128 0x14
 1693 074e 16       		.byte	0x16
 1694 074f 10       		.byte	0x10
 1695 0750 34       		.byte	0x34
 1696 0751 2E080000 		.4byte	0x82e
 1697 0755 07       		.uleb128 0x7
 1698 0756 63080000 		.4byte	.LASF108
 1699 075a 10       		.byte	0x10
 1700 075b 35       		.byte	0x35
 1701 075c 2E080000 		.4byte	0x82e
 1702 0760 00       		.byte	0
 1703 0761 07       		.uleb128 0x7
 1704 0762 5C040000 		.4byte	.LASF109
 1705 0766 10       		.byte	0x10
 1706 0767 36       		.byte	0x36
 1707 0768 A2000000 		.4byte	0xa2
 1708 076c 04       		.byte	0x4
 1709 076d 07       		.uleb128 0x7
 1710 076e CC060000 		.4byte	.LASF110
ARM GAS  /tmp/ccX4yBEC.s 			page 31


 1711 0772 10       		.byte	0x10
 1712 0773 37       		.byte	0x37
 1713 0774 A2000000 		.4byte	0xa2
 1714 0778 05       		.byte	0x5
 1715 0779 07       		.uleb128 0x7
 1716 077a 33080000 		.4byte	.LASF111
 1717 077e 10       		.byte	0x10
 1718 077f 38       		.byte	0x38
 1719 0780 AD000000 		.4byte	0xad
 1720 0784 06       		.byte	0x6
 1721 0785 07       		.uleb128 0x7
 1722 0786 65050000 		.4byte	.LASF112
 1723 078a 10       		.byte	0x10
 1724 078b 39       		.byte	0x39
 1725 078c A2000000 		.4byte	0xa2
 1726 0790 08       		.byte	0x8
 1727 0791 07       		.uleb128 0x7
 1728 0792 E0040000 		.4byte	.LASF113
 1729 0796 10       		.byte	0x10
 1730 0797 3A       		.byte	0x3a
 1731 0798 A2000000 		.4byte	0xa2
 1732 079c 09       		.byte	0x9
 1733 079d 07       		.uleb128 0x7
 1734 079e C6010000 		.4byte	.LASF114
 1735 07a2 10       		.byte	0x10
 1736 07a3 3B       		.byte	0x3b
 1737 07a4 A2000000 		.4byte	0xa2
 1738 07a8 0A       		.byte	0xa
 1739 07a9 07       		.uleb128 0x7
 1740 07aa 9C060000 		.4byte	.LASF115
 1741 07ae 10       		.byte	0x10
 1742 07af 3C       		.byte	0x3c
 1743 07b0 A2000000 		.4byte	0xa2
 1744 07b4 0B       		.byte	0xb
 1745 07b5 07       		.uleb128 0x7
 1746 07b6 7A070000 		.4byte	.LASF116
 1747 07ba 10       		.byte	0x10
 1748 07bb 3D       		.byte	0x3d
 1749 07bc A2000000 		.4byte	0xa2
 1750 07c0 0C       		.byte	0xc
 1751 07c1 07       		.uleb128 0x7
 1752 07c2 47060000 		.4byte	.LASF117
 1753 07c6 10       		.byte	0x10
 1754 07c7 3E       		.byte	0x3e
 1755 07c8 A2000000 		.4byte	0xa2
 1756 07cc 0D       		.byte	0xd
 1757 07cd 07       		.uleb128 0x7
 1758 07ce 00000000 		.4byte	.LASF118
 1759 07d2 10       		.byte	0x10
 1760 07d3 3F       		.byte	0x3f
 1761 07d4 A2000000 		.4byte	0xa2
 1762 07d8 0E       		.byte	0xe
 1763 07d9 07       		.uleb128 0x7
 1764 07da EC040000 		.4byte	.LASF119
 1765 07de 10       		.byte	0x10
 1766 07df 40       		.byte	0x40
 1767 07e0 A2000000 		.4byte	0xa2
ARM GAS  /tmp/ccX4yBEC.s 			page 32


 1768 07e4 0F       		.byte	0xf
 1769 07e5 07       		.uleb128 0x7
 1770 07e6 6A020000 		.4byte	.LASF120
 1771 07ea 10       		.byte	0x10
 1772 07eb 41       		.byte	0x41
 1773 07ec A2000000 		.4byte	0xa2
 1774 07f0 10       		.byte	0x10
 1775 07f1 07       		.uleb128 0x7
 1776 07f2 23020000 		.4byte	.LASF121
 1777 07f6 10       		.byte	0x10
 1778 07f7 43       		.byte	0x43
 1779 07f8 A2000000 		.4byte	0xa2
 1780 07fc 11       		.byte	0x11
 1781 07fd 07       		.uleb128 0x7
 1782 07fe 7A020000 		.4byte	.LASF122
 1783 0802 10       		.byte	0x10
 1784 0803 44       		.byte	0x44
 1785 0804 A2000000 		.4byte	0xa2
 1786 0808 12       		.byte	0x12
 1787 0809 07       		.uleb128 0x7
 1788 080a 64040000 		.4byte	.LASF123
 1789 080e 10       		.byte	0x10
 1790 080f 45       		.byte	0x45
 1791 0810 A2000000 		.4byte	0xa2
 1792 0814 13       		.byte	0x13
 1793 0815 07       		.uleb128 0x7
 1794 0816 FC050000 		.4byte	.LASF124
 1795 081a 10       		.byte	0x10
 1796 081b 46       		.byte	0x46
 1797 081c A2000000 		.4byte	0xa2
 1798 0820 14       		.byte	0x14
 1799 0821 07       		.uleb128 0x7
 1800 0822 19040000 		.4byte	.LASF125
 1801 0826 10       		.byte	0x10
 1802 0827 48       		.byte	0x48
 1803 0828 A2000000 		.4byte	0xa2
 1804 082c 15       		.byte	0x15
 1805 082d 00       		.byte	0
 1806 082e 17       		.uleb128 0x17
 1807 082f 1A070000 		.4byte	0x71a
 1808 0833 3E080000 		.4byte	0x83e
 1809 0837 18       		.uleb128 0x18
 1810 0838 2C000000 		.4byte	0x2c
 1811 083c 03       		.byte	0x3
 1812 083d 00       		.byte	0
 1813 083e 04       		.uleb128 0x4
 1814 083f EB020000 		.4byte	.LASF126
 1815 0843 10       		.byte	0x10
 1816 0844 49       		.byte	0x49
 1817 0845 4D070000 		.4byte	0x74d
 1818 0849 0B       		.uleb128 0xb
 1819 084a 3E080000 		.4byte	0x83e
 1820 084e 12       		.uleb128 0x12
 1821 084f CE030000 		.4byte	.LASF127
 1822 0853 10       		.byte	0x10
 1823 0854 6E       		.byte	0x6e
 1824 0855 49080000 		.4byte	0x849
ARM GAS  /tmp/ccX4yBEC.s 			page 33


 1825 0859 04       		.uleb128 0x4
 1826 085a 47030000 		.4byte	.LASF128
 1827 085e 04       		.byte	0x4
 1828 085f 34       		.byte	0x34
 1829 0860 D8060000 		.4byte	0x6d8
 1830 0864 0A       		.uleb128 0xa
 1831 0865 04       		.byte	0x4
 1832 0866 59080000 		.4byte	0x859
 1833 086a 06       		.uleb128 0x6
 1834 086b BA040000 		.4byte	.LASF129
 1835 086f 08       		.byte	0x8
 1836 0870 11       		.byte	0x11
 1837 0871 3B       		.byte	0x3b
 1838 0872 83080000 		.4byte	0x883
 1839 0876 07       		.uleb128 0x7
 1840 0877 54040000 		.4byte	.LASF130
 1841 087b 11       		.byte	0x11
 1842 087c 3C       		.byte	0x3c
 1843 087d AF020000 		.4byte	0x2af
 1844 0881 00       		.byte	0
 1845 0882 00       		.byte	0
 1846 0883 04       		.uleb128 0x4
 1847 0884 55020000 		.4byte	.LASF131
 1848 0888 11       		.byte	0x11
 1849 0889 3E       		.byte	0x3e
 1850 088a 6A080000 		.4byte	0x86a
 1851 088e 1A       		.uleb128 0x1a
 1852 088f CD040000 		.4byte	.LASF133
 1853 0893 01       		.byte	0x1
 1854 0894 2801     		.2byte	0x128
 1855 0896 20010000 		.4byte	0x120
 1856 089a 00000000 		.4byte	.LFB227
 1857 089e 58000000 		.4byte	.LFE227-.LFB227
 1858 08a2 01       		.uleb128 0x1
 1859 08a3 9C       		.byte	0x9c
 1860 08a4 83090000 		.4byte	0x983
 1861 08a8 1B       		.uleb128 0x1b
 1862 08a9 637000   		.ascii	"cp\000"
 1863 08ac 01       		.byte	0x1
 1864 08ad 2801     		.2byte	0x128
 1865 08af 83090000 		.4byte	0x983
 1866 08b3 00000000 		.4byte	.LLST24
 1867 08b7 1C       		.uleb128 0x1c
 1868 08b8 28050000 		.4byte	.LASF132
 1869 08bc 01       		.byte	0x1
 1870 08bd 2801     		.2byte	0x128
 1871 08bf 41010000 		.4byte	0x141
 1872 08c3 1E000000 		.4byte	.LLST25
 1873 08c7 1D       		.uleb128 0x1d
 1874 08c8 6D7000   		.ascii	"mp\000"
 1875 08cb 01       		.byte	0x1
 1876 08cc 2901     		.2byte	0x129
 1877 08ce 64080000 		.4byte	0x864
 1878 08d2 1E       		.uleb128 0x1e
 1879 08d3 6D736700 		.ascii	"msg\000"
 1880 08d7 01       		.byte	0x1
 1881 08d8 2A01     		.2byte	0x12a
ARM GAS  /tmp/ccX4yBEC.s 			page 34


 1882 08da 20010000 		.4byte	0x120
 1883 08de 3C000000 		.4byte	.LLST26
 1884 08e2 1F       		.uleb128 0x1f
 1885 08e3 13060000 		.4byte	.LASF136
 1886 08e7 99090000 		.4byte	0x999
 1887 08eb 20       		.uleb128 0x20
 1888 08ec 5C0F0000 		.4byte	0xf5c
 1889 08f0 04000000 		.4byte	.LBB162
 1890 08f4 06000000 		.4byte	.LBE162-.LBB162
 1891 08f8 01       		.byte	0x1
 1892 08f9 3101     		.2byte	0x131
 1893 08fb 0F090000 		.4byte	0x90f
 1894 08ff 21       		.uleb128 0x21
 1895 0900 680F0000 		.4byte	0xf68
 1896 0904 04000000 		.4byte	.LBB164
 1897 0908 02000000 		.4byte	.LBE164-.LBB164
 1898 090c 04       		.byte	0x4
 1899 090d 92       		.byte	0x92
 1900 090e 00       		.byte	0
 1901 090f 22       		.uleb128 0x22
 1902 0910 C70F0000 		.4byte	0xfc7
 1903 0914 1E000000 		.4byte	.LBB166
 1904 0918 C8000000 		.4byte	.Ldebug_ranges0+0xc8
 1905 091c 01       		.byte	0x1
 1906 091d 3701     		.2byte	0x137
 1907 091f 45090000 		.4byte	0x945
 1908 0923 23       		.uleb128 0x23
 1909 0924 DF0F0000 		.4byte	0xfdf
 1910 0928 5A000000 		.4byte	.LLST27
 1911 092c 23       		.uleb128 0x23
 1912 092d D40F0000 		.4byte	0xfd4
 1913 0931 78000000 		.4byte	.LLST28
 1914 0935 24       		.uleb128 0x24
 1915 0936 C8000000 		.4byte	.Ldebug_ranges0+0xc8
 1916 093a 25       		.uleb128 0x25
 1917 093b EB0F0000 		.4byte	0xfeb
 1918 093f 96000000 		.4byte	.LLST29
 1919 0943 00       		.byte	0
 1920 0944 00       		.byte	0
 1921 0945 26       		.uleb128 0x26
 1922 0946 14000000 		.4byte	.LVL48
 1923 094a CF100000 		.4byte	0x10cf
 1924 094e 59090000 		.4byte	0x959
 1925 0952 27       		.uleb128 0x27
 1926 0953 01       		.uleb128 0x1
 1927 0954 50       		.byte	0x50
 1928 0955 02       		.uleb128 0x2
 1929 0956 77       		.byte	0x77
 1930 0957 00       		.sleb128 0
 1931 0958 00       		.byte	0
 1932 0959 26       		.uleb128 0x26
 1933 095a 3E000000 		.4byte	.LVL55
 1934 095e DA100000 		.4byte	0x10da
 1935 0962 72090000 		.4byte	0x972
 1936 0966 27       		.uleb128 0x27
 1937 0967 01       		.uleb128 0x1
 1938 0968 50       		.byte	0x50
ARM GAS  /tmp/ccX4yBEC.s 			page 35


 1939 0969 01       		.uleb128 0x1
 1940 096a 37       		.byte	0x37
 1941 096b 27       		.uleb128 0x27
 1942 096c 01       		.uleb128 0x1
 1943 096d 51       		.byte	0x51
 1944 096e 02       		.uleb128 0x2
 1945 096f 78       		.byte	0x78
 1946 0970 00       		.sleb128 0
 1947 0971 00       		.byte	0
 1948 0972 28       		.uleb128 0x28
 1949 0973 4A000000 		.4byte	.LVL58
 1950 0977 E6100000 		.4byte	0x10e6
 1951 097b 27       		.uleb128 0x27
 1952 097c 01       		.uleb128 0x1
 1953 097d 50       		.byte	0x50
 1954 097e 02       		.uleb128 0x2
 1955 097f 77       		.byte	0x77
 1956 0980 00       		.sleb128 0
 1957 0981 00       		.byte	0
 1958 0982 00       		.byte	0
 1959 0983 0A       		.uleb128 0xa
 1960 0984 04       		.byte	0x4
 1961 0985 83080000 		.4byte	0x883
 1962 0989 17       		.uleb128 0x17
 1963 098a 21070000 		.4byte	0x721
 1964 098e 99090000 		.4byte	0x999
 1965 0992 18       		.uleb128 0x18
 1966 0993 2C000000 		.4byte	0x2c
 1967 0997 12       		.byte	0x12
 1968 0998 00       		.byte	0
 1969 0999 0B       		.uleb128 0xb
 1970 099a 89090000 		.4byte	0x989
 1971 099e 1A       		.uleb128 0x1a
 1972 099f F1070000 		.4byte	.LASF134
 1973 09a3 01       		.byte	0x1
 1974 09a4 0201     		.2byte	0x102
 1975 09a6 20010000 		.4byte	0x120
 1976 09aa 00000000 		.4byte	.LFB226
 1977 09ae 0C000000 		.4byte	.LFE226-.LFB226
 1978 09b2 01       		.uleb128 0x1
 1979 09b3 9C       		.byte	0x9c
 1980 09b4 740A0000 		.4byte	0xa74
 1981 09b8 1B       		.uleb128 0x1b
 1982 09b9 637000   		.ascii	"cp\000"
 1983 09bc 01       		.byte	0x1
 1984 09bd 0201     		.2byte	0x102
 1985 09bf 83090000 		.4byte	0x983
 1986 09c3 B4000000 		.4byte	.LLST30
 1987 09c7 1C       		.uleb128 0x1c
 1988 09c8 28050000 		.4byte	.LASF132
 1989 09cc 01       		.byte	0x1
 1990 09cd 0201     		.2byte	0x102
 1991 09cf 41010000 		.4byte	0x141
 1992 09d3 D5000000 		.4byte	.LLST31
 1993 09d7 29       		.uleb128 0x29
 1994 09d8 6D736700 		.ascii	"msg\000"
 1995 09dc 01       		.byte	0x1
ARM GAS  /tmp/ccX4yBEC.s 			page 36


 1996 09dd 0301     		.2byte	0x103
 1997 09df 20010000 		.4byte	0x120
 1998 09e3 01       		.uleb128 0x1
 1999 09e4 50       		.byte	0x50
 2000 09e5 20       		.uleb128 0x20
 2001 09e6 8F0F0000 		.4byte	0xf8f
 2002 09ea 02000000 		.4byte	.LBB174
 2003 09ee 02000000 		.4byte	.LBE174-.LBB174
 2004 09f2 01       		.byte	0x1
 2005 09f3 0501     		.2byte	0x105
 2006 09f5 1B0A0000 		.4byte	0xa1b
 2007 09f9 2A       		.uleb128 0x2a
 2008 09fa 45100000 		.4byte	0x1045
 2009 09fe 02000000 		.4byte	.LBB175
 2010 0a02 02000000 		.4byte	.LBE175-.LBB175
 2011 0a06 12       		.byte	0x12
 2012 0a07 5C01     		.2byte	0x15c
 2013 0a09 2B       		.uleb128 0x2b
 2014 0a0a 4E100000 		.4byte	0x104e
 2015 0a0e 02000000 		.4byte	.LBB176
 2016 0a12 02000000 		.4byte	.LBE176-.LBB176
 2017 0a16 0D       		.byte	0xd
 2018 0a17 C101     		.2byte	0x1c1
 2019 0a19 00       		.byte	0
 2020 0a1a 00       		.byte	0
 2021 0a1b 20       		.uleb128 0x20
 2022 0a1c 740F0000 		.4byte	0xf74
 2023 0a20 08000000 		.4byte	.LBB178
 2024 0a24 02000000 		.4byte	.LBE178-.LBB178
 2025 0a28 01       		.byte	0x1
 2026 0a29 0701     		.2byte	0x107
 2027 0a2b 5B0A0000 		.4byte	0xa5b
 2028 0a2f 2C       		.uleb128 0x2c
 2029 0a30 08000000 		.4byte	.LBB179
 2030 0a34 02000000 		.4byte	.LBE179-.LBB179
 2031 0a38 2A       		.uleb128 0x2a
 2032 0a39 3C100000 		.4byte	0x103c
 2033 0a3d 08000000 		.4byte	.LBB180
 2034 0a41 02000000 		.4byte	.LBE180-.LBB180
 2035 0a45 12       		.byte	0x12
 2036 0a46 7301     		.2byte	0x173
 2037 0a48 2B       		.uleb128 0x2b
 2038 0a49 57100000 		.4byte	0x1057
 2039 0a4d 08000000 		.4byte	.LBB181
 2040 0a51 02000000 		.4byte	.LBE181-.LBB181
 2041 0a55 0D       		.byte	0xd
 2042 0a56 CF01     		.2byte	0x1cf
 2043 0a58 00       		.byte	0
 2044 0a59 00       		.byte	0
 2045 0a5a 00       		.byte	0
 2046 0a5b 28       		.uleb128 0x28
 2047 0a5c 08000000 		.4byte	.LVL61
 2048 0a60 8E080000 		.4byte	0x88e
 2049 0a64 27       		.uleb128 0x27
 2050 0a65 01       		.uleb128 0x1
 2051 0a66 50       		.byte	0x50
 2052 0a67 03       		.uleb128 0x3
ARM GAS  /tmp/ccX4yBEC.s 			page 37


 2053 0a68 F3       		.byte	0xf3
 2054 0a69 01       		.uleb128 0x1
 2055 0a6a 50       		.byte	0x50
 2056 0a6b 27       		.uleb128 0x27
 2057 0a6c 01       		.uleb128 0x1
 2058 0a6d 51       		.byte	0x51
 2059 0a6e 03       		.uleb128 0x3
 2060 0a6f F3       		.byte	0xf3
 2061 0a70 01       		.uleb128 0x1
 2062 0a71 51       		.byte	0x51
 2063 0a72 00       		.byte	0
 2064 0a73 00       		.byte	0
 2065 0a74 2D       		.uleb128 0x2d
 2066 0a75 C7020000 		.4byte	.LASF135
 2067 0a79 01       		.byte	0x1
 2068 0a7a CD       		.byte	0xcd
 2069 0a7b 20010000 		.4byte	0x120
 2070 0a7f 00000000 		.4byte	.LFB225
 2071 0a83 4C000000 		.4byte	.LFE225-.LFB225
 2072 0a87 01       		.uleb128 0x1
 2073 0a88 9C       		.byte	0x9c
 2074 0a89 480B0000 		.4byte	0xb48
 2075 0a8d 2E       		.uleb128 0x2e
 2076 0a8e 637000   		.ascii	"cp\000"
 2077 0a91 01       		.byte	0x1
 2078 0a92 CD       		.byte	0xcd
 2079 0a93 83090000 		.4byte	0x983
 2080 0a97 F6000000 		.4byte	.LLST17
 2081 0a9b 2F       		.uleb128 0x2f
 2082 0a9c 63747000 		.ascii	"ctp\000"
 2083 0aa0 01       		.byte	0x1
 2084 0aa1 CE       		.byte	0xce
 2085 0aa2 85020000 		.4byte	0x285
 2086 0aa6 14010000 		.4byte	.LLST18
 2087 0aaa 30       		.uleb128 0x30
 2088 0aab 6D7000   		.ascii	"mp\000"
 2089 0aae 01       		.byte	0x1
 2090 0aaf CF       		.byte	0xcf
 2091 0ab0 64080000 		.4byte	0x864
 2092 0ab4 2F       		.uleb128 0x2f
 2093 0ab5 6D736700 		.ascii	"msg\000"
 2094 0ab9 01       		.byte	0x1
 2095 0aba D0       		.byte	0xd0
 2096 0abb 20010000 		.4byte	0x120
 2097 0abf 32010000 		.4byte	.LLST19
 2098 0ac3 1F       		.uleb128 0x1f
 2099 0ac4 13060000 		.4byte	.LASF136
 2100 0ac8 580B0000 		.4byte	0xb58
 2101 0acc 21       		.uleb128 0x21
 2102 0acd 5C0F0000 		.4byte	0xf5c
 2103 0ad1 06000000 		.4byte	.LBB145
 2104 0ad5 02000000 		.4byte	.LBE145-.LBB145
 2105 0ad9 01       		.byte	0x1
 2106 0ada D7       		.byte	0xd7
 2107 0adb 31       		.uleb128 0x31
 2108 0adc C70F0000 		.4byte	0xfc7
 2109 0ae0 18000000 		.4byte	.LBB147
ARM GAS  /tmp/ccX4yBEC.s 			page 38


 2110 0ae4 A8000000 		.4byte	.Ldebug_ranges0+0xa8
 2111 0ae8 01       		.byte	0x1
 2112 0ae9 DD       		.byte	0xdd
 2113 0aea 100B0000 		.4byte	0xb10
 2114 0aee 23       		.uleb128 0x23
 2115 0aef DF0F0000 		.4byte	0xfdf
 2116 0af3 45010000 		.4byte	.LLST20
 2117 0af7 23       		.uleb128 0x23
 2118 0af8 D40F0000 		.4byte	0xfd4
 2119 0afc 63010000 		.4byte	.LLST21
 2120 0b00 24       		.uleb128 0x24
 2121 0b01 A8000000 		.4byte	.Ldebug_ranges0+0xa8
 2122 0b05 25       		.uleb128 0x25
 2123 0b06 EB0F0000 		.4byte	0xfeb
 2124 0b0a 81010000 		.4byte	.LLST22
 2125 0b0e 00       		.byte	0
 2126 0b0f 00       		.byte	0
 2127 0b10 26       		.uleb128 0x26
 2128 0b11 10000000 		.4byte	.LVL33
 2129 0b15 CF100000 		.4byte	0x10cf
 2130 0b19 240B0000 		.4byte	0xb24
 2131 0b1d 27       		.uleb128 0x27
 2132 0b1e 01       		.uleb128 0x1
 2133 0b1f 50       		.byte	0x50
 2134 0b20 02       		.uleb128 0x2
 2135 0b21 77       		.byte	0x77
 2136 0b22 00       		.sleb128 0
 2137 0b23 00       		.byte	0
 2138 0b24 26       		.uleb128 0x26
 2139 0b25 36000000 		.4byte	.LVL40
 2140 0b29 F1100000 		.4byte	0x10f1
 2141 0b2d 370B0000 		.4byte	0xb37
 2142 0b31 27       		.uleb128 0x27
 2143 0b32 01       		.uleb128 0x1
 2144 0b33 50       		.byte	0x50
 2145 0b34 01       		.uleb128 0x1
 2146 0b35 37       		.byte	0x37
 2147 0b36 00       		.byte	0
 2148 0b37 28       		.uleb128 0x28
 2149 0b38 3E000000 		.4byte	.LVL42
 2150 0b3c E6100000 		.4byte	0x10e6
 2151 0b40 27       		.uleb128 0x27
 2152 0b41 01       		.uleb128 0x1
 2153 0b42 50       		.byte	0x50
 2154 0b43 02       		.uleb128 0x2
 2155 0b44 77       		.byte	0x77
 2156 0b45 00       		.sleb128 0
 2157 0b46 00       		.byte	0
 2158 0b47 00       		.byte	0
 2159 0b48 17       		.uleb128 0x17
 2160 0b49 21070000 		.4byte	0x721
 2161 0b4d 580B0000 		.4byte	0xb58
 2162 0b51 18       		.uleb128 0x18
 2163 0b52 2C000000 		.4byte	0x2c
 2164 0b56 0B       		.byte	0xb
 2165 0b57 00       		.byte	0
 2166 0b58 0B       		.uleb128 0xb
ARM GAS  /tmp/ccX4yBEC.s 			page 39


 2167 0b59 480B0000 		.4byte	0xb48
 2168 0b5d 2D       		.uleb128 0x2d
 2169 0b5e 68070000 		.4byte	.LASF137
 2170 0b62 01       		.byte	0x1
 2171 0b63 B3       		.byte	0xb3
 2172 0b64 20010000 		.4byte	0x120
 2173 0b68 00000000 		.4byte	.LFB224
 2174 0b6c 0C000000 		.4byte	.LFE224-.LFB224
 2175 0b70 01       		.uleb128 0x1
 2176 0b71 9C       		.byte	0x9c
 2177 0b72 170C0000 		.4byte	0xc17
 2178 0b76 2E       		.uleb128 0x2e
 2179 0b77 637000   		.ascii	"cp\000"
 2180 0b7a 01       		.byte	0x1
 2181 0b7b B3       		.byte	0xb3
 2182 0b7c 83090000 		.4byte	0x983
 2183 0b80 9F010000 		.4byte	.LLST23
 2184 0b84 32       		.uleb128 0x32
 2185 0b85 6D736700 		.ascii	"msg\000"
 2186 0b89 01       		.byte	0x1
 2187 0b8a B4       		.byte	0xb4
 2188 0b8b 20010000 		.4byte	0x120
 2189 0b8f 01       		.uleb128 0x1
 2190 0b90 50       		.byte	0x50
 2191 0b91 33       		.uleb128 0x33
 2192 0b92 8F0F0000 		.4byte	0xf8f
 2193 0b96 02000000 		.4byte	.LBB153
 2194 0b9a 02000000 		.4byte	.LBE153-.LBB153
 2195 0b9e 01       		.byte	0x1
 2196 0b9f B6       		.byte	0xb6
 2197 0ba0 C60B0000 		.4byte	0xbc6
 2198 0ba4 2A       		.uleb128 0x2a
 2199 0ba5 45100000 		.4byte	0x1045
 2200 0ba9 02000000 		.4byte	.LBB154
 2201 0bad 02000000 		.4byte	.LBE154-.LBB154
 2202 0bb1 12       		.byte	0x12
 2203 0bb2 5C01     		.2byte	0x15c
 2204 0bb4 2B       		.uleb128 0x2b
 2205 0bb5 4E100000 		.4byte	0x104e
 2206 0bb9 02000000 		.4byte	.LBB155
 2207 0bbd 02000000 		.4byte	.LBE155-.LBB155
 2208 0bc1 0D       		.byte	0xd
 2209 0bc2 C101     		.2byte	0x1c1
 2210 0bc4 00       		.byte	0
 2211 0bc5 00       		.byte	0
 2212 0bc6 33       		.uleb128 0x33
 2213 0bc7 740F0000 		.4byte	0xf74
 2214 0bcb 08000000 		.4byte	.LBB157
 2215 0bcf 02000000 		.4byte	.LBE157-.LBB157
 2216 0bd3 01       		.byte	0x1
 2217 0bd4 B8       		.byte	0xb8
 2218 0bd5 050C0000 		.4byte	0xc05
 2219 0bd9 2C       		.uleb128 0x2c
 2220 0bda 08000000 		.4byte	.LBB158
 2221 0bde 02000000 		.4byte	.LBE158-.LBB158
 2222 0be2 2A       		.uleb128 0x2a
 2223 0be3 3C100000 		.4byte	0x103c
ARM GAS  /tmp/ccX4yBEC.s 			page 40


 2224 0be7 08000000 		.4byte	.LBB159
 2225 0beb 02000000 		.4byte	.LBE159-.LBB159
 2226 0bef 12       		.byte	0x12
 2227 0bf0 7301     		.2byte	0x173
 2228 0bf2 2B       		.uleb128 0x2b
 2229 0bf3 57100000 		.4byte	0x1057
 2230 0bf7 08000000 		.4byte	.LBB160
 2231 0bfb 02000000 		.4byte	.LBE160-.LBB160
 2232 0bff 0D       		.byte	0xd
 2233 0c00 CF01     		.2byte	0x1cf
 2234 0c02 00       		.byte	0
 2235 0c03 00       		.byte	0
 2236 0c04 00       		.byte	0
 2237 0c05 28       		.uleb128 0x28
 2238 0c06 08000000 		.4byte	.LVL45
 2239 0c0a 740A0000 		.4byte	0xa74
 2240 0c0e 27       		.uleb128 0x27
 2241 0c0f 01       		.uleb128 0x1
 2242 0c10 50       		.byte	0x50
 2243 0c11 03       		.uleb128 0x3
 2244 0c12 F3       		.byte	0xf3
 2245 0c13 01       		.uleb128 0x1
 2246 0c14 50       		.byte	0x50
 2247 0c15 00       		.byte	0
 2248 0c16 00       		.byte	0
 2249 0c17 34       		.uleb128 0x34
 2250 0c18 9E010000 		.4byte	.LASF144
 2251 0c1c 01       		.byte	0x1
 2252 0c1d 95       		.byte	0x95
 2253 0c1e 01       		.byte	0x1
 2254 0c1f 3B0C0000 		.4byte	0xc3b
 2255 0c23 35       		.uleb128 0x35
 2256 0c24 637000   		.ascii	"cp\000"
 2257 0c27 01       		.byte	0x1
 2258 0c28 95       		.byte	0x95
 2259 0c29 83090000 		.4byte	0x983
 2260 0c2d 36       		.uleb128 0x36
 2261 0c2e 13060000 		.4byte	.LASF136
 2262 0c32 4B0C0000 		.4byte	0xc4b
 2263 0c36 9E010000 		.4byte	.LASF144
 2264 0c3a 00       		.byte	0
 2265 0c3b 17       		.uleb128 0x17
 2266 0c3c 21070000 		.4byte	0x721
 2267 0c40 4B0C0000 		.4byte	0xc4b
 2268 0c44 18       		.uleb128 0x18
 2269 0c45 2C000000 		.4byte	0x2c
 2270 0c49 10       		.byte	0x10
 2271 0c4a 00       		.byte	0
 2272 0c4b 0B       		.uleb128 0xb
 2273 0c4c 3B0C0000 		.4byte	0xc3b
 2274 0c50 37       		.uleb128 0x37
 2275 0c51 8E010000 		.4byte	.LASF138
 2276 0c55 01       		.byte	0x1
 2277 0c56 82       		.byte	0x82
 2278 0c57 00000000 		.4byte	.LFB222
 2279 0c5b 2C000000 		.4byte	.LFE222-.LFB222
 2280 0c5f 01       		.uleb128 0x1
ARM GAS  /tmp/ccX4yBEC.s 			page 41


 2281 0c60 9C       		.byte	0x9c
 2282 0c61 660D0000 		.4byte	0xd66
 2283 0c65 2E       		.uleb128 0x2e
 2284 0c66 637000   		.ascii	"cp\000"
 2285 0c69 01       		.byte	0x1
 2286 0c6a 82       		.byte	0x82
 2287 0c6b 83090000 		.4byte	0x983
 2288 0c6f C0010000 		.4byte	.LLST9
 2289 0c73 33       		.uleb128 0x33
 2290 0c74 8F0F0000 		.4byte	0xf8f
 2291 0c78 02000000 		.4byte	.LBB118
 2292 0c7c 02000000 		.4byte	.LBE118-.LBB118
 2293 0c80 01       		.byte	0x1
 2294 0c81 84       		.byte	0x84
 2295 0c82 A80C0000 		.4byte	0xca8
 2296 0c86 2A       		.uleb128 0x2a
 2297 0c87 45100000 		.4byte	0x1045
 2298 0c8b 02000000 		.4byte	.LBB119
 2299 0c8f 02000000 		.4byte	.LBE119-.LBB119
 2300 0c93 12       		.byte	0x12
 2301 0c94 5C01     		.2byte	0x15c
 2302 0c96 2B       		.uleb128 0x2b
 2303 0c97 4E100000 		.4byte	0x104e
 2304 0c9b 02000000 		.4byte	.LBB120
 2305 0c9f 02000000 		.4byte	.LBE120-.LBB120
 2306 0ca3 0D       		.byte	0xd
 2307 0ca4 C101     		.2byte	0x1c1
 2308 0ca6 00       		.byte	0
 2309 0ca7 00       		.byte	0
 2310 0ca8 33       		.uleb128 0x33
 2311 0ca9 170C0000 		.4byte	0xc17
 2312 0cad 04000000 		.4byte	.LBB122
 2313 0cb1 20000000 		.4byte	.LBE122-.LBB122
 2314 0cb5 01       		.byte	0x1
 2315 0cb6 85       		.byte	0x85
 2316 0cb7 1D0D0000 		.4byte	0xd1d
 2317 0cbb 38       		.uleb128 0x38
 2318 0cbc 230C0000 		.4byte	0xc23
 2319 0cc0 2C       		.uleb128 0x2c
 2320 0cc1 04000000 		.4byte	.LBB123
 2321 0cc5 20000000 		.4byte	.LBE123-.LBB123
 2322 0cc9 31       		.uleb128 0x31
 2323 0cca F70F0000 		.4byte	0xff7
 2324 0cce 04000000 		.4byte	.LBB124
 2325 0cd2 48000000 		.4byte	.Ldebug_ranges0+0x48
 2326 0cd6 01       		.byte	0x1
 2327 0cd7 9D       		.byte	0x9d
 2328 0cd8 E60C0000 		.4byte	0xce6
 2329 0cdc 23       		.uleb128 0x23
 2330 0cdd 08100000 		.4byte	0x1008
 2331 0ce1 EC010000 		.4byte	.LLST10
 2332 0ce5 00       		.byte	0
 2333 0ce6 31       		.uleb128 0x31
 2334 0ce7 980F0000 		.4byte	0xf98
 2335 0ceb 10000000 		.4byte	.LBB127
 2336 0cef 60000000 		.4byte	.Ldebug_ranges0+0x60
 2337 0cf3 01       		.byte	0x1
ARM GAS  /tmp/ccX4yBEC.s 			page 42


 2338 0cf4 9E       		.byte	0x9e
 2339 0cf5 120D0000 		.4byte	0xd12
 2340 0cf9 23       		.uleb128 0x23
 2341 0cfa A90F0000 		.4byte	0xfa9
 2342 0cfe FF010000 		.4byte	.LLST11
 2343 0d02 24       		.uleb128 0x24
 2344 0d03 60000000 		.4byte	.Ldebug_ranges0+0x60
 2345 0d07 25       		.uleb128 0x25
 2346 0d08 B50F0000 		.4byte	0xfb5
 2347 0d0c 12020000 		.4byte	.LLST12
 2348 0d10 00       		.byte	0
 2349 0d11 00       		.byte	0
 2350 0d12 39       		.uleb128 0x39
 2351 0d13 1C000000 		.4byte	.LVL21
 2352 0d17 FD100000 		.4byte	0x10fd
 2353 0d1b 00       		.byte	0
 2354 0d1c 00       		.byte	0
 2355 0d1d 33       		.uleb128 0x33
 2356 0d1e 740F0000 		.4byte	0xf74
 2357 0d22 28000000 		.4byte	.LBB132
 2358 0d26 02000000 		.4byte	.LBE132-.LBB132
 2359 0d2a 01       		.byte	0x1
 2360 0d2b 87       		.byte	0x87
 2361 0d2c 5C0D0000 		.4byte	0xd5c
 2362 0d30 2C       		.uleb128 0x2c
 2363 0d31 28000000 		.4byte	.LBB133
 2364 0d35 02000000 		.4byte	.LBE133-.LBB133
 2365 0d39 2A       		.uleb128 0x2a
 2366 0d3a 3C100000 		.4byte	0x103c
 2367 0d3e 28000000 		.4byte	.LBB134
 2368 0d42 02000000 		.4byte	.LBE134-.LBB134
 2369 0d46 12       		.byte	0x12
 2370 0d47 7301     		.2byte	0x173
 2371 0d49 2B       		.uleb128 0x2b
 2372 0d4a 57100000 		.4byte	0x1057
 2373 0d4e 28000000 		.4byte	.LBB135
 2374 0d52 02000000 		.4byte	.LBE135-.LBB135
 2375 0d56 0D       		.byte	0xd
 2376 0d57 CF01     		.2byte	0x1cf
 2377 0d59 00       		.byte	0
 2378 0d5a 00       		.byte	0
 2379 0d5b 00       		.byte	0
 2380 0d5c 39       		.uleb128 0x39
 2381 0d5d 28000000 		.4byte	.LVL23
 2382 0d61 09110000 		.4byte	0x1109
 2383 0d65 00       		.byte	0
 2384 0d66 37       		.uleb128 0x37
 2385 0d67 8F050000 		.4byte	.LASF139
 2386 0d6b 01       		.byte	0x1
 2387 0d6c 6F       		.byte	0x6f
 2388 0d6d 00000000 		.4byte	.LFB221
 2389 0d71 18000000 		.4byte	.LFE221-.LFB221
 2390 0d75 01       		.uleb128 0x1
 2391 0d76 9C       		.byte	0x9c
 2392 0d77 F90D0000 		.4byte	0xdf9
 2393 0d7b 2E       		.uleb128 0x2e
 2394 0d7c 637000   		.ascii	"cp\000"
ARM GAS  /tmp/ccX4yBEC.s 			page 43


 2395 0d7f 01       		.byte	0x1
 2396 0d80 6F       		.byte	0x6f
 2397 0d81 83090000 		.4byte	0x983
 2398 0d85 25020000 		.4byte	.LLST5
 2399 0d89 1F       		.uleb128 0x1f
 2400 0d8a 13060000 		.4byte	.LASF136
 2401 0d8e 090E0000 		.4byte	0xe09
 2402 0d92 3A       		.uleb128 0x3a
 2403 0d93 06000000 		.4byte	.LBB113
 2404 0d97 10000000 		.4byte	.LBE113-.LBB113
 2405 0d9b DF0D0000 		.4byte	0xddf
 2406 0d9f 30       		.uleb128 0x30
 2407 0da0 747000   		.ascii	"tp\000"
 2408 0da3 01       		.byte	0x1
 2409 0da4 75       		.byte	0x75
 2410 0da5 85020000 		.4byte	0x285
 2411 0da9 31       		.uleb128 0x31
 2412 0daa 980F0000 		.4byte	0xf98
 2413 0dae 06000000 		.4byte	.LBB114
 2414 0db2 30000000 		.4byte	.Ldebug_ranges0+0x30
 2415 0db6 01       		.byte	0x1
 2416 0db7 75       		.byte	0x75
 2417 0db8 D50D0000 		.4byte	0xdd5
 2418 0dbc 23       		.uleb128 0x23
 2419 0dbd A90F0000 		.4byte	0xfa9
 2420 0dc1 5D020000 		.4byte	.LLST7
 2421 0dc5 24       		.uleb128 0x24
 2422 0dc6 30000000 		.4byte	.Ldebug_ranges0+0x30
 2423 0dca 25       		.uleb128 0x25
 2424 0dcb B50F0000 		.4byte	0xfb5
 2425 0dcf 70020000 		.4byte	.LLST8
 2426 0dd3 00       		.byte	0
 2427 0dd4 00       		.byte	0
 2428 0dd5 3B       		.uleb128 0x3b
 2429 0dd6 16000000 		.4byte	.LVL15
 2430 0dda FD100000 		.4byte	0x10fd
 2431 0dde 00       		.byte	0
 2432 0ddf 3C       		.uleb128 0x3c
 2433 0de0 F70F0000 		.4byte	0xff7
 2434 0de4 00000000 		.4byte	.LBB111
 2435 0de8 02000000 		.4byte	.LBE111-.LBB111
 2436 0dec 01       		.byte	0x1
 2437 0ded 74       		.byte	0x74
 2438 0dee 23       		.uleb128 0x23
 2439 0def 08100000 		.4byte	0x1008
 2440 0df3 83020000 		.4byte	.LLST6
 2441 0df7 00       		.byte	0
 2442 0df8 00       		.byte	0
 2443 0df9 17       		.uleb128 0x17
 2444 0dfa 21070000 		.4byte	0x721
 2445 0dfe 090E0000 		.4byte	0xe09
 2446 0e02 18       		.uleb128 0x18
 2447 0e03 2C000000 		.4byte	0x2c
 2448 0e07 0D       		.byte	0xd
 2449 0e08 00       		.byte	0
 2450 0e09 0B       		.uleb128 0xb
 2451 0e0a F90D0000 		.4byte	0xdf9
ARM GAS  /tmp/ccX4yBEC.s 			page 44


 2452 0e0e 37       		.uleb128 0x37
 2453 0e0f 4F030000 		.4byte	.LASF140
 2454 0e13 01       		.byte	0x1
 2455 0e14 59       		.byte	0x59
 2456 0e15 00000000 		.4byte	.LFB220
 2457 0e19 22000000 		.4byte	.LFE220-.LFB220
 2458 0e1d 01       		.uleb128 0x1
 2459 0e1e 9C       		.byte	0x9c
 2460 0e1f 030F0000 		.4byte	0xf03
 2461 0e23 2E       		.uleb128 0x2e
 2462 0e24 637000   		.ascii	"cp\000"
 2463 0e27 01       		.byte	0x1
 2464 0e28 59       		.byte	0x59
 2465 0e29 83090000 		.4byte	0x983
 2466 0e2d 96020000 		.4byte	.LLST1
 2467 0e31 1F       		.uleb128 0x1f
 2468 0e32 13060000 		.4byte	.LASF136
 2469 0e36 130F0000 		.4byte	0xf13
 2470 0e3a 33       		.uleb128 0x33
 2471 0e3b 8F0F0000 		.4byte	0xf8f
 2472 0e3f 00000000 		.4byte	.LBB91
 2473 0e43 02000000 		.4byte	.LBE91-.LBB91
 2474 0e47 01       		.byte	0x1
 2475 0e48 5D       		.byte	0x5d
 2476 0e49 6F0E0000 		.4byte	0xe6f
 2477 0e4d 2A       		.uleb128 0x2a
 2478 0e4e 45100000 		.4byte	0x1045
 2479 0e52 00000000 		.4byte	.LBB92
 2480 0e56 02000000 		.4byte	.LBE92-.LBB92
 2481 0e5a 12       		.byte	0x12
 2482 0e5b 5C01     		.2byte	0x15c
 2483 0e5d 2B       		.uleb128 0x2b
 2484 0e5e 4E100000 		.4byte	0x104e
 2485 0e62 00000000 		.4byte	.LBB93
 2486 0e66 02000000 		.4byte	.LBE93-.LBB93
 2487 0e6a 0D       		.byte	0xd
 2488 0e6b C101     		.2byte	0x1c1
 2489 0e6d 00       		.byte	0
 2490 0e6e 00       		.byte	0
 2491 0e6f 33       		.uleb128 0x33
 2492 0e70 F70F0000 		.4byte	0xff7
 2493 0e74 02000000 		.4byte	.LBB95
 2494 0e78 02000000 		.4byte	.LBE95-.LBB95
 2495 0e7c 01       		.byte	0x1
 2496 0e7d 5E       		.byte	0x5e
 2497 0e7e 8C0E0000 		.4byte	0xe8c
 2498 0e82 23       		.uleb128 0x23
 2499 0e83 08100000 		.4byte	0x1008
 2500 0e87 CD020000 		.4byte	.LLST2
 2501 0e8b 00       		.byte	0
 2502 0e8c 31       		.uleb128 0x31
 2503 0e8d 980F0000 		.4byte	0xf98
 2504 0e91 08000000 		.4byte	.LBB97
 2505 0e95 00000000 		.4byte	.Ldebug_ranges0+0
 2506 0e99 01       		.byte	0x1
 2507 0e9a 5F       		.byte	0x5f
 2508 0e9b B80E0000 		.4byte	0xeb8
ARM GAS  /tmp/ccX4yBEC.s 			page 45


 2509 0e9f 23       		.uleb128 0x23
 2510 0ea0 A90F0000 		.4byte	0xfa9
 2511 0ea4 E0020000 		.4byte	.LLST3
 2512 0ea8 24       		.uleb128 0x24
 2513 0ea9 00000000 		.4byte	.Ldebug_ranges0+0
 2514 0ead 25       		.uleb128 0x25
 2515 0eae B50F0000 		.4byte	0xfb5
 2516 0eb2 F3020000 		.4byte	.LLST4
 2517 0eb6 00       		.byte	0
 2518 0eb7 00       		.byte	0
 2519 0eb8 31       		.uleb128 0x31
 2520 0eb9 740F0000 		.4byte	0xf74
 2521 0ebd 1A000000 		.4byte	.LBB101
 2522 0ec1 18000000 		.4byte	.Ldebug_ranges0+0x18
 2523 0ec5 01       		.byte	0x1
 2524 0ec6 61       		.byte	0x61
 2525 0ec7 F30E0000 		.4byte	0xef3
 2526 0ecb 24       		.uleb128 0x24
 2527 0ecc 18000000 		.4byte	.Ldebug_ranges0+0x18
 2528 0ed0 3D       		.uleb128 0x3d
 2529 0ed1 3C100000 		.4byte	0x103c
 2530 0ed5 1A000000 		.4byte	.LBB103
 2531 0ed9 18000000 		.4byte	.Ldebug_ranges0+0x18
 2532 0edd 12       		.byte	0x12
 2533 0ede 7301     		.2byte	0x173
 2534 0ee0 3E       		.uleb128 0x3e
 2535 0ee1 57100000 		.4byte	0x1057
 2536 0ee5 1A000000 		.4byte	.LBB104
 2537 0ee9 18000000 		.4byte	.Ldebug_ranges0+0x18
 2538 0eed 0D       		.byte	0xd
 2539 0eee CF01     		.2byte	0x1cf
 2540 0ef0 00       		.byte	0
 2541 0ef1 00       		.byte	0
 2542 0ef2 00       		.byte	0
 2543 0ef3 28       		.uleb128 0x28
 2544 0ef4 1A000000 		.4byte	.LVL8
 2545 0ef8 15110000 		.4byte	0x1115
 2546 0efc 27       		.uleb128 0x27
 2547 0efd 01       		.uleb128 0x1
 2548 0efe 51       		.byte	0x51
 2549 0eff 01       		.uleb128 0x1
 2550 0f00 30       		.byte	0x30
 2551 0f01 00       		.byte	0
 2552 0f02 00       		.byte	0
 2553 0f03 17       		.uleb128 0x17
 2554 0f04 21070000 		.4byte	0x721
 2555 0f08 130F0000 		.4byte	0xf13
 2556 0f0c 18       		.uleb128 0x18
 2557 0f0d 2C000000 		.4byte	0x2c
 2558 0f11 0C       		.byte	0xc
 2559 0f12 00       		.byte	0
 2560 0f13 0B       		.uleb128 0xb
 2561 0f14 030F0000 		.4byte	0xf03
 2562 0f18 37       		.uleb128 0x37
 2563 0f19 FD060000 		.4byte	.LASF141
 2564 0f1d 01       		.byte	0x1
 2565 0f1e 4B       		.byte	0x4b
ARM GAS  /tmp/ccX4yBEC.s 			page 46


 2566 0f1f 00000000 		.4byte	.LFB219
 2567 0f23 06000000 		.4byte	.LFE219-.LFB219
 2568 0f27 01       		.uleb128 0x1
 2569 0f28 9C       		.byte	0x9c
 2570 0f29 5C0F0000 		.4byte	0xf5c
 2571 0f2d 3F       		.uleb128 0x3f
 2572 0f2e 637000   		.ascii	"cp\000"
 2573 0f31 01       		.byte	0x1
 2574 0f32 4B       		.byte	0x4b
 2575 0f33 83090000 		.4byte	0x983
 2576 0f37 01       		.uleb128 0x1
 2577 0f38 50       		.byte	0x50
 2578 0f39 1F       		.uleb128 0x1f
 2579 0f3a 13060000 		.4byte	.LASF136
 2580 0f3e 4B0C0000 		.4byte	0xc4b
 2581 0f42 3C       		.uleb128 0x3c
 2582 0f43 22100000 		.4byte	0x1022
 2583 0f47 00000000 		.4byte	.LBB89
 2584 0f4b 04000000 		.4byte	.LBE89-.LBB89
 2585 0f4f 01       		.byte	0x1
 2586 0f50 4F       		.byte	0x4f
 2587 0f51 23       		.uleb128 0x23
 2588 0f52 2F100000 		.4byte	0x102f
 2589 0f56 06030000 		.4byte	.LLST0
 2590 0f5a 00       		.byte	0
 2591 0f5b 00       		.byte	0
 2592 0f5c 40       		.uleb128 0x40
 2593 0f5d 80060000 		.4byte	.LASF142
 2594 0f61 04       		.byte	0x4
 2595 0f62 90       		.byte	0x90
 2596 0f63 64080000 		.4byte	0x864
 2597 0f67 03       		.byte	0x3
 2598 0f68 40       		.uleb128 0x40
 2599 0f69 BA070000 		.4byte	.LASF143
 2600 0f6d 05       		.byte	0x5
 2601 0f6e AE       		.byte	0xae
 2602 0f6f 85020000 		.4byte	0x285
 2603 0f73 03       		.byte	0x3
 2604 0f74 41       		.uleb128 0x41
 2605 0f75 27080000 		.4byte	.LASF145
 2606 0f79 12       		.byte	0x12
 2607 0f7a 6601     		.2byte	0x166
 2608 0f7c 03       		.byte	0x3
 2609 0f7d 8F0F0000 		.4byte	0xf8f
 2610 0f81 36       		.uleb128 0x36
 2611 0f82 13060000 		.4byte	.LASF136
 2612 0f86 580B0000 		.4byte	0xb58
 2613 0f8a 27080000 		.4byte	.LASF145
 2614 0f8e 00       		.byte	0
 2615 0f8f 42       		.uleb128 0x42
 2616 0f90 1C060000 		.4byte	.LASF151
 2617 0f94 12       		.byte	0x12
 2618 0f95 5A01     		.2byte	0x15a
 2619 0f97 03       		.byte	0x3
 2620 0f98 43       		.uleb128 0x43
 2621 0f99 0E070000 		.4byte	.LASF147
 2622 0f9d 02       		.byte	0x2
ARM GAS  /tmp/ccX4yBEC.s 			page 47


 2623 0f9e 9F02     		.2byte	0x29f
 2624 0fa0 85020000 		.4byte	0x285
 2625 0fa4 03       		.byte	0x3
 2626 0fa5 C10F0000 		.4byte	0xfc1
 2627 0fa9 44       		.uleb128 0x44
 2628 0faa 74717000 		.ascii	"tqp\000"
 2629 0fae 02       		.byte	0x2
 2630 0faf 9F02     		.2byte	0x29f
 2631 0fb1 C10F0000 		.4byte	0xfc1
 2632 0fb5 1D       		.uleb128 0x1d
 2633 0fb6 747000   		.ascii	"tp\000"
 2634 0fb9 02       		.byte	0x2
 2635 0fba A002     		.2byte	0x2a0
 2636 0fbc 85020000 		.4byte	0x285
 2637 0fc0 00       		.byte	0
 2638 0fc1 0A       		.uleb128 0xa
 2639 0fc2 04       		.byte	0x4
 2640 0fc3 AF020000 		.4byte	0x2af
 2641 0fc7 41       		.uleb128 0x41
 2642 0fc8 49080000 		.4byte	.LASF146
 2643 0fcc 02       		.byte	0x2
 2644 0fcd 8B02     		.2byte	0x28b
 2645 0fcf 03       		.byte	0x3
 2646 0fd0 F70F0000 		.4byte	0xff7
 2647 0fd4 44       		.uleb128 0x44
 2648 0fd5 747000   		.ascii	"tp\000"
 2649 0fd8 02       		.byte	0x2
 2650 0fd9 8B02     		.2byte	0x28b
 2651 0fdb 85020000 		.4byte	0x285
 2652 0fdf 44       		.uleb128 0x44
 2653 0fe0 74717000 		.ascii	"tqp\000"
 2654 0fe4 02       		.byte	0x2
 2655 0fe5 8B02     		.2byte	0x28b
 2656 0fe7 C10F0000 		.4byte	0xfc1
 2657 0feb 1D       		.uleb128 0x1d
 2658 0fec 637000   		.ascii	"cp\000"
 2659 0fef 02       		.byte	0x2
 2660 0ff0 8D02     		.2byte	0x28d
 2661 0ff2 85020000 		.4byte	0x285
 2662 0ff6 00       		.byte	0
 2663 0ff7 43       		.uleb128 0x43
 2664 0ff8 DC020000 		.4byte	.LASF148
 2665 0ffc 02       		.byte	0x2
 2666 0ffd 7502     		.2byte	0x275
 2667 0fff 15100000 		.4byte	0x1015
 2668 1003 03       		.byte	0x3
 2669 1004 15100000 		.4byte	0x1015
 2670 1008 44       		.uleb128 0x44
 2671 1009 74717000 		.ascii	"tqp\000"
 2672 100d 02       		.byte	0x2
 2673 100e 7502     		.2byte	0x275
 2674 1010 1C100000 		.4byte	0x101c
 2675 1014 00       		.byte	0
 2676 1015 03       		.uleb128 0x3
 2677 1016 01       		.byte	0x1
 2678 1017 02       		.byte	0x2
 2679 1018 9D050000 		.4byte	.LASF149
ARM GAS  /tmp/ccX4yBEC.s 			page 48


 2680 101c 0A       		.uleb128 0xa
 2681 101d 04       		.byte	0x4
 2682 101e BA020000 		.4byte	0x2ba
 2683 1022 41       		.uleb128 0x41
 2684 1023 55000000 		.4byte	.LASF150
 2685 1027 02       		.byte	0x2
 2686 1028 5A02     		.2byte	0x25a
 2687 102a 03       		.byte	0x3
 2688 102b 3C100000 		.4byte	0x103c
 2689 102f 44       		.uleb128 0x44
 2690 1030 74717000 		.ascii	"tqp\000"
 2691 1034 02       		.byte	0x2
 2692 1035 5A02     		.2byte	0x25a
 2693 1037 C10F0000 		.4byte	0xfc1
 2694 103b 00       		.byte	0
 2695 103c 42       		.uleb128 0x42
 2696 103d 9E020000 		.4byte	.LASF152
 2697 1041 0D       		.byte	0xd
 2698 1042 CA01     		.2byte	0x1ca
 2699 1044 03       		.byte	0x3
 2700 1045 42       		.uleb128 0x42
 2701 1046 84010000 		.4byte	.LASF153
 2702 104a 0D       		.byte	0xd
 2703 104b BC01     		.2byte	0x1bc
 2704 104d 03       		.byte	0x3
 2705 104e 42       		.uleb128 0x42
 2706 104f 57050000 		.4byte	.LASF154
 2707 1053 03       		.byte	0x3
 2708 1054 5401     		.2byte	0x154
 2709 1056 03       		.byte	0x3
 2710 1057 42       		.uleb128 0x42
 2711 1058 3F050000 		.4byte	.LASF155
 2712 105c 03       		.byte	0x3
 2713 105d 4901     		.2byte	0x149
 2714 105f 03       		.byte	0x3
 2715 1060 45       		.uleb128 0x45
 2716 1061 170C0000 		.4byte	0xc17
 2717 1065 00000000 		.4byte	.LFB223
 2718 1069 24000000 		.4byte	.LFE223-.LFB223
 2719 106d 01       		.uleb128 0x1
 2720 106e 9C       		.byte	0x9c
 2721 106f CF100000 		.4byte	0x10cf
 2722 1073 23       		.uleb128 0x23
 2723 1074 230C0000 		.4byte	0xc23
 2724 1078 19030000 		.4byte	.LLST13
 2725 107c 31       		.uleb128 0x31
 2726 107d F70F0000 		.4byte	0xff7
 2727 1081 02000000 		.4byte	.LBB137
 2728 1085 78000000 		.4byte	.Ldebug_ranges0+0x78
 2729 1089 01       		.byte	0x1
 2730 108a 9D       		.byte	0x9d
 2731 108b 99100000 		.4byte	0x1099
 2732 108f 23       		.uleb128 0x23
 2733 1090 08100000 		.4byte	0x1008
 2734 1094 45030000 		.4byte	.LLST14
 2735 1098 00       		.byte	0
 2736 1099 31       		.uleb128 0x31
ARM GAS  /tmp/ccX4yBEC.s 			page 49


 2737 109a 980F0000 		.4byte	0xf98
 2738 109e 0E000000 		.4byte	.LBB140
 2739 10a2 90000000 		.4byte	.Ldebug_ranges0+0x90
 2740 10a6 01       		.byte	0x1
 2741 10a7 9E       		.byte	0x9e
 2742 10a8 C5100000 		.4byte	0x10c5
 2743 10ac 23       		.uleb128 0x23
 2744 10ad A90F0000 		.4byte	0xfa9
 2745 10b1 58030000 		.4byte	.LLST15
 2746 10b5 24       		.uleb128 0x24
 2747 10b6 90000000 		.4byte	.Ldebug_ranges0+0x90
 2748 10ba 25       		.uleb128 0x25
 2749 10bb B50F0000 		.4byte	0xfb5
 2750 10bf 6B030000 		.4byte	.LLST16
 2751 10c3 00       		.byte	0
 2752 10c4 00       		.byte	0
 2753 10c5 39       		.uleb128 0x39
 2754 10c6 1A000000 		.4byte	.LVL28
 2755 10ca FD100000 		.4byte	0x10fd
 2756 10ce 00       		.byte	0
 2757 10cf 46       		.uleb128 0x46
 2758 10d0 71030000 		.4byte	.LASF156
 2759 10d4 71030000 		.4byte	.LASF156
 2760 10d8 04       		.byte	0x4
 2761 10d9 6D       		.byte	0x6d
 2762 10da 47       		.uleb128 0x47
 2763 10db 12080000 		.4byte	.LASF157
 2764 10df 12080000 		.4byte	.LASF157
 2765 10e3 02       		.byte	0x2
 2766 10e4 1502     		.2byte	0x215
 2767 10e6 46       		.uleb128 0x46
 2768 10e7 3E080000 		.4byte	.LASF158
 2769 10eb 3E080000 		.4byte	.LASF158
 2770 10ef 04       		.byte	0x4
 2771 10f0 69       		.byte	0x69
 2772 10f1 47       		.uleb128 0x47
 2773 10f2 61060000 		.4byte	.LASF159
 2774 10f6 61060000 		.4byte	.LASF159
 2775 10fa 02       		.byte	0x2
 2776 10fb 1402     		.2byte	0x214
 2777 10fd 47       		.uleb128 0x47
 2778 10fe B0060000 		.4byte	.LASF160
 2779 1102 B0060000 		.4byte	.LASF160
 2780 1106 02       		.byte	0x2
 2781 1107 1302     		.2byte	0x213
 2782 1109 47       		.uleb128 0x47
 2783 110a 05030000 		.4byte	.LASF161
 2784 110e 05030000 		.4byte	.LASF161
 2785 1112 02       		.byte	0x2
 2786 1113 1702     		.2byte	0x217
 2787 1115 47       		.uleb128 0x47
 2788 1116 FA030000 		.4byte	.LASF162
 2789 111a FA030000 		.4byte	.LASF162
 2790 111e 02       		.byte	0x2
 2791 111f 1602     		.2byte	0x216
 2792 1121 00       		.byte	0
 2793              		.section	.debug_abbrev,"",%progbits
ARM GAS  /tmp/ccX4yBEC.s 			page 50


 2794              	.Ldebug_abbrev0:
 2795 0000 01       		.uleb128 0x1
 2796 0001 11       		.uleb128 0x11
 2797 0002 01       		.byte	0x1
 2798 0003 25       		.uleb128 0x25
 2799 0004 0E       		.uleb128 0xe
 2800 0005 13       		.uleb128 0x13
 2801 0006 0B       		.uleb128 0xb
 2802 0007 03       		.uleb128 0x3
 2803 0008 0E       		.uleb128 0xe
 2804 0009 1B       		.uleb128 0x1b
 2805 000a 0E       		.uleb128 0xe
 2806 000b 55       		.uleb128 0x55
 2807 000c 17       		.uleb128 0x17
 2808 000d 11       		.uleb128 0x11
 2809 000e 01       		.uleb128 0x1
 2810 000f 10       		.uleb128 0x10
 2811 0010 17       		.uleb128 0x17
 2812 0011 00       		.byte	0
 2813 0012 00       		.byte	0
 2814 0013 02       		.uleb128 0x2
 2815 0014 24       		.uleb128 0x24
 2816 0015 00       		.byte	0
 2817 0016 0B       		.uleb128 0xb
 2818 0017 0B       		.uleb128 0xb
 2819 0018 3E       		.uleb128 0x3e
 2820 0019 0B       		.uleb128 0xb
 2821 001a 03       		.uleb128 0x3
 2822 001b 08       		.uleb128 0x8
 2823 001c 00       		.byte	0
 2824 001d 00       		.byte	0
 2825 001e 03       		.uleb128 0x3
 2826 001f 24       		.uleb128 0x24
 2827 0020 00       		.byte	0
 2828 0021 0B       		.uleb128 0xb
 2829 0022 0B       		.uleb128 0xb
 2830 0023 3E       		.uleb128 0x3e
 2831 0024 0B       		.uleb128 0xb
 2832 0025 03       		.uleb128 0x3
 2833 0026 0E       		.uleb128 0xe
 2834 0027 00       		.byte	0
 2835 0028 00       		.byte	0
 2836 0029 04       		.uleb128 0x4
 2837 002a 16       		.uleb128 0x16
 2838 002b 00       		.byte	0
 2839 002c 03       		.uleb128 0x3
 2840 002d 0E       		.uleb128 0xe
 2841 002e 3A       		.uleb128 0x3a
 2842 002f 0B       		.uleb128 0xb
 2843 0030 3B       		.uleb128 0x3b
 2844 0031 0B       		.uleb128 0xb
 2845 0032 49       		.uleb128 0x49
 2846 0033 13       		.uleb128 0x13
 2847 0034 00       		.byte	0
 2848 0035 00       		.byte	0
 2849 0036 05       		.uleb128 0x5
 2850 0037 35       		.uleb128 0x35
ARM GAS  /tmp/ccX4yBEC.s 			page 51


 2851 0038 00       		.byte	0
 2852 0039 49       		.uleb128 0x49
 2853 003a 13       		.uleb128 0x13
 2854 003b 00       		.byte	0
 2855 003c 00       		.byte	0
 2856 003d 06       		.uleb128 0x6
 2857 003e 13       		.uleb128 0x13
 2858 003f 01       		.byte	0x1
 2859 0040 03       		.uleb128 0x3
 2860 0041 0E       		.uleb128 0xe
 2861 0042 0B       		.uleb128 0xb
 2862 0043 0B       		.uleb128 0xb
 2863 0044 3A       		.uleb128 0x3a
 2864 0045 0B       		.uleb128 0xb
 2865 0046 3B       		.uleb128 0x3b
 2866 0047 0B       		.uleb128 0xb
 2867 0048 01       		.uleb128 0x1
 2868 0049 13       		.uleb128 0x13
 2869 004a 00       		.byte	0
 2870 004b 00       		.byte	0
 2871 004c 07       		.uleb128 0x7
 2872 004d 0D       		.uleb128 0xd
 2873 004e 00       		.byte	0
 2874 004f 03       		.uleb128 0x3
 2875 0050 0E       		.uleb128 0xe
 2876 0051 3A       		.uleb128 0x3a
 2877 0052 0B       		.uleb128 0xb
 2878 0053 3B       		.uleb128 0x3b
 2879 0054 0B       		.uleb128 0xb
 2880 0055 49       		.uleb128 0x49
 2881 0056 13       		.uleb128 0x13
 2882 0057 38       		.uleb128 0x38
 2883 0058 0B       		.uleb128 0xb
 2884 0059 00       		.byte	0
 2885 005a 00       		.byte	0
 2886 005b 08       		.uleb128 0x8
 2887 005c 0D       		.uleb128 0xd
 2888 005d 00       		.byte	0
 2889 005e 03       		.uleb128 0x3
 2890 005f 08       		.uleb128 0x8
 2891 0060 3A       		.uleb128 0x3a
 2892 0061 0B       		.uleb128 0xb
 2893 0062 3B       		.uleb128 0x3b
 2894 0063 05       		.uleb128 0x5
 2895 0064 49       		.uleb128 0x49
 2896 0065 13       		.uleb128 0x13
 2897 0066 38       		.uleb128 0x38
 2898 0067 0B       		.uleb128 0xb
 2899 0068 00       		.byte	0
 2900 0069 00       		.byte	0
 2901 006a 09       		.uleb128 0x9
 2902 006b 0D       		.uleb128 0xd
 2903 006c 00       		.byte	0
 2904 006d 03       		.uleb128 0x3
 2905 006e 0E       		.uleb128 0xe
 2906 006f 3A       		.uleb128 0x3a
 2907 0070 0B       		.uleb128 0xb
ARM GAS  /tmp/ccX4yBEC.s 			page 52


 2908 0071 3B       		.uleb128 0x3b
 2909 0072 05       		.uleb128 0x5
 2910 0073 49       		.uleb128 0x49
 2911 0074 13       		.uleb128 0x13
 2912 0075 38       		.uleb128 0x38
 2913 0076 0B       		.uleb128 0xb
 2914 0077 00       		.byte	0
 2915 0078 00       		.byte	0
 2916 0079 0A       		.uleb128 0xa
 2917 007a 0F       		.uleb128 0xf
 2918 007b 00       		.byte	0
 2919 007c 0B       		.uleb128 0xb
 2920 007d 0B       		.uleb128 0xb
 2921 007e 49       		.uleb128 0x49
 2922 007f 13       		.uleb128 0x13
 2923 0080 00       		.byte	0
 2924 0081 00       		.byte	0
 2925 0082 0B       		.uleb128 0xb
 2926 0083 26       		.uleb128 0x26
 2927 0084 00       		.byte	0
 2928 0085 49       		.uleb128 0x49
 2929 0086 13       		.uleb128 0x13
 2930 0087 00       		.byte	0
 2931 0088 00       		.byte	0
 2932 0089 0C       		.uleb128 0xc
 2933 008a 13       		.uleb128 0x13
 2934 008b 01       		.byte	0x1
 2935 008c 03       		.uleb128 0x3
 2936 008d 0E       		.uleb128 0xe
 2937 008e 0B       		.uleb128 0xb
 2938 008f 0B       		.uleb128 0xb
 2939 0090 3A       		.uleb128 0x3a
 2940 0091 0B       		.uleb128 0xb
 2941 0092 3B       		.uleb128 0x3b
 2942 0093 05       		.uleb128 0x5
 2943 0094 01       		.uleb128 0x1
 2944 0095 13       		.uleb128 0x13
 2945 0096 00       		.byte	0
 2946 0097 00       		.byte	0
 2947 0098 0D       		.uleb128 0xd
 2948 0099 15       		.uleb128 0x15
 2949 009a 01       		.byte	0x1
 2950 009b 27       		.uleb128 0x27
 2951 009c 19       		.uleb128 0x19
 2952 009d 01       		.uleb128 0x1
 2953 009e 13       		.uleb128 0x13
 2954 009f 00       		.byte	0
 2955 00a0 00       		.byte	0
 2956 00a1 0E       		.uleb128 0xe
 2957 00a2 05       		.uleb128 0x5
 2958 00a3 00       		.byte	0
 2959 00a4 49       		.uleb128 0x49
 2960 00a5 13       		.uleb128 0x13
 2961 00a6 00       		.byte	0
 2962 00a7 00       		.byte	0
 2963 00a8 0F       		.uleb128 0xf
 2964 00a9 0F       		.uleb128 0xf
ARM GAS  /tmp/ccX4yBEC.s 			page 53


 2965 00aa 00       		.byte	0
 2966 00ab 0B       		.uleb128 0xb
 2967 00ac 0B       		.uleb128 0xb
 2968 00ad 00       		.byte	0
 2969 00ae 00       		.byte	0
 2970 00af 10       		.uleb128 0x10
 2971 00b0 13       		.uleb128 0x13
 2972 00b1 01       		.byte	0x1
 2973 00b2 03       		.uleb128 0x3
 2974 00b3 0E       		.uleb128 0xe
 2975 00b4 0B       		.uleb128 0xb
 2976 00b5 05       		.uleb128 0x5
 2977 00b6 3A       		.uleb128 0x3a
 2978 00b7 0B       		.uleb128 0xb
 2979 00b8 3B       		.uleb128 0x3b
 2980 00b9 05       		.uleb128 0x5
 2981 00ba 01       		.uleb128 0x1
 2982 00bb 13       		.uleb128 0x13
 2983 00bc 00       		.byte	0
 2984 00bd 00       		.byte	0
 2985 00be 11       		.uleb128 0x11
 2986 00bf 34       		.uleb128 0x34
 2987 00c0 00       		.byte	0
 2988 00c1 03       		.uleb128 0x3
 2989 00c2 0E       		.uleb128 0xe
 2990 00c3 3A       		.uleb128 0x3a
 2991 00c4 0B       		.uleb128 0xb
 2992 00c5 3B       		.uleb128 0x3b
 2993 00c6 05       		.uleb128 0x5
 2994 00c7 49       		.uleb128 0x49
 2995 00c8 13       		.uleb128 0x13
 2996 00c9 3F       		.uleb128 0x3f
 2997 00ca 19       		.uleb128 0x19
 2998 00cb 3C       		.uleb128 0x3c
 2999 00cc 19       		.uleb128 0x19
 3000 00cd 00       		.byte	0
 3001 00ce 00       		.byte	0
 3002 00cf 12       		.uleb128 0x12
 3003 00d0 34       		.uleb128 0x34
 3004 00d1 00       		.byte	0
 3005 00d2 03       		.uleb128 0x3
 3006 00d3 0E       		.uleb128 0xe
 3007 00d4 3A       		.uleb128 0x3a
 3008 00d5 0B       		.uleb128 0xb
 3009 00d6 3B       		.uleb128 0x3b
 3010 00d7 0B       		.uleb128 0xb
 3011 00d8 49       		.uleb128 0x49
 3012 00d9 13       		.uleb128 0x13
 3013 00da 3F       		.uleb128 0x3f
 3014 00db 19       		.uleb128 0x19
 3015 00dc 3C       		.uleb128 0x3c
 3016 00dd 19       		.uleb128 0x19
 3017 00de 00       		.byte	0
 3018 00df 00       		.byte	0
 3019 00e0 13       		.uleb128 0x13
 3020 00e1 0D       		.uleb128 0xd
 3021 00e2 00       		.byte	0
ARM GAS  /tmp/ccX4yBEC.s 			page 54


 3022 00e3 03       		.uleb128 0x3
 3023 00e4 08       		.uleb128 0x8
 3024 00e5 3A       		.uleb128 0x3a
 3025 00e6 0B       		.uleb128 0xb
 3026 00e7 3B       		.uleb128 0x3b
 3027 00e8 0B       		.uleb128 0xb
 3028 00e9 49       		.uleb128 0x49
 3029 00ea 13       		.uleb128 0x13
 3030 00eb 38       		.uleb128 0x38
 3031 00ec 0B       		.uleb128 0xb
 3032 00ed 00       		.byte	0
 3033 00ee 00       		.byte	0
 3034 00ef 14       		.uleb128 0x14
 3035 00f0 13       		.uleb128 0x13
 3036 00f1 01       		.byte	0x1
 3037 00f2 0B       		.uleb128 0xb
 3038 00f3 0B       		.uleb128 0xb
 3039 00f4 3A       		.uleb128 0x3a
 3040 00f5 0B       		.uleb128 0xb
 3041 00f6 3B       		.uleb128 0x3b
 3042 00f7 0B       		.uleb128 0xb
 3043 00f8 01       		.uleb128 0x1
 3044 00f9 13       		.uleb128 0x13
 3045 00fa 00       		.byte	0
 3046 00fb 00       		.byte	0
 3047 00fc 15       		.uleb128 0x15
 3048 00fd 17       		.uleb128 0x17
 3049 00fe 01       		.byte	0x1
 3050 00ff 0B       		.uleb128 0xb
 3051 0100 0B       		.uleb128 0xb
 3052 0101 3A       		.uleb128 0x3a
 3053 0102 0B       		.uleb128 0xb
 3054 0103 3B       		.uleb128 0x3b
 3055 0104 0B       		.uleb128 0xb
 3056 0105 01       		.uleb128 0x1
 3057 0106 13       		.uleb128 0x13
 3058 0107 00       		.byte	0
 3059 0108 00       		.byte	0
 3060 0109 16       		.uleb128 0x16
 3061 010a 0D       		.uleb128 0xd
 3062 010b 00       		.byte	0
 3063 010c 03       		.uleb128 0x3
 3064 010d 0E       		.uleb128 0xe
 3065 010e 3A       		.uleb128 0x3a
 3066 010f 0B       		.uleb128 0xb
 3067 0110 3B       		.uleb128 0x3b
 3068 0111 05       		.uleb128 0x5
 3069 0112 49       		.uleb128 0x49
 3070 0113 13       		.uleb128 0x13
 3071 0114 00       		.byte	0
 3072 0115 00       		.byte	0
 3073 0116 17       		.uleb128 0x17
 3074 0117 01       		.uleb128 0x1
 3075 0118 01       		.byte	0x1
 3076 0119 49       		.uleb128 0x49
 3077 011a 13       		.uleb128 0x13
 3078 011b 01       		.uleb128 0x1
ARM GAS  /tmp/ccX4yBEC.s 			page 55


 3079 011c 13       		.uleb128 0x13
 3080 011d 00       		.byte	0
 3081 011e 00       		.byte	0
 3082 011f 18       		.uleb128 0x18
 3083 0120 21       		.uleb128 0x21
 3084 0121 00       		.byte	0
 3085 0122 49       		.uleb128 0x49
 3086 0123 13       		.uleb128 0x13
 3087 0124 2F       		.uleb128 0x2f
 3088 0125 0B       		.uleb128 0xb
 3089 0126 00       		.byte	0
 3090 0127 00       		.byte	0
 3091 0128 19       		.uleb128 0x19
 3092 0129 34       		.uleb128 0x34
 3093 012a 00       		.byte	0
 3094 012b 03       		.uleb128 0x3
 3095 012c 08       		.uleb128 0x8
 3096 012d 3A       		.uleb128 0x3a
 3097 012e 0B       		.uleb128 0xb
 3098 012f 3B       		.uleb128 0x3b
 3099 0130 05       		.uleb128 0x5
 3100 0131 49       		.uleb128 0x49
 3101 0132 13       		.uleb128 0x13
 3102 0133 3F       		.uleb128 0x3f
 3103 0134 19       		.uleb128 0x19
 3104 0135 3C       		.uleb128 0x3c
 3105 0136 19       		.uleb128 0x19
 3106 0137 00       		.byte	0
 3107 0138 00       		.byte	0
 3108 0139 1A       		.uleb128 0x1a
 3109 013a 2E       		.uleb128 0x2e
 3110 013b 01       		.byte	0x1
 3111 013c 3F       		.uleb128 0x3f
 3112 013d 19       		.uleb128 0x19
 3113 013e 03       		.uleb128 0x3
 3114 013f 0E       		.uleb128 0xe
 3115 0140 3A       		.uleb128 0x3a
 3116 0141 0B       		.uleb128 0xb
 3117 0142 3B       		.uleb128 0x3b
 3118 0143 05       		.uleb128 0x5
 3119 0144 27       		.uleb128 0x27
 3120 0145 19       		.uleb128 0x19
 3121 0146 49       		.uleb128 0x49
 3122 0147 13       		.uleb128 0x13
 3123 0148 11       		.uleb128 0x11
 3124 0149 01       		.uleb128 0x1
 3125 014a 12       		.uleb128 0x12
 3126 014b 06       		.uleb128 0x6
 3127 014c 40       		.uleb128 0x40
 3128 014d 18       		.uleb128 0x18
 3129 014e 9742     		.uleb128 0x2117
 3130 0150 19       		.uleb128 0x19
 3131 0151 01       		.uleb128 0x1
 3132 0152 13       		.uleb128 0x13
 3133 0153 00       		.byte	0
 3134 0154 00       		.byte	0
 3135 0155 1B       		.uleb128 0x1b
ARM GAS  /tmp/ccX4yBEC.s 			page 56


 3136 0156 05       		.uleb128 0x5
 3137 0157 00       		.byte	0
 3138 0158 03       		.uleb128 0x3
 3139 0159 08       		.uleb128 0x8
 3140 015a 3A       		.uleb128 0x3a
 3141 015b 0B       		.uleb128 0xb
 3142 015c 3B       		.uleb128 0x3b
 3143 015d 05       		.uleb128 0x5
 3144 015e 49       		.uleb128 0x49
 3145 015f 13       		.uleb128 0x13
 3146 0160 02       		.uleb128 0x2
 3147 0161 17       		.uleb128 0x17
 3148 0162 00       		.byte	0
 3149 0163 00       		.byte	0
 3150 0164 1C       		.uleb128 0x1c
 3151 0165 05       		.uleb128 0x5
 3152 0166 00       		.byte	0
 3153 0167 03       		.uleb128 0x3
 3154 0168 0E       		.uleb128 0xe
 3155 0169 3A       		.uleb128 0x3a
 3156 016a 0B       		.uleb128 0xb
 3157 016b 3B       		.uleb128 0x3b
 3158 016c 05       		.uleb128 0x5
 3159 016d 49       		.uleb128 0x49
 3160 016e 13       		.uleb128 0x13
 3161 016f 02       		.uleb128 0x2
 3162 0170 17       		.uleb128 0x17
 3163 0171 00       		.byte	0
 3164 0172 00       		.byte	0
 3165 0173 1D       		.uleb128 0x1d
 3166 0174 34       		.uleb128 0x34
 3167 0175 00       		.byte	0
 3168 0176 03       		.uleb128 0x3
 3169 0177 08       		.uleb128 0x8
 3170 0178 3A       		.uleb128 0x3a
 3171 0179 0B       		.uleb128 0xb
 3172 017a 3B       		.uleb128 0x3b
 3173 017b 05       		.uleb128 0x5
 3174 017c 49       		.uleb128 0x49
 3175 017d 13       		.uleb128 0x13
 3176 017e 00       		.byte	0
 3177 017f 00       		.byte	0
 3178 0180 1E       		.uleb128 0x1e
 3179 0181 34       		.uleb128 0x34
 3180 0182 00       		.byte	0
 3181 0183 03       		.uleb128 0x3
 3182 0184 08       		.uleb128 0x8
 3183 0185 3A       		.uleb128 0x3a
 3184 0186 0B       		.uleb128 0xb
 3185 0187 3B       		.uleb128 0x3b
 3186 0188 05       		.uleb128 0x5
 3187 0189 49       		.uleb128 0x49
 3188 018a 13       		.uleb128 0x13
 3189 018b 02       		.uleb128 0x2
 3190 018c 17       		.uleb128 0x17
 3191 018d 00       		.byte	0
 3192 018e 00       		.byte	0
ARM GAS  /tmp/ccX4yBEC.s 			page 57


 3193 018f 1F       		.uleb128 0x1f
 3194 0190 34       		.uleb128 0x34
 3195 0191 00       		.byte	0
 3196 0192 03       		.uleb128 0x3
 3197 0193 0E       		.uleb128 0xe
 3198 0194 49       		.uleb128 0x49
 3199 0195 13       		.uleb128 0x13
 3200 0196 34       		.uleb128 0x34
 3201 0197 19       		.uleb128 0x19
 3202 0198 00       		.byte	0
 3203 0199 00       		.byte	0
 3204 019a 20       		.uleb128 0x20
 3205 019b 1D       		.uleb128 0x1d
 3206 019c 01       		.byte	0x1
 3207 019d 31       		.uleb128 0x31
 3208 019e 13       		.uleb128 0x13
 3209 019f 11       		.uleb128 0x11
 3210 01a0 01       		.uleb128 0x1
 3211 01a1 12       		.uleb128 0x12
 3212 01a2 06       		.uleb128 0x6
 3213 01a3 58       		.uleb128 0x58
 3214 01a4 0B       		.uleb128 0xb
 3215 01a5 59       		.uleb128 0x59
 3216 01a6 05       		.uleb128 0x5
 3217 01a7 01       		.uleb128 0x1
 3218 01a8 13       		.uleb128 0x13
 3219 01a9 00       		.byte	0
 3220 01aa 00       		.byte	0
 3221 01ab 21       		.uleb128 0x21
 3222 01ac 1D       		.uleb128 0x1d
 3223 01ad 00       		.byte	0
 3224 01ae 31       		.uleb128 0x31
 3225 01af 13       		.uleb128 0x13
 3226 01b0 11       		.uleb128 0x11
 3227 01b1 01       		.uleb128 0x1
 3228 01b2 12       		.uleb128 0x12
 3229 01b3 06       		.uleb128 0x6
 3230 01b4 58       		.uleb128 0x58
 3231 01b5 0B       		.uleb128 0xb
 3232 01b6 59       		.uleb128 0x59
 3233 01b7 0B       		.uleb128 0xb
 3234 01b8 00       		.byte	0
 3235 01b9 00       		.byte	0
 3236 01ba 22       		.uleb128 0x22
 3237 01bb 1D       		.uleb128 0x1d
 3238 01bc 01       		.byte	0x1
 3239 01bd 31       		.uleb128 0x31
 3240 01be 13       		.uleb128 0x13
 3241 01bf 52       		.uleb128 0x52
 3242 01c0 01       		.uleb128 0x1
 3243 01c1 55       		.uleb128 0x55
 3244 01c2 17       		.uleb128 0x17
 3245 01c3 58       		.uleb128 0x58
 3246 01c4 0B       		.uleb128 0xb
 3247 01c5 59       		.uleb128 0x59
 3248 01c6 05       		.uleb128 0x5
 3249 01c7 01       		.uleb128 0x1
ARM GAS  /tmp/ccX4yBEC.s 			page 58


 3250 01c8 13       		.uleb128 0x13
 3251 01c9 00       		.byte	0
 3252 01ca 00       		.byte	0
 3253 01cb 23       		.uleb128 0x23
 3254 01cc 05       		.uleb128 0x5
 3255 01cd 00       		.byte	0
 3256 01ce 31       		.uleb128 0x31
 3257 01cf 13       		.uleb128 0x13
 3258 01d0 02       		.uleb128 0x2
 3259 01d1 17       		.uleb128 0x17
 3260 01d2 00       		.byte	0
 3261 01d3 00       		.byte	0
 3262 01d4 24       		.uleb128 0x24
 3263 01d5 0B       		.uleb128 0xb
 3264 01d6 01       		.byte	0x1
 3265 01d7 55       		.uleb128 0x55
 3266 01d8 17       		.uleb128 0x17
 3267 01d9 00       		.byte	0
 3268 01da 00       		.byte	0
 3269 01db 25       		.uleb128 0x25
 3270 01dc 34       		.uleb128 0x34
 3271 01dd 00       		.byte	0
 3272 01de 31       		.uleb128 0x31
 3273 01df 13       		.uleb128 0x13
 3274 01e0 02       		.uleb128 0x2
 3275 01e1 17       		.uleb128 0x17
 3276 01e2 00       		.byte	0
 3277 01e3 00       		.byte	0
 3278 01e4 26       		.uleb128 0x26
 3279 01e5 898201   		.uleb128 0x4109
 3280 01e8 01       		.byte	0x1
 3281 01e9 11       		.uleb128 0x11
 3282 01ea 01       		.uleb128 0x1
 3283 01eb 31       		.uleb128 0x31
 3284 01ec 13       		.uleb128 0x13
 3285 01ed 01       		.uleb128 0x1
 3286 01ee 13       		.uleb128 0x13
 3287 01ef 00       		.byte	0
 3288 01f0 00       		.byte	0
 3289 01f1 27       		.uleb128 0x27
 3290 01f2 8A8201   		.uleb128 0x410a
 3291 01f5 00       		.byte	0
 3292 01f6 02       		.uleb128 0x2
 3293 01f7 18       		.uleb128 0x18
 3294 01f8 9142     		.uleb128 0x2111
 3295 01fa 18       		.uleb128 0x18
 3296 01fb 00       		.byte	0
 3297 01fc 00       		.byte	0
 3298 01fd 28       		.uleb128 0x28
 3299 01fe 898201   		.uleb128 0x4109
 3300 0201 01       		.byte	0x1
 3301 0202 11       		.uleb128 0x11
 3302 0203 01       		.uleb128 0x1
 3303 0204 31       		.uleb128 0x31
 3304 0205 13       		.uleb128 0x13
 3305 0206 00       		.byte	0
 3306 0207 00       		.byte	0
ARM GAS  /tmp/ccX4yBEC.s 			page 59


 3307 0208 29       		.uleb128 0x29
 3308 0209 34       		.uleb128 0x34
 3309 020a 00       		.byte	0
 3310 020b 03       		.uleb128 0x3
 3311 020c 08       		.uleb128 0x8
 3312 020d 3A       		.uleb128 0x3a
 3313 020e 0B       		.uleb128 0xb
 3314 020f 3B       		.uleb128 0x3b
 3315 0210 05       		.uleb128 0x5
 3316 0211 49       		.uleb128 0x49
 3317 0212 13       		.uleb128 0x13
 3318 0213 02       		.uleb128 0x2
 3319 0214 18       		.uleb128 0x18
 3320 0215 00       		.byte	0
 3321 0216 00       		.byte	0
 3322 0217 2A       		.uleb128 0x2a
 3323 0218 1D       		.uleb128 0x1d
 3324 0219 01       		.byte	0x1
 3325 021a 31       		.uleb128 0x31
 3326 021b 13       		.uleb128 0x13
 3327 021c 11       		.uleb128 0x11
 3328 021d 01       		.uleb128 0x1
 3329 021e 12       		.uleb128 0x12
 3330 021f 06       		.uleb128 0x6
 3331 0220 58       		.uleb128 0x58
 3332 0221 0B       		.uleb128 0xb
 3333 0222 59       		.uleb128 0x59
 3334 0223 05       		.uleb128 0x5
 3335 0224 00       		.byte	0
 3336 0225 00       		.byte	0
 3337 0226 2B       		.uleb128 0x2b
 3338 0227 1D       		.uleb128 0x1d
 3339 0228 00       		.byte	0
 3340 0229 31       		.uleb128 0x31
 3341 022a 13       		.uleb128 0x13
 3342 022b 11       		.uleb128 0x11
 3343 022c 01       		.uleb128 0x1
 3344 022d 12       		.uleb128 0x12
 3345 022e 06       		.uleb128 0x6
 3346 022f 58       		.uleb128 0x58
 3347 0230 0B       		.uleb128 0xb
 3348 0231 59       		.uleb128 0x59
 3349 0232 05       		.uleb128 0x5
 3350 0233 00       		.byte	0
 3351 0234 00       		.byte	0
 3352 0235 2C       		.uleb128 0x2c
 3353 0236 0B       		.uleb128 0xb
 3354 0237 01       		.byte	0x1
 3355 0238 11       		.uleb128 0x11
 3356 0239 01       		.uleb128 0x1
 3357 023a 12       		.uleb128 0x12
 3358 023b 06       		.uleb128 0x6
 3359 023c 00       		.byte	0
 3360 023d 00       		.byte	0
 3361 023e 2D       		.uleb128 0x2d
 3362 023f 2E       		.uleb128 0x2e
 3363 0240 01       		.byte	0x1
ARM GAS  /tmp/ccX4yBEC.s 			page 60


 3364 0241 3F       		.uleb128 0x3f
 3365 0242 19       		.uleb128 0x19
 3366 0243 03       		.uleb128 0x3
 3367 0244 0E       		.uleb128 0xe
 3368 0245 3A       		.uleb128 0x3a
 3369 0246 0B       		.uleb128 0xb
 3370 0247 3B       		.uleb128 0x3b
 3371 0248 0B       		.uleb128 0xb
 3372 0249 27       		.uleb128 0x27
 3373 024a 19       		.uleb128 0x19
 3374 024b 49       		.uleb128 0x49
 3375 024c 13       		.uleb128 0x13
 3376 024d 11       		.uleb128 0x11
 3377 024e 01       		.uleb128 0x1
 3378 024f 12       		.uleb128 0x12
 3379 0250 06       		.uleb128 0x6
 3380 0251 40       		.uleb128 0x40
 3381 0252 18       		.uleb128 0x18
 3382 0253 9742     		.uleb128 0x2117
 3383 0255 19       		.uleb128 0x19
 3384 0256 01       		.uleb128 0x1
 3385 0257 13       		.uleb128 0x13
 3386 0258 00       		.byte	0
 3387 0259 00       		.byte	0
 3388 025a 2E       		.uleb128 0x2e
 3389 025b 05       		.uleb128 0x5
 3390 025c 00       		.byte	0
 3391 025d 03       		.uleb128 0x3
 3392 025e 08       		.uleb128 0x8
 3393 025f 3A       		.uleb128 0x3a
 3394 0260 0B       		.uleb128 0xb
 3395 0261 3B       		.uleb128 0x3b
 3396 0262 0B       		.uleb128 0xb
 3397 0263 49       		.uleb128 0x49
 3398 0264 13       		.uleb128 0x13
 3399 0265 02       		.uleb128 0x2
 3400 0266 17       		.uleb128 0x17
 3401 0267 00       		.byte	0
 3402 0268 00       		.byte	0
 3403 0269 2F       		.uleb128 0x2f
 3404 026a 34       		.uleb128 0x34
 3405 026b 00       		.byte	0
 3406 026c 03       		.uleb128 0x3
 3407 026d 08       		.uleb128 0x8
 3408 026e 3A       		.uleb128 0x3a
 3409 026f 0B       		.uleb128 0xb
 3410 0270 3B       		.uleb128 0x3b
 3411 0271 0B       		.uleb128 0xb
 3412 0272 49       		.uleb128 0x49
 3413 0273 13       		.uleb128 0x13
 3414 0274 02       		.uleb128 0x2
 3415 0275 17       		.uleb128 0x17
 3416 0276 00       		.byte	0
 3417 0277 00       		.byte	0
 3418 0278 30       		.uleb128 0x30
 3419 0279 34       		.uleb128 0x34
 3420 027a 00       		.byte	0
ARM GAS  /tmp/ccX4yBEC.s 			page 61


 3421 027b 03       		.uleb128 0x3
 3422 027c 08       		.uleb128 0x8
 3423 027d 3A       		.uleb128 0x3a
 3424 027e 0B       		.uleb128 0xb
 3425 027f 3B       		.uleb128 0x3b
 3426 0280 0B       		.uleb128 0xb
 3427 0281 49       		.uleb128 0x49
 3428 0282 13       		.uleb128 0x13
 3429 0283 00       		.byte	0
 3430 0284 00       		.byte	0
 3431 0285 31       		.uleb128 0x31
 3432 0286 1D       		.uleb128 0x1d
 3433 0287 01       		.byte	0x1
 3434 0288 31       		.uleb128 0x31
 3435 0289 13       		.uleb128 0x13
 3436 028a 52       		.uleb128 0x52
 3437 028b 01       		.uleb128 0x1
 3438 028c 55       		.uleb128 0x55
 3439 028d 17       		.uleb128 0x17
 3440 028e 58       		.uleb128 0x58
 3441 028f 0B       		.uleb128 0xb
 3442 0290 59       		.uleb128 0x59
 3443 0291 0B       		.uleb128 0xb
 3444 0292 01       		.uleb128 0x1
 3445 0293 13       		.uleb128 0x13
 3446 0294 00       		.byte	0
 3447 0295 00       		.byte	0
 3448 0296 32       		.uleb128 0x32
 3449 0297 34       		.uleb128 0x34
 3450 0298 00       		.byte	0
 3451 0299 03       		.uleb128 0x3
 3452 029a 08       		.uleb128 0x8
 3453 029b 3A       		.uleb128 0x3a
 3454 029c 0B       		.uleb128 0xb
 3455 029d 3B       		.uleb128 0x3b
 3456 029e 0B       		.uleb128 0xb
 3457 029f 49       		.uleb128 0x49
 3458 02a0 13       		.uleb128 0x13
 3459 02a1 02       		.uleb128 0x2
 3460 02a2 18       		.uleb128 0x18
 3461 02a3 00       		.byte	0
 3462 02a4 00       		.byte	0
 3463 02a5 33       		.uleb128 0x33
 3464 02a6 1D       		.uleb128 0x1d
 3465 02a7 01       		.byte	0x1
 3466 02a8 31       		.uleb128 0x31
 3467 02a9 13       		.uleb128 0x13
 3468 02aa 11       		.uleb128 0x11
 3469 02ab 01       		.uleb128 0x1
 3470 02ac 12       		.uleb128 0x12
 3471 02ad 06       		.uleb128 0x6
 3472 02ae 58       		.uleb128 0x58
 3473 02af 0B       		.uleb128 0xb
 3474 02b0 59       		.uleb128 0x59
 3475 02b1 0B       		.uleb128 0xb
 3476 02b2 01       		.uleb128 0x1
 3477 02b3 13       		.uleb128 0x13
ARM GAS  /tmp/ccX4yBEC.s 			page 62


 3478 02b4 00       		.byte	0
 3479 02b5 00       		.byte	0
 3480 02b6 34       		.uleb128 0x34
 3481 02b7 2E       		.uleb128 0x2e
 3482 02b8 01       		.byte	0x1
 3483 02b9 3F       		.uleb128 0x3f
 3484 02ba 19       		.uleb128 0x19
 3485 02bb 03       		.uleb128 0x3
 3486 02bc 0E       		.uleb128 0xe
 3487 02bd 3A       		.uleb128 0x3a
 3488 02be 0B       		.uleb128 0xb
 3489 02bf 3B       		.uleb128 0x3b
 3490 02c0 0B       		.uleb128 0xb
 3491 02c1 27       		.uleb128 0x27
 3492 02c2 19       		.uleb128 0x19
 3493 02c3 20       		.uleb128 0x20
 3494 02c4 0B       		.uleb128 0xb
 3495 02c5 01       		.uleb128 0x1
 3496 02c6 13       		.uleb128 0x13
 3497 02c7 00       		.byte	0
 3498 02c8 00       		.byte	0
 3499 02c9 35       		.uleb128 0x35
 3500 02ca 05       		.uleb128 0x5
 3501 02cb 00       		.byte	0
 3502 02cc 03       		.uleb128 0x3
 3503 02cd 08       		.uleb128 0x8
 3504 02ce 3A       		.uleb128 0x3a
 3505 02cf 0B       		.uleb128 0xb
 3506 02d0 3B       		.uleb128 0x3b
 3507 02d1 0B       		.uleb128 0xb
 3508 02d2 49       		.uleb128 0x49
 3509 02d3 13       		.uleb128 0x13
 3510 02d4 00       		.byte	0
 3511 02d5 00       		.byte	0
 3512 02d6 36       		.uleb128 0x36
 3513 02d7 34       		.uleb128 0x34
 3514 02d8 00       		.byte	0
 3515 02d9 03       		.uleb128 0x3
 3516 02da 0E       		.uleb128 0xe
 3517 02db 49       		.uleb128 0x49
 3518 02dc 13       		.uleb128 0x13
 3519 02dd 34       		.uleb128 0x34
 3520 02de 19       		.uleb128 0x19
 3521 02df 1C       		.uleb128 0x1c
 3522 02e0 0E       		.uleb128 0xe
 3523 02e1 00       		.byte	0
 3524 02e2 00       		.byte	0
 3525 02e3 37       		.uleb128 0x37
 3526 02e4 2E       		.uleb128 0x2e
 3527 02e5 01       		.byte	0x1
 3528 02e6 3F       		.uleb128 0x3f
 3529 02e7 19       		.uleb128 0x19
 3530 02e8 03       		.uleb128 0x3
 3531 02e9 0E       		.uleb128 0xe
 3532 02ea 3A       		.uleb128 0x3a
 3533 02eb 0B       		.uleb128 0xb
 3534 02ec 3B       		.uleb128 0x3b
ARM GAS  /tmp/ccX4yBEC.s 			page 63


 3535 02ed 0B       		.uleb128 0xb
 3536 02ee 27       		.uleb128 0x27
 3537 02ef 19       		.uleb128 0x19
 3538 02f0 11       		.uleb128 0x11
 3539 02f1 01       		.uleb128 0x1
 3540 02f2 12       		.uleb128 0x12
 3541 02f3 06       		.uleb128 0x6
 3542 02f4 40       		.uleb128 0x40
 3543 02f5 18       		.uleb128 0x18
 3544 02f6 9742     		.uleb128 0x2117
 3545 02f8 19       		.uleb128 0x19
 3546 02f9 01       		.uleb128 0x1
 3547 02fa 13       		.uleb128 0x13
 3548 02fb 00       		.byte	0
 3549 02fc 00       		.byte	0
 3550 02fd 38       		.uleb128 0x38
 3551 02fe 05       		.uleb128 0x5
 3552 02ff 00       		.byte	0
 3553 0300 31       		.uleb128 0x31
 3554 0301 13       		.uleb128 0x13
 3555 0302 00       		.byte	0
 3556 0303 00       		.byte	0
 3557 0304 39       		.uleb128 0x39
 3558 0305 898201   		.uleb128 0x4109
 3559 0308 00       		.byte	0
 3560 0309 11       		.uleb128 0x11
 3561 030a 01       		.uleb128 0x1
 3562 030b 31       		.uleb128 0x31
 3563 030c 13       		.uleb128 0x13
 3564 030d 00       		.byte	0
 3565 030e 00       		.byte	0
 3566 030f 3A       		.uleb128 0x3a
 3567 0310 0B       		.uleb128 0xb
 3568 0311 01       		.byte	0x1
 3569 0312 11       		.uleb128 0x11
 3570 0313 01       		.uleb128 0x1
 3571 0314 12       		.uleb128 0x12
 3572 0315 06       		.uleb128 0x6
 3573 0316 01       		.uleb128 0x1
 3574 0317 13       		.uleb128 0x13
 3575 0318 00       		.byte	0
 3576 0319 00       		.byte	0
 3577 031a 3B       		.uleb128 0x3b
 3578 031b 898201   		.uleb128 0x4109
 3579 031e 00       		.byte	0
 3580 031f 11       		.uleb128 0x11
 3581 0320 01       		.uleb128 0x1
 3582 0321 9542     		.uleb128 0x2115
 3583 0323 19       		.uleb128 0x19
 3584 0324 31       		.uleb128 0x31
 3585 0325 13       		.uleb128 0x13
 3586 0326 00       		.byte	0
 3587 0327 00       		.byte	0
 3588 0328 3C       		.uleb128 0x3c
 3589 0329 1D       		.uleb128 0x1d
 3590 032a 01       		.byte	0x1
 3591 032b 31       		.uleb128 0x31
ARM GAS  /tmp/ccX4yBEC.s 			page 64


 3592 032c 13       		.uleb128 0x13
 3593 032d 11       		.uleb128 0x11
 3594 032e 01       		.uleb128 0x1
 3595 032f 12       		.uleb128 0x12
 3596 0330 06       		.uleb128 0x6
 3597 0331 58       		.uleb128 0x58
 3598 0332 0B       		.uleb128 0xb
 3599 0333 59       		.uleb128 0x59
 3600 0334 0B       		.uleb128 0xb
 3601 0335 00       		.byte	0
 3602 0336 00       		.byte	0
 3603 0337 3D       		.uleb128 0x3d
 3604 0338 1D       		.uleb128 0x1d
 3605 0339 01       		.byte	0x1
 3606 033a 31       		.uleb128 0x31
 3607 033b 13       		.uleb128 0x13
 3608 033c 52       		.uleb128 0x52
 3609 033d 01       		.uleb128 0x1
 3610 033e 55       		.uleb128 0x55
 3611 033f 17       		.uleb128 0x17
 3612 0340 58       		.uleb128 0x58
 3613 0341 0B       		.uleb128 0xb
 3614 0342 59       		.uleb128 0x59
 3615 0343 05       		.uleb128 0x5
 3616 0344 00       		.byte	0
 3617 0345 00       		.byte	0
 3618 0346 3E       		.uleb128 0x3e
 3619 0347 1D       		.uleb128 0x1d
 3620 0348 00       		.byte	0
 3621 0349 31       		.uleb128 0x31
 3622 034a 13       		.uleb128 0x13
 3623 034b 52       		.uleb128 0x52
 3624 034c 01       		.uleb128 0x1
 3625 034d 55       		.uleb128 0x55
 3626 034e 17       		.uleb128 0x17
 3627 034f 58       		.uleb128 0x58
 3628 0350 0B       		.uleb128 0xb
 3629 0351 59       		.uleb128 0x59
 3630 0352 05       		.uleb128 0x5
 3631 0353 00       		.byte	0
 3632 0354 00       		.byte	0
 3633 0355 3F       		.uleb128 0x3f
 3634 0356 05       		.uleb128 0x5
 3635 0357 00       		.byte	0
 3636 0358 03       		.uleb128 0x3
 3637 0359 08       		.uleb128 0x8
 3638 035a 3A       		.uleb128 0x3a
 3639 035b 0B       		.uleb128 0xb
 3640 035c 3B       		.uleb128 0x3b
 3641 035d 0B       		.uleb128 0xb
 3642 035e 49       		.uleb128 0x49
 3643 035f 13       		.uleb128 0x13
 3644 0360 02       		.uleb128 0x2
 3645 0361 18       		.uleb128 0x18
 3646 0362 00       		.byte	0
 3647 0363 00       		.byte	0
 3648 0364 40       		.uleb128 0x40
ARM GAS  /tmp/ccX4yBEC.s 			page 65


 3649 0365 2E       		.uleb128 0x2e
 3650 0366 00       		.byte	0
 3651 0367 03       		.uleb128 0x3
 3652 0368 0E       		.uleb128 0xe
 3653 0369 3A       		.uleb128 0x3a
 3654 036a 0B       		.uleb128 0xb
 3655 036b 3B       		.uleb128 0x3b
 3656 036c 0B       		.uleb128 0xb
 3657 036d 27       		.uleb128 0x27
 3658 036e 19       		.uleb128 0x19
 3659 036f 49       		.uleb128 0x49
 3660 0370 13       		.uleb128 0x13
 3661 0371 20       		.uleb128 0x20
 3662 0372 0B       		.uleb128 0xb
 3663 0373 00       		.byte	0
 3664 0374 00       		.byte	0
 3665 0375 41       		.uleb128 0x41
 3666 0376 2E       		.uleb128 0x2e
 3667 0377 01       		.byte	0x1
 3668 0378 03       		.uleb128 0x3
 3669 0379 0E       		.uleb128 0xe
 3670 037a 3A       		.uleb128 0x3a
 3671 037b 0B       		.uleb128 0xb
 3672 037c 3B       		.uleb128 0x3b
 3673 037d 05       		.uleb128 0x5
 3674 037e 27       		.uleb128 0x27
 3675 037f 19       		.uleb128 0x19
 3676 0380 20       		.uleb128 0x20
 3677 0381 0B       		.uleb128 0xb
 3678 0382 01       		.uleb128 0x1
 3679 0383 13       		.uleb128 0x13
 3680 0384 00       		.byte	0
 3681 0385 00       		.byte	0
 3682 0386 42       		.uleb128 0x42
 3683 0387 2E       		.uleb128 0x2e
 3684 0388 00       		.byte	0
 3685 0389 03       		.uleb128 0x3
 3686 038a 0E       		.uleb128 0xe
 3687 038b 3A       		.uleb128 0x3a
 3688 038c 0B       		.uleb128 0xb
 3689 038d 3B       		.uleb128 0x3b
 3690 038e 05       		.uleb128 0x5
 3691 038f 27       		.uleb128 0x27
 3692 0390 19       		.uleb128 0x19
 3693 0391 20       		.uleb128 0x20
 3694 0392 0B       		.uleb128 0xb
 3695 0393 00       		.byte	0
 3696 0394 00       		.byte	0
 3697 0395 43       		.uleb128 0x43
 3698 0396 2E       		.uleb128 0x2e
 3699 0397 01       		.byte	0x1
 3700 0398 03       		.uleb128 0x3
 3701 0399 0E       		.uleb128 0xe
 3702 039a 3A       		.uleb128 0x3a
 3703 039b 0B       		.uleb128 0xb
 3704 039c 3B       		.uleb128 0x3b
 3705 039d 05       		.uleb128 0x5
ARM GAS  /tmp/ccX4yBEC.s 			page 66


 3706 039e 27       		.uleb128 0x27
 3707 039f 19       		.uleb128 0x19
 3708 03a0 49       		.uleb128 0x49
 3709 03a1 13       		.uleb128 0x13
 3710 03a2 20       		.uleb128 0x20
 3711 03a3 0B       		.uleb128 0xb
 3712 03a4 01       		.uleb128 0x1
 3713 03a5 13       		.uleb128 0x13
 3714 03a6 00       		.byte	0
 3715 03a7 00       		.byte	0
 3716 03a8 44       		.uleb128 0x44
 3717 03a9 05       		.uleb128 0x5
 3718 03aa 00       		.byte	0
 3719 03ab 03       		.uleb128 0x3
 3720 03ac 08       		.uleb128 0x8
 3721 03ad 3A       		.uleb128 0x3a
 3722 03ae 0B       		.uleb128 0xb
 3723 03af 3B       		.uleb128 0x3b
 3724 03b0 05       		.uleb128 0x5
 3725 03b1 49       		.uleb128 0x49
 3726 03b2 13       		.uleb128 0x13
 3727 03b3 00       		.byte	0
 3728 03b4 00       		.byte	0
 3729 03b5 45       		.uleb128 0x45
 3730 03b6 2E       		.uleb128 0x2e
 3731 03b7 01       		.byte	0x1
 3732 03b8 31       		.uleb128 0x31
 3733 03b9 13       		.uleb128 0x13
 3734 03ba 11       		.uleb128 0x11
 3735 03bb 01       		.uleb128 0x1
 3736 03bc 12       		.uleb128 0x12
 3737 03bd 06       		.uleb128 0x6
 3738 03be 40       		.uleb128 0x40
 3739 03bf 18       		.uleb128 0x18
 3740 03c0 9742     		.uleb128 0x2117
 3741 03c2 19       		.uleb128 0x19
 3742 03c3 01       		.uleb128 0x1
 3743 03c4 13       		.uleb128 0x13
 3744 03c5 00       		.byte	0
 3745 03c6 00       		.byte	0
 3746 03c7 46       		.uleb128 0x46
 3747 03c8 2E       		.uleb128 0x2e
 3748 03c9 00       		.byte	0
 3749 03ca 3F       		.uleb128 0x3f
 3750 03cb 19       		.uleb128 0x19
 3751 03cc 3C       		.uleb128 0x3c
 3752 03cd 19       		.uleb128 0x19
 3753 03ce 6E       		.uleb128 0x6e
 3754 03cf 0E       		.uleb128 0xe
 3755 03d0 03       		.uleb128 0x3
 3756 03d1 0E       		.uleb128 0xe
 3757 03d2 3A       		.uleb128 0x3a
 3758 03d3 0B       		.uleb128 0xb
 3759 03d4 3B       		.uleb128 0x3b
 3760 03d5 0B       		.uleb128 0xb
 3761 03d6 00       		.byte	0
 3762 03d7 00       		.byte	0
ARM GAS  /tmp/ccX4yBEC.s 			page 67


 3763 03d8 47       		.uleb128 0x47
 3764 03d9 2E       		.uleb128 0x2e
 3765 03da 00       		.byte	0
 3766 03db 3F       		.uleb128 0x3f
 3767 03dc 19       		.uleb128 0x19
 3768 03dd 3C       		.uleb128 0x3c
 3769 03de 19       		.uleb128 0x19
 3770 03df 6E       		.uleb128 0x6e
 3771 03e0 0E       		.uleb128 0xe
 3772 03e1 03       		.uleb128 0x3
 3773 03e2 0E       		.uleb128 0xe
 3774 03e3 3A       		.uleb128 0x3a
 3775 03e4 0B       		.uleb128 0xb
 3776 03e5 3B       		.uleb128 0x3b
 3777 03e6 05       		.uleb128 0x5
 3778 03e7 00       		.byte	0
 3779 03e8 00       		.byte	0
 3780 03e9 00       		.byte	0
 3781              		.section	.debug_loc,"",%progbits
 3782              	.Ldebug_loc0:
 3783              	.LLST24:
 3784 0000 00000000 		.4byte	.LVL46
 3785 0004 0E000000 		.4byte	.LVL47
 3786 0008 0100     		.2byte	0x1
 3787 000a 50       		.byte	0x50
 3788 000b 0E000000 		.4byte	.LVL47
 3789 000f 58000000 		.4byte	.LFE227
 3790 0013 0100     		.2byte	0x1
 3791 0015 55       		.byte	0x55
 3792 0016 00000000 		.4byte	0
 3793 001a 00000000 		.4byte	0
 3794              	.LLST25:
 3795 001e 00000000 		.4byte	.LVL46
 3796 0022 13000000 		.4byte	.LVL48-1
 3797 0026 0100     		.2byte	0x1
 3798 0028 51       		.byte	0x51
 3799 0029 13000000 		.4byte	.LVL48-1
 3800 002d 58000000 		.4byte	.LFE227
 3801 0031 0100     		.2byte	0x1
 3802 0033 58       		.byte	0x58
 3803 0034 00000000 		.4byte	0
 3804 0038 00000000 		.4byte	0
 3805              	.LLST26:
 3806 003c 42000000 		.4byte	.LVL56
 3807 0040 46000000 		.4byte	.LVL57
 3808 0044 0100     		.2byte	0x1
 3809 0046 50       		.byte	0x50
 3810 0047 46000000 		.4byte	.LVL57
 3811 004b 50000000 		.4byte	.LVL59
 3812 004f 0100     		.2byte	0x1
 3813 0051 54       		.byte	0x54
 3814 0052 00000000 		.4byte	0
 3815 0056 00000000 		.4byte	0
 3816              	.LLST27:
 3817 005a 18000000 		.4byte	.LVL49
 3818 005e 3A000000 		.4byte	.LVL54
 3819 0062 0100     		.2byte	0x1
ARM GAS  /tmp/ccX4yBEC.s 			page 68


 3820 0064 55       		.byte	0x55
 3821 0065 50000000 		.4byte	.LVL59
 3822 0069 58000000 		.4byte	.LFE227
 3823 006d 0100     		.2byte	0x1
 3824 006f 55       		.byte	0x55
 3825 0070 00000000 		.4byte	0
 3826 0074 00000000 		.4byte	0
 3827              	.LLST28:
 3828 0078 18000000 		.4byte	.LVL49
 3829 007c 3A000000 		.4byte	.LVL54
 3830 0080 0100     		.2byte	0x1
 3831 0082 54       		.byte	0x54
 3832 0083 50000000 		.4byte	.LVL59
 3833 0087 58000000 		.4byte	.LFE227
 3834 008b 0100     		.2byte	0x1
 3835 008d 54       		.byte	0x54
 3836 008e 00000000 		.4byte	0
 3837 0092 00000000 		.4byte	0
 3838              	.LLST29:
 3839 0096 1E000000 		.4byte	.LVL50
 3840 009a 2E000000 		.4byte	.LVL53
 3841 009e 0100     		.2byte	0x1
 3842 00a0 53       		.byte	0x53
 3843 00a1 50000000 		.4byte	.LVL59
 3844 00a5 58000000 		.4byte	.LFE227
 3845 00a9 0100     		.2byte	0x1
 3846 00ab 53       		.byte	0x53
 3847 00ac 00000000 		.4byte	0
 3848 00b0 00000000 		.4byte	0
 3849              	.LLST30:
 3850 00b4 00000000 		.4byte	.LVL60
 3851 00b8 07000000 		.4byte	.LVL61-1
 3852 00bc 0100     		.2byte	0x1
 3853 00be 50       		.byte	0x50
 3854 00bf 07000000 		.4byte	.LVL61-1
 3855 00c3 0C000000 		.4byte	.LFE226
 3856 00c7 0400     		.2byte	0x4
 3857 00c9 F3       		.byte	0xf3
 3858 00ca 01       		.uleb128 0x1
 3859 00cb 50       		.byte	0x50
 3860 00cc 9F       		.byte	0x9f
 3861 00cd 00000000 		.4byte	0
 3862 00d1 00000000 		.4byte	0
 3863              	.LLST31:
 3864 00d5 00000000 		.4byte	.LVL60
 3865 00d9 07000000 		.4byte	.LVL61-1
 3866 00dd 0100     		.2byte	0x1
 3867 00df 51       		.byte	0x51
 3868 00e0 07000000 		.4byte	.LVL61-1
 3869 00e4 0C000000 		.4byte	.LFE226
 3870 00e8 0400     		.2byte	0x4
 3871 00ea F3       		.byte	0xf3
 3872 00eb 01       		.uleb128 0x1
 3873 00ec 51       		.byte	0x51
 3874 00ed 9F       		.byte	0x9f
 3875 00ee 00000000 		.4byte	0
 3876 00f2 00000000 		.4byte	0
ARM GAS  /tmp/ccX4yBEC.s 			page 69


 3877              	.LLST17:
 3878 00f6 00000000 		.4byte	.LVL30
 3879 00fa 0C000000 		.4byte	.LVL32
 3880 00fe 0100     		.2byte	0x1
 3881 0100 50       		.byte	0x50
 3882 0101 0C000000 		.4byte	.LVL32
 3883 0105 4C000000 		.4byte	.LFE225
 3884 0109 0100     		.2byte	0x1
 3885 010b 55       		.byte	0x55
 3886 010c 00000000 		.4byte	0
 3887 0110 00000000 		.4byte	0
 3888              	.LLST18:
 3889 0114 06000000 		.4byte	.LVL31
 3890 0118 38000000 		.4byte	.LVL41
 3891 011c 0100     		.2byte	0x1
 3892 011e 54       		.byte	0x54
 3893 011f 42000000 		.4byte	.LVL43
 3894 0123 4C000000 		.4byte	.LFE225
 3895 0127 0100     		.2byte	0x1
 3896 0129 54       		.byte	0x54
 3897 012a 00000000 		.4byte	0
 3898 012e 00000000 		.4byte	0
 3899              	.LLST19:
 3900 0132 38000000 		.4byte	.LVL41
 3901 0136 42000000 		.4byte	.LVL43
 3902 013a 0100     		.2byte	0x1
 3903 013c 54       		.byte	0x54
 3904 013d 00000000 		.4byte	0
 3905 0141 00000000 		.4byte	0
 3906              	.LLST20:
 3907 0145 12000000 		.4byte	.LVL34
 3908 0149 32000000 		.4byte	.LVL39
 3909 014d 0100     		.2byte	0x1
 3910 014f 55       		.byte	0x55
 3911 0150 42000000 		.4byte	.LVL43
 3912 0154 4C000000 		.4byte	.LFE225
 3913 0158 0100     		.2byte	0x1
 3914 015a 55       		.byte	0x55
 3915 015b 00000000 		.4byte	0
 3916 015f 00000000 		.4byte	0
 3917              	.LLST21:
 3918 0163 12000000 		.4byte	.LVL34
 3919 0167 32000000 		.4byte	.LVL39
 3920 016b 0100     		.2byte	0x1
 3921 016d 54       		.byte	0x54
 3922 016e 42000000 		.4byte	.LVL43
 3923 0172 4C000000 		.4byte	.LFE225
 3924 0176 0100     		.2byte	0x1
 3925 0178 54       		.byte	0x54
 3926 0179 00000000 		.4byte	0
 3927 017d 00000000 		.4byte	0
 3928              	.LLST22:
 3929 0181 18000000 		.4byte	.LVL35
 3930 0185 28000000 		.4byte	.LVL38
 3931 0189 0100     		.2byte	0x1
 3932 018b 53       		.byte	0x53
 3933 018c 42000000 		.4byte	.LVL43
ARM GAS  /tmp/ccX4yBEC.s 			page 70


 3934 0190 4C000000 		.4byte	.LFE225
 3935 0194 0100     		.2byte	0x1
 3936 0196 53       		.byte	0x53
 3937 0197 00000000 		.4byte	0
 3938 019b 00000000 		.4byte	0
 3939              	.LLST23:
 3940 019f 00000000 		.4byte	.LVL44
 3941 01a3 07000000 		.4byte	.LVL45-1
 3942 01a7 0100     		.2byte	0x1
 3943 01a9 50       		.byte	0x50
 3944 01aa 07000000 		.4byte	.LVL45-1
 3945 01ae 0C000000 		.4byte	.LFE224
 3946 01b2 0400     		.2byte	0x4
 3947 01b4 F3       		.byte	0xf3
 3948 01b5 01       		.uleb128 0x1
 3949 01b6 50       		.byte	0x50
 3950 01b7 9F       		.byte	0x9f
 3951 01b8 00000000 		.4byte	0
 3952 01bc 00000000 		.4byte	0
 3953              	.LLST9:
 3954 01c0 00000000 		.4byte	.LVL16
 3955 01c4 10000000 		.4byte	.LVL19
 3956 01c8 0100     		.2byte	0x1
 3957 01ca 50       		.byte	0x50
 3958 01cb 10000000 		.4byte	.LVL19
 3959 01cf 24000000 		.4byte	.LVL22
 3960 01d3 0100     		.2byte	0x1
 3961 01d5 54       		.byte	0x54
 3962 01d6 24000000 		.4byte	.LVL22
 3963 01da 2C000000 		.4byte	.LFE222
 3964 01de 0400     		.2byte	0x4
 3965 01e0 F3       		.byte	0xf3
 3966 01e1 01       		.uleb128 0x1
 3967 01e2 50       		.byte	0x50
 3968 01e3 9F       		.byte	0x9f
 3969 01e4 00000000 		.4byte	0
 3970 01e8 00000000 		.4byte	0
 3971              	.LLST10:
 3972 01ec 04000000 		.4byte	.LVL17
 3973 01f0 06000000 		.4byte	.LVL18
 3974 01f4 0100     		.2byte	0x1
 3975 01f6 50       		.byte	0x50
 3976 01f7 00000000 		.4byte	0
 3977 01fb 00000000 		.4byte	0
 3978              	.LLST11:
 3979 01ff 10000000 		.4byte	.LVL19
 3980 0203 18000000 		.4byte	.LVL20
 3981 0207 0100     		.2byte	0x1
 3982 0209 54       		.byte	0x54
 3983 020a 00000000 		.4byte	0
 3984 020e 00000000 		.4byte	0
 3985              	.LLST12:
 3986 0212 10000000 		.4byte	.LVL19
 3987 0216 18000000 		.4byte	.LVL20
 3988 021a 0100     		.2byte	0x1
 3989 021c 53       		.byte	0x53
 3990 021d 00000000 		.4byte	0
ARM GAS  /tmp/ccX4yBEC.s 			page 71


 3991 0221 00000000 		.4byte	0
 3992              	.LLST5:
 3993 0225 00000000 		.4byte	.LVL10
 3994 0229 10000000 		.4byte	.LVL14
 3995 022d 0100     		.2byte	0x1
 3996 022f 50       		.byte	0x50
 3997 0230 10000000 		.4byte	.LVL14
 3998 0234 15000000 		.4byte	.LVL15-1
 3999 0238 0200     		.2byte	0x2
 4000 023a 72       		.byte	0x72
 4001 023b 04       		.sleb128 4
 4002 023c 15000000 		.4byte	.LVL15-1
 4003 0240 16000000 		.4byte	.LVL15
 4004 0244 0400     		.2byte	0x4
 4005 0246 F3       		.byte	0xf3
 4006 0247 01       		.uleb128 0x1
 4007 0248 50       		.byte	0x50
 4008 0249 9F       		.byte	0x9f
 4009 024a 16000000 		.4byte	.LVL15
 4010 024e 18000000 		.4byte	.LFE221
 4011 0252 0100     		.2byte	0x1
 4012 0254 50       		.byte	0x50
 4013 0255 00000000 		.4byte	0
 4014 0259 00000000 		.4byte	0
 4015              	.LLST7:
 4016 025d 06000000 		.4byte	.LVL12
 4017 0261 0E000000 		.4byte	.LVL13
 4018 0265 0100     		.2byte	0x1
 4019 0267 50       		.byte	0x50
 4020 0268 00000000 		.4byte	0
 4021 026c 00000000 		.4byte	0
 4022              	.LLST8:
 4023 0270 06000000 		.4byte	.LVL12
 4024 0274 0E000000 		.4byte	.LVL13
 4025 0278 0100     		.2byte	0x1
 4026 027a 53       		.byte	0x53
 4027 027b 00000000 		.4byte	0
 4028 027f 00000000 		.4byte	0
 4029              	.LLST6:
 4030 0283 00000000 		.4byte	.LVL10
 4031 0287 02000000 		.4byte	.LVL11
 4032 028b 0100     		.2byte	0x1
 4033 028d 50       		.byte	0x50
 4034 028e 00000000 		.4byte	0
 4035 0292 00000000 		.4byte	0
 4036              	.LLST1:
 4037 0296 00000000 		.4byte	.LVL2
 4038 029a 14000000 		.4byte	.LVL7
 4039 029e 0100     		.2byte	0x1
 4040 02a0 50       		.byte	0x50
 4041 02a1 14000000 		.4byte	.LVL7
 4042 02a5 19000000 		.4byte	.LVL8-1
 4043 02a9 0100     		.2byte	0x1
 4044 02ab 53       		.byte	0x53
 4045 02ac 19000000 		.4byte	.LVL8-1
 4046 02b0 1E000000 		.4byte	.LVL9
 4047 02b4 0400     		.2byte	0x4
ARM GAS  /tmp/ccX4yBEC.s 			page 72


 4048 02b6 F3       		.byte	0xf3
 4049 02b7 01       		.uleb128 0x1
 4050 02b8 50       		.byte	0x50
 4051 02b9 9F       		.byte	0x9f
 4052 02ba 1E000000 		.4byte	.LVL9
 4053 02be 22000000 		.4byte	.LFE220
 4054 02c2 0100     		.2byte	0x1
 4055 02c4 50       		.byte	0x50
 4056 02c5 00000000 		.4byte	0
 4057 02c9 00000000 		.4byte	0
 4058              	.LLST2:
 4059 02cd 02000000 		.4byte	.LVL3
 4060 02d1 04000000 		.4byte	.LVL4
 4061 02d5 0100     		.2byte	0x1
 4062 02d7 50       		.byte	0x50
 4063 02d8 00000000 		.4byte	0
 4064 02dc 00000000 		.4byte	0
 4065              	.LLST3:
 4066 02e0 0E000000 		.4byte	.LVL5
 4067 02e4 12000000 		.4byte	.LVL6
 4068 02e8 0100     		.2byte	0x1
 4069 02ea 50       		.byte	0x50
 4070 02eb 00000000 		.4byte	0
 4071 02ef 00000000 		.4byte	0
 4072              	.LLST4:
 4073 02f3 0E000000 		.4byte	.LVL5
 4074 02f7 12000000 		.4byte	.LVL6
 4075 02fb 0100     		.2byte	0x1
 4076 02fd 52       		.byte	0x52
 4077 02fe 00000000 		.4byte	0
 4078 0302 00000000 		.4byte	0
 4079              	.LLST0:
 4080 0306 00000000 		.4byte	.LVL0
 4081 030a 04000000 		.4byte	.LVL1
 4082 030e 0100     		.2byte	0x1
 4083 0310 50       		.byte	0x50
 4084 0311 00000000 		.4byte	0
 4085 0315 00000000 		.4byte	0
 4086              	.LLST13:
 4087 0319 00000000 		.4byte	.LVL24
 4088 031d 0E000000 		.4byte	.LVL26
 4089 0321 0100     		.2byte	0x1
 4090 0323 50       		.byte	0x50
 4091 0324 0E000000 		.4byte	.LVL26
 4092 0328 22000000 		.4byte	.LVL29
 4093 032c 0100     		.2byte	0x1
 4094 032e 54       		.byte	0x54
 4095 032f 22000000 		.4byte	.LVL29
 4096 0333 24000000 		.4byte	.LFE223
 4097 0337 0400     		.2byte	0x4
 4098 0339 F3       		.byte	0xf3
 4099 033a 01       		.uleb128 0x1
 4100 033b 50       		.byte	0x50
 4101 033c 9F       		.byte	0x9f
 4102 033d 00000000 		.4byte	0
 4103 0341 00000000 		.4byte	0
 4104              	.LLST14:
ARM GAS  /tmp/ccX4yBEC.s 			page 73


 4105 0345 00000000 		.4byte	.LVL24
 4106 0349 04000000 		.4byte	.LVL25
 4107 034d 0100     		.2byte	0x1
 4108 034f 50       		.byte	0x50
 4109 0350 00000000 		.4byte	0
 4110 0354 00000000 		.4byte	0
 4111              	.LLST15:
 4112 0358 0E000000 		.4byte	.LVL26
 4113 035c 16000000 		.4byte	.LVL27
 4114 0360 0100     		.2byte	0x1
 4115 0362 54       		.byte	0x54
 4116 0363 00000000 		.4byte	0
 4117 0367 00000000 		.4byte	0
 4118              	.LLST16:
 4119 036b 0E000000 		.4byte	.LVL26
 4120 036f 16000000 		.4byte	.LVL27
 4121 0373 0100     		.2byte	0x1
 4122 0375 53       		.byte	0x53
 4123 0376 00000000 		.4byte	0
 4124 037a 00000000 		.4byte	0
 4125              		.section	.debug_aranges,"",%progbits
 4126 0000 5C000000 		.4byte	0x5c
 4127 0004 0200     		.2byte	0x2
 4128 0006 00000000 		.4byte	.Ldebug_info0
 4129 000a 04       		.byte	0x4
 4130 000b 00       		.byte	0
 4131 000c 0000     		.2byte	0
 4132 000e 0000     		.2byte	0
 4133 0010 00000000 		.4byte	.LFB219
 4134 0014 06000000 		.4byte	.LFE219-.LFB219
 4135 0018 00000000 		.4byte	.LFB220
 4136 001c 22000000 		.4byte	.LFE220-.LFB220
 4137 0020 00000000 		.4byte	.LFB221
 4138 0024 18000000 		.4byte	.LFE221-.LFB221
 4139 0028 00000000 		.4byte	.LFB222
 4140 002c 2C000000 		.4byte	.LFE222-.LFB222
 4141 0030 00000000 		.4byte	.LFB223
 4142 0034 24000000 		.4byte	.LFE223-.LFB223
 4143 0038 00000000 		.4byte	.LFB225
 4144 003c 4C000000 		.4byte	.LFE225-.LFB225
 4145 0040 00000000 		.4byte	.LFB224
 4146 0044 0C000000 		.4byte	.LFE224-.LFB224
 4147 0048 00000000 		.4byte	.LFB227
 4148 004c 58000000 		.4byte	.LFE227-.LFB227
 4149 0050 00000000 		.4byte	.LFB226
 4150 0054 0C000000 		.4byte	.LFE226-.LFB226
 4151 0058 00000000 		.4byte	0
 4152 005c 00000000 		.4byte	0
 4153              		.section	.debug_ranges,"",%progbits
 4154              	.Ldebug_ranges0:
 4155 0000 08000000 		.4byte	.LBB97
 4156 0004 0A000000 		.4byte	.LBE97
 4157 0008 0E000000 		.4byte	.LBB100
 4158 000c 12000000 		.4byte	.LBE100
 4159 0010 00000000 		.4byte	0
 4160 0014 00000000 		.4byte	0
 4161 0018 1A000000 		.4byte	.LBB101
ARM GAS  /tmp/ccX4yBEC.s 			page 74


 4162 001c 1C000000 		.4byte	.LBE101
 4163 0020 1E000000 		.4byte	.LBB110
 4164 0024 22000000 		.4byte	.LBE110
 4165 0028 00000000 		.4byte	0
 4166 002c 00000000 		.4byte	0
 4167 0030 06000000 		.4byte	.LBB114
 4168 0034 0A000000 		.4byte	.LBE114
 4169 0038 0C000000 		.4byte	.LBB117
 4170 003c 0E000000 		.4byte	.LBE117
 4171 0040 00000000 		.4byte	0
 4172 0044 00000000 		.4byte	0
 4173 0048 04000000 		.4byte	.LBB124
 4174 004c 06000000 		.4byte	.LBE124
 4175 0050 1C000000 		.4byte	.LBB131
 4176 0054 1E000000 		.4byte	.LBE131
 4177 0058 00000000 		.4byte	0
 4178 005c 00000000 		.4byte	0
 4179 0060 10000000 		.4byte	.LBB127
 4180 0064 14000000 		.4byte	.LBE127
 4181 0068 16000000 		.4byte	.LBB130
 4182 006c 18000000 		.4byte	.LBE130
 4183 0070 00000000 		.4byte	0
 4184 0074 00000000 		.4byte	0
 4185 0078 02000000 		.4byte	.LBB137
 4186 007c 04000000 		.4byte	.LBE137
 4187 0080 1A000000 		.4byte	.LBB144
 4188 0084 1C000000 		.4byte	.LBE144
 4189 0088 00000000 		.4byte	0
 4190 008c 00000000 		.4byte	0
 4191 0090 0E000000 		.4byte	.LBB140
 4192 0094 12000000 		.4byte	.LBE140
 4193 0098 14000000 		.4byte	.LBB143
 4194 009c 16000000 		.4byte	.LBE143
 4195 00a0 00000000 		.4byte	0
 4196 00a4 00000000 		.4byte	0
 4197 00a8 18000000 		.4byte	.LBB147
 4198 00ac 28000000 		.4byte	.LBE147
 4199 00b0 2A000000 		.4byte	.LBB151
 4200 00b4 32000000 		.4byte	.LBE151
 4201 00b8 42000000 		.4byte	.LBB152
 4202 00bc 4C000000 		.4byte	.LBE152
 4203 00c0 00000000 		.4byte	0
 4204 00c4 00000000 		.4byte	0
 4205 00c8 1E000000 		.4byte	.LBB166
 4206 00cc 32000000 		.4byte	.LBE166
 4207 00d0 34000000 		.4byte	.LBB171
 4208 00d4 36000000 		.4byte	.LBE171
 4209 00d8 38000000 		.4byte	.LBB172
 4210 00dc 3A000000 		.4byte	.LBE172
 4211 00e0 50000000 		.4byte	.LBB173
 4212 00e4 58000000 		.4byte	.LBE173
 4213 00e8 00000000 		.4byte	0
 4214 00ec 00000000 		.4byte	0
 4215 00f0 00000000 		.4byte	.LFB219
 4216 00f4 06000000 		.4byte	.LFE219
 4217 00f8 00000000 		.4byte	.LFB220
 4218 00fc 22000000 		.4byte	.LFE220
ARM GAS  /tmp/ccX4yBEC.s 			page 75


 4219 0100 00000000 		.4byte	.LFB221
 4220 0104 18000000 		.4byte	.LFE221
 4221 0108 00000000 		.4byte	.LFB222
 4222 010c 2C000000 		.4byte	.LFE222
 4223 0110 00000000 		.4byte	.LFB223
 4224 0114 24000000 		.4byte	.LFE223
 4225 0118 00000000 		.4byte	.LFB225
 4226 011c 4C000000 		.4byte	.LFE225
 4227 0120 00000000 		.4byte	.LFB224
 4228 0124 0C000000 		.4byte	.LFE224
 4229 0128 00000000 		.4byte	.LFB227
 4230 012c 58000000 		.4byte	.LFE227
 4231 0130 00000000 		.4byte	.LFB226
 4232 0134 0C000000 		.4byte	.LFE226
 4233 0138 00000000 		.4byte	0
 4234 013c 00000000 		.4byte	0
 4235              		.section	.debug_line,"",%progbits
 4236              	.Ldebug_line0:
 4237 0000 4F040000 		.section	.debug_str,"MS",%progbits,1
 4237      02001702 
 4237      00000201 
 4237      FB0E0D00 
 4237      01010101 
 4238              	.LASF118:
 4239 0000 63665F6F 		.ascii	"cf_off_older\000"
 4239      66665F6F 
 4239      6C646572 
 4239      00
 4240              	.LASF57:
 4241 000d 72656164 		.ascii	"ready_list_t\000"
 4241      795F6C69 
 4241      73745F74 
 4241      00
 4242              	.LASF96:
 4243 001a 77747472 		.ascii	"wttrp\000"
 4243      7000
 4244              	.LASF93:
 4245 0020 7264796D 		.ascii	"rdymsg\000"
 4245      736700
 4246              	.LASF18:
 4247 0027 75696E74 		.ascii	"uint64_t\000"
 4247      36345F74 
 4247      00
 4248              	.LASF4:
 4249 0030 5F5F7569 		.ascii	"__uint8_t\000"
 4249      6E74385F 
 4249      7400
 4250              	.LASF90:
 4251 003a 706F7274 		.ascii	"port_intctx\000"
 4251      5F696E74 
 4251      63747800 
 4252              	.LASF76:
 4253 0046 73797374 		.ascii	"system_debug_t\000"
 4253      656D5F64 
 4253      65627567 
 4253      5F7400
 4254              	.LASF150:
ARM GAS  /tmp/ccX4yBEC.s 			page 76


 4255 0055 71756575 		.ascii	"queue_init\000"
 4255      655F696E 
 4255      697400
 4256              	.LASF163:
 4257 0060 474E5520 		.ascii	"GNU C99 7.3.1 20180622 (release) [ARM/embedded-7-br"
 4257      43393920 
 4257      372E332E 
 4257      31203230 
 4257      31383036 
 4258 0093 616E6368 		.ascii	"anch revision 261907] -mcpu=cortex-m4 -mfloat-abi=h"
 4258      20726576 
 4258      6973696F 
 4258      6E203236 
 4258      31393037 
 4259 00c6 61726420 		.ascii	"ard -mfpu=fpv4-sp-d16 -mno-thumb-interwork -mthumb "
 4259      2D6D6670 
 4259      753D6670 
 4259      76342D73 
 4259      702D6431 
 4260 00f9 2D676764 		.ascii	"-ggdb -O2 -std=gnu99 -fomit-frame-pointer -falign-f"
 4260      62202D4F 
 4260      32202D73 
 4260      74643D67 
 4260      6E753939 
 4261 012c 756E6374 		.ascii	"unctions=16 -ffunction-sections -fdata-sections -fn"
 4261      696F6E73 
 4261      3D313620 
 4261      2D666675 
 4261      6E637469 
 4262 015f 6F2D636F 		.ascii	"o-common -fsingle-precision-constant\000"
 4262      6D6D6F6E 
 4262      202D6673 
 4262      696E676C 
 4262      652D7072 
 4263              	.LASF153:
 4264 0184 706F7274 		.ascii	"port_lock\000"
 4264      5F6C6F63 
 4264      6B00
 4265              	.LASF138:
 4266 018e 6368436F 		.ascii	"chCondBroadcast\000"
 4266      6E644272 
 4266      6F616463 
 4266      61737400 
 4267              	.LASF144:
 4268 019e 6368436F 		.ascii	"chCondBroadcastI\000"
 4268      6E644272 
 4268      6F616463 
 4268      61737449 
 4268      00
 4269              	.LASF13:
 4270 01af 6C6F6E67 		.ascii	"long long unsigned int\000"
 4270      206C6F6E 
 4270      6720756E 
 4270      7369676E 
 4270      65642069 
 4271              	.LASF114:
 4272 01c6 63685F74 		.ascii	"ch_threadsize\000"
ARM GAS  /tmp/ccX4yBEC.s 			page 77


 4272      68726561 
 4272      6473697A 
 4272      6500
 4273              	.LASF94:
 4274 01d4 65786974 		.ascii	"exitcode\000"
 4274      636F6465 
 4274      00
 4275              	.LASF83:
 4276 01dd 6D61696E 		.ascii	"mainthread\000"
 4276      74687265 
 4276      616400
 4277              	.LASF73:
 4278 01e8 76697274 		.ascii	"virtual_timers_list_t\000"
 4278      75616C5F 
 4278      74696D65 
 4278      72735F6C 
 4278      6973745F 
 4279              	.LASF85:
 4280 01fe 49544D5F 		.ascii	"ITM_RxBuffer\000"
 4280      52784275 
 4280      66666572 
 4280      00
 4281              	.LASF56:
 4282 020b 63685F74 		.ascii	"ch_threads_queue\000"
 4282      68726561 
 4282      64735F71 
 4282      75657565 
 4282      00
 4283              	.LASF32:
 4284 021c 705F7072 		.ascii	"p_prio\000"
 4284      696F00
 4285              	.LASF121:
 4286 0223 63665F6F 		.ascii	"cf_off_state\000"
 4286      66665F73 
 4286      74617465 
 4286      00
 4287              	.LASF75:
 4288 0230 76745F73 		.ascii	"vt_systime\000"
 4288      79737469 
 4288      6D6500
 4289              	.LASF11:
 4290 023b 6C6F6E67 		.ascii	"long long int\000"
 4290      206C6F6E 
 4290      6720696E 
 4290      7400
 4291              	.LASF1:
 4292 0249 7369676E 		.ascii	"signed char\000"
 4292      65642063 
 4292      68617200 
 4293              	.LASF131:
 4294 0255 636F6E64 		.ascii	"condition_variable_t\000"
 4294      6974696F 
 4294      6E5F7661 
 4294      72696162 
 4294      6C655F74 
 4295              	.LASF120:
 4296 026a 63665F6F 		.ascii	"cf_off_stklimit\000"
ARM GAS  /tmp/ccX4yBEC.s 			page 78


 4296      66665F73 
 4296      746B6C69 
 4296      6D697400 
 4297              	.LASF122:
 4298 027a 63665F6F 		.ascii	"cf_off_flags\000"
 4298      66665F66 
 4298      6C616773 
 4298      00
 4299              	.LASF49:
 4300 0287 705F6D70 		.ascii	"p_mpool\000"
 4300      6F6F6C00 
 4301              	.LASF104:
 4302 028f 6D5F7175 		.ascii	"m_queue\000"
 4302      65756500 
 4303              	.LASF82:
 4304 0297 76746C69 		.ascii	"vtlist\000"
 4304      737400
 4305              	.LASF152:
 4306 029e 706F7274 		.ascii	"port_unlock\000"
 4306      5F756E6C 
 4306      6F636B00 
 4307              	.LASF23:
 4308 02aa 74736C69 		.ascii	"tslices_t\000"
 4308      6365735F 
 4308      7400
 4309              	.LASF80:
 4310 02b4 63685F73 		.ascii	"ch_system\000"
 4310      79737465 
 4310      6D00
 4311              	.LASF8:
 4312 02be 6C6F6E67 		.ascii	"long int\000"
 4312      20696E74 
 4312      00
 4313              	.LASF135:
 4314 02c7 6368436F 		.ascii	"chCondWaitS\000"
 4314      6E645761 
 4314      69745300 
 4315              	.LASF21:
 4316 02d3 74737461 		.ascii	"tstate_t\000"
 4316      74655F74 
 4316      00
 4317              	.LASF148:
 4318 02dc 71756575 		.ascii	"queue_notempty\000"
 4318      655F6E6F 
 4318      74656D70 
 4318      747900
 4319              	.LASF126:
 4320 02eb 63686465 		.ascii	"chdebug_t\000"
 4320      6275675F 
 4320      7400
 4321              	.LASF34:
 4322 02f5 705F6E65 		.ascii	"p_newer\000"
 4322      77657200 
 4323              	.LASF101:
 4324 02fd 735F7175 		.ascii	"s_queue\000"
 4324      65756500 
 4325              	.LASF161:
ARM GAS  /tmp/ccX4yBEC.s 			page 79


 4326 0305 63685363 		.ascii	"chSchRescheduleS\000"
 4326      68526573 
 4326      63686564 
 4326      756C6553 
 4326      00
 4327              	.LASF22:
 4328 0316 74726566 		.ascii	"trefs_t\000"
 4328      735F7400 
 4329              	.LASF62:
 4330 031e 725F6E65 		.ascii	"r_newer\000"
 4330      77657200 
 4331              	.LASF87:
 4332 0326 72656761 		.ascii	"regarm_t\000"
 4332      726D5F74 
 4332      00
 4333              	.LASF69:
 4334 032f 76745F70 		.ascii	"vt_prev\000"
 4334      72657600 
 4335              	.LASF77:
 4336 0337 63685F73 		.ascii	"ch_system_debug\000"
 4336      79737465 
 4336      6D5F6465 
 4336      62756700 
 4337              	.LASF128:
 4338 0347 6D757465 		.ascii	"mutex_t\000"
 4338      785F7400 
 4339              	.LASF140:
 4340 034f 6368436F 		.ascii	"chCondSignal\000"
 4340      6E645369 
 4340      676E616C 
 4340      00
 4341              	.LASF84:
 4342 035c 69646C65 		.ascii	"idle_thread_wa\000"
 4342      5F746872 
 4342      6561645F 
 4342      776100
 4343              	.LASF27:
 4344 036b 636E745F 		.ascii	"cnt_t\000"
 4344      7400
 4345              	.LASF156:
 4346 0371 63684D74 		.ascii	"chMtxUnlockS\000"
 4346      78556E6C 
 4346      6F636B53 
 4346      00
 4347              	.LASF0:
 4348 037e 756E7369 		.ascii	"unsigned int\000"
 4348      676E6564 
 4348      20696E74 
 4348      00
 4349              	.LASF68:
 4350 038b 76745F6E 		.ascii	"vt_next\000"
 4350      65787400 
 4351              	.LASF15:
 4352 0393 75696E74 		.ascii	"uint16_t\000"
 4352      31365F74 
 4352      00
 4353              	.LASF86:
ARM GAS  /tmp/ccX4yBEC.s 			page 80


 4354 039c 53797374 		.ascii	"SystemCoreClock\000"
 4354      656D436F 
 4354      7265436C 
 4354      6F636B00 
 4355              	.LASF42:
 4356 03ac 705F7469 		.ascii	"p_time\000"
 4356      6D6500
 4357              	.LASF97:
 4358 03b3 77747365 		.ascii	"wtsemp\000"
 4358      6D7000
 4359              	.LASF70:
 4360 03ba 76745F64 		.ascii	"vt_delta\000"
 4360      656C7461 
 4360      00
 4361              	.LASF44:
 4362 03c3 705F6D73 		.ascii	"p_msgqueue\000"
 4362      67717565 
 4362      756500
 4363              	.LASF127:
 4364 03ce 63685F64 		.ascii	"ch_debug\000"
 4364      65627567 
 4364      00
 4365              	.LASF102:
 4366 03d7 735F636E 		.ascii	"s_cnt\000"
 4366      7400
 4367              	.LASF6:
 4368 03dd 73686F72 		.ascii	"short unsigned int\000"
 4368      7420756E 
 4368      7369676E 
 4368      65642069 
 4368      6E7400
 4369              	.LASF53:
 4370 03f0 63685F74 		.ascii	"ch_thread\000"
 4370      68726561 
 4370      6400
 4371              	.LASF162:
 4372 03fa 63685363 		.ascii	"chSchWakeupS\000"
 4372      6857616B 
 4372      65757053 
 4372      00
 4373              	.LASF25:
 4374 0407 6D73675F 		.ascii	"msg_t\000"
 4374      7400
 4375              	.LASF79:
 4376 040d 63685F73 		.ascii	"ch_system_t\000"
 4376      79737465 
 4376      6D5F7400 
 4377              	.LASF125:
 4378 0419 63665F6F 		.ascii	"cf_off_time\000"
 4378      66665F74 
 4378      696D6500 
 4379              	.LASF58:
 4380 0425 63685F72 		.ascii	"ch_ready_list\000"
 4380      65616479 
 4380      5F6C6973 
 4380      7400
 4381              	.LASF26:
ARM GAS  /tmp/ccX4yBEC.s 			page 81


 4382 0433 6576656E 		.ascii	"eventmask_t\000"
 4382      746D6173 
 4382      6B5F7400 
 4383              	.LASF7:
 4384 043f 5F5F696E 		.ascii	"__int32_t\000"
 4384      7433325F 
 4384      7400
 4385              	.LASF88:
 4386 0449 73746B61 		.ascii	"stkalign_t\000"
 4386      6C69676E 
 4386      5F7400
 4387              	.LASF130:
 4388 0454 635F7175 		.ascii	"c_queue\000"
 4388      65756500 
 4389              	.LASF109:
 4390 045c 63685F7A 		.ascii	"ch_zero\000"
 4390      65726F00 
 4391              	.LASF123:
 4392 0464 63665F6F 		.ascii	"cf_off_refs\000"
 4392      66665F72 
 4392      65667300 
 4393              	.LASF43:
 4394 0470 705F7761 		.ascii	"p_waiting\000"
 4394      6974696E 
 4394      6700
 4395              	.LASF164:
 4396 047a 43686962 		.ascii	"ChibiOS_3.0.5/os/rt/src/chcond.c\000"
 4396      694F535F 
 4396      332E302E 
 4396      352F6F73 
 4396      2F72742F 
 4397              	.LASF19:
 4398 049b 7274636E 		.ascii	"rtcnt_t\000"
 4398      745F7400 
 4399              	.LASF74:
 4400 04a3 63685F76 		.ascii	"ch_virtual_timers_list\000"
 4400      69727475 
 4400      616C5F74 
 4400      696D6572 
 4400      735F6C69 
 4401              	.LASF129:
 4402 04ba 636F6E64 		.ascii	"condition_variable\000"
 4402      6974696F 
 4402      6E5F7661 
 4402      72696162 
 4402      6C6500
 4403              	.LASF133:
 4404 04cd 6368436F 		.ascii	"chCondWaitTimeoutS\000"
 4404      6E645761 
 4404      69745469 
 4404      6D656F75 
 4404      745300
 4405              	.LASF113:
 4406 04e0 63685F74 		.ascii	"ch_timesize\000"
 4406      696D6573 
 4406      697A6500 
 4407              	.LASF119:
ARM GAS  /tmp/ccX4yBEC.s 			page 82


 4408 04ec 63665F6F 		.ascii	"cf_off_name\000"
 4408      66665F6E 
 4408      616D6500 
 4409              	.LASF35:
 4410 04f8 705F6F6C 		.ascii	"p_older\000"
 4410      64657200 
 4411              	.LASF61:
 4412 0500 725F6374 		.ascii	"r_ctx\000"
 4412      7800
 4413              	.LASF33:
 4414 0506 705F6374 		.ascii	"p_ctx\000"
 4414      7800
 4415              	.LASF92:
 4416 050c 746D5F63 		.ascii	"tm_calibration_t\000"
 4416      616C6962 
 4416      72617469 
 4416      6F6E5F74 
 4416      00
 4417              	.LASF37:
 4418 051d 705F7374 		.ascii	"p_stklimit\000"
 4418      6B6C696D 
 4418      697400
 4419              	.LASF132:
 4420 0528 74696D65 		.ascii	"time\000"
 4420      00
 4421              	.LASF64:
 4422 052d 725F6375 		.ascii	"r_current\000"
 4422      7272656E 
 4422      7400
 4423              	.LASF63:
 4424 0537 725F6F6C 		.ascii	"r_older\000"
 4424      64657200 
 4425              	.LASF155:
 4426 053f 5F5F656E 		.ascii	"__enable_irq\000"
 4426      61626C65 
 4426      5F697271 
 4426      00
 4427              	.LASF12:
 4428 054c 5F5F7569 		.ascii	"__uint64_t\000"
 4428      6E743634 
 4428      5F7400
 4429              	.LASF154:
 4430 0557 5F5F6469 		.ascii	"__disable_irq\000"
 4430      7361626C 
 4430      655F6972 
 4430      7100
 4431              	.LASF112:
 4432 0565 63685F70 		.ascii	"ch_ptrsize\000"
 4432      74727369 
 4432      7A6500
 4433              	.LASF66:
 4434 0570 76697274 		.ascii	"virtual_timer_t\000"
 4434      75616C5F 
 4434      74696D65 
 4434      725F7400 
 4435              	.LASF31:
 4436 0580 705F7072 		.ascii	"p_prev\000"
ARM GAS  /tmp/ccX4yBEC.s 			page 83


 4436      657600
 4437              	.LASF24:
 4438 0587 74707269 		.ascii	"tprio_t\000"
 4438      6F5F7400 
 4439              	.LASF139:
 4440 058f 6368436F 		.ascii	"chCondSignalI\000"
 4440      6E645369 
 4440      676E616C 
 4440      4900
 4441              	.LASF149:
 4442 059d 5F426F6F 		.ascii	"_Bool\000"
 4442      6C00
 4443              	.LASF16:
 4444 05a3 696E7433 		.ascii	"int32_t\000"
 4444      325F7400 
 4445              	.LASF2:
 4446 05ab 756E7369 		.ascii	"unsigned char\000"
 4446      676E6564 
 4446      20636861 
 4446      7200
 4447              	.LASF47:
 4448 05b9 705F6D74 		.ascii	"p_mtxlist\000"
 4448      786C6973 
 4448      7400
 4449              	.LASF3:
 4450 05c3 73686F72 		.ascii	"short int\000"
 4450      7420696E 
 4450      7400
 4451              	.LASF38:
 4452 05cd 705F7374 		.ascii	"p_state\000"
 4452      61746500 
 4453              	.LASF41:
 4454 05d5 705F7072 		.ascii	"p_preempt\000"
 4454      65656D70 
 4454      7400
 4455              	.LASF60:
 4456 05df 725F7072 		.ascii	"r_prio\000"
 4456      696F00
 4457              	.LASF99:
 4458 05e6 65776D61 		.ascii	"ewmask\000"
 4458      736B00
 4459              	.LASF30:
 4460 05ed 705F6E65 		.ascii	"p_next\000"
 4460      787400
 4461              	.LASF20:
 4462 05f4 746D6F64 		.ascii	"tmode_t\000"
 4462      655F7400 
 4463              	.LASF124:
 4464 05fc 63665F6F 		.ascii	"cf_off_preempt\000"
 4464      66665F70 
 4464      7265656D 
 4464      707400
 4465              	.LASF39:
 4466 060b 705F666C 		.ascii	"p_flags\000"
 4466      61677300 
 4467              	.LASF136:
 4468 0613 5F5F6675 		.ascii	"__func__\000"
ARM GAS  /tmp/ccX4yBEC.s 			page 84


 4468      6E635F5F 
 4468      00
 4469              	.LASF151:
 4470 061c 63685379 		.ascii	"chSysLock\000"
 4470      734C6F63 
 4470      6B00
 4471              	.LASF55:
 4472 0626 74687265 		.ascii	"threads_queue_t\000"
 4472      6164735F 
 4472      71756575 
 4472      655F7400 
 4473              	.LASF67:
 4474 0636 63685F76 		.ascii	"ch_virtual_timer\000"
 4474      69727475 
 4474      616C5F74 
 4474      696D6572 
 4474      00
 4475              	.LASF117:
 4476 0647 63665F6F 		.ascii	"cf_off_newer\000"
 4476      66665F6E 
 4476      65776572 
 4476      00
 4477              	.LASF100:
 4478 0654 63685F73 		.ascii	"ch_semaphore\000"
 4478      656D6170 
 4478      686F7265 
 4478      00
 4479              	.LASF159:
 4480 0661 63685363 		.ascii	"chSchGoSleepS\000"
 4480      68476F53 
 4480      6C656570 
 4480      5300
 4481              	.LASF46:
 4482 066f 705F6570 		.ascii	"p_epending\000"
 4482      656E6469 
 4482      6E6700
 4483              	.LASF165:
 4484 067a 2F626C64 		.ascii	"/bldc\000"
 4484      6300
 4485              	.LASF142:
 4486 0680 63684D74 		.ascii	"chMtxGetNextMutexS\000"
 4486      78476574 
 4486      4E657874 
 4486      4D757465 
 4486      785300
 4487              	.LASF17:
 4488 0693 75696E74 		.ascii	"uint32_t\000"
 4488      33325F74 
 4488      00
 4489              	.LASF115:
 4490 069c 63665F6F 		.ascii	"cf_off_prio\000"
 4490      66665F70 
 4490      72696F00 
 4491              	.LASF59:
 4492 06a8 725F7175 		.ascii	"r_queue\000"
 4492      65756500 
 4493              	.LASF160:
ARM GAS  /tmp/ccX4yBEC.s 			page 85


 4494 06b0 63685363 		.ascii	"chSchReadyI\000"
 4494      68526561 
 4494      64794900 
 4495              	.LASF54:
 4496 06bc 63685F74 		.ascii	"ch_threads_list\000"
 4496      68726561 
 4496      64735F6C 
 4496      69737400 
 4497              	.LASF110:
 4498 06cc 63685F73 		.ascii	"ch_size\000"
 4498      697A6500 
 4499              	.LASF10:
 4500 06d4 6C6F6E67 		.ascii	"long unsigned int\000"
 4500      20756E73 
 4500      69676E65 
 4500      6420696E 
 4500      7400
 4501              	.LASF107:
 4502 06e6 63686172 		.ascii	"char\000"
 4502      00
 4503              	.LASF98:
 4504 06eb 77746D74 		.ascii	"wtmtxp\000"
 4504      787000
 4505              	.LASF5:
 4506 06f2 5F5F7569 		.ascii	"__uint16_t\000"
 4506      6E743136 
 4506      5F7400
 4507              	.LASF141:
 4508 06fd 6368436F 		.ascii	"chCondObjectInit\000"
 4508      6E644F62 
 4508      6A656374 
 4508      496E6974 
 4508      00
 4509              	.LASF147:
 4510 070e 71756575 		.ascii	"queue_fifo_remove\000"
 4510      655F6669 
 4510      666F5F72 
 4510      656D6F76 
 4510      6500
 4511              	.LASF28:
 4512 0720 73797374 		.ascii	"systime_t\000"
 4512      696D655F 
 4512      7400
 4513              	.LASF48:
 4514 072a 705F7265 		.ascii	"p_realprio\000"
 4514      616C7072 
 4514      696F00
 4515              	.LASF65:
 4516 0735 76746675 		.ascii	"vtfunc_t\000"
 4516      6E635F74 
 4516      00
 4517              	.LASF9:
 4518 073e 5F5F7569 		.ascii	"__uint32_t\000"
 4518      6E743332 
 4518      5F7400
 4519              	.LASF78:
 4520 0749 70616E69 		.ascii	"panic_msg\000"
ARM GAS  /tmp/ccX4yBEC.s 			page 86


 4520      635F6D73 
 4520      6700
 4521              	.LASF91:
 4522 0753 6F666673 		.ascii	"offset\000"
 4522      657400
 4523              	.LASF89:
 4524 075a 636F6E74 		.ascii	"context\000"
 4524      65787400 
 4525              	.LASF45:
 4526 0762 705F6D73 		.ascii	"p_msg\000"
 4526      6700
 4527              	.LASF137:
 4528 0768 6368436F 		.ascii	"chCondWait\000"
 4528      6E645761 
 4528      697400
 4529              	.LASF72:
 4530 0773 76745F70 		.ascii	"vt_par\000"
 4530      617200
 4531              	.LASF116:
 4532 077a 63665F6F 		.ascii	"cf_off_ctx\000"
 4532      66665F63 
 4532      747800
 4533              	.LASF103:
 4534 0785 63685F6D 		.ascii	"ch_mutex\000"
 4534      75746578 
 4534      00
 4535              	.LASF40:
 4536 078e 705F7265 		.ascii	"p_refs\000"
 4536      667300
 4537              	.LASF106:
 4538 0795 6D5F6E65 		.ascii	"m_next\000"
 4538      787400
 4539              	.LASF50:
 4540 079c 6D6F746F 		.ascii	"motor_selected\000"
 4540      725F7365 
 4540      6C656374 
 4540      656400
 4541              	.LASF29:
 4542 07ab 74687265 		.ascii	"thread_t\000"
 4542      61645F74 
 4542      00
 4543              	.LASF81:
 4544 07b4 726C6973 		.ascii	"rlist\000"
 4544      7400
 4545              	.LASF143:
 4546 07ba 63685468 		.ascii	"chThdGetSelfX\000"
 4546      64476574 
 4546      53656C66 
 4546      5800
 4547              	.LASF14:
 4548 07c8 75696E74 		.ascii	"uint8_t\000"
 4548      385F7400 
 4549              	.LASF51:
 4550 07d0 74687265 		.ascii	"thread_reference_t\000"
 4550      61645F72 
 4550      65666572 
 4550      656E6365 
ARM GAS  /tmp/ccX4yBEC.s 			page 87


 4550      5F7400
 4551              	.LASF95:
 4552 07e3 77746F62 		.ascii	"wtobjp\000"
 4552      6A7000
 4553              	.LASF36:
 4554 07ea 705F6E61 		.ascii	"p_name\000"
 4554      6D6500
 4555              	.LASF134:
 4556 07f1 6368436F 		.ascii	"chCondWaitTimeout\000"
 4556      6E645761 
 4556      69745469 
 4556      6D656F75 
 4556      7400
 4557              	.LASF52:
 4558 0803 74687265 		.ascii	"threads_list_t\000"
 4558      6164735F 
 4558      6C697374 
 4558      5F7400
 4559              	.LASF157:
 4560 0812 63685363 		.ascii	"chSchGoSleepTimeoutS\000"
 4560      68476F53 
 4560      6C656570 
 4560      54696D65 
 4560      6F757453 
 4561              	.LASF145:
 4562 0827 63685379 		.ascii	"chSysUnlock\000"
 4562      73556E6C 
 4562      6F636B00 
 4563              	.LASF111:
 4564 0833 63685F76 		.ascii	"ch_version\000"
 4564      65727369 
 4564      6F6E00
 4565              	.LASF158:
 4566 083e 63684D74 		.ascii	"chMtxLockS\000"
 4566      784C6F63 
 4566      6B5300
 4567              	.LASF146:
 4568 0849 71756575 		.ascii	"queue_prio_insert\000"
 4568      655F7072 
 4568      696F5F69 
 4568      6E736572 
 4568      7400
 4569              	.LASF105:
 4570 085b 6D5F6F77 		.ascii	"m_owner\000"
 4570      6E657200 
 4571              	.LASF108:
 4572 0863 63685F69 		.ascii	"ch_identifier\000"
 4572      64656E74 
 4572      69666965 
 4572      7200
 4573              	.LASF71:
 4574 0871 76745F66 		.ascii	"vt_func\000"
 4574      756E6300 
 4575              		.ident	"GCC: (GNU Tools for Arm Embedded Processors 7-2018-q3-update) 7.3.1 20180622 (release) [AR
ARM GAS  /tmp/ccX4yBEC.s 			page 88


DEFINED SYMBOLS
                            *ABS*:0000000000000000 chcond.c
     /tmp/ccX4yBEC.s:18     .text.chCondObjectInit:0000000000000000 $t
     /tmp/ccX4yBEC.s:26     .text.chCondObjectInit:0000000000000000 chCondObjectInit
     /tmp/ccX4yBEC.s:49     .text.chCondSignal:0000000000000000 $t
     /tmp/ccX4yBEC.s:57     .text.chCondSignal:0000000000000000 chCondSignal
     /tmp/ccX4yBEC.s:165    .text.chCondSignalI:0000000000000000 $t
     /tmp/ccX4yBEC.s:173    .text.chCondSignalI:0000000000000000 chCondSignalI
     /tmp/ccX4yBEC.s:225    .text.chCondBroadcast:0000000000000000 $t
     /tmp/ccX4yBEC.s:233    .text.chCondBroadcast:0000000000000000 chCondBroadcast
     /tmp/ccX4yBEC.s:339    .text.chCondBroadcastI:0000000000000000 $t
     /tmp/ccX4yBEC.s:347    .text.chCondBroadcastI:0000000000000000 chCondBroadcastI
     /tmp/ccX4yBEC.s:413    .text.chCondWaitS:0000000000000000 $t
     /tmp/ccX4yBEC.s:421    .text.chCondWaitS:0000000000000000 chCondWaitS
     /tmp/ccX4yBEC.s:521    .text.chCondWaitS:0000000000000048 $d
     /tmp/ccX4yBEC.s:528    .text.chCondWait:0000000000000000 $t
     /tmp/ccX4yBEC.s:536    .text.chCondWait:0000000000000000 chCondWait
     /tmp/ccX4yBEC.s:588    .text.chCondWaitTimeoutS:0000000000000000 $t
     /tmp/ccX4yBEC.s:596    .text.chCondWaitTimeoutS:0000000000000000 chCondWaitTimeoutS
     /tmp/ccX4yBEC.s:717    .text.chCondWaitTimeoutS:0000000000000054 $d
     /tmp/ccX4yBEC.s:724    .text.chCondWaitTimeout:0000000000000000 $t
     /tmp/ccX4yBEC.s:732    .text.chCondWaitTimeout:0000000000000000 chCondWaitTimeout

UNDEFINED SYMBOLS
chSchWakeupS
chSchReadyI
chSchRescheduleS
chMtxUnlockS
chSchGoSleepS
chMtxLockS
ch
chSchGoSleepTimeoutS
