ARM GAS  /tmp/ccIvQYkT.s 			page 1


   1              		.cpu cortex-m4
   2              		.eabi_attribute 27, 1
   3              		.eabi_attribute 28, 1
   4              		.eabi_attribute 20, 1
   5              		.eabi_attribute 21, 1
   6              		.eabi_attribute 23, 3
   7              		.eabi_attribute 24, 1
   8              		.eabi_attribute 25, 1
   9              		.eabi_attribute 26, 1
  10              		.eabi_attribute 30, 2
  11              		.eabi_attribute 34, 1
  12              		.eabi_attribute 18, 4
  13              		.file	"chdynamic.c"
  14              		.text
  15              	.Ltext0:
  16              		.cfi_sections	.debug_frame
  17              		.section	.text.chThdAddRef,"ax",%progbits
  18              		.align	1
  19              		.p2align 4,,15
  20              		.global	chThdAddRef
  21              		.syntax unified
  22              		.thumb
  23              		.thumb_func
  24              		.fpu fpv4-sp-d16
  25              		.type	chThdAddRef, %function
  26              	chThdAddRef:
  27              	.LFB219:
  28              		.file 1 "ChibiOS_3.0.5/os/rt/src/chdynamic.c"
  29              		.loc 1 68 0
  30              		.cfi_startproc
  31              		@ args = 0, pretend = 0, frame = 0
  32              		@ frame_needed = 0, uses_anonymous_args = 0
  33              		@ link register save eliminated.
  34              	.LVL0:
  35              	.LBB54:
  36              	.LBB55:
  37              	.LBB56:
  38              	.LBB57:
  39              		.file 2 "ChibiOS_3.0.5/os/ext/CMSIS/include/core_cmFunc.h"
  40              		.loc 2 342 0
  41              		.syntax unified
  42              	@ 342 "ChibiOS_3.0.5/os/ext/CMSIS/include/core_cmFunc.h" 1
  43 0000 72B6     		cpsid i
  44              	@ 0 "" 2
  45              		.thumb
  46              		.syntax unified
  47              	.LBE57:
  48              	.LBE56:
  49              	.LBE55:
  50              	.LBE54:
  51              		.loc 1 72 0
  52 0002 90F82230 		ldrb	r3, [r0, #34]	@ zero_extendqisi2
  53 0006 0133     		adds	r3, r3, #1
  54 0008 80F82230 		strb	r3, [r0, #34]
  55              	.LBB58:
  56              	.LBB59:
  57              	.LBB60:
ARM GAS  /tmp/ccIvQYkT.s 			page 2


  58              	.LBB61:
  59              	.LBB62:
  60              		.loc 2 331 0
  61              		.syntax unified
  62              	@ 331 "ChibiOS_3.0.5/os/ext/CMSIS/include/core_cmFunc.h" 1
  63 000c 62B6     		cpsie i
  64              	@ 0 "" 2
  65              		.thumb
  66              		.syntax unified
  67              	.LBE62:
  68              	.LBE61:
  69              	.LBE60:
  70              	.LBE59:
  71              	.LBE58:
  72              		.loc 1 76 0
  73 000e 7047     		bx	lr
  74              		.cfi_endproc
  75              	.LFE219:
  76              		.size	chThdAddRef, .-chThdAddRef
  77              		.section	.text.chThdRelease,"ax",%progbits
  78              		.align	1
  79              		.p2align 4,,15
  80              		.global	chThdRelease
  81              		.syntax unified
  82              		.thumb
  83              		.thumb_func
  84              		.fpu fpv4-sp-d16
  85              		.type	chThdRelease, %function
  86              	chThdRelease:
  87              	.LFB220:
  88              		.loc 1 91 0
  89              		.cfi_startproc
  90              		@ args = 0, pretend = 0, frame = 0
  91              		@ frame_needed = 0, uses_anonymous_args = 0
  92              		@ link register save eliminated.
  93              	.LVL1:
  94              		.loc 1 91 0
  95 0000 0146     		mov	r1, r0
  96              	.LBB63:
  97              	.LBB64:
  98              	.LBB65:
  99              	.LBB66:
 100              		.loc 2 342 0
 101              		.syntax unified
 102              	@ 342 "ChibiOS_3.0.5/os/ext/CMSIS/include/core_cmFunc.h" 1
 103 0002 72B6     		cpsid i
 104              	@ 0 "" 2
 105              		.thumb
 106              		.syntax unified
 107              	.LBE66:
 108              	.LBE65:
 109              	.LBE64:
 110              	.LBE63:
 111              		.loc 1 96 0
 112 0004 90F82230 		ldrb	r3, [r0, #34]	@ zero_extendqisi2
 113 0008 013B     		subs	r3, r3, #1
 114 000a DBB2     		uxtb	r3, r3
ARM GAS  /tmp/ccIvQYkT.s 			page 3


 115 000c 80F82230 		strb	r3, [r0, #34]
 116              	.LVL2:
 117              	.LBB67:
 118              	.LBB68:
 119              	.LBB69:
 120              	.LBB70:
 121              	.LBB71:
 122              		.loc 2 331 0
 123              		.syntax unified
 124              	@ 331 "ChibiOS_3.0.5/os/ext/CMSIS/include/core_cmFunc.h" 1
 125 0010 62B6     		cpsie i
 126              	@ 0 "" 2
 127              		.thumb
 128              		.syntax unified
 129              	.LBE71:
 130              	.LBE70:
 131              	.LBE69:
 132              	.LBE68:
 133              	.LBE67:
 134              		.loc 1 103 0
 135 0012 1BB9     		cbnz	r3, .L3
 136              		.loc 1 103 0 is_stmt 0 discriminator 1
 137 0014 90F82030 		ldrb	r3, [r0, #32]	@ zero_extendqisi2
 138              	.LVL3:
 139 0018 0F2B     		cmp	r3, #15
 140 001a 00D0     		beq	.L7
 141              	.L3:
 142              		.loc 1 127 0 is_stmt 1
 143 001c 7047     		bx	lr
 144              	.L7:
 145              		.loc 1 104 0
 146 001e 90F82130 		ldrb	r3, [r0, #33]	@ zero_extendqisi2
 147 0022 03F00303 		and	r3, r3, #3
 148 0026 012B     		cmp	r3, #1
 149 0028 02D0     		beq	.L5
 150 002a 022B     		cmp	r3, #2
 151 002c 07D0     		beq	.L6
 152 002e 7047     		bx	lr
 153              	.L5:
 154              		.loc 1 108 0
 155 0030 D0E90423 		ldrd	r2, r3, [r0, #16]
 156 0034 1A61     		str	r2, [r3, #16]
 157              	.LVL4:
 158 0036 0269     		ldr	r2, [r0, #16]
 159 0038 5361     		str	r3, [r2, #20]
 160              		.loc 1 110 0
 161 003a FFF7FEBF 		b	chHeapFree
 162              	.LVL5:
 163              	.L6:
 164              		.loc 1 116 0
 165 003e D0E90423 		ldrd	r2, r3, [r0, #16]
 166 0042 1A61     		str	r2, [r3, #16]
 167              	.LVL6:
 168 0044 0269     		ldr	r2, [r0, #16]
 169              		.loc 1 118 0
 170 0046 806C     		ldr	r0, [r0, #72]
 171              	.LVL7:
ARM GAS  /tmp/ccIvQYkT.s 			page 4


 172              		.loc 1 116 0
 173 0048 5361     		str	r3, [r2, #20]
 174              		.loc 1 118 0
 175 004a FFF7FEBF 		b	chPoolFree
 176              	.LVL8:
 177              		.cfi_endproc
 178              	.LFE220:
 179              		.size	chThdRelease, .-chThdRelease
 180 004e 00BF     		.section	.text.chThdCreateFromHeap,"ax",%progbits
 181              		.align	1
 182              		.p2align 4,,15
 183              		.global	chThdCreateFromHeap
 184              		.syntax unified
 185              		.thumb
 186              		.thumb_func
 187              		.fpu fpv4-sp-d16
 188              		.type	chThdCreateFromHeap, %function
 189              	chThdCreateFromHeap:
 190              	.LFB221:
 191              		.loc 1 153 0
 192              		.cfi_startproc
 193              		@ args = 4, pretend = 0, frame = 0
 194              		@ frame_needed = 0, uses_anonymous_args = 0
 195              	.LVL9:
 196 0000 2DE9F041 		push	{r4, r5, r6, r7, r8, lr}
 197              		.cfi_def_cfa_offset 24
 198              		.cfi_offset 4, -24
 199              		.cfi_offset 5, -20
 200              		.cfi_offset 6, -16
 201              		.cfi_offset 7, -12
 202              		.cfi_offset 8, -8
 203              		.cfi_offset 14, -4
 204 0004 82B0     		sub	sp, sp, #8
 205              		.cfi_def_cfa_offset 32
 206              		.loc 1 153 0
 207 0006 1746     		mov	r7, r2
 208 0008 9846     		mov	r8, r3
 209 000a 0D46     		mov	r5, r1
 210              		.loc 1 157 0
 211 000c FFF7FEFF 		bl	chHeapAlloc
 212              	.LVL10:
 213              		.loc 1 158 0
 214 0010 0446     		mov	r4, r0
 215 0012 D8B1     		cbz	r0, .L8
 216              		.loc 1 163 0
 217 0014 00F15006 		add	r6, r0, #80
 218 0018 3146     		mov	r1, r6
 219 001a FF22     		movs	r2, #255
 220 001c FFF7FEFF 		bl	_thread_memfill
 221              	.LVL11:
 222              		.loc 1 166 0
 223 0020 3046     		mov	r0, r6
 224 0022 5522     		movs	r2, #85
 225 0024 6119     		adds	r1, r4, r5
 226 0026 FFF7FEFF 		bl	_thread_memfill
 227              	.LVL12:
 228              	.LBB72:
ARM GAS  /tmp/ccIvQYkT.s 			page 5


 229              	.LBB73:
 230              	.LBB74:
 231              	.LBB75:
 232              		.loc 2 342 0
 233              		.syntax unified
 234              	@ 342 "ChibiOS_3.0.5/os/ext/CMSIS/include/core_cmFunc.h" 1
 235 002a 72B6     		cpsid i
 236              	@ 0 "" 2
 237              		.thumb
 238              		.syntax unified
 239              	.LBE75:
 240              	.LBE74:
 241              	.LBE73:
 242              	.LBE72:
 243              		.loc 1 172 0
 244 002c 089B     		ldr	r3, [sp, #32]
 245 002e 0093     		str	r3, [sp]
 246 0030 3A46     		mov	r2, r7
 247 0032 4346     		mov	r3, r8
 248 0034 2946     		mov	r1, r5
 249 0036 2046     		mov	r0, r4
 250 0038 FFF7FEFF 		bl	chThdCreateI
 251              	.LVL13:
 252              		.loc 1 173 0
 253 003c 0123     		movs	r3, #1
 254 003e 80F82130 		strb	r3, [r0, #33]
 255              		.loc 1 174 0
 256 0042 0021     		movs	r1, #0
 257              		.loc 1 172 0
 258 0044 0446     		mov	r4, r0
 259              	.LVL14:
 260              		.loc 1 174 0
 261 0046 FFF7FEFF 		bl	chSchWakeupS
 262              	.LVL15:
 263              	.LBB76:
 264              	.LBB77:
 265              	.LBB78:
 266              	.LBB79:
 267              	.LBB80:
 268              		.loc 2 331 0
 269              		.syntax unified
 270              	@ 331 "ChibiOS_3.0.5/os/ext/CMSIS/include/core_cmFunc.h" 1
 271 004a 62B6     		cpsie i
 272              	@ 0 "" 2
 273              	.LVL16:
 274              		.thumb
 275              		.syntax unified
 276              	.L8:
 277              	.LBE80:
 278              	.LBE79:
 279              	.LBE78:
 280              	.LBE77:
 281              	.LBE76:
 282              		.loc 1 178 0
 283 004c 2046     		mov	r0, r4
 284 004e 02B0     		add	sp, sp, #8
 285              		.cfi_def_cfa_offset 24
ARM GAS  /tmp/ccIvQYkT.s 			page 6


 286              		@ sp needed
 287 0050 BDE8F081 		pop	{r4, r5, r6, r7, r8, pc}
 288              		.cfi_endproc
 289              	.LFE221:
 290              		.size	chThdCreateFromHeap, .-chThdCreateFromHeap
 291              		.section	.text.chThdCreateFromMemoryPool,"ax",%progbits
 292              		.align	1
 293              		.p2align 4,,15
 294              		.global	chThdCreateFromMemoryPool
 295              		.syntax unified
 296              		.thumb
 297              		.thumb_func
 298              		.fpu fpv4-sp-d16
 299              		.type	chThdCreateFromMemoryPool, %function
 300              	chThdCreateFromMemoryPool:
 301              	.LFB222:
 302              		.loc 1 205 0
 303              		.cfi_startproc
 304              		@ args = 0, pretend = 0, frame = 0
 305              		@ frame_needed = 0, uses_anonymous_args = 0
 306              	.LVL17:
 307 0000 2DE9F043 		push	{r4, r5, r6, r7, r8, r9, lr}
 308              		.cfi_def_cfa_offset 28
 309              		.cfi_offset 4, -28
 310              		.cfi_offset 5, -24
 311              		.cfi_offset 6, -20
 312              		.cfi_offset 7, -16
 313              		.cfi_offset 8, -12
 314              		.cfi_offset 9, -8
 315              		.cfi_offset 14, -4
 316 0004 83B0     		sub	sp, sp, #12
 317              		.cfi_def_cfa_offset 40
 318              		.loc 1 205 0
 319 0006 0F46     		mov	r7, r1
 320 0008 9046     		mov	r8, r2
 321 000a 9946     		mov	r9, r3
 322 000c 0546     		mov	r5, r0
 323              		.loc 1 211 0
 324 000e FFF7FEFF 		bl	chPoolAlloc
 325              	.LVL18:
 326              		.loc 1 212 0
 327 0012 0446     		mov	r4, r0
 328 0014 E8B1     		cbz	r0, .L12
 329              		.loc 1 217 0
 330 0016 00F15006 		add	r6, r0, #80
 331 001a 3146     		mov	r1, r6
 332 001c FF22     		movs	r2, #255
 333 001e FFF7FEFF 		bl	_thread_memfill
 334              	.LVL19:
 335              		.loc 1 220 0
 336 0022 6968     		ldr	r1, [r5, #4]
 337 0024 3046     		mov	r0, r6
 338 0026 2144     		add	r1, r1, r4
 339 0028 5522     		movs	r2, #85
 340 002a FFF7FEFF 		bl	_thread_memfill
 341              	.LVL20:
 342              	.LBB81:
ARM GAS  /tmp/ccIvQYkT.s 			page 7


 343              	.LBB82:
 344              	.LBB83:
 345              	.LBB84:
 346              		.loc 2 342 0
 347              		.syntax unified
 348              	@ 342 "ChibiOS_3.0.5/os/ext/CMSIS/include/core_cmFunc.h" 1
 349 002e 72B6     		cpsid i
 350              	@ 0 "" 2
 351              		.thumb
 352              		.syntax unified
 353              	.LBE84:
 354              	.LBE83:
 355              	.LBE82:
 356              	.LBE81:
 357              		.loc 1 226 0
 358 0030 6968     		ldr	r1, [r5, #4]
 359 0032 CDF80090 		str	r9, [sp]
 360 0036 4346     		mov	r3, r8
 361 0038 3A46     		mov	r2, r7
 362 003a 2046     		mov	r0, r4
 363 003c FFF7FEFF 		bl	chThdCreateI
 364              	.LVL21:
 365              		.loc 1 227 0
 366 0040 0223     		movs	r3, #2
 367              		.loc 1 228 0
 368 0042 8564     		str	r5, [r0, #72]
 369              		.loc 1 227 0
 370 0044 80F82130 		strb	r3, [r0, #33]
 371              		.loc 1 229 0
 372 0048 0021     		movs	r1, #0
 373              		.loc 1 226 0
 374 004a 0446     		mov	r4, r0
 375              	.LVL22:
 376              		.loc 1 229 0
 377 004c FFF7FEFF 		bl	chSchWakeupS
 378              	.LVL23:
 379              	.LBB85:
 380              	.LBB86:
 381              	.LBB87:
 382              	.LBB88:
 383              	.LBB89:
 384              		.loc 2 331 0
 385              		.syntax unified
 386              	@ 331 "ChibiOS_3.0.5/os/ext/CMSIS/include/core_cmFunc.h" 1
 387 0050 62B6     		cpsie i
 388              	@ 0 "" 2
 389              	.LVL24:
 390              		.thumb
 391              		.syntax unified
 392              	.L12:
 393              	.LBE89:
 394              	.LBE88:
 395              	.LBE87:
 396              	.LBE86:
 397              	.LBE85:
 398              		.loc 1 233 0
 399 0052 2046     		mov	r0, r4
ARM GAS  /tmp/ccIvQYkT.s 			page 8


 400 0054 03B0     		add	sp, sp, #12
 401              		.cfi_def_cfa_offset 28
 402              		@ sp needed
 403 0056 BDE8F083 		pop	{r4, r5, r6, r7, r8, r9, pc}
 404              		.cfi_endproc
 405              	.LFE222:
 406              		.size	chThdCreateFromMemoryPool, .-chThdCreateFromMemoryPool
 407 005a 00BF     		.text
 408              	.Letext0:
 409              		.file 3 "/usr/lib/gcc/arm-none-eabi/7.3.1/include/stddef.h"
 410              		.file 4 "/usr/arm-none-eabi/include/machine/_default_types.h"
 411              		.file 5 "/usr/arm-none-eabi/include/sys/_stdint.h"
 412              		.file 6 "ChibiOS_3.0.5/os/rt/ports/ARMCMx/compilers/GCC/chtypes.h"
 413              		.file 7 "ChibiOS_3.0.5/os/rt/include/chsystypes.h"
 414              		.file 8 "ChibiOS_3.0.5/os/rt/include/chschd.h"
 415              		.file 9 "ChibiOS_3.0.5/os/ext/CMSIS/include/core_cm4.h"
 416              		.file 10 "ChibiOS_3.0.5/os/ext/CMSIS/ST/system_stm32f4xx.h"
 417              		.file 11 "ChibiOS_3.0.5/os/rt/ports/ARMCMx/chcore.h"
 418              		.file 12 "ChibiOS_3.0.5/os/rt/ports/ARMCMx/chcore_v7m.h"
 419              		.file 13 "ChibiOS_3.0.5/os/rt/include/chtm.h"
 420              		.file 14 "ChibiOS_3.0.5/os/rt/include/chsem.h"
 421              		.file 15 "ChibiOS_3.0.5/os/rt/include/chmtx.h"
 422              		.file 16 "ChibiOS_3.0.5/os/rt/include/chthreads.h"
 423              		.file 17 "ChibiOS_3.0.5/os/rt/include/chregistry.h"
 424              		.file 18 "ChibiOS_3.0.5/os/rt/include/chmemcore.h"
 425              		.file 19 "ChibiOS_3.0.5/os/rt/include/chheap.h"
 426              		.file 20 "ChibiOS_3.0.5/os/rt/include/chmempools.h"
 427              		.file 21 "ChibiOS_3.0.5/os/rt/include/chsys.h"