ARM GAS  /tmp/ccIvQYkT.s 			page 1


   1              		.cpu cortex-m4
   2              		.eabi_attribute 27, 1
   3              		.eabi_attribute 28, 1
   4              		.eabi_attribute 20, 1
   5              		.eabi_attribute 21, 1
   6              		.eabi_attribute 23, 3
   7              		.eabi_attribute 24, 1
   8              		.eabi_attribute 25, 1
   9              		.eabi_attribute 26, 1
  10              		.eabi_attribute 30, 2
  11              		.eabi_attribute 34, 1
  12              		.eabi_attribute 18, 4
  13              		.file	"chdynamic.c"
  14              		.text
  15              	.Ltext0:
  16              		.cfi_sections	.debug_frame
  17              		.section	.text.chThdAddRef,"ax",%progbits
  18              		.align	1
  19              		.p2align 4,,15
  20              		.global	chThdAddRef
  21              		.syntax unified
  22              		.thumb
  23              		.thumb_func
  24              		.fpu fpv4-sp-d16
  25              		.type	chThdAddRef, %function
  26              	chThdAddRef:
  27              	.LFB219:
  28              		.file 1 "ChibiOS_3.0.5/os/rt/src/chdynamic.c"
  29              		.loc 1 68 0
  30              		.cfi_startproc
  31              		@ args = 0, pretend = 0, frame = 0
  32              		@ frame_needed = 0, uses_anonymous_args = 0
  33              		@ link register save eliminated.
  34              	.LVL0:
  35              	.LBB54:
  36              	.LBB55:
  37              	.LBB56:
  38              	.LBB57:
  39              		.file 2 "ChibiOS_3.0.5/os/ext/CMSIS/include/core_cmFunc.h"
  40              		.loc 2 342 0
  41              		.syntax unified
  42              	@ 342 "ChibiOS_3.0.5/os/ext/CMSIS/include/core_cmFunc.h" 1
  43 0000 72B6     		cpsid i
  44              	@ 0 "" 2
  45              		.thumb
  46              		.syntax unified
  47              	.LBE57:
  48              	.LBE56:
  49              	.LBE55:
  50              	.LBE54:
  51              		.loc 1 72 0
  52 0002 90F82230 		ldrb	r3, [r0, #34]	@ zero_extendqisi2
  53 0006 0133     		adds	r3, r3, #1
  54 0008 80F82230 		strb	r3, [r0, #34]
  55              	.LBB58:
  56              	.LBB59:
  57              	.LBB60:
ARM GAS  /tmp/ccIvQYkT.s 			page 2


  58              	.LBB61:
  59              	.LBB62:
  60              		.loc 2 331 0
  61              		.syntax unified
  62              	@ 331 "ChibiOS_3.0.5/os/ext/CMSIS/include/core_cmFunc.h" 1
  63 000c 62B6     		cpsie i
  64              	@ 0 "" 2
  65              		.thumb
  66              		.syntax unified
  67              	.LBE62:
  68              	.LBE61:
  69              	.LBE60:
  70              	.LBE59:
  71              	.LBE58:
  72              		.loc 1 76 0
  73 000e 7047     		bx	lr
  74              		.cfi_endproc
  75              	.LFE219:
  76              		.size	chThdAddRef, .-chThdAddRef
  77              		.section	.text.chThdRelease,"ax",%progbits
  78              		.align	1
  79              		.p2align 4,,15
  80              		.global	chThdRelease
  81              		.syntax unified
  82              		.thumb
  83              		.thumb_func
  84              		.fpu fpv4-sp-d16
  85              		.type	chThdRelease, %function
  86              	chThdRelease:
  87              	.LFB220:
  88              		.loc 1 91 0
  89              		.cfi_startproc
  90              		@ args = 0, pretend = 0, frame = 0
  91              		@ frame_needed = 0, uses_anonymous_args = 0
  92              		@ link register save eliminated.
  93              	.LVL1:
  94              		.loc 1 91 0
  95 0000 0146     		mov	r1, r0
  96              	.LBB63:
  97              	.LBB64:
  98              	.LBB65:
  99              	.LBB66:
 100              		.loc 2 342 0
 101              		.syntax unified
 102              	@ 342 "ChibiOS_3.0.5/os/ext/CMSIS/include/core_cmFunc.h" 1
 103 0002 72B6     		cpsid i
 104              	@ 0 "" 2
 105              		.thumb
 106              		.syntax unified
 107              	.LBE66:
 108              	.LBE65:
 109              	.LBE64:
 110              	.LBE63:
 111              		.loc 1 96 0
 112 0004 90F82230 		ldrb	r3, [r0, #34]	@ zero_extendqisi2
 113 0008 013B     		subs	r3, r3, #1
 114 000a DBB2     		uxtb	r3, r3
ARM GAS  /tmp/ccIvQYkT.s 			page 3


 115 000c 80F82230 		strb	r3, [r0, #34]
 116              	.LVL2:
 117              	.LBB67:
 118              	.LBB68:
 119              	.LBB69:
 120              	.LBB70:
 121              	.LBB71:
 122              		.loc 2 331 0
 123              		.syntax unified
 124              	@ 331 "ChibiOS_3.0.5/os/ext/CMSIS/include/core_cmFunc.h" 1
 125 0010 62B6     		cpsie i
 126              	@ 0 "" 2
 127              		.thumb
 128              		.syntax unified
 129              	.LBE71:
 130              	.LBE70:
 131              	.LBE69:
 132              	.LBE68:
 133              	.LBE67:
 134              		.loc 1 103 0
 135 0012 1BB9     		cbnz	r3, .L3
 136              		.loc 1 103 0 is_stmt 0 discriminator 1
 137 0014 90F82030 		ldrb	r3, [r0, #32]	@ zero_extendqisi2
 138              	.LVL3:
 139 0018 0F2B     		cmp	r3, #15
 140 001a 00D0     		beq	.L7
 141              	.L3:
 142              		.loc 1 127 0 is_stmt 1
 143 001c 7047     		bx	lr
 144              	.L7:
 145              		.loc 1 104 0
 146 001e 90F82130 		ldrb	r3, [r0, #33]	@ zero_extendqisi2
 147 0022 03F00303 		and	r3, r3, #3
 148 0026 012B     		cmp	r3, #1
 149 0028 02D0     		beq	.L5
 150 002a 022B     		cmp	r3, #2
 151 002c 07D0     		beq	.L6
 152 002e 7047     		bx	lr
 153              	.L5:
 154              		.loc 1 108 0
 155 0030 D0E90423 		ldrd	r2, r3, [r0, #16]
 156 0034 1A61     		str	r2, [r3, #16]
 157              	.LVL4:
 158 0036 0269     		ldr	r2, [r0, #16]
 159 0038 5361     		str	r3, [r2, #20]
 160              		.loc 1 110 0
 161 003a FFF7FEBF 		b	chHeapFree
 162              	.LVL5:
 163              	.L6:
 164              		.loc 1 116 0
 165 003e D0E90423 		ldrd	r2, r3, [r0, #16]
 166 0042 1A61     		str	r2, [r3, #16]
 167              	.LVL6:
 168 0044 0269     		ldr	r2, [r0, #16]
 169              		.loc 1 118 0
 170 0046 806C     		ldr	r0, [r0, #72]
 171              	.LVL7:
ARM GAS  /tmp/ccIvQYkT.s 			page 4


 172              		.loc 1 116 0
 173 0048 5361     		str	r3, [r2, #20]
 174              		.loc 1 118 0
 175 004a FFF7FEBF 		b	chPoolFree
 176              	.LVL8:
 177              		.cfi_endproc
 178              	.LFE220:
 179              		.size	chThdRelease, .-chThdRelease
 180 004e 00BF     		.section	.text.chThdCreateFromHeap,"ax",%progbits
 181              		.align	1
 182              		.p2align 4,,15
 183              		.global	chThdCreateFromHeap
 184              		.syntax unified
 185              		.thumb
 186              		.thumb_func
 187              		.fpu fpv4-sp-d16
 188              		.type	chThdCreateFromHeap, %function
 189              	chThdCreateFromHeap:
 190              	.LFB221:
 191              		.loc 1 153 0
 192              		.cfi_startproc
 193              		@ args = 4, pretend = 0, frame = 0
 194              		@ frame_needed = 0, uses_anonymous_args = 0
 195              	.LVL9:
 196 0000 2DE9F041 		push	{r4, r5, r6, r7, r8, lr}
 197              		.cfi_def_cfa_offset 24
 198              		.cfi_offset 4, -24
 199              		.cfi_offset 5, -20
 200              		.cfi_offset 6, -16
 201              		.cfi_offset 7, -12
 202              		.cfi_offset 8, -8
 203              		.cfi_offset 14, -4
 204 0004 82B0     		sub	sp, sp, #8
 205              		.cfi_def_cfa_offset 32
 206              		.loc 1 153 0
 207 0006 1746     		mov	r7, r2
 208 0008 9846     		mov	r8, r3
 209 000a 0D46     		mov	r5, r1
 210              		.loc 1 157 0
 211 000c FFF7FEFF 		bl	chHeapAlloc
 212              	.LVL10:
 213              		.loc 1 158 0
 214 0010 0446     		mov	r4, r0
 215 0012 D8B1     		cbz	r0, .L8
 216              		.loc 1 163 0
 217 0014 00F15006 		add	r6, r0, #80
 218 0018 3146     		mov	r1, r6
 219 001a FF22     		movs	r2, #255
 220 001c FFF7FEFF 		bl	_thread_memfill
 221              	.LVL11:
 222              		.loc 1 166 0
 223 0020 3046     		mov	r0, r6
 224 0022 5522     		movs	r2, #85
 225 0024 6119     		adds	r1, r4, r5
 226 0026 FFF7FEFF 		bl	_thread_memfill
 227              	.LVL12:
 228              	.LBB72:
ARM GAS  /tmp/ccIvQYkT.s 			page 5


 229              	.LBB73:
 230              	.LBB74:
 231              	.LBB75:
 232              		.loc 2 342 0
 233              		.syntax unified
 234              	@ 342 "ChibiOS_3.0.5/os/ext/CMSIS/include/core_cmFunc.h" 1
 235 002a 72B6     		cpsid i
 236              	@ 0 "" 2
 237              		.thumb
 238              		.syntax unified
 239              	.LBE75:
 240              	.LBE74:
 241              	.LBE73:
 242              	.LBE72:
 243              		.loc 1 172 0
 244 002c 089B     		ldr	r3, [sp, #32]
 245 002e 0093     		str	r3, [sp]
 246 0030 3A46     		mov	r2, r7
 247 0032 4346     		mov	r3, r8
 248 0034 2946     		mov	r1, r5
 249 0036 2046     		mov	r0, r4
 250 0038 FFF7FEFF 		bl	chThdCreateI
 251              	.LVL13:
 252              		.loc 1 173 0
 253 003c 0123     		movs	r3, #1
 254 003e 80F82130 		strb	r3, [r0, #33]
 255              		.loc 1 174 0
 256 0042 0021     		movs	r1, #0
 257              		.loc 1 172 0
 258 0044 0446     		mov	r4, r0
 259              	.LVL14:
 260              		.loc 1 174 0
 261 0046 FFF7FEFF 		bl	chSchWakeupS
 262              	.LVL15:
 263              	.LBB76:
 264              	.LBB77:
 265              	.LBB78:
 266              	.LBB79:
 267              	.LBB80:
 268              		.loc 2 331 0
 269              		.syntax unified
 270              	@ 331 "ChibiOS_3.0.5/os/ext/CMSIS/include/core_cmFunc.h" 1
 271 004a 62B6     		cpsie i
 272              	@ 0 "" 2
 273              	.LVL16:
 274              		.thumb
 275              		.syntax unified
 276              	.L8:
 277              	.LBE80:
 278              	.LBE79:
 279              	.LBE78:
 280              	.LBE77:
 281              	.LBE76:
 282              		.loc 1 178 0
 283 004c 2046     		mov	r0, r4
 284 004e 02B0     		add	sp, sp, #8
 285              		.cfi_def_cfa_offset 24
ARM GAS  /tmp/ccIvQYkT.s 			page 6


 286              		@ sp needed
 287 0050 BDE8F081 		pop	{r4, r5, r6, r7, r8, pc}
 288              		.cfi_endproc
 289              	.LFE221:
 290              		.size	chThdCreateFromHeap, .-chThdCreateFromHeap
 291              		.section	.text.chThdCreateFromMemoryPool,"ax",%progbits
 292              		.align	1
 293              		.p2align 4,,15
 294              		.global	chThdCreateFromMemoryPool
 295              		.syntax unified
 296              		.thumb
 297              		.thumb_func
 298              		.fpu fpv4-sp-d16
 299              		.type	chThdCreateFromMemoryPool, %function
 300              	chThdCreateFromMemoryPool:
 301              	.LFB222:
 302              		.loc 1 205 0
 303              		.cfi_startproc
 304              		@ args = 0, pretend = 0, frame = 0
 305              		@ frame_needed = 0, uses_anonymous_args = 0
 306              	.LVL17:
 307 0000 2DE9F043 		push	{r4, r5, r6, r7, r8, r9, lr}
 308              		.cfi_def_cfa_offset 28
 309              		.cfi_offset 4, -28
 310              		.cfi_offset 5, -24
 311              		.cfi_offset 6, -20
 312              		.cfi_offset 7, -16
 313              		.cfi_offset 8, -12
 314              		.cfi_offset 9, -8
 315              		.cfi_offset 14, -4
 316 0004 83B0     		sub	sp, sp, #12
 317              		.cfi_def_cfa_offset 40
 318              		.loc 1 205 0
 319 0006 0F46     		mov	r7, r1
 320 0008 9046     		mov	r8, r2
 321 000a 9946     		mov	r9, r3
 322 000c 0546     		mov	r5, r0
 323              		.loc 1 211 0
 324 000e FFF7FEFF 		bl	chPoolAlloc
 325              	.LVL18:
 326              		.loc 1 212 0
 327 0012 0446     		mov	r4, r0
 328 0014 E8B1     		cbz	r0, .L12
 329              		.loc 1 217 0
 330 0016 00F15006 		add	r6, r0, #80
 331 001a 3146     		mov	r1, r6
 332 001c FF22     		movs	r2, #255
 333 001e FFF7FEFF 		bl	_thread_memfill
 334              	.LVL19:
 335              		.loc 1 220 0
 336 0022 6968     		ldr	r1, [r5, #4]
 337 0024 3046     		mov	r0, r6
 338 0026 2144     		add	r1, r1, r4
 339 0028 5522     		movs	r2, #85
 340 002a FFF7FEFF 		bl	_thread_memfill
 341              	.LVL20:
 342              	.LBB81:
ARM GAS  /tmp/ccIvQYkT.s 			page 7


 343              	.LBB82:
 344              	.LBB83:
 345              	.LBB84:
 346              		.loc 2 342 0
 347              		.syntax unified
 348              	@ 342 "ChibiOS_3.0.5/os/ext/CMSIS/include/core_cmFunc.h" 1
 349 002e 72B6     		cpsid i
 350              	@ 0 "" 2
 351              		.thumb
 352              		.syntax unified
 353              	.LBE84:
 354              	.LBE83:
 355              	.LBE82:
 356              	.LBE81:
 357              		.loc 1 226 0
 358 0030 6968     		ldr	r1, [r5, #4]
 359 0032 CDF80090 		str	r9, [sp]
 360 0036 4346     		mov	r3, r8
 361 0038 3A46     		mov	r2, r7
 362 003a 2046     		mov	r0, r4
 363 003c FFF7FEFF 		bl	chThdCreateI
 364              	.LVL21:
 365              		.loc 1 227 0
 366 0040 0223     		movs	r3, #2
 367              		.loc 1 228 0
 368 0042 8564     		str	r5, [r0, #72]
 369              		.loc 1 227 0
 370 0044 80F82130 		strb	r3, [r0, #33]
 371              		.loc 1 229 0
 372 0048 0021     		movs	r1, #0
 373              		.loc 1 226 0
 374 004a 0446     		mov	r4, r0
 375              	.LVL22:
 376              		.loc 1 229 0
 377 004c FFF7FEFF 		bl	chSchWakeupS
 378              	.LVL23:
 379              	.LBB85:
 380              	.LBB86:
 381              	.LBB87:
 382              	.LBB88:
 383              	.LBB89:
 384              		.loc 2 331 0
 385              		.syntax unified
 386              	@ 331 "ChibiOS_3.0.5/os/ext/CMSIS/include/core_cmFunc.h" 1
 387 0050 62B6     		cpsie i
 388              	@ 0 "" 2
 389              	.LVL24:
 390              		.thumb
 391              		.syntax unified
 392              	.L12:
 393              	.LBE89:
 394              	.LBE88:
 395              	.LBE87:
 396              	.LBE86:
 397              	.LBE85:
 398              		.loc 1 233 0
 399 0052 2046     		mov	r0, r4
ARM GAS  /tmp/ccIvQYkT.s 			page 8


 400 0054 03B0     		add	sp, sp, #12
 401              		.cfi_def_cfa_offset 28
 402              		@ sp needed
 403 0056 BDE8F083 		pop	{r4, r5, r6, r7, r8, r9, pc}
 404              		.cfi_endproc
 405              	.LFE222:
 406              		.size	chThdCreateFromMemoryPool, .-chThdCreateFromMemoryPool
 407 005a 00BF     		.text
 408              	.Letext0:
 409              		.file 3 "/usr/lib/gcc/arm-none-eabi/7.3.1/include/stddef.h"
 410              		.file 4 "/usr/arm-none-eabi/include/machine/_default_types.h"
 411              		.file 5 "/usr/arm-none-eabi/include/sys/_stdint.h"
 412              		.file 6 "ChibiOS_3.0.5/os/rt/ports/ARMCMx/compilers/GCC/chtypes.h"
 413              		.file 7 "ChibiOS_3.0.5/os/rt/include/chsystypes.h"
 414              		.file 8 "ChibiOS_3.0.5/os/rt/include/chschd.h"
 415              		.file 9 "ChibiOS_3.0.5/os/ext/CMSIS/include/core_cm4.h"
 416              		.file 10 "ChibiOS_3.0.5/os/ext/CMSIS/ST/system_stm32f4xx.h"
 417              		.file 11 "ChibiOS_3.0.5/os/rt/ports/ARMCMx/chcore.h"
 418              		.file 12 "ChibiOS_3.0.5/os/rt/ports/ARMCMx/chcore_v7m.h"
 419              		.file 13 "ChibiOS_3.0.5/os/rt/include/chtm.h"
 420              		.file 14 "ChibiOS_3.0.5/os/rt/include/chsem.h"
 421              		.file 15 "ChibiOS_3.0.5/os/rt/include/chmtx.h"
 422              		.file 16 "ChibiOS_3.0.5/os/rt/include/chthreads.h"
 423              		.file 17 "ChibiOS_3.0.5/os/rt/include/chregistry.h"
 424              		.file 18 "ChibiOS_3.0.5/os/rt/include/chmemcore.h"
 425              		.file 19 "ChibiOS_3.0.5/os/rt/include/chheap.h"
 426              		.file 20 "ChibiOS_3.0.5/os/rt/include/chmempools.h"
 427              		.file 21 "ChibiOS_3.0.5/os/rt/include/chsys.h"
 428              		.section	.debug_info,"",%progbits
 429              	.Ldebug_info0:
 430 0000 EB0E0000 		.4byte	0xeeb
 431 0004 0400     		.2byte	0x4
 432 0006 00000000 		.4byte	.Ldebug_abbrev0
 433 000a 04       		.byte	0x4
 434 000b 01       		.uleb128 0x1
 435 000c 51000000 		.4byte	.LASF166
 436 0010 0C       		.byte	0xc
 437 0011 EF020000 		.4byte	.LASF167
 438 0015 90060000 		.4byte	.LASF168
 439 0019 00000000 		.4byte	.Ldebug_ranges0+0
 440 001d 00000000 		.4byte	0
 441 0021 00000000 		.4byte	.Ldebug_line0
 442 0025 02       		.uleb128 0x2
 443 0026 04       		.byte	0x4
 444 0027 05       		.byte	0x5
 445 0028 696E7400 		.ascii	"int\000"
 446 002c 03       		.uleb128 0x3
 447 002d 15000000 		.4byte	.LASF2
 448 0031 03       		.byte	0x3
 449 0032 D8       		.byte	0xd8
 450 0033 37000000 		.4byte	0x37
 451 0037 04       		.uleb128 0x4
 452 0038 04       		.byte	0x4
 453 0039 07       		.byte	0x7
 454 003a 98030000 		.4byte	.LASF0
 455 003e 04       		.uleb128 0x4
 456 003f 01       		.byte	0x1
ARM GAS  /tmp/ccIvQYkT.s 			page 9


 457 0040 06       		.byte	0x6
 458 0041 2D020000 		.4byte	.LASF1
 459 0045 03       		.uleb128 0x3
 460 0046 2C000000 		.4byte	.LASF3
 461 004a 04       		.byte	0x4
 462 004b 2B       		.byte	0x2b
 463 004c 50000000 		.4byte	0x50
 464 0050 04       		.uleb128 0x4
 465 0051 01       		.byte	0x1
 466 0052 08       		.byte	0x8
 467 0053 AB050000 		.4byte	.LASF4
 468 0057 04       		.uleb128 0x4
 469 0058 02       		.byte	0x2
 470 0059 05       		.byte	0x5
 471 005a CF050000 		.4byte	.LASF5
 472 005e 03       		.uleb128 0x3
 473 005f FE060000 		.4byte	.LASF6
 474 0063 04       		.byte	0x4
 475 0064 39       		.byte	0x39
 476 0065 69000000 		.4byte	0x69
 477 0069 04       		.uleb128 0x4
 478 006a 02       		.byte	0x2
 479 006b 07       		.byte	0x7
 480 006c 12040000 		.4byte	.LASF7
 481 0070 03       		.uleb128 0x3
 482 0071 7F040000 		.4byte	.LASF8
 483 0075 04       		.byte	0x4
 484 0076 4D       		.byte	0x4d
 485 0077 7B000000 		.4byte	0x7b
 486 007b 04       		.uleb128 0x4
 487 007c 04       		.byte	0x4
 488 007d 05       		.byte	0x5
 489 007e B1020000 		.4byte	.LASF9
 490 0082 03       		.uleb128 0x3
 491 0083 37070000 		.4byte	.LASF10
 492 0087 04       		.byte	0x4
 493 0088 4F       		.byte	0x4f
 494 0089 8D000000 		.4byte	0x8d
 495 008d 04       		.uleb128 0x4
 496 008e 04       		.byte	0x4
 497 008f 07       		.byte	0x7
 498 0090 D0060000 		.4byte	.LASF11
 499 0094 04       		.uleb128 0x4
 500 0095 08       		.byte	0x8
 501 0096 05       		.byte	0x5
 502 0097 1F020000 		.4byte	.LASF12
 503 009b 03       		.uleb128 0x3
 504 009c 43050000 		.4byte	.LASF13
 505 00a0 04       		.byte	0x4
 506 00a1 69       		.byte	0x69
 507 00a2 A6000000 		.4byte	0xa6
 508 00a6 04       		.uleb128 0x4
 509 00a7 08       		.byte	0x8
 510 00a8 07       		.byte	0x7
 511 00a9 8C010000 		.4byte	.LASF14
 512 00ad 03       		.uleb128 0x3
 513 00ae B7070000 		.4byte	.LASF15
ARM GAS  /tmp/ccIvQYkT.s 			page 10


 514 00b2 05       		.byte	0x5
 515 00b3 18       		.byte	0x18
 516 00b4 45000000 		.4byte	0x45
 517 00b8 03       		.uleb128 0x3
 518 00b9 AD030000 		.4byte	.LASF16
 519 00bd 05       		.byte	0x5
 520 00be 24       		.byte	0x24
 521 00bf 5E000000 		.4byte	0x5e
 522 00c3 03       		.uleb128 0x3
 523 00c4 A3050000 		.4byte	.LASF17
 524 00c8 05       		.byte	0x5
 525 00c9 2C       		.byte	0x2c
 526 00ca 70000000 		.4byte	0x70
 527 00ce 05       		.uleb128 0x5
 528 00cf C3000000 		.4byte	0xc3
 529 00d3 03       		.uleb128 0x3
 530 00d4 96060000 		.4byte	.LASF18
 531 00d8 05       		.byte	0x5
 532 00d9 30       		.byte	0x30
 533 00da 82000000 		.4byte	0x82
 534 00de 03       		.uleb128 0x3
 535 00df 23000000 		.4byte	.LASF19
 536 00e3 05       		.byte	0x5
 537 00e4 3C       		.byte	0x3c
 538 00e5 9B000000 		.4byte	0x9b
 539 00e9 03       		.uleb128 0x3
 540 00ea BE040000 		.4byte	.LASF20
 541 00ee 06       		.byte	0x6
 542 00ef 45       		.byte	0x45
 543 00f0 D3000000 		.4byte	0xd3
 544 00f4 03       		.uleb128 0x3
 545 00f5 00060000 		.4byte	.LASF21
 546 00f9 06       		.byte	0x6
 547 00fa 48       		.byte	0x48
 548 00fb AD000000 		.4byte	0xad
 549 00ff 03       		.uleb128 0x3
 550 0100 CE020000 		.4byte	.LASF22
 551 0104 06       		.byte	0x6
 552 0105 49       		.byte	0x49
 553 0106 AD000000 		.4byte	0xad
 554 010a 03       		.uleb128 0x3
 555 010b 3D030000 		.4byte	.LASF23
 556 010f 06       		.byte	0x6
 557 0110 4A       		.byte	0x4a
 558 0111 AD000000 		.4byte	0xad
 559 0115 03       		.uleb128 0x3
 560 0116 8A020000 		.4byte	.LASF24
 561 011a 06       		.byte	0x6
 562 011b 4B       		.byte	0x4b
 563 011c AD000000 		.4byte	0xad
 564 0120 03       		.uleb128 0x3
 565 0121 8B050000 		.4byte	.LASF25
 566 0125 06       		.byte	0x6
 567 0126 4C       		.byte	0x4c
 568 0127 D3000000 		.4byte	0xd3
 569 012b 03       		.uleb128 0x3
 570 012c 47040000 		.4byte	.LASF26
ARM GAS  /tmp/ccIvQYkT.s 			page 11


 571 0130 06       		.byte	0x6
 572 0131 4D       		.byte	0x4d
 573 0132 C3000000 		.4byte	0xc3
 574 0136 03       		.uleb128 0x3
 575 0137 73040000 		.4byte	.LASF27
 576 013b 06       		.byte	0x6
 577 013c 4F       		.byte	0x4f
 578 013d D3000000 		.4byte	0xd3
 579 0141 03       		.uleb128 0x3
 580 0142 87030000 		.4byte	.LASF28
 581 0146 06       		.byte	0x6
 582 0147 51       		.byte	0x51
 583 0148 C3000000 		.4byte	0xc3
 584 014c 03       		.uleb128 0x3
 585 014d 19070000 		.4byte	.LASF29
 586 0151 07       		.byte	0x7
 587 0152 33       		.byte	0x33
 588 0153 D3000000 		.4byte	0xd3
 589 0157 05       		.uleb128 0x5
 590 0158 4C010000 		.4byte	0x14c
 591 015c 03       		.uleb128 0x3
 592 015d 09070000 		.4byte	.LASF30
 593 0161 07       		.byte	0x7
 594 0162 3F       		.byte	0x3f
 595 0163 67010000 		.4byte	0x167
 596 0167 06       		.uleb128 0x6
 597 0168 25040000 		.4byte	.LASF54
 598 016c 50       		.byte	0x50
 599 016d 08       		.byte	0x8
 600 016e C2       		.byte	0xc2
 601 016f 85020000 		.4byte	0x285
 602 0173 07       		.uleb128 0x7
 603 0174 F9050000 		.4byte	.LASF31
 604 0178 08       		.byte	0x8
 605 0179 C3       		.byte	0xc3
 606 017a 90020000 		.4byte	0x290
 607 017e 00       		.byte	0
 608 017f 07       		.uleb128 0x7
 609 0180 84050000 		.4byte	.LASF32
 610 0184 08       		.byte	0x8
 611 0185 C5       		.byte	0xc5
 612 0186 90020000 		.4byte	0x290
 613 018a 04       		.byte	0x4
 614 018b 07       		.uleb128 0x7
 615 018c 00020000 		.4byte	.LASF33
 616 0190 08       		.byte	0x8
 617 0191 C7       		.byte	0xc7
 618 0192 20010000 		.4byte	0x120
 619 0196 08       		.byte	0x8
 620 0197 07       		.uleb128 0x7
 621 0198 03050000 		.4byte	.LASF34
 622 019c 08       		.byte	0x8
 623 019d C8       		.byte	0xc8
 624 019e D0040000 		.4byte	0x4d0
 625 01a2 0C       		.byte	0xc
 626 01a3 07       		.uleb128 0x7
 627 01a4 13030000 		.4byte	.LASF35
ARM GAS  /tmp/ccIvQYkT.s 			page 12


 628 01a8 08       		.byte	0x8
 629 01a9 CA       		.byte	0xca
 630 01aa 90020000 		.4byte	0x290
 631 01ae 10       		.byte	0x10
 632 01af 07       		.uleb128 0x7
 633 01b0 F5040000 		.4byte	.LASF36
 634 01b4 08       		.byte	0x8
 635 01b5 CB       		.byte	0xcb
 636 01b6 90020000 		.4byte	0x290
 637 01ba 14       		.byte	0x14
 638 01bb 07       		.uleb128 0x7
 639 01bc FB070000 		.4byte	.LASF37
 640 01c0 08       		.byte	0x8
 641 01c1 D2       		.byte	0xd2
 642 01c2 15070000 		.4byte	0x715
 643 01c6 18       		.byte	0x18
 644 01c7 07       		.uleb128 0x7
 645 01c8 8D030000 		.4byte	.LASF38
 646 01cc 08       		.byte	0x8
 647 01cd D8       		.byte	0xd8
 648 01ce 2C070000 		.4byte	0x72c
 649 01d2 1C       		.byte	0x1c
 650 01d3 07       		.uleb128 0x7
 651 01d4 D9050000 		.4byte	.LASF39
 652 01d8 08       		.byte	0x8
 653 01d9 DD       		.byte	0xdd
 654 01da FF000000 		.4byte	0xff
 655 01de 20       		.byte	0x20
 656 01df 07       		.uleb128 0x7
 657 01e0 17060000 		.4byte	.LASF40
 658 01e4 08       		.byte	0x8
 659 01e5 E1       		.byte	0xe1
 660 01e6 F4000000 		.4byte	0xf4
 661 01ea 21       		.byte	0x21
 662 01eb 07       		.uleb128 0x7
 663 01ec 9B070000 		.4byte	.LASF41
 664 01f0 08       		.byte	0x8
 665 01f1 E6       		.byte	0xe6
 666 01f2 0A010000 		.4byte	0x10a
 667 01f6 22       		.byte	0x22
 668 01f7 07       		.uleb128 0x7
 669 01f8 E1050000 		.4byte	.LASF42
 670 01fc 08       		.byte	0x8
 671 01fd EC       		.byte	0xec
 672 01fe 15010000 		.4byte	0x115
 673 0202 23       		.byte	0x23
 674 0203 07       		.uleb128 0x7
 675 0204 C6030000 		.4byte	.LASF43
 676 0208 08       		.byte	0x8
 677 0209 F3       		.byte	0xf3
 678 020a 57010000 		.4byte	0x157
 679 020e 24       		.byte	0x24
 680 020f 08       		.uleb128 0x8
 681 0210 705F7500 		.ascii	"p_u\000"
 682 0214 08       		.byte	0x8
 683 0215 3101     		.2byte	0x131
 684 0217 50060000 		.4byte	0x650
ARM GAS  /tmp/ccIvQYkT.s 			page 13


 685 021b 28       		.byte	0x28
 686 021c 09       		.uleb128 0x9
 687 021d B4040000 		.4byte	.LASF44
 688 0221 08       		.byte	0x8
 689 0222 3601     		.2byte	0x136
 690 0224 96020000 		.4byte	0x296
 691 0228 2C       		.byte	0x2c
 692 0229 09       		.uleb128 0x9
 693 022a EA030000 		.4byte	.LASF45
 694 022e 08       		.byte	0x8
 695 022f 3C01     		.2byte	0x13c
 696 0231 BA020000 		.4byte	0x2ba
 697 0235 30       		.byte	0x30
 698 0236 09       		.uleb128 0x9
 699 0237 F8060000 		.4byte	.LASF46
 700 023b 08       		.byte	0x8
 701 023c 4001     		.2byte	0x140
 702 023e 2B010000 		.4byte	0x12b
 703 0242 38       		.byte	0x38
 704 0243 09       		.uleb128 0x9
 705 0244 85060000 		.4byte	.LASF47
 706 0248 08       		.byte	0x8
 707 0249 4601     		.2byte	0x146
 708 024b 36010000 		.4byte	0x136
 709 024f 3C       		.byte	0x3c
 710 0250 09       		.uleb128 0x9
 711 0251 C5050000 		.4byte	.LASF48
 712 0255 08       		.byte	0x8
 713 0256 4D01     		.2byte	0x14d
 714 0258 0F070000 		.4byte	0x70f
 715 025c 40       		.byte	0x40
 716 025d 09       		.uleb128 0x9
 717 025e 23070000 		.4byte	.LASF49
 718 0262 08       		.byte	0x8
 719 0263 5101     		.2byte	0x151
 720 0265 20010000 		.4byte	0x120
 721 0269 44       		.byte	0x44
 722 026a 09       		.uleb128 0x9
 723 026b 5C020000 		.4byte	.LASF50
 724 026f 08       		.byte	0x8
 725 0270 5801     		.2byte	0x158
 726 0272 6D030000 		.4byte	0x36d
 727 0276 48       		.byte	0x48
 728 0277 09       		.uleb128 0x9
 729 0278 A2070000 		.4byte	.LASF51
 730 027c 08       		.byte	0x8
 731 027d 6201     		.2byte	0x162
 732 027f 25000000 		.4byte	0x25
 733 0283 4C       		.byte	0x4c
 734 0284 00       		.byte	0
 735 0285 03       		.uleb128 0x3
 736 0286 E1070000 		.4byte	.LASF52
 737 028a 07       		.byte	0x7
 738 028b 44       		.byte	0x44
 739 028c 90020000 		.4byte	0x290
 740 0290 0A       		.uleb128 0xa
 741 0291 04       		.byte	0x4
ARM GAS  /tmp/ccIvQYkT.s 			page 14


 742 0292 5C010000 		.4byte	0x15c
 743 0296 03       		.uleb128 0x3
 744 0297 07080000 		.4byte	.LASF53
 745 029b 07       		.byte	0x7
 746 029c 49       		.byte	0x49
 747 029d A1020000 		.4byte	0x2a1
 748 02a1 06       		.uleb128 0x6
 749 02a2 B3060000 		.4byte	.LASF55
 750 02a6 04       		.byte	0x4
 751 02a7 08       		.byte	0x8
 752 02a8 B0       		.byte	0xb0
 753 02a9 BA020000 		.4byte	0x2ba
 754 02ad 07       		.uleb128 0x7
 755 02ae F9050000 		.4byte	.LASF31
 756 02b2 08       		.byte	0x8
 757 02b3 B1       		.byte	0xb1
 758 02b4 90020000 		.4byte	0x290
 759 02b8 00       		.byte	0
 760 02b9 00       		.byte	0
 761 02ba 03       		.uleb128 0x3
 762 02bb 4F060000 		.4byte	.LASF56
 763 02bf 07       		.byte	0x7
 764 02c0 50       		.byte	0x50
 765 02c1 C5020000 		.4byte	0x2c5
 766 02c5 06       		.uleb128 0x6
 767 02c6 EF010000 		.4byte	.LASF57
 768 02ca 08       		.byte	0x8
 769 02cb 08       		.byte	0x8
 770 02cc B7       		.byte	0xb7
 771 02cd EA020000 		.4byte	0x2ea
 772 02d1 07       		.uleb128 0x7
 773 02d2 F9050000 		.4byte	.LASF31
 774 02d6 08       		.byte	0x8
 775 02d7 B8       		.byte	0xb8
 776 02d8 90020000 		.4byte	0x290
 777 02dc 00       		.byte	0
 778 02dd 07       		.uleb128 0x7
 779 02de 84050000 		.4byte	.LASF32
 780 02e2 08       		.byte	0x8
 781 02e3 B9       		.byte	0xb9
 782 02e4 90020000 		.4byte	0x290
 783 02e8 04       		.byte	0x4
 784 02e9 00       		.byte	0
 785 02ea 03       		.uleb128 0x3
 786 02eb 08000000 		.4byte	.LASF58
 787 02ef 07       		.byte	0x7
 788 02f0 57       		.byte	0x57
 789 02f1 F5020000 		.4byte	0x2f5
 790 02f5 0B       		.uleb128 0xb
 791 02f6 65040000 		.4byte	.LASF59
 792 02fa 1C       		.byte	0x1c
 793 02fb 08       		.byte	0x8
 794 02fc 9001     		.2byte	0x190
 795 02fe 51030000 		.4byte	0x351
 796 0302 09       		.uleb128 0x9
 797 0303 AB060000 		.4byte	.LASF60
 798 0307 08       		.byte	0x8
ARM GAS  /tmp/ccIvQYkT.s 			page 15


 799 0308 9101     		.2byte	0x191
 800 030a BA020000 		.4byte	0x2ba
 801 030e 00       		.byte	0
 802 030f 09       		.uleb128 0x9
 803 0310 EB050000 		.4byte	.LASF61
 804 0314 08       		.byte	0x8
 805 0315 9201     		.2byte	0x192
 806 0317 20010000 		.4byte	0x120
 807 031b 08       		.byte	0x8
 808 031c 09       		.uleb128 0x9
 809 031d FD040000 		.4byte	.LASF62
 810 0321 08       		.byte	0x8
 811 0322 9401     		.2byte	0x194
 812 0324 D0040000 		.4byte	0x4d0
 813 0328 0C       		.byte	0xc
 814 0329 09       		.uleb128 0x9
 815 032a 45030000 		.4byte	.LASF63
 816 032e 08       		.byte	0x8
 817 032f 9701     		.2byte	0x197
 818 0331 90020000 		.4byte	0x290
 819 0335 10       		.byte	0x10
 820 0336 09       		.uleb128 0x9
 821 0337 2E050000 		.4byte	.LASF64
 822 033b 08       		.byte	0x8
 823 033c 9801     		.2byte	0x198
 824 033e 90020000 		.4byte	0x290
 825 0342 14       		.byte	0x14
 826 0343 09       		.uleb128 0x9
 827 0344 E2060000 		.4byte	.LASF65
 828 0348 08       		.byte	0x8
 829 0349 9B01     		.2byte	0x19b
 830 034b 90020000 		.4byte	0x290
 831 034f 18       		.byte	0x18
 832 0350 00       		.byte	0
 833 0351 03       		.uleb128 0x3
 834 0352 2E070000 		.4byte	.LASF66
 835 0356 07       		.byte	0x7
 836 0357 5C       		.byte	0x5c
 837 0358 5C030000 		.4byte	0x35c
 838 035c 0A       		.uleb128 0xa
 839 035d 04       		.byte	0x4
 840 035e 62030000 		.4byte	0x362
 841 0362 0C       		.uleb128 0xc
 842 0363 6D030000 		.4byte	0x36d
 843 0367 0D       		.uleb128 0xd
 844 0368 6D030000 		.4byte	0x36d
 845 036c 00       		.byte	0
 846 036d 0E       		.uleb128 0xe
 847 036e 04       		.byte	0x4
 848 036f 03       		.uleb128 0x3
 849 0370 74050000 		.4byte	.LASF67
 850 0374 07       		.byte	0x7
 851 0375 61       		.byte	0x61
 852 0376 7A030000 		.4byte	0x37a
 853 037a 0B       		.uleb128 0xb
 854 037b 6C070000 		.4byte	.LASF68
 855 037f 14       		.byte	0x14
ARM GAS  /tmp/ccIvQYkT.s 			page 16


 856 0380 08       		.byte	0x8
 857 0381 6B01     		.2byte	0x16b
 858 0383 C9030000 		.4byte	0x3c9
 859 0387 09       		.uleb128 0x9
 860 0388 A5030000 		.4byte	.LASF69
 861 038c 08       		.byte	0x8
 862 038d 6C01     		.2byte	0x16c
 863 038f 32070000 		.4byte	0x732
 864 0393 00       		.byte	0
 865 0394 09       		.uleb128 0x9
 866 0395 62030000 		.4byte	.LASF70
 867 0399 08       		.byte	0x8
 868 039a 6D01     		.2byte	0x16d
 869 039c 32070000 		.4byte	0x732
 870 03a0 04       		.byte	0x4
 871 03a1 09       		.uleb128 0x9
 872 03a2 E1030000 		.4byte	.LASF71
 873 03a6 08       		.byte	0x8
 874 03a7 6E01     		.2byte	0x16e
 875 03a9 4C010000 		.4byte	0x14c
 876 03ad 08       		.byte	0x8
 877 03ae 09       		.uleb128 0x9
 878 03af 43080000 		.4byte	.LASF72
 879 03b3 08       		.byte	0x8
 880 03b4 6F01     		.2byte	0x16f
 881 03b6 51030000 		.4byte	0x351
 882 03ba 0C       		.byte	0xc
 883 03bb 09       		.uleb128 0x9
 884 03bc 7D070000 		.4byte	.LASF73
 885 03c0 08       		.byte	0x8
 886 03c1 7101     		.2byte	0x171
 887 03c3 6D030000 		.4byte	0x36d
 888 03c7 10       		.byte	0x10
 889 03c8 00       		.byte	0
 890 03c9 03       		.uleb128 0x3
 891 03ca C1010000 		.4byte	.LASF74
 892 03ce 07       		.byte	0x7
 893 03cf 66       		.byte	0x66
 894 03d0 D4030000 		.4byte	0x3d4
 895 03d4 0B       		.uleb128 0xb
 896 03d5 C6040000 		.4byte	.LASF75
 897 03d9 10       		.byte	0x10
 898 03da 08       		.byte	0x8
 899 03db 7B01     		.2byte	0x17b
 900 03dd 16040000 		.4byte	0x416
 901 03e1 09       		.uleb128 0x9
 902 03e2 A5030000 		.4byte	.LASF69
 903 03e6 08       		.byte	0x8
 904 03e7 7C01     		.2byte	0x17c
 905 03e9 32070000 		.4byte	0x732
 906 03ed 00       		.byte	0
 907 03ee 09       		.uleb128 0x9
 908 03ef 62030000 		.4byte	.LASF70
 909 03f3 08       		.byte	0x8
 910 03f4 7E01     		.2byte	0x17e
 911 03f6 32070000 		.4byte	0x732
 912 03fa 04       		.byte	0x4
ARM GAS  /tmp/ccIvQYkT.s 			page 17


 913 03fb 09       		.uleb128 0x9
 914 03fc E1030000 		.4byte	.LASF71
 915 0400 08       		.byte	0x8
 916 0401 8001     		.2byte	0x180
 917 0403 4C010000 		.4byte	0x14c
 918 0407 08       		.byte	0x8
 919 0408 09       		.uleb128 0x9
 920 0409 14020000 		.4byte	.LASF76
 921 040d 08       		.byte	0x8
 922 040e 8201     		.2byte	0x182
 923 0410 57010000 		.4byte	0x157
 924 0414 0C       		.byte	0xc
 925 0415 00       		.byte	0
 926 0416 03       		.uleb128 0x3
 927 0417 42000000 		.4byte	.LASF77
 928 041b 07       		.byte	0x7
 929 041c 6B       		.byte	0x6b
 930 041d 21040000 		.4byte	0x421
 931 0421 0B       		.uleb128 0xb
 932 0422 93050000 		.4byte	.LASF78
 933 0426 04       		.byte	0x4
 934 0427 08       		.byte	0x8
 935 0428 A201     		.2byte	0x1a2
 936 042a 3C040000 		.4byte	0x43c
 937 042e 09       		.uleb128 0x9
 938 042f 42070000 		.4byte	.LASF79
 939 0433 08       		.byte	0x8
 940 0434 AA01     		.2byte	0x1aa
 941 0436 1B070000 		.4byte	0x71b
 942 043a 00       		.byte	0
 943 043b 00       		.byte	0
 944 043c 03       		.uleb128 0x3
 945 043d 4D040000 		.4byte	.LASF80
 946 0441 07       		.byte	0x7
 947 0442 70       		.byte	0x70
 948 0443 47040000 		.4byte	0x447
 949 0447 0F       		.uleb128 0xf
 950 0448 A7020000 		.4byte	.LASF81
 951 044c 6802     		.2byte	0x268
 952 044e 08       		.byte	0x8
 953 044f C201     		.2byte	0x1c2
 954 0451 A3040000 		.4byte	0x4a3
 955 0455 09       		.uleb128 0x9
 956 0456 B1070000 		.4byte	.LASF82
 957 045a 08       		.byte	0x8
 958 045b C601     		.2byte	0x1c6
 959 045d EA020000 		.4byte	0x2ea
 960 0461 00       		.byte	0
 961 0462 09       		.uleb128 0x9
 962 0463 77020000 		.4byte	.LASF83
 963 0467 08       		.byte	0x8
 964 0468 CA01     		.2byte	0x1ca
 965 046a C9030000 		.4byte	0x3c9
 966 046e 1C       		.byte	0x1c
 967 046f 08       		.uleb128 0x8
 968 0470 64626700 		.ascii	"dbg\000"
 969 0474 08       		.byte	0x8
ARM GAS  /tmp/ccIvQYkT.s 			page 18


 970 0475 CE01     		.2byte	0x1ce
 971 0477 16040000 		.4byte	0x416
 972 047b 2C       		.byte	0x2c
 973 047c 09       		.uleb128 0x9
 974 047d 3C040000 		.4byte	.LASF84
 975 0481 08       		.byte	0x8
 976 0482 D201     		.2byte	0x1d2
 977 0484 5C010000 		.4byte	0x15c
 978 0488 30       		.byte	0x30
 979 0489 08       		.uleb128 0x8
 980 048a 746D00   		.ascii	"tm\000"
 981 048d 08       		.byte	0x8
 982 048e D701     		.2byte	0x1d7
 983 0490 45060000 		.4byte	0x645
 984 0494 80       		.byte	0x80
 985 0495 09       		.uleb128 0x9
 986 0496 78030000 		.4byte	.LASF85
 987 049a 08       		.byte	0x8
 988 049b E301     		.2byte	0x1e3
 989 049d 38070000 		.4byte	0x738
 990 04a1 88       		.byte	0x88
 991 04a2 00       		.byte	0
 992 04a3 10       		.uleb128 0x10
 993 04a4 D7010000 		.4byte	.LASF86
 994 04a8 09       		.byte	0x9
 995 04a9 A706     		.2byte	0x6a7
 996 04ab CE000000 		.4byte	0xce
 997 04af 11       		.uleb128 0x11
 998 04b0 B6030000 		.4byte	.LASF87
 999 04b4 0A       		.byte	0xa
 1000 04b5 4C       		.byte	0x4c
 1001 04b6 D3000000 		.4byte	0xd3
 1002 04ba 03       		.uleb128 0x3
 1003 04bb 59030000 		.4byte	.LASF88
 1004 04bf 0B       		.byte	0xb
 1005 04c0 65       		.byte	0x65
 1006 04c1 6D030000 		.4byte	0x36d
 1007 04c5 03       		.uleb128 0x3
 1008 04c6 95040000 		.4byte	.LASF89
 1009 04ca 0B       		.byte	0xb
 1010 04cb 6D       		.byte	0x6d
 1011 04cc DE000000 		.4byte	0xde
 1012 04d0 06       		.uleb128 0x6
 1013 04d1 64070000 		.4byte	.LASF90
 1014 04d5 04       		.byte	0x4
 1015 04d6 0B       		.byte	0xb
 1016 04d7 89       		.byte	0x89
 1017 04d8 E9040000 		.4byte	0x4e9
 1018 04dc 12       		.uleb128 0x12
 1019 04dd 72313300 		.ascii	"r13\000"
 1020 04e1 0B       		.byte	0xb
 1021 04e2 8A       		.byte	0x8a
 1022 04e3 2A060000 		.4byte	0x62a
 1023 04e7 00       		.byte	0
 1024 04e8 00       		.byte	0
 1025 04e9 06       		.uleb128 0x6
 1026 04ea 36000000 		.4byte	.LASF91
ARM GAS  /tmp/ccIvQYkT.s 			page 19


 1027 04ee 64       		.byte	0x64
 1028 04ef 0C       		.byte	0xc
 1029 04f0 F4       		.byte	0xf4
 1030 04f1 2A060000 		.4byte	0x62a
 1031 04f5 12       		.uleb128 0x12
 1032 04f6 73313600 		.ascii	"s16\000"
 1033 04fa 0C       		.byte	0xc
 1034 04fb F6       		.byte	0xf6
 1035 04fc BA040000 		.4byte	0x4ba
 1036 0500 00       		.byte	0
 1037 0501 12       		.uleb128 0x12
 1038 0502 73313700 		.ascii	"s17\000"
 1039 0506 0C       		.byte	0xc
 1040 0507 F7       		.byte	0xf7
 1041 0508 BA040000 		.4byte	0x4ba
 1042 050c 04       		.byte	0x4
 1043 050d 12       		.uleb128 0x12
 1044 050e 73313800 		.ascii	"s18\000"
 1045 0512 0C       		.byte	0xc
 1046 0513 F8       		.byte	0xf8
 1047 0514 BA040000 		.4byte	0x4ba
 1048 0518 08       		.byte	0x8
 1049 0519 12       		.uleb128 0x12
 1050 051a 73313900 		.ascii	"s19\000"
 1051 051e 0C       		.byte	0xc
 1052 051f F9       		.byte	0xf9
 1053 0520 BA040000 		.4byte	0x4ba
 1054 0524 0C       		.byte	0xc
 1055 0525 12       		.uleb128 0x12
 1056 0526 73323000 		.ascii	"s20\000"
 1057 052a 0C       		.byte	0xc
 1058 052b FA       		.byte	0xfa
 1059 052c BA040000 		.4byte	0x4ba
 1060 0530 10       		.byte	0x10
 1061 0531 12       		.uleb128 0x12
 1062 0532 73323100 		.ascii	"s21\000"
 1063 0536 0C       		.byte	0xc
 1064 0537 FB       		.byte	0xfb
 1065 0538 BA040000 		.4byte	0x4ba
 1066 053c 14       		.byte	0x14
 1067 053d 12       		.uleb128 0x12
 1068 053e 73323200 		.ascii	"s22\000"
 1069 0542 0C       		.byte	0xc
 1070 0543 FC       		.byte	0xfc
 1071 0544 BA040000 		.4byte	0x4ba
 1072 0548 18       		.byte	0x18
 1073 0549 12       		.uleb128 0x12
 1074 054a 73323300 		.ascii	"s23\000"
 1075 054e 0C       		.byte	0xc
 1076 054f FD       		.byte	0xfd
 1077 0550 BA040000 		.4byte	0x4ba
 1078 0554 1C       		.byte	0x1c
 1079 0555 12       		.uleb128 0x12
 1080 0556 73323400 		.ascii	"s24\000"
 1081 055a 0C       		.byte	0xc
 1082 055b FE       		.byte	0xfe
 1083 055c BA040000 		.4byte	0x4ba
ARM GAS  /tmp/ccIvQYkT.s 			page 20


 1084 0560 20       		.byte	0x20
 1085 0561 12       		.uleb128 0x12
 1086 0562 73323500 		.ascii	"s25\000"
 1087 0566 0C       		.byte	0xc
 1088 0567 FF       		.byte	0xff
 1089 0568 BA040000 		.4byte	0x4ba
 1090 056c 24       		.byte	0x24
 1091 056d 08       		.uleb128 0x8
 1092 056e 73323600 		.ascii	"s26\000"
 1093 0572 0C       		.byte	0xc
 1094 0573 0001     		.2byte	0x100
 1095 0575 BA040000 		.4byte	0x4ba
 1096 0579 28       		.byte	0x28
 1097 057a 08       		.uleb128 0x8
 1098 057b 73323700 		.ascii	"s27\000"
 1099 057f 0C       		.byte	0xc
 1100 0580 0101     		.2byte	0x101
 1101 0582 BA040000 		.4byte	0x4ba
 1102 0586 2C       		.byte	0x2c
 1103 0587 08       		.uleb128 0x8
 1104 0588 73323800 		.ascii	"s28\000"
 1105 058c 0C       		.byte	0xc
 1106 058d 0201     		.2byte	0x102
 1107 058f BA040000 		.4byte	0x4ba
 1108 0593 30       		.byte	0x30
 1109 0594 08       		.uleb128 0x8
 1110 0595 73323900 		.ascii	"s29\000"
 1111 0599 0C       		.byte	0xc
 1112 059a 0301     		.2byte	0x103
 1113 059c BA040000 		.4byte	0x4ba
 1114 05a0 34       		.byte	0x34
 1115 05a1 08       		.uleb128 0x8
 1116 05a2 73333000 		.ascii	"s30\000"
 1117 05a6 0C       		.byte	0xc
 1118 05a7 0401     		.2byte	0x104
 1119 05a9 BA040000 		.4byte	0x4ba
 1120 05ad 38       		.byte	0x38
 1121 05ae 08       		.uleb128 0x8
 1122 05af 73333100 		.ascii	"s31\000"
 1123 05b3 0C       		.byte	0xc
 1124 05b4 0501     		.2byte	0x105
 1125 05b6 BA040000 		.4byte	0x4ba
 1126 05ba 3C       		.byte	0x3c
 1127 05bb 08       		.uleb128 0x8
 1128 05bc 723400   		.ascii	"r4\000"
 1129 05bf 0C       		.byte	0xc
 1130 05c0 0701     		.2byte	0x107
 1131 05c2 BA040000 		.4byte	0x4ba
 1132 05c6 40       		.byte	0x40
 1133 05c7 08       		.uleb128 0x8
 1134 05c8 723500   		.ascii	"r5\000"
 1135 05cb 0C       		.byte	0xc
 1136 05cc 0801     		.2byte	0x108
 1137 05ce BA040000 		.4byte	0x4ba
 1138 05d2 44       		.byte	0x44
 1139 05d3 08       		.uleb128 0x8
 1140 05d4 723600   		.ascii	"r6\000"
ARM GAS  /tmp/ccIvQYkT.s 			page 21


 1141 05d7 0C       		.byte	0xc
 1142 05d8 0901     		.2byte	0x109
 1143 05da BA040000 		.4byte	0x4ba
 1144 05de 48       		.byte	0x48
 1145 05df 08       		.uleb128 0x8
 1146 05e0 723700   		.ascii	"r7\000"
 1147 05e3 0C       		.byte	0xc
 1148 05e4 0A01     		.2byte	0x10a
 1149 05e6 BA040000 		.4byte	0x4ba
 1150 05ea 4C       		.byte	0x4c
 1151 05eb 08       		.uleb128 0x8
 1152 05ec 723800   		.ascii	"r8\000"
 1153 05ef 0C       		.byte	0xc
 1154 05f0 0B01     		.2byte	0x10b
 1155 05f2 BA040000 		.4byte	0x4ba
 1156 05f6 50       		.byte	0x50
 1157 05f7 08       		.uleb128 0x8
 1158 05f8 723900   		.ascii	"r9\000"
 1159 05fb 0C       		.byte	0xc
 1160 05fc 0C01     		.2byte	0x10c
 1161 05fe BA040000 		.4byte	0x4ba
 1162 0602 54       		.byte	0x54
 1163 0603 08       		.uleb128 0x8
 1164 0604 72313000 		.ascii	"r10\000"
 1165 0608 0C       		.byte	0xc
 1166 0609 0D01     		.2byte	0x10d
 1167 060b BA040000 		.4byte	0x4ba
 1168 060f 58       		.byte	0x58
 1169 0610 08       		.uleb128 0x8
 1170 0611 72313100 		.ascii	"r11\000"
 1171 0615 0C       		.byte	0xc
 1172 0616 0E01     		.2byte	0x10e
 1173 0618 BA040000 		.4byte	0x4ba
 1174 061c 5C       		.byte	0x5c
 1175 061d 08       		.uleb128 0x8
 1176 061e 6C7200   		.ascii	"lr\000"
 1177 0621 0C       		.byte	0xc
 1178 0622 0F01     		.2byte	0x10f
 1179 0624 BA040000 		.4byte	0x4ba
 1180 0628 60       		.byte	0x60
 1181 0629 00       		.byte	0
 1182 062a 0A       		.uleb128 0xa
 1183 062b 04       		.byte	0x4
 1184 062c E9040000 		.4byte	0x4e9
 1185 0630 13       		.uleb128 0x13
 1186 0631 04       		.byte	0x4
 1187 0632 0D       		.byte	0xd
 1188 0633 38       		.byte	0x38
 1189 0634 45060000 		.4byte	0x645
 1190 0638 07       		.uleb128 0x7
 1191 0639 4C070000 		.4byte	.LASF92
 1192 063d 0D       		.byte	0xd
 1193 063e 3C       		.byte	0x3c
 1194 063f E9000000 		.4byte	0xe9
 1195 0643 00       		.byte	0
 1196 0644 00       		.byte	0
 1197 0645 03       		.uleb128 0x3
ARM GAS  /tmp/ccIvQYkT.s 			page 22


 1198 0646 18050000 		.4byte	.LASF93
 1199 064a 0D       		.byte	0xd
 1200 064b 3D       		.byte	0x3d
 1201 064c 30060000 		.4byte	0x630
 1202 0650 14       		.uleb128 0x14
 1203 0651 04       		.byte	0x4
 1204 0652 08       		.byte	0x8
 1205 0653 FA       		.byte	0xfa
 1206 0654 AD060000 		.4byte	0x6ad
 1207 0658 15       		.uleb128 0x15
 1208 0659 1C000000 		.4byte	.LASF94
 1209 065d 08       		.byte	0x8
 1210 065e 0101     		.2byte	0x101
 1211 0660 2B010000 		.4byte	0x12b
 1212 0664 15       		.uleb128 0x15
 1213 0665 B1010000 		.4byte	.LASF95
 1214 0669 08       		.byte	0x8
 1215 066a 0801     		.2byte	0x108
 1216 066c 2B010000 		.4byte	0x12b
 1217 0670 15       		.uleb128 0x15
 1218 0671 F4070000 		.4byte	.LASF96
 1219 0675 08       		.byte	0x8
 1220 0676 0F01     		.2byte	0x10f
 1221 0678 6D030000 		.4byte	0x36d
 1222 067c 15       		.uleb128 0x15
 1223 067d A1020000 		.4byte	.LASF97
 1224 0681 08       		.byte	0x8
 1225 0682 1601     		.2byte	0x116
 1226 0684 AD060000 		.4byte	0x6ad
 1227 0688 15       		.uleb128 0x15
 1228 0689 CD030000 		.4byte	.LASF98
 1229 068d 08       		.byte	0x8
 1230 068e 1E01     		.2byte	0x11e
 1231 0690 D8060000 		.4byte	0x6d8
 1232 0694 15       		.uleb128 0x15
 1233 0695 F1060000 		.4byte	.LASF99
 1234 0699 08       		.byte	0x8
 1235 069a 2701     		.2byte	0x127
 1236 069c 0F070000 		.4byte	0x70f
 1237 06a0 15       		.uleb128 0x15
 1238 06a1 F2050000 		.4byte	.LASF100
 1239 06a5 08       		.byte	0x8
 1240 06a6 2F01     		.2byte	0x12f
 1241 06a8 36010000 		.4byte	0x136
 1242 06ac 00       		.byte	0
 1243 06ad 0A       		.uleb128 0xa
 1244 06ae 04       		.byte	0x4
 1245 06af 85020000 		.4byte	0x285
 1246 06b3 06       		.uleb128 0x6
 1247 06b4 78060000 		.4byte	.LASF101
 1248 06b8 0C       		.byte	0xc
 1249 06b9 0E       		.byte	0xe
 1250 06ba 34       		.byte	0x34
 1251 06bb D8060000 		.4byte	0x6d8
 1252 06bf 07       		.uleb128 0x7
 1253 06c0 1B030000 		.4byte	.LASF102
 1254 06c4 0E       		.byte	0xe
ARM GAS  /tmp/ccIvQYkT.s 			page 23


 1255 06c5 35       		.byte	0x35
 1256 06c6 BA020000 		.4byte	0x2ba
 1257 06ca 00       		.byte	0
 1258 06cb 07       		.uleb128 0x7
 1259 06cc 0C040000 		.4byte	.LASF103
 1260 06d0 0E       		.byte	0xe
 1261 06d1 37       		.byte	0x37
 1262 06d2 41010000 		.4byte	0x141
 1263 06d6 08       		.byte	0x8
 1264 06d7 00       		.byte	0
 1265 06d8 0A       		.uleb128 0xa
 1266 06d9 04       		.byte	0x4
 1267 06da B3060000 		.4byte	0x6b3
 1268 06de 06       		.uleb128 0x6
 1269 06df 53070000 		.4byte	.LASF104
 1270 06e3 10       		.byte	0x10
 1271 06e4 0F       		.byte	0xf
 1272 06e5 39       		.byte	0x39
 1273 06e6 0F070000 		.4byte	0x70f
 1274 06ea 07       		.uleb128 0x7
 1275 06eb 64020000 		.4byte	.LASF105
 1276 06ef 0F       		.byte	0xf
 1277 06f0 3A       		.byte	0x3a
 1278 06f1 BA020000 		.4byte	0x2ba
 1279 06f5 00       		.byte	0
 1280 06f6 07       		.uleb128 0x7
 1281 06f7 2D080000 		.4byte	.LASF106
 1282 06fb 0F       		.byte	0xf
 1283 06fc 3C       		.byte	0x3c
 1284 06fd 90020000 		.4byte	0x290
 1285 0701 08       		.byte	0x8
 1286 0702 07       		.uleb128 0x7
 1287 0703 12070000 		.4byte	.LASF107
 1288 0707 0F       		.byte	0xf
 1289 0708 3E       		.byte	0x3e
 1290 0709 75080000 		.4byte	0x875
 1291 070d 0C       		.byte	0xc
 1292 070e 00       		.byte	0
 1293 070f 0A       		.uleb128 0xa
 1294 0710 04       		.byte	0x4
 1295 0711 DE060000 		.4byte	0x6de
 1296 0715 0A       		.uleb128 0xa
 1297 0716 04       		.byte	0x4
 1298 0717 27070000 		.4byte	0x727
 1299 071b 05       		.uleb128 0x5
 1300 071c 15070000 		.4byte	0x715
 1301 0720 04       		.uleb128 0x4
 1302 0721 01       		.byte	0x1
 1303 0722 08       		.byte	0x8
 1304 0723 EC060000 		.4byte	.LASF108
 1305 0727 16       		.uleb128 0x16
 1306 0728 20070000 		.4byte	0x720
 1307 072c 0A       		.uleb128 0xa
 1308 072d 04       		.byte	0x4
 1309 072e C5040000 		.4byte	0x4c5
 1310 0732 0A       		.uleb128 0xa
 1311 0733 04       		.byte	0x4
ARM GAS  /tmp/ccIvQYkT.s 			page 24


 1312 0734 6F030000 		.4byte	0x36f
 1313 0738 17       		.uleb128 0x17
 1314 0739 C5040000 		.4byte	0x4c5
 1315 073d 48070000 		.4byte	0x748
 1316 0741 18       		.uleb128 0x18
 1317 0742 37000000 		.4byte	0x37
 1318 0746 3B       		.byte	0x3b
 1319 0747 00       		.byte	0
 1320 0748 19       		.uleb128 0x19
 1321 0749 636800   		.ascii	"ch\000"
 1322 074c 08       		.byte	0x8
 1323 074d 0902     		.2byte	0x209
 1324 074f 3C040000 		.4byte	0x43c
 1325 0753 03       		.uleb128 0x3
 1326 0754 00000000 		.4byte	.LASF109
 1327 0758 10       		.byte	0x10
 1328 0759 34       		.byte	0x34
 1329 075a 5C030000 		.4byte	0x35c
 1330 075e 13       		.uleb128 0x13
 1331 075f 16       		.byte	0x16
 1332 0760 11       		.byte	0x11
 1333 0761 34       		.byte	0x34
 1334 0762 3F080000 		.4byte	0x83f
 1335 0766 07       		.uleb128 0x7
 1336 0767 35080000 		.4byte	.LASF110
 1337 076b 11       		.byte	0x11
 1338 076c 35       		.byte	0x35
 1339 076d 3F080000 		.4byte	0x83f
 1340 0771 00       		.byte	0
 1341 0772 07       		.uleb128 0x7
 1342 0773 A0040000 		.4byte	.LASF111
 1343 0777 11       		.byte	0x11
 1344 0778 36       		.byte	0x36
 1345 0779 AD000000 		.4byte	0xad
 1346 077d 04       		.byte	0x4
 1347 077e 07       		.uleb128 0x7
 1348 077f C3060000 		.4byte	.LASF112
 1349 0783 11       		.byte	0x11
 1350 0784 37       		.byte	0x37
 1351 0785 AD000000 		.4byte	0xad
 1352 0789 05       		.byte	0x5
 1353 078a 07       		.uleb128 0x7
 1354 078b 22080000 		.4byte	.LASF113
 1355 078f 11       		.byte	0x11
 1356 0790 38       		.byte	0x38
 1357 0791 B8000000 		.4byte	0xb8
 1358 0795 06       		.byte	0x6
 1359 0796 07       		.uleb128 0x7
 1360 0797 64050000 		.4byte	.LASF114
 1361 079b 11       		.byte	0x11
 1362 079c 39       		.byte	0x39
 1363 079d AD000000 		.4byte	0xad
 1364 07a1 08       		.byte	0x8
 1365 07a2 07       		.uleb128 0x7
 1366 07a3 DD040000 		.4byte	.LASF115
 1367 07a7 11       		.byte	0x11
 1368 07a8 3A       		.byte	0x3a
ARM GAS  /tmp/ccIvQYkT.s 			page 25


 1369 07a9 AD000000 		.4byte	0xad
 1370 07ad 09       		.byte	0x9
 1371 07ae 07       		.uleb128 0x7
 1372 07af A3010000 		.4byte	.LASF116
 1373 07b3 11       		.byte	0x11
 1374 07b4 3B       		.byte	0x3b
 1375 07b5 AD000000 		.4byte	0xad
 1376 07b9 0A       		.byte	0xa
 1377 07ba 07       		.uleb128 0x7
 1378 07bb 9F060000 		.4byte	.LASF117
 1379 07bf 11       		.byte	0x11
 1380 07c0 3C       		.byte	0x3c
 1381 07c1 AD000000 		.4byte	0xad
 1382 07c5 0B       		.byte	0xb
 1383 07c6 07       		.uleb128 0x7
 1384 07c7 84070000 		.4byte	.LASF118
 1385 07cb 11       		.byte	0x11
 1386 07cc 3D       		.byte	0x3d
 1387 07cd AD000000 		.4byte	0xad
 1388 07d1 0C       		.byte	0xc
 1389 07d2 07       		.uleb128 0x7
 1390 07d3 6B060000 		.4byte	.LASF119
 1391 07d7 11       		.byte	0x11
 1392 07d8 3E       		.byte	0x3e
 1393 07d9 AD000000 		.4byte	0xad
 1394 07dd 0D       		.byte	0xd
 1395 07de 07       		.uleb128 0x7
 1396 07df D4030000 		.4byte	.LASF120
 1397 07e3 11       		.byte	0x11
 1398 07e4 3F       		.byte	0x3f
 1399 07e5 AD000000 		.4byte	0xad
 1400 07e9 0E       		.byte	0xe
 1401 07ea 07       		.uleb128 0x7
 1402 07eb E9040000 		.4byte	.LASF121
 1403 07ef 11       		.byte	0x11
 1404 07f0 40       		.byte	0x40
 1405 07f1 AD000000 		.4byte	0xad
 1406 07f5 0F       		.byte	0xf
 1407 07f6 07       		.uleb128 0x7
 1408 07f7 3F020000 		.4byte	.LASF122
 1409 07fb 11       		.byte	0x11
 1410 07fc 41       		.byte	0x41
 1411 07fd AD000000 		.4byte	0xad
 1412 0801 10       		.byte	0x10
 1413 0802 07       		.uleb128 0x7
 1414 0803 07020000 		.4byte	.LASF123
 1415 0807 11       		.byte	0x11
 1416 0808 43       		.byte	0x43
 1417 0809 AD000000 		.4byte	0xad
 1418 080d 11       		.byte	0x11
 1419 080e 07       		.uleb128 0x7
 1420 080f 4F020000 		.4byte	.LASF124
 1421 0813 11       		.byte	0x11
 1422 0814 44       		.byte	0x44
 1423 0815 AD000000 		.4byte	0xad
 1424 0819 12       		.byte	0x12
 1425 081a 07       		.uleb128 0x7
ARM GAS  /tmp/ccIvQYkT.s 			page 26


 1426 081b A8040000 		.4byte	.LASF125
 1427 081f 11       		.byte	0x11
 1428 0820 45       		.byte	0x45
 1429 0821 AD000000 		.4byte	0xad
 1430 0825 13       		.byte	0x13
 1431 0826 07       		.uleb128 0x7
 1432 0827 08060000 		.4byte	.LASF126
 1433 082b 11       		.byte	0x11
 1434 082c 46       		.byte	0x46
 1435 082d AD000000 		.4byte	0xad
 1436 0831 14       		.byte	0x14
 1437 0832 07       		.uleb128 0x7
 1438 0833 59040000 		.4byte	.LASF127
 1439 0837 11       		.byte	0x11
 1440 0838 48       		.byte	0x48
 1441 0839 AD000000 		.4byte	0xad
 1442 083d 15       		.byte	0x15
 1443 083e 00       		.byte	0
 1444 083f 17       		.uleb128 0x17
 1445 0840 20070000 		.4byte	0x720
 1446 0844 4F080000 		.4byte	0x84f
 1447 0848 18       		.uleb128 0x18
 1448 0849 37000000 		.4byte	0x37
 1449 084d 03       		.byte	0x3
 1450 084e 00       		.byte	0
 1451 084f 03       		.uleb128 0x3
 1452 0850 E5020000 		.4byte	.LASF128
 1453 0854 11       		.byte	0x11
 1454 0855 49       		.byte	0x49
 1455 0856 5E070000 		.4byte	0x75e
 1456 085a 16       		.uleb128 0x16
 1457 085b 4F080000 		.4byte	0x84f
 1458 085f 11       		.uleb128 0x11
 1459 0860 F5030000 		.4byte	.LASF129
 1460 0864 11       		.byte	0x11
 1461 0865 6E       		.byte	0x6e
 1462 0866 5A080000 		.4byte	0x85a
 1463 086a 03       		.uleb128 0x3
 1464 086b 6A030000 		.4byte	.LASF130
 1465 086f 0F       		.byte	0xf
 1466 0870 34       		.byte	0x34
 1467 0871 DE060000 		.4byte	0x6de
 1468 0875 0A       		.uleb128 0xa
 1469 0876 04       		.byte	0x4
 1470 0877 6A080000 		.4byte	0x86a
 1471 087b 03       		.uleb128 0x3
 1472 087c 7F010000 		.4byte	.LASF131
 1473 0880 12       		.byte	0x12
 1474 0881 36       		.byte	0x36
 1475 0882 86080000 		.4byte	0x886
 1476 0886 0A       		.uleb128 0xa
 1477 0887 04       		.byte	0x4
 1478 0888 8C080000 		.4byte	0x88c
 1479 088c 1A       		.uleb128 0x1a
 1480 088d 6D030000 		.4byte	0x36d
 1481 0891 9B080000 		.4byte	0x89b
 1482 0895 0D       		.uleb128 0xd
ARM GAS  /tmp/ccIvQYkT.s 			page 27


 1483 0896 2C000000 		.4byte	0x2c
 1484 089a 00       		.byte	0
 1485 089b 03       		.uleb128 0x3
 1486 089c D7020000 		.4byte	.LASF132
 1487 08a0 13       		.byte	0x13
 1488 08a1 3C       		.byte	0x3c
 1489 08a2 A6080000 		.4byte	0x8a6
 1490 08a6 06       		.uleb128 0x6
 1491 08a7 4B080000 		.4byte	.LASF133
 1492 08ab 20       		.byte	0x20
 1493 08ac 13       		.byte	0x13
 1494 08ad 4F       		.byte	0x4f
 1495 08ae D7080000 		.4byte	0x8d7
 1496 08b2 07       		.uleb128 0x7
 1497 08b3 D6070000 		.4byte	.LASF134
 1498 08b7 13       		.byte	0x13
 1499 08b8 50       		.byte	0x50
 1500 08b9 7B080000 		.4byte	0x87b
 1501 08bd 00       		.byte	0
 1502 08be 07       		.uleb128 0x7
 1503 08bf BA010000 		.4byte	.LASF135
 1504 08c3 13       		.byte	0x13
 1505 08c4 52       		.byte	0x52
 1506 08c5 F6080000 		.4byte	0x8f6
 1507 08c9 08       		.byte	0x8
 1508 08ca 07       		.uleb128 0x7
 1509 08cb 39020000 		.4byte	.LASF136
 1510 08cf 13       		.byte	0x13
 1511 08d0 54       		.byte	0x54
 1512 08d1 6A080000 		.4byte	0x86a
 1513 08d5 10       		.byte	0x10
 1514 08d6 00       		.byte	0
 1515 08d7 14       		.uleb128 0x14
 1516 08d8 04       		.byte	0x4
 1517 08d9 13       		.byte	0x13
 1518 08da 44       		.byte	0x44
 1519 08db F6080000 		.4byte	0x8f6
 1520 08df 1B       		.uleb128 0x1b
 1521 08e0 EA010000 		.4byte	.LASF137
 1522 08e4 13       		.byte	0x13
 1523 08e5 45       		.byte	0x45
 1524 08e6 17090000 		.4byte	0x917
 1525 08ea 1B       		.uleb128 0x1b
 1526 08eb CB060000 		.4byte	.LASF138
 1527 08ef 13       		.byte	0x13
 1528 08f0 46       		.byte	0x46
 1529 08f1 1D090000 		.4byte	0x91d
 1530 08f5 00       		.byte	0
 1531 08f6 1C       		.uleb128 0x1c
 1532 08f7 B9050000 		.4byte	.LASF169
 1533 08fb 08       		.byte	0x8
 1534 08fc 13       		.byte	0x13
 1535 08fd 41       		.byte	0x41
 1536 08fe 17090000 		.4byte	0x917
 1537 0902 1B       		.uleb128 0x1b
 1538 0903 72030000 		.4byte	.LASF139
 1539 0907 13       		.byte	0x13
ARM GAS  /tmp/ccIvQYkT.s 			page 28


 1540 0908 42       		.byte	0x42
 1541 0909 C5040000 		.4byte	0x4c5
 1542 090d 1D       		.uleb128 0x1d
 1543 090e 6800     		.ascii	"h\000"
 1544 0910 13       		.byte	0x13
 1545 0911 49       		.byte	0x49
 1546 0912 23090000 		.4byte	0x923
 1547 0916 00       		.byte	0
 1548 0917 0A       		.uleb128 0xa
 1549 0918 04       		.byte	0x4
 1550 0919 F6080000 		.4byte	0x8f6
 1551 091d 0A       		.uleb128 0xa
 1552 091e 04       		.byte	0x4
 1553 091f 9B080000 		.4byte	0x89b
 1554 0923 13       		.uleb128 0x13
 1555 0924 08       		.byte	0x8
 1556 0925 13       		.byte	0x13
 1557 0926 43       		.byte	0x43
 1558 0927 42090000 		.4byte	0x942
 1559 092b 12       		.uleb128 0x12
 1560 092c 7500     		.ascii	"u\000"
 1561 092e 13       		.byte	0x13
 1562 092f 47       		.byte	0x47
 1563 0930 D7080000 		.4byte	0x8d7
 1564 0934 00       		.byte	0
 1565 0935 07       		.uleb128 0x7
 1566 0936 02080000 		.4byte	.LASF140
 1567 093a 13       		.byte	0x13
 1568 093b 48       		.byte	0x48
 1569 093c 2C000000 		.4byte	0x2c
 1570 0940 04       		.byte	0x4
 1571 0941 00       		.byte	0
 1572 0942 06       		.uleb128 0x6
 1573 0943 8F070000 		.4byte	.LASF141
 1574 0947 04       		.byte	0x4
 1575 0948 14       		.byte	0x14
 1576 0949 38       		.byte	0x38
 1577 094a 5B090000 		.4byte	0x95b
 1578 094e 07       		.uleb128 0x7
 1579 094f 4E050000 		.4byte	.LASF142
 1580 0953 14       		.byte	0x14
 1581 0954 39       		.byte	0x39
 1582 0955 5B090000 		.4byte	0x95b
 1583 0959 00       		.byte	0
 1584 095a 00       		.byte	0
 1585 095b 0A       		.uleb128 0xa
 1586 095c 04       		.byte	0x4
 1587 095d 42090000 		.4byte	0x942
 1588 0961 13       		.uleb128 0x13
 1589 0962 0C       		.byte	0xc
 1590 0963 14       		.byte	0x14
 1591 0964 40       		.byte	0x40
 1592 0965 8E090000 		.4byte	0x98e
 1593 0969 07       		.uleb128 0x7
 1594 096a 5C070000 		.4byte	.LASF143
 1595 096e 14       		.byte	0x14
 1596 096f 41       		.byte	0x41
ARM GAS  /tmp/ccIvQYkT.s 			page 29


 1597 0970 5B090000 		.4byte	0x95b
 1598 0974 00       		.byte	0
 1599 0975 07       		.uleb128 0x7
 1600 0976 09050000 		.4byte	.LASF144
 1601 097a 14       		.byte	0x14
 1602 097b 42       		.byte	0x42
 1603 097c 2C000000 		.4byte	0x2c
 1604 0980 04       		.byte	0x4
 1605 0981 07       		.uleb128 0x7
 1606 0982 4D030000 		.4byte	.LASF145
 1607 0986 14       		.byte	0x14
 1608 0987 44       		.byte	0x44
 1609 0988 7B080000 		.4byte	0x87b
 1610 098c 08       		.byte	0x8
 1611 098d 00       		.byte	0
 1612 098e 03       		.uleb128 0x3
 1613 098f FE030000 		.4byte	.LASF146
 1614 0993 14       		.byte	0x14
 1615 0994 46       		.byte	0x46
 1616 0995 61090000 		.4byte	0x961
 1617 0999 1E       		.uleb128 0x1e
 1618 099a 23030000 		.4byte	.LASF148
 1619 099e 01       		.byte	0x1
 1620 099f CC       		.byte	0xcc
 1621 09a0 90020000 		.4byte	0x290
 1622 09a4 00000000 		.4byte	.LFB222
 1623 09a8 5A000000 		.4byte	.LFE222-.LFB222
 1624 09ac 01       		.uleb128 0x1
 1625 09ad 9C       		.byte	0x9c
 1626 09ae 110B0000 		.4byte	0xb11
 1627 09b2 1F       		.uleb128 0x1f
 1628 09b3 6D7000   		.ascii	"mp\000"
 1629 09b6 01       		.byte	0x1
 1630 09b7 CC       		.byte	0xcc
 1631 09b8 110B0000 		.4byte	0xb11
 1632 09bc 00000000 		.4byte	.LLST8
 1633 09c0 20       		.uleb128 0x20
 1634 09c1 29050000 		.4byte	.LASF147
 1635 09c5 01       		.byte	0x1
 1636 09c6 CC       		.byte	0xcc
 1637 09c7 20010000 		.4byte	0x120
 1638 09cb 1E000000 		.4byte	.LLST9
 1639 09cf 1F       		.uleb128 0x1f
 1640 09d0 706600   		.ascii	"pf\000"
 1641 09d3 01       		.byte	0x1
 1642 09d4 CD       		.byte	0xcd
 1643 09d5 53070000 		.4byte	0x753
 1644 09d9 3C000000 		.4byte	.LLST10
 1645 09dd 1F       		.uleb128 0x1f
 1646 09de 61726700 		.ascii	"arg\000"
 1647 09e2 01       		.byte	0x1
 1648 09e3 CD       		.byte	0xcd
 1649 09e4 6D030000 		.4byte	0x36d
 1650 09e8 5A000000 		.4byte	.LLST11
 1651 09ec 21       		.uleb128 0x21
 1652 09ed 77737000 		.ascii	"wsp\000"
 1653 09f1 01       		.byte	0x1
ARM GAS  /tmp/ccIvQYkT.s 			page 30


 1654 09f2 CE       		.byte	0xce
 1655 09f3 6D030000 		.4byte	0x36d
 1656 09f7 78000000 		.4byte	.LLST12
 1657 09fb 21       		.uleb128 0x21
 1658 09fc 747000   		.ascii	"tp\000"
 1659 09ff 01       		.byte	0x1
 1660 0a00 CF       		.byte	0xcf
 1661 0a01 90020000 		.4byte	0x290
 1662 0a05 A4000000 		.4byte	.LLST13
 1663 0a09 22       		.uleb128 0x22
 1664 0a0a 1F060000 		.4byte	.LASF152
 1665 0a0e 270B0000 		.4byte	0xb27
 1666 0a12 23       		.uleb128 0x23
 1667 0a13 730E0000 		.4byte	0xe73
 1668 0a17 2E000000 		.4byte	.LBB81
 1669 0a1b 02000000 		.4byte	.LBE81-.LBB81
 1670 0a1f 01       		.byte	0x1
 1671 0a20 E1       		.byte	0xe1
 1672 0a21 470A0000 		.4byte	0xa47
 1673 0a25 24       		.uleb128 0x24
 1674 0a26 850E0000 		.4byte	0xe85
 1675 0a2a 2E000000 		.4byte	.LBB82
 1676 0a2e 02000000 		.4byte	.LBE82-.LBB82
 1677 0a32 15       		.byte	0x15
 1678 0a33 5C01     		.2byte	0x15c
 1679 0a35 25       		.uleb128 0x25
 1680 0a36 8E0E0000 		.4byte	0xe8e
 1681 0a3a 2E000000 		.4byte	.LBB83
 1682 0a3e 02000000 		.4byte	.LBE83-.LBB83
 1683 0a42 0C       		.byte	0xc
 1684 0a43 C101     		.2byte	0x1c1
 1685 0a45 00       		.byte	0
 1686 0a46 00       		.byte	0
 1687 0a47 23       		.uleb128 0x23
 1688 0a48 580E0000 		.4byte	0xe58
 1689 0a4c 50000000 		.4byte	.LBB85
 1690 0a50 02000000 		.4byte	.LBE85-.LBB85
 1691 0a54 01       		.byte	0x1
 1692 0a55 E6       		.byte	0xe6
 1693 0a56 860A0000 		.4byte	0xa86
 1694 0a5a 26       		.uleb128 0x26
 1695 0a5b 50000000 		.4byte	.LBB86
 1696 0a5f 02000000 		.4byte	.LBE86-.LBB86
 1697 0a63 24       		.uleb128 0x24
 1698 0a64 7C0E0000 		.4byte	0xe7c
 1699 0a68 50000000 		.4byte	.LBB87
 1700 0a6c 02000000 		.4byte	.LBE87-.LBB87
 1701 0a70 15       		.byte	0x15
 1702 0a71 7301     		.2byte	0x173
 1703 0a73 25       		.uleb128 0x25
 1704 0a74 970E0000 		.4byte	0xe97
 1705 0a78 50000000 		.4byte	.LBB88
 1706 0a7c 02000000 		.4byte	.LBE88-.LBB88
 1707 0a80 0C       		.byte	0xc
 1708 0a81 CF01     		.2byte	0x1cf
 1709 0a83 00       		.byte	0
 1710 0a84 00       		.byte	0
ARM GAS  /tmp/ccIvQYkT.s 			page 31


 1711 0a85 00       		.byte	0
 1712 0a86 27       		.uleb128 0x27
 1713 0a87 12000000 		.4byte	.LVL18
 1714 0a8b A00E0000 		.4byte	0xea0
 1715 0a8f 9A0A0000 		.4byte	0xa9a
 1716 0a93 28       		.uleb128 0x28
 1717 0a94 01       		.uleb128 0x1
 1718 0a95 50       		.byte	0x50
 1719 0a96 02       		.uleb128 0x2
 1720 0a97 75       		.byte	0x75
 1721 0a98 00       		.sleb128 0
 1722 0a99 00       		.byte	0
 1723 0a9a 27       		.uleb128 0x27
 1724 0a9b 22000000 		.4byte	.LVL19
 1725 0a9f AB0E0000 		.4byte	0xeab
 1726 0aa3 BA0A0000 		.4byte	0xaba
 1727 0aa7 28       		.uleb128 0x28
 1728 0aa8 01       		.uleb128 0x1
 1729 0aa9 50       		.byte	0x50
 1730 0aaa 02       		.uleb128 0x2
 1731 0aab 74       		.byte	0x74
 1732 0aac 00       		.sleb128 0
 1733 0aad 28       		.uleb128 0x28
 1734 0aae 01       		.uleb128 0x1
 1735 0aaf 51       		.byte	0x51
 1736 0ab0 02       		.uleb128 0x2
 1737 0ab1 76       		.byte	0x76
 1738 0ab2 00       		.sleb128 0
 1739 0ab3 28       		.uleb128 0x28
 1740 0ab4 01       		.uleb128 0x1
 1741 0ab5 52       		.byte	0x52
 1742 0ab6 02       		.uleb128 0x2
 1743 0ab7 09       		.byte	0x9
 1744 0ab8 FF       		.byte	0xff
 1745 0ab9 00       		.byte	0
 1746 0aba 27       		.uleb128 0x27
 1747 0abb 2E000000 		.4byte	.LVL20
 1748 0abf AB0E0000 		.4byte	0xeab
 1749 0ac3 D40A0000 		.4byte	0xad4
 1750 0ac7 28       		.uleb128 0x28
 1751 0ac8 01       		.uleb128 0x1
 1752 0ac9 50       		.byte	0x50
 1753 0aca 02       		.uleb128 0x2
 1754 0acb 76       		.byte	0x76
 1755 0acc 00       		.sleb128 0
 1756 0acd 28       		.uleb128 0x28
 1757 0ace 01       		.uleb128 0x1
 1758 0acf 52       		.byte	0x52
 1759 0ad0 02       		.uleb128 0x2
 1760 0ad1 08       		.byte	0x8
 1761 0ad2 55       		.byte	0x55
 1762 0ad3 00       		.byte	0
 1763 0ad4 27       		.uleb128 0x27
 1764 0ad5 40000000 		.4byte	.LVL21
 1765 0ad9 B60E0000 		.4byte	0xeb6
 1766 0add FB0A0000 		.4byte	0xafb
 1767 0ae1 28       		.uleb128 0x28
ARM GAS  /tmp/ccIvQYkT.s 			page 32


 1768 0ae2 01       		.uleb128 0x1
 1769 0ae3 50       		.byte	0x50
 1770 0ae4 02       		.uleb128 0x2
 1771 0ae5 74       		.byte	0x74
 1772 0ae6 00       		.sleb128 0
 1773 0ae7 28       		.uleb128 0x28
 1774 0ae8 01       		.uleb128 0x1
 1775 0ae9 52       		.byte	0x52
 1776 0aea 02       		.uleb128 0x2
 1777 0aeb 77       		.byte	0x77
 1778 0aec 00       		.sleb128 0
 1779 0aed 28       		.uleb128 0x28
 1780 0aee 01       		.uleb128 0x1
 1781 0aef 53       		.byte	0x53
 1782 0af0 02       		.uleb128 0x2
 1783 0af1 78       		.byte	0x78
 1784 0af2 00       		.sleb128 0
 1785 0af3 28       		.uleb128 0x28
 1786 0af4 02       		.uleb128 0x2
 1787 0af5 7D       		.byte	0x7d
 1788 0af6 00       		.sleb128 0
 1789 0af7 02       		.uleb128 0x2
 1790 0af8 79       		.byte	0x79
 1791 0af9 00       		.sleb128 0
 1792 0afa 00       		.byte	0
 1793 0afb 29       		.uleb128 0x29
 1794 0afc 50000000 		.4byte	.LVL23
 1795 0b00 C10E0000 		.4byte	0xec1
 1796 0b04 28       		.uleb128 0x28
 1797 0b05 01       		.uleb128 0x1
 1798 0b06 50       		.byte	0x50
 1799 0b07 02       		.uleb128 0x2
 1800 0b08 74       		.byte	0x74
 1801 0b09 00       		.sleb128 0
 1802 0b0a 28       		.uleb128 0x28
 1803 0b0b 01       		.uleb128 0x1
 1804 0b0c 51       		.byte	0x51
 1805 0b0d 01       		.uleb128 0x1
 1806 0b0e 30       		.byte	0x30
 1807 0b0f 00       		.byte	0
 1808 0b10 00       		.byte	0
 1809 0b11 0A       		.uleb128 0xa
 1810 0b12 04       		.byte	0x4
 1811 0b13 8E090000 		.4byte	0x98e
 1812 0b17 17       		.uleb128 0x17
 1813 0b18 27070000 		.4byte	0x727
 1814 0b1c 270B0000 		.4byte	0xb27
 1815 0b20 18       		.uleb128 0x18
 1816 0b21 37000000 		.4byte	0x37
 1817 0b25 19       		.byte	0x19
 1818 0b26 00       		.byte	0
 1819 0b27 16       		.uleb128 0x16
 1820 0b28 170B0000 		.4byte	0xb17
 1821 0b2c 1E       		.uleb128 0x1e
 1822 0b2d BA020000 		.4byte	.LASF149
 1823 0b31 01       		.byte	0x1
 1824 0b32 98       		.byte	0x98
ARM GAS  /tmp/ccIvQYkT.s 			page 33


 1825 0b33 90020000 		.4byte	0x290
 1826 0b37 00000000 		.4byte	.LFB221
 1827 0b3b 54000000 		.4byte	.LFE221-.LFB221
 1828 0b3f 01       		.uleb128 0x1
 1829 0b40 9C       		.byte	0x9c
 1830 0b41 C10C0000 		.4byte	0xcc1
 1831 0b45 20       		.uleb128 0x20
 1832 0b46 E4010000 		.4byte	.LASF150
 1833 0b4a 01       		.byte	0x1
 1834 0b4b 98       		.byte	0x98
 1835 0b4c 1D090000 		.4byte	0x91d
 1836 0b50 C2000000 		.4byte	.LLST2
 1837 0b54 20       		.uleb128 0x20
 1838 0b55 02080000 		.4byte	.LASF140
 1839 0b59 01       		.byte	0x1
 1840 0b5a 98       		.byte	0x98
 1841 0b5b 2C000000 		.4byte	0x2c
 1842 0b5f E3000000 		.4byte	.LLST3
 1843 0b63 20       		.uleb128 0x20
 1844 0b64 29050000 		.4byte	.LASF147
 1845 0b68 01       		.byte	0x1
 1846 0b69 99       		.byte	0x99
 1847 0b6a 20010000 		.4byte	0x120
 1848 0b6e 01010000 		.4byte	.LLST4
 1849 0b72 1F       		.uleb128 0x1f
 1850 0b73 706600   		.ascii	"pf\000"
 1851 0b76 01       		.byte	0x1
 1852 0b77 99       		.byte	0x99
 1853 0b78 53070000 		.4byte	0x753
 1854 0b7c 1F010000 		.4byte	.LLST5
 1855 0b80 2A       		.uleb128 0x2a
 1856 0b81 61726700 		.ascii	"arg\000"
 1857 0b85 01       		.byte	0x1
 1858 0b86 99       		.byte	0x99
 1859 0b87 6D030000 		.4byte	0x36d
 1860 0b8b 02       		.uleb128 0x2
 1861 0b8c 91       		.byte	0x91
 1862 0b8d 00       		.sleb128 0
 1863 0b8e 21       		.uleb128 0x21
 1864 0b8f 77737000 		.ascii	"wsp\000"
 1865 0b93 01       		.byte	0x1
 1866 0b94 9A       		.byte	0x9a
 1867 0b95 6D030000 		.4byte	0x36d
 1868 0b99 3D010000 		.4byte	.LLST6
 1869 0b9d 21       		.uleb128 0x21
 1870 0b9e 747000   		.ascii	"tp\000"
 1871 0ba1 01       		.byte	0x1
 1872 0ba2 9B       		.byte	0x9b
 1873 0ba3 90020000 		.4byte	0x290
 1874 0ba7 69010000 		.4byte	.LLST7
 1875 0bab 23       		.uleb128 0x23
 1876 0bac 730E0000 		.4byte	0xe73
 1877 0bb0 2A000000 		.4byte	.LBB72
 1878 0bb4 02000000 		.4byte	.LBE72-.LBB72
 1879 0bb8 01       		.byte	0x1
 1880 0bb9 AB       		.byte	0xab
 1881 0bba E00B0000 		.4byte	0xbe0
ARM GAS  /tmp/ccIvQYkT.s 			page 34


 1882 0bbe 24       		.uleb128 0x24
 1883 0bbf 850E0000 		.4byte	0xe85
 1884 0bc3 2A000000 		.4byte	.LBB73
 1885 0bc7 02000000 		.4byte	.LBE73-.LBB73
 1886 0bcb 15       		.byte	0x15
 1887 0bcc 5C01     		.2byte	0x15c
 1888 0bce 25       		.uleb128 0x25
 1889 0bcf 8E0E0000 		.4byte	0xe8e
 1890 0bd3 2A000000 		.4byte	.LBB74
 1891 0bd7 02000000 		.4byte	.LBE74-.LBB74
 1892 0bdb 0C       		.byte	0xc
 1893 0bdc C101     		.2byte	0x1c1
 1894 0bde 00       		.byte	0
 1895 0bdf 00       		.byte	0
 1896 0be0 23       		.uleb128 0x23
 1897 0be1 580E0000 		.4byte	0xe58
 1898 0be5 4A000000 		.4byte	.LBB76
 1899 0be9 02000000 		.4byte	.LBE76-.LBB76
 1900 0bed 01       		.byte	0x1
 1901 0bee AF       		.byte	0xaf
 1902 0bef 1F0C0000 		.4byte	0xc1f
 1903 0bf3 26       		.uleb128 0x26
 1904 0bf4 4A000000 		.4byte	.LBB77
 1905 0bf8 02000000 		.4byte	.LBE77-.LBB77
 1906 0bfc 24       		.uleb128 0x24
 1907 0bfd 7C0E0000 		.4byte	0xe7c
 1908 0c01 4A000000 		.4byte	.LBB78
 1909 0c05 02000000 		.4byte	.LBE78-.LBB78
 1910 0c09 15       		.byte	0x15
 1911 0c0a 7301     		.2byte	0x173
 1912 0c0c 25       		.uleb128 0x25
 1913 0c0d 970E0000 		.4byte	0xe97
 1914 0c11 4A000000 		.4byte	.LBB79
 1915 0c15 02000000 		.4byte	.LBE79-.LBB79
 1916 0c19 0C       		.byte	0xc
 1917 0c1a CF01     		.2byte	0x1cf
 1918 0c1c 00       		.byte	0
 1919 0c1d 00       		.byte	0
 1920 0c1e 00       		.byte	0
 1921 0c1f 27       		.uleb128 0x27
 1922 0c20 10000000 		.4byte	.LVL10
 1923 0c24 CD0E0000 		.4byte	0xecd
 1924 0c28 3A0C0000 		.4byte	0xc3a
 1925 0c2c 28       		.uleb128 0x28
 1926 0c2d 01       		.uleb128 0x1
 1927 0c2e 50       		.byte	0x50
 1928 0c2f 03       		.uleb128 0x3
 1929 0c30 F3       		.byte	0xf3
 1930 0c31 01       		.uleb128 0x1
 1931 0c32 50       		.byte	0x50
 1932 0c33 28       		.uleb128 0x28
 1933 0c34 01       		.uleb128 0x1
 1934 0c35 51       		.byte	0x51
 1935 0c36 02       		.uleb128 0x2
 1936 0c37 75       		.byte	0x75
 1937 0c38 00       		.sleb128 0
 1938 0c39 00       		.byte	0
ARM GAS  /tmp/ccIvQYkT.s 			page 35


 1939 0c3a 27       		.uleb128 0x27
 1940 0c3b 20000000 		.4byte	.LVL11
 1941 0c3f AB0E0000 		.4byte	0xeab
 1942 0c43 5A0C0000 		.4byte	0xc5a
 1943 0c47 28       		.uleb128 0x28
 1944 0c48 01       		.uleb128 0x1
 1945 0c49 50       		.byte	0x50
 1946 0c4a 02       		.uleb128 0x2
 1947 0c4b 74       		.byte	0x74
 1948 0c4c 00       		.sleb128 0
 1949 0c4d 28       		.uleb128 0x28
 1950 0c4e 01       		.uleb128 0x1
 1951 0c4f 51       		.byte	0x51
 1952 0c50 02       		.uleb128 0x2
 1953 0c51 76       		.byte	0x76
 1954 0c52 00       		.sleb128 0
 1955 0c53 28       		.uleb128 0x28
 1956 0c54 01       		.uleb128 0x1
 1957 0c55 52       		.byte	0x52
 1958 0c56 02       		.uleb128 0x2
 1959 0c57 09       		.byte	0x9
 1960 0c58 FF       		.byte	0xff
 1961 0c59 00       		.byte	0
 1962 0c5a 27       		.uleb128 0x27
 1963 0c5b 2A000000 		.4byte	.LVL12
 1964 0c5f AB0E0000 		.4byte	0xeab
 1965 0c63 7D0C0000 		.4byte	0xc7d
 1966 0c67 28       		.uleb128 0x28
 1967 0c68 01       		.uleb128 0x1
 1968 0c69 50       		.byte	0x50
 1969 0c6a 02       		.uleb128 0x2
 1970 0c6b 76       		.byte	0x76
 1971 0c6c 00       		.sleb128 0
 1972 0c6d 28       		.uleb128 0x28
 1973 0c6e 01       		.uleb128 0x1
 1974 0c6f 51       		.byte	0x51
 1975 0c70 05       		.uleb128 0x5
 1976 0c71 74       		.byte	0x74
 1977 0c72 00       		.sleb128 0
 1978 0c73 75       		.byte	0x75
 1979 0c74 00       		.sleb128 0
 1980 0c75 22       		.byte	0x22
 1981 0c76 28       		.uleb128 0x28
 1982 0c77 01       		.uleb128 0x1
 1983 0c78 52       		.byte	0x52
 1984 0c79 02       		.uleb128 0x2
 1985 0c7a 08       		.byte	0x8
 1986 0c7b 55       		.byte	0x55
 1987 0c7c 00       		.byte	0
 1988 0c7d 27       		.uleb128 0x27
 1989 0c7e 3C000000 		.4byte	.LVL13
 1990 0c82 B60E0000 		.4byte	0xeb6
 1991 0c86 AB0C0000 		.4byte	0xcab
 1992 0c8a 28       		.uleb128 0x28
 1993 0c8b 01       		.uleb128 0x1
 1994 0c8c 50       		.byte	0x50
 1995 0c8d 02       		.uleb128 0x2
ARM GAS  /tmp/ccIvQYkT.s 			page 36


 1996 0c8e 74       		.byte	0x74
 1997 0c8f 00       		.sleb128 0
 1998 0c90 28       		.uleb128 0x28
 1999 0c91 01       		.uleb128 0x1
 2000 0c92 51       		.byte	0x51
 2001 0c93 02       		.uleb128 0x2
 2002 0c94 75       		.byte	0x75
 2003 0c95 00       		.sleb128 0
 2004 0c96 28       		.uleb128 0x28
 2005 0c97 01       		.uleb128 0x1
 2006 0c98 52       		.byte	0x52
 2007 0c99 02       		.uleb128 0x2
 2008 0c9a 77       		.byte	0x77
 2009 0c9b 00       		.sleb128 0
 2010 0c9c 28       		.uleb128 0x28
 2011 0c9d 01       		.uleb128 0x1
 2012 0c9e 53       		.byte	0x53
 2013 0c9f 02       		.uleb128 0x2
 2014 0ca0 78       		.byte	0x78
 2015 0ca1 00       		.sleb128 0
 2016 0ca2 28       		.uleb128 0x28
 2017 0ca3 02       		.uleb128 0x2
 2018 0ca4 7D       		.byte	0x7d
 2019 0ca5 00       		.sleb128 0
 2020 0ca6 03       		.uleb128 0x3
 2021 0ca7 91       		.byte	0x91
 2022 0ca8 00       		.sleb128 0
 2023 0ca9 06       		.byte	0x6
 2024 0caa 00       		.byte	0
 2025 0cab 29       		.uleb128 0x29
 2026 0cac 4A000000 		.4byte	.LVL15
 2027 0cb0 C10E0000 		.4byte	0xec1
 2028 0cb4 28       		.uleb128 0x28
 2029 0cb5 01       		.uleb128 0x1
 2030 0cb6 50       		.byte	0x50
 2031 0cb7 02       		.uleb128 0x2
 2032 0cb8 74       		.byte	0x74
 2033 0cb9 00       		.sleb128 0
 2034 0cba 28       		.uleb128 0x28
 2035 0cbb 01       		.uleb128 0x1
 2036 0cbc 51       		.byte	0x51
 2037 0cbd 01       		.uleb128 0x1
 2038 0cbe 30       		.byte	0x30
 2039 0cbf 00       		.byte	0
 2040 0cc0 00       		.byte	0
 2041 0cc1 2B       		.uleb128 0x2b
 2042 0cc2 42060000 		.4byte	.LASF170
 2043 0cc6 01       		.byte	0x1
 2044 0cc7 5B       		.byte	0x5b
 2045 0cc8 00000000 		.4byte	.LFB220
 2046 0ccc 4E000000 		.4byte	.LFE220-.LFB220
 2047 0cd0 01       		.uleb128 0x1
 2048 0cd1 9C       		.byte	0x9c
 2049 0cd2 8F0D0000 		.4byte	0xd8f
 2050 0cd6 1F       		.uleb128 0x1f
 2051 0cd7 747000   		.ascii	"tp\000"
 2052 0cda 01       		.byte	0x1
ARM GAS  /tmp/ccIvQYkT.s 			page 37


 2053 0cdb 5B       		.byte	0x5b
 2054 0cdc 90020000 		.4byte	0x290
 2055 0ce0 87010000 		.4byte	.LLST0
 2056 0ce4 2C       		.uleb128 0x2c
 2057 0ce5 6F050000 		.4byte	.LASF151
 2058 0ce9 01       		.byte	0x1
 2059 0cea 5C       		.byte	0x5c
 2060 0ceb 0A010000 		.4byte	0x10a
 2061 0cef CC010000 		.4byte	.LLST1
 2062 0cf3 22       		.uleb128 0x22
 2063 0cf4 1F060000 		.4byte	.LASF152
 2064 0cf8 9F0D0000 		.4byte	0xd9f
 2065 0cfc 23       		.uleb128 0x23
 2066 0cfd 730E0000 		.4byte	0xe73
 2067 0d01 02000000 		.4byte	.LBB63
 2068 0d05 02000000 		.4byte	.LBE63-.LBB63
 2069 0d09 01       		.byte	0x1
 2070 0d0a 5E       		.byte	0x5e
 2071 0d0b 310D0000 		.4byte	0xd31
 2072 0d0f 24       		.uleb128 0x24
 2073 0d10 850E0000 		.4byte	0xe85
 2074 0d14 02000000 		.4byte	.LBB64
 2075 0d18 02000000 		.4byte	.LBE64-.LBB64
 2076 0d1c 15       		.byte	0x15
 2077 0d1d 5C01     		.2byte	0x15c
 2078 0d1f 25       		.uleb128 0x25
 2079 0d20 8E0E0000 		.4byte	0xe8e
 2080 0d24 02000000 		.4byte	.LBB65
 2081 0d28 02000000 		.4byte	.LBE65-.LBB65
 2082 0d2c 0C       		.byte	0xc
 2083 0d2d C101     		.2byte	0x1c1
 2084 0d2f 00       		.byte	0
 2085 0d30 00       		.byte	0
 2086 0d31 23       		.uleb128 0x23
 2087 0d32 580E0000 		.4byte	0xe58
 2088 0d36 10000000 		.4byte	.LBB67
 2089 0d3a 02000000 		.4byte	.LBE67-.LBB67
 2090 0d3e 01       		.byte	0x1
 2091 0d3f 62       		.byte	0x62
 2092 0d40 700D0000 		.4byte	0xd70
 2093 0d44 26       		.uleb128 0x26
 2094 0d45 10000000 		.4byte	.LBB68
 2095 0d49 02000000 		.4byte	.LBE68-.LBB68
 2096 0d4d 24       		.uleb128 0x24
 2097 0d4e 7C0E0000 		.4byte	0xe7c
 2098 0d52 10000000 		.4byte	.LBB69
 2099 0d56 02000000 		.4byte	.LBE69-.LBB69
 2100 0d5a 15       		.byte	0x15
 2101 0d5b 7301     		.2byte	0x173
 2102 0d5d 25       		.uleb128 0x25
 2103 0d5e 970E0000 		.4byte	0xe97
 2104 0d62 10000000 		.4byte	.LBB70
 2105 0d66 02000000 		.4byte	.LBE70-.LBB70
 2106 0d6a 0C       		.byte	0xc
 2107 0d6b CF01     		.2byte	0x1cf
 2108 0d6d 00       		.byte	0
 2109 0d6e 00       		.byte	0
ARM GAS  /tmp/ccIvQYkT.s 			page 38


 2110 0d6f 00       		.byte	0
 2111 0d70 2D       		.uleb128 0x2d
 2112 0d71 3E000000 		.4byte	.LVL5
 2113 0d75 D80E0000 		.4byte	0xed8
 2114 0d79 850D0000 		.4byte	0xd85
 2115 0d7d 28       		.uleb128 0x28
 2116 0d7e 01       		.uleb128 0x1
 2117 0d7f 50       		.byte	0x50
 2118 0d80 03       		.uleb128 0x3
 2119 0d81 F3       		.byte	0xf3
 2120 0d82 01       		.uleb128 0x1
 2121 0d83 50       		.byte	0x50
 2122 0d84 00       		.byte	0
 2123 0d85 2E       		.uleb128 0x2e
 2124 0d86 4E000000 		.4byte	.LVL8
 2125 0d8a E30E0000 		.4byte	0xee3
 2126 0d8e 00       		.byte	0
 2127 0d8f 17       		.uleb128 0x17
 2128 0d90 27070000 		.4byte	0x727
 2129 0d94 9F0D0000 		.4byte	0xd9f
 2130 0d98 18       		.uleb128 0x18
 2131 0d99 37000000 		.4byte	0x37
 2132 0d9d 0C       		.byte	0xc
 2133 0d9e 00       		.byte	0
 2134 0d9f 16       		.uleb128 0x16
 2135 0da0 8F0D0000 		.4byte	0xd8f
 2136 0da4 1E       		.uleb128 0x1e
 2137 0da5 89040000 		.4byte	.LASF153
 2138 0da9 01       		.byte	0x1
 2139 0daa 44       		.byte	0x44
 2140 0dab 90020000 		.4byte	0x290
 2141 0daf 00000000 		.4byte	.LFB219
 2142 0db3 10000000 		.4byte	.LFE219-.LFB219
 2143 0db7 01       		.uleb128 0x1
 2144 0db8 9C       		.byte	0x9c
 2145 0db9 430E0000 		.4byte	0xe43
 2146 0dbd 2A       		.uleb128 0x2a
 2147 0dbe 747000   		.ascii	"tp\000"
 2148 0dc1 01       		.byte	0x1
 2149 0dc2 44       		.byte	0x44
 2150 0dc3 90020000 		.4byte	0x290
 2151 0dc7 01       		.uleb128 0x1
 2152 0dc8 50       		.byte	0x50
 2153 0dc9 22       		.uleb128 0x22
 2154 0dca 1F060000 		.4byte	.LASF152
 2155 0dce 530E0000 		.4byte	0xe53
 2156 0dd2 23       		.uleb128 0x23
 2157 0dd3 730E0000 		.4byte	0xe73
 2158 0dd7 00000000 		.4byte	.LBB54
 2159 0ddb 02000000 		.4byte	.LBE54-.LBB54
 2160 0ddf 01       		.byte	0x1
 2161 0de0 46       		.byte	0x46
 2162 0de1 070E0000 		.4byte	0xe07
 2163 0de5 24       		.uleb128 0x24
 2164 0de6 850E0000 		.4byte	0xe85
 2165 0dea 00000000 		.4byte	.LBB55
 2166 0dee 02000000 		.4byte	.LBE55-.LBB55
ARM GAS  /tmp/ccIvQYkT.s 			page 39


 2167 0df2 15       		.byte	0x15
 2168 0df3 5C01     		.2byte	0x15c
 2169 0df5 25       		.uleb128 0x25
 2170 0df6 8E0E0000 		.4byte	0xe8e
 2171 0dfa 00000000 		.4byte	.LBB56
 2172 0dfe 02000000 		.4byte	.LBE56-.LBB56
 2173 0e02 0C       		.byte	0xc
 2174 0e03 C101     		.2byte	0x1c1
 2175 0e05 00       		.byte	0
 2176 0e06 00       		.byte	0
 2177 0e07 2F       		.uleb128 0x2f
 2178 0e08 580E0000 		.4byte	0xe58
 2179 0e0c 0C000000 		.4byte	.LBB58
 2180 0e10 02000000 		.4byte	.LBE58-.LBB58
 2181 0e14 01       		.byte	0x1
 2182 0e15 49       		.byte	0x49
 2183 0e16 26       		.uleb128 0x26
 2184 0e17 0C000000 		.4byte	.LBB59
 2185 0e1b 02000000 		.4byte	.LBE59-.LBB59
 2186 0e1f 24       		.uleb128 0x24
 2187 0e20 7C0E0000 		.4byte	0xe7c
 2188 0e24 0C000000 		.4byte	.LBB60
 2189 0e28 02000000 		.4byte	.LBE60-.LBB60
 2190 0e2c 15       		.byte	0x15
 2191 0e2d 7301     		.2byte	0x173
 2192 0e2f 25       		.uleb128 0x25
 2193 0e30 970E0000 		.4byte	0xe97
 2194 0e34 0C000000 		.4byte	.LBB61
 2195 0e38 02000000 		.4byte	.LBE61-.LBB61
 2196 0e3c 0C       		.byte	0xc
 2197 0e3d CF01     		.2byte	0x1cf
 2198 0e3f 00       		.byte	0
 2199 0e40 00       		.byte	0
 2200 0e41 00       		.byte	0
 2201 0e42 00       		.byte	0
 2202 0e43 17       		.uleb128 0x17
 2203 0e44 27070000 		.4byte	0x727
 2204 0e48 530E0000 		.4byte	0xe53
 2205 0e4c 18       		.uleb128 0x18
 2206 0e4d 37000000 		.4byte	0x37
 2207 0e51 0B       		.byte	0xb
 2208 0e52 00       		.byte	0
 2209 0e53 16       		.uleb128 0x16
 2210 0e54 430E0000 		.4byte	0xe43
 2211 0e58 30       		.uleb128 0x30
 2212 0e59 16080000 		.4byte	.LASF171
 2213 0e5d 15       		.byte	0x15
 2214 0e5e 6601     		.2byte	0x166
 2215 0e60 03       		.byte	0x3
 2216 0e61 730E0000 		.4byte	0xe73
 2217 0e65 31       		.uleb128 0x31
 2218 0e66 1F060000 		.4byte	.LASF152
 2219 0e6a 530E0000 		.4byte	0xe53
 2220 0e6e 16080000 		.4byte	.LASF171
 2221 0e72 00       		.byte	0
 2222 0e73 32       		.uleb128 0x32
 2223 0e74 28060000 		.4byte	.LASF154
ARM GAS  /tmp/ccIvQYkT.s 			page 40


 2224 0e78 15       		.byte	0x15
 2225 0e79 5A01     		.2byte	0x15a
 2226 0e7b 03       		.byte	0x3
 2227 0e7c 32       		.uleb128 0x32
 2228 0e7d 7E020000 		.4byte	.LASF155
 2229 0e81 0C       		.byte	0xc
 2230 0e82 CA01     		.2byte	0x1ca
 2231 0e84 03       		.byte	0x3
 2232 0e85 32       		.uleb128 0x32
 2233 0e86 75010000 		.4byte	.LASF156
 2234 0e8a 0C       		.byte	0xc
 2235 0e8b BC01     		.2byte	0x1bc
 2236 0e8d 03       		.byte	0x3
 2237 0e8e 32       		.uleb128 0x32
 2238 0e8f 56050000 		.4byte	.LASF157
 2239 0e93 02       		.byte	0x2
 2240 0e94 5401     		.2byte	0x154
 2241 0e96 03       		.byte	0x3
 2242 0e97 32       		.uleb128 0x32
 2243 0e98 36050000 		.4byte	.LASF158
 2244 0e9c 02       		.byte	0x2
 2245 0e9d 4901     		.2byte	0x149
 2246 0e9f 03       		.byte	0x3
 2247 0ea0 33       		.uleb128 0x33
 2248 0ea1 BF070000 		.4byte	.LASF159
 2249 0ea5 BF070000 		.4byte	.LASF159
 2250 0ea9 14       		.byte	0x14
 2251 0eaa 6F       		.byte	0x6f
 2252 0eab 33       		.uleb128 0x33
 2253 0eac 32060000 		.4byte	.LASF160
 2254 0eb0 32060000 		.4byte	.LASF160
 2255 0eb4 10       		.byte	0x10
 2256 0eb5 85       		.byte	0x85
 2257 0eb6 33       		.uleb128 0x33
 2258 0eb7 94020000 		.4byte	.LASF161
 2259 0ebb 94020000 		.4byte	.LASF161
 2260 0ebf 10       		.byte	0x10
 2261 0ec0 87       		.byte	0x87
 2262 0ec1 34       		.uleb128 0x34
 2263 0ec2 2F040000 		.4byte	.LASF162
 2264 0ec6 2F040000 		.4byte	.LASF162
 2265 0eca 08       		.byte	0x8
 2266 0ecb 1602     		.2byte	0x216
 2267 0ecd 33       		.uleb128 0x33
 2268 0ece 5F060000 		.4byte	.LASF163
 2269 0ed2 5F060000 		.4byte	.LASF163
 2270 0ed6 13       		.byte	0x13
 2271 0ed7 67       		.byte	0x67
 2272 0ed8 33       		.uleb128 0x33
 2273 0ed9 6C020000 		.4byte	.LASF164
 2274 0edd 6C020000 		.4byte	.LASF164
 2275 0ee1 13       		.byte	0x13
 2276 0ee2 68       		.byte	0x68
 2277 0ee3 33       		.uleb128 0x33
 2278 0ee4 CB070000 		.4byte	.LASF165
 2279 0ee8 CB070000 		.4byte	.LASF165
 2280 0eec 14       		.byte	0x14
ARM GAS  /tmp/ccIvQYkT.s 			page 41


 2281 0eed 71       		.byte	0x71
 2282 0eee 00       		.byte	0
 2283              		.section	.debug_abbrev,"",%progbits
 2284              	.Ldebug_abbrev0:
 2285 0000 01       		.uleb128 0x1
 2286 0001 11       		.uleb128 0x11
 2287 0002 01       		.byte	0x1
 2288 0003 25       		.uleb128 0x25
 2289 0004 0E       		.uleb128 0xe
 2290 0005 13       		.uleb128 0x13
 2291 0006 0B       		.uleb128 0xb
 2292 0007 03       		.uleb128 0x3
 2293 0008 0E       		.uleb128 0xe
 2294 0009 1B       		.uleb128 0x1b
 2295 000a 0E       		.uleb128 0xe
 2296 000b 55       		.uleb128 0x55
 2297 000c 17       		.uleb128 0x17
 2298 000d 11       		.uleb128 0x11
 2299 000e 01       		.uleb128 0x1
 2300 000f 10       		.uleb128 0x10
 2301 0010 17       		.uleb128 0x17
 2302 0011 00       		.byte	0
 2303 0012 00       		.byte	0
 2304 0013 02       		.uleb128 0x2
 2305 0014 24       		.uleb128 0x24
 2306 0015 00       		.byte	0
 2307 0016 0B       		.uleb128 0xb
 2308 0017 0B       		.uleb128 0xb
 2309 0018 3E       		.uleb128 0x3e
 2310 0019 0B       		.uleb128 0xb
 2311 001a 03       		.uleb128 0x3
 2312 001b 08       		.uleb128 0x8
 2313 001c 00       		.byte	0
 2314 001d 00       		.byte	0
 2315 001e 03       		.uleb128 0x3
 2316 001f 16       		.uleb128 0x16
 2317 0020 00       		.byte	0
 2318 0021 03       		.uleb128 0x3
 2319 0022 0E       		.uleb128 0xe
 2320 0023 3A       		.uleb128 0x3a
 2321 0024 0B       		.uleb128 0xb
 2322 0025 3B       		.uleb128 0x3b
 2323 0026 0B       		.uleb128 0xb
 2324 0027 49       		.uleb128 0x49
 2325 0028 13       		.uleb128 0x13
 2326 0029 00       		.byte	0
 2327 002a 00       		.byte	0
 2328 002b 04       		.uleb128 0x4
 2329 002c 24       		.uleb128 0x24
 2330 002d 00       		.byte	0
 2331 002e 0B       		.uleb128 0xb
 2332 002f 0B       		.uleb128 0xb
 2333 0030 3E       		.uleb128 0x3e
 2334 0031 0B       		.uleb128 0xb
 2335 0032 03       		.uleb128 0x3
 2336 0033 0E       		.uleb128 0xe
 2337 0034 00       		.byte	0
ARM GAS  /tmp/ccIvQYkT.s 			page 42


 2338 0035 00       		.byte	0
 2339 0036 05       		.uleb128 0x5
 2340 0037 35       		.uleb128 0x35
 2341 0038 00       		.byte	0
 2342 0039 49       		.uleb128 0x49
 2343 003a 13       		.uleb128 0x13
 2344 003b 00       		.byte	0
 2345 003c 00       		.byte	0
 2346 003d 06       		.uleb128 0x6
 2347 003e 13       		.uleb128 0x13
 2348 003f 01       		.byte	0x1
 2349 0040 03       		.uleb128 0x3
 2350 0041 0E       		.uleb128 0xe
 2351 0042 0B       		.uleb128 0xb
 2352 0043 0B       		.uleb128 0xb
 2353 0044 3A       		.uleb128 0x3a
 2354 0045 0B       		.uleb128 0xb
 2355 0046 3B       		.uleb128 0x3b
 2356 0047 0B       		.uleb128 0xb
 2357 0048 01       		.uleb128 0x1
 2358 0049 13       		.uleb128 0x13
 2359 004a 00       		.byte	0
 2360 004b 00       		.byte	0
 2361 004c 07       		.uleb128 0x7
 2362 004d 0D       		.uleb128 0xd
 2363 004e 00       		.byte	0
 2364 004f 03       		.uleb128 0x3
 2365 0050 0E       		.uleb128 0xe
 2366 0051 3A       		.uleb128 0x3a
 2367 0052 0B       		.uleb128 0xb
 2368 0053 3B       		.uleb128 0x3b
 2369 0054 0B       		.uleb128 0xb
 2370 0055 49       		.uleb128 0x49
 2371 0056 13       		.uleb128 0x13
 2372 0057 38       		.uleb128 0x38
 2373 0058 0B       		.uleb128 0xb
 2374 0059 00       		.byte	0
 2375 005a 00       		.byte	0
 2376 005b 08       		.uleb128 0x8
 2377 005c 0D       		.uleb128 0xd
 2378 005d 00       		.byte	0
 2379 005e 03       		.uleb128 0x3
 2380 005f 08       		.uleb128 0x8
 2381 0060 3A       		.uleb128 0x3a
 2382 0061 0B       		.uleb128 0xb
 2383 0062 3B       		.uleb128 0x3b
 2384 0063 05       		.uleb128 0x5
 2385 0064 49       		.uleb128 0x49
 2386 0065 13       		.uleb128 0x13
 2387 0066 38       		.uleb128 0x38
 2388 0067 0B       		.uleb128 0xb
 2389 0068 00       		.byte	0
 2390 0069 00       		.byte	0
 2391 006a 09       		.uleb128 0x9
 2392 006b 0D       		.uleb128 0xd
 2393 006c 00       		.byte	0
 2394 006d 03       		.uleb128 0x3
ARM GAS  /tmp/ccIvQYkT.s 			page 43


 2395 006e 0E       		.uleb128 0xe
 2396 006f 3A       		.uleb128 0x3a
 2397 0070 0B       		.uleb128 0xb
 2398 0071 3B       		.uleb128 0x3b
 2399 0072 05       		.uleb128 0x5
 2400 0073 49       		.uleb128 0x49
 2401 0074 13       		.uleb128 0x13
 2402 0075 38       		.uleb128 0x38
 2403 0076 0B       		.uleb128 0xb
 2404 0077 00       		.byte	0
 2405 0078 00       		.byte	0
 2406 0079 0A       		.uleb128 0xa
 2407 007a 0F       		.uleb128 0xf
 2408 007b 00       		.byte	0
 2409 007c 0B       		.uleb128 0xb
 2410 007d 0B       		.uleb128 0xb
 2411 007e 49       		.uleb128 0x49
 2412 007f 13       		.uleb128 0x13
 2413 0080 00       		.byte	0
 2414 0081 00       		.byte	0
 2415 0082 0B       		.uleb128 0xb
 2416 0083 13       		.uleb128 0x13
 2417 0084 01       		.byte	0x1
 2418 0085 03       		.uleb128 0x3
 2419 0086 0E       		.uleb128 0xe
 2420 0087 0B       		.uleb128 0xb
 2421 0088 0B       		.uleb128 0xb
 2422 0089 3A       		.uleb128 0x3a
 2423 008a 0B       		.uleb128 0xb
 2424 008b 3B       		.uleb128 0x3b
 2425 008c 05       		.uleb128 0x5
 2426 008d 01       		.uleb128 0x1
 2427 008e 13       		.uleb128 0x13
 2428 008f 00       		.byte	0
 2429 0090 00       		.byte	0
 2430 0091 0C       		.uleb128 0xc
 2431 0092 15       		.uleb128 0x15
 2432 0093 01       		.byte	0x1
 2433 0094 27       		.uleb128 0x27
 2434 0095 19       		.uleb128 0x19
 2435 0096 01       		.uleb128 0x1
 2436 0097 13       		.uleb128 0x13
 2437 0098 00       		.byte	0
 2438 0099 00       		.byte	0
 2439 009a 0D       		.uleb128 0xd
 2440 009b 05       		.uleb128 0x5
 2441 009c 00       		.byte	0
 2442 009d 49       		.uleb128 0x49
 2443 009e 13       		.uleb128 0x13
 2444 009f 00       		.byte	0
 2445 00a0 00       		.byte	0
 2446 00a1 0E       		.uleb128 0xe
 2447 00a2 0F       		.uleb128 0xf
 2448 00a3 00       		.byte	0
 2449 00a4 0B       		.uleb128 0xb
 2450 00a5 0B       		.uleb128 0xb
 2451 00a6 00       		.byte	0
ARM GAS  /tmp/ccIvQYkT.s 			page 44


 2452 00a7 00       		.byte	0
 2453 00a8 0F       		.uleb128 0xf
 2454 00a9 13       		.uleb128 0x13
 2455 00aa 01       		.byte	0x1
 2456 00ab 03       		.uleb128 0x3
 2457 00ac 0E       		.uleb128 0xe
 2458 00ad 0B       		.uleb128 0xb
 2459 00ae 05       		.uleb128 0x5
 2460 00af 3A       		.uleb128 0x3a
 2461 00b0 0B       		.uleb128 0xb
 2462 00b1 3B       		.uleb128 0x3b
 2463 00b2 05       		.uleb128 0x5
 2464 00b3 01       		.uleb128 0x1
 2465 00b4 13       		.uleb128 0x13
 2466 00b5 00       		.byte	0
 2467 00b6 00       		.byte	0
 2468 00b7 10       		.uleb128 0x10
 2469 00b8 34       		.uleb128 0x34
 2470 00b9 00       		.byte	0
 2471 00ba 03       		.uleb128 0x3
 2472 00bb 0E       		.uleb128 0xe
 2473 00bc 3A       		.uleb128 0x3a
 2474 00bd 0B       		.uleb128 0xb
 2475 00be 3B       		.uleb128 0x3b
 2476 00bf 05       		.uleb128 0x5
 2477 00c0 49       		.uleb128 0x49
 2478 00c1 13       		.uleb128 0x13
 2479 00c2 3F       		.uleb128 0x3f
 2480 00c3 19       		.uleb128 0x19
 2481 00c4 3C       		.uleb128 0x3c
 2482 00c5 19       		.uleb128 0x19
 2483 00c6 00       		.byte	0
 2484 00c7 00       		.byte	0
 2485 00c8 11       		.uleb128 0x11
 2486 00c9 34       		.uleb128 0x34
 2487 00ca 00       		.byte	0
 2488 00cb 03       		.uleb128 0x3
 2489 00cc 0E       		.uleb128 0xe
 2490 00cd 3A       		.uleb128 0x3a
 2491 00ce 0B       		.uleb128 0xb
 2492 00cf 3B       		.uleb128 0x3b
 2493 00d0 0B       		.uleb128 0xb
 2494 00d1 49       		.uleb128 0x49
 2495 00d2 13       		.uleb128 0x13
 2496 00d3 3F       		.uleb128 0x3f
 2497 00d4 19       		.uleb128 0x19
 2498 00d5 3C       		.uleb128 0x3c
 2499 00d6 19       		.uleb128 0x19
 2500 00d7 00       		.byte	0
 2501 00d8 00       		.byte	0
 2502 00d9 12       		.uleb128 0x12
 2503 00da 0D       		.uleb128 0xd
 2504 00db 00       		.byte	0
 2505 00dc 03       		.uleb128 0x3
 2506 00dd 08       		.uleb128 0x8
 2507 00de 3A       		.uleb128 0x3a
 2508 00df 0B       		.uleb128 0xb
ARM GAS  /tmp/ccIvQYkT.s 			page 45


 2509 00e0 3B       		.uleb128 0x3b
 2510 00e1 0B       		.uleb128 0xb
 2511 00e2 49       		.uleb128 0x49
 2512 00e3 13       		.uleb128 0x13
 2513 00e4 38       		.uleb128 0x38
 2514 00e5 0B       		.uleb128 0xb
 2515 00e6 00       		.byte	0
 2516 00e7 00       		.byte	0
 2517 00e8 13       		.uleb128 0x13
 2518 00e9 13       		.uleb128 0x13
 2519 00ea 01       		.byte	0x1
 2520 00eb 0B       		.uleb128 0xb
 2521 00ec 0B       		.uleb128 0xb
 2522 00ed 3A       		.uleb128 0x3a
 2523 00ee 0B       		.uleb128 0xb
 2524 00ef 3B       		.uleb128 0x3b
 2525 00f0 0B       		.uleb128 0xb
 2526 00f1 01       		.uleb128 0x1
 2527 00f2 13       		.uleb128 0x13
 2528 00f3 00       		.byte	0
 2529 00f4 00       		.byte	0
 2530 00f5 14       		.uleb128 0x14
 2531 00f6 17       		.uleb128 0x17
 2532 00f7 01       		.byte	0x1
 2533 00f8 0B       		.uleb128 0xb
 2534 00f9 0B       		.uleb128 0xb
 2535 00fa 3A       		.uleb128 0x3a
 2536 00fb 0B       		.uleb128 0xb
 2537 00fc 3B       		.uleb128 0x3b
 2538 00fd 0B       		.uleb128 0xb
 2539 00fe 01       		.uleb128 0x1
 2540 00ff 13       		.uleb128 0x13
 2541 0100 00       		.byte	0
 2542 0101 00       		.byte	0
 2543 0102 15       		.uleb128 0x15
 2544 0103 0D       		.uleb128 0xd
 2545 0104 00       		.byte	0
 2546 0105 03       		.uleb128 0x3
 2547 0106 0E       		.uleb128 0xe
 2548 0107 3A       		.uleb128 0x3a
 2549 0108 0B       		.uleb128 0xb
 2550 0109 3B       		.uleb128 0x3b
 2551 010a 05       		.uleb128 0x5
 2552 010b 49       		.uleb128 0x49
 2553 010c 13       		.uleb128 0x13
 2554 010d 00       		.byte	0
 2555 010e 00       		.byte	0
 2556 010f 16       		.uleb128 0x16
 2557 0110 26       		.uleb128 0x26
 2558 0111 00       		.byte	0
 2559 0112 49       		.uleb128 0x49
 2560 0113 13       		.uleb128 0x13
 2561 0114 00       		.byte	0
 2562 0115 00       		.byte	0
 2563 0116 17       		.uleb128 0x17
 2564 0117 01       		.uleb128 0x1
 2565 0118 01       		.byte	0x1
ARM GAS  /tmp/ccIvQYkT.s 			page 46


 2566 0119 49       		.uleb128 0x49
 2567 011a 13       		.uleb128 0x13
 2568 011b 01       		.uleb128 0x1
 2569 011c 13       		.uleb128 0x13
 2570 011d 00       		.byte	0
 2571 011e 00       		.byte	0
 2572 011f 18       		.uleb128 0x18
 2573 0120 21       		.uleb128 0x21
 2574 0121 00       		.byte	0
 2575 0122 49       		.uleb128 0x49
 2576 0123 13       		.uleb128 0x13
 2577 0124 2F       		.uleb128 0x2f
 2578 0125 0B       		.uleb128 0xb
 2579 0126 00       		.byte	0
 2580 0127 00       		.byte	0
 2581 0128 19       		.uleb128 0x19
 2582 0129 34       		.uleb128 0x34
 2583 012a 00       		.byte	0
 2584 012b 03       		.uleb128 0x3
 2585 012c 08       		.uleb128 0x8
 2586 012d 3A       		.uleb128 0x3a
 2587 012e 0B       		.uleb128 0xb
 2588 012f 3B       		.uleb128 0x3b
 2589 0130 05       		.uleb128 0x5
 2590 0131 49       		.uleb128 0x49
 2591 0132 13       		.uleb128 0x13
 2592 0133 3F       		.uleb128 0x3f
 2593 0134 19       		.uleb128 0x19
 2594 0135 3C       		.uleb128 0x3c
 2595 0136 19       		.uleb128 0x19
 2596 0137 00       		.byte	0
 2597 0138 00       		.byte	0
 2598 0139 1A       		.uleb128 0x1a
 2599 013a 15       		.uleb128 0x15
 2600 013b 01       		.byte	0x1
 2601 013c 27       		.uleb128 0x27
 2602 013d 19       		.uleb128 0x19
 2603 013e 49       		.uleb128 0x49
 2604 013f 13       		.uleb128 0x13
 2605 0140 01       		.uleb128 0x1
 2606 0141 13       		.uleb128 0x13
 2607 0142 00       		.byte	0
 2608 0143 00       		.byte	0
 2609 0144 1B       		.uleb128 0x1b
 2610 0145 0D       		.uleb128 0xd
 2611 0146 00       		.byte	0
 2612 0147 03       		.uleb128 0x3
 2613 0148 0E       		.uleb128 0xe
 2614 0149 3A       		.uleb128 0x3a
 2615 014a 0B       		.uleb128 0xb
 2616 014b 3B       		.uleb128 0x3b
 2617 014c 0B       		.uleb128 0xb
 2618 014d 49       		.uleb128 0x49
 2619 014e 13       		.uleb128 0x13
 2620 014f 00       		.byte	0
 2621 0150 00       		.byte	0
 2622 0151 1C       		.uleb128 0x1c
ARM GAS  /tmp/ccIvQYkT.s 			page 47


 2623 0152 17       		.uleb128 0x17
 2624 0153 01       		.byte	0x1
 2625 0154 03       		.uleb128 0x3
 2626 0155 0E       		.uleb128 0xe
 2627 0156 0B       		.uleb128 0xb
 2628 0157 0B       		.uleb128 0xb
 2629 0158 3A       		.uleb128 0x3a
 2630 0159 0B       		.uleb128 0xb
 2631 015a 3B       		.uleb128 0x3b
 2632 015b 0B       		.uleb128 0xb
 2633 015c 01       		.uleb128 0x1
 2634 015d 13       		.uleb128 0x13
 2635 015e 00       		.byte	0
 2636 015f 00       		.byte	0
 2637 0160 1D       		.uleb128 0x1d
 2638 0161 0D       		.uleb128 0xd
 2639 0162 00       		.byte	0
 2640 0163 03       		.uleb128 0x3
 2641 0164 08       		.uleb128 0x8
 2642 0165 3A       		.uleb128 0x3a
 2643 0166 0B       		.uleb128 0xb
 2644 0167 3B       		.uleb128 0x3b
 2645 0168 0B       		.uleb128 0xb
 2646 0169 49       		.uleb128 0x49
 2647 016a 13       		.uleb128 0x13
 2648 016b 00       		.byte	0
 2649 016c 00       		.byte	0
 2650 016d 1E       		.uleb128 0x1e
 2651 016e 2E       		.uleb128 0x2e
 2652 016f 01       		.byte	0x1
 2653 0170 3F       		.uleb128 0x3f
 2654 0171 19       		.uleb128 0x19
 2655 0172 03       		.uleb128 0x3
 2656 0173 0E       		.uleb128 0xe
 2657 0174 3A       		.uleb128 0x3a
 2658 0175 0B       		.uleb128 0xb
 2659 0176 3B       		.uleb128 0x3b
 2660 0177 0B       		.uleb128 0xb
 2661 0178 27       		.uleb128 0x27
 2662 0179 19       		.uleb128 0x19
 2663 017a 49       		.uleb128 0x49
 2664 017b 13       		.uleb128 0x13
 2665 017c 11       		.uleb128 0x11
 2666 017d 01       		.uleb128 0x1
 2667 017e 12       		.uleb128 0x12
 2668 017f 06       		.uleb128 0x6
 2669 0180 40       		.uleb128 0x40
 2670 0181 18       		.uleb128 0x18
 2671 0182 9742     		.uleb128 0x2117
 2672 0184 19       		.uleb128 0x19
 2673 0185 01       		.uleb128 0x1
 2674 0186 13       		.uleb128 0x13
 2675 0187 00       		.byte	0
 2676 0188 00       		.byte	0
 2677 0189 1F       		.uleb128 0x1f
 2678 018a 05       		.uleb128 0x5
 2679 018b 00       		.byte	0
ARM GAS  /tmp/ccIvQYkT.s 			page 48


 2680 018c 03       		.uleb128 0x3
 2681 018d 08       		.uleb128 0x8
 2682 018e 3A       		.uleb128 0x3a
 2683 018f 0B       		.uleb128 0xb
 2684 0190 3B       		.uleb128 0x3b
 2685 0191 0B       		.uleb128 0xb
 2686 0192 49       		.uleb128 0x49
 2687 0193 13       		.uleb128 0x13
 2688 0194 02       		.uleb128 0x2
 2689 0195 17       		.uleb128 0x17
 2690 0196 00       		.byte	0
 2691 0197 00       		.byte	0
 2692 0198 20       		.uleb128 0x20
 2693 0199 05       		.uleb128 0x5
 2694 019a 00       		.byte	0
 2695 019b 03       		.uleb128 0x3
 2696 019c 0E       		.uleb128 0xe
 2697 019d 3A       		.uleb128 0x3a
 2698 019e 0B       		.uleb128 0xb
 2699 019f 3B       		.uleb128 0x3b
 2700 01a0 0B       		.uleb128 0xb
 2701 01a1 49       		.uleb128 0x49
 2702 01a2 13       		.uleb128 0x13
 2703 01a3 02       		.uleb128 0x2
 2704 01a4 17       		.uleb128 0x17
 2705 01a5 00       		.byte	0
 2706 01a6 00       		.byte	0
 2707 01a7 21       		.uleb128 0x21
 2708 01a8 34       		.uleb128 0x34
 2709 01a9 00       		.byte	0
 2710 01aa 03       		.uleb128 0x3
 2711 01ab 08       		.uleb128 0x8
 2712 01ac 3A       		.uleb128 0x3a
 2713 01ad 0B       		.uleb128 0xb
 2714 01ae 3B       		.uleb128 0x3b
 2715 01af 0B       		.uleb128 0xb
 2716 01b0 49       		.uleb128 0x49
 2717 01b1 13       		.uleb128 0x13
 2718 01b2 02       		.uleb128 0x2
 2719 01b3 17       		.uleb128 0x17
 2720 01b4 00       		.byte	0
 2721 01b5 00       		.byte	0
 2722 01b6 22       		.uleb128 0x22
 2723 01b7 34       		.uleb128 0x34
 2724 01b8 00       		.byte	0
 2725 01b9 03       		.uleb128 0x3
 2726 01ba 0E       		.uleb128 0xe
 2727 01bb 49       		.uleb128 0x49
 2728 01bc 13       		.uleb128 0x13
 2729 01bd 34       		.uleb128 0x34
 2730 01be 19       		.uleb128 0x19
 2731 01bf 00       		.byte	0
 2732 01c0 00       		.byte	0
 2733 01c1 23       		.uleb128 0x23
 2734 01c2 1D       		.uleb128 0x1d
 2735 01c3 01       		.byte	0x1
 2736 01c4 31       		.uleb128 0x31
ARM GAS  /tmp/ccIvQYkT.s 			page 49


 2737 01c5 13       		.uleb128 0x13
 2738 01c6 11       		.uleb128 0x11
 2739 01c7 01       		.uleb128 0x1
 2740 01c8 12       		.uleb128 0x12
 2741 01c9 06       		.uleb128 0x6
 2742 01ca 58       		.uleb128 0x58
 2743 01cb 0B       		.uleb128 0xb
 2744 01cc 59       		.uleb128 0x59
 2745 01cd 0B       		.uleb128 0xb
 2746 01ce 01       		.uleb128 0x1
 2747 01cf 13       		.uleb128 0x13
 2748 01d0 00       		.byte	0
 2749 01d1 00       		.byte	0
 2750 01d2 24       		.uleb128 0x24
 2751 01d3 1D       		.uleb128 0x1d
 2752 01d4 01       		.byte	0x1
 2753 01d5 31       		.uleb128 0x31
 2754 01d6 13       		.uleb128 0x13
 2755 01d7 11       		.uleb128 0x11
 2756 01d8 01       		.uleb128 0x1
 2757 01d9 12       		.uleb128 0x12
 2758 01da 06       		.uleb128 0x6
 2759 01db 58       		.uleb128 0x58
 2760 01dc 0B       		.uleb128 0xb
 2761 01dd 59       		.uleb128 0x59
 2762 01de 05       		.uleb128 0x5
 2763 01df 00       		.byte	0
 2764 01e0 00       		.byte	0
 2765 01e1 25       		.uleb128 0x25
 2766 01e2 1D       		.uleb128 0x1d
 2767 01e3 00       		.byte	0
 2768 01e4 31       		.uleb128 0x31
 2769 01e5 13       		.uleb128 0x13
 2770 01e6 11       		.uleb128 0x11
 2771 01e7 01       		.uleb128 0x1
 2772 01e8 12       		.uleb128 0x12
 2773 01e9 06       		.uleb128 0x6
 2774 01ea 58       		.uleb128 0x58
 2775 01eb 0B       		.uleb128 0xb
 2776 01ec 59       		.uleb128 0x59
 2777 01ed 05       		.uleb128 0x5
 2778 01ee 00       		.byte	0
 2779 01ef 00       		.byte	0
 2780 01f0 26       		.uleb128 0x26
 2781 01f1 0B       		.uleb128 0xb
 2782 01f2 01       		.byte	0x1
 2783 01f3 11       		.uleb128 0x11
 2784 01f4 01       		.uleb128 0x1
 2785 01f5 12       		.uleb128 0x12
 2786 01f6 06       		.uleb128 0x6
 2787 01f7 00       		.byte	0
 2788 01f8 00       		.byte	0
 2789 01f9 27       		.uleb128 0x27
 2790 01fa 898201   		.uleb128 0x4109
 2791 01fd 01       		.byte	0x1
 2792 01fe 11       		.uleb128 0x11
 2793 01ff 01       		.uleb128 0x1
ARM GAS  /tmp/ccIvQYkT.s 			page 50


 2794 0200 31       		.uleb128 0x31
 2795 0201 13       		.uleb128 0x13
 2796 0202 01       		.uleb128 0x1
 2797 0203 13       		.uleb128 0x13
 2798 0204 00       		.byte	0
 2799 0205 00       		.byte	0
 2800 0206 28       		.uleb128 0x28
 2801 0207 8A8201   		.uleb128 0x410a
 2802 020a 00       		.byte	0
 2803 020b 02       		.uleb128 0x2
 2804 020c 18       		.uleb128 0x18
 2805 020d 9142     		.uleb128 0x2111
 2806 020f 18       		.uleb128 0x18
 2807 0210 00       		.byte	0
 2808 0211 00       		.byte	0
 2809 0212 29       		.uleb128 0x29
 2810 0213 898201   		.uleb128 0x4109
 2811 0216 01       		.byte	0x1
 2812 0217 11       		.uleb128 0x11
 2813 0218 01       		.uleb128 0x1
 2814 0219 31       		.uleb128 0x31
 2815 021a 13       		.uleb128 0x13
 2816 021b 00       		.byte	0
 2817 021c 00       		.byte	0
 2818 021d 2A       		.uleb128 0x2a
 2819 021e 05       		.uleb128 0x5
 2820 021f 00       		.byte	0
 2821 0220 03       		.uleb128 0x3
 2822 0221 08       		.uleb128 0x8
 2823 0222 3A       		.uleb128 0x3a
 2824 0223 0B       		.uleb128 0xb
 2825 0224 3B       		.uleb128 0x3b
 2826 0225 0B       		.uleb128 0xb
 2827 0226 49       		.uleb128 0x49
 2828 0227 13       		.uleb128 0x13
 2829 0228 02       		.uleb128 0x2
 2830 0229 18       		.uleb128 0x18
 2831 022a 00       		.byte	0
 2832 022b 00       		.byte	0
 2833 022c 2B       		.uleb128 0x2b
 2834 022d 2E       		.uleb128 0x2e
 2835 022e 01       		.byte	0x1
 2836 022f 3F       		.uleb128 0x3f
 2837 0230 19       		.uleb128 0x19
 2838 0231 03       		.uleb128 0x3
 2839 0232 0E       		.uleb128 0xe
 2840 0233 3A       		.uleb128 0x3a
 2841 0234 0B       		.uleb128 0xb
 2842 0235 3B       		.uleb128 0x3b
 2843 0236 0B       		.uleb128 0xb
 2844 0237 27       		.uleb128 0x27
 2845 0238 19       		.uleb128 0x19
 2846 0239 11       		.uleb128 0x11
 2847 023a 01       		.uleb128 0x1
 2848 023b 12       		.uleb128 0x12
 2849 023c 06       		.uleb128 0x6
 2850 023d 40       		.uleb128 0x40
ARM GAS  /tmp/ccIvQYkT.s 			page 51


 2851 023e 18       		.uleb128 0x18
 2852 023f 9742     		.uleb128 0x2117
 2853 0241 19       		.uleb128 0x19
 2854 0242 01       		.uleb128 0x1
 2855 0243 13       		.uleb128 0x13
 2856 0244 00       		.byte	0
 2857 0245 00       		.byte	0
 2858 0246 2C       		.uleb128 0x2c
 2859 0247 34       		.uleb128 0x34
 2860 0248 00       		.byte	0
 2861 0249 03       		.uleb128 0x3
 2862 024a 0E       		.uleb128 0xe
 2863 024b 3A       		.uleb128 0x3a
 2864 024c 0B       		.uleb128 0xb
 2865 024d 3B       		.uleb128 0x3b
 2866 024e 0B       		.uleb128 0xb
 2867 024f 49       		.uleb128 0x49
 2868 0250 13       		.uleb128 0x13
 2869 0251 02       		.uleb128 0x2
 2870 0252 17       		.uleb128 0x17
 2871 0253 00       		.byte	0
 2872 0254 00       		.byte	0
 2873 0255 2D       		.uleb128 0x2d
 2874 0256 898201   		.uleb128 0x4109
 2875 0259 01       		.byte	0x1
 2876 025a 11       		.uleb128 0x11
 2877 025b 01       		.uleb128 0x1
 2878 025c 9542     		.uleb128 0x2115
 2879 025e 19       		.uleb128 0x19
 2880 025f 31       		.uleb128 0x31
 2881 0260 13       		.uleb128 0x13
 2882 0261 01       		.uleb128 0x1
 2883 0262 13       		.uleb128 0x13
 2884 0263 00       		.byte	0
 2885 0264 00       		.byte	0
 2886 0265 2E       		.uleb128 0x2e
 2887 0266 898201   		.uleb128 0x4109
 2888 0269 00       		.byte	0
 2889 026a 11       		.uleb128 0x11
 2890 026b 01       		.uleb128 0x1
 2891 026c 9542     		.uleb128 0x2115
 2892 026e 19       		.uleb128 0x19
 2893 026f 31       		.uleb128 0x31
 2894 0270 13       		.uleb128 0x13
 2895 0271 00       		.byte	0
 2896 0272 00       		.byte	0
 2897 0273 2F       		.uleb128 0x2f
 2898 0274 1D       		.uleb128 0x1d
 2899 0275 01       		.byte	0x1
 2900 0276 31       		.uleb128 0x31
 2901 0277 13       		.uleb128 0x13
 2902 0278 11       		.uleb128 0x11
 2903 0279 01       		.uleb128 0x1
 2904 027a 12       		.uleb128 0x12
 2905 027b 06       		.uleb128 0x6
 2906 027c 58       		.uleb128 0x58
 2907 027d 0B       		.uleb128 0xb
ARM GAS  /tmp/ccIvQYkT.s 			page 52


 2908 027e 59       		.uleb128 0x59
 2909 027f 0B       		.uleb128 0xb
 2910 0280 00       		.byte	0
 2911 0281 00       		.byte	0
 2912 0282 30       		.uleb128 0x30
 2913 0283 2E       		.uleb128 0x2e
 2914 0284 01       		.byte	0x1
 2915 0285 03       		.uleb128 0x3
 2916 0286 0E       		.uleb128 0xe
 2917 0287 3A       		.uleb128 0x3a
 2918 0288 0B       		.uleb128 0xb
 2919 0289 3B       		.uleb128 0x3b
 2920 028a 05       		.uleb128 0x5
 2921 028b 27       		.uleb128 0x27
 2922 028c 19       		.uleb128 0x19
 2923 028d 20       		.uleb128 0x20
 2924 028e 0B       		.uleb128 0xb
 2925 028f 01       		.uleb128 0x1
 2926 0290 13       		.uleb128 0x13
 2927 0291 00       		.byte	0
 2928 0292 00       		.byte	0
 2929 0293 31       		.uleb128 0x31
 2930 0294 34       		.uleb128 0x34
 2931 0295 00       		.byte	0
 2932 0296 03       		.uleb128 0x3
 2933 0297 0E       		.uleb128 0xe
 2934 0298 49       		.uleb128 0x49
 2935 0299 13       		.uleb128 0x13
 2936 029a 34       		.uleb128 0x34
 2937 029b 19       		.uleb128 0x19
 2938 029c 1C       		.uleb128 0x1c
 2939 029d 0E       		.uleb128 0xe
 2940 029e 00       		.byte	0
 2941 029f 00       		.byte	0
 2942 02a0 32       		.uleb128 0x32
 2943 02a1 2E       		.uleb128 0x2e
 2944 02a2 00       		.byte	0
 2945 02a3 03       		.uleb128 0x3
 2946 02a4 0E       		.uleb128 0xe
 2947 02a5 3A       		.uleb128 0x3a
 2948 02a6 0B       		.uleb128 0xb
 2949 02a7 3B       		.uleb128 0x3b
 2950 02a8 05       		.uleb128 0x5
 2951 02a9 27       		.uleb128 0x27
 2952 02aa 19       		.uleb128 0x19
 2953 02ab 20       		.uleb128 0x20
 2954 02ac 0B       		.uleb128 0xb
 2955 02ad 00       		.byte	0
 2956 02ae 00       		.byte	0
 2957 02af 33       		.uleb128 0x33
 2958 02b0 2E       		.uleb128 0x2e
 2959 02b1 00       		.byte	0
 2960 02b2 3F       		.uleb128 0x3f
 2961 02b3 19       		.uleb128 0x19
 2962 02b4 3C       		.uleb128 0x3c
 2963 02b5 19       		.uleb128 0x19
 2964 02b6 6E       		.uleb128 0x6e
ARM GAS  /tmp/ccIvQYkT.s 			page 53


 2965 02b7 0E       		.uleb128 0xe
 2966 02b8 03       		.uleb128 0x3
 2967 02b9 0E       		.uleb128 0xe
 2968 02ba 3A       		.uleb128 0x3a
 2969 02bb 0B       		.uleb128 0xb
 2970 02bc 3B       		.uleb128 0x3b
 2971 02bd 0B       		.uleb128 0xb
 2972 02be 00       		.byte	0
 2973 02bf 00       		.byte	0
 2974 02c0 34       		.uleb128 0x34
 2975 02c1 2E       		.uleb128 0x2e
 2976 02c2 00       		.byte	0
 2977 02c3 3F       		.uleb128 0x3f
 2978 02c4 19       		.uleb128 0x19
 2979 02c5 3C       		.uleb128 0x3c
 2980 02c6 19       		.uleb128 0x19
 2981 02c7 6E       		.uleb128 0x6e
 2982 02c8 0E       		.uleb128 0xe
 2983 02c9 03       		.uleb128 0x3
 2984 02ca 0E       		.uleb128 0xe
 2985 02cb 3A       		.uleb128 0x3a
 2986 02cc 0B       		.uleb128 0xb
 2987 02cd 3B       		.uleb128 0x3b
 2988 02ce 05       		.uleb128 0x5
 2989 02cf 00       		.byte	0
 2990 02d0 00       		.byte	0
 2991 02d1 00       		.byte	0
 2992              		.section	.debug_loc,"",%progbits
 2993              	.Ldebug_loc0:
 2994              	.LLST8:
 2995 0000 00000000 		.4byte	.LVL17
 2996 0004 11000000 		.4byte	.LVL18-1
 2997 0008 0100     		.2byte	0x1
 2998 000a 50       		.byte	0x50
 2999 000b 11000000 		.4byte	.LVL18-1
 3000 000f 5A000000 		.4byte	.LFE222
 3001 0013 0100     		.2byte	0x1
 3002 0015 55       		.byte	0x55
 3003 0016 00000000 		.4byte	0
 3004 001a 00000000 		.4byte	0
 3005              	.LLST9:
 3006 001e 00000000 		.4byte	.LVL17
 3007 0022 11000000 		.4byte	.LVL18-1
 3008 0026 0100     		.2byte	0x1
 3009 0028 51       		.byte	0x51
 3010 0029 11000000 		.4byte	.LVL18-1
 3011 002d 5A000000 		.4byte	.LFE222
 3012 0031 0100     		.2byte	0x1
 3013 0033 57       		.byte	0x57
 3014 0034 00000000 		.4byte	0
 3015 0038 00000000 		.4byte	0
 3016              	.LLST10:
 3017 003c 00000000 		.4byte	.LVL17
 3018 0040 11000000 		.4byte	.LVL18-1
 3019 0044 0100     		.2byte	0x1
 3020 0046 52       		.byte	0x52
 3021 0047 11000000 		.4byte	.LVL18-1
ARM GAS  /tmp/ccIvQYkT.s 			page 54


 3022 004b 5A000000 		.4byte	.LFE222
 3023 004f 0100     		.2byte	0x1
 3024 0051 58       		.byte	0x58
 3025 0052 00000000 		.4byte	0
 3026 0056 00000000 		.4byte	0
 3027              	.LLST11:
 3028 005a 00000000 		.4byte	.LVL17
 3029 005e 11000000 		.4byte	.LVL18-1
 3030 0062 0100     		.2byte	0x1
 3031 0064 53       		.byte	0x53
 3032 0065 11000000 		.4byte	.LVL18-1
 3033 0069 5A000000 		.4byte	.LFE222
 3034 006d 0100     		.2byte	0x1
 3035 006f 59       		.byte	0x59
 3036 0070 00000000 		.4byte	0
 3037 0074 00000000 		.4byte	0
 3038              	.LLST12:
 3039 0078 12000000 		.4byte	.LVL18
 3040 007c 21000000 		.4byte	.LVL19-1
 3041 0080 0100     		.2byte	0x1
 3042 0082 50       		.byte	0x50
 3043 0083 21000000 		.4byte	.LVL19-1
 3044 0087 4C000000 		.4byte	.LVL22
 3045 008b 0100     		.2byte	0x1
 3046 008d 54       		.byte	0x54
 3047 008e 4C000000 		.4byte	.LVL22
 3048 0092 52000000 		.4byte	.LVL24
 3049 0096 0400     		.2byte	0x4
 3050 0098 76       		.byte	0x76
 3051 0099 B07F     		.sleb128 -80
 3052 009b 9F       		.byte	0x9f
 3053 009c 00000000 		.4byte	0
 3054 00a0 00000000 		.4byte	0
 3055              	.LLST13:
 3056 00a4 4C000000 		.4byte	.LVL22
 3057 00a8 4F000000 		.4byte	.LVL23-1
 3058 00ac 0100     		.2byte	0x1
 3059 00ae 50       		.byte	0x50
 3060 00af 4F000000 		.4byte	.LVL23-1
 3061 00b3 52000000 		.4byte	.LVL24
 3062 00b7 0100     		.2byte	0x1
 3063 00b9 54       		.byte	0x54
 3064 00ba 00000000 		.4byte	0
 3065 00be 00000000 		.4byte	0
 3066              	.LLST2:
 3067 00c2 00000000 		.4byte	.LVL9
 3068 00c6 0F000000 		.4byte	.LVL10-1
 3069 00ca 0100     		.2byte	0x1
 3070 00cc 50       		.byte	0x50
 3071 00cd 0F000000 		.4byte	.LVL10-1
 3072 00d1 54000000 		.4byte	.LFE221
 3073 00d5 0400     		.2byte	0x4
 3074 00d7 F3       		.byte	0xf3
 3075 00d8 01       		.uleb128 0x1
 3076 00d9 50       		.byte	0x50
 3077 00da 9F       		.byte	0x9f
 3078 00db 00000000 		.4byte	0
ARM GAS  /tmp/ccIvQYkT.s 			page 55


 3079 00df 00000000 		.4byte	0
 3080              	.LLST3:
 3081 00e3 00000000 		.4byte	.LVL9
 3082 00e7 0F000000 		.4byte	.LVL10-1
 3083 00eb 0100     		.2byte	0x1
 3084 00ed 51       		.byte	0x51
 3085 00ee 0F000000 		.4byte	.LVL10-1
 3086 00f2 54000000 		.4byte	.LFE221
 3087 00f6 0100     		.2byte	0x1
 3088 00f8 55       		.byte	0x55
 3089 00f9 00000000 		.4byte	0
 3090 00fd 00000000 		.4byte	0
 3091              	.LLST4:
 3092 0101 00000000 		.4byte	.LVL9
 3093 0105 0F000000 		.4byte	.LVL10-1
 3094 0109 0100     		.2byte	0x1
 3095 010b 52       		.byte	0x52
 3096 010c 0F000000 		.4byte	.LVL10-1
 3097 0110 54000000 		.4byte	.LFE221
 3098 0114 0100     		.2byte	0x1
 3099 0116 57       		.byte	0x57
 3100 0117 00000000 		.4byte	0
 3101 011b 00000000 		.4byte	0
 3102              	.LLST5:
 3103 011f 00000000 		.4byte	.LVL9
 3104 0123 0F000000 		.4byte	.LVL10-1
 3105 0127 0100     		.2byte	0x1
 3106 0129 53       		.byte	0x53
 3107 012a 0F000000 		.4byte	.LVL10-1
 3108 012e 54000000 		.4byte	.LFE221
 3109 0132 0100     		.2byte	0x1
 3110 0134 58       		.byte	0x58
 3111 0135 00000000 		.4byte	0
 3112 0139 00000000 		.4byte	0
 3113              	.LLST6:
 3114 013d 10000000 		.4byte	.LVL10
 3115 0141 1F000000 		.4byte	.LVL11-1
 3116 0145 0100     		.2byte	0x1
 3117 0147 50       		.byte	0x50
 3118 0148 1F000000 		.4byte	.LVL11-1
 3119 014c 46000000 		.4byte	.LVL14
 3120 0150 0100     		.2byte	0x1
 3121 0152 54       		.byte	0x54
 3122 0153 46000000 		.4byte	.LVL14
 3123 0157 4C000000 		.4byte	.LVL16
 3124 015b 0400     		.2byte	0x4
 3125 015d 76       		.byte	0x76
 3126 015e B07F     		.sleb128 -80
 3127 0160 9F       		.byte	0x9f
 3128 0161 00000000 		.4byte	0
 3129 0165 00000000 		.4byte	0
 3130              	.LLST7:
 3131 0169 46000000 		.4byte	.LVL14
 3132 016d 49000000 		.4byte	.LVL15-1
 3133 0171 0100     		.2byte	0x1
 3134 0173 50       		.byte	0x50
 3135 0174 49000000 		.4byte	.LVL15-1
ARM GAS  /tmp/ccIvQYkT.s 			page 56


 3136 0178 4C000000 		.4byte	.LVL16
 3137 017c 0100     		.2byte	0x1
 3138 017e 54       		.byte	0x54
 3139 017f 00000000 		.4byte	0
 3140 0183 00000000 		.4byte	0
 3141              	.LLST0:
 3142 0187 00000000 		.4byte	.LVL1
 3143 018b 3D000000 		.4byte	.LVL5-1
 3144 018f 0100     		.2byte	0x1
 3145 0191 50       		.byte	0x50
 3146 0192 3D000000 		.4byte	.LVL5-1
 3147 0196 3E000000 		.4byte	.LVL5
 3148 019a 0400     		.2byte	0x4
 3149 019c F3       		.byte	0xf3
 3150 019d 01       		.uleb128 0x1
 3151 019e 50       		.byte	0x50
 3152 019f 9F       		.byte	0x9f
 3153 01a0 3E000000 		.4byte	.LVL5
 3154 01a4 48000000 		.4byte	.LVL7
 3155 01a8 0100     		.2byte	0x1
 3156 01aa 50       		.byte	0x50
 3157 01ab 48000000 		.4byte	.LVL7
 3158 01af 4D000000 		.4byte	.LVL8-1
 3159 01b3 0100     		.2byte	0x1
 3160 01b5 51       		.byte	0x51
 3161 01b6 4D000000 		.4byte	.LVL8-1
 3162 01ba 4E000000 		.4byte	.LFE220
 3163 01be 0400     		.2byte	0x4
 3164 01c0 F3       		.byte	0xf3
 3165 01c1 01       		.uleb128 0x1
 3166 01c2 50       		.byte	0x50
 3167 01c3 9F       		.byte	0x9f
 3168 01c4 00000000 		.4byte	0
 3169 01c8 00000000 		.4byte	0
 3170              	.LLST1:
 3171 01cc 10000000 		.4byte	.LVL2
 3172 01d0 18000000 		.4byte	.LVL3
 3173 01d4 0100     		.2byte	0x1
 3174 01d6 53       		.byte	0x53
 3175 01d7 18000000 		.4byte	.LVL3
 3176 01db 36000000 		.4byte	.LVL4
 3177 01df 0200     		.2byte	0x2
 3178 01e1 70       		.byte	0x70
 3179 01e2 22       		.sleb128 34
 3180 01e3 3E000000 		.4byte	.LVL5
 3181 01e7 44000000 		.4byte	.LVL6
 3182 01eb 0200     		.2byte	0x2
 3183 01ed 70       		.byte	0x70
 3184 01ee 22       		.sleb128 34
 3185 01ef 00000000 		.4byte	0
 3186 01f3 00000000 		.4byte	0
 3187              		.section	.debug_aranges,"",%progbits
 3188 0000 34000000 		.4byte	0x34
 3189 0004 0200     		.2byte	0x2
 3190 0006 00000000 		.4byte	.Ldebug_info0
 3191 000a 04       		.byte	0x4
 3192 000b 00       		.byte	0
ARM GAS  /tmp/ccIvQYkT.s 			page 57


 3193 000c 0000     		.2byte	0
 3194 000e 0000     		.2byte	0
 3195 0010 00000000 		.4byte	.LFB219
 3196 0014 10000000 		.4byte	.LFE219-.LFB219
 3197 0018 00000000 		.4byte	.LFB220
 3198 001c 4E000000 		.4byte	.LFE220-.LFB220
 3199 0020 00000000 		.4byte	.LFB221
 3200 0024 54000000 		.4byte	.LFE221-.LFB221
 3201 0028 00000000 		.4byte	.LFB222
 3202 002c 5A000000 		.4byte	.LFE222-.LFB222
 3203 0030 00000000 		.4byte	0
 3204 0034 00000000 		.4byte	0
 3205              		.section	.debug_ranges,"",%progbits
 3206              	.Ldebug_ranges0:
 3207 0000 00000000 		.4byte	.LFB219
 3208 0004 10000000 		.4byte	.LFE219
 3209 0008 00000000 		.4byte	.LFB220
 3210 000c 4E000000 		.4byte	.LFE220
 3211 0010 00000000 		.4byte	.LFB221
 3212 0014 54000000 		.4byte	.LFE221
 3213 0018 00000000 		.4byte	.LFB222
 3214 001c 5A000000 		.4byte	.LFE222
 3215 0020 00000000 		.4byte	0
 3216 0024 00000000 		.4byte	0
 3217              		.section	.debug_line,"",%progbits
 3218              	.Ldebug_line0:
 3219 0000 3C030000 		.section	.debug_str,"MS",%progbits,1
 3219      02006E02 
 3219      00000201 
 3219      FB0E0D00 
 3219      01010101 
 3220              	.LASF109:
 3221 0000 7466756E 		.ascii	"tfunc_t\000"
 3221      635F7400 
 3222              	.LASF58:
 3223 0008 72656164 		.ascii	"ready_list_t\000"
 3223      795F6C69 
 3223      73745F74 
 3223      00
 3224              	.LASF2:
 3225 0015 73697A65 		.ascii	"size_t\000"
 3225      5F7400
 3226              	.LASF94:
 3227 001c 7264796D 		.ascii	"rdymsg\000"
 3227      736700
 3228              	.LASF19:
 3229 0023 75696E74 		.ascii	"uint64_t\000"
 3229      36345F74 
 3229      00
 3230              	.LASF3:
 3231 002c 5F5F7569 		.ascii	"__uint8_t\000"
 3231      6E74385F 
 3231      7400
 3232              	.LASF91:
 3233 0036 706F7274 		.ascii	"port_intctx\000"
 3233      5F696E74 
 3233      63747800 
ARM GAS  /tmp/ccIvQYkT.s 			page 58


 3234              	.LASF77:
 3235 0042 73797374 		.ascii	"system_debug_t\000"
 3235      656D5F64 
 3235      65627567 
 3235      5F7400
 3236              	.LASF166:
 3237 0051 474E5520 		.ascii	"GNU C99 7.3.1 20180622 (release) [ARM/embedded-7-br"
 3237      43393920 
 3237      372E332E 
 3237      31203230 
 3237      31383036 
 3238 0084 616E6368 		.ascii	"anch revision 261907] -mcpu=cortex-m4 -mfloat-abi=h"
 3238      20726576 
 3238      6973696F 
 3238      6E203236 
 3238      31393037 
 3239 00b7 61726420 		.ascii	"ard -mfpu=fpv4-sp-d16 -mno-thumb-interwork -mthumb "
 3239      2D6D6670 
 3239      753D6670 
 3239      76342D73 
 3239      702D6431 
 3240 00ea 2D676764 		.ascii	"-ggdb -O2 -std=gnu99 -fomit-frame-pointer -falign-f"
 3240      62202D4F 
 3240      32202D73 
 3240      74643D67 
 3240      6E753939 
 3241 011d 756E6374 		.ascii	"unctions=16 -ffunction-sections -fdata-sections -fn"
 3241      696F6E73 
 3241      3D313620 
 3241      2D666675 
 3241      6E637469 
 3242 0150 6F2D636F 		.ascii	"o-common -fsingle-precision-constant\000"
 3242      6D6D6F6E 
 3242      202D6673 
 3242      696E676C 
 3242      652D7072 
 3243              	.LASF156:
 3244 0175 706F7274 		.ascii	"port_lock\000"
 3244      5F6C6F63 
 3244      6B00
 3245              	.LASF131:
 3246 017f 6D656D67 		.ascii	"memgetfunc_t\000"
 3246      65746675 
 3246      6E635F74 
 3246      00
 3247              	.LASF14:
 3248 018c 6C6F6E67 		.ascii	"long long unsigned int\000"
 3248      206C6F6E 
 3248      6720756E 
 3248      7369676E 
 3248      65642069 
 3249              	.LASF116:
 3250 01a3 63685F74 		.ascii	"ch_threadsize\000"
 3250      68726561 
 3250      6473697A 
 3250      6500
 3251              	.LASF95:
ARM GAS  /tmp/ccIvQYkT.s 			page 59


 3252 01b1 65786974 		.ascii	"exitcode\000"
 3252      636F6465 
 3252      00
 3253              	.LASF135:
 3254 01ba 685F6672 		.ascii	"h_free\000"
 3254      656500
 3255              	.LASF74:
 3256 01c1 76697274 		.ascii	"virtual_timers_list_t\000"
 3256      75616C5F 
 3256      74696D65 
 3256      72735F6C 
 3256      6973745F 
 3257              	.LASF86:
 3258 01d7 49544D5F 		.ascii	"ITM_RxBuffer\000"
 3258      52784275 
 3258      66666572 
 3258      00
 3259              	.LASF150:
 3260 01e4 68656170 		.ascii	"heapp\000"
 3260      7000
 3261              	.LASF137:
 3262 01ea 6E657874 		.ascii	"next\000"
 3262      00
 3263              	.LASF57:
 3264 01ef 63685F74 		.ascii	"ch_threads_queue\000"
 3264      68726561 
 3264      64735F71 
 3264      75657565 
 3264      00
 3265              	.LASF33:
 3266 0200 705F7072 		.ascii	"p_prio\000"
 3266      696F00
 3267              	.LASF123:
 3268 0207 63665F6F 		.ascii	"cf_off_state\000"
 3268      66665F73 
 3268      74617465 
 3268      00
 3269              	.LASF76:
 3270 0214 76745F73 		.ascii	"vt_systime\000"
 3270      79737469 
 3270      6D6500
 3271              	.LASF12:
 3272 021f 6C6F6E67 		.ascii	"long long int\000"
 3272      206C6F6E 
 3272      6720696E 
 3272      7400
 3273              	.LASF1:
 3274 022d 7369676E 		.ascii	"signed char\000"
 3274      65642063 
 3274      68617200 
 3275              	.LASF136:
 3276 0239 685F6D74 		.ascii	"h_mtx\000"
 3276      7800
 3277              	.LASF122:
 3278 023f 63665F6F 		.ascii	"cf_off_stklimit\000"
 3278      66665F73 
 3278      746B6C69 
ARM GAS  /tmp/ccIvQYkT.s 			page 60


 3278      6D697400 
 3279              	.LASF124:
 3280 024f 63665F6F 		.ascii	"cf_off_flags\000"
 3280      66665F66 
 3280      6C616773 
 3280      00
 3281              	.LASF50:
 3282 025c 705F6D70 		.ascii	"p_mpool\000"
 3282      6F6F6C00 
 3283              	.LASF105:
 3284 0264 6D5F7175 		.ascii	"m_queue\000"
 3284      65756500 
 3285              	.LASF164:
 3286 026c 63684865 		.ascii	"chHeapFree\000"
 3286      61704672 
 3286      656500
 3287              	.LASF83:
 3288 0277 76746C69 		.ascii	"vtlist\000"
 3288      737400
 3289              	.LASF155:
 3290 027e 706F7274 		.ascii	"port_unlock\000"
 3290      5F756E6C 
 3290      6F636B00 
 3291              	.LASF24:
 3292 028a 74736C69 		.ascii	"tslices_t\000"
 3292      6365735F 
 3292      7400
 3293              	.LASF161:
 3294 0294 63685468 		.ascii	"chThdCreateI\000"
 3294      64437265 
 3294      61746549 
 3294      00
 3295              	.LASF97:
 3296 02a1 77747472 		.ascii	"wttrp\000"
 3296      7000
 3297              	.LASF81:
 3298 02a7 63685F73 		.ascii	"ch_system\000"
 3298      79737465 
 3298      6D00
 3299              	.LASF9:
 3300 02b1 6C6F6E67 		.ascii	"long int\000"
 3300      20696E74 
 3300      00
 3301              	.LASF149:
 3302 02ba 63685468 		.ascii	"chThdCreateFromHeap\000"
 3302      64437265 
 3302      61746546 
 3302      726F6D48 
 3302      65617000 
 3303              	.LASF22:
 3304 02ce 74737461 		.ascii	"tstate_t\000"
 3304      74655F74 
 3304      00
 3305              	.LASF132:
 3306 02d7 6D656D6F 		.ascii	"memory_heap_t\000"
 3306      72795F68 
 3306      6561705F 
ARM GAS  /tmp/ccIvQYkT.s 			page 61


 3306      7400
 3307              	.LASF128:
 3308 02e5 63686465 		.ascii	"chdebug_t\000"
 3308      6275675F 
 3308      7400
 3309              	.LASF167:
 3310 02ef 43686962 		.ascii	"ChibiOS_3.0.5/os/rt/src/chdynamic.c\000"
 3310      694F535F 
 3310      332E302E 
 3310      352F6F73 
 3310      2F72742F 
 3311              	.LASF35:
 3312 0313 705F6E65 		.ascii	"p_newer\000"
 3312      77657200 
 3313              	.LASF102:
 3314 031b 735F7175 		.ascii	"s_queue\000"
 3314      65756500 
 3315              	.LASF148:
 3316 0323 63685468 		.ascii	"chThdCreateFromMemoryPool\000"
 3316      64437265 
 3316      61746546 
 3316      726F6D4D 
 3316      656D6F72 
 3317              	.LASF23:
 3318 033d 74726566 		.ascii	"trefs_t\000"
 3318      735F7400 
 3319              	.LASF63:
 3320 0345 725F6E65 		.ascii	"r_newer\000"
 3320      77657200 
 3321              	.LASF145:
 3322 034d 6D705F70 		.ascii	"mp_provider\000"
 3322      726F7669 
 3322      64657200 
 3323              	.LASF88:
 3324 0359 72656761 		.ascii	"regarm_t\000"
 3324      726D5F74 
 3324      00
 3325              	.LASF70:
 3326 0362 76745F70 		.ascii	"vt_prev\000"
 3326      72657600 
 3327              	.LASF130:
 3328 036a 6D757465 		.ascii	"mutex_t\000"
 3328      785F7400 
 3329              	.LASF139:
 3330 0372 616C6967 		.ascii	"align\000"
 3330      6E00
 3331              	.LASF85:
 3332 0378 69646C65 		.ascii	"idle_thread_wa\000"
 3332      5F746872 
 3332      6561645F 
 3332      776100
 3333              	.LASF28:
 3334 0387 636E745F 		.ascii	"cnt_t\000"
 3334      7400
 3335              	.LASF38:
 3336 038d 705F7374 		.ascii	"p_stklimit\000"
 3336      6B6C696D 
ARM GAS  /tmp/ccIvQYkT.s 			page 62


 3336      697400
 3337              	.LASF0:
 3338 0398 756E7369 		.ascii	"unsigned int\000"
 3338      676E6564 
 3338      20696E74 
 3338      00
 3339              	.LASF69:
 3340 03a5 76745F6E 		.ascii	"vt_next\000"
 3340      65787400 
 3341              	.LASF16:
 3342 03ad 75696E74 		.ascii	"uint16_t\000"
 3342      31365F74 
 3342      00
 3343              	.LASF87:
 3344 03b6 53797374 		.ascii	"SystemCoreClock\000"
 3344      656D436F 
 3344      7265436C 
 3344      6F636B00 
 3345              	.LASF43:
 3346 03c6 705F7469 		.ascii	"p_time\000"
 3346      6D6500
 3347              	.LASF98:
 3348 03cd 77747365 		.ascii	"wtsemp\000"
 3348      6D7000
 3349              	.LASF120:
 3350 03d4 63665F6F 		.ascii	"cf_off_older\000"
 3350      66665F6F 
 3350      6C646572 
 3350      00
 3351              	.LASF71:
 3352 03e1 76745F64 		.ascii	"vt_delta\000"
 3352      656C7461 
 3352      00
 3353              	.LASF45:
 3354 03ea 705F6D73 		.ascii	"p_msgqueue\000"
 3354      67717565 
 3354      756500
 3355              	.LASF129:
 3356 03f5 63685F64 		.ascii	"ch_debug\000"
 3356      65627567 
 3356      00
 3357              	.LASF146:
 3358 03fe 6D656D6F 		.ascii	"memory_pool_t\000"
 3358      72795F70 
 3358      6F6F6C5F 
 3358      7400
 3359              	.LASF103:
 3360 040c 735F636E 		.ascii	"s_cnt\000"
 3360      7400
 3361              	.LASF7:
 3362 0412 73686F72 		.ascii	"short unsigned int\000"
 3362      7420756E 
 3362      7369676E 
 3362      65642069 
 3362      6E7400
 3363              	.LASF54:
 3364 0425 63685F74 		.ascii	"ch_thread\000"
ARM GAS  /tmp/ccIvQYkT.s 			page 63


 3364      68726561 
 3364      6400
 3365              	.LASF162:
 3366 042f 63685363 		.ascii	"chSchWakeupS\000"
 3366      6857616B 
 3366      65757053 
 3366      00
 3367              	.LASF84:
 3368 043c 6D61696E 		.ascii	"mainthread\000"
 3368      74687265 
 3368      616400
 3369              	.LASF26:
 3370 0447 6D73675F 		.ascii	"msg_t\000"
 3370      7400
 3371              	.LASF80:
 3372 044d 63685F73 		.ascii	"ch_system_t\000"
 3372      79737465 
 3372      6D5F7400 
 3373              	.LASF127:
 3374 0459 63665F6F 		.ascii	"cf_off_time\000"
 3374      66665F74 
 3374      696D6500 
 3375              	.LASF59:
 3376 0465 63685F72 		.ascii	"ch_ready_list\000"
 3376      65616479 
 3376      5F6C6973 
 3376      7400
 3377              	.LASF27:
 3378 0473 6576656E 		.ascii	"eventmask_t\000"
 3378      746D6173 
 3378      6B5F7400 
 3379              	.LASF8:
 3380 047f 5F5F696E 		.ascii	"__int32_t\000"
 3380      7433325F 
 3380      7400
 3381              	.LASF153:
 3382 0489 63685468 		.ascii	"chThdAddRef\000"
 3382      64416464 
 3382      52656600 
 3383              	.LASF89:
 3384 0495 73746B61 		.ascii	"stkalign_t\000"
 3384      6C69676E 
 3384      5F7400
 3385              	.LASF111:
 3386 04a0 63685F7A 		.ascii	"ch_zero\000"
 3386      65726F00 
 3387              	.LASF125:
 3388 04a8 63665F6F 		.ascii	"cf_off_refs\000"
 3388      66665F72 
 3388      65667300 
 3389              	.LASF44:
 3390 04b4 705F7761 		.ascii	"p_waiting\000"
 3390      6974696E 
 3390      6700
 3391              	.LASF20:
 3392 04be 7274636E 		.ascii	"rtcnt_t\000"
 3392      745F7400 
ARM GAS  /tmp/ccIvQYkT.s 			page 64


 3393              	.LASF75:
 3394 04c6 63685F76 		.ascii	"ch_virtual_timers_list\000"
 3394      69727475 
 3394      616C5F74 
 3394      696D6572 
 3394      735F6C69 
 3395              	.LASF115:
 3396 04dd 63685F74 		.ascii	"ch_timesize\000"
 3396      696D6573 
 3396      697A6500 
 3397              	.LASF121:
 3398 04e9 63665F6F 		.ascii	"cf_off_name\000"
 3398      66665F6E 
 3398      616D6500 
 3399              	.LASF36:
 3400 04f5 705F6F6C 		.ascii	"p_older\000"
 3400      64657200 
 3401              	.LASF62:
 3402 04fd 725F6374 		.ascii	"r_ctx\000"
 3402      7800
 3403              	.LASF34:
 3404 0503 705F6374 		.ascii	"p_ctx\000"
 3404      7800
 3405              	.LASF144:
 3406 0509 6D705F6F 		.ascii	"mp_object_size\000"
 3406      626A6563 
 3406      745F7369 
 3406      7A6500
 3407              	.LASF93:
 3408 0518 746D5F63 		.ascii	"tm_calibration_t\000"
 3408      616C6962 
 3408      72617469 
 3408      6F6E5F74 
 3408      00
 3409              	.LASF147:
 3410 0529 7072696F 		.ascii	"prio\000"
 3410      00
 3411              	.LASF64:
 3412 052e 725F6F6C 		.ascii	"r_older\000"
 3412      64657200 
 3413              	.LASF158:
 3414 0536 5F5F656E 		.ascii	"__enable_irq\000"
 3414      61626C65 
 3414      5F697271 
 3414      00
 3415              	.LASF13:
 3416 0543 5F5F7569 		.ascii	"__uint64_t\000"
 3416      6E743634 
 3416      5F7400
 3417              	.LASF142:
 3418 054e 70685F6E 		.ascii	"ph_next\000"
 3418      65787400 
 3419              	.LASF157:
 3420 0556 5F5F6469 		.ascii	"__disable_irq\000"
 3420      7361626C 
 3420      655F6972 
 3420      7100
ARM GAS  /tmp/ccIvQYkT.s 			page 65


 3421              	.LASF114:
 3422 0564 63685F70 		.ascii	"ch_ptrsize\000"
 3422      74727369 
 3422      7A6500
 3423              	.LASF151:
 3424 056f 72656673 		.ascii	"refs\000"
 3424      00
 3425              	.LASF67:
 3426 0574 76697274 		.ascii	"virtual_timer_t\000"
 3426      75616C5F 
 3426      74696D65 
 3426      725F7400 
 3427              	.LASF32:
 3428 0584 705F7072 		.ascii	"p_prev\000"
 3428      657600
 3429              	.LASF25:
 3430 058b 74707269 		.ascii	"tprio_t\000"
 3430      6F5F7400 
 3431              	.LASF78:
 3432 0593 63685F73 		.ascii	"ch_system_debug\000"
 3432      79737465 
 3432      6D5F6465 
 3432      62756700 
 3433              	.LASF17:
 3434 05a3 696E7433 		.ascii	"int32_t\000"
 3434      325F7400 
 3435              	.LASF4:
 3436 05ab 756E7369 		.ascii	"unsigned char\000"
 3436      676E6564 
 3436      20636861 
 3436      7200
 3437              	.LASF169:
 3438 05b9 68656170 		.ascii	"heap_header\000"
 3438      5F686561 
 3438      64657200 
 3439              	.LASF48:
 3440 05c5 705F6D74 		.ascii	"p_mtxlist\000"
 3440      786C6973 
 3440      7400
 3441              	.LASF5:
 3442 05cf 73686F72 		.ascii	"short int\000"
 3442      7420696E 
 3442      7400
 3443              	.LASF39:
 3444 05d9 705F7374 		.ascii	"p_state\000"
 3444      61746500 
 3445              	.LASF42:
 3446 05e1 705F7072 		.ascii	"p_preempt\000"
 3446      65656D70 
 3446      7400
 3447              	.LASF61:
 3448 05eb 725F7072 		.ascii	"r_prio\000"
 3448      696F00
 3449              	.LASF100:
 3450 05f2 65776D61 		.ascii	"ewmask\000"
 3450      736B00
 3451              	.LASF31:
ARM GAS  /tmp/ccIvQYkT.s 			page 66


 3452 05f9 705F6E65 		.ascii	"p_next\000"
 3452      787400
 3453              	.LASF21:
 3454 0600 746D6F64 		.ascii	"tmode_t\000"
 3454      655F7400 
 3455              	.LASF126:
 3456 0608 63665F6F 		.ascii	"cf_off_preempt\000"
 3456      66665F70 
 3456      7265656D 
 3456      707400
 3457              	.LASF40:
 3458 0617 705F666C 		.ascii	"p_flags\000"
 3458      61677300 
 3459              	.LASF152:
 3460 061f 5F5F6675 		.ascii	"__func__\000"
 3460      6E635F5F 
 3460      00
 3461              	.LASF154:
 3462 0628 63685379 		.ascii	"chSysLock\000"
 3462      734C6F63 
 3462      6B00
 3463              	.LASF160:
 3464 0632 5F746872 		.ascii	"_thread_memfill\000"
 3464      6561645F 
 3464      6D656D66 
 3464      696C6C00 
 3465              	.LASF170:
 3466 0642 63685468 		.ascii	"chThdRelease\000"
 3466      6452656C 
 3466      65617365 
 3466      00
 3467              	.LASF56:
 3468 064f 74687265 		.ascii	"threads_queue_t\000"
 3468      6164735F 
 3468      71756575 
 3468      655F7400 
 3469              	.LASF163:
 3470 065f 63684865 		.ascii	"chHeapAlloc\000"
 3470      6170416C 
 3470      6C6F6300 
 3471              	.LASF119:
 3472 066b 63665F6F 		.ascii	"cf_off_newer\000"
 3472      66665F6E 
 3472      65776572 
 3472      00
 3473              	.LASF101:
 3474 0678 63685F73 		.ascii	"ch_semaphore\000"
 3474      656D6170 
 3474      686F7265 
 3474      00
 3475              	.LASF47:
 3476 0685 705F6570 		.ascii	"p_epending\000"
 3476      656E6469 
 3476      6E6700
 3477              	.LASF168:
 3478 0690 2F626C64 		.ascii	"/bldc\000"
 3478      6300
ARM GAS  /tmp/ccIvQYkT.s 			page 67


 3479              	.LASF18:
 3480 0696 75696E74 		.ascii	"uint32_t\000"
 3480      33325F74 
 3480      00
 3481              	.LASF117:
 3482 069f 63665F6F 		.ascii	"cf_off_prio\000"
 3482      66665F70 
 3482      72696F00 
 3483              	.LASF60:
 3484 06ab 725F7175 		.ascii	"r_queue\000"
 3484      65756500 
 3485              	.LASF55:
 3486 06b3 63685F74 		.ascii	"ch_threads_list\000"
 3486      68726561 
 3486      64735F6C 
 3486      69737400 
 3487              	.LASF112:
 3488 06c3 63685F73 		.ascii	"ch_size\000"
 3488      697A6500 
 3489              	.LASF138:
 3490 06cb 68656170 		.ascii	"heap\000"
 3490      00
 3491              	.LASF11:
 3492 06d0 6C6F6E67 		.ascii	"long unsigned int\000"
 3492      20756E73 
 3492      69676E65 
 3492      6420696E 
 3492      7400
 3493              	.LASF65:
 3494 06e2 725F6375 		.ascii	"r_current\000"
 3494      7272656E 
 3494      7400
 3495              	.LASF108:
 3496 06ec 63686172 		.ascii	"char\000"
 3496      00
 3497              	.LASF99:
 3498 06f1 77746D74 		.ascii	"wtmtxp\000"
 3498      787000
 3499              	.LASF46:
 3500 06f8 705F6D73 		.ascii	"p_msg\000"
 3500      6700
 3501              	.LASF6:
 3502 06fe 5F5F7569 		.ascii	"__uint16_t\000"
 3502      6E743136 
 3502      5F7400
 3503              	.LASF30:
 3504 0709 74687265 		.ascii	"thread_t\000"
 3504      61645F74 
 3504      00
 3505              	.LASF107:
 3506 0712 6D5F6E65 		.ascii	"m_next\000"
 3506      787400
 3507              	.LASF29:
 3508 0719 73797374 		.ascii	"systime_t\000"
 3508      696D655F 
 3508      7400
 3509              	.LASF49:
ARM GAS  /tmp/ccIvQYkT.s 			page 68


 3510 0723 705F7265 		.ascii	"p_realprio\000"
 3510      616C7072 
 3510      696F00
 3511              	.LASF66:
 3512 072e 76746675 		.ascii	"vtfunc_t\000"
 3512      6E635F74 
 3512      00
 3513              	.LASF10:
 3514 0737 5F5F7569 		.ascii	"__uint32_t\000"
 3514      6E743332 
 3514      5F7400
 3515              	.LASF79:
 3516 0742 70616E69 		.ascii	"panic_msg\000"
 3516      635F6D73 
 3516      6700
 3517              	.LASF92:
 3518 074c 6F666673 		.ascii	"offset\000"
 3518      657400
 3519              	.LASF104:
 3520 0753 63685F6D 		.ascii	"ch_mutex\000"
 3520      75746578 
 3520      00
 3521              	.LASF143:
 3522 075c 6D705F6E 		.ascii	"mp_next\000"
 3522      65787400 
 3523              	.LASF90:
 3524 0764 636F6E74 		.ascii	"context\000"
 3524      65787400 
 3525              	.LASF68:
 3526 076c 63685F76 		.ascii	"ch_virtual_timer\000"
 3526      69727475 
 3526      616C5F74 
 3526      696D6572 
 3526      00
 3527              	.LASF73:
 3528 077d 76745F70 		.ascii	"vt_par\000"
 3528      617200
 3529              	.LASF118:
 3530 0784 63665F6F 		.ascii	"cf_off_ctx\000"
 3530      66665F63 
 3530      747800
 3531              	.LASF141:
 3532 078f 706F6F6C 		.ascii	"pool_header\000"
 3532      5F686561 
 3532      64657200 
 3533              	.LASF41:
 3534 079b 705F7265 		.ascii	"p_refs\000"
 3534      667300
 3535              	.LASF51:
 3536 07a2 6D6F746F 		.ascii	"motor_selected\000"
 3536      725F7365 
 3536      6C656374 
 3536      656400
 3537              	.LASF82:
 3538 07b1 726C6973 		.ascii	"rlist\000"
 3538      7400
 3539              	.LASF15:
ARM GAS  /tmp/ccIvQYkT.s 			page 69


 3540 07b7 75696E74 		.ascii	"uint8_t\000"
 3540      385F7400 
 3541              	.LASF159:
 3542 07bf 6368506F 		.ascii	"chPoolAlloc\000"
 3542      6F6C416C 
 3542      6C6F6300 
 3543              	.LASF165:
 3544 07cb 6368506F 		.ascii	"chPoolFree\000"
 3544      6F6C4672 
 3544      656500
 3545              	.LASF134:
 3546 07d6 685F7072 		.ascii	"h_provider\000"
 3546      6F766964 
 3546      657200
 3547              	.LASF52:
 3548 07e1 74687265 		.ascii	"thread_reference_t\000"
 3548      61645F72 
 3548      65666572 
 3548      656E6365 
 3548      5F7400
 3549              	.LASF96:
 3550 07f4 77746F62 		.ascii	"wtobjp\000"
 3550      6A7000
 3551              	.LASF37:
 3552 07fb 705F6E61 		.ascii	"p_name\000"
 3552      6D6500
 3553              	.LASF140:
 3554 0802 73697A65 		.ascii	"size\000"
 3554      00
 3555              	.LASF53:
 3556 0807 74687265 		.ascii	"threads_list_t\000"
 3556      6164735F 
 3556      6C697374 
 3556      5F7400
 3557              	.LASF171:
 3558 0816 63685379 		.ascii	"chSysUnlock\000"
 3558      73556E6C 
 3558      6F636B00 
 3559              	.LASF113:
 3560 0822 63685F76 		.ascii	"ch_version\000"
 3560      65727369 
 3560      6F6E00
 3561              	.LASF106:
 3562 082d 6D5F6F77 		.ascii	"m_owner\000"
 3562      6E657200 
 3563              	.LASF110:
 3564 0835 63685F69 		.ascii	"ch_identifier\000"
 3564      64656E74 
 3564      69666965 
 3564      7200
 3565              	.LASF72:
 3566 0843 76745F66 		.ascii	"vt_func\000"
 3566      756E6300 
 3567              	.LASF133:
 3568 084b 6D656D6F 		.ascii	"memory_heap\000"
 3568      72795F68 
 3568      65617000 
ARM GAS  /tmp/ccIvQYkT.s 			page 70


 3569              		.ident	"GCC: (GNU Tools for Arm Embedded Processors 7-2018-q3-update) 7.3.1 20180622 (release) [AR
ARM GAS  /tmp/ccIvQYkT.s 			page 71


DEFINED SYMBOLS
                            *ABS*:0000000000000000 chdynamic.c
     /tmp/ccIvQYkT.s:18     .text.chThdAddRef:0000000000000000 $t
     /tmp/ccIvQYkT.s:26     .text.chThdAddRef:0000000000000000 chThdAddRef
     /tmp/ccIvQYkT.s:78     .text.chThdRelease:0000000000000000 $t
     /tmp/ccIvQYkT.s:86     .text.chThdRelease:0000000000000000 chThdRelease
     /tmp/ccIvQYkT.s:181    .text.chThdCreateFromHeap:0000000000000000 $t
     /tmp/ccIvQYkT.s:189    .text.chThdCreateFromHeap:0000000000000000 chThdCreateFromHeap
     /tmp/ccIvQYkT.s:292    .text.chThdCreateFromMemoryPool:0000000000000000 $t
     /tmp/ccIvQYkT.s:300    .text.chThdCreateFromMemoryPool:0000000000000000 chThdCreateFromMemoryPool

UNDEFINED SYMBOLS
chHeapFree
chPoolFree
chHeapAlloc
_thread_memfill
chThdCreateI
chSchWakeupS
chPoolAlloc
