ARM GAS  /tmp/cca0JkoX.s 			page 1


   1              		.cpu cortex-m4
   2              		.eabi_attribute 27, 1
   3              		.eabi_attribute 28, 1
   4              		.eabi_attribute 20, 1
   5              		.eabi_attribute 21, 1
   6              		.eabi_attribute 23, 3
   7              		.eabi_attribute 24, 1
   8              		.eabi_attribute 25, 1
   9              		.eabi_attribute 26, 1
  10              		.eabi_attribute 30, 2
  11              		.eabi_attribute 34, 1
  12              		.eabi_attribute 18, 4
  13              		.file	"chheap.c"
  14              		.text
  15              	.Ltext0:
  16              		.cfi_sections	.debug_frame
  17              		.section	.text._heap_init,"ax",%progbits
  18              		.align	1
  19              		.p2align 4,,15
  20              		.global	_heap_init
  21              		.syntax unified
  22              		.thumb
  23              		.thumb_func
  24              		.fpu fpv4-sp-d16
  25              		.type	_heap_init, %function
  26              	_heap_init:
  27              	.LFB219:
  28              		.file 1 "ChibiOS_3.0.5/os/rt/src/chheap.c"
  29              		.loc 1 91 0
  30              		.cfi_startproc
  31              		@ args = 0, pretend = 0, frame = 0
  32              		@ frame_needed = 0, uses_anonymous_args = 0
  33              		@ link register save eliminated.
  34              		.loc 1 93 0
  35 0000 044B     		ldr	r3, .L3
  36 0002 054A     		ldr	r2, .L3+4
  37 0004 1A60     		str	r2, [r3]
  38              		.loc 1 97 0
  39 0006 03F11000 		add	r0, r3, #16
  40              		.loc 1 94 0
  41 000a 0022     		movs	r2, #0
  42              		.loc 1 95 0
  43 000c C3E90222 		strd	r2, r2, [r3, #8]
  44              		.loc 1 97 0
  45 0010 FFF7FEBF 		b	chMtxObjectInit
  46              	.LVL0:
  47              	.L4:
  48              		.align	2
  49              	.L3:
  50 0014 00000000 		.word	.LANCHOR0
  51 0018 00000000 		.word	chCoreAlloc
  52              		.cfi_endproc
  53              	.LFE219:
  54              		.size	_heap_init, .-_heap_init
  55              		.section	.text.chHeapObjectInit,"ax",%progbits
  56              		.align	1
  57              		.p2align 4,,15
ARM GAS  /tmp/cca0JkoX.s 			page 2


  58              		.global	chHeapObjectInit
  59              		.syntax unified
  60              		.thumb
  61              		.thumb_func
  62              		.fpu fpv4-sp-d16
  63              		.type	chHeapObjectInit, %function
  64              	chHeapObjectInit:
  65              	.LFB220:
  66              		.loc 1 114 0
  67              		.cfi_startproc
  68              		@ args = 0, pretend = 0, frame = 0
  69              		@ frame_needed = 0, uses_anonymous_args = 0
  70              		@ link register save eliminated.
  71              	.LVL1:
  72              		.loc 1 119 0
  73 0000 0023     		movs	r3, #0
  74              		.loc 1 123 0
  75 0002 083A     		subs	r2, r2, #8
  76              	.LVL2:
  77              		.loc 1 120 0
  78 0004 8160     		str	r1, [r0, #8]
  79              		.loc 1 119 0
  80 0006 0360     		str	r3, [r0]
  81              		.loc 1 121 0
  82 0008 C360     		str	r3, [r0, #12]
  83              		.loc 1 125 0
  84 000a 1030     		adds	r0, r0, #16
  85              	.LVL3:
  86              		.loc 1 122 0
  87 000c C1E90032 		strd	r3, r2, [r1]
  88              		.loc 1 125 0
  89 0010 FFF7FEBF 		b	chMtxObjectInit
  90              	.LVL4:
  91              		.cfi_endproc
  92              	.LFE220:
  93              		.size	chHeapObjectInit, .-chHeapObjectInit
  94              		.section	.text.chHeapAlloc,"ax",%progbits
  95              		.align	1
  96              		.p2align 4,,15
  97              		.global	chHeapAlloc
  98              		.syntax unified
  99              		.thumb
 100              		.thumb_func
 101              		.fpu fpv4-sp-d16
 102              		.type	chHeapAlloc, %function
 103              	chHeapAlloc:
 104              	.LFB221:
 105              		.loc 1 147 0
 106              		.cfi_startproc
 107              		@ args = 0, pretend = 0, frame = 0
 108              		@ frame_needed = 0, uses_anonymous_args = 0
 109              	.LVL5:
 110 0000 F8B5     		push	{r3, r4, r5, r6, r7, lr}
 111              		.cfi_def_cfa_offset 24
 112              		.cfi_offset 3, -24
 113              		.cfi_offset 4, -20
 114              		.cfi_offset 5, -16
ARM GAS  /tmp/cca0JkoX.s 			page 3


 115              		.cfi_offset 6, -12
 116              		.cfi_offset 7, -8
 117              		.cfi_offset 14, -4
 118              		.loc 1 151 0
 119 0002 204E     		ldr	r6, .L22
 120 0004 0028     		cmp	r0, #0
 121 0006 18BF     		it	ne
 122 0008 0646     		movne	r6, r0
 123              	.LVL6:
 124              		.loc 1 157 0
 125 000a 06F11007 		add	r7, r6, #16
 126              		.loc 1 154 0
 127 000e 0731     		adds	r1, r1, #7
 128              	.LVL7:
 129              		.loc 1 157 0
 130 0010 3846     		mov	r0, r7
 131              		.loc 1 154 0
 132 0012 21F00705 		bic	r5, r1, #7
 133              	.LVL8:
 134              		.loc 1 155 0
 135 0016 06F10804 		add	r4, r6, #8
 136              	.LVL9:
 137              		.loc 1 157 0
 138 001a FFF7FEFF 		bl	chMtxLock
 139              	.LVL10:
 140              		.loc 1 158 0
 141 001e 03E0     		b	.L8
 142              	.LVL11:
 143              	.L12:
 144              		.loc 1 160 0
 145 0020 4368     		ldr	r3, [r0, #4]
 146 0022 AB42     		cmp	r3, r5
 147 0024 12D2     		bcs	.L21
 148 0026 0446     		mov	r4, r0
 149              	.LVL12:
 150              	.L8:
 151              		.loc 1 158 0
 152 0028 2068     		ldr	r0, [r4]
 153              	.LVL13:
 154 002a 0028     		cmp	r0, #0
 155 002c F8D1     		bne	.L12
 156              		.loc 1 186 0
 157 002e 3846     		mov	r0, r7
 158              	.LVL14:
 159 0030 FFF7FEFF 		bl	chMtxUnlock
 160              	.LVL15:
 161              		.loc 1 190 0
 162 0034 3368     		ldr	r3, [r6]
 163 0036 13B3     		cbz	r3, .L14
 164              		.loc 1 191 0
 165 0038 05F10800 		add	r0, r5, #8
 166 003c 9847     		blx	r3
 167              	.LVL16:
 168              		.loc 1 192 0
 169 003e F0B1     		cbz	r0, .L14
 170              		.loc 1 194 0
 171 0040 C0E90065 		strd	r6, r5, [r0]
ARM GAS  /tmp/cca0JkoX.s 			page 4


 172              		.loc 1 195 0
 173 0044 00F10804 		add	r4, r0, #8
 174              	.LVL17:
 175              	.L6:
 176              		.loc 1 204 0
 177 0048 2046     		mov	r0, r4
 178 004a F8BD     		pop	{r3, r4, r5, r6, r7, pc}
 179              	.LVL18:
 180              	.L21:
 181              		.loc 1 161 0
 182 004c 05F10802 		add	r2, r5, #8
 183 0050 9342     		cmp	r3, r2
 184 0052 0168     		ldr	r1, [r0]
 185 0054 08D2     		bcs	.L9
 186              		.loc 1 165 0
 187 0056 2160     		str	r1, [r4]
 188              	.L10:
 189              		.loc 1 177 0
 190 0058 0446     		mov	r4, r0
 191              	.LVL19:
 192              		.loc 1 178 0
 193 005a 3846     		mov	r0, r7
 194              	.LVL20:
 195              		.loc 1 177 0
 196 005c 44F8086B 		str	r6, [r4], #8
 197              	.LVL21:
 198              		.loc 1 178 0
 199 0060 FFF7FEFF 		bl	chMtxUnlock
 200              	.LVL22:
 201              		.loc 1 204 0
 202 0064 2046     		mov	r0, r4
 203 0066 F8BD     		pop	{r3, r4, r5, r6, r7, pc}
 204              	.LVL23:
 205              	.L9:
 206              		.loc 1 170 0
 207 0068 00EB020C 		add	ip, r0, r2
 208              	.LVL24:
 209              		.loc 1 173 0
 210 006c 5B1B     		subs	r3, r3, r5
 211 006e 083B     		subs	r3, r3, #8
 212              		.loc 1 172 0
 213 0070 8150     		str	r1, [r0, r2]
 214              		.loc 1 173 0
 215 0072 CCF80430 		str	r3, [ip, #4]
 216              		.loc 1 174 0
 217 0076 C4F800C0 		str	ip, [r4]
 218              		.loc 1 175 0
 219 007a 4560     		str	r5, [r0, #4]
 220 007c ECE7     		b	.L10
 221              	.LVL25:
 222              	.L14:
 223              		.loc 1 203 0
 224 007e 0024     		movs	r4, #0
 225              	.LVL26:
 226 0080 E2E7     		b	.L6
 227              	.L23:
 228 0082 00BF     		.align	2
ARM GAS  /tmp/cca0JkoX.s 			page 5


 229              	.L22:
 230 0084 00000000 		.word	.LANCHOR0
 231              		.cfi_endproc
 232              	.LFE221:
 233              		.size	chHeapAlloc, .-chHeapAlloc
 234              		.section	.text.chHeapFree,"ax",%progbits
 235              		.align	1
 236              		.p2align 4,,15
 237              		.global	chHeapFree
 238              		.syntax unified
 239              		.thumb
 240              		.thumb_func
 241              		.fpu fpv4-sp-d16
 242              		.type	chHeapFree, %function
 243              	chHeapFree:
 244              	.LFB222:
 245              		.loc 1 213 0
 246              		.cfi_startproc
 247              		@ args = 0, pretend = 0, frame = 0
 248              		@ frame_needed = 0, uses_anonymous_args = 0
 249              	.LVL27:
 250 0000 F8B5     		push	{r3, r4, r5, r6, r7, lr}
 251              		.cfi_def_cfa_offset 24
 252              		.cfi_offset 3, -24
 253              		.cfi_offset 4, -20
 254              		.cfi_offset 5, -16
 255              		.cfi_offset 6, -12
 256              		.cfi_offset 7, -8
 257              		.cfi_offset 14, -4
 258              		.loc 1 222 0
 259 0002 50F8085C 		ldr	r5, [r0, #-8]
 260              		.loc 1 225 0
 261 0006 05F11007 		add	r7, r5, #16
 262              		.loc 1 213 0
 263 000a 0646     		mov	r6, r0
 264              		.loc 1 220 0
 265 000c A0F10804 		sub	r4, r0, #8
 266              	.LVL28:
 267              		.loc 1 223 0
 268 0010 0835     		adds	r5, r5, #8
 269              	.LVL29:
 270              		.loc 1 225 0
 271 0012 3846     		mov	r0, r7
 272              	.LVL30:
 273 0014 FFF7FEFF 		bl	chMtxLock
 274              	.LVL31:
 275              		.loc 1 223 0
 276 0018 2B46     		mov	r3, r5
 277              	.LVL32:
 278              	.L25:
 279              		.loc 1 229 0
 280 001a AB42     		cmp	r3, r5
 281 001c 1A68     		ldr	r2, [r3]
 282 001e 01D0     		beq	.L26
 283              		.loc 1 229 0 is_stmt 0 discriminator 2
 284 0020 A342     		cmp	r3, r4
 285 0022 02D2     		bcs	.L27
ARM GAS  /tmp/cca0JkoX.s 			page 6


 286              	.L26:
 287              		.loc 1 229 0 discriminator 3
 288 0024 1AB1     		cbz	r2, .L28
 289              		.loc 1 230 0 is_stmt 1
 290 0026 9442     		cmp	r4, r2
 291 0028 01D3     		bcc	.L28
 292              	.L27:
 293              		.loc 1 213 0
 294 002a 1346     		mov	r3, r2
 295              	.LVL33:
 296 002c F5E7     		b	.L25
 297              	.LVL34:
 298              	.L28:
 299              		.loc 1 232 0
 300 002e 46F8082C 		str	r2, [r6, #-8]
 301              		.loc 1 235 0
 302 0032 56F8042C 		ldr	r2, [r6, #-4]
 303              		.loc 1 233 0
 304 0036 1C60     		str	r4, [r3]
 305              		.loc 1 235 0
 306 0038 56F8080C 		ldr	r0, [r6, #-8]
 307 003c B118     		adds	r1, r6, r2
 308 003e 8142     		cmp	r1, r0
 309 0040 0AD0     		beq	.L35
 310              		.loc 1 240 0
 311 0042 5968     		ldr	r1, [r3, #4]
 312 0044 01F10802 		add	r2, r1, #8
 313 0048 1A44     		add	r2, r2, r3
 314 004a 9442     		cmp	r4, r2
 315 004c 12D0     		beq	.L36
 316              	.L30:
 317              		.loc 1 249 0
 318 004e 3846     		mov	r0, r7
 319              		.loc 1 252 0
 320 0050 BDE8F840 		pop	{r3, r4, r5, r6, r7, lr}
 321              		.cfi_remember_state
 322              		.cfi_restore 14
 323              		.cfi_restore 7
 324              		.cfi_restore 6
 325              		.cfi_restore 5
 326              		.cfi_restore 4
 327              		.cfi_restore 3
 328              		.cfi_def_cfa_offset 0
 329              	.LVL35:
 330              		.loc 1 249 0
 331 0054 FFF7FEBF 		b	chMtxUnlock
 332              	.LVL36:
 333              	.L35:
 334              		.cfi_restore_state
 335              		.loc 1 237 0
 336 0058 4968     		ldr	r1, [r1, #4]
 337              		.loc 1 238 0
 338 005a B058     		ldr	r0, [r6, r2]
 339 005c 46F8080C 		str	r0, [r6, #-8]
 340              		.loc 1 237 0
 341 0060 0832     		adds	r2, r2, #8
 342 0062 0A44     		add	r2, r2, r1
ARM GAS  /tmp/cca0JkoX.s 			page 7


 343 0064 46F8042C 		str	r2, [r6, #-4]
 344              		.loc 1 240 0
 345 0068 5968     		ldr	r1, [r3, #4]
 346 006a 01F10802 		add	r2, r1, #8
 347 006e 1A44     		add	r2, r2, r3
 348 0070 9442     		cmp	r4, r2
 349 0072 ECD1     		bne	.L30
 350              	.L36:
 351              		.loc 1 243 0
 352 0074 56E90202 		ldrd	r0, r2, [r6, #-8]
 353              		.loc 1 242 0
 354 0078 0832     		adds	r2, r2, #8
 355 007a 1144     		add	r1, r1, r2
 356              		.loc 1 243 0
 357 007c 1860     		str	r0, [r3]
 358              		.loc 1 242 0
 359 007e 5960     		str	r1, [r3, #4]
 360              		.loc 1 249 0
 361 0080 3846     		mov	r0, r7
 362              		.loc 1 252 0
 363 0082 BDE8F840 		pop	{r3, r4, r5, r6, r7, lr}
 364              		.cfi_restore 14
 365              		.cfi_restore 7
 366              		.cfi_restore 6
 367              		.cfi_restore 5
 368              		.cfi_restore 4
 369              		.cfi_restore 3
 370              		.cfi_def_cfa_offset 0
 371              	.LVL37:
 372              		.loc 1 249 0
 373 0086 FFF7FEBF 		b	chMtxUnlock
 374              	.LVL38:
 375              		.cfi_endproc
 376              	.LFE222:
 377              		.size	chHeapFree, .-chHeapFree
 378 008a 00BF     		.section	.text.chHeapStatus,"ax",%progbits
 379              		.align	1
 380              		.p2align 4,,15
 381              		.global	chHeapStatus
 382              		.syntax unified
 383              		.thumb
 384              		.thumb_func
 385              		.fpu fpv4-sp-d16
 386              		.type	chHeapStatus, %function
 387              	chHeapStatus:
 388              	.LFB223:
 389              		.loc 1 267 0
 390              		.cfi_startproc
 391              		@ args = 0, pretend = 0, frame = 0
 392              		@ frame_needed = 0, uses_anonymous_args = 0
 393              	.LVL39:
 394 0000 70B5     		push	{r4, r5, r6, lr}
 395              		.cfi_def_cfa_offset 16
 396              		.cfi_offset 4, -16
 397              		.cfi_offset 5, -12
 398              		.cfi_offset 6, -8
 399              		.cfi_offset 14, -4
ARM GAS  /tmp/cca0JkoX.s 			page 8


 400              		.loc 1 272 0
 401 0002 0F4C     		ldr	r4, .L48
 402 0004 0028     		cmp	r0, #0
 403 0006 18BF     		it	ne
 404 0008 0446     		movne	r4, r0
 405              	.LVL40:
 406              		.loc 1 275 0
 407 000a 04F11005 		add	r5, r4, #16
 408 000e 2846     		mov	r0, r5
 409              		.loc 1 267 0
 410 0010 0E46     		mov	r6, r1
 411              		.loc 1 275 0
 412 0012 FFF7FEFF 		bl	chMtxLock
 413              	.LVL41:
 414              		.loc 1 279 0
 415 0016 A368     		ldr	r3, [r4, #8]
 416 0018 73B1     		cbz	r3, .L42
 417              		.loc 1 276 0
 418 001a 0022     		movs	r2, #0
 419              		.loc 1 277 0
 420 001c 1446     		mov	r4, r2
 421              	.LVL42:
 422              	.L40:
 423              		.loc 1 279 0
 424 001e D3E90030 		ldrd	r3, r0, [r3]
 425              		.loc 1 281 0
 426 0022 0134     		adds	r4, r4, #1
 427              	.LVL43:
 428              		.loc 1 280 0
 429 0024 0244     		add	r2, r2, r0
 430              	.LVL44:
 431              		.loc 1 279 0
 432 0026 002B     		cmp	r3, #0
 433 0028 F9D1     		bne	.L40
 434              	.LVL45:
 435              	.L39:
 436              		.loc 1 284 0
 437 002a 06B1     		cbz	r6, .L41
 438              		.loc 1 285 0
 439 002c 3260     		str	r2, [r6]
 440              	.L41:
 441              		.loc 1 287 0
 442 002e 2846     		mov	r0, r5
 443 0030 FFF7FEFF 		bl	chMtxUnlock
 444              	.LVL46:
 445              		.loc 1 290 0
 446 0034 2046     		mov	r0, r4
 447 0036 70BD     		pop	{r4, r5, r6, pc}
 448              	.LVL47:
 449              	.L42:
 450              		.loc 1 276 0
 451 0038 1A46     		mov	r2, r3
 452              		.loc 1 277 0
 453 003a 1C46     		mov	r4, r3
 454              	.LVL48:
 455 003c F5E7     		b	.L39
 456              	.L49:
ARM GAS  /tmp/cca0JkoX.s 			page 9


 457 003e 00BF     		.align	2
 458              	.L48:
 459 0040 00000000 		.word	.LANCHOR0
 460              		.cfi_endproc
 461              	.LFE223:
 462              		.size	chHeapStatus, .-chHeapStatus
 463              		.section	.bss.default_heap,"aw",%nobits
 464              		.align	3
 465              		.set	.LANCHOR0,. + 0
 466              		.type	default_heap, %object
 467              		.size	default_heap, 32
 468              	default_heap:
 469 0000 00000000 		.space	32
 469      00000000 
 469      00000000 
 469      00000000 
 469      00000000 
 470              		.text
 471              	.Letext0:
 472              		.file 2 "/usr/lib/gcc/arm-none-eabi/7.3.1/include/stddef.h"
 473              		.file 3 "/usr/arm-none-eabi/include/machine/_default_types.h"
 474              		.file 4 "/usr/arm-none-eabi/include/sys/_stdint.h"
 475              		.file 5 "ChibiOS_3.0.5/os/rt/ports/ARMCMx/compilers/GCC/chtypes.h"
 476              		.file 6 "ChibiOS_3.0.5/os/rt/include/chsystypes.h"
 477              		.file 7 "ChibiOS_3.0.5/os/rt/include/chschd.h"
 478              		.file 8 "ChibiOS_3.0.5/os/ext/CMSIS/include/core_cm4.h"
 479              		.file 9 "ChibiOS_3.0.5/os/ext/CMSIS/ST/system_stm32f4xx.h"
 480              		.file 10 "ChibiOS_3.0.5/os/rt/ports/ARMCMx/chcore.h"
 481              		.file 11 "ChibiOS_3.0.5/os/rt/ports/ARMCMx/chcore_v7m.h"
 482              		.file 12 "ChibiOS_3.0.5/os/rt/include/chtm.h"
 483              		.file 13 "ChibiOS_3.0.5/os/rt/include/chsem.h"
 484              		.file 14 "ChibiOS_3.0.5/os/rt/include/chmtx.h"
 485              		.file 15 "ChibiOS_3.0.5/os/rt/include/chregistry.h"
 486              		.file 16 "ChibiOS_3.0.5/os/rt/include/chmemcore.h"
 487              		.file 17 "ChibiOS_3.0.5/os/rt/include/chheap.h"
 488              		.section	.debug_info,"",%progbits
 489              	.Ldebug_info0:
 490 0000 DE0B0000 		.4byte	0xbde
 491 0004 0400     		.2byte	0x4
 492 0006 00000000 		.4byte	.Ldebug_abbrev0
 493 000a 04       		.byte	0x4
 494 000b 01       		.uleb128 0x1
 495 000c 4E000000 		.4byte	.LASF152
 496 0010 0C       		.byte	0xc
 497 0011 7C030000 		.4byte	.LASF153
 498 0015 E2050000 		.4byte	.LASF154
 499 0019 00000000 		.4byte	.Ldebug_ranges0+0
 500 001d 00000000 		.4byte	0
 501 0021 00000000 		.4byte	.Ldebug_line0
 502 0025 02       		.uleb128 0x2
 503 0026 04       		.byte	0x4
 504 0027 05       		.byte	0x5
 505 0028 696E7400 		.ascii	"int\000"
 506 002c 03       		.uleb128 0x3
 507 002d 0D000000 		.4byte	.LASF2
 508 0031 02       		.byte	0x2
 509 0032 D8       		.byte	0xd8
ARM GAS  /tmp/cca0JkoX.s 			page 10


 510 0033 37000000 		.4byte	0x37
 511 0037 04       		.uleb128 0x4
 512 0038 04       		.byte	0x4
 513 0039 07       		.byte	0x7
 514 003a 16030000 		.4byte	.LASF0
 515 003e 04       		.uleb128 0x4
 516 003f 01       		.byte	0x1
 517 0040 06       		.byte	0x6
 518 0041 1F020000 		.4byte	.LASF1
 519 0045 03       		.uleb128 0x3
 520 0046 29000000 		.4byte	.LASF3
 521 004a 03       		.byte	0x3
 522 004b 2B       		.byte	0x2b
 523 004c 50000000 		.4byte	0x50
 524 0050 04       		.uleb128 0x4
 525 0051 01       		.byte	0x1
 526 0052 08       		.byte	0x8
 527 0053 24050000 		.4byte	.LASF4
 528 0057 04       		.uleb128 0x4
 529 0058 02       		.byte	0x2
 530 0059 05       		.byte	0x5
 531 005a 48050000 		.4byte	.LASF5
 532 005e 03       		.uleb128 0x3
 533 005f 53060000 		.4byte	.LASF6
 534 0063 03       		.byte	0x3
 535 0064 39       		.byte	0x39
 536 0065 69000000 		.4byte	0x69
 537 0069 04       		.uleb128 0x4
 538 006a 02       		.byte	0x2
 539 006b 07       		.byte	0x7
 540 006c A3030000 		.4byte	.LASF7
 541 0070 03       		.uleb128 0x3
 542 0071 03040000 		.4byte	.LASF8
 543 0075 03       		.byte	0x3
 544 0076 4D       		.byte	0x4d
 545 0077 7B000000 		.4byte	0x7b
 546 007b 04       		.uleb128 0x4
 547 007c 04       		.byte	0x4
 548 007d 05       		.byte	0x5
 549 007e 8A020000 		.4byte	.LASF9
 550 0082 03       		.uleb128 0x3
 551 0083 99060000 		.4byte	.LASF10
 552 0087 03       		.byte	0x3
 553 0088 4F       		.byte	0x4f
 554 0089 8D000000 		.4byte	0x8d
 555 008d 04       		.uleb128 0x4
 556 008e 04       		.byte	0x4
 557 008f 07       		.byte	0x7
 558 0090 22060000 		.4byte	.LASF11
 559 0094 04       		.uleb128 0x4
 560 0095 08       		.byte	0x8
 561 0096 05       		.byte	0x5
 562 0097 DD020000 		.4byte	.LASF12
 563 009b 03       		.uleb128 0x3
 564 009c BF040000 		.4byte	.LASF13
 565 00a0 03       		.byte	0x3
 566 00a1 69       		.byte	0x69
ARM GAS  /tmp/cca0JkoX.s 			page 11


 567 00a2 A6000000 		.4byte	0xa6
 568 00a6 04       		.uleb128 0x4
 569 00a7 08       		.byte	0x8
 570 00a8 07       		.byte	0x7
 571 00a9 7F010000 		.4byte	.LASF14
 572 00ad 03       		.uleb128 0x3
 573 00ae 05070000 		.4byte	.LASF15
 574 00b2 04       		.byte	0x4
 575 00b3 18       		.byte	0x18
 576 00b4 45000000 		.4byte	0x45
 577 00b8 03       		.uleb128 0x3
 578 00b9 2B030000 		.4byte	.LASF16
 579 00bd 04       		.byte	0x4
 580 00be 24       		.byte	0x24
 581 00bf 5E000000 		.4byte	0x5e
 582 00c3 03       		.uleb128 0x3
 583 00c4 1C050000 		.4byte	.LASF17
 584 00c8 04       		.byte	0x4
 585 00c9 2C       		.byte	0x2c
 586 00ca 70000000 		.4byte	0x70
 587 00ce 05       		.uleb128 0x5
 588 00cf C3000000 		.4byte	0xc3
 589 00d3 03       		.uleb128 0x3
 590 00d4 E8050000 		.4byte	.LASF18
 591 00d8 04       		.byte	0x4
 592 00d9 30       		.byte	0x30
 593 00da 82000000 		.4byte	0x82
 594 00de 03       		.uleb128 0x3
 595 00df 20000000 		.4byte	.LASF19
 596 00e3 04       		.byte	0x4
 597 00e4 3C       		.byte	0x3c
 598 00e5 9B000000 		.4byte	0x9b
 599 00e9 03       		.uleb128 0x3
 600 00ea 47040000 		.4byte	.LASF20
 601 00ee 05       		.byte	0x5
 602 00ef 45       		.byte	0x45
 603 00f0 D3000000 		.4byte	0xd3
 604 00f4 03       		.uleb128 0x3
 605 00f5 79050000 		.4byte	.LASF21
 606 00f9 05       		.byte	0x5
 607 00fa 48       		.byte	0x48
 608 00fb AD000000 		.4byte	0xad
 609 00ff 03       		.uleb128 0x3
 610 0100 93020000 		.4byte	.LASF22
 611 0104 05       		.byte	0x5
 612 0105 49       		.byte	0x49
 613 0106 AD000000 		.4byte	0xad
 614 010a 03       		.uleb128 0x3
 615 010b CA040000 		.4byte	.LASF23
 616 010f 05       		.byte	0x5
 617 0110 4A       		.byte	0x4a
 618 0111 AD000000 		.4byte	0xad
 619 0115 03       		.uleb128 0x3
 620 0116 70020000 		.4byte	.LASF24
 621 011a 05       		.byte	0x5
 622 011b 4B       		.byte	0x4b
 623 011c AD000000 		.4byte	0xad
ARM GAS  /tmp/cca0JkoX.s 			page 12


 624 0120 03       		.uleb128 0x3
 625 0121 F4040000 		.4byte	.LASF25
 626 0125 05       		.byte	0x5
 627 0126 4C       		.byte	0x4c
 628 0127 D3000000 		.4byte	0xd3
 629 012b 03       		.uleb128 0x3
 630 012c CB030000 		.4byte	.LASF26
 631 0130 05       		.byte	0x5
 632 0131 4D       		.byte	0x4d
 633 0132 C3000000 		.4byte	0xc3
 634 0136 03       		.uleb128 0x3
 635 0137 F7030000 		.4byte	.LASF27
 636 013b 05       		.byte	0x5
 637 013c 4F       		.byte	0x4f
 638 013d D3000000 		.4byte	0xd3
 639 0141 03       		.uleb128 0x3
 640 0142 05030000 		.4byte	.LASF28
 641 0146 05       		.byte	0x5
 642 0147 51       		.byte	0x51
 643 0148 C3000000 		.4byte	0xc3
 644 014c 03       		.uleb128 0x3
 645 014d 7B060000 		.4byte	.LASF29
 646 0151 06       		.byte	0x6
 647 0152 33       		.byte	0x33
 648 0153 D3000000 		.4byte	0xd3
 649 0157 05       		.uleb128 0x5
 650 0158 4C010000 		.4byte	0x14c
 651 015c 03       		.uleb128 0x3
 652 015d 5E060000 		.4byte	.LASF30
 653 0161 06       		.byte	0x6
 654 0162 3F       		.byte	0x3f
 655 0163 67010000 		.4byte	0x167
 656 0167 06       		.uleb128 0x6
 657 0168 B6030000 		.4byte	.LASF54
 658 016c 50       		.byte	0x50
 659 016d 07       		.byte	0x7
 660 016e C2       		.byte	0xc2
 661 016f 85020000 		.4byte	0x285
 662 0173 07       		.uleb128 0x7
 663 0174 72050000 		.4byte	.LASF31
 664 0178 07       		.byte	0x7
 665 0179 C3       		.byte	0xc3
 666 017a 90020000 		.4byte	0x290
 667 017e 00       		.byte	0
 668 017f 07       		.uleb128 0x7
 669 0180 ED040000 		.4byte	.LASF32
 670 0184 07       		.byte	0x7
 671 0185 C5       		.byte	0xc5
 672 0186 90020000 		.4byte	0x290
 673 018a 04       		.byte	0x4
 674 018b 07       		.uleb128 0x7
 675 018c F4010000 		.4byte	.LASF33
 676 0190 07       		.byte	0x7
 677 0191 C7       		.byte	0xc7
 678 0192 20010000 		.4byte	0x120
 679 0196 08       		.byte	0x8
 680 0197 07       		.uleb128 0x7
ARM GAS  /tmp/cca0JkoX.s 			page 13


 681 0198 96040000 		.4byte	.LASF34
 682 019c 07       		.byte	0x7
 683 019d C8       		.byte	0xc8
 684 019e D0040000 		.4byte	0x4d0
 685 01a2 0C       		.byte	0xc
 686 01a3 07       		.uleb128 0x7
 687 01a4 B4020000 		.4byte	.LASF35
 688 01a8 07       		.byte	0x7
 689 01a9 CA       		.byte	0xca
 690 01aa 90020000 		.4byte	0x290
 691 01ae 10       		.byte	0x10
 692 01af 07       		.uleb128 0x7
 693 01b0 88040000 		.4byte	.LASF36
 694 01b4 07       		.byte	0x7
 695 01b5 CB       		.byte	0xcb
 696 01b6 90020000 		.4byte	0x290
 697 01ba 14       		.byte	0x14
 698 01bb 07       		.uleb128 0x7
 699 01bc 38070000 		.4byte	.LASF37
 700 01c0 07       		.byte	0x7
 701 01c1 D2       		.byte	0xd2
 702 01c2 15070000 		.4byte	0x715
 703 01c6 18       		.byte	0x18
 704 01c7 07       		.uleb128 0x7
 705 01c8 0B030000 		.4byte	.LASF38
 706 01cc 07       		.byte	0x7
 707 01cd D8       		.byte	0xd8
 708 01ce 2C070000 		.4byte	0x72c
 709 01d2 1C       		.byte	0x1c
 710 01d3 07       		.uleb128 0x7
 711 01d4 52050000 		.4byte	.LASF39
 712 01d8 07       		.byte	0x7
 713 01d9 DD       		.byte	0xdd
 714 01da FF000000 		.4byte	0xff
 715 01de 20       		.byte	0x20
 716 01df 07       		.uleb128 0x7
 717 01e0 90050000 		.4byte	.LASF40
 718 01e4 07       		.byte	0x7
 719 01e5 E1       		.byte	0xe1
 720 01e6 F4000000 		.4byte	0xf4
 721 01ea 21       		.byte	0x21
 722 01eb 07       		.uleb128 0x7
 723 01ec E9060000 		.4byte	.LASF41
 724 01f0 07       		.byte	0x7
 725 01f1 E6       		.byte	0xe6
 726 01f2 0A010000 		.4byte	0x10a
 727 01f6 22       		.byte	0x22
 728 01f7 07       		.uleb128 0x7
 729 01f8 5A050000 		.4byte	.LASF42
 730 01fc 07       		.byte	0x7
 731 01fd EC       		.byte	0xec
 732 01fe 15010000 		.4byte	0x115
 733 0202 23       		.byte	0x23
 734 0203 07       		.uleb128 0x7
 735 0204 44030000 		.4byte	.LASF43
 736 0208 07       		.byte	0x7
 737 0209 F3       		.byte	0xf3
ARM GAS  /tmp/cca0JkoX.s 			page 14


 738 020a 57010000 		.4byte	0x157
 739 020e 24       		.byte	0x24
 740 020f 08       		.uleb128 0x8
 741 0210 705F7500 		.ascii	"p_u\000"
 742 0214 07       		.byte	0x7
 743 0215 3101     		.2byte	0x131
 744 0217 50060000 		.4byte	0x650
 745 021b 28       		.byte	0x28
 746 021c 09       		.uleb128 0x9
 747 021d 3D040000 		.4byte	.LASF44
 748 0221 07       		.byte	0x7
 749 0222 3601     		.2byte	0x136
 750 0224 96020000 		.4byte	0x296
 751 0228 2C       		.byte	0x2c
 752 0229 09       		.uleb128 0x9
 753 022a 68030000 		.4byte	.LASF45
 754 022e 07       		.byte	0x7
 755 022f 3C01     		.2byte	0x13c
 756 0231 BA020000 		.4byte	0x2ba
 757 0235 30       		.byte	0x30
 758 0236 09       		.uleb128 0x9
 759 0237 4D060000 		.4byte	.LASF46
 760 023b 07       		.byte	0x7
 761 023c 4001     		.2byte	0x140
 762 023e 2B010000 		.4byte	0x12b
 763 0242 38       		.byte	0x38
 764 0243 09       		.uleb128 0x9
 765 0244 D7050000 		.4byte	.LASF47
 766 0248 07       		.byte	0x7
 767 0249 4601     		.2byte	0x146
 768 024b 36010000 		.4byte	0x136
 769 024f 3C       		.byte	0x3c
 770 0250 09       		.uleb128 0x9
 771 0251 3E050000 		.4byte	.LASF48
 772 0255 07       		.byte	0x7
 773 0256 4D01     		.2byte	0x14d
 774 0258 0F070000 		.4byte	0x70f
 775 025c 40       		.byte	0x40
 776 025d 09       		.uleb128 0x9
 777 025e 85060000 		.4byte	.LASF49
 778 0262 07       		.byte	0x7
 779 0263 5101     		.2byte	0x151
 780 0265 20010000 		.4byte	0x120
 781 0269 44       		.byte	0x44
 782 026a 09       		.uleb128 0x9
 783 026b 4E020000 		.4byte	.LASF50
 784 026f 07       		.byte	0x7
 785 0270 5801     		.2byte	0x158
 786 0272 6D030000 		.4byte	0x36d
 787 0276 48       		.byte	0x48
 788 0277 09       		.uleb128 0x9
 789 0278 F0060000 		.4byte	.LASF51
 790 027c 07       		.byte	0x7
 791 027d 6201     		.2byte	0x162
 792 027f 25000000 		.4byte	0x25
 793 0283 4C       		.byte	0x4c
 794 0284 00       		.byte	0
ARM GAS  /tmp/cca0JkoX.s 			page 15


 795 0285 03       		.uleb128 0x3
 796 0286 18070000 		.4byte	.LASF52
 797 028a 06       		.byte	0x6
 798 028b 44       		.byte	0x44
 799 028c 90020000 		.4byte	0x290
 800 0290 0A       		.uleb128 0xa
 801 0291 04       		.byte	0x4
 802 0292 5C010000 		.4byte	0x15c
 803 0296 03       		.uleb128 0x3
 804 0297 44070000 		.4byte	.LASF53
 805 029b 06       		.byte	0x6
 806 029c 49       		.byte	0x49
 807 029d A1020000 		.4byte	0x2a1
 808 02a1 06       		.uleb128 0x6
 809 02a2 05060000 		.4byte	.LASF55
 810 02a6 04       		.byte	0x4
 811 02a7 07       		.byte	0x7
 812 02a8 B0       		.byte	0xb0
 813 02a9 BA020000 		.4byte	0x2ba
 814 02ad 07       		.uleb128 0x7
 815 02ae 72050000 		.4byte	.LASF31
 816 02b2 07       		.byte	0x7
 817 02b3 B1       		.byte	0xb1
 818 02b4 90020000 		.4byte	0x290
 819 02b8 00       		.byte	0
 820 02b9 00       		.byte	0
 821 02ba 03       		.uleb128 0x3
 822 02bb A1050000 		.4byte	.LASF56
 823 02bf 06       		.byte	0x6
 824 02c0 50       		.byte	0x50
 825 02c1 C5020000 		.4byte	0x2c5
 826 02c5 06       		.uleb128 0x6
 827 02c6 E3010000 		.4byte	.LASF57
 828 02ca 08       		.byte	0x8
 829 02cb 07       		.byte	0x7
 830 02cc B7       		.byte	0xb7
 831 02cd EA020000 		.4byte	0x2ea
 832 02d1 07       		.uleb128 0x7
 833 02d2 72050000 		.4byte	.LASF31
 834 02d6 07       		.byte	0x7
 835 02d7 B8       		.byte	0xb8
 836 02d8 90020000 		.4byte	0x290
 837 02dc 00       		.byte	0
 838 02dd 07       		.uleb128 0x7
 839 02de ED040000 		.4byte	.LASF32
 840 02e2 07       		.byte	0x7
 841 02e3 B9       		.byte	0xb9
 842 02e4 90020000 		.4byte	0x290
 843 02e8 04       		.byte	0x4
 844 02e9 00       		.byte	0
 845 02ea 03       		.uleb128 0x3
 846 02eb 00000000 		.4byte	.LASF58
 847 02ef 06       		.byte	0x6
 848 02f0 57       		.byte	0x57
 849 02f1 F5020000 		.4byte	0x2f5
 850 02f5 0B       		.uleb128 0xb
 851 02f6 E9030000 		.4byte	.LASF59
ARM GAS  /tmp/cca0JkoX.s 			page 16


 852 02fa 1C       		.byte	0x1c
 853 02fb 07       		.byte	0x7
 854 02fc 9001     		.2byte	0x190
 855 02fe 51030000 		.4byte	0x351
 856 0302 09       		.uleb128 0x9
 857 0303 FD050000 		.4byte	.LASF60
 858 0307 07       		.byte	0x7
 859 0308 9101     		.2byte	0x191
 860 030a BA020000 		.4byte	0x2ba
 861 030e 00       		.byte	0
 862 030f 09       		.uleb128 0x9
 863 0310 64050000 		.4byte	.LASF61
 864 0314 07       		.byte	0x7
 865 0315 9201     		.2byte	0x192
 866 0317 20010000 		.4byte	0x120
 867 031b 08       		.byte	0x8
 868 031c 09       		.uleb128 0x9
 869 031d 90040000 		.4byte	.LASF62
 870 0321 07       		.byte	0x7
 871 0322 9401     		.2byte	0x194
 872 0324 D0040000 		.4byte	0x4d0
 873 0328 0C       		.byte	0xc
 874 0329 09       		.uleb128 0x9
 875 032a C4020000 		.4byte	.LASF63
 876 032e 07       		.byte	0x7
 877 032f 9701     		.2byte	0x197
 878 0331 90020000 		.4byte	0x290
 879 0335 10       		.byte	0x10
 880 0336 09       		.uleb128 0x9
 881 0337 B7040000 		.4byte	.LASF64
 882 033b 07       		.byte	0x7
 883 033c 9801     		.2byte	0x198
 884 033e 90020000 		.4byte	0x290
 885 0342 14       		.byte	0x14
 886 0343 09       		.uleb128 0x9
 887 0344 AD040000 		.4byte	.LASF65
 888 0348 07       		.byte	0x7
 889 0349 9B01     		.2byte	0x19b
 890 034b 90020000 		.4byte	0x290
 891 034f 18       		.byte	0x18
 892 0350 00       		.byte	0
 893 0351 03       		.uleb128 0x3
 894 0352 90060000 		.4byte	.LASF66
 895 0356 06       		.byte	0x6
 896 0357 5C       		.byte	0x5c
 897 0358 5C030000 		.4byte	0x35c
 898 035c 0A       		.uleb128 0xa
 899 035d 04       		.byte	0x4
 900 035e 62030000 		.4byte	0x362
 901 0362 0C       		.uleb128 0xc
 902 0363 6D030000 		.4byte	0x36d
 903 0367 0D       		.uleb128 0xd
 904 0368 6D030000 		.4byte	0x36d
 905 036c 00       		.byte	0
 906 036d 0E       		.uleb128 0xe
 907 036e 04       		.byte	0x4
 908 036f 03       		.uleb128 0x3
ARM GAS  /tmp/cca0JkoX.s 			page 17


 909 0370 DD040000 		.4byte	.LASF67
 910 0374 06       		.byte	0x6
 911 0375 61       		.byte	0x61
 912 0376 7A030000 		.4byte	0x37a
 913 037a 0B       		.uleb128 0xb
 914 037b BD060000 		.4byte	.LASF68
 915 037f 14       		.byte	0x14
 916 0380 07       		.byte	0x7
 917 0381 6B01     		.2byte	0x16b
 918 0383 C9030000 		.4byte	0x3c9
 919 0387 09       		.uleb128 0x9
 920 0388 23030000 		.4byte	.LASF69
 921 038c 07       		.byte	0x7
 922 038d 6C01     		.2byte	0x16c
 923 038f 32070000 		.4byte	0x732
 924 0393 00       		.byte	0
 925 0394 09       		.uleb128 0x9
 926 0395 D5020000 		.4byte	.LASF70
 927 0399 07       		.byte	0x7
 928 039a 6D01     		.2byte	0x16d
 929 039c 32070000 		.4byte	0x732
 930 03a0 04       		.byte	0x4
 931 03a1 09       		.uleb128 0x9
 932 03a2 5F030000 		.4byte	.LASF71
 933 03a6 07       		.byte	0x7
 934 03a7 6E01     		.2byte	0x16e
 935 03a9 4C010000 		.4byte	0x14c
 936 03ad 08       		.byte	0x8
 937 03ae 09       		.uleb128 0x9
 938 03af 7C070000 		.4byte	.LASF72
 939 03b3 07       		.byte	0x7
 940 03b4 6F01     		.2byte	0x16f
 941 03b6 51030000 		.4byte	0x351
 942 03ba 0C       		.byte	0xc
 943 03bb 09       		.uleb128 0x9
 944 03bc CE060000 		.4byte	.LASF73
 945 03c0 07       		.byte	0x7
 946 03c1 7101     		.2byte	0x171
 947 03c3 6D030000 		.4byte	0x36d
 948 03c7 10       		.byte	0x10
 949 03c8 00       		.byte	0
 950 03c9 03       		.uleb128 0x3
 951 03ca B4010000 		.4byte	.LASF74
 952 03ce 06       		.byte	0x6
 953 03cf 66       		.byte	0x66
 954 03d0 D4030000 		.4byte	0x3d4
 955 03d4 0B       		.uleb128 0xb
 956 03d5 4F040000 		.4byte	.LASF75
 957 03d9 10       		.byte	0x10
 958 03da 07       		.byte	0x7
 959 03db 7B01     		.2byte	0x17b
 960 03dd 16040000 		.4byte	0x416
 961 03e1 09       		.uleb128 0x9
 962 03e2 23030000 		.4byte	.LASF69
 963 03e6 07       		.byte	0x7
 964 03e7 7C01     		.2byte	0x17c
 965 03e9 32070000 		.4byte	0x732
ARM GAS  /tmp/cca0JkoX.s 			page 18


 966 03ed 00       		.byte	0
 967 03ee 09       		.uleb128 0x9
 968 03ef D5020000 		.4byte	.LASF70
 969 03f3 07       		.byte	0x7
 970 03f4 7E01     		.2byte	0x17e
 971 03f6 32070000 		.4byte	0x732
 972 03fa 04       		.byte	0x4
 973 03fb 09       		.uleb128 0x9
 974 03fc 5F030000 		.4byte	.LASF71
 975 0400 07       		.byte	0x7
 976 0401 8001     		.2byte	0x180
 977 0403 4C010000 		.4byte	0x14c
 978 0407 08       		.byte	0x8
 979 0408 09       		.uleb128 0x9
 980 0409 08020000 		.4byte	.LASF76
 981 040d 07       		.byte	0x7
 982 040e 8201     		.2byte	0x182
 983 0410 57010000 		.4byte	0x157
 984 0414 0C       		.byte	0xc
 985 0415 00       		.byte	0
 986 0416 03       		.uleb128 0x3
 987 0417 3F000000 		.4byte	.LASF77
 988 041b 06       		.byte	0x6
 989 041c 6B       		.byte	0x6b
 990 041d 21040000 		.4byte	0x421
 991 0421 0B       		.uleb128 0xb
 992 0422 0C050000 		.4byte	.LASF78
 993 0426 04       		.byte	0x4
 994 0427 07       		.byte	0x7
 995 0428 A201     		.2byte	0x1a2
 996 042a 3C040000 		.4byte	0x43c
 997 042e 09       		.uleb128 0x9
 998 042f A4060000 		.4byte	.LASF79
 999 0433 07       		.byte	0x7
 1000 0434 AA01     		.2byte	0x1aa
 1001 0436 1B070000 		.4byte	0x71b
 1002 043a 00       		.byte	0
 1003 043b 00       		.byte	0
 1004 043c 03       		.uleb128 0x3
 1005 043d D1030000 		.4byte	.LASF80
 1006 0441 06       		.byte	0x6
 1007 0442 70       		.byte	0x70
 1008 0443 47040000 		.4byte	0x447
 1009 0447 0F       		.uleb128 0xf
 1010 0448 80020000 		.4byte	.LASF81
 1011 044c 6802     		.2byte	0x268
 1012 044e 07       		.byte	0x7
 1013 044f C201     		.2byte	0x1c2
 1014 0451 A3040000 		.4byte	0x4a3
 1015 0455 09       		.uleb128 0x9
 1016 0456 FF060000 		.4byte	.LASF82
 1017 045a 07       		.byte	0x7
 1018 045b C601     		.2byte	0x1c6
 1019 045d EA020000 		.4byte	0x2ea
 1020 0461 00       		.byte	0
 1021 0462 09       		.uleb128 0x9
 1022 0463 69020000 		.4byte	.LASF83
ARM GAS  /tmp/cca0JkoX.s 			page 19


 1023 0467 07       		.byte	0x7
 1024 0468 CA01     		.2byte	0x1ca
 1025 046a C9030000 		.4byte	0x3c9
 1026 046e 1C       		.byte	0x1c
 1027 046f 08       		.uleb128 0x8
 1028 0470 64626700 		.ascii	"dbg\000"
 1029 0474 07       		.byte	0x7
 1030 0475 CE01     		.2byte	0x1ce
 1031 0477 16040000 		.4byte	0x416
 1032 047b 2C       		.byte	0x2c
 1033 047c 09       		.uleb128 0x9
 1034 047d C0030000 		.4byte	.LASF84
 1035 0481 07       		.byte	0x7
 1036 0482 D201     		.2byte	0x1d2
 1037 0484 5C010000 		.4byte	0x15c
 1038 0488 30       		.byte	0x30
 1039 0489 08       		.uleb128 0x8
 1040 048a 746D00   		.ascii	"tm\000"
 1041 048d 07       		.byte	0x7
 1042 048e D701     		.2byte	0x1d7
 1043 0490 45060000 		.4byte	0x645
 1044 0494 80       		.byte	0x80
 1045 0495 09       		.uleb128 0x9
 1046 0496 F6020000 		.4byte	.LASF85
 1047 049a 07       		.byte	0x7
 1048 049b E301     		.2byte	0x1e3
 1049 049d 38070000 		.4byte	0x738
 1050 04a1 88       		.byte	0x88
 1051 04a2 00       		.byte	0
 1052 04a3 10       		.uleb128 0x10
 1053 04a4 CA010000 		.4byte	.LASF86
 1054 04a8 08       		.byte	0x8
 1055 04a9 A706     		.2byte	0x6a7
 1056 04ab CE000000 		.4byte	0xce
 1057 04af 11       		.uleb128 0x11
 1058 04b0 34030000 		.4byte	.LASF87
 1059 04b4 09       		.byte	0x9
 1060 04b5 4C       		.byte	0x4c
 1061 04b6 D3000000 		.4byte	0xd3
 1062 04ba 03       		.uleb128 0x3
 1063 04bb CC020000 		.4byte	.LASF88
 1064 04bf 0A       		.byte	0xa
 1065 04c0 65       		.byte	0x65
 1066 04c1 6D030000 		.4byte	0x36d
 1067 04c5 03       		.uleb128 0x3
 1068 04c6 0D040000 		.4byte	.LASF89
 1069 04ca 0A       		.byte	0xa
 1070 04cb 6D       		.byte	0x6d
 1071 04cc DE000000 		.4byte	0xde
 1072 04d0 06       		.uleb128 0x6
 1073 04d1 B5060000 		.4byte	.LASF90
 1074 04d5 04       		.byte	0x4
 1075 04d6 0A       		.byte	0xa
 1076 04d7 89       		.byte	0x89
 1077 04d8 E9040000 		.4byte	0x4e9
 1078 04dc 12       		.uleb128 0x12
 1079 04dd 72313300 		.ascii	"r13\000"
ARM GAS  /tmp/cca0JkoX.s 			page 20


 1080 04e1 0A       		.byte	0xa
 1081 04e2 8A       		.byte	0x8a
 1082 04e3 2A060000 		.4byte	0x62a
 1083 04e7 00       		.byte	0
 1084 04e8 00       		.byte	0
 1085 04e9 06       		.uleb128 0x6
 1086 04ea 33000000 		.4byte	.LASF91
 1087 04ee 64       		.byte	0x64
 1088 04ef 0B       		.byte	0xb
 1089 04f0 F4       		.byte	0xf4
 1090 04f1 2A060000 		.4byte	0x62a
 1091 04f5 12       		.uleb128 0x12
 1092 04f6 73313600 		.ascii	"s16\000"
 1093 04fa 0B       		.byte	0xb
 1094 04fb F6       		.byte	0xf6
 1095 04fc BA040000 		.4byte	0x4ba
 1096 0500 00       		.byte	0
 1097 0501 12       		.uleb128 0x12
 1098 0502 73313700 		.ascii	"s17\000"
 1099 0506 0B       		.byte	0xb
 1100 0507 F7       		.byte	0xf7
 1101 0508 BA040000 		.4byte	0x4ba
 1102 050c 04       		.byte	0x4
 1103 050d 12       		.uleb128 0x12
 1104 050e 73313800 		.ascii	"s18\000"
 1105 0512 0B       		.byte	0xb
 1106 0513 F8       		.byte	0xf8
 1107 0514 BA040000 		.4byte	0x4ba
 1108 0518 08       		.byte	0x8
 1109 0519 12       		.uleb128 0x12
 1110 051a 73313900 		.ascii	"s19\000"
 1111 051e 0B       		.byte	0xb
 1112 051f F9       		.byte	0xf9
 1113 0520 BA040000 		.4byte	0x4ba
 1114 0524 0C       		.byte	0xc
 1115 0525 12       		.uleb128 0x12
 1116 0526 73323000 		.ascii	"s20\000"
 1117 052a 0B       		.byte	0xb
 1118 052b FA       		.byte	0xfa
 1119 052c BA040000 		.4byte	0x4ba
 1120 0530 10       		.byte	0x10
 1121 0531 12       		.uleb128 0x12
 1122 0532 73323100 		.ascii	"s21\000"
 1123 0536 0B       		.byte	0xb
 1124 0537 FB       		.byte	0xfb
 1125 0538 BA040000 		.4byte	0x4ba
 1126 053c 14       		.byte	0x14
 1127 053d 12       		.uleb128 0x12
 1128 053e 73323200 		.ascii	"s22\000"
 1129 0542 0B       		.byte	0xb
 1130 0543 FC       		.byte	0xfc
 1131 0544 BA040000 		.4byte	0x4ba
 1132 0548 18       		.byte	0x18
 1133 0549 12       		.uleb128 0x12
 1134 054a 73323300 		.ascii	"s23\000"
 1135 054e 0B       		.byte	0xb
 1136 054f FD       		.byte	0xfd
ARM GAS  /tmp/cca0JkoX.s 			page 21


 1137 0550 BA040000 		.4byte	0x4ba
 1138 0554 1C       		.byte	0x1c
 1139 0555 12       		.uleb128 0x12
 1140 0556 73323400 		.ascii	"s24\000"
 1141 055a 0B       		.byte	0xb
 1142 055b FE       		.byte	0xfe
 1143 055c BA040000 		.4byte	0x4ba
 1144 0560 20       		.byte	0x20
 1145 0561 12       		.uleb128 0x12
 1146 0562 73323500 		.ascii	"s25\000"
 1147 0566 0B       		.byte	0xb
 1148 0567 FF       		.byte	0xff
 1149 0568 BA040000 		.4byte	0x4ba
 1150 056c 24       		.byte	0x24
 1151 056d 08       		.uleb128 0x8
 1152 056e 73323600 		.ascii	"s26\000"
 1153 0572 0B       		.byte	0xb
 1154 0573 0001     		.2byte	0x100
 1155 0575 BA040000 		.4byte	0x4ba
 1156 0579 28       		.byte	0x28
 1157 057a 08       		.uleb128 0x8
 1158 057b 73323700 		.ascii	"s27\000"
 1159 057f 0B       		.byte	0xb
 1160 0580 0101     		.2byte	0x101
 1161 0582 BA040000 		.4byte	0x4ba
 1162 0586 2C       		.byte	0x2c
 1163 0587 08       		.uleb128 0x8
 1164 0588 73323800 		.ascii	"s28\000"
 1165 058c 0B       		.byte	0xb
 1166 058d 0201     		.2byte	0x102
 1167 058f BA040000 		.4byte	0x4ba
 1168 0593 30       		.byte	0x30
 1169 0594 08       		.uleb128 0x8
 1170 0595 73323900 		.ascii	"s29\000"
 1171 0599 0B       		.byte	0xb
 1172 059a 0301     		.2byte	0x103
 1173 059c BA040000 		.4byte	0x4ba
 1174 05a0 34       		.byte	0x34
 1175 05a1 08       		.uleb128 0x8
 1176 05a2 73333000 		.ascii	"s30\000"
 1177 05a6 0B       		.byte	0xb
 1178 05a7 0401     		.2byte	0x104
 1179 05a9 BA040000 		.4byte	0x4ba
 1180 05ad 38       		.byte	0x38
 1181 05ae 08       		.uleb128 0x8
 1182 05af 73333100 		.ascii	"s31\000"
 1183 05b3 0B       		.byte	0xb
 1184 05b4 0501     		.2byte	0x105
 1185 05b6 BA040000 		.4byte	0x4ba
 1186 05ba 3C       		.byte	0x3c
 1187 05bb 08       		.uleb128 0x8
 1188 05bc 723400   		.ascii	"r4\000"
 1189 05bf 0B       		.byte	0xb
 1190 05c0 0701     		.2byte	0x107
 1191 05c2 BA040000 		.4byte	0x4ba
 1192 05c6 40       		.byte	0x40
 1193 05c7 08       		.uleb128 0x8
ARM GAS  /tmp/cca0JkoX.s 			page 22


 1194 05c8 723500   		.ascii	"r5\000"
 1195 05cb 0B       		.byte	0xb
 1196 05cc 0801     		.2byte	0x108
 1197 05ce BA040000 		.4byte	0x4ba
 1198 05d2 44       		.byte	0x44
 1199 05d3 08       		.uleb128 0x8
 1200 05d4 723600   		.ascii	"r6\000"
 1201 05d7 0B       		.byte	0xb
 1202 05d8 0901     		.2byte	0x109
 1203 05da BA040000 		.4byte	0x4ba
 1204 05de 48       		.byte	0x48
 1205 05df 08       		.uleb128 0x8
 1206 05e0 723700   		.ascii	"r7\000"
 1207 05e3 0B       		.byte	0xb
 1208 05e4 0A01     		.2byte	0x10a
 1209 05e6 BA040000 		.4byte	0x4ba
 1210 05ea 4C       		.byte	0x4c
 1211 05eb 08       		.uleb128 0x8
 1212 05ec 723800   		.ascii	"r8\000"
 1213 05ef 0B       		.byte	0xb
 1214 05f0 0B01     		.2byte	0x10b
 1215 05f2 BA040000 		.4byte	0x4ba
 1216 05f6 50       		.byte	0x50
 1217 05f7 08       		.uleb128 0x8
 1218 05f8 723900   		.ascii	"r9\000"
 1219 05fb 0B       		.byte	0xb
 1220 05fc 0C01     		.2byte	0x10c
 1221 05fe BA040000 		.4byte	0x4ba
 1222 0602 54       		.byte	0x54
 1223 0603 08       		.uleb128 0x8
 1224 0604 72313000 		.ascii	"r10\000"
 1225 0608 0B       		.byte	0xb
 1226 0609 0D01     		.2byte	0x10d
 1227 060b BA040000 		.4byte	0x4ba
 1228 060f 58       		.byte	0x58
 1229 0610 08       		.uleb128 0x8
 1230 0611 72313100 		.ascii	"r11\000"
 1231 0615 0B       		.byte	0xb
 1232 0616 0E01     		.2byte	0x10e
 1233 0618 BA040000 		.4byte	0x4ba
 1234 061c 5C       		.byte	0x5c
 1235 061d 08       		.uleb128 0x8
 1236 061e 6C7200   		.ascii	"lr\000"
 1237 0621 0B       		.byte	0xb
 1238 0622 0F01     		.2byte	0x10f
 1239 0624 BA040000 		.4byte	0x4ba
 1240 0628 60       		.byte	0x60
 1241 0629 00       		.byte	0
 1242 062a 0A       		.uleb128 0xa
 1243 062b 04       		.byte	0x4
 1244 062c E9040000 		.4byte	0x4e9
 1245 0630 13       		.uleb128 0x13
 1246 0631 04       		.byte	0x4
 1247 0632 0C       		.byte	0xc
 1248 0633 38       		.byte	0x38
 1249 0634 45060000 		.4byte	0x645
 1250 0638 07       		.uleb128 0x7
ARM GAS  /tmp/cca0JkoX.s 			page 23


 1251 0639 AE060000 		.4byte	.LASF92
 1252 063d 0C       		.byte	0xc
 1253 063e 3C       		.byte	0x3c
 1254 063f E9000000 		.4byte	0xe9
 1255 0643 00       		.byte	0
 1256 0644 00       		.byte	0
 1257 0645 03       		.uleb128 0x3
 1258 0646 9C040000 		.4byte	.LASF93
 1259 064a 0C       		.byte	0xc
 1260 064b 3D       		.byte	0x3d
 1261 064c 30060000 		.4byte	0x630
 1262 0650 14       		.uleb128 0x14
 1263 0651 04       		.byte	0x4
 1264 0652 07       		.byte	0x7
 1265 0653 FA       		.byte	0xfa
 1266 0654 AD060000 		.4byte	0x6ad
 1267 0658 15       		.uleb128 0x15
 1268 0659 19000000 		.4byte	.LASF94
 1269 065d 07       		.byte	0x7
 1270 065e 0101     		.2byte	0x101
 1271 0660 2B010000 		.4byte	0x12b
 1272 0664 15       		.uleb128 0x15
 1273 0665 A4010000 		.4byte	.LASF95
 1274 0669 07       		.byte	0x7
 1275 066a 0801     		.2byte	0x108
 1276 066c 2B010000 		.4byte	0x12b
 1277 0670 15       		.uleb128 0x15
 1278 0671 2B070000 		.4byte	.LASF96
 1279 0675 07       		.byte	0x7
 1280 0676 0F01     		.2byte	0x10f
 1281 0678 6D030000 		.4byte	0x36d
 1282 067c 15       		.uleb128 0x15
 1283 067d 7A020000 		.4byte	.LASF97
 1284 0681 07       		.byte	0x7
 1285 0682 1601     		.2byte	0x116
 1286 0684 AD060000 		.4byte	0x6ad
 1287 0688 15       		.uleb128 0x15
 1288 0689 4B030000 		.4byte	.LASF98
 1289 068d 07       		.byte	0x7
 1290 068e 1E01     		.2byte	0x11e
 1291 0690 D8060000 		.4byte	0x6d8
 1292 0694 15       		.uleb128 0x15
 1293 0695 46060000 		.4byte	.LASF99
 1294 0699 07       		.byte	0x7
 1295 069a 2701     		.2byte	0x127
 1296 069c 0F070000 		.4byte	0x70f
 1297 06a0 15       		.uleb128 0x15
 1298 06a1 6B050000 		.4byte	.LASF100
 1299 06a5 07       		.byte	0x7
 1300 06a6 2F01     		.2byte	0x12f
 1301 06a8 36010000 		.4byte	0x136
 1302 06ac 00       		.byte	0
 1303 06ad 0A       		.uleb128 0xa
 1304 06ae 04       		.byte	0x4
 1305 06af 85020000 		.4byte	0x285
 1306 06b3 06       		.uleb128 0x6
 1307 06b4 CA050000 		.4byte	.LASF101
ARM GAS  /tmp/cca0JkoX.s 			page 24


 1308 06b8 0C       		.byte	0xc
 1309 06b9 0D       		.byte	0xd
 1310 06ba 34       		.byte	0x34
 1311 06bb D8060000 		.4byte	0x6d8
 1312 06bf 07       		.uleb128 0x7
 1313 06c0 BC020000 		.4byte	.LASF102
 1314 06c4 0D       		.byte	0xd
 1315 06c5 35       		.byte	0x35
 1316 06c6 BA020000 		.4byte	0x2ba
 1317 06ca 00       		.byte	0
 1318 06cb 07       		.uleb128 0x7
 1319 06cc 9D030000 		.4byte	.LASF103
 1320 06d0 0D       		.byte	0xd
 1321 06d1 37       		.byte	0x37
 1322 06d2 41010000 		.4byte	0x141
 1323 06d6 08       		.byte	0x8
 1324 06d7 00       		.byte	0
 1325 06d8 0A       		.uleb128 0xa
 1326 06d9 04       		.byte	0x4
 1327 06da B3060000 		.4byte	0x6b3
 1328 06de 06       		.uleb128 0x6
 1329 06df E0060000 		.4byte	.LASF104
 1330 06e3 10       		.byte	0x10
 1331 06e4 0E       		.byte	0xe
 1332 06e5 39       		.byte	0x39
 1333 06e6 0F070000 		.4byte	0x70f
 1334 06ea 07       		.uleb128 0x7
 1335 06eb 56020000 		.4byte	.LASF105
 1336 06ef 0E       		.byte	0xe
 1337 06f0 3A       		.byte	0x3a
 1338 06f1 BA020000 		.4byte	0x2ba
 1339 06f5 00       		.byte	0
 1340 06f6 07       		.uleb128 0x7
 1341 06f7 66070000 		.4byte	.LASF106
 1342 06fb 0E       		.byte	0xe
 1343 06fc 3C       		.byte	0x3c
 1344 06fd 90020000 		.4byte	0x290
 1345 0701 08       		.byte	0x8
 1346 0702 07       		.uleb128 0x7
 1347 0703 74060000 		.4byte	.LASF107
 1348 0707 0E       		.byte	0xe
 1349 0708 3E       		.byte	0x3e
 1350 0709 6A080000 		.4byte	0x86a
 1351 070d 0C       		.byte	0xc
 1352 070e 00       		.byte	0
 1353 070f 0A       		.uleb128 0xa
 1354 0710 04       		.byte	0x4
 1355 0711 DE060000 		.4byte	0x6de
 1356 0715 0A       		.uleb128 0xa
 1357 0716 04       		.byte	0x4
 1358 0717 27070000 		.4byte	0x727
 1359 071b 05       		.uleb128 0x5
 1360 071c 15070000 		.4byte	0x715
 1361 0720 04       		.uleb128 0x4
 1362 0721 01       		.byte	0x1
 1363 0722 08       		.byte	0x8
 1364 0723 41060000 		.4byte	.LASF108
ARM GAS  /tmp/cca0JkoX.s 			page 25


 1365 0727 16       		.uleb128 0x16
 1366 0728 20070000 		.4byte	0x720
 1367 072c 0A       		.uleb128 0xa
 1368 072d 04       		.byte	0x4
 1369 072e C5040000 		.4byte	0x4c5
 1370 0732 0A       		.uleb128 0xa
 1371 0733 04       		.byte	0x4
 1372 0734 6F030000 		.4byte	0x36f
 1373 0738 17       		.uleb128 0x17
 1374 0739 C5040000 		.4byte	0x4c5
 1375 073d 48070000 		.4byte	0x748
 1376 0741 18       		.uleb128 0x18
 1377 0742 37000000 		.4byte	0x37
 1378 0746 3B       		.byte	0x3b
 1379 0747 00       		.byte	0
 1380 0748 19       		.uleb128 0x19
 1381 0749 636800   		.ascii	"ch\000"
 1382 074c 07       		.byte	0x7
 1383 074d 0902     		.2byte	0x209
 1384 074f 3C040000 		.4byte	0x43c
 1385 0753 13       		.uleb128 0x13
 1386 0754 16       		.byte	0x16
 1387 0755 0F       		.byte	0xf
 1388 0756 34       		.byte	0x34
 1389 0757 34080000 		.4byte	0x834
 1390 075b 07       		.uleb128 0x7
 1391 075c 6E070000 		.4byte	.LASF109
 1392 0760 0F       		.byte	0xf
 1393 0761 35       		.byte	0x35
 1394 0762 34080000 		.4byte	0x834
 1395 0766 00       		.byte	0
 1396 0767 07       		.uleb128 0x7
 1397 0768 29040000 		.4byte	.LASF110
 1398 076c 0F       		.byte	0xf
 1399 076d 36       		.byte	0x36
 1400 076e AD000000 		.4byte	0xad
 1401 0772 04       		.byte	0x4
 1402 0773 07       		.uleb128 0x7
 1403 0774 15060000 		.4byte	.LASF111
 1404 0778 0F       		.byte	0xf
 1405 0779 37       		.byte	0x37
 1406 077a AD000000 		.4byte	0xad
 1407 077e 05       		.byte	0x5
 1408 077f 07       		.uleb128 0x7
 1409 0780 53070000 		.4byte	.LASF112
 1410 0784 0F       		.byte	0xf
 1411 0785 38       		.byte	0x38
 1412 0786 B8000000 		.4byte	0xb8
 1413 078a 06       		.byte	0x6
 1414 078b 07       		.uleb128 0x7
 1415 078c D2040000 		.4byte	.LASF113
 1416 0790 0F       		.byte	0xf
 1417 0791 39       		.byte	0x39
 1418 0792 AD000000 		.4byte	0xad
 1419 0796 08       		.byte	0x8
 1420 0797 07       		.uleb128 0x7
 1421 0798 66040000 		.4byte	.LASF114
ARM GAS  /tmp/cca0JkoX.s 			page 26


 1422 079c 0F       		.byte	0xf
 1423 079d 3A       		.byte	0x3a
 1424 079e AD000000 		.4byte	0xad
 1425 07a2 09       		.byte	0x9
 1426 07a3 07       		.uleb128 0x7
 1427 07a4 96010000 		.4byte	.LASF115
 1428 07a8 0F       		.byte	0xf
 1429 07a9 3B       		.byte	0x3b
 1430 07aa AD000000 		.4byte	0xad
 1431 07ae 0A       		.byte	0xa
 1432 07af 07       		.uleb128 0x7
 1433 07b0 F1050000 		.4byte	.LASF116
 1434 07b4 0F       		.byte	0xf
 1435 07b5 3C       		.byte	0x3c
 1436 07b6 AD000000 		.4byte	0xad
 1437 07ba 0B       		.byte	0xb
 1438 07bb 07       		.uleb128 0x7
 1439 07bc D5060000 		.4byte	.LASF117
 1440 07c0 0F       		.byte	0xf
 1441 07c1 3D       		.byte	0x3d
 1442 07c2 AD000000 		.4byte	0xad
 1443 07c6 0C       		.byte	0xc
 1444 07c7 07       		.uleb128 0x7
 1445 07c8 BD050000 		.4byte	.LASF118
 1446 07cc 0F       		.byte	0xf
 1447 07cd 3E       		.byte	0x3e
 1448 07ce AD000000 		.4byte	0xad
 1449 07d2 0D       		.byte	0xd
 1450 07d3 07       		.uleb128 0x7
 1451 07d4 52030000 		.4byte	.LASF119
 1452 07d8 0F       		.byte	0xf
 1453 07d9 3F       		.byte	0x3f
 1454 07da AD000000 		.4byte	0xad
 1455 07de 0E       		.byte	0xe
 1456 07df 07       		.uleb128 0x7
 1457 07e0 72040000 		.4byte	.LASF120
 1458 07e4 0F       		.byte	0xf
 1459 07e5 40       		.byte	0x40
 1460 07e6 AD000000 		.4byte	0xad
 1461 07ea 0F       		.byte	0xf
 1462 07eb 07       		.uleb128 0x7
 1463 07ec 31020000 		.4byte	.LASF121
 1464 07f0 0F       		.byte	0xf
 1465 07f1 41       		.byte	0x41
 1466 07f2 AD000000 		.4byte	0xad
 1467 07f6 10       		.byte	0x10
 1468 07f7 07       		.uleb128 0x7
 1469 07f8 FB010000 		.4byte	.LASF122
 1470 07fc 0F       		.byte	0xf
 1471 07fd 43       		.byte	0x43
 1472 07fe AD000000 		.4byte	0xad
 1473 0802 11       		.byte	0x11
 1474 0803 07       		.uleb128 0x7
 1475 0804 41020000 		.4byte	.LASF123
 1476 0808 0F       		.byte	0xf
 1477 0809 44       		.byte	0x44
 1478 080a AD000000 		.4byte	0xad
ARM GAS  /tmp/cca0JkoX.s 			page 27


 1479 080e 12       		.byte	0x12
 1480 080f 07       		.uleb128 0x7
 1481 0810 31040000 		.4byte	.LASF124
 1482 0814 0F       		.byte	0xf
 1483 0815 45       		.byte	0x45
 1484 0816 AD000000 		.4byte	0xad
 1485 081a 13       		.byte	0x13
 1486 081b 07       		.uleb128 0x7
 1487 081c 81050000 		.4byte	.LASF125
 1488 0820 0F       		.byte	0xf
 1489 0821 46       		.byte	0x46
 1490 0822 AD000000 		.4byte	0xad
 1491 0826 14       		.byte	0x14
 1492 0827 07       		.uleb128 0x7
 1493 0828 DD030000 		.4byte	.LASF126
 1494 082c 0F       		.byte	0xf
 1495 082d 48       		.byte	0x48
 1496 082e AD000000 		.4byte	0xad
 1497 0832 15       		.byte	0x15
 1498 0833 00       		.byte	0
 1499 0834 17       		.uleb128 0x17
 1500 0835 20070000 		.4byte	0x720
 1501 0839 44080000 		.4byte	0x844
 1502 083d 18       		.uleb128 0x18
 1503 083e 37000000 		.4byte	0x37
 1504 0842 03       		.byte	0x3
 1505 0843 00       		.byte	0
 1506 0844 03       		.uleb128 0x3
 1507 0845 AA020000 		.4byte	.LASF127
 1508 0849 0F       		.byte	0xf
 1509 084a 49       		.byte	0x49
 1510 084b 53070000 		.4byte	0x753
 1511 084f 16       		.uleb128 0x16
 1512 0850 44080000 		.4byte	0x844
 1513 0854 11       		.uleb128 0x11
 1514 0855 73030000 		.4byte	.LASF128
 1515 0859 0F       		.byte	0xf
 1516 085a 6E       		.byte	0x6e
 1517 085b 4F080000 		.4byte	0x84f
 1518 085f 03       		.uleb128 0x3
 1519 0860 5E070000 		.4byte	.LASF129
 1520 0864 0E       		.byte	0xe
 1521 0865 34       		.byte	0x34
 1522 0866 DE060000 		.4byte	0x6de
 1523 086a 0A       		.uleb128 0xa
 1524 086b 04       		.byte	0x4
 1525 086c 5F080000 		.4byte	0x85f
 1526 0870 03       		.uleb128 0x3
 1527 0871 72010000 		.4byte	.LASF130
 1528 0875 10       		.byte	0x10
 1529 0876 36       		.byte	0x36
 1530 0877 7B080000 		.4byte	0x87b
 1531 087b 0A       		.uleb128 0xa
 1532 087c 04       		.byte	0x4
 1533 087d 81080000 		.4byte	0x881
 1534 0881 1A       		.uleb128 0x1a
 1535 0882 6D030000 		.4byte	0x36d
ARM GAS  /tmp/cca0JkoX.s 			page 28


 1536 0886 90080000 		.4byte	0x890
 1537 088a 0D       		.uleb128 0xd
 1538 088b 2C000000 		.4byte	0x2c
 1539 088f 00       		.byte	0
 1540 0890 03       		.uleb128 0x3
 1541 0891 9C020000 		.4byte	.LASF131
 1542 0895 11       		.byte	0x11
 1543 0896 3C       		.byte	0x3c
 1544 0897 9B080000 		.4byte	0x89b
 1545 089b 06       		.uleb128 0x6
 1546 089c 84070000 		.4byte	.LASF132
 1547 08a0 20       		.byte	0x20
 1548 08a1 11       		.byte	0x11
 1549 08a2 4F       		.byte	0x4f
 1550 08a3 CC080000 		.4byte	0x8cc
 1551 08a7 07       		.uleb128 0x7
 1552 08a8 0D070000 		.4byte	.LASF133
 1553 08ac 11       		.byte	0x11
 1554 08ad 50       		.byte	0x50
 1555 08ae 70080000 		.4byte	0x870
 1556 08b2 00       		.byte	0
 1557 08b3 07       		.uleb128 0x7
 1558 08b4 AD010000 		.4byte	.LASF134
 1559 08b8 11       		.byte	0x11
 1560 08b9 52       		.byte	0x52
 1561 08ba EB080000 		.4byte	0x8eb
 1562 08be 08       		.byte	0x8
 1563 08bf 07       		.uleb128 0x7
 1564 08c0 2B020000 		.4byte	.LASF135
 1565 08c4 11       		.byte	0x11
 1566 08c5 54       		.byte	0x54
 1567 08c6 5F080000 		.4byte	0x85f
 1568 08ca 10       		.byte	0x10
 1569 08cb 00       		.byte	0
 1570 08cc 14       		.uleb128 0x14
 1571 08cd 04       		.byte	0x4
 1572 08ce 11       		.byte	0x11
 1573 08cf 44       		.byte	0x44
 1574 08d0 EB080000 		.4byte	0x8eb
 1575 08d4 1B       		.uleb128 0x1b
 1576 08d5 14000000 		.4byte	.LASF136
 1577 08d9 11       		.byte	0x11
 1578 08da 45       		.byte	0x45
 1579 08db 0C090000 		.4byte	0x90c
 1580 08df 1B       		.uleb128 0x1b
 1581 08e0 1D060000 		.4byte	.LASF137
 1582 08e4 11       		.byte	0x11
 1583 08e5 46       		.byte	0x46
 1584 08e6 12090000 		.4byte	0x912
 1585 08ea 00       		.byte	0
 1586 08eb 1C       		.uleb128 0x1c
 1587 08ec 32050000 		.4byte	.LASF155
 1588 08f0 08       		.byte	0x8
 1589 08f1 11       		.byte	0x11
 1590 08f2 41       		.byte	0x41
 1591 08f3 0C090000 		.4byte	0x90c
 1592 08f7 1B       		.uleb128 0x1b
ARM GAS  /tmp/cca0JkoX.s 			page 29


 1593 08f8 DD010000 		.4byte	.LASF138
 1594 08fc 11       		.byte	0x11
 1595 08fd 42       		.byte	0x42
 1596 08fe C5040000 		.4byte	0x4c5
 1597 0902 1D       		.uleb128 0x1d
 1598 0903 6800     		.ascii	"h\000"
 1599 0905 11       		.byte	0x11
 1600 0906 49       		.byte	0x49
 1601 0907 18090000 		.4byte	0x918
 1602 090b 00       		.byte	0
 1603 090c 0A       		.uleb128 0xa
 1604 090d 04       		.byte	0x4
 1605 090e EB080000 		.4byte	0x8eb
 1606 0912 0A       		.uleb128 0xa
 1607 0913 04       		.byte	0x4
 1608 0914 90080000 		.4byte	0x890
 1609 0918 13       		.uleb128 0x13
 1610 0919 08       		.byte	0x8
 1611 091a 11       		.byte	0x11
 1612 091b 43       		.byte	0x43
 1613 091c 37090000 		.4byte	0x937
 1614 0920 12       		.uleb128 0x12
 1615 0921 7500     		.ascii	"u\000"
 1616 0923 11       		.byte	0x11
 1617 0924 47       		.byte	0x47
 1618 0925 CC080000 		.4byte	0x8cc
 1619 0929 00       		.byte	0
 1620 092a 07       		.uleb128 0x7
 1621 092b 3F070000 		.4byte	.LASF139
 1622 092f 11       		.byte	0x11
 1623 0930 48       		.byte	0x48
 1624 0931 2C000000 		.4byte	0x2c
 1625 0935 04       		.byte	0x4
 1626 0936 00       		.byte	0
 1627 0937 1E       		.uleb128 0x1e
 1628 0938 34060000 		.4byte	.LASF142
 1629 093c 01       		.byte	0x1
 1630 093d 4C       		.byte	0x4c
 1631 093e 90080000 		.4byte	0x890
 1632 0942 05       		.uleb128 0x5
 1633 0943 03       		.byte	0x3
 1634 0944 00000000 		.4byte	default_heap
 1635 0948 1F       		.uleb128 0x1f
 1636 0949 67060000 		.4byte	.LASF143
 1637 094d 01       		.byte	0x1
 1638 094e 0B01     		.2byte	0x10b
 1639 0950 2C000000 		.4byte	0x2c
 1640 0954 00000000 		.4byte	.LFB223
 1641 0958 44000000 		.4byte	.LFE223-.LFB223
 1642 095c 01       		.uleb128 0x1
 1643 095d 9C       		.byte	0x9c
 1644 095e D3090000 		.4byte	0x9d3
 1645 0962 20       		.uleb128 0x20
 1646 0963 D7010000 		.4byte	.LASF140
 1647 0967 01       		.byte	0x1
 1648 0968 0B01     		.2byte	0x10b
 1649 096a 12090000 		.4byte	0x912
ARM GAS  /tmp/cca0JkoX.s 			page 30


 1650 096e 00000000 		.4byte	.LLST13
 1651 0972 20       		.uleb128 0x20
 1652 0973 32070000 		.4byte	.LASF141
 1653 0977 01       		.byte	0x1
 1654 0978 0B01     		.2byte	0x10b
 1655 097a D3090000 		.4byte	0x9d3
 1656 097e 43000000 		.4byte	.LLST14
 1657 0982 21       		.uleb128 0x21
 1658 0983 717000   		.ascii	"qp\000"
 1659 0986 01       		.byte	0x1
 1660 0987 0C01     		.2byte	0x10c
 1661 0989 0C090000 		.4byte	0x90c
 1662 098d 61000000 		.4byte	.LLST15
 1663 0991 21       		.uleb128 0x21
 1664 0992 6E00     		.ascii	"n\000"
 1665 0994 01       		.byte	0x1
 1666 0995 0D01     		.2byte	0x10d
 1667 0997 2C000000 		.4byte	0x2c
 1668 099b 9D000000 		.4byte	.LLST16
 1669 099f 21       		.uleb128 0x21
 1670 09a0 737A00   		.ascii	"sz\000"
 1671 09a3 01       		.byte	0x1
 1672 09a4 0D01     		.2byte	0x10d
 1673 09a6 2C000000 		.4byte	0x2c
 1674 09aa E0000000 		.4byte	.LLST17
 1675 09ae 22       		.uleb128 0x22
 1676 09af 16000000 		.4byte	.LVL41
 1677 09b3 C00B0000 		.4byte	0xbc0
 1678 09b7 C2090000 		.4byte	0x9c2
 1679 09bb 23       		.uleb128 0x23
 1680 09bc 01       		.uleb128 0x1
 1681 09bd 50       		.byte	0x50
 1682 09be 02       		.uleb128 0x2
 1683 09bf 75       		.byte	0x75
 1684 09c0 00       		.sleb128 0
 1685 09c1 00       		.byte	0
 1686 09c2 24       		.uleb128 0x24
 1687 09c3 34000000 		.4byte	.LVL46
 1688 09c7 CB0B0000 		.4byte	0xbcb
 1689 09cb 23       		.uleb128 0x23
 1690 09cc 01       		.uleb128 0x1
 1691 09cd 50       		.byte	0x50
 1692 09ce 02       		.uleb128 0x2
 1693 09cf 75       		.byte	0x75
 1694 09d0 00       		.sleb128 0
 1695 09d1 00       		.byte	0
 1696 09d2 00       		.byte	0
 1697 09d3 0A       		.uleb128 0xa
 1698 09d4 04       		.byte	0x4
 1699 09d5 2C000000 		.4byte	0x2c
 1700 09d9 25       		.uleb128 0x25
 1701 09da 5E020000 		.4byte	.LASF145
 1702 09de 01       		.byte	0x1
 1703 09df D5       		.byte	0xd5
 1704 09e0 00000000 		.4byte	.LFB222
 1705 09e4 8A000000 		.4byte	.LFE222-.LFB222
 1706 09e8 01       		.uleb128 0x1
ARM GAS  /tmp/cca0JkoX.s 			page 31


 1707 09e9 9C       		.byte	0x9c
 1708 09ea 560A0000 		.4byte	0xa56
 1709 09ee 26       		.uleb128 0x26
 1710 09ef 7000     		.ascii	"p\000"
 1711 09f1 01       		.byte	0x1
 1712 09f2 D5       		.byte	0xd5
 1713 09f3 6D030000 		.4byte	0x36d
 1714 09f7 0B010000 		.4byte	.LLST9
 1715 09fb 27       		.uleb128 0x27
 1716 09fc 717000   		.ascii	"qp\000"
 1717 09ff 01       		.byte	0x1
 1718 0a00 D6       		.byte	0xd6
 1719 0a01 0C090000 		.4byte	0x90c
 1720 0a05 50010000 		.4byte	.LLST10
 1721 0a09 27       		.uleb128 0x27
 1722 0a0a 687000   		.ascii	"hp\000"
 1723 0a0d 01       		.byte	0x1
 1724 0a0e D6       		.byte	0xd6
 1725 0a0f 0C090000 		.4byte	0x90c
 1726 0a13 84010000 		.4byte	.LLST11
 1727 0a17 28       		.uleb128 0x28
 1728 0a18 D7010000 		.4byte	.LASF140
 1729 0a1c 01       		.byte	0x1
 1730 0a1d D7       		.byte	0xd7
 1731 0a1e 12090000 		.4byte	0x912
 1732 0a22 C2010000 		.4byte	.LLST12
 1733 0a26 29       		.uleb128 0x29
 1734 0a27 98050000 		.4byte	.LASF147
 1735 0a2b 660A0000 		.4byte	0xa66
 1736 0a2f 22       		.uleb128 0x22
 1737 0a30 18000000 		.4byte	.LVL31
 1738 0a34 C00B0000 		.4byte	0xbc0
 1739 0a38 430A0000 		.4byte	0xa43
 1740 0a3c 23       		.uleb128 0x23
 1741 0a3d 01       		.uleb128 0x1
 1742 0a3e 50       		.byte	0x50
 1743 0a3f 02       		.uleb128 0x2
 1744 0a40 77       		.byte	0x77
 1745 0a41 00       		.sleb128 0
 1746 0a42 00       		.byte	0
 1747 0a43 2A       		.uleb128 0x2a
 1748 0a44 58000000 		.4byte	.LVL36
 1749 0a48 CB0B0000 		.4byte	0xbcb
 1750 0a4c 2A       		.uleb128 0x2a
 1751 0a4d 8A000000 		.4byte	.LVL38
 1752 0a51 CB0B0000 		.4byte	0xbcb
 1753 0a55 00       		.byte	0
 1754 0a56 17       		.uleb128 0x17
 1755 0a57 27070000 		.4byte	0x727
 1756 0a5b 660A0000 		.4byte	0xa66
 1757 0a5f 18       		.uleb128 0x18
 1758 0a60 37000000 		.4byte	0x37
 1759 0a64 0A       		.byte	0xa
 1760 0a65 00       		.byte	0
 1761 0a66 16       		.uleb128 0x16
 1762 0a67 560A0000 		.4byte	0xa56
 1763 0a6b 2B       		.uleb128 0x2b
ARM GAS  /tmp/cca0JkoX.s 			page 32


 1764 0a6c B1050000 		.4byte	.LASF144
 1765 0a70 01       		.byte	0x1
 1766 0a71 93       		.byte	0x93
 1767 0a72 6D030000 		.4byte	0x36d
 1768 0a76 00000000 		.4byte	.LFB221
 1769 0a7a 88000000 		.4byte	.LFE221-.LFB221
 1770 0a7e 01       		.uleb128 0x1
 1771 0a7f 9C       		.byte	0x9c
 1772 0a80 150B0000 		.4byte	0xb15
 1773 0a84 2C       		.uleb128 0x2c
 1774 0a85 D7010000 		.4byte	.LASF140
 1775 0a89 01       		.byte	0x1
 1776 0a8a 93       		.byte	0x93
 1777 0a8b 12090000 		.4byte	0x912
 1778 0a8f 15020000 		.4byte	.LLST4
 1779 0a93 2C       		.uleb128 0x2c
 1780 0a94 3F070000 		.4byte	.LASF139
 1781 0a98 01       		.byte	0x1
 1782 0a99 93       		.byte	0x93
 1783 0a9a 2C000000 		.4byte	0x2c
 1784 0a9e 33020000 		.4byte	.LLST5
 1785 0aa2 27       		.uleb128 0x27
 1786 0aa3 717000   		.ascii	"qp\000"
 1787 0aa6 01       		.byte	0x1
 1788 0aa7 94       		.byte	0x94
 1789 0aa8 0C090000 		.4byte	0x90c
 1790 0aac 5E020000 		.4byte	.LLST6
 1791 0ab0 27       		.uleb128 0x27
 1792 0ab1 687000   		.ascii	"hp\000"
 1793 0ab4 01       		.byte	0x1
 1794 0ab5 94       		.byte	0x94
 1795 0ab6 0C090000 		.4byte	0x90c
 1796 0aba 87020000 		.4byte	.LLST7
 1797 0abe 27       		.uleb128 0x27
 1798 0abf 667000   		.ascii	"fp\000"
 1799 0ac2 01       		.byte	0x1
 1800 0ac3 94       		.byte	0x94
 1801 0ac4 0C090000 		.4byte	0x90c
 1802 0ac8 EA020000 		.4byte	.LLST8
 1803 0acc 22       		.uleb128 0x22
 1804 0acd 1E000000 		.4byte	.LVL10
 1805 0ad1 C00B0000 		.4byte	0xbc0
 1806 0ad5 E00A0000 		.4byte	0xae0
 1807 0ad9 23       		.uleb128 0x23
 1808 0ada 01       		.uleb128 0x1
 1809 0adb 50       		.byte	0x50
 1810 0adc 02       		.uleb128 0x2
 1811 0add 77       		.byte	0x77
 1812 0ade 00       		.sleb128 0
 1813 0adf 00       		.byte	0
 1814 0ae0 22       		.uleb128 0x22
 1815 0ae1 34000000 		.4byte	.LVL15
 1816 0ae5 CB0B0000 		.4byte	0xbcb
 1817 0ae9 F40A0000 		.4byte	0xaf4
 1818 0aed 23       		.uleb128 0x23
 1819 0aee 01       		.uleb128 0x1
 1820 0aef 50       		.byte	0x50
ARM GAS  /tmp/cca0JkoX.s 			page 33


 1821 0af0 02       		.uleb128 0x2
 1822 0af1 77       		.byte	0x77
 1823 0af2 00       		.sleb128 0
 1824 0af3 00       		.byte	0
 1825 0af4 2D       		.uleb128 0x2d
 1826 0af5 3E000000 		.4byte	.LVL16
 1827 0af9 040B0000 		.4byte	0xb04
 1828 0afd 23       		.uleb128 0x23
 1829 0afe 01       		.uleb128 0x1
 1830 0aff 50       		.byte	0x50
 1831 0b00 02       		.uleb128 0x2
 1832 0b01 75       		.byte	0x75
 1833 0b02 08       		.sleb128 8
 1834 0b03 00       		.byte	0
 1835 0b04 24       		.uleb128 0x24
 1836 0b05 64000000 		.4byte	.LVL22
 1837 0b09 CB0B0000 		.4byte	0xbcb
 1838 0b0d 23       		.uleb128 0x23
 1839 0b0e 01       		.uleb128 0x1
 1840 0b0f 50       		.byte	0x50
 1841 0b10 02       		.uleb128 0x2
 1842 0b11 77       		.byte	0x77
 1843 0b12 00       		.sleb128 0
 1844 0b13 00       		.byte	0
 1845 0b14 00       		.byte	0
 1846 0b15 25       		.uleb128 0x25
 1847 0b16 18040000 		.4byte	.LASF146
 1848 0b1a 01       		.byte	0x1
 1849 0b1b 72       		.byte	0x72
 1850 0b1c 00000000 		.4byte	.LFB220
 1851 0b20 14000000 		.4byte	.LFE220-.LFB220
 1852 0b24 01       		.uleb128 0x1
 1853 0b25 9C       		.byte	0x9c
 1854 0b26 820B0000 		.4byte	0xb82
 1855 0b2a 2C       		.uleb128 0x2c
 1856 0b2b D7010000 		.4byte	.LASF140
 1857 0b2f 01       		.byte	0x1
 1858 0b30 72       		.byte	0x72
 1859 0b31 12090000 		.4byte	0x912
 1860 0b35 FD020000 		.4byte	.LLST0
 1861 0b39 26       		.uleb128 0x26
 1862 0b3a 62756600 		.ascii	"buf\000"
 1863 0b3e 01       		.byte	0x1
 1864 0b3f 72       		.byte	0x72
 1865 0b40 6D030000 		.4byte	0x36d
 1866 0b44 2B030000 		.4byte	.LLST1
 1867 0b48 2C       		.uleb128 0x2c
 1868 0b49 3F070000 		.4byte	.LASF139
 1869 0b4d 01       		.byte	0x1
 1870 0b4e 72       		.byte	0x72
 1871 0b4f 2C000000 		.4byte	0x2c
 1872 0b53 4C030000 		.4byte	.LLST2
 1873 0b57 27       		.uleb128 0x27
 1874 0b58 687000   		.ascii	"hp\000"
 1875 0b5b 01       		.byte	0x1
 1876 0b5c 73       		.byte	0x73
 1877 0b5d 0C090000 		.4byte	0x90c
ARM GAS  /tmp/cca0JkoX.s 			page 34


 1878 0b61 7A030000 		.4byte	.LLST3
 1879 0b65 29       		.uleb128 0x29
 1880 0b66 98050000 		.4byte	.LASF147
 1881 0b6a 920B0000 		.4byte	0xb92
 1882 0b6e 2E       		.uleb128 0x2e
 1883 0b6f 14000000 		.4byte	.LVL4
 1884 0b73 D60B0000 		.4byte	0xbd6
 1885 0b77 23       		.uleb128 0x23
 1886 0b78 01       		.uleb128 0x1
 1887 0b79 50       		.byte	0x50
 1888 0b7a 05       		.uleb128 0x5
 1889 0b7b F3       		.byte	0xf3
 1890 0b7c 01       		.uleb128 0x1
 1891 0b7d 50       		.byte	0x50
 1892 0b7e 23       		.byte	0x23
 1893 0b7f 10       		.uleb128 0x10
 1894 0b80 00       		.byte	0
 1895 0b81 00       		.byte	0
 1896 0b82 17       		.uleb128 0x17
 1897 0b83 27070000 		.4byte	0x727
 1898 0b87 920B0000 		.4byte	0xb92
 1899 0b8b 18       		.uleb128 0x18
 1900 0b8c 37000000 		.4byte	0x37
 1901 0b90 10       		.byte	0x10
 1902 0b91 00       		.byte	0
 1903 0b92 16       		.uleb128 0x16
 1904 0b93 820B0000 		.4byte	0xb82
 1905 0b97 25       		.uleb128 0x25
 1906 0b98 EB020000 		.4byte	.LASF148
 1907 0b9c 01       		.byte	0x1
 1908 0b9d 5B       		.byte	0x5b
 1909 0b9e 00000000 		.4byte	.LFB219
 1910 0ba2 1C000000 		.4byte	.LFE219-.LFB219
 1911 0ba6 01       		.uleb128 0x1
 1912 0ba7 9C       		.byte	0x9c
 1913 0ba8 C00B0000 		.4byte	0xbc0
 1914 0bac 2E       		.uleb128 0x2e
 1915 0bad 14000000 		.4byte	.LVL0
 1916 0bb1 D60B0000 		.4byte	0xbd6
 1917 0bb5 23       		.uleb128 0x23
 1918 0bb6 01       		.uleb128 0x1
 1919 0bb7 50       		.byte	0x50
 1920 0bb8 05       		.uleb128 0x5
 1921 0bb9 03       		.byte	0x3
 1922 0bba 10000000 		.4byte	.LANCHOR0+16
 1923 0bbe 00       		.byte	0
 1924 0bbf 00       		.byte	0
 1925 0bc0 2F       		.uleb128 0x2f
 1926 0bc1 7E040000 		.4byte	.LASF149
 1927 0bc5 7E040000 		.4byte	.LASF149
 1928 0bc9 0E       		.byte	0xe
 1929 0bca 68       		.byte	0x68
 1930 0bcb 2F       		.uleb128 0x2f
 1931 0bcc 13020000 		.4byte	.LASF150
 1932 0bd0 13020000 		.4byte	.LASF150
 1933 0bd4 0E       		.byte	0xe
 1934 0bd5 6C       		.byte	0x6c
ARM GAS  /tmp/cca0JkoX.s 			page 35


 1935 0bd6 2F       		.uleb128 0x2f
 1936 0bd7 FC040000 		.4byte	.LASF151
 1937 0bdb FC040000 		.4byte	.LASF151
 1938 0bdf 0E       		.byte	0xe
 1939 0be0 67       		.byte	0x67
 1940 0be1 00       		.byte	0
 1941              		.section	.debug_abbrev,"",%progbits
 1942              	.Ldebug_abbrev0:
 1943 0000 01       		.uleb128 0x1
 1944 0001 11       		.uleb128 0x11
 1945 0002 01       		.byte	0x1
 1946 0003 25       		.uleb128 0x25
 1947 0004 0E       		.uleb128 0xe
 1948 0005 13       		.uleb128 0x13
 1949 0006 0B       		.uleb128 0xb
 1950 0007 03       		.uleb128 0x3
 1951 0008 0E       		.uleb128 0xe
 1952 0009 1B       		.uleb128 0x1b
 1953 000a 0E       		.uleb128 0xe
 1954 000b 55       		.uleb128 0x55
 1955 000c 17       		.uleb128 0x17
 1956 000d 11       		.uleb128 0x11
 1957 000e 01       		.uleb128 0x1
 1958 000f 10       		.uleb128 0x10
 1959 0010 17       		.uleb128 0x17
 1960 0011 00       		.byte	0
 1961 0012 00       		.byte	0
 1962 0013 02       		.uleb128 0x2
 1963 0014 24       		.uleb128 0x24
 1964 0015 00       		.byte	0
 1965 0016 0B       		.uleb128 0xb
 1966 0017 0B       		.uleb128 0xb
 1967 0018 3E       		.uleb128 0x3e
 1968 0019 0B       		.uleb128 0xb
 1969 001a 03       		.uleb128 0x3
 1970 001b 08       		.uleb128 0x8
 1971 001c 00       		.byte	0
 1972 001d 00       		.byte	0
 1973 001e 03       		.uleb128 0x3
 1974 001f 16       		.uleb128 0x16
 1975 0020 00       		.byte	0
 1976 0021 03       		.uleb128 0x3
 1977 0022 0E       		.uleb128 0xe
 1978 0023 3A       		.uleb128 0x3a
 1979 0024 0B       		.uleb128 0xb
 1980 0025 3B       		.uleb128 0x3b
 1981 0026 0B       		.uleb128 0xb
 1982 0027 49       		.uleb128 0x49
 1983 0028 13       		.uleb128 0x13
 1984 0029 00       		.byte	0
 1985 002a 00       		.byte	0
 1986 002b 04       		.uleb128 0x4
 1987 002c 24       		.uleb128 0x24
 1988 002d 00       		.byte	0
 1989 002e 0B       		.uleb128 0xb
 1990 002f 0B       		.uleb128 0xb
 1991 0030 3E       		.uleb128 0x3e
ARM GAS  /tmp/cca0JkoX.s 			page 36


 1992 0031 0B       		.uleb128 0xb
 1993 0032 03       		.uleb128 0x3
 1994 0033 0E       		.uleb128 0xe
 1995 0034 00       		.byte	0
 1996 0035 00       		.byte	0
 1997 0036 05       		.uleb128 0x5
 1998 0037 35       		.uleb128 0x35
 1999 0038 00       		.byte	0
 2000 0039 49       		.uleb128 0x49
 2001 003a 13       		.uleb128 0x13
 2002 003b 00       		.byte	0
 2003 003c 00       		.byte	0
 2004 003d 06       		.uleb128 0x6
 2005 003e 13       		.uleb128 0x13
 2006 003f 01       		.byte	0x1
 2007 0040 03       		.uleb128 0x3
 2008 0041 0E       		.uleb128 0xe
 2009 0042 0B       		.uleb128 0xb
 2010 0043 0B       		.uleb128 0xb
 2011 0044 3A       		.uleb128 0x3a
 2012 0045 0B       		.uleb128 0xb
 2013 0046 3B       		.uleb128 0x3b
 2014 0047 0B       		.uleb128 0xb
 2015 0048 01       		.uleb128 0x1
 2016 0049 13       		.uleb128 0x13
 2017 004a 00       		.byte	0
 2018 004b 00       		.byte	0
 2019 004c 07       		.uleb128 0x7
 2020 004d 0D       		.uleb128 0xd
 2021 004e 00       		.byte	0
 2022 004f 03       		.uleb128 0x3
 2023 0050 0E       		.uleb128 0xe
 2024 0051 3A       		.uleb128 0x3a
 2025 0052 0B       		.uleb128 0xb
 2026 0053 3B       		.uleb128 0x3b
 2027 0054 0B       		.uleb128 0xb
 2028 0055 49       		.uleb128 0x49
 2029 0056 13       		.uleb128 0x13
 2030 0057 38       		.uleb128 0x38
 2031 0058 0B       		.uleb128 0xb
 2032 0059 00       		.byte	0
 2033 005a 00       		.byte	0
 2034 005b 08       		.uleb128 0x8
 2035 005c 0D       		.uleb128 0xd
 2036 005d 00       		.byte	0
 2037 005e 03       		.uleb128 0x3
 2038 005f 08       		.uleb128 0x8
 2039 0060 3A       		.uleb128 0x3a
 2040 0061 0B       		.uleb128 0xb
 2041 0062 3B       		.uleb128 0x3b
 2042 0063 05       		.uleb128 0x5
 2043 0064 49       		.uleb128 0x49
 2044 0065 13       		.uleb128 0x13
 2045 0066 38       		.uleb128 0x38
 2046 0067 0B       		.uleb128 0xb
 2047 0068 00       		.byte	0
 2048 0069 00       		.byte	0
ARM GAS  /tmp/cca0JkoX.s 			page 37


 2049 006a 09       		.uleb128 0x9
 2050 006b 0D       		.uleb128 0xd
 2051 006c 00       		.byte	0
 2052 006d 03       		.uleb128 0x3
 2053 006e 0E       		.uleb128 0xe
 2054 006f 3A       		.uleb128 0x3a
 2055 0070 0B       		.uleb128 0xb
 2056 0071 3B       		.uleb128 0x3b
 2057 0072 05       		.uleb128 0x5
 2058 0073 49       		.uleb128 0x49
 2059 0074 13       		.uleb128 0x13
 2060 0075 38       		.uleb128 0x38
 2061 0076 0B       		.uleb128 0xb
 2062 0077 00       		.byte	0
 2063 0078 00       		.byte	0
 2064 0079 0A       		.uleb128 0xa
 2065 007a 0F       		.uleb128 0xf
 2066 007b 00       		.byte	0
 2067 007c 0B       		.uleb128 0xb
 2068 007d 0B       		.uleb128 0xb
 2069 007e 49       		.uleb128 0x49
 2070 007f 13       		.uleb128 0x13
 2071 0080 00       		.byte	0
 2072 0081 00       		.byte	0
 2073 0082 0B       		.uleb128 0xb
 2074 0083 13       		.uleb128 0x13
 2075 0084 01       		.byte	0x1
 2076 0085 03       		.uleb128 0x3
 2077 0086 0E       		.uleb128 0xe
 2078 0087 0B       		.uleb128 0xb
 2079 0088 0B       		.uleb128 0xb
 2080 0089 3A       		.uleb128 0x3a
 2081 008a 0B       		.uleb128 0xb
 2082 008b 3B       		.uleb128 0x3b
 2083 008c 05       		.uleb128 0x5
 2084 008d 01       		.uleb128 0x1
 2085 008e 13       		.uleb128 0x13
 2086 008f 00       		.byte	0
 2087 0090 00       		.byte	0
 2088 0091 0C       		.uleb128 0xc
 2089 0092 15       		.uleb128 0x15
 2090 0093 01       		.byte	0x1
 2091 0094 27       		.uleb128 0x27
 2092 0095 19       		.uleb128 0x19
 2093 0096 01       		.uleb128 0x1
 2094 0097 13       		.uleb128 0x13
 2095 0098 00       		.byte	0
 2096 0099 00       		.byte	0
 2097 009a 0D       		.uleb128 0xd
 2098 009b 05       		.uleb128 0x5
 2099 009c 00       		.byte	0
 2100 009d 49       		.uleb128 0x49
 2101 009e 13       		.uleb128 0x13
 2102 009f 00       		.byte	0
 2103 00a0 00       		.byte	0
 2104 00a1 0E       		.uleb128 0xe
 2105 00a2 0F       		.uleb128 0xf
ARM GAS  /tmp/cca0JkoX.s 			page 38


 2106 00a3 00       		.byte	0
 2107 00a4 0B       		.uleb128 0xb
 2108 00a5 0B       		.uleb128 0xb
 2109 00a6 00       		.byte	0
 2110 00a7 00       		.byte	0
 2111 00a8 0F       		.uleb128 0xf
 2112 00a9 13       		.uleb128 0x13
 2113 00aa 01       		.byte	0x1
 2114 00ab 03       		.uleb128 0x3
 2115 00ac 0E       		.uleb128 0xe
 2116 00ad 0B       		.uleb128 0xb
 2117 00ae 05       		.uleb128 0x5
 2118 00af 3A       		.uleb128 0x3a
 2119 00b0 0B       		.uleb128 0xb
 2120 00b1 3B       		.uleb128 0x3b
 2121 00b2 05       		.uleb128 0x5
 2122 00b3 01       		.uleb128 0x1
 2123 00b4 13       		.uleb128 0x13
 2124 00b5 00       		.byte	0
 2125 00b6 00       		.byte	0
 2126 00b7 10       		.uleb128 0x10
 2127 00b8 34       		.uleb128 0x34
 2128 00b9 00       		.byte	0
 2129 00ba 03       		.uleb128 0x3
 2130 00bb 0E       		.uleb128 0xe
 2131 00bc 3A       		.uleb128 0x3a
 2132 00bd 0B       		.uleb128 0xb
 2133 00be 3B       		.uleb128 0x3b
 2134 00bf 05       		.uleb128 0x5
 2135 00c0 49       		.uleb128 0x49
 2136 00c1 13       		.uleb128 0x13
 2137 00c2 3F       		.uleb128 0x3f
 2138 00c3 19       		.uleb128 0x19
 2139 00c4 3C       		.uleb128 0x3c
 2140 00c5 19       		.uleb128 0x19
 2141 00c6 00       		.byte	0
 2142 00c7 00       		.byte	0
 2143 00c8 11       		.uleb128 0x11
 2144 00c9 34       		.uleb128 0x34
 2145 00ca 00       		.byte	0
 2146 00cb 03       		.uleb128 0x3
 2147 00cc 0E       		.uleb128 0xe
 2148 00cd 3A       		.uleb128 0x3a
 2149 00ce 0B       		.uleb128 0xb
 2150 00cf 3B       		.uleb128 0x3b
 2151 00d0 0B       		.uleb128 0xb
 2152 00d1 49       		.uleb128 0x49
 2153 00d2 13       		.uleb128 0x13
 2154 00d3 3F       		.uleb128 0x3f
 2155 00d4 19       		.uleb128 0x19
 2156 00d5 3C       		.uleb128 0x3c
 2157 00d6 19       		.uleb128 0x19
 2158 00d7 00       		.byte	0
 2159 00d8 00       		.byte	0
 2160 00d9 12       		.uleb128 0x12
 2161 00da 0D       		.uleb128 0xd
 2162 00db 00       		.byte	0
ARM GAS  /tmp/cca0JkoX.s 			page 39


 2163 00dc 03       		.uleb128 0x3
 2164 00dd 08       		.uleb128 0x8
 2165 00de 3A       		.uleb128 0x3a
 2166 00df 0B       		.uleb128 0xb
 2167 00e0 3B       		.uleb128 0x3b
 2168 00e1 0B       		.uleb128 0xb
 2169 00e2 49       		.uleb128 0x49
 2170 00e3 13       		.uleb128 0x13
 2171 00e4 38       		.uleb128 0x38
 2172 00e5 0B       		.uleb128 0xb
 2173 00e6 00       		.byte	0
 2174 00e7 00       		.byte	0
 2175 00e8 13       		.uleb128 0x13
 2176 00e9 13       		.uleb128 0x13
 2177 00ea 01       		.byte	0x1
 2178 00eb 0B       		.uleb128 0xb
 2179 00ec 0B       		.uleb128 0xb
 2180 00ed 3A       		.uleb128 0x3a
 2181 00ee 0B       		.uleb128 0xb
 2182 00ef 3B       		.uleb128 0x3b
 2183 00f0 0B       		.uleb128 0xb
 2184 00f1 01       		.uleb128 0x1
 2185 00f2 13       		.uleb128 0x13
 2186 00f3 00       		.byte	0
 2187 00f4 00       		.byte	0
 2188 00f5 14       		.uleb128 0x14
 2189 00f6 17       		.uleb128 0x17
 2190 00f7 01       		.byte	0x1
 2191 00f8 0B       		.uleb128 0xb
 2192 00f9 0B       		.uleb128 0xb
 2193 00fa 3A       		.uleb128 0x3a
 2194 00fb 0B       		.uleb128 0xb
 2195 00fc 3B       		.uleb128 0x3b
 2196 00fd 0B       		.uleb128 0xb
 2197 00fe 01       		.uleb128 0x1
 2198 00ff 13       		.uleb128 0x13
 2199 0100 00       		.byte	0
 2200 0101 00       		.byte	0
 2201 0102 15       		.uleb128 0x15
 2202 0103 0D       		.uleb128 0xd
 2203 0104 00       		.byte	0
 2204 0105 03       		.uleb128 0x3
 2205 0106 0E       		.uleb128 0xe
 2206 0107 3A       		.uleb128 0x3a
 2207 0108 0B       		.uleb128 0xb
 2208 0109 3B       		.uleb128 0x3b
 2209 010a 05       		.uleb128 0x5
 2210 010b 49       		.uleb128 0x49
 2211 010c 13       		.uleb128 0x13
 2212 010d 00       		.byte	0
 2213 010e 00       		.byte	0
 2214 010f 16       		.uleb128 0x16
 2215 0110 26       		.uleb128 0x26
 2216 0111 00       		.byte	0
 2217 0112 49       		.uleb128 0x49
 2218 0113 13       		.uleb128 0x13
 2219 0114 00       		.byte	0
ARM GAS  /tmp/cca0JkoX.s 			page 40


 2220 0115 00       		.byte	0
 2221 0116 17       		.uleb128 0x17
 2222 0117 01       		.uleb128 0x1
 2223 0118 01       		.byte	0x1
 2224 0119 49       		.uleb128 0x49
 2225 011a 13       		.uleb128 0x13
 2226 011b 01       		.uleb128 0x1
 2227 011c 13       		.uleb128 0x13
 2228 011d 00       		.byte	0
 2229 011e 00       		.byte	0
 2230 011f 18       		.uleb128 0x18
 2231 0120 21       		.uleb128 0x21
 2232 0121 00       		.byte	0
 2233 0122 49       		.uleb128 0x49
 2234 0123 13       		.uleb128 0x13
 2235 0124 2F       		.uleb128 0x2f
 2236 0125 0B       		.uleb128 0xb
 2237 0126 00       		.byte	0
 2238 0127 00       		.byte	0
 2239 0128 19       		.uleb128 0x19
 2240 0129 34       		.uleb128 0x34
 2241 012a 00       		.byte	0
 2242 012b 03       		.uleb128 0x3
 2243 012c 08       		.uleb128 0x8
 2244 012d 3A       		.uleb128 0x3a
 2245 012e 0B       		.uleb128 0xb
 2246 012f 3B       		.uleb128 0x3b
 2247 0130 05       		.uleb128 0x5
 2248 0131 49       		.uleb128 0x49
 2249 0132 13       		.uleb128 0x13
 2250 0133 3F       		.uleb128 0x3f
 2251 0134 19       		.uleb128 0x19
 2252 0135 3C       		.uleb128 0x3c
 2253 0136 19       		.uleb128 0x19
 2254 0137 00       		.byte	0
 2255 0138 00       		.byte	0
 2256 0139 1A       		.uleb128 0x1a
 2257 013a 15       		.uleb128 0x15
 2258 013b 01       		.byte	0x1
 2259 013c 27       		.uleb128 0x27
 2260 013d 19       		.uleb128 0x19
 2261 013e 49       		.uleb128 0x49
 2262 013f 13       		.uleb128 0x13
 2263 0140 01       		.uleb128 0x1
 2264 0141 13       		.uleb128 0x13
 2265 0142 00       		.byte	0
 2266 0143 00       		.byte	0
 2267 0144 1B       		.uleb128 0x1b
 2268 0145 0D       		.uleb128 0xd
 2269 0146 00       		.byte	0
 2270 0147 03       		.uleb128 0x3
 2271 0148 0E       		.uleb128 0xe
 2272 0149 3A       		.uleb128 0x3a
 2273 014a 0B       		.uleb128 0xb
 2274 014b 3B       		.uleb128 0x3b
 2275 014c 0B       		.uleb128 0xb
 2276 014d 49       		.uleb128 0x49
ARM GAS  /tmp/cca0JkoX.s 			page 41


 2277 014e 13       		.uleb128 0x13
 2278 014f 00       		.byte	0
 2279 0150 00       		.byte	0
 2280 0151 1C       		.uleb128 0x1c
 2281 0152 17       		.uleb128 0x17
 2282 0153 01       		.byte	0x1
 2283 0154 03       		.uleb128 0x3
 2284 0155 0E       		.uleb128 0xe
 2285 0156 0B       		.uleb128 0xb
 2286 0157 0B       		.uleb128 0xb
 2287 0158 3A       		.uleb128 0x3a
 2288 0159 0B       		.uleb128 0xb
 2289 015a 3B       		.uleb128 0x3b
 2290 015b 0B       		.uleb128 0xb
 2291 015c 01       		.uleb128 0x1
 2292 015d 13       		.uleb128 0x13
 2293 015e 00       		.byte	0
 2294 015f 00       		.byte	0
 2295 0160 1D       		.uleb128 0x1d
 2296 0161 0D       		.uleb128 0xd
 2297 0162 00       		.byte	0
 2298 0163 03       		.uleb128 0x3
 2299 0164 08       		.uleb128 0x8
 2300 0165 3A       		.uleb128 0x3a
 2301 0166 0B       		.uleb128 0xb
 2302 0167 3B       		.uleb128 0x3b
 2303 0168 0B       		.uleb128 0xb
 2304 0169 49       		.uleb128 0x49
 2305 016a 13       		.uleb128 0x13
 2306 016b 00       		.byte	0
 2307 016c 00       		.byte	0
 2308 016d 1E       		.uleb128 0x1e
 2309 016e 34       		.uleb128 0x34
 2310 016f 00       		.byte	0
 2311 0170 03       		.uleb128 0x3
 2312 0171 0E       		.uleb128 0xe
 2313 0172 3A       		.uleb128 0x3a
 2314 0173 0B       		.uleb128 0xb
 2315 0174 3B       		.uleb128 0x3b
 2316 0175 0B       		.uleb128 0xb
 2317 0176 49       		.uleb128 0x49
 2318 0177 13       		.uleb128 0x13
 2319 0178 02       		.uleb128 0x2
 2320 0179 18       		.uleb128 0x18
 2321 017a 00       		.byte	0
 2322 017b 00       		.byte	0
 2323 017c 1F       		.uleb128 0x1f
 2324 017d 2E       		.uleb128 0x2e
 2325 017e 01       		.byte	0x1
 2326 017f 3F       		.uleb128 0x3f
 2327 0180 19       		.uleb128 0x19
 2328 0181 03       		.uleb128 0x3
 2329 0182 0E       		.uleb128 0xe
 2330 0183 3A       		.uleb128 0x3a
 2331 0184 0B       		.uleb128 0xb
 2332 0185 3B       		.uleb128 0x3b
 2333 0186 05       		.uleb128 0x5
ARM GAS  /tmp/cca0JkoX.s 			page 42


 2334 0187 27       		.uleb128 0x27
 2335 0188 19       		.uleb128 0x19
 2336 0189 49       		.uleb128 0x49
 2337 018a 13       		.uleb128 0x13
 2338 018b 11       		.uleb128 0x11
 2339 018c 01       		.uleb128 0x1
 2340 018d 12       		.uleb128 0x12
 2341 018e 06       		.uleb128 0x6
 2342 018f 40       		.uleb128 0x40
 2343 0190 18       		.uleb128 0x18
 2344 0191 9742     		.uleb128 0x2117
 2345 0193 19       		.uleb128 0x19
 2346 0194 01       		.uleb128 0x1
 2347 0195 13       		.uleb128 0x13
 2348 0196 00       		.byte	0
 2349 0197 00       		.byte	0
 2350 0198 20       		.uleb128 0x20
 2351 0199 05       		.uleb128 0x5
 2352 019a 00       		.byte	0
 2353 019b 03       		.uleb128 0x3
 2354 019c 0E       		.uleb128 0xe
 2355 019d 3A       		.uleb128 0x3a
 2356 019e 0B       		.uleb128 0xb
 2357 019f 3B       		.uleb128 0x3b
 2358 01a0 05       		.uleb128 0x5
 2359 01a1 49       		.uleb128 0x49
 2360 01a2 13       		.uleb128 0x13
 2361 01a3 02       		.uleb128 0x2
 2362 01a4 17       		.uleb128 0x17
 2363 01a5 00       		.byte	0
 2364 01a6 00       		.byte	0
 2365 01a7 21       		.uleb128 0x21
 2366 01a8 34       		.uleb128 0x34
 2367 01a9 00       		.byte	0
 2368 01aa 03       		.uleb128 0x3
 2369 01ab 08       		.uleb128 0x8
 2370 01ac 3A       		.uleb128 0x3a
 2371 01ad 0B       		.uleb128 0xb
 2372 01ae 3B       		.uleb128 0x3b
 2373 01af 05       		.uleb128 0x5
 2374 01b0 49       		.uleb128 0x49
 2375 01b1 13       		.uleb128 0x13
 2376 01b2 02       		.uleb128 0x2
 2377 01b3 17       		.uleb128 0x17
 2378 01b4 00       		.byte	0
 2379 01b5 00       		.byte	0
 2380 01b6 22       		.uleb128 0x22
 2381 01b7 898201   		.uleb128 0x4109
 2382 01ba 01       		.byte	0x1
 2383 01bb 11       		.uleb128 0x11
 2384 01bc 01       		.uleb128 0x1
 2385 01bd 31       		.uleb128 0x31
 2386 01be 13       		.uleb128 0x13
 2387 01bf 01       		.uleb128 0x1
 2388 01c0 13       		.uleb128 0x13
 2389 01c1 00       		.byte	0
 2390 01c2 00       		.byte	0
ARM GAS  /tmp/cca0JkoX.s 			page 43


 2391 01c3 23       		.uleb128 0x23
 2392 01c4 8A8201   		.uleb128 0x410a
 2393 01c7 00       		.byte	0
 2394 01c8 02       		.uleb128 0x2
 2395 01c9 18       		.uleb128 0x18
 2396 01ca 9142     		.uleb128 0x2111
 2397 01cc 18       		.uleb128 0x18
 2398 01cd 00       		.byte	0
 2399 01ce 00       		.byte	0
 2400 01cf 24       		.uleb128 0x24
 2401 01d0 898201   		.uleb128 0x4109
 2402 01d3 01       		.byte	0x1
 2403 01d4 11       		.uleb128 0x11
 2404 01d5 01       		.uleb128 0x1
 2405 01d6 31       		.uleb128 0x31
 2406 01d7 13       		.uleb128 0x13
 2407 01d8 00       		.byte	0
 2408 01d9 00       		.byte	0
 2409 01da 25       		.uleb128 0x25
 2410 01db 2E       		.uleb128 0x2e
 2411 01dc 01       		.byte	0x1
 2412 01dd 3F       		.uleb128 0x3f
 2413 01de 19       		.uleb128 0x19
 2414 01df 03       		.uleb128 0x3
 2415 01e0 0E       		.uleb128 0xe
 2416 01e1 3A       		.uleb128 0x3a
 2417 01e2 0B       		.uleb128 0xb
 2418 01e3 3B       		.uleb128 0x3b
 2419 01e4 0B       		.uleb128 0xb
 2420 01e5 27       		.uleb128 0x27
 2421 01e6 19       		.uleb128 0x19
 2422 01e7 11       		.uleb128 0x11
 2423 01e8 01       		.uleb128 0x1
 2424 01e9 12       		.uleb128 0x12
 2425 01ea 06       		.uleb128 0x6
 2426 01eb 40       		.uleb128 0x40
 2427 01ec 18       		.uleb128 0x18
 2428 01ed 9742     		.uleb128 0x2117
 2429 01ef 19       		.uleb128 0x19
 2430 01f0 01       		.uleb128 0x1
 2431 01f1 13       		.uleb128 0x13
 2432 01f2 00       		.byte	0
 2433 01f3 00       		.byte	0
 2434 01f4 26       		.uleb128 0x26
 2435 01f5 05       		.uleb128 0x5
 2436 01f6 00       		.byte	0
 2437 01f7 03       		.uleb128 0x3
 2438 01f8 08       		.uleb128 0x8
 2439 01f9 3A       		.uleb128 0x3a
 2440 01fa 0B       		.uleb128 0xb
 2441 01fb 3B       		.uleb128 0x3b
 2442 01fc 0B       		.uleb128 0xb
 2443 01fd 49       		.uleb128 0x49
 2444 01fe 13       		.uleb128 0x13
 2445 01ff 02       		.uleb128 0x2
 2446 0200 17       		.uleb128 0x17
 2447 0201 00       		.byte	0
ARM GAS  /tmp/cca0JkoX.s 			page 44


 2448 0202 00       		.byte	0
 2449 0203 27       		.uleb128 0x27
 2450 0204 34       		.uleb128 0x34
 2451 0205 00       		.byte	0
 2452 0206 03       		.uleb128 0x3
 2453 0207 08       		.uleb128 0x8
 2454 0208 3A       		.uleb128 0x3a
 2455 0209 0B       		.uleb128 0xb
 2456 020a 3B       		.uleb128 0x3b
 2457 020b 0B       		.uleb128 0xb
 2458 020c 49       		.uleb128 0x49
 2459 020d 13       		.uleb128 0x13
 2460 020e 02       		.uleb128 0x2
 2461 020f 17       		.uleb128 0x17
 2462 0210 00       		.byte	0
 2463 0211 00       		.byte	0
 2464 0212 28       		.uleb128 0x28
 2465 0213 34       		.uleb128 0x34
 2466 0214 00       		.byte	0
 2467 0215 03       		.uleb128 0x3
 2468 0216 0E       		.uleb128 0xe
 2469 0217 3A       		.uleb128 0x3a
 2470 0218 0B       		.uleb128 0xb
 2471 0219 3B       		.uleb128 0x3b
 2472 021a 0B       		.uleb128 0xb
 2473 021b 49       		.uleb128 0x49
 2474 021c 13       		.uleb128 0x13
 2475 021d 02       		.uleb128 0x2
 2476 021e 17       		.uleb128 0x17
 2477 021f 00       		.byte	0
 2478 0220 00       		.byte	0
 2479 0221 29       		.uleb128 0x29
 2480 0222 34       		.uleb128 0x34
 2481 0223 00       		.byte	0
 2482 0224 03       		.uleb128 0x3
 2483 0225 0E       		.uleb128 0xe
 2484 0226 49       		.uleb128 0x49
 2485 0227 13       		.uleb128 0x13
 2486 0228 34       		.uleb128 0x34
 2487 0229 19       		.uleb128 0x19
 2488 022a 00       		.byte	0
 2489 022b 00       		.byte	0
 2490 022c 2A       		.uleb128 0x2a
 2491 022d 898201   		.uleb128 0x4109
 2492 0230 00       		.byte	0
 2493 0231 11       		.uleb128 0x11
 2494 0232 01       		.uleb128 0x1
 2495 0233 9542     		.uleb128 0x2115
 2496 0235 19       		.uleb128 0x19
 2497 0236 31       		.uleb128 0x31
 2498 0237 13       		.uleb128 0x13
 2499 0238 00       		.byte	0
 2500 0239 00       		.byte	0
 2501 023a 2B       		.uleb128 0x2b
 2502 023b 2E       		.uleb128 0x2e
 2503 023c 01       		.byte	0x1
 2504 023d 3F       		.uleb128 0x3f
ARM GAS  /tmp/cca0JkoX.s 			page 45


 2505 023e 19       		.uleb128 0x19
 2506 023f 03       		.uleb128 0x3
 2507 0240 0E       		.uleb128 0xe
 2508 0241 3A       		.uleb128 0x3a
 2509 0242 0B       		.uleb128 0xb
 2510 0243 3B       		.uleb128 0x3b
 2511 0244 0B       		.uleb128 0xb
 2512 0245 27       		.uleb128 0x27
 2513 0246 19       		.uleb128 0x19
 2514 0247 49       		.uleb128 0x49
 2515 0248 13       		.uleb128 0x13
 2516 0249 11       		.uleb128 0x11
 2517 024a 01       		.uleb128 0x1
 2518 024b 12       		.uleb128 0x12
 2519 024c 06       		.uleb128 0x6
 2520 024d 40       		.uleb128 0x40
 2521 024e 18       		.uleb128 0x18
 2522 024f 9742     		.uleb128 0x2117
 2523 0251 19       		.uleb128 0x19
 2524 0252 01       		.uleb128 0x1
 2525 0253 13       		.uleb128 0x13
 2526 0254 00       		.byte	0
 2527 0255 00       		.byte	0
 2528 0256 2C       		.uleb128 0x2c
 2529 0257 05       		.uleb128 0x5
 2530 0258 00       		.byte	0
 2531 0259 03       		.uleb128 0x3
 2532 025a 0E       		.uleb128 0xe
 2533 025b 3A       		.uleb128 0x3a
 2534 025c 0B       		.uleb128 0xb
 2535 025d 3B       		.uleb128 0x3b
 2536 025e 0B       		.uleb128 0xb
 2537 025f 49       		.uleb128 0x49
 2538 0260 13       		.uleb128 0x13
 2539 0261 02       		.uleb128 0x2
 2540 0262 17       		.uleb128 0x17
 2541 0263 00       		.byte	0
 2542 0264 00       		.byte	0
 2543 0265 2D       		.uleb128 0x2d
 2544 0266 898201   		.uleb128 0x4109
 2545 0269 01       		.byte	0x1
 2546 026a 11       		.uleb128 0x11
 2547 026b 01       		.uleb128 0x1
 2548 026c 01       		.uleb128 0x1
 2549 026d 13       		.uleb128 0x13
 2550 026e 00       		.byte	0
 2551 026f 00       		.byte	0
 2552 0270 2E       		.uleb128 0x2e
 2553 0271 898201   		.uleb128 0x4109
 2554 0274 01       		.byte	0x1
 2555 0275 11       		.uleb128 0x11
 2556 0276 01       		.uleb128 0x1
 2557 0277 9542     		.uleb128 0x2115
 2558 0279 19       		.uleb128 0x19
 2559 027a 31       		.uleb128 0x31
 2560 027b 13       		.uleb128 0x13
 2561 027c 00       		.byte	0
ARM GAS  /tmp/cca0JkoX.s 			page 46


 2562 027d 00       		.byte	0
 2563 027e 2F       		.uleb128 0x2f
 2564 027f 2E       		.uleb128 0x2e
 2565 0280 00       		.byte	0
 2566 0281 3F       		.uleb128 0x3f
 2567 0282 19       		.uleb128 0x19
 2568 0283 3C       		.uleb128 0x3c
 2569 0284 19       		.uleb128 0x19
 2570 0285 6E       		.uleb128 0x6e
 2571 0286 0E       		.uleb128 0xe
 2572 0287 03       		.uleb128 0x3
 2573 0288 0E       		.uleb128 0xe
 2574 0289 3A       		.uleb128 0x3a
 2575 028a 0B       		.uleb128 0xb
 2576 028b 3B       		.uleb128 0x3b
 2577 028c 0B       		.uleb128 0xb
 2578 028d 00       		.byte	0
 2579 028e 00       		.byte	0
 2580 028f 00       		.byte	0
 2581              		.section	.debug_loc,"",%progbits
 2582              	.Ldebug_loc0:
 2583              	.LLST13:
 2584 0000 00000000 		.4byte	.LVL39
 2585 0004 0A000000 		.4byte	.LVL40
 2586 0008 0100     		.2byte	0x1
 2587 000a 50       		.byte	0x50
 2588 000b 0A000000 		.4byte	.LVL40
 2589 000f 1E000000 		.4byte	.LVL42
 2590 0013 0100     		.2byte	0x1
 2591 0015 54       		.byte	0x54
 2592 0016 1E000000 		.4byte	.LVL42
 2593 001a 38000000 		.4byte	.LVL47
 2594 001e 0300     		.2byte	0x3
 2595 0020 75       		.byte	0x75
 2596 0021 70       		.sleb128 -16
 2597 0022 9F       		.byte	0x9f
 2598 0023 38000000 		.4byte	.LVL47
 2599 0027 3C000000 		.4byte	.LVL48
 2600 002b 0100     		.2byte	0x1
 2601 002d 54       		.byte	0x54
 2602 002e 3C000000 		.4byte	.LVL48
 2603 0032 44000000 		.4byte	.LFE223
 2604 0036 0300     		.2byte	0x3
 2605 0038 75       		.byte	0x75
 2606 0039 70       		.sleb128 -16
 2607 003a 9F       		.byte	0x9f
 2608 003b 00000000 		.4byte	0
 2609 003f 00000000 		.4byte	0
 2610              	.LLST14:
 2611 0043 00000000 		.4byte	.LVL39
 2612 0047 15000000 		.4byte	.LVL41-1
 2613 004b 0100     		.2byte	0x1
 2614 004d 51       		.byte	0x51
 2615 004e 15000000 		.4byte	.LVL41-1
 2616 0052 44000000 		.4byte	.LFE223
 2617 0056 0100     		.2byte	0x1
 2618 0058 56       		.byte	0x56
ARM GAS  /tmp/cca0JkoX.s 			page 47


 2619 0059 00000000 		.4byte	0
 2620 005d 00000000 		.4byte	0
 2621              	.LLST15:
 2622 0061 16000000 		.4byte	.LVL41
 2623 0065 1E000000 		.4byte	.LVL42
 2624 0069 0300     		.2byte	0x3
 2625 006b 74       		.byte	0x74
 2626 006c 08       		.sleb128 8
 2627 006d 9F       		.byte	0x9f
 2628 006e 1E000000 		.4byte	.LVL42
 2629 0072 26000000 		.4byte	.LVL44
 2630 0076 0300     		.2byte	0x3
 2631 0078 75       		.byte	0x75
 2632 0079 78       		.sleb128 -8
 2633 007a 9F       		.byte	0x9f
 2634 007b 38000000 		.4byte	.LVL47
 2635 007f 3C000000 		.4byte	.LVL48
 2636 0083 0300     		.2byte	0x3
 2637 0085 74       		.byte	0x74
 2638 0086 08       		.sleb128 8
 2639 0087 9F       		.byte	0x9f
 2640 0088 3C000000 		.4byte	.LVL48
 2641 008c 44000000 		.4byte	.LFE223
 2642 0090 0300     		.2byte	0x3
 2643 0092 75       		.byte	0x75
 2644 0093 78       		.sleb128 -8
 2645 0094 9F       		.byte	0x9f
 2646 0095 00000000 		.4byte	0
 2647 0099 00000000 		.4byte	0
 2648              	.LLST16:
 2649 009d 16000000 		.4byte	.LVL41
 2650 00a1 1E000000 		.4byte	.LVL42
 2651 00a5 0200     		.2byte	0x2
 2652 00a7 30       		.byte	0x30
 2653 00a8 9F       		.byte	0x9f
 2654 00a9 1E000000 		.4byte	.LVL42
 2655 00ad 24000000 		.4byte	.LVL43
 2656 00b1 0100     		.2byte	0x1
 2657 00b3 54       		.byte	0x54
 2658 00b4 24000000 		.4byte	.LVL43
 2659 00b8 26000000 		.4byte	.LVL44
 2660 00bc 0300     		.2byte	0x3
 2661 00be 74       		.byte	0x74
 2662 00bf 7F       		.sleb128 -1
 2663 00c0 9F       		.byte	0x9f
 2664 00c1 26000000 		.4byte	.LVL44
 2665 00c5 2A000000 		.4byte	.LVL45
 2666 00c9 0100     		.2byte	0x1
 2667 00cb 54       		.byte	0x54
 2668 00cc 38000000 		.4byte	.LVL47
 2669 00d0 44000000 		.4byte	.LFE223
 2670 00d4 0200     		.2byte	0x2
 2671 00d6 30       		.byte	0x30
 2672 00d7 9F       		.byte	0x9f
 2673 00d8 00000000 		.4byte	0
 2674 00dc 00000000 		.4byte	0
 2675              	.LLST17:
ARM GAS  /tmp/cca0JkoX.s 			page 48


 2676 00e0 16000000 		.4byte	.LVL41
 2677 00e4 1E000000 		.4byte	.LVL42
 2678 00e8 0200     		.2byte	0x2
 2679 00ea 30       		.byte	0x30
 2680 00eb 9F       		.byte	0x9f
 2681 00ec 1E000000 		.4byte	.LVL42
 2682 00f0 2A000000 		.4byte	.LVL45
 2683 00f4 0100     		.2byte	0x1
 2684 00f6 52       		.byte	0x52
 2685 00f7 38000000 		.4byte	.LVL47
 2686 00fb 44000000 		.4byte	.LFE223
 2687 00ff 0200     		.2byte	0x2
 2688 0101 30       		.byte	0x30
 2689 0102 9F       		.byte	0x9f
 2690 0103 00000000 		.4byte	0
 2691 0107 00000000 		.4byte	0
 2692              	.LLST9:
 2693 010b 00000000 		.4byte	.LVL27
 2694 010f 14000000 		.4byte	.LVL30
 2695 0113 0100     		.2byte	0x1
 2696 0115 50       		.byte	0x50
 2697 0116 14000000 		.4byte	.LVL30
 2698 011a 54000000 		.4byte	.LVL35
 2699 011e 0100     		.2byte	0x1
 2700 0120 56       		.byte	0x56
 2701 0121 54000000 		.4byte	.LVL35
 2702 0125 58000000 		.4byte	.LVL36
 2703 0129 0400     		.2byte	0x4
 2704 012b F3       		.byte	0xf3
 2705 012c 01       		.uleb128 0x1
 2706 012d 50       		.byte	0x50
 2707 012e 9F       		.byte	0x9f
 2708 012f 58000000 		.4byte	.LVL36
 2709 0133 86000000 		.4byte	.LVL37
 2710 0137 0100     		.2byte	0x1
 2711 0139 56       		.byte	0x56
 2712 013a 86000000 		.4byte	.LVL37
 2713 013e 8A000000 		.4byte	.LFE222
 2714 0142 0400     		.2byte	0x4
 2715 0144 F3       		.byte	0xf3
 2716 0145 01       		.uleb128 0x1
 2717 0146 50       		.byte	0x50
 2718 0147 9F       		.byte	0x9f
 2719 0148 00000000 		.4byte	0
 2720 014c 00000000 		.4byte	0
 2721              	.LLST10:
 2722 0150 12000000 		.4byte	.LVL29
 2723 0154 1A000000 		.4byte	.LVL32
 2724 0158 0100     		.2byte	0x1
 2725 015a 55       		.byte	0x55
 2726 015b 1A000000 		.4byte	.LVL32
 2727 015f 2C000000 		.4byte	.LVL33
 2728 0163 0100     		.2byte	0x1
 2729 0165 53       		.byte	0x53
 2730 0166 2E000000 		.4byte	.LVL34
 2731 016a 54000000 		.4byte	.LVL35
 2732 016e 0100     		.2byte	0x1
ARM GAS  /tmp/cca0JkoX.s 			page 49


 2733 0170 53       		.byte	0x53
 2734 0171 58000000 		.4byte	.LVL36
 2735 0175 86000000 		.4byte	.LVL37
 2736 0179 0100     		.2byte	0x1
 2737 017b 53       		.byte	0x53
 2738 017c 00000000 		.4byte	0
 2739 0180 00000000 		.4byte	0
 2740              	.LLST11:
 2741 0184 10000000 		.4byte	.LVL28
 2742 0188 54000000 		.4byte	.LVL35
 2743 018c 0100     		.2byte	0x1
 2744 018e 54       		.byte	0x54
 2745 018f 54000000 		.4byte	.LVL35
 2746 0193 58000000 		.4byte	.LVL36
 2747 0197 0600     		.2byte	0x6
 2748 0199 F3       		.byte	0xf3
 2749 019a 01       		.uleb128 0x1
 2750 019b 50       		.byte	0x50
 2751 019c 38       		.byte	0x38
 2752 019d 1C       		.byte	0x1c
 2753 019e 9F       		.byte	0x9f
 2754 019f 58000000 		.4byte	.LVL36
 2755 01a3 86000000 		.4byte	.LVL37
 2756 01a7 0100     		.2byte	0x1
 2757 01a9 54       		.byte	0x54
 2758 01aa 86000000 		.4byte	.LVL37
 2759 01ae 8A000000 		.4byte	.LFE222
 2760 01b2 0600     		.2byte	0x6
 2761 01b4 F3       		.byte	0xf3
 2762 01b5 01       		.uleb128 0x1
 2763 01b6 50       		.byte	0x50
 2764 01b7 38       		.byte	0x38
 2765 01b8 1C       		.byte	0x1c
 2766 01b9 9F       		.byte	0x9f
 2767 01ba 00000000 		.4byte	0
 2768 01be 00000000 		.4byte	0
 2769              	.LLST12:
 2770 01c2 10000000 		.4byte	.LVL28
 2771 01c6 12000000 		.4byte	.LVL29
 2772 01ca 0100     		.2byte	0x1
 2773 01cc 55       		.byte	0x55
 2774 01cd 12000000 		.4byte	.LVL29
 2775 01d1 17000000 		.4byte	.LVL31-1
 2776 01d5 0200     		.2byte	0x2
 2777 01d7 74       		.byte	0x74
 2778 01d8 00       		.sleb128 0
 2779 01d9 17000000 		.4byte	.LVL31-1
 2780 01dd 54000000 		.4byte	.LVL35
 2781 01e1 0300     		.2byte	0x3
 2782 01e3 75       		.byte	0x75
 2783 01e4 78       		.sleb128 -8
 2784 01e5 9F       		.byte	0x9f
 2785 01e6 54000000 		.4byte	.LVL35
 2786 01ea 57000000 		.4byte	.LVL36-1
 2787 01ee 0300     		.2byte	0x3
 2788 01f0 70       		.byte	0x70
 2789 01f1 70       		.sleb128 -16
ARM GAS  /tmp/cca0JkoX.s 			page 50


 2790 01f2 9F       		.byte	0x9f
 2791 01f3 58000000 		.4byte	.LVL36
 2792 01f7 86000000 		.4byte	.LVL37
 2793 01fb 0300     		.2byte	0x3
 2794 01fd 75       		.byte	0x75
 2795 01fe 78       		.sleb128 -8
 2796 01ff 9F       		.byte	0x9f
 2797 0200 86000000 		.4byte	.LVL37
 2798 0204 89000000 		.4byte	.LVL38-1
 2799 0208 0300     		.2byte	0x3
 2800 020a 70       		.byte	0x70
 2801 020b 70       		.sleb128 -16
 2802 020c 9F       		.byte	0x9f
 2803 020d 00000000 		.4byte	0
 2804 0211 00000000 		.4byte	0
 2805              	.LLST4:
 2806 0215 00000000 		.4byte	.LVL5
 2807 0219 0A000000 		.4byte	.LVL6
 2808 021d 0100     		.2byte	0x1
 2809 021f 50       		.byte	0x50
 2810 0220 0A000000 		.4byte	.LVL6
 2811 0224 88000000 		.4byte	.LFE221
 2812 0228 0100     		.2byte	0x1
 2813 022a 56       		.byte	0x56
 2814 022b 00000000 		.4byte	0
 2815 022f 00000000 		.4byte	0
 2816              	.LLST5:
 2817 0233 00000000 		.4byte	.LVL5
 2818 0237 10000000 		.4byte	.LVL7
 2819 023b 0100     		.2byte	0x1
 2820 023d 51       		.byte	0x51
 2821 023e 10000000 		.4byte	.LVL7
 2822 0242 16000000 		.4byte	.LVL8
 2823 0246 0300     		.2byte	0x3
 2824 0248 71       		.byte	0x71
 2825 0249 79       		.sleb128 -7
 2826 024a 9F       		.byte	0x9f
 2827 024b 16000000 		.4byte	.LVL8
 2828 024f 88000000 		.4byte	.LFE221
 2829 0253 0100     		.2byte	0x1
 2830 0255 55       		.byte	0x55
 2831 0256 00000000 		.4byte	0
 2832 025a 00000000 		.4byte	0
 2833              	.LLST6:
 2834 025e 1A000000 		.4byte	.LVL9
 2835 0262 48000000 		.4byte	.LVL17
 2836 0266 0100     		.2byte	0x1
 2837 0268 54       		.byte	0x54
 2838 0269 4C000000 		.4byte	.LVL18
 2839 026d 5A000000 		.4byte	.LVL19
 2840 0271 0100     		.2byte	0x1
 2841 0273 54       		.byte	0x54
 2842 0274 68000000 		.4byte	.LVL23
 2843 0278 80000000 		.4byte	.LVL26
 2844 027c 0100     		.2byte	0x1
 2845 027e 54       		.byte	0x54
 2846 027f 00000000 		.4byte	0
ARM GAS  /tmp/cca0JkoX.s 			page 51


 2847 0283 00000000 		.4byte	0
 2848              	.LLST7:
 2849 0287 20000000 		.4byte	.LVL11
 2850 028b 28000000 		.4byte	.LVL12
 2851 028f 0100     		.2byte	0x1
 2852 0291 50       		.byte	0x50
 2853 0292 2A000000 		.4byte	.LVL13
 2854 0296 30000000 		.4byte	.LVL14
 2855 029a 0100     		.2byte	0x1
 2856 029c 50       		.byte	0x50
 2857 029d 30000000 		.4byte	.LVL14
 2858 02a1 33000000 		.4byte	.LVL15-1
 2859 02a5 0200     		.2byte	0x2
 2860 02a7 74       		.byte	0x74
 2861 02a8 00       		.sleb128 0
 2862 02a9 3E000000 		.4byte	.LVL16
 2863 02ad 48000000 		.4byte	.LVL17
 2864 02b1 0100     		.2byte	0x1
 2865 02b3 50       		.byte	0x50
 2866 02b4 4C000000 		.4byte	.LVL18
 2867 02b8 5C000000 		.4byte	.LVL20
 2868 02bc 0100     		.2byte	0x1
 2869 02be 50       		.byte	0x50
 2870 02bf 5C000000 		.4byte	.LVL20
 2871 02c3 60000000 		.4byte	.LVL21
 2872 02c7 0100     		.2byte	0x1
 2873 02c9 54       		.byte	0x54
 2874 02ca 60000000 		.4byte	.LVL21
 2875 02ce 68000000 		.4byte	.LVL23
 2876 02d2 0300     		.2byte	0x3
 2877 02d4 74       		.byte	0x74
 2878 02d5 78       		.sleb128 -8
 2879 02d6 9F       		.byte	0x9f
 2880 02d7 68000000 		.4byte	.LVL23
 2881 02db 7E000000 		.4byte	.LVL25
 2882 02df 0100     		.2byte	0x1
 2883 02e1 50       		.byte	0x50
 2884 02e2 00000000 		.4byte	0
 2885 02e6 00000000 		.4byte	0
 2886              	.LLST8:
 2887 02ea 6C000000 		.4byte	.LVL24
 2888 02ee 7E000000 		.4byte	.LVL25
 2889 02f2 0100     		.2byte	0x1
 2890 02f4 5C       		.byte	0x5c
 2891 02f5 00000000 		.4byte	0
 2892 02f9 00000000 		.4byte	0
 2893              	.LLST0:
 2894 02fd 00000000 		.4byte	.LVL1
 2895 0301 0C000000 		.4byte	.LVL3
 2896 0305 0100     		.2byte	0x1
 2897 0307 50       		.byte	0x50
 2898 0308 0C000000 		.4byte	.LVL3
 2899 030c 13000000 		.4byte	.LVL4-1
 2900 0310 0300     		.2byte	0x3
 2901 0312 70       		.byte	0x70
 2902 0313 70       		.sleb128 -16
 2903 0314 9F       		.byte	0x9f
ARM GAS  /tmp/cca0JkoX.s 			page 52


 2904 0315 13000000 		.4byte	.LVL4-1
 2905 0319 14000000 		.4byte	.LFE220
 2906 031d 0400     		.2byte	0x4
 2907 031f F3       		.byte	0xf3
 2908 0320 01       		.uleb128 0x1
 2909 0321 50       		.byte	0x50
 2910 0322 9F       		.byte	0x9f
 2911 0323 00000000 		.4byte	0
 2912 0327 00000000 		.4byte	0
 2913              	.LLST1:
 2914 032b 00000000 		.4byte	.LVL1
 2915 032f 13000000 		.4byte	.LVL4-1
 2916 0333 0100     		.2byte	0x1
 2917 0335 51       		.byte	0x51
 2918 0336 13000000 		.4byte	.LVL4-1
 2919 033a 14000000 		.4byte	.LFE220
 2920 033e 0400     		.2byte	0x4
 2921 0340 F3       		.byte	0xf3
 2922 0341 01       		.uleb128 0x1
 2923 0342 51       		.byte	0x51
 2924 0343 9F       		.byte	0x9f
 2925 0344 00000000 		.4byte	0
 2926 0348 00000000 		.4byte	0
 2927              	.LLST2:
 2928 034c 00000000 		.4byte	.LVL1
 2929 0350 04000000 		.4byte	.LVL2
 2930 0354 0100     		.2byte	0x1
 2931 0356 52       		.byte	0x52
 2932 0357 04000000 		.4byte	.LVL2
 2933 035b 13000000 		.4byte	.LVL4-1
 2934 035f 0300     		.2byte	0x3
 2935 0361 72       		.byte	0x72
 2936 0362 08       		.sleb128 8
 2937 0363 9F       		.byte	0x9f
 2938 0364 13000000 		.4byte	.LVL4-1
 2939 0368 14000000 		.4byte	.LFE220
 2940 036c 0400     		.2byte	0x4
 2941 036e F3       		.byte	0xf3
 2942 036f 01       		.uleb128 0x1
 2943 0370 52       		.byte	0x52
 2944 0371 9F       		.byte	0x9f
 2945 0372 00000000 		.4byte	0
 2946 0376 00000000 		.4byte	0
 2947              	.LLST3:
 2948 037a 00000000 		.4byte	.LVL1
 2949 037e 13000000 		.4byte	.LVL4-1
 2950 0382 0100     		.2byte	0x1
 2951 0384 51       		.byte	0x51
 2952 0385 13000000 		.4byte	.LVL4-1
 2953 0389 14000000 		.4byte	.LFE220
 2954 038d 0400     		.2byte	0x4
 2955 038f F3       		.byte	0xf3
 2956 0390 01       		.uleb128 0x1
 2957 0391 51       		.byte	0x51
 2958 0392 9F       		.byte	0x9f
 2959 0393 00000000 		.4byte	0
 2960 0397 00000000 		.4byte	0
ARM GAS  /tmp/cca0JkoX.s 			page 53


 2961              		.section	.debug_aranges,"",%progbits
 2962 0000 3C000000 		.4byte	0x3c
 2963 0004 0200     		.2byte	0x2
 2964 0006 00000000 		.4byte	.Ldebug_info0
 2965 000a 04       		.byte	0x4
 2966 000b 00       		.byte	0
 2967 000c 0000     		.2byte	0
 2968 000e 0000     		.2byte	0
 2969 0010 00000000 		.4byte	.LFB219
 2970 0014 1C000000 		.4byte	.LFE219-.LFB219
 2971 0018 00000000 		.4byte	.LFB220
 2972 001c 14000000 		.4byte	.LFE220-.LFB220
 2973 0020 00000000 		.4byte	.LFB221
 2974 0024 88000000 		.4byte	.LFE221-.LFB221
 2975 0028 00000000 		.4byte	.LFB222
 2976 002c 8A000000 		.4byte	.LFE222-.LFB222
 2977 0030 00000000 		.4byte	.LFB223
 2978 0034 44000000 		.4byte	.LFE223-.LFB223
 2979 0038 00000000 		.4byte	0
 2980 003c 00000000 		.4byte	0
 2981              		.section	.debug_ranges,"",%progbits
 2982              	.Ldebug_ranges0:
 2983 0000 00000000 		.4byte	.LFB219
 2984 0004 1C000000 		.4byte	.LFE219
 2985 0008 00000000 		.4byte	.LFB220
 2986 000c 14000000 		.4byte	.LFE220
 2987 0010 00000000 		.4byte	.LFB221
 2988 0014 88000000 		.4byte	.LFE221
 2989 0018 00000000 		.4byte	.LFB222
 2990 001c 8A000000 		.4byte	.LFE222
 2991 0020 00000000 		.4byte	.LFB223
 2992 0024 44000000 		.4byte	.LFE223
 2993 0028 00000000 		.4byte	0
 2994 002c 00000000 		.4byte	0
 2995              		.section	.debug_line,"",%progbits
 2996              	.Ldebug_line0:
 2997 0000 0A030000 		.section	.debug_str,"MS",%progbits,1
 2997      02003002 
 2997      00000201 
 2997      FB0E0D00 
 2997      01010101 
 2998              	.LASF58:
 2999 0000 72656164 		.ascii	"ready_list_t\000"
 2999      795F6C69 
 2999      73745F74 
 2999      00
 3000              	.LASF2:
 3001 000d 73697A65 		.ascii	"size_t\000"
 3001      5F7400
 3002              	.LASF136:
 3003 0014 6E657874 		.ascii	"next\000"
 3003      00
 3004              	.LASF94:
 3005 0019 7264796D 		.ascii	"rdymsg\000"
 3005      736700
 3006              	.LASF19:
 3007 0020 75696E74 		.ascii	"uint64_t\000"
ARM GAS  /tmp/cca0JkoX.s 			page 54


 3007      36345F74 
 3007      00
 3008              	.LASF3:
 3009 0029 5F5F7569 		.ascii	"__uint8_t\000"
 3009      6E74385F 
 3009      7400
 3010              	.LASF91:
 3011 0033 706F7274 		.ascii	"port_intctx\000"
 3011      5F696E74 
 3011      63747800 
 3012              	.LASF77:
 3013 003f 73797374 		.ascii	"system_debug_t\000"
 3013      656D5F64 
 3013      65627567 
 3013      5F7400
 3014              	.LASF152:
 3015 004e 474E5520 		.ascii	"GNU C99 7.3.1 20180622 (release) [ARM/embedded-7-br"
 3015      43393920 
 3015      372E332E 
 3015      31203230 
 3015      31383036 
 3016 0081 616E6368 		.ascii	"anch revision 261907] -mcpu=cortex-m4 -mfloat-abi=h"
 3016      20726576 
 3016      6973696F 
 3016      6E203236 
 3016      31393037 
 3017 00b4 61726420 		.ascii	"ard -mfpu=fpv4-sp-d16 -mno-thumb-interwork -mthumb "
 3017      2D6D6670 
 3017      753D6670 
 3017      76342D73 
 3017      702D6431 
 3018 00e7 2D676764 		.ascii	"-ggdb -O2 -std=gnu99 -fomit-frame-pointer -falign-f"
 3018      62202D4F 
 3018      32202D73 
 3018      74643D67 
 3018      6E753939 
 3019 011a 756E6374 		.ascii	"unctions=16 -ffunction-sections -fdata-sections -fn"
 3019      696F6E73 
 3019      3D313620 
 3019      2D666675 
 3019      6E637469 
 3020 014d 6F2D636F 		.ascii	"o-common -fsingle-precision-constant\000"
 3020      6D6D6F6E 
 3020      202D6673 
 3020      696E676C 
 3020      652D7072 
 3021              	.LASF130:
 3022 0172 6D656D67 		.ascii	"memgetfunc_t\000"
 3022      65746675 
 3022      6E635F74 
 3022      00
 3023              	.LASF14:
 3024 017f 6C6F6E67 		.ascii	"long long unsigned int\000"
 3024      206C6F6E 
 3024      6720756E 
 3024      7369676E 
 3024      65642069 
ARM GAS  /tmp/cca0JkoX.s 			page 55


 3025              	.LASF115:
 3026 0196 63685F74 		.ascii	"ch_threadsize\000"
 3026      68726561 
 3026      6473697A 
 3026      6500
 3027              	.LASF95:
 3028 01a4 65786974 		.ascii	"exitcode\000"
 3028      636F6465 
 3028      00
 3029              	.LASF134:
 3030 01ad 685F6672 		.ascii	"h_free\000"
 3030      656500
 3031              	.LASF74:
 3032 01b4 76697274 		.ascii	"virtual_timers_list_t\000"
 3032      75616C5F 
 3032      74696D65 
 3032      72735F6C 
 3032      6973745F 
 3033              	.LASF86:
 3034 01ca 49544D5F 		.ascii	"ITM_RxBuffer\000"
 3034      52784275 
 3034      66666572 
 3034      00
 3035              	.LASF140:
 3036 01d7 68656170 		.ascii	"heapp\000"
 3036      7000
 3037              	.LASF138:
 3038 01dd 616C6967 		.ascii	"align\000"
 3038      6E00
 3039              	.LASF57:
 3040 01e3 63685F74 		.ascii	"ch_threads_queue\000"
 3040      68726561 
 3040      64735F71 
 3040      75657565 
 3040      00
 3041              	.LASF33:
 3042 01f4 705F7072 		.ascii	"p_prio\000"
 3042      696F00
 3043              	.LASF122:
 3044 01fb 63665F6F 		.ascii	"cf_off_state\000"
 3044      66665F73 
 3044      74617465 
 3044      00
 3045              	.LASF76:
 3046 0208 76745F73 		.ascii	"vt_systime\000"
 3046      79737469 
 3046      6D6500
 3047              	.LASF150:
 3048 0213 63684D74 		.ascii	"chMtxUnlock\000"
 3048      78556E6C 
 3048      6F636B00 
 3049              	.LASF1:
 3050 021f 7369676E 		.ascii	"signed char\000"
 3050      65642063 
 3050      68617200 
 3051              	.LASF135:
 3052 022b 685F6D74 		.ascii	"h_mtx\000"
ARM GAS  /tmp/cca0JkoX.s 			page 56


 3052      7800
 3053              	.LASF121:
 3054 0231 63665F6F 		.ascii	"cf_off_stklimit\000"
 3054      66665F73 
 3054      746B6C69 
 3054      6D697400 
 3055              	.LASF123:
 3056 0241 63665F6F 		.ascii	"cf_off_flags\000"
 3056      66665F66 
 3056      6C616773 
 3056      00
 3057              	.LASF50:
 3058 024e 705F6D70 		.ascii	"p_mpool\000"
 3058      6F6F6C00 
 3059              	.LASF105:
 3060 0256 6D5F7175 		.ascii	"m_queue\000"
 3060      65756500 
 3061              	.LASF145:
 3062 025e 63684865 		.ascii	"chHeapFree\000"
 3062      61704672 
 3062      656500
 3063              	.LASF83:
 3064 0269 76746C69 		.ascii	"vtlist\000"
 3064      737400
 3065              	.LASF24:
 3066 0270 74736C69 		.ascii	"tslices_t\000"
 3066      6365735F 
 3066      7400
 3067              	.LASF97:
 3068 027a 77747472 		.ascii	"wttrp\000"
 3068      7000
 3069              	.LASF81:
 3070 0280 63685F73 		.ascii	"ch_system\000"
 3070      79737465 
 3070      6D00
 3071              	.LASF9:
 3072 028a 6C6F6E67 		.ascii	"long int\000"
 3072      20696E74 
 3072      00
 3073              	.LASF22:
 3074 0293 74737461 		.ascii	"tstate_t\000"
 3074      74655F74 
 3074      00
 3075              	.LASF131:
 3076 029c 6D656D6F 		.ascii	"memory_heap_t\000"
 3076      72795F68 
 3076      6561705F 
 3076      7400
 3077              	.LASF127:
 3078 02aa 63686465 		.ascii	"chdebug_t\000"
 3078      6275675F 
 3078      7400
 3079              	.LASF35:
 3080 02b4 705F6E65 		.ascii	"p_newer\000"
 3080      77657200 
 3081              	.LASF102:
 3082 02bc 735F7175 		.ascii	"s_queue\000"
ARM GAS  /tmp/cca0JkoX.s 			page 57


 3082      65756500 
 3083              	.LASF63:
 3084 02c4 725F6E65 		.ascii	"r_newer\000"
 3084      77657200 
 3085              	.LASF88:
 3086 02cc 72656761 		.ascii	"regarm_t\000"
 3086      726D5F74 
 3086      00
 3087              	.LASF70:
 3088 02d5 76745F70 		.ascii	"vt_prev\000"
 3088      72657600 
 3089              	.LASF12:
 3090 02dd 6C6F6E67 		.ascii	"long long int\000"
 3090      206C6F6E 
 3090      6720696E 
 3090      7400
 3091              	.LASF148:
 3092 02eb 5F686561 		.ascii	"_heap_init\000"
 3092      705F696E 
 3092      697400
 3093              	.LASF85:
 3094 02f6 69646C65 		.ascii	"idle_thread_wa\000"
 3094      5F746872 
 3094      6561645F 
 3094      776100
 3095              	.LASF28:
 3096 0305 636E745F 		.ascii	"cnt_t\000"
 3096      7400
 3097              	.LASF38:
 3098 030b 705F7374 		.ascii	"p_stklimit\000"
 3098      6B6C696D 
 3098      697400
 3099              	.LASF0:
 3100 0316 756E7369 		.ascii	"unsigned int\000"
 3100      676E6564 
 3100      20696E74 
 3100      00
 3101              	.LASF69:
 3102 0323 76745F6E 		.ascii	"vt_next\000"
 3102      65787400 
 3103              	.LASF16:
 3104 032b 75696E74 		.ascii	"uint16_t\000"
 3104      31365F74 
 3104      00
 3105              	.LASF87:
 3106 0334 53797374 		.ascii	"SystemCoreClock\000"
 3106      656D436F 
 3106      7265436C 
 3106      6F636B00 
 3107              	.LASF43:
 3108 0344 705F7469 		.ascii	"p_time\000"
 3108      6D6500
 3109              	.LASF98:
 3110 034b 77747365 		.ascii	"wtsemp\000"
 3110      6D7000
 3111              	.LASF119:
 3112 0352 63665F6F 		.ascii	"cf_off_older\000"
ARM GAS  /tmp/cca0JkoX.s 			page 58


 3112      66665F6F 
 3112      6C646572 
 3112      00
 3113              	.LASF71:
 3114 035f 76745F64 		.ascii	"vt_delta\000"
 3114      656C7461 
 3114      00
 3115              	.LASF45:
 3116 0368 705F6D73 		.ascii	"p_msgqueue\000"
 3116      67717565 
 3116      756500
 3117              	.LASF128:
 3118 0373 63685F64 		.ascii	"ch_debug\000"
 3118      65627567 
 3118      00
 3119              	.LASF153:
 3120 037c 43686962 		.ascii	"ChibiOS_3.0.5/os/rt/src/chheap.c\000"
 3120      694F535F 
 3120      332E302E 
 3120      352F6F73 
 3120      2F72742F 
 3121              	.LASF103:
 3122 039d 735F636E 		.ascii	"s_cnt\000"
 3122      7400
 3123              	.LASF7:
 3124 03a3 73686F72 		.ascii	"short unsigned int\000"
 3124      7420756E 
 3124      7369676E 
 3124      65642069 
 3124      6E7400
 3125              	.LASF54:
 3126 03b6 63685F74 		.ascii	"ch_thread\000"
 3126      68726561 
 3126      6400
 3127              	.LASF84:
 3128 03c0 6D61696E 		.ascii	"mainthread\000"
 3128      74687265 
 3128      616400
 3129              	.LASF26:
 3130 03cb 6D73675F 		.ascii	"msg_t\000"
 3130      7400
 3131              	.LASF80:
 3132 03d1 63685F73 		.ascii	"ch_system_t\000"
 3132      79737465 
 3132      6D5F7400 
 3133              	.LASF126:
 3134 03dd 63665F6F 		.ascii	"cf_off_time\000"
 3134      66665F74 
 3134      696D6500 
 3135              	.LASF59:
 3136 03e9 63685F72 		.ascii	"ch_ready_list\000"
 3136      65616479 
 3136      5F6C6973 
 3136      7400
 3137              	.LASF27:
 3138 03f7 6576656E 		.ascii	"eventmask_t\000"
 3138      746D6173 
ARM GAS  /tmp/cca0JkoX.s 			page 59


 3138      6B5F7400 
 3139              	.LASF8:
 3140 0403 5F5F696E 		.ascii	"__int32_t\000"
 3140      7433325F 
 3140      7400
 3141              	.LASF89:
 3142 040d 73746B61 		.ascii	"stkalign_t\000"
 3142      6C69676E 
 3142      5F7400
 3143              	.LASF146:
 3144 0418 63684865 		.ascii	"chHeapObjectInit\000"
 3144      61704F62 
 3144      6A656374 
 3144      496E6974 
 3144      00
 3145              	.LASF110:
 3146 0429 63685F7A 		.ascii	"ch_zero\000"
 3146      65726F00 
 3147              	.LASF124:
 3148 0431 63665F6F 		.ascii	"cf_off_refs\000"
 3148      66665F72 
 3148      65667300 
 3149              	.LASF44:
 3150 043d 705F7761 		.ascii	"p_waiting\000"
 3150      6974696E 
 3150      6700
 3151              	.LASF20:
 3152 0447 7274636E 		.ascii	"rtcnt_t\000"
 3152      745F7400 
 3153              	.LASF75:
 3154 044f 63685F76 		.ascii	"ch_virtual_timers_list\000"
 3154      69727475 
 3154      616C5F74 
 3154      696D6572 
 3154      735F6C69 
 3155              	.LASF114:
 3156 0466 63685F74 		.ascii	"ch_timesize\000"
 3156      696D6573 
 3156      697A6500 
 3157              	.LASF120:
 3158 0472 63665F6F 		.ascii	"cf_off_name\000"
 3158      66665F6E 
 3158      616D6500 
 3159              	.LASF149:
 3160 047e 63684D74 		.ascii	"chMtxLock\000"
 3160      784C6F63 
 3160      6B00
 3161              	.LASF36:
 3162 0488 705F6F6C 		.ascii	"p_older\000"
 3162      64657200 
 3163              	.LASF62:
 3164 0490 725F6374 		.ascii	"r_ctx\000"
 3164      7800
 3165              	.LASF34:
 3166 0496 705F6374 		.ascii	"p_ctx\000"
 3166      7800
 3167              	.LASF93:
ARM GAS  /tmp/cca0JkoX.s 			page 60


 3168 049c 746D5F63 		.ascii	"tm_calibration_t\000"
 3168      616C6962 
 3168      72617469 
 3168      6F6E5F74 
 3168      00
 3169              	.LASF65:
 3170 04ad 725F6375 		.ascii	"r_current\000"
 3170      7272656E 
 3170      7400
 3171              	.LASF64:
 3172 04b7 725F6F6C 		.ascii	"r_older\000"
 3172      64657200 
 3173              	.LASF13:
 3174 04bf 5F5F7569 		.ascii	"__uint64_t\000"
 3174      6E743634 
 3174      5F7400
 3175              	.LASF23:
 3176 04ca 74726566 		.ascii	"trefs_t\000"
 3176      735F7400 
 3177              	.LASF113:
 3178 04d2 63685F70 		.ascii	"ch_ptrsize\000"
 3178      74727369 
 3178      7A6500
 3179              	.LASF67:
 3180 04dd 76697274 		.ascii	"virtual_timer_t\000"
 3180      75616C5F 
 3180      74696D65 
 3180      725F7400 
 3181              	.LASF32:
 3182 04ed 705F7072 		.ascii	"p_prev\000"
 3182      657600
 3183              	.LASF25:
 3184 04f4 74707269 		.ascii	"tprio_t\000"
 3184      6F5F7400 
 3185              	.LASF151:
 3186 04fc 63684D74 		.ascii	"chMtxObjectInit\000"
 3186      784F626A 
 3186      65637449 
 3186      6E697400 
 3187              	.LASF78:
 3188 050c 63685F73 		.ascii	"ch_system_debug\000"
 3188      79737465 
 3188      6D5F6465 
 3188      62756700 
 3189              	.LASF17:
 3190 051c 696E7433 		.ascii	"int32_t\000"
 3190      325F7400 
 3191              	.LASF4:
 3192 0524 756E7369 		.ascii	"unsigned char\000"
 3192      676E6564 
 3192      20636861 
 3192      7200
 3193              	.LASF155:
 3194 0532 68656170 		.ascii	"heap_header\000"
 3194      5F686561 
 3194      64657200 
 3195              	.LASF48:
ARM GAS  /tmp/cca0JkoX.s 			page 61


 3196 053e 705F6D74 		.ascii	"p_mtxlist\000"
 3196      786C6973 
 3196      7400
 3197              	.LASF5:
 3198 0548 73686F72 		.ascii	"short int\000"
 3198      7420696E 
 3198      7400
 3199              	.LASF39:
 3200 0552 705F7374 		.ascii	"p_state\000"
 3200      61746500 
 3201              	.LASF42:
 3202 055a 705F7072 		.ascii	"p_preempt\000"
 3202      65656D70 
 3202      7400
 3203              	.LASF61:
 3204 0564 725F7072 		.ascii	"r_prio\000"
 3204      696F00
 3205              	.LASF100:
 3206 056b 65776D61 		.ascii	"ewmask\000"
 3206      736B00
 3207              	.LASF31:
 3208 0572 705F6E65 		.ascii	"p_next\000"
 3208      787400
 3209              	.LASF21:
 3210 0579 746D6F64 		.ascii	"tmode_t\000"
 3210      655F7400 
 3211              	.LASF125:
 3212 0581 63665F6F 		.ascii	"cf_off_preempt\000"
 3212      66665F70 
 3212      7265656D 
 3212      707400
 3213              	.LASF40:
 3214 0590 705F666C 		.ascii	"p_flags\000"
 3214      61677300 
 3215              	.LASF147:
 3216 0598 5F5F6675 		.ascii	"__func__\000"
 3216      6E635F5F 
 3216      00
 3217              	.LASF56:
 3218 05a1 74687265 		.ascii	"threads_queue_t\000"
 3218      6164735F 
 3218      71756575 
 3218      655F7400 
 3219              	.LASF144:
 3220 05b1 63684865 		.ascii	"chHeapAlloc\000"
 3220      6170416C 
 3220      6C6F6300 
 3221              	.LASF118:
 3222 05bd 63665F6F 		.ascii	"cf_off_newer\000"
 3222      66665F6E 
 3222      65776572 
 3222      00
 3223              	.LASF101:
 3224 05ca 63685F73 		.ascii	"ch_semaphore\000"
 3224      656D6170 
 3224      686F7265 
 3224      00
ARM GAS  /tmp/cca0JkoX.s 			page 62


 3225              	.LASF47:
 3226 05d7 705F6570 		.ascii	"p_epending\000"
 3226      656E6469 
 3226      6E6700
 3227              	.LASF154:
 3228 05e2 2F626C64 		.ascii	"/bldc\000"
 3228      6300
 3229              	.LASF18:
 3230 05e8 75696E74 		.ascii	"uint32_t\000"
 3230      33325F74 
 3230      00
 3231              	.LASF116:
 3232 05f1 63665F6F 		.ascii	"cf_off_prio\000"
 3232      66665F70 
 3232      72696F00 
 3233              	.LASF60:
 3234 05fd 725F7175 		.ascii	"r_queue\000"
 3234      65756500 
 3235              	.LASF55:
 3236 0605 63685F74 		.ascii	"ch_threads_list\000"
 3236      68726561 
 3236      64735F6C 
 3236      69737400 
 3237              	.LASF111:
 3238 0615 63685F73 		.ascii	"ch_size\000"
 3238      697A6500 
 3239              	.LASF137:
 3240 061d 68656170 		.ascii	"heap\000"
 3240      00
 3241              	.LASF11:
 3242 0622 6C6F6E67 		.ascii	"long unsigned int\000"
 3242      20756E73 
 3242      69676E65 
 3242      6420696E 
 3242      7400
 3243              	.LASF142:
 3244 0634 64656661 		.ascii	"default_heap\000"
 3244      756C745F 
 3244      68656170 
 3244      00
 3245              	.LASF108:
 3246 0641 63686172 		.ascii	"char\000"
 3246      00
 3247              	.LASF99:
 3248 0646 77746D74 		.ascii	"wtmtxp\000"
 3248      787000
 3249              	.LASF46:
 3250 064d 705F6D73 		.ascii	"p_msg\000"
 3250      6700
 3251              	.LASF6:
 3252 0653 5F5F7569 		.ascii	"__uint16_t\000"
 3252      6E743136 
 3252      5F7400
 3253              	.LASF30:
 3254 065e 74687265 		.ascii	"thread_t\000"
 3254      61645F74 
 3254      00
ARM GAS  /tmp/cca0JkoX.s 			page 63


 3255              	.LASF143:
 3256 0667 63684865 		.ascii	"chHeapStatus\000"
 3256      61705374 
 3256      61747573 
 3256      00
 3257              	.LASF107:
 3258 0674 6D5F6E65 		.ascii	"m_next\000"
 3258      787400
 3259              	.LASF29:
 3260 067b 73797374 		.ascii	"systime_t\000"
 3260      696D655F 
 3260      7400
 3261              	.LASF49:
 3262 0685 705F7265 		.ascii	"p_realprio\000"
 3262      616C7072 
 3262      696F00
 3263              	.LASF66:
 3264 0690 76746675 		.ascii	"vtfunc_t\000"
 3264      6E635F74 
 3264      00
 3265              	.LASF10:
 3266 0699 5F5F7569 		.ascii	"__uint32_t\000"
 3266      6E743332 
 3266      5F7400
 3267              	.LASF79:
 3268 06a4 70616E69 		.ascii	"panic_msg\000"
 3268      635F6D73 
 3268      6700
 3269              	.LASF92:
 3270 06ae 6F666673 		.ascii	"offset\000"
 3270      657400
 3271              	.LASF90:
 3272 06b5 636F6E74 		.ascii	"context\000"
 3272      65787400 
 3273              	.LASF68:
 3274 06bd 63685F76 		.ascii	"ch_virtual_timer\000"
 3274      69727475 
 3274      616C5F74 
 3274      696D6572 
 3274      00
 3275              	.LASF73:
 3276 06ce 76745F70 		.ascii	"vt_par\000"
 3276      617200
 3277              	.LASF117:
 3278 06d5 63665F6F 		.ascii	"cf_off_ctx\000"
 3278      66665F63 
 3278      747800
 3279              	.LASF104:
 3280 06e0 63685F6D 		.ascii	"ch_mutex\000"
 3280      75746578 
 3280      00
 3281              	.LASF41:
 3282 06e9 705F7265 		.ascii	"p_refs\000"
 3282      667300
 3283              	.LASF51:
 3284 06f0 6D6F746F 		.ascii	"motor_selected\000"
 3284      725F7365 
ARM GAS  /tmp/cca0JkoX.s 			page 64


 3284      6C656374 
 3284      656400
 3285              	.LASF82:
 3286 06ff 726C6973 		.ascii	"rlist\000"
 3286      7400
 3287              	.LASF15:
 3288 0705 75696E74 		.ascii	"uint8_t\000"
 3288      385F7400 
 3289              	.LASF133:
 3290 070d 685F7072 		.ascii	"h_provider\000"
 3290      6F766964 
 3290      657200
 3291              	.LASF52:
 3292 0718 74687265 		.ascii	"thread_reference_t\000"
 3292      61645F72 
 3292      65666572 
 3292      656E6365 
 3292      5F7400
 3293              	.LASF96:
 3294 072b 77746F62 		.ascii	"wtobjp\000"
 3294      6A7000
 3295              	.LASF141:
 3296 0732 73697A65 		.ascii	"sizep\000"
 3296      7000
 3297              	.LASF37:
 3298 0738 705F6E61 		.ascii	"p_name\000"
 3298      6D6500
 3299              	.LASF139:
 3300 073f 73697A65 		.ascii	"size\000"
 3300      00
 3301              	.LASF53:
 3302 0744 74687265 		.ascii	"threads_list_t\000"
 3302      6164735F 
 3302      6C697374 
 3302      5F7400
 3303              	.LASF112:
 3304 0753 63685F76 		.ascii	"ch_version\000"
 3304      65727369 
 3304      6F6E00
 3305              	.LASF129:
 3306 075e 6D757465 		.ascii	"mutex_t\000"
 3306      785F7400 
 3307              	.LASF106:
 3308 0766 6D5F6F77 		.ascii	"m_owner\000"
 3308      6E657200 
 3309              	.LASF109:
 3310 076e 63685F69 		.ascii	"ch_identifier\000"
 3310      64656E74 
 3310      69666965 
 3310      7200
 3311              	.LASF72:
 3312 077c 76745F66 		.ascii	"vt_func\000"
 3312      756E6300 
 3313              	.LASF132:
 3314 0784 6D656D6F 		.ascii	"memory_heap\000"
 3314      72795F68 
 3314      65617000 
ARM GAS  /tmp/cca0JkoX.s 			page 65


 3315              		.ident	"GCC: (GNU Tools for Arm Embedded Processors 7-2018-q3-update) 7.3.1 20180622 (release) [AR
ARM GAS  /tmp/cca0JkoX.s 			page 66


DEFINED SYMBOLS
                            *ABS*:0000000000000000 chheap.c
     /tmp/cca0JkoX.s:18     .text._heap_init:0000000000000000 $t
     /tmp/cca0JkoX.s:26     .text._heap_init:0000000000000000 _heap_init
     /tmp/cca0JkoX.s:50     .text._heap_init:0000000000000014 $d
     /tmp/cca0JkoX.s:56     .text.chHeapObjectInit:0000000000000000 $t
     /tmp/cca0JkoX.s:64     .text.chHeapObjectInit:0000000000000000 chHeapObjectInit
     /tmp/cca0JkoX.s:95     .text.chHeapAlloc:0000000000000000 $t
     /tmp/cca0JkoX.s:103    .text.chHeapAlloc:0000000000000000 chHeapAlloc
     /tmp/cca0JkoX.s:230    .text.chHeapAlloc:0000000000000084 $d
     /tmp/cca0JkoX.s:235    .text.chHeapFree:0000000000000000 $t
     /tmp/cca0JkoX.s:243    .text.chHeapFree:0000000000000000 chHeapFree
     /tmp/cca0JkoX.s:379    .text.chHeapStatus:0000000000000000 $t
     /tmp/cca0JkoX.s:387    .text.chHeapStatus:0000000000000000 chHeapStatus
     /tmp/cca0JkoX.s:459    .text.chHeapStatus:0000000000000040 $d
     /tmp/cca0JkoX.s:464    .bss.default_heap:0000000000000000 $d
     /tmp/cca0JkoX.s:468    .bss.default_heap:0000000000000000 default_heap

UNDEFINED SYMBOLS
chMtxObjectInit
chCoreAlloc
chMtxLock
chMtxUnlock
