ARM GAS  /tmp/cca0JkoX.s 			page 1


   1              		.cpu cortex-m4
   2              		.eabi_attribute 27, 1
   3              		.eabi_attribute 28, 1
   4              		.eabi_attribute 20, 1
   5              		.eabi_attribute 21, 1
   6              		.eabi_attribute 23, 3
   7              		.eabi_attribute 24, 1
   8              		.eabi_attribute 25, 1
   9              		.eabi_attribute 26, 1
  10              		.eabi_attribute 30, 2
  11              		.eabi_attribute 34, 1
  12              		.eabi_attribute 18, 4
  13              		.file	"chheap.c"
  14              		.text
  15              	.Ltext0:
  16              		.cfi_sections	.debug_frame
  17              		.section	.text._heap_init,"ax",%progbits
  18              		.align	1
  19              		.p2align 4,,15
  20              		.global	_heap_init
  21              		.syntax unified
  22              		.thumb
  23              		.thumb_func
  24              		.fpu fpv4-sp-d16
  25              		.type	_heap_init, %function
  26              	_heap_init:
  27              	.LFB219:
  28              		.file 1 "ChibiOS_3.0.5/os/rt/src/chheap.c"
  29              		.loc 1 91 0
  30              		.cfi_startproc
  31              		@ args = 0, pretend = 0, frame = 0
  32              		@ frame_needed = 0, uses_anonymous_args = 0
  33              		@ link register save eliminated.
  34              		.loc 1 93 0
  35 0000 044B     		ldr	r3, .L3
  36 0002 054A     		ldr	r2, .L3+4
  37 0004 1A60     		str	r2, [r3]
  38              		.loc 1 97 0
  39 0006 03F11000 		add	r0, r3, #16
  40              		.loc 1 94 0
  41 000a 0022     		movs	r2, #0
  42              		.loc 1 95 0
  43 000c C3E90222 		strd	r2, r2, [r3, #8]
  44              		.loc 1 97 0
  45 0010 FFF7FEBF 		b	chMtxObjectInit
  46              	.LVL0:
  47              	.L4:
  48              		.align	2
  49              	.L3:
  50 0014 00000000 		.word	.LANCHOR0
  51 0018 00000000 		.word	chCoreAlloc
  52              		.cfi_endproc
  53              	.LFE219:
  54              		.size	_heap_init, .-_heap_init
  55              		.section	.text.chHeapObjectInit,"ax",%progbits
  56              		.align	1
  57              		.p2align 4,,15
ARM GAS  /tmp/cca0JkoX.s 			page 2


  58              		.global	chHeapObjectInit
  59              		.syntax unified
  60              		.thumb
  61              		.thumb_func
  62              		.fpu fpv4-sp-d16
  63              		.type	chHeapObjectInit, %function
  64              	chHeapObjectInit:
  65              	.LFB220:
  66              		.loc 1 114 0
  67              		.cfi_startproc
  68              		@ args = 0, pretend = 0, frame = 0
  69              		@ frame_needed = 0, uses_anonymous_args = 0
  70              		@ link register save eliminated.
  71              	.LVL1:
  72              		.loc 1 119 0
  73 0000 0023     		movs	r3, #0
  74              		.loc 1 123 0
  75 0002 083A     		subs	r2, r2, #8
  76              	.LVL2:
  77              		.loc 1 120 0
  78 0004 8160     		str	r1, [r0, #8]
  79              		.loc 1 119 0
  80 0006 0360     		str	r3, [r0]
  81              		.loc 1 121 0
  82 0008 C360     		str	r3, [r0, #12]
  83              		.loc 1 125 0
  84 000a 1030     		adds	r0, r0, #16
  85              	.LVL3:
  86              		.loc 1 122 0
  87 000c C1E90032 		strd	r3, r2, [r1]
  88              		.loc 1 125 0
  89 0010 FFF7FEBF 		b	chMtxObjectInit
  90              	.LVL4:
  91              		.cfi_endproc
  92              	.LFE220:
  93              		.size	chHeapObjectInit, .-chHeapObjectInit
  94              		.section	.text.chHeapAlloc,"ax",%progbits
  95              		.align	1
  96              		.p2align 4,,15
  97              		.global	chHeapAlloc
  98              		.syntax unified
  99              		.thumb
 100              		.thumb_func
 101              		.fpu fpv4-sp-d16
 102              		.type	chHeapAlloc, %function
 103              	chHeapAlloc:
 104              	.LFB221:
 105              		.loc 1 147 0
 106              		.cfi_startproc
 107              		@ args = 0, pretend = 0, frame = 0
 108              		@ frame_needed = 0, uses_anonymous_args = 0
 109              	.LVL5:
 110 0000 F8B5     		push	{r3, r4, r5, r6, r7, lr}
 111              		.cfi_def_cfa_offset 24
 112              		.cfi_offset 3, -24
 113              		.cfi_offset 4, -20
 114              		.cfi_offset 5, -16
ARM GAS  /tmp/cca0JkoX.s 			page 3


 115              		.cfi_offset 6, -12
 116              		.cfi_offset 7, -8
 117              		.cfi_offset 14, -4
 118              		.loc 1 151 0
 119 0002 204E     		ldr	r6, .L22
 120 0004 0028     		cmp	r0, #0
 121 0006 18BF     		it	ne
 122 0008 0646     		movne	r6, r0
 123              	.LVL6:
 124              		.loc 1 157 0
 125 000a 06F11007 		add	r7, r6, #16
 126              		.loc 1 154 0
 127 000e 0731     		adds	r1, r1, #7
 128              	.LVL7:
 129              		.loc 1 157 0
 130 0010 3846     		mov	r0, r7
 131              		.loc 1 154 0
 132 0012 21F00705 		bic	r5, r1, #7
 133              	.LVL8:
 134              		.loc 1 155 0
 135 0016 06F10804 		add	r4, r6, #8
 136              	.LVL9:
 137              		.loc 1 157 0
 138 001a FFF7FEFF 		bl	chMtxLock
 139              	.LVL10:
 140              		.loc 1 158 0
 141 001e 03E0     		b	.L8
 142              	.LVL11:
 143              	.L12:
 144              		.loc 1 160 0
 145 0020 4368     		ldr	r3, [r0, #4]
 146 0022 AB42     		cmp	r3, r5
 147 0024 12D2     		bcs	.L21
 148 0026 0446     		mov	r4, r0
 149              	.LVL12:
 150              	.L8:
 151              		.loc 1 158 0
 152 0028 2068     		ldr	r0, [r4]
 153              	.LVL13:
 154 002a 0028     		cmp	r0, #0
 155 002c F8D1     		bne	.L12
 156              		.loc 1 186 0
 157 002e 3846     		mov	r0, r7
 158              	.LVL14:
 159 0030 FFF7FEFF 		bl	chMtxUnlock
 160              	.LVL15:
 161              		.loc 1 190 0
 162 0034 3368     		ldr	r3, [r6]
 163 0036 13B3     		cbz	r3, .L14
 164              		.loc 1 191 0
 165 0038 05F10800 		add	r0, r5, #8
 166 003c 9847     		blx	r3
 167              	.LVL16:
 168              		.loc 1 192 0
 169 003e F0B1     		cbz	r0, .L14
 170              		.loc 1 194 0
 171 0040 C0E90065 		strd	r6, r5, [r0]
ARM GAS  /tmp/cca0JkoX.s 			page 4


 172              		.loc 1 195 0
 173 0044 00F10804 		add	r4, r0, #8
 174              	.LVL17:
 175              	.L6:
 176              		.loc 1 204 0
 177 0048 2046     		mov	r0, r4
 178 004a F8BD     		pop	{r3, r4, r5, r6, r7, pc}
 179              	.LVL18:
 180              	.L21:
 181              		.loc 1 161 0
 182 004c 05F10802 		add	r2, r5, #8
 183 0050 9342     		cmp	r3, r2
 184 0052 0168     		ldr	r1, [r0]
 185 0054 08D2     		bcs	.L9
 186              		.loc 1 165 0
 187 0056 2160     		str	r1, [r4]
 188              	.L10:
 189              		.loc 1 177 0
 190 0058 0446     		mov	r4, r0
 191              	.LVL19:
 192              		.loc 1 178 0
 193 005a 3846     		mov	r0, r7
 194              	.LVL20:
 195              		.loc 1 177 0
 196 005c 44F8086B 		str	r6, [r4], #8
 197              	.LVL21:
 198              		.loc 1 178 0
 199 0060 FFF7FEFF 		bl	chMtxUnlock
 200              	.LVL22:
 201              		.loc 1 204 0
 202 0064 2046     		mov	r0, r4
 203 0066 F8BD     		pop	{r3, r4, r5, r6, r7, pc}
 204              	.LVL23:
 205              	.L9:
 206              		.loc 1 170 0
 207 0068 00EB020C 		add	ip, r0, r2
 208              	.LVL24:
 209              		.loc 1 173 0
 210 006c 5B1B     		subs	r3, r3, r5
 211 006e 083B     		subs	r3, r3, #8
 212              		.loc 1 172 0
 213 0070 8150     		str	r1, [r0, r2]
 214              		.loc 1 173 0
 215 0072 CCF80430 		str	r3, [ip, #4]
 216              		.loc 1 174 0
 217 0076 C4F800C0 		str	ip, [r4]
 218              		.loc 1 175 0
 219 007a 4560     		str	r5, [r0, #4]
 220 007c ECE7     		b	.L10
 221              	.LVL25:
 222              	.L14:
 223              		.loc 1 203 0
 224 007e 0024     		movs	r4, #0
 225              	.LVL26:
 226 0080 E2E7     		b	.L6
 227              	.L23:
 228 0082 00BF     		.align	2
ARM GAS  /tmp/cca0JkoX.s 			page 5


 229              	.L22:
 230 0084 00000000 		.word	.LANCHOR0
 231              		.cfi_endproc
 232              	.LFE221:
 233              		.size	chHeapAlloc, .-chHeapAlloc
 234              		.section	.text.chHeapFree,"ax",%progbits
 235              		.align	1
 236              		.p2align 4,,15
 237              		.global	chHeapFree
 238              		.syntax unified
 239              		.thumb
 240              		.thumb_func
 241              		.fpu fpv4-sp-d16
 242              		.type	chHeapFree, %function
 243              	chHeapFree:
 244              	.LFB222:
 245              		.loc 1 213 0
 246              		.cfi_startproc
 247              		@ args = 0, pretend = 0, frame = 0
 248              		@ frame_needed = 0, uses_anonymous_args = 0
 249              	.LVL27:
 250 0000 F8B5     		push	{r3, r4, r5, r6, r7, lr}
 251              		.cfi_def_cfa_offset 24
 252              		.cfi_offset 3, -24
 253              		.cfi_offset 4, -20
 254              		.cfi_offset 5, -16
 255              		.cfi_offset 6, -12
 256              		.cfi_offset 7, -8
 257              		.cfi_offset 14, -4
 258              		.loc 1 222 0
 259 0002 50F8085C 		ldr	r5, [r0, #-8]
 260              		.loc 1 225 0
 261 0006 05F11007 		add	r7, r5, #16
 262              		.loc 1 213 0
 263 000a 0646     		mov	r6, r0
 264              		.loc 1 220 0
 265 000c A0F10804 		sub	r4, r0, #8
 266              	.LVL28:
 267              		.loc 1 223 0
 268 0010 0835     		adds	r5, r5, #8
 269              	.LVL29:
 270              		.loc 1 225 0
 271 0012 3846     		mov	r0, r7
 272              	.LVL30:
 273 0014 FFF7FEFF 		bl	chMtxLock
 274              	.LVL31:
 275              		.loc 1 223 0
 276 0018 2B46     		mov	r3, r5
 277              	.LVL32:
 278              	.L25:
 279              		.loc 1 229 0
 280 001a AB42     		cmp	r3, r5
 281 001c 1A68     		ldr	r2, [r3]
 282 001e 01D0     		beq	.L26
 283              		.loc 1 229 0 is_stmt 0 discriminator 2
 284 0020 A342     		cmp	r3, r4
 285 0022 02D2     		bcs	.L27
ARM GAS  /tmp/cca0JkoX.s 			page 6


 286              	.L26:
 287              		.loc 1 229 0 discriminator 3
 288 0024 1AB1     		cbz	r2, .L28
 289              		.loc 1 230 0 is_stmt 1
 290 0026 9442     		cmp	r4, r2
 291 0028 01D3     		bcc	.L28
 292              	.L27:
 293              		.loc 1 213 0
 294 002a 1346     		mov	r3, r2
 295              	.LVL33:
 296 002c F5E7     		b	.L25
 297              	.LVL34:
 298              	.L28:
 299              		.loc 1 232 0
 300 002e 46F8082C 		str	r2, [r6, #-8]
 301              		.loc 1 235 0
 302 0032 56F8042C 		ldr	r2, [r6, #-4]
 303              		.loc 1 233 0
 304 0036 1C60     		str	r4, [r3]
 305              		.loc 1 235 0
 306 0038 56F8080C 		ldr	r0, [r6, #-8]
 307 003c B118     		adds	r1, r6, r2
 308 003e 8142     		cmp	r1, r0
 309 0040 0AD0     		beq	.L35
 310              		.loc 1 240 0
 311 0042 5968     		ldr	r1, [r3, #4]
 312 0044 01F10802 		add	r2, r1, #8
 313 0048 1A44     		add	r2, r2, r3
 314 004a 9442     		cmp	r4, r2
 315 004c 12D0     		beq	.L36
 316              	.L30:
 317              		.loc 1 249 0
 318 004e 3846     		mov	r0, r7
 319              		.loc 1 252 0
 320 0050 BDE8F840 		pop	{r3, r4, r5, r6, r7, lr}
 321              		.cfi_remember_state
 322              		.cfi_restore 14
 323              		.cfi_restore 7
 324              		.cfi_restore 6
 325              		.cfi_restore 5
 326              		.cfi_restore 4
 327              		.cfi_restore 3
 328              		.cfi_def_cfa_offset 0
 329              	.LVL35:
 330              		.loc 1 249 0
 331 0054 FFF7FEBF 		b	chMtxUnlock
 332              	.LVL36:
 333              	.L35:
 334              		.cfi_restore_state
 335              		.loc 1 237 0
 336 0058 4968     		ldr	r1, [r1, #4]
 337              		.loc 1 238 0
 338 005a B058     		ldr	r0, [r6, r2]
 339 005c 46F8080C 		str	r0, [r6, #-8]
 340              		.loc 1 237 0
 341 0060 0832     		adds	r2, r2, #8
 342 0062 0A44     		add	r2, r2, r1
ARM GAS  /tmp/cca0JkoX.s 			page 7


 343 0064 46F8042C 		str	r2, [r6, #-4]
 344              		.loc 1 240 0
 345 0068 5968     		ldr	r1, [r3, #4]
 346 006a 01F10802 		add	r2, r1, #8
 347 006e 1A44     		add	r2, r2, r3
 348 0070 9442     		cmp	r4, r2
 349 0072 ECD1     		bne	.L30
 350              	.L36:
 351              		.loc 1 243 0
 352 0074 56E90202 		ldrd	r0, r2, [r6, #-8]
 353              		.loc 1 242 0
 354 0078 0832     		adds	r2, r2, #8
 355 007a 1144     		add	r1, r1, r2
 356              		.loc 1 243 0
 357 007c 1860     		str	r0, [r3]
 358              		.loc 1 242 0
 359 007e 5960     		str	r1, [r3, #4]
 360              		.loc 1 249 0
 361 0080 3846     		mov	r0, r7
 362              		.loc 1 252 0
 363 0082 BDE8F840 		pop	{r3, r4, r5, r6, r7, lr}
 364              		.cfi_restore 14
 365              		.cfi_restore 7
 366              		.cfi_restore 6
 367              		.cfi_restore 5
 368              		.cfi_restore 4
 369              		.cfi_restore 3
 370              		.cfi_def_cfa_offset 0
 371              	.LVL37:
 372              		.loc 1 249 0
 373 0086 FFF7FEBF 		b	chMtxUnlock
 374              	.LVL38:
 375              		.cfi_endproc
 376              	.LFE222:
 377              		.size	chHeapFree, .-chHeapFree
 378 008a 00BF     		.section	.text.chHeapStatus,"ax",%progbits
 379              		.align	1
 380              		.p2align 4,,15
 381              		.global	chHeapStatus
 382              		.syntax unified
 383              		.thumb
 384              		.thumb_func
 385              		.fpu fpv4-sp-d16
 386              		.type	chHeapStatus, %function
 387              	chHeapStatus:
 388              	.LFB223:
 389              		.loc 1 267 0
 390              		.cfi_startproc
 391              		@ args = 0, pretend = 0, frame = 0
 392              		@ frame_needed = 0, uses_anonymous_args = 0
 393              	.LVL39:
 394 0000 70B5     		push	{r4, r5, r6, lr}
 395              		.cfi_def_cfa_offset 16
 396              		.cfi_offset 4, -16
 397              		.cfi_offset 5, -12
 398              		.cfi_offset 6, -8
 399              		.cfi_offset 14, -4
ARM GAS  /tmp/cca0JkoX.s 			page 8


 400              		.loc 1 272 0
 401 0002 0F4C     		ldr	r4, .L48
 402 0004 0028     		cmp	r0, #0
 403 0006 18BF     		it	ne
 404 0008 0446     		movne	r4, r0
 405              	.LVL40:
 406              		.loc 1 275 0
 407 000a 04F11005 		add	r5, r4, #16
 408 000e 2846     		mov	r0, r5
 409              		.loc 1 267 0
 410 0010 0E46     		mov	r6, r1
 411              		.loc 1 275 0
 412 0012 FFF7FEFF 		bl	chMtxLock
 413              	.LVL41:
 414              		.loc 1 279 0
 415 0016 A368     		ldr	r3, [r4, #8]
 416 0018 73B1     		cbz	r3, .L42
 417              		.loc 1 276 0
 418 001a 0022     		movs	r2, #0
 419              		.loc 1 277 0
 420 001c 1446     		mov	r4, r2
 421              	.LVL42:
 422              	.L40:
 423              		.loc 1 279 0
 424 001e D3E90030 		ldrd	r3, r0, [r3]
 425              		.loc 1 281 0
 426 0022 0134     		adds	r4, r4, #1
 427              	.LVL43:
 428              		.loc 1 280 0
 429 0024 0244     		add	r2, r2, r0
 430              	.LVL44:
 431              		.loc 1 279 0
 432 0026 002B     		cmp	r3, #0
 433 0028 F9D1     		bne	.L40
 434              	.LVL45:
 435              	.L39:
 436              		.loc 1 284 0
 437 002a 06B1     		cbz	r6, .L41
 438              		.loc 1 285 0
 439 002c 3260     		str	r2, [r6]
 440              	.L41:
 441              		.loc 1 287 0
 442 002e 2846     		mov	r0, r5
 443 0030 FFF7FEFF 		bl	chMtxUnlock
 444              	.LVL46:
 445              		.loc 1 290 0
 446 0034 2046     		mov	r0, r4
 447 0036 70BD     		pop	{r4, r5, r6, pc}
 448              	.LVL47:
 449              	.L42:
 450              		.loc 1 276 0
 451 0038 1A46     		mov	r2, r3
 452              		.loc 1 277 0
 453 003a 1C46     		mov	r4, r3
 454              	.LVL48:
 455 003c F5E7     		b	.L39
 456              	.L49:
ARM GAS  /tmp/cca0JkoX.s 			page 9


 457 003e 00BF     		.align	2
 458              	.L48:
 459 0040 00000000 		.word	.LANCHOR0
 460              		.cfi_endproc
 461              	.LFE223:
 462              		.size	chHeapStatus, .-chHeapStatus
 463              		.section	.bss.default_heap,"aw",%nobits
 464              		.align	3
 465              		.set	.LANCHOR0,. + 0
 466              		.type	default_heap, %object
 467              		.size	default_heap, 32
 468              	default_heap:
 469 0000 00000000 		.space	32
 469      00000000 
 469      00000000 
 469      00000000 
 469      00000000 
 470              		.text
 471              	.Letext0:
 472              		.file 2 "/usr/lib/gcc/arm-none-eabi/7.3.1/include/stddef.h"
 473              		.file 3 "/usr/arm-none-eabi/include/machine/_default_types.h"
 474              		.file 4 "/usr/arm-none-eabi/include/sys/_stdint.h"
 475              		.file 5 "ChibiOS_3.0.5/os/rt/ports/ARMCMx/compilers/GCC/chtypes.h"
 476              		.file 6 "ChibiOS_3.0.5/os/rt/include/chsystypes.h"
 477              		.file 7 "ChibiOS_3.0.5/os/rt/include/chschd.h"
 478              		.file 8 "ChibiOS_3.0.5/os/ext/CMSIS/include/core_cm4.h"
 479              		.file 9 "ChibiOS_3.0.5/os/ext/CMSIS/ST/system_stm32f4xx.h"
 480              		.file 10 "ChibiOS_3.0.5/os/rt/ports/ARMCMx/chcore.h"
 481              		.file 11 "ChibiOS_3.0.5/os/rt/ports/ARMCMx/chcore_v7m.h"
 482              		.file 12 "ChibiOS_3.0.5/os/rt/include/chtm.h"
 483              		.file 13 "ChibiOS_3.0.5/os/rt/include/chsem.h"
 484              		.file 14 "ChibiOS_3.0.5/os/rt/include/chmtx.h"
 485              		.file 15 "ChibiOS_3.0.5/os/rt/include/chregistry.h"
 486              		.file 16 "ChibiOS_3.0.5/os/rt/include/chmemcore.h"
 487              		.file 17 "ChibiOS_3.0.5/os/rt/include/chheap.h"