ARM GAS  /tmp/ccAzQ4P9.s 			page 1


   1              		.cpu cortex-m4
   2              		.eabi_attribute 27, 1
   3              		.eabi_attribute 28, 1
   4              		.eabi_attribute 20, 1
   5              		.eabi_attribute 21, 1
   6              		.eabi_attribute 23, 3
   7              		.eabi_attribute 24, 1
   8              		.eabi_attribute 25, 1
   9              		.eabi_attribute 26, 1
  10              		.eabi_attribute 30, 2
  11              		.eabi_attribute 34, 1
  12              		.eabi_attribute 18, 4
  13              		.file	"chmempools.c"
  14              		.text
  15              	.Ltext0:
  16              		.cfi_sections	.debug_frame
  17              		.section	.text.chPoolObjectInit,"ax",%progbits
  18              		.align	1
  19              		.p2align 4,,15
  20              		.global	chPoolObjectInit
  21              		.syntax unified
  22              		.thumb
  23              		.thumb_func
  24              		.fpu fpv4-sp-d16
  25              		.type	chPoolObjectInit, %function
  26              	chPoolObjectInit:
  27              	.LFB219:
  28              		.file 1 "ChibiOS_3.0.5/os/rt/src/chmempools.c"
  29              		.loc 1 75 0
  30              		.cfi_startproc
  31              		@ args = 0, pretend = 0, frame = 0
  32              		@ frame_needed = 0, uses_anonymous_args = 0
  33              		@ link register save eliminated.
  34              	.LVL0:
  35              		.loc 1 79 0
  36 0000 0023     		movs	r3, #0
  37              		.loc 1 81 0
  38 0002 C0E90112 		strd	r1, r2, [r0, #4]
  39              		.loc 1 79 0
  40 0006 0360     		str	r3, [r0]
  41              		.loc 1 82 0
  42 0008 7047     		bx	lr
  43              		.cfi_endproc
  44              	.LFE219:
  45              		.size	chPoolObjectInit, .-chPoolObjectInit
  46 000a 00BF     		.section	.text.chPoolLoadArray,"ax",%progbits
  47              		.align	1
  48              		.p2align 4,,15
  49              		.global	chPoolLoadArray
  50              		.syntax unified
  51              		.thumb
  52              		.thumb_func
  53              		.fpu fpv4-sp-d16
  54              		.type	chPoolLoadArray, %function
  55              	chPoolLoadArray:
  56              	.LFB220:
  57              		.loc 1 97 0
ARM GAS  /tmp/ccAzQ4P9.s 			page 2


  58              		.cfi_startproc
  59              		@ args = 0, pretend = 0, frame = 0
  60              		@ frame_needed = 0, uses_anonymous_args = 0
  61              		@ link register save eliminated.
  62              	.LVL1:
  63              		.loc 1 101 0
  64 0000 42B1     		cbz	r2, .L3
  65              	.LVL2:
  66              	.L5:
  67              	.LBB77:
  68              	.LBB78:
  69              	.LBB79:
  70              	.LBB80:
  71              	.LBB81:
  72              	.LBB82:
  73              		.file 2 "ChibiOS_3.0.5/os/ext/CMSIS/include/core_cmFunc.h"
  74              		.loc 2 342 0
  75              		.syntax unified
  76              	@ 342 "ChibiOS_3.0.5/os/ext/CMSIS/include/core_cmFunc.h" 1
  77 0002 72B6     		cpsid i
  78              	@ 0 "" 2
  79              	.LVL3:
  80              		.thumb
  81              		.syntax unified
  82              	.LBE82:
  83              	.LBE81:
  84              	.LBE80:
  85              	.LBE79:
  86              	.LBB83:
  87              	.LBB84:
  88              		.loc 1 177 0
  89 0004 0368     		ldr	r3, [r0]
  90 0006 0B60     		str	r3, [r1]
  91              		.loc 1 178 0
  92 0008 0160     		str	r1, [r0]
  93              	.LVL4:
  94              	.LBE84:
  95              	.LBE83:
  96              	.LBB85:
  97              	.LBB86:
  98              	.LBB87:
  99              	.LBB88:
 100              	.LBB89:
 101              		.loc 2 331 0
 102              		.syntax unified
 103              	@ 331 "ChibiOS_3.0.5/os/ext/CMSIS/include/core_cmFunc.h" 1
 104 000a 62B6     		cpsie i
 105              	@ 0 "" 2
 106              	.LVL5:
 107              		.thumb
 108              		.syntax unified
 109              	.LBE89:
 110              	.LBE88:
 111              	.LBE87:
 112              	.LBE86:
 113              	.LBE85:
 114              	.LBE78:
ARM GAS  /tmp/ccAzQ4P9.s 			page 3


 115              	.LBE77:
 116              		.loc 1 104 0
 117 000c 4368     		ldr	r3, [r0, #4]
 118              		.loc 1 101 0
 119 000e 013A     		subs	r2, r2, #1
 120              	.LVL6:
 121              		.loc 1 104 0
 122 0010 1944     		add	r1, r1, r3
 123              	.LVL7:
 124              		.loc 1 101 0
 125 0012 F6D1     		bne	.L5
 126              	.LVL8:
 127              	.L3:
 128              		.loc 1 108 0
 129 0014 7047     		bx	lr
 130              		.cfi_endproc
 131              	.LFE220:
 132              		.size	chPoolLoadArray, .-chPoolLoadArray
 133 0016 00BF     		.section	.text.chPoolAllocI,"ax",%progbits
 134              		.align	1
 135              		.p2align 4,,15
 136              		.global	chPoolAllocI
 137              		.syntax unified
 138              		.thumb
 139              		.thumb_func
 140              		.fpu fpv4-sp-d16
 141              		.type	chPoolAllocI, %function
 142              	chPoolAllocI:
 143              	.LFB221:
 144              		.loc 1 120 0
 145              		.cfi_startproc
 146              		@ args = 0, pretend = 0, frame = 0
 147              		@ frame_needed = 0, uses_anonymous_args = 0
 148              		@ link register save eliminated.
 149              	.LVL9:
 150              		.loc 1 126 0
 151 0000 0368     		ldr	r3, [r0]
 152              	.LVL10:
 153              		.loc 1 128 0
 154 0002 1BB1     		cbz	r3, .L11
 155              		.loc 1 129 0
 156 0004 1A68     		ldr	r2, [r3]
 157 0006 0260     		str	r2, [r0]
 158              	.L10:
 159              		.loc 1 137 0
 160 0008 1846     		mov	r0, r3
 161              	.LVL11:
 162 000a 7047     		bx	lr
 163              	.LVL12:
 164              	.L11:
 165              	.LBB92:
 166              	.LBB93:
 167              		.loc 1 131 0
 168 000c 8268     		ldr	r2, [r0, #8]
 169 000e 002A     		cmp	r2, #0
 170 0010 FAD0     		beq	.L10
 171              		.loc 1 132 0
ARM GAS  /tmp/ccAzQ4P9.s 			page 4


 172 0012 4068     		ldr	r0, [r0, #4]
 173              	.LVL13:
 174 0014 1047     		bx	r2
 175              	.LVL14:
 176              	.LBE93:
 177              	.LBE92:
 178              		.cfi_endproc
 179              	.LFE221:
 180              		.size	chPoolAllocI, .-chPoolAllocI
 181 0016 00BF     		.section	.text.chPoolAlloc,"ax",%progbits
 182              		.align	1
 183              		.p2align 4,,15
 184              		.global	chPoolAlloc
 185              		.syntax unified
 186              		.thumb
 187              		.thumb_func
 188              		.fpu fpv4-sp-d16
 189              		.type	chPoolAlloc, %function
 190              	chPoolAlloc:
 191              	.LFB222:
 192              		.loc 1 149 0
 193              		.cfi_startproc
 194              		@ args = 0, pretend = 0, frame = 0
 195              		@ frame_needed = 0, uses_anonymous_args = 0
 196              	.LVL15:
 197 0000 08B5     		push	{r3, lr}
 198              		.cfi_def_cfa_offset 8
 199              		.cfi_offset 3, -8
 200              		.cfi_offset 14, -4
 201              		.loc 1 149 0
 202 0002 0346     		mov	r3, r0
 203              	.LBB107:
 204              	.LBB108:
 205              	.LBB109:
 206              	.LBB110:
 207              		.loc 2 342 0
 208              		.syntax unified
 209              	@ 342 "ChibiOS_3.0.5/os/ext/CMSIS/include/core_cmFunc.h" 1
 210 0004 72B6     		cpsid i
 211              	@ 0 "" 2
 212              	.LVL16:
 213              		.thumb
 214              		.syntax unified
 215              	.LBE110:
 216              	.LBE109:
 217              	.LBE108:
 218              	.LBE107:
 219              	.LBB111:
 220              	.LBB112:
 221              		.loc 1 126 0
 222 0006 0068     		ldr	r0, [r0]
 223              	.LVL17:
 224              		.loc 1 128 0
 225 0008 18B1     		cbz	r0, .L17
 226              		.loc 1 129 0
 227 000a 0268     		ldr	r2, [r0]
 228 000c 1A60     		str	r2, [r3]
ARM GAS  /tmp/ccAzQ4P9.s 			page 5


 229              	.L18:
 230              	.LVL18:
 231              	.LBE112:
 232              	.LBE111:
 233              	.LBB116:
 234              	.LBB117:
 235              	.LBB118:
 236              	.LBB119:
 237              	.LBB120:
 238              		.loc 2 331 0
 239              		.syntax unified
 240              	@ 331 "ChibiOS_3.0.5/os/ext/CMSIS/include/core_cmFunc.h" 1
 241 000e 62B6     		cpsie i
 242              	@ 0 "" 2
 243              		.thumb
 244              		.syntax unified
 245              	.LBE120:
 246              	.LBE119:
 247              	.LBE118:
 248              	.LBE117:
 249              	.LBE116:
 250              		.loc 1 157 0
 251 0010 08BD     		pop	{r3, pc}
 252              	.LVL19:
 253              	.L17:
 254              	.LBB125:
 255              	.LBB115:
 256              	.LBB113:
 257              	.LBB114:
 258              		.loc 1 131 0
 259 0012 9A68     		ldr	r2, [r3, #8]
 260 0014 002A     		cmp	r2, #0
 261 0016 FAD0     		beq	.L18
 262              		.loc 1 132 0
 263 0018 5868     		ldr	r0, [r3, #4]
 264              	.LVL20:
 265 001a 9047     		blx	r2
 266              	.LVL21:
 267              	.LBE114:
 268              	.LBE113:
 269              	.LBE115:
 270              	.LBE125:
 271              	.LBB126:
 272              	.LBB124:
 273              	.LBB123:
 274              	.LBB122:
 275              	.LBB121:
 276              		.loc 2 331 0
 277              		.syntax unified
 278              	@ 331 "ChibiOS_3.0.5/os/ext/CMSIS/include/core_cmFunc.h" 1
 279 001c 62B6     		cpsie i
 280              	@ 0 "" 2
 281              		.thumb
 282              		.syntax unified
 283              	.LBE121:
 284              	.LBE122:
 285              	.LBE123:
ARM GAS  /tmp/ccAzQ4P9.s 			page 6


 286              	.LBE124:
 287              	.LBE126:
 288              		.loc 1 157 0
 289 001e 08BD     		pop	{r3, pc}
 290              		.cfi_endproc
 291              	.LFE222:
 292              		.size	chPoolAlloc, .-chPoolAlloc
 293              		.section	.text.chPoolFreeI,"ax",%progbits
 294              		.align	1
 295              		.p2align 4,,15
 296              		.global	chPoolFreeI
 297              		.syntax unified
 298              		.thumb
 299              		.thumb_func
 300              		.fpu fpv4-sp-d16
 301              		.type	chPoolFreeI, %function
 302              	chPoolFreeI:
 303              	.LFB223:
 304              		.loc 1 171 0
 305              		.cfi_startproc
 306              		@ args = 0, pretend = 0, frame = 0
 307              		@ frame_needed = 0, uses_anonymous_args = 0
 308              		@ link register save eliminated.
 309              	.LVL22:
 310              		.loc 1 177 0
 311 0000 0368     		ldr	r3, [r0]
 312 0002 0B60     		str	r3, [r1]
 313              		.loc 1 178 0
 314 0004 0160     		str	r1, [r0]
 315              		.loc 1 179 0
 316 0006 7047     		bx	lr
 317              		.cfi_endproc
 318              	.LFE223:
 319              		.size	chPoolFreeI, .-chPoolFreeI
 320              		.section	.text.chPoolFree,"ax",%progbits
 321              		.align	1
 322              		.p2align 4,,15
 323              		.global	chPoolFree
 324              		.syntax unified
 325              		.thumb
 326              		.thumb_func
 327              		.fpu fpv4-sp-d16
 328              		.type	chPoolFree, %function
 329              	chPoolFree:
 330              	.LFB224:
 331              		.loc 1 193 0
 332              		.cfi_startproc
 333              		@ args = 0, pretend = 0, frame = 0
 334              		@ frame_needed = 0, uses_anonymous_args = 0
 335              		@ link register save eliminated.
 336              	.LVL23:
 337              	.LBB127:
 338              	.LBB128:
 339              	.LBB129:
 340              	.LBB130:
 341              		.loc 2 342 0
 342              		.syntax unified
ARM GAS  /tmp/ccAzQ4P9.s 			page 7


 343              	@ 342 "ChibiOS_3.0.5/os/ext/CMSIS/include/core_cmFunc.h" 1
 344 0000 72B6     		cpsid i
 345              	@ 0 "" 2
 346              	.LVL24:
 347              		.thumb
 348              		.syntax unified
 349              	.LBE130:
 350              	.LBE129:
 351              	.LBE128:
 352              	.LBE127:
 353              	.LBB131:
 354              	.LBB132:
 355              		.loc 1 177 0
 356 0002 0368     		ldr	r3, [r0]
 357 0004 0B60     		str	r3, [r1]
 358              		.loc 1 178 0
 359 0006 0160     		str	r1, [r0]
 360              	.LVL25:
 361              	.LBE132:
 362              	.LBE131:
 363              	.LBB133:
 364              	.LBB134:
 365              	.LBB135:
 366              	.LBB136:
 367              	.LBB137:
 368              		.loc 2 331 0
 369              		.syntax unified
 370              	@ 331 "ChibiOS_3.0.5/os/ext/CMSIS/include/core_cmFunc.h" 1
 371 0008 62B6     		cpsie i
 372              	@ 0 "" 2
 373              		.thumb
 374              		.syntax unified
 375              	.LBE137:
 376              	.LBE136:
 377              	.LBE135:
 378              	.LBE134:
 379              	.LBE133:
 380              		.loc 1 198 0
 381 000a 7047     		bx	lr
 382              		.cfi_endproc
 383              	.LFE224:
 384              		.size	chPoolFree, .-chPoolFree
 385              		.text
 386              	.Letext0:
 387              		.file 3 "/usr/lib/gcc/arm-none-eabi/7.3.1/include/stddef.h"
 388              		.file 4 "/usr/arm-none-eabi/include/machine/_default_types.h"
 389              		.file 5 "/usr/arm-none-eabi/include/sys/_stdint.h"
 390              		.file 6 "ChibiOS_3.0.5/os/rt/ports/ARMCMx/compilers/GCC/chtypes.h"
 391              		.file 7 "ChibiOS_3.0.5/os/rt/include/chsystypes.h"
 392              		.file 8 "ChibiOS_3.0.5/os/rt/include/chschd.h"
 393              		.file 9 "ChibiOS_3.0.5/os/ext/CMSIS/include/core_cm4.h"
 394              		.file 10 "ChibiOS_3.0.5/os/ext/CMSIS/ST/system_stm32f4xx.h"
 395              		.file 11 "ChibiOS_3.0.5/os/rt/ports/ARMCMx/chcore.h"
 396              		.file 12 "ChibiOS_3.0.5/os/rt/ports/ARMCMx/chcore_v7m.h"
 397              		.file 13 "ChibiOS_3.0.5/os/rt/include/chtm.h"
 398              		.file 14 "ChibiOS_3.0.5/os/rt/include/chsem.h"
 399              		.file 15 "ChibiOS_3.0.5/os/rt/include/chmtx.h"
ARM GAS  /tmp/ccAzQ4P9.s 			page 8


 400              		.file 16 "ChibiOS_3.0.5/os/rt/include/chregistry.h"
 401              		.file 17 "ChibiOS_3.0.5/os/rt/include/chmemcore.h"
 402              		.file 18 "ChibiOS_3.0.5/os/rt/include/chmempools.h"
 403              		.file 19 "ChibiOS_3.0.5/os/rt/include/chsys.h"
 404              		.section	.debug_info,"",%progbits
 405              	.Ldebug_info0:
 406 0000 D30D0000 		.4byte	0xdd3
 407 0004 0400     		.2byte	0x4
 408 0006 00000000 		.4byte	.Ldebug_abbrev0
 409 000a 04       		.byte	0x4
 410 000b 01       		.uleb128 0x1
 411 000c 5F000000 		.4byte	.LASF153
 412 0010 0C       		.byte	0xc
 413 0011 97070000 		.4byte	.LASF154
 414 0015 FA050000 		.4byte	.LASF155
 415 0019 30000000 		.4byte	.Ldebug_ranges0+0x30
 416 001d 00000000 		.4byte	0
 417 0021 00000000 		.4byte	.Ldebug_line0
 418 0025 02       		.uleb128 0x2
 419 0026 04       		.byte	0x4
 420 0027 05       		.byte	0x5
 421 0028 696E7400 		.ascii	"int\000"
 422 002c 03       		.uleb128 0x3
 423 002d 1A000000 		.4byte	.LASF2
 424 0031 03       		.byte	0x3
 425 0032 D8       		.byte	0xd8
 426 0033 37000000 		.4byte	0x37
 427 0037 04       		.uleb128 0x4
 428 0038 04       		.byte	0x4
 429 0039 07       		.byte	0x7
 430 003a 1B030000 		.4byte	.LASF0
 431 003e 04       		.uleb128 0x4
 432 003f 01       		.byte	0x1
 433 0040 06       		.byte	0x6
 434 0041 34020000 		.4byte	.LASF1
 435 0045 03       		.uleb128 0x3
 436 0046 31000000 		.4byte	.LASF3
 437 004a 04       		.byte	0x4
 438 004b 2B       		.byte	0x2b
 439 004c 50000000 		.4byte	0x50
 440 0050 04       		.uleb128 0x4
 441 0051 01       		.byte	0x1
 442 0052 08       		.byte	0x8
 443 0053 38050000 		.4byte	.LASF4
 444 0057 04       		.uleb128 0x4
 445 0058 02       		.byte	0x2
 446 0059 05       		.byte	0x5
 447 005a 50050000 		.4byte	.LASF5
 448 005e 03       		.uleb128 0x3
 449 005f 53060000 		.4byte	.LASF6
 450 0063 04       		.byte	0x4
 451 0064 39       		.byte	0x39
 452 0065 69000000 		.4byte	0x69
 453 0069 04       		.uleb128 0x4
 454 006a 02       		.byte	0x2
 455 006b 07       		.byte	0x7
 456 006c 88030000 		.4byte	.LASF7
ARM GAS  /tmp/ccAzQ4P9.s 			page 9


 457 0070 03       		.uleb128 0x3
 458 0071 F8030000 		.4byte	.LASF8
 459 0075 04       		.byte	0x4
 460 0076 4D       		.byte	0x4d
 461 0077 7B000000 		.4byte	0x7b
 462 007b 04       		.uleb128 0x4
 463 007c 04       		.byte	0x4
 464 007d 05       		.byte	0x5
 465 007e 9A020000 		.4byte	.LASF9
 466 0082 03       		.uleb128 0x3
 467 0083 8C060000 		.4byte	.LASF10
 468 0087 04       		.byte	0x4
 469 0088 4F       		.byte	0x4f
 470 0089 8D000000 		.4byte	0x8d
 471 008d 04       		.uleb128 0x4
 472 008e 04       		.byte	0x4
 473 008f 07       		.byte	0x7
 474 0090 35060000 		.4byte	.LASF11
 475 0094 04       		.uleb128 0x4
 476 0095 08       		.byte	0x8
 477 0096 05       		.byte	0x5
 478 0097 26020000 		.4byte	.LASF12
 479 009b 03       		.uleb128 0x3
 480 009c D5040000 		.4byte	.LASF13
 481 00a0 04       		.byte	0x4
 482 00a1 69       		.byte	0x69
 483 00a2 A6000000 		.4byte	0xa6
 484 00a6 04       		.uleb128 0x4
 485 00a7 08       		.byte	0x8
 486 00a8 07       		.byte	0x7
 487 00a9 9A010000 		.4byte	.LASF14
 488 00ad 03       		.uleb128 0x3
 489 00ae 01070000 		.4byte	.LASF15
 490 00b2 05       		.byte	0x5
 491 00b3 18       		.byte	0x18
 492 00b4 45000000 		.4byte	0x45
 493 00b8 03       		.uleb128 0x3
 494 00b9 30030000 		.4byte	.LASF16
 495 00bd 05       		.byte	0x5
 496 00be 24       		.byte	0x24
 497 00bf 5E000000 		.4byte	0x5e
 498 00c3 03       		.uleb128 0x3
 499 00c4 30050000 		.4byte	.LASF17
 500 00c8 05       		.byte	0x5
 501 00c9 2C       		.byte	0x2c
 502 00ca 70000000 		.4byte	0x70
 503 00ce 05       		.uleb128 0x5
 504 00cf C3000000 		.4byte	0xc3
 505 00d3 03       		.uleb128 0x3
 506 00d4 00060000 		.4byte	.LASF18
 507 00d8 05       		.byte	0x5
 508 00d9 30       		.byte	0x30
 509 00da 82000000 		.4byte	0x82
 510 00de 03       		.uleb128 0x3
 511 00df 28000000 		.4byte	.LASF19
 512 00e3 05       		.byte	0x5
 513 00e4 3C       		.byte	0x3c
ARM GAS  /tmp/ccAzQ4P9.s 			page 10


 514 00e5 9B000000 		.4byte	0x9b
 515 00e9 03       		.uleb128 0x3
 516 00ea 32040000 		.4byte	.LASF20
 517 00ee 06       		.byte	0x6
 518 00ef 45       		.byte	0x45
 519 00f0 D3000000 		.4byte	0xd3
 520 00f4 03       		.uleb128 0x3
 521 00f5 85050000 		.4byte	.LASF21
 522 00f9 06       		.byte	0x6
 523 00fa 48       		.byte	0x48
 524 00fb AD000000 		.4byte	0xad
 525 00ff 03       		.uleb128 0x3
 526 0100 A3020000 		.4byte	.LASF22
 527 0104 06       		.byte	0x6
 528 0105 49       		.byte	0x49
 529 0106 AD000000 		.4byte	0xad
 530 010a 03       		.uleb128 0x3
 531 010b C6020000 		.4byte	.LASF23
 532 010f 06       		.byte	0x6
 533 0110 4A       		.byte	0x4a
 534 0111 AD000000 		.4byte	0xad
 535 0115 03       		.uleb128 0x3
 536 0116 80020000 		.4byte	.LASF24
 537 011a 06       		.byte	0x6
 538 011b 4B       		.byte	0x4b
 539 011c AD000000 		.4byte	0xad
 540 0120 03       		.uleb128 0x3
 541 0121 18050000 		.4byte	.LASF25
 542 0125 06       		.byte	0x6
 543 0126 4C       		.byte	0x4c
 544 0127 D3000000 		.4byte	0xd3
 545 012b 03       		.uleb128 0x3
 546 012c A5030000 		.4byte	.LASF26
 547 0130 06       		.byte	0x6
 548 0131 4D       		.byte	0x4d
 549 0132 C3000000 		.4byte	0xc3
 550 0136 03       		.uleb128 0x3
 551 0137 EC030000 		.4byte	.LASF27
 552 013b 06       		.byte	0x6
 553 013c 4F       		.byte	0x4f
 554 013d D3000000 		.4byte	0xd3
 555 0141 03       		.uleb128 0x3
 556 0142 0A030000 		.4byte	.LASF28
 557 0146 06       		.byte	0x6
 558 0147 51       		.byte	0x51
 559 0148 C3000000 		.4byte	0xc3
 560 014c 03       		.uleb128 0x3
 561 014d 6E060000 		.4byte	.LASF29
 562 0151 07       		.byte	0x7
 563 0152 33       		.byte	0x33
 564 0153 D3000000 		.4byte	0xd3
 565 0157 05       		.uleb128 0x5
 566 0158 4C010000 		.4byte	0x14c
 567 015c 03       		.uleb128 0x3
 568 015d 5E060000 		.4byte	.LASF30
 569 0161 07       		.byte	0x7
 570 0162 3F       		.byte	0x3f
ARM GAS  /tmp/ccAzQ4P9.s 			page 11


 571 0163 67010000 		.4byte	0x167
 572 0167 06       		.uleb128 0x6
 573 0168 9B030000 		.4byte	.LASF54
 574 016c 50       		.byte	0x50
 575 016d 08       		.byte	0x8
 576 016e C2       		.byte	0xc2
 577 016f 85020000 		.4byte	0x285
 578 0173 07       		.uleb128 0x7
 579 0174 7E050000 		.4byte	.LASF31
 580 0178 08       		.byte	0x8
 581 0179 C3       		.byte	0xc3
 582 017a 90020000 		.4byte	0x290
 583 017e 00       		.byte	0
 584 017f 07       		.uleb128 0x7
 585 0180 11050000 		.4byte	.LASF32
 586 0184 08       		.byte	0x8
 587 0185 C5       		.byte	0xc5
 588 0186 90020000 		.4byte	0x290
 589 018a 04       		.byte	0x4
 590 018b 07       		.uleb128 0x7
 591 018c 07020000 		.4byte	.LASF33
 592 0190 08       		.byte	0x8
 593 0191 C7       		.byte	0xc7
 594 0192 20010000 		.4byte	0x120
 595 0196 08       		.byte	0x8
 596 0197 07       		.uleb128 0x7
 597 0198 90040000 		.4byte	.LASF34
 598 019c 08       		.byte	0x8
 599 019d C8       		.byte	0xc8
 600 019e D0040000 		.4byte	0x4d0
 601 01a2 0C       		.byte	0xc
 602 01a3 07       		.uleb128 0x7
 603 01a4 B6020000 		.4byte	.LASF35
 604 01a8 08       		.byte	0x8
 605 01a9 CA       		.byte	0xca
 606 01aa 90020000 		.4byte	0x290
 607 01ae 10       		.byte	0x10
 608 01af 07       		.uleb128 0x7
 609 01b0 82040000 		.4byte	.LASF36
 610 01b4 08       		.byte	0x8
 611 01b5 CB       		.byte	0xcb
 612 01b6 90020000 		.4byte	0x290
 613 01ba 14       		.byte	0x14
 614 01bb 07       		.uleb128 0x7
 615 01bc 3A070000 		.4byte	.LASF37
 616 01c0 08       		.byte	0x8
 617 01c1 D2       		.byte	0xd2
 618 01c2 15070000 		.4byte	0x715
 619 01c6 18       		.byte	0x18
 620 01c7 07       		.uleb128 0x7
 621 01c8 10030000 		.4byte	.LASF38
 622 01cc 08       		.byte	0x8
 623 01cd D8       		.byte	0xd8
 624 01ce 2C070000 		.4byte	0x72c
 625 01d2 1C       		.byte	0x1c
 626 01d3 07       		.uleb128 0x7
 627 01d4 5A050000 		.4byte	.LASF39
ARM GAS  /tmp/ccAzQ4P9.s 			page 12


 628 01d8 08       		.byte	0x8
 629 01d9 DD       		.byte	0xdd
 630 01da FF000000 		.4byte	0xff
 631 01de 20       		.byte	0x20
 632 01df 07       		.uleb128 0x7
 633 01e0 55070000 		.4byte	.LASF40
 634 01e4 08       		.byte	0x8
 635 01e5 E1       		.byte	0xe1
 636 01e6 F4000000 		.4byte	0xf4
 637 01ea 21       		.byte	0x21
 638 01eb 07       		.uleb128 0x7
 639 01ec E5060000 		.4byte	.LASF41
 640 01f0 08       		.byte	0x8
 641 01f1 E6       		.byte	0xe6
 642 01f2 0A010000 		.4byte	0x10a
 643 01f6 22       		.byte	0x22
 644 01f7 07       		.uleb128 0x7
 645 01f8 62050000 		.4byte	.LASF42
 646 01fc 08       		.byte	0x8
 647 01fd EC       		.byte	0xec
 648 01fe 15010000 		.4byte	0x115
 649 0202 23       		.byte	0x23
 650 0203 07       		.uleb128 0x7
 651 0204 49030000 		.4byte	.LASF43
 652 0208 08       		.byte	0x8
 653 0209 F3       		.byte	0xf3
 654 020a 57010000 		.4byte	0x157
 655 020e 24       		.byte	0x24
 656 020f 08       		.uleb128 0x8
 657 0210 705F7500 		.ascii	"p_u\000"
 658 0214 08       		.byte	0x8
 659 0215 3101     		.2byte	0x131
 660 0217 50060000 		.4byte	0x650
 661 021b 28       		.byte	0x28
 662 021c 09       		.uleb128 0x9
 663 021d 28040000 		.4byte	.LASF44
 664 0221 08       		.byte	0x8
 665 0222 3601     		.2byte	0x136
 666 0224 96020000 		.4byte	0x296
 667 0228 2C       		.byte	0x2c
 668 0229 09       		.uleb128 0x9
 669 022a 60030000 		.4byte	.LASF45
 670 022e 08       		.byte	0x8
 671 022f 3C01     		.2byte	0x13c
 672 0231 BA020000 		.4byte	0x2ba
 673 0235 30       		.byte	0x30
 674 0236 09       		.uleb128 0x9
 675 0237 C1060000 		.4byte	.LASF46
 676 023b 08       		.byte	0x8
 677 023c 4001     		.2byte	0x140
 678 023e 2B010000 		.4byte	0x12b
 679 0242 38       		.byte	0x38
 680 0243 09       		.uleb128 0x9
 681 0244 EF050000 		.4byte	.LASF47
 682 0248 08       		.byte	0x8
 683 0249 4601     		.2byte	0x146
 684 024b 36010000 		.4byte	0x136
ARM GAS  /tmp/ccAzQ4P9.s 			page 13


 685 024f 3C       		.byte	0x3c
 686 0250 09       		.uleb128 0x9
 687 0251 46050000 		.4byte	.LASF48
 688 0255 08       		.byte	0x8
 689 0256 4D01     		.2byte	0x14d
 690 0258 0F070000 		.4byte	0x70f
 691 025c 40       		.byte	0x40
 692 025d 09       		.uleb128 0x9
 693 025e 78060000 		.4byte	.LASF49
 694 0262 08       		.byte	0x8
 695 0263 5101     		.2byte	0x151
 696 0265 20010000 		.4byte	0x120
 697 0269 44       		.byte	0x44
 698 026a 09       		.uleb128 0x9
 699 026b 5D020000 		.4byte	.LASF50
 700 026f 08       		.byte	0x8
 701 0270 5801     		.2byte	0x158
 702 0272 6D030000 		.4byte	0x36d
 703 0276 48       		.byte	0x48
 704 0277 09       		.uleb128 0x9
 705 0278 EC060000 		.4byte	.LASF51
 706 027c 08       		.byte	0x8
 707 027d 6201     		.2byte	0x162
 708 027f 25000000 		.4byte	0x25
 709 0283 4C       		.byte	0x4c
 710 0284 00       		.byte	0
 711 0285 03       		.uleb128 0x3
 712 0286 20070000 		.4byte	.LASF52
 713 028a 07       		.byte	0x7
 714 028b 44       		.byte	0x44
 715 028c 90020000 		.4byte	0x290
 716 0290 0A       		.uleb128 0xa
 717 0291 04       		.byte	0x4
 718 0292 5C010000 		.4byte	0x15c
 719 0296 03       		.uleb128 0x3
 720 0297 46070000 		.4byte	.LASF53
 721 029b 07       		.byte	0x7
 722 029c 49       		.byte	0x49
 723 029d A1020000 		.4byte	0x2a1
 724 02a1 06       		.uleb128 0x6
 725 02a2 1D060000 		.4byte	.LASF55
 726 02a6 04       		.byte	0x4
 727 02a7 08       		.byte	0x8
 728 02a8 B0       		.byte	0xb0
 729 02a9 BA020000 		.4byte	0x2ba
 730 02ad 07       		.uleb128 0x7
 731 02ae 7E050000 		.4byte	.LASF31
 732 02b2 08       		.byte	0x8
 733 02b3 B1       		.byte	0xb1
 734 02b4 90020000 		.4byte	0x290
 735 02b8 00       		.byte	0
 736 02b9 00       		.byte	0
 737 02ba 03       		.uleb128 0x3
 738 02bb B4050000 		.4byte	.LASF56
 739 02bf 07       		.byte	0x7
 740 02c0 50       		.byte	0x50
 741 02c1 C5020000 		.4byte	0x2c5
ARM GAS  /tmp/ccAzQ4P9.s 			page 14


 742 02c5 06       		.uleb128 0x6
 743 02c6 F6010000 		.4byte	.LASF57
 744 02ca 08       		.byte	0x8
 745 02cb 08       		.byte	0x8
 746 02cc B7       		.byte	0xb7
 747 02cd EA020000 		.4byte	0x2ea
 748 02d1 07       		.uleb128 0x7
 749 02d2 7E050000 		.4byte	.LASF31
 750 02d6 08       		.byte	0x8
 751 02d7 B8       		.byte	0xb8
 752 02d8 90020000 		.4byte	0x290
 753 02dc 00       		.byte	0
 754 02dd 07       		.uleb128 0x7
 755 02de 11050000 		.4byte	.LASF32
 756 02e2 08       		.byte	0x8
 757 02e3 B9       		.byte	0xb9
 758 02e4 90020000 		.4byte	0x290
 759 02e8 04       		.byte	0x4
 760 02e9 00       		.byte	0
 761 02ea 03       		.uleb128 0x3
 762 02eb 0D000000 		.4byte	.LASF58
 763 02ef 07       		.byte	0x7
 764 02f0 57       		.byte	0x57
 765 02f1 F5020000 		.4byte	0x2f5
 766 02f5 0B       		.uleb128 0xb
 767 02f6 DE030000 		.4byte	.LASF59
 768 02fa 1C       		.byte	0x1c
 769 02fb 08       		.byte	0x8
 770 02fc 9001     		.2byte	0x190
 771 02fe 51030000 		.4byte	0x351
 772 0302 09       		.uleb128 0x9
 773 0303 15060000 		.4byte	.LASF60
 774 0307 08       		.byte	0x8
 775 0308 9101     		.2byte	0x191
 776 030a BA020000 		.4byte	0x2ba
 777 030e 00       		.byte	0
 778 030f 09       		.uleb128 0x9
 779 0310 21040000 		.4byte	.LASF61
 780 0314 08       		.byte	0x8
 781 0315 9201     		.2byte	0x192
 782 0317 20010000 		.4byte	0x120
 783 031b 08       		.byte	0x8
 784 031c 09       		.uleb128 0x9
 785 031d 8A040000 		.4byte	.LASF62
 786 0321 08       		.byte	0x8
 787 0322 9401     		.2byte	0x194
 788 0324 D0040000 		.4byte	0x4d0
 789 0328 0C       		.byte	0xc
 790 0329 09       		.uleb128 0x9
 791 032a CE020000 		.4byte	.LASF63
 792 032e 08       		.byte	0x8
 793 032f 9701     		.2byte	0x197
 794 0331 90020000 		.4byte	0x290
 795 0335 10       		.byte	0x10
 796 0336 09       		.uleb128 0x9
 797 0337 C0040000 		.4byte	.LASF64
 798 033b 08       		.byte	0x8
ARM GAS  /tmp/ccAzQ4P9.s 			page 15


 799 033c 9801     		.2byte	0x198
 800 033e 90020000 		.4byte	0x290
 801 0342 14       		.byte	0x14
 802 0343 09       		.uleb128 0x9
 803 0344 B6040000 		.4byte	.LASF65
 804 0348 08       		.byte	0x8
 805 0349 9B01     		.2byte	0x19b
 806 034b 90020000 		.4byte	0x290
 807 034f 18       		.byte	0x18
 808 0350 00       		.byte	0
 809 0351 03       		.uleb128 0x3
 810 0352 83060000 		.4byte	.LASF66
 811 0356 07       		.byte	0x7
 812 0357 5C       		.byte	0x5c
 813 0358 5C030000 		.4byte	0x35c
 814 035c 0A       		.uleb128 0xa
 815 035d 04       		.byte	0x4
 816 035e 62030000 		.4byte	0x362
 817 0362 0C       		.uleb128 0xc
 818 0363 6D030000 		.4byte	0x36d
 819 0367 0D       		.uleb128 0xd
 820 0368 6D030000 		.4byte	0x36d
 821 036c 00       		.byte	0
 822 036d 0E       		.uleb128 0xe
 823 036e 04       		.byte	0x4
 824 036f 03       		.uleb128 0x3
 825 0370 01050000 		.4byte	.LASF67
 826 0374 07       		.byte	0x7
 827 0375 61       		.byte	0x61
 828 0376 7A030000 		.4byte	0x37a
 829 037a 0B       		.uleb128 0xb
 830 037b C4050000 		.4byte	.LASF68
 831 037f 14       		.byte	0x14
 832 0380 08       		.byte	0x8
 833 0381 6B01     		.2byte	0x16b
 834 0383 C9030000 		.4byte	0x3c9
 835 0387 09       		.uleb128 0x9
 836 0388 28030000 		.4byte	.LASF69
 837 038c 08       		.byte	0x8
 838 038d 6C01     		.2byte	0x16c
 839 038f 32070000 		.4byte	0x732
 840 0393 00       		.byte	0
 841 0394 09       		.uleb128 0x9
 842 0395 EB020000 		.4byte	.LASF70
 843 0399 08       		.byte	0x8
 844 039a 6D01     		.2byte	0x16d
 845 039c 32070000 		.4byte	0x732
 846 03a0 04       		.byte	0x4
 847 03a1 09       		.uleb128 0x9
 848 03a2 57030000 		.4byte	.LASF71
 849 03a6 08       		.byte	0x8
 850 03a7 6E01     		.2byte	0x16e
 851 03a9 4C010000 		.4byte	0x14c
 852 03ad 08       		.byte	0x8
 853 03ae 09       		.uleb128 0x9
 854 03af 8F070000 		.4byte	.LASF72
 855 03b3 08       		.byte	0x8
ARM GAS  /tmp/ccAzQ4P9.s 			page 16


 856 03b4 6F01     		.2byte	0x16f
 857 03b6 51030000 		.4byte	0x351
 858 03ba 0C       		.byte	0xc
 859 03bb 09       		.uleb128 0x9
 860 03bc C7060000 		.4byte	.LASF73
 861 03c0 08       		.byte	0x8
 862 03c1 7101     		.2byte	0x171
 863 03c3 6D030000 		.4byte	0x36d
 864 03c7 10       		.byte	0x10
 865 03c8 00       		.byte	0
 866 03c9 03       		.uleb128 0x3
 867 03ca D3010000 		.4byte	.LASF74
 868 03ce 07       		.byte	0x7
 869 03cf 66       		.byte	0x66
 870 03d0 D4030000 		.4byte	0x3d4
 871 03d4 0B       		.uleb128 0xb
 872 03d5 3A040000 		.4byte	.LASF75
 873 03d9 10       		.byte	0x10
 874 03da 08       		.byte	0x8
 875 03db 7B01     		.2byte	0x17b
 876 03dd 16040000 		.4byte	0x416
 877 03e1 09       		.uleb128 0x9
 878 03e2 28030000 		.4byte	.LASF69
 879 03e6 08       		.byte	0x8
 880 03e7 7C01     		.2byte	0x17c
 881 03e9 32070000 		.4byte	0x732
 882 03ed 00       		.byte	0
 883 03ee 09       		.uleb128 0x9
 884 03ef EB020000 		.4byte	.LASF70
 885 03f3 08       		.byte	0x8
 886 03f4 7E01     		.2byte	0x17e
 887 03f6 32070000 		.4byte	0x732
 888 03fa 04       		.byte	0x4
 889 03fb 09       		.uleb128 0x9
 890 03fc 57030000 		.4byte	.LASF71
 891 0400 08       		.byte	0x8
 892 0401 8001     		.2byte	0x180
 893 0403 4C010000 		.4byte	0x14c
 894 0407 08       		.byte	0x8
 895 0408 09       		.uleb128 0x9
 896 0409 1B020000 		.4byte	.LASF76
 897 040d 08       		.byte	0x8
 898 040e 8201     		.2byte	0x182
 899 0410 57010000 		.4byte	0x157
 900 0414 0C       		.byte	0xc
 901 0415 00       		.byte	0
 902 0416 03       		.uleb128 0x3
 903 0417 47000000 		.4byte	.LASF77
 904 041b 07       		.byte	0x7
 905 041c 6B       		.byte	0x6b
 906 041d 21040000 		.4byte	0x421
 907 0421 0B       		.uleb128 0xb
 908 0422 20050000 		.4byte	.LASF78
 909 0426 04       		.byte	0x4
 910 0427 08       		.byte	0x8
 911 0428 A201     		.2byte	0x1a2
 912 042a 3C040000 		.4byte	0x43c
ARM GAS  /tmp/ccAzQ4P9.s 			page 17


 913 042e 09       		.uleb128 0x9
 914 042f 97060000 		.4byte	.LASF79
 915 0433 08       		.byte	0x8
 916 0434 AA01     		.2byte	0x1aa
 917 0436 1B070000 		.4byte	0x71b
 918 043a 00       		.byte	0
 919 043b 00       		.byte	0
 920 043c 03       		.uleb128 0x3
 921 043d AB030000 		.4byte	.LASF80
 922 0441 07       		.byte	0x7
 923 0442 70       		.byte	0x70
 924 0443 47040000 		.4byte	0x447
 925 0447 0F       		.uleb128 0xf
 926 0448 90020000 		.4byte	.LASF81
 927 044c 6802     		.2byte	0x268
 928 044e 08       		.byte	0x8
 929 044f C201     		.2byte	0x1c2
 930 0451 A3040000 		.4byte	0x4a3
 931 0455 09       		.uleb128 0x9
 932 0456 FB060000 		.4byte	.LASF82
 933 045a 08       		.byte	0x8
 934 045b C601     		.2byte	0x1c6
 935 045d EA020000 		.4byte	0x2ea
 936 0461 00       		.byte	0
 937 0462 09       		.uleb128 0x9
 938 0463 6D020000 		.4byte	.LASF83
 939 0467 08       		.byte	0x8
 940 0468 CA01     		.2byte	0x1ca
 941 046a C9030000 		.4byte	0x3c9
 942 046e 1C       		.byte	0x1c
 943 046f 08       		.uleb128 0x8
 944 0470 64626700 		.ascii	"dbg\000"
 945 0474 08       		.byte	0x8
 946 0475 CE01     		.2byte	0x1ce
 947 0477 16040000 		.4byte	0x416
 948 047b 2C       		.byte	0x2c
 949 047c 09       		.uleb128 0x9
 950 047d C8010000 		.4byte	.LASF84
 951 0481 08       		.byte	0x8
 952 0482 D201     		.2byte	0x1d2
 953 0484 5C010000 		.4byte	0x15c
 954 0488 30       		.byte	0x30
 955 0489 08       		.uleb128 0x8
 956 048a 746D00   		.ascii	"tm\000"
 957 048d 08       		.byte	0x8
 958 048e D701     		.2byte	0x1d7
 959 0490 45060000 		.4byte	0x645
 960 0494 80       		.byte	0x80
 961 0495 09       		.uleb128 0x9
 962 0496 FB020000 		.4byte	.LASF85
 963 049a 08       		.byte	0x8
 964 049b E301     		.2byte	0x1e3
 965 049d 38070000 		.4byte	0x738
 966 04a1 88       		.byte	0x88
 967 04a2 00       		.byte	0
 968 04a3 10       		.uleb128 0x10
 969 04a4 E9010000 		.4byte	.LASF86
ARM GAS  /tmp/ccAzQ4P9.s 			page 18


 970 04a8 09       		.byte	0x9
 971 04a9 A706     		.2byte	0x6a7
 972 04ab CE000000 		.4byte	0xce
 973 04af 11       		.uleb128 0x11
 974 04b0 39030000 		.4byte	.LASF87
 975 04b4 0A       		.byte	0xa
 976 04b5 4C       		.byte	0x4c
 977 04b6 D3000000 		.4byte	0xd3
 978 04ba 03       		.uleb128 0x3
 979 04bb E2020000 		.4byte	.LASF88
 980 04bf 0B       		.byte	0xb
 981 04c0 65       		.byte	0x65
 982 04c1 6D030000 		.4byte	0x36d
 983 04c5 03       		.uleb128 0x3
 984 04c6 02040000 		.4byte	.LASF89
 985 04ca 0B       		.byte	0xb
 986 04cb 6D       		.byte	0x6d
 987 04cc DE000000 		.4byte	0xde
 988 04d0 06       		.uleb128 0x6
 989 04d1 B9060000 		.4byte	.LASF90
 990 04d5 04       		.byte	0x4
 991 04d6 0B       		.byte	0xb
 992 04d7 89       		.byte	0x89
 993 04d8 E9040000 		.4byte	0x4e9
 994 04dc 12       		.uleb128 0x12
 995 04dd 72313300 		.ascii	"r13\000"
 996 04e1 0B       		.byte	0xb
 997 04e2 8A       		.byte	0x8a
 998 04e3 2A060000 		.4byte	0x62a
 999 04e7 00       		.byte	0
 1000 04e8 00       		.byte	0
 1001 04e9 06       		.uleb128 0x6
 1002 04ea 3B000000 		.4byte	.LASF91
 1003 04ee 64       		.byte	0x64
 1004 04ef 0C       		.byte	0xc
 1005 04f0 F4       		.byte	0xf4
 1006 04f1 2A060000 		.4byte	0x62a
 1007 04f5 12       		.uleb128 0x12
 1008 04f6 73313600 		.ascii	"s16\000"
 1009 04fa 0C       		.byte	0xc
 1010 04fb F6       		.byte	0xf6
 1011 04fc BA040000 		.4byte	0x4ba
 1012 0500 00       		.byte	0
 1013 0501 12       		.uleb128 0x12
 1014 0502 73313700 		.ascii	"s17\000"
 1015 0506 0C       		.byte	0xc
 1016 0507 F7       		.byte	0xf7
 1017 0508 BA040000 		.4byte	0x4ba
 1018 050c 04       		.byte	0x4
 1019 050d 12       		.uleb128 0x12
 1020 050e 73313800 		.ascii	"s18\000"
 1021 0512 0C       		.byte	0xc
 1022 0513 F8       		.byte	0xf8
 1023 0514 BA040000 		.4byte	0x4ba
 1024 0518 08       		.byte	0x8
 1025 0519 12       		.uleb128 0x12
 1026 051a 73313900 		.ascii	"s19\000"
ARM GAS  /tmp/ccAzQ4P9.s 			page 19


 1027 051e 0C       		.byte	0xc
 1028 051f F9       		.byte	0xf9
 1029 0520 BA040000 		.4byte	0x4ba
 1030 0524 0C       		.byte	0xc
 1031 0525 12       		.uleb128 0x12
 1032 0526 73323000 		.ascii	"s20\000"
 1033 052a 0C       		.byte	0xc
 1034 052b FA       		.byte	0xfa
 1035 052c BA040000 		.4byte	0x4ba
 1036 0530 10       		.byte	0x10
 1037 0531 12       		.uleb128 0x12
 1038 0532 73323100 		.ascii	"s21\000"
 1039 0536 0C       		.byte	0xc
 1040 0537 FB       		.byte	0xfb
 1041 0538 BA040000 		.4byte	0x4ba
 1042 053c 14       		.byte	0x14
 1043 053d 12       		.uleb128 0x12
 1044 053e 73323200 		.ascii	"s22\000"
 1045 0542 0C       		.byte	0xc
 1046 0543 FC       		.byte	0xfc
 1047 0544 BA040000 		.4byte	0x4ba
 1048 0548 18       		.byte	0x18
 1049 0549 12       		.uleb128 0x12
 1050 054a 73323300 		.ascii	"s23\000"
 1051 054e 0C       		.byte	0xc
 1052 054f FD       		.byte	0xfd
 1053 0550 BA040000 		.4byte	0x4ba
 1054 0554 1C       		.byte	0x1c
 1055 0555 12       		.uleb128 0x12
 1056 0556 73323400 		.ascii	"s24\000"
 1057 055a 0C       		.byte	0xc
 1058 055b FE       		.byte	0xfe
 1059 055c BA040000 		.4byte	0x4ba
 1060 0560 20       		.byte	0x20
 1061 0561 12       		.uleb128 0x12
 1062 0562 73323500 		.ascii	"s25\000"
 1063 0566 0C       		.byte	0xc
 1064 0567 FF       		.byte	0xff
 1065 0568 BA040000 		.4byte	0x4ba
 1066 056c 24       		.byte	0x24
 1067 056d 08       		.uleb128 0x8
 1068 056e 73323600 		.ascii	"s26\000"
 1069 0572 0C       		.byte	0xc
 1070 0573 0001     		.2byte	0x100
 1071 0575 BA040000 		.4byte	0x4ba
 1072 0579 28       		.byte	0x28
 1073 057a 08       		.uleb128 0x8
 1074 057b 73323700 		.ascii	"s27\000"
 1075 057f 0C       		.byte	0xc
 1076 0580 0101     		.2byte	0x101
 1077 0582 BA040000 		.4byte	0x4ba
 1078 0586 2C       		.byte	0x2c
 1079 0587 08       		.uleb128 0x8
 1080 0588 73323800 		.ascii	"s28\000"
 1081 058c 0C       		.byte	0xc
 1082 058d 0201     		.2byte	0x102
 1083 058f BA040000 		.4byte	0x4ba
ARM GAS  /tmp/ccAzQ4P9.s 			page 20


 1084 0593 30       		.byte	0x30
 1085 0594 08       		.uleb128 0x8
 1086 0595 73323900 		.ascii	"s29\000"
 1087 0599 0C       		.byte	0xc
 1088 059a 0301     		.2byte	0x103
 1089 059c BA040000 		.4byte	0x4ba
 1090 05a0 34       		.byte	0x34
 1091 05a1 08       		.uleb128 0x8
 1092 05a2 73333000 		.ascii	"s30\000"
 1093 05a6 0C       		.byte	0xc
 1094 05a7 0401     		.2byte	0x104
 1095 05a9 BA040000 		.4byte	0x4ba
 1096 05ad 38       		.byte	0x38
 1097 05ae 08       		.uleb128 0x8
 1098 05af 73333100 		.ascii	"s31\000"
 1099 05b3 0C       		.byte	0xc
 1100 05b4 0501     		.2byte	0x105
 1101 05b6 BA040000 		.4byte	0x4ba
 1102 05ba 3C       		.byte	0x3c
 1103 05bb 08       		.uleb128 0x8
 1104 05bc 723400   		.ascii	"r4\000"
 1105 05bf 0C       		.byte	0xc
 1106 05c0 0701     		.2byte	0x107
 1107 05c2 BA040000 		.4byte	0x4ba
 1108 05c6 40       		.byte	0x40
 1109 05c7 08       		.uleb128 0x8
 1110 05c8 723500   		.ascii	"r5\000"
 1111 05cb 0C       		.byte	0xc
 1112 05cc 0801     		.2byte	0x108
 1113 05ce BA040000 		.4byte	0x4ba
 1114 05d2 44       		.byte	0x44
 1115 05d3 08       		.uleb128 0x8
 1116 05d4 723600   		.ascii	"r6\000"
 1117 05d7 0C       		.byte	0xc
 1118 05d8 0901     		.2byte	0x109
 1119 05da BA040000 		.4byte	0x4ba
 1120 05de 48       		.byte	0x48
 1121 05df 08       		.uleb128 0x8
 1122 05e0 723700   		.ascii	"r7\000"
 1123 05e3 0C       		.byte	0xc
 1124 05e4 0A01     		.2byte	0x10a
 1125 05e6 BA040000 		.4byte	0x4ba
 1126 05ea 4C       		.byte	0x4c
 1127 05eb 08       		.uleb128 0x8
 1128 05ec 723800   		.ascii	"r8\000"
 1129 05ef 0C       		.byte	0xc
 1130 05f0 0B01     		.2byte	0x10b
 1131 05f2 BA040000 		.4byte	0x4ba
 1132 05f6 50       		.byte	0x50
 1133 05f7 08       		.uleb128 0x8
 1134 05f8 723900   		.ascii	"r9\000"
 1135 05fb 0C       		.byte	0xc
 1136 05fc 0C01     		.2byte	0x10c
 1137 05fe BA040000 		.4byte	0x4ba
 1138 0602 54       		.byte	0x54
 1139 0603 08       		.uleb128 0x8
 1140 0604 72313000 		.ascii	"r10\000"
ARM GAS  /tmp/ccAzQ4P9.s 			page 21


 1141 0608 0C       		.byte	0xc
 1142 0609 0D01     		.2byte	0x10d
 1143 060b BA040000 		.4byte	0x4ba
 1144 060f 58       		.byte	0x58
 1145 0610 08       		.uleb128 0x8
 1146 0611 72313100 		.ascii	"r11\000"
 1147 0615 0C       		.byte	0xc
 1148 0616 0E01     		.2byte	0x10e
 1149 0618 BA040000 		.4byte	0x4ba
 1150 061c 5C       		.byte	0x5c
 1151 061d 08       		.uleb128 0x8
 1152 061e 6C7200   		.ascii	"lr\000"
 1153 0621 0C       		.byte	0xc
 1154 0622 0F01     		.2byte	0x10f
 1155 0624 BA040000 		.4byte	0x4ba
 1156 0628 60       		.byte	0x60
 1157 0629 00       		.byte	0
 1158 062a 0A       		.uleb128 0xa
 1159 062b 04       		.byte	0x4
 1160 062c E9040000 		.4byte	0x4e9
 1161 0630 13       		.uleb128 0x13
 1162 0631 04       		.byte	0x4
 1163 0632 0D       		.byte	0xd
 1164 0633 38       		.byte	0x38
 1165 0634 45060000 		.4byte	0x645
 1166 0638 07       		.uleb128 0x7
 1167 0639 A1060000 		.4byte	.LASF92
 1168 063d 0D       		.byte	0xd
 1169 063e 3C       		.byte	0x3c
 1170 063f E9000000 		.4byte	0xe9
 1171 0643 00       		.byte	0
 1172 0644 00       		.byte	0
 1173 0645 03       		.uleb128 0x3
 1174 0646 A5040000 		.4byte	.LASF93
 1175 064a 0D       		.byte	0xd
 1176 064b 3D       		.byte	0x3d
 1177 064c 30060000 		.4byte	0x630
 1178 0650 14       		.uleb128 0x14
 1179 0651 04       		.byte	0x4
 1180 0652 08       		.byte	0x8
 1181 0653 FA       		.byte	0xfa
 1182 0654 AD060000 		.4byte	0x6ad
 1183 0658 15       		.uleb128 0x15
 1184 0659 21000000 		.4byte	.LASF94
 1185 065d 08       		.byte	0x8
 1186 065e 0101     		.2byte	0x101
 1187 0660 2B010000 		.4byte	0x12b
 1188 0664 15       		.uleb128 0x15
 1189 0665 BF010000 		.4byte	.LASF95
 1190 0669 08       		.byte	0x8
 1191 066a 0801     		.2byte	0x108
 1192 066c 2B010000 		.4byte	0x12b
 1193 0670 15       		.uleb128 0x15
 1194 0671 33070000 		.4byte	.LASF96
 1195 0675 08       		.byte	0x8
 1196 0676 0F01     		.2byte	0x10f
 1197 0678 6D030000 		.4byte	0x36d
ARM GAS  /tmp/ccAzQ4P9.s 			page 22


 1198 067c 15       		.uleb128 0x15
 1199 067d 8A020000 		.4byte	.LASF97
 1200 0681 08       		.byte	0x8
 1201 0682 1601     		.2byte	0x116
 1202 0684 AD060000 		.4byte	0x6ad
 1203 0688 15       		.uleb128 0x15
 1204 0689 50030000 		.4byte	.LASF98
 1205 068d 08       		.byte	0x8
 1206 068e 1E01     		.2byte	0x11e
 1207 0690 D8060000 		.4byte	0x6d8
 1208 0694 15       		.uleb128 0x15
 1209 0695 4C060000 		.4byte	.LASF99
 1210 0699 08       		.byte	0x8
 1211 069a 2701     		.2byte	0x127
 1212 069c 0F070000 		.4byte	0x70f
 1213 06a0 15       		.uleb128 0x15
 1214 06a1 77050000 		.4byte	.LASF100
 1215 06a5 08       		.byte	0x8
 1216 06a6 2F01     		.2byte	0x12f
 1217 06a8 36010000 		.4byte	0x136
 1218 06ac 00       		.byte	0
 1219 06ad 0A       		.uleb128 0xa
 1220 06ae 04       		.byte	0x4
 1221 06af 85020000 		.4byte	0x285
 1222 06b3 06       		.uleb128 0x6
 1223 06b4 E2050000 		.4byte	.LASF101
 1224 06b8 0C       		.byte	0xc
 1225 06b9 0E       		.byte	0xe
 1226 06ba 34       		.byte	0x34
 1227 06bb D8060000 		.4byte	0x6d8
 1228 06bf 07       		.uleb128 0x7
 1229 06c0 BE020000 		.4byte	.LASF102
 1230 06c4 0E       		.byte	0xe
 1231 06c5 35       		.byte	0x35
 1232 06c6 BA020000 		.4byte	0x2ba
 1233 06ca 00       		.byte	0
 1234 06cb 07       		.uleb128 0x7
 1235 06cc 82030000 		.4byte	.LASF103
 1236 06d0 0E       		.byte	0xe
 1237 06d1 37       		.byte	0x37
 1238 06d2 41010000 		.4byte	0x141
 1239 06d6 08       		.byte	0x8
 1240 06d7 00       		.byte	0
 1241 06d8 0A       		.uleb128 0xa
 1242 06d9 04       		.byte	0x4
 1243 06da B3060000 		.4byte	0x6b3
 1244 06de 06       		.uleb128 0x6
 1245 06df A8060000 		.4byte	.LASF104
 1246 06e3 10       		.byte	0x10
 1247 06e4 0F       		.byte	0xf
 1248 06e5 39       		.byte	0x39
 1249 06e6 0F070000 		.4byte	0x70f
 1250 06ea 07       		.uleb128 0x7
 1251 06eb 65020000 		.4byte	.LASF105
 1252 06ef 0F       		.byte	0xf
 1253 06f0 3A       		.byte	0x3a
 1254 06f1 BA020000 		.4byte	0x2ba
ARM GAS  /tmp/ccAzQ4P9.s 			page 23


 1255 06f5 00       		.byte	0
 1256 06f6 07       		.uleb128 0x7
 1257 06f7 79070000 		.4byte	.LASF106
 1258 06fb 0F       		.byte	0xf
 1259 06fc 3C       		.byte	0x3c
 1260 06fd 90020000 		.4byte	0x290
 1261 0701 08       		.byte	0x8
 1262 0702 07       		.uleb128 0x7
 1263 0703 67060000 		.4byte	.LASF107
 1264 0707 0F       		.byte	0xf
 1265 0708 3E       		.byte	0x3e
 1266 0709 6A080000 		.4byte	0x86a
 1267 070d 0C       		.byte	0xc
 1268 070e 00       		.byte	0
 1269 070f 0A       		.uleb128 0xa
 1270 0710 04       		.byte	0x4
 1271 0711 DE060000 		.4byte	0x6de
 1272 0715 0A       		.uleb128 0xa
 1273 0716 04       		.byte	0x4
 1274 0717 27070000 		.4byte	0x727
 1275 071b 05       		.uleb128 0x5
 1276 071c 15070000 		.4byte	0x715
 1277 0720 04       		.uleb128 0x4
 1278 0721 01       		.byte	0x1
 1279 0722 08       		.byte	0x8
 1280 0723 47060000 		.4byte	.LASF108
 1281 0727 16       		.uleb128 0x16
 1282 0728 20070000 		.4byte	0x720
 1283 072c 0A       		.uleb128 0xa
 1284 072d 04       		.byte	0x4
 1285 072e C5040000 		.4byte	0x4c5
 1286 0732 0A       		.uleb128 0xa
 1287 0733 04       		.byte	0x4
 1288 0734 6F030000 		.4byte	0x36f
 1289 0738 17       		.uleb128 0x17
 1290 0739 C5040000 		.4byte	0x4c5
 1291 073d 48070000 		.4byte	0x748
 1292 0741 18       		.uleb128 0x18
 1293 0742 37000000 		.4byte	0x37
 1294 0746 3B       		.byte	0x3b
 1295 0747 00       		.byte	0
 1296 0748 19       		.uleb128 0x19
 1297 0749 636800   		.ascii	"ch\000"
 1298 074c 08       		.byte	0x8
 1299 074d 0902     		.2byte	0x209
 1300 074f 3C040000 		.4byte	0x43c
 1301 0753 13       		.uleb128 0x13
 1302 0754 16       		.byte	0x16
 1303 0755 10       		.byte	0x10
 1304 0756 34       		.byte	0x34
 1305 0757 34080000 		.4byte	0x834
 1306 075b 07       		.uleb128 0x7
 1307 075c 81070000 		.4byte	.LASF109
 1308 0760 10       		.byte	0x10
 1309 0761 35       		.byte	0x35
 1310 0762 34080000 		.4byte	0x834
 1311 0766 00       		.byte	0
ARM GAS  /tmp/ccAzQ4P9.s 			page 24


 1312 0767 07       		.uleb128 0x7
 1313 0768 0D040000 		.4byte	.LASF110
 1314 076c 10       		.byte	0x10
 1315 076d 36       		.byte	0x36
 1316 076e AD000000 		.4byte	0xad
 1317 0772 04       		.byte	0x4
 1318 0773 07       		.uleb128 0x7
 1319 0774 2D060000 		.4byte	.LASF111
 1320 0778 10       		.byte	0x10
 1321 0779 37       		.byte	0x37
 1322 077a AD000000 		.4byte	0xad
 1323 077e 05       		.byte	0x5
 1324 077f 07       		.uleb128 0x7
 1325 0780 6C050000 		.4byte	.LASF112
 1326 0784 10       		.byte	0x10
 1327 0785 38       		.byte	0x38
 1328 0786 B8000000 		.4byte	0xb8
 1329 078a 06       		.byte	0x6
 1330 078b 07       		.uleb128 0x7
 1331 078c F6040000 		.4byte	.LASF113
 1332 0790 10       		.byte	0x10
 1333 0791 39       		.byte	0x39
 1334 0792 AD000000 		.4byte	0xad
 1335 0796 08       		.byte	0x8
 1336 0797 07       		.uleb128 0x7
 1337 0798 51040000 		.4byte	.LASF114
 1338 079c 10       		.byte	0x10
 1339 079d 3A       		.byte	0x3a
 1340 079e AD000000 		.4byte	0xad
 1341 07a2 09       		.byte	0x9
 1342 07a3 07       		.uleb128 0x7
 1343 07a4 B1010000 		.4byte	.LASF115
 1344 07a8 10       		.byte	0x10
 1345 07a9 3B       		.byte	0x3b
 1346 07aa AD000000 		.4byte	0xad
 1347 07ae 0A       		.byte	0xa
 1348 07af 07       		.uleb128 0x7
 1349 07b0 09060000 		.4byte	.LASF116
 1350 07b4 10       		.byte	0x10
 1351 07b5 3C       		.byte	0x3c
 1352 07b6 AD000000 		.4byte	0xad
 1353 07ba 0B       		.byte	0xb
 1354 07bb 07       		.uleb128 0x7
 1355 07bc CE060000 		.4byte	.LASF117
 1356 07c0 10       		.byte	0x10
 1357 07c1 3D       		.byte	0x3d
 1358 07c2 AD000000 		.4byte	0xad
 1359 07c6 0C       		.byte	0xc
 1360 07c7 07       		.uleb128 0x7
 1361 07c8 D5050000 		.4byte	.LASF118
 1362 07cc 10       		.byte	0x10
 1363 07cd 3E       		.byte	0x3e
 1364 07ce AD000000 		.4byte	0xad
 1365 07d2 0D       		.byte	0xd
 1366 07d3 07       		.uleb128 0x7
 1367 07d4 00000000 		.4byte	.LASF119
 1368 07d8 10       		.byte	0x10
ARM GAS  /tmp/ccAzQ4P9.s 			page 25


 1369 07d9 3F       		.byte	0x3f
 1370 07da AD000000 		.4byte	0xad
 1371 07de 0E       		.byte	0xe
 1372 07df 07       		.uleb128 0x7
 1373 07e0 76040000 		.4byte	.LASF120
 1374 07e4 10       		.byte	0x10
 1375 07e5 40       		.byte	0x40
 1376 07e6 AD000000 		.4byte	0xad
 1377 07ea 0F       		.byte	0xf
 1378 07eb 07       		.uleb128 0x7
 1379 07ec 40020000 		.4byte	.LASF121
 1380 07f0 10       		.byte	0x10
 1381 07f1 41       		.byte	0x41
 1382 07f2 AD000000 		.4byte	0xad
 1383 07f6 10       		.byte	0x10
 1384 07f7 07       		.uleb128 0x7
 1385 07f8 0E020000 		.4byte	.LASF122
 1386 07fc 10       		.byte	0x10
 1387 07fd 43       		.byte	0x43
 1388 07fe AD000000 		.4byte	0xad
 1389 0802 11       		.byte	0x11
 1390 0803 07       		.uleb128 0x7
 1391 0804 50020000 		.4byte	.LASF123
 1392 0808 10       		.byte	0x10
 1393 0809 44       		.byte	0x44
 1394 080a AD000000 		.4byte	0xad
 1395 080e 12       		.byte	0x12
 1396 080f 07       		.uleb128 0x7
 1397 0810 15040000 		.4byte	.LASF124
 1398 0814 10       		.byte	0x10
 1399 0815 45       		.byte	0x45
 1400 0816 AD000000 		.4byte	0xad
 1401 081a 13       		.byte	0x13
 1402 081b 07       		.uleb128 0x7
 1403 081c 8D050000 		.4byte	.LASF125
 1404 0820 10       		.byte	0x10
 1405 0821 46       		.byte	0x46
 1406 0822 AD000000 		.4byte	0xad
 1407 0826 14       		.byte	0x14
 1408 0827 07       		.uleb128 0x7
 1409 0828 C1030000 		.4byte	.LASF126
 1410 082c 10       		.byte	0x10
 1411 082d 48       		.byte	0x48
 1412 082e AD000000 		.4byte	0xad
 1413 0832 15       		.byte	0x15
 1414 0833 00       		.byte	0
 1415 0834 17       		.uleb128 0x17
 1416 0835 20070000 		.4byte	0x720
 1417 0839 44080000 		.4byte	0x844
 1418 083d 18       		.uleb128 0x18
 1419 083e 37000000 		.4byte	0x37
 1420 0842 03       		.byte	0x3
 1421 0843 00       		.byte	0
 1422 0844 03       		.uleb128 0x3
 1423 0845 AC020000 		.4byte	.LASF127
 1424 0849 10       		.byte	0x10
 1425 084a 49       		.byte	0x49
ARM GAS  /tmp/ccAzQ4P9.s 			page 26


 1426 084b 53070000 		.4byte	0x753
 1427 084f 16       		.uleb128 0x16
 1428 0850 44080000 		.4byte	0x844
 1429 0854 11       		.uleb128 0x11
 1430 0855 6B030000 		.4byte	.LASF128
 1431 0859 10       		.byte	0x10
 1432 085a 6E       		.byte	0x6e
 1433 085b 4F080000 		.4byte	0x84f
 1434 085f 03       		.uleb128 0x3
 1435 0860 F3020000 		.4byte	.LASF129
 1436 0864 0F       		.byte	0xf
 1437 0865 34       		.byte	0x34
 1438 0866 DE060000 		.4byte	0x6de
 1439 086a 0A       		.uleb128 0xa
 1440 086b 04       		.byte	0x4
 1441 086c 5F080000 		.4byte	0x85f
 1442 0870 03       		.uleb128 0x3
 1443 0871 8D010000 		.4byte	.LASF130
 1444 0875 11       		.byte	0x11
 1445 0876 36       		.byte	0x36
 1446 0877 7B080000 		.4byte	0x87b
 1447 087b 0A       		.uleb128 0xa
 1448 087c 04       		.byte	0x4
 1449 087d 81080000 		.4byte	0x881
 1450 0881 1A       		.uleb128 0x1a
 1451 0882 6D030000 		.4byte	0x36d
 1452 0886 90080000 		.4byte	0x890
 1453 088a 0D       		.uleb128 0xd
 1454 088b 2C000000 		.4byte	0x2c
 1455 088f 00       		.byte	0
 1456 0890 06       		.uleb128 0x6
 1457 0891 D9060000 		.4byte	.LASF131
 1458 0895 04       		.byte	0x4
 1459 0896 12       		.byte	0x12
 1460 0897 38       		.byte	0x38
 1461 0898 A9080000 		.4byte	0x8a9
 1462 089c 07       		.uleb128 0x7
 1463 089d E0040000 		.4byte	.LASF132
 1464 08a1 12       		.byte	0x12
 1465 08a2 39       		.byte	0x39
 1466 08a3 A9080000 		.4byte	0x8a9
 1467 08a7 00       		.byte	0
 1468 08a8 00       		.byte	0
 1469 08a9 0A       		.uleb128 0xa
 1470 08aa 04       		.byte	0x4
 1471 08ab 90080000 		.4byte	0x890
 1472 08af 13       		.uleb128 0x13
 1473 08b0 0C       		.byte	0xc
 1474 08b1 12       		.byte	0x12
 1475 08b2 40       		.byte	0x40
 1476 08b3 DC080000 		.4byte	0x8dc
 1477 08b7 07       		.uleb128 0x7
 1478 08b8 B1060000 		.4byte	.LASF133
 1479 08bc 12       		.byte	0x12
 1480 08bd 41       		.byte	0x41
 1481 08be A9080000 		.4byte	0x8a9
 1482 08c2 00       		.byte	0
ARM GAS  /tmp/ccAzQ4P9.s 			page 27


 1483 08c3 07       		.uleb128 0x7
 1484 08c4 96040000 		.4byte	.LASF134
 1485 08c8 12       		.byte	0x12
 1486 08c9 42       		.byte	0x42
 1487 08ca 2C000000 		.4byte	0x2c
 1488 08ce 04       		.byte	0x4
 1489 08cf 07       		.uleb128 0x7
 1490 08d0 D6020000 		.4byte	.LASF135
 1491 08d4 12       		.byte	0x12
 1492 08d5 44       		.byte	0x44
 1493 08d6 70080000 		.4byte	0x870
 1494 08da 08       		.byte	0x8
 1495 08db 00       		.byte	0
 1496 08dc 03       		.uleb128 0x3
 1497 08dd 74030000 		.4byte	.LASF136
 1498 08e1 12       		.byte	0x12
 1499 08e2 46       		.byte	0x46
 1500 08e3 AF080000 		.4byte	0x8af
 1501 08e7 1B       		.uleb128 0x1b
 1502 08e8 15070000 		.4byte	.LASF138
 1503 08ec 01       		.byte	0x1
 1504 08ed C1       		.byte	0xc1
 1505 08ee 01       		.byte	0x1
 1506 08ef 09090000 		.4byte	0x909
 1507 08f3 1C       		.uleb128 0x1c
 1508 08f4 6D7000   		.ascii	"mp\000"
 1509 08f7 01       		.byte	0x1
 1510 08f8 C1       		.byte	0xc1
 1511 08f9 09090000 		.4byte	0x909
 1512 08fd 1D       		.uleb128 0x1d
 1513 08fe AF050000 		.4byte	.LASF137
 1514 0902 01       		.byte	0x1
 1515 0903 C1       		.byte	0xc1
 1516 0904 6D030000 		.4byte	0x36d
 1517 0908 00       		.byte	0
 1518 0909 0A       		.uleb128 0xa
 1519 090a 04       		.byte	0x4
 1520 090b DC080000 		.4byte	0x8dc
 1521 090f 1B       		.uleb128 0x1b
 1522 0910 6A040000 		.4byte	.LASF139
 1523 0914 01       		.byte	0x1
 1524 0915 AB       		.byte	0xab
 1525 0916 01       		.byte	0x1
 1526 0917 49090000 		.4byte	0x949
 1527 091b 1C       		.uleb128 0x1c
 1528 091c 6D7000   		.ascii	"mp\000"
 1529 091f 01       		.byte	0x1
 1530 0920 AB       		.byte	0xab
 1531 0921 09090000 		.4byte	0x909
 1532 0925 1D       		.uleb128 0x1d
 1533 0926 AF050000 		.4byte	.LASF137
 1534 092a 01       		.byte	0x1
 1535 092b AB       		.byte	0xab
 1536 092c 6D030000 		.4byte	0x36d
 1537 0930 1E       		.uleb128 0x1e
 1538 0931 70687000 		.ascii	"php\000"
 1539 0935 01       		.byte	0x1
ARM GAS  /tmp/ccAzQ4P9.s 			page 28


 1540 0936 AC       		.byte	0xac
 1541 0937 A9080000 		.4byte	0x8a9
 1542 093b 1F       		.uleb128 0x1f
 1543 093c 9C050000 		.4byte	.LASF140
 1544 0940 59090000 		.4byte	0x959
 1545 0944 6A040000 		.4byte	.LASF139
 1546 0948 00       		.byte	0
 1547 0949 17       		.uleb128 0x17
 1548 094a 27070000 		.4byte	0x727
 1549 094e 59090000 		.4byte	0x959
 1550 0952 18       		.uleb128 0x18
 1551 0953 37000000 		.4byte	0x37
 1552 0957 0B       		.byte	0xb
 1553 0958 00       		.byte	0
 1554 0959 16       		.uleb128 0x16
 1555 095a 49090000 		.4byte	0x949
 1556 095e 20       		.uleb128 0x20
 1557 095f 09070000 		.4byte	.LASF156
 1558 0963 01       		.byte	0x1
 1559 0964 95       		.byte	0x95
 1560 0965 6D030000 		.4byte	0x36d
 1561 0969 00000000 		.4byte	.LFB222
 1562 096d 20000000 		.4byte	.LFE222-.LFB222
 1563 0971 01       		.uleb128 0x1
 1564 0972 9C       		.byte	0x9c
 1565 0973 4B0A0000 		.4byte	0xa4b
 1566 0977 21       		.uleb128 0x21
 1567 0978 6D7000   		.ascii	"mp\000"
 1568 097b 01       		.byte	0x1
 1569 097c 95       		.byte	0x95
 1570 097d 09090000 		.4byte	0x909
 1571 0981 00000000 		.4byte	.LLST12
 1572 0985 22       		.uleb128 0x22
 1573 0986 AF050000 		.4byte	.LASF137
 1574 098a 01       		.byte	0x1
 1575 098b 96       		.byte	0x96
 1576 098c 6D030000 		.4byte	0x36d
 1577 0990 23       		.uleb128 0x23
 1578 0991 710C0000 		.4byte	0xc71
 1579 0995 04000000 		.4byte	.LBB107
 1580 0999 02000000 		.4byte	.LBE107-.LBB107
 1581 099d 01       		.byte	0x1
 1582 099e 98       		.byte	0x98
 1583 099f C5090000 		.4byte	0x9c5
 1584 09a3 24       		.uleb128 0x24
 1585 09a4 830C0000 		.4byte	0xc83
 1586 09a8 04000000 		.4byte	.LBB108
 1587 09ac 02000000 		.4byte	.LBE108-.LBB108
 1588 09b0 13       		.byte	0x13
 1589 09b1 5C01     		.2byte	0x15c
 1590 09b3 25       		.uleb128 0x25
 1591 09b4 8C0C0000 		.4byte	0xc8c
 1592 09b8 04000000 		.4byte	.LBB109
 1593 09bc 02000000 		.4byte	.LBE109-.LBB109
 1594 09c0 0C       		.byte	0xc
 1595 09c1 C101     		.2byte	0x1c1
 1596 09c3 00       		.byte	0
ARM GAS  /tmp/ccAzQ4P9.s 			page 29


 1597 09c4 00       		.byte	0
 1598 09c5 26       		.uleb128 0x26
 1599 09c6 4B0A0000 		.4byte	0xa4b
 1600 09ca 06000000 		.4byte	.LBB111
 1601 09ce 00000000 		.4byte	.Ldebug_ranges0+0
 1602 09d2 01       		.byte	0x1
 1603 09d3 99       		.byte	0x99
 1604 09d4 130A0000 		.4byte	0xa13
 1605 09d8 27       		.uleb128 0x27
 1606 09d9 5B0A0000 		.4byte	0xa5b
 1607 09dd 2C000000 		.4byte	.LLST13
 1608 09e1 28       		.uleb128 0x28
 1609 09e2 00000000 		.4byte	.Ldebug_ranges0+0
 1610 09e6 29       		.uleb128 0x29
 1611 09e7 BA0C0000 		.4byte	0xcba
 1612 09eb 2A       		.uleb128 0x2a
 1613 09ec 4B0A0000 		.4byte	0xa4b
 1614 09f0 12000000 		.4byte	.LBB113
 1615 09f4 0A000000 		.4byte	.LBE113-.LBB113
 1616 09f8 27       		.uleb128 0x27
 1617 09f9 5B0A0000 		.4byte	0xa5b
 1618 09fd 63000000 		.4byte	.LLST14
 1619 0a01 2B       		.uleb128 0x2b
 1620 0a02 12000000 		.4byte	.LBB114
 1621 0a06 0A000000 		.4byte	.LBE114-.LBB114
 1622 0a0a 29       		.uleb128 0x29
 1623 0a0b BA0C0000 		.4byte	0xcba
 1624 0a0f 00       		.byte	0
 1625 0a10 00       		.byte	0
 1626 0a11 00       		.byte	0
 1627 0a12 00       		.byte	0
 1628 0a13 2C       		.uleb128 0x2c
 1629 0a14 560C0000 		.4byte	0xc56
 1630 0a18 0E000000 		.4byte	.LBB116
 1631 0a1c 18000000 		.4byte	.Ldebug_ranges0+0x18
 1632 0a20 01       		.byte	0x1
 1633 0a21 9A       		.byte	0x9a
 1634 0a22 28       		.uleb128 0x28
 1635 0a23 18000000 		.4byte	.Ldebug_ranges0+0x18
 1636 0a27 2D       		.uleb128 0x2d
 1637 0a28 7A0C0000 		.4byte	0xc7a
 1638 0a2c 0E000000 		.4byte	.LBB118
 1639 0a30 18000000 		.4byte	.Ldebug_ranges0+0x18
 1640 0a34 13       		.byte	0x13
 1641 0a35 7301     		.2byte	0x173
 1642 0a37 2E       		.uleb128 0x2e
 1643 0a38 950C0000 		.4byte	0xc95
 1644 0a3c 0E000000 		.4byte	.LBB119
 1645 0a40 18000000 		.4byte	.Ldebug_ranges0+0x18
 1646 0a44 0C       		.byte	0xc
 1647 0a45 CF01     		.2byte	0x1cf
 1648 0a47 00       		.byte	0
 1649 0a48 00       		.byte	0
 1650 0a49 00       		.byte	0
 1651 0a4a 00       		.byte	0
 1652 0a4b 2F       		.uleb128 0x2f
 1653 0a4c 5D040000 		.4byte	.LASF141
ARM GAS  /tmp/ccAzQ4P9.s 			page 30


 1654 0a50 01       		.byte	0x1
 1655 0a51 78       		.byte	0x78
 1656 0a52 6D030000 		.4byte	0x36d
 1657 0a56 01       		.byte	0x1
 1658 0a57 7E0A0000 		.4byte	0xa7e
 1659 0a5b 1C       		.uleb128 0x1c
 1660 0a5c 6D7000   		.ascii	"mp\000"
 1661 0a5f 01       		.byte	0x1
 1662 0a60 78       		.byte	0x78
 1663 0a61 09090000 		.4byte	0x909
 1664 0a65 22       		.uleb128 0x22
 1665 0a66 AF050000 		.4byte	.LASF137
 1666 0a6a 01       		.byte	0x1
 1667 0a6b 79       		.byte	0x79
 1668 0a6c 6D030000 		.4byte	0x36d
 1669 0a70 1F       		.uleb128 0x1f
 1670 0a71 9C050000 		.4byte	.LASF140
 1671 0a75 8E0A0000 		.4byte	0xa8e
 1672 0a79 5D040000 		.4byte	.LASF141
 1673 0a7d 00       		.byte	0
 1674 0a7e 17       		.uleb128 0x17
 1675 0a7f 27070000 		.4byte	0x727
 1676 0a83 8E0A0000 		.4byte	0xa8e
 1677 0a87 18       		.uleb128 0x18
 1678 0a88 37000000 		.4byte	0x37
 1679 0a8c 0C       		.byte	0xc
 1680 0a8d 00       		.byte	0
 1681 0a8e 16       		.uleb128 0x16
 1682 0a8f 7E0A0000 		.4byte	0xa7e
 1683 0a93 30       		.uleb128 0x30
 1684 0a94 69070000 		.4byte	.LASF142
 1685 0a98 01       		.byte	0x1
 1686 0a99 61       		.byte	0x61
 1687 0a9a 00000000 		.4byte	.LFB220
 1688 0a9e 16000000 		.4byte	.LFE220-.LFB220
 1689 0aa2 01       		.uleb128 0x1
 1690 0aa3 9C       		.byte	0x9c
 1691 0aa4 C50B0000 		.4byte	0xbc5
 1692 0aa8 31       		.uleb128 0x31
 1693 0aa9 6D7000   		.ascii	"mp\000"
 1694 0aac 01       		.byte	0x1
 1695 0aad 61       		.byte	0x61
 1696 0aae 09090000 		.4byte	0x909
 1697 0ab2 01       		.uleb128 0x1
 1698 0ab3 50       		.byte	0x50
 1699 0ab4 21       		.uleb128 0x21
 1700 0ab5 7000     		.ascii	"p\000"
 1701 0ab7 01       		.byte	0x1
 1702 0ab8 61       		.byte	0x61
 1703 0ab9 6D030000 		.4byte	0x36d
 1704 0abd 84000000 		.4byte	.LLST0
 1705 0ac1 21       		.uleb128 0x21
 1706 0ac2 6E00     		.ascii	"n\000"
 1707 0ac4 01       		.byte	0x1
 1708 0ac5 61       		.byte	0x61
 1709 0ac6 2C000000 		.4byte	0x2c
 1710 0aca A2000000 		.4byte	.LLST1
ARM GAS  /tmp/ccAzQ4P9.s 			page 31


 1711 0ace 32       		.uleb128 0x32
 1712 0acf 9C050000 		.4byte	.LASF140
 1713 0ad3 D50B0000 		.4byte	0xbd5
 1714 0ad7 33       		.uleb128 0x33
 1715 0ad8 340C0000 		.4byte	0xc34
 1716 0adc 02000000 		.4byte	.LBB77
 1717 0ae0 0A000000 		.4byte	.LBE77-.LBB77
 1718 0ae4 01       		.byte	0x1
 1719 0ae5 66       		.byte	0x66
 1720 0ae6 27       		.uleb128 0x27
 1721 0ae7 400C0000 		.4byte	0xc40
 1722 0aeb CD000000 		.4byte	.LLST2
 1723 0aef 27       		.uleb128 0x27
 1724 0af0 4A0C0000 		.4byte	0xc4a
 1725 0af4 E0000000 		.4byte	.LLST3
 1726 0af8 33       		.uleb128 0x33
 1727 0af9 E7080000 		.4byte	0x8e7
 1728 0afd 02000000 		.4byte	.LBB78
 1729 0b01 0A000000 		.4byte	.LBE78-.LBB78
 1730 0b05 12       		.byte	0x12
 1731 0b06 8B       		.byte	0x8b
 1732 0b07 27       		.uleb128 0x27
 1733 0b08 FD080000 		.4byte	0x8fd
 1734 0b0c E0000000 		.4byte	.LLST3
 1735 0b10 27       		.uleb128 0x27
 1736 0b11 F3080000 		.4byte	0x8f3
 1737 0b15 F3000000 		.4byte	.LLST5
 1738 0b19 23       		.uleb128 0x23
 1739 0b1a 710C0000 		.4byte	0xc71
 1740 0b1e 02000000 		.4byte	.LBB79
 1741 0b22 02000000 		.4byte	.LBE79-.LBB79
 1742 0b26 01       		.byte	0x1
 1743 0b27 C3       		.byte	0xc3
 1744 0b28 4E0B0000 		.4byte	0xb4e
 1745 0b2c 24       		.uleb128 0x24
 1746 0b2d 830C0000 		.4byte	0xc83
 1747 0b31 02000000 		.4byte	.LBB80
 1748 0b35 02000000 		.4byte	.LBE80-.LBB80
 1749 0b39 13       		.byte	0x13
 1750 0b3a 5C01     		.2byte	0x15c
 1751 0b3c 25       		.uleb128 0x25
 1752 0b3d 8C0C0000 		.4byte	0xc8c
 1753 0b41 02000000 		.4byte	.LBB81
 1754 0b45 02000000 		.4byte	.LBE81-.LBB81
 1755 0b49 0C       		.byte	0xc
 1756 0b4a C101     		.2byte	0x1c1
 1757 0b4c 00       		.byte	0
 1758 0b4d 00       		.byte	0
 1759 0b4e 23       		.uleb128 0x23
 1760 0b4f 0F090000 		.4byte	0x90f
 1761 0b53 04000000 		.4byte	.LBB83
 1762 0b57 06000000 		.4byte	.LBE83-.LBB83
 1763 0b5b 01       		.byte	0x1
 1764 0b5c C4       		.byte	0xc4
 1765 0b5d 870B0000 		.4byte	0xb87
 1766 0b61 27       		.uleb128 0x27
 1767 0b62 25090000 		.4byte	0x925
ARM GAS  /tmp/ccAzQ4P9.s 			page 32


 1768 0b66 06010000 		.4byte	.LLST6
 1769 0b6a 27       		.uleb128 0x27
 1770 0b6b 1B090000 		.4byte	0x91b
 1771 0b6f 19010000 		.4byte	.LLST7
 1772 0b73 2B       		.uleb128 0x2b
 1773 0b74 04000000 		.4byte	.LBB84
 1774 0b78 06000000 		.4byte	.LBE84-.LBB84
 1775 0b7c 34       		.uleb128 0x34
 1776 0b7d 30090000 		.4byte	0x930
 1777 0b81 2C010000 		.4byte	.LLST8
 1778 0b85 00       		.byte	0
 1779 0b86 00       		.byte	0
 1780 0b87 33       		.uleb128 0x33
 1781 0b88 560C0000 		.4byte	0xc56
 1782 0b8c 0A000000 		.4byte	.LBB85
 1783 0b90 02000000 		.4byte	.LBE85-.LBB85
 1784 0b94 01       		.byte	0x1
 1785 0b95 C5       		.byte	0xc5
 1786 0b96 2B       		.uleb128 0x2b
 1787 0b97 0A000000 		.4byte	.LBB86
 1788 0b9b 02000000 		.4byte	.LBE86-.LBB86
 1789 0b9f 24       		.uleb128 0x24
 1790 0ba0 7A0C0000 		.4byte	0xc7a
 1791 0ba4 0A000000 		.4byte	.LBB87
 1792 0ba8 02000000 		.4byte	.LBE87-.LBB87
 1793 0bac 13       		.byte	0x13
 1794 0bad 7301     		.2byte	0x173
 1795 0baf 25       		.uleb128 0x25
 1796 0bb0 950C0000 		.4byte	0xc95
 1797 0bb4 0A000000 		.4byte	.LBB88
 1798 0bb8 02000000 		.4byte	.LBE88-.LBB88
 1799 0bbc 0C       		.byte	0xc
 1800 0bbd CF01     		.2byte	0x1cf
 1801 0bbf 00       		.byte	0
 1802 0bc0 00       		.byte	0
 1803 0bc1 00       		.byte	0
 1804 0bc2 00       		.byte	0
 1805 0bc3 00       		.byte	0
 1806 0bc4 00       		.byte	0
 1807 0bc5 17       		.uleb128 0x17
 1808 0bc6 27070000 		.4byte	0x727
 1809 0bca D50B0000 		.4byte	0xbd5
 1810 0bce 18       		.uleb128 0x18
 1811 0bcf 37000000 		.4byte	0x37
 1812 0bd3 0F       		.byte	0xf
 1813 0bd4 00       		.byte	0
 1814 0bd5 16       		.uleb128 0x16
 1815 0bd6 C50B0000 		.4byte	0xbc5
 1816 0bda 30       		.uleb128 0x30
 1817 0bdb CD030000 		.4byte	.LASF143
 1818 0bdf 01       		.byte	0x1
 1819 0be0 4B       		.byte	0x4b
 1820 0be1 00000000 		.4byte	.LFB219
 1821 0be5 0A000000 		.4byte	.LFE219-.LFB219
 1822 0be9 01       		.uleb128 0x1
 1823 0bea 9C       		.byte	0x9c
 1824 0beb 1F0C0000 		.4byte	0xc1f
ARM GAS  /tmp/ccAzQ4P9.s 			page 33


 1825 0bef 31       		.uleb128 0x31
 1826 0bf0 6D7000   		.ascii	"mp\000"
 1827 0bf3 01       		.byte	0x1
 1828 0bf4 4B       		.byte	0x4b
 1829 0bf5 09090000 		.4byte	0x909
 1830 0bf9 01       		.uleb128 0x1
 1831 0bfa 50       		.byte	0x50
 1832 0bfb 35       		.uleb128 0x35
 1833 0bfc 41070000 		.4byte	.LASF144
 1834 0c00 01       		.byte	0x1
 1835 0c01 4B       		.byte	0x4b
 1836 0c02 2C000000 		.4byte	0x2c
 1837 0c06 01       		.uleb128 0x1
 1838 0c07 51       		.byte	0x51
 1839 0c08 35       		.uleb128 0x35
 1840 0c09 56000000 		.4byte	.LASF145
 1841 0c0d 01       		.byte	0x1
 1842 0c0e 4B       		.byte	0x4b
 1843 0c0f 70080000 		.4byte	0x870
 1844 0c13 01       		.uleb128 0x1
 1845 0c14 52       		.byte	0x52
 1846 0c15 32       		.uleb128 0x32
 1847 0c16 9C050000 		.4byte	.LASF140
 1848 0c1a 2F0C0000 		.4byte	0xc2f
 1849 0c1e 00       		.byte	0
 1850 0c1f 17       		.uleb128 0x17
 1851 0c20 27070000 		.4byte	0x727
 1852 0c24 2F0C0000 		.4byte	0xc2f
 1853 0c28 18       		.uleb128 0x18
 1854 0c29 37000000 		.4byte	0x37
 1855 0c2d 10       		.byte	0x10
 1856 0c2e 00       		.byte	0
 1857 0c2f 16       		.uleb128 0x16
 1858 0c30 1F0C0000 		.4byte	0xc1f
 1859 0c34 36       		.uleb128 0x36
 1860 0c35 B7030000 		.4byte	.LASF146
 1861 0c39 12       		.byte	0x12
 1862 0c3a 89       		.byte	0x89
 1863 0c3b 03       		.byte	0x3
 1864 0c3c 560C0000 		.4byte	0xc56
 1865 0c40 1C       		.uleb128 0x1c
 1866 0c41 6D7000   		.ascii	"mp\000"
 1867 0c44 12       		.byte	0x12
 1868 0c45 89       		.byte	0x89
 1869 0c46 09090000 		.4byte	0x909
 1870 0c4a 1D       		.uleb128 0x1d
 1871 0c4b AF050000 		.4byte	.LASF137
 1872 0c4f 12       		.byte	0x12
 1873 0c50 89       		.byte	0x89
 1874 0c51 6D030000 		.4byte	0x36d
 1875 0c55 00       		.byte	0
 1876 0c56 37       		.uleb128 0x37
 1877 0c57 5D070000 		.4byte	.LASF147
 1878 0c5b 13       		.byte	0x13
 1879 0c5c 6601     		.2byte	0x166
 1880 0c5e 03       		.byte	0x3
 1881 0c5f 710C0000 		.4byte	0xc71
ARM GAS  /tmp/ccAzQ4P9.s 			page 34


 1882 0c63 1F       		.uleb128 0x1f
 1883 0c64 9C050000 		.4byte	.LASF140
 1884 0c68 59090000 		.4byte	0x959
 1885 0c6c 5D070000 		.4byte	.LASF147
 1886 0c70 00       		.byte	0
 1887 0c71 38       		.uleb128 0x38
 1888 0c72 A5050000 		.4byte	.LASF148
 1889 0c76 13       		.byte	0x13
 1890 0c77 5A01     		.2byte	0x15a
 1891 0c79 03       		.byte	0x3
 1892 0c7a 38       		.uleb128 0x38
 1893 0c7b 74020000 		.4byte	.LASF149
 1894 0c7f 0C       		.byte	0xc
 1895 0c80 CA01     		.2byte	0x1ca
 1896 0c82 03       		.byte	0x3
 1897 0c83 38       		.uleb128 0x38
 1898 0c84 83010000 		.4byte	.LASF150
 1899 0c88 0C       		.byte	0xc
 1900 0c89 BC01     		.2byte	0x1bc
 1901 0c8b 03       		.byte	0x3
 1902 0c8c 38       		.uleb128 0x38
 1903 0c8d E8040000 		.4byte	.LASF151
 1904 0c91 02       		.byte	0x2
 1905 0c92 5401     		.2byte	0x154
 1906 0c94 03       		.byte	0x3
 1907 0c95 38       		.uleb128 0x38
 1908 0c96 C8040000 		.4byte	.LASF152
 1909 0c9a 02       		.byte	0x2
 1910 0c9b 4901     		.2byte	0x149
 1911 0c9d 03       		.byte	0x3
 1912 0c9e 39       		.uleb128 0x39
 1913 0c9f 4B0A0000 		.4byte	0xa4b
 1914 0ca3 00000000 		.4byte	.LFB221
 1915 0ca7 16000000 		.4byte	.LFE221-.LFB221
 1916 0cab 01       		.uleb128 0x1
 1917 0cac 9C       		.byte	0x9c
 1918 0cad EA0C0000 		.4byte	0xcea
 1919 0cb1 27       		.uleb128 0x27
 1920 0cb2 5B0A0000 		.4byte	0xa5b
 1921 0cb6 4B010000 		.4byte	.LLST9
 1922 0cba 34       		.uleb128 0x34
 1923 0cbb 650A0000 		.4byte	0xa65
 1924 0cbf 85010000 		.4byte	.LLST10
 1925 0cc3 2A       		.uleb128 0x2a
 1926 0cc4 4B0A0000 		.4byte	0xa4b
 1927 0cc8 0C000000 		.4byte	.LBB92
 1928 0ccc 0A000000 		.4byte	.LBE92-.LBB92
 1929 0cd0 27       		.uleb128 0x27
 1930 0cd1 5B0A0000 		.4byte	0xa5b
 1931 0cd5 98010000 		.4byte	.LLST11
 1932 0cd9 2B       		.uleb128 0x2b
 1933 0cda 0C000000 		.4byte	.LBB93
 1934 0cde 0A000000 		.4byte	.LBE93-.LBB93
 1935 0ce2 29       		.uleb128 0x29
 1936 0ce3 BA0C0000 		.4byte	0xcba
 1937 0ce7 00       		.byte	0
 1938 0ce8 00       		.byte	0
ARM GAS  /tmp/ccAzQ4P9.s 			page 35


 1939 0ce9 00       		.byte	0
 1940 0cea 3A       		.uleb128 0x3a
 1941 0ceb 0F090000 		.4byte	0x90f
 1942 0cef 00000000 		.4byte	.LFB223
 1943 0cf3 08000000 		.4byte	.LFE223-.LFB223
 1944 0cf7 01       		.uleb128 0x1
 1945 0cf8 9C       		.byte	0x9c
 1946 0cf9 130D0000 		.4byte	0xd13
 1947 0cfd 3B       		.uleb128 0x3b
 1948 0cfe 1B090000 		.4byte	0x91b
 1949 0d02 01       		.uleb128 0x1
 1950 0d03 50       		.byte	0x50
 1951 0d04 3B       		.uleb128 0x3b
 1952 0d05 25090000 		.4byte	0x925
 1953 0d09 01       		.uleb128 0x1
 1954 0d0a 51       		.byte	0x51
 1955 0d0b 3C       		.uleb128 0x3c
 1956 0d0c 30090000 		.4byte	0x930
 1957 0d10 01       		.uleb128 0x1
 1958 0d11 51       		.byte	0x51
 1959 0d12 00       		.byte	0
 1960 0d13 3D       		.uleb128 0x3d
 1961 0d14 E7080000 		.4byte	0x8e7
 1962 0d18 00000000 		.4byte	.LFB224
 1963 0d1c 0C000000 		.4byte	.LFE224-.LFB224
 1964 0d20 01       		.uleb128 0x1
 1965 0d21 9C       		.byte	0x9c
 1966 0d22 3B       		.uleb128 0x3b
 1967 0d23 F3080000 		.4byte	0x8f3
 1968 0d27 01       		.uleb128 0x1
 1969 0d28 50       		.byte	0x50
 1970 0d29 3B       		.uleb128 0x3b
 1971 0d2a FD080000 		.4byte	0x8fd
 1972 0d2e 01       		.uleb128 0x1
 1973 0d2f 51       		.byte	0x51
 1974 0d30 23       		.uleb128 0x23
 1975 0d31 710C0000 		.4byte	0xc71
 1976 0d35 00000000 		.4byte	.LBB127
 1977 0d39 02000000 		.4byte	.LBE127-.LBB127
 1978 0d3d 01       		.byte	0x1
 1979 0d3e C3       		.byte	0xc3
 1980 0d3f 650D0000 		.4byte	0xd65
 1981 0d43 24       		.uleb128 0x24
 1982 0d44 830C0000 		.4byte	0xc83
 1983 0d48 00000000 		.4byte	.LBB128
 1984 0d4c 02000000 		.4byte	.LBE128-.LBB128
 1985 0d50 13       		.byte	0x13
 1986 0d51 5C01     		.2byte	0x15c
 1987 0d53 25       		.uleb128 0x25
 1988 0d54 8C0C0000 		.4byte	0xc8c
 1989 0d58 00000000 		.4byte	.LBB129
 1990 0d5c 02000000 		.4byte	.LBE129-.LBB129
 1991 0d60 0C       		.byte	0xc
 1992 0d61 C101     		.2byte	0x1c1
 1993 0d63 00       		.byte	0
 1994 0d64 00       		.byte	0
 1995 0d65 23       		.uleb128 0x23
ARM GAS  /tmp/ccAzQ4P9.s 			page 36


 1996 0d66 0F090000 		.4byte	0x90f
 1997 0d6a 02000000 		.4byte	.LBB131
 1998 0d6e 06000000 		.4byte	.LBE131-.LBB131
 1999 0d72 01       		.byte	0x1
 2000 0d73 C4       		.byte	0xc4
 2001 0d74 9A0D0000 		.4byte	0xd9a
 2002 0d78 27       		.uleb128 0x27
 2003 0d79 25090000 		.4byte	0x925
 2004 0d7d B9010000 		.4byte	.LLST15
 2005 0d81 27       		.uleb128 0x27
 2006 0d82 1B090000 		.4byte	0x91b
 2007 0d86 CC010000 		.4byte	.LLST16
 2008 0d8a 2B       		.uleb128 0x2b
 2009 0d8b 02000000 		.4byte	.LBB132
 2010 0d8f 06000000 		.4byte	.LBE132-.LBB132
 2011 0d93 29       		.uleb128 0x29
 2012 0d94 0B0D0000 		.4byte	0xd0b
 2013 0d98 00       		.byte	0
 2014 0d99 00       		.byte	0
 2015 0d9a 33       		.uleb128 0x33
 2016 0d9b 560C0000 		.4byte	0xc56
 2017 0d9f 08000000 		.4byte	.LBB133
 2018 0da3 02000000 		.4byte	.LBE133-.LBB133
 2019 0da7 01       		.byte	0x1
 2020 0da8 C5       		.byte	0xc5
 2021 0da9 2B       		.uleb128 0x2b
 2022 0daa 08000000 		.4byte	.LBB134
 2023 0dae 02000000 		.4byte	.LBE134-.LBB134
 2024 0db2 24       		.uleb128 0x24
 2025 0db3 7A0C0000 		.4byte	0xc7a
 2026 0db7 08000000 		.4byte	.LBB135
 2027 0dbb 02000000 		.4byte	.LBE135-.LBB135
 2028 0dbf 13       		.byte	0x13
 2029 0dc0 7301     		.2byte	0x173
 2030 0dc2 25       		.uleb128 0x25
 2031 0dc3 950C0000 		.4byte	0xc95
 2032 0dc7 08000000 		.4byte	.LBB136
 2033 0dcb 02000000 		.4byte	.LBE136-.LBB136
 2034 0dcf 0C       		.byte	0xc
 2035 0dd0 CF01     		.2byte	0x1cf
 2036 0dd2 00       		.byte	0
 2037 0dd3 00       		.byte	0
 2038 0dd4 00       		.byte	0
 2039 0dd5 00       		.byte	0
 2040 0dd6 00       		.byte	0
 2041              		.section	.debug_abbrev,"",%progbits
 2042              	.Ldebug_abbrev0:
 2043 0000 01       		.uleb128 0x1
 2044 0001 11       		.uleb128 0x11
 2045 0002 01       		.byte	0x1
 2046 0003 25       		.uleb128 0x25
 2047 0004 0E       		.uleb128 0xe
 2048 0005 13       		.uleb128 0x13
 2049 0006 0B       		.uleb128 0xb
 2050 0007 03       		.uleb128 0x3
 2051 0008 0E       		.uleb128 0xe
 2052 0009 1B       		.uleb128 0x1b
ARM GAS  /tmp/ccAzQ4P9.s 			page 37


 2053 000a 0E       		.uleb128 0xe
 2054 000b 55       		.uleb128 0x55
 2055 000c 17       		.uleb128 0x17
 2056 000d 11       		.uleb128 0x11
 2057 000e 01       		.uleb128 0x1
 2058 000f 10       		.uleb128 0x10
 2059 0010 17       		.uleb128 0x17
 2060 0011 00       		.byte	0
 2061 0012 00       		.byte	0
 2062 0013 02       		.uleb128 0x2
 2063 0014 24       		.uleb128 0x24
 2064 0015 00       		.byte	0
 2065 0016 0B       		.uleb128 0xb
 2066 0017 0B       		.uleb128 0xb
 2067 0018 3E       		.uleb128 0x3e
 2068 0019 0B       		.uleb128 0xb
 2069 001a 03       		.uleb128 0x3
 2070 001b 08       		.uleb128 0x8
 2071 001c 00       		.byte	0
 2072 001d 00       		.byte	0
 2073 001e 03       		.uleb128 0x3
 2074 001f 16       		.uleb128 0x16
 2075 0020 00       		.byte	0
 2076 0021 03       		.uleb128 0x3
 2077 0022 0E       		.uleb128 0xe
 2078 0023 3A       		.uleb128 0x3a
 2079 0024 0B       		.uleb128 0xb
 2080 0025 3B       		.uleb128 0x3b
 2081 0026 0B       		.uleb128 0xb
 2082 0027 49       		.uleb128 0x49
 2083 0028 13       		.uleb128 0x13
 2084 0029 00       		.byte	0
 2085 002a 00       		.byte	0
 2086 002b 04       		.uleb128 0x4
 2087 002c 24       		.uleb128 0x24
 2088 002d 00       		.byte	0
 2089 002e 0B       		.uleb128 0xb
 2090 002f 0B       		.uleb128 0xb
 2091 0030 3E       		.uleb128 0x3e
 2092 0031 0B       		.uleb128 0xb
 2093 0032 03       		.uleb128 0x3
 2094 0033 0E       		.uleb128 0xe
 2095 0034 00       		.byte	0
 2096 0035 00       		.byte	0
 2097 0036 05       		.uleb128 0x5
 2098 0037 35       		.uleb128 0x35
 2099 0038 00       		.byte	0
 2100 0039 49       		.uleb128 0x49
 2101 003a 13       		.uleb128 0x13
 2102 003b 00       		.byte	0
 2103 003c 00       		.byte	0
 2104 003d 06       		.uleb128 0x6
 2105 003e 13       		.uleb128 0x13
 2106 003f 01       		.byte	0x1
 2107 0040 03       		.uleb128 0x3
 2108 0041 0E       		.uleb128 0xe
 2109 0042 0B       		.uleb128 0xb
ARM GAS  /tmp/ccAzQ4P9.s 			page 38


 2110 0043 0B       		.uleb128 0xb
 2111 0044 3A       		.uleb128 0x3a
 2112 0045 0B       		.uleb128 0xb
 2113 0046 3B       		.uleb128 0x3b
 2114 0047 0B       		.uleb128 0xb
 2115 0048 01       		.uleb128 0x1
 2116 0049 13       		.uleb128 0x13
 2117 004a 00       		.byte	0
 2118 004b 00       		.byte	0
 2119 004c 07       		.uleb128 0x7
 2120 004d 0D       		.uleb128 0xd
 2121 004e 00       		.byte	0
 2122 004f 03       		.uleb128 0x3
 2123 0050 0E       		.uleb128 0xe
 2124 0051 3A       		.uleb128 0x3a
 2125 0052 0B       		.uleb128 0xb
 2126 0053 3B       		.uleb128 0x3b
 2127 0054 0B       		.uleb128 0xb
 2128 0055 49       		.uleb128 0x49
 2129 0056 13       		.uleb128 0x13
 2130 0057 38       		.uleb128 0x38
 2131 0058 0B       		.uleb128 0xb
 2132 0059 00       		.byte	0
 2133 005a 00       		.byte	0
 2134 005b 08       		.uleb128 0x8
 2135 005c 0D       		.uleb128 0xd
 2136 005d 00       		.byte	0
 2137 005e 03       		.uleb128 0x3
 2138 005f 08       		.uleb128 0x8
 2139 0060 3A       		.uleb128 0x3a
 2140 0061 0B       		.uleb128 0xb
 2141 0062 3B       		.uleb128 0x3b
 2142 0063 05       		.uleb128 0x5
 2143 0064 49       		.uleb128 0x49
 2144 0065 13       		.uleb128 0x13
 2145 0066 38       		.uleb128 0x38
 2146 0067 0B       		.uleb128 0xb
 2147 0068 00       		.byte	0
 2148 0069 00       		.byte	0
 2149 006a 09       		.uleb128 0x9
 2150 006b 0D       		.uleb128 0xd
 2151 006c 00       		.byte	0
 2152 006d 03       		.uleb128 0x3
 2153 006e 0E       		.uleb128 0xe
 2154 006f 3A       		.uleb128 0x3a
 2155 0070 0B       		.uleb128 0xb
 2156 0071 3B       		.uleb128 0x3b
 2157 0072 05       		.uleb128 0x5
 2158 0073 49       		.uleb128 0x49
 2159 0074 13       		.uleb128 0x13
 2160 0075 38       		.uleb128 0x38
 2161 0076 0B       		.uleb128 0xb
 2162 0077 00       		.byte	0
 2163 0078 00       		.byte	0
 2164 0079 0A       		.uleb128 0xa
 2165 007a 0F       		.uleb128 0xf
 2166 007b 00       		.byte	0
ARM GAS  /tmp/ccAzQ4P9.s 			page 39


 2167 007c 0B       		.uleb128 0xb
 2168 007d 0B       		.uleb128 0xb
 2169 007e 49       		.uleb128 0x49
 2170 007f 13       		.uleb128 0x13
 2171 0080 00       		.byte	0
 2172 0081 00       		.byte	0
 2173 0082 0B       		.uleb128 0xb
 2174 0083 13       		.uleb128 0x13
 2175 0084 01       		.byte	0x1
 2176 0085 03       		.uleb128 0x3
 2177 0086 0E       		.uleb128 0xe
 2178 0087 0B       		.uleb128 0xb
 2179 0088 0B       		.uleb128 0xb
 2180 0089 3A       		.uleb128 0x3a
 2181 008a 0B       		.uleb128 0xb
 2182 008b 3B       		.uleb128 0x3b
 2183 008c 05       		.uleb128 0x5
 2184 008d 01       		.uleb128 0x1
 2185 008e 13       		.uleb128 0x13
 2186 008f 00       		.byte	0
 2187 0090 00       		.byte	0
 2188 0091 0C       		.uleb128 0xc
 2189 0092 15       		.uleb128 0x15
 2190 0093 01       		.byte	0x1
 2191 0094 27       		.uleb128 0x27
 2192 0095 19       		.uleb128 0x19
 2193 0096 01       		.uleb128 0x1
 2194 0097 13       		.uleb128 0x13
 2195 0098 00       		.byte	0
 2196 0099 00       		.byte	0
 2197 009a 0D       		.uleb128 0xd
 2198 009b 05       		.uleb128 0x5
 2199 009c 00       		.byte	0
 2200 009d 49       		.uleb128 0x49
 2201 009e 13       		.uleb128 0x13
 2202 009f 00       		.byte	0
 2203 00a0 00       		.byte	0
 2204 00a1 0E       		.uleb128 0xe
 2205 00a2 0F       		.uleb128 0xf
 2206 00a3 00       		.byte	0
 2207 00a4 0B       		.uleb128 0xb
 2208 00a5 0B       		.uleb128 0xb
 2209 00a6 00       		.byte	0
 2210 00a7 00       		.byte	0
 2211 00a8 0F       		.uleb128 0xf
 2212 00a9 13       		.uleb128 0x13
 2213 00aa 01       		.byte	0x1
 2214 00ab 03       		.uleb128 0x3
 2215 00ac 0E       		.uleb128 0xe
 2216 00ad 0B       		.uleb128 0xb
 2217 00ae 05       		.uleb128 0x5
 2218 00af 3A       		.uleb128 0x3a
 2219 00b0 0B       		.uleb128 0xb
 2220 00b1 3B       		.uleb128 0x3b
 2221 00b2 05       		.uleb128 0x5
 2222 00b3 01       		.uleb128 0x1
 2223 00b4 13       		.uleb128 0x13
ARM GAS  /tmp/ccAzQ4P9.s 			page 40


 2224 00b5 00       		.byte	0
 2225 00b6 00       		.byte	0
 2226 00b7 10       		.uleb128 0x10
 2227 00b8 34       		.uleb128 0x34
 2228 00b9 00       		.byte	0
 2229 00ba 03       		.uleb128 0x3
 2230 00bb 0E       		.uleb128 0xe
 2231 00bc 3A       		.uleb128 0x3a
 2232 00bd 0B       		.uleb128 0xb
 2233 00be 3B       		.uleb128 0x3b
 2234 00bf 05       		.uleb128 0x5
 2235 00c0 49       		.uleb128 0x49
 2236 00c1 13       		.uleb128 0x13
 2237 00c2 3F       		.uleb128 0x3f
 2238 00c3 19       		.uleb128 0x19
 2239 00c4 3C       		.uleb128 0x3c
 2240 00c5 19       		.uleb128 0x19
 2241 00c6 00       		.byte	0
 2242 00c7 00       		.byte	0
 2243 00c8 11       		.uleb128 0x11
 2244 00c9 34       		.uleb128 0x34
 2245 00ca 00       		.byte	0
 2246 00cb 03       		.uleb128 0x3
 2247 00cc 0E       		.uleb128 0xe
 2248 00cd 3A       		.uleb128 0x3a
 2249 00ce 0B       		.uleb128 0xb
 2250 00cf 3B       		.uleb128 0x3b
 2251 00d0 0B       		.uleb128 0xb
 2252 00d1 49       		.uleb128 0x49
 2253 00d2 13       		.uleb128 0x13
 2254 00d3 3F       		.uleb128 0x3f
 2255 00d4 19       		.uleb128 0x19
 2256 00d5 3C       		.uleb128 0x3c
 2257 00d6 19       		.uleb128 0x19
 2258 00d7 00       		.byte	0
 2259 00d8 00       		.byte	0
 2260 00d9 12       		.uleb128 0x12
 2261 00da 0D       		.uleb128 0xd
 2262 00db 00       		.byte	0
 2263 00dc 03       		.uleb128 0x3
 2264 00dd 08       		.uleb128 0x8
 2265 00de 3A       		.uleb128 0x3a
 2266 00df 0B       		.uleb128 0xb
 2267 00e0 3B       		.uleb128 0x3b
 2268 00e1 0B       		.uleb128 0xb
 2269 00e2 49       		.uleb128 0x49
 2270 00e3 13       		.uleb128 0x13
 2271 00e4 38       		.uleb128 0x38
 2272 00e5 0B       		.uleb128 0xb
 2273 00e6 00       		.byte	0
 2274 00e7 00       		.byte	0
 2275 00e8 13       		.uleb128 0x13
 2276 00e9 13       		.uleb128 0x13
 2277 00ea 01       		.byte	0x1
 2278 00eb 0B       		.uleb128 0xb
 2279 00ec 0B       		.uleb128 0xb
 2280 00ed 3A       		.uleb128 0x3a
ARM GAS  /tmp/ccAzQ4P9.s 			page 41


 2281 00ee 0B       		.uleb128 0xb
 2282 00ef 3B       		.uleb128 0x3b
 2283 00f0 0B       		.uleb128 0xb
 2284 00f1 01       		.uleb128 0x1
 2285 00f2 13       		.uleb128 0x13
 2286 00f3 00       		.byte	0
 2287 00f4 00       		.byte	0
 2288 00f5 14       		.uleb128 0x14
 2289 00f6 17       		.uleb128 0x17
 2290 00f7 01       		.byte	0x1
 2291 00f8 0B       		.uleb128 0xb
 2292 00f9 0B       		.uleb128 0xb
 2293 00fa 3A       		.uleb128 0x3a
 2294 00fb 0B       		.uleb128 0xb
 2295 00fc 3B       		.uleb128 0x3b
 2296 00fd 0B       		.uleb128 0xb
 2297 00fe 01       		.uleb128 0x1
 2298 00ff 13       		.uleb128 0x13
 2299 0100 00       		.byte	0
 2300 0101 00       		.byte	0
 2301 0102 15       		.uleb128 0x15
 2302 0103 0D       		.uleb128 0xd
 2303 0104 00       		.byte	0
 2304 0105 03       		.uleb128 0x3
 2305 0106 0E       		.uleb128 0xe
 2306 0107 3A       		.uleb128 0x3a
 2307 0108 0B       		.uleb128 0xb
 2308 0109 3B       		.uleb128 0x3b
 2309 010a 05       		.uleb128 0x5
 2310 010b 49       		.uleb128 0x49
 2311 010c 13       		.uleb128 0x13
 2312 010d 00       		.byte	0
 2313 010e 00       		.byte	0
 2314 010f 16       		.uleb128 0x16
 2315 0110 26       		.uleb128 0x26
 2316 0111 00       		.byte	0
 2317 0112 49       		.uleb128 0x49
 2318 0113 13       		.uleb128 0x13
 2319 0114 00       		.byte	0
 2320 0115 00       		.byte	0
 2321 0116 17       		.uleb128 0x17
 2322 0117 01       		.uleb128 0x1
 2323 0118 01       		.byte	0x1
 2324 0119 49       		.uleb128 0x49
 2325 011a 13       		.uleb128 0x13
 2326 011b 01       		.uleb128 0x1
 2327 011c 13       		.uleb128 0x13
 2328 011d 00       		.byte	0
 2329 011e 00       		.byte	0
 2330 011f 18       		.uleb128 0x18
 2331 0120 21       		.uleb128 0x21
 2332 0121 00       		.byte	0
 2333 0122 49       		.uleb128 0x49
 2334 0123 13       		.uleb128 0x13
 2335 0124 2F       		.uleb128 0x2f
 2336 0125 0B       		.uleb128 0xb
 2337 0126 00       		.byte	0
ARM GAS  /tmp/ccAzQ4P9.s 			page 42


 2338 0127 00       		.byte	0
 2339 0128 19       		.uleb128 0x19
 2340 0129 34       		.uleb128 0x34
 2341 012a 00       		.byte	0
 2342 012b 03       		.uleb128 0x3
 2343 012c 08       		.uleb128 0x8
 2344 012d 3A       		.uleb128 0x3a
 2345 012e 0B       		.uleb128 0xb
 2346 012f 3B       		.uleb128 0x3b
 2347 0130 05       		.uleb128 0x5
 2348 0131 49       		.uleb128 0x49
 2349 0132 13       		.uleb128 0x13
 2350 0133 3F       		.uleb128 0x3f
 2351 0134 19       		.uleb128 0x19
 2352 0135 3C       		.uleb128 0x3c
 2353 0136 19       		.uleb128 0x19
 2354 0137 00       		.byte	0
 2355 0138 00       		.byte	0
 2356 0139 1A       		.uleb128 0x1a
 2357 013a 15       		.uleb128 0x15
 2358 013b 01       		.byte	0x1
 2359 013c 27       		.uleb128 0x27
 2360 013d 19       		.uleb128 0x19
 2361 013e 49       		.uleb128 0x49
 2362 013f 13       		.uleb128 0x13
 2363 0140 01       		.uleb128 0x1
 2364 0141 13       		.uleb128 0x13
 2365 0142 00       		.byte	0
 2366 0143 00       		.byte	0
 2367 0144 1B       		.uleb128 0x1b
 2368 0145 2E       		.uleb128 0x2e
 2369 0146 01       		.byte	0x1
 2370 0147 3F       		.uleb128 0x3f
 2371 0148 19       		.uleb128 0x19
 2372 0149 03       		.uleb128 0x3
 2373 014a 0E       		.uleb128 0xe
 2374 014b 3A       		.uleb128 0x3a
 2375 014c 0B       		.uleb128 0xb
 2376 014d 3B       		.uleb128 0x3b
 2377 014e 0B       		.uleb128 0xb
 2378 014f 27       		.uleb128 0x27
 2379 0150 19       		.uleb128 0x19
 2380 0151 20       		.uleb128 0x20
 2381 0152 0B       		.uleb128 0xb
 2382 0153 01       		.uleb128 0x1
 2383 0154 13       		.uleb128 0x13
 2384 0155 00       		.byte	0
 2385 0156 00       		.byte	0
 2386 0157 1C       		.uleb128 0x1c
 2387 0158 05       		.uleb128 0x5
 2388 0159 00       		.byte	0
 2389 015a 03       		.uleb128 0x3
 2390 015b 08       		.uleb128 0x8
 2391 015c 3A       		.uleb128 0x3a
 2392 015d 0B       		.uleb128 0xb
 2393 015e 3B       		.uleb128 0x3b
 2394 015f 0B       		.uleb128 0xb
ARM GAS  /tmp/ccAzQ4P9.s 			page 43


 2395 0160 49       		.uleb128 0x49
 2396 0161 13       		.uleb128 0x13
 2397 0162 00       		.byte	0
 2398 0163 00       		.byte	0
 2399 0164 1D       		.uleb128 0x1d
 2400 0165 05       		.uleb128 0x5
 2401 0166 00       		.byte	0
 2402 0167 03       		.uleb128 0x3
 2403 0168 0E       		.uleb128 0xe
 2404 0169 3A       		.uleb128 0x3a
 2405 016a 0B       		.uleb128 0xb
 2406 016b 3B       		.uleb128 0x3b
 2407 016c 0B       		.uleb128 0xb
 2408 016d 49       		.uleb128 0x49
 2409 016e 13       		.uleb128 0x13
 2410 016f 00       		.byte	0
 2411 0170 00       		.byte	0
 2412 0171 1E       		.uleb128 0x1e
 2413 0172 34       		.uleb128 0x34
 2414 0173 00       		.byte	0
 2415 0174 03       		.uleb128 0x3
 2416 0175 08       		.uleb128 0x8
 2417 0176 3A       		.uleb128 0x3a
 2418 0177 0B       		.uleb128 0xb
 2419 0178 3B       		.uleb128 0x3b
 2420 0179 0B       		.uleb128 0xb
 2421 017a 49       		.uleb128 0x49
 2422 017b 13       		.uleb128 0x13
 2423 017c 00       		.byte	0
 2424 017d 00       		.byte	0
 2425 017e 1F       		.uleb128 0x1f
 2426 017f 34       		.uleb128 0x34
 2427 0180 00       		.byte	0
 2428 0181 03       		.uleb128 0x3
 2429 0182 0E       		.uleb128 0xe
 2430 0183 49       		.uleb128 0x49
 2431 0184 13       		.uleb128 0x13
 2432 0185 34       		.uleb128 0x34
 2433 0186 19       		.uleb128 0x19
 2434 0187 1C       		.uleb128 0x1c
 2435 0188 0E       		.uleb128 0xe
 2436 0189 00       		.byte	0
 2437 018a 00       		.byte	0
 2438 018b 20       		.uleb128 0x20
 2439 018c 2E       		.uleb128 0x2e
 2440 018d 01       		.byte	0x1
 2441 018e 3F       		.uleb128 0x3f
 2442 018f 19       		.uleb128 0x19
 2443 0190 03       		.uleb128 0x3
 2444 0191 0E       		.uleb128 0xe
 2445 0192 3A       		.uleb128 0x3a
 2446 0193 0B       		.uleb128 0xb
 2447 0194 3B       		.uleb128 0x3b
 2448 0195 0B       		.uleb128 0xb
 2449 0196 27       		.uleb128 0x27
 2450 0197 19       		.uleb128 0x19
 2451 0198 49       		.uleb128 0x49
ARM GAS  /tmp/ccAzQ4P9.s 			page 44


 2452 0199 13       		.uleb128 0x13
 2453 019a 11       		.uleb128 0x11
 2454 019b 01       		.uleb128 0x1
 2455 019c 12       		.uleb128 0x12
 2456 019d 06       		.uleb128 0x6
 2457 019e 40       		.uleb128 0x40
 2458 019f 18       		.uleb128 0x18
 2459 01a0 9642     		.uleb128 0x2116
 2460 01a2 19       		.uleb128 0x19
 2461 01a3 01       		.uleb128 0x1
 2462 01a4 13       		.uleb128 0x13
 2463 01a5 00       		.byte	0
 2464 01a6 00       		.byte	0
 2465 01a7 21       		.uleb128 0x21
 2466 01a8 05       		.uleb128 0x5
 2467 01a9 00       		.byte	0
 2468 01aa 03       		.uleb128 0x3
 2469 01ab 08       		.uleb128 0x8
 2470 01ac 3A       		.uleb128 0x3a
 2471 01ad 0B       		.uleb128 0xb
 2472 01ae 3B       		.uleb128 0x3b
 2473 01af 0B       		.uleb128 0xb
 2474 01b0 49       		.uleb128 0x49
 2475 01b1 13       		.uleb128 0x13
 2476 01b2 02       		.uleb128 0x2
 2477 01b3 17       		.uleb128 0x17
 2478 01b4 00       		.byte	0
 2479 01b5 00       		.byte	0
 2480 01b6 22       		.uleb128 0x22
 2481 01b7 34       		.uleb128 0x34
 2482 01b8 00       		.byte	0
 2483 01b9 03       		.uleb128 0x3
 2484 01ba 0E       		.uleb128 0xe
 2485 01bb 3A       		.uleb128 0x3a
 2486 01bc 0B       		.uleb128 0xb
 2487 01bd 3B       		.uleb128 0x3b
 2488 01be 0B       		.uleb128 0xb
 2489 01bf 49       		.uleb128 0x49
 2490 01c0 13       		.uleb128 0x13
 2491 01c1 00       		.byte	0
 2492 01c2 00       		.byte	0
 2493 01c3 23       		.uleb128 0x23
 2494 01c4 1D       		.uleb128 0x1d
 2495 01c5 01       		.byte	0x1
 2496 01c6 31       		.uleb128 0x31
 2497 01c7 13       		.uleb128 0x13
 2498 01c8 11       		.uleb128 0x11
 2499 01c9 01       		.uleb128 0x1
 2500 01ca 12       		.uleb128 0x12
 2501 01cb 06       		.uleb128 0x6
 2502 01cc 58       		.uleb128 0x58
 2503 01cd 0B       		.uleb128 0xb
 2504 01ce 59       		.uleb128 0x59
 2505 01cf 0B       		.uleb128 0xb
 2506 01d0 01       		.uleb128 0x1
 2507 01d1 13       		.uleb128 0x13
 2508 01d2 00       		.byte	0
ARM GAS  /tmp/ccAzQ4P9.s 			page 45


 2509 01d3 00       		.byte	0
 2510 01d4 24       		.uleb128 0x24
 2511 01d5 1D       		.uleb128 0x1d
 2512 01d6 01       		.byte	0x1
 2513 01d7 31       		.uleb128 0x31
 2514 01d8 13       		.uleb128 0x13
 2515 01d9 11       		.uleb128 0x11
 2516 01da 01       		.uleb128 0x1
 2517 01db 12       		.uleb128 0x12
 2518 01dc 06       		.uleb128 0x6
 2519 01dd 58       		.uleb128 0x58
 2520 01de 0B       		.uleb128 0xb
 2521 01df 59       		.uleb128 0x59
 2522 01e0 05       		.uleb128 0x5
 2523 01e1 00       		.byte	0
 2524 01e2 00       		.byte	0
 2525 01e3 25       		.uleb128 0x25
 2526 01e4 1D       		.uleb128 0x1d
 2527 01e5 00       		.byte	0
 2528 01e6 31       		.uleb128 0x31
 2529 01e7 13       		.uleb128 0x13
 2530 01e8 11       		.uleb128 0x11
 2531 01e9 01       		.uleb128 0x1
 2532 01ea 12       		.uleb128 0x12
 2533 01eb 06       		.uleb128 0x6
 2534 01ec 58       		.uleb128 0x58
 2535 01ed 0B       		.uleb128 0xb
 2536 01ee 59       		.uleb128 0x59
 2537 01ef 05       		.uleb128 0x5
 2538 01f0 00       		.byte	0
 2539 01f1 00       		.byte	0
 2540 01f2 26       		.uleb128 0x26
 2541 01f3 1D       		.uleb128 0x1d
 2542 01f4 01       		.byte	0x1
 2543 01f5 31       		.uleb128 0x31
 2544 01f6 13       		.uleb128 0x13
 2545 01f7 52       		.uleb128 0x52
 2546 01f8 01       		.uleb128 0x1
 2547 01f9 55       		.uleb128 0x55
 2548 01fa 17       		.uleb128 0x17
 2549 01fb 58       		.uleb128 0x58
 2550 01fc 0B       		.uleb128 0xb
 2551 01fd 59       		.uleb128 0x59
 2552 01fe 0B       		.uleb128 0xb
 2553 01ff 01       		.uleb128 0x1
 2554 0200 13       		.uleb128 0x13
 2555 0201 00       		.byte	0
 2556 0202 00       		.byte	0
 2557 0203 27       		.uleb128 0x27
 2558 0204 05       		.uleb128 0x5
 2559 0205 00       		.byte	0
 2560 0206 31       		.uleb128 0x31
 2561 0207 13       		.uleb128 0x13
 2562 0208 02       		.uleb128 0x2
 2563 0209 17       		.uleb128 0x17
 2564 020a 00       		.byte	0
 2565 020b 00       		.byte	0
ARM GAS  /tmp/ccAzQ4P9.s 			page 46


 2566 020c 28       		.uleb128 0x28
 2567 020d 0B       		.uleb128 0xb
 2568 020e 01       		.byte	0x1
 2569 020f 55       		.uleb128 0x55
 2570 0210 17       		.uleb128 0x17
 2571 0211 00       		.byte	0
 2572 0212 00       		.byte	0
 2573 0213 29       		.uleb128 0x29
 2574 0214 34       		.uleb128 0x34
 2575 0215 00       		.byte	0
 2576 0216 31       		.uleb128 0x31
 2577 0217 13       		.uleb128 0x13
 2578 0218 00       		.byte	0
 2579 0219 00       		.byte	0
 2580 021a 2A       		.uleb128 0x2a
 2581 021b 0B       		.uleb128 0xb
 2582 021c 01       		.byte	0x1
 2583 021d 31       		.uleb128 0x31
 2584 021e 13       		.uleb128 0x13
 2585 021f 11       		.uleb128 0x11
 2586 0220 01       		.uleb128 0x1
 2587 0221 12       		.uleb128 0x12
 2588 0222 06       		.uleb128 0x6
 2589 0223 00       		.byte	0
 2590 0224 00       		.byte	0
 2591 0225 2B       		.uleb128 0x2b
 2592 0226 0B       		.uleb128 0xb
 2593 0227 01       		.byte	0x1
 2594 0228 11       		.uleb128 0x11
 2595 0229 01       		.uleb128 0x1
 2596 022a 12       		.uleb128 0x12
 2597 022b 06       		.uleb128 0x6
 2598 022c 00       		.byte	0
 2599 022d 00       		.byte	0
 2600 022e 2C       		.uleb128 0x2c
 2601 022f 1D       		.uleb128 0x1d
 2602 0230 01       		.byte	0x1
 2603 0231 31       		.uleb128 0x31
 2604 0232 13       		.uleb128 0x13
 2605 0233 52       		.uleb128 0x52
 2606 0234 01       		.uleb128 0x1
 2607 0235 55       		.uleb128 0x55
 2608 0236 17       		.uleb128 0x17
 2609 0237 58       		.uleb128 0x58
 2610 0238 0B       		.uleb128 0xb
 2611 0239 59       		.uleb128 0x59
 2612 023a 0B       		.uleb128 0xb
 2613 023b 00       		.byte	0
 2614 023c 00       		.byte	0
 2615 023d 2D       		.uleb128 0x2d
 2616 023e 1D       		.uleb128 0x1d
 2617 023f 01       		.byte	0x1
 2618 0240 31       		.uleb128 0x31
 2619 0241 13       		.uleb128 0x13
 2620 0242 52       		.uleb128 0x52
 2621 0243 01       		.uleb128 0x1
 2622 0244 55       		.uleb128 0x55
ARM GAS  /tmp/ccAzQ4P9.s 			page 47


 2623 0245 17       		.uleb128 0x17
 2624 0246 58       		.uleb128 0x58
 2625 0247 0B       		.uleb128 0xb
 2626 0248 59       		.uleb128 0x59
 2627 0249 05       		.uleb128 0x5
 2628 024a 00       		.byte	0
 2629 024b 00       		.byte	0
 2630 024c 2E       		.uleb128 0x2e
 2631 024d 1D       		.uleb128 0x1d
 2632 024e 00       		.byte	0
 2633 024f 31       		.uleb128 0x31
 2634 0250 13       		.uleb128 0x13
 2635 0251 52       		.uleb128 0x52
 2636 0252 01       		.uleb128 0x1
 2637 0253 55       		.uleb128 0x55
 2638 0254 17       		.uleb128 0x17
 2639 0255 58       		.uleb128 0x58
 2640 0256 0B       		.uleb128 0xb
 2641 0257 59       		.uleb128 0x59
 2642 0258 05       		.uleb128 0x5
 2643 0259 00       		.byte	0
 2644 025a 00       		.byte	0
 2645 025b 2F       		.uleb128 0x2f
 2646 025c 2E       		.uleb128 0x2e
 2647 025d 01       		.byte	0x1
 2648 025e 3F       		.uleb128 0x3f
 2649 025f 19       		.uleb128 0x19
 2650 0260 03       		.uleb128 0x3
 2651 0261 0E       		.uleb128 0xe
 2652 0262 3A       		.uleb128 0x3a
 2653 0263 0B       		.uleb128 0xb
 2654 0264 3B       		.uleb128 0x3b
 2655 0265 0B       		.uleb128 0xb
 2656 0266 27       		.uleb128 0x27
 2657 0267 19       		.uleb128 0x19
 2658 0268 49       		.uleb128 0x49
 2659 0269 13       		.uleb128 0x13
 2660 026a 20       		.uleb128 0x20
 2661 026b 0B       		.uleb128 0xb
 2662 026c 01       		.uleb128 0x1
 2663 026d 13       		.uleb128 0x13
 2664 026e 00       		.byte	0
 2665 026f 00       		.byte	0
 2666 0270 30       		.uleb128 0x30
 2667 0271 2E       		.uleb128 0x2e
 2668 0272 01       		.byte	0x1
 2669 0273 3F       		.uleb128 0x3f
 2670 0274 19       		.uleb128 0x19
 2671 0275 03       		.uleb128 0x3
 2672 0276 0E       		.uleb128 0xe
 2673 0277 3A       		.uleb128 0x3a
 2674 0278 0B       		.uleb128 0xb
 2675 0279 3B       		.uleb128 0x3b
 2676 027a 0B       		.uleb128 0xb
 2677 027b 27       		.uleb128 0x27
 2678 027c 19       		.uleb128 0x19
 2679 027d 11       		.uleb128 0x11
ARM GAS  /tmp/ccAzQ4P9.s 			page 48


 2680 027e 01       		.uleb128 0x1
 2681 027f 12       		.uleb128 0x12
 2682 0280 06       		.uleb128 0x6
 2683 0281 40       		.uleb128 0x40
 2684 0282 18       		.uleb128 0x18
 2685 0283 9742     		.uleb128 0x2117
 2686 0285 19       		.uleb128 0x19
 2687 0286 01       		.uleb128 0x1
 2688 0287 13       		.uleb128 0x13
 2689 0288 00       		.byte	0
 2690 0289 00       		.byte	0
 2691 028a 31       		.uleb128 0x31
 2692 028b 05       		.uleb128 0x5
 2693 028c 00       		.byte	0
 2694 028d 03       		.uleb128 0x3
 2695 028e 08       		.uleb128 0x8
 2696 028f 3A       		.uleb128 0x3a
 2697 0290 0B       		.uleb128 0xb
 2698 0291 3B       		.uleb128 0x3b
 2699 0292 0B       		.uleb128 0xb
 2700 0293 49       		.uleb128 0x49
 2701 0294 13       		.uleb128 0x13
 2702 0295 02       		.uleb128 0x2
 2703 0296 18       		.uleb128 0x18
 2704 0297 00       		.byte	0
 2705 0298 00       		.byte	0
 2706 0299 32       		.uleb128 0x32
 2707 029a 34       		.uleb128 0x34
 2708 029b 00       		.byte	0
 2709 029c 03       		.uleb128 0x3
 2710 029d 0E       		.uleb128 0xe
 2711 029e 49       		.uleb128 0x49
 2712 029f 13       		.uleb128 0x13
 2713 02a0 34       		.uleb128 0x34
 2714 02a1 19       		.uleb128 0x19
 2715 02a2 00       		.byte	0
 2716 02a3 00       		.byte	0
 2717 02a4 33       		.uleb128 0x33
 2718 02a5 1D       		.uleb128 0x1d
 2719 02a6 01       		.byte	0x1
 2720 02a7 31       		.uleb128 0x31
 2721 02a8 13       		.uleb128 0x13
 2722 02a9 11       		.uleb128 0x11
 2723 02aa 01       		.uleb128 0x1
 2724 02ab 12       		.uleb128 0x12
 2725 02ac 06       		.uleb128 0x6
 2726 02ad 58       		.uleb128 0x58
 2727 02ae 0B       		.uleb128 0xb
 2728 02af 59       		.uleb128 0x59
 2729 02b0 0B       		.uleb128 0xb
 2730 02b1 00       		.byte	0
 2731 02b2 00       		.byte	0
 2732 02b3 34       		.uleb128 0x34
 2733 02b4 34       		.uleb128 0x34
 2734 02b5 00       		.byte	0
 2735 02b6 31       		.uleb128 0x31
 2736 02b7 13       		.uleb128 0x13
ARM GAS  /tmp/ccAzQ4P9.s 			page 49


 2737 02b8 02       		.uleb128 0x2
 2738 02b9 17       		.uleb128 0x17
 2739 02ba 00       		.byte	0
 2740 02bb 00       		.byte	0
 2741 02bc 35       		.uleb128 0x35
 2742 02bd 05       		.uleb128 0x5
 2743 02be 00       		.byte	0
 2744 02bf 03       		.uleb128 0x3
 2745 02c0 0E       		.uleb128 0xe
 2746 02c1 3A       		.uleb128 0x3a
 2747 02c2 0B       		.uleb128 0xb
 2748 02c3 3B       		.uleb128 0x3b
 2749 02c4 0B       		.uleb128 0xb
 2750 02c5 49       		.uleb128 0x49
 2751 02c6 13       		.uleb128 0x13
 2752 02c7 02       		.uleb128 0x2
 2753 02c8 18       		.uleb128 0x18
 2754 02c9 00       		.byte	0
 2755 02ca 00       		.byte	0
 2756 02cb 36       		.uleb128 0x36
 2757 02cc 2E       		.uleb128 0x2e
 2758 02cd 01       		.byte	0x1
 2759 02ce 03       		.uleb128 0x3
 2760 02cf 0E       		.uleb128 0xe
 2761 02d0 3A       		.uleb128 0x3a
 2762 02d1 0B       		.uleb128 0xb
 2763 02d2 3B       		.uleb128 0x3b
 2764 02d3 0B       		.uleb128 0xb
 2765 02d4 27       		.uleb128 0x27
 2766 02d5 19       		.uleb128 0x19
 2767 02d6 20       		.uleb128 0x20
 2768 02d7 0B       		.uleb128 0xb
 2769 02d8 01       		.uleb128 0x1
 2770 02d9 13       		.uleb128 0x13
 2771 02da 00       		.byte	0
 2772 02db 00       		.byte	0
 2773 02dc 37       		.uleb128 0x37
 2774 02dd 2E       		.uleb128 0x2e
 2775 02de 01       		.byte	0x1
 2776 02df 03       		.uleb128 0x3
 2777 02e0 0E       		.uleb128 0xe
 2778 02e1 3A       		.uleb128 0x3a
 2779 02e2 0B       		.uleb128 0xb
 2780 02e3 3B       		.uleb128 0x3b
 2781 02e4 05       		.uleb128 0x5
 2782 02e5 27       		.uleb128 0x27
 2783 02e6 19       		.uleb128 0x19
 2784 02e7 20       		.uleb128 0x20
 2785 02e8 0B       		.uleb128 0xb
 2786 02e9 01       		.uleb128 0x1
 2787 02ea 13       		.uleb128 0x13
 2788 02eb 00       		.byte	0
 2789 02ec 00       		.byte	0
 2790 02ed 38       		.uleb128 0x38
 2791 02ee 2E       		.uleb128 0x2e
 2792 02ef 00       		.byte	0
 2793 02f0 03       		.uleb128 0x3
ARM GAS  /tmp/ccAzQ4P9.s 			page 50


 2794 02f1 0E       		.uleb128 0xe
 2795 02f2 3A       		.uleb128 0x3a
 2796 02f3 0B       		.uleb128 0xb
 2797 02f4 3B       		.uleb128 0x3b
 2798 02f5 05       		.uleb128 0x5
 2799 02f6 27       		.uleb128 0x27
 2800 02f7 19       		.uleb128 0x19
 2801 02f8 20       		.uleb128 0x20
 2802 02f9 0B       		.uleb128 0xb
 2803 02fa 00       		.byte	0
 2804 02fb 00       		.byte	0
 2805 02fc 39       		.uleb128 0x39
 2806 02fd 2E       		.uleb128 0x2e
 2807 02fe 01       		.byte	0x1
 2808 02ff 31       		.uleb128 0x31
 2809 0300 13       		.uleb128 0x13
 2810 0301 11       		.uleb128 0x11
 2811 0302 01       		.uleb128 0x1
 2812 0303 12       		.uleb128 0x12
 2813 0304 06       		.uleb128 0x6
 2814 0305 40       		.uleb128 0x40
 2815 0306 18       		.uleb128 0x18
 2816 0307 01       		.uleb128 0x1
 2817 0308 13       		.uleb128 0x13
 2818 0309 00       		.byte	0
 2819 030a 00       		.byte	0
 2820 030b 3A       		.uleb128 0x3a
 2821 030c 2E       		.uleb128 0x2e
 2822 030d 01       		.byte	0x1
 2823 030e 31       		.uleb128 0x31
 2824 030f 13       		.uleb128 0x13
 2825 0310 11       		.uleb128 0x11
 2826 0311 01       		.uleb128 0x1
 2827 0312 12       		.uleb128 0x12
 2828 0313 06       		.uleb128 0x6
 2829 0314 40       		.uleb128 0x40
 2830 0315 18       		.uleb128 0x18
 2831 0316 9742     		.uleb128 0x2117
 2832 0318 19       		.uleb128 0x19
 2833 0319 01       		.uleb128 0x1
 2834 031a 13       		.uleb128 0x13
 2835 031b 00       		.byte	0
 2836 031c 00       		.byte	0
 2837 031d 3B       		.uleb128 0x3b
 2838 031e 05       		.uleb128 0x5
 2839 031f 00       		.byte	0
 2840 0320 31       		.uleb128 0x31
 2841 0321 13       		.uleb128 0x13
 2842 0322 02       		.uleb128 0x2
 2843 0323 18       		.uleb128 0x18
 2844 0324 00       		.byte	0
 2845 0325 00       		.byte	0
 2846 0326 3C       		.uleb128 0x3c
 2847 0327 34       		.uleb128 0x34
 2848 0328 00       		.byte	0
 2849 0329 31       		.uleb128 0x31
 2850 032a 13       		.uleb128 0x13
ARM GAS  /tmp/ccAzQ4P9.s 			page 51


 2851 032b 02       		.uleb128 0x2
 2852 032c 18       		.uleb128 0x18
 2853 032d 00       		.byte	0
 2854 032e 00       		.byte	0
 2855 032f 3D       		.uleb128 0x3d
 2856 0330 2E       		.uleb128 0x2e
 2857 0331 01       		.byte	0x1
 2858 0332 31       		.uleb128 0x31
 2859 0333 13       		.uleb128 0x13
 2860 0334 11       		.uleb128 0x11
 2861 0335 01       		.uleb128 0x1
 2862 0336 12       		.uleb128 0x12
 2863 0337 06       		.uleb128 0x6
 2864 0338 40       		.uleb128 0x40
 2865 0339 18       		.uleb128 0x18
 2866 033a 9742     		.uleb128 0x2117
 2867 033c 19       		.uleb128 0x19
 2868 033d 00       		.byte	0
 2869 033e 00       		.byte	0
 2870 033f 00       		.byte	0
 2871              		.section	.debug_loc,"",%progbits
 2872              	.Ldebug_loc0:
 2873              	.LLST12:
 2874 0000 00000000 		.4byte	.LVL15
 2875 0004 08000000 		.4byte	.LVL17
 2876 0008 0100     		.2byte	0x1
 2877 000a 50       		.byte	0x50
 2878 000b 08000000 		.4byte	.LVL17
 2879 000f 1B000000 		.4byte	.LVL21-1
 2880 0013 0100     		.2byte	0x1
 2881 0015 53       		.byte	0x53
 2882 0016 1B000000 		.4byte	.LVL21-1
 2883 001a 20000000 		.4byte	.LFE222
 2884 001e 0400     		.2byte	0x4
 2885 0020 F3       		.byte	0xf3
 2886 0021 01       		.uleb128 0x1
 2887 0022 50       		.byte	0x50
 2888 0023 9F       		.byte	0x9f
 2889 0024 00000000 		.4byte	0
 2890 0028 00000000 		.4byte	0
 2891              	.LLST13:
 2892 002c 06000000 		.4byte	.LVL16
 2893 0030 08000000 		.4byte	.LVL17
 2894 0034 0100     		.2byte	0x1
 2895 0036 50       		.byte	0x50
 2896 0037 08000000 		.4byte	.LVL17
 2897 003b 0E000000 		.4byte	.LVL18
 2898 003f 0100     		.2byte	0x1
 2899 0041 53       		.byte	0x53
 2900 0042 12000000 		.4byte	.LVL19
 2901 0046 1B000000 		.4byte	.LVL21-1
 2902 004a 0100     		.2byte	0x1
 2903 004c 53       		.byte	0x53
 2904 004d 1B000000 		.4byte	.LVL21-1
 2905 0051 1C000000 		.4byte	.LVL21
 2906 0055 0400     		.2byte	0x4
 2907 0057 F3       		.byte	0xf3
ARM GAS  /tmp/ccAzQ4P9.s 			page 52


 2908 0058 01       		.uleb128 0x1
 2909 0059 50       		.byte	0x50
 2910 005a 9F       		.byte	0x9f
 2911 005b 00000000 		.4byte	0
 2912 005f 00000000 		.4byte	0
 2913              	.LLST14:
 2914 0063 12000000 		.4byte	.LVL19
 2915 0067 1B000000 		.4byte	.LVL21-1
 2916 006b 0100     		.2byte	0x1
 2917 006d 53       		.byte	0x53
 2918 006e 1B000000 		.4byte	.LVL21-1
 2919 0072 20000000 		.4byte	.LFE222
 2920 0076 0400     		.2byte	0x4
 2921 0078 F3       		.byte	0xf3
 2922 0079 01       		.uleb128 0x1
 2923 007a 50       		.byte	0x50
 2924 007b 9F       		.byte	0x9f
 2925 007c 00000000 		.4byte	0
 2926 0080 00000000 		.4byte	0
 2927              	.LLST0:
 2928 0084 00000000 		.4byte	.LVL1
 2929 0088 12000000 		.4byte	.LVL7
 2930 008c 0100     		.2byte	0x1
 2931 008e 51       		.byte	0x51
 2932 008f 12000000 		.4byte	.LVL7
 2933 0093 16000000 		.4byte	.LFE220
 2934 0097 0100     		.2byte	0x1
 2935 0099 51       		.byte	0x51
 2936 009a 00000000 		.4byte	0
 2937 009e 00000000 		.4byte	0
 2938              	.LLST1:
 2939 00a2 00000000 		.4byte	.LVL1
 2940 00a6 02000000 		.4byte	.LVL2
 2941 00aa 0100     		.2byte	0x1
 2942 00ac 52       		.byte	0x52
 2943 00ad 02000000 		.4byte	.LVL2
 2944 00b1 10000000 		.4byte	.LVL6
 2945 00b5 0100     		.2byte	0x1
 2946 00b7 52       		.byte	0x52
 2947 00b8 10000000 		.4byte	.LVL6
 2948 00bc 12000000 		.4byte	.LVL7
 2949 00c0 0300     		.2byte	0x3
 2950 00c2 72       		.byte	0x72
 2951 00c3 01       		.sleb128 1
 2952 00c4 9F       		.byte	0x9f
 2953 00c5 00000000 		.4byte	0
 2954 00c9 00000000 		.4byte	0
 2955              	.LLST2:
 2956 00cd 02000000 		.4byte	.LVL2
 2957 00d1 14000000 		.4byte	.LVL8
 2958 00d5 0100     		.2byte	0x1
 2959 00d7 50       		.byte	0x50
 2960 00d8 00000000 		.4byte	0
 2961 00dc 00000000 		.4byte	0
 2962              	.LLST3:
 2963 00e0 02000000 		.4byte	.LVL2
 2964 00e4 0C000000 		.4byte	.LVL5
ARM GAS  /tmp/ccAzQ4P9.s 			page 53


 2965 00e8 0100     		.2byte	0x1
 2966 00ea 51       		.byte	0x51
 2967 00eb 00000000 		.4byte	0
 2968 00ef 00000000 		.4byte	0
 2969              	.LLST5:
 2970 00f3 02000000 		.4byte	.LVL2
 2971 00f7 0C000000 		.4byte	.LVL5
 2972 00fb 0100     		.2byte	0x1
 2973 00fd 50       		.byte	0x50
 2974 00fe 00000000 		.4byte	0
 2975 0102 00000000 		.4byte	0
 2976              	.LLST6:
 2977 0106 04000000 		.4byte	.LVL3
 2978 010a 0A000000 		.4byte	.LVL4
 2979 010e 0100     		.2byte	0x1
 2980 0110 51       		.byte	0x51
 2981 0111 00000000 		.4byte	0
 2982 0115 00000000 		.4byte	0
 2983              	.LLST7:
 2984 0119 04000000 		.4byte	.LVL3
 2985 011d 0A000000 		.4byte	.LVL4
 2986 0121 0100     		.2byte	0x1
 2987 0123 50       		.byte	0x50
 2988 0124 00000000 		.4byte	0
 2989 0128 00000000 		.4byte	0
 2990              	.LLST8:
 2991 012c 04000000 		.4byte	.LVL3
 2992 0130 12000000 		.4byte	.LVL7
 2993 0134 0100     		.2byte	0x1
 2994 0136 51       		.byte	0x51
 2995 0137 12000000 		.4byte	.LVL7
 2996 013b 14000000 		.4byte	.LVL8
 2997 013f 0200     		.2byte	0x2
 2998 0141 70       		.byte	0x70
 2999 0142 00       		.sleb128 0
 3000 0143 00000000 		.4byte	0
 3001 0147 00000000 		.4byte	0
 3002              	.LLST9:
 3003 014b 00000000 		.4byte	.LVL9
 3004 014f 0A000000 		.4byte	.LVL11
 3005 0153 0100     		.2byte	0x1
 3006 0155 50       		.byte	0x50
 3007 0156 0A000000 		.4byte	.LVL11
 3008 015a 0C000000 		.4byte	.LVL12
 3009 015e 0400     		.2byte	0x4
 3010 0160 F3       		.byte	0xf3
 3011 0161 01       		.uleb128 0x1
 3012 0162 50       		.byte	0x50
 3013 0163 9F       		.byte	0x9f
 3014 0164 0C000000 		.4byte	.LVL12
 3015 0168 14000000 		.4byte	.LVL13
 3016 016c 0100     		.2byte	0x1
 3017 016e 50       		.byte	0x50
 3018 016f 14000000 		.4byte	.LVL13
 3019 0173 16000000 		.4byte	.LFE221
 3020 0177 0400     		.2byte	0x4
 3021 0179 F3       		.byte	0xf3
ARM GAS  /tmp/ccAzQ4P9.s 			page 54


 3022 017a 01       		.uleb128 0x1
 3023 017b 50       		.byte	0x50
 3024 017c 9F       		.byte	0x9f
 3025 017d 00000000 		.4byte	0
 3026 0181 00000000 		.4byte	0
 3027              	.LLST10:
 3028 0185 02000000 		.4byte	.LVL10
 3029 0189 15000000 		.4byte	.LVL14-1
 3030 018d 0100     		.2byte	0x1
 3031 018f 53       		.byte	0x53
 3032 0190 00000000 		.4byte	0
 3033 0194 00000000 		.4byte	0
 3034              	.LLST11:
 3035 0198 0C000000 		.4byte	.LVL12
 3036 019c 14000000 		.4byte	.LVL13
 3037 01a0 0100     		.2byte	0x1
 3038 01a2 50       		.byte	0x50
 3039 01a3 14000000 		.4byte	.LVL13
 3040 01a7 16000000 		.4byte	.LFE221
 3041 01ab 0400     		.2byte	0x4
 3042 01ad F3       		.byte	0xf3
 3043 01ae 01       		.uleb128 0x1
 3044 01af 50       		.byte	0x50
 3045 01b0 9F       		.byte	0x9f
 3046 01b1 00000000 		.4byte	0
 3047 01b5 00000000 		.4byte	0
 3048              	.LLST15:
 3049 01b9 02000000 		.4byte	.LVL24
 3050 01bd 08000000 		.4byte	.LVL25
 3051 01c1 0100     		.2byte	0x1
 3052 01c3 51       		.byte	0x51
 3053 01c4 00000000 		.4byte	0
 3054 01c8 00000000 		.4byte	0
 3055              	.LLST16:
 3056 01cc 02000000 		.4byte	.LVL24
 3057 01d0 08000000 		.4byte	.LVL25
 3058 01d4 0100     		.2byte	0x1
 3059 01d6 50       		.byte	0x50
 3060 01d7 00000000 		.4byte	0
 3061 01db 00000000 		.4byte	0
 3062              		.section	.debug_aranges,"",%progbits
 3063 0000 44000000 		.4byte	0x44
 3064 0004 0200     		.2byte	0x2
 3065 0006 00000000 		.4byte	.Ldebug_info0
 3066 000a 04       		.byte	0x4
 3067 000b 00       		.byte	0
 3068 000c 0000     		.2byte	0
 3069 000e 0000     		.2byte	0
 3070 0010 00000000 		.4byte	.LFB219
 3071 0014 0A000000 		.4byte	.LFE219-.LFB219
 3072 0018 00000000 		.4byte	.LFB220
 3073 001c 16000000 		.4byte	.LFE220-.LFB220
 3074 0020 00000000 		.4byte	.LFB221
 3075 0024 16000000 		.4byte	.LFE221-.LFB221
 3076 0028 00000000 		.4byte	.LFB222
 3077 002c 20000000 		.4byte	.LFE222-.LFB222
 3078 0030 00000000 		.4byte	.LFB223
ARM GAS  /tmp/ccAzQ4P9.s 			page 55


 3079 0034 08000000 		.4byte	.LFE223-.LFB223
 3080 0038 00000000 		.4byte	.LFB224
 3081 003c 0C000000 		.4byte	.LFE224-.LFB224
 3082 0040 00000000 		.4byte	0
 3083 0044 00000000 		.4byte	0
 3084              		.section	.debug_ranges,"",%progbits
 3085              	.Ldebug_ranges0:
 3086 0000 06000000 		.4byte	.LBB111
 3087 0004 0E000000 		.4byte	.LBE111
 3088 0008 12000000 		.4byte	.LBB125
 3089 000c 1C000000 		.4byte	.LBE125
 3090 0010 00000000 		.4byte	0
 3091 0014 00000000 		.4byte	0
 3092 0018 0E000000 		.4byte	.LBB116
 3093 001c 10000000 		.4byte	.LBE116
 3094 0020 1C000000 		.4byte	.LBB126
 3095 0024 1E000000 		.4byte	.LBE126
 3096 0028 00000000 		.4byte	0
 3097 002c 00000000 		.4byte	0
 3098 0030 00000000 		.4byte	.LFB219
 3099 0034 0A000000 		.4byte	.LFE219
 3100 0038 00000000 		.4byte	.LFB220
 3101 003c 16000000 		.4byte	.LFE220
 3102 0040 00000000 		.4byte	.LFB221
 3103 0044 16000000 		.4byte	.LFE221
 3104 0048 00000000 		.4byte	.LFB222
 3105 004c 20000000 		.4byte	.LFE222
 3106 0050 00000000 		.4byte	.LFB223
 3107 0054 08000000 		.4byte	.LFE223
 3108 0058 00000000 		.4byte	.LFB224
 3109 005c 0C000000 		.4byte	.LFE224
 3110 0060 00000000 		.4byte	0
 3111 0064 00000000 		.4byte	0
 3112              		.section	.debug_line,"",%progbits
 3113              	.Ldebug_line0:
 3114 0000 2B030000 		.section	.debug_str,"MS",%progbits,1
 3114      02005402 
 3114      00000201 
 3114      FB0E0D00 
 3114      01010101 
 3115              	.LASF119:
 3116 0000 63665F6F 		.ascii	"cf_off_older\000"
 3116      66665F6F 
 3116      6C646572 
 3116      00
 3117              	.LASF58:
 3118 000d 72656164 		.ascii	"ready_list_t\000"
 3118      795F6C69 
 3118      73745F74 
 3118      00
 3119              	.LASF2:
 3120 001a 73697A65 		.ascii	"size_t\000"
 3120      5F7400
 3121              	.LASF94:
 3122 0021 7264796D 		.ascii	"rdymsg\000"
 3122      736700
 3123              	.LASF19:
ARM GAS  /tmp/ccAzQ4P9.s 			page 56


 3124 0028 75696E74 		.ascii	"uint64_t\000"
 3124      36345F74 
 3124      00
 3125              	.LASF3:
 3126 0031 5F5F7569 		.ascii	"__uint8_t\000"
 3126      6E74385F 
 3126      7400
 3127              	.LASF91:
 3128 003b 706F7274 		.ascii	"port_intctx\000"
 3128      5F696E74 
 3128      63747800 
 3129              	.LASF77:
 3130 0047 73797374 		.ascii	"system_debug_t\000"
 3130      656D5F64 
 3130      65627567 
 3130      5F7400
 3131              	.LASF145:
 3132 0056 70726F76 		.ascii	"provider\000"
 3132      69646572 
 3132      00
 3133              	.LASF153:
 3134 005f 474E5520 		.ascii	"GNU C99 7.3.1 20180622 (release) [ARM/embedded-7-br"
 3134      43393920 
 3134      372E332E 
 3134      31203230 
 3134      31383036 
 3135 0092 616E6368 		.ascii	"anch revision 261907] -mcpu=cortex-m4 -mfloat-abi=h"
 3135      20726576 
 3135      6973696F 
 3135      6E203236 
 3135      31393037 
 3136 00c5 61726420 		.ascii	"ard -mfpu=fpv4-sp-d16 -mno-thumb-interwork -mthumb "
 3136      2D6D6670 
 3136      753D6670 
 3136      76342D73 
 3136      702D6431 
 3137 00f8 2D676764 		.ascii	"-ggdb -O2 -std=gnu99 -fomit-frame-pointer -falign-f"
 3137      62202D4F 
 3137      32202D73 
 3137      74643D67 
 3137      6E753939 
 3138 012b 756E6374 		.ascii	"unctions=16 -ffunction-sections -fdata-sections -fn"
 3138      696F6E73 
 3138      3D313620 
 3138      2D666675 
 3138      6E637469 
 3139 015e 6F2D636F 		.ascii	"o-common -fsingle-precision-constant\000"
 3139      6D6D6F6E 
 3139      202D6673 
 3139      696E676C 
 3139      652D7072 
 3140              	.LASF150:
 3141 0183 706F7274 		.ascii	"port_lock\000"
 3141      5F6C6F63 
 3141      6B00
 3142              	.LASF130:
 3143 018d 6D656D67 		.ascii	"memgetfunc_t\000"
ARM GAS  /tmp/ccAzQ4P9.s 			page 57


 3143      65746675 
 3143      6E635F74 
 3143      00
 3144              	.LASF14:
 3145 019a 6C6F6E67 		.ascii	"long long unsigned int\000"
 3145      206C6F6E 
 3145      6720756E 
 3145      7369676E 
 3145      65642069 
 3146              	.LASF115:
 3147 01b1 63685F74 		.ascii	"ch_threadsize\000"
 3147      68726561 
 3147      6473697A 
 3147      6500
 3148              	.LASF95:
 3149 01bf 65786974 		.ascii	"exitcode\000"
 3149      636F6465 
 3149      00
 3150              	.LASF84:
 3151 01c8 6D61696E 		.ascii	"mainthread\000"
 3151      74687265 
 3151      616400
 3152              	.LASF74:
 3153 01d3 76697274 		.ascii	"virtual_timers_list_t\000"
 3153      75616C5F 
 3153      74696D65 
 3153      72735F6C 
 3153      6973745F 
 3154              	.LASF86:
 3155 01e9 49544D5F 		.ascii	"ITM_RxBuffer\000"
 3155      52784275 
 3155      66666572 
 3155      00
 3156              	.LASF57:
 3157 01f6 63685F74 		.ascii	"ch_threads_queue\000"
 3157      68726561 
 3157      64735F71 
 3157      75657565 
 3157      00
 3158              	.LASF33:
 3159 0207 705F7072 		.ascii	"p_prio\000"
 3159      696F00
 3160              	.LASF122:
 3161 020e 63665F6F 		.ascii	"cf_off_state\000"
 3161      66665F73 
 3161      74617465 
 3161      00
 3162              	.LASF76:
 3163 021b 76745F73 		.ascii	"vt_systime\000"
 3163      79737469 
 3163      6D6500
 3164              	.LASF12:
 3165 0226 6C6F6E67 		.ascii	"long long int\000"
 3165      206C6F6E 
 3165      6720696E 
 3165      7400
 3166              	.LASF1:
ARM GAS  /tmp/ccAzQ4P9.s 			page 58


 3167 0234 7369676E 		.ascii	"signed char\000"
 3167      65642063 
 3167      68617200 
 3168              	.LASF121:
 3169 0240 63665F6F 		.ascii	"cf_off_stklimit\000"
 3169      66665F73 
 3169      746B6C69 
 3169      6D697400 
 3170              	.LASF123:
 3171 0250 63665F6F 		.ascii	"cf_off_flags\000"
 3171      66665F66 
 3171      6C616773 
 3171      00
 3172              	.LASF50:
 3173 025d 705F6D70 		.ascii	"p_mpool\000"
 3173      6F6F6C00 
 3174              	.LASF105:
 3175 0265 6D5F7175 		.ascii	"m_queue\000"
 3175      65756500 
 3176              	.LASF83:
 3177 026d 76746C69 		.ascii	"vtlist\000"
 3177      737400
 3178              	.LASF149:
 3179 0274 706F7274 		.ascii	"port_unlock\000"
 3179      5F756E6C 
 3179      6F636B00 
 3180              	.LASF24:
 3181 0280 74736C69 		.ascii	"tslices_t\000"
 3181      6365735F 
 3181      7400
 3182              	.LASF97:
 3183 028a 77747472 		.ascii	"wttrp\000"
 3183      7000
 3184              	.LASF81:
 3185 0290 63685F73 		.ascii	"ch_system\000"
 3185      79737465 
 3185      6D00
 3186              	.LASF9:
 3187 029a 6C6F6E67 		.ascii	"long int\000"
 3187      20696E74 
 3187      00
 3188              	.LASF22:
 3189 02a3 74737461 		.ascii	"tstate_t\000"
 3189      74655F74 
 3189      00
 3190              	.LASF127:
 3191 02ac 63686465 		.ascii	"chdebug_t\000"
 3191      6275675F 
 3191      7400
 3192              	.LASF35:
 3193 02b6 705F6E65 		.ascii	"p_newer\000"
 3193      77657200 
 3194              	.LASF102:
 3195 02be 735F7175 		.ascii	"s_queue\000"
 3195      65756500 
 3196              	.LASF23:
 3197 02c6 74726566 		.ascii	"trefs_t\000"
ARM GAS  /tmp/ccAzQ4P9.s 			page 59


 3197      735F7400 
 3198              	.LASF63:
 3199 02ce 725F6E65 		.ascii	"r_newer\000"
 3199      77657200 
 3200              	.LASF135:
 3201 02d6 6D705F70 		.ascii	"mp_provider\000"
 3201      726F7669 
 3201      64657200 
 3202              	.LASF88:
 3203 02e2 72656761 		.ascii	"regarm_t\000"
 3203      726D5F74 
 3203      00
 3204              	.LASF70:
 3205 02eb 76745F70 		.ascii	"vt_prev\000"
 3205      72657600 
 3206              	.LASF129:
 3207 02f3 6D757465 		.ascii	"mutex_t\000"
 3207      785F7400 
 3208              	.LASF85:
 3209 02fb 69646C65 		.ascii	"idle_thread_wa\000"
 3209      5F746872 
 3209      6561645F 
 3209      776100
 3210              	.LASF28:
 3211 030a 636E745F 		.ascii	"cnt_t\000"
 3211      7400
 3212              	.LASF38:
 3213 0310 705F7374 		.ascii	"p_stklimit\000"
 3213      6B6C696D 
 3213      697400
 3214              	.LASF0:
 3215 031b 756E7369 		.ascii	"unsigned int\000"
 3215      676E6564 
 3215      20696E74 
 3215      00
 3216              	.LASF69:
 3217 0328 76745F6E 		.ascii	"vt_next\000"
 3217      65787400 
 3218              	.LASF16:
 3219 0330 75696E74 		.ascii	"uint16_t\000"
 3219      31365F74 
 3219      00
 3220              	.LASF87:
 3221 0339 53797374 		.ascii	"SystemCoreClock\000"
 3221      656D436F 
 3221      7265436C 
 3221      6F636B00 
 3222              	.LASF43:
 3223 0349 705F7469 		.ascii	"p_time\000"
 3223      6D6500
 3224              	.LASF98:
 3225 0350 77747365 		.ascii	"wtsemp\000"
 3225      6D7000
 3226              	.LASF71:
 3227 0357 76745F64 		.ascii	"vt_delta\000"
 3227      656C7461 
 3227      00
ARM GAS  /tmp/ccAzQ4P9.s 			page 60


 3228              	.LASF45:
 3229 0360 705F6D73 		.ascii	"p_msgqueue\000"
 3229      67717565 
 3229      756500
 3230              	.LASF128:
 3231 036b 63685F64 		.ascii	"ch_debug\000"
 3231      65627567 
 3231      00
 3232              	.LASF136:
 3233 0374 6D656D6F 		.ascii	"memory_pool_t\000"
 3233      72795F70 
 3233      6F6F6C5F 
 3233      7400
 3234              	.LASF103:
 3235 0382 735F636E 		.ascii	"s_cnt\000"
 3235      7400
 3236              	.LASF7:
 3237 0388 73686F72 		.ascii	"short unsigned int\000"
 3237      7420756E 
 3237      7369676E 
 3237      65642069 
 3237      6E7400
 3238              	.LASF54:
 3239 039b 63685F74 		.ascii	"ch_thread\000"
 3239      68726561 
 3239      6400
 3240              	.LASF26:
 3241 03a5 6D73675F 		.ascii	"msg_t\000"
 3241      7400
 3242              	.LASF80:
 3243 03ab 63685F73 		.ascii	"ch_system_t\000"
 3243      79737465 
 3243      6D5F7400 
 3244              	.LASF146:
 3245 03b7 6368506F 		.ascii	"chPoolAdd\000"
 3245      6F6C4164 
 3245      6400
 3246              	.LASF126:
 3247 03c1 63665F6F 		.ascii	"cf_off_time\000"
 3247      66665F74 
 3247      696D6500 
 3248              	.LASF143:
 3249 03cd 6368506F 		.ascii	"chPoolObjectInit\000"
 3249      6F6C4F62 
 3249      6A656374 
 3249      496E6974 
 3249      00
 3250              	.LASF59:
 3251 03de 63685F72 		.ascii	"ch_ready_list\000"
 3251      65616479 
 3251      5F6C6973 
 3251      7400
 3252              	.LASF27:
 3253 03ec 6576656E 		.ascii	"eventmask_t\000"
 3253      746D6173 
 3253      6B5F7400 
 3254              	.LASF8:
ARM GAS  /tmp/ccAzQ4P9.s 			page 61


 3255 03f8 5F5F696E 		.ascii	"__int32_t\000"
 3255      7433325F 
 3255      7400
 3256              	.LASF89:
 3257 0402 73746B61 		.ascii	"stkalign_t\000"
 3257      6C69676E 
 3257      5F7400
 3258              	.LASF110:
 3259 040d 63685F7A 		.ascii	"ch_zero\000"
 3259      65726F00 
 3260              	.LASF124:
 3261 0415 63665F6F 		.ascii	"cf_off_refs\000"
 3261      66665F72 
 3261      65667300 
 3262              	.LASF61:
 3263 0421 725F7072 		.ascii	"r_prio\000"
 3263      696F00
 3264              	.LASF44:
 3265 0428 705F7761 		.ascii	"p_waiting\000"
 3265      6974696E 
 3265      6700
 3266              	.LASF20:
 3267 0432 7274636E 		.ascii	"rtcnt_t\000"
 3267      745F7400 
 3268              	.LASF75:
 3269 043a 63685F76 		.ascii	"ch_virtual_timers_list\000"
 3269      69727475 
 3269      616C5F74 
 3269      696D6572 
 3269      735F6C69 
 3270              	.LASF114:
 3271 0451 63685F74 		.ascii	"ch_timesize\000"
 3271      696D6573 
 3271      697A6500 
 3272              	.LASF141:
 3273 045d 6368506F 		.ascii	"chPoolAllocI\000"
 3273      6F6C416C 
 3273      6C6F6349 
 3273      00
 3274              	.LASF139:
 3275 046a 6368506F 		.ascii	"chPoolFreeI\000"
 3275      6F6C4672 
 3275      65654900 
 3276              	.LASF120:
 3277 0476 63665F6F 		.ascii	"cf_off_name\000"
 3277      66665F6E 
 3277      616D6500 
 3278              	.LASF36:
 3279 0482 705F6F6C 		.ascii	"p_older\000"
 3279      64657200 
 3280              	.LASF62:
 3281 048a 725F6374 		.ascii	"r_ctx\000"
 3281      7800
 3282              	.LASF34:
 3283 0490 705F6374 		.ascii	"p_ctx\000"
 3283      7800
 3284              	.LASF134:
ARM GAS  /tmp/ccAzQ4P9.s 			page 62


 3285 0496 6D705F6F 		.ascii	"mp_object_size\000"
 3285      626A6563 
 3285      745F7369 
 3285      7A6500
 3286              	.LASF93:
 3287 04a5 746D5F63 		.ascii	"tm_calibration_t\000"
 3287      616C6962 
 3287      72617469 
 3287      6F6E5F74 
 3287      00
 3288              	.LASF65:
 3289 04b6 725F6375 		.ascii	"r_current\000"
 3289      7272656E 
 3289      7400
 3290              	.LASF64:
 3291 04c0 725F6F6C 		.ascii	"r_older\000"
 3291      64657200 
 3292              	.LASF152:
 3293 04c8 5F5F656E 		.ascii	"__enable_irq\000"
 3293      61626C65 
 3293      5F697271 
 3293      00
 3294              	.LASF13:
 3295 04d5 5F5F7569 		.ascii	"__uint64_t\000"
 3295      6E743634 
 3295      5F7400
 3296              	.LASF132:
 3297 04e0 70685F6E 		.ascii	"ph_next\000"
 3297      65787400 
 3298              	.LASF151:
 3299 04e8 5F5F6469 		.ascii	"__disable_irq\000"
 3299      7361626C 
 3299      655F6972 
 3299      7100
 3300              	.LASF113:
 3301 04f6 63685F70 		.ascii	"ch_ptrsize\000"
 3301      74727369 
 3301      7A6500
 3302              	.LASF67:
 3303 0501 76697274 		.ascii	"virtual_timer_t\000"
 3303      75616C5F 
 3303      74696D65 
 3303      725F7400 
 3304              	.LASF32:
 3305 0511 705F7072 		.ascii	"p_prev\000"
 3305      657600
 3306              	.LASF25:
 3307 0518 74707269 		.ascii	"tprio_t\000"
 3307      6F5F7400 
 3308              	.LASF78:
 3309 0520 63685F73 		.ascii	"ch_system_debug\000"
 3309      79737465 
 3309      6D5F6465 
 3309      62756700 
 3310              	.LASF17:
 3311 0530 696E7433 		.ascii	"int32_t\000"
 3311      325F7400 
ARM GAS  /tmp/ccAzQ4P9.s 			page 63


 3312              	.LASF4:
 3313 0538 756E7369 		.ascii	"unsigned char\000"
 3313      676E6564 
 3313      20636861 
 3313      7200
 3314              	.LASF48:
 3315 0546 705F6D74 		.ascii	"p_mtxlist\000"
 3315      786C6973 
 3315      7400
 3316              	.LASF5:
 3317 0550 73686F72 		.ascii	"short int\000"
 3317      7420696E 
 3317      7400
 3318              	.LASF39:
 3319 055a 705F7374 		.ascii	"p_state\000"
 3319      61746500 
 3320              	.LASF42:
 3321 0562 705F7072 		.ascii	"p_preempt\000"
 3321      65656D70 
 3321      7400
 3322              	.LASF112:
 3323 056c 63685F76 		.ascii	"ch_version\000"
 3323      65727369 
 3323      6F6E00
 3324              	.LASF100:
 3325 0577 65776D61 		.ascii	"ewmask\000"
 3325      736B00
 3326              	.LASF31:
 3327 057e 705F6E65 		.ascii	"p_next\000"
 3327      787400
 3328              	.LASF21:
 3329 0585 746D6F64 		.ascii	"tmode_t\000"
 3329      655F7400 
 3330              	.LASF125:
 3331 058d 63665F6F 		.ascii	"cf_off_preempt\000"
 3331      66665F70 
 3331      7265656D 
 3331      707400
 3332              	.LASF140:
 3333 059c 5F5F6675 		.ascii	"__func__\000"
 3333      6E635F5F 
 3333      00
 3334              	.LASF148:
 3335 05a5 63685379 		.ascii	"chSysLock\000"
 3335      734C6F63 
 3335      6B00
 3336              	.LASF137:
 3337 05af 6F626A70 		.ascii	"objp\000"
 3337      00
 3338              	.LASF56:
 3339 05b4 74687265 		.ascii	"threads_queue_t\000"
 3339      6164735F 
 3339      71756575 
 3339      655F7400 
 3340              	.LASF68:
 3341 05c4 63685F76 		.ascii	"ch_virtual_timer\000"
 3341      69727475 
ARM GAS  /tmp/ccAzQ4P9.s 			page 64


 3341      616C5F74 
 3341      696D6572 
 3341      00
 3342              	.LASF118:
 3343 05d5 63665F6F 		.ascii	"cf_off_newer\000"
 3343      66665F6E 
 3343      65776572 
 3343      00
 3344              	.LASF101:
 3345 05e2 63685F73 		.ascii	"ch_semaphore\000"
 3345      656D6170 
 3345      686F7265 
 3345      00
 3346              	.LASF47:
 3347 05ef 705F6570 		.ascii	"p_epending\000"
 3347      656E6469 
 3347      6E6700
 3348              	.LASF155:
 3349 05fa 2F626C64 		.ascii	"/bldc\000"
 3349      6300
 3350              	.LASF18:
 3351 0600 75696E74 		.ascii	"uint32_t\000"
 3351      33325F74 
 3351      00
 3352              	.LASF116:
 3353 0609 63665F6F 		.ascii	"cf_off_prio\000"
 3353      66665F70 
 3353      72696F00 
 3354              	.LASF60:
 3355 0615 725F7175 		.ascii	"r_queue\000"
 3355      65756500 
 3356              	.LASF55:
 3357 061d 63685F74 		.ascii	"ch_threads_list\000"
 3357      68726561 
 3357      64735F6C 
 3357      69737400 
 3358              	.LASF111:
 3359 062d 63685F73 		.ascii	"ch_size\000"
 3359      697A6500 
 3360              	.LASF11:
 3361 0635 6C6F6E67 		.ascii	"long unsigned int\000"
 3361      20756E73 
 3361      69676E65 
 3361      6420696E 
 3361      7400
 3362              	.LASF108:
 3363 0647 63686172 		.ascii	"char\000"
 3363      00
 3364              	.LASF99:
 3365 064c 77746D74 		.ascii	"wtmtxp\000"
 3365      787000
 3366              	.LASF6:
 3367 0653 5F5F7569 		.ascii	"__uint16_t\000"
 3367      6E743136 
 3367      5F7400
 3368              	.LASF30:
 3369 065e 74687265 		.ascii	"thread_t\000"
ARM GAS  /tmp/ccAzQ4P9.s 			page 65


 3369      61645F74 
 3369      00
 3370              	.LASF107:
 3371 0667 6D5F6E65 		.ascii	"m_next\000"
 3371      787400
 3372              	.LASF29:
 3373 066e 73797374 		.ascii	"systime_t\000"
 3373      696D655F 
 3373      7400
 3374              	.LASF49:
 3375 0678 705F7265 		.ascii	"p_realprio\000"
 3375      616C7072 
 3375      696F00
 3376              	.LASF66:
 3377 0683 76746675 		.ascii	"vtfunc_t\000"
 3377      6E635F74 
 3377      00
 3378              	.LASF10:
 3379 068c 5F5F7569 		.ascii	"__uint32_t\000"
 3379      6E743332 
 3379      5F7400
 3380              	.LASF79:
 3381 0697 70616E69 		.ascii	"panic_msg\000"
 3381      635F6D73 
 3381      6700
 3382              	.LASF92:
 3383 06a1 6F666673 		.ascii	"offset\000"
 3383      657400
 3384              	.LASF104:
 3385 06a8 63685F6D 		.ascii	"ch_mutex\000"
 3385      75746578 
 3385      00
 3386              	.LASF133:
 3387 06b1 6D705F6E 		.ascii	"mp_next\000"
 3387      65787400 
 3388              	.LASF90:
 3389 06b9 636F6E74 		.ascii	"context\000"
 3389      65787400 
 3390              	.LASF46:
 3391 06c1 705F6D73 		.ascii	"p_msg\000"
 3391      6700
 3392              	.LASF73:
 3393 06c7 76745F70 		.ascii	"vt_par\000"
 3393      617200
 3394              	.LASF117:
 3395 06ce 63665F6F 		.ascii	"cf_off_ctx\000"
 3395      66665F63 
 3395      747800
 3396              	.LASF131:
 3397 06d9 706F6F6C 		.ascii	"pool_header\000"
 3397      5F686561 
 3397      64657200 
 3398              	.LASF41:
 3399 06e5 705F7265 		.ascii	"p_refs\000"
 3399      667300
 3400              	.LASF51:
 3401 06ec 6D6F746F 		.ascii	"motor_selected\000"
ARM GAS  /tmp/ccAzQ4P9.s 			page 66


 3401      725F7365 
 3401      6C656374 
 3401      656400
 3402              	.LASF82:
 3403 06fb 726C6973 		.ascii	"rlist\000"
 3403      7400
 3404              	.LASF15:
 3405 0701 75696E74 		.ascii	"uint8_t\000"
 3405      385F7400 
 3406              	.LASF156:
 3407 0709 6368506F 		.ascii	"chPoolAlloc\000"
 3407      6F6C416C 
 3407      6C6F6300 
 3408              	.LASF138:
 3409 0715 6368506F 		.ascii	"chPoolFree\000"
 3409      6F6C4672 
 3409      656500
 3410              	.LASF52:
 3411 0720 74687265 		.ascii	"thread_reference_t\000"
 3411      61645F72 
 3411      65666572 
 3411      656E6365 
 3411      5F7400
 3412              	.LASF96:
 3413 0733 77746F62 		.ascii	"wtobjp\000"
 3413      6A7000
 3414              	.LASF37:
 3415 073a 705F6E61 		.ascii	"p_name\000"
 3415      6D6500
 3416              	.LASF144:
 3417 0741 73697A65 		.ascii	"size\000"
 3417      00
 3418              	.LASF53:
 3419 0746 74687265 		.ascii	"threads_list_t\000"
 3419      6164735F 
 3419      6C697374 
 3419      5F7400
 3420              	.LASF40:
 3421 0755 705F666C 		.ascii	"p_flags\000"
 3421      61677300 
 3422              	.LASF147:
 3423 075d 63685379 		.ascii	"chSysUnlock\000"
 3423      73556E6C 
 3423      6F636B00 
 3424              	.LASF142:
 3425 0769 6368506F 		.ascii	"chPoolLoadArray\000"
 3425      6F6C4C6F 
 3425      61644172 
 3425      72617900 
 3426              	.LASF106:
 3427 0779 6D5F6F77 		.ascii	"m_owner\000"
 3427      6E657200 
 3428              	.LASF109:
 3429 0781 63685F69 		.ascii	"ch_identifier\000"
 3429      64656E74 
 3429      69666965 
 3429      7200
ARM GAS  /tmp/ccAzQ4P9.s 			page 67


 3430              	.LASF72:
 3431 078f 76745F66 		.ascii	"vt_func\000"
 3431      756E6300 
 3432              	.LASF154:
 3433 0797 43686962 		.ascii	"ChibiOS_3.0.5/os/rt/src/chmempools.c\000"
 3433      694F535F 
 3433      332E302E 
 3433      352F6F73 
 3433      2F72742F 
 3434              		.ident	"GCC: (GNU Tools for Arm Embedded Processors 7-2018-q3-update) 7.3.1 20180622 (release) [AR
ARM GAS  /tmp/ccAzQ4P9.s 			page 68


DEFINED SYMBOLS
                            *ABS*:0000000000000000 chmempools.c
     /tmp/ccAzQ4P9.s:18     .text.chPoolObjectInit:0000000000000000 $t
     /tmp/ccAzQ4P9.s:26     .text.chPoolObjectInit:0000000000000000 chPoolObjectInit
     /tmp/ccAzQ4P9.s:47     .text.chPoolLoadArray:0000000000000000 $t
     /tmp/ccAzQ4P9.s:55     .text.chPoolLoadArray:0000000000000000 chPoolLoadArray
     /tmp/ccAzQ4P9.s:134    .text.chPoolAllocI:0000000000000000 $t
     /tmp/ccAzQ4P9.s:142    .text.chPoolAllocI:0000000000000000 chPoolAllocI
     /tmp/ccAzQ4P9.s:182    .text.chPoolAlloc:0000000000000000 $t
     /tmp/ccAzQ4P9.s:190    .text.chPoolAlloc:0000000000000000 chPoolAlloc
     /tmp/ccAzQ4P9.s:294    .text.chPoolFreeI:0000000000000000 $t
     /tmp/ccAzQ4P9.s:302    .text.chPoolFreeI:0000000000000000 chPoolFreeI
     /tmp/ccAzQ4P9.s:321    .text.chPoolFree:0000000000000000 $t
     /tmp/ccAzQ4P9.s:329    .text.chPoolFree:0000000000000000 chPoolFree

NO UNDEFINED SYMBOLS
