ARM GAS  /tmp/ccAzQ4P9.s 			page 1


   1              		.cpu cortex-m4
   2              		.eabi_attribute 27, 1
   3              		.eabi_attribute 28, 1
   4              		.eabi_attribute 20, 1
   5              		.eabi_attribute 21, 1
   6              		.eabi_attribute 23, 3
   7              		.eabi_attribute 24, 1
   8              		.eabi_attribute 25, 1
   9              		.eabi_attribute 26, 1
  10              		.eabi_attribute 30, 2
  11              		.eabi_attribute 34, 1
  12              		.eabi_attribute 18, 4
  13              		.file	"chmempools.c"
  14              		.text
  15              	.Ltext0:
  16              		.cfi_sections	.debug_frame
  17              		.section	.text.chPoolObjectInit,"ax",%progbits
  18              		.align	1
  19              		.p2align 4,,15
  20              		.global	chPoolObjectInit
  21              		.syntax unified
  22              		.thumb
  23              		.thumb_func
  24              		.fpu fpv4-sp-d16
  25              		.type	chPoolObjectInit, %function
  26              	chPoolObjectInit:
  27              	.LFB219:
  28              		.file 1 "ChibiOS_3.0.5/os/rt/src/chmempools.c"
  29              		.loc 1 75 0
  30              		.cfi_startproc
  31              		@ args = 0, pretend = 0, frame = 0
  32              		@ frame_needed = 0, uses_anonymous_args = 0
  33              		@ link register save eliminated.
  34              	.LVL0:
  35              		.loc 1 79 0
  36 0000 0023     		movs	r3, #0
  37              		.loc 1 81 0
  38 0002 C0E90112 		strd	r1, r2, [r0, #4]
  39              		.loc 1 79 0
  40 0006 0360     		str	r3, [r0]
  41              		.loc 1 82 0
  42 0008 7047     		bx	lr
  43              		.cfi_endproc
  44              	.LFE219:
  45              		.size	chPoolObjectInit, .-chPoolObjectInit
  46 000a 00BF     		.section	.text.chPoolLoadArray,"ax",%progbits
  47              		.align	1
  48              		.p2align 4,,15
  49              		.global	chPoolLoadArray
  50              		.syntax unified
  51              		.thumb
  52              		.thumb_func
  53              		.fpu fpv4-sp-d16
  54              		.type	chPoolLoadArray, %function
  55              	chPoolLoadArray:
  56              	.LFB220:
  57              		.loc 1 97 0
ARM GAS  /tmp/ccAzQ4P9.s 			page 2


  58              		.cfi_startproc
  59              		@ args = 0, pretend = 0, frame = 0
  60              		@ frame_needed = 0, uses_anonymous_args = 0
  61              		@ link register save eliminated.
  62              	.LVL1:
  63              		.loc 1 101 0
  64 0000 42B1     		cbz	r2, .L3
  65              	.LVL2:
  66              	.L5:
  67              	.LBB77:
  68              	.LBB78:
  69              	.LBB79:
  70              	.LBB80:
  71              	.LBB81:
  72              	.LBB82:
  73              		.file 2 "ChibiOS_3.0.5/os/ext/CMSIS/include/core_cmFunc.h"
  74              		.loc 2 342 0
  75              		.syntax unified
  76              	@ 342 "ChibiOS_3.0.5/os/ext/CMSIS/include/core_cmFunc.h" 1
  77 0002 72B6     		cpsid i
  78              	@ 0 "" 2
  79              	.LVL3:
  80              		.thumb
  81              		.syntax unified
  82              	.LBE82:
  83              	.LBE81:
  84              	.LBE80:
  85              	.LBE79:
  86              	.LBB83:
  87              	.LBB84:
  88              		.loc 1 177 0
  89 0004 0368     		ldr	r3, [r0]
  90 0006 0B60     		str	r3, [r1]
  91              		.loc 1 178 0
  92 0008 0160     		str	r1, [r0]
  93              	.LVL4:
  94              	.LBE84:
  95              	.LBE83:
  96              	.LBB85:
  97              	.LBB86:
  98              	.LBB87:
  99              	.LBB88:
 100              	.LBB89:
 101              		.loc 2 331 0
 102              		.syntax unified
 103              	@ 331 "ChibiOS_3.0.5/os/ext/CMSIS/include/core_cmFunc.h" 1
 104 000a 62B6     		cpsie i
 105              	@ 0 "" 2
 106              	.LVL5:
 107              		.thumb
 108              		.syntax unified
 109              	.LBE89:
 110              	.LBE88:
 111              	.LBE87:
 112              	.LBE86:
 113              	.LBE85:
 114              	.LBE78:
ARM GAS  /tmp/ccAzQ4P9.s 			page 3


 115              	.LBE77:
 116              		.loc 1 104 0
 117 000c 4368     		ldr	r3, [r0, #4]
 118              		.loc 1 101 0
 119 000e 013A     		subs	r2, r2, #1
 120              	.LVL6:
 121              		.loc 1 104 0
 122 0010 1944     		add	r1, r1, r3
 123              	.LVL7:
 124              		.loc 1 101 0
 125 0012 F6D1     		bne	.L5
 126              	.LVL8:
 127              	.L3:
 128              		.loc 1 108 0
 129 0014 7047     		bx	lr
 130              		.cfi_endproc
 131              	.LFE220:
 132              		.size	chPoolLoadArray, .-chPoolLoadArray
 133 0016 00BF     		.section	.text.chPoolAllocI,"ax",%progbits
 134              		.align	1
 135              		.p2align 4,,15
 136              		.global	chPoolAllocI
 137              		.syntax unified
 138              		.thumb
 139              		.thumb_func
 140              		.fpu fpv4-sp-d16
 141              		.type	chPoolAllocI, %function
 142              	chPoolAllocI:
 143              	.LFB221:
 144              		.loc 1 120 0
 145              		.cfi_startproc
 146              		@ args = 0, pretend = 0, frame = 0
 147              		@ frame_needed = 0, uses_anonymous_args = 0
 148              		@ link register save eliminated.
 149              	.LVL9:
 150              		.loc 1 126 0
 151 0000 0368     		ldr	r3, [r0]
 152              	.LVL10:
 153              		.loc 1 128 0
 154 0002 1BB1     		cbz	r3, .L11
 155              		.loc 1 129 0
 156 0004 1A68     		ldr	r2, [r3]
 157 0006 0260     		str	r2, [r0]
 158              	.L10:
 159              		.loc 1 137 0
 160 0008 1846     		mov	r0, r3
 161              	.LVL11:
 162 000a 7047     		bx	lr
 163              	.LVL12:
 164              	.L11:
 165              	.LBB92:
 166              	.LBB93:
 167              		.loc 1 131 0
 168 000c 8268     		ldr	r2, [r0, #8]
 169 000e 002A     		cmp	r2, #0
 170 0010 FAD0     		beq	.L10
 171              		.loc 1 132 0
ARM GAS  /tmp/ccAzQ4P9.s 			page 4


 172 0012 4068     		ldr	r0, [r0, #4]
 173              	.LVL13:
 174 0014 1047     		bx	r2
 175              	.LVL14:
 176              	.LBE93:
 177              	.LBE92:
 178              		.cfi_endproc
 179              	.LFE221:
 180              		.size	chPoolAllocI, .-chPoolAllocI
 181 0016 00BF     		.section	.text.chPoolAlloc,"ax",%progbits
 182              		.align	1
 183              		.p2align 4,,15
 184              		.global	chPoolAlloc
 185              		.syntax unified
 186              		.thumb
 187              		.thumb_func
 188              		.fpu fpv4-sp-d16
 189              		.type	chPoolAlloc, %function
 190              	chPoolAlloc:
 191              	.LFB222:
 192              		.loc 1 149 0
 193              		.cfi_startproc
 194              		@ args = 0, pretend = 0, frame = 0
 195              		@ frame_needed = 0, uses_anonymous_args = 0
 196              	.LVL15:
 197 0000 08B5     		push	{r3, lr}
 198              		.cfi_def_cfa_offset 8
 199              		.cfi_offset 3, -8
 200              		.cfi_offset 14, -4
 201              		.loc 1 149 0
 202 0002 0346     		mov	r3, r0
 203              	.LBB107:
 204              	.LBB108:
 205              	.LBB109:
 206              	.LBB110:
 207              		.loc 2 342 0
 208              		.syntax unified
 209              	@ 342 "ChibiOS_3.0.5/os/ext/CMSIS/include/core_cmFunc.h" 1
 210 0004 72B6     		cpsid i
 211              	@ 0 "" 2
 212              	.LVL16:
 213              		.thumb
 214              		.syntax unified
 215              	.LBE110:
 216              	.LBE109:
 217              	.LBE108:
 218              	.LBE107:
 219              	.LBB111:
 220              	.LBB112:
 221              		.loc 1 126 0
 222 0006 0068     		ldr	r0, [r0]
 223              	.LVL17:
 224              		.loc 1 128 0
 225 0008 18B1     		cbz	r0, .L17
 226              		.loc 1 129 0
 227 000a 0268     		ldr	r2, [r0]
 228 000c 1A60     		str	r2, [r3]
ARM GAS  /tmp/ccAzQ4P9.s 			page 5


 229              	.L18:
 230              	.LVL18:
 231              	.LBE112:
 232              	.LBE111:
 233              	.LBB116:
 234              	.LBB117:
 235              	.LBB118:
 236              	.LBB119:
 237              	.LBB120:
 238              		.loc 2 331 0
 239              		.syntax unified
 240              	@ 331 "ChibiOS_3.0.5/os/ext/CMSIS/include/core_cmFunc.h" 1
 241 000e 62B6     		cpsie i
 242              	@ 0 "" 2
 243              		.thumb
 244              		.syntax unified
 245              	.LBE120:
 246              	.LBE119:
 247              	.LBE118:
 248              	.LBE117:
 249              	.LBE116:
 250              		.loc 1 157 0
 251 0010 08BD     		pop	{r3, pc}
 252              	.LVL19:
 253              	.L17:
 254              	.LBB125:
 255              	.LBB115:
 256              	.LBB113:
 257              	.LBB114:
 258              		.loc 1 131 0
 259 0012 9A68     		ldr	r2, [r3, #8]
 260 0014 002A     		cmp	r2, #0
 261 0016 FAD0     		beq	.L18
 262              		.loc 1 132 0
 263 0018 5868     		ldr	r0, [r3, #4]
 264              	.LVL20:
 265 001a 9047     		blx	r2
 266              	.LVL21:
 267              	.LBE114:
 268              	.LBE113:
 269              	.LBE115:
 270              	.LBE125:
 271              	.LBB126:
 272              	.LBB124:
 273              	.LBB123:
 274              	.LBB122:
 275              	.LBB121:
 276              		.loc 2 331 0
 277              		.syntax unified
 278              	@ 331 "ChibiOS_3.0.5/os/ext/CMSIS/include/core_cmFunc.h" 1
 279 001c 62B6     		cpsie i
 280              	@ 0 "" 2
 281              		.thumb
 282              		.syntax unified
 283              	.LBE121:
 284              	.LBE122:
 285              	.LBE123:
ARM GAS  /tmp/ccAzQ4P9.s 			page 6


 286              	.LBE124:
 287              	.LBE126:
 288              		.loc 1 157 0
 289 001e 08BD     		pop	{r3, pc}
 290              		.cfi_endproc
 291              	.LFE222:
 292              		.size	chPoolAlloc, .-chPoolAlloc
 293              		.section	.text.chPoolFreeI,"ax",%progbits
 294              		.align	1
 295              		.p2align 4,,15
 296              		.global	chPoolFreeI
 297              		.syntax unified
 298              		.thumb
 299              		.thumb_func
 300              		.fpu fpv4-sp-d16
 301              		.type	chPoolFreeI, %function
 302              	chPoolFreeI:
 303              	.LFB223:
 304              		.loc 1 171 0
 305              		.cfi_startproc
 306              		@ args = 0, pretend = 0, frame = 0
 307              		@ frame_needed = 0, uses_anonymous_args = 0
 308              		@ link register save eliminated.
 309              	.LVL22:
 310              		.loc 1 177 0
 311 0000 0368     		ldr	r3, [r0]
 312 0002 0B60     		str	r3, [r1]
 313              		.loc 1 178 0
 314 0004 0160     		str	r1, [r0]
 315              		.loc 1 179 0
 316 0006 7047     		bx	lr
 317              		.cfi_endproc
 318              	.LFE223:
 319              		.size	chPoolFreeI, .-chPoolFreeI
 320              		.section	.text.chPoolFree,"ax",%progbits
 321              		.align	1
 322              		.p2align 4,,15
 323              		.global	chPoolFree
 324              		.syntax unified
 325              		.thumb
 326              		.thumb_func
 327              		.fpu fpv4-sp-d16
 328              		.type	chPoolFree, %function
 329              	chPoolFree:
 330              	.LFB224:
 331              		.loc 1 193 0
 332              		.cfi_startproc
 333              		@ args = 0, pretend = 0, frame = 0
 334              		@ frame_needed = 0, uses_anonymous_args = 0
 335              		@ link register save eliminated.
 336              	.LVL23:
 337              	.LBB127:
 338              	.LBB128:
 339              	.LBB129:
 340              	.LBB130:
 341              		.loc 2 342 0
 342              		.syntax unified
ARM GAS  /tmp/ccAzQ4P9.s 			page 7


 343              	@ 342 "ChibiOS_3.0.5/os/ext/CMSIS/include/core_cmFunc.h" 1
 344 0000 72B6     		cpsid i
 345              	@ 0 "" 2
 346              	.LVL24:
 347              		.thumb
 348              		.syntax unified
 349              	.LBE130:
 350              	.LBE129:
 351              	.LBE128:
 352              	.LBE127:
 353              	.LBB131:
 354              	.LBB132:
 355              		.loc 1 177 0
 356 0002 0368     		ldr	r3, [r0]
 357 0004 0B60     		str	r3, [r1]
 358              		.loc 1 178 0
 359 0006 0160     		str	r1, [r0]
 360              	.LVL25:
 361              	.LBE132:
 362              	.LBE131:
 363              	.LBB133:
 364              	.LBB134:
 365              	.LBB135:
 366              	.LBB136:
 367              	.LBB137:
 368              		.loc 2 331 0
 369              		.syntax unified
 370              	@ 331 "ChibiOS_3.0.5/os/ext/CMSIS/include/core_cmFunc.h" 1
 371 0008 62B6     		cpsie i
 372              	@ 0 "" 2
 373              		.thumb
 374              		.syntax unified
 375              	.LBE137:
 376              	.LBE136:
 377              	.LBE135:
 378              	.LBE134:
 379              	.LBE133:
 380              		.loc 1 198 0
 381 000a 7047     		bx	lr
 382              		.cfi_endproc
 383              	.LFE224:
 384              		.size	chPoolFree, .-chPoolFree
 385              		.text
 386              	.Letext0:
 387              		.file 3 "/usr/lib/gcc/arm-none-eabi/7.3.1/include/stddef.h"
 388              		.file 4 "/usr/arm-none-eabi/include/machine/_default_types.h"
 389              		.file 5 "/usr/arm-none-eabi/include/sys/_stdint.h"
 390              		.file 6 "ChibiOS_3.0.5/os/rt/ports/ARMCMx/compilers/GCC/chtypes.h"
 391              		.file 7 "ChibiOS_3.0.5/os/rt/include/chsystypes.h"
 392              		.file 8 "ChibiOS_3.0.5/os/rt/include/chschd.h"
 393              		.file 9 "ChibiOS_3.0.5/os/ext/CMSIS/include/core_cm4.h"
 394              		.file 10 "ChibiOS_3.0.5/os/ext/CMSIS/ST/system_stm32f4xx.h"
 395              		.file 11 "ChibiOS_3.0.5/os/rt/ports/ARMCMx/chcore.h"
 396              		.file 12 "ChibiOS_3.0.5/os/rt/ports/ARMCMx/chcore_v7m.h"
 397              		.file 13 "ChibiOS_3.0.5/os/rt/include/chtm.h"
 398              		.file 14 "ChibiOS_3.0.5/os/rt/include/chsem.h"
 399              		.file 15 "ChibiOS_3.0.5/os/rt/include/chmtx.h"
ARM GAS  /tmp/ccAzQ4P9.s 			page 8


 400              		.file 16 "ChibiOS_3.0.5/os/rt/include/chregistry.h"
 401              		.file 17 "ChibiOS_3.0.5/os/rt/include/chmemcore.h"
 402              		.file 18 "ChibiOS_3.0.5/os/rt/include/chmempools.h"
 403              		.file 19 "ChibiOS_3.0.5/os/rt/include/chsys.h"