ARM GAS  /tmp/cc5z8uJd.s 			page 1


   1              		.cpu cortex-m4
   2              		.eabi_attribute 27, 1
   3              		.eabi_attribute 28, 1
   4              		.eabi_attribute 20, 1
   5              		.eabi_attribute 21, 1
   6              		.eabi_attribute 23, 3
   7              		.eabi_attribute 24, 1
   8              		.eabi_attribute 25, 1
   9              		.eabi_attribute 26, 1
  10              		.eabi_attribute 30, 2
  11              		.eabi_attribute 34, 1
  12              		.eabi_attribute 18, 4
  13              		.file	"chmsg.c"
  14              		.text
  15              	.Ltext0:
  16              		.cfi_sections	.debug_frame
  17              		.section	.text.chMsgSend,"ax",%progbits
  18              		.align	1
  19              		.p2align 4,,15
  20              		.global	chMsgSend
  21              		.syntax unified
  22              		.thumb
  23              		.thumb_func
  24              		.fpu fpv4-sp-d16
  25              		.type	chMsgSend, %function
  26              	chMsgSend:
  27              	.LFB219:
  28              		.file 1 "ChibiOS_3.0.5/os/rt/src/chmsg.c"
  29              		.loc 1 87 0
  30              		.cfi_startproc
  31              		@ args = 0, pretend = 0, frame = 0
  32              		@ frame_needed = 0, uses_anonymous_args = 0
  33              	.LVL0:
  34              		.loc 1 88 0
  35 0000 0C4B     		ldr	r3, .L6
  36              		.loc 1 87 0
  37 0002 10B5     		push	{r4, lr}
  38              		.cfi_def_cfa_offset 8
  39              		.cfi_offset 4, -8
  40              		.cfi_offset 14, -4
  41              		.loc 1 88 0
  42 0004 9C69     		ldr	r4, [r3, #24]
  43              	.LVL1:
  44              	.LBB52:
  45              	.LBB53:
  46              	.LBB54:
  47              	.LBB55:
  48              		.file 2 "ChibiOS_3.0.5/os/ext/CMSIS/include/core_cmFunc.h"
  49              		.loc 2 342 0
  50              		.syntax unified
  51              	@ 342 "ChibiOS_3.0.5/os/ext/CMSIS/include/core_cmFunc.h" 1
  52 0006 72B6     		cpsid i
  53              	@ 0 "" 2
  54              		.thumb
  55              		.syntax unified
  56              	.LBE55:
  57              	.LBE54:
ARM GAS  /tmp/cc5z8uJd.s 			page 2


  58              	.LBE53:
  59              	.LBE52:
  60              	.LBB56:
  61              	.LBB57:
  62              		.file 3 "ChibiOS_3.0.5/os/rt/include/chschd.h"
  63              		.loc 3 666 0
  64 0008 426B     		ldr	r2, [r0, #52]
  65              	.LBE57:
  66              	.LBE56:
  67              		.loc 1 93 0
  68 000a A163     		str	r1, [r4, #56]
  69              		.loc 1 94 0
  70 000c 00F13001 		add	r1, r0, #48
  71              	.LVL2:
  72              	.LBB61:
  73              	.LBB58:
  74              		.loc 3 666 0
  75 0010 6260     		str	r2, [r4, #4]
  76              	.LBE58:
  77              	.LBE61:
  78              		.loc 1 94 0
  79 0012 A162     		str	r1, [r4, #40]
  80              	.LVL3:
  81              	.LBB62:
  82              	.LBB59:
  83              		.loc 3 665 0
  84 0014 2160     		str	r1, [r4]
  85              		.loc 3 667 0
  86 0016 1460     		str	r4, [r2]
  87              	.LBE59:
  88              	.LBE62:
  89              		.loc 1 96 0
  90 0018 90F82020 		ldrb	r2, [r0, #32]	@ zero_extendqisi2
  91              	.LBB63:
  92              	.LBB60:
  93              		.loc 3 668 0
  94 001c 4463     		str	r4, [r0, #52]
  95              	.LVL4:
  96              	.LBE60:
  97              	.LBE63:
  98              		.loc 1 96 0
  99 001e 0E2A     		cmp	r2, #14
 100 0020 05D0     		beq	.L5
 101              	.LVL5:
 102              	.L2:
 103              		.loc 1 99 0
 104 0022 0C20     		movs	r0, #12
 105 0024 FFF7FEFF 		bl	chSchGoSleepS
 106              	.LVL6:
 107              		.loc 1 100 0
 108 0028 A06A     		ldr	r0, [r4, #40]
 109              	.LVL7:
 110              	.LBB64:
 111              	.LBB65:
 112              	.LBB66:
 113              	.LBB67:
 114              	.LBB68:
ARM GAS  /tmp/cc5z8uJd.s 			page 3


 115              		.loc 2 331 0
 116              		.syntax unified
 117              	@ 331 "ChibiOS_3.0.5/os/ext/CMSIS/include/core_cmFunc.h" 1
 118 002a 62B6     		cpsie i
 119              	@ 0 "" 2
 120              		.thumb
 121              		.syntax unified
 122              	.LBE68:
 123              	.LBE67:
 124              	.LBE66:
 125              	.LBE65:
 126              	.LBE64:
 127              		.loc 1 104 0
 128 002c 10BD     		pop	{r4, pc}
 129              	.LVL8:
 130              	.L5:
 131              		.loc 1 97 0
 132 002e FFF7FEFF 		bl	chSchReadyI
 133              	.LVL9:
 134 0032 F6E7     		b	.L2
 135              	.L7:
 136              		.align	2
 137              	.L6:
 138 0034 00000000 		.word	ch
 139              		.cfi_endproc
 140              	.LFE219:
 141              		.size	chMsgSend, .-chMsgSend
 142              		.section	.text.chMsgWait,"ax",%progbits
 143              		.align	1
 144              		.p2align 4,,15
 145              		.global	chMsgWait
 146              		.syntax unified
 147              		.thumb
 148              		.thumb_func
 149              		.fpu fpv4-sp-d16
 150              		.type	chMsgWait, %function
 151              	chMsgWait:
 152              	.LFB220:
 153              		.loc 1 120 0
 154              		.cfi_startproc
 155              		@ args = 0, pretend = 0, frame = 0
 156              		@ frame_needed = 0, uses_anonymous_args = 0
 157 0000 10B5     		push	{r4, lr}
 158              		.cfi_def_cfa_offset 8
 159              		.cfi_offset 4, -8
 160              		.cfi_offset 14, -4
 161              	.LBB69:
 162              	.LBB70:
 163              	.LBB71:
 164              	.LBB72:
 165              		.loc 2 342 0
 166              		.syntax unified
 167              	@ 342 "ChibiOS_3.0.5/os/ext/CMSIS/include/core_cmFunc.h" 1
 168 0002 72B6     		cpsid i
 169              	@ 0 "" 2
 170              		.thumb
 171              		.syntax unified
ARM GAS  /tmp/cc5z8uJd.s 			page 4


 172              	.LBE72:
 173              	.LBE71:
 174              	.LBE70:
 175              	.LBE69:
 176              		.loc 1 124 0
 177 0004 0B4C     		ldr	r4, .L12
 178 0006 A269     		ldr	r2, [r4, #24]
 179              	.LVL10:
 180              	.LBB73:
 181              	.LBB74:
 182              		.file 4 "ChibiOS_3.0.5/os/rt/include/chmsg.h"
 183              		.loc 4 83 0
 184 0008 1346     		mov	r3, r2
 185 000a 53F8300F 		ldr	r0, [r3, #48]!
 186              	.LVL11:
 187              	.LBE74:
 188              	.LBE73:
 189              		.loc 1 124 0
 190 000e 9842     		cmp	r0, r3
 191 0010 07D0     		beq	.L11
 192              	.L9:
 193              	.LVL12:
 194              	.LBB75:
 195              	.LBB76:
 196              		.loc 3 674 0
 197 0012 0168     		ldr	r1, [r0]
 198 0014 1163     		str	r1, [r2, #48]
 199              	.LVL13:
 200              	.LBE76:
 201              	.LBE75:
 202              		.loc 1 128 0
 203 0016 0D22     		movs	r2, #13
 204              	.LBB78:
 205              	.LBB77:
 206              		.loc 3 675 0
 207 0018 4B60     		str	r3, [r1, #4]
 208              	.LVL14:
 209              	.LBE77:
 210              	.LBE78:
 211              		.loc 1 128 0
 212 001a 80F82020 		strb	r2, [r0, #32]
 213              	.LBB79:
 214              	.LBB80:
 215              	.LBB81:
 216              	.LBB82:
 217              	.LBB83:
 218              		.loc 2 331 0
 219              		.syntax unified
 220              	@ 331 "ChibiOS_3.0.5/os/ext/CMSIS/include/core_cmFunc.h" 1
 221 001e 62B6     		cpsie i
 222              	@ 0 "" 2
 223              		.thumb
 224              		.syntax unified
 225              	.LBE83:
 226              	.LBE82:
 227              	.LBE81:
 228              	.LBE80:
ARM GAS  /tmp/cc5z8uJd.s 			page 5


 229              	.LBE79:
 230              		.loc 1 132 0
 231 0020 10BD     		pop	{r4, pc}
 232              	.L11:
 233              		.loc 1 125 0
 234 0022 0E20     		movs	r0, #14
 235 0024 FFF7FEFF 		bl	chSchGoSleepS
 236              	.LVL15:
 237 0028 A269     		ldr	r2, [r4, #24]
 238 002a 106B     		ldr	r0, [r2, #48]
 239 002c 02F13003 		add	r3, r2, #48
 240 0030 EFE7     		b	.L9
 241              	.L13:
 242 0032 00BF     		.align	2
 243              	.L12:
 244 0034 00000000 		.word	ch
 245              		.cfi_endproc
 246              	.LFE220:
 247              		.size	chMsgWait, .-chMsgWait
 248              		.section	.text.chMsgRelease,"ax",%progbits
 249              		.align	1
 250              		.p2align 4,,15
 251              		.global	chMsgRelease
 252              		.syntax unified
 253              		.thumb
 254              		.thumb_func
 255              		.fpu fpv4-sp-d16
 256              		.type	chMsgRelease, %function
 257              	chMsgRelease:
 258              	.LFB221:
 259              		.loc 1 144 0
 260              		.cfi_startproc
 261              		@ args = 0, pretend = 0, frame = 0
 262              		@ frame_needed = 0, uses_anonymous_args = 0
 263              	.LVL16:
 264 0000 08B5     		push	{r3, lr}
 265              		.cfi_def_cfa_offset 8
 266              		.cfi_offset 3, -8
 267              		.cfi_offset 14, -4
 268              	.LBB84:
 269              	.LBB85:
 270              	.LBB86:
 271              	.LBB87:
 272              		.loc 2 342 0
 273              		.syntax unified
 274              	@ 342 "ChibiOS_3.0.5/os/ext/CMSIS/include/core_cmFunc.h" 1
 275 0002 72B6     		cpsid i
 276              	@ 0 "" 2
 277              	.LVL17:
 278              		.thumb
 279              		.syntax unified
 280              	.LBE87:
 281              	.LBE86:
 282              	.LBE85:
 283              	.LBE84:
 284              	.LBB88:
 285              	.LBB89:
ARM GAS  /tmp/cc5z8uJd.s 			page 6


 286              		.loc 4 115 0
 287 0004 FFF7FEFF 		bl	chSchWakeupS
 288              	.LVL18:
 289              	.LBE89:
 290              	.LBE88:
 291              	.LBB90:
 292              	.LBB91:
 293              	.LBB92:
 294              	.LBB93:
 295              	.LBB94:
 296              		.loc 2 331 0
 297              		.syntax unified
 298              	@ 331 "ChibiOS_3.0.5/os/ext/CMSIS/include/core_cmFunc.h" 1
 299 0008 62B6     		cpsie i
 300              	@ 0 "" 2
 301              		.thumb
 302              		.syntax unified
 303              	.LBE94:
 304              	.LBE93:
 305              	.LBE92:
 306              	.LBE91:
 307              	.LBE90:
 308              		.loc 1 150 0
 309 000a 08BD     		pop	{r3, pc}
 310              		.cfi_endproc
 311              	.LFE221:
 312              		.size	chMsgRelease, .-chMsgRelease
 313              		.text
 314              	.Letext0:
 315              		.file 5 "/usr/arm-none-eabi/include/machine/_default_types.h"
 316              		.file 6 "/usr/arm-none-eabi/include/sys/_stdint.h"
 317              		.file 7 "ChibiOS_3.0.5/os/rt/ports/ARMCMx/compilers/GCC/chtypes.h"
 318              		.file 8 "ChibiOS_3.0.5/os/rt/include/chsystypes.h"
 319              		.file 9 "ChibiOS_3.0.5/os/ext/CMSIS/include/core_cm4.h"
 320              		.file 10 "ChibiOS_3.0.5/os/ext/CMSIS/ST/system_stm32f4xx.h"
 321              		.file 11 "ChibiOS_3.0.5/os/rt/ports/ARMCMx/chcore.h"
 322              		.file 12 "ChibiOS_3.0.5/os/rt/ports/ARMCMx/chcore_v7m.h"
 323              		.file 13 "ChibiOS_3.0.5/os/rt/include/chtm.h"
 324              		.file 14 "ChibiOS_3.0.5/os/rt/include/chsem.h"
 325              		.file 15 "ChibiOS_3.0.5/os/rt/include/chmtx.h"
 326              		.file 16 "ChibiOS_3.0.5/os/rt/include/chregistry.h"
 327              		.file 17 "ChibiOS_3.0.5/os/rt/include/chsys.h"