ARM GAS  /tmp/cc5z8uJd.s 			page 1


   1              		.cpu cortex-m4
   2              		.eabi_attribute 27, 1
   3              		.eabi_attribute 28, 1
   4              		.eabi_attribute 20, 1
   5              		.eabi_attribute 21, 1
   6              		.eabi_attribute 23, 3
   7              		.eabi_attribute 24, 1
   8              		.eabi_attribute 25, 1
   9              		.eabi_attribute 26, 1
  10              		.eabi_attribute 30, 2
  11              		.eabi_attribute 34, 1
  12              		.eabi_attribute 18, 4
  13              		.file	"chmsg.c"
  14              		.text
  15              	.Ltext0:
  16              		.cfi_sections	.debug_frame
  17              		.section	.text.chMsgSend,"ax",%progbits
  18              		.align	1
  19              		.p2align 4,,15
  20              		.global	chMsgSend
  21              		.syntax unified
  22              		.thumb
  23              		.thumb_func
  24              		.fpu fpv4-sp-d16
  25              		.type	chMsgSend, %function
  26              	chMsgSend:
  27              	.LFB219:
  28              		.file 1 "ChibiOS_3.0.5/os/rt/src/chmsg.c"
  29              		.loc 1 87 0
  30              		.cfi_startproc
  31              		@ args = 0, pretend = 0, frame = 0
  32              		@ frame_needed = 0, uses_anonymous_args = 0
  33              	.LVL0:
  34              		.loc 1 88 0
  35 0000 0C4B     		ldr	r3, .L6
  36              		.loc 1 87 0
  37 0002 10B5     		push	{r4, lr}
  38              		.cfi_def_cfa_offset 8
  39              		.cfi_offset 4, -8
  40              		.cfi_offset 14, -4
  41              		.loc 1 88 0
  42 0004 9C69     		ldr	r4, [r3, #24]
  43              	.LVL1:
  44              	.LBB52:
  45              	.LBB53:
  46              	.LBB54:
  47              	.LBB55:
  48              		.file 2 "ChibiOS_3.0.5/os/ext/CMSIS/include/core_cmFunc.h"
  49              		.loc 2 342 0
  50              		.syntax unified
  51              	@ 342 "ChibiOS_3.0.5/os/ext/CMSIS/include/core_cmFunc.h" 1
  52 0006 72B6     		cpsid i
  53              	@ 0 "" 2
  54              		.thumb
  55              		.syntax unified
  56              	.LBE55:
  57              	.LBE54:
ARM GAS  /tmp/cc5z8uJd.s 			page 2


  58              	.LBE53:
  59              	.LBE52:
  60              	.LBB56:
  61              	.LBB57:
  62              		.file 3 "ChibiOS_3.0.5/os/rt/include/chschd.h"
  63              		.loc 3 666 0
  64 0008 426B     		ldr	r2, [r0, #52]
  65              	.LBE57:
  66              	.LBE56:
  67              		.loc 1 93 0
  68 000a A163     		str	r1, [r4, #56]
  69              		.loc 1 94 0
  70 000c 00F13001 		add	r1, r0, #48
  71              	.LVL2:
  72              	.LBB61:
  73              	.LBB58:
  74              		.loc 3 666 0
  75 0010 6260     		str	r2, [r4, #4]
  76              	.LBE58:
  77              	.LBE61:
  78              		.loc 1 94 0
  79 0012 A162     		str	r1, [r4, #40]
  80              	.LVL3:
  81              	.LBB62:
  82              	.LBB59:
  83              		.loc 3 665 0
  84 0014 2160     		str	r1, [r4]
  85              		.loc 3 667 0
  86 0016 1460     		str	r4, [r2]
  87              	.LBE59:
  88              	.LBE62:
  89              		.loc 1 96 0
  90 0018 90F82020 		ldrb	r2, [r0, #32]	@ zero_extendqisi2
  91              	.LBB63:
  92              	.LBB60:
  93              		.loc 3 668 0
  94 001c 4463     		str	r4, [r0, #52]
  95              	.LVL4:
  96              	.LBE60:
  97              	.LBE63:
  98              		.loc 1 96 0
  99 001e 0E2A     		cmp	r2, #14
 100 0020 05D0     		beq	.L5
 101              	.LVL5:
 102              	.L2:
 103              		.loc 1 99 0
 104 0022 0C20     		movs	r0, #12
 105 0024 FFF7FEFF 		bl	chSchGoSleepS
 106              	.LVL6:
 107              		.loc 1 100 0
 108 0028 A06A     		ldr	r0, [r4, #40]
 109              	.LVL7:
 110              	.LBB64:
 111              	.LBB65:
 112              	.LBB66:
 113              	.LBB67:
 114              	.LBB68:
ARM GAS  /tmp/cc5z8uJd.s 			page 3


 115              		.loc 2 331 0
 116              		.syntax unified
 117              	@ 331 "ChibiOS_3.0.5/os/ext/CMSIS/include/core_cmFunc.h" 1
 118 002a 62B6     		cpsie i
 119              	@ 0 "" 2
 120              		.thumb
 121              		.syntax unified
 122              	.LBE68:
 123              	.LBE67:
 124              	.LBE66:
 125              	.LBE65:
 126              	.LBE64:
 127              		.loc 1 104 0
 128 002c 10BD     		pop	{r4, pc}
 129              	.LVL8:
 130              	.L5:
 131              		.loc 1 97 0
 132 002e FFF7FEFF 		bl	chSchReadyI
 133              	.LVL9:
 134 0032 F6E7     		b	.L2
 135              	.L7:
 136              		.align	2
 137              	.L6:
 138 0034 00000000 		.word	ch
 139              		.cfi_endproc
 140              	.LFE219:
 141              		.size	chMsgSend, .-chMsgSend
 142              		.section	.text.chMsgWait,"ax",%progbits
 143              		.align	1
 144              		.p2align 4,,15
 145              		.global	chMsgWait
 146              		.syntax unified
 147              		.thumb
 148              		.thumb_func
 149              		.fpu fpv4-sp-d16
 150              		.type	chMsgWait, %function
 151              	chMsgWait:
 152              	.LFB220:
 153              		.loc 1 120 0
 154              		.cfi_startproc
 155              		@ args = 0, pretend = 0, frame = 0
 156              		@ frame_needed = 0, uses_anonymous_args = 0
 157 0000 10B5     		push	{r4, lr}
 158              		.cfi_def_cfa_offset 8
 159              		.cfi_offset 4, -8
 160              		.cfi_offset 14, -4
 161              	.LBB69:
 162              	.LBB70:
 163              	.LBB71:
 164              	.LBB72:
 165              		.loc 2 342 0
 166              		.syntax unified
 167              	@ 342 "ChibiOS_3.0.5/os/ext/CMSIS/include/core_cmFunc.h" 1
 168 0002 72B6     		cpsid i
 169              	@ 0 "" 2
 170              		.thumb
 171              		.syntax unified
ARM GAS  /tmp/cc5z8uJd.s 			page 4


 172              	.LBE72:
 173              	.LBE71:
 174              	.LBE70:
 175              	.LBE69:
 176              		.loc 1 124 0
 177 0004 0B4C     		ldr	r4, .L12
 178 0006 A269     		ldr	r2, [r4, #24]
 179              	.LVL10:
 180              	.LBB73:
 181              	.LBB74:
 182              		.file 4 "ChibiOS_3.0.5/os/rt/include/chmsg.h"
 183              		.loc 4 83 0
 184 0008 1346     		mov	r3, r2
 185 000a 53F8300F 		ldr	r0, [r3, #48]!
 186              	.LVL11:
 187              	.LBE74:
 188              	.LBE73:
 189              		.loc 1 124 0
 190 000e 9842     		cmp	r0, r3
 191 0010 07D0     		beq	.L11
 192              	.L9:
 193              	.LVL12:
 194              	.LBB75:
 195              	.LBB76:
 196              		.loc 3 674 0
 197 0012 0168     		ldr	r1, [r0]
 198 0014 1163     		str	r1, [r2, #48]
 199              	.LVL13:
 200              	.LBE76:
 201              	.LBE75:
 202              		.loc 1 128 0
 203 0016 0D22     		movs	r2, #13
 204              	.LBB78:
 205              	.LBB77:
 206              		.loc 3 675 0
 207 0018 4B60     		str	r3, [r1, #4]
 208              	.LVL14:
 209              	.LBE77:
 210              	.LBE78:
 211              		.loc 1 128 0
 212 001a 80F82020 		strb	r2, [r0, #32]
 213              	.LBB79:
 214              	.LBB80:
 215              	.LBB81:
 216              	.LBB82:
 217              	.LBB83:
 218              		.loc 2 331 0
 219              		.syntax unified
 220              	@ 331 "ChibiOS_3.0.5/os/ext/CMSIS/include/core_cmFunc.h" 1
 221 001e 62B6     		cpsie i
 222              	@ 0 "" 2
 223              		.thumb
 224              		.syntax unified
 225              	.LBE83:
 226              	.LBE82:
 227              	.LBE81:
 228              	.LBE80:
ARM GAS  /tmp/cc5z8uJd.s 			page 5


 229              	.LBE79:
 230              		.loc 1 132 0
 231 0020 10BD     		pop	{r4, pc}
 232              	.L11:
 233              		.loc 1 125 0
 234 0022 0E20     		movs	r0, #14
 235 0024 FFF7FEFF 		bl	chSchGoSleepS
 236              	.LVL15:
 237 0028 A269     		ldr	r2, [r4, #24]
 238 002a 106B     		ldr	r0, [r2, #48]
 239 002c 02F13003 		add	r3, r2, #48
 240 0030 EFE7     		b	.L9
 241              	.L13:
 242 0032 00BF     		.align	2
 243              	.L12:
 244 0034 00000000 		.word	ch
 245              		.cfi_endproc
 246              	.LFE220:
 247              		.size	chMsgWait, .-chMsgWait
 248              		.section	.text.chMsgRelease,"ax",%progbits
 249              		.align	1
 250              		.p2align 4,,15
 251              		.global	chMsgRelease
 252              		.syntax unified
 253              		.thumb
 254              		.thumb_func
 255              		.fpu fpv4-sp-d16
 256              		.type	chMsgRelease, %function
 257              	chMsgRelease:
 258              	.LFB221:
 259              		.loc 1 144 0
 260              		.cfi_startproc
 261              		@ args = 0, pretend = 0, frame = 0
 262              		@ frame_needed = 0, uses_anonymous_args = 0
 263              	.LVL16:
 264 0000 08B5     		push	{r3, lr}
 265              		.cfi_def_cfa_offset 8
 266              		.cfi_offset 3, -8
 267              		.cfi_offset 14, -4
 268              	.LBB84:
 269              	.LBB85:
 270              	.LBB86:
 271              	.LBB87:
 272              		.loc 2 342 0
 273              		.syntax unified
 274              	@ 342 "ChibiOS_3.0.5/os/ext/CMSIS/include/core_cmFunc.h" 1
 275 0002 72B6     		cpsid i
 276              	@ 0 "" 2
 277              	.LVL17:
 278              		.thumb
 279              		.syntax unified
 280              	.LBE87:
 281              	.LBE86:
 282              	.LBE85:
 283              	.LBE84:
 284              	.LBB88:
 285              	.LBB89:
ARM GAS  /tmp/cc5z8uJd.s 			page 6


 286              		.loc 4 115 0
 287 0004 FFF7FEFF 		bl	chSchWakeupS
 288              	.LVL18:
 289              	.LBE89:
 290              	.LBE88:
 291              	.LBB90:
 292              	.LBB91:
 293              	.LBB92:
 294              	.LBB93:
 295              	.LBB94:
 296              		.loc 2 331 0
 297              		.syntax unified
 298              	@ 331 "ChibiOS_3.0.5/os/ext/CMSIS/include/core_cmFunc.h" 1
 299 0008 62B6     		cpsie i
 300              	@ 0 "" 2
 301              		.thumb
 302              		.syntax unified
 303              	.LBE94:
 304              	.LBE93:
 305              	.LBE92:
 306              	.LBE91:
 307              	.LBE90:
 308              		.loc 1 150 0
 309 000a 08BD     		pop	{r3, pc}
 310              		.cfi_endproc
 311              	.LFE221:
 312              		.size	chMsgRelease, .-chMsgRelease
 313              		.text
 314              	.Letext0:
 315              		.file 5 "/usr/arm-none-eabi/include/machine/_default_types.h"
 316              		.file 6 "/usr/arm-none-eabi/include/sys/_stdint.h"
 317              		.file 7 "ChibiOS_3.0.5/os/rt/ports/ARMCMx/compilers/GCC/chtypes.h"
 318              		.file 8 "ChibiOS_3.0.5/os/rt/include/chsystypes.h"
 319              		.file 9 "ChibiOS_3.0.5/os/ext/CMSIS/include/core_cm4.h"
 320              		.file 10 "ChibiOS_3.0.5/os/ext/CMSIS/ST/system_stm32f4xx.h"
 321              		.file 11 "ChibiOS_3.0.5/os/rt/ports/ARMCMx/chcore.h"
 322              		.file 12 "ChibiOS_3.0.5/os/rt/ports/ARMCMx/chcore_v7m.h"
 323              		.file 13 "ChibiOS_3.0.5/os/rt/include/chtm.h"
 324              		.file 14 "ChibiOS_3.0.5/os/rt/include/chsem.h"
 325              		.file 15 "ChibiOS_3.0.5/os/rt/include/chmtx.h"
 326              		.file 16 "ChibiOS_3.0.5/os/rt/include/chregistry.h"
 327              		.file 17 "ChibiOS_3.0.5/os/rt/include/chsys.h"
 328              		.section	.debug_info,"",%progbits
 329              	.Ldebug_info0:
 330 0000 7A0C0000 		.4byte	0xc7a
 331 0004 0400     		.2byte	0x4
 332 0006 00000000 		.4byte	.Ldebug_abbrev0
 333 000a 04       		.byte	0x4
 334 000b 01       		.uleb128 0x1
 335 000c 62000000 		.4byte	.LASF146
 336 0010 0C       		.byte	0xc
 337 0011 C8020000 		.4byte	.LASF147
 338 0015 DF050000 		.4byte	.LASF148
 339 0019 40000000 		.4byte	.Ldebug_ranges0+0x40
 340 001d 00000000 		.4byte	0
 341 0021 00000000 		.4byte	.Ldebug_line0
 342 0025 02       		.uleb128 0x2
ARM GAS  /tmp/cc5z8uJd.s 			page 7


 343 0026 04       		.byte	0x4
 344 0027 05       		.byte	0x5
 345 0028 696E7400 		.ascii	"int\000"
 346 002c 03       		.uleb128 0x3
 347 002d 04       		.byte	0x4
 348 002e 07       		.byte	0x7
 349 002f 39030000 		.4byte	.LASF0
 350 0033 03       		.uleb128 0x3
 351 0034 01       		.byte	0x1
 352 0035 06       		.byte	0x6
 353 0036 2A020000 		.4byte	.LASF1
 354 003a 04       		.uleb128 0x4
 355 003b 3D000000 		.4byte	.LASF4
 356 003f 05       		.byte	0x5
 357 0040 2B       		.byte	0x2b
 358 0041 45000000 		.4byte	0x45
 359 0045 03       		.uleb128 0x3
 360 0046 01       		.byte	0x1
 361 0047 08       		.byte	0x8
 362 0048 10050000 		.4byte	.LASF2
 363 004c 03       		.uleb128 0x3
 364 004d 02       		.byte	0x2
 365 004e 05       		.byte	0x5
 366 004f 28050000 		.4byte	.LASF3
 367 0053 04       		.uleb128 0x4
 368 0054 44060000 		.4byte	.LASF5
 369 0058 05       		.byte	0x5
 370 0059 39       		.byte	0x39
 371 005a 5E000000 		.4byte	0x5e
 372 005e 03       		.uleb128 0x3
 373 005f 02       		.byte	0x2
 374 0060 07       		.byte	0x7
 375 0061 98030000 		.4byte	.LASF6
 376 0065 04       		.uleb128 0x4
 377 0066 FA030000 		.4byte	.LASF7
 378 006a 05       		.byte	0x5
 379 006b 4D       		.byte	0x4d
 380 006c 70000000 		.4byte	0x70
 381 0070 03       		.uleb128 0x3
 382 0071 04       		.byte	0x4
 383 0072 05       		.byte	0x5
 384 0073 8A020000 		.4byte	.LASF8
 385 0077 04       		.uleb128 0x4
 386 0078 88060000 		.4byte	.LASF9
 387 007c 05       		.byte	0x5
 388 007d 4F       		.byte	0x4f
 389 007e 82000000 		.4byte	0x82
 390 0082 03       		.uleb128 0x3
 391 0083 04       		.byte	0x4
 392 0084 07       		.byte	0x7
 393 0085 26060000 		.4byte	.LASF10
 394 0089 03       		.uleb128 0x3
 395 008a 08       		.byte	0x8
 396 008b 05       		.byte	0x5
 397 008c 1C020000 		.4byte	.LASF11
 398 0090 04       		.uleb128 0x4
 399 0091 AF040000 		.4byte	.LASF12
ARM GAS  /tmp/cc5z8uJd.s 			page 8


 400 0095 05       		.byte	0x5
 401 0096 69       		.byte	0x69
 402 0097 9B000000 		.4byte	0x9b
 403 009b 03       		.uleb128 0x3
 404 009c 08       		.byte	0x8
 405 009d 07       		.byte	0x7
 406 009e 90010000 		.4byte	.LASF13
 407 00a2 04       		.uleb128 0x4
 408 00a3 F3060000 		.4byte	.LASF14
 409 00a7 06       		.byte	0x6
 410 00a8 18       		.byte	0x18
 411 00a9 3A000000 		.4byte	0x3a
 412 00ad 04       		.uleb128 0x4
 413 00ae 4E030000 		.4byte	.LASF15
 414 00b2 06       		.byte	0x6
 415 00b3 24       		.byte	0x24
 416 00b4 53000000 		.4byte	0x53
 417 00b8 04       		.uleb128 0x4
 418 00b9 08050000 		.4byte	.LASF16
 419 00bd 06       		.byte	0x6
 420 00be 2C       		.byte	0x2c
 421 00bf 65000000 		.4byte	0x65
 422 00c3 05       		.uleb128 0x5
 423 00c4 B8000000 		.4byte	0xb8
 424 00c8 04       		.uleb128 0x4
 425 00c9 E5050000 		.4byte	.LASF17
 426 00cd 06       		.byte	0x6
 427 00ce 30       		.byte	0x30
 428 00cf 77000000 		.4byte	0x77
 429 00d3 04       		.uleb128 0x4
 430 00d4 34000000 		.4byte	.LASF18
 431 00d8 06       		.byte	0x6
 432 00d9 3C       		.byte	0x3c
 433 00da 90000000 		.4byte	0x90
 434 00de 04       		.uleb128 0x4
 435 00df 2D040000 		.4byte	.LASF19
 436 00e3 07       		.byte	0x7
 437 00e4 45       		.byte	0x45
 438 00e5 C8000000 		.4byte	0xc8
 439 00e9 04       		.uleb128 0x4
 440 00ea 59050000 		.4byte	.LASF20
 441 00ee 07       		.byte	0x7
 442 00ef 48       		.byte	0x48
 443 00f0 A2000000 		.4byte	0xa2
 444 00f4 04       		.uleb128 0x4
 445 00f5 9D020000 		.4byte	.LASF21
 446 00f9 07       		.byte	0x7
 447 00fa 49       		.byte	0x49
 448 00fb A2000000 		.4byte	0xa2
 449 00ff 04       		.uleb128 0x4
 450 0100 F0020000 		.4byte	.LASF22
 451 0104 07       		.byte	0x7
 452 0105 4A       		.byte	0x4a
 453 0106 A2000000 		.4byte	0xa2
 454 010a 04       		.uleb128 0x4
 455 010b 76020000 		.4byte	.LASF23
 456 010f 07       		.byte	0x7
ARM GAS  /tmp/cc5z8uJd.s 			page 9


 457 0110 4B       		.byte	0x4b
 458 0111 A2000000 		.4byte	0xa2
 459 0115 04       		.uleb128 0x4
 460 0116 EA040000 		.4byte	.LASF24
 461 011a 07       		.byte	0x7
 462 011b 4C       		.byte	0x4c
 463 011c C8000000 		.4byte	0xc8
 464 0120 04       		.uleb128 0x4
 465 0121 C2030000 		.4byte	.LASF25
 466 0125 07       		.byte	0x7
 467 0126 4D       		.byte	0x4d
 468 0127 B8000000 		.4byte	0xb8
 469 012b 04       		.uleb128 0x4
 470 012c EE030000 		.4byte	.LASF26
 471 0130 07       		.byte	0x7
 472 0131 4F       		.byte	0x4f
 473 0132 C8000000 		.4byte	0xc8
 474 0136 04       		.uleb128 0x4
 475 0137 28030000 		.4byte	.LASF27
 476 013b 07       		.byte	0x7
 477 013c 51       		.byte	0x51
 478 013d B8000000 		.4byte	0xb8
 479 0141 04       		.uleb128 0x4
 480 0142 6A060000 		.4byte	.LASF28
 481 0146 08       		.byte	0x8
 482 0147 33       		.byte	0x33
 483 0148 C8000000 		.4byte	0xc8
 484 014c 05       		.uleb128 0x5
 485 014d 41010000 		.4byte	0x141
 486 0151 04       		.uleb128 0x4
 487 0152 4F060000 		.4byte	.LASF29
 488 0156 08       		.byte	0x8
 489 0157 3F       		.byte	0x3f
 490 0158 5C010000 		.4byte	0x15c
 491 015c 06       		.uleb128 0x6
 492 015d AB030000 		.4byte	.LASF53
 493 0161 50       		.byte	0x50
 494 0162 03       		.byte	0x3
 495 0163 C2       		.byte	0xc2
 496 0164 7A020000 		.4byte	0x27a
 497 0168 07       		.uleb128 0x7
 498 0169 52050000 		.4byte	.LASF30
 499 016d 03       		.byte	0x3
 500 016e C3       		.byte	0xc3
 501 016f 85020000 		.4byte	0x285
 502 0173 00       		.byte	0
 503 0174 07       		.uleb128 0x7
 504 0175 E3040000 		.4byte	.LASF31
 505 0179 03       		.byte	0x3
 506 017a C5       		.byte	0xc5
 507 017b 85020000 		.4byte	0x285
 508 017f 04       		.byte	0x4
 509 0180 07       		.uleb128 0x7
 510 0181 FD010000 		.4byte	.LASF32
 511 0185 03       		.byte	0x3
 512 0186 C7       		.byte	0xc7
 513 0187 15010000 		.4byte	0x115
ARM GAS  /tmp/cc5z8uJd.s 			page 10


 514 018b 08       		.byte	0x8
 515 018c 07       		.uleb128 0x7
 516 018d 72040000 		.4byte	.LASF33
 517 0191 03       		.byte	0x3
 518 0192 C8       		.byte	0xc8
 519 0193 C5040000 		.4byte	0x4c5
 520 0197 0C       		.byte	0xc
 521 0198 07       		.uleb128 0x7
 522 0199 C0020000 		.4byte	.LASF34
 523 019d 03       		.byte	0x3
 524 019e CA       		.byte	0xca
 525 019f 85020000 		.4byte	0x285
 526 01a3 10       		.byte	0x10
 527 01a4 07       		.uleb128 0x7
 528 01a5 64040000 		.4byte	.LASF35
 529 01a9 03       		.byte	0x3
 530 01aa CB       		.byte	0xcb
 531 01ab 85020000 		.4byte	0x285
 532 01af 14       		.byte	0x14
 533 01b0 07       		.uleb128 0x7
 534 01b1 22070000 		.4byte	.LASF36
 535 01b5 03       		.byte	0x3
 536 01b6 D2       		.byte	0xd2
 537 01b7 0A070000 		.4byte	0x70a
 538 01bb 18       		.byte	0x18
 539 01bc 07       		.uleb128 0x7
 540 01bd 2E030000 		.4byte	.LASF37
 541 01c1 03       		.byte	0x3
 542 01c2 D8       		.byte	0xd8
 543 01c3 21070000 		.4byte	0x721
 544 01c7 1C       		.byte	0x1c
 545 01c8 07       		.uleb128 0x7
 546 01c9 32050000 		.4byte	.LASF38
 547 01cd 03       		.byte	0x3
 548 01ce DD       		.byte	0xdd
 549 01cf F4000000 		.4byte	0xf4
 550 01d3 20       		.byte	0x20
 551 01d4 07       		.uleb128 0x7
 552 01d5 70050000 		.4byte	.LASF39
 553 01d9 03       		.byte	0x3
 554 01da E1       		.byte	0xe1
 555 01db E9000000 		.4byte	0xe9
 556 01df 21       		.byte	0x21
 557 01e0 07       		.uleb128 0x7
 558 01e1 D7060000 		.4byte	.LASF40
 559 01e5 03       		.byte	0x3
 560 01e6 E6       		.byte	0xe6
 561 01e7 FF000000 		.4byte	0xff
 562 01eb 22       		.byte	0x22
 563 01ec 07       		.uleb128 0x7
 564 01ed 3A050000 		.4byte	.LASF41
 565 01f1 03       		.byte	0x3
 566 01f2 EC       		.byte	0xec
 567 01f3 0A010000 		.4byte	0x10a
 568 01f7 23       		.byte	0x23
 569 01f8 07       		.uleb128 0x7
 570 01f9 67030000 		.4byte	.LASF42
ARM GAS  /tmp/cc5z8uJd.s 			page 11


 571 01fd 03       		.byte	0x3
 572 01fe F3       		.byte	0xf3
 573 01ff 4C010000 		.4byte	0x14c
 574 0203 24       		.byte	0x24
 575 0204 08       		.uleb128 0x8
 576 0205 705F7500 		.ascii	"p_u\000"
 577 0209 03       		.byte	0x3
 578 020a 3101     		.2byte	0x131
 579 020c 45060000 		.4byte	0x645
 580 0210 28       		.byte	0x28
 581 0211 09       		.uleb128 0x9
 582 0212 23040000 		.4byte	.LASF43
 583 0216 03       		.byte	0x3
 584 0217 3601     		.2byte	0x136
 585 0219 8B020000 		.4byte	0x28b
 586 021d 2C       		.byte	0x2c
 587 021e 09       		.uleb128 0x9
 588 021f 7E030000 		.4byte	.LASF44
 589 0223 03       		.byte	0x3
 590 0224 3C01     		.2byte	0x13c
 591 0226 AF020000 		.4byte	0x2af
 592 022a 30       		.byte	0x30
 593 022b 09       		.uleb128 0x9
 594 022c AC060000 		.4byte	.LASF45
 595 0230 03       		.byte	0x3
 596 0231 4001     		.2byte	0x140
 597 0233 20010000 		.4byte	0x120
 598 0237 38       		.byte	0x38
 599 0238 09       		.uleb128 0x9
 600 0239 D4050000 		.4byte	.LASF46
 601 023d 03       		.byte	0x3
 602 023e 4601     		.2byte	0x146
 603 0240 2B010000 		.4byte	0x12b
 604 0244 3C       		.byte	0x3c
 605 0245 09       		.uleb128 0x9
 606 0246 1E050000 		.4byte	.LASF47
 607 024a 03       		.byte	0x3
 608 024b 4D01     		.2byte	0x14d
 609 024d 04070000 		.4byte	0x704
 610 0251 40       		.byte	0x40
 611 0252 09       		.uleb128 0x9
 612 0253 74060000 		.4byte	.LASF48
 613 0257 03       		.byte	0x3
 614 0258 5101     		.2byte	0x151
 615 025a 15010000 		.4byte	0x115
 616 025e 44       		.byte	0x44
 617 025f 09       		.uleb128 0x9
 618 0260 53020000 		.4byte	.LASF49
 619 0264 03       		.byte	0x3
 620 0265 5801     		.2byte	0x158
 621 0267 62030000 		.4byte	0x362
 622 026b 48       		.byte	0x48
 623 026c 09       		.uleb128 0x9
 624 026d DE060000 		.4byte	.LASF50
 625 0271 03       		.byte	0x3
 626 0272 6201     		.2byte	0x162
 627 0274 25000000 		.4byte	0x25
ARM GAS  /tmp/cc5z8uJd.s 			page 12


 628 0278 4C       		.byte	0x4c
 629 0279 00       		.byte	0
 630 027a 04       		.uleb128 0x4
 631 027b FB060000 		.4byte	.LASF51
 632 027f 08       		.byte	0x8
 633 0280 44       		.byte	0x44
 634 0281 85020000 		.4byte	0x285
 635 0285 0A       		.uleb128 0xa
 636 0286 04       		.byte	0x4
 637 0287 51010000 		.4byte	0x151
 638 028b 04       		.uleb128 0x4
 639 028c 29070000 		.4byte	.LASF52
 640 0290 08       		.byte	0x8
 641 0291 49       		.byte	0x49
 642 0292 96020000 		.4byte	0x296
 643 0296 06       		.uleb128 0x6
 644 0297 0E060000 		.4byte	.LASF54
 645 029b 04       		.byte	0x4
 646 029c 03       		.byte	0x3
 647 029d B0       		.byte	0xb0
 648 029e AF020000 		.4byte	0x2af
 649 02a2 07       		.uleb128 0x7
 650 02a3 52050000 		.4byte	.LASF30
 651 02a7 03       		.byte	0x3
 652 02a8 B1       		.byte	0xb1
 653 02a9 85020000 		.4byte	0x285
 654 02ad 00       		.byte	0
 655 02ae 00       		.byte	0
 656 02af 04       		.uleb128 0x4
 657 02b0 8B050000 		.4byte	.LASF55
 658 02b4 08       		.byte	0x8
 659 02b5 50       		.byte	0x50
 660 02b6 BA020000 		.4byte	0x2ba
 661 02ba 06       		.uleb128 0x6
 662 02bb EC010000 		.4byte	.LASF56
 663 02bf 08       		.byte	0x8
 664 02c0 03       		.byte	0x3
 665 02c1 B7       		.byte	0xb7
 666 02c2 DF020000 		.4byte	0x2df
 667 02c6 07       		.uleb128 0x7
 668 02c7 52050000 		.4byte	.LASF30
 669 02cb 03       		.byte	0x3
 670 02cc B8       		.byte	0xb8
 671 02cd 85020000 		.4byte	0x285
 672 02d1 00       		.byte	0
 673 02d2 07       		.uleb128 0x7
 674 02d3 E3040000 		.4byte	.LASF31
 675 02d7 03       		.byte	0x3
 676 02d8 B9       		.byte	0xb9
 677 02d9 85020000 		.4byte	0x285
 678 02dd 04       		.byte	0x4
 679 02de 00       		.byte	0
 680 02df 04       		.uleb128 0x4
 681 02e0 0D000000 		.4byte	.LASF57
 682 02e4 08       		.byte	0x8
 683 02e5 57       		.byte	0x57
 684 02e6 EA020000 		.4byte	0x2ea
ARM GAS  /tmp/cc5z8uJd.s 			page 13


 685 02ea 0B       		.uleb128 0xb
 686 02eb E0030000 		.4byte	.LASF58
 687 02ef 1C       		.byte	0x1c
 688 02f0 03       		.byte	0x3
 689 02f1 9001     		.2byte	0x190
 690 02f3 46030000 		.4byte	0x346
 691 02f7 09       		.uleb128 0x9
 692 02f8 FA050000 		.4byte	.LASF59
 693 02fc 03       		.byte	0x3
 694 02fd 9101     		.2byte	0x191
 695 02ff AF020000 		.4byte	0x2af
 696 0303 00       		.byte	0
 697 0304 09       		.uleb128 0x9
 698 0305 44050000 		.4byte	.LASF60
 699 0309 03       		.byte	0x3
 700 030a 9201     		.2byte	0x192
 701 030c 15010000 		.4byte	0x115
 702 0310 08       		.byte	0x8
 703 0311 09       		.uleb128 0x9
 704 0312 6C040000 		.4byte	.LASF61
 705 0316 03       		.byte	0x3
 706 0317 9401     		.2byte	0x194
 707 0319 C5040000 		.4byte	0x4c5
 708 031d 0C       		.byte	0xc
 709 031e 09       		.uleb128 0x9
 710 031f F8020000 		.4byte	.LASF62
 711 0323 03       		.byte	0x3
 712 0324 9701     		.2byte	0x197
 713 0326 85020000 		.4byte	0x285
 714 032a 10       		.byte	0x10
 715 032b 09       		.uleb128 0x9
 716 032c 9A040000 		.4byte	.LASF63
 717 0330 03       		.byte	0x3
 718 0331 9801     		.2byte	0x198
 719 0333 85020000 		.4byte	0x285
 720 0337 14       		.byte	0x14
 721 0338 09       		.uleb128 0x9
 722 0339 90040000 		.4byte	.LASF64
 723 033d 03       		.byte	0x3
 724 033e 9B01     		.2byte	0x19b
 725 0340 85020000 		.4byte	0x285
 726 0344 18       		.byte	0x18
 727 0345 00       		.byte	0
 728 0346 04       		.uleb128 0x4
 729 0347 7F060000 		.4byte	.LASF65
 730 034b 08       		.byte	0x8
 731 034c 5C       		.byte	0x5c
 732 034d 51030000 		.4byte	0x351
 733 0351 0A       		.uleb128 0xa
 734 0352 04       		.byte	0x4
 735 0353 57030000 		.4byte	0x357
 736 0357 0C       		.uleb128 0xc
 737 0358 62030000 		.4byte	0x362
 738 035c 0D       		.uleb128 0xd
 739 035d 62030000 		.4byte	0x362
 740 0361 00       		.byte	0
 741 0362 0E       		.uleb128 0xe
ARM GAS  /tmp/cc5z8uJd.s 			page 14


 742 0363 04       		.byte	0x4
 743 0364 04       		.uleb128 0x4
 744 0365 D3040000 		.4byte	.LASF66
 745 0369 08       		.byte	0x8
 746 036a 61       		.byte	0x61
 747 036b 6F030000 		.4byte	0x36f
 748 036f 0B       		.uleb128 0xb
 749 0370 9B050000 		.4byte	.LASF67
 750 0374 14       		.byte	0x14
 751 0375 03       		.byte	0x3
 752 0376 6B01     		.2byte	0x16b
 753 0378 BE030000 		.4byte	0x3be
 754 037c 09       		.uleb128 0x9
 755 037d 46030000 		.4byte	.LASF68
 756 0381 03       		.byte	0x3
 757 0382 6C01     		.2byte	0x16c
 758 0384 27070000 		.4byte	0x727
 759 0388 00       		.byte	0
 760 0389 09       		.uleb128 0x9
 761 038a 09030000 		.4byte	.LASF69
 762 038e 03       		.byte	0x3
 763 038f 6D01     		.2byte	0x16d
 764 0391 27070000 		.4byte	0x727
 765 0395 04       		.byte	0x4
 766 0396 09       		.uleb128 0x9
 767 0397 75030000 		.4byte	.LASF70
 768 039b 03       		.byte	0x3
 769 039c 6E01     		.2byte	0x16e
 770 039e 41010000 		.4byte	0x141
 771 03a2 08       		.byte	0x8
 772 03a3 09       		.uleb128 0x9
 773 03a4 73070000 		.4byte	.LASF71
 774 03a8 03       		.byte	0x3
 775 03a9 6F01     		.2byte	0x16f
 776 03ab 46030000 		.4byte	0x346
 777 03af 0C       		.byte	0xc
 778 03b0 09       		.uleb128 0x9
 779 03b1 B2060000 		.4byte	.LASF72
 780 03b5 03       		.byte	0x3
 781 03b6 7101     		.2byte	0x171
 782 03b8 62030000 		.4byte	0x362
 783 03bc 10       		.byte	0x10
 784 03bd 00       		.byte	0
 785 03be 04       		.uleb128 0x4
 786 03bf C9010000 		.4byte	.LASF73
 787 03c3 08       		.byte	0x8
 788 03c4 66       		.byte	0x66
 789 03c5 C9030000 		.4byte	0x3c9
 790 03c9 0B       		.uleb128 0xb
 791 03ca 35040000 		.4byte	.LASF74
 792 03ce 10       		.byte	0x10
 793 03cf 03       		.byte	0x3
 794 03d0 7B01     		.2byte	0x17b
 795 03d2 0B040000 		.4byte	0x40b
 796 03d6 09       		.uleb128 0x9
 797 03d7 46030000 		.4byte	.LASF68
 798 03db 03       		.byte	0x3
ARM GAS  /tmp/cc5z8uJd.s 			page 15


 799 03dc 7C01     		.2byte	0x17c
 800 03de 27070000 		.4byte	0x727
 801 03e2 00       		.byte	0
 802 03e3 09       		.uleb128 0x9
 803 03e4 09030000 		.4byte	.LASF69
 804 03e8 03       		.byte	0x3
 805 03e9 7E01     		.2byte	0x17e
 806 03eb 27070000 		.4byte	0x727
 807 03ef 04       		.byte	0x4
 808 03f0 09       		.uleb128 0x9
 809 03f1 75030000 		.4byte	.LASF70
 810 03f5 03       		.byte	0x3
 811 03f6 8001     		.2byte	0x180
 812 03f8 41010000 		.4byte	0x141
 813 03fc 08       		.byte	0x8
 814 03fd 09       		.uleb128 0x9
 815 03fe 11020000 		.4byte	.LASF75
 816 0402 03       		.byte	0x3
 817 0403 8201     		.2byte	0x182
 818 0405 4C010000 		.4byte	0x14c
 819 0409 0C       		.byte	0xc
 820 040a 00       		.byte	0
 821 040b 04       		.uleb128 0x4
 822 040c 53000000 		.4byte	.LASF76
 823 0410 08       		.byte	0x8
 824 0411 6B       		.byte	0x6b
 825 0412 16040000 		.4byte	0x416
 826 0416 0B       		.uleb128 0xb
 827 0417 F2040000 		.4byte	.LASF77
 828 041b 04       		.byte	0x4
 829 041c 03       		.byte	0x3
 830 041d A201     		.2byte	0x1a2
 831 041f 31040000 		.4byte	0x431
 832 0423 09       		.uleb128 0x9
 833 0424 93060000 		.4byte	.LASF78
 834 0428 03       		.byte	0x3
 835 0429 AA01     		.2byte	0x1aa
 836 042b 10070000 		.4byte	0x710
 837 042f 00       		.byte	0
 838 0430 00       		.byte	0
 839 0431 04       		.uleb128 0x4
 840 0432 C8030000 		.4byte	.LASF79
 841 0436 08       		.byte	0x8
 842 0437 70       		.byte	0x70
 843 0438 3C040000 		.4byte	0x43c
 844 043c 0F       		.uleb128 0xf
 845 043d 80020000 		.4byte	.LASF80
 846 0441 6802     		.2byte	0x268
 847 0443 03       		.byte	0x3
 848 0444 C201     		.2byte	0x1c2
 849 0446 98040000 		.4byte	0x498
 850 044a 09       		.uleb128 0x9
 851 044b ED060000 		.4byte	.LASF81
 852 044f 03       		.byte	0x3
 853 0450 C601     		.2byte	0x1c6
 854 0452 DF020000 		.4byte	0x2df
 855 0456 00       		.byte	0
ARM GAS  /tmp/cc5z8uJd.s 			page 16


 856 0457 09       		.uleb128 0x9
 857 0458 63020000 		.4byte	.LASF82
 858 045c 03       		.byte	0x3
 859 045d CA01     		.2byte	0x1ca
 860 045f BE030000 		.4byte	0x3be
 861 0463 1C       		.byte	0x1c
 862 0464 08       		.uleb128 0x8
 863 0465 64626700 		.ascii	"dbg\000"
 864 0469 03       		.byte	0x3
 865 046a CE01     		.2byte	0x1ce
 866 046c 0B040000 		.4byte	0x40b
 867 0470 2C       		.byte	0x2c
 868 0471 09       		.uleb128 0x9
 869 0472 BE010000 		.4byte	.LASF83
 870 0476 03       		.byte	0x3
 871 0477 D201     		.2byte	0x1d2
 872 0479 51010000 		.4byte	0x151
 873 047d 30       		.byte	0x30
 874 047e 08       		.uleb128 0x8
 875 047f 746D00   		.ascii	"tm\000"
 876 0482 03       		.byte	0x3
 877 0483 D701     		.2byte	0x1d7
 878 0485 3A060000 		.4byte	0x63a
 879 0489 80       		.byte	0x80
 880 048a 09       		.uleb128 0x9
 881 048b 19030000 		.4byte	.LASF84
 882 048f 03       		.byte	0x3
 883 0490 E301     		.2byte	0x1e3
 884 0492 2D070000 		.4byte	0x72d
 885 0496 88       		.byte	0x88
 886 0497 00       		.byte	0
 887 0498 10       		.uleb128 0x10
 888 0499 DF010000 		.4byte	.LASF85
 889 049d 09       		.byte	0x9
 890 049e A706     		.2byte	0x6a7
 891 04a0 C3000000 		.4byte	0xc3
 892 04a4 11       		.uleb128 0x11
 893 04a5 57030000 		.4byte	.LASF86
 894 04a9 0A       		.byte	0xa
 895 04aa 4C       		.byte	0x4c
 896 04ab C8000000 		.4byte	0xc8
 897 04af 04       		.uleb128 0x4
 898 04b0 00030000 		.4byte	.LASF87
 899 04b4 0B       		.byte	0xb
 900 04b5 65       		.byte	0x65
 901 04b6 62030000 		.4byte	0x362
 902 04ba 04       		.uleb128 0x4
 903 04bb 04040000 		.4byte	.LASF88
 904 04bf 0B       		.byte	0xb
 905 04c0 6D       		.byte	0x6d
 906 04c1 D3000000 		.4byte	0xd3
 907 04c5 06       		.uleb128 0x6
 908 04c6 A4060000 		.4byte	.LASF89
 909 04ca 04       		.byte	0x4
 910 04cb 0B       		.byte	0xb
 911 04cc 89       		.byte	0x89
 912 04cd DE040000 		.4byte	0x4de
ARM GAS  /tmp/cc5z8uJd.s 			page 17


 913 04d1 12       		.uleb128 0x12
 914 04d2 72313300 		.ascii	"r13\000"
 915 04d6 0B       		.byte	0xb
 916 04d7 8A       		.byte	0x8a
 917 04d8 1F060000 		.4byte	0x61f
 918 04dc 00       		.byte	0
 919 04dd 00       		.byte	0
 920 04de 06       		.uleb128 0x6
 921 04df 47000000 		.4byte	.LASF90
 922 04e3 64       		.byte	0x64
 923 04e4 0C       		.byte	0xc
 924 04e5 F4       		.byte	0xf4
 925 04e6 1F060000 		.4byte	0x61f
 926 04ea 12       		.uleb128 0x12
 927 04eb 73313600 		.ascii	"s16\000"
 928 04ef 0C       		.byte	0xc
 929 04f0 F6       		.byte	0xf6
 930 04f1 AF040000 		.4byte	0x4af
 931 04f5 00       		.byte	0
 932 04f6 12       		.uleb128 0x12
 933 04f7 73313700 		.ascii	"s17\000"
 934 04fb 0C       		.byte	0xc
 935 04fc F7       		.byte	0xf7
 936 04fd AF040000 		.4byte	0x4af
 937 0501 04       		.byte	0x4
 938 0502 12       		.uleb128 0x12
 939 0503 73313800 		.ascii	"s18\000"
 940 0507 0C       		.byte	0xc
 941 0508 F8       		.byte	0xf8
 942 0509 AF040000 		.4byte	0x4af
 943 050d 08       		.byte	0x8
 944 050e 12       		.uleb128 0x12
 945 050f 73313900 		.ascii	"s19\000"
 946 0513 0C       		.byte	0xc
 947 0514 F9       		.byte	0xf9
 948 0515 AF040000 		.4byte	0x4af
 949 0519 0C       		.byte	0xc
 950 051a 12       		.uleb128 0x12
 951 051b 73323000 		.ascii	"s20\000"
 952 051f 0C       		.byte	0xc
 953 0520 FA       		.byte	0xfa
 954 0521 AF040000 		.4byte	0x4af
 955 0525 10       		.byte	0x10
 956 0526 12       		.uleb128 0x12
 957 0527 73323100 		.ascii	"s21\000"
 958 052b 0C       		.byte	0xc
 959 052c FB       		.byte	0xfb
 960 052d AF040000 		.4byte	0x4af
 961 0531 14       		.byte	0x14
 962 0532 12       		.uleb128 0x12
 963 0533 73323200 		.ascii	"s22\000"
 964 0537 0C       		.byte	0xc
 965 0538 FC       		.byte	0xfc
 966 0539 AF040000 		.4byte	0x4af
 967 053d 18       		.byte	0x18
 968 053e 12       		.uleb128 0x12
 969 053f 73323300 		.ascii	"s23\000"
ARM GAS  /tmp/cc5z8uJd.s 			page 18


 970 0543 0C       		.byte	0xc
 971 0544 FD       		.byte	0xfd
 972 0545 AF040000 		.4byte	0x4af
 973 0549 1C       		.byte	0x1c
 974 054a 12       		.uleb128 0x12
 975 054b 73323400 		.ascii	"s24\000"
 976 054f 0C       		.byte	0xc
 977 0550 FE       		.byte	0xfe
 978 0551 AF040000 		.4byte	0x4af
 979 0555 20       		.byte	0x20
 980 0556 12       		.uleb128 0x12
 981 0557 73323500 		.ascii	"s25\000"
 982 055b 0C       		.byte	0xc
 983 055c FF       		.byte	0xff
 984 055d AF040000 		.4byte	0x4af
 985 0561 24       		.byte	0x24
 986 0562 08       		.uleb128 0x8
 987 0563 73323600 		.ascii	"s26\000"
 988 0567 0C       		.byte	0xc
 989 0568 0001     		.2byte	0x100
 990 056a AF040000 		.4byte	0x4af
 991 056e 28       		.byte	0x28
 992 056f 08       		.uleb128 0x8
 993 0570 73323700 		.ascii	"s27\000"
 994 0574 0C       		.byte	0xc
 995 0575 0101     		.2byte	0x101
 996 0577 AF040000 		.4byte	0x4af
 997 057b 2C       		.byte	0x2c
 998 057c 08       		.uleb128 0x8
 999 057d 73323800 		.ascii	"s28\000"
 1000 0581 0C       		.byte	0xc
 1001 0582 0201     		.2byte	0x102
 1002 0584 AF040000 		.4byte	0x4af
 1003 0588 30       		.byte	0x30
 1004 0589 08       		.uleb128 0x8
 1005 058a 73323900 		.ascii	"s29\000"
 1006 058e 0C       		.byte	0xc
 1007 058f 0301     		.2byte	0x103
 1008 0591 AF040000 		.4byte	0x4af
 1009 0595 34       		.byte	0x34
 1010 0596 08       		.uleb128 0x8
 1011 0597 73333000 		.ascii	"s30\000"
 1012 059b 0C       		.byte	0xc
 1013 059c 0401     		.2byte	0x104
 1014 059e AF040000 		.4byte	0x4af
 1015 05a2 38       		.byte	0x38
 1016 05a3 08       		.uleb128 0x8
 1017 05a4 73333100 		.ascii	"s31\000"
 1018 05a8 0C       		.byte	0xc
 1019 05a9 0501     		.2byte	0x105
 1020 05ab AF040000 		.4byte	0x4af
 1021 05af 3C       		.byte	0x3c
 1022 05b0 08       		.uleb128 0x8
 1023 05b1 723400   		.ascii	"r4\000"
 1024 05b4 0C       		.byte	0xc
 1025 05b5 0701     		.2byte	0x107
 1026 05b7 AF040000 		.4byte	0x4af
ARM GAS  /tmp/cc5z8uJd.s 			page 19


 1027 05bb 40       		.byte	0x40
 1028 05bc 08       		.uleb128 0x8
 1029 05bd 723500   		.ascii	"r5\000"
 1030 05c0 0C       		.byte	0xc
 1031 05c1 0801     		.2byte	0x108
 1032 05c3 AF040000 		.4byte	0x4af
 1033 05c7 44       		.byte	0x44
 1034 05c8 08       		.uleb128 0x8
 1035 05c9 723600   		.ascii	"r6\000"
 1036 05cc 0C       		.byte	0xc
 1037 05cd 0901     		.2byte	0x109
 1038 05cf AF040000 		.4byte	0x4af
 1039 05d3 48       		.byte	0x48
 1040 05d4 08       		.uleb128 0x8
 1041 05d5 723700   		.ascii	"r7\000"
 1042 05d8 0C       		.byte	0xc
 1043 05d9 0A01     		.2byte	0x10a
 1044 05db AF040000 		.4byte	0x4af
 1045 05df 4C       		.byte	0x4c
 1046 05e0 08       		.uleb128 0x8
 1047 05e1 723800   		.ascii	"r8\000"
 1048 05e4 0C       		.byte	0xc
 1049 05e5 0B01     		.2byte	0x10b
 1050 05e7 AF040000 		.4byte	0x4af
 1051 05eb 50       		.byte	0x50
 1052 05ec 08       		.uleb128 0x8
 1053 05ed 723900   		.ascii	"r9\000"
 1054 05f0 0C       		.byte	0xc
 1055 05f1 0C01     		.2byte	0x10c
 1056 05f3 AF040000 		.4byte	0x4af
 1057 05f7 54       		.byte	0x54
 1058 05f8 08       		.uleb128 0x8
 1059 05f9 72313000 		.ascii	"r10\000"
 1060 05fd 0C       		.byte	0xc
 1061 05fe 0D01     		.2byte	0x10d
 1062 0600 AF040000 		.4byte	0x4af
 1063 0604 58       		.byte	0x58
 1064 0605 08       		.uleb128 0x8
 1065 0606 72313100 		.ascii	"r11\000"
 1066 060a 0C       		.byte	0xc
 1067 060b 0E01     		.2byte	0x10e
 1068 060d AF040000 		.4byte	0x4af
 1069 0611 5C       		.byte	0x5c
 1070 0612 08       		.uleb128 0x8
 1071 0613 6C7200   		.ascii	"lr\000"
 1072 0616 0C       		.byte	0xc
 1073 0617 0F01     		.2byte	0x10f
 1074 0619 AF040000 		.4byte	0x4af
 1075 061d 60       		.byte	0x60
 1076 061e 00       		.byte	0
 1077 061f 0A       		.uleb128 0xa
 1078 0620 04       		.byte	0x4
 1079 0621 DE040000 		.4byte	0x4de
 1080 0625 13       		.uleb128 0x13
 1081 0626 04       		.byte	0x4
 1082 0627 0D       		.byte	0xd
 1083 0628 38       		.byte	0x38
ARM GAS  /tmp/cc5z8uJd.s 			page 20


 1084 0629 3A060000 		.4byte	0x63a
 1085 062d 07       		.uleb128 0x7
 1086 062e 9D060000 		.4byte	.LASF91
 1087 0632 0D       		.byte	0xd
 1088 0633 3C       		.byte	0x3c
 1089 0634 DE000000 		.4byte	0xde
 1090 0638 00       		.byte	0
 1091 0639 00       		.byte	0
 1092 063a 04       		.uleb128 0x4
 1093 063b 78040000 		.4byte	.LASF92
 1094 063f 0D       		.byte	0xd
 1095 0640 3D       		.byte	0x3d
 1096 0641 25060000 		.4byte	0x625
 1097 0645 14       		.uleb128 0x14
 1098 0646 04       		.byte	0x4
 1099 0647 03       		.byte	0x3
 1100 0648 FA       		.byte	0xfa
 1101 0649 A2060000 		.4byte	0x6a2
 1102 064d 15       		.uleb128 0x15
 1103 064e 2D000000 		.4byte	.LASF93
 1104 0652 03       		.byte	0x3
 1105 0653 0101     		.2byte	0x101
 1106 0655 20010000 		.4byte	0x120
 1107 0659 15       		.uleb128 0x15
 1108 065a B5010000 		.4byte	.LASF94
 1109 065e 03       		.byte	0x3
 1110 065f 0801     		.2byte	0x108
 1111 0661 20010000 		.4byte	0x120
 1112 0665 15       		.uleb128 0x15
 1113 0666 0E070000 		.4byte	.LASF95
 1114 066a 03       		.byte	0x3
 1115 066b 0F01     		.2byte	0x10f
 1116 066d 62030000 		.4byte	0x362
 1117 0671 15       		.uleb128 0x15
 1118 0672 27000000 		.4byte	.LASF96
 1119 0676 03       		.byte	0x3
 1120 0677 1601     		.2byte	0x116
 1121 0679 A2060000 		.4byte	0x6a2
 1122 067d 15       		.uleb128 0x15
 1123 067e 6E030000 		.4byte	.LASF97
 1124 0682 03       		.byte	0x3
 1125 0683 1E01     		.2byte	0x11e
 1126 0685 CD060000 		.4byte	0x6cd
 1127 0689 15       		.uleb128 0x15
 1128 068a 3D060000 		.4byte	.LASF98
 1129 068e 03       		.byte	0x3
 1130 068f 2701     		.2byte	0x127
 1131 0691 04070000 		.4byte	0x704
 1132 0695 15       		.uleb128 0x15
 1133 0696 4B050000 		.4byte	.LASF99
 1134 069a 03       		.byte	0x3
 1135 069b 2F01     		.2byte	0x12f
 1136 069d 2B010000 		.4byte	0x12b
 1137 06a1 00       		.byte	0
 1138 06a2 0A       		.uleb128 0xa
 1139 06a3 04       		.byte	0x4
 1140 06a4 7A020000 		.4byte	0x27a
ARM GAS  /tmp/cc5z8uJd.s 			page 21


 1141 06a8 06       		.uleb128 0x6
 1142 06a9 B9050000 		.4byte	.LASF100
 1143 06ad 0C       		.byte	0xc
 1144 06ae 0E       		.byte	0xe
 1145 06af 34       		.byte	0x34
 1146 06b0 CD060000 		.4byte	0x6cd
 1147 06b4 07       		.uleb128 0x7
 1148 06b5 E8020000 		.4byte	.LASF101
 1149 06b9 0E       		.byte	0xe
 1150 06ba 35       		.byte	0x35
 1151 06bb AF020000 		.4byte	0x2af
 1152 06bf 00       		.byte	0
 1153 06c0 07       		.uleb128 0x7
 1154 06c1 92030000 		.4byte	.LASF102
 1155 06c5 0E       		.byte	0xe
 1156 06c6 37       		.byte	0x37
 1157 06c7 36010000 		.4byte	0x136
 1158 06cb 08       		.byte	0x8
 1159 06cc 00       		.byte	0
 1160 06cd 0A       		.uleb128 0xa
 1161 06ce 04       		.byte	0x4
 1162 06cf A8060000 		.4byte	0x6a8
 1163 06d3 06       		.uleb128 0x6
 1164 06d4 CE060000 		.4byte	.LASF103
 1165 06d8 10       		.byte	0x10
 1166 06d9 0F       		.byte	0xf
 1167 06da 39       		.byte	0x39
 1168 06db 04070000 		.4byte	0x704
 1169 06df 07       		.uleb128 0x7
 1170 06e0 5B020000 		.4byte	.LASF104
 1171 06e4 0F       		.byte	0xf
 1172 06e5 3A       		.byte	0x3a
 1173 06e6 AF020000 		.4byte	0x2af
 1174 06ea 00       		.byte	0
 1175 06eb 07       		.uleb128 0x7
 1176 06ec 5D070000 		.4byte	.LASF105
 1177 06f0 0F       		.byte	0xf
 1178 06f1 3C       		.byte	0x3c
 1179 06f2 85020000 		.4byte	0x285
 1180 06f6 08       		.byte	0x8
 1181 06f7 07       		.uleb128 0x7
 1182 06f8 89040000 		.4byte	.LASF106
 1183 06fc 0F       		.byte	0xf
 1184 06fd 3E       		.byte	0x3e
 1185 06fe 5F080000 		.4byte	0x85f
 1186 0702 0C       		.byte	0xc
 1187 0703 00       		.byte	0
 1188 0704 0A       		.uleb128 0xa
 1189 0705 04       		.byte	0x4
 1190 0706 D3060000 		.4byte	0x6d3
 1191 070a 0A       		.uleb128 0xa
 1192 070b 04       		.byte	0x4
 1193 070c 1C070000 		.4byte	0x71c
 1194 0710 05       		.uleb128 0x5
 1195 0711 0A070000 		.4byte	0x70a
 1196 0715 03       		.uleb128 0x3
 1197 0716 01       		.byte	0x1
ARM GAS  /tmp/cc5z8uJd.s 			page 22


 1198 0717 08       		.byte	0x8
 1199 0718 38060000 		.4byte	.LASF107
 1200 071c 16       		.uleb128 0x16
 1201 071d 15070000 		.4byte	0x715
 1202 0721 0A       		.uleb128 0xa
 1203 0722 04       		.byte	0x4
 1204 0723 BA040000 		.4byte	0x4ba
 1205 0727 0A       		.uleb128 0xa
 1206 0728 04       		.byte	0x4
 1207 0729 64030000 		.4byte	0x364
 1208 072d 17       		.uleb128 0x17
 1209 072e BA040000 		.4byte	0x4ba
 1210 0732 3D070000 		.4byte	0x73d
 1211 0736 18       		.uleb128 0x18
 1212 0737 2C000000 		.4byte	0x2c
 1213 073b 3B       		.byte	0x3b
 1214 073c 00       		.byte	0
 1215 073d 19       		.uleb128 0x19
 1216 073e 636800   		.ascii	"ch\000"
 1217 0741 03       		.byte	0x3
 1218 0742 0902     		.2byte	0x209
 1219 0744 31040000 		.4byte	0x431
 1220 0748 13       		.uleb128 0x13
 1221 0749 16       		.byte	0x16
 1222 074a 10       		.byte	0x10
 1223 074b 34       		.byte	0x34
 1224 074c 29080000 		.4byte	0x829
 1225 0750 07       		.uleb128 0x7
 1226 0751 65070000 		.4byte	.LASF108
 1227 0755 10       		.byte	0x10
 1228 0756 35       		.byte	0x35
 1229 0757 29080000 		.4byte	0x829
 1230 075b 00       		.byte	0
 1231 075c 07       		.uleb128 0x7
 1232 075d 0F040000 		.4byte	.LASF109
 1233 0761 10       		.byte	0x10
 1234 0762 36       		.byte	0x36
 1235 0763 A2000000 		.4byte	0xa2
 1236 0767 04       		.byte	0x4
 1237 0768 07       		.uleb128 0x7
 1238 0769 1E060000 		.4byte	.LASF110
 1239 076d 10       		.byte	0x10
 1240 076e 37       		.byte	0x37
 1241 076f A2000000 		.4byte	0xa2
 1242 0773 05       		.byte	0x5
 1243 0774 07       		.uleb128 0x7
 1244 0775 44070000 		.4byte	.LASF111
 1245 0779 10       		.byte	0x10
 1246 077a 38       		.byte	0x38
 1247 077b AD000000 		.4byte	0xad
 1248 077f 06       		.byte	0x6
 1249 0780 07       		.uleb128 0x7
 1250 0781 C8040000 		.4byte	.LASF112
 1251 0785 10       		.byte	0x10
 1252 0786 39       		.byte	0x39
 1253 0787 A2000000 		.4byte	0xa2
 1254 078b 08       		.byte	0x8
ARM GAS  /tmp/cc5z8uJd.s 			page 23


 1255 078c 07       		.uleb128 0x7
 1256 078d 4C040000 		.4byte	.LASF113
 1257 0791 10       		.byte	0x10
 1258 0792 3A       		.byte	0x3a
 1259 0793 A2000000 		.4byte	0xa2
 1260 0797 09       		.byte	0x9
 1261 0798 07       		.uleb128 0x7
 1262 0799 A7010000 		.4byte	.LASF114
 1263 079d 10       		.byte	0x10
 1264 079e 3B       		.byte	0x3b
 1265 079f A2000000 		.4byte	0xa2
 1266 07a3 0A       		.byte	0xa
 1267 07a4 07       		.uleb128 0x7
 1268 07a5 EE050000 		.4byte	.LASF115
 1269 07a9 10       		.byte	0x10
 1270 07aa 3C       		.byte	0x3c
 1271 07ab A2000000 		.4byte	0xa2
 1272 07af 0B       		.byte	0xb
 1273 07b0 07       		.uleb128 0x7
 1274 07b1 C3060000 		.4byte	.LASF116
 1275 07b5 10       		.byte	0x10
 1276 07b6 3D       		.byte	0x3d
 1277 07b7 A2000000 		.4byte	0xa2
 1278 07bb 0C       		.byte	0xc
 1279 07bc 07       		.uleb128 0x7
 1280 07bd 15070000 		.4byte	.LASF117
 1281 07c1 10       		.byte	0x10
 1282 07c2 3E       		.byte	0x3e
 1283 07c3 A2000000 		.4byte	0xa2
 1284 07c7 0D       		.byte	0xd
 1285 07c8 07       		.uleb128 0x7
 1286 07c9 00000000 		.4byte	.LASF118
 1287 07cd 10       		.byte	0x10
 1288 07ce 3F       		.byte	0x3f
 1289 07cf A2000000 		.4byte	0xa2
 1290 07d3 0E       		.byte	0xe
 1291 07d4 07       		.uleb128 0x7
 1292 07d5 58040000 		.4byte	.LASF119
 1293 07d9 10       		.byte	0x10
 1294 07da 40       		.byte	0x40
 1295 07db A2000000 		.4byte	0xa2
 1296 07df 0F       		.byte	0xf
 1297 07e0 07       		.uleb128 0x7
 1298 07e1 36020000 		.4byte	.LASF120
 1299 07e5 10       		.byte	0x10
 1300 07e6 41       		.byte	0x41
 1301 07e7 A2000000 		.4byte	0xa2
 1302 07eb 10       		.byte	0x10
 1303 07ec 07       		.uleb128 0x7
 1304 07ed 04020000 		.4byte	.LASF121
 1305 07f1 10       		.byte	0x10
 1306 07f2 43       		.byte	0x43
 1307 07f3 A2000000 		.4byte	0xa2
 1308 07f7 11       		.byte	0x11
 1309 07f8 07       		.uleb128 0x7
 1310 07f9 46020000 		.4byte	.LASF122
 1311 07fd 10       		.byte	0x10
ARM GAS  /tmp/cc5z8uJd.s 			page 24


 1312 07fe 44       		.byte	0x44
 1313 07ff A2000000 		.4byte	0xa2
 1314 0803 12       		.byte	0x12
 1315 0804 07       		.uleb128 0x7
 1316 0805 17040000 		.4byte	.LASF123
 1317 0809 10       		.byte	0x10
 1318 080a 45       		.byte	0x45
 1319 080b A2000000 		.4byte	0xa2
 1320 080f 13       		.byte	0x13
 1321 0810 07       		.uleb128 0x7
 1322 0811 61050000 		.4byte	.LASF124
 1323 0815 10       		.byte	0x10
 1324 0816 46       		.byte	0x46
 1325 0817 A2000000 		.4byte	0xa2
 1326 081b 14       		.byte	0x14
 1327 081c 07       		.uleb128 0x7
 1328 081d D4030000 		.4byte	.LASF125
 1329 0821 10       		.byte	0x10
 1330 0822 48       		.byte	0x48
 1331 0823 A2000000 		.4byte	0xa2
 1332 0827 15       		.byte	0x15
 1333 0828 00       		.byte	0
 1334 0829 17       		.uleb128 0x17
 1335 082a 15070000 		.4byte	0x715
 1336 082e 39080000 		.4byte	0x839
 1337 0832 18       		.uleb128 0x18
 1338 0833 2C000000 		.4byte	0x2c
 1339 0837 03       		.byte	0x3
 1340 0838 00       		.byte	0
 1341 0839 04       		.uleb128 0x4
 1342 083a A6020000 		.4byte	.LASF126
 1343 083e 10       		.byte	0x10
 1344 083f 49       		.byte	0x49
 1345 0840 48070000 		.4byte	0x748
 1346 0844 16       		.uleb128 0x16
 1347 0845 39080000 		.4byte	0x839
 1348 0849 11       		.uleb128 0x11
 1349 084a 89030000 		.4byte	.LASF127
 1350 084e 10       		.byte	0x10
 1351 084f 6E       		.byte	0x6e
 1352 0850 44080000 		.4byte	0x844
 1353 0854 04       		.uleb128 0x4
 1354 0855 11030000 		.4byte	.LASF128
 1355 0859 0F       		.byte	0xf
 1356 085a 34       		.byte	0x34
 1357 085b D3060000 		.4byte	0x6d3
 1358 085f 0A       		.uleb128 0xa
 1359 0860 04       		.byte	0x4
 1360 0861 54080000 		.4byte	0x854
 1361 0865 1A       		.uleb128 0x1a
 1362 0866 AC050000 		.4byte	.LASF149
 1363 086a 01       		.byte	0x1
 1364 086b 90       		.byte	0x90
 1365 086c 00000000 		.4byte	.LFB221
 1366 0870 0C000000 		.4byte	.LFE221-.LFB221
 1367 0874 01       		.uleb128 0x1
 1368 0875 9C       		.byte	0x9c
ARM GAS  /tmp/cc5z8uJd.s 			page 25


 1369 0876 4F090000 		.4byte	0x94f
 1370 087a 1B       		.uleb128 0x1b
 1371 087b 747000   		.ascii	"tp\000"
 1372 087e 01       		.byte	0x1
 1373 087f 90       		.byte	0x90
 1374 0880 85020000 		.4byte	0x285
 1375 0884 00000000 		.4byte	.LLST5
 1376 0888 1B       		.uleb128 0x1b
 1377 0889 6D736700 		.ascii	"msg\000"
 1378 088d 01       		.byte	0x1
 1379 088e 90       		.byte	0x90
 1380 088f 20010000 		.4byte	0x120
 1381 0893 21000000 		.4byte	.LLST6
 1382 0897 1C       		.uleb128 0x1c
 1383 0898 78050000 		.4byte	.LASF131
 1384 089c 5F090000 		.4byte	0x95f
 1385 08a0 1D       		.uleb128 0x1d
 1386 08a1 D80B0000 		.4byte	0xbd8
 1387 08a5 02000000 		.4byte	.LBB84
 1388 08a9 02000000 		.4byte	.LBE84-.LBB84
 1389 08ad 01       		.byte	0x1
 1390 08ae 92       		.byte	0x92
 1391 08af D5080000 		.4byte	0x8d5
 1392 08b3 1E       		.uleb128 0x1e
 1393 08b4 3E0C0000 		.4byte	0xc3e
 1394 08b8 02000000 		.4byte	.LBB85
 1395 08bc 02000000 		.4byte	.LBE85-.LBB85
 1396 08c0 11       		.byte	0x11
 1397 08c1 5C01     		.2byte	0x15c
 1398 08c3 1F       		.uleb128 0x1f
 1399 08c4 470C0000 		.4byte	0xc47
 1400 08c8 02000000 		.4byte	.LBB86
 1401 08cc 02000000 		.4byte	.LBE86-.LBB86
 1402 08d0 0C       		.byte	0xc
 1403 08d1 C101     		.2byte	0x1c1
 1404 08d3 00       		.byte	0
 1405 08d4 00       		.byte	0
 1406 08d5 1D       		.uleb128 0x1d
 1407 08d6 640B0000 		.4byte	0xb64
 1408 08da 04000000 		.4byte	.LBB88
 1409 08de 04000000 		.4byte	.LBE88-.LBB88
 1410 08e2 01       		.byte	0x1
 1411 08e3 94       		.byte	0x94
 1412 08e4 13090000 		.4byte	0x913
 1413 08e8 20       		.uleb128 0x20
 1414 08e9 7A0B0000 		.4byte	0xb7a
 1415 08ed 42000000 		.4byte	.LLST7
 1416 08f1 20       		.uleb128 0x20
 1417 08f2 700B0000 		.4byte	0xb70
 1418 08f6 63000000 		.4byte	.LLST8
 1419 08fa 21       		.uleb128 0x21
 1420 08fb 08000000 		.4byte	.LVL18
 1421 08ff 590C0000 		.4byte	0xc59
 1422 0903 22       		.uleb128 0x22
 1423 0904 01       		.uleb128 0x1
 1424 0905 50       		.byte	0x50
 1425 0906 03       		.uleb128 0x3
ARM GAS  /tmp/cc5z8uJd.s 			page 26


 1426 0907 F3       		.byte	0xf3
 1427 0908 01       		.uleb128 0x1
 1428 0909 50       		.byte	0x50
 1429 090a 22       		.uleb128 0x22
 1430 090b 01       		.uleb128 0x1
 1431 090c 51       		.byte	0x51
 1432 090d 03       		.uleb128 0x3
 1433 090e F3       		.byte	0xf3
 1434 090f 01       		.uleb128 0x1
 1435 0910 51       		.byte	0x51
 1436 0911 00       		.byte	0
 1437 0912 00       		.byte	0
 1438 0913 23       		.uleb128 0x23
 1439 0914 A80B0000 		.4byte	0xba8
 1440 0918 08000000 		.4byte	.LBB90
 1441 091c 02000000 		.4byte	.LBE90-.LBB90
 1442 0920 01       		.byte	0x1
 1443 0921 95       		.byte	0x95
 1444 0922 24       		.uleb128 0x24
 1445 0923 08000000 		.4byte	.LBB91
 1446 0927 02000000 		.4byte	.LBE91-.LBB91
 1447 092b 1E       		.uleb128 0x1e
 1448 092c 350C0000 		.4byte	0xc35
 1449 0930 08000000 		.4byte	.LBB92
 1450 0934 02000000 		.4byte	.LBE92-.LBB92
 1451 0938 11       		.byte	0x11
 1452 0939 7301     		.2byte	0x173
 1453 093b 1F       		.uleb128 0x1f
 1454 093c 500C0000 		.4byte	0xc50
 1455 0940 08000000 		.4byte	.LBB93
 1456 0944 02000000 		.4byte	.LBE93-.LBB93
 1457 0948 0C       		.byte	0xc
 1458 0949 CF01     		.2byte	0x1cf
 1459 094b 00       		.byte	0
 1460 094c 00       		.byte	0
 1461 094d 00       		.byte	0
 1462 094e 00       		.byte	0
 1463 094f 17       		.uleb128 0x17
 1464 0950 1C070000 		.4byte	0x71c
 1465 0954 5F090000 		.4byte	0x95f
 1466 0958 18       		.uleb128 0x18
 1467 0959 2C000000 		.4byte	0x2c
 1468 095d 0C       		.byte	0xc
 1469 095e 00       		.byte	0
 1470 095f 16       		.uleb128 0x16
 1471 0960 4F090000 		.4byte	0x94f
 1472 0964 25       		.uleb128 0x25
 1473 0965 B9060000 		.4byte	.LASF129
 1474 0969 01       		.byte	0x1
 1475 096a 78       		.byte	0x78
 1476 096b 85020000 		.4byte	0x285
 1477 096f 00000000 		.4byte	.LFB220
 1478 0973 38000000 		.4byte	.LFE220-.LFB220
 1479 0977 01       		.uleb128 0x1
 1480 0978 9C       		.byte	0x9c
 1481 0979 4C0A0000 		.4byte	0xa4c
 1482 097d 26       		.uleb128 0x26
ARM GAS  /tmp/cc5z8uJd.s 			page 27


 1483 097e 747000   		.ascii	"tp\000"
 1484 0981 01       		.byte	0x1
 1485 0982 79       		.byte	0x79
 1486 0983 85020000 		.4byte	0x285
 1487 0987 1D       		.uleb128 0x1d
 1488 0988 D80B0000 		.4byte	0xbd8
 1489 098c 02000000 		.4byte	.LBB69
 1490 0990 02000000 		.4byte	.LBE69-.LBB69
 1491 0994 01       		.byte	0x1
 1492 0995 7B       		.byte	0x7b
 1493 0996 BC090000 		.4byte	0x9bc
 1494 099a 1E       		.uleb128 0x1e
 1495 099b 3E0C0000 		.4byte	0xc3e
 1496 099f 02000000 		.4byte	.LBB70
 1497 09a3 02000000 		.4byte	.LBE70-.LBB70
 1498 09a7 11       		.byte	0x11
 1499 09a8 5C01     		.2byte	0x15c
 1500 09aa 1F       		.uleb128 0x1f
 1501 09ab 470C0000 		.4byte	0xc47
 1502 09af 02000000 		.4byte	.LBB71
 1503 09b3 02000000 		.4byte	.LBE71-.LBB71
 1504 09b7 0C       		.byte	0xc
 1505 09b8 C101     		.2byte	0x1c1
 1506 09ba 00       		.byte	0
 1507 09bb 00       		.byte	0
 1508 09bc 1D       		.uleb128 0x1d
 1509 09bd 860B0000 		.4byte	0xb86
 1510 09c1 08000000 		.4byte	.LBB73
 1511 09c5 06000000 		.4byte	.LBE73-.LBB73
 1512 09c9 01       		.byte	0x1
 1513 09ca 7C       		.byte	0x7c
 1514 09cb D9090000 		.4byte	0x9d9
 1515 09cf 20       		.uleb128 0x20
 1516 09d0 960B0000 		.4byte	0xb96
 1517 09d4 84000000 		.4byte	.LLST4
 1518 09d8 00       		.byte	0
 1519 09d9 27       		.uleb128 0x27
 1520 09da E10B0000 		.4byte	0xbe1
 1521 09de 12000000 		.4byte	.LBB75
 1522 09e2 28000000 		.4byte	.Ldebug_ranges0+0x28
 1523 09e6 01       		.byte	0x1
 1524 09e7 7F       		.byte	0x7f
 1525 09e8 FD090000 		.4byte	0x9fd
 1526 09ec 28       		.uleb128 0x28
 1527 09ed F20B0000 		.4byte	0xbf2
 1528 09f1 29       		.uleb128 0x29
 1529 09f2 28000000 		.4byte	.Ldebug_ranges0+0x28
 1530 09f6 2A       		.uleb128 0x2a
 1531 09f7 FE0B0000 		.4byte	0xbfe
 1532 09fb 00       		.byte	0
 1533 09fc 00       		.byte	0
 1534 09fd 1D       		.uleb128 0x1d
 1535 09fe A80B0000 		.4byte	0xba8
 1536 0a02 1E000000 		.4byte	.LBB79
 1537 0a06 02000000 		.4byte	.LBE79-.LBB79
 1538 0a0a 01       		.byte	0x1
 1539 0a0b 81       		.byte	0x81
ARM GAS  /tmp/cc5z8uJd.s 			page 28


 1540 0a0c 3C0A0000 		.4byte	0xa3c
 1541 0a10 24       		.uleb128 0x24
 1542 0a11 1E000000 		.4byte	.LBB80
 1543 0a15 02000000 		.4byte	.LBE80-.LBB80
 1544 0a19 1E       		.uleb128 0x1e
 1545 0a1a 350C0000 		.4byte	0xc35
 1546 0a1e 1E000000 		.4byte	.LBB81
 1547 0a22 02000000 		.4byte	.LBE81-.LBB81
 1548 0a26 11       		.byte	0x11
 1549 0a27 7301     		.2byte	0x173
 1550 0a29 1F       		.uleb128 0x1f
 1551 0a2a 500C0000 		.4byte	0xc50
 1552 0a2e 1E000000 		.4byte	.LBB82
 1553 0a32 02000000 		.4byte	.LBE82-.LBB82
 1554 0a36 0C       		.byte	0xc
 1555 0a37 CF01     		.2byte	0x1cf
 1556 0a39 00       		.byte	0
 1557 0a3a 00       		.byte	0
 1558 0a3b 00       		.byte	0
 1559 0a3c 21       		.uleb128 0x21
 1560 0a3d 28000000 		.4byte	.LVL15
 1561 0a41 650C0000 		.4byte	0xc65
 1562 0a45 22       		.uleb128 0x22
 1563 0a46 01       		.uleb128 0x1
 1564 0a47 50       		.byte	0x50
 1565 0a48 01       		.uleb128 0x1
 1566 0a49 3E       		.byte	0x3e
 1567 0a4a 00       		.byte	0
 1568 0a4b 00       		.byte	0
 1569 0a4c 25       		.uleb128 0x25
 1570 0a4d 93020000 		.4byte	.LASF130
 1571 0a51 01       		.byte	0x1
 1572 0a52 57       		.byte	0x57
 1573 0a53 20010000 		.4byte	0x120
 1574 0a57 00000000 		.4byte	.LFB219
 1575 0a5b 38000000 		.4byte	.LFE219-.LFB219
 1576 0a5f 01       		.uleb128 0x1
 1577 0a60 9C       		.byte	0x9c
 1578 0a61 4F0B0000 		.4byte	0xb4f
 1579 0a65 1B       		.uleb128 0x1b
 1580 0a66 747000   		.ascii	"tp\000"
 1581 0a69 01       		.byte	0x1
 1582 0a6a 57       		.byte	0x57
 1583 0a6b 85020000 		.4byte	0x285
 1584 0a6f 97000000 		.4byte	.LLST0
 1585 0a73 1B       		.uleb128 0x1b
 1586 0a74 6D736700 		.ascii	"msg\000"
 1587 0a78 01       		.byte	0x1
 1588 0a79 57       		.byte	0x57
 1589 0a7a 20010000 		.4byte	0x120
 1590 0a7e D1000000 		.4byte	.LLST1
 1591 0a82 2B       		.uleb128 0x2b
 1592 0a83 63747000 		.ascii	"ctp\000"
 1593 0a87 01       		.byte	0x1
 1594 0a88 58       		.byte	0x58
 1595 0a89 85020000 		.4byte	0x285
 1596 0a8d 01       		.uleb128 0x1
ARM GAS  /tmp/cc5z8uJd.s 			page 29


 1597 0a8e 54       		.byte	0x54
 1598 0a8f 1C       		.uleb128 0x1c
 1599 0a90 78050000 		.4byte	.LASF131
 1600 0a94 5F0B0000 		.4byte	0xb5f
 1601 0a98 1D       		.uleb128 0x1d
 1602 0a99 D80B0000 		.4byte	0xbd8
 1603 0a9d 06000000 		.4byte	.LBB52
 1604 0aa1 02000000 		.4byte	.LBE52-.LBB52
 1605 0aa5 01       		.byte	0x1
 1606 0aa6 5C       		.byte	0x5c
 1607 0aa7 CD0A0000 		.4byte	0xacd
 1608 0aab 1E       		.uleb128 0x1e
 1609 0aac 3E0C0000 		.4byte	0xc3e
 1610 0ab0 06000000 		.4byte	.LBB53
 1611 0ab4 02000000 		.4byte	.LBE53-.LBB53
 1612 0ab8 11       		.byte	0x11
 1613 0ab9 5C01     		.2byte	0x15c
 1614 0abb 1F       		.uleb128 0x1f
 1615 0abc 470C0000 		.4byte	0xc47
 1616 0ac0 06000000 		.4byte	.LBB54
 1617 0ac4 02000000 		.4byte	.LBE54-.LBB54
 1618 0ac8 0C       		.byte	0xc
 1619 0ac9 C101     		.2byte	0x1c1
 1620 0acb 00       		.byte	0
 1621 0acc 00       		.byte	0
 1622 0acd 27       		.uleb128 0x27
 1623 0ace 100C0000 		.4byte	0xc10
 1624 0ad2 08000000 		.4byte	.LBB56
 1625 0ad6 00000000 		.4byte	.Ldebug_ranges0+0
 1626 0ada 01       		.byte	0x1
 1627 0adb 5F       		.byte	0x5f
 1628 0adc F30A0000 		.4byte	0xaf3
 1629 0ae0 20       		.uleb128 0x20
 1630 0ae1 280C0000 		.4byte	0xc28
 1631 0ae5 23010000 		.4byte	.LLST2
 1632 0ae9 20       		.uleb128 0x20
 1633 0aea 1D0C0000 		.4byte	0xc1d
 1634 0aee 36010000 		.4byte	.LLST3
 1635 0af2 00       		.byte	0
 1636 0af3 1D       		.uleb128 0x1d
 1637 0af4 A80B0000 		.4byte	0xba8
 1638 0af8 2A000000 		.4byte	.LBB64
 1639 0afc 02000000 		.4byte	.LBE64-.LBB64
 1640 0b00 01       		.byte	0x1
 1641 0b01 65       		.byte	0x65
 1642 0b02 320B0000 		.4byte	0xb32
 1643 0b06 24       		.uleb128 0x24
 1644 0b07 2A000000 		.4byte	.LBB65
 1645 0b0b 02000000 		.4byte	.LBE65-.LBB65
 1646 0b0f 1E       		.uleb128 0x1e
 1647 0b10 350C0000 		.4byte	0xc35
 1648 0b14 2A000000 		.4byte	.LBB66
 1649 0b18 02000000 		.4byte	.LBE66-.LBB66
 1650 0b1c 11       		.byte	0x11
 1651 0b1d 7301     		.2byte	0x173
 1652 0b1f 1F       		.uleb128 0x1f
 1653 0b20 500C0000 		.4byte	0xc50
ARM GAS  /tmp/cc5z8uJd.s 			page 30


 1654 0b24 2A000000 		.4byte	.LBB67
 1655 0b28 02000000 		.4byte	.LBE67-.LBB67
 1656 0b2c 0C       		.byte	0xc
 1657 0b2d CF01     		.2byte	0x1cf
 1658 0b2f 00       		.byte	0
 1659 0b30 00       		.byte	0
 1660 0b31 00       		.byte	0
 1661 0b32 2C       		.uleb128 0x2c
 1662 0b33 28000000 		.4byte	.LVL6
 1663 0b37 650C0000 		.4byte	0xc65
 1664 0b3b 450B0000 		.4byte	0xb45
 1665 0b3f 22       		.uleb128 0x22
 1666 0b40 01       		.uleb128 0x1
 1667 0b41 50       		.byte	0x50
 1668 0b42 01       		.uleb128 0x1
 1669 0b43 3C       		.byte	0x3c
 1670 0b44 00       		.byte	0
 1671 0b45 2D       		.uleb128 0x2d
 1672 0b46 32000000 		.4byte	.LVL9
 1673 0b4a 710C0000 		.4byte	0xc71
 1674 0b4e 00       		.byte	0
 1675 0b4f 17       		.uleb128 0x17
 1676 0b50 1C070000 		.4byte	0x71c
 1677 0b54 5F0B0000 		.4byte	0xb5f
 1678 0b58 18       		.uleb128 0x18
 1679 0b59 2C000000 		.4byte	0x2c
 1680 0b5d 09       		.byte	0x9
 1681 0b5e 00       		.byte	0
 1682 0b5f 16       		.uleb128 0x16
 1683 0b60 4F0B0000 		.4byte	0xb4f
 1684 0b64 2E       		.uleb128 0x2e
 1685 0b65 4F070000 		.4byte	.LASF133
 1686 0b69 04       		.byte	0x4
 1687 0b6a 6F       		.byte	0x6f
 1688 0b6b 03       		.byte	0x3
 1689 0b6c 860B0000 		.4byte	0xb86
 1690 0b70 2F       		.uleb128 0x2f
 1691 0b71 747000   		.ascii	"tp\000"
 1692 0b74 04       		.byte	0x4
 1693 0b75 6F       		.byte	0x6f
 1694 0b76 85020000 		.4byte	0x285
 1695 0b7a 2F       		.uleb128 0x2f
 1696 0b7b 6D736700 		.ascii	"msg\000"
 1697 0b7f 04       		.byte	0x4
 1698 0b80 6F       		.byte	0x6f
 1699 0b81 20010000 		.4byte	0x120
 1700 0b85 00       		.byte	0
 1701 0b86 30       		.uleb128 0x30
 1702 0b87 B0020000 		.4byte	.LASF135
 1703 0b8b 04       		.byte	0x4
 1704 0b8c 4F       		.byte	0x4f
 1705 0b8d A10B0000 		.4byte	0xba1
 1706 0b91 03       		.byte	0x3
 1707 0b92 A10B0000 		.4byte	0xba1
 1708 0b96 2F       		.uleb128 0x2f
 1709 0b97 747000   		.ascii	"tp\000"
 1710 0b9a 04       		.byte	0x4
ARM GAS  /tmp/cc5z8uJd.s 			page 31


 1711 0b9b 4F       		.byte	0x4f
 1712 0b9c 85020000 		.4byte	0x285
 1713 0ba0 00       		.byte	0
 1714 0ba1 03       		.uleb128 0x3
 1715 0ba2 01       		.byte	0x1
 1716 0ba3 02       		.byte	0x2
 1717 0ba4 02050000 		.4byte	.LASF132
 1718 0ba8 31       		.uleb128 0x31
 1719 0ba9 38070000 		.4byte	.LASF134
 1720 0bad 11       		.byte	0x11
 1721 0bae 6601     		.2byte	0x166
 1722 0bb0 03       		.byte	0x3
 1723 0bb1 C30B0000 		.4byte	0xbc3
 1724 0bb5 32       		.uleb128 0x32
 1725 0bb6 78050000 		.4byte	.LASF131
 1726 0bba D30B0000 		.4byte	0xbd3
 1727 0bbe 38070000 		.4byte	.LASF134
 1728 0bc2 00       		.byte	0
 1729 0bc3 17       		.uleb128 0x17
 1730 0bc4 1C070000 		.4byte	0x71c
 1731 0bc8 D30B0000 		.4byte	0xbd3
 1732 0bcc 18       		.uleb128 0x18
 1733 0bcd 2C000000 		.4byte	0x2c
 1734 0bd1 0B       		.byte	0xb
 1735 0bd2 00       		.byte	0
 1736 0bd3 16       		.uleb128 0x16
 1737 0bd4 C30B0000 		.4byte	0xbc3
 1738 0bd8 33       		.uleb128 0x33
 1739 0bd9 81050000 		.4byte	.LASF138
 1740 0bdd 11       		.byte	0x11
 1741 0bde 5A01     		.2byte	0x15a
 1742 0be0 03       		.byte	0x3
 1743 0be1 34       		.uleb128 0x34
 1744 0be2 58060000 		.4byte	.LASF136
 1745 0be6 03       		.byte	0x3
 1746 0be7 9F02     		.2byte	0x29f
 1747 0be9 85020000 		.4byte	0x285
 1748 0bed 03       		.byte	0x3
 1749 0bee 0A0C0000 		.4byte	0xc0a
 1750 0bf2 35       		.uleb128 0x35
 1751 0bf3 74717000 		.ascii	"tqp\000"
 1752 0bf7 03       		.byte	0x3
 1753 0bf8 9F02     		.2byte	0x29f
 1754 0bfa 0A0C0000 		.4byte	0xc0a
 1755 0bfe 36       		.uleb128 0x36
 1756 0bff 747000   		.ascii	"tp\000"
 1757 0c02 03       		.byte	0x3
 1758 0c03 A002     		.2byte	0x2a0
 1759 0c05 85020000 		.4byte	0x285
 1760 0c09 00       		.byte	0
 1761 0c0a 0A       		.uleb128 0xa
 1762 0c0b 04       		.byte	0x4
 1763 0c0c AF020000 		.4byte	0x2af
 1764 0c10 31       		.uleb128 0x31
 1765 0c11 1A000000 		.4byte	.LASF137
 1766 0c15 03       		.byte	0x3
 1767 0c16 9702     		.2byte	0x297
ARM GAS  /tmp/cc5z8uJd.s 			page 32


 1768 0c18 03       		.byte	0x3
 1769 0c19 350C0000 		.4byte	0xc35
 1770 0c1d 35       		.uleb128 0x35
 1771 0c1e 747000   		.ascii	"tp\000"
 1772 0c21 03       		.byte	0x3
 1773 0c22 9702     		.2byte	0x297
 1774 0c24 85020000 		.4byte	0x285
 1775 0c28 35       		.uleb128 0x35
 1776 0c29 74717000 		.ascii	"tqp\000"
 1777 0c2d 03       		.byte	0x3
 1778 0c2e 9702     		.2byte	0x297
 1779 0c30 0A0C0000 		.4byte	0xc0a
 1780 0c34 00       		.byte	0
 1781 0c35 33       		.uleb128 0x33
 1782 0c36 6A020000 		.4byte	.LASF139
 1783 0c3a 0C       		.byte	0xc
 1784 0c3b CA01     		.2byte	0x1ca
 1785 0c3d 03       		.byte	0x3
 1786 0c3e 33       		.uleb128 0x33
 1787 0c3f 86010000 		.4byte	.LASF140
 1788 0c43 0C       		.byte	0xc
 1789 0c44 BC01     		.2byte	0x1bc
 1790 0c46 03       		.byte	0x3
 1791 0c47 33       		.uleb128 0x33
 1792 0c48 BA040000 		.4byte	.LASF141
 1793 0c4c 02       		.byte	0x2
 1794 0c4d 5401     		.2byte	0x154
 1795 0c4f 03       		.byte	0x3
 1796 0c50 33       		.uleb128 0x33
 1797 0c51 A2040000 		.4byte	.LASF142
 1798 0c55 02       		.byte	0x2
 1799 0c56 4901     		.2byte	0x149
 1800 0c58 03       		.byte	0x3
 1801 0c59 37       		.uleb128 0x37
 1802 0c5a B5030000 		.4byte	.LASF143
 1803 0c5e B5030000 		.4byte	.LASF143
 1804 0c62 03       		.byte	0x3
 1805 0c63 1602     		.2byte	0x216
 1806 0c65 37       		.uleb128 0x37
 1807 0c66 C6050000 		.4byte	.LASF144
 1808 0c6a C6050000 		.4byte	.LASF144
 1809 0c6e 03       		.byte	0x3
 1810 0c6f 1402     		.2byte	0x214
 1811 0c71 37       		.uleb128 0x37
 1812 0c72 02060000 		.4byte	.LASF145
 1813 0c76 02060000 		.4byte	.LASF145
 1814 0c7a 03       		.byte	0x3
 1815 0c7b 1302     		.2byte	0x213
 1816 0c7d 00       		.byte	0
 1817              		.section	.debug_abbrev,"",%progbits
 1818              	.Ldebug_abbrev0:
 1819 0000 01       		.uleb128 0x1
 1820 0001 11       		.uleb128 0x11
 1821 0002 01       		.byte	0x1
 1822 0003 25       		.uleb128 0x25
 1823 0004 0E       		.uleb128 0xe
 1824 0005 13       		.uleb128 0x13
ARM GAS  /tmp/cc5z8uJd.s 			page 33


 1825 0006 0B       		.uleb128 0xb
 1826 0007 03       		.uleb128 0x3
 1827 0008 0E       		.uleb128 0xe
 1828 0009 1B       		.uleb128 0x1b
 1829 000a 0E       		.uleb128 0xe
 1830 000b 55       		.uleb128 0x55
 1831 000c 17       		.uleb128 0x17
 1832 000d 11       		.uleb128 0x11
 1833 000e 01       		.uleb128 0x1
 1834 000f 10       		.uleb128 0x10
 1835 0010 17       		.uleb128 0x17
 1836 0011 00       		.byte	0
 1837 0012 00       		.byte	0
 1838 0013 02       		.uleb128 0x2
 1839 0014 24       		.uleb128 0x24
 1840 0015 00       		.byte	0
 1841 0016 0B       		.uleb128 0xb
 1842 0017 0B       		.uleb128 0xb
 1843 0018 3E       		.uleb128 0x3e
 1844 0019 0B       		.uleb128 0xb
 1845 001a 03       		.uleb128 0x3
 1846 001b 08       		.uleb128 0x8
 1847 001c 00       		.byte	0
 1848 001d 00       		.byte	0
 1849 001e 03       		.uleb128 0x3
 1850 001f 24       		.uleb128 0x24
 1851 0020 00       		.byte	0
 1852 0021 0B       		.uleb128 0xb
 1853 0022 0B       		.uleb128 0xb
 1854 0023 3E       		.uleb128 0x3e
 1855 0024 0B       		.uleb128 0xb
 1856 0025 03       		.uleb128 0x3
 1857 0026 0E       		.uleb128 0xe
 1858 0027 00       		.byte	0
 1859 0028 00       		.byte	0
 1860 0029 04       		.uleb128 0x4
 1861 002a 16       		.uleb128 0x16
 1862 002b 00       		.byte	0
 1863 002c 03       		.uleb128 0x3
 1864 002d 0E       		.uleb128 0xe
 1865 002e 3A       		.uleb128 0x3a
 1866 002f 0B       		.uleb128 0xb
 1867 0030 3B       		.uleb128 0x3b
 1868 0031 0B       		.uleb128 0xb
 1869 0032 49       		.uleb128 0x49
 1870 0033 13       		.uleb128 0x13
 1871 0034 00       		.byte	0
 1872 0035 00       		.byte	0
 1873 0036 05       		.uleb128 0x5
 1874 0037 35       		.uleb128 0x35
 1875 0038 00       		.byte	0
 1876 0039 49       		.uleb128 0x49
 1877 003a 13       		.uleb128 0x13
 1878 003b 00       		.byte	0
 1879 003c 00       		.byte	0
 1880 003d 06       		.uleb128 0x6
 1881 003e 13       		.uleb128 0x13
ARM GAS  /tmp/cc5z8uJd.s 			page 34


 1882 003f 01       		.byte	0x1
 1883 0040 03       		.uleb128 0x3
 1884 0041 0E       		.uleb128 0xe
 1885 0042 0B       		.uleb128 0xb
 1886 0043 0B       		.uleb128 0xb
 1887 0044 3A       		.uleb128 0x3a
 1888 0045 0B       		.uleb128 0xb
 1889 0046 3B       		.uleb128 0x3b
 1890 0047 0B       		.uleb128 0xb
 1891 0048 01       		.uleb128 0x1
 1892 0049 13       		.uleb128 0x13
 1893 004a 00       		.byte	0
 1894 004b 00       		.byte	0
 1895 004c 07       		.uleb128 0x7
 1896 004d 0D       		.uleb128 0xd
 1897 004e 00       		.byte	0
 1898 004f 03       		.uleb128 0x3
 1899 0050 0E       		.uleb128 0xe
 1900 0051 3A       		.uleb128 0x3a
 1901 0052 0B       		.uleb128 0xb
 1902 0053 3B       		.uleb128 0x3b
 1903 0054 0B       		.uleb128 0xb
 1904 0055 49       		.uleb128 0x49
 1905 0056 13       		.uleb128 0x13
 1906 0057 38       		.uleb128 0x38
 1907 0058 0B       		.uleb128 0xb
 1908 0059 00       		.byte	0
 1909 005a 00       		.byte	0
 1910 005b 08       		.uleb128 0x8
 1911 005c 0D       		.uleb128 0xd
 1912 005d 00       		.byte	0
 1913 005e 03       		.uleb128 0x3
 1914 005f 08       		.uleb128 0x8
 1915 0060 3A       		.uleb128 0x3a
 1916 0061 0B       		.uleb128 0xb
 1917 0062 3B       		.uleb128 0x3b
 1918 0063 05       		.uleb128 0x5
 1919 0064 49       		.uleb128 0x49
 1920 0065 13       		.uleb128 0x13
 1921 0066 38       		.uleb128 0x38
 1922 0067 0B       		.uleb128 0xb
 1923 0068 00       		.byte	0
 1924 0069 00       		.byte	0
 1925 006a 09       		.uleb128 0x9
 1926 006b 0D       		.uleb128 0xd
 1927 006c 00       		.byte	0
 1928 006d 03       		.uleb128 0x3
 1929 006e 0E       		.uleb128 0xe
 1930 006f 3A       		.uleb128 0x3a
 1931 0070 0B       		.uleb128 0xb
 1932 0071 3B       		.uleb128 0x3b
 1933 0072 05       		.uleb128 0x5
 1934 0073 49       		.uleb128 0x49
 1935 0074 13       		.uleb128 0x13
 1936 0075 38       		.uleb128 0x38
 1937 0076 0B       		.uleb128 0xb
 1938 0077 00       		.byte	0
ARM GAS  /tmp/cc5z8uJd.s 			page 35


 1939 0078 00       		.byte	0
 1940 0079 0A       		.uleb128 0xa
 1941 007a 0F       		.uleb128 0xf
 1942 007b 00       		.byte	0
 1943 007c 0B       		.uleb128 0xb
 1944 007d 0B       		.uleb128 0xb
 1945 007e 49       		.uleb128 0x49
 1946 007f 13       		.uleb128 0x13
 1947 0080 00       		.byte	0
 1948 0081 00       		.byte	0
 1949 0082 0B       		.uleb128 0xb
 1950 0083 13       		.uleb128 0x13
 1951 0084 01       		.byte	0x1
 1952 0085 03       		.uleb128 0x3
 1953 0086 0E       		.uleb128 0xe
 1954 0087 0B       		.uleb128 0xb
 1955 0088 0B       		.uleb128 0xb
 1956 0089 3A       		.uleb128 0x3a
 1957 008a 0B       		.uleb128 0xb
 1958 008b 3B       		.uleb128 0x3b
 1959 008c 05       		.uleb128 0x5
 1960 008d 01       		.uleb128 0x1
 1961 008e 13       		.uleb128 0x13
 1962 008f 00       		.byte	0
 1963 0090 00       		.byte	0
 1964 0091 0C       		.uleb128 0xc
 1965 0092 15       		.uleb128 0x15
 1966 0093 01       		.byte	0x1
 1967 0094 27       		.uleb128 0x27
 1968 0095 19       		.uleb128 0x19
 1969 0096 01       		.uleb128 0x1
 1970 0097 13       		.uleb128 0x13
 1971 0098 00       		.byte	0
 1972 0099 00       		.byte	0
 1973 009a 0D       		.uleb128 0xd
 1974 009b 05       		.uleb128 0x5
 1975 009c 00       		.byte	0
 1976 009d 49       		.uleb128 0x49
 1977 009e 13       		.uleb128 0x13
 1978 009f 00       		.byte	0
 1979 00a0 00       		.byte	0
 1980 00a1 0E       		.uleb128 0xe
 1981 00a2 0F       		.uleb128 0xf
 1982 00a3 00       		.byte	0
 1983 00a4 0B       		.uleb128 0xb
 1984 00a5 0B       		.uleb128 0xb
 1985 00a6 00       		.byte	0
 1986 00a7 00       		.byte	0
 1987 00a8 0F       		.uleb128 0xf
 1988 00a9 13       		.uleb128 0x13
 1989 00aa 01       		.byte	0x1
 1990 00ab 03       		.uleb128 0x3
 1991 00ac 0E       		.uleb128 0xe
 1992 00ad 0B       		.uleb128 0xb
 1993 00ae 05       		.uleb128 0x5
 1994 00af 3A       		.uleb128 0x3a
 1995 00b0 0B       		.uleb128 0xb
ARM GAS  /tmp/cc5z8uJd.s 			page 36


 1996 00b1 3B       		.uleb128 0x3b
 1997 00b2 05       		.uleb128 0x5
 1998 00b3 01       		.uleb128 0x1
 1999 00b4 13       		.uleb128 0x13
 2000 00b5 00       		.byte	0
 2001 00b6 00       		.byte	0
 2002 00b7 10       		.uleb128 0x10
 2003 00b8 34       		.uleb128 0x34
 2004 00b9 00       		.byte	0
 2005 00ba 03       		.uleb128 0x3
 2006 00bb 0E       		.uleb128 0xe
 2007 00bc 3A       		.uleb128 0x3a
 2008 00bd 0B       		.uleb128 0xb
 2009 00be 3B       		.uleb128 0x3b
 2010 00bf 05       		.uleb128 0x5
 2011 00c0 49       		.uleb128 0x49
 2012 00c1 13       		.uleb128 0x13
 2013 00c2 3F       		.uleb128 0x3f
 2014 00c3 19       		.uleb128 0x19
 2015 00c4 3C       		.uleb128 0x3c
 2016 00c5 19       		.uleb128 0x19
 2017 00c6 00       		.byte	0
 2018 00c7 00       		.byte	0
 2019 00c8 11       		.uleb128 0x11
 2020 00c9 34       		.uleb128 0x34
 2021 00ca 00       		.byte	0
 2022 00cb 03       		.uleb128 0x3
 2023 00cc 0E       		.uleb128 0xe
 2024 00cd 3A       		.uleb128 0x3a
 2025 00ce 0B       		.uleb128 0xb
 2026 00cf 3B       		.uleb128 0x3b
 2027 00d0 0B       		.uleb128 0xb
 2028 00d1 49       		.uleb128 0x49
 2029 00d2 13       		.uleb128 0x13
 2030 00d3 3F       		.uleb128 0x3f
 2031 00d4 19       		.uleb128 0x19
 2032 00d5 3C       		.uleb128 0x3c
 2033 00d6 19       		.uleb128 0x19
 2034 00d7 00       		.byte	0
 2035 00d8 00       		.byte	0
 2036 00d9 12       		.uleb128 0x12
 2037 00da 0D       		.uleb128 0xd
 2038 00db 00       		.byte	0
 2039 00dc 03       		.uleb128 0x3
 2040 00dd 08       		.uleb128 0x8
 2041 00de 3A       		.uleb128 0x3a
 2042 00df 0B       		.uleb128 0xb
 2043 00e0 3B       		.uleb128 0x3b
 2044 00e1 0B       		.uleb128 0xb
 2045 00e2 49       		.uleb128 0x49
 2046 00e3 13       		.uleb128 0x13
 2047 00e4 38       		.uleb128 0x38
 2048 00e5 0B       		.uleb128 0xb
 2049 00e6 00       		.byte	0
 2050 00e7 00       		.byte	0
 2051 00e8 13       		.uleb128 0x13
 2052 00e9 13       		.uleb128 0x13
ARM GAS  /tmp/cc5z8uJd.s 			page 37


 2053 00ea 01       		.byte	0x1
 2054 00eb 0B       		.uleb128 0xb
 2055 00ec 0B       		.uleb128 0xb
 2056 00ed 3A       		.uleb128 0x3a
 2057 00ee 0B       		.uleb128 0xb
 2058 00ef 3B       		.uleb128 0x3b
 2059 00f0 0B       		.uleb128 0xb
 2060 00f1 01       		.uleb128 0x1
 2061 00f2 13       		.uleb128 0x13
 2062 00f3 00       		.byte	0
 2063 00f4 00       		.byte	0
 2064 00f5 14       		.uleb128 0x14
 2065 00f6 17       		.uleb128 0x17
 2066 00f7 01       		.byte	0x1
 2067 00f8 0B       		.uleb128 0xb
 2068 00f9 0B       		.uleb128 0xb
 2069 00fa 3A       		.uleb128 0x3a
 2070 00fb 0B       		.uleb128 0xb
 2071 00fc 3B       		.uleb128 0x3b
 2072 00fd 0B       		.uleb128 0xb
 2073 00fe 01       		.uleb128 0x1
 2074 00ff 13       		.uleb128 0x13
 2075 0100 00       		.byte	0
 2076 0101 00       		.byte	0
 2077 0102 15       		.uleb128 0x15
 2078 0103 0D       		.uleb128 0xd
 2079 0104 00       		.byte	0
 2080 0105 03       		.uleb128 0x3
 2081 0106 0E       		.uleb128 0xe
 2082 0107 3A       		.uleb128 0x3a
 2083 0108 0B       		.uleb128 0xb
 2084 0109 3B       		.uleb128 0x3b
 2085 010a 05       		.uleb128 0x5
 2086 010b 49       		.uleb128 0x49
 2087 010c 13       		.uleb128 0x13
 2088 010d 00       		.byte	0
 2089 010e 00       		.byte	0
 2090 010f 16       		.uleb128 0x16
 2091 0110 26       		.uleb128 0x26
 2092 0111 00       		.byte	0
 2093 0112 49       		.uleb128 0x49
 2094 0113 13       		.uleb128 0x13
 2095 0114 00       		.byte	0
 2096 0115 00       		.byte	0
 2097 0116 17       		.uleb128 0x17
 2098 0117 01       		.uleb128 0x1
 2099 0118 01       		.byte	0x1
 2100 0119 49       		.uleb128 0x49
 2101 011a 13       		.uleb128 0x13
 2102 011b 01       		.uleb128 0x1
 2103 011c 13       		.uleb128 0x13
 2104 011d 00       		.byte	0
 2105 011e 00       		.byte	0
 2106 011f 18       		.uleb128 0x18
 2107 0120 21       		.uleb128 0x21
 2108 0121 00       		.byte	0
 2109 0122 49       		.uleb128 0x49
ARM GAS  /tmp/cc5z8uJd.s 			page 38


 2110 0123 13       		.uleb128 0x13
 2111 0124 2F       		.uleb128 0x2f
 2112 0125 0B       		.uleb128 0xb
 2113 0126 00       		.byte	0
 2114 0127 00       		.byte	0
 2115 0128 19       		.uleb128 0x19
 2116 0129 34       		.uleb128 0x34
 2117 012a 00       		.byte	0
 2118 012b 03       		.uleb128 0x3
 2119 012c 08       		.uleb128 0x8
 2120 012d 3A       		.uleb128 0x3a
 2121 012e 0B       		.uleb128 0xb
 2122 012f 3B       		.uleb128 0x3b
 2123 0130 05       		.uleb128 0x5
 2124 0131 49       		.uleb128 0x49
 2125 0132 13       		.uleb128 0x13
 2126 0133 3F       		.uleb128 0x3f
 2127 0134 19       		.uleb128 0x19
 2128 0135 3C       		.uleb128 0x3c
 2129 0136 19       		.uleb128 0x19
 2130 0137 00       		.byte	0
 2131 0138 00       		.byte	0
 2132 0139 1A       		.uleb128 0x1a
 2133 013a 2E       		.uleb128 0x2e
 2134 013b 01       		.byte	0x1
 2135 013c 3F       		.uleb128 0x3f
 2136 013d 19       		.uleb128 0x19
 2137 013e 03       		.uleb128 0x3
 2138 013f 0E       		.uleb128 0xe
 2139 0140 3A       		.uleb128 0x3a
 2140 0141 0B       		.uleb128 0xb
 2141 0142 3B       		.uleb128 0x3b
 2142 0143 0B       		.uleb128 0xb
 2143 0144 27       		.uleb128 0x27
 2144 0145 19       		.uleb128 0x19
 2145 0146 11       		.uleb128 0x11
 2146 0147 01       		.uleb128 0x1
 2147 0148 12       		.uleb128 0x12
 2148 0149 06       		.uleb128 0x6
 2149 014a 40       		.uleb128 0x40
 2150 014b 18       		.uleb128 0x18
 2151 014c 9742     		.uleb128 0x2117
 2152 014e 19       		.uleb128 0x19
 2153 014f 01       		.uleb128 0x1
 2154 0150 13       		.uleb128 0x13
 2155 0151 00       		.byte	0
 2156 0152 00       		.byte	0
 2157 0153 1B       		.uleb128 0x1b
 2158 0154 05       		.uleb128 0x5
 2159 0155 00       		.byte	0
 2160 0156 03       		.uleb128 0x3
 2161 0157 08       		.uleb128 0x8
 2162 0158 3A       		.uleb128 0x3a
 2163 0159 0B       		.uleb128 0xb
 2164 015a 3B       		.uleb128 0x3b
 2165 015b 0B       		.uleb128 0xb
 2166 015c 49       		.uleb128 0x49
ARM GAS  /tmp/cc5z8uJd.s 			page 39


 2167 015d 13       		.uleb128 0x13
 2168 015e 02       		.uleb128 0x2
 2169 015f 17       		.uleb128 0x17
 2170 0160 00       		.byte	0
 2171 0161 00       		.byte	0
 2172 0162 1C       		.uleb128 0x1c
 2173 0163 34       		.uleb128 0x34
 2174 0164 00       		.byte	0
 2175 0165 03       		.uleb128 0x3
 2176 0166 0E       		.uleb128 0xe
 2177 0167 49       		.uleb128 0x49
 2178 0168 13       		.uleb128 0x13
 2179 0169 34       		.uleb128 0x34
 2180 016a 19       		.uleb128 0x19
 2181 016b 00       		.byte	0
 2182 016c 00       		.byte	0
 2183 016d 1D       		.uleb128 0x1d
 2184 016e 1D       		.uleb128 0x1d
 2185 016f 01       		.byte	0x1
 2186 0170 31       		.uleb128 0x31
 2187 0171 13       		.uleb128 0x13
 2188 0172 11       		.uleb128 0x11
 2189 0173 01       		.uleb128 0x1
 2190 0174 12       		.uleb128 0x12
 2191 0175 06       		.uleb128 0x6
 2192 0176 58       		.uleb128 0x58
 2193 0177 0B       		.uleb128 0xb
 2194 0178 59       		.uleb128 0x59
 2195 0179 0B       		.uleb128 0xb
 2196 017a 01       		.uleb128 0x1
 2197 017b 13       		.uleb128 0x13
 2198 017c 00       		.byte	0
 2199 017d 00       		.byte	0
 2200 017e 1E       		.uleb128 0x1e
 2201 017f 1D       		.uleb128 0x1d
 2202 0180 01       		.byte	0x1
 2203 0181 31       		.uleb128 0x31
 2204 0182 13       		.uleb128 0x13
 2205 0183 11       		.uleb128 0x11
 2206 0184 01       		.uleb128 0x1
 2207 0185 12       		.uleb128 0x12
 2208 0186 06       		.uleb128 0x6
 2209 0187 58       		.uleb128 0x58
 2210 0188 0B       		.uleb128 0xb
 2211 0189 59       		.uleb128 0x59
 2212 018a 05       		.uleb128 0x5
 2213 018b 00       		.byte	0
 2214 018c 00       		.byte	0
 2215 018d 1F       		.uleb128 0x1f
 2216 018e 1D       		.uleb128 0x1d
 2217 018f 00       		.byte	0
 2218 0190 31       		.uleb128 0x31
 2219 0191 13       		.uleb128 0x13
 2220 0192 11       		.uleb128 0x11
 2221 0193 01       		.uleb128 0x1
 2222 0194 12       		.uleb128 0x12
 2223 0195 06       		.uleb128 0x6
ARM GAS  /tmp/cc5z8uJd.s 			page 40


 2224 0196 58       		.uleb128 0x58
 2225 0197 0B       		.uleb128 0xb
 2226 0198 59       		.uleb128 0x59
 2227 0199 05       		.uleb128 0x5
 2228 019a 00       		.byte	0
 2229 019b 00       		.byte	0
 2230 019c 20       		.uleb128 0x20
 2231 019d 05       		.uleb128 0x5
 2232 019e 00       		.byte	0
 2233 019f 31       		.uleb128 0x31
 2234 01a0 13       		.uleb128 0x13
 2235 01a1 02       		.uleb128 0x2
 2236 01a2 17       		.uleb128 0x17
 2237 01a3 00       		.byte	0
 2238 01a4 00       		.byte	0
 2239 01a5 21       		.uleb128 0x21
 2240 01a6 898201   		.uleb128 0x4109
 2241 01a9 01       		.byte	0x1
 2242 01aa 11       		.uleb128 0x11
 2243 01ab 01       		.uleb128 0x1
 2244 01ac 31       		.uleb128 0x31
 2245 01ad 13       		.uleb128 0x13
 2246 01ae 00       		.byte	0
 2247 01af 00       		.byte	0
 2248 01b0 22       		.uleb128 0x22
 2249 01b1 8A8201   		.uleb128 0x410a
 2250 01b4 00       		.byte	0
 2251 01b5 02       		.uleb128 0x2
 2252 01b6 18       		.uleb128 0x18
 2253 01b7 9142     		.uleb128 0x2111
 2254 01b9 18       		.uleb128 0x18
 2255 01ba 00       		.byte	0
 2256 01bb 00       		.byte	0
 2257 01bc 23       		.uleb128 0x23
 2258 01bd 1D       		.uleb128 0x1d
 2259 01be 01       		.byte	0x1
 2260 01bf 31       		.uleb128 0x31
 2261 01c0 13       		.uleb128 0x13
 2262 01c1 11       		.uleb128 0x11
 2263 01c2 01       		.uleb128 0x1
 2264 01c3 12       		.uleb128 0x12
 2265 01c4 06       		.uleb128 0x6
 2266 01c5 58       		.uleb128 0x58
 2267 01c6 0B       		.uleb128 0xb
 2268 01c7 59       		.uleb128 0x59
 2269 01c8 0B       		.uleb128 0xb
 2270 01c9 00       		.byte	0
 2271 01ca 00       		.byte	0
 2272 01cb 24       		.uleb128 0x24
 2273 01cc 0B       		.uleb128 0xb
 2274 01cd 01       		.byte	0x1
 2275 01ce 11       		.uleb128 0x11
 2276 01cf 01       		.uleb128 0x1
 2277 01d0 12       		.uleb128 0x12
 2278 01d1 06       		.uleb128 0x6
 2279 01d2 00       		.byte	0
 2280 01d3 00       		.byte	0
ARM GAS  /tmp/cc5z8uJd.s 			page 41


 2281 01d4 25       		.uleb128 0x25
 2282 01d5 2E       		.uleb128 0x2e
 2283 01d6 01       		.byte	0x1
 2284 01d7 3F       		.uleb128 0x3f
 2285 01d8 19       		.uleb128 0x19
 2286 01d9 03       		.uleb128 0x3
 2287 01da 0E       		.uleb128 0xe
 2288 01db 3A       		.uleb128 0x3a
 2289 01dc 0B       		.uleb128 0xb
 2290 01dd 3B       		.uleb128 0x3b
 2291 01de 0B       		.uleb128 0xb
 2292 01df 27       		.uleb128 0x27
 2293 01e0 19       		.uleb128 0x19
 2294 01e1 49       		.uleb128 0x49
 2295 01e2 13       		.uleb128 0x13
 2296 01e3 11       		.uleb128 0x11
 2297 01e4 01       		.uleb128 0x1
 2298 01e5 12       		.uleb128 0x12
 2299 01e6 06       		.uleb128 0x6
 2300 01e7 40       		.uleb128 0x40
 2301 01e8 18       		.uleb128 0x18
 2302 01e9 9742     		.uleb128 0x2117
 2303 01eb 19       		.uleb128 0x19
 2304 01ec 01       		.uleb128 0x1
 2305 01ed 13       		.uleb128 0x13
 2306 01ee 00       		.byte	0
 2307 01ef 00       		.byte	0
 2308 01f0 26       		.uleb128 0x26
 2309 01f1 34       		.uleb128 0x34
 2310 01f2 00       		.byte	0
 2311 01f3 03       		.uleb128 0x3
 2312 01f4 08       		.uleb128 0x8
 2313 01f5 3A       		.uleb128 0x3a
 2314 01f6 0B       		.uleb128 0xb
 2315 01f7 3B       		.uleb128 0x3b
 2316 01f8 0B       		.uleb128 0xb
 2317 01f9 49       		.uleb128 0x49
 2318 01fa 13       		.uleb128 0x13
 2319 01fb 00       		.byte	0
 2320 01fc 00       		.byte	0
 2321 01fd 27       		.uleb128 0x27
 2322 01fe 1D       		.uleb128 0x1d
 2323 01ff 01       		.byte	0x1
 2324 0200 31       		.uleb128 0x31
 2325 0201 13       		.uleb128 0x13
 2326 0202 52       		.uleb128 0x52
 2327 0203 01       		.uleb128 0x1
 2328 0204 55       		.uleb128 0x55
 2329 0205 17       		.uleb128 0x17
 2330 0206 58       		.uleb128 0x58
 2331 0207 0B       		.uleb128 0xb
 2332 0208 59       		.uleb128 0x59
 2333 0209 0B       		.uleb128 0xb
 2334 020a 01       		.uleb128 0x1
 2335 020b 13       		.uleb128 0x13
 2336 020c 00       		.byte	0
 2337 020d 00       		.byte	0
ARM GAS  /tmp/cc5z8uJd.s 			page 42


 2338 020e 28       		.uleb128 0x28
 2339 020f 05       		.uleb128 0x5
 2340 0210 00       		.byte	0
 2341 0211 31       		.uleb128 0x31
 2342 0212 13       		.uleb128 0x13
 2343 0213 00       		.byte	0
 2344 0214 00       		.byte	0
 2345 0215 29       		.uleb128 0x29
 2346 0216 0B       		.uleb128 0xb
 2347 0217 01       		.byte	0x1
 2348 0218 55       		.uleb128 0x55
 2349 0219 17       		.uleb128 0x17
 2350 021a 00       		.byte	0
 2351 021b 00       		.byte	0
 2352 021c 2A       		.uleb128 0x2a
 2353 021d 34       		.uleb128 0x34
 2354 021e 00       		.byte	0
 2355 021f 31       		.uleb128 0x31
 2356 0220 13       		.uleb128 0x13
 2357 0221 00       		.byte	0
 2358 0222 00       		.byte	0
 2359 0223 2B       		.uleb128 0x2b
 2360 0224 34       		.uleb128 0x34
 2361 0225 00       		.byte	0
 2362 0226 03       		.uleb128 0x3
 2363 0227 08       		.uleb128 0x8
 2364 0228 3A       		.uleb128 0x3a
 2365 0229 0B       		.uleb128 0xb
 2366 022a 3B       		.uleb128 0x3b
 2367 022b 0B       		.uleb128 0xb
 2368 022c 49       		.uleb128 0x49
 2369 022d 13       		.uleb128 0x13
 2370 022e 02       		.uleb128 0x2
 2371 022f 18       		.uleb128 0x18
 2372 0230 00       		.byte	0
 2373 0231 00       		.byte	0
 2374 0232 2C       		.uleb128 0x2c
 2375 0233 898201   		.uleb128 0x4109
 2376 0236 01       		.byte	0x1
 2377 0237 11       		.uleb128 0x11
 2378 0238 01       		.uleb128 0x1
 2379 0239 31       		.uleb128 0x31
 2380 023a 13       		.uleb128 0x13
 2381 023b 01       		.uleb128 0x1
 2382 023c 13       		.uleb128 0x13
 2383 023d 00       		.byte	0
 2384 023e 00       		.byte	0
 2385 023f 2D       		.uleb128 0x2d
 2386 0240 898201   		.uleb128 0x4109
 2387 0243 00       		.byte	0
 2388 0244 11       		.uleb128 0x11
 2389 0245 01       		.uleb128 0x1
 2390 0246 31       		.uleb128 0x31
 2391 0247 13       		.uleb128 0x13
 2392 0248 00       		.byte	0
 2393 0249 00       		.byte	0
 2394 024a 2E       		.uleb128 0x2e
ARM GAS  /tmp/cc5z8uJd.s 			page 43


 2395 024b 2E       		.uleb128 0x2e
 2396 024c 01       		.byte	0x1
 2397 024d 03       		.uleb128 0x3
 2398 024e 0E       		.uleb128 0xe
 2399 024f 3A       		.uleb128 0x3a
 2400 0250 0B       		.uleb128 0xb
 2401 0251 3B       		.uleb128 0x3b
 2402 0252 0B       		.uleb128 0xb
 2403 0253 27       		.uleb128 0x27
 2404 0254 19       		.uleb128 0x19
 2405 0255 20       		.uleb128 0x20
 2406 0256 0B       		.uleb128 0xb
 2407 0257 01       		.uleb128 0x1
 2408 0258 13       		.uleb128 0x13
 2409 0259 00       		.byte	0
 2410 025a 00       		.byte	0
 2411 025b 2F       		.uleb128 0x2f
 2412 025c 05       		.uleb128 0x5
 2413 025d 00       		.byte	0
 2414 025e 03       		.uleb128 0x3
 2415 025f 08       		.uleb128 0x8
 2416 0260 3A       		.uleb128 0x3a
 2417 0261 0B       		.uleb128 0xb
 2418 0262 3B       		.uleb128 0x3b
 2419 0263 0B       		.uleb128 0xb
 2420 0264 49       		.uleb128 0x49
 2421 0265 13       		.uleb128 0x13
 2422 0266 00       		.byte	0
 2423 0267 00       		.byte	0
 2424 0268 30       		.uleb128 0x30
 2425 0269 2E       		.uleb128 0x2e
 2426 026a 01       		.byte	0x1
 2427 026b 03       		.uleb128 0x3
 2428 026c 0E       		.uleb128 0xe
 2429 026d 3A       		.uleb128 0x3a
 2430 026e 0B       		.uleb128 0xb
 2431 026f 3B       		.uleb128 0x3b
 2432 0270 0B       		.uleb128 0xb
 2433 0271 27       		.uleb128 0x27
 2434 0272 19       		.uleb128 0x19
 2435 0273 49       		.uleb128 0x49
 2436 0274 13       		.uleb128 0x13
 2437 0275 20       		.uleb128 0x20
 2438 0276 0B       		.uleb128 0xb
 2439 0277 01       		.uleb128 0x1
 2440 0278 13       		.uleb128 0x13
 2441 0279 00       		.byte	0
 2442 027a 00       		.byte	0
 2443 027b 31       		.uleb128 0x31
 2444 027c 2E       		.uleb128 0x2e
 2445 027d 01       		.byte	0x1
 2446 027e 03       		.uleb128 0x3
 2447 027f 0E       		.uleb128 0xe
 2448 0280 3A       		.uleb128 0x3a
 2449 0281 0B       		.uleb128 0xb
 2450 0282 3B       		.uleb128 0x3b
 2451 0283 05       		.uleb128 0x5
ARM GAS  /tmp/cc5z8uJd.s 			page 44


 2452 0284 27       		.uleb128 0x27
 2453 0285 19       		.uleb128 0x19
 2454 0286 20       		.uleb128 0x20
 2455 0287 0B       		.uleb128 0xb
 2456 0288 01       		.uleb128 0x1
 2457 0289 13       		.uleb128 0x13
 2458 028a 00       		.byte	0
 2459 028b 00       		.byte	0
 2460 028c 32       		.uleb128 0x32
 2461 028d 34       		.uleb128 0x34
 2462 028e 00       		.byte	0
 2463 028f 03       		.uleb128 0x3
 2464 0290 0E       		.uleb128 0xe
 2465 0291 49       		.uleb128 0x49
 2466 0292 13       		.uleb128 0x13
 2467 0293 34       		.uleb128 0x34
 2468 0294 19       		.uleb128 0x19
 2469 0295 1C       		.uleb128 0x1c
 2470 0296 0E       		.uleb128 0xe
 2471 0297 00       		.byte	0
 2472 0298 00       		.byte	0
 2473 0299 33       		.uleb128 0x33
 2474 029a 2E       		.uleb128 0x2e
 2475 029b 00       		.byte	0
 2476 029c 03       		.uleb128 0x3
 2477 029d 0E       		.uleb128 0xe
 2478 029e 3A       		.uleb128 0x3a
 2479 029f 0B       		.uleb128 0xb
 2480 02a0 3B       		.uleb128 0x3b
 2481 02a1 05       		.uleb128 0x5
 2482 02a2 27       		.uleb128 0x27
 2483 02a3 19       		.uleb128 0x19
 2484 02a4 20       		.uleb128 0x20
 2485 02a5 0B       		.uleb128 0xb
 2486 02a6 00       		.byte	0
 2487 02a7 00       		.byte	0
 2488 02a8 34       		.uleb128 0x34
 2489 02a9 2E       		.uleb128 0x2e
 2490 02aa 01       		.byte	0x1
 2491 02ab 03       		.uleb128 0x3
 2492 02ac 0E       		.uleb128 0xe
 2493 02ad 3A       		.uleb128 0x3a
 2494 02ae 0B       		.uleb128 0xb
 2495 02af 3B       		.uleb128 0x3b
 2496 02b0 05       		.uleb128 0x5
 2497 02b1 27       		.uleb128 0x27
 2498 02b2 19       		.uleb128 0x19
 2499 02b3 49       		.uleb128 0x49
 2500 02b4 13       		.uleb128 0x13
 2501 02b5 20       		.uleb128 0x20
 2502 02b6 0B       		.uleb128 0xb
 2503 02b7 01       		.uleb128 0x1
 2504 02b8 13       		.uleb128 0x13
 2505 02b9 00       		.byte	0
 2506 02ba 00       		.byte	0
 2507 02bb 35       		.uleb128 0x35
 2508 02bc 05       		.uleb128 0x5
ARM GAS  /tmp/cc5z8uJd.s 			page 45


 2509 02bd 00       		.byte	0
 2510 02be 03       		.uleb128 0x3
 2511 02bf 08       		.uleb128 0x8
 2512 02c0 3A       		.uleb128 0x3a
 2513 02c1 0B       		.uleb128 0xb
 2514 02c2 3B       		.uleb128 0x3b
 2515 02c3 05       		.uleb128 0x5
 2516 02c4 49       		.uleb128 0x49
 2517 02c5 13       		.uleb128 0x13
 2518 02c6 00       		.byte	0
 2519 02c7 00       		.byte	0
 2520 02c8 36       		.uleb128 0x36
 2521 02c9 34       		.uleb128 0x34
 2522 02ca 00       		.byte	0
 2523 02cb 03       		.uleb128 0x3
 2524 02cc 08       		.uleb128 0x8
 2525 02cd 3A       		.uleb128 0x3a
 2526 02ce 0B       		.uleb128 0xb
 2527 02cf 3B       		.uleb128 0x3b
 2528 02d0 05       		.uleb128 0x5
 2529 02d1 49       		.uleb128 0x49
 2530 02d2 13       		.uleb128 0x13
 2531 02d3 00       		.byte	0
 2532 02d4 00       		.byte	0
 2533 02d5 37       		.uleb128 0x37
 2534 02d6 2E       		.uleb128 0x2e
 2535 02d7 00       		.byte	0
 2536 02d8 3F       		.uleb128 0x3f
 2537 02d9 19       		.uleb128 0x19
 2538 02da 3C       		.uleb128 0x3c
 2539 02db 19       		.uleb128 0x19
 2540 02dc 6E       		.uleb128 0x6e
 2541 02dd 0E       		.uleb128 0xe
 2542 02de 03       		.uleb128 0x3
 2543 02df 0E       		.uleb128 0xe
 2544 02e0 3A       		.uleb128 0x3a
 2545 02e1 0B       		.uleb128 0xb
 2546 02e2 3B       		.uleb128 0x3b
 2547 02e3 05       		.uleb128 0x5
 2548 02e4 00       		.byte	0
 2549 02e5 00       		.byte	0
 2550 02e6 00       		.byte	0
 2551              		.section	.debug_loc,"",%progbits
 2552              	.Ldebug_loc0:
 2553              	.LLST5:
 2554 0000 00000000 		.4byte	.LVL16
 2555 0004 07000000 		.4byte	.LVL18-1
 2556 0008 0100     		.2byte	0x1
 2557 000a 50       		.byte	0x50
 2558 000b 07000000 		.4byte	.LVL18-1
 2559 000f 0C000000 		.4byte	.LFE221
 2560 0013 0400     		.2byte	0x4
 2561 0015 F3       		.byte	0xf3
 2562 0016 01       		.uleb128 0x1
 2563 0017 50       		.byte	0x50
 2564 0018 9F       		.byte	0x9f
 2565 0019 00000000 		.4byte	0
ARM GAS  /tmp/cc5z8uJd.s 			page 46


 2566 001d 00000000 		.4byte	0
 2567              	.LLST6:
 2568 0021 00000000 		.4byte	.LVL16
 2569 0025 07000000 		.4byte	.LVL18-1
 2570 0029 0100     		.2byte	0x1
 2571 002b 51       		.byte	0x51
 2572 002c 07000000 		.4byte	.LVL18-1
 2573 0030 0C000000 		.4byte	.LFE221
 2574 0034 0400     		.2byte	0x4
 2575 0036 F3       		.byte	0xf3
 2576 0037 01       		.uleb128 0x1
 2577 0038 51       		.byte	0x51
 2578 0039 9F       		.byte	0x9f
 2579 003a 00000000 		.4byte	0
 2580 003e 00000000 		.4byte	0
 2581              	.LLST7:
 2582 0042 04000000 		.4byte	.LVL17
 2583 0046 07000000 		.4byte	.LVL18-1
 2584 004a 0100     		.2byte	0x1
 2585 004c 51       		.byte	0x51
 2586 004d 07000000 		.4byte	.LVL18-1
 2587 0051 08000000 		.4byte	.LVL18
 2588 0055 0400     		.2byte	0x4
 2589 0057 F3       		.byte	0xf3
 2590 0058 01       		.uleb128 0x1
 2591 0059 51       		.byte	0x51
 2592 005a 9F       		.byte	0x9f
 2593 005b 00000000 		.4byte	0
 2594 005f 00000000 		.4byte	0
 2595              	.LLST8:
 2596 0063 04000000 		.4byte	.LVL17
 2597 0067 07000000 		.4byte	.LVL18-1
 2598 006b 0100     		.2byte	0x1
 2599 006d 50       		.byte	0x50
 2600 006e 07000000 		.4byte	.LVL18-1
 2601 0072 08000000 		.4byte	.LVL18
 2602 0076 0400     		.2byte	0x4
 2603 0078 F3       		.byte	0xf3
 2604 0079 01       		.uleb128 0x1
 2605 007a 50       		.byte	0x50
 2606 007b 9F       		.byte	0x9f
 2607 007c 00000000 		.4byte	0
 2608 0080 00000000 		.4byte	0
 2609              	.LLST4:
 2610 0084 08000000 		.4byte	.LVL10
 2611 0088 0E000000 		.4byte	.LVL11
 2612 008c 0100     		.2byte	0x1
 2613 008e 52       		.byte	0x52
 2614 008f 00000000 		.4byte	0
 2615 0093 00000000 		.4byte	0
 2616              	.LLST0:
 2617 0097 00000000 		.4byte	.LVL0
 2618 009b 22000000 		.4byte	.LVL5
 2619 009f 0100     		.2byte	0x1
 2620 00a1 50       		.byte	0x50
 2621 00a2 22000000 		.4byte	.LVL5
 2622 00a6 2E000000 		.4byte	.LVL8
ARM GAS  /tmp/cc5z8uJd.s 			page 47


 2623 00aa 0400     		.2byte	0x4
 2624 00ac F3       		.byte	0xf3
 2625 00ad 01       		.uleb128 0x1
 2626 00ae 50       		.byte	0x50
 2627 00af 9F       		.byte	0x9f
 2628 00b0 2E000000 		.4byte	.LVL8
 2629 00b4 31000000 		.4byte	.LVL9-1
 2630 00b8 0100     		.2byte	0x1
 2631 00ba 50       		.byte	0x50
 2632 00bb 31000000 		.4byte	.LVL9-1
 2633 00bf 38000000 		.4byte	.LFE219
 2634 00c3 0400     		.2byte	0x4
 2635 00c5 F3       		.byte	0xf3
 2636 00c6 01       		.uleb128 0x1
 2637 00c7 50       		.byte	0x50
 2638 00c8 9F       		.byte	0x9f
 2639 00c9 00000000 		.4byte	0
 2640 00cd 00000000 		.4byte	0
 2641              	.LLST1:
 2642 00d1 00000000 		.4byte	.LVL0
 2643 00d5 10000000 		.4byte	.LVL2
 2644 00d9 0100     		.2byte	0x1
 2645 00db 51       		.byte	0x51
 2646 00dc 10000000 		.4byte	.LVL2
 2647 00e0 22000000 		.4byte	.LVL5
 2648 00e4 0200     		.2byte	0x2
 2649 00e6 74       		.byte	0x74
 2650 00e7 38       		.sleb128 56
 2651 00e8 22000000 		.4byte	.LVL5
 2652 00ec 2A000000 		.4byte	.LVL7
 2653 00f0 0400     		.2byte	0x4
 2654 00f2 F3       		.byte	0xf3
 2655 00f3 01       		.uleb128 0x1
 2656 00f4 51       		.byte	0x51
 2657 00f5 9F       		.byte	0x9f
 2658 00f6 2A000000 		.4byte	.LVL7
 2659 00fa 2E000000 		.4byte	.LVL8
 2660 00fe 0100     		.2byte	0x1
 2661 0100 50       		.byte	0x50
 2662 0101 2E000000 		.4byte	.LVL8
 2663 0105 31000000 		.4byte	.LVL9-1
 2664 0109 0200     		.2byte	0x2
 2665 010b 74       		.byte	0x74
 2666 010c 38       		.sleb128 56
 2667 010d 31000000 		.4byte	.LVL9-1
 2668 0111 38000000 		.4byte	.LFE219
 2669 0115 0400     		.2byte	0x4
 2670 0117 F3       		.byte	0xf3
 2671 0118 01       		.uleb128 0x1
 2672 0119 51       		.byte	0x51
 2673 011a 9F       		.byte	0x9f
 2674 011b 00000000 		.4byte	0
 2675 011f 00000000 		.4byte	0
 2676              	.LLST2:
 2677 0123 14000000 		.4byte	.LVL3
 2678 0127 1E000000 		.4byte	.LVL4
 2679 012b 0100     		.2byte	0x1
ARM GAS  /tmp/cc5z8uJd.s 			page 48


 2680 012d 51       		.byte	0x51
 2681 012e 00000000 		.4byte	0
 2682 0132 00000000 		.4byte	0
 2683              	.LLST3:
 2684 0136 14000000 		.4byte	.LVL3
 2685 013a 1E000000 		.4byte	.LVL4
 2686 013e 0100     		.2byte	0x1
 2687 0140 54       		.byte	0x54
 2688 0141 00000000 		.4byte	0
 2689 0145 00000000 		.4byte	0
 2690              		.section	.debug_aranges,"",%progbits
 2691 0000 2C000000 		.4byte	0x2c
 2692 0004 0200     		.2byte	0x2
 2693 0006 00000000 		.4byte	.Ldebug_info0
 2694 000a 04       		.byte	0x4
 2695 000b 00       		.byte	0
 2696 000c 0000     		.2byte	0
 2697 000e 0000     		.2byte	0
 2698 0010 00000000 		.4byte	.LFB219
 2699 0014 38000000 		.4byte	.LFE219-.LFB219
 2700 0018 00000000 		.4byte	.LFB220
 2701 001c 38000000 		.4byte	.LFE220-.LFB220
 2702 0020 00000000 		.4byte	.LFB221
 2703 0024 0C000000 		.4byte	.LFE221-.LFB221
 2704 0028 00000000 		.4byte	0
 2705 002c 00000000 		.4byte	0
 2706              		.section	.debug_ranges,"",%progbits
 2707              	.Ldebug_ranges0:
 2708 0000 08000000 		.4byte	.LBB56
 2709 0004 0A000000 		.4byte	.LBE56
 2710 0008 10000000 		.4byte	.LBB61
 2711 000c 12000000 		.4byte	.LBE61
 2712 0010 14000000 		.4byte	.LBB62
 2713 0014 18000000 		.4byte	.LBE62
 2714 0018 1C000000 		.4byte	.LBB63
 2715 001c 1E000000 		.4byte	.LBE63
 2716 0020 00000000 		.4byte	0
 2717 0024 00000000 		.4byte	0
 2718 0028 12000000 		.4byte	.LBB75
 2719 002c 16000000 		.4byte	.LBE75
 2720 0030 18000000 		.4byte	.LBB78
 2721 0034 1A000000 		.4byte	.LBE78
 2722 0038 00000000 		.4byte	0
 2723 003c 00000000 		.4byte	0
 2724 0040 00000000 		.4byte	.LFB219
 2725 0044 38000000 		.4byte	.LFE219
 2726 0048 00000000 		.4byte	.LFB220
 2727 004c 38000000 		.4byte	.LFE220
 2728 0050 00000000 		.4byte	.LFB221
 2729 0054 0C000000 		.4byte	.LFE221
 2730 0058 00000000 		.4byte	0
 2731 005c 00000000 		.4byte	0
 2732              		.section	.debug_line,"",%progbits
 2733              	.Ldebug_line0:
 2734 0000 DD020000 		.section	.debug_str,"MS",%progbits,1
 2734      02000602 
 2734      00000201 
ARM GAS  /tmp/cc5z8uJd.s 			page 49


 2734      FB0E0D00 
 2734      01010101 
 2735              	.LASF118:
 2736 0000 63665F6F 		.ascii	"cf_off_older\000"
 2736      66665F6F 
 2736      6C646572 
 2736      00
 2737              	.LASF57:
 2738 000d 72656164 		.ascii	"ready_list_t\000"
 2738      795F6C69 
 2738      73745F74 
 2738      00
 2739              	.LASF137:
 2740 001a 71756575 		.ascii	"queue_insert\000"
 2740      655F696E 
 2740      73657274 
 2740      00
 2741              	.LASF96:
 2742 0027 77747472 		.ascii	"wttrp\000"
 2742      7000
 2743              	.LASF93:
 2744 002d 7264796D 		.ascii	"rdymsg\000"
 2744      736700
 2745              	.LASF18:
 2746 0034 75696E74 		.ascii	"uint64_t\000"
 2746      36345F74 
 2746      00
 2747              	.LASF4:
 2748 003d 5F5F7569 		.ascii	"__uint8_t\000"
 2748      6E74385F 
 2748      7400
 2749              	.LASF90:
 2750 0047 706F7274 		.ascii	"port_intctx\000"
 2750      5F696E74 
 2750      63747800 
 2751              	.LASF76:
 2752 0053 73797374 		.ascii	"system_debug_t\000"
 2752      656D5F64 
 2752      65627567 
 2752      5F7400
 2753              	.LASF146:
 2754 0062 474E5520 		.ascii	"GNU C99 7.3.1 20180622 (release) [ARM/embedded-7-br"
 2754      43393920 
 2754      372E332E 
 2754      31203230 
 2754      31383036 
 2755 0095 616E6368 		.ascii	"anch revision 261907] -mcpu=cortex-m4 -mfloat-abi=h"
 2755      20726576 
 2755      6973696F 
 2755      6E203236 
 2755      31393037 
 2756 00c8 61726420 		.ascii	"ard -mfpu=fpv4-sp-d16 -mno-thumb-interwork -mthumb "
 2756      2D6D6670 
 2756      753D6670 
 2756      76342D73 
 2756      702D6431 
 2757 00fb 2D676764 		.ascii	"-ggdb -O2 -std=gnu99 -fomit-frame-pointer -falign-f"
ARM GAS  /tmp/cc5z8uJd.s 			page 50


 2757      62202D4F 
 2757      32202D73 
 2757      74643D67 
 2757      6E753939 
 2758 012e 756E6374 		.ascii	"unctions=16 -ffunction-sections -fdata-sections -fn"
 2758      696F6E73 
 2758      3D313620 
 2758      2D666675 
 2758      6E637469 
 2759 0161 6F2D636F 		.ascii	"o-common -fsingle-precision-constant\000"
 2759      6D6D6F6E 
 2759      202D6673 
 2759      696E676C 
 2759      652D7072 
 2760              	.LASF140:
 2761 0186 706F7274 		.ascii	"port_lock\000"
 2761      5F6C6F63 
 2761      6B00
 2762              	.LASF13:
 2763 0190 6C6F6E67 		.ascii	"long long unsigned int\000"
 2763      206C6F6E 
 2763      6720756E 
 2763      7369676E 
 2763      65642069 
 2764              	.LASF114:
 2765 01a7 63685F74 		.ascii	"ch_threadsize\000"
 2765      68726561 
 2765      6473697A 
 2765      6500
 2766              	.LASF94:
 2767 01b5 65786974 		.ascii	"exitcode\000"
 2767      636F6465 
 2767      00
 2768              	.LASF83:
 2769 01be 6D61696E 		.ascii	"mainthread\000"
 2769      74687265 
 2769      616400
 2770              	.LASF73:
 2771 01c9 76697274 		.ascii	"virtual_timers_list_t\000"
 2771      75616C5F 
 2771      74696D65 
 2771      72735F6C 
 2771      6973745F 
 2772              	.LASF85:
 2773 01df 49544D5F 		.ascii	"ITM_RxBuffer\000"
 2773      52784275 
 2773      66666572 
 2773      00
 2774              	.LASF56:
 2775 01ec 63685F74 		.ascii	"ch_threads_queue\000"
 2775      68726561 
 2775      64735F71 
 2775      75657565 
 2775      00
 2776              	.LASF32:
 2777 01fd 705F7072 		.ascii	"p_prio\000"
 2777      696F00
ARM GAS  /tmp/cc5z8uJd.s 			page 51


 2778              	.LASF121:
 2779 0204 63665F6F 		.ascii	"cf_off_state\000"
 2779      66665F73 
 2779      74617465 
 2779      00
 2780              	.LASF75:
 2781 0211 76745F73 		.ascii	"vt_systime\000"
 2781      79737469 
 2781      6D6500
 2782              	.LASF11:
 2783 021c 6C6F6E67 		.ascii	"long long int\000"
 2783      206C6F6E 
 2783      6720696E 
 2783      7400
 2784              	.LASF1:
 2785 022a 7369676E 		.ascii	"signed char\000"
 2785      65642063 
 2785      68617200 
 2786              	.LASF120:
 2787 0236 63665F6F 		.ascii	"cf_off_stklimit\000"
 2787      66665F73 
 2787      746B6C69 
 2787      6D697400 
 2788              	.LASF122:
 2789 0246 63665F6F 		.ascii	"cf_off_flags\000"
 2789      66665F66 
 2789      6C616773 
 2789      00
 2790              	.LASF49:
 2791 0253 705F6D70 		.ascii	"p_mpool\000"
 2791      6F6F6C00 
 2792              	.LASF104:
 2793 025b 6D5F7175 		.ascii	"m_queue\000"
 2793      65756500 
 2794              	.LASF82:
 2795 0263 76746C69 		.ascii	"vtlist\000"
 2795      737400
 2796              	.LASF139:
 2797 026a 706F7274 		.ascii	"port_unlock\000"
 2797      5F756E6C 
 2797      6F636B00 
 2798              	.LASF23:
 2799 0276 74736C69 		.ascii	"tslices_t\000"
 2799      6365735F 
 2799      7400
 2800              	.LASF80:
 2801 0280 63685F73 		.ascii	"ch_system\000"
 2801      79737465 
 2801      6D00
 2802              	.LASF8:
 2803 028a 6C6F6E67 		.ascii	"long int\000"
 2803      20696E74 
 2803      00
 2804              	.LASF130:
 2805 0293 63684D73 		.ascii	"chMsgSend\000"
 2805      6753656E 
 2805      6400
ARM GAS  /tmp/cc5z8uJd.s 			page 52


 2806              	.LASF21:
 2807 029d 74737461 		.ascii	"tstate_t\000"
 2807      74655F74 
 2807      00
 2808              	.LASF126:
 2809 02a6 63686465 		.ascii	"chdebug_t\000"
 2809      6275675F 
 2809      7400
 2810              	.LASF135:
 2811 02b0 63684D73 		.ascii	"chMsgIsPendingI\000"
 2811      67497350 
 2811      656E6469 
 2811      6E674900 
 2812              	.LASF34:
 2813 02c0 705F6E65 		.ascii	"p_newer\000"
 2813      77657200 
 2814              	.LASF147:
 2815 02c8 43686962 		.ascii	"ChibiOS_3.0.5/os/rt/src/chmsg.c\000"
 2815      694F535F 
 2815      332E302E 
 2815      352F6F73 
 2815      2F72742F 
 2816              	.LASF101:
 2817 02e8 735F7175 		.ascii	"s_queue\000"
 2817      65756500 
 2818              	.LASF22:
 2819 02f0 74726566 		.ascii	"trefs_t\000"
 2819      735F7400 
 2820              	.LASF62:
 2821 02f8 725F6E65 		.ascii	"r_newer\000"
 2821      77657200 
 2822              	.LASF87:
 2823 0300 72656761 		.ascii	"regarm_t\000"
 2823      726D5F74 
 2823      00
 2824              	.LASF69:
 2825 0309 76745F70 		.ascii	"vt_prev\000"
 2825      72657600 
 2826              	.LASF128:
 2827 0311 6D757465 		.ascii	"mutex_t\000"
 2827      785F7400 
 2828              	.LASF84:
 2829 0319 69646C65 		.ascii	"idle_thread_wa\000"
 2829      5F746872 
 2829      6561645F 
 2829      776100
 2830              	.LASF27:
 2831 0328 636E745F 		.ascii	"cnt_t\000"
 2831      7400
 2832              	.LASF37:
 2833 032e 705F7374 		.ascii	"p_stklimit\000"
 2833      6B6C696D 
 2833      697400
 2834              	.LASF0:
 2835 0339 756E7369 		.ascii	"unsigned int\000"
 2835      676E6564 
 2835      20696E74 
ARM GAS  /tmp/cc5z8uJd.s 			page 53


 2835      00
 2836              	.LASF68:
 2837 0346 76745F6E 		.ascii	"vt_next\000"
 2837      65787400 
 2838              	.LASF15:
 2839 034e 75696E74 		.ascii	"uint16_t\000"
 2839      31365F74 
 2839      00
 2840              	.LASF86:
 2841 0357 53797374 		.ascii	"SystemCoreClock\000"
 2841      656D436F 
 2841      7265436C 
 2841      6F636B00 
 2842              	.LASF42:
 2843 0367 705F7469 		.ascii	"p_time\000"
 2843      6D6500
 2844              	.LASF97:
 2845 036e 77747365 		.ascii	"wtsemp\000"
 2845      6D7000
 2846              	.LASF70:
 2847 0375 76745F64 		.ascii	"vt_delta\000"
 2847      656C7461 
 2847      00
 2848              	.LASF44:
 2849 037e 705F6D73 		.ascii	"p_msgqueue\000"
 2849      67717565 
 2849      756500
 2850              	.LASF127:
 2851 0389 63685F64 		.ascii	"ch_debug\000"
 2851      65627567 
 2851      00
 2852              	.LASF102:
 2853 0392 735F636E 		.ascii	"s_cnt\000"
 2853      7400
 2854              	.LASF6:
 2855 0398 73686F72 		.ascii	"short unsigned int\000"
 2855      7420756E 
 2855      7369676E 
 2855      65642069 
 2855      6E7400
 2856              	.LASF53:
 2857 03ab 63685F74 		.ascii	"ch_thread\000"
 2857      68726561 
 2857      6400
 2858              	.LASF143:
 2859 03b5 63685363 		.ascii	"chSchWakeupS\000"
 2859      6857616B 
 2859      65757053 
 2859      00
 2860              	.LASF25:
 2861 03c2 6D73675F 		.ascii	"msg_t\000"
 2861      7400
 2862              	.LASF79:
 2863 03c8 63685F73 		.ascii	"ch_system_t\000"
 2863      79737465 
 2863      6D5F7400 
 2864              	.LASF125:
ARM GAS  /tmp/cc5z8uJd.s 			page 54


 2865 03d4 63665F6F 		.ascii	"cf_off_time\000"
 2865      66665F74 
 2865      696D6500 
 2866              	.LASF58:
 2867 03e0 63685F72 		.ascii	"ch_ready_list\000"
 2867      65616479 
 2867      5F6C6973 
 2867      7400
 2868              	.LASF26:
 2869 03ee 6576656E 		.ascii	"eventmask_t\000"
 2869      746D6173 
 2869      6B5F7400 
 2870              	.LASF7:
 2871 03fa 5F5F696E 		.ascii	"__int32_t\000"
 2871      7433325F 
 2871      7400
 2872              	.LASF88:
 2873 0404 73746B61 		.ascii	"stkalign_t\000"
 2873      6C69676E 
 2873      5F7400
 2874              	.LASF109:
 2875 040f 63685F7A 		.ascii	"ch_zero\000"
 2875      65726F00 
 2876              	.LASF123:
 2877 0417 63665F6F 		.ascii	"cf_off_refs\000"
 2877      66665F72 
 2877      65667300 
 2878              	.LASF43:
 2879 0423 705F7761 		.ascii	"p_waiting\000"
 2879      6974696E 
 2879      6700
 2880              	.LASF19:
 2881 042d 7274636E 		.ascii	"rtcnt_t\000"
 2881      745F7400 
 2882              	.LASF74:
 2883 0435 63685F76 		.ascii	"ch_virtual_timers_list\000"
 2883      69727475 
 2883      616C5F74 
 2883      696D6572 
 2883      735F6C69 
 2884              	.LASF113:
 2885 044c 63685F74 		.ascii	"ch_timesize\000"
 2885      696D6573 
 2885      697A6500 
 2886              	.LASF119:
 2887 0458 63665F6F 		.ascii	"cf_off_name\000"
 2887      66665F6E 
 2887      616D6500 
 2888              	.LASF35:
 2889 0464 705F6F6C 		.ascii	"p_older\000"
 2889      64657200 
 2890              	.LASF61:
 2891 046c 725F6374 		.ascii	"r_ctx\000"
 2891      7800
 2892              	.LASF33:
 2893 0472 705F6374 		.ascii	"p_ctx\000"
 2893      7800
ARM GAS  /tmp/cc5z8uJd.s 			page 55


 2894              	.LASF92:
 2895 0478 746D5F63 		.ascii	"tm_calibration_t\000"
 2895      616C6962 
 2895      72617469 
 2895      6F6E5F74 
 2895      00
 2896              	.LASF106:
 2897 0489 6D5F6E65 		.ascii	"m_next\000"
 2897      787400
 2898              	.LASF64:
 2899 0490 725F6375 		.ascii	"r_current\000"
 2899      7272656E 
 2899      7400
 2900              	.LASF63:
 2901 049a 725F6F6C 		.ascii	"r_older\000"
 2901      64657200 
 2902              	.LASF142:
 2903 04a2 5F5F656E 		.ascii	"__enable_irq\000"
 2903      61626C65 
 2903      5F697271 
 2903      00
 2904              	.LASF12:
 2905 04af 5F5F7569 		.ascii	"__uint64_t\000"
 2905      6E743634 
 2905      5F7400
 2906              	.LASF141:
 2907 04ba 5F5F6469 		.ascii	"__disable_irq\000"
 2907      7361626C 
 2907      655F6972 
 2907      7100
 2908              	.LASF112:
 2909 04c8 63685F70 		.ascii	"ch_ptrsize\000"
 2909      74727369 
 2909      7A6500
 2910              	.LASF66:
 2911 04d3 76697274 		.ascii	"virtual_timer_t\000"
 2911      75616C5F 
 2911      74696D65 
 2911      725F7400 
 2912              	.LASF31:
 2913 04e3 705F7072 		.ascii	"p_prev\000"
 2913      657600
 2914              	.LASF24:
 2915 04ea 74707269 		.ascii	"tprio_t\000"
 2915      6F5F7400 
 2916              	.LASF77:
 2917 04f2 63685F73 		.ascii	"ch_system_debug\000"
 2917      79737465 
 2917      6D5F6465 
 2917      62756700 
 2918              	.LASF132:
 2919 0502 5F426F6F 		.ascii	"_Bool\000"
 2919      6C00
 2920              	.LASF16:
 2921 0508 696E7433 		.ascii	"int32_t\000"
 2921      325F7400 
 2922              	.LASF2:
ARM GAS  /tmp/cc5z8uJd.s 			page 56


 2923 0510 756E7369 		.ascii	"unsigned char\000"
 2923      676E6564 
 2923      20636861 
 2923      7200
 2924              	.LASF47:
 2925 051e 705F6D74 		.ascii	"p_mtxlist\000"
 2925      786C6973 
 2925      7400
 2926              	.LASF3:
 2927 0528 73686F72 		.ascii	"short int\000"
 2927      7420696E 
 2927      7400
 2928              	.LASF38:
 2929 0532 705F7374 		.ascii	"p_state\000"
 2929      61746500 
 2930              	.LASF41:
 2931 053a 705F7072 		.ascii	"p_preempt\000"
 2931      65656D70 
 2931      7400
 2932              	.LASF60:
 2933 0544 725F7072 		.ascii	"r_prio\000"
 2933      696F00
 2934              	.LASF99:
 2935 054b 65776D61 		.ascii	"ewmask\000"
 2935      736B00
 2936              	.LASF30:
 2937 0552 705F6E65 		.ascii	"p_next\000"
 2937      787400
 2938              	.LASF20:
 2939 0559 746D6F64 		.ascii	"tmode_t\000"
 2939      655F7400 
 2940              	.LASF124:
 2941 0561 63665F6F 		.ascii	"cf_off_preempt\000"
 2941      66665F70 
 2941      7265656D 
 2941      707400
 2942              	.LASF39:
 2943 0570 705F666C 		.ascii	"p_flags\000"
 2943      61677300 
 2944              	.LASF131:
 2945 0578 5F5F6675 		.ascii	"__func__\000"
 2945      6E635F5F 
 2945      00
 2946              	.LASF138:
 2947 0581 63685379 		.ascii	"chSysLock\000"
 2947      734C6F63 
 2947      6B00
 2948              	.LASF55:
 2949 058b 74687265 		.ascii	"threads_queue_t\000"
 2949      6164735F 
 2949      71756575 
 2949      655F7400 
 2950              	.LASF67:
 2951 059b 63685F76 		.ascii	"ch_virtual_timer\000"
 2951      69727475 
 2951      616C5F74 
 2951      696D6572 
ARM GAS  /tmp/cc5z8uJd.s 			page 57


 2951      00
 2952              	.LASF149:
 2953 05ac 63684D73 		.ascii	"chMsgRelease\000"
 2953      6752656C 
 2953      65617365 
 2953      00
 2954              	.LASF100:
 2955 05b9 63685F73 		.ascii	"ch_semaphore\000"
 2955      656D6170 
 2955      686F7265 
 2955      00
 2956              	.LASF144:
 2957 05c6 63685363 		.ascii	"chSchGoSleepS\000"
 2957      68476F53 
 2957      6C656570 
 2957      5300
 2958              	.LASF46:
 2959 05d4 705F6570 		.ascii	"p_epending\000"
 2959      656E6469 
 2959      6E6700
 2960              	.LASF148:
 2961 05df 2F626C64 		.ascii	"/bldc\000"
 2961      6300
 2962              	.LASF17:
 2963 05e5 75696E74 		.ascii	"uint32_t\000"
 2963      33325F74 
 2963      00
 2964              	.LASF115:
 2965 05ee 63665F6F 		.ascii	"cf_off_prio\000"
 2965      66665F70 
 2965      72696F00 
 2966              	.LASF59:
 2967 05fa 725F7175 		.ascii	"r_queue\000"
 2967      65756500 
 2968              	.LASF145:
 2969 0602 63685363 		.ascii	"chSchReadyI\000"
 2969      68526561 
 2969      64794900 
 2970              	.LASF54:
 2971 060e 63685F74 		.ascii	"ch_threads_list\000"
 2971      68726561 
 2971      64735F6C 
 2971      69737400 
 2972              	.LASF110:
 2973 061e 63685F73 		.ascii	"ch_size\000"
 2973      697A6500 
 2974              	.LASF10:
 2975 0626 6C6F6E67 		.ascii	"long unsigned int\000"
 2975      20756E73 
 2975      69676E65 
 2975      6420696E 
 2975      7400
 2976              	.LASF107:
 2977 0638 63686172 		.ascii	"char\000"
 2977      00
 2978              	.LASF98:
 2979 063d 77746D74 		.ascii	"wtmtxp\000"
ARM GAS  /tmp/cc5z8uJd.s 			page 58


 2979      787000
 2980              	.LASF5:
 2981 0644 5F5F7569 		.ascii	"__uint16_t\000"
 2981      6E743136 
 2981      5F7400
 2982              	.LASF29:
 2983 064f 74687265 		.ascii	"thread_t\000"
 2983      61645F74 
 2983      00
 2984              	.LASF136:
 2985 0658 71756575 		.ascii	"queue_fifo_remove\000"
 2985      655F6669 
 2985      666F5F72 
 2985      656D6F76 
 2985      6500
 2986              	.LASF28:
 2987 066a 73797374 		.ascii	"systime_t\000"
 2987      696D655F 
 2987      7400
 2988              	.LASF48:
 2989 0674 705F7265 		.ascii	"p_realprio\000"
 2989      616C7072 
 2989      696F00
 2990              	.LASF65:
 2991 067f 76746675 		.ascii	"vtfunc_t\000"
 2991      6E635F74 
 2991      00
 2992              	.LASF9:
 2993 0688 5F5F7569 		.ascii	"__uint32_t\000"
 2993      6E743332 
 2993      5F7400
 2994              	.LASF78:
 2995 0693 70616E69 		.ascii	"panic_msg\000"
 2995      635F6D73 
 2995      6700
 2996              	.LASF91:
 2997 069d 6F666673 		.ascii	"offset\000"
 2997      657400
 2998              	.LASF89:
 2999 06a4 636F6E74 		.ascii	"context\000"
 2999      65787400 
 3000              	.LASF45:
 3001 06ac 705F6D73 		.ascii	"p_msg\000"
 3001      6700
 3002              	.LASF72:
 3003 06b2 76745F70 		.ascii	"vt_par\000"
 3003      617200
 3004              	.LASF129:
 3005 06b9 63684D73 		.ascii	"chMsgWait\000"
 3005      67576169 
 3005      7400
 3006              	.LASF116:
 3007 06c3 63665F6F 		.ascii	"cf_off_ctx\000"
 3007      66665F63 
 3007      747800
 3008              	.LASF103:
 3009 06ce 63685F6D 		.ascii	"ch_mutex\000"
ARM GAS  /tmp/cc5z8uJd.s 			page 59


 3009      75746578 
 3009      00
 3010              	.LASF40:
 3011 06d7 705F7265 		.ascii	"p_refs\000"
 3011      667300
 3012              	.LASF50:
 3013 06de 6D6F746F 		.ascii	"motor_selected\000"
 3013      725F7365 
 3013      6C656374 
 3013      656400
 3014              	.LASF81:
 3015 06ed 726C6973 		.ascii	"rlist\000"
 3015      7400
 3016              	.LASF14:
 3017 06f3 75696E74 		.ascii	"uint8_t\000"
 3017      385F7400 
 3018              	.LASF51:
 3019 06fb 74687265 		.ascii	"thread_reference_t\000"
 3019      61645F72 
 3019      65666572 
 3019      656E6365 
 3019      5F7400
 3020              	.LASF95:
 3021 070e 77746F62 		.ascii	"wtobjp\000"
 3021      6A7000
 3022              	.LASF117:
 3023 0715 63665F6F 		.ascii	"cf_off_newer\000"
 3023      66665F6E 
 3023      65776572 
 3023      00
 3024              	.LASF36:
 3025 0722 705F6E61 		.ascii	"p_name\000"
 3025      6D6500
 3026              	.LASF52:
 3027 0729 74687265 		.ascii	"threads_list_t\000"
 3027      6164735F 
 3027      6C697374 
 3027      5F7400
 3028              	.LASF134:
 3029 0738 63685379 		.ascii	"chSysUnlock\000"
 3029      73556E6C 
 3029      6F636B00 
 3030              	.LASF111:
 3031 0744 63685F76 		.ascii	"ch_version\000"
 3031      65727369 
 3031      6F6E00
 3032              	.LASF133:
 3033 074f 63684D73 		.ascii	"chMsgReleaseS\000"
 3033      6752656C 
 3033      65617365 
 3033      5300
 3034              	.LASF105:
 3035 075d 6D5F6F77 		.ascii	"m_owner\000"
 3035      6E657200 
 3036              	.LASF108:
 3037 0765 63685F69 		.ascii	"ch_identifier\000"
 3037      64656E74 
ARM GAS  /tmp/cc5z8uJd.s 			page 60


 3037      69666965 
 3037      7200
 3038              	.LASF71:
 3039 0773 76745F66 		.ascii	"vt_func\000"
 3039      756E6300 
 3040              		.ident	"GCC: (GNU Tools for Arm Embedded Processors 7-2018-q3-update) 7.3.1 20180622 (release) [AR
ARM GAS  /tmp/cc5z8uJd.s 			page 61


DEFINED SYMBOLS
                            *ABS*:0000000000000000 chmsg.c
     /tmp/cc5z8uJd.s:18     .text.chMsgSend:0000000000000000 $t
     /tmp/cc5z8uJd.s:26     .text.chMsgSend:0000000000000000 chMsgSend
     /tmp/cc5z8uJd.s:138    .text.chMsgSend:0000000000000034 $d
     /tmp/cc5z8uJd.s:143    .text.chMsgWait:0000000000000000 $t
     /tmp/cc5z8uJd.s:151    .text.chMsgWait:0000000000000000 chMsgWait
     /tmp/cc5z8uJd.s:244    .text.chMsgWait:0000000000000034 $d
     /tmp/cc5z8uJd.s:249    .text.chMsgRelease:0000000000000000 $t
     /tmp/cc5z8uJd.s:257    .text.chMsgRelease:0000000000000000 chMsgRelease

UNDEFINED SYMBOLS
chSchGoSleepS
chSchReadyI
ch
chSchWakeupS
