ARM GAS  /tmp/cc9xlzym.s 			page 1


   1              		.cpu cortex-m4
   2              		.eabi_attribute 27, 1
   3              		.eabi_attribute 28, 1
   4              		.eabi_attribute 20, 1
   5              		.eabi_attribute 21, 1
   6              		.eabi_attribute 23, 3
   7              		.eabi_attribute 24, 1
   8              		.eabi_attribute 25, 1
   9              		.eabi_attribute 26, 1
  10              		.eabi_attribute 30, 2
  11              		.eabi_attribute 34, 1
  12              		.eabi_attribute 18, 4
  13              		.file	"chmtx.c"
  14              		.text
  15              	.Ltext0:
  16              		.cfi_sections	.debug_frame
  17              		.section	.text.chMtxObjectInit,"ax",%progbits
  18              		.align	1
  19              		.p2align 4,,15
  20              		.global	chMtxObjectInit
  21              		.syntax unified
  22              		.thumb
  23              		.thumb_func
  24              		.fpu fpv4-sp-d16
  25              		.type	chMtxObjectInit, %function
  26              	chMtxObjectInit:
  27              	.LFB219:
  28              		.file 1 "ChibiOS_3.0.5/os/rt/src/chmtx.c"
  29              		.loc 1 103 0
  30              		.cfi_startproc
  31              		@ args = 0, pretend = 0, frame = 0
  32              		@ frame_needed = 0, uses_anonymous_args = 0
  33              		@ link register save eliminated.
  34              	.LVL0:
  35              		.loc 1 108 0
  36 0000 0023     		movs	r3, #0
  37              	.LBB103:
  38              	.LBB104:
  39              		.file 2 "ChibiOS_3.0.5/os/rt/include/chschd.h"
  40              		.loc 2 605 0
  41 0002 C0E90000 		strd	r0, r0, [r0]
  42              	.LVL1:
  43              	.LBE104:
  44              	.LBE103:
  45              		.loc 1 108 0
  46 0006 8360     		str	r3, [r0, #8]
  47              		.loc 1 112 0
  48 0008 7047     		bx	lr
  49              		.cfi_endproc
  50              	.LFE219:
  51              		.size	chMtxObjectInit, .-chMtxObjectInit
  52 000a 00BF     		.section	.text.chMtxLockS,"ax",%progbits
  53              		.align	1
  54              		.p2align 4,,15
  55              		.global	chMtxLockS
  56              		.syntax unified
  57              		.thumb
ARM GAS  /tmp/cc9xlzym.s 			page 2


  58              		.thumb_func
  59              		.fpu fpv4-sp-d16
  60              		.type	chMtxLockS, %function
  61              	chMtxLockS:
  62              	.LFB221:
  63              		.loc 1 139 0
  64              		.cfi_startproc
  65              		@ args = 0, pretend = 0, frame = 0
  66              		@ frame_needed = 0, uses_anonymous_args = 0
  67              	.LVL2:
  68 0000 F8B5     		push	{r3, r4, r5, r6, r7, lr}
  69              		.cfi_def_cfa_offset 24
  70              		.cfi_offset 3, -24
  71              		.cfi_offset 4, -20
  72              		.cfi_offset 5, -16
  73              		.cfi_offset 6, -12
  74              		.cfi_offset 7, -8
  75              		.cfi_offset 14, -4
  76              		.loc 1 140 0
  77 0002 374A     		ldr	r2, .L33
  78              		.loc 1 146 0
  79 0004 8368     		ldr	r3, [r0, #8]
  80              		.loc 1 140 0
  81 0006 9569     		ldr	r5, [r2, #24]
  82              	.LVL3:
  83              		.loc 1 146 0
  84 0008 002B     		cmp	r3, #0
  85 000a 40D0     		beq	.L25
  86              	.LBB105:
  87              		.loc 1 165 0
  88 000c A968     		ldr	r1, [r5, #8]
  89 000e 9A68     		ldr	r2, [r3, #8]
  90 0010 9142     		cmp	r1, r2
  91 0012 0446     		mov	r4, r0
  92              	.LVL4:
  93 0014 07D9     		bls	.L6
  94              	.LVL5:
  95              	.L12:
  96              		.loc 1 170 0
  97 0016 93F82020 		ldrb	r2, [r3, #32]	@ zero_extendqisi2
  98              		.loc 1 167 0
  99 001a 9960     		str	r1, [r3, #8]
 100              		.loc 1 170 0
 101 001c 062A     		cmp	r2, #6
 102 001e 3BD0     		beq	.L7
 103 0020 072A     		cmp	r2, #7
 104 0022 15D0     		beq	.L8
 105 0024 42B3     		cbz	r2, .L26
 106              	.LVL6:
 107              	.L6:
 108              		.loc 1 212 0
 109 0026 2646     		mov	r6, r4
 110              	.LVL7:
 111 0028 2346     		mov	r3, r4
 112 002a 03E0     		b	.L17
 113              	.LVL8:
 114              	.L28:
ARM GAS  /tmp/cc9xlzym.s 			page 3


 115              	.LBB106:
 116              	.LBB107:
 117              		.loc 2 656 0
 118 002c 9968     		ldr	r1, [r3, #8]
 119 002e AA68     		ldr	r2, [r5, #8]
 120 0030 9142     		cmp	r1, r2
 121 0032 2AD3     		bcc	.L27
 122              	.L17:
 123              		.loc 2 655 0
 124 0034 1B68     		ldr	r3, [r3]
 125              	.LVL9:
 126              		.loc 2 656 0
 127 0036 9C42     		cmp	r4, r3
 128 0038 F8D1     		bne	.L28
 129              	.L16:
 130              		.loc 2 658 0
 131 003a 7368     		ldr	r3, [r6, #4]
 132              	.LVL10:
 133              	.LBE107:
 134              	.LBE106:
 135              		.loc 1 214 0
 136 003c 0620     		movs	r0, #6
 137              	.LBB110:
 138              	.LBB108:
 139              		.loc 2 658 0
 140 003e C5E90063 		strd	r6, r3, [r5]
 141              		.loc 2 659 0
 142 0042 1D60     		str	r5, [r3]
 143              		.loc 2 660 0
 144 0044 7560     		str	r5, [r6, #4]
 145              	.LVL11:
 146              	.LBE108:
 147              	.LBE110:
 148              		.loc 1 213 0
 149 0046 AC62     		str	r4, [r5, #40]
 150              	.LBE105:
 151              		.loc 1 236 0
 152 0048 BDE8F840 		pop	{r3, r4, r5, r6, r7, lr}
 153              		.cfi_remember_state
 154              		.cfi_restore 14
 155              		.cfi_restore 7
 156              		.cfi_restore 6
 157              		.cfi_restore 5
 158              		.cfi_restore 4
 159              		.cfi_restore 3
 160              		.cfi_def_cfa_offset 0
 161              	.LVL12:
 162              	.LBB136:
 163              		.loc 1 214 0
 164 004c FFF7FEBF 		b	chSchGoSleepS
 165              	.LVL13:
 166              	.L8:
 167              		.cfi_restore_state
 168              	.LBB111:
 169              	.LBB112:
 170              		.loc 2 691 0
 171 0050 D3E90002 		ldrd	r0, r2, [r3]
ARM GAS  /tmp/cc9xlzym.s 			page 4


 172 0054 1060     		str	r0, [r2]
 173              	.LBE112:
 174              	.LBE111:
 175              		.loc 1 193 0
 176 0056 9E6A     		ldr	r6, [r3, #40]
 177              	.LBB114:
 178              	.LBB113:
 179              		.loc 2 692 0
 180 0058 1868     		ldr	r0, [r3]
 181 005a 4260     		str	r2, [r0, #4]
 182              	.LVL14:
 183              	.LBE113:
 184              	.LBE114:
 185              		.loc 1 193 0
 186 005c 3246     		mov	r2, r6
 187 005e 02E0     		b	.L14
 188              	.LVL15:
 189              	.L30:
 190              	.LBB115:
 191              	.LBB116:
 192              		.loc 2 656 0
 193 0060 9068     		ldr	r0, [r2, #8]
 194 0062 8842     		cmp	r0, r1
 195 0064 32D3     		bcc	.L29
 196              	.LVL16:
 197              	.L14:
 198              		.loc 2 655 0
 199 0066 1268     		ldr	r2, [r2]
 200              	.LVL17:
 201              		.loc 2 656 0
 202 0068 9642     		cmp	r6, r2
 203 006a F9D1     		bne	.L30
 204              		.loc 2 658 0
 205 006c 7268     		ldr	r2, [r6, #4]
 206              	.LVL18:
 207 006e C3E90062 		strd	r6, r2, [r3]
 208              		.loc 2 659 0
 209 0072 1360     		str	r3, [r2]
 210              		.loc 2 660 0
 211 0074 7360     		str	r3, [r6, #4]
 212 0076 D6E7     		b	.L6
 213              	.LVL19:
 214              	.L26:
 215              	.LBE116:
 216              	.LBE115:
 217              	.LBB118:
 218              	.LBB119:
 219              		.loc 2 691 0
 220 0078 D3E90012 		ldrd	r1, r2, [r3]
 221 007c 1160     		str	r1, [r2]
 222              		.loc 2 692 0
 223 007e 1968     		ldr	r1, [r3]
 224              	.LBE119:
 225              	.LBE118:
 226              		.loc 1 202 0
 227 0080 1846     		mov	r0, r3
 228              	.LBB121:
ARM GAS  /tmp/cc9xlzym.s 			page 5


 229              	.LBB120:
 230              		.loc 2 692 0
 231 0082 4A60     		str	r2, [r1, #4]
 232              	.LVL20:
 233              	.LBE120:
 234              	.LBE121:
 235              		.loc 1 202 0
 236 0084 FFF7FEFF 		bl	chSchReadyI
 237              	.LVL21:
 238              		.loc 1 203 0
 239 0088 CDE7     		b	.L6
 240              	.LVL22:
 241              	.L27:
 242              	.LBB122:
 243              	.LBB109:
 244              		.loc 2 655 0
 245 008a 1E46     		mov	r6, r3
 246 008c D5E7     		b	.L16
 247              	.LVL23:
 248              	.L25:
 249              	.LBE109:
 250              	.LBE122:
 251              	.LBE136:
 252              		.loc 1 233 0
 253 008e 2B6C     		ldr	r3, [r5, #64]
 254 0090 C0E90253 		strd	r5, r3, [r0, #8]
 255              		.loc 1 234 0
 256 0094 2864     		str	r0, [r5, #64]
 257              		.loc 1 236 0
 258 0096 F8BD     		pop	{r3, r4, r5, r6, r7, pc}
 259              	.LVL24:
 260              	.L7:
 261              	.LBB137:
 262              	.LBB123:
 263              	.LBB124:
 264              		.loc 2 691 0
 265 0098 D3E90002 		ldrd	r0, r2, [r3]
 266 009c 1060     		str	r0, [r2]
 267              	.LBE124:
 268              	.LBE123:
 269              		.loc 1 173 0
 270 009e 9E6A     		ldr	r6, [r3, #40]
 271              	.LBB127:
 272              	.LBB125:
 273              		.loc 2 692 0
 274 00a0 1868     		ldr	r0, [r3]
 275              	.LBE125:
 276              	.LBE127:
 277              		.loc 1 173 0
 278 00a2 3746     		mov	r7, r6
 279              	.LBB128:
 280              	.LBB126:
 281              		.loc 2 692 0
 282 00a4 4260     		str	r2, [r0, #4]
 283              	.LVL25:
 284              	.LBE126:
 285              	.LBE128:
ARM GAS  /tmp/cc9xlzym.s 			page 6


 286              		.loc 1 173 0
 287 00a6 3246     		mov	r2, r6
 288 00a8 02E0     		b	.L11
 289              	.LVL26:
 290              	.L32:
 291              	.LBB129:
 292              	.LBB130:
 293              		.loc 2 656 0
 294 00aa 9068     		ldr	r0, [r2, #8]
 295 00ac 8842     		cmp	r0, r1
 296 00ae 14D3     		bcc	.L31
 297              	.LVL27:
 298              	.L11:
 299              		.loc 2 655 0
 300 00b0 1268     		ldr	r2, [r2]
 301              	.LVL28:
 302              		.loc 2 656 0
 303 00b2 9642     		cmp	r6, r2
 304 00b4 F9D1     		bne	.L32
 305              	.L10:
 306              		.loc 2 658 0
 307 00b6 7A68     		ldr	r2, [r7, #4]
 308              	.LVL29:
 309              	.LBE130:
 310              	.LBE129:
 311              		.loc 1 165 0
 312 00b8 A968     		ldr	r1, [r5, #8]
 313              	.LBB133:
 314              	.LBB131:
 315              		.loc 2 658 0
 316 00ba C3E90072 		strd	r7, r2, [r3]
 317              		.loc 2 659 0
 318 00be 1360     		str	r3, [r2]
 319              		.loc 2 660 0
 320 00c0 7B60     		str	r3, [r7, #4]
 321              	.LVL30:
 322              	.LBE131:
 323              	.LBE133:
 324              		.loc 1 174 0
 325 00c2 B368     		ldr	r3, [r6, #8]
 326              	.LVL31:
 327              		.loc 1 165 0
 328 00c4 9A68     		ldr	r2, [r3, #8]
 329 00c6 8A42     		cmp	r2, r1
 330 00c8 A5D3     		bcc	.L12
 331 00ca ACE7     		b	.L6
 332              	.LVL32:
 333              	.L29:
 334              	.LBB134:
 335              	.LBB117:
 336              		.loc 2 655 0
 337 00cc 1646     		mov	r6, r2
 338              	.LVL33:
 339              		.loc 2 658 0
 340 00ce 7268     		ldr	r2, [r6, #4]
 341              	.LVL34:
 342 00d0 C3E90062 		strd	r6, r2, [r3]
ARM GAS  /tmp/cc9xlzym.s 			page 7


 343              		.loc 2 659 0
 344 00d4 1360     		str	r3, [r2]
 345              		.loc 2 660 0
 346 00d6 7360     		str	r3, [r6, #4]
 347 00d8 A5E7     		b	.L6
 348              	.LVL35:
 349              	.L31:
 350              	.LBE117:
 351              	.LBE134:
 352              	.LBB135:
 353              	.LBB132:
 354              		.loc 2 655 0
 355 00da 1746     		mov	r7, r2
 356 00dc EBE7     		b	.L10
 357              	.L34:
 358 00de 00BF     		.align	2
 359              	.L33:
 360 00e0 00000000 		.word	ch
 361              	.LBE132:
 362              	.LBE135:
 363              	.LBE137:
 364              		.cfi_endproc
 365              	.LFE221:
 366              		.size	chMtxLockS, .-chMtxLockS
 367              		.section	.text.chMtxLock,"ax",%progbits
 368              		.align	1
 369              		.p2align 4,,15
 370              		.global	chMtxLock
 371              		.syntax unified
 372              		.thumb
 373              		.thumb_func
 374              		.fpu fpv4-sp-d16
 375              		.type	chMtxLock, %function
 376              	chMtxLock:
 377              	.LFB220:
 378              		.loc 1 123 0
 379              		.cfi_startproc
 380              		@ args = 0, pretend = 0, frame = 0
 381              		@ frame_needed = 0, uses_anonymous_args = 0
 382              	.LVL36:
 383 0000 08B5     		push	{r3, lr}
 384              		.cfi_def_cfa_offset 8
 385              		.cfi_offset 3, -8
 386              		.cfi_offset 14, -4
 387              	.LBB138:
 388              	.LBB139:
 389              	.LBB140:
 390              	.LBB141:
 391              		.file 3 "ChibiOS_3.0.5/os/ext/CMSIS/include/core_cmFunc.h"
 392              		.loc 3 342 0
 393              		.syntax unified
 394              	@ 342 "ChibiOS_3.0.5/os/ext/CMSIS/include/core_cmFunc.h" 1
 395 0002 72B6     		cpsid i
 396              	@ 0 "" 2
 397              		.thumb
 398              		.syntax unified
 399              	.LBE141:
ARM GAS  /tmp/cc9xlzym.s 			page 8


 400              	.LBE140:
 401              	.LBE139:
 402              	.LBE138:
 403              		.loc 1 126 0
 404 0004 FFF7FEFF 		bl	chMtxLockS
 405              	.LVL37:
 406              	.LBB142:
 407              	.LBB143:
 408              	.LBB144:
 409              	.LBB145:
 410              	.LBB146:
 411              		.loc 3 331 0
 412              		.syntax unified
 413              	@ 331 "ChibiOS_3.0.5/os/ext/CMSIS/include/core_cmFunc.h" 1
 414 0008 62B6     		cpsie i
 415              	@ 0 "" 2
 416              		.thumb
 417              		.syntax unified
 418              	.LBE146:
 419              	.LBE145:
 420              	.LBE144:
 421              	.LBE143:
 422              	.LBE142:
 423              		.loc 1 128 0
 424 000a 08BD     		pop	{r3, pc}
 425              		.cfi_endproc
 426              	.LFE220:
 427              		.size	chMtxLock, .-chMtxLock
 428              		.section	.text.chMtxTryLock,"ax",%progbits
 429              		.align	1
 430              		.p2align 4,,15
 431              		.global	chMtxTryLock
 432              		.syntax unified
 433              		.thumb
 434              		.thumb_func
 435              		.fpu fpv4-sp-d16
 436              		.type	chMtxTryLock, %function
 437              	chMtxTryLock:
 438              	.LFB222:
 439              		.loc 1 255 0
 440              		.cfi_startproc
 441              		@ args = 0, pretend = 0, frame = 0
 442              		@ frame_needed = 0, uses_anonymous_args = 0
 443              		@ link register save eliminated.
 444              	.LVL38:
 445              		.loc 1 255 0
 446 0000 0346     		mov	r3, r0
 447              	.LBB160:
 448              	.LBB161:
 449              	.LBB162:
 450              	.LBB163:
 451              		.loc 3 342 0
 452              		.syntax unified
 453              	@ 342 "ChibiOS_3.0.5/os/ext/CMSIS/include/core_cmFunc.h" 1
 454 0002 72B6     		cpsid i
 455              	@ 0 "" 2
 456              	.LVL39:
ARM GAS  /tmp/cc9xlzym.s 			page 9


 457              		.thumb
 458              		.syntax unified
 459              	.LBE163:
 460              	.LBE162:
 461              	.LBE161:
 462              	.LBE160:
 463              	.LBB164:
 464              	.LBB165:
 465              		.loc 1 287 0
 466 0004 8268     		ldr	r2, [r0, #8]
 467 0006 12B1     		cbz	r2, .L40
 468              		.loc 1 297 0
 469 0008 0020     		movs	r0, #0
 470              	.LVL40:
 471              	.LBE165:
 472              	.LBE164:
 473              	.LBB169:
 474              	.LBB170:
 475              	.LBB171:
 476              	.LBB172:
 477              	.LBB173:
 478              		.loc 3 331 0
 479              		.syntax unified
 480              	@ 331 "ChibiOS_3.0.5/os/ext/CMSIS/include/core_cmFunc.h" 1
 481 000a 62B6     		cpsie i
 482              	@ 0 "" 2
 483              		.thumb
 484              		.syntax unified
 485              	.LBE173:
 486              	.LBE172:
 487              	.LBE171:
 488              	.LBE170:
 489              	.LBE169:
 490              		.loc 1 263 0
 491 000c 7047     		bx	lr
 492              	.LVL41:
 493              	.L40:
 494              	.LBB178:
 495              	.LBB168:
 496              	.LBB166:
 497              	.LBB167:
 498              		.loc 1 305 0
 499 000e 044A     		ldr	r2, .L41
 500 0010 9269     		ldr	r2, [r2, #24]
 501 0012 8260     		str	r2, [r0, #8]
 502              		.loc 1 306 0
 503 0014 116C     		ldr	r1, [r2, #64]
 504 0016 C160     		str	r1, [r0, #12]
 505              		.loc 1 307 0
 506 0018 0120     		movs	r0, #1
 507              	.LVL42:
 508 001a 1364     		str	r3, [r2, #64]
 509              	.LVL43:
 510              	.LBE167:
 511              	.LBE166:
 512              	.LBE168:
 513              	.LBE178:
ARM GAS  /tmp/cc9xlzym.s 			page 10


 514              	.LBB179:
 515              	.LBB177:
 516              	.LBB176:
 517              	.LBB175:
 518              	.LBB174:
 519              		.loc 3 331 0
 520              		.syntax unified
 521              	@ 331 "ChibiOS_3.0.5/os/ext/CMSIS/include/core_cmFunc.h" 1
 522 001c 62B6     		cpsie i
 523              	@ 0 "" 2
 524              		.thumb
 525              		.syntax unified
 526              	.LBE174:
 527              	.LBE175:
 528              	.LBE176:
 529              	.LBE177:
 530              	.LBE179:
 531              		.loc 1 263 0
 532 001e 7047     		bx	lr
 533              	.L42:
 534              		.align	2
 535              	.L41:
 536 0020 00000000 		.word	ch
 537              		.cfi_endproc
 538              	.LFE222:
 539              		.size	chMtxTryLock, .-chMtxTryLock
 540              		.section	.text.chMtxTryLockS,"ax",%progbits
 541              		.align	1
 542              		.p2align 4,,15
 543              		.global	chMtxTryLockS
 544              		.syntax unified
 545              		.thumb
 546              		.thumb_func
 547              		.fpu fpv4-sp-d16
 548              		.type	chMtxTryLockS, %function
 549              	chMtxTryLockS:
 550              	.LFB223:
 551              		.loc 1 282 0
 552              		.cfi_startproc
 553              		@ args = 0, pretend = 0, frame = 0
 554              		@ frame_needed = 0, uses_anonymous_args = 0
 555              		@ link register save eliminated.
 556              	.LVL44:
 557              		.loc 1 287 0
 558 0000 8268     		ldr	r2, [r0, #8]
 559              		.loc 1 282 0
 560 0002 0346     		mov	r3, r0
 561              		.loc 1 287 0
 562 0004 0AB1     		cbz	r2, .L46
 563              		.loc 1 297 0
 564 0006 0020     		movs	r0, #0
 565              	.LVL45:
 566              		.loc 1 309 0
 567 0008 7047     		bx	lr
 568              	.LVL46:
 569              	.L46:
 570              	.LBB182:
ARM GAS  /tmp/cc9xlzym.s 			page 11


 571              	.LBB183:
 572              		.loc 1 305 0
 573 000a 044A     		ldr	r2, .L47
 574 000c 9269     		ldr	r2, [r2, #24]
 575 000e 8260     		str	r2, [r0, #8]
 576              		.loc 1 306 0
 577 0010 116C     		ldr	r1, [r2, #64]
 578 0012 C160     		str	r1, [r0, #12]
 579              		.loc 1 307 0
 580 0014 0120     		movs	r0, #1
 581              	.LVL47:
 582 0016 1364     		str	r3, [r2, #64]
 583              	.LVL48:
 584 0018 7047     		bx	lr
 585              	.L48:
 586 001a 00BF     		.align	2
 587              	.L47:
 588 001c 00000000 		.word	ch
 589              	.LBE183:
 590              	.LBE182:
 591              		.cfi_endproc
 592              	.LFE223:
 593              		.size	chMtxTryLockS, .-chMtxTryLockS
 594              		.section	.text.chMtxUnlock,"ax",%progbits
 595              		.align	1
 596              		.p2align 4,,15
 597              		.global	chMtxUnlock
 598              		.syntax unified
 599              		.thumb
 600              		.thumb_func
 601              		.fpu fpv4-sp-d16
 602              		.type	chMtxUnlock, %function
 603              	chMtxUnlock:
 604              	.LFB224:
 605              		.loc 1 323 0
 606              		.cfi_startproc
 607              		@ args = 0, pretend = 0, frame = 0
 608              		@ frame_needed = 0, uses_anonymous_args = 0
 609              	.LVL49:
 610              		.loc 1 324 0
 611 0000 144B     		ldr	r3, .L60
 612              		.loc 1 323 0
 613 0002 70B5     		push	{r4, r5, r6, lr}
 614              		.cfi_def_cfa_offset 16
 615              		.cfi_offset 4, -16
 616              		.cfi_offset 5, -12
 617              		.cfi_offset 6, -8
 618              		.cfi_offset 14, -4
 619              		.loc 1 324 0
 620 0004 9D69     		ldr	r5, [r3, #24]
 621              	.LVL50:
 622              	.LBB184:
 623              	.LBB185:
 624              	.LBB186:
 625              	.LBB187:
 626              		.loc 3 342 0
 627              		.syntax unified
ARM GAS  /tmp/cc9xlzym.s 			page 12


 628              	@ 342 "ChibiOS_3.0.5/os/ext/CMSIS/include/core_cmFunc.h" 1
 629 0006 72B6     		cpsid i
 630              	@ 0 "" 2
 631              		.thumb
 632              		.syntax unified
 633              	.LBE187:
 634              	.LBE186:
 635              	.LBE185:
 636              	.LBE184:
 637              	.LBB188:
 638              	.LBB189:
 639              	.LBB190:
 640              	.LBB191:
 641              		.loc 2 631 0
 642 0008 0468     		ldr	r4, [r0]
 643              	.LBE191:
 644              	.LBE190:
 645              	.LBE189:
 646              	.LBE188:
 647              		.loc 1 344 0
 648 000a C368     		ldr	r3, [r0, #12]
 649 000c 2B64     		str	r3, [r5, #64]
 650              		.loc 1 347 0
 651 000e 8442     		cmp	r4, r0
 652 0010 1BD0     		beq	.L50
 653              	.LBB192:
 654              		.loc 1 352 0
 655 0012 696C     		ldr	r1, [r5, #68]
 656              	.LVL51:
 657              		.loc 1 354 0
 658 0014 4BB1     		cbz	r3, .L51
 659              	.L53:
 660              	.LVL52:
 661              	.LBB193:
 662              	.LBB194:
 663              	.LBB195:
 664              	.LBB196:
 665              		.loc 2 631 0
 666 0016 1A68     		ldr	r2, [r3]
 667              	.LVL53:
 668              	.LBE196:
 669              	.LBE195:
 670              	.LBE194:
 671              	.LBE193:
 672              		.loc 1 358 0
 673 0018 9342     		cmp	r3, r2
 674 001a 03D0     		beq	.L52
 675 001c 9268     		ldr	r2, [r2, #8]
 676 001e 9142     		cmp	r1, r2
 677 0020 38BF     		it	cc
 678 0022 1146     		movcc	r1, r2
 679              	.LVL54:
 680              	.L52:
 681              		.loc 1 362 0
 682 0024 DB68     		ldr	r3, [r3, #12]
 683              	.LVL55:
 684              		.loc 1 354 0
ARM GAS  /tmp/cc9xlzym.s 			page 13


 685 0026 002B     		cmp	r3, #0
 686 0028 F5D1     		bne	.L53
 687              	.L51:
 688 002a 0346     		mov	r3, r0
 689              	.LVL56:
 690              	.LBB197:
 691              	.LBB198:
 692              		.loc 2 674 0
 693 002c 2268     		ldr	r2, [r4]
 694              	.LBE198:
 695              	.LBE197:
 696              		.loc 1 376 0
 697 002e 266C     		ldr	r6, [r4, #64]
 698              		.loc 1 367 0
 699 0030 A960     		str	r1, [r5, #8]
 700              	.LVL57:
 701              		.loc 1 383 0
 702 0032 2046     		mov	r0, r4
 703              	.LVL58:
 704              	.LBB200:
 705              	.LBB199:
 706              		.loc 2 674 0
 707 0034 1A60     		str	r2, [r3]
 708              		.loc 2 675 0
 709 0036 5360     		str	r3, [r2, #4]
 710              	.LVL59:
 711              	.LBE199:
 712              	.LBE200:
 713              		.loc 1 376 0
 714 0038 C3E90246 		strd	r4, r6, [r3, #8]
 715              		.loc 1 377 0
 716 003c 2364     		str	r3, [r4, #64]
 717              		.loc 1 383 0
 718 003e FFF7FEFF 		bl	chSchReadyI
 719              	.LVL60:
 720              		.loc 1 384 0
 721 0042 FFF7FEFF 		bl	chSchRescheduleS
 722              	.LVL61:
 723              	.LBE192:
 724              	.LBB201:
 725              	.LBB202:
 726              	.LBB203:
 727              	.LBB204:
 728              	.LBB205:
 729              		.loc 3 331 0
 730              		.syntax unified
 731              	@ 331 "ChibiOS_3.0.5/os/ext/CMSIS/include/core_cmFunc.h" 1
 732 0046 62B6     		cpsie i
 733              	@ 0 "" 2
 734              		.thumb
 735              		.syntax unified
 736              	.LBE205:
 737              	.LBE204:
 738              	.LBE203:
 739              	.LBE202:
 740              	.LBE201:
 741              		.loc 1 394 0
ARM GAS  /tmp/cc9xlzym.s 			page 14


 742 0048 70BD     		pop	{r4, r5, r6, pc}
 743              	.LVL62:
 744              	.L50:
 745              		.loc 1 387 0
 746 004a 0023     		movs	r3, #0
 747 004c A360     		str	r3, [r4, #8]
 748              	.LBB210:
 749              	.LBB209:
 750              	.LBB208:
 751              	.LBB207:
 752              	.LBB206:
 753              		.loc 3 331 0
 754              		.syntax unified
 755              	@ 331 "ChibiOS_3.0.5/os/ext/CMSIS/include/core_cmFunc.h" 1
 756 004e 62B6     		cpsie i
 757              	@ 0 "" 2
 758              		.thumb
 759              		.syntax unified
 760              	.LBE206:
 761              	.LBE207:
 762              	.LBE208:
 763              	.LBE209:
 764              	.LBE210:
 765              		.loc 1 394 0
 766 0050 70BD     		pop	{r4, r5, r6, pc}
 767              	.LVL63:
 768              	.L61:
 769 0052 00BF     		.align	2
 770              	.L60:
 771 0054 00000000 		.word	ch
 772              		.cfi_endproc
 773              	.LFE224:
 774              		.size	chMtxUnlock, .-chMtxUnlock
 775              		.section	.text.chMtxUnlockS,"ax",%progbits
 776              		.align	1
 777              		.p2align 4,,15
 778              		.global	chMtxUnlockS
 779              		.syntax unified
 780              		.thumb
 781              		.thumb_func
 782              		.fpu fpv4-sp-d16
 783              		.type	chMtxUnlockS, %function
 784              	chMtxUnlockS:
 785              	.LFB225:
 786              		.loc 1 410 0
 787              		.cfi_startproc
 788              		@ args = 0, pretend = 0, frame = 0
 789              		@ frame_needed = 0, uses_anonymous_args = 0
 790              		@ link register save eliminated.
 791              	.LVL64:
 792              		.loc 1 411 0
 793 0000 124B     		ldr	r3, .L72
 794              		.loc 1 410 0
 795 0002 30B4     		push	{r4, r5}
 796              		.cfi_def_cfa_offset 8
 797              		.cfi_offset 4, -8
 798              		.cfi_offset 5, -4
ARM GAS  /tmp/cc9xlzym.s 			page 15


 799              	.LBB211:
 800              	.LBB212:
 801              	.LBB213:
 802              	.LBB214:
 803              		.loc 2 631 0
 804 0004 0468     		ldr	r4, [r0]
 805              	.LBE214:
 806              	.LBE213:
 807              	.LBE212:
 808              	.LBE211:
 809              		.loc 1 411 0
 810 0006 9D69     		ldr	r5, [r3, #24]
 811              	.LVL65:
 812              		.loc 1 430 0
 813 0008 C368     		ldr	r3, [r0, #12]
 814 000a 2B64     		str	r3, [r5, #64]
 815              		.loc 1 433 0
 816 000c 8442     		cmp	r4, r0
 817 000e 18D0     		beq	.L63
 818 0010 0146     		mov	r1, r0
 819              	.LBB215:
 820              		.loc 1 438 0
 821 0012 686C     		ldr	r0, [r5, #68]
 822              	.LVL66:
 823              		.loc 1 440 0
 824 0014 4BB1     		cbz	r3, .L64
 825              	.L66:
 826              	.LVL67:
 827              	.LBB216:
 828              	.LBB217:
 829              	.LBB218:
 830              	.LBB219:
 831              		.loc 2 631 0
 832 0016 1A68     		ldr	r2, [r3]
 833              	.LVL68:
 834              	.LBE219:
 835              	.LBE218:
 836              	.LBE217:
 837              	.LBE216:
 838              		.loc 1 444 0
 839 0018 9342     		cmp	r3, r2
 840 001a 03D0     		beq	.L65
 841 001c 9268     		ldr	r2, [r2, #8]
 842 001e 9042     		cmp	r0, r2
 843 0020 38BF     		it	cc
 844 0022 1046     		movcc	r0, r2
 845              	.LVL69:
 846              	.L65:
 847              		.loc 1 448 0
 848 0024 DB68     		ldr	r3, [r3, #12]
 849              	.LVL70:
 850              		.loc 1 440 0
 851 0026 002B     		cmp	r3, #0
 852 0028 F5D1     		bne	.L66
 853              	.L64:
 854              		.loc 1 462 0
 855 002a 226C     		ldr	r2, [r4, #64]
ARM GAS  /tmp/cc9xlzym.s 			page 16


 856              	.LBB220:
 857              	.LBB221:
 858              		.loc 2 674 0
 859 002c 2368     		ldr	r3, [r4]
 860              	.LVL71:
 861              	.LBE221:
 862              	.LBE220:
 863              		.loc 1 453 0
 864 002e A860     		str	r0, [r5, #8]
 865              	.LVL72:
 866              	.LBB224:
 867              	.LBB222:
 868              		.loc 2 674 0
 869 0030 0B60     		str	r3, [r1]
 870              	.LBE222:
 871              	.LBE224:
 872              		.loc 1 464 0
 873 0032 2046     		mov	r0, r4
 874              	.LVL73:
 875              	.LBB225:
 876              	.LBB223:
 877              		.loc 2 675 0
 878 0034 5960     		str	r1, [r3, #4]
 879              	.LVL74:
 880              	.LBE223:
 881              	.LBE225:
 882              		.loc 1 462 0
 883 0036 C1E90242 		strd	r4, r2, [r1, #8]
 884              		.loc 1 463 0
 885 003a 2164     		str	r1, [r4, #64]
 886              	.LBE215:
 887              		.loc 1 472 0
 888 003c 30BC     		pop	{r4, r5}
 889              		.cfi_remember_state
 890              		.cfi_restore 5
 891              		.cfi_restore 4
 892              		.cfi_def_cfa_offset 0
 893              	.LVL75:
 894              	.LBB226:
 895              		.loc 1 464 0
 896 003e FFF7FEBF 		b	chSchReadyI
 897              	.LVL76:
 898              	.L63:
 899              		.cfi_restore_state
 900              	.LBE226:
 901              		.loc 1 467 0
 902 0042 0023     		movs	r3, #0
 903 0044 A360     		str	r3, [r4, #8]
 904              		.loc 1 472 0
 905 0046 30BC     		pop	{r4, r5}
 906              		.cfi_restore 5
 907              		.cfi_restore 4
 908              		.cfi_def_cfa_offset 0
 909              	.LVL77:
 910 0048 7047     		bx	lr
 911              	.L73:
 912 004a 00BF     		.align	2
ARM GAS  /tmp/cc9xlzym.s 			page 17


 913              	.L72:
 914 004c 00000000 		.word	ch
 915              		.cfi_endproc
 916              	.LFE225:
 917              		.size	chMtxUnlockS, .-chMtxUnlockS
 918              		.section	.text.chMtxUnlockAll,"ax",%progbits
 919              		.align	1
 920              		.p2align 4,,15
 921              		.global	chMtxUnlockAll
 922              		.syntax unified
 923              		.thumb
 924              		.thumb_func
 925              		.fpu fpv4-sp-d16
 926              		.type	chMtxUnlockAll, %function
 927              	chMtxUnlockAll:
 928              	.LFB226:
 929              		.loc 1 485 0
 930              		.cfi_startproc
 931              		@ args = 0, pretend = 0, frame = 0
 932              		@ frame_needed = 0, uses_anonymous_args = 0
 933              		.loc 1 486 0
 934 0000 114B     		ldr	r3, .L85
 935              		.loc 1 485 0
 936 0002 70B5     		push	{r4, r5, r6, lr}
 937              		.cfi_def_cfa_offset 16
 938              		.cfi_offset 4, -16
 939              		.cfi_offset 5, -12
 940              		.cfi_offset 6, -8
 941              		.cfi_offset 14, -4
 942              		.loc 1 486 0
 943 0004 9C69     		ldr	r4, [r3, #24]
 944              	.LVL78:
 945              	.LBB227:
 946              	.LBB228:
 947              	.LBB229:
 948              	.LBB230:
 949              		.loc 3 342 0
 950              		.syntax unified
 951              	@ 342 "ChibiOS_3.0.5/os/ext/CMSIS/include/core_cmFunc.h" 1
 952 0006 72B6     		cpsid i
 953              	@ 0 "" 2
 954              		.thumb
 955              		.syntax unified
 956              	.LBE230:
 957              	.LBE229:
 958              	.LBE228:
 959              	.LBE227:
 960              		.loc 1 489 0
 961 0008 236C     		ldr	r3, [r4, #64]
 962 000a B3B1     		cbz	r3, .L75
 963              	.LBB231:
 964              		.loc 1 507 0
 965 000c 0026     		movs	r6, #0
 966              	.L78:
 967              	.LVL79:
 968              	.LBB232:
 969              	.LBB233:
ARM GAS  /tmp/cc9xlzym.s 			page 18


 970              	.LBB234:
 971              	.LBB235:
 972              		.loc 2 631 0
 973 000e 1A68     		ldr	r2, [r3]
 974              	.LVL80:
 975              	.LBE235:
 976              	.LBE234:
 977              	.LBE233:
 978              	.LBE232:
 979              		.loc 1 492 0
 980 0010 D968     		ldr	r1, [r3, #12]
 981 0012 2164     		str	r1, [r4, #64]
 982              	.LVL81:
 983              		.loc 1 493 0
 984 0014 9342     		cmp	r3, r2
 985              	.LBB236:
 986              		.loc 1 501 0
 987 0016 1046     		mov	r0, r2
 988              	.LBE236:
 989              		.loc 1 493 0
 990 0018 11D0     		beq	.L76
 991              	.LBB239:
 992              		.loc 1 499 0
 993 001a 156C     		ldr	r5, [r2, #64]
 994              	.LBB237:
 995              	.LBB238:
 996              		.loc 2 674 0
 997 001c 1168     		ldr	r1, [r2]
 998 001e 1960     		str	r1, [r3]
 999              		.loc 2 675 0
 1000 0020 4B60     		str	r3, [r1, #4]
 1001              	.LVL82:
 1002              	.LBE238:
 1003              	.LBE237:
 1004              		.loc 1 499 0
 1005 0022 C3E90225 		strd	r2, r5, [r3, #8]
 1006              		.loc 1 500 0
 1007 0026 1364     		str	r3, [r2, #64]
 1008              		.loc 1 501 0
 1009 0028 FFF7FEFF 		bl	chSchReadyI
 1010              	.LVL83:
 1011 002c 236C     		ldr	r3, [r4, #64]
 1012              	.LBE239:
 1013              	.LBE231:
 1014              		.loc 1 509 0
 1015 002e 002B     		cmp	r3, #0
 1016 0030 EDD1     		bne	.L78
 1017              	.L84:
 1018              		.loc 1 510 0
 1019 0032 636C     		ldr	r3, [r4, #68]
 1020 0034 A360     		str	r3, [r4, #8]
 1021              		.loc 1 511 0
 1022 0036 FFF7FEFF 		bl	chSchRescheduleS
 1023              	.LVL84:
 1024              	.L75:
 1025              	.LBB240:
 1026              	.LBB241:
ARM GAS  /tmp/cc9xlzym.s 			page 19


 1027              	.LBB242:
 1028              	.LBB243:
 1029              	.LBB244:
 1030              		.loc 3 331 0
 1031              		.syntax unified
 1032              	@ 331 "ChibiOS_3.0.5/os/ext/CMSIS/include/core_cmFunc.h" 1
 1033 003a 62B6     		cpsie i
 1034              	@ 0 "" 2
 1035              		.thumb
 1036              		.syntax unified
 1037              	.LBE244:
 1038              	.LBE243:
 1039              	.LBE242:
 1040              	.LBE241:
 1041              	.LBE240:
 1042              		.loc 1 514 0
 1043 003c 70BD     		pop	{r4, r5, r6, pc}
 1044              	.LVL85:
 1045              	.L76:
 1046              	.LBB245:
 1047              		.loc 1 507 0
 1048 003e 9E60     		str	r6, [r3, #8]
 1049 0040 0B46     		mov	r3, r1
 1050              	.LVL86:
 1051              	.LBE245:
 1052              		.loc 1 509 0
 1053 0042 002B     		cmp	r3, #0
 1054 0044 E3D1     		bne	.L78
 1055 0046 F4E7     		b	.L84
 1056              	.L86:
 1057              		.align	2
 1058              	.L85:
 1059 0048 00000000 		.word	ch
 1060              		.cfi_endproc
 1061              	.LFE226:
 1062              		.size	chMtxUnlockAll, .-chMtxUnlockAll
 1063              		.text
 1064              	.Letext0:
 1065              		.file 4 "/usr/arm-none-eabi/include/machine/_default_types.h"
 1066              		.file 5 "/usr/arm-none-eabi/include/sys/_stdint.h"
 1067              		.file 6 "ChibiOS_3.0.5/os/rt/ports/ARMCMx/compilers/GCC/chtypes.h"
 1068              		.file 7 "ChibiOS_3.0.5/os/rt/include/chsystypes.h"
 1069              		.file 8 "ChibiOS_3.0.5/os/ext/CMSIS/include/core_cm4.h"
 1070              		.file 9 "ChibiOS_3.0.5/os/ext/CMSIS/ST/system_stm32f4xx.h"
 1071              		.file 10 "ChibiOS_3.0.5/os/rt/ports/ARMCMx/chcore.h"
 1072              		.file 11 "ChibiOS_3.0.5/os/rt/ports/ARMCMx/chcore_v7m.h"
 1073              		.file 12 "ChibiOS_3.0.5/os/rt/include/chtm.h"
 1074              		.file 13 "ChibiOS_3.0.5/os/rt/include/chsem.h"
 1075              		.file 14 "ChibiOS_3.0.5/os/rt/include/chmtx.h"
 1076              		.file 15 "ChibiOS_3.0.5/os/rt/include/chregistry.h"
 1077              		.file 16 "ChibiOS_3.0.5/os/rt/include/chsys.h"