ARM GAS  /tmp/cc9xlzym.s 			page 1


   1              		.cpu cortex-m4
   2              		.eabi_attribute 27, 1
   3              		.eabi_attribute 28, 1
   4              		.eabi_attribute 20, 1
   5              		.eabi_attribute 21, 1
   6              		.eabi_attribute 23, 3
   7              		.eabi_attribute 24, 1
   8              		.eabi_attribute 25, 1
   9              		.eabi_attribute 26, 1
  10              		.eabi_attribute 30, 2
  11              		.eabi_attribute 34, 1
  12              		.eabi_attribute 18, 4
  13              		.file	"chmtx.c"
  14              		.text
  15              	.Ltext0:
  16              		.cfi_sections	.debug_frame
  17              		.section	.text.chMtxObjectInit,"ax",%progbits
  18              		.align	1
  19              		.p2align 4,,15
  20              		.global	chMtxObjectInit
  21              		.syntax unified
  22              		.thumb
  23              		.thumb_func
  24              		.fpu fpv4-sp-d16
  25              		.type	chMtxObjectInit, %function
  26              	chMtxObjectInit:
  27              	.LFB219:
  28              		.file 1 "ChibiOS_3.0.5/os/rt/src/chmtx.c"
  29              		.loc 1 103 0
  30              		.cfi_startproc
  31              		@ args = 0, pretend = 0, frame = 0
  32              		@ frame_needed = 0, uses_anonymous_args = 0
  33              		@ link register save eliminated.
  34              	.LVL0:
  35              		.loc 1 108 0
  36 0000 0023     		movs	r3, #0
  37              	.LBB103:
  38              	.LBB104:
  39              		.file 2 "ChibiOS_3.0.5/os/rt/include/chschd.h"
  40              		.loc 2 605 0
  41 0002 C0E90000 		strd	r0, r0, [r0]
  42              	.LVL1:
  43              	.LBE104:
  44              	.LBE103:
  45              		.loc 1 108 0
  46 0006 8360     		str	r3, [r0, #8]
  47              		.loc 1 112 0
  48 0008 7047     		bx	lr
  49              		.cfi_endproc
  50              	.LFE219:
  51              		.size	chMtxObjectInit, .-chMtxObjectInit
  52 000a 00BF     		.section	.text.chMtxLockS,"ax",%progbits
  53              		.align	1
  54              		.p2align 4,,15
  55              		.global	chMtxLockS
  56              		.syntax unified
  57              		.thumb
ARM GAS  /tmp/cc9xlzym.s 			page 2


  58              		.thumb_func
  59              		.fpu fpv4-sp-d16
  60              		.type	chMtxLockS, %function
  61              	chMtxLockS:
  62              	.LFB221:
  63              		.loc 1 139 0
  64              		.cfi_startproc
  65              		@ args = 0, pretend = 0, frame = 0
  66              		@ frame_needed = 0, uses_anonymous_args = 0
  67              	.LVL2:
  68 0000 F8B5     		push	{r3, r4, r5, r6, r7, lr}
  69              		.cfi_def_cfa_offset 24
  70              		.cfi_offset 3, -24
  71              		.cfi_offset 4, -20
  72              		.cfi_offset 5, -16
  73              		.cfi_offset 6, -12
  74              		.cfi_offset 7, -8
  75              		.cfi_offset 14, -4
  76              		.loc 1 140 0
  77 0002 374A     		ldr	r2, .L33
  78              		.loc 1 146 0
  79 0004 8368     		ldr	r3, [r0, #8]
  80              		.loc 1 140 0
  81 0006 9569     		ldr	r5, [r2, #24]
  82              	.LVL3:
  83              		.loc 1 146 0
  84 0008 002B     		cmp	r3, #0
  85 000a 40D0     		beq	.L25
  86              	.LBB105:
  87              		.loc 1 165 0
  88 000c A968     		ldr	r1, [r5, #8]
  89 000e 9A68     		ldr	r2, [r3, #8]
  90 0010 9142     		cmp	r1, r2
  91 0012 0446     		mov	r4, r0
  92              	.LVL4:
  93 0014 07D9     		bls	.L6
  94              	.LVL5:
  95              	.L12:
  96              		.loc 1 170 0
  97 0016 93F82020 		ldrb	r2, [r3, #32]	@ zero_extendqisi2
  98              		.loc 1 167 0
  99 001a 9960     		str	r1, [r3, #8]
 100              		.loc 1 170 0
 101 001c 062A     		cmp	r2, #6
 102 001e 3BD0     		beq	.L7
 103 0020 072A     		cmp	r2, #7
 104 0022 15D0     		beq	.L8
 105 0024 42B3     		cbz	r2, .L26
 106              	.LVL6:
 107              	.L6:
 108              		.loc 1 212 0
 109 0026 2646     		mov	r6, r4
 110              	.LVL7:
 111 0028 2346     		mov	r3, r4
 112 002a 03E0     		b	.L17
 113              	.LVL8:
 114              	.L28:
ARM GAS  /tmp/cc9xlzym.s 			page 3


 115              	.LBB106:
 116              	.LBB107:
 117              		.loc 2 656 0
 118 002c 9968     		ldr	r1, [r3, #8]
 119 002e AA68     		ldr	r2, [r5, #8]
 120 0030 9142     		cmp	r1, r2
 121 0032 2AD3     		bcc	.L27
 122              	.L17:
 123              		.loc 2 655 0
 124 0034 1B68     		ldr	r3, [r3]
 125              	.LVL9:
 126              		.loc 2 656 0
 127 0036 9C42     		cmp	r4, r3
 128 0038 F8D1     		bne	.L28
 129              	.L16:
 130              		.loc 2 658 0
 131 003a 7368     		ldr	r3, [r6, #4]
 132              	.LVL10:
 133              	.LBE107:
 134              	.LBE106:
 135              		.loc 1 214 0
 136 003c 0620     		movs	r0, #6
 137              	.LBB110:
 138              	.LBB108:
 139              		.loc 2 658 0
 140 003e C5E90063 		strd	r6, r3, [r5]
 141              		.loc 2 659 0
 142 0042 1D60     		str	r5, [r3]
 143              		.loc 2 660 0
 144 0044 7560     		str	r5, [r6, #4]
 145              	.LVL11:
 146              	.LBE108:
 147              	.LBE110:
 148              		.loc 1 213 0
 149 0046 AC62     		str	r4, [r5, #40]
 150              	.LBE105:
 151              		.loc 1 236 0
 152 0048 BDE8F840 		pop	{r3, r4, r5, r6, r7, lr}
 153              		.cfi_remember_state
 154              		.cfi_restore 14
 155              		.cfi_restore 7
 156              		.cfi_restore 6
 157              		.cfi_restore 5
 158              		.cfi_restore 4
 159              		.cfi_restore 3
 160              		.cfi_def_cfa_offset 0
 161              	.LVL12:
 162              	.LBB136:
 163              		.loc 1 214 0
 164 004c FFF7FEBF 		b	chSchGoSleepS
 165              	.LVL13:
 166              	.L8:
 167              		.cfi_restore_state
 168              	.LBB111:
 169              	.LBB112:
 170              		.loc 2 691 0
 171 0050 D3E90002 		ldrd	r0, r2, [r3]
ARM GAS  /tmp/cc9xlzym.s 			page 4


 172 0054 1060     		str	r0, [r2]
 173              	.LBE112:
 174              	.LBE111:
 175              		.loc 1 193 0
 176 0056 9E6A     		ldr	r6, [r3, #40]
 177              	.LBB114:
 178              	.LBB113:
 179              		.loc 2 692 0
 180 0058 1868     		ldr	r0, [r3]
 181 005a 4260     		str	r2, [r0, #4]
 182              	.LVL14:
 183              	.LBE113:
 184              	.LBE114:
 185              		.loc 1 193 0
 186 005c 3246     		mov	r2, r6
 187 005e 02E0     		b	.L14
 188              	.LVL15:
 189              	.L30:
 190              	.LBB115:
 191              	.LBB116:
 192              		.loc 2 656 0
 193 0060 9068     		ldr	r0, [r2, #8]
 194 0062 8842     		cmp	r0, r1
 195 0064 32D3     		bcc	.L29
 196              	.LVL16:
 197              	.L14:
 198              		.loc 2 655 0
 199 0066 1268     		ldr	r2, [r2]
 200              	.LVL17:
 201              		.loc 2 656 0
 202 0068 9642     		cmp	r6, r2
 203 006a F9D1     		bne	.L30
 204              		.loc 2 658 0
 205 006c 7268     		ldr	r2, [r6, #4]
 206              	.LVL18:
 207 006e C3E90062 		strd	r6, r2, [r3]
 208              		.loc 2 659 0
 209 0072 1360     		str	r3, [r2]
 210              		.loc 2 660 0
 211 0074 7360     		str	r3, [r6, #4]
 212 0076 D6E7     		b	.L6
 213              	.LVL19:
 214              	.L26:
 215              	.LBE116:
 216              	.LBE115:
 217              	.LBB118:
 218              	.LBB119:
 219              		.loc 2 691 0
 220 0078 D3E90012 		ldrd	r1, r2, [r3]
 221 007c 1160     		str	r1, [r2]
 222              		.loc 2 692 0
 223 007e 1968     		ldr	r1, [r3]
 224              	.LBE119:
 225              	.LBE118:
 226              		.loc 1 202 0
 227 0080 1846     		mov	r0, r3
 228              	.LBB121:
ARM GAS  /tmp/cc9xlzym.s 			page 5


 229              	.LBB120:
 230              		.loc 2 692 0
 231 0082 4A60     		str	r2, [r1, #4]
 232              	.LVL20:
 233              	.LBE120:
 234              	.LBE121:
 235              		.loc 1 202 0
 236 0084 FFF7FEFF 		bl	chSchReadyI
 237              	.LVL21:
 238              		.loc 1 203 0
 239 0088 CDE7     		b	.L6
 240              	.LVL22:
 241              	.L27:
 242              	.LBB122:
 243              	.LBB109:
 244              		.loc 2 655 0
 245 008a 1E46     		mov	r6, r3
 246 008c D5E7     		b	.L16
 247              	.LVL23:
 248              	.L25:
 249              	.LBE109:
 250              	.LBE122:
 251              	.LBE136:
 252              		.loc 1 233 0
 253 008e 2B6C     		ldr	r3, [r5, #64]
 254 0090 C0E90253 		strd	r5, r3, [r0, #8]
 255              		.loc 1 234 0
 256 0094 2864     		str	r0, [r5, #64]
 257              		.loc 1 236 0
 258 0096 F8BD     		pop	{r3, r4, r5, r6, r7, pc}
 259              	.LVL24:
 260              	.L7:
 261              	.LBB137:
 262              	.LBB123:
 263              	.LBB124:
 264              		.loc 2 691 0
 265 0098 D3E90002 		ldrd	r0, r2, [r3]
 266 009c 1060     		str	r0, [r2]
 267              	.LBE124:
 268              	.LBE123:
 269              		.loc 1 173 0
 270 009e 9E6A     		ldr	r6, [r3, #40]
 271              	.LBB127:
 272              	.LBB125:
 273              		.loc 2 692 0
 274 00a0 1868     		ldr	r0, [r3]
 275              	.LBE125:
 276              	.LBE127:
 277              		.loc 1 173 0
 278 00a2 3746     		mov	r7, r6
 279              	.LBB128:
 280              	.LBB126:
 281              		.loc 2 692 0
 282 00a4 4260     		str	r2, [r0, #4]
 283              	.LVL25:
 284              	.LBE126:
 285              	.LBE128:
ARM GAS  /tmp/cc9xlzym.s 			page 6


 286              		.loc 1 173 0
 287 00a6 3246     		mov	r2, r6
 288 00a8 02E0     		b	.L11
 289              	.LVL26:
 290              	.L32:
 291              	.LBB129:
 292              	.LBB130:
 293              		.loc 2 656 0
 294 00aa 9068     		ldr	r0, [r2, #8]
 295 00ac 8842     		cmp	r0, r1
 296 00ae 14D3     		bcc	.L31
 297              	.LVL27:
 298              	.L11:
 299              		.loc 2 655 0
 300 00b0 1268     		ldr	r2, [r2]
 301              	.LVL28:
 302              		.loc 2 656 0
 303 00b2 9642     		cmp	r6, r2
 304 00b4 F9D1     		bne	.L32
 305              	.L10:
 306              		.loc 2 658 0
 307 00b6 7A68     		ldr	r2, [r7, #4]
 308              	.LVL29:
 309              	.LBE130:
 310              	.LBE129:
 311              		.loc 1 165 0
 312 00b8 A968     		ldr	r1, [r5, #8]
 313              	.LBB133:
 314              	.LBB131:
 315              		.loc 2 658 0
 316 00ba C3E90072 		strd	r7, r2, [r3]
 317              		.loc 2 659 0
 318 00be 1360     		str	r3, [r2]
 319              		.loc 2 660 0
 320 00c0 7B60     		str	r3, [r7, #4]
 321              	.LVL30:
 322              	.LBE131:
 323              	.LBE133:
 324              		.loc 1 174 0
 325 00c2 B368     		ldr	r3, [r6, #8]
 326              	.LVL31:
 327              		.loc 1 165 0
 328 00c4 9A68     		ldr	r2, [r3, #8]
 329 00c6 8A42     		cmp	r2, r1
 330 00c8 A5D3     		bcc	.L12
 331 00ca ACE7     		b	.L6
 332              	.LVL32:
 333              	.L29:
 334              	.LBB134:
 335              	.LBB117:
 336              		.loc 2 655 0
 337 00cc 1646     		mov	r6, r2
 338              	.LVL33:
 339              		.loc 2 658 0
 340 00ce 7268     		ldr	r2, [r6, #4]
 341              	.LVL34:
 342 00d0 C3E90062 		strd	r6, r2, [r3]
ARM GAS  /tmp/cc9xlzym.s 			page 7


 343              		.loc 2 659 0
 344 00d4 1360     		str	r3, [r2]
 345              		.loc 2 660 0
 346 00d6 7360     		str	r3, [r6, #4]
 347 00d8 A5E7     		b	.L6
 348              	.LVL35:
 349              	.L31:
 350              	.LBE117:
 351              	.LBE134:
 352              	.LBB135:
 353              	.LBB132:
 354              		.loc 2 655 0
 355 00da 1746     		mov	r7, r2
 356 00dc EBE7     		b	.L10
 357              	.L34:
 358 00de 00BF     		.align	2
 359              	.L33:
 360 00e0 00000000 		.word	ch
 361              	.LBE132:
 362              	.LBE135:
 363              	.LBE137:
 364              		.cfi_endproc
 365              	.LFE221:
 366              		.size	chMtxLockS, .-chMtxLockS
 367              		.section	.text.chMtxLock,"ax",%progbits
 368              		.align	1
 369              		.p2align 4,,15
 370              		.global	chMtxLock
 371              		.syntax unified
 372              		.thumb
 373              		.thumb_func
 374              		.fpu fpv4-sp-d16
 375              		.type	chMtxLock, %function
 376              	chMtxLock:
 377              	.LFB220:
 378              		.loc 1 123 0
 379              		.cfi_startproc
 380              		@ args = 0, pretend = 0, frame = 0
 381              		@ frame_needed = 0, uses_anonymous_args = 0
 382              	.LVL36:
 383 0000 08B5     		push	{r3, lr}
 384              		.cfi_def_cfa_offset 8
 385              		.cfi_offset 3, -8
 386              		.cfi_offset 14, -4
 387              	.LBB138:
 388              	.LBB139:
 389              	.LBB140:
 390              	.LBB141:
 391              		.file 3 "ChibiOS_3.0.5/os/ext/CMSIS/include/core_cmFunc.h"
 392              		.loc 3 342 0
 393              		.syntax unified
 394              	@ 342 "ChibiOS_3.0.5/os/ext/CMSIS/include/core_cmFunc.h" 1
 395 0002 72B6     		cpsid i
 396              	@ 0 "" 2
 397              		.thumb
 398              		.syntax unified
 399              	.LBE141:
ARM GAS  /tmp/cc9xlzym.s 			page 8


 400              	.LBE140:
 401              	.LBE139:
 402              	.LBE138:
 403              		.loc 1 126 0
 404 0004 FFF7FEFF 		bl	chMtxLockS
 405              	.LVL37:
 406              	.LBB142:
 407              	.LBB143:
 408              	.LBB144:
 409              	.LBB145:
 410              	.LBB146:
 411              		.loc 3 331 0
 412              		.syntax unified
 413              	@ 331 "ChibiOS_3.0.5/os/ext/CMSIS/include/core_cmFunc.h" 1
 414 0008 62B6     		cpsie i
 415              	@ 0 "" 2
 416              		.thumb
 417              		.syntax unified
 418              	.LBE146:
 419              	.LBE145:
 420              	.LBE144:
 421              	.LBE143:
 422              	.LBE142:
 423              		.loc 1 128 0
 424 000a 08BD     		pop	{r3, pc}
 425              		.cfi_endproc
 426              	.LFE220:
 427              		.size	chMtxLock, .-chMtxLock
 428              		.section	.text.chMtxTryLock,"ax",%progbits
 429              		.align	1
 430              		.p2align 4,,15
 431              		.global	chMtxTryLock
 432              		.syntax unified
 433              		.thumb
 434              		.thumb_func
 435              		.fpu fpv4-sp-d16
 436              		.type	chMtxTryLock, %function
 437              	chMtxTryLock:
 438              	.LFB222:
 439              		.loc 1 255 0
 440              		.cfi_startproc
 441              		@ args = 0, pretend = 0, frame = 0
 442              		@ frame_needed = 0, uses_anonymous_args = 0
 443              		@ link register save eliminated.
 444              	.LVL38:
 445              		.loc 1 255 0
 446 0000 0346     		mov	r3, r0
 447              	.LBB160:
 448              	.LBB161:
 449              	.LBB162:
 450              	.LBB163:
 451              		.loc 3 342 0
 452              		.syntax unified
 453              	@ 342 "ChibiOS_3.0.5/os/ext/CMSIS/include/core_cmFunc.h" 1
 454 0002 72B6     		cpsid i
 455              	@ 0 "" 2
 456              	.LVL39:
ARM GAS  /tmp/cc9xlzym.s 			page 9


 457              		.thumb
 458              		.syntax unified
 459              	.LBE163:
 460              	.LBE162:
 461              	.LBE161:
 462              	.LBE160:
 463              	.LBB164:
 464              	.LBB165:
 465              		.loc 1 287 0
 466 0004 8268     		ldr	r2, [r0, #8]
 467 0006 12B1     		cbz	r2, .L40
 468              		.loc 1 297 0
 469 0008 0020     		movs	r0, #0
 470              	.LVL40:
 471              	.LBE165:
 472              	.LBE164:
 473              	.LBB169:
 474              	.LBB170:
 475              	.LBB171:
 476              	.LBB172:
 477              	.LBB173:
 478              		.loc 3 331 0
 479              		.syntax unified
 480              	@ 331 "ChibiOS_3.0.5/os/ext/CMSIS/include/core_cmFunc.h" 1
 481 000a 62B6     		cpsie i
 482              	@ 0 "" 2
 483              		.thumb
 484              		.syntax unified
 485              	.LBE173:
 486              	.LBE172:
 487              	.LBE171:
 488              	.LBE170:
 489              	.LBE169:
 490              		.loc 1 263 0
 491 000c 7047     		bx	lr
 492              	.LVL41:
 493              	.L40:
 494              	.LBB178:
 495              	.LBB168:
 496              	.LBB166:
 497              	.LBB167:
 498              		.loc 1 305 0
 499 000e 044A     		ldr	r2, .L41
 500 0010 9269     		ldr	r2, [r2, #24]
 501 0012 8260     		str	r2, [r0, #8]
 502              		.loc 1 306 0
 503 0014 116C     		ldr	r1, [r2, #64]
 504 0016 C160     		str	r1, [r0, #12]
 505              		.loc 1 307 0
 506 0018 0120     		movs	r0, #1
 507              	.LVL42:
 508 001a 1364     		str	r3, [r2, #64]
 509              	.LVL43:
 510              	.LBE167:
 511              	.LBE166:
 512              	.LBE168:
 513              	.LBE178:
ARM GAS  /tmp/cc9xlzym.s 			page 10


 514              	.LBB179:
 515              	.LBB177:
 516              	.LBB176:
 517              	.LBB175:
 518              	.LBB174:
 519              		.loc 3 331 0
 520              		.syntax unified
 521              	@ 331 "ChibiOS_3.0.5/os/ext/CMSIS/include/core_cmFunc.h" 1
 522 001c 62B6     		cpsie i
 523              	@ 0 "" 2
 524              		.thumb
 525              		.syntax unified
 526              	.LBE174:
 527              	.LBE175:
 528              	.LBE176:
 529              	.LBE177:
 530              	.LBE179:
 531              		.loc 1 263 0
 532 001e 7047     		bx	lr
 533              	.L42:
 534              		.align	2
 535              	.L41:
 536 0020 00000000 		.word	ch
 537              		.cfi_endproc
 538              	.LFE222:
 539              		.size	chMtxTryLock, .-chMtxTryLock
 540              		.section	.text.chMtxTryLockS,"ax",%progbits
 541              		.align	1
 542              		.p2align 4,,15
 543              		.global	chMtxTryLockS
 544              		.syntax unified
 545              		.thumb
 546              		.thumb_func
 547              		.fpu fpv4-sp-d16
 548              		.type	chMtxTryLockS, %function
 549              	chMtxTryLockS:
 550              	.LFB223:
 551              		.loc 1 282 0
 552              		.cfi_startproc
 553              		@ args = 0, pretend = 0, frame = 0
 554              		@ frame_needed = 0, uses_anonymous_args = 0
 555              		@ link register save eliminated.
 556              	.LVL44:
 557              		.loc 1 287 0
 558 0000 8268     		ldr	r2, [r0, #8]
 559              		.loc 1 282 0
 560 0002 0346     		mov	r3, r0
 561              		.loc 1 287 0
 562 0004 0AB1     		cbz	r2, .L46
 563              		.loc 1 297 0
 564 0006 0020     		movs	r0, #0
 565              	.LVL45:
 566              		.loc 1 309 0
 567 0008 7047     		bx	lr
 568              	.LVL46:
 569              	.L46:
 570              	.LBB182:
ARM GAS  /tmp/cc9xlzym.s 			page 11


 571              	.LBB183:
 572              		.loc 1 305 0
 573 000a 044A     		ldr	r2, .L47
 574 000c 9269     		ldr	r2, [r2, #24]
 575 000e 8260     		str	r2, [r0, #8]
 576              		.loc 1 306 0
 577 0010 116C     		ldr	r1, [r2, #64]
 578 0012 C160     		str	r1, [r0, #12]
 579              		.loc 1 307 0
 580 0014 0120     		movs	r0, #1
 581              	.LVL47:
 582 0016 1364     		str	r3, [r2, #64]
 583              	.LVL48:
 584 0018 7047     		bx	lr
 585              	.L48:
 586 001a 00BF     		.align	2
 587              	.L47:
 588 001c 00000000 		.word	ch
 589              	.LBE183:
 590              	.LBE182:
 591              		.cfi_endproc
 592              	.LFE223:
 593              		.size	chMtxTryLockS, .-chMtxTryLockS
 594              		.section	.text.chMtxUnlock,"ax",%progbits
 595              		.align	1
 596              		.p2align 4,,15
 597              		.global	chMtxUnlock
 598              		.syntax unified
 599              		.thumb
 600              		.thumb_func
 601              		.fpu fpv4-sp-d16
 602              		.type	chMtxUnlock, %function
 603              	chMtxUnlock:
 604              	.LFB224:
 605              		.loc 1 323 0
 606              		.cfi_startproc
 607              		@ args = 0, pretend = 0, frame = 0
 608              		@ frame_needed = 0, uses_anonymous_args = 0
 609              	.LVL49:
 610              		.loc 1 324 0
 611 0000 144B     		ldr	r3, .L60
 612              		.loc 1 323 0
 613 0002 70B5     		push	{r4, r5, r6, lr}
 614              		.cfi_def_cfa_offset 16
 615              		.cfi_offset 4, -16
 616              		.cfi_offset 5, -12
 617              		.cfi_offset 6, -8
 618              		.cfi_offset 14, -4
 619              		.loc 1 324 0
 620 0004 9D69     		ldr	r5, [r3, #24]
 621              	.LVL50:
 622              	.LBB184:
 623              	.LBB185:
 624              	.LBB186:
 625              	.LBB187:
 626              		.loc 3 342 0
 627              		.syntax unified
ARM GAS  /tmp/cc9xlzym.s 			page 12


 628              	@ 342 "ChibiOS_3.0.5/os/ext/CMSIS/include/core_cmFunc.h" 1
 629 0006 72B6     		cpsid i
 630              	@ 0 "" 2
 631              		.thumb
 632              		.syntax unified
 633              	.LBE187:
 634              	.LBE186:
 635              	.LBE185:
 636              	.LBE184:
 637              	.LBB188:
 638              	.LBB189:
 639              	.LBB190:
 640              	.LBB191:
 641              		.loc 2 631 0
 642 0008 0468     		ldr	r4, [r0]
 643              	.LBE191:
 644              	.LBE190:
 645              	.LBE189:
 646              	.LBE188:
 647              		.loc 1 344 0
 648 000a C368     		ldr	r3, [r0, #12]
 649 000c 2B64     		str	r3, [r5, #64]
 650              		.loc 1 347 0
 651 000e 8442     		cmp	r4, r0
 652 0010 1BD0     		beq	.L50
 653              	.LBB192:
 654              		.loc 1 352 0
 655 0012 696C     		ldr	r1, [r5, #68]
 656              	.LVL51:
 657              		.loc 1 354 0
 658 0014 4BB1     		cbz	r3, .L51
 659              	.L53:
 660              	.LVL52:
 661              	.LBB193:
 662              	.LBB194:
 663              	.LBB195:
 664              	.LBB196:
 665              		.loc 2 631 0
 666 0016 1A68     		ldr	r2, [r3]
 667              	.LVL53:
 668              	.LBE196:
 669              	.LBE195:
 670              	.LBE194:
 671              	.LBE193:
 672              		.loc 1 358 0
 673 0018 9342     		cmp	r3, r2
 674 001a 03D0     		beq	.L52
 675 001c 9268     		ldr	r2, [r2, #8]
 676 001e 9142     		cmp	r1, r2
 677 0020 38BF     		it	cc
 678 0022 1146     		movcc	r1, r2
 679              	.LVL54:
 680              	.L52:
 681              		.loc 1 362 0
 682 0024 DB68     		ldr	r3, [r3, #12]
 683              	.LVL55:
 684              		.loc 1 354 0
ARM GAS  /tmp/cc9xlzym.s 			page 13


 685 0026 002B     		cmp	r3, #0
 686 0028 F5D1     		bne	.L53
 687              	.L51:
 688 002a 0346     		mov	r3, r0
 689              	.LVL56:
 690              	.LBB197:
 691              	.LBB198:
 692              		.loc 2 674 0
 693 002c 2268     		ldr	r2, [r4]
 694              	.LBE198:
 695              	.LBE197:
 696              		.loc 1 376 0
 697 002e 266C     		ldr	r6, [r4, #64]
 698              		.loc 1 367 0
 699 0030 A960     		str	r1, [r5, #8]
 700              	.LVL57:
 701              		.loc 1 383 0
 702 0032 2046     		mov	r0, r4
 703              	.LVL58:
 704              	.LBB200:
 705              	.LBB199:
 706              		.loc 2 674 0
 707 0034 1A60     		str	r2, [r3]
 708              		.loc 2 675 0
 709 0036 5360     		str	r3, [r2, #4]
 710              	.LVL59:
 711              	.LBE199:
 712              	.LBE200:
 713              		.loc 1 376 0
 714 0038 C3E90246 		strd	r4, r6, [r3, #8]
 715              		.loc 1 377 0
 716 003c 2364     		str	r3, [r4, #64]
 717              		.loc 1 383 0
 718 003e FFF7FEFF 		bl	chSchReadyI
 719              	.LVL60:
 720              		.loc 1 384 0
 721 0042 FFF7FEFF 		bl	chSchRescheduleS
 722              	.LVL61:
 723              	.LBE192:
 724              	.LBB201:
 725              	.LBB202:
 726              	.LBB203:
 727              	.LBB204:
 728              	.LBB205:
 729              		.loc 3 331 0
 730              		.syntax unified
 731              	@ 331 "ChibiOS_3.0.5/os/ext/CMSIS/include/core_cmFunc.h" 1
 732 0046 62B6     		cpsie i
 733              	@ 0 "" 2
 734              		.thumb
 735              		.syntax unified
 736              	.LBE205:
 737              	.LBE204:
 738              	.LBE203:
 739              	.LBE202:
 740              	.LBE201:
 741              		.loc 1 394 0
ARM GAS  /tmp/cc9xlzym.s 			page 14


 742 0048 70BD     		pop	{r4, r5, r6, pc}
 743              	.LVL62:
 744              	.L50:
 745              		.loc 1 387 0
 746 004a 0023     		movs	r3, #0
 747 004c A360     		str	r3, [r4, #8]
 748              	.LBB210:
 749              	.LBB209:
 750              	.LBB208:
 751              	.LBB207:
 752              	.LBB206:
 753              		.loc 3 331 0
 754              		.syntax unified
 755              	@ 331 "ChibiOS_3.0.5/os/ext/CMSIS/include/core_cmFunc.h" 1
 756 004e 62B6     		cpsie i
 757              	@ 0 "" 2
 758              		.thumb
 759              		.syntax unified
 760              	.LBE206:
 761              	.LBE207:
 762              	.LBE208:
 763              	.LBE209:
 764              	.LBE210:
 765              		.loc 1 394 0
 766 0050 70BD     		pop	{r4, r5, r6, pc}
 767              	.LVL63:
 768              	.L61:
 769 0052 00BF     		.align	2
 770              	.L60:
 771 0054 00000000 		.word	ch
 772              		.cfi_endproc
 773              	.LFE224:
 774              		.size	chMtxUnlock, .-chMtxUnlock
 775              		.section	.text.chMtxUnlockS,"ax",%progbits
 776              		.align	1
 777              		.p2align 4,,15
 778              		.global	chMtxUnlockS
 779              		.syntax unified
 780              		.thumb
 781              		.thumb_func
 782              		.fpu fpv4-sp-d16
 783              		.type	chMtxUnlockS, %function
 784              	chMtxUnlockS:
 785              	.LFB225:
 786              		.loc 1 410 0
 787              		.cfi_startproc
 788              		@ args = 0, pretend = 0, frame = 0
 789              		@ frame_needed = 0, uses_anonymous_args = 0
 790              		@ link register save eliminated.
 791              	.LVL64:
 792              		.loc 1 411 0
 793 0000 124B     		ldr	r3, .L72
 794              		.loc 1 410 0
 795 0002 30B4     		push	{r4, r5}
 796              		.cfi_def_cfa_offset 8
 797              		.cfi_offset 4, -8
 798              		.cfi_offset 5, -4
ARM GAS  /tmp/cc9xlzym.s 			page 15


 799              	.LBB211:
 800              	.LBB212:
 801              	.LBB213:
 802              	.LBB214:
 803              		.loc 2 631 0
 804 0004 0468     		ldr	r4, [r0]
 805              	.LBE214:
 806              	.LBE213:
 807              	.LBE212:
 808              	.LBE211:
 809              		.loc 1 411 0
 810 0006 9D69     		ldr	r5, [r3, #24]
 811              	.LVL65:
 812              		.loc 1 430 0
 813 0008 C368     		ldr	r3, [r0, #12]
 814 000a 2B64     		str	r3, [r5, #64]
 815              		.loc 1 433 0
 816 000c 8442     		cmp	r4, r0
 817 000e 18D0     		beq	.L63
 818 0010 0146     		mov	r1, r0
 819              	.LBB215:
 820              		.loc 1 438 0
 821 0012 686C     		ldr	r0, [r5, #68]
 822              	.LVL66:
 823              		.loc 1 440 0
 824 0014 4BB1     		cbz	r3, .L64
 825              	.L66:
 826              	.LVL67:
 827              	.LBB216:
 828              	.LBB217:
 829              	.LBB218:
 830              	.LBB219:
 831              		.loc 2 631 0
 832 0016 1A68     		ldr	r2, [r3]
 833              	.LVL68:
 834              	.LBE219:
 835              	.LBE218:
 836              	.LBE217:
 837              	.LBE216:
 838              		.loc 1 444 0
 839 0018 9342     		cmp	r3, r2
 840 001a 03D0     		beq	.L65
 841 001c 9268     		ldr	r2, [r2, #8]
 842 001e 9042     		cmp	r0, r2
 843 0020 38BF     		it	cc
 844 0022 1046     		movcc	r0, r2
 845              	.LVL69:
 846              	.L65:
 847              		.loc 1 448 0
 848 0024 DB68     		ldr	r3, [r3, #12]
 849              	.LVL70:
 850              		.loc 1 440 0
 851 0026 002B     		cmp	r3, #0
 852 0028 F5D1     		bne	.L66
 853              	.L64:
 854              		.loc 1 462 0
 855 002a 226C     		ldr	r2, [r4, #64]
ARM GAS  /tmp/cc9xlzym.s 			page 16


 856              	.LBB220:
 857              	.LBB221:
 858              		.loc 2 674 0
 859 002c 2368     		ldr	r3, [r4]
 860              	.LVL71:
 861              	.LBE221:
 862              	.LBE220:
 863              		.loc 1 453 0
 864 002e A860     		str	r0, [r5, #8]
 865              	.LVL72:
 866              	.LBB224:
 867              	.LBB222:
 868              		.loc 2 674 0
 869 0030 0B60     		str	r3, [r1]
 870              	.LBE222:
 871              	.LBE224:
 872              		.loc 1 464 0
 873 0032 2046     		mov	r0, r4
 874              	.LVL73:
 875              	.LBB225:
 876              	.LBB223:
 877              		.loc 2 675 0
 878 0034 5960     		str	r1, [r3, #4]
 879              	.LVL74:
 880              	.LBE223:
 881              	.LBE225:
 882              		.loc 1 462 0
 883 0036 C1E90242 		strd	r4, r2, [r1, #8]
 884              		.loc 1 463 0
 885 003a 2164     		str	r1, [r4, #64]
 886              	.LBE215:
 887              		.loc 1 472 0
 888 003c 30BC     		pop	{r4, r5}
 889              		.cfi_remember_state
 890              		.cfi_restore 5
 891              		.cfi_restore 4
 892              		.cfi_def_cfa_offset 0
 893              	.LVL75:
 894              	.LBB226:
 895              		.loc 1 464 0
 896 003e FFF7FEBF 		b	chSchReadyI
 897              	.LVL76:
 898              	.L63:
 899              		.cfi_restore_state
 900              	.LBE226:
 901              		.loc 1 467 0
 902 0042 0023     		movs	r3, #0
 903 0044 A360     		str	r3, [r4, #8]
 904              		.loc 1 472 0
 905 0046 30BC     		pop	{r4, r5}
 906              		.cfi_restore 5
 907              		.cfi_restore 4
 908              		.cfi_def_cfa_offset 0
 909              	.LVL77:
 910 0048 7047     		bx	lr
 911              	.L73:
 912 004a 00BF     		.align	2
ARM GAS  /tmp/cc9xlzym.s 			page 17


 913              	.L72:
 914 004c 00000000 		.word	ch
 915              		.cfi_endproc
 916              	.LFE225:
 917              		.size	chMtxUnlockS, .-chMtxUnlockS
 918              		.section	.text.chMtxUnlockAll,"ax",%progbits
 919              		.align	1
 920              		.p2align 4,,15
 921              		.global	chMtxUnlockAll
 922              		.syntax unified
 923              		.thumb
 924              		.thumb_func
 925              		.fpu fpv4-sp-d16
 926              		.type	chMtxUnlockAll, %function
 927              	chMtxUnlockAll:
 928              	.LFB226:
 929              		.loc 1 485 0
 930              		.cfi_startproc
 931              		@ args = 0, pretend = 0, frame = 0
 932              		@ frame_needed = 0, uses_anonymous_args = 0
 933              		.loc 1 486 0
 934 0000 114B     		ldr	r3, .L85
 935              		.loc 1 485 0
 936 0002 70B5     		push	{r4, r5, r6, lr}
 937              		.cfi_def_cfa_offset 16
 938              		.cfi_offset 4, -16
 939              		.cfi_offset 5, -12
 940              		.cfi_offset 6, -8
 941              		.cfi_offset 14, -4
 942              		.loc 1 486 0
 943 0004 9C69     		ldr	r4, [r3, #24]
 944              	.LVL78:
 945              	.LBB227:
 946              	.LBB228:
 947              	.LBB229:
 948              	.LBB230:
 949              		.loc 3 342 0
 950              		.syntax unified
 951              	@ 342 "ChibiOS_3.0.5/os/ext/CMSIS/include/core_cmFunc.h" 1
 952 0006 72B6     		cpsid i
 953              	@ 0 "" 2
 954              		.thumb
 955              		.syntax unified
 956              	.LBE230:
 957              	.LBE229:
 958              	.LBE228:
 959              	.LBE227:
 960              		.loc 1 489 0
 961 0008 236C     		ldr	r3, [r4, #64]
 962 000a B3B1     		cbz	r3, .L75
 963              	.LBB231:
 964              		.loc 1 507 0
 965 000c 0026     		movs	r6, #0
 966              	.L78:
 967              	.LVL79:
 968              	.LBB232:
 969              	.LBB233:
ARM GAS  /tmp/cc9xlzym.s 			page 18


 970              	.LBB234:
 971              	.LBB235:
 972              		.loc 2 631 0
 973 000e 1A68     		ldr	r2, [r3]
 974              	.LVL80:
 975              	.LBE235:
 976              	.LBE234:
 977              	.LBE233:
 978              	.LBE232:
 979              		.loc 1 492 0
 980 0010 D968     		ldr	r1, [r3, #12]
 981 0012 2164     		str	r1, [r4, #64]
 982              	.LVL81:
 983              		.loc 1 493 0
 984 0014 9342     		cmp	r3, r2
 985              	.LBB236:
 986              		.loc 1 501 0
 987 0016 1046     		mov	r0, r2
 988              	.LBE236:
 989              		.loc 1 493 0
 990 0018 11D0     		beq	.L76
 991              	.LBB239:
 992              		.loc 1 499 0
 993 001a 156C     		ldr	r5, [r2, #64]
 994              	.LBB237:
 995              	.LBB238:
 996              		.loc 2 674 0
 997 001c 1168     		ldr	r1, [r2]
 998 001e 1960     		str	r1, [r3]
 999              		.loc 2 675 0
 1000 0020 4B60     		str	r3, [r1, #4]
 1001              	.LVL82:
 1002              	.LBE238:
 1003              	.LBE237:
 1004              		.loc 1 499 0
 1005 0022 C3E90225 		strd	r2, r5, [r3, #8]
 1006              		.loc 1 500 0
 1007 0026 1364     		str	r3, [r2, #64]
 1008              		.loc 1 501 0
 1009 0028 FFF7FEFF 		bl	chSchReadyI
 1010              	.LVL83:
 1011 002c 236C     		ldr	r3, [r4, #64]
 1012              	.LBE239:
 1013              	.LBE231:
 1014              		.loc 1 509 0
 1015 002e 002B     		cmp	r3, #0
 1016 0030 EDD1     		bne	.L78
 1017              	.L84:
 1018              		.loc 1 510 0
 1019 0032 636C     		ldr	r3, [r4, #68]
 1020 0034 A360     		str	r3, [r4, #8]
 1021              		.loc 1 511 0
 1022 0036 FFF7FEFF 		bl	chSchRescheduleS
 1023              	.LVL84:
 1024              	.L75:
 1025              	.LBB240:
 1026              	.LBB241:
ARM GAS  /tmp/cc9xlzym.s 			page 19


 1027              	.LBB242:
 1028              	.LBB243:
 1029              	.LBB244:
 1030              		.loc 3 331 0
 1031              		.syntax unified
 1032              	@ 331 "ChibiOS_3.0.5/os/ext/CMSIS/include/core_cmFunc.h" 1
 1033 003a 62B6     		cpsie i
 1034              	@ 0 "" 2
 1035              		.thumb
 1036              		.syntax unified
 1037              	.LBE244:
 1038              	.LBE243:
 1039              	.LBE242:
 1040              	.LBE241:
 1041              	.LBE240:
 1042              		.loc 1 514 0
 1043 003c 70BD     		pop	{r4, r5, r6, pc}
 1044              	.LVL85:
 1045              	.L76:
 1046              	.LBB245:
 1047              		.loc 1 507 0
 1048 003e 9E60     		str	r6, [r3, #8]
 1049 0040 0B46     		mov	r3, r1
 1050              	.LVL86:
 1051              	.LBE245:
 1052              		.loc 1 509 0
 1053 0042 002B     		cmp	r3, #0
 1054 0044 E3D1     		bne	.L78
 1055 0046 F4E7     		b	.L84
 1056              	.L86:
 1057              		.align	2
 1058              	.L85:
 1059 0048 00000000 		.word	ch
 1060              		.cfi_endproc
 1061              	.LFE226:
 1062              		.size	chMtxUnlockAll, .-chMtxUnlockAll
 1063              		.text
 1064              	.Letext0:
 1065              		.file 4 "/usr/arm-none-eabi/include/machine/_default_types.h"
 1066              		.file 5 "/usr/arm-none-eabi/include/sys/_stdint.h"
 1067              		.file 6 "ChibiOS_3.0.5/os/rt/ports/ARMCMx/compilers/GCC/chtypes.h"
 1068              		.file 7 "ChibiOS_3.0.5/os/rt/include/chsystypes.h"
 1069              		.file 8 "ChibiOS_3.0.5/os/ext/CMSIS/include/core_cm4.h"
 1070              		.file 9 "ChibiOS_3.0.5/os/ext/CMSIS/ST/system_stm32f4xx.h"
 1071              		.file 10 "ChibiOS_3.0.5/os/rt/ports/ARMCMx/chcore.h"
 1072              		.file 11 "ChibiOS_3.0.5/os/rt/ports/ARMCMx/chcore_v7m.h"
 1073              		.file 12 "ChibiOS_3.0.5/os/rt/include/chtm.h"
 1074              		.file 13 "ChibiOS_3.0.5/os/rt/include/chsem.h"
 1075              		.file 14 "ChibiOS_3.0.5/os/rt/include/chmtx.h"
 1076              		.file 15 "ChibiOS_3.0.5/os/rt/include/chregistry.h"
 1077              		.file 16 "ChibiOS_3.0.5/os/rt/include/chsys.h"
 1078              		.section	.debug_info,"",%progbits
 1079              	.Ldebug_info0:
 1080 0000 83110000 		.4byte	0x1183
 1081 0004 0400     		.2byte	0x4
 1082 0006 00000000 		.4byte	.Ldebug_abbrev0
 1083 000a 04       		.byte	0x4
ARM GAS  /tmp/cc9xlzym.s 			page 20


 1084 000b 01       		.uleb128 0x1
 1085 000c 75000000 		.4byte	.LASF154
 1086 0010 0C       		.byte	0xc
 1087 0011 55000000 		.4byte	.LASF155
 1088 0015 3A060000 		.4byte	.LASF156
 1089 0019 90010000 		.4byte	.Ldebug_ranges0+0x190
 1090 001d 00000000 		.4byte	0
 1091 0021 00000000 		.4byte	.Ldebug_line0
 1092 0025 02       		.uleb128 0x2
 1093 0026 04       		.byte	0x4
 1094 0027 05       		.byte	0x5
 1095 0028 696E7400 		.ascii	"int\000"
 1096 002c 03       		.uleb128 0x3
 1097 002d 04       		.byte	0x4
 1098 002e 07       		.byte	0x7
 1099 002f 54030000 		.4byte	.LASF0
 1100 0033 03       		.uleb128 0x3
 1101 0034 01       		.byte	0x1
 1102 0035 06       		.byte	0x6
 1103 0036 3B020000 		.4byte	.LASF1
 1104 003a 04       		.uleb128 0x4
 1105 003b 30000000 		.4byte	.LASF4
 1106 003f 04       		.byte	0x4
 1107 0040 2B       		.byte	0x2b
 1108 0041 45000000 		.4byte	0x45
 1109 0045 03       		.uleb128 0x3
 1110 0046 01       		.byte	0x1
 1111 0047 08       		.byte	0x8
 1112 0048 6B050000 		.4byte	.LASF2
 1113 004c 03       		.uleb128 0x3
 1114 004d 02       		.byte	0x2
 1115 004e 05       		.byte	0x5
 1116 004f 8B050000 		.4byte	.LASF3
 1117 0053 04       		.uleb128 0x4
 1118 0054 9F060000 		.4byte	.LASF5
 1119 0058 04       		.byte	0x4
 1120 0059 39       		.byte	0x39
 1121 005a 5E000000 		.4byte	0x5e
 1122 005e 03       		.uleb128 0x3
 1123 005f 02       		.byte	0x2
 1124 0060 07       		.byte	0x7
 1125 0061 B3030000 		.4byte	.LASF6
 1126 0065 04       		.uleb128 0x4
 1127 0066 37040000 		.4byte	.LASF7
 1128 006a 04       		.byte	0x4
 1129 006b 4D       		.byte	0x4d
 1130 006c 70000000 		.4byte	0x70
 1131 0070 03       		.uleb128 0x3
 1132 0071 04       		.byte	0x4
 1133 0072 05       		.byte	0x5
 1134 0073 9B020000 		.4byte	.LASF8
 1135 0077 04       		.uleb128 0x4
 1136 0078 E3060000 		.4byte	.LASF9
 1137 007c 04       		.byte	0x4
 1138 007d 4F       		.byte	0x4f
 1139 007e 82000000 		.4byte	0x82
 1140 0082 03       		.uleb128 0x3
ARM GAS  /tmp/cc9xlzym.s 			page 21


 1141 0083 04       		.byte	0x4
 1142 0084 07       		.byte	0x7
 1143 0085 81060000 		.4byte	.LASF10
 1144 0089 03       		.uleb128 0x3
 1145 008a 08       		.byte	0x8
 1146 008b 05       		.byte	0x5
 1147 008c 24030000 		.4byte	.LASF11
 1148 0090 04       		.uleb128 0x4
 1149 0091 FA040000 		.4byte	.LASF12
 1150 0095 04       		.byte	0x4
 1151 0096 69       		.byte	0x69
 1152 0097 9B000000 		.4byte	0x9b
 1153 009b 03       		.uleb128 0x3
 1154 009c 08       		.byte	0x8
 1155 009d 07       		.byte	0x7
 1156 009e A3010000 		.4byte	.LASF13
 1157 00a2 04       		.uleb128 0x4
 1158 00a3 5F070000 		.4byte	.LASF14
 1159 00a7 05       		.byte	0x5
 1160 00a8 18       		.byte	0x18
 1161 00a9 3A000000 		.4byte	0x3a
 1162 00ad 04       		.uleb128 0x4
 1163 00ae 69030000 		.4byte	.LASF15
 1164 00b2 05       		.byte	0x5
 1165 00b3 24       		.byte	0x24
 1166 00b4 53000000 		.4byte	0x53
 1167 00b8 04       		.uleb128 0x4
 1168 00b9 63050000 		.4byte	.LASF16
 1169 00bd 05       		.byte	0x5
 1170 00be 2C       		.byte	0x2c
 1171 00bf 65000000 		.4byte	0x65
 1172 00c3 05       		.uleb128 0x5
 1173 00c4 B8000000 		.4byte	0xb8
 1174 00c8 04       		.uleb128 0x4
 1175 00c9 40060000 		.4byte	.LASF17
 1176 00cd 05       		.byte	0x5
 1177 00ce 30       		.byte	0x30
 1178 00cf 77000000 		.4byte	0x77
 1179 00d3 04       		.uleb128 0x4
 1180 00d4 27000000 		.4byte	.LASF18
 1181 00d8 05       		.byte	0x5
 1182 00d9 3C       		.byte	0x3c
 1183 00da 90000000 		.4byte	0x90
 1184 00de 04       		.uleb128 0x4
 1185 00df 6A040000 		.4byte	.LASF19
 1186 00e3 06       		.byte	0x6
 1187 00e4 45       		.byte	0x45
 1188 00e5 C8000000 		.4byte	0xc8
 1189 00e9 04       		.uleb128 0x4
 1190 00ea B4050000 		.4byte	.LASF20
 1191 00ee 06       		.byte	0x6
 1192 00ef 48       		.byte	0x48
 1193 00f0 A2000000 		.4byte	0xa2
 1194 00f4 04       		.uleb128 0x4
 1195 00f5 B2020000 		.4byte	.LASF21
 1196 00f9 06       		.byte	0x6
 1197 00fa 49       		.byte	0x49
ARM GAS  /tmp/cc9xlzym.s 			page 22


 1198 00fb A2000000 		.4byte	0xa2
 1199 00ff 04       		.uleb128 0x4
 1200 0100 03030000 		.4byte	.LASF22
 1201 0104 06       		.byte	0x6
 1202 0105 4A       		.byte	0x4a
 1203 0106 A2000000 		.4byte	0xa2
 1204 010a 04       		.uleb128 0x4
 1205 010b 87020000 		.4byte	.LASF23
 1206 010f 06       		.byte	0x6
 1207 0110 4B       		.byte	0x4b
 1208 0111 A2000000 		.4byte	0xa2
 1209 0115 04       		.uleb128 0x4
 1210 0116 35050000 		.4byte	.LASF24
 1211 011a 06       		.byte	0x6
 1212 011b 4C       		.byte	0x4c
 1213 011c C8000000 		.4byte	0xc8
 1214 0120 04       		.uleb128 0x4
 1215 0121 DB030000 		.4byte	.LASF25
 1216 0125 06       		.byte	0x6
 1217 0126 4D       		.byte	0x4d
 1218 0127 B8000000 		.4byte	0xb8
 1219 012b 04       		.uleb128 0x4
 1220 012c 1E040000 		.4byte	.LASF26
 1221 0130 06       		.byte	0x6
 1222 0131 4F       		.byte	0x4f
 1223 0132 C8000000 		.4byte	0xc8
 1224 0136 04       		.uleb128 0x4
 1225 0137 41030000 		.4byte	.LASF27
 1226 013b 06       		.byte	0x6
 1227 013c 51       		.byte	0x51
 1228 013d B8000000 		.4byte	0xb8
 1229 0141 04       		.uleb128 0x4
 1230 0142 C5060000 		.4byte	.LASF28
 1231 0146 07       		.byte	0x7
 1232 0147 33       		.byte	0x33
 1233 0148 C8000000 		.4byte	0xc8
 1234 014c 05       		.uleb128 0x5
 1235 014d 41010000 		.4byte	0x141
 1236 0151 04       		.uleb128 0x4
 1237 0152 AA060000 		.4byte	.LASF29
 1238 0156 07       		.byte	0x7
 1239 0157 3F       		.byte	0x3f
 1240 0158 5C010000 		.4byte	0x15c
 1241 015c 06       		.uleb128 0x6
 1242 015d C6030000 		.4byte	.LASF53
 1243 0161 50       		.byte	0x50
 1244 0162 02       		.byte	0x2
 1245 0163 C2       		.byte	0xc2
 1246 0164 7A020000 		.4byte	0x27a
 1247 0168 07       		.uleb128 0x7
 1248 0169 AD050000 		.4byte	.LASF30
 1249 016d 02       		.byte	0x2
 1250 016e C3       		.byte	0xc3
 1251 016f 85020000 		.4byte	0x285
 1252 0173 00       		.byte	0
 1253 0174 07       		.uleb128 0x7
 1254 0175 2E050000 		.4byte	.LASF31
ARM GAS  /tmp/cc9xlzym.s 			page 23


 1255 0179 02       		.byte	0x2
 1256 017a C5       		.byte	0xc5
 1257 017b 85020000 		.4byte	0x285
 1258 017f 04       		.byte	0x4
 1259 0180 07       		.uleb128 0x7
 1260 0181 10020000 		.4byte	.LASF32
 1261 0185 02       		.byte	0x2
 1262 0186 C7       		.byte	0xc7
 1263 0187 15010000 		.4byte	0x115
 1264 018b 08       		.byte	0x8
 1265 018c 07       		.uleb128 0x7
 1266 018d B9040000 		.4byte	.LASF33
 1267 0191 02       		.byte	0x2
 1268 0192 C8       		.byte	0xc8
 1269 0193 CA040000 		.4byte	0x4ca
 1270 0197 0C       		.byte	0xc
 1271 0198 07       		.uleb128 0x7
 1272 0199 E2020000 		.4byte	.LASF34
 1273 019d 02       		.byte	0x2
 1274 019e CA       		.byte	0xca
 1275 019f 85020000 		.4byte	0x285
 1276 01a3 10       		.byte	0x10
 1277 01a4 07       		.uleb128 0x7
 1278 01a5 AB040000 		.4byte	.LASF35
 1279 01a9 02       		.byte	0x2
 1280 01aa CB       		.byte	0xcb
 1281 01ab 85020000 		.4byte	0x285
 1282 01af 14       		.byte	0x14
 1283 01b0 07       		.uleb128 0x7
 1284 01b1 81070000 		.4byte	.LASF36
 1285 01b5 02       		.byte	0x2
 1286 01b6 D2       		.byte	0xd2
 1287 01b7 0F070000 		.4byte	0x70f
 1288 01bb 18       		.byte	0x18
 1289 01bc 07       		.uleb128 0x7
 1290 01bd D0040000 		.4byte	.LASF37
 1291 01c1 02       		.byte	0x2
 1292 01c2 D8       		.byte	0xd8
 1293 01c3 26070000 		.4byte	0x726
 1294 01c7 1C       		.byte	0x1c
 1295 01c8 07       		.uleb128 0x7
 1296 01c9 79050000 		.4byte	.LASF38
 1297 01cd 02       		.byte	0x2
 1298 01ce DD       		.byte	0xdd
 1299 01cf F4000000 		.4byte	0xf4
 1300 01d3 20       		.byte	0x20
 1301 01d4 07       		.uleb128 0x7
 1302 01d5 CB050000 		.4byte	.LASF39
 1303 01d9 02       		.byte	0x2
 1304 01da E1       		.byte	0xe1
 1305 01db E9000000 		.4byte	0xe9
 1306 01df 21       		.byte	0x21
 1307 01e0 07       		.uleb128 0x7
 1308 01e1 3C070000 		.4byte	.LASF40
 1309 01e5 02       		.byte	0x2
 1310 01e6 E6       		.byte	0xe6
 1311 01e7 FF000000 		.4byte	0xff
ARM GAS  /tmp/cc9xlzym.s 			page 24


 1312 01eb 22       		.byte	0x22
 1313 01ec 07       		.uleb128 0x7
 1314 01ed 95050000 		.4byte	.LASF41
 1315 01f1 02       		.byte	0x2
 1316 01f2 EC       		.byte	0xec
 1317 01f3 0A010000 		.4byte	0x10a
 1318 01f7 23       		.byte	0x23
 1319 01f8 07       		.uleb128 0x7
 1320 01f9 82030000 		.4byte	.LASF42
 1321 01fd 02       		.byte	0x2
 1322 01fe F3       		.byte	0xf3
 1323 01ff 4C010000 		.4byte	0x14c
 1324 0203 24       		.byte	0x24
 1325 0204 08       		.uleb128 0x8
 1326 0205 705F7500 		.ascii	"p_u\000"
 1327 0209 02       		.byte	0x2
 1328 020a 3101     		.2byte	0x131
 1329 020c 4A060000 		.4byte	0x64a
 1330 0210 28       		.byte	0x28
 1331 0211 09       		.uleb128 0x9
 1332 0212 60040000 		.4byte	.LASF43
 1333 0216 02       		.byte	0x2
 1334 0217 3601     		.2byte	0x136
 1335 0219 8B020000 		.4byte	0x28b
 1336 021d 2C       		.byte	0x2c
 1337 021e 09       		.uleb128 0x9
 1338 021f 99030000 		.4byte	.LASF44
 1339 0223 02       		.byte	0x2
 1340 0224 3C01     		.2byte	0x13c
 1341 0226 AF020000 		.4byte	0x2af
 1342 022a 30       		.byte	0x30
 1343 022b 09       		.uleb128 0x9
 1344 022c 1B070000 		.4byte	.LASF45
 1345 0230 02       		.byte	0x2
 1346 0231 4001     		.2byte	0x140
 1347 0233 20010000 		.4byte	0x120
 1348 0237 38       		.byte	0x38
 1349 0238 09       		.uleb128 0x9
 1350 0239 2F060000 		.4byte	.LASF46
 1351 023d 02       		.byte	0x2
 1352 023e 4601     		.2byte	0x146
 1353 0240 2B010000 		.4byte	0x12b
 1354 0244 3C       		.byte	0x3c
 1355 0245 09       		.uleb128 0x9
 1356 0246 81050000 		.4byte	.LASF47
 1357 024a 02       		.byte	0x2
 1358 024b 4D01     		.2byte	0x14d
 1359 024d 09070000 		.4byte	0x709
 1360 0251 40       		.byte	0x40
 1361 0252 09       		.uleb128 0x9
 1362 0253 CF060000 		.4byte	.LASF48
 1363 0257 02       		.byte	0x2
 1364 0258 5101     		.2byte	0x151
 1365 025a 15010000 		.4byte	0x115
 1366 025e 44       		.byte	0x44
 1367 025f 09       		.uleb128 0x9
 1368 0260 64020000 		.4byte	.LASF49
ARM GAS  /tmp/cc9xlzym.s 			page 25


 1369 0264 02       		.byte	0x2
 1370 0265 5801     		.2byte	0x158
 1371 0267 67030000 		.4byte	0x367
 1372 026b 48       		.byte	0x48
 1373 026c 09       		.uleb128 0x9
 1374 026d 4A070000 		.4byte	.LASF50
 1375 0271 02       		.byte	0x2
 1376 0272 6201     		.2byte	0x162
 1377 0274 25000000 		.4byte	0x25
 1378 0278 4C       		.byte	0x4c
 1379 0279 00       		.byte	0
 1380 027a 04       		.uleb128 0x4
 1381 027b 67070000 		.4byte	.LASF51
 1382 027f 07       		.byte	0x7
 1383 0280 44       		.byte	0x44
 1384 0281 85020000 		.4byte	0x285
 1385 0285 0A       		.uleb128 0xa
 1386 0286 04       		.byte	0x4
 1387 0287 51010000 		.4byte	0x151
 1388 028b 04       		.uleb128 0x4
 1389 028c 88070000 		.4byte	.LASF52
 1390 0290 07       		.byte	0x7
 1391 0291 49       		.byte	0x49
 1392 0292 96020000 		.4byte	0x296
 1393 0296 06       		.uleb128 0x6
 1394 0297 69060000 		.4byte	.LASF54
 1395 029b 04       		.byte	0x4
 1396 029c 02       		.byte	0x2
 1397 029d B0       		.byte	0xb0
 1398 029e AF020000 		.4byte	0x2af
 1399 02a2 07       		.uleb128 0x7
 1400 02a3 AD050000 		.4byte	.LASF30
 1401 02a7 02       		.byte	0x2
 1402 02a8 B1       		.byte	0xb1
 1403 02a9 85020000 		.4byte	0x285
 1404 02ad 00       		.byte	0
 1405 02ae 00       		.byte	0
 1406 02af 04       		.uleb128 0x4
 1407 02b0 E6050000 		.4byte	.LASF55
 1408 02b4 07       		.byte	0x7
 1409 02b5 50       		.byte	0x50
 1410 02b6 BF020000 		.4byte	0x2bf
 1411 02ba 0B       		.uleb128 0xb
 1412 02bb AF020000 		.4byte	0x2af
 1413 02bf 06       		.uleb128 0x6
 1414 02c0 FF010000 		.4byte	.LASF56
 1415 02c4 08       		.byte	0x8
 1416 02c5 02       		.byte	0x2
 1417 02c6 B7       		.byte	0xb7
 1418 02c7 E4020000 		.4byte	0x2e4
 1419 02cb 07       		.uleb128 0x7
 1420 02cc AD050000 		.4byte	.LASF30
 1421 02d0 02       		.byte	0x2
 1422 02d1 B8       		.byte	0xb8
 1423 02d2 85020000 		.4byte	0x285
 1424 02d6 00       		.byte	0
 1425 02d7 07       		.uleb128 0x7
ARM GAS  /tmp/cc9xlzym.s 			page 26


 1426 02d8 2E050000 		.4byte	.LASF31
 1427 02dc 02       		.byte	0x2
 1428 02dd B9       		.byte	0xb9
 1429 02de 85020000 		.4byte	0x285
 1430 02e2 04       		.byte	0x4
 1431 02e3 00       		.byte	0
 1432 02e4 04       		.uleb128 0x4
 1433 02e5 0D000000 		.4byte	.LASF57
 1434 02e9 07       		.byte	0x7
 1435 02ea 57       		.byte	0x57
 1436 02eb EF020000 		.4byte	0x2ef
 1437 02ef 0C       		.uleb128 0xc
 1438 02f0 10040000 		.4byte	.LASF58
 1439 02f4 1C       		.byte	0x1c
 1440 02f5 02       		.byte	0x2
 1441 02f6 9001     		.2byte	0x190
 1442 02f8 4B030000 		.4byte	0x34b
 1443 02fc 09       		.uleb128 0x9
 1444 02fd 55060000 		.4byte	.LASF59
 1445 0301 02       		.byte	0x2
 1446 0302 9101     		.2byte	0x191
 1447 0304 AF020000 		.4byte	0x2af
 1448 0308 00       		.byte	0
 1449 0309 09       		.uleb128 0x9
 1450 030a 9F050000 		.4byte	.LASF60
 1451 030e 02       		.byte	0x2
 1452 030f 9201     		.2byte	0x192
 1453 0311 15010000 		.4byte	0x115
 1454 0315 08       		.byte	0x8
 1455 0316 09       		.uleb128 0x9
 1456 0317 B3040000 		.4byte	.LASF61
 1457 031b 02       		.byte	0x2
 1458 031c 9401     		.2byte	0x194
 1459 031e CA040000 		.4byte	0x4ca
 1460 0322 0C       		.byte	0xc
 1461 0323 09       		.uleb128 0x9
 1462 0324 0B030000 		.4byte	.LASF62
 1463 0328 02       		.byte	0x2
 1464 0329 9701     		.2byte	0x197
 1465 032b 85020000 		.4byte	0x285
 1466 032f 10       		.byte	0x10
 1467 0330 09       		.uleb128 0x9
 1468 0331 E5040000 		.4byte	.LASF63
 1469 0335 02       		.byte	0x2
 1470 0336 9801     		.2byte	0x198
 1471 0338 85020000 		.4byte	0x285
 1472 033c 14       		.byte	0x14
 1473 033d 09       		.uleb128 0x9
 1474 033e DB040000 		.4byte	.LASF64
 1475 0342 02       		.byte	0x2
 1476 0343 9B01     		.2byte	0x19b
 1477 0345 85020000 		.4byte	0x285
 1478 0349 18       		.byte	0x18
 1479 034a 00       		.byte	0
 1480 034b 04       		.uleb128 0x4
 1481 034c DA060000 		.4byte	.LASF65
 1482 0350 07       		.byte	0x7
ARM GAS  /tmp/cc9xlzym.s 			page 27


 1483 0351 5C       		.byte	0x5c
 1484 0352 56030000 		.4byte	0x356
 1485 0356 0A       		.uleb128 0xa
 1486 0357 04       		.byte	0x4
 1487 0358 5C030000 		.4byte	0x35c
 1488 035c 0D       		.uleb128 0xd
 1489 035d 67030000 		.4byte	0x367
 1490 0361 0E       		.uleb128 0xe
 1491 0362 67030000 		.4byte	0x367
 1492 0366 00       		.byte	0
 1493 0367 0F       		.uleb128 0xf
 1494 0368 04       		.byte	0x4
 1495 0369 04       		.uleb128 0x4
 1496 036a 1E050000 		.4byte	.LASF66
 1497 036e 07       		.byte	0x7
 1498 036f 61       		.byte	0x61
 1499 0370 74030000 		.4byte	0x374
 1500 0374 0C       		.uleb128 0xc
 1501 0375 F6050000 		.4byte	.LASF67
 1502 0379 14       		.byte	0x14
 1503 037a 02       		.byte	0x2
 1504 037b 6B01     		.2byte	0x16b
 1505 037d C3030000 		.4byte	0x3c3
 1506 0381 09       		.uleb128 0x9
 1507 0382 61030000 		.4byte	.LASF68
 1508 0386 02       		.byte	0x2
 1509 0387 6C01     		.2byte	0x16c
 1510 0389 2C070000 		.4byte	0x72c
 1511 038d 00       		.byte	0
 1512 038e 09       		.uleb128 0x9
 1513 038f 1C030000 		.4byte	.LASF69
 1514 0393 02       		.byte	0x2
 1515 0394 6D01     		.2byte	0x16d
 1516 0396 2C070000 		.4byte	0x72c
 1517 039a 04       		.byte	0x4
 1518 039b 09       		.uleb128 0x9
 1519 039c 90030000 		.4byte	.LASF70
 1520 03a0 02       		.byte	0x2
 1521 03a1 6E01     		.2byte	0x16e
 1522 03a3 41010000 		.4byte	0x141
 1523 03a7 08       		.byte	0x8
 1524 03a8 09       		.uleb128 0x9
 1525 03a9 E9070000 		.4byte	.LASF71
 1526 03ad 02       		.byte	0x2
 1527 03ae 6F01     		.2byte	0x16f
 1528 03b0 4B030000 		.4byte	0x34b
 1529 03b4 0C       		.byte	0xc
 1530 03b5 09       		.uleb128 0x9
 1531 03b6 21070000 		.4byte	.LASF72
 1532 03ba 02       		.byte	0x2
 1533 03bb 7101     		.2byte	0x171
 1534 03bd 67030000 		.4byte	0x367
 1535 03c1 10       		.byte	0x10
 1536 03c2 00       		.byte	0
 1537 03c3 04       		.uleb128 0x4
 1538 03c4 DC010000 		.4byte	.LASF73
 1539 03c8 07       		.byte	0x7
ARM GAS  /tmp/cc9xlzym.s 			page 28


 1540 03c9 66       		.byte	0x66
 1541 03ca CE030000 		.4byte	0x3ce
 1542 03ce 0C       		.uleb128 0xc
 1543 03cf 72040000 		.4byte	.LASF74
 1544 03d3 10       		.byte	0x10
 1545 03d4 02       		.byte	0x2
 1546 03d5 7B01     		.2byte	0x17b
 1547 03d7 10040000 		.4byte	0x410
 1548 03db 09       		.uleb128 0x9
 1549 03dc 61030000 		.4byte	.LASF68
 1550 03e0 02       		.byte	0x2
 1551 03e1 7C01     		.2byte	0x17c
 1552 03e3 2C070000 		.4byte	0x72c
 1553 03e7 00       		.byte	0
 1554 03e8 09       		.uleb128 0x9
 1555 03e9 1C030000 		.4byte	.LASF69
 1556 03ed 02       		.byte	0x2
 1557 03ee 7E01     		.2byte	0x17e
 1558 03f0 2C070000 		.4byte	0x72c
 1559 03f4 04       		.byte	0x4
 1560 03f5 09       		.uleb128 0x9
 1561 03f6 90030000 		.4byte	.LASF70
 1562 03fa 02       		.byte	0x2
 1563 03fb 8001     		.2byte	0x180
 1564 03fd 41010000 		.4byte	0x141
 1565 0401 08       		.byte	0x8
 1566 0402 09       		.uleb128 0x9
 1567 0403 24020000 		.4byte	.LASF75
 1568 0407 02       		.byte	0x2
 1569 0408 8201     		.2byte	0x182
 1570 040a 4C010000 		.4byte	0x14c
 1571 040e 0C       		.byte	0xc
 1572 040f 00       		.byte	0
 1573 0410 04       		.uleb128 0x4
 1574 0411 46000000 		.4byte	.LASF76
 1575 0415 07       		.byte	0x7
 1576 0416 6B       		.byte	0x6b
 1577 0417 1B040000 		.4byte	0x41b
 1578 041b 0C       		.uleb128 0xc
 1579 041c 4D050000 		.4byte	.LASF77
 1580 0420 04       		.byte	0x4
 1581 0421 02       		.byte	0x2
 1582 0422 A201     		.2byte	0x1a2
 1583 0424 36040000 		.4byte	0x436
 1584 0428 09       		.uleb128 0x9
 1585 0429 02070000 		.4byte	.LASF78
 1586 042d 02       		.byte	0x2
 1587 042e AA01     		.2byte	0x1aa
 1588 0430 15070000 		.4byte	0x715
 1589 0434 00       		.byte	0
 1590 0435 00       		.byte	0
 1591 0436 04       		.uleb128 0x4
 1592 0437 E1030000 		.4byte	.LASF79
 1593 043b 07       		.byte	0x7
 1594 043c 70       		.byte	0x70
 1595 043d 41040000 		.4byte	0x441
 1596 0441 10       		.uleb128 0x10
ARM GAS  /tmp/cc9xlzym.s 			page 29


 1597 0442 91020000 		.4byte	.LASF80
 1598 0446 6802     		.2byte	0x268
 1599 0448 02       		.byte	0x2
 1600 0449 C201     		.2byte	0x1c2
 1601 044b 9D040000 		.4byte	0x49d
 1602 044f 09       		.uleb128 0x9
 1603 0450 59070000 		.4byte	.LASF81
 1604 0454 02       		.byte	0x2
 1605 0455 C601     		.2byte	0x1c6
 1606 0457 E4020000 		.4byte	0x2e4
 1607 045b 00       		.byte	0
 1608 045c 09       		.uleb128 0x9
 1609 045d 74020000 		.4byte	.LASF82
 1610 0461 02       		.byte	0x2
 1611 0462 CA01     		.2byte	0x1ca
 1612 0464 C3030000 		.4byte	0x3c3
 1613 0468 1C       		.byte	0x1c
 1614 0469 08       		.uleb128 0x8
 1615 046a 64626700 		.ascii	"dbg\000"
 1616 046e 02       		.byte	0x2
 1617 046f CE01     		.2byte	0x1ce
 1618 0471 10040000 		.4byte	0x410
 1619 0475 2C       		.byte	0x2c
 1620 0476 09       		.uleb128 0x9
 1621 0477 D1010000 		.4byte	.LASF83
 1622 047b 02       		.byte	0x2
 1623 047c D201     		.2byte	0x1d2
 1624 047e 51010000 		.4byte	0x151
 1625 0482 30       		.byte	0x30
 1626 0483 08       		.uleb128 0x8
 1627 0484 746D00   		.ascii	"tm\000"
 1628 0487 02       		.byte	0x2
 1629 0488 D701     		.2byte	0x1d7
 1630 048a 3F060000 		.4byte	0x63f
 1631 048e 80       		.byte	0x80
 1632 048f 09       		.uleb128 0x9
 1633 0490 32030000 		.4byte	.LASF84
 1634 0494 02       		.byte	0x2
 1635 0495 E301     		.2byte	0x1e3
 1636 0497 32070000 		.4byte	0x732
 1637 049b 88       		.byte	0x88
 1638 049c 00       		.byte	0
 1639 049d 11       		.uleb128 0x11
 1640 049e F2010000 		.4byte	.LASF85
 1641 04a2 08       		.byte	0x8
 1642 04a3 A706     		.2byte	0x6a7
 1643 04a5 C3000000 		.4byte	0xc3
 1644 04a9 12       		.uleb128 0x12
 1645 04aa 72030000 		.4byte	.LASF86
 1646 04ae 09       		.byte	0x9
 1647 04af 4C       		.byte	0x4c
 1648 04b0 C8000000 		.4byte	0xc8
 1649 04b4 04       		.uleb128 0x4
 1650 04b5 13030000 		.4byte	.LASF87
 1651 04b9 0A       		.byte	0xa
 1652 04ba 65       		.byte	0x65
 1653 04bb 67030000 		.4byte	0x367
ARM GAS  /tmp/cc9xlzym.s 			page 30


 1654 04bf 04       		.uleb128 0x4
 1655 04c0 41040000 		.4byte	.LASF88
 1656 04c4 0A       		.byte	0xa
 1657 04c5 6D       		.byte	0x6d
 1658 04c6 D3000000 		.4byte	0xd3
 1659 04ca 06       		.uleb128 0x6
 1660 04cb 13070000 		.4byte	.LASF89
 1661 04cf 04       		.byte	0x4
 1662 04d0 0A       		.byte	0xa
 1663 04d1 89       		.byte	0x89
 1664 04d2 E3040000 		.4byte	0x4e3
 1665 04d6 13       		.uleb128 0x13
 1666 04d7 72313300 		.ascii	"r13\000"
 1667 04db 0A       		.byte	0xa
 1668 04dc 8A       		.byte	0x8a
 1669 04dd 24060000 		.4byte	0x624
 1670 04e1 00       		.byte	0
 1671 04e2 00       		.byte	0
 1672 04e3 06       		.uleb128 0x6
 1673 04e4 3A000000 		.4byte	.LASF90
 1674 04e8 64       		.byte	0x64
 1675 04e9 0B       		.byte	0xb
 1676 04ea F4       		.byte	0xf4
 1677 04eb 24060000 		.4byte	0x624
 1678 04ef 13       		.uleb128 0x13
 1679 04f0 73313600 		.ascii	"s16\000"
 1680 04f4 0B       		.byte	0xb
 1681 04f5 F6       		.byte	0xf6
 1682 04f6 B4040000 		.4byte	0x4b4
 1683 04fa 00       		.byte	0
 1684 04fb 13       		.uleb128 0x13
 1685 04fc 73313700 		.ascii	"s17\000"
 1686 0500 0B       		.byte	0xb
 1687 0501 F7       		.byte	0xf7
 1688 0502 B4040000 		.4byte	0x4b4
 1689 0506 04       		.byte	0x4
 1690 0507 13       		.uleb128 0x13
 1691 0508 73313800 		.ascii	"s18\000"
 1692 050c 0B       		.byte	0xb
 1693 050d F8       		.byte	0xf8
 1694 050e B4040000 		.4byte	0x4b4
 1695 0512 08       		.byte	0x8
 1696 0513 13       		.uleb128 0x13
 1697 0514 73313900 		.ascii	"s19\000"
 1698 0518 0B       		.byte	0xb
 1699 0519 F9       		.byte	0xf9
 1700 051a B4040000 		.4byte	0x4b4
 1701 051e 0C       		.byte	0xc
 1702 051f 13       		.uleb128 0x13
 1703 0520 73323000 		.ascii	"s20\000"
 1704 0524 0B       		.byte	0xb
 1705 0525 FA       		.byte	0xfa
 1706 0526 B4040000 		.4byte	0x4b4
 1707 052a 10       		.byte	0x10
 1708 052b 13       		.uleb128 0x13
 1709 052c 73323100 		.ascii	"s21\000"
 1710 0530 0B       		.byte	0xb
ARM GAS  /tmp/cc9xlzym.s 			page 31


 1711 0531 FB       		.byte	0xfb
 1712 0532 B4040000 		.4byte	0x4b4
 1713 0536 14       		.byte	0x14
 1714 0537 13       		.uleb128 0x13
 1715 0538 73323200 		.ascii	"s22\000"
 1716 053c 0B       		.byte	0xb
 1717 053d FC       		.byte	0xfc
 1718 053e B4040000 		.4byte	0x4b4
 1719 0542 18       		.byte	0x18
 1720 0543 13       		.uleb128 0x13
 1721 0544 73323300 		.ascii	"s23\000"
 1722 0548 0B       		.byte	0xb
 1723 0549 FD       		.byte	0xfd
 1724 054a B4040000 		.4byte	0x4b4
 1725 054e 1C       		.byte	0x1c
 1726 054f 13       		.uleb128 0x13
 1727 0550 73323400 		.ascii	"s24\000"
 1728 0554 0B       		.byte	0xb
 1729 0555 FE       		.byte	0xfe
 1730 0556 B4040000 		.4byte	0x4b4
 1731 055a 20       		.byte	0x20
 1732 055b 13       		.uleb128 0x13
 1733 055c 73323500 		.ascii	"s25\000"
 1734 0560 0B       		.byte	0xb
 1735 0561 FF       		.byte	0xff
 1736 0562 B4040000 		.4byte	0x4b4
 1737 0566 24       		.byte	0x24
 1738 0567 08       		.uleb128 0x8
 1739 0568 73323600 		.ascii	"s26\000"
 1740 056c 0B       		.byte	0xb
 1741 056d 0001     		.2byte	0x100
 1742 056f B4040000 		.4byte	0x4b4
 1743 0573 28       		.byte	0x28
 1744 0574 08       		.uleb128 0x8
 1745 0575 73323700 		.ascii	"s27\000"
 1746 0579 0B       		.byte	0xb
 1747 057a 0101     		.2byte	0x101
 1748 057c B4040000 		.4byte	0x4b4
 1749 0580 2C       		.byte	0x2c
 1750 0581 08       		.uleb128 0x8
 1751 0582 73323800 		.ascii	"s28\000"
 1752 0586 0B       		.byte	0xb
 1753 0587 0201     		.2byte	0x102
 1754 0589 B4040000 		.4byte	0x4b4
 1755 058d 30       		.byte	0x30
 1756 058e 08       		.uleb128 0x8
 1757 058f 73323900 		.ascii	"s29\000"
 1758 0593 0B       		.byte	0xb
 1759 0594 0301     		.2byte	0x103
 1760 0596 B4040000 		.4byte	0x4b4
 1761 059a 34       		.byte	0x34
 1762 059b 08       		.uleb128 0x8
 1763 059c 73333000 		.ascii	"s30\000"
 1764 05a0 0B       		.byte	0xb
 1765 05a1 0401     		.2byte	0x104
 1766 05a3 B4040000 		.4byte	0x4b4
 1767 05a7 38       		.byte	0x38
ARM GAS  /tmp/cc9xlzym.s 			page 32


 1768 05a8 08       		.uleb128 0x8
 1769 05a9 73333100 		.ascii	"s31\000"
 1770 05ad 0B       		.byte	0xb
 1771 05ae 0501     		.2byte	0x105
 1772 05b0 B4040000 		.4byte	0x4b4
 1773 05b4 3C       		.byte	0x3c
 1774 05b5 08       		.uleb128 0x8
 1775 05b6 723400   		.ascii	"r4\000"
 1776 05b9 0B       		.byte	0xb
 1777 05ba 0701     		.2byte	0x107
 1778 05bc B4040000 		.4byte	0x4b4
 1779 05c0 40       		.byte	0x40
 1780 05c1 08       		.uleb128 0x8
 1781 05c2 723500   		.ascii	"r5\000"
 1782 05c5 0B       		.byte	0xb
 1783 05c6 0801     		.2byte	0x108
 1784 05c8 B4040000 		.4byte	0x4b4
 1785 05cc 44       		.byte	0x44
 1786 05cd 08       		.uleb128 0x8
 1787 05ce 723600   		.ascii	"r6\000"
 1788 05d1 0B       		.byte	0xb
 1789 05d2 0901     		.2byte	0x109
 1790 05d4 B4040000 		.4byte	0x4b4
 1791 05d8 48       		.byte	0x48
 1792 05d9 08       		.uleb128 0x8
 1793 05da 723700   		.ascii	"r7\000"
 1794 05dd 0B       		.byte	0xb
 1795 05de 0A01     		.2byte	0x10a
 1796 05e0 B4040000 		.4byte	0x4b4
 1797 05e4 4C       		.byte	0x4c
 1798 05e5 08       		.uleb128 0x8
 1799 05e6 723800   		.ascii	"r8\000"
 1800 05e9 0B       		.byte	0xb
 1801 05ea 0B01     		.2byte	0x10b
 1802 05ec B4040000 		.4byte	0x4b4
 1803 05f0 50       		.byte	0x50
 1804 05f1 08       		.uleb128 0x8
 1805 05f2 723900   		.ascii	"r9\000"
 1806 05f5 0B       		.byte	0xb
 1807 05f6 0C01     		.2byte	0x10c
 1808 05f8 B4040000 		.4byte	0x4b4
 1809 05fc 54       		.byte	0x54
 1810 05fd 08       		.uleb128 0x8
 1811 05fe 72313000 		.ascii	"r10\000"
 1812 0602 0B       		.byte	0xb
 1813 0603 0D01     		.2byte	0x10d
 1814 0605 B4040000 		.4byte	0x4b4
 1815 0609 58       		.byte	0x58
 1816 060a 08       		.uleb128 0x8
 1817 060b 72313100 		.ascii	"r11\000"
 1818 060f 0B       		.byte	0xb
 1819 0610 0E01     		.2byte	0x10e
 1820 0612 B4040000 		.4byte	0x4b4
 1821 0616 5C       		.byte	0x5c
 1822 0617 08       		.uleb128 0x8
 1823 0618 6C7200   		.ascii	"lr\000"
 1824 061b 0B       		.byte	0xb
ARM GAS  /tmp/cc9xlzym.s 			page 33


 1825 061c 0F01     		.2byte	0x10f
 1826 061e B4040000 		.4byte	0x4b4
 1827 0622 60       		.byte	0x60
 1828 0623 00       		.byte	0
 1829 0624 0A       		.uleb128 0xa
 1830 0625 04       		.byte	0x4
 1831 0626 E3040000 		.4byte	0x4e3
 1832 062a 14       		.uleb128 0x14
 1833 062b 04       		.byte	0x4
 1834 062c 0C       		.byte	0xc
 1835 062d 38       		.byte	0x38
 1836 062e 3F060000 		.4byte	0x63f
 1837 0632 07       		.uleb128 0x7
 1838 0633 0C070000 		.4byte	.LASF91
 1839 0637 0C       		.byte	0xc
 1840 0638 3C       		.byte	0x3c
 1841 0639 DE000000 		.4byte	0xde
 1842 063d 00       		.byte	0
 1843 063e 00       		.byte	0
 1844 063f 04       		.uleb128 0x4
 1845 0640 BF040000 		.4byte	.LASF92
 1846 0644 0C       		.byte	0xc
 1847 0645 3D       		.byte	0x3d
 1848 0646 2A060000 		.4byte	0x62a
 1849 064a 15       		.uleb128 0x15
 1850 064b 04       		.byte	0x4
 1851 064c 02       		.byte	0x2
 1852 064d FA       		.byte	0xfa
 1853 064e A7060000 		.4byte	0x6a7
 1854 0652 16       		.uleb128 0x16
 1855 0653 20000000 		.4byte	.LASF93
 1856 0657 02       		.byte	0x2
 1857 0658 0101     		.2byte	0x101
 1858 065a 20010000 		.4byte	0x120
 1859 065e 16       		.uleb128 0x16
 1860 065f C8010000 		.4byte	.LASF94
 1861 0663 02       		.byte	0x2
 1862 0664 0801     		.2byte	0x108
 1863 0666 20010000 		.4byte	0x120
 1864 066a 16       		.uleb128 0x16
 1865 066b 7A070000 		.4byte	.LASF95
 1866 066f 02       		.byte	0x2
 1867 0670 0F01     		.2byte	0x10f
 1868 0672 67030000 		.4byte	0x367
 1869 0676 16       		.uleb128 0x16
 1870 0677 1A000000 		.4byte	.LASF96
 1871 067b 02       		.byte	0x2
 1872 067c 1601     		.2byte	0x116
 1873 067e A7060000 		.4byte	0x6a7
 1874 0682 16       		.uleb128 0x16
 1875 0683 89030000 		.4byte	.LASF97
 1876 0687 02       		.byte	0x2
 1877 0688 1E01     		.2byte	0x11e
 1878 068a D2060000 		.4byte	0x6d2
 1879 068e 16       		.uleb128 0x16
 1880 068f 98060000 		.4byte	.LASF98
 1881 0693 02       		.byte	0x2
ARM GAS  /tmp/cc9xlzym.s 			page 34


 1882 0694 2701     		.2byte	0x127
 1883 0696 09070000 		.4byte	0x709
 1884 069a 16       		.uleb128 0x16
 1885 069b A6050000 		.4byte	.LASF99
 1886 069f 02       		.byte	0x2
 1887 06a0 2F01     		.2byte	0x12f
 1888 06a2 2B010000 		.4byte	0x12b
 1889 06a6 00       		.byte	0
 1890 06a7 0A       		.uleb128 0xa
 1891 06a8 04       		.byte	0x4
 1892 06a9 7A020000 		.4byte	0x27a
 1893 06ad 06       		.uleb128 0x6
 1894 06ae 14060000 		.4byte	.LASF100
 1895 06b2 0C       		.byte	0xc
 1896 06b3 0D       		.byte	0xd
 1897 06b4 34       		.byte	0x34
 1898 06b5 D2060000 		.4byte	0x6d2
 1899 06b9 07       		.uleb128 0x7
 1900 06ba EA020000 		.4byte	.LASF101
 1901 06be 0D       		.byte	0xd
 1902 06bf 35       		.byte	0x35
 1903 06c0 AF020000 		.4byte	0x2af
 1904 06c4 00       		.byte	0
 1905 06c5 07       		.uleb128 0x7
 1906 06c6 AD030000 		.4byte	.LASF102
 1907 06ca 0D       		.byte	0xd
 1908 06cb 37       		.byte	0x37
 1909 06cc 36010000 		.4byte	0x136
 1910 06d0 08       		.byte	0x8
 1911 06d1 00       		.byte	0
 1912 06d2 0A       		.uleb128 0xa
 1913 06d3 04       		.byte	0x4
 1914 06d4 AD060000 		.4byte	0x6ad
 1915 06d8 06       		.uleb128 0x6
 1916 06d9 33070000 		.4byte	.LASF103
 1917 06dd 10       		.byte	0x10
 1918 06de 0E       		.byte	0xe
 1919 06df 39       		.byte	0x39
 1920 06e0 09070000 		.4byte	0x709
 1921 06e4 07       		.uleb128 0x7
 1922 06e5 6C020000 		.4byte	.LASF104
 1923 06e9 0E       		.byte	0xe
 1924 06ea 3A       		.byte	0x3a
 1925 06eb AF020000 		.4byte	0x2af
 1926 06ef 00       		.byte	0
 1927 06f0 07       		.uleb128 0x7
 1928 06f1 D3070000 		.4byte	.LASF105
 1929 06f5 0E       		.byte	0xe
 1930 06f6 3C       		.byte	0x3c
 1931 06f7 85020000 		.4byte	0x285
 1932 06fb 08       		.byte	0x8
 1933 06fc 07       		.uleb128 0x7
 1934 06fd 43070000 		.4byte	.LASF106
 1935 0701 0E       		.byte	0xe
 1936 0702 3E       		.byte	0x3e
 1937 0703 64080000 		.4byte	0x864
 1938 0707 0C       		.byte	0xc
ARM GAS  /tmp/cc9xlzym.s 			page 35


 1939 0708 00       		.byte	0
 1940 0709 0A       		.uleb128 0xa
 1941 070a 04       		.byte	0x4
 1942 070b D8060000 		.4byte	0x6d8
 1943 070f 0A       		.uleb128 0xa
 1944 0710 04       		.byte	0x4
 1945 0711 21070000 		.4byte	0x721
 1946 0715 05       		.uleb128 0x5
 1947 0716 0F070000 		.4byte	0x70f
 1948 071a 03       		.uleb128 0x3
 1949 071b 01       		.byte	0x1
 1950 071c 08       		.byte	0x8
 1951 071d 93060000 		.4byte	.LASF107
 1952 0721 0B       		.uleb128 0xb
 1953 0722 1A070000 		.4byte	0x71a
 1954 0726 0A       		.uleb128 0xa
 1955 0727 04       		.byte	0x4
 1956 0728 BF040000 		.4byte	0x4bf
 1957 072c 0A       		.uleb128 0xa
 1958 072d 04       		.byte	0x4
 1959 072e 69030000 		.4byte	0x369
 1960 0732 17       		.uleb128 0x17
 1961 0733 BF040000 		.4byte	0x4bf
 1962 0737 42070000 		.4byte	0x742
 1963 073b 18       		.uleb128 0x18
 1964 073c 2C000000 		.4byte	0x2c
 1965 0740 3B       		.byte	0x3b
 1966 0741 00       		.byte	0
 1967 0742 19       		.uleb128 0x19
 1968 0743 636800   		.ascii	"ch\000"
 1969 0746 02       		.byte	0x2
 1970 0747 0902     		.2byte	0x209
 1971 0749 36040000 		.4byte	0x436
 1972 074d 14       		.uleb128 0x14
 1973 074e 16       		.byte	0x16
 1974 074f 0F       		.byte	0xf
 1975 0750 34       		.byte	0x34
 1976 0751 2E080000 		.4byte	0x82e
 1977 0755 07       		.uleb128 0x7
 1978 0756 DB070000 		.4byte	.LASF108
 1979 075a 0F       		.byte	0xf
 1980 075b 35       		.byte	0x35
 1981 075c 2E080000 		.4byte	0x82e
 1982 0760 00       		.byte	0
 1983 0761 07       		.uleb128 0x7
 1984 0762 4C040000 		.4byte	.LASF109
 1985 0766 0F       		.byte	0xf
 1986 0767 36       		.byte	0x36
 1987 0768 A2000000 		.4byte	0xa2
 1988 076c 04       		.byte	0x4
 1989 076d 07       		.uleb128 0x7
 1990 076e 79060000 		.4byte	.LASF110
 1991 0772 0F       		.byte	0xf
 1992 0773 37       		.byte	0x37
 1993 0774 A2000000 		.4byte	0xa2
 1994 0778 05       		.byte	0x5
 1995 0779 07       		.uleb128 0x7
ARM GAS  /tmp/cc9xlzym.s 			page 36


 1996 077a A3070000 		.4byte	.LASF111
 1997 077e 0F       		.byte	0xf
 1998 077f 38       		.byte	0x38
 1999 0780 AD000000 		.4byte	0xad
 2000 0784 06       		.byte	0x6
 2001 0785 07       		.uleb128 0x7
 2002 0786 13050000 		.4byte	.LASF112
 2003 078a 0F       		.byte	0xf
 2004 078b 39       		.byte	0x39
 2005 078c A2000000 		.4byte	0xa2
 2006 0790 08       		.byte	0x8
 2007 0791 07       		.uleb128 0x7
 2008 0792 89040000 		.4byte	.LASF113
 2009 0796 0F       		.byte	0xf
 2010 0797 3A       		.byte	0x3a
 2011 0798 A2000000 		.4byte	0xa2
 2012 079c 09       		.byte	0x9
 2013 079d 07       		.uleb128 0x7
 2014 079e BA010000 		.4byte	.LASF114
 2015 07a2 0F       		.byte	0xf
 2016 07a3 3B       		.byte	0x3b
 2017 07a4 A2000000 		.4byte	0xa2
 2018 07a8 0A       		.byte	0xa
 2019 07a9 07       		.uleb128 0x7
 2020 07aa 49060000 		.4byte	.LASF115
 2021 07ae 0F       		.byte	0xf
 2022 07af 3C       		.byte	0x3c
 2023 07b0 A2000000 		.4byte	0xa2
 2024 07b4 0B       		.byte	0xb
 2025 07b5 07       		.uleb128 0x7
 2026 07b6 28070000 		.4byte	.LASF116
 2027 07ba 0F       		.byte	0xf
 2028 07bb 3D       		.byte	0x3d
 2029 07bc A2000000 		.4byte	0xa2
 2030 07c0 0C       		.byte	0xc
 2031 07c1 07       		.uleb128 0x7
 2032 07c2 07060000 		.4byte	.LASF117
 2033 07c6 0F       		.byte	0xf
 2034 07c7 3E       		.byte	0x3e
 2035 07c8 A2000000 		.4byte	0xa2
 2036 07cc 0D       		.byte	0xd
 2037 07cd 07       		.uleb128 0x7
 2038 07ce 00000000 		.4byte	.LASF118
 2039 07d2 0F       		.byte	0xf
 2040 07d3 3F       		.byte	0x3f
 2041 07d4 A2000000 		.4byte	0xa2
 2042 07d8 0E       		.byte	0xe
 2043 07d9 07       		.uleb128 0x7
 2044 07da 95040000 		.4byte	.LASF119
 2045 07de 0F       		.byte	0xf
 2046 07df 40       		.byte	0x40
 2047 07e0 A2000000 		.4byte	0xa2
 2048 07e4 0F       		.byte	0xf
 2049 07e5 07       		.uleb128 0x7
 2050 07e6 47020000 		.4byte	.LASF120
 2051 07ea 0F       		.byte	0xf
 2052 07eb 41       		.byte	0x41
ARM GAS  /tmp/cc9xlzym.s 			page 37


 2053 07ec A2000000 		.4byte	0xa2
 2054 07f0 10       		.byte	0x10
 2055 07f1 07       		.uleb128 0x7
 2056 07f2 17020000 		.4byte	.LASF121
 2057 07f6 0F       		.byte	0xf
 2058 07f7 43       		.byte	0x43
 2059 07f8 A2000000 		.4byte	0xa2
 2060 07fc 11       		.byte	0x11
 2061 07fd 07       		.uleb128 0x7
 2062 07fe 57020000 		.4byte	.LASF122
 2063 0802 0F       		.byte	0xf
 2064 0803 44       		.byte	0x44
 2065 0804 A2000000 		.4byte	0xa2
 2066 0808 12       		.byte	0x12
 2067 0809 07       		.uleb128 0x7
 2068 080a 54040000 		.4byte	.LASF123
 2069 080e 0F       		.byte	0xf
 2070 080f 45       		.byte	0x45
 2071 0810 A2000000 		.4byte	0xa2
 2072 0814 13       		.byte	0x13
 2073 0815 07       		.uleb128 0x7
 2074 0816 BC050000 		.4byte	.LASF124
 2075 081a 0F       		.byte	0xf
 2076 081b 46       		.byte	0x46
 2077 081c A2000000 		.4byte	0xa2
 2078 0820 14       		.byte	0x14
 2079 0821 07       		.uleb128 0x7
 2080 0822 04040000 		.4byte	.LASF125
 2081 0826 0F       		.byte	0xf
 2082 0827 48       		.byte	0x48
 2083 0828 A2000000 		.4byte	0xa2
 2084 082c 15       		.byte	0x15
 2085 082d 00       		.byte	0
 2086 082e 17       		.uleb128 0x17
 2087 082f 1A070000 		.4byte	0x71a
 2088 0833 3E080000 		.4byte	0x83e
 2089 0837 18       		.uleb128 0x18
 2090 0838 2C000000 		.4byte	0x2c
 2091 083c 03       		.byte	0x3
 2092 083d 00       		.byte	0
 2093 083e 04       		.uleb128 0x4
 2094 083f CA020000 		.4byte	.LASF126
 2095 0843 0F       		.byte	0xf
 2096 0844 49       		.byte	0x49
 2097 0845 4D070000 		.4byte	0x74d
 2098 0849 0B       		.uleb128 0xb
 2099 084a 3E080000 		.4byte	0x83e
 2100 084e 12       		.uleb128 0x12
 2101 084f A4030000 		.4byte	.LASF127
 2102 0853 0F       		.byte	0xf
 2103 0854 6E       		.byte	0x6e
 2104 0855 49080000 		.4byte	0x849
 2105 0859 04       		.uleb128 0x4
 2106 085a CB070000 		.4byte	.LASF128
 2107 085e 0E       		.byte	0xe
 2108 085f 34       		.byte	0x34
 2109 0860 D8060000 		.4byte	0x6d8
ARM GAS  /tmp/cc9xlzym.s 			page 38


 2110 0864 0A       		.uleb128 0xa
 2111 0865 04       		.byte	0x4
 2112 0866 59080000 		.4byte	0x859
 2113 086a 1A       		.uleb128 0x1a
 2114 086b ED030000 		.4byte	.LASF129
 2115 086f 01       		.byte	0x1
 2116 0870 E501     		.2byte	0x1e5
 2117 0872 00000000 		.4byte	.LFB226
 2118 0876 4C000000 		.4byte	.LFE226-.LFB226
 2119 087a 01       		.uleb128 0x1
 2120 087b 9C       		.byte	0x9c
 2121 087c A1090000 		.4byte	0x9a1
 2122 0880 1B       		.uleb128 0x1b
 2123 0881 63747000 		.ascii	"ctp\000"
 2124 0885 01       		.byte	0x1
 2125 0886 E601     		.2byte	0x1e6
 2126 0888 85020000 		.4byte	0x285
 2127 088c 01       		.uleb128 0x1
 2128 088d 54       		.byte	0x54
 2129 088e 1C       		.uleb128 0x1c
 2130 088f 60010000 		.4byte	.Ldebug_ranges0+0x160
 2131 0893 21090000 		.4byte	0x921
 2132 0897 1D       		.uleb128 0x1d
 2133 0898 6D7000   		.ascii	"mp\000"
 2134 089b 01       		.byte	0x1
 2135 089c EB01     		.2byte	0x1eb
 2136 089e 64080000 		.4byte	0x864
 2137 08a2 00000000 		.4byte	.LLST36
 2138 08a6 1C       		.uleb128 0x1c
 2139 08a7 78010000 		.4byte	.Ldebug_ranges0+0x178
 2140 08ab F5080000 		.4byte	0x8f5
 2141 08af 1E       		.uleb128 0x1e
 2142 08b0 747000   		.ascii	"tp\000"
 2143 08b3 01       		.byte	0x1
 2144 08b4 F101     		.2byte	0x1f1
 2145 08b6 85020000 		.4byte	0x285
 2146 08ba 1F       		.uleb128 0x1f
 2147 08bb 64100000 		.4byte	0x1064
 2148 08bf 1C000000 		.4byte	.LBB237
 2149 08c3 06000000 		.4byte	.LBE237-.LBB237
 2150 08c7 01       		.byte	0x1
 2151 08c8 F101     		.2byte	0x1f1
 2152 08ca EB080000 		.4byte	0x8eb
 2153 08ce 20       		.uleb128 0x20
 2154 08cf 75100000 		.4byte	0x1075
 2155 08d3 15000000 		.4byte	.LLST37
 2156 08d7 21       		.uleb128 0x21
 2157 08d8 1C000000 		.4byte	.LBB238
 2158 08dc 06000000 		.4byte	.LBE238-.LBB238
 2159 08e0 22       		.uleb128 0x22
 2160 08e1 81100000 		.4byte	0x1081
 2161 08e5 33000000 		.4byte	.LLST38
 2162 08e9 00       		.byte	0
 2163 08ea 00       		.byte	0
 2164 08eb 23       		.uleb128 0x23
 2165 08ec 2C000000 		.4byte	.LVL83
 2166 08f0 62110000 		.4byte	0x1162
ARM GAS  /tmp/cc9xlzym.s 			page 39


 2167 08f4 00       		.byte	0
 2168 08f5 24       		.uleb128 0x24
 2169 08f6 08100000 		.4byte	0x1008
 2170 08fa 0E000000 		.4byte	.LBB232
 2171 08fe 02000000 		.4byte	.LBE232-.LBB232
 2172 0902 01       		.byte	0x1
 2173 0903 ED01     		.2byte	0x1ed
 2174 0905 25       		.uleb128 0x25
 2175 0906 18100000 		.4byte	0x1018
 2176 090a 26       		.uleb128 0x26
 2177 090b C3100000 		.4byte	0x10c3
 2178 090f 0E000000 		.4byte	.LBB234
 2179 0913 02000000 		.4byte	.LBE234-.LBB234
 2180 0917 0E       		.byte	0xe
 2181 0918 85       		.byte	0x85
 2182 0919 25       		.uleb128 0x25
 2183 091a D4100000 		.4byte	0x10d4
 2184 091e 00       		.byte	0
 2185 091f 00       		.byte	0
 2186 0920 00       		.byte	0
 2187 0921 1F       		.uleb128 0x1f
 2188 0922 3E100000 		.4byte	0x103e
 2189 0926 06000000 		.4byte	.LBB227
 2190 092a 02000000 		.4byte	.LBE227-.LBB227
 2191 092e 01       		.byte	0x1
 2192 092f E801     		.2byte	0x1e8
 2193 0931 57090000 		.4byte	0x957
 2194 0935 24       		.uleb128 0x24
 2195 0936 0A110000 		.4byte	0x110a
 2196 093a 06000000 		.4byte	.LBB228
 2197 093e 02000000 		.4byte	.LBE228-.LBB228
 2198 0942 10       		.byte	0x10
 2199 0943 5C01     		.2byte	0x15c
 2200 0945 27       		.uleb128 0x27
 2201 0946 13110000 		.4byte	0x1113
 2202 094a 06000000 		.4byte	.LBB229
 2203 094e 02000000 		.4byte	.LBE229-.LBB229
 2204 0952 0B       		.byte	0xb
 2205 0953 C101     		.2byte	0x1c1
 2206 0955 00       		.byte	0
 2207 0956 00       		.byte	0
 2208 0957 1F       		.uleb128 0x1f
 2209 0958 23100000 		.4byte	0x1023
 2210 095c 3A000000 		.4byte	.LBB240
 2211 0960 02000000 		.4byte	.LBE240-.LBB240
 2212 0964 01       		.byte	0x1
 2213 0965 0102     		.2byte	0x201
 2214 0967 97090000 		.4byte	0x997
 2215 096b 21       		.uleb128 0x21
 2216 096c 3A000000 		.4byte	.LBB241
 2217 0970 02000000 		.4byte	.LBE241-.LBB241
 2218 0974 24       		.uleb128 0x24
 2219 0975 01110000 		.4byte	0x1101
 2220 0979 3A000000 		.4byte	.LBB242
 2221 097d 02000000 		.4byte	.LBE242-.LBB242
 2222 0981 10       		.byte	0x10
 2223 0982 7301     		.2byte	0x173
ARM GAS  /tmp/cc9xlzym.s 			page 40


 2224 0984 27       		.uleb128 0x27
 2225 0985 1C110000 		.4byte	0x111c
 2226 0989 3A000000 		.4byte	.LBB243
 2227 098d 02000000 		.4byte	.LBE243-.LBB243
 2228 0991 0B       		.byte	0xb
 2229 0992 CF01     		.2byte	0x1cf
 2230 0994 00       		.byte	0
 2231 0995 00       		.byte	0
 2232 0996 00       		.byte	0
 2233 0997 23       		.uleb128 0x23
 2234 0998 3A000000 		.4byte	.LVL84
 2235 099c 6E110000 		.4byte	0x116e
 2236 09a0 00       		.byte	0
 2237 09a1 1A       		.uleb128 0x1a
 2238 09a2 47030000 		.4byte	.LASF130
 2239 09a6 01       		.byte	0x1
 2240 09a7 9A01     		.2byte	0x19a
 2241 09a9 00000000 		.4byte	.LFB225
 2242 09ad 50000000 		.4byte	.LFE225-.LFB225
 2243 09b1 01       		.uleb128 0x1
 2244 09b2 9C       		.byte	0x9c
 2245 09b3 AD0A0000 		.4byte	0xaad
 2246 09b7 28       		.uleb128 0x28
 2247 09b8 6D7000   		.ascii	"mp\000"
 2248 09bb 01       		.byte	0x1
 2249 09bc 9A01     		.2byte	0x19a
 2250 09be 64080000 		.4byte	0x864
 2251 09c2 51000000 		.4byte	.LLST28
 2252 09c6 1D       		.uleb128 0x1d
 2253 09c7 63747000 		.ascii	"ctp\000"
 2254 09cb 01       		.byte	0x1
 2255 09cc 9B01     		.2byte	0x19b
 2256 09ce 85020000 		.4byte	0x285
 2257 09d2 88000000 		.4byte	.LLST29
 2258 09d6 1D       		.uleb128 0x1d
 2259 09d7 6C6D7000 		.ascii	"lmp\000"
 2260 09db 01       		.byte	0x1
 2261 09dc 9C01     		.2byte	0x19c
 2262 09de 64080000 		.4byte	0x864
 2263 09e2 A6000000 		.4byte	.LLST30
 2264 09e6 29       		.uleb128 0x29
 2265 09e7 D3050000 		.4byte	.LASF133
 2266 09eb BD0A0000 		.4byte	0xabd
 2267 09ef 1C       		.uleb128 0x1c
 2268 09f0 28010000 		.4byte	.Ldebug_ranges0+0x128
 2269 09f4 810A0000 		.4byte	0xa81
 2270 09f8 1E       		.uleb128 0x1e
 2271 09f9 747000   		.ascii	"tp\000"
 2272 09fc 01       		.byte	0x1
 2273 09fd B201     		.2byte	0x1b2
 2274 09ff 85020000 		.4byte	0x285
 2275 0a03 2A       		.uleb128 0x2a
 2276 0a04 FC030000 		.4byte	.LASF131
 2277 0a08 01       		.byte	0x1
 2278 0a09 B601     		.2byte	0x1b6
 2279 0a0b 15010000 		.4byte	0x115
 2280 0a0f B9000000 		.4byte	.LLST31
ARM GAS  /tmp/cc9xlzym.s 			page 41


 2281 0a13 1F       		.uleb128 0x1f
 2282 0a14 08100000 		.4byte	0x1008
 2283 0a18 16000000 		.4byte	.LBB216
 2284 0a1c 02000000 		.4byte	.LBE216-.LBB216
 2285 0a20 01       		.byte	0x1
 2286 0a21 BC01     		.2byte	0x1bc
 2287 0a23 4A0A0000 		.4byte	0xa4a
 2288 0a27 20       		.uleb128 0x20
 2289 0a28 18100000 		.4byte	0x1018
 2290 0a2c D8000000 		.4byte	.LLST32
 2291 0a30 26       		.uleb128 0x26
 2292 0a31 C3100000 		.4byte	0x10c3
 2293 0a35 16000000 		.4byte	.LBB218
 2294 0a39 02000000 		.4byte	.LBE218-.LBB218
 2295 0a3d 0E       		.byte	0xe
 2296 0a3e 85       		.byte	0x85
 2297 0a3f 20       		.uleb128 0x20
 2298 0a40 D4100000 		.4byte	0x10d4
 2299 0a44 D8000000 		.4byte	.LLST32
 2300 0a48 00       		.byte	0
 2301 0a49 00       		.byte	0
 2302 0a4a 2B       		.uleb128 0x2b
 2303 0a4b 64100000 		.4byte	0x1064
 2304 0a4f 2C000000 		.4byte	.LBB220
 2305 0a53 40010000 		.4byte	.Ldebug_ranges0+0x140
 2306 0a57 01       		.byte	0x1
 2307 0a58 CC01     		.2byte	0x1cc
 2308 0a5a 770A0000 		.4byte	0xa77
 2309 0a5e 20       		.uleb128 0x20
 2310 0a5f 75100000 		.4byte	0x1075
 2311 0a63 EB000000 		.4byte	.LLST34
 2312 0a67 2C       		.uleb128 0x2c
 2313 0a68 40010000 		.4byte	.Ldebug_ranges0+0x140
 2314 0a6c 22       		.uleb128 0x22
 2315 0a6d 81100000 		.4byte	0x1081
 2316 0a71 FE000000 		.4byte	.LLST35
 2317 0a75 00       		.byte	0
 2318 0a76 00       		.byte	0
 2319 0a77 2D       		.uleb128 0x2d
 2320 0a78 42000000 		.4byte	.LVL76
 2321 0a7c 62110000 		.4byte	0x1162
 2322 0a80 00       		.byte	0
 2323 0a81 24       		.uleb128 0x24
 2324 0a82 08100000 		.4byte	0x1008
 2325 0a86 04000000 		.4byte	.LBB211
 2326 0a8a 02000000 		.4byte	.LBE211-.LBB211
 2327 0a8e 01       		.byte	0x1
 2328 0a8f B101     		.2byte	0x1b1
 2329 0a91 25       		.uleb128 0x25
 2330 0a92 18100000 		.4byte	0x1018
 2331 0a96 26       		.uleb128 0x26
 2332 0a97 C3100000 		.4byte	0x10c3
 2333 0a9b 04000000 		.4byte	.LBB213
 2334 0a9f 02000000 		.4byte	.LBE213-.LBB213
 2335 0aa3 0E       		.byte	0xe
 2336 0aa4 85       		.byte	0x85
 2337 0aa5 25       		.uleb128 0x25
ARM GAS  /tmp/cc9xlzym.s 			page 42


 2338 0aa6 D4100000 		.4byte	0x10d4
 2339 0aaa 00       		.byte	0
 2340 0aab 00       		.byte	0
 2341 0aac 00       		.byte	0
 2342 0aad 17       		.uleb128 0x17
 2343 0aae 21070000 		.4byte	0x721
 2344 0ab2 BD0A0000 		.4byte	0xabd
 2345 0ab6 18       		.uleb128 0x18
 2346 0ab7 2C000000 		.4byte	0x2c
 2347 0abb 0C       		.byte	0xc
 2348 0abc 00       		.byte	0
 2349 0abd 0B       		.uleb128 0xb
 2350 0abe AD0A0000 		.4byte	0xaad
 2351 0ac2 1A       		.uleb128 0x1a
 2352 0ac3 2F020000 		.4byte	.LASF132
 2353 0ac7 01       		.byte	0x1
 2354 0ac8 4301     		.2byte	0x143
 2355 0aca 00000000 		.4byte	.LFB224
 2356 0ace 58000000 		.4byte	.LFE224-.LFB224
 2357 0ad2 01       		.uleb128 0x1
 2358 0ad3 9C       		.byte	0x9c
 2359 0ad4 580C0000 		.4byte	0xc58
 2360 0ad8 28       		.uleb128 0x28
 2361 0ad9 6D7000   		.ascii	"mp\000"
 2362 0adc 01       		.byte	0x1
 2363 0add 4301     		.2byte	0x143
 2364 0adf 64080000 		.4byte	0x864
 2365 0ae3 11010000 		.4byte	.LLST20
 2366 0ae7 1D       		.uleb128 0x1d
 2367 0ae8 63747000 		.ascii	"ctp\000"
 2368 0aec 01       		.byte	0x1
 2369 0aed 4401     		.2byte	0x144
 2370 0aef 85020000 		.4byte	0x285
 2371 0af3 48010000 		.4byte	.LLST21
 2372 0af7 1D       		.uleb128 0x1d
 2373 0af8 6C6D7000 		.ascii	"lmp\000"
 2374 0afc 01       		.byte	0x1
 2375 0afd 4501     		.2byte	0x145
 2376 0aff 64080000 		.4byte	0x864
 2377 0b03 5B010000 		.4byte	.LLST22
 2378 0b07 29       		.uleb128 0x29
 2379 0b08 D3050000 		.4byte	.LASF133
 2380 0b0c 680C0000 		.4byte	0xc68
 2381 0b10 2E       		.uleb128 0x2e
 2382 0b11 12000000 		.4byte	.LBB192
 2383 0b15 34000000 		.4byte	.LBE192-.LBB192
 2384 0b19 BA0B0000 		.4byte	0xbba
 2385 0b1d 1E       		.uleb128 0x1e
 2386 0b1e 747000   		.ascii	"tp\000"
 2387 0b21 01       		.byte	0x1
 2388 0b22 5C01     		.2byte	0x15c
 2389 0b24 85020000 		.4byte	0x285
 2390 0b28 2A       		.uleb128 0x2a
 2391 0b29 FC030000 		.4byte	.LASF131
 2392 0b2d 01       		.byte	0x1
 2393 0b2e 6001     		.2byte	0x160
 2394 0b30 15010000 		.4byte	0x115
ARM GAS  /tmp/cc9xlzym.s 			page 43


 2395 0b34 6E010000 		.4byte	.LLST23
 2396 0b38 1F       		.uleb128 0x1f
 2397 0b39 08100000 		.4byte	0x1008
 2398 0b3d 16000000 		.4byte	.LBB193
 2399 0b41 02000000 		.4byte	.LBE193-.LBB193
 2400 0b45 01       		.byte	0x1
 2401 0b46 6601     		.2byte	0x166
 2402 0b48 6F0B0000 		.4byte	0xb6f
 2403 0b4c 20       		.uleb128 0x20
 2404 0b4d 18100000 		.4byte	0x1018
 2405 0b51 81010000 		.4byte	.LLST24
 2406 0b55 26       		.uleb128 0x26
 2407 0b56 C3100000 		.4byte	0x10c3
 2408 0b5a 16000000 		.4byte	.LBB195
 2409 0b5e 02000000 		.4byte	.LBE195-.LBB195
 2410 0b62 0E       		.byte	0xe
 2411 0b63 85       		.byte	0x85
 2412 0b64 20       		.uleb128 0x20
 2413 0b65 D4100000 		.4byte	0x10d4
 2414 0b69 81010000 		.4byte	.LLST24
 2415 0b6d 00       		.byte	0
 2416 0b6e 00       		.byte	0
 2417 0b6f 2B       		.uleb128 0x2b
 2418 0b70 64100000 		.4byte	0x1064
 2419 0b74 2C000000 		.4byte	.LBB197
 2420 0b78 F8000000 		.4byte	.Ldebug_ranges0+0xf8
 2421 0b7c 01       		.byte	0x1
 2422 0b7d 7601     		.2byte	0x176
 2423 0b7f 9C0B0000 		.4byte	0xb9c
 2424 0b83 20       		.uleb128 0x20
 2425 0b84 75100000 		.4byte	0x1075
 2426 0b88 94010000 		.4byte	.LLST26
 2427 0b8c 2C       		.uleb128 0x2c
 2428 0b8d F8000000 		.4byte	.Ldebug_ranges0+0xf8
 2429 0b91 22       		.uleb128 0x22
 2430 0b92 81100000 		.4byte	0x1081
 2431 0b96 A7010000 		.4byte	.LLST27
 2432 0b9a 00       		.byte	0
 2433 0b9b 00       		.byte	0
 2434 0b9c 2F       		.uleb128 0x2f
 2435 0b9d 42000000 		.4byte	.LVL60
 2436 0ba1 62110000 		.4byte	0x1162
 2437 0ba5 B00B0000 		.4byte	0xbb0
 2438 0ba9 30       		.uleb128 0x30
 2439 0baa 01       		.uleb128 0x1
 2440 0bab 50       		.byte	0x50
 2441 0bac 02       		.uleb128 0x2
 2442 0bad 74       		.byte	0x74
 2443 0bae 00       		.sleb128 0
 2444 0baf 00       		.byte	0
 2445 0bb0 23       		.uleb128 0x23
 2446 0bb1 46000000 		.4byte	.LVL61
 2447 0bb5 6E110000 		.4byte	0x116e
 2448 0bb9 00       		.byte	0
 2449 0bba 1F       		.uleb128 0x1f
 2450 0bbb 3E100000 		.4byte	0x103e
 2451 0bbf 06000000 		.4byte	.LBB184
ARM GAS  /tmp/cc9xlzym.s 			page 44


 2452 0bc3 02000000 		.4byte	.LBE184-.LBB184
 2453 0bc7 01       		.byte	0x1
 2454 0bc8 4901     		.2byte	0x149
 2455 0bca F00B0000 		.4byte	0xbf0
 2456 0bce 24       		.uleb128 0x24
 2457 0bcf 0A110000 		.4byte	0x110a
 2458 0bd3 06000000 		.4byte	.LBB185
 2459 0bd7 02000000 		.4byte	.LBE185-.LBB185
 2460 0bdb 10       		.byte	0x10
 2461 0bdc 5C01     		.2byte	0x15c
 2462 0bde 27       		.uleb128 0x27
 2463 0bdf 13110000 		.4byte	0x1113
 2464 0be3 06000000 		.4byte	.LBB186
 2465 0be7 02000000 		.4byte	.LBE186-.LBB186
 2466 0beb 0B       		.byte	0xb
 2467 0bec C101     		.2byte	0x1c1
 2468 0bee 00       		.byte	0
 2469 0bef 00       		.byte	0
 2470 0bf0 1F       		.uleb128 0x1f
 2471 0bf1 08100000 		.4byte	0x1008
 2472 0bf5 08000000 		.4byte	.LBB188
 2473 0bf9 02000000 		.4byte	.LBE188-.LBB188
 2474 0bfd 01       		.byte	0x1
 2475 0bfe 5B01     		.2byte	0x15b
 2476 0c00 1F0C0000 		.4byte	0xc1f
 2477 0c04 25       		.uleb128 0x25
 2478 0c05 18100000 		.4byte	0x1018
 2479 0c09 26       		.uleb128 0x26
 2480 0c0a C3100000 		.4byte	0x10c3
 2481 0c0e 08000000 		.4byte	.LBB190
 2482 0c12 02000000 		.4byte	.LBE190-.LBB190
 2483 0c16 0E       		.byte	0xe
 2484 0c17 85       		.byte	0x85
 2485 0c18 25       		.uleb128 0x25
 2486 0c19 D4100000 		.4byte	0x10d4
 2487 0c1d 00       		.byte	0
 2488 0c1e 00       		.byte	0
 2489 0c1f 31       		.uleb128 0x31
 2490 0c20 23100000 		.4byte	0x1023
 2491 0c24 46000000 		.4byte	.LBB201
 2492 0c28 10010000 		.4byte	.Ldebug_ranges0+0x110
 2493 0c2c 01       		.byte	0x1
 2494 0c2d 8901     		.2byte	0x189
 2495 0c2f 2C       		.uleb128 0x2c
 2496 0c30 10010000 		.4byte	.Ldebug_ranges0+0x110
 2497 0c34 31       		.uleb128 0x31
 2498 0c35 01110000 		.4byte	0x1101
 2499 0c39 46000000 		.4byte	.LBB203
 2500 0c3d 10010000 		.4byte	.Ldebug_ranges0+0x110
 2501 0c41 10       		.byte	0x10
 2502 0c42 7301     		.2byte	0x173
 2503 0c44 32       		.uleb128 0x32
 2504 0c45 1C110000 		.4byte	0x111c
 2505 0c49 46000000 		.4byte	.LBB204
 2506 0c4d 10010000 		.4byte	.Ldebug_ranges0+0x110
 2507 0c51 0B       		.byte	0xb
 2508 0c52 CF01     		.2byte	0x1cf
ARM GAS  /tmp/cc9xlzym.s 			page 45


 2509 0c54 00       		.byte	0
 2510 0c55 00       		.byte	0
 2511 0c56 00       		.byte	0
 2512 0c57 00       		.byte	0
 2513 0c58 17       		.uleb128 0x17
 2514 0c59 21070000 		.4byte	0x721
 2515 0c5d 680C0000 		.4byte	0xc68
 2516 0c61 18       		.uleb128 0x18
 2517 0c62 2C000000 		.4byte	0x2c
 2518 0c66 0B       		.byte	0xb
 2519 0c67 00       		.byte	0
 2520 0c68 0B       		.uleb128 0xb
 2521 0c69 580C0000 		.4byte	0xc58
 2522 0c6d 33       		.uleb128 0x33
 2523 0c6e D4020000 		.4byte	.LASF138
 2524 0c72 01       		.byte	0x1
 2525 0c73 1A01     		.2byte	0x11a
 2526 0c75 970C0000 		.4byte	0xc97
 2527 0c79 01       		.byte	0x1
 2528 0c7a 970C0000 		.4byte	0xc97
 2529 0c7e 34       		.uleb128 0x34
 2530 0c7f 6D7000   		.ascii	"mp\000"
 2531 0c82 01       		.byte	0x1
 2532 0c83 1A01     		.2byte	0x11a
 2533 0c85 64080000 		.4byte	0x864
 2534 0c89 35       		.uleb128 0x35
 2535 0c8a D3050000 		.4byte	.LASF133
 2536 0c8e AE0C0000 		.4byte	0xcae
 2537 0c92 D4020000 		.4byte	.LASF138
 2538 0c96 00       		.byte	0
 2539 0c97 03       		.uleb128 0x3
 2540 0c98 01       		.byte	0x1
 2541 0c99 02       		.byte	0x2
 2542 0c9a 5D050000 		.4byte	.LASF134
 2543 0c9e 17       		.uleb128 0x17
 2544 0c9f 21070000 		.4byte	0x721
 2545 0ca3 AE0C0000 		.4byte	0xcae
 2546 0ca7 18       		.uleb128 0x18
 2547 0ca8 2C000000 		.4byte	0x2c
 2548 0cac 0D       		.byte	0xd
 2549 0cad 00       		.byte	0
 2550 0cae 0B       		.uleb128 0xb
 2551 0caf 9E0C0000 		.4byte	0xc9e
 2552 0cb3 36       		.uleb128 0x36
 2553 0cb4 2A040000 		.4byte	.LASF157
 2554 0cb8 01       		.byte	0x1
 2555 0cb9 FF       		.byte	0xff
 2556 0cba 970C0000 		.4byte	0xc97
 2557 0cbe 00000000 		.4byte	.LFB222
 2558 0cc2 24000000 		.4byte	.LFE222-.LFB222
 2559 0cc6 01       		.uleb128 0x1
 2560 0cc7 9C       		.byte	0x9c
 2561 0cc8 970D0000 		.4byte	0xd97
 2562 0ccc 37       		.uleb128 0x37
 2563 0ccd 6D7000   		.ascii	"mp\000"
 2564 0cd0 01       		.byte	0x1
 2565 0cd1 FF       		.byte	0xff
ARM GAS  /tmp/cc9xlzym.s 			page 46


 2566 0cd2 64080000 		.4byte	0x864
 2567 0cd6 BA010000 		.4byte	.LLST15
 2568 0cda 1E       		.uleb128 0x1e
 2569 0cdb 6200     		.ascii	"b\000"
 2570 0cdd 01       		.byte	0x1
 2571 0cde 0001     		.2byte	0x100
 2572 0ce0 970C0000 		.4byte	0xc97
 2573 0ce4 1F       		.uleb128 0x1f
 2574 0ce5 3E100000 		.4byte	0x103e
 2575 0ce9 02000000 		.4byte	.LBB160
 2576 0ced 02000000 		.4byte	.LBE160-.LBB160
 2577 0cf1 01       		.byte	0x1
 2578 0cf2 0201     		.2byte	0x102
 2579 0cf4 1A0D0000 		.4byte	0xd1a
 2580 0cf8 24       		.uleb128 0x24
 2581 0cf9 0A110000 		.4byte	0x110a
 2582 0cfd 02000000 		.4byte	.LBB161
 2583 0d01 02000000 		.4byte	.LBE161-.LBB161
 2584 0d05 10       		.byte	0x10
 2585 0d06 5C01     		.2byte	0x15c
 2586 0d08 27       		.uleb128 0x27
 2587 0d09 13110000 		.4byte	0x1113
 2588 0d0d 02000000 		.4byte	.LBB162
 2589 0d11 02000000 		.4byte	.LBE162-.LBB162
 2590 0d15 0B       		.byte	0xb
 2591 0d16 C101     		.2byte	0x1c1
 2592 0d18 00       		.byte	0
 2593 0d19 00       		.byte	0
 2594 0d1a 2B       		.uleb128 0x2b
 2595 0d1b 6D0C0000 		.4byte	0xc6d
 2596 0d1f 04000000 		.4byte	.LBB164
 2597 0d23 C8000000 		.4byte	.Ldebug_ranges0+0xc8
 2598 0d27 01       		.byte	0x1
 2599 0d28 0301     		.2byte	0x103
 2600 0d2a 5E0D0000 		.4byte	0xd5e
 2601 0d2e 20       		.uleb128 0x20
 2602 0d2f 7E0C0000 		.4byte	0xc7e
 2603 0d33 EE010000 		.4byte	.LLST16
 2604 0d37 2C       		.uleb128 0x2c
 2605 0d38 C8000000 		.4byte	.Ldebug_ranges0+0xc8
 2606 0d3c 38       		.uleb128 0x38
 2607 0d3d 6D0C0000 		.4byte	0xc6d
 2608 0d41 0E000000 		.4byte	.LBB166
 2609 0d45 0E000000 		.4byte	.LBE166-.LBB166
 2610 0d49 20       		.uleb128 0x20
 2611 0d4a 7E0C0000 		.4byte	0xc7e
 2612 0d4e 17020000 		.4byte	.LLST17
 2613 0d52 39       		.uleb128 0x39
 2614 0d53 0E000000 		.4byte	.LBB167
 2615 0d57 0E000000 		.4byte	.LBE167-.LBB167
 2616 0d5b 00       		.byte	0
 2617 0d5c 00       		.byte	0
 2618 0d5d 00       		.byte	0
 2619 0d5e 31       		.uleb128 0x31
 2620 0d5f 23100000 		.4byte	0x1023
 2621 0d63 0A000000 		.4byte	.LBB169
 2622 0d67 E0000000 		.4byte	.Ldebug_ranges0+0xe0
ARM GAS  /tmp/cc9xlzym.s 			page 47


 2623 0d6b 01       		.byte	0x1
 2624 0d6c 0401     		.2byte	0x104
 2625 0d6e 2C       		.uleb128 0x2c
 2626 0d6f E0000000 		.4byte	.Ldebug_ranges0+0xe0
 2627 0d73 31       		.uleb128 0x31
 2628 0d74 01110000 		.4byte	0x1101
 2629 0d78 0A000000 		.4byte	.LBB171
 2630 0d7c E0000000 		.4byte	.Ldebug_ranges0+0xe0
 2631 0d80 10       		.byte	0x10
 2632 0d81 7301     		.2byte	0x173
 2633 0d83 32       		.uleb128 0x32
 2634 0d84 1C110000 		.4byte	0x111c
 2635 0d88 0A000000 		.4byte	.LBB172
 2636 0d8c E0000000 		.4byte	.Ldebug_ranges0+0xe0
 2637 0d90 0B       		.byte	0xb
 2638 0d91 CF01     		.2byte	0x1cf
 2639 0d93 00       		.byte	0
 2640 0d94 00       		.byte	0
 2641 0d95 00       		.byte	0
 2642 0d96 00       		.byte	0
 2643 0d97 3A       		.uleb128 0x3a
 2644 0d98 AE070000 		.4byte	.LASF135
 2645 0d9c 01       		.byte	0x1
 2646 0d9d 8B       		.byte	0x8b
 2647 0d9e 00000000 		.4byte	.LFB221
 2648 0da2 E4000000 		.4byte	.LFE221-.LFB221
 2649 0da6 01       		.uleb128 0x1
 2650 0da7 9C       		.byte	0x9c
 2651 0da8 F10E0000 		.4byte	0xef1
 2652 0dac 37       		.uleb128 0x37
 2653 0dad 6D7000   		.ascii	"mp\000"
 2654 0db0 01       		.byte	0x1
 2655 0db1 8B       		.byte	0x8b
 2656 0db2 64080000 		.4byte	0x864
 2657 0db6 35020000 		.4byte	.LLST1
 2658 0dba 3B       		.uleb128 0x3b
 2659 0dbb 63747000 		.ascii	"ctp\000"
 2660 0dbf 01       		.byte	0x1
 2661 0dc0 8C       		.byte	0x8c
 2662 0dc1 85020000 		.4byte	0x285
 2663 0dc5 82020000 		.4byte	.LLST2
 2664 0dc9 29       		.uleb128 0x29
 2665 0dca D3050000 		.4byte	.LASF133
 2666 0dce 010F0000 		.4byte	0xf01
 2667 0dd2 2C       		.uleb128 0x2c
 2668 0dd3 00000000 		.4byte	.Ldebug_ranges0+0
 2669 0dd7 3B       		.uleb128 0x3b
 2670 0dd8 747000   		.ascii	"tp\000"
 2671 0ddb 01       		.byte	0x1
 2672 0ddc A1       		.byte	0xa1
 2673 0ddd 85020000 		.4byte	0x285
 2674 0de1 A0020000 		.4byte	.LLST3
 2675 0de5 3C       		.uleb128 0x3c
 2676 0de6 93100000 		.4byte	0x1093
 2677 0dea 2C000000 		.4byte	.LBB106
 2678 0dee 20000000 		.4byte	.Ldebug_ranges0+0x20
 2679 0df2 01       		.byte	0x1
ARM GAS  /tmp/cc9xlzym.s 			page 48


 2680 0df3 D4       		.byte	0xd4
 2681 0df4 1A0E0000 		.4byte	0xe1a
 2682 0df8 20       		.uleb128 0x20
 2683 0df9 AB100000 		.4byte	0x10ab
 2684 0dfd C9020000 		.4byte	.LLST4
 2685 0e01 20       		.uleb128 0x20
 2686 0e02 A0100000 		.4byte	0x10a0
 2687 0e06 F2020000 		.4byte	.LLST5
 2688 0e0a 2C       		.uleb128 0x2c
 2689 0e0b 20000000 		.4byte	.Ldebug_ranges0+0x20
 2690 0e0f 22       		.uleb128 0x22
 2691 0e10 B7100000 		.4byte	0x10b7
 2692 0e14 10030000 		.4byte	.LLST6
 2693 0e18 00       		.byte	0
 2694 0e19 00       		.byte	0
 2695 0e1a 3C       		.uleb128 0x3c
 2696 0e1b 47100000 		.4byte	0x1047
 2697 0e1f 50000000 		.4byte	.LBB111
 2698 0e23 40000000 		.4byte	.Ldebug_ranges0+0x40
 2699 0e27 01       		.byte	0x1
 2700 0e28 C1       		.byte	0xc1
 2701 0e29 370E0000 		.4byte	0xe37
 2702 0e2d 20       		.uleb128 0x20
 2703 0e2e 58100000 		.4byte	0x1058
 2704 0e32 39030000 		.4byte	.LLST7
 2705 0e36 00       		.byte	0
 2706 0e37 3C       		.uleb128 0x3c
 2707 0e38 93100000 		.4byte	0x1093
 2708 0e3c 60000000 		.4byte	.LBB115
 2709 0e40 58000000 		.4byte	.Ldebug_ranges0+0x58
 2710 0e44 01       		.byte	0x1
 2711 0e45 C1       		.byte	0xc1
 2712 0e46 680E0000 		.4byte	0xe68
 2713 0e4a 20       		.uleb128 0x20
 2714 0e4b AB100000 		.4byte	0x10ab
 2715 0e4f 4C030000 		.4byte	.LLST8
 2716 0e53 25       		.uleb128 0x25
 2717 0e54 A0100000 		.4byte	0x10a0
 2718 0e58 2C       		.uleb128 0x2c
 2719 0e59 58000000 		.4byte	.Ldebug_ranges0+0x58
 2720 0e5d 22       		.uleb128 0x22
 2721 0e5e B7100000 		.4byte	0x10b7
 2722 0e62 76030000 		.4byte	.LLST9
 2723 0e66 00       		.byte	0
 2724 0e67 00       		.byte	0
 2725 0e68 3C       		.uleb128 0x3c
 2726 0e69 47100000 		.4byte	0x1047
 2727 0e6d 78000000 		.4byte	.LBB118
 2728 0e71 70000000 		.4byte	.Ldebug_ranges0+0x70
 2729 0e75 01       		.byte	0x1
 2730 0e76 CA       		.byte	0xca
 2731 0e77 850E0000 		.4byte	0xe85
 2732 0e7b 20       		.uleb128 0x20
 2733 0e7c 58100000 		.4byte	0x1058
 2734 0e80 9F030000 		.4byte	.LLST10
 2735 0e84 00       		.byte	0
 2736 0e85 3C       		.uleb128 0x3c
ARM GAS  /tmp/cc9xlzym.s 			page 49


 2737 0e86 47100000 		.4byte	0x1047
 2738 0e8a 98000000 		.4byte	.LBB123
 2739 0e8e 88000000 		.4byte	.Ldebug_ranges0+0x88
 2740 0e92 01       		.byte	0x1
 2741 0e93 AD       		.byte	0xad
 2742 0e94 A20E0000 		.4byte	0xea2
 2743 0e98 20       		.uleb128 0x20
 2744 0e99 58100000 		.4byte	0x1058
 2745 0e9d B2030000 		.4byte	.LLST11
 2746 0ea1 00       		.byte	0
 2747 0ea2 3C       		.uleb128 0x3c
 2748 0ea3 93100000 		.4byte	0x1093
 2749 0ea7 AA000000 		.4byte	.LBB129
 2750 0eab A8000000 		.4byte	.Ldebug_ranges0+0xa8
 2751 0eaf 01       		.byte	0x1
 2752 0eb0 AD       		.byte	0xad
 2753 0eb1 D30E0000 		.4byte	0xed3
 2754 0eb5 20       		.uleb128 0x20
 2755 0eb6 AB100000 		.4byte	0x10ab
 2756 0eba C5030000 		.4byte	.LLST12
 2757 0ebe 25       		.uleb128 0x25
 2758 0ebf A0100000 		.4byte	0x10a0
 2759 0ec3 2C       		.uleb128 0x2c
 2760 0ec4 A8000000 		.4byte	.Ldebug_ranges0+0xa8
 2761 0ec8 22       		.uleb128 0x22
 2762 0ec9 B7100000 		.4byte	0x10b7
 2763 0ecd E3030000 		.4byte	.LLST13
 2764 0ed1 00       		.byte	0
 2765 0ed2 00       		.byte	0
 2766 0ed3 3D       		.uleb128 0x3d
 2767 0ed4 50000000 		.4byte	.LVL13
 2768 0ed8 7A110000 		.4byte	0x117a
 2769 0edc E60E0000 		.4byte	0xee6
 2770 0ee0 30       		.uleb128 0x30
 2771 0ee1 01       		.uleb128 0x1
 2772 0ee2 50       		.byte	0x50
 2773 0ee3 01       		.uleb128 0x1
 2774 0ee4 36       		.byte	0x36
 2775 0ee5 00       		.byte	0
 2776 0ee6 23       		.uleb128 0x23
 2777 0ee7 88000000 		.4byte	.LVL21
 2778 0eeb 62110000 		.4byte	0x1162
 2779 0eef 00       		.byte	0
 2780 0ef0 00       		.byte	0
 2781 0ef1 17       		.uleb128 0x17
 2782 0ef2 21070000 		.4byte	0x721
 2783 0ef6 010F0000 		.4byte	0xf01
 2784 0efa 18       		.uleb128 0x18
 2785 0efb 2C000000 		.4byte	0x2c
 2786 0eff 0A       		.byte	0xa
 2787 0f00 00       		.byte	0
 2788 0f01 0B       		.uleb128 0xb
 2789 0f02 F10E0000 		.4byte	0xef1
 2790 0f06 3A       		.uleb128 0x3a
 2791 0f07 A1040000 		.4byte	.LASF136
 2792 0f0b 01       		.byte	0x1
 2793 0f0c 7B       		.byte	0x7b
ARM GAS  /tmp/cc9xlzym.s 			page 50


 2794 0f0d 00000000 		.4byte	.LFB220
 2795 0f11 0C000000 		.4byte	.LFE220-.LFB220
 2796 0f15 01       		.uleb128 0x1
 2797 0f16 9C       		.byte	0x9c
 2798 0f17 AF0F0000 		.4byte	0xfaf
 2799 0f1b 37       		.uleb128 0x37
 2800 0f1c 6D7000   		.ascii	"mp\000"
 2801 0f1f 01       		.byte	0x1
 2802 0f20 7B       		.byte	0x7b
 2803 0f21 64080000 		.4byte	0x864
 2804 0f25 01040000 		.4byte	.LLST14
 2805 0f29 3E       		.uleb128 0x3e
 2806 0f2a 3E100000 		.4byte	0x103e
 2807 0f2e 02000000 		.4byte	.LBB138
 2808 0f32 02000000 		.4byte	.LBE138-.LBB138
 2809 0f36 01       		.byte	0x1
 2810 0f37 7D       		.byte	0x7d
 2811 0f38 5E0F0000 		.4byte	0xf5e
 2812 0f3c 24       		.uleb128 0x24
 2813 0f3d 0A110000 		.4byte	0x110a
 2814 0f41 02000000 		.4byte	.LBB139
 2815 0f45 02000000 		.4byte	.LBE139-.LBB139
 2816 0f49 10       		.byte	0x10
 2817 0f4a 5C01     		.2byte	0x15c
 2818 0f4c 27       		.uleb128 0x27
 2819 0f4d 13110000 		.4byte	0x1113
 2820 0f51 02000000 		.4byte	.LBB140
 2821 0f55 02000000 		.4byte	.LBE140-.LBB140
 2822 0f59 0B       		.byte	0xb
 2823 0f5a C101     		.2byte	0x1c1
 2824 0f5c 00       		.byte	0
 2825 0f5d 00       		.byte	0
 2826 0f5e 3E       		.uleb128 0x3e
 2827 0f5f 23100000 		.4byte	0x1023
 2828 0f63 08000000 		.4byte	.LBB142
 2829 0f67 02000000 		.4byte	.LBE142-.LBB142
 2830 0f6b 01       		.byte	0x1
 2831 0f6c 7F       		.byte	0x7f
 2832 0f6d 9D0F0000 		.4byte	0xf9d
 2833 0f71 21       		.uleb128 0x21
 2834 0f72 08000000 		.4byte	.LBB143
 2835 0f76 02000000 		.4byte	.LBE143-.LBB143
 2836 0f7a 24       		.uleb128 0x24
 2837 0f7b 01110000 		.4byte	0x1101
 2838 0f7f 08000000 		.4byte	.LBB144
 2839 0f83 02000000 		.4byte	.LBE144-.LBB144
 2840 0f87 10       		.byte	0x10
 2841 0f88 7301     		.2byte	0x173
 2842 0f8a 27       		.uleb128 0x27
 2843 0f8b 1C110000 		.4byte	0x111c
 2844 0f8f 08000000 		.4byte	.LBB145
 2845 0f93 02000000 		.4byte	.LBE145-.LBB145
 2846 0f97 0B       		.byte	0xb
 2847 0f98 CF01     		.2byte	0x1cf
 2848 0f9a 00       		.byte	0
 2849 0f9b 00       		.byte	0
 2850 0f9c 00       		.byte	0
ARM GAS  /tmp/cc9xlzym.s 			page 51


 2851 0f9d 3F       		.uleb128 0x3f
 2852 0f9e 08000000 		.4byte	.LVL37
 2853 0fa2 970D0000 		.4byte	0xd97
 2854 0fa6 30       		.uleb128 0x30
 2855 0fa7 01       		.uleb128 0x1
 2856 0fa8 50       		.byte	0x50
 2857 0fa9 03       		.uleb128 0x3
 2858 0faa F3       		.byte	0xf3
 2859 0fab 01       		.uleb128 0x1
 2860 0fac 50       		.byte	0x50
 2861 0fad 00       		.byte	0
 2862 0fae 00       		.byte	0
 2863 0faf 3A       		.uleb128 0x3a
 2864 0fb0 3D050000 		.4byte	.LASF137
 2865 0fb4 01       		.byte	0x1
 2866 0fb5 67       		.byte	0x67
 2867 0fb6 00000000 		.4byte	.LFB219
 2868 0fba 0A000000 		.4byte	.LFE219-.LFB219
 2869 0fbe 01       		.uleb128 0x1
 2870 0fbf 9C       		.byte	0x9c
 2871 0fc0 F30F0000 		.4byte	0xff3
 2872 0fc4 40       		.uleb128 0x40
 2873 0fc5 6D7000   		.ascii	"mp\000"
 2874 0fc8 01       		.byte	0x1
 2875 0fc9 67       		.byte	0x67
 2876 0fca 64080000 		.4byte	0x864
 2877 0fce 01       		.uleb128 0x1
 2878 0fcf 50       		.byte	0x50
 2879 0fd0 29       		.uleb128 0x29
 2880 0fd1 D3050000 		.4byte	.LASF133
 2881 0fd5 03100000 		.4byte	0x1003
 2882 0fd9 26       		.uleb128 0x26
 2883 0fda E7100000 		.4byte	0x10e7
 2884 0fde 02000000 		.4byte	.LBB103
 2885 0fe2 04000000 		.4byte	.LBE103-.LBB103
 2886 0fe6 01       		.byte	0x1
 2887 0fe7 6B       		.byte	0x6b
 2888 0fe8 20       		.uleb128 0x20
 2889 0fe9 F4100000 		.4byte	0x10f4
 2890 0fed 22040000 		.4byte	.LLST0
 2891 0ff1 00       		.byte	0
 2892 0ff2 00       		.byte	0
 2893 0ff3 17       		.uleb128 0x17
 2894 0ff4 21070000 		.4byte	0x721
 2895 0ff8 03100000 		.4byte	0x1003
 2896 0ffc 18       		.uleb128 0x18
 2897 0ffd 2C000000 		.4byte	0x2c
 2898 1001 0F       		.byte	0xf
 2899 1002 00       		.byte	0
 2900 1003 0B       		.uleb128 0xb
 2901 1004 F30F0000 		.4byte	0xff3
 2902 1008 41       		.uleb128 0x41
 2903 1009 EE060000 		.4byte	.LASF140
 2904 100d 0E       		.byte	0xe
 2905 100e 81       		.byte	0x81
 2906 100f 970C0000 		.4byte	0xc97
 2907 1013 03       		.byte	0x3
ARM GAS  /tmp/cc9xlzym.s 			page 52


 2908 1014 23100000 		.4byte	0x1023
 2909 1018 42       		.uleb128 0x42
 2910 1019 6D7000   		.ascii	"mp\000"
 2911 101c 0E       		.byte	0xe
 2912 101d 81       		.byte	0x81
 2913 101e 64080000 		.4byte	0x864
 2914 1022 00       		.byte	0
 2915 1023 43       		.uleb128 0x43
 2916 1024 97070000 		.4byte	.LASF139
 2917 1028 10       		.byte	0x10
 2918 1029 6601     		.2byte	0x166
 2919 102b 03       		.byte	0x3
 2920 102c 3E100000 		.4byte	0x103e
 2921 1030 35       		.uleb128 0x35
 2922 1031 D3050000 		.4byte	.LASF133
 2923 1035 680C0000 		.4byte	0xc68
 2924 1039 97070000 		.4byte	.LASF139
 2925 103d 00       		.byte	0
 2926 103e 44       		.uleb128 0x44
 2927 103f DC050000 		.4byte	.LASF146
 2928 1043 10       		.byte	0x10
 2929 1044 5A01     		.2byte	0x15a
 2930 1046 03       		.byte	0x3
 2931 1047 45       		.uleb128 0x45
 2932 1048 A4020000 		.4byte	.LASF141
 2933 104c 02       		.byte	0x2
 2934 104d B102     		.2byte	0x2b1
 2935 104f 85020000 		.4byte	0x285
 2936 1053 03       		.byte	0x3
 2937 1054 64100000 		.4byte	0x1064
 2938 1058 34       		.uleb128 0x34
 2939 1059 747000   		.ascii	"tp\000"
 2940 105c 02       		.byte	0x2
 2941 105d B102     		.2byte	0x2b1
 2942 105f 85020000 		.4byte	0x285
 2943 1063 00       		.byte	0
 2944 1064 45       		.uleb128 0x45
 2945 1065 B3060000 		.4byte	.LASF142
 2946 1069 02       		.byte	0x2
 2947 106a 9F02     		.2byte	0x29f
 2948 106c 85020000 		.4byte	0x285
 2949 1070 03       		.byte	0x3
 2950 1071 8D100000 		.4byte	0x108d
 2951 1075 34       		.uleb128 0x34
 2952 1076 74717000 		.ascii	"tqp\000"
 2953 107a 02       		.byte	0x2
 2954 107b 9F02     		.2byte	0x29f
 2955 107d 8D100000 		.4byte	0x108d
 2956 1081 1E       		.uleb128 0x1e
 2957 1082 747000   		.ascii	"tp\000"
 2958 1085 02       		.byte	0x2
 2959 1086 A002     		.2byte	0x2a0
 2960 1088 85020000 		.4byte	0x285
 2961 108c 00       		.byte	0
 2962 108d 0A       		.uleb128 0xa
 2963 108e 04       		.byte	0x4
 2964 108f AF020000 		.4byte	0x2af
ARM GAS  /tmp/cc9xlzym.s 			page 53


 2965 1093 43       		.uleb128 0x43
 2966 1094 B9070000 		.4byte	.LASF143
 2967 1098 02       		.byte	0x2
 2968 1099 8B02     		.2byte	0x28b
 2969 109b 03       		.byte	0x3
 2970 109c C3100000 		.4byte	0x10c3
 2971 10a0 34       		.uleb128 0x34
 2972 10a1 747000   		.ascii	"tp\000"
 2973 10a4 02       		.byte	0x2
 2974 10a5 8B02     		.2byte	0x28b
 2975 10a7 85020000 		.4byte	0x285
 2976 10ab 34       		.uleb128 0x34
 2977 10ac 74717000 		.ascii	"tqp\000"
 2978 10b0 02       		.byte	0x2
 2979 10b1 8B02     		.2byte	0x28b
 2980 10b3 8D100000 		.4byte	0x108d
 2981 10b7 1E       		.uleb128 0x1e
 2982 10b8 637000   		.ascii	"cp\000"
 2983 10bb 02       		.byte	0x2
 2984 10bc 8D02     		.2byte	0x28d
 2985 10be 85020000 		.4byte	0x285
 2986 10c2 00       		.byte	0
 2987 10c3 45       		.uleb128 0x45
 2988 10c4 BB020000 		.4byte	.LASF144
 2989 10c8 02       		.byte	0x2
 2990 10c9 7502     		.2byte	0x275
 2991 10cb 970C0000 		.4byte	0xc97
 2992 10cf 03       		.byte	0x3
 2993 10d0 E1100000 		.4byte	0x10e1
 2994 10d4 34       		.uleb128 0x34
 2995 10d5 74717000 		.ascii	"tqp\000"
 2996 10d9 02       		.byte	0x2
 2997 10da 7502     		.2byte	0x275
 2998 10dc E1100000 		.4byte	0x10e1
 2999 10e0 00       		.byte	0
 3000 10e1 0A       		.uleb128 0xa
 3001 10e2 04       		.byte	0x4
 3002 10e3 BA020000 		.4byte	0x2ba
 3003 10e7 43       		.uleb128 0x43
 3004 10e8 D0030000 		.4byte	.LASF145
 3005 10ec 02       		.byte	0x2
 3006 10ed 5A02     		.2byte	0x25a
 3007 10ef 03       		.byte	0x3
 3008 10f0 01110000 		.4byte	0x1101
 3009 10f4 34       		.uleb128 0x34
 3010 10f5 74717000 		.ascii	"tqp\000"
 3011 10f9 02       		.byte	0x2
 3012 10fa 5A02     		.2byte	0x25a
 3013 10fc 8D100000 		.4byte	0x108d
 3014 1100 00       		.byte	0
 3015 1101 44       		.uleb128 0x44
 3016 1102 7B020000 		.4byte	.LASF147
 3017 1106 0B       		.byte	0xb
 3018 1107 CA01     		.2byte	0x1ca
 3019 1109 03       		.byte	0x3
 3020 110a 44       		.uleb128 0x44
 3021 110b 99010000 		.4byte	.LASF148
ARM GAS  /tmp/cc9xlzym.s 			page 54


 3022 110f 0B       		.byte	0xb
 3023 1110 BC01     		.2byte	0x1bc
 3024 1112 03       		.byte	0x3
 3025 1113 44       		.uleb128 0x44
 3026 1114 05050000 		.4byte	.LASF149
 3027 1118 03       		.byte	0x3
 3028 1119 5401     		.2byte	0x154
 3029 111b 03       		.byte	0x3
 3030 111c 44       		.uleb128 0x44
 3031 111d ED040000 		.4byte	.LASF150
 3032 1121 03       		.byte	0x3
 3033 1122 4901     		.2byte	0x149
 3034 1124 03       		.byte	0x3
 3035 1125 46       		.uleb128 0x46
 3036 1126 6D0C0000 		.4byte	0xc6d
 3037 112a 00000000 		.4byte	.LFB223
 3038 112e 20000000 		.4byte	.LFE223-.LFB223
 3039 1132 01       		.uleb128 0x1
 3040 1133 9C       		.byte	0x9c
 3041 1134 62110000 		.4byte	0x1162
 3042 1138 20       		.uleb128 0x20
 3043 1139 7E0C0000 		.4byte	0xc7e
 3044 113d 35040000 		.4byte	.LLST18
 3045 1141 38       		.uleb128 0x38
 3046 1142 6D0C0000 		.4byte	0xc6d
 3047 1146 0A000000 		.4byte	.LBB182
 3048 114a 16000000 		.4byte	.LBE182-.LBB182
 3049 114e 20       		.uleb128 0x20
 3050 114f 7E0C0000 		.4byte	0xc7e
 3051 1153 69040000 		.4byte	.LLST19
 3052 1157 39       		.uleb128 0x39
 3053 1158 0A000000 		.4byte	.LBB183
 3054 115c 16000000 		.4byte	.LBE183-.LBB183
 3055 1160 00       		.byte	0
 3056 1161 00       		.byte	0
 3057 1162 47       		.uleb128 0x47
 3058 1163 5D060000 		.4byte	.LASF151
 3059 1167 5D060000 		.4byte	.LASF151
 3060 116b 02       		.byte	0x2
 3061 116c 1302     		.2byte	0x213
 3062 116e 47       		.uleb128 0x47
 3063 116f F2020000 		.4byte	.LASF152
 3064 1173 F2020000 		.4byte	.LASF152
 3065 1177 02       		.byte	0x2
 3066 1178 1702     		.2byte	0x217
 3067 117a 47       		.uleb128 0x47
 3068 117b 21060000 		.4byte	.LASF153
 3069 117f 21060000 		.4byte	.LASF153
 3070 1183 02       		.byte	0x2
 3071 1184 1402     		.2byte	0x214
 3072 1186 00       		.byte	0
 3073              		.section	.debug_abbrev,"",%progbits
 3074              	.Ldebug_abbrev0:
 3075 0000 01       		.uleb128 0x1
 3076 0001 11       		.uleb128 0x11
 3077 0002 01       		.byte	0x1
 3078 0003 25       		.uleb128 0x25
ARM GAS  /tmp/cc9xlzym.s 			page 55


 3079 0004 0E       		.uleb128 0xe
 3080 0005 13       		.uleb128 0x13
 3081 0006 0B       		.uleb128 0xb
 3082 0007 03       		.uleb128 0x3
 3083 0008 0E       		.uleb128 0xe
 3084 0009 1B       		.uleb128 0x1b
 3085 000a 0E       		.uleb128 0xe
 3086 000b 55       		.uleb128 0x55
 3087 000c 17       		.uleb128 0x17
 3088 000d 11       		.uleb128 0x11
 3089 000e 01       		.uleb128 0x1
 3090 000f 10       		.uleb128 0x10
 3091 0010 17       		.uleb128 0x17
 3092 0011 00       		.byte	0
 3093 0012 00       		.byte	0
 3094 0013 02       		.uleb128 0x2
 3095 0014 24       		.uleb128 0x24
 3096 0015 00       		.byte	0
 3097 0016 0B       		.uleb128 0xb
 3098 0017 0B       		.uleb128 0xb
 3099 0018 3E       		.uleb128 0x3e
 3100 0019 0B       		.uleb128 0xb
 3101 001a 03       		.uleb128 0x3
 3102 001b 08       		.uleb128 0x8
 3103 001c 00       		.byte	0
 3104 001d 00       		.byte	0
 3105 001e 03       		.uleb128 0x3
 3106 001f 24       		.uleb128 0x24
 3107 0020 00       		.byte	0
 3108 0021 0B       		.uleb128 0xb
 3109 0022 0B       		.uleb128 0xb
 3110 0023 3E       		.uleb128 0x3e
 3111 0024 0B       		.uleb128 0xb
 3112 0025 03       		.uleb128 0x3
 3113 0026 0E       		.uleb128 0xe
 3114 0027 00       		.byte	0
 3115 0028 00       		.byte	0
 3116 0029 04       		.uleb128 0x4
 3117 002a 16       		.uleb128 0x16
 3118 002b 00       		.byte	0
 3119 002c 03       		.uleb128 0x3
 3120 002d 0E       		.uleb128 0xe
 3121 002e 3A       		.uleb128 0x3a
 3122 002f 0B       		.uleb128 0xb
 3123 0030 3B       		.uleb128 0x3b
 3124 0031 0B       		.uleb128 0xb
 3125 0032 49       		.uleb128 0x49
 3126 0033 13       		.uleb128 0x13
 3127 0034 00       		.byte	0
 3128 0035 00       		.byte	0
 3129 0036 05       		.uleb128 0x5
 3130 0037 35       		.uleb128 0x35
 3131 0038 00       		.byte	0
 3132 0039 49       		.uleb128 0x49
 3133 003a 13       		.uleb128 0x13
 3134 003b 00       		.byte	0
 3135 003c 00       		.byte	0
ARM GAS  /tmp/cc9xlzym.s 			page 56


 3136 003d 06       		.uleb128 0x6
 3137 003e 13       		.uleb128 0x13
 3138 003f 01       		.byte	0x1
 3139 0040 03       		.uleb128 0x3
 3140 0041 0E       		.uleb128 0xe
 3141 0042 0B       		.uleb128 0xb
 3142 0043 0B       		.uleb128 0xb
 3143 0044 3A       		.uleb128 0x3a
 3144 0045 0B       		.uleb128 0xb
 3145 0046 3B       		.uleb128 0x3b
 3146 0047 0B       		.uleb128 0xb
 3147 0048 01       		.uleb128 0x1
 3148 0049 13       		.uleb128 0x13
 3149 004a 00       		.byte	0
 3150 004b 00       		.byte	0
 3151 004c 07       		.uleb128 0x7
 3152 004d 0D       		.uleb128 0xd
 3153 004e 00       		.byte	0
 3154 004f 03       		.uleb128 0x3
 3155 0050 0E       		.uleb128 0xe
 3156 0051 3A       		.uleb128 0x3a
 3157 0052 0B       		.uleb128 0xb
 3158 0053 3B       		.uleb128 0x3b
 3159 0054 0B       		.uleb128 0xb
 3160 0055 49       		.uleb128 0x49
 3161 0056 13       		.uleb128 0x13
 3162 0057 38       		.uleb128 0x38
 3163 0058 0B       		.uleb128 0xb
 3164 0059 00       		.byte	0
 3165 005a 00       		.byte	0
 3166 005b 08       		.uleb128 0x8
 3167 005c 0D       		.uleb128 0xd
 3168 005d 00       		.byte	0
 3169 005e 03       		.uleb128 0x3
 3170 005f 08       		.uleb128 0x8
 3171 0060 3A       		.uleb128 0x3a
 3172 0061 0B       		.uleb128 0xb
 3173 0062 3B       		.uleb128 0x3b
 3174 0063 05       		.uleb128 0x5
 3175 0064 49       		.uleb128 0x49
 3176 0065 13       		.uleb128 0x13
 3177 0066 38       		.uleb128 0x38
 3178 0067 0B       		.uleb128 0xb
 3179 0068 00       		.byte	0
 3180 0069 00       		.byte	0
 3181 006a 09       		.uleb128 0x9
 3182 006b 0D       		.uleb128 0xd
 3183 006c 00       		.byte	0
 3184 006d 03       		.uleb128 0x3
 3185 006e 0E       		.uleb128 0xe
 3186 006f 3A       		.uleb128 0x3a
 3187 0070 0B       		.uleb128 0xb
 3188 0071 3B       		.uleb128 0x3b
 3189 0072 05       		.uleb128 0x5
 3190 0073 49       		.uleb128 0x49
 3191 0074 13       		.uleb128 0x13
 3192 0075 38       		.uleb128 0x38
ARM GAS  /tmp/cc9xlzym.s 			page 57


 3193 0076 0B       		.uleb128 0xb
 3194 0077 00       		.byte	0
 3195 0078 00       		.byte	0
 3196 0079 0A       		.uleb128 0xa
 3197 007a 0F       		.uleb128 0xf
 3198 007b 00       		.byte	0
 3199 007c 0B       		.uleb128 0xb
 3200 007d 0B       		.uleb128 0xb
 3201 007e 49       		.uleb128 0x49
 3202 007f 13       		.uleb128 0x13
 3203 0080 00       		.byte	0
 3204 0081 00       		.byte	0
 3205 0082 0B       		.uleb128 0xb
 3206 0083 26       		.uleb128 0x26
 3207 0084 00       		.byte	0
 3208 0085 49       		.uleb128 0x49
 3209 0086 13       		.uleb128 0x13
 3210 0087 00       		.byte	0
 3211 0088 00       		.byte	0
 3212 0089 0C       		.uleb128 0xc
 3213 008a 13       		.uleb128 0x13
 3214 008b 01       		.byte	0x1
 3215 008c 03       		.uleb128 0x3
 3216 008d 0E       		.uleb128 0xe
 3217 008e 0B       		.uleb128 0xb
 3218 008f 0B       		.uleb128 0xb
 3219 0090 3A       		.uleb128 0x3a
 3220 0091 0B       		.uleb128 0xb
 3221 0092 3B       		.uleb128 0x3b
 3222 0093 05       		.uleb128 0x5
 3223 0094 01       		.uleb128 0x1
 3224 0095 13       		.uleb128 0x13
 3225 0096 00       		.byte	0
 3226 0097 00       		.byte	0
 3227 0098 0D       		.uleb128 0xd
 3228 0099 15       		.uleb128 0x15
 3229 009a 01       		.byte	0x1
 3230 009b 27       		.uleb128 0x27
 3231 009c 19       		.uleb128 0x19
 3232 009d 01       		.uleb128 0x1
 3233 009e 13       		.uleb128 0x13
 3234 009f 00       		.byte	0
 3235 00a0 00       		.byte	0
 3236 00a1 0E       		.uleb128 0xe
 3237 00a2 05       		.uleb128 0x5
 3238 00a3 00       		.byte	0
 3239 00a4 49       		.uleb128 0x49
 3240 00a5 13       		.uleb128 0x13
 3241 00a6 00       		.byte	0
 3242 00a7 00       		.byte	0
 3243 00a8 0F       		.uleb128 0xf
 3244 00a9 0F       		.uleb128 0xf
 3245 00aa 00       		.byte	0
 3246 00ab 0B       		.uleb128 0xb
 3247 00ac 0B       		.uleb128 0xb
 3248 00ad 00       		.byte	0
 3249 00ae 00       		.byte	0
ARM GAS  /tmp/cc9xlzym.s 			page 58


 3250 00af 10       		.uleb128 0x10
 3251 00b0 13       		.uleb128 0x13
 3252 00b1 01       		.byte	0x1
 3253 00b2 03       		.uleb128 0x3
 3254 00b3 0E       		.uleb128 0xe
 3255 00b4 0B       		.uleb128 0xb
 3256 00b5 05       		.uleb128 0x5
 3257 00b6 3A       		.uleb128 0x3a
 3258 00b7 0B       		.uleb128 0xb
 3259 00b8 3B       		.uleb128 0x3b
 3260 00b9 05       		.uleb128 0x5
 3261 00ba 01       		.uleb128 0x1
 3262 00bb 13       		.uleb128 0x13
 3263 00bc 00       		.byte	0
 3264 00bd 00       		.byte	0
 3265 00be 11       		.uleb128 0x11
 3266 00bf 34       		.uleb128 0x34
 3267 00c0 00       		.byte	0
 3268 00c1 03       		.uleb128 0x3
 3269 00c2 0E       		.uleb128 0xe
 3270 00c3 3A       		.uleb128 0x3a
 3271 00c4 0B       		.uleb128 0xb
 3272 00c5 3B       		.uleb128 0x3b
 3273 00c6 05       		.uleb128 0x5
 3274 00c7 49       		.uleb128 0x49
 3275 00c8 13       		.uleb128 0x13
 3276 00c9 3F       		.uleb128 0x3f
 3277 00ca 19       		.uleb128 0x19
 3278 00cb 3C       		.uleb128 0x3c
 3279 00cc 19       		.uleb128 0x19
 3280 00cd 00       		.byte	0
 3281 00ce 00       		.byte	0
 3282 00cf 12       		.uleb128 0x12
 3283 00d0 34       		.uleb128 0x34
 3284 00d1 00       		.byte	0
 3285 00d2 03       		.uleb128 0x3
 3286 00d3 0E       		.uleb128 0xe
 3287 00d4 3A       		.uleb128 0x3a
 3288 00d5 0B       		.uleb128 0xb
 3289 00d6 3B       		.uleb128 0x3b
 3290 00d7 0B       		.uleb128 0xb
 3291 00d8 49       		.uleb128 0x49
 3292 00d9 13       		.uleb128 0x13
 3293 00da 3F       		.uleb128 0x3f
 3294 00db 19       		.uleb128 0x19
 3295 00dc 3C       		.uleb128 0x3c
 3296 00dd 19       		.uleb128 0x19
 3297 00de 00       		.byte	0
 3298 00df 00       		.byte	0
 3299 00e0 13       		.uleb128 0x13
 3300 00e1 0D       		.uleb128 0xd
 3301 00e2 00       		.byte	0
 3302 00e3 03       		.uleb128 0x3
 3303 00e4 08       		.uleb128 0x8
 3304 00e5 3A       		.uleb128 0x3a
 3305 00e6 0B       		.uleb128 0xb
 3306 00e7 3B       		.uleb128 0x3b
ARM GAS  /tmp/cc9xlzym.s 			page 59


 3307 00e8 0B       		.uleb128 0xb
 3308 00e9 49       		.uleb128 0x49
 3309 00ea 13       		.uleb128 0x13
 3310 00eb 38       		.uleb128 0x38
 3311 00ec 0B       		.uleb128 0xb
 3312 00ed 00       		.byte	0
 3313 00ee 00       		.byte	0
 3314 00ef 14       		.uleb128 0x14
 3315 00f0 13       		.uleb128 0x13
 3316 00f1 01       		.byte	0x1
 3317 00f2 0B       		.uleb128 0xb
 3318 00f3 0B       		.uleb128 0xb
 3319 00f4 3A       		.uleb128 0x3a
 3320 00f5 0B       		.uleb128 0xb
 3321 00f6 3B       		.uleb128 0x3b
 3322 00f7 0B       		.uleb128 0xb
 3323 00f8 01       		.uleb128 0x1
 3324 00f9 13       		.uleb128 0x13
 3325 00fa 00       		.byte	0
 3326 00fb 00       		.byte	0
 3327 00fc 15       		.uleb128 0x15
 3328 00fd 17       		.uleb128 0x17
 3329 00fe 01       		.byte	0x1
 3330 00ff 0B       		.uleb128 0xb
 3331 0100 0B       		.uleb128 0xb
 3332 0101 3A       		.uleb128 0x3a
 3333 0102 0B       		.uleb128 0xb
 3334 0103 3B       		.uleb128 0x3b
 3335 0104 0B       		.uleb128 0xb
 3336 0105 01       		.uleb128 0x1
 3337 0106 13       		.uleb128 0x13
 3338 0107 00       		.byte	0
 3339 0108 00       		.byte	0
 3340 0109 16       		.uleb128 0x16
 3341 010a 0D       		.uleb128 0xd
 3342 010b 00       		.byte	0
 3343 010c 03       		.uleb128 0x3
 3344 010d 0E       		.uleb128 0xe
 3345 010e 3A       		.uleb128 0x3a
 3346 010f 0B       		.uleb128 0xb
 3347 0110 3B       		.uleb128 0x3b
 3348 0111 05       		.uleb128 0x5
 3349 0112 49       		.uleb128 0x49
 3350 0113 13       		.uleb128 0x13
 3351 0114 00       		.byte	0
 3352 0115 00       		.byte	0
 3353 0116 17       		.uleb128 0x17
 3354 0117 01       		.uleb128 0x1
 3355 0118 01       		.byte	0x1
 3356 0119 49       		.uleb128 0x49
 3357 011a 13       		.uleb128 0x13
 3358 011b 01       		.uleb128 0x1
 3359 011c 13       		.uleb128 0x13
 3360 011d 00       		.byte	0
 3361 011e 00       		.byte	0
 3362 011f 18       		.uleb128 0x18
 3363 0120 21       		.uleb128 0x21
ARM GAS  /tmp/cc9xlzym.s 			page 60


 3364 0121 00       		.byte	0
 3365 0122 49       		.uleb128 0x49
 3366 0123 13       		.uleb128 0x13
 3367 0124 2F       		.uleb128 0x2f
 3368 0125 0B       		.uleb128 0xb
 3369 0126 00       		.byte	0
 3370 0127 00       		.byte	0
 3371 0128 19       		.uleb128 0x19
 3372 0129 34       		.uleb128 0x34
 3373 012a 00       		.byte	0
 3374 012b 03       		.uleb128 0x3
 3375 012c 08       		.uleb128 0x8
 3376 012d 3A       		.uleb128 0x3a
 3377 012e 0B       		.uleb128 0xb
 3378 012f 3B       		.uleb128 0x3b
 3379 0130 05       		.uleb128 0x5
 3380 0131 49       		.uleb128 0x49
 3381 0132 13       		.uleb128 0x13
 3382 0133 3F       		.uleb128 0x3f
 3383 0134 19       		.uleb128 0x19
 3384 0135 3C       		.uleb128 0x3c
 3385 0136 19       		.uleb128 0x19
 3386 0137 00       		.byte	0
 3387 0138 00       		.byte	0
 3388 0139 1A       		.uleb128 0x1a
 3389 013a 2E       		.uleb128 0x2e
 3390 013b 01       		.byte	0x1
 3391 013c 3F       		.uleb128 0x3f
 3392 013d 19       		.uleb128 0x19
 3393 013e 03       		.uleb128 0x3
 3394 013f 0E       		.uleb128 0xe
 3395 0140 3A       		.uleb128 0x3a
 3396 0141 0B       		.uleb128 0xb
 3397 0142 3B       		.uleb128 0x3b
 3398 0143 05       		.uleb128 0x5
 3399 0144 27       		.uleb128 0x27
 3400 0145 19       		.uleb128 0x19
 3401 0146 11       		.uleb128 0x11
 3402 0147 01       		.uleb128 0x1
 3403 0148 12       		.uleb128 0x12
 3404 0149 06       		.uleb128 0x6
 3405 014a 40       		.uleb128 0x40
 3406 014b 18       		.uleb128 0x18
 3407 014c 9742     		.uleb128 0x2117
 3408 014e 19       		.uleb128 0x19
 3409 014f 01       		.uleb128 0x1
 3410 0150 13       		.uleb128 0x13
 3411 0151 00       		.byte	0
 3412 0152 00       		.byte	0
 3413 0153 1B       		.uleb128 0x1b
 3414 0154 34       		.uleb128 0x34
 3415 0155 00       		.byte	0
 3416 0156 03       		.uleb128 0x3
 3417 0157 08       		.uleb128 0x8
 3418 0158 3A       		.uleb128 0x3a
 3419 0159 0B       		.uleb128 0xb
 3420 015a 3B       		.uleb128 0x3b
ARM GAS  /tmp/cc9xlzym.s 			page 61


 3421 015b 05       		.uleb128 0x5
 3422 015c 49       		.uleb128 0x49
 3423 015d 13       		.uleb128 0x13
 3424 015e 02       		.uleb128 0x2
 3425 015f 18       		.uleb128 0x18
 3426 0160 00       		.byte	0
 3427 0161 00       		.byte	0
 3428 0162 1C       		.uleb128 0x1c
 3429 0163 0B       		.uleb128 0xb
 3430 0164 01       		.byte	0x1
 3431 0165 55       		.uleb128 0x55
 3432 0166 17       		.uleb128 0x17
 3433 0167 01       		.uleb128 0x1
 3434 0168 13       		.uleb128 0x13
 3435 0169 00       		.byte	0
 3436 016a 00       		.byte	0
 3437 016b 1D       		.uleb128 0x1d
 3438 016c 34       		.uleb128 0x34
 3439 016d 00       		.byte	0
 3440 016e 03       		.uleb128 0x3
 3441 016f 08       		.uleb128 0x8
 3442 0170 3A       		.uleb128 0x3a
 3443 0171 0B       		.uleb128 0xb
 3444 0172 3B       		.uleb128 0x3b
 3445 0173 05       		.uleb128 0x5
 3446 0174 49       		.uleb128 0x49
 3447 0175 13       		.uleb128 0x13
 3448 0176 02       		.uleb128 0x2
 3449 0177 17       		.uleb128 0x17
 3450 0178 00       		.byte	0
 3451 0179 00       		.byte	0
 3452 017a 1E       		.uleb128 0x1e
 3453 017b 34       		.uleb128 0x34
 3454 017c 00       		.byte	0
 3455 017d 03       		.uleb128 0x3
 3456 017e 08       		.uleb128 0x8
 3457 017f 3A       		.uleb128 0x3a
 3458 0180 0B       		.uleb128 0xb
 3459 0181 3B       		.uleb128 0x3b
 3460 0182 05       		.uleb128 0x5
 3461 0183 49       		.uleb128 0x49
 3462 0184 13       		.uleb128 0x13
 3463 0185 00       		.byte	0
 3464 0186 00       		.byte	0
 3465 0187 1F       		.uleb128 0x1f
 3466 0188 1D       		.uleb128 0x1d
 3467 0189 01       		.byte	0x1
 3468 018a 31       		.uleb128 0x31
 3469 018b 13       		.uleb128 0x13
 3470 018c 11       		.uleb128 0x11
 3471 018d 01       		.uleb128 0x1
 3472 018e 12       		.uleb128 0x12
 3473 018f 06       		.uleb128 0x6
 3474 0190 58       		.uleb128 0x58
 3475 0191 0B       		.uleb128 0xb
 3476 0192 59       		.uleb128 0x59
 3477 0193 05       		.uleb128 0x5
ARM GAS  /tmp/cc9xlzym.s 			page 62


 3478 0194 01       		.uleb128 0x1
 3479 0195 13       		.uleb128 0x13
 3480 0196 00       		.byte	0
 3481 0197 00       		.byte	0
 3482 0198 20       		.uleb128 0x20
 3483 0199 05       		.uleb128 0x5
 3484 019a 00       		.byte	0
 3485 019b 31       		.uleb128 0x31
 3486 019c 13       		.uleb128 0x13
 3487 019d 02       		.uleb128 0x2
 3488 019e 17       		.uleb128 0x17
 3489 019f 00       		.byte	0
 3490 01a0 00       		.byte	0
 3491 01a1 21       		.uleb128 0x21
 3492 01a2 0B       		.uleb128 0xb
 3493 01a3 01       		.byte	0x1
 3494 01a4 11       		.uleb128 0x11
 3495 01a5 01       		.uleb128 0x1
 3496 01a6 12       		.uleb128 0x12
 3497 01a7 06       		.uleb128 0x6
 3498 01a8 00       		.byte	0
 3499 01a9 00       		.byte	0
 3500 01aa 22       		.uleb128 0x22
 3501 01ab 34       		.uleb128 0x34
 3502 01ac 00       		.byte	0
 3503 01ad 31       		.uleb128 0x31
 3504 01ae 13       		.uleb128 0x13
 3505 01af 02       		.uleb128 0x2
 3506 01b0 17       		.uleb128 0x17
 3507 01b1 00       		.byte	0
 3508 01b2 00       		.byte	0
 3509 01b3 23       		.uleb128 0x23
 3510 01b4 898201   		.uleb128 0x4109
 3511 01b7 00       		.byte	0
 3512 01b8 11       		.uleb128 0x11
 3513 01b9 01       		.uleb128 0x1
 3514 01ba 31       		.uleb128 0x31
 3515 01bb 13       		.uleb128 0x13
 3516 01bc 00       		.byte	0
 3517 01bd 00       		.byte	0
 3518 01be 24       		.uleb128 0x24
 3519 01bf 1D       		.uleb128 0x1d
 3520 01c0 01       		.byte	0x1
 3521 01c1 31       		.uleb128 0x31
 3522 01c2 13       		.uleb128 0x13
 3523 01c3 11       		.uleb128 0x11
 3524 01c4 01       		.uleb128 0x1
 3525 01c5 12       		.uleb128 0x12
 3526 01c6 06       		.uleb128 0x6
 3527 01c7 58       		.uleb128 0x58
 3528 01c8 0B       		.uleb128 0xb
 3529 01c9 59       		.uleb128 0x59
 3530 01ca 05       		.uleb128 0x5
 3531 01cb 00       		.byte	0
 3532 01cc 00       		.byte	0
 3533 01cd 25       		.uleb128 0x25
 3534 01ce 05       		.uleb128 0x5
ARM GAS  /tmp/cc9xlzym.s 			page 63


 3535 01cf 00       		.byte	0
 3536 01d0 31       		.uleb128 0x31
 3537 01d1 13       		.uleb128 0x13
 3538 01d2 00       		.byte	0
 3539 01d3 00       		.byte	0
 3540 01d4 26       		.uleb128 0x26
 3541 01d5 1D       		.uleb128 0x1d
 3542 01d6 01       		.byte	0x1
 3543 01d7 31       		.uleb128 0x31
 3544 01d8 13       		.uleb128 0x13
 3545 01d9 11       		.uleb128 0x11
 3546 01da 01       		.uleb128 0x1
 3547 01db 12       		.uleb128 0x12
 3548 01dc 06       		.uleb128 0x6
 3549 01dd 58       		.uleb128 0x58
 3550 01de 0B       		.uleb128 0xb
 3551 01df 59       		.uleb128 0x59
 3552 01e0 0B       		.uleb128 0xb
 3553 01e1 00       		.byte	0
 3554 01e2 00       		.byte	0
 3555 01e3 27       		.uleb128 0x27
 3556 01e4 1D       		.uleb128 0x1d
 3557 01e5 00       		.byte	0
 3558 01e6 31       		.uleb128 0x31
 3559 01e7 13       		.uleb128 0x13
 3560 01e8 11       		.uleb128 0x11
 3561 01e9 01       		.uleb128 0x1
 3562 01ea 12       		.uleb128 0x12
 3563 01eb 06       		.uleb128 0x6
 3564 01ec 58       		.uleb128 0x58
 3565 01ed 0B       		.uleb128 0xb
 3566 01ee 59       		.uleb128 0x59
 3567 01ef 05       		.uleb128 0x5
 3568 01f0 00       		.byte	0
 3569 01f1 00       		.byte	0
 3570 01f2 28       		.uleb128 0x28
 3571 01f3 05       		.uleb128 0x5
 3572 01f4 00       		.byte	0
 3573 01f5 03       		.uleb128 0x3
 3574 01f6 08       		.uleb128 0x8
 3575 01f7 3A       		.uleb128 0x3a
 3576 01f8 0B       		.uleb128 0xb
 3577 01f9 3B       		.uleb128 0x3b
 3578 01fa 05       		.uleb128 0x5
 3579 01fb 49       		.uleb128 0x49
 3580 01fc 13       		.uleb128 0x13
 3581 01fd 02       		.uleb128 0x2
 3582 01fe 17       		.uleb128 0x17
 3583 01ff 00       		.byte	0
 3584 0200 00       		.byte	0
 3585 0201 29       		.uleb128 0x29
 3586 0202 34       		.uleb128 0x34
 3587 0203 00       		.byte	0
 3588 0204 03       		.uleb128 0x3
 3589 0205 0E       		.uleb128 0xe
 3590 0206 49       		.uleb128 0x49
 3591 0207 13       		.uleb128 0x13
ARM GAS  /tmp/cc9xlzym.s 			page 64


 3592 0208 34       		.uleb128 0x34
 3593 0209 19       		.uleb128 0x19
 3594 020a 00       		.byte	0
 3595 020b 00       		.byte	0
 3596 020c 2A       		.uleb128 0x2a
 3597 020d 34       		.uleb128 0x34
 3598 020e 00       		.byte	0
 3599 020f 03       		.uleb128 0x3
 3600 0210 0E       		.uleb128 0xe
 3601 0211 3A       		.uleb128 0x3a
 3602 0212 0B       		.uleb128 0xb
 3603 0213 3B       		.uleb128 0x3b
 3604 0214 05       		.uleb128 0x5
 3605 0215 49       		.uleb128 0x49
 3606 0216 13       		.uleb128 0x13
 3607 0217 02       		.uleb128 0x2
 3608 0218 17       		.uleb128 0x17
 3609 0219 00       		.byte	0
 3610 021a 00       		.byte	0
 3611 021b 2B       		.uleb128 0x2b
 3612 021c 1D       		.uleb128 0x1d
 3613 021d 01       		.byte	0x1
 3614 021e 31       		.uleb128 0x31
 3615 021f 13       		.uleb128 0x13
 3616 0220 52       		.uleb128 0x52
 3617 0221 01       		.uleb128 0x1
 3618 0222 55       		.uleb128 0x55
 3619 0223 17       		.uleb128 0x17
 3620 0224 58       		.uleb128 0x58
 3621 0225 0B       		.uleb128 0xb
 3622 0226 59       		.uleb128 0x59
 3623 0227 05       		.uleb128 0x5
 3624 0228 01       		.uleb128 0x1
 3625 0229 13       		.uleb128 0x13
 3626 022a 00       		.byte	0
 3627 022b 00       		.byte	0
 3628 022c 2C       		.uleb128 0x2c
 3629 022d 0B       		.uleb128 0xb
 3630 022e 01       		.byte	0x1
 3631 022f 55       		.uleb128 0x55
 3632 0230 17       		.uleb128 0x17
 3633 0231 00       		.byte	0
 3634 0232 00       		.byte	0
 3635 0233 2D       		.uleb128 0x2d
 3636 0234 898201   		.uleb128 0x4109
 3637 0237 00       		.byte	0
 3638 0238 11       		.uleb128 0x11
 3639 0239 01       		.uleb128 0x1
 3640 023a 9542     		.uleb128 0x2115
 3641 023c 19       		.uleb128 0x19
 3642 023d 31       		.uleb128 0x31
 3643 023e 13       		.uleb128 0x13
 3644 023f 00       		.byte	0
 3645 0240 00       		.byte	0
 3646 0241 2E       		.uleb128 0x2e
 3647 0242 0B       		.uleb128 0xb
 3648 0243 01       		.byte	0x1
ARM GAS  /tmp/cc9xlzym.s 			page 65


 3649 0244 11       		.uleb128 0x11
 3650 0245 01       		.uleb128 0x1
 3651 0246 12       		.uleb128 0x12
 3652 0247 06       		.uleb128 0x6
 3653 0248 01       		.uleb128 0x1
 3654 0249 13       		.uleb128 0x13
 3655 024a 00       		.byte	0
 3656 024b 00       		.byte	0
 3657 024c 2F       		.uleb128 0x2f
 3658 024d 898201   		.uleb128 0x4109
 3659 0250 01       		.byte	0x1
 3660 0251 11       		.uleb128 0x11
 3661 0252 01       		.uleb128 0x1
 3662 0253 31       		.uleb128 0x31
 3663 0254 13       		.uleb128 0x13
 3664 0255 01       		.uleb128 0x1
 3665 0256 13       		.uleb128 0x13
 3666 0257 00       		.byte	0
 3667 0258 00       		.byte	0
 3668 0259 30       		.uleb128 0x30
 3669 025a 8A8201   		.uleb128 0x410a
 3670 025d 00       		.byte	0
 3671 025e 02       		.uleb128 0x2
 3672 025f 18       		.uleb128 0x18
 3673 0260 9142     		.uleb128 0x2111
 3674 0262 18       		.uleb128 0x18
 3675 0263 00       		.byte	0
 3676 0264 00       		.byte	0
 3677 0265 31       		.uleb128 0x31
 3678 0266 1D       		.uleb128 0x1d
 3679 0267 01       		.byte	0x1
 3680 0268 31       		.uleb128 0x31
 3681 0269 13       		.uleb128 0x13
 3682 026a 52       		.uleb128 0x52
 3683 026b 01       		.uleb128 0x1
 3684 026c 55       		.uleb128 0x55
 3685 026d 17       		.uleb128 0x17
 3686 026e 58       		.uleb128 0x58
 3687 026f 0B       		.uleb128 0xb
 3688 0270 59       		.uleb128 0x59
 3689 0271 05       		.uleb128 0x5
 3690 0272 00       		.byte	0
 3691 0273 00       		.byte	0
 3692 0274 32       		.uleb128 0x32
 3693 0275 1D       		.uleb128 0x1d
 3694 0276 00       		.byte	0
 3695 0277 31       		.uleb128 0x31
 3696 0278 13       		.uleb128 0x13
 3697 0279 52       		.uleb128 0x52
 3698 027a 01       		.uleb128 0x1
 3699 027b 55       		.uleb128 0x55
 3700 027c 17       		.uleb128 0x17
 3701 027d 58       		.uleb128 0x58
 3702 027e 0B       		.uleb128 0xb
 3703 027f 59       		.uleb128 0x59
 3704 0280 05       		.uleb128 0x5
 3705 0281 00       		.byte	0
ARM GAS  /tmp/cc9xlzym.s 			page 66


 3706 0282 00       		.byte	0
 3707 0283 33       		.uleb128 0x33
 3708 0284 2E       		.uleb128 0x2e
 3709 0285 01       		.byte	0x1
 3710 0286 3F       		.uleb128 0x3f
 3711 0287 19       		.uleb128 0x19
 3712 0288 03       		.uleb128 0x3
 3713 0289 0E       		.uleb128 0xe
 3714 028a 3A       		.uleb128 0x3a
 3715 028b 0B       		.uleb128 0xb
 3716 028c 3B       		.uleb128 0x3b
 3717 028d 05       		.uleb128 0x5
 3718 028e 27       		.uleb128 0x27
 3719 028f 19       		.uleb128 0x19
 3720 0290 49       		.uleb128 0x49
 3721 0291 13       		.uleb128 0x13
 3722 0292 20       		.uleb128 0x20
 3723 0293 0B       		.uleb128 0xb
 3724 0294 01       		.uleb128 0x1
 3725 0295 13       		.uleb128 0x13
 3726 0296 00       		.byte	0
 3727 0297 00       		.byte	0
 3728 0298 34       		.uleb128 0x34
 3729 0299 05       		.uleb128 0x5
 3730 029a 00       		.byte	0
 3731 029b 03       		.uleb128 0x3
 3732 029c 08       		.uleb128 0x8
 3733 029d 3A       		.uleb128 0x3a
 3734 029e 0B       		.uleb128 0xb
 3735 029f 3B       		.uleb128 0x3b
 3736 02a0 05       		.uleb128 0x5
 3737 02a1 49       		.uleb128 0x49
 3738 02a2 13       		.uleb128 0x13
 3739 02a3 00       		.byte	0
 3740 02a4 00       		.byte	0
 3741 02a5 35       		.uleb128 0x35
 3742 02a6 34       		.uleb128 0x34
 3743 02a7 00       		.byte	0
 3744 02a8 03       		.uleb128 0x3
 3745 02a9 0E       		.uleb128 0xe
 3746 02aa 49       		.uleb128 0x49
 3747 02ab 13       		.uleb128 0x13
 3748 02ac 34       		.uleb128 0x34
 3749 02ad 19       		.uleb128 0x19
 3750 02ae 1C       		.uleb128 0x1c
 3751 02af 0E       		.uleb128 0xe
 3752 02b0 00       		.byte	0
 3753 02b1 00       		.byte	0
 3754 02b2 36       		.uleb128 0x36
 3755 02b3 2E       		.uleb128 0x2e
 3756 02b4 01       		.byte	0x1
 3757 02b5 3F       		.uleb128 0x3f
 3758 02b6 19       		.uleb128 0x19
 3759 02b7 03       		.uleb128 0x3
 3760 02b8 0E       		.uleb128 0xe
 3761 02b9 3A       		.uleb128 0x3a
 3762 02ba 0B       		.uleb128 0xb
ARM GAS  /tmp/cc9xlzym.s 			page 67


 3763 02bb 3B       		.uleb128 0x3b
 3764 02bc 0B       		.uleb128 0xb
 3765 02bd 27       		.uleb128 0x27
 3766 02be 19       		.uleb128 0x19
 3767 02bf 49       		.uleb128 0x49
 3768 02c0 13       		.uleb128 0x13
 3769 02c1 11       		.uleb128 0x11
 3770 02c2 01       		.uleb128 0x1
 3771 02c3 12       		.uleb128 0x12
 3772 02c4 06       		.uleb128 0x6
 3773 02c5 40       		.uleb128 0x40
 3774 02c6 18       		.uleb128 0x18
 3775 02c7 9742     		.uleb128 0x2117
 3776 02c9 19       		.uleb128 0x19
 3777 02ca 01       		.uleb128 0x1
 3778 02cb 13       		.uleb128 0x13
 3779 02cc 00       		.byte	0
 3780 02cd 00       		.byte	0
 3781 02ce 37       		.uleb128 0x37
 3782 02cf 05       		.uleb128 0x5
 3783 02d0 00       		.byte	0
 3784 02d1 03       		.uleb128 0x3
 3785 02d2 08       		.uleb128 0x8
 3786 02d3 3A       		.uleb128 0x3a
 3787 02d4 0B       		.uleb128 0xb
 3788 02d5 3B       		.uleb128 0x3b
 3789 02d6 0B       		.uleb128 0xb
 3790 02d7 49       		.uleb128 0x49
 3791 02d8 13       		.uleb128 0x13
 3792 02d9 02       		.uleb128 0x2
 3793 02da 17       		.uleb128 0x17
 3794 02db 00       		.byte	0
 3795 02dc 00       		.byte	0
 3796 02dd 38       		.uleb128 0x38
 3797 02de 0B       		.uleb128 0xb
 3798 02df 01       		.byte	0x1
 3799 02e0 31       		.uleb128 0x31
 3800 02e1 13       		.uleb128 0x13
 3801 02e2 11       		.uleb128 0x11
 3802 02e3 01       		.uleb128 0x1
 3803 02e4 12       		.uleb128 0x12
 3804 02e5 06       		.uleb128 0x6
 3805 02e6 00       		.byte	0
 3806 02e7 00       		.byte	0
 3807 02e8 39       		.uleb128 0x39
 3808 02e9 0B       		.uleb128 0xb
 3809 02ea 00       		.byte	0
 3810 02eb 11       		.uleb128 0x11
 3811 02ec 01       		.uleb128 0x1
 3812 02ed 12       		.uleb128 0x12
 3813 02ee 06       		.uleb128 0x6
 3814 02ef 00       		.byte	0
 3815 02f0 00       		.byte	0
 3816 02f1 3A       		.uleb128 0x3a
 3817 02f2 2E       		.uleb128 0x2e
 3818 02f3 01       		.byte	0x1
 3819 02f4 3F       		.uleb128 0x3f
ARM GAS  /tmp/cc9xlzym.s 			page 68


 3820 02f5 19       		.uleb128 0x19
 3821 02f6 03       		.uleb128 0x3
 3822 02f7 0E       		.uleb128 0xe
 3823 02f8 3A       		.uleb128 0x3a
 3824 02f9 0B       		.uleb128 0xb
 3825 02fa 3B       		.uleb128 0x3b
 3826 02fb 0B       		.uleb128 0xb
 3827 02fc 27       		.uleb128 0x27
 3828 02fd 19       		.uleb128 0x19
 3829 02fe 11       		.uleb128 0x11
 3830 02ff 01       		.uleb128 0x1
 3831 0300 12       		.uleb128 0x12
 3832 0301 06       		.uleb128 0x6
 3833 0302 40       		.uleb128 0x40
 3834 0303 18       		.uleb128 0x18
 3835 0304 9742     		.uleb128 0x2117
 3836 0306 19       		.uleb128 0x19
 3837 0307 01       		.uleb128 0x1
 3838 0308 13       		.uleb128 0x13
 3839 0309 00       		.byte	0
 3840 030a 00       		.byte	0
 3841 030b 3B       		.uleb128 0x3b
 3842 030c 34       		.uleb128 0x34
 3843 030d 00       		.byte	0
 3844 030e 03       		.uleb128 0x3
 3845 030f 08       		.uleb128 0x8
 3846 0310 3A       		.uleb128 0x3a
 3847 0311 0B       		.uleb128 0xb
 3848 0312 3B       		.uleb128 0x3b
 3849 0313 0B       		.uleb128 0xb
 3850 0314 49       		.uleb128 0x49
 3851 0315 13       		.uleb128 0x13
 3852 0316 02       		.uleb128 0x2
 3853 0317 17       		.uleb128 0x17
 3854 0318 00       		.byte	0
 3855 0319 00       		.byte	0
 3856 031a 3C       		.uleb128 0x3c
 3857 031b 1D       		.uleb128 0x1d
 3858 031c 01       		.byte	0x1
 3859 031d 31       		.uleb128 0x31
 3860 031e 13       		.uleb128 0x13
 3861 031f 52       		.uleb128 0x52
 3862 0320 01       		.uleb128 0x1
 3863 0321 55       		.uleb128 0x55
 3864 0322 17       		.uleb128 0x17
 3865 0323 58       		.uleb128 0x58
 3866 0324 0B       		.uleb128 0xb
 3867 0325 59       		.uleb128 0x59
 3868 0326 0B       		.uleb128 0xb
 3869 0327 01       		.uleb128 0x1
 3870 0328 13       		.uleb128 0x13
 3871 0329 00       		.byte	0
 3872 032a 00       		.byte	0
 3873 032b 3D       		.uleb128 0x3d
 3874 032c 898201   		.uleb128 0x4109
 3875 032f 01       		.byte	0x1
 3876 0330 11       		.uleb128 0x11
ARM GAS  /tmp/cc9xlzym.s 			page 69


 3877 0331 01       		.uleb128 0x1
 3878 0332 9542     		.uleb128 0x2115
 3879 0334 19       		.uleb128 0x19
 3880 0335 31       		.uleb128 0x31
 3881 0336 13       		.uleb128 0x13
 3882 0337 01       		.uleb128 0x1
 3883 0338 13       		.uleb128 0x13
 3884 0339 00       		.byte	0
 3885 033a 00       		.byte	0
 3886 033b 3E       		.uleb128 0x3e
 3887 033c 1D       		.uleb128 0x1d
 3888 033d 01       		.byte	0x1
 3889 033e 31       		.uleb128 0x31
 3890 033f 13       		.uleb128 0x13
 3891 0340 11       		.uleb128 0x11
 3892 0341 01       		.uleb128 0x1
 3893 0342 12       		.uleb128 0x12
 3894 0343 06       		.uleb128 0x6
 3895 0344 58       		.uleb128 0x58
 3896 0345 0B       		.uleb128 0xb
 3897 0346 59       		.uleb128 0x59
 3898 0347 0B       		.uleb128 0xb
 3899 0348 01       		.uleb128 0x1
 3900 0349 13       		.uleb128 0x13
 3901 034a 00       		.byte	0
 3902 034b 00       		.byte	0
 3903 034c 3F       		.uleb128 0x3f
 3904 034d 898201   		.uleb128 0x4109
 3905 0350 01       		.byte	0x1
 3906 0351 11       		.uleb128 0x11
 3907 0352 01       		.uleb128 0x1
 3908 0353 31       		.uleb128 0x31
 3909 0354 13       		.uleb128 0x13
 3910 0355 00       		.byte	0
 3911 0356 00       		.byte	0
 3912 0357 40       		.uleb128 0x40
 3913 0358 05       		.uleb128 0x5
 3914 0359 00       		.byte	0
 3915 035a 03       		.uleb128 0x3
 3916 035b 08       		.uleb128 0x8
 3917 035c 3A       		.uleb128 0x3a
 3918 035d 0B       		.uleb128 0xb
 3919 035e 3B       		.uleb128 0x3b
 3920 035f 0B       		.uleb128 0xb
 3921 0360 49       		.uleb128 0x49
 3922 0361 13       		.uleb128 0x13
 3923 0362 02       		.uleb128 0x2
 3924 0363 18       		.uleb128 0x18
 3925 0364 00       		.byte	0
 3926 0365 00       		.byte	0
 3927 0366 41       		.uleb128 0x41
 3928 0367 2E       		.uleb128 0x2e
 3929 0368 01       		.byte	0x1
 3930 0369 03       		.uleb128 0x3
 3931 036a 0E       		.uleb128 0xe
 3932 036b 3A       		.uleb128 0x3a
 3933 036c 0B       		.uleb128 0xb
ARM GAS  /tmp/cc9xlzym.s 			page 70


 3934 036d 3B       		.uleb128 0x3b
 3935 036e 0B       		.uleb128 0xb
 3936 036f 27       		.uleb128 0x27
 3937 0370 19       		.uleb128 0x19
 3938 0371 49       		.uleb128 0x49
 3939 0372 13       		.uleb128 0x13
 3940 0373 20       		.uleb128 0x20
 3941 0374 0B       		.uleb128 0xb
 3942 0375 01       		.uleb128 0x1
 3943 0376 13       		.uleb128 0x13
 3944 0377 00       		.byte	0
 3945 0378 00       		.byte	0
 3946 0379 42       		.uleb128 0x42
 3947 037a 05       		.uleb128 0x5
 3948 037b 00       		.byte	0
 3949 037c 03       		.uleb128 0x3
 3950 037d 08       		.uleb128 0x8
 3951 037e 3A       		.uleb128 0x3a
 3952 037f 0B       		.uleb128 0xb
 3953 0380 3B       		.uleb128 0x3b
 3954 0381 0B       		.uleb128 0xb
 3955 0382 49       		.uleb128 0x49
 3956 0383 13       		.uleb128 0x13
 3957 0384 00       		.byte	0
 3958 0385 00       		.byte	0
 3959 0386 43       		.uleb128 0x43
 3960 0387 2E       		.uleb128 0x2e
 3961 0388 01       		.byte	0x1
 3962 0389 03       		.uleb128 0x3
 3963 038a 0E       		.uleb128 0xe
 3964 038b 3A       		.uleb128 0x3a
 3965 038c 0B       		.uleb128 0xb
 3966 038d 3B       		.uleb128 0x3b
 3967 038e 05       		.uleb128 0x5
 3968 038f 27       		.uleb128 0x27
 3969 0390 19       		.uleb128 0x19
 3970 0391 20       		.uleb128 0x20
 3971 0392 0B       		.uleb128 0xb
 3972 0393 01       		.uleb128 0x1
 3973 0394 13       		.uleb128 0x13
 3974 0395 00       		.byte	0
 3975 0396 00       		.byte	0
 3976 0397 44       		.uleb128 0x44
 3977 0398 2E       		.uleb128 0x2e
 3978 0399 00       		.byte	0
 3979 039a 03       		.uleb128 0x3
 3980 039b 0E       		.uleb128 0xe
 3981 039c 3A       		.uleb128 0x3a
 3982 039d 0B       		.uleb128 0xb
 3983 039e 3B       		.uleb128 0x3b
 3984 039f 05       		.uleb128 0x5
 3985 03a0 27       		.uleb128 0x27
 3986 03a1 19       		.uleb128 0x19
 3987 03a2 20       		.uleb128 0x20
 3988 03a3 0B       		.uleb128 0xb
 3989 03a4 00       		.byte	0
 3990 03a5 00       		.byte	0
ARM GAS  /tmp/cc9xlzym.s 			page 71


 3991 03a6 45       		.uleb128 0x45
 3992 03a7 2E       		.uleb128 0x2e
 3993 03a8 01       		.byte	0x1
 3994 03a9 03       		.uleb128 0x3
 3995 03aa 0E       		.uleb128 0xe
 3996 03ab 3A       		.uleb128 0x3a
 3997 03ac 0B       		.uleb128 0xb
 3998 03ad 3B       		.uleb128 0x3b
 3999 03ae 05       		.uleb128 0x5
 4000 03af 27       		.uleb128 0x27
 4001 03b0 19       		.uleb128 0x19
 4002 03b1 49       		.uleb128 0x49
 4003 03b2 13       		.uleb128 0x13
 4004 03b3 20       		.uleb128 0x20
 4005 03b4 0B       		.uleb128 0xb
 4006 03b5 01       		.uleb128 0x1
 4007 03b6 13       		.uleb128 0x13
 4008 03b7 00       		.byte	0
 4009 03b8 00       		.byte	0
 4010 03b9 46       		.uleb128 0x46
 4011 03ba 2E       		.uleb128 0x2e
 4012 03bb 01       		.byte	0x1
 4013 03bc 31       		.uleb128 0x31
 4014 03bd 13       		.uleb128 0x13
 4015 03be 11       		.uleb128 0x11
 4016 03bf 01       		.uleb128 0x1
 4017 03c0 12       		.uleb128 0x12
 4018 03c1 06       		.uleb128 0x6
 4019 03c2 40       		.uleb128 0x40
 4020 03c3 18       		.uleb128 0x18
 4021 03c4 9742     		.uleb128 0x2117
 4022 03c6 19       		.uleb128 0x19
 4023 03c7 01       		.uleb128 0x1
 4024 03c8 13       		.uleb128 0x13
 4025 03c9 00       		.byte	0
 4026 03ca 00       		.byte	0
 4027 03cb 47       		.uleb128 0x47
 4028 03cc 2E       		.uleb128 0x2e
 4029 03cd 00       		.byte	0
 4030 03ce 3F       		.uleb128 0x3f
 4031 03cf 19       		.uleb128 0x19
 4032 03d0 3C       		.uleb128 0x3c
 4033 03d1 19       		.uleb128 0x19
 4034 03d2 6E       		.uleb128 0x6e
 4035 03d3 0E       		.uleb128 0xe
 4036 03d4 03       		.uleb128 0x3
 4037 03d5 0E       		.uleb128 0xe
 4038 03d6 3A       		.uleb128 0x3a
 4039 03d7 0B       		.uleb128 0xb
 4040 03d8 3B       		.uleb128 0x3b
 4041 03d9 05       		.uleb128 0x5
 4042 03da 00       		.byte	0
 4043 03db 00       		.byte	0
 4044 03dc 00       		.byte	0
 4045              		.section	.debug_loc,"",%progbits
 4046              	.Ldebug_loc0:
 4047              	.LLST36:
ARM GAS  /tmp/cc9xlzym.s 			page 72


 4048 0000 0E000000 		.4byte	.LVL79
 4049 0004 14000000 		.4byte	.LVL81
 4050 0008 0300     		.2byte	0x3
 4051 000a 74       		.byte	0x74
 4052 000b C000     		.sleb128 64
 4053 000d 00000000 		.4byte	0
 4054 0011 00000000 		.4byte	0
 4055              	.LLST37:
 4056 0015 0E000000 		.4byte	.LVL79
 4057 0019 22000000 		.4byte	.LVL82
 4058 001d 0100     		.2byte	0x1
 4059 001f 53       		.byte	0x53
 4060 0020 3E000000 		.4byte	.LVL85
 4061 0024 42000000 		.4byte	.LVL86
 4062 0028 0100     		.2byte	0x1
 4063 002a 53       		.byte	0x53
 4064 002b 00000000 		.4byte	0
 4065 002f 00000000 		.4byte	0
 4066              	.LLST38:
 4067 0033 10000000 		.4byte	.LVL80
 4068 0037 22000000 		.4byte	.LVL82
 4069 003b 0100     		.2byte	0x1
 4070 003d 52       		.byte	0x52
 4071 003e 3E000000 		.4byte	.LVL85
 4072 0042 4C000000 		.4byte	.LFE226
 4073 0046 0100     		.2byte	0x1
 4074 0048 50       		.byte	0x50
 4075 0049 00000000 		.4byte	0
 4076 004d 00000000 		.4byte	0
 4077              	.LLST28:
 4078 0051 00000000 		.4byte	.LVL64
 4079 0055 14000000 		.4byte	.LVL66
 4080 0059 0100     		.2byte	0x1
 4081 005b 50       		.byte	0x50
 4082 005c 14000000 		.4byte	.LVL66
 4083 0060 41000000 		.4byte	.LVL76-1
 4084 0064 0100     		.2byte	0x1
 4085 0066 51       		.byte	0x51
 4086 0067 41000000 		.4byte	.LVL76-1
 4087 006b 42000000 		.4byte	.LVL76
 4088 006f 0400     		.2byte	0x4
 4089 0071 F3       		.byte	0xf3
 4090 0072 01       		.uleb128 0x1
 4091 0073 50       		.byte	0x50
 4092 0074 9F       		.byte	0x9f
 4093 0075 42000000 		.4byte	.LVL76
 4094 0079 50000000 		.4byte	.LFE225
 4095 007d 0100     		.2byte	0x1
 4096 007f 50       		.byte	0x50
 4097 0080 00000000 		.4byte	0
 4098 0084 00000000 		.4byte	0
 4099              	.LLST29:
 4100 0088 08000000 		.4byte	.LVL65
 4101 008c 3E000000 		.4byte	.LVL75
 4102 0090 0100     		.2byte	0x1
 4103 0092 55       		.byte	0x55
 4104 0093 42000000 		.4byte	.LVL76
ARM GAS  /tmp/cc9xlzym.s 			page 73


 4105 0097 48000000 		.4byte	.LVL77
 4106 009b 0100     		.2byte	0x1
 4107 009d 55       		.byte	0x55
 4108 009e 00000000 		.4byte	0
 4109 00a2 00000000 		.4byte	0
 4110              	.LLST30:
 4111 00a6 14000000 		.4byte	.LVL66
 4112 00aa 2E000000 		.4byte	.LVL71
 4113 00ae 0100     		.2byte	0x1
 4114 00b0 53       		.byte	0x53
 4115 00b1 00000000 		.4byte	0
 4116 00b5 00000000 		.4byte	0
 4117              	.LLST31:
 4118 00b9 14000000 		.4byte	.LVL66
 4119 00bd 34000000 		.4byte	.LVL73
 4120 00c1 0100     		.2byte	0x1
 4121 00c3 50       		.byte	0x50
 4122 00c4 34000000 		.4byte	.LVL73
 4123 00c8 3E000000 		.4byte	.LVL75
 4124 00cc 0200     		.2byte	0x2
 4125 00ce 75       		.byte	0x75
 4126 00cf 08       		.sleb128 8
 4127 00d0 00000000 		.4byte	0
 4128 00d4 00000000 		.4byte	0
 4129              	.LLST32:
 4130 00d8 16000000 		.4byte	.LVL67
 4131 00dc 18000000 		.4byte	.LVL68
 4132 00e0 0100     		.2byte	0x1
 4133 00e2 53       		.byte	0x53
 4134 00e3 00000000 		.4byte	0
 4135 00e7 00000000 		.4byte	0
 4136              	.LLST34:
 4137 00eb 30000000 		.4byte	.LVL72
 4138 00ef 36000000 		.4byte	.LVL74
 4139 00f3 0100     		.2byte	0x1
 4140 00f5 51       		.byte	0x51
 4141 00f6 00000000 		.4byte	0
 4142 00fa 00000000 		.4byte	0
 4143              	.LLST35:
 4144 00fe 30000000 		.4byte	.LVL72
 4145 0102 36000000 		.4byte	.LVL74
 4146 0106 0100     		.2byte	0x1
 4147 0108 54       		.byte	0x54
 4148 0109 00000000 		.4byte	0
 4149 010d 00000000 		.4byte	0
 4150              	.LLST20:
 4151 0111 00000000 		.4byte	.LVL49
 4152 0115 34000000 		.4byte	.LVL58
 4153 0119 0100     		.2byte	0x1
 4154 011b 50       		.byte	0x50
 4155 011c 34000000 		.4byte	.LVL58
 4156 0120 41000000 		.4byte	.LVL60-1
 4157 0124 0100     		.2byte	0x1
 4158 0126 53       		.byte	0x53
 4159 0127 41000000 		.4byte	.LVL60-1
 4160 012b 4A000000 		.4byte	.LVL62
 4161 012f 0400     		.2byte	0x4
ARM GAS  /tmp/cc9xlzym.s 			page 74


 4162 0131 F3       		.byte	0xf3
 4163 0132 01       		.uleb128 0x1
 4164 0133 50       		.byte	0x50
 4165 0134 9F       		.byte	0x9f
 4166 0135 4A000000 		.4byte	.LVL62
 4167 0139 58000000 		.4byte	.LFE224
 4168 013d 0100     		.2byte	0x1
 4169 013f 50       		.byte	0x50
 4170 0140 00000000 		.4byte	0
 4171 0144 00000000 		.4byte	0
 4172              	.LLST21:
 4173 0148 06000000 		.4byte	.LVL50
 4174 014c 52000000 		.4byte	.LVL63
 4175 0150 0100     		.2byte	0x1
 4176 0152 55       		.byte	0x55
 4177 0153 00000000 		.4byte	0
 4178 0157 00000000 		.4byte	0
 4179              	.LLST22:
 4180 015b 14000000 		.4byte	.LVL51
 4181 015f 2C000000 		.4byte	.LVL56
 4182 0163 0100     		.2byte	0x1
 4183 0165 53       		.byte	0x53
 4184 0166 00000000 		.4byte	0
 4185 016a 00000000 		.4byte	0
 4186              	.LLST23:
 4187 016e 14000000 		.4byte	.LVL51
 4188 0172 41000000 		.4byte	.LVL60-1
 4189 0176 0100     		.2byte	0x1
 4190 0178 51       		.byte	0x51
 4191 0179 00000000 		.4byte	0
 4192 017d 00000000 		.4byte	0
 4193              	.LLST24:
 4194 0181 16000000 		.4byte	.LVL52
 4195 0185 18000000 		.4byte	.LVL53
 4196 0189 0100     		.2byte	0x1
 4197 018b 53       		.byte	0x53
 4198 018c 00000000 		.4byte	0
 4199 0190 00000000 		.4byte	0
 4200              	.LLST26:
 4201 0194 32000000 		.4byte	.LVL57
 4202 0198 38000000 		.4byte	.LVL59
 4203 019c 0100     		.2byte	0x1
 4204 019e 53       		.byte	0x53
 4205 019f 00000000 		.4byte	0
 4206 01a3 00000000 		.4byte	0
 4207              	.LLST27:
 4208 01a7 32000000 		.4byte	.LVL57
 4209 01ab 38000000 		.4byte	.LVL59
 4210 01af 0100     		.2byte	0x1
 4211 01b1 54       		.byte	0x54
 4212 01b2 00000000 		.4byte	0
 4213 01b6 00000000 		.4byte	0
 4214              	.LLST15:
 4215 01ba 00000000 		.4byte	.LVL38
 4216 01be 0A000000 		.4byte	.LVL40
 4217 01c2 0100     		.2byte	0x1
 4218 01c4 50       		.byte	0x50
ARM GAS  /tmp/cc9xlzym.s 			page 75


 4219 01c5 0A000000 		.4byte	.LVL40
 4220 01c9 0E000000 		.4byte	.LVL41
 4221 01cd 0100     		.2byte	0x1
 4222 01cf 53       		.byte	0x53
 4223 01d0 0E000000 		.4byte	.LVL41
 4224 01d4 1A000000 		.4byte	.LVL42
 4225 01d8 0100     		.2byte	0x1
 4226 01da 50       		.byte	0x50
 4227 01db 1A000000 		.4byte	.LVL42
 4228 01df 24000000 		.4byte	.LFE222
 4229 01e3 0100     		.2byte	0x1
 4230 01e5 53       		.byte	0x53
 4231 01e6 00000000 		.4byte	0
 4232 01ea 00000000 		.4byte	0
 4233              	.LLST16:
 4234 01ee 04000000 		.4byte	.LVL39
 4235 01f2 0A000000 		.4byte	.LVL40
 4236 01f6 0100     		.2byte	0x1
 4237 01f8 50       		.byte	0x50
 4238 01f9 0E000000 		.4byte	.LVL41
 4239 01fd 1A000000 		.4byte	.LVL42
 4240 0201 0100     		.2byte	0x1
 4241 0203 50       		.byte	0x50
 4242 0204 1A000000 		.4byte	.LVL42
 4243 0208 1C000000 		.4byte	.LVL43
 4244 020c 0100     		.2byte	0x1
 4245 020e 53       		.byte	0x53
 4246 020f 00000000 		.4byte	0
 4247 0213 00000000 		.4byte	0
 4248              	.LLST17:
 4249 0217 0E000000 		.4byte	.LVL41
 4250 021b 1A000000 		.4byte	.LVL42
 4251 021f 0100     		.2byte	0x1
 4252 0221 50       		.byte	0x50
 4253 0222 1A000000 		.4byte	.LVL42
 4254 0226 1C000000 		.4byte	.LVL43
 4255 022a 0100     		.2byte	0x1
 4256 022c 53       		.byte	0x53
 4257 022d 00000000 		.4byte	0
 4258 0231 00000000 		.4byte	0
 4259              	.LLST1:
 4260 0235 00000000 		.4byte	.LVL2
 4261 0239 16000000 		.4byte	.LVL5
 4262 023d 0100     		.2byte	0x1
 4263 023f 50       		.byte	0x50
 4264 0240 16000000 		.4byte	.LVL5
 4265 0244 4C000000 		.4byte	.LVL12
 4266 0248 0100     		.2byte	0x1
 4267 024a 54       		.byte	0x54
 4268 024b 4C000000 		.4byte	.LVL12
 4269 024f 50000000 		.4byte	.LVL13
 4270 0253 0400     		.2byte	0x4
 4271 0255 F3       		.byte	0xf3
 4272 0256 01       		.uleb128 0x1
 4273 0257 50       		.byte	0x50
 4274 0258 9F       		.byte	0x9f
 4275 0259 50000000 		.4byte	.LVL13
ARM GAS  /tmp/cc9xlzym.s 			page 76


 4276 025d 8E000000 		.4byte	.LVL23
 4277 0261 0100     		.2byte	0x1
 4278 0263 54       		.byte	0x54
 4279 0264 8E000000 		.4byte	.LVL23
 4280 0268 98000000 		.4byte	.LVL24
 4281 026c 0100     		.2byte	0x1
 4282 026e 50       		.byte	0x50
 4283 026f 98000000 		.4byte	.LVL24
 4284 0273 E4000000 		.4byte	.LFE221
 4285 0277 0100     		.2byte	0x1
 4286 0279 54       		.byte	0x54
 4287 027a 00000000 		.4byte	0
 4288 027e 00000000 		.4byte	0
 4289              	.LLST2:
 4290 0282 08000000 		.4byte	.LVL3
 4291 0286 4C000000 		.4byte	.LVL12
 4292 028a 0100     		.2byte	0x1
 4293 028c 55       		.byte	0x55
 4294 028d 50000000 		.4byte	.LVL13
 4295 0291 E4000000 		.4byte	.LFE221
 4296 0295 0100     		.2byte	0x1
 4297 0297 55       		.byte	0x55
 4298 0298 00000000 		.4byte	0
 4299 029c 00000000 		.4byte	0
 4300              	.LLST3:
 4301 02a0 14000000 		.4byte	.LVL4
 4302 02a4 26000000 		.4byte	.LVL6
 4303 02a8 0100     		.2byte	0x1
 4304 02aa 53       		.byte	0x53
 4305 02ab 50000000 		.4byte	.LVL13
 4306 02af 87000000 		.4byte	.LVL21-1
 4307 02b3 0100     		.2byte	0x1
 4308 02b5 53       		.byte	0x53
 4309 02b6 98000000 		.4byte	.LVL24
 4310 02ba E4000000 		.4byte	.LFE221
 4311 02be 0100     		.2byte	0x1
 4312 02c0 53       		.byte	0x53
 4313 02c1 00000000 		.4byte	0
 4314 02c5 00000000 		.4byte	0
 4315              	.LLST4:
 4316 02c9 28000000 		.4byte	.LVL7
 4317 02cd 2C000000 		.4byte	.LVL8
 4318 02d1 0100     		.2byte	0x1
 4319 02d3 56       		.byte	0x56
 4320 02d4 2C000000 		.4byte	.LVL8
 4321 02d8 46000000 		.4byte	.LVL11
 4322 02dc 0100     		.2byte	0x1
 4323 02de 54       		.byte	0x54
 4324 02df 8A000000 		.4byte	.LVL22
 4325 02e3 8E000000 		.4byte	.LVL23
 4326 02e7 0100     		.2byte	0x1
 4327 02e9 54       		.byte	0x54
 4328 02ea 00000000 		.4byte	0
 4329 02ee 00000000 		.4byte	0
 4330              	.LLST5:
 4331 02f2 28000000 		.4byte	.LVL7
 4332 02f6 46000000 		.4byte	.LVL11
ARM GAS  /tmp/cc9xlzym.s 			page 77


 4333 02fa 0100     		.2byte	0x1
 4334 02fc 55       		.byte	0x55
 4335 02fd 8A000000 		.4byte	.LVL22
 4336 0301 8E000000 		.4byte	.LVL23
 4337 0305 0100     		.2byte	0x1
 4338 0307 55       		.byte	0x55
 4339 0308 00000000 		.4byte	0
 4340 030c 00000000 		.4byte	0
 4341              	.LLST6:
 4342 0310 28000000 		.4byte	.LVL7
 4343 0314 2C000000 		.4byte	.LVL8
 4344 0318 0100     		.2byte	0x1
 4345 031a 56       		.byte	0x56
 4346 031b 2C000000 		.4byte	.LVL8
 4347 031f 3C000000 		.4byte	.LVL10
 4348 0323 0100     		.2byte	0x1
 4349 0325 53       		.byte	0x53
 4350 0326 8A000000 		.4byte	.LVL22
 4351 032a 8E000000 		.4byte	.LVL23
 4352 032e 0100     		.2byte	0x1
 4353 0330 53       		.byte	0x53
 4354 0331 00000000 		.4byte	0
 4355 0335 00000000 		.4byte	0
 4356              	.LLST7:
 4357 0339 50000000 		.4byte	.LVL13
 4358 033d 5C000000 		.4byte	.LVL14
 4359 0341 0100     		.2byte	0x1
 4360 0343 53       		.byte	0x53
 4361 0344 00000000 		.4byte	0
 4362 0348 00000000 		.4byte	0
 4363              	.LLST8:
 4364 034c 5C000000 		.4byte	.LVL14
 4365 0350 78000000 		.4byte	.LVL19
 4366 0354 0100     		.2byte	0x1
 4367 0356 56       		.byte	0x56
 4368 0357 CC000000 		.4byte	.LVL32
 4369 035b CE000000 		.4byte	.LVL33
 4370 035f 0100     		.2byte	0x1
 4371 0361 56       		.byte	0x56
 4372 0362 CE000000 		.4byte	.LVL33
 4373 0366 DA000000 		.4byte	.LVL35
 4374 036a 0200     		.2byte	0x2
 4375 036c 73       		.byte	0x73
 4376 036d 28       		.sleb128 40
 4377 036e 00000000 		.4byte	0
 4378 0372 00000000 		.4byte	0
 4379              	.LLST9:
 4380 0376 60000000 		.4byte	.LVL15
 4381 037a 6E000000 		.4byte	.LVL18
 4382 037e 0100     		.2byte	0x1
 4383 0380 52       		.byte	0x52
 4384 0381 CC000000 		.4byte	.LVL32
 4385 0385 D0000000 		.4byte	.LVL34
 4386 0389 0100     		.2byte	0x1
 4387 038b 52       		.byte	0x52
 4388 038c D0000000 		.4byte	.LVL34
 4389 0390 DA000000 		.4byte	.LVL35
ARM GAS  /tmp/cc9xlzym.s 			page 78


 4390 0394 0100     		.2byte	0x1
 4391 0396 56       		.byte	0x56
 4392 0397 00000000 		.4byte	0
 4393 039b 00000000 		.4byte	0
 4394              	.LLST10:
 4395 039f 78000000 		.4byte	.LVL19
 4396 03a3 84000000 		.4byte	.LVL20
 4397 03a7 0100     		.2byte	0x1
 4398 03a9 53       		.byte	0x53
 4399 03aa 00000000 		.4byte	0
 4400 03ae 00000000 		.4byte	0
 4401              	.LLST11:
 4402 03b2 98000000 		.4byte	.LVL24
 4403 03b6 A6000000 		.4byte	.LVL25
 4404 03ba 0100     		.2byte	0x1
 4405 03bc 53       		.byte	0x53
 4406 03bd 00000000 		.4byte	0
 4407 03c1 00000000 		.4byte	0
 4408              	.LLST12:
 4409 03c5 A6000000 		.4byte	.LVL25
 4410 03c9 C2000000 		.4byte	.LVL30
 4411 03cd 0100     		.2byte	0x1
 4412 03cf 56       		.byte	0x56
 4413 03d0 DA000000 		.4byte	.LVL35
 4414 03d4 E4000000 		.4byte	.LFE221
 4415 03d8 0100     		.2byte	0x1
 4416 03da 56       		.byte	0x56
 4417 03db 00000000 		.4byte	0
 4418 03df 00000000 		.4byte	0
 4419              	.LLST13:
 4420 03e3 AA000000 		.4byte	.LVL26
 4421 03e7 B8000000 		.4byte	.LVL29
 4422 03eb 0100     		.2byte	0x1
 4423 03ed 52       		.byte	0x52
 4424 03ee DA000000 		.4byte	.LVL35
 4425 03f2 E4000000 		.4byte	.LFE221
 4426 03f6 0100     		.2byte	0x1
 4427 03f8 52       		.byte	0x52
 4428 03f9 00000000 		.4byte	0
 4429 03fd 00000000 		.4byte	0
 4430              	.LLST14:
 4431 0401 00000000 		.4byte	.LVL36
 4432 0405 07000000 		.4byte	.LVL37-1
 4433 0409 0100     		.2byte	0x1
 4434 040b 50       		.byte	0x50
 4435 040c 07000000 		.4byte	.LVL37-1
 4436 0410 0C000000 		.4byte	.LFE220
 4437 0414 0400     		.2byte	0x4
 4438 0416 F3       		.byte	0xf3
 4439 0417 01       		.uleb128 0x1
 4440 0418 50       		.byte	0x50
 4441 0419 9F       		.byte	0x9f
 4442 041a 00000000 		.4byte	0
 4443 041e 00000000 		.4byte	0
 4444              	.LLST0:
 4445 0422 00000000 		.4byte	.LVL0
 4446 0426 06000000 		.4byte	.LVL1
ARM GAS  /tmp/cc9xlzym.s 			page 79


 4447 042a 0100     		.2byte	0x1
 4448 042c 50       		.byte	0x50
 4449 042d 00000000 		.4byte	0
 4450 0431 00000000 		.4byte	0
 4451              	.LLST18:
 4452 0435 00000000 		.4byte	.LVL44
 4453 0439 08000000 		.4byte	.LVL45
 4454 043d 0100     		.2byte	0x1
 4455 043f 50       		.byte	0x50
 4456 0440 08000000 		.4byte	.LVL45
 4457 0444 0A000000 		.4byte	.LVL46
 4458 0448 0100     		.2byte	0x1
 4459 044a 53       		.byte	0x53
 4460 044b 0A000000 		.4byte	.LVL46
 4461 044f 16000000 		.4byte	.LVL47
 4462 0453 0100     		.2byte	0x1
 4463 0455 50       		.byte	0x50
 4464 0456 16000000 		.4byte	.LVL47
 4465 045a 20000000 		.4byte	.LFE223
 4466 045e 0100     		.2byte	0x1
 4467 0460 53       		.byte	0x53
 4468 0461 00000000 		.4byte	0
 4469 0465 00000000 		.4byte	0
 4470              	.LLST19:
 4471 0469 0A000000 		.4byte	.LVL46
 4472 046d 16000000 		.4byte	.LVL47
 4473 0471 0100     		.2byte	0x1
 4474 0473 50       		.byte	0x50
 4475 0474 16000000 		.4byte	.LVL47
 4476 0478 18000000 		.4byte	.LVL48
 4477 047c 0100     		.2byte	0x1
 4478 047e 53       		.byte	0x53
 4479 047f 00000000 		.4byte	0
 4480 0483 00000000 		.4byte	0
 4481              		.section	.debug_aranges,"",%progbits
 4482 0000 54000000 		.4byte	0x54
 4483 0004 0200     		.2byte	0x2
 4484 0006 00000000 		.4byte	.Ldebug_info0
 4485 000a 04       		.byte	0x4
 4486 000b 00       		.byte	0
 4487 000c 0000     		.2byte	0
 4488 000e 0000     		.2byte	0
 4489 0010 00000000 		.4byte	.LFB219
 4490 0014 0A000000 		.4byte	.LFE219-.LFB219
 4491 0018 00000000 		.4byte	.LFB221
 4492 001c E4000000 		.4byte	.LFE221-.LFB221
 4493 0020 00000000 		.4byte	.LFB220
 4494 0024 0C000000 		.4byte	.LFE220-.LFB220
 4495 0028 00000000 		.4byte	.LFB222
 4496 002c 24000000 		.4byte	.LFE222-.LFB222
 4497 0030 00000000 		.4byte	.LFB223
 4498 0034 20000000 		.4byte	.LFE223-.LFB223
 4499 0038 00000000 		.4byte	.LFB224
 4500 003c 58000000 		.4byte	.LFE224-.LFB224
 4501 0040 00000000 		.4byte	.LFB225
 4502 0044 50000000 		.4byte	.LFE225-.LFB225
 4503 0048 00000000 		.4byte	.LFB226
ARM GAS  /tmp/cc9xlzym.s 			page 80


 4504 004c 4C000000 		.4byte	.LFE226-.LFB226
 4505 0050 00000000 		.4byte	0
 4506 0054 00000000 		.4byte	0
 4507              		.section	.debug_ranges,"",%progbits
 4508              	.Ldebug_ranges0:
 4509 0000 0C000000 		.4byte	.LBB105
 4510 0004 48000000 		.4byte	.LBE105
 4511 0008 4C000000 		.4byte	.LBB136
 4512 000c 8E000000 		.4byte	.LBE136
 4513 0010 98000000 		.4byte	.LBB137
 4514 0014 E4000000 		.4byte	.LBE137
 4515 0018 00000000 		.4byte	0
 4516 001c 00000000 		.4byte	0
 4517 0020 2C000000 		.4byte	.LBB106
 4518 0024 3C000000 		.4byte	.LBE106
 4519 0028 3E000000 		.4byte	.LBB110
 4520 002c 46000000 		.4byte	.LBE110
 4521 0030 8A000000 		.4byte	.LBB122
 4522 0034 8E000000 		.4byte	.LBE122
 4523 0038 00000000 		.4byte	0
 4524 003c 00000000 		.4byte	0
 4525 0040 50000000 		.4byte	.LBB111
 4526 0044 56000000 		.4byte	.LBE111
 4527 0048 58000000 		.4byte	.LBB114
 4528 004c 5C000000 		.4byte	.LBE114
 4529 0050 00000000 		.4byte	0
 4530 0054 00000000 		.4byte	0
 4531 0058 60000000 		.4byte	.LBB115
 4532 005c 78000000 		.4byte	.LBE115
 4533 0060 CC000000 		.4byte	.LBB134
 4534 0064 DA000000 		.4byte	.LBE134
 4535 0068 00000000 		.4byte	0
 4536 006c 00000000 		.4byte	0
 4537 0070 78000000 		.4byte	.LBB118
 4538 0074 80000000 		.4byte	.LBE118
 4539 0078 82000000 		.4byte	.LBB121
 4540 007c 84000000 		.4byte	.LBE121
 4541 0080 00000000 		.4byte	0
 4542 0084 00000000 		.4byte	0
 4543 0088 98000000 		.4byte	.LBB123
 4544 008c 9E000000 		.4byte	.LBE123
 4545 0090 A0000000 		.4byte	.LBB127
 4546 0094 A2000000 		.4byte	.LBE127
 4547 0098 A4000000 		.4byte	.LBB128
 4548 009c A6000000 		.4byte	.LBE128
 4549 00a0 00000000 		.4byte	0
 4550 00a4 00000000 		.4byte	0
 4551 00a8 AA000000 		.4byte	.LBB129
 4552 00ac B8000000 		.4byte	.LBE129
 4553 00b0 BA000000 		.4byte	.LBB133
 4554 00b4 C2000000 		.4byte	.LBE133
 4555 00b8 DA000000 		.4byte	.LBB135
 4556 00bc E4000000 		.4byte	.LBE135
 4557 00c0 00000000 		.4byte	0
 4558 00c4 00000000 		.4byte	0
 4559 00c8 04000000 		.4byte	.LBB164
 4560 00cc 0A000000 		.4byte	.LBE164
ARM GAS  /tmp/cc9xlzym.s 			page 81


 4561 00d0 0E000000 		.4byte	.LBB178
 4562 00d4 1C000000 		.4byte	.LBE178
 4563 00d8 00000000 		.4byte	0
 4564 00dc 00000000 		.4byte	0
 4565 00e0 0A000000 		.4byte	.LBB169
 4566 00e4 0C000000 		.4byte	.LBE169
 4567 00e8 1C000000 		.4byte	.LBB179
 4568 00ec 1E000000 		.4byte	.LBE179
 4569 00f0 00000000 		.4byte	0
 4570 00f4 00000000 		.4byte	0
 4571 00f8 2C000000 		.4byte	.LBB197
 4572 00fc 2E000000 		.4byte	.LBE197
 4573 0100 34000000 		.4byte	.LBB200
 4574 0104 38000000 		.4byte	.LBE200
 4575 0108 00000000 		.4byte	0
 4576 010c 00000000 		.4byte	0
 4577 0110 46000000 		.4byte	.LBB201
 4578 0114 48000000 		.4byte	.LBE201
 4579 0118 4E000000 		.4byte	.LBB210
 4580 011c 50000000 		.4byte	.LBE210
 4581 0120 00000000 		.4byte	0
 4582 0124 00000000 		.4byte	0
 4583 0128 12000000 		.4byte	.LBB215
 4584 012c 3C000000 		.4byte	.LBE215
 4585 0130 3E000000 		.4byte	.LBB226
 4586 0134 42000000 		.4byte	.LBE226
 4587 0138 00000000 		.4byte	0
 4588 013c 00000000 		.4byte	0
 4589 0140 2C000000 		.4byte	.LBB220
 4590 0144 2E000000 		.4byte	.LBE220
 4591 0148 30000000 		.4byte	.LBB224
 4592 014c 32000000 		.4byte	.LBE224
 4593 0150 34000000 		.4byte	.LBB225
 4594 0154 36000000 		.4byte	.LBE225
 4595 0158 00000000 		.4byte	0
 4596 015c 00000000 		.4byte	0
 4597 0160 0C000000 		.4byte	.LBB231
 4598 0164 2E000000 		.4byte	.LBE231
 4599 0168 3E000000 		.4byte	.LBB245
 4600 016c 42000000 		.4byte	.LBE245
 4601 0170 00000000 		.4byte	0
 4602 0174 00000000 		.4byte	0
 4603 0178 16000000 		.4byte	.LBB236
 4604 017c 18000000 		.4byte	.LBE236
 4605 0180 1A000000 		.4byte	.LBB239
 4606 0184 2E000000 		.4byte	.LBE239
 4607 0188 00000000 		.4byte	0
 4608 018c 00000000 		.4byte	0
 4609 0190 00000000 		.4byte	.LFB219
 4610 0194 0A000000 		.4byte	.LFE219
 4611 0198 00000000 		.4byte	.LFB221
 4612 019c E4000000 		.4byte	.LFE221
 4613 01a0 00000000 		.4byte	.LFB220
 4614 01a4 0C000000 		.4byte	.LFE220
 4615 01a8 00000000 		.4byte	.LFB222
 4616 01ac 24000000 		.4byte	.LFE222
 4617 01b0 00000000 		.4byte	.LFB223
ARM GAS  /tmp/cc9xlzym.s 			page 82


 4618 01b4 20000000 		.4byte	.LFE223
 4619 01b8 00000000 		.4byte	.LFB224
 4620 01bc 58000000 		.4byte	.LFE224
 4621 01c0 00000000 		.4byte	.LFB225
 4622 01c4 50000000 		.4byte	.LFE225
 4623 01c8 00000000 		.4byte	.LFB226
 4624 01cc 4C000000 		.4byte	.LFE226
 4625 01d0 00000000 		.4byte	0
 4626 01d4 00000000 		.4byte	0
 4627              		.section	.debug_line,"",%progbits
 4628              	.Ldebug_line0:
 4629 0000 9F040000 		.section	.debug_str,"MS",%progbits,1
 4629      0200FB01 
 4629      00000201 
 4629      FB0E0D00 
 4629      01010101 
 4630              	.LASF118:
 4631 0000 63665F6F 		.ascii	"cf_off_older\000"
 4631      66665F6F 
 4631      6C646572 
 4631      00
 4632              	.LASF57:
 4633 000d 72656164 		.ascii	"ready_list_t\000"
 4633      795F6C69 
 4633      73745F74 
 4633      00
 4634              	.LASF96:
 4635 001a 77747472 		.ascii	"wttrp\000"
 4635      7000
 4636              	.LASF93:
 4637 0020 7264796D 		.ascii	"rdymsg\000"
 4637      736700
 4638              	.LASF18:
 4639 0027 75696E74 		.ascii	"uint64_t\000"
 4639      36345F74 
 4639      00
 4640              	.LASF4:
 4641 0030 5F5F7569 		.ascii	"__uint8_t\000"
 4641      6E74385F 
 4641      7400
 4642              	.LASF90:
 4643 003a 706F7274 		.ascii	"port_intctx\000"
 4643      5F696E74 
 4643      63747800 
 4644              	.LASF76:
 4645 0046 73797374 		.ascii	"system_debug_t\000"
 4645      656D5F64 
 4645      65627567 
 4645      5F7400
 4646              	.LASF155:
 4647 0055 43686962 		.ascii	"ChibiOS_3.0.5/os/rt/src/chmtx.c\000"
 4647      694F535F 
 4647      332E302E 
 4647      352F6F73 
 4647      2F72742F 
 4648              	.LASF154:
 4649 0075 474E5520 		.ascii	"GNU C99 7.3.1 20180622 (release) [ARM/embedded-7-br"
ARM GAS  /tmp/cc9xlzym.s 			page 83


 4649      43393920 
 4649      372E332E 
 4649      31203230 
 4649      31383036 
 4650 00a8 616E6368 		.ascii	"anch revision 261907] -mcpu=cortex-m4 -mfloat-abi=h"
 4650      20726576 
 4650      6973696F 
 4650      6E203236 
 4650      31393037 
 4651 00db 61726420 		.ascii	"ard -mfpu=fpv4-sp-d16 -mno-thumb-interwork -mthumb "
 4651      2D6D6670 
 4651      753D6670 
 4651      76342D73 
 4651      702D6431 
 4652 010e 2D676764 		.ascii	"-ggdb -O2 -std=gnu99 -fomit-frame-pointer -falign-f"
 4652      62202D4F 
 4652      32202D73 
 4652      74643D67 
 4652      6E753939 
 4653 0141 756E6374 		.ascii	"unctions=16 -ffunction-sections -fdata-sections -fn"
 4653      696F6E73 
 4653      3D313620 
 4653      2D666675 
 4653      6E637469 
 4654 0174 6F2D636F 		.ascii	"o-common -fsingle-precision-constant\000"
 4654      6D6D6F6E 
 4654      202D6673 
 4654      696E676C 
 4654      652D7072 
 4655              	.LASF148:
 4656 0199 706F7274 		.ascii	"port_lock\000"
 4656      5F6C6F63 
 4656      6B00
 4657              	.LASF13:
 4658 01a3 6C6F6E67 		.ascii	"long long unsigned int\000"
 4658      206C6F6E 
 4658      6720756E 
 4658      7369676E 
 4658      65642069 
 4659              	.LASF114:
 4660 01ba 63685F74 		.ascii	"ch_threadsize\000"
 4660      68726561 
 4660      6473697A 
 4660      6500
 4661              	.LASF94:
 4662 01c8 65786974 		.ascii	"exitcode\000"
 4662      636F6465 
 4662      00
 4663              	.LASF83:
 4664 01d1 6D61696E 		.ascii	"mainthread\000"
 4664      74687265 
 4664      616400
 4665              	.LASF73:
 4666 01dc 76697274 		.ascii	"virtual_timers_list_t\000"
 4666      75616C5F 
 4666      74696D65 
 4666      72735F6C 
ARM GAS  /tmp/cc9xlzym.s 			page 84


 4666      6973745F 
 4667              	.LASF85:
 4668 01f2 49544D5F 		.ascii	"ITM_RxBuffer\000"
 4668      52784275 
 4668      66666572 
 4668      00
 4669              	.LASF56:
 4670 01ff 63685F74 		.ascii	"ch_threads_queue\000"
 4670      68726561 
 4670      64735F71 
 4670      75657565 
 4670      00
 4671              	.LASF32:
 4672 0210 705F7072 		.ascii	"p_prio\000"
 4672      696F00
 4673              	.LASF121:
 4674 0217 63665F6F 		.ascii	"cf_off_state\000"
 4674      66665F73 
 4674      74617465 
 4674      00
 4675              	.LASF75:
 4676 0224 76745F73 		.ascii	"vt_systime\000"
 4676      79737469 
 4676      6D6500
 4677              	.LASF132:
 4678 022f 63684D74 		.ascii	"chMtxUnlock\000"
 4678      78556E6C 
 4678      6F636B00 
 4679              	.LASF1:
 4680 023b 7369676E 		.ascii	"signed char\000"
 4680      65642063 
 4680      68617200 
 4681              	.LASF120:
 4682 0247 63665F6F 		.ascii	"cf_off_stklimit\000"
 4682      66665F73 
 4682      746B6C69 
 4682      6D697400 
 4683              	.LASF122:
 4684 0257 63665F6F 		.ascii	"cf_off_flags\000"
 4684      66665F66 
 4684      6C616773 
 4684      00
 4685              	.LASF49:
 4686 0264 705F6D70 		.ascii	"p_mpool\000"
 4686      6F6F6C00 
 4687              	.LASF104:
 4688 026c 6D5F7175 		.ascii	"m_queue\000"
 4688      65756500 
 4689              	.LASF82:
 4690 0274 76746C69 		.ascii	"vtlist\000"
 4690      737400
 4691              	.LASF147:
 4692 027b 706F7274 		.ascii	"port_unlock\000"
 4692      5F756E6C 
 4692      6F636B00 
 4693              	.LASF23:
 4694 0287 74736C69 		.ascii	"tslices_t\000"
ARM GAS  /tmp/cc9xlzym.s 			page 85


 4694      6365735F 
 4694      7400
 4695              	.LASF80:
 4696 0291 63685F73 		.ascii	"ch_system\000"
 4696      79737465 
 4696      6D00
 4697              	.LASF8:
 4698 029b 6C6F6E67 		.ascii	"long int\000"
 4698      20696E74 
 4698      00
 4699              	.LASF141:
 4700 02a4 71756575 		.ascii	"queue_dequeue\000"
 4700      655F6465 
 4700      71756575 
 4700      6500
 4701              	.LASF21:
 4702 02b2 74737461 		.ascii	"tstate_t\000"
 4702      74655F74 
 4702      00
 4703              	.LASF144:
 4704 02bb 71756575 		.ascii	"queue_notempty\000"
 4704      655F6E6F 
 4704      74656D70 
 4704      747900
 4705              	.LASF126:
 4706 02ca 63686465 		.ascii	"chdebug_t\000"
 4706      6275675F 
 4706      7400
 4707              	.LASF138:
 4708 02d4 63684D74 		.ascii	"chMtxTryLockS\000"
 4708      78547279 
 4708      4C6F636B 
 4708      5300
 4709              	.LASF34:
 4710 02e2 705F6E65 		.ascii	"p_newer\000"
 4710      77657200 
 4711              	.LASF101:
 4712 02ea 735F7175 		.ascii	"s_queue\000"
 4712      65756500 
 4713              	.LASF152:
 4714 02f2 63685363 		.ascii	"chSchRescheduleS\000"
 4714      68526573 
 4714      63686564 
 4714      756C6553 
 4714      00
 4715              	.LASF22:
 4716 0303 74726566 		.ascii	"trefs_t\000"
 4716      735F7400 
 4717              	.LASF62:
 4718 030b 725F6E65 		.ascii	"r_newer\000"
 4718      77657200 
 4719              	.LASF87:
 4720 0313 72656761 		.ascii	"regarm_t\000"
 4720      726D5F74 
 4720      00
 4721              	.LASF69:
 4722 031c 76745F70 		.ascii	"vt_prev\000"
ARM GAS  /tmp/cc9xlzym.s 			page 86


 4722      72657600 
 4723              	.LASF11:
 4724 0324 6C6F6E67 		.ascii	"long long int\000"
 4724      206C6F6E 
 4724      6720696E 
 4724      7400
 4725              	.LASF84:
 4726 0332 69646C65 		.ascii	"idle_thread_wa\000"
 4726      5F746872 
 4726      6561645F 
 4726      776100
 4727              	.LASF27:
 4728 0341 636E745F 		.ascii	"cnt_t\000"
 4728      7400
 4729              	.LASF130:
 4730 0347 63684D74 		.ascii	"chMtxUnlockS\000"
 4730      78556E6C 
 4730      6F636B53 
 4730      00
 4731              	.LASF0:
 4732 0354 756E7369 		.ascii	"unsigned int\000"
 4732      676E6564 
 4732      20696E74 
 4732      00
 4733              	.LASF68:
 4734 0361 76745F6E 		.ascii	"vt_next\000"
 4734      65787400 
 4735              	.LASF15:
 4736 0369 75696E74 		.ascii	"uint16_t\000"
 4736      31365F74 
 4736      00
 4737              	.LASF86:
 4738 0372 53797374 		.ascii	"SystemCoreClock\000"
 4738      656D436F 
 4738      7265436C 
 4738      6F636B00 
 4739              	.LASF42:
 4740 0382 705F7469 		.ascii	"p_time\000"
 4740      6D6500
 4741              	.LASF97:
 4742 0389 77747365 		.ascii	"wtsemp\000"
 4742      6D7000
 4743              	.LASF70:
 4744 0390 76745F64 		.ascii	"vt_delta\000"
 4744      656C7461 
 4744      00
 4745              	.LASF44:
 4746 0399 705F6D73 		.ascii	"p_msgqueue\000"
 4746      67717565 
 4746      756500
 4747              	.LASF127:
 4748 03a4 63685F64 		.ascii	"ch_debug\000"
 4748      65627567 
 4748      00
 4749              	.LASF102:
 4750 03ad 735F636E 		.ascii	"s_cnt\000"
 4750      7400
ARM GAS  /tmp/cc9xlzym.s 			page 87


 4751              	.LASF6:
 4752 03b3 73686F72 		.ascii	"short unsigned int\000"
 4752      7420756E 
 4752      7369676E 
 4752      65642069 
 4752      6E7400
 4753              	.LASF53:
 4754 03c6 63685F74 		.ascii	"ch_thread\000"
 4754      68726561 
 4754      6400
 4755              	.LASF145:
 4756 03d0 71756575 		.ascii	"queue_init\000"
 4756      655F696E 
 4756      697400
 4757              	.LASF25:
 4758 03db 6D73675F 		.ascii	"msg_t\000"
 4758      7400
 4759              	.LASF79:
 4760 03e1 63685F73 		.ascii	"ch_system_t\000"
 4760      79737465 
 4760      6D5F7400 
 4761              	.LASF129:
 4762 03ed 63684D74 		.ascii	"chMtxUnlockAll\000"
 4762      78556E6C 
 4762      6F636B41 
 4762      6C6C00
 4763              	.LASF131:
 4764 03fc 6E657770 		.ascii	"newprio\000"
 4764      72696F00 
 4765              	.LASF125:
 4766 0404 63665F6F 		.ascii	"cf_off_time\000"
 4766      66665F74 
 4766      696D6500 
 4767              	.LASF58:
 4768 0410 63685F72 		.ascii	"ch_ready_list\000"
 4768      65616479 
 4768      5F6C6973 
 4768      7400
 4769              	.LASF26:
 4770 041e 6576656E 		.ascii	"eventmask_t\000"
 4770      746D6173 
 4770      6B5F7400 
 4771              	.LASF157:
 4772 042a 63684D74 		.ascii	"chMtxTryLock\000"
 4772      78547279 
 4772      4C6F636B 
 4772      00
 4773              	.LASF7:
 4774 0437 5F5F696E 		.ascii	"__int32_t\000"
 4774      7433325F 
 4774      7400
 4775              	.LASF88:
 4776 0441 73746B61 		.ascii	"stkalign_t\000"
 4776      6C69676E 
 4776      5F7400
 4777              	.LASF109:
 4778 044c 63685F7A 		.ascii	"ch_zero\000"
ARM GAS  /tmp/cc9xlzym.s 			page 88


 4778      65726F00 
 4779              	.LASF123:
 4780 0454 63665F6F 		.ascii	"cf_off_refs\000"
 4780      66665F72 
 4780      65667300 
 4781              	.LASF43:
 4782 0460 705F7761 		.ascii	"p_waiting\000"
 4782      6974696E 
 4782      6700
 4783              	.LASF19:
 4784 046a 7274636E 		.ascii	"rtcnt_t\000"
 4784      745F7400 
 4785              	.LASF74:
 4786 0472 63685F76 		.ascii	"ch_virtual_timers_list\000"
 4786      69727475 
 4786      616C5F74 
 4786      696D6572 
 4786      735F6C69 
 4787              	.LASF113:
 4788 0489 63685F74 		.ascii	"ch_timesize\000"
 4788      696D6573 
 4788      697A6500 
 4789              	.LASF119:
 4790 0495 63665F6F 		.ascii	"cf_off_name\000"
 4790      66665F6E 
 4790      616D6500 
 4791              	.LASF136:
 4792 04a1 63684D74 		.ascii	"chMtxLock\000"
 4792      784C6F63 
 4792      6B00
 4793              	.LASF35:
 4794 04ab 705F6F6C 		.ascii	"p_older\000"
 4794      64657200 
 4795              	.LASF61:
 4796 04b3 725F6374 		.ascii	"r_ctx\000"
 4796      7800
 4797              	.LASF33:
 4798 04b9 705F6374 		.ascii	"p_ctx\000"
 4798      7800
 4799              	.LASF92:
 4800 04bf 746D5F63 		.ascii	"tm_calibration_t\000"
 4800      616C6962 
 4800      72617469 
 4800      6F6E5F74 
 4800      00
 4801              	.LASF37:
 4802 04d0 705F7374 		.ascii	"p_stklimit\000"
 4802      6B6C696D 
 4802      697400
 4803              	.LASF64:
 4804 04db 725F6375 		.ascii	"r_current\000"
 4804      7272656E 
 4804      7400
 4805              	.LASF63:
 4806 04e5 725F6F6C 		.ascii	"r_older\000"
 4806      64657200 
 4807              	.LASF150:
ARM GAS  /tmp/cc9xlzym.s 			page 89


 4808 04ed 5F5F656E 		.ascii	"__enable_irq\000"
 4808      61626C65 
 4808      5F697271 
 4808      00
 4809              	.LASF12:
 4810 04fa 5F5F7569 		.ascii	"__uint64_t\000"
 4810      6E743634 
 4810      5F7400
 4811              	.LASF149:
 4812 0505 5F5F6469 		.ascii	"__disable_irq\000"
 4812      7361626C 
 4812      655F6972 
 4812      7100
 4813              	.LASF112:
 4814 0513 63685F70 		.ascii	"ch_ptrsize\000"
 4814      74727369 
 4814      7A6500
 4815              	.LASF66:
 4816 051e 76697274 		.ascii	"virtual_timer_t\000"
 4816      75616C5F 
 4816      74696D65 
 4816      725F7400 
 4817              	.LASF31:
 4818 052e 705F7072 		.ascii	"p_prev\000"
 4818      657600
 4819              	.LASF24:
 4820 0535 74707269 		.ascii	"tprio_t\000"
 4820      6F5F7400 
 4821              	.LASF137:
 4822 053d 63684D74 		.ascii	"chMtxObjectInit\000"
 4822      784F626A 
 4822      65637449 
 4822      6E697400 
 4823              	.LASF77:
 4824 054d 63685F73 		.ascii	"ch_system_debug\000"
 4824      79737465 
 4824      6D5F6465 
 4824      62756700 
 4825              	.LASF134:
 4826 055d 5F426F6F 		.ascii	"_Bool\000"
 4826      6C00
 4827              	.LASF16:
 4828 0563 696E7433 		.ascii	"int32_t\000"
 4828      325F7400 
 4829              	.LASF2:
 4830 056b 756E7369 		.ascii	"unsigned char\000"
 4830      676E6564 
 4830      20636861 
 4830      7200
 4831              	.LASF38:
 4832 0579 705F7374 		.ascii	"p_state\000"
 4832      61746500 
 4833              	.LASF47:
 4834 0581 705F6D74 		.ascii	"p_mtxlist\000"
 4834      786C6973 
 4834      7400
 4835              	.LASF3:
ARM GAS  /tmp/cc9xlzym.s 			page 90


 4836 058b 73686F72 		.ascii	"short int\000"
 4836      7420696E 
 4836      7400
 4837              	.LASF41:
 4838 0595 705F7072 		.ascii	"p_preempt\000"
 4838      65656D70 
 4838      7400
 4839              	.LASF60:
 4840 059f 725F7072 		.ascii	"r_prio\000"
 4840      696F00
 4841              	.LASF99:
 4842 05a6 65776D61 		.ascii	"ewmask\000"
 4842      736B00
 4843              	.LASF30:
 4844 05ad 705F6E65 		.ascii	"p_next\000"
 4844      787400
 4845              	.LASF20:
 4846 05b4 746D6F64 		.ascii	"tmode_t\000"
 4846      655F7400 
 4847              	.LASF124:
 4848 05bc 63665F6F 		.ascii	"cf_off_preempt\000"
 4848      66665F70 
 4848      7265656D 
 4848      707400
 4849              	.LASF39:
 4850 05cb 705F666C 		.ascii	"p_flags\000"
 4850      61677300 
 4851              	.LASF133:
 4852 05d3 5F5F6675 		.ascii	"__func__\000"
 4852      6E635F5F 
 4852      00
 4853              	.LASF146:
 4854 05dc 63685379 		.ascii	"chSysLock\000"
 4854      734C6F63 
 4854      6B00
 4855              	.LASF55:
 4856 05e6 74687265 		.ascii	"threads_queue_t\000"
 4856      6164735F 
 4856      71756575 
 4856      655F7400 
 4857              	.LASF67:
 4858 05f6 63685F76 		.ascii	"ch_virtual_timer\000"
 4858      69727475 
 4858      616C5F74 
 4858      696D6572 
 4858      00
 4859              	.LASF117:
 4860 0607 63665F6F 		.ascii	"cf_off_newer\000"
 4860      66665F6E 
 4860      65776572 
 4860      00
 4861              	.LASF100:
 4862 0614 63685F73 		.ascii	"ch_semaphore\000"
 4862      656D6170 
 4862      686F7265 
 4862      00
 4863              	.LASF153:
ARM GAS  /tmp/cc9xlzym.s 			page 91


 4864 0621 63685363 		.ascii	"chSchGoSleepS\000"
 4864      68476F53 
 4864      6C656570 
 4864      5300
 4865              	.LASF46:
 4866 062f 705F6570 		.ascii	"p_epending\000"
 4866      656E6469 
 4866      6E6700
 4867              	.LASF156:
 4868 063a 2F626C64 		.ascii	"/bldc\000"
 4868      6300
 4869              	.LASF17:
 4870 0640 75696E74 		.ascii	"uint32_t\000"
 4870      33325F74 
 4870      00
 4871              	.LASF115:
 4872 0649 63665F6F 		.ascii	"cf_off_prio\000"
 4872      66665F70 
 4872      72696F00 
 4873              	.LASF59:
 4874 0655 725F7175 		.ascii	"r_queue\000"
 4874      65756500 
 4875              	.LASF151:
 4876 065d 63685363 		.ascii	"chSchReadyI\000"
 4876      68526561 
 4876      64794900 
 4877              	.LASF54:
 4878 0669 63685F74 		.ascii	"ch_threads_list\000"
 4878      68726561 
 4878      64735F6C 
 4878      69737400 
 4879              	.LASF110:
 4880 0679 63685F73 		.ascii	"ch_size\000"
 4880      697A6500 
 4881              	.LASF10:
 4882 0681 6C6F6E67 		.ascii	"long unsigned int\000"
 4882      20756E73 
 4882      69676E65 
 4882      6420696E 
 4882      7400
 4883              	.LASF107:
 4884 0693 63686172 		.ascii	"char\000"
 4884      00
 4885              	.LASF98:
 4886 0698 77746D74 		.ascii	"wtmtxp\000"
 4886      787000
 4887              	.LASF5:
 4888 069f 5F5F7569 		.ascii	"__uint16_t\000"
 4888      6E743136 
 4888      5F7400
 4889              	.LASF29:
 4890 06aa 74687265 		.ascii	"thread_t\000"
 4890      61645F74 
 4890      00
 4891              	.LASF142:
 4892 06b3 71756575 		.ascii	"queue_fifo_remove\000"
 4892      655F6669 
ARM GAS  /tmp/cc9xlzym.s 			page 92


 4892      666F5F72 
 4892      656D6F76 
 4892      6500
 4893              	.LASF28:
 4894 06c5 73797374 		.ascii	"systime_t\000"
 4894      696D655F 
 4894      7400
 4895              	.LASF48:
 4896 06cf 705F7265 		.ascii	"p_realprio\000"
 4896      616C7072 
 4896      696F00
 4897              	.LASF65:
 4898 06da 76746675 		.ascii	"vtfunc_t\000"
 4898      6E635F74 
 4898      00
 4899              	.LASF9:
 4900 06e3 5F5F7569 		.ascii	"__uint32_t\000"
 4900      6E743332 
 4900      5F7400
 4901              	.LASF140:
 4902 06ee 63684D74 		.ascii	"chMtxQueueNotEmptyS\000"
 4902      78517565 
 4902      75654E6F 
 4902      74456D70 
 4902      74795300 
 4903              	.LASF78:
 4904 0702 70616E69 		.ascii	"panic_msg\000"
 4904      635F6D73 
 4904      6700
 4905              	.LASF91:
 4906 070c 6F666673 		.ascii	"offset\000"
 4906      657400
 4907              	.LASF89:
 4908 0713 636F6E74 		.ascii	"context\000"
 4908      65787400 
 4909              	.LASF45:
 4910 071b 705F6D73 		.ascii	"p_msg\000"
 4910      6700
 4911              	.LASF72:
 4912 0721 76745F70 		.ascii	"vt_par\000"
 4912      617200
 4913              	.LASF116:
 4914 0728 63665F6F 		.ascii	"cf_off_ctx\000"
 4914      66665F63 
 4914      747800
 4915              	.LASF103:
 4916 0733 63685F6D 		.ascii	"ch_mutex\000"
 4916      75746578 
 4916      00
 4917              	.LASF40:
 4918 073c 705F7265 		.ascii	"p_refs\000"
 4918      667300
 4919              	.LASF106:
 4920 0743 6D5F6E65 		.ascii	"m_next\000"
 4920      787400
 4921              	.LASF50:
 4922 074a 6D6F746F 		.ascii	"motor_selected\000"
ARM GAS  /tmp/cc9xlzym.s 			page 93


 4922      725F7365 
 4922      6C656374 
 4922      656400
 4923              	.LASF81:
 4924 0759 726C6973 		.ascii	"rlist\000"
 4924      7400
 4925              	.LASF14:
 4926 075f 75696E74 		.ascii	"uint8_t\000"
 4926      385F7400 
 4927              	.LASF51:
 4928 0767 74687265 		.ascii	"thread_reference_t\000"
 4928      61645F72 
 4928      65666572 
 4928      656E6365 
 4928      5F7400
 4929              	.LASF95:
 4930 077a 77746F62 		.ascii	"wtobjp\000"
 4930      6A7000
 4931              	.LASF36:
 4932 0781 705F6E61 		.ascii	"p_name\000"
 4932      6D6500
 4933              	.LASF52:
 4934 0788 74687265 		.ascii	"threads_list_t\000"
 4934      6164735F 
 4934      6C697374 
 4934      5F7400
 4935              	.LASF139:
 4936 0797 63685379 		.ascii	"chSysUnlock\000"
 4936      73556E6C 
 4936      6F636B00 
 4937              	.LASF111:
 4938 07a3 63685F76 		.ascii	"ch_version\000"
 4938      65727369 
 4938      6F6E00
 4939              	.LASF135:
 4940 07ae 63684D74 		.ascii	"chMtxLockS\000"
 4940      784C6F63 
 4940      6B5300
 4941              	.LASF143:
 4942 07b9 71756575 		.ascii	"queue_prio_insert\000"
 4942      655F7072 
 4942      696F5F69 
 4942      6E736572 
 4942      7400
 4943              	.LASF128:
 4944 07cb 6D757465 		.ascii	"mutex_t\000"
 4944      785F7400 
 4945              	.LASF105:
 4946 07d3 6D5F6F77 		.ascii	"m_owner\000"
 4946      6E657200 
 4947              	.LASF108:
 4948 07db 63685F69 		.ascii	"ch_identifier\000"
 4948      64656E74 
 4948      69666965 
 4948      7200
 4949              	.LASF71:
 4950 07e9 76745F66 		.ascii	"vt_func\000"
ARM GAS  /tmp/cc9xlzym.s 			page 94


 4950      756E6300 
 4951              		.ident	"GCC: (GNU Tools for Arm Embedded Processors 7-2018-q3-update) 7.3.1 20180622 (release) [AR
ARM GAS  /tmp/cc9xlzym.s 			page 95


DEFINED SYMBOLS
                            *ABS*:0000000000000000 chmtx.c
     /tmp/cc9xlzym.s:18     .text.chMtxObjectInit:0000000000000000 $t
     /tmp/cc9xlzym.s:26     .text.chMtxObjectInit:0000000000000000 chMtxObjectInit
     /tmp/cc9xlzym.s:53     .text.chMtxLockS:0000000000000000 $t
     /tmp/cc9xlzym.s:61     .text.chMtxLockS:0000000000000000 chMtxLockS
     /tmp/cc9xlzym.s:360    .text.chMtxLockS:00000000000000e0 $d
     /tmp/cc9xlzym.s:368    .text.chMtxLock:0000000000000000 $t
     /tmp/cc9xlzym.s:376    .text.chMtxLock:0000000000000000 chMtxLock
     /tmp/cc9xlzym.s:429    .text.chMtxTryLock:0000000000000000 $t
     /tmp/cc9xlzym.s:437    .text.chMtxTryLock:0000000000000000 chMtxTryLock
     /tmp/cc9xlzym.s:536    .text.chMtxTryLock:0000000000000020 $d
     /tmp/cc9xlzym.s:541    .text.chMtxTryLockS:0000000000000000 $t
     /tmp/cc9xlzym.s:549    .text.chMtxTryLockS:0000000000000000 chMtxTryLockS
     /tmp/cc9xlzym.s:588    .text.chMtxTryLockS:000000000000001c $d
     /tmp/cc9xlzym.s:595    .text.chMtxUnlock:0000000000000000 $t
     /tmp/cc9xlzym.s:603    .text.chMtxUnlock:0000000000000000 chMtxUnlock
     /tmp/cc9xlzym.s:771    .text.chMtxUnlock:0000000000000054 $d
     /tmp/cc9xlzym.s:776    .text.chMtxUnlockS:0000000000000000 $t
     /tmp/cc9xlzym.s:784    .text.chMtxUnlockS:0000000000000000 chMtxUnlockS
     /tmp/cc9xlzym.s:914    .text.chMtxUnlockS:000000000000004c $d
     /tmp/cc9xlzym.s:919    .text.chMtxUnlockAll:0000000000000000 $t
     /tmp/cc9xlzym.s:927    .text.chMtxUnlockAll:0000000000000000 chMtxUnlockAll
     /tmp/cc9xlzym.s:1059   .text.chMtxUnlockAll:0000000000000048 $d

UNDEFINED SYMBOLS
chSchGoSleepS
chSchReadyI
ch
chSchRescheduleS
