ARM GAS  /tmp/ccDO8Csd.s 			page 1


   1              		.cpu cortex-m4
   2              		.eabi_attribute 27, 1
   3              		.eabi_attribute 28, 1
   4              		.eabi_attribute 20, 1
   5              		.eabi_attribute 21, 1
   6              		.eabi_attribute 23, 3
   7              		.eabi_attribute 24, 1
   8              		.eabi_attribute 25, 1
   9              		.eabi_attribute 26, 1
  10              		.eabi_attribute 30, 2
  11              		.eabi_attribute 34, 1
  12              		.eabi_attribute 18, 4
  13              		.file	"chschd.c"
  14              		.text
  15              	.Ltext0:
  16              		.cfi_sections	.debug_frame
  17              		.section	.text.wakeup,"ax",%progbits
  18              		.align	1
  19              		.p2align 4,,15
  20              		.syntax unified
  21              		.thumb
  22              		.thumb_func
  23              		.fpu fpv4-sp-d16
  24              		.type	wakeup, %function
  25              	wakeup:
  26              	.LFB222:
  27              		.file 1 "ChibiOS_3.0.5/os/rt/src/chschd.c"
  28              		.loc 1 275 0
  29              		.cfi_startproc
  30              		@ args = 0, pretend = 0, frame = 0
  31              		@ frame_needed = 0, uses_anonymous_args = 0
  32              		@ link register save eliminated.
  33              	.LVL0:
  34              	.LBB153:
  35              	.LBB154:
  36              	.LBB155:
  37              	.LBB156:
  38              	.LBB157:
  39              		.file 2 "ChibiOS_3.0.5/os/ext/CMSIS/include/core_cmFunc.h"
  40              		.loc 2 342 0
  41              		.syntax unified
  42              	@ 342 "ChibiOS_3.0.5/os/ext/CMSIS/include/core_cmFunc.h" 1
  43 0000 72B6     		cpsid i
  44              	@ 0 "" 2
  45              		.thumb
  46              		.syntax unified
  47              	.LBE157:
  48              	.LBE156:
  49              	.LBE155:
  50              	.LBE154:
  51              	.LBE153:
  52              		.loc 1 279 0
  53 0002 90F82030 		ldrb	r3, [r0, #32]	@ zero_extendqisi2
  54 0006 072B     		cmp	r3, #7
  55 0008 0ED8     		bhi	.L2
  56 000a DFE803F0 		tbb	[pc, r3]
  57              	.L4:
ARM GAS  /tmp/ccDO8Csd.s 			page 2


  58 000e 27       		.byte	(.L3-.L4)/2
  59 000f 0D       		.byte	(.L2-.L4)/2
  60 0010 0D       		.byte	(.L2-.L4)/2
  61 0011 23       		.byte	(.L5-.L4)/2
  62 0012 08       		.byte	(.L6-.L4)/2
  63 0013 04       		.byte	(.L7-.L4)/2
  64 0014 0D       		.byte	(.L2-.L4)/2
  65 0015 08       		.byte	(.L6-.L4)/2
  66              		.p2align 1
  67              	.L7:
  68              		.loc 1 290 0
  69 0016 826A     		ldr	r2, [r0, #40]
  70              	.LVL1:
  71              	.LBB158:
  72              	.LBB159:
  73              		.file 3 "ChibiOS_3.0.5/os/rt/include/chsem.h"
  74              		.loc 3 138 0
  75 0018 9368     		ldr	r3, [r2, #8]
  76 001a 0133     		adds	r3, r3, #1
  77 001c 9360     		str	r3, [r2, #8]
  78              	.LVL2:
  79              	.L6:
  80              	.LBE159:
  81              	.LBE158:
  82              	.LBB160:
  83              	.LBB161:
  84              		.file 4 "ChibiOS_3.0.5/os/rt/include/chschd.h"
  85              		.loc 4 691 0
  86 001e D0E90023 		ldrd	r2, r3, [r0]
  87 0022 1A60     		str	r2, [r3]
  88              		.loc 4 692 0
  89 0024 0268     		ldr	r2, [r0]
  90 0026 5360     		str	r3, [r2, #4]
  91              	.LVL3:
  92              	.L2:
  93              	.LBE161:
  94              	.LBE160:
  95              		.loc 1 275 0
  96 0028 10B4     		push	{r4}
  97              		.cfi_def_cfa_offset 4
  98              		.cfi_offset 4, -4
  99              	.LBB162:
 100              	.LBB163:
 101              		.loc 1 227 0
 102 002a 0022     		movs	r2, #0
 103              	.LBE163:
 104              	.LBE162:
 105              		.loc 1 305 0
 106 002c 4FF0FF34 		mov	r4, #-1
 107              	.LBB165:
 108              	.LBB166:
 109              	.LBB167:
 110              	.LBB168:
 111              		.loc 1 231 0
 112 0030 8168     		ldr	r1, [r0, #8]
 113              		.loc 1 228 0
 114 0032 0B4B     		ldr	r3, .L15
ARM GAS  /tmp/ccDO8Csd.s 			page 3


 115              	.LBE168:
 116              	.LBE167:
 117              	.LBE166:
 118              	.LBE165:
 119              		.loc 1 305 0
 120 0034 8462     		str	r4, [r0, #40]
 121              	.LVL4:
 122              	.LBB177:
 123              	.LBB164:
 124              		.loc 1 227 0
 125 0036 80F82020 		strb	r2, [r0, #32]
 126              	.LVL5:
 127              	.L9:
 128              	.LBE164:
 129              	.LBE177:
 130              	.LBB178:
 131              	.LBB176:
 132              	.LBB170:
 133              	.LBB169:
 134              		.loc 1 230 0
 135 003a 1B68     		ldr	r3, [r3]
 136              	.LVL6:
 137              		.loc 1 231 0
 138 003c 9A68     		ldr	r2, [r3, #8]
 139 003e 8A42     		cmp	r2, r1
 140 0040 FBD2     		bcs	.L9
 141              		.loc 1 234 0
 142 0042 5A68     		ldr	r2, [r3, #4]
 143 0044 C0E90032 		strd	r3, r2, [r0]
 144              		.loc 1 235 0
 145 0048 1060     		str	r0, [r2]
 146              		.loc 1 236 0
 147 004a 5860     		str	r0, [r3, #4]
 148              	.LVL7:
 149              	.LBE169:
 150              	.LBE170:
 151              	.LBB171:
 152              	.LBB172:
 153              	.LBB173:
 154              	.LBB174:
 155              	.LBB175:
 156              		.loc 2 331 0
 157              		.syntax unified
 158              	@ 331 "ChibiOS_3.0.5/os/ext/CMSIS/include/core_cmFunc.h" 1
 159 004c 62B6     		cpsie i
 160              	@ 0 "" 2
 161              		.thumb
 162              		.syntax unified
 163              	.LBE175:
 164              	.LBE174:
 165              	.LBE173:
 166              	.LBE172:
 167              	.LBE171:
 168              	.LBE176:
 169              	.LBE178:
 170              		.loc 1 308 0
 171 004e 5DF8044B 		ldr	r4, [sp], #4
ARM GAS  /tmp/ccDO8Csd.s 			page 4


 172              		.cfi_restore 4
 173              		.cfi_def_cfa_offset 0
 174 0052 7047     		bx	lr
 175              	.LVL8:
 176              	.L5:
 177              		.loc 1 286 0
 178 0054 836A     		ldr	r3, [r0, #40]
 179 0056 0022     		movs	r2, #0
 180 0058 1A60     		str	r2, [r3]
 181              		.loc 1 287 0
 182 005a E5E7     		b	.L2
 183              	.L3:
 184              	.LBB179:
 185              	.LBB180:
 186              	.LBB181:
 187              	.LBB182:
 188              	.LBB183:
 189              		.loc 2 331 0
 190              		.syntax unified
 191              	@ 331 "ChibiOS_3.0.5/os/ext/CMSIS/include/core_cmFunc.h" 1
 192 005c 62B6     		cpsie i
 193              	@ 0 "" 2
 194              		.thumb
 195              		.syntax unified
 196 005e 7047     		bx	lr
 197              	.L16:
 198              		.align	2
 199              	.L15:
 200 0060 00000000 		.word	.LANCHOR0
 201              	.LBE183:
 202              	.LBE182:
 203              	.LBE181:
 204              	.LBE180:
 205              	.LBE179:
 206              		.cfi_endproc
 207              	.LFE222:
 208              		.size	wakeup, .-wakeup
 209              		.section	.text._scheduler_init,"ax",%progbits
 210              		.align	1
 211              		.p2align 4,,15
 212              		.global	_scheduler_init
 213              		.syntax unified
 214              		.thumb
 215              		.thumb_func
 216              		.fpu fpv4-sp-d16
 217              		.type	_scheduler_init, %function
 218              	_scheduler_init:
 219              	.LFB219:
 220              		.loc 1 65 0
 221              		.cfi_startproc
 222              		@ args = 0, pretend = 0, frame = 0
 223              		@ frame_needed = 0, uses_anonymous_args = 0
 224              		@ link register save eliminated.
 225              	.LVL9:
 226              	.LBB184:
 227              	.LBB185:
 228              		.loc 4 604 0
ARM GAS  /tmp/ccDO8Csd.s 			page 5


 229 0000 034B     		ldr	r3, .L18
 230              	.LBE185:
 231              	.LBE184:
 232              		.loc 1 68 0
 233 0002 0022     		movs	r2, #0
 234              	.LBB187:
 235              	.LBB186:
 236              		.loc 4 605 0
 237 0004 C3E90033 		strd	r3, r3, [r3]
 238              	.LVL10:
 239              	.LBE186:
 240              	.LBE187:
 241              		.loc 1 71 0
 242 0008 C3E90433 		strd	r3, r3, [r3, #16]
 243              		.loc 1 68 0
 244 000c 9A60     		str	r2, [r3, #8]
 245              		.loc 1 73 0
 246 000e 7047     		bx	lr
 247              	.L19:
 248              		.align	2
 249              	.L18:
 250 0010 00000000 		.word	.LANCHOR0
 251              		.cfi_endproc
 252              	.LFE219:
 253              		.size	_scheduler_init, .-_scheduler_init
 254              		.section	.text.chSchReadyI,"ax",%progbits
 255              		.align	1
 256              		.p2align 4,,15
 257              		.global	chSchReadyI
 258              		.syntax unified
 259              		.thumb
 260              		.thumb_func
 261              		.fpu fpv4-sp-d16
 262              		.type	chSchReadyI, %function
 263              	chSchReadyI:
 264              	.LFB220:
 265              		.loc 1 218 0
 266              		.cfi_startproc
 267              		@ args = 0, pretend = 0, frame = 0
 268              		@ frame_needed = 0, uses_anonymous_args = 0
 269              		@ link register save eliminated.
 270              	.LVL11:
 271              		.loc 1 218 0
 272 0000 0146     		mov	r1, r0
 273              		.loc 1 227 0
 274 0002 0022     		movs	r2, #0
 275              		.loc 1 228 0
 276 0004 074B     		ldr	r3, .L23
 277              		.loc 1 231 0
 278 0006 8068     		ldr	r0, [r0, #8]
 279              	.LVL12:
 280              		.loc 1 227 0
 281 0008 81F82020 		strb	r2, [r1, #32]
 282              	.LVL13:
 283              	.L21:
 284              		.loc 1 230 0 discriminator 1
 285 000c 1B68     		ldr	r3, [r3]
ARM GAS  /tmp/ccDO8Csd.s 			page 6


 286              	.LVL14:
 287              		.loc 1 231 0 discriminator 1
 288 000e 9A68     		ldr	r2, [r3, #8]
 289 0010 8242     		cmp	r2, r0
 290 0012 FBD2     		bcs	.L21
 291              		.loc 1 234 0
 292 0014 5A68     		ldr	r2, [r3, #4]
 293              		.loc 1 239 0
 294 0016 0846     		mov	r0, r1
 295              		.loc 1 234 0
 296 0018 C1E90032 		strd	r3, r2, [r1]
 297              		.loc 1 235 0
 298 001c 1160     		str	r1, [r2]
 299              		.loc 1 236 0
 300 001e 5960     		str	r1, [r3, #4]
 301              		.loc 1 239 0
 302 0020 7047     		bx	lr
 303              	.L24:
 304 0022 00BF     		.align	2
 305              	.L23:
 306 0024 00000000 		.word	.LANCHOR0
 307              		.cfi_endproc
 308              	.LFE220:
 309              		.size	chSchReadyI, .-chSchReadyI
 310              		.section	.text.chSchGoSleepS,"ax",%progbits
 311              		.align	1
 312              		.p2align 4,,15
 313              		.global	chSchGoSleepS
 314              		.syntax unified
 315              		.thumb
 316              		.thumb_func
 317              		.fpu fpv4-sp-d16
 318              		.type	chSchGoSleepS, %function
 319              	chSchGoSleepS:
 320              	.LFB221:
 321              		.loc 1 250 0
 322              		.cfi_startproc
 323              		@ args = 0, pretend = 0, frame = 0
 324              		@ frame_needed = 0, uses_anonymous_args = 0
 325              	.LVL15:
 326 0000 38B5     		push	{r3, r4, r5, lr}
 327              		.cfi_def_cfa_offset 16
 328              		.cfi_offset 3, -16
 329              		.cfi_offset 4, -12
 330              		.cfi_offset 5, -8
 331              		.cfi_offset 14, -4
 332              		.loc 1 255 0
 333 0002 0F4C     		ldr	r4, .L28
 334 0004 A569     		ldr	r5, [r4, #24]
 335              	.LVL16:
 336              	.LBB188:
 337              	.LBB189:
 338              		.loc 4 672 0
 339 0006 2368     		ldr	r3, [r4]
 340              	.LBE189:
 341              	.LBE188:
 342              		.loc 1 256 0
ARM GAS  /tmp/ccDO8Csd.s 			page 7


 343 0008 85F82000 		strb	r0, [r5, #32]
 344              		.loc 1 260 0
 345 000c 0422     		movs	r2, #4
 346 000e 85F82320 		strb	r2, [r5, #35]
 347              	.LVL17:
 348              	.LBB192:
 349              	.LBB190:
 350              		.loc 4 674 0
 351 0012 1A68     		ldr	r2, [r3]
 352 0014 2260     		str	r2, [r4]
 353              	.LBE190:
 354              	.LBE192:
 355              		.loc 1 268 0
 356 0016 0121     		movs	r1, #1
 357              	.LBB193:
 358              	.LBB191:
 359              		.loc 4 675 0
 360 0018 5460     		str	r4, [r2, #4]
 361              	.LVL18:
 362              	.LBE191:
 363              	.LBE193:
 364              		.loc 1 262 0
 365 001a A361     		str	r3, [r4, #24]
 366              		.loc 1 268 0
 367 001c 83F82010 		strb	r1, [r3, #32]
 368              	.LBB194:
 369              	.LBB195:
 370              	.LBB196:
 371              		.loc 2 428 0
 372              		.syntax unified
 373              	@ 428 "ChibiOS_3.0.5/os/ext/CMSIS/include/core_cmFunc.h" 1
 374 0020 EFF30982 		MRS r2, psp
 375              	
 376              	@ 0 "" 2
 377              	.LVL19:
 378              		.thumb
 379              		.syntax unified
 380              	.LBE196:
 381              	.LBE195:
 382              		.loc 1 269 0
 383 0024 E969     		ldr	r1, [r5, #28]
 384 0026 643A     		subs	r2, r2, #100
 385              	.LVL20:
 386 0028 9142     		cmp	r1, r2
 387 002a 03D9     		bls	.L26
 388              		.loc 1 269 0 is_stmt 0 discriminator 1
 389 002c 0548     		ldr	r0, .L28+4
 390              	.LVL21:
 391 002e FFF7FEFF 		bl	chSysHalt
 392              	.LVL22:
 393 0032 A369     		ldr	r3, [r4, #24]
 394              	.L26:
 395              		.loc 1 269 0 discriminator 3
 396 0034 2946     		mov	r1, r5
 397 0036 1846     		mov	r0, r3
 398              	.LBE194:
 399              		.loc 1 270 0 is_stmt 1 discriminator 3
ARM GAS  /tmp/ccDO8Csd.s 			page 8


 400 0038 BDE83840 		pop	{r3, r4, r5, lr}
 401              		.cfi_restore 14
 402              		.cfi_restore 5
 403              		.cfi_restore 4
 404              		.cfi_restore 3
 405              		.cfi_def_cfa_offset 0
 406              	.LVL23:
 407              	.LBB197:
 408              		.loc 1 269 0 discriminator 3
 409 003c FFF7FEBF 		b	_port_switch
 410              	.LVL24:
 411              	.L29:
 412              		.align	2
 413              	.L28:
 414 0040 00000000 		.word	.LANCHOR0
 415 0044 00000000 		.word	.LC0
 416              	.LBE197:
 417              		.cfi_endproc
 418              	.LFE221:
 419              		.size	chSchGoSleepS, .-chSchGoSleepS
 420              		.section	.text.chSchGoSleepTimeoutS,"ax",%progbits
 421              		.align	1
 422              		.p2align 4,,15
 423              		.global	chSchGoSleepTimeoutS
 424              		.syntax unified
 425              		.thumb
 426              		.thumb_func
 427              		.fpu fpv4-sp-d16
 428              		.type	chSchGoSleepTimeoutS, %function
 429              	chSchGoSleepTimeoutS:
 430              	.LFB223:
 431              		.loc 1 331 0
 432              		.cfi_startproc
 433              		@ args = 0, pretend = 0, frame = 24
 434              		@ frame_needed = 0, uses_anonymous_args = 0
 435              	.LVL25:
 436 0000 30B5     		push	{r4, r5, lr}
 437              		.cfi_def_cfa_offset 12
 438              		.cfi_offset 4, -12
 439              		.cfi_offset 5, -8
 440              		.cfi_offset 14, -4
 441              		.loc 1 335 0
 442 0002 4B1C     		adds	r3, r1, #1
 443              		.loc 1 331 0
 444 0004 87B0     		sub	sp, sp, #28
 445              		.cfi_def_cfa_offset 40
 446              		.loc 1 335 0
 447 0006 12D0     		beq	.L31
 448              	.LBB198:
 449              		.loc 1 338 0
 450 0008 0C4C     		ldr	r4, .L38
 451 000a 0D4A     		ldr	r2, .L38+4
 452 000c A369     		ldr	r3, [r4, #24]
 453 000e 0546     		mov	r5, r0
 454 0010 01A8     		add	r0, sp, #4
 455              	.LVL26:
 456 0012 FFF7FEFF 		bl	chVTDoSetI
ARM GAS  /tmp/ccDO8Csd.s 			page 9


 457              	.LVL27:
 458              		.loc 1 339 0
 459 0016 2846     		mov	r0, r5
 460 0018 FFF7FEFF 		bl	chSchGoSleepS
 461              	.LVL28:
 462              		.loc 1 340 0
 463 001c 049B     		ldr	r3, [sp, #16]
 464 001e 13B1     		cbz	r3, .L33
 465              		.loc 1 341 0
 466 0020 01A8     		add	r0, sp, #4
 467              	.LVL29:
 468 0022 FFF7FEFF 		bl	chVTDoResetI
 469              	.LVL30:
 470              	.L33:
 471              	.LBE198:
 472              		.loc 1 348 0
 473 0026 A369     		ldr	r3, [r4, #24]
 474              		.loc 1 349 0
 475 0028 986A     		ldr	r0, [r3, #40]
 476 002a 07B0     		add	sp, sp, #28
 477              		.cfi_remember_state
 478              		.cfi_def_cfa_offset 12
 479              		@ sp needed
 480 002c 30BD     		pop	{r4, r5, pc}
 481              	.LVL31:
 482              	.L31:
 483              		.cfi_restore_state
 484 002e 034C     		ldr	r4, .L38
 485              		.loc 1 345 0
 486 0030 FFF7FEFF 		bl	chSchGoSleepS
 487              	.LVL32:
 488              		.loc 1 348 0
 489 0034 A369     		ldr	r3, [r4, #24]
 490              		.loc 1 349 0
 491 0036 986A     		ldr	r0, [r3, #40]
 492 0038 07B0     		add	sp, sp, #28
 493              		.cfi_def_cfa_offset 12
 494              		@ sp needed
 495 003a 30BD     		pop	{r4, r5, pc}
 496              	.L39:
 497              		.align	2
 498              	.L38:
 499 003c 00000000 		.word	.LANCHOR0
 500 0040 00000000 		.word	wakeup
 501              		.cfi_endproc
 502              	.LFE223:
 503              		.size	chSchGoSleepTimeoutS, .-chSchGoSleepTimeoutS
 504              		.section	.text.chSchWakeupS,"ax",%progbits
 505              		.align	1
 506              		.p2align 4,,15
 507              		.global	chSchWakeupS
 508              		.syntax unified
 509              		.thumb
 510              		.thumb_func
 511              		.fpu fpv4-sp-d16
 512              		.type	chSchWakeupS, %function
 513              	chSchWakeupS:
ARM GAS  /tmp/ccDO8Csd.s 			page 10


 514              	.LFB224:
 515              		.loc 1 368 0
 516              		.cfi_startproc
 517              		@ args = 0, pretend = 0, frame = 0
 518              		@ frame_needed = 0, uses_anonymous_args = 0
 519              	.LVL33:
 520              		.loc 1 380 0
 521 0000 1D4B     		ldr	r3, .L51
 522              		.loc 1 368 0
 523 0002 70B5     		push	{r4, r5, r6, lr}
 524              		.cfi_def_cfa_offset 16
 525              		.cfi_offset 4, -16
 526              		.cfi_offset 5, -12
 527              		.cfi_offset 6, -8
 528              		.cfi_offset 14, -4
 529              		.loc 1 380 0
 530 0004 9D69     		ldr	r5, [r3, #24]
 531 0006 8668     		ldr	r6, [r0, #8]
 532 0008 AC68     		ldr	r4, [r5, #8]
 533              		.loc 1 374 0
 534 000a 8162     		str	r1, [r0, #40]
 535              		.loc 1 380 0
 536 000c A642     		cmp	r6, r4
 537              	.LBB199:
 538              	.LBB200:
 539              		.loc 1 227 0
 540 000e 4FF00002 		mov	r2, #0
 541              	.LBE200:
 542              	.LBE199:
 543              		.loc 1 380 0
 544 0012 0BD8     		bhi	.L41
 545              	.LVL34:
 546              	.LBB202:
 547              	.LBB201:
 548              		.loc 1 227 0
 549 0014 80F82020 		strb	r2, [r0, #32]
 550              	.LVL35:
 551              	.L42:
 552              		.loc 1 230 0
 553 0018 1B68     		ldr	r3, [r3]
 554              	.LVL36:
 555              		.loc 1 231 0
 556 001a 9A68     		ldr	r2, [r3, #8]
 557 001c 9642     		cmp	r6, r2
 558 001e FBD9     		bls	.L42
 559              		.loc 1 234 0
 560 0020 5A68     		ldr	r2, [r3, #4]
 561 0022 C0E90032 		strd	r3, r2, [r0]
 562              		.loc 1 235 0
 563 0026 1060     		str	r0, [r2]
 564              		.loc 1 236 0
 565 0028 5860     		str	r0, [r3, #4]
 566              	.LBE201:
 567              	.LBE202:
 568              		.loc 1 394 0
 569 002a 70BD     		pop	{r4, r5, r6, pc}
 570              	.LVL37:
ARM GAS  /tmp/ccDO8Csd.s 			page 11


 571              	.L41:
 572              	.LBB203:
 573              	.LBB204:
 574              	.LBB205:
 575              		.loc 1 227 0
 576 002c 85F82020 		strb	r2, [r5, #32]
 577              	.LVL38:
 578              		.loc 1 228 0
 579 0030 1A46     		mov	r2, r3
 580              	.LVL39:
 581              	.L44:
 582              		.loc 1 230 0
 583 0032 1268     		ldr	r2, [r2]
 584              	.LVL40:
 585              		.loc 1 231 0
 586 0034 9168     		ldr	r1, [r2, #8]
 587 0036 8C42     		cmp	r4, r1
 588 0038 FBD9     		bls	.L44
 589              		.loc 1 234 0
 590 003a 5168     		ldr	r1, [r2, #4]
 591 003c 6960     		str	r1, [r5, #4]
 592 003e 0446     		mov	r4, r0
 593              	.LBE205:
 594              	.LBE204:
 595              		.loc 1 391 0
 596 0040 0120     		movs	r0, #1
 597              	.LVL41:
 598              	.LBB207:
 599              	.LBB206:
 600              		.loc 1 233 0
 601 0042 2A60     		str	r2, [r5]
 602              		.loc 1 235 0
 603 0044 0D60     		str	r5, [r1]
 604              		.loc 1 236 0
 605 0046 5560     		str	r5, [r2, #4]
 606              	.LVL42:
 607              	.LBE206:
 608              	.LBE207:
 609              		.loc 1 385 0
 610 0048 9C61     		str	r4, [r3, #24]
 611              		.loc 1 391 0
 612 004a 84F82000 		strb	r0, [r4, #32]
 613              	.LBB208:
 614              	.LBB209:
 615              	.LBB210:
 616              		.loc 2 428 0
 617              		.syntax unified
 618              	@ 428 "ChibiOS_3.0.5/os/ext/CMSIS/include/core_cmFunc.h" 1
 619 004e EFF30983 		MRS r3, psp
 620              	
 621              	@ 0 "" 2
 622              	.LVL43:
 623              		.thumb
 624              		.syntax unified
 625              	.LBE210:
 626              	.LBE209:
 627              		.loc 1 392 0
ARM GAS  /tmp/ccDO8Csd.s 			page 12


 628 0052 EA69     		ldr	r2, [r5, #28]
 629 0054 643B     		subs	r3, r3, #100
 630              	.LVL44:
 631 0056 9A42     		cmp	r2, r3
 632 0058 05D8     		bhi	.L50
 633              		.loc 1 392 0 is_stmt 0 discriminator 3
 634 005a 2946     		mov	r1, r5
 635 005c 2046     		mov	r0, r4
 636              	.LBE208:
 637              	.LBE203:
 638              		.loc 1 394 0 is_stmt 1 discriminator 3
 639 005e BDE87040 		pop	{r4, r5, r6, lr}
 640              		.cfi_remember_state
 641              		.cfi_restore 14
 642              		.cfi_restore 6
 643              		.cfi_restore 5
 644              		.cfi_restore 4
 645              		.cfi_def_cfa_offset 0
 646              	.LVL45:
 647              	.LBB213:
 648              	.LBB211:
 649              		.loc 1 392 0 discriminator 3
 650 0062 FFF7FEBF 		b	_port_switch
 651              	.LVL46:
 652              	.L50:
 653              		.cfi_restore_state
 654              		.loc 1 392 0 is_stmt 0 discriminator 1
 655 0066 0548     		ldr	r0, .L51+4
 656 0068 FFF7FEFF 		bl	chSysHalt
 657              	.LVL47:
 658 006c 2946     		mov	r1, r5
 659 006e 2046     		mov	r0, r4
 660              	.LBE211:
 661              	.LBE213:
 662              		.loc 1 394 0 is_stmt 1 discriminator 1
 663 0070 BDE87040 		pop	{r4, r5, r6, lr}
 664              		.cfi_restore 14
 665              		.cfi_restore 6
 666              		.cfi_restore 5
 667              		.cfi_restore 4
 668              		.cfi_def_cfa_offset 0
 669              	.LVL48:
 670              	.LBB214:
 671              	.LBB212:
 672              		.loc 1 392 0 discriminator 1
 673 0074 FFF7FEBF 		b	_port_switch
 674              	.LVL49:
 675              	.L52:
 676              		.align	2
 677              	.L51:
 678 0078 00000000 		.word	.LANCHOR0
 679 007c 00000000 		.word	.LC0
 680              	.LBE212:
 681              	.LBE214:
 682              		.cfi_endproc
 683              	.LFE224:
 684              		.size	chSchWakeupS, .-chSchWakeupS
ARM GAS  /tmp/ccDO8Csd.s 			page 13


 685              		.section	.text.chSchIsPreemptionRequired,"ax",%progbits
 686              		.align	1
 687              		.p2align 4,,15
 688              		.global	chSchIsPreemptionRequired
 689              		.syntax unified
 690              		.thumb
 691              		.thumb_func
 692              		.fpu fpv4-sp-d16
 693              		.type	chSchIsPreemptionRequired, %function
 694              	chSchIsPreemptionRequired:
 695              	.LFB226:
 696              		.loc 1 425 0
 697              		.cfi_startproc
 698              		@ args = 0, pretend = 0, frame = 0
 699              		@ frame_needed = 0, uses_anonymous_args = 0
 700              		@ link register save eliminated.
 701              		.loc 1 426 0
 702 0000 084A     		ldr	r2, .L57
 703              		.loc 1 427 0
 704 0002 9369     		ldr	r3, [r2, #24]
 705              		.loc 1 426 0
 706 0004 1168     		ldr	r1, [r2]
 707              		.loc 1 434 0
 708 0006 93F82320 		ldrb	r2, [r3, #35]	@ zero_extendqisi2
 709              		.loc 1 426 0
 710 000a 8868     		ldr	r0, [r1, #8]
 711              	.LVL50:
 712              		.loc 1 427 0
 713 000c 9B68     		ldr	r3, [r3, #8]
 714              	.LVL51:
 715              		.loc 1 434 0
 716 000e 22B9     		cbnz	r2, .L56
 717              		.loc 1 434 0 is_stmt 0 discriminator 2
 718 0010 9842     		cmp	r0, r3
 719 0012 34BF     		ite	cc
 720 0014 0020     		movcc	r0, #0
 721              	.LVL52:
 722 0016 0120     		movcs	r0, #1
 723              		.loc 1 440 0 is_stmt 1 discriminator 2
 724 0018 7047     		bx	lr
 725              	.LVL53:
 726              	.L56:
 727              		.loc 1 434 0 discriminator 1
 728 001a 9842     		cmp	r0, r3
 729 001c 94BF     		ite	ls
 730 001e 0020     		movls	r0, #0
 731              	.LVL54:
 732 0020 0120     		movhi	r0, #1
 733 0022 7047     		bx	lr
 734              	.L58:
 735              		.align	2
 736              	.L57:
 737 0024 00000000 		.word	.LANCHOR0
 738              		.cfi_endproc
 739              	.LFE226:
 740              		.size	chSchIsPreemptionRequired, .-chSchIsPreemptionRequired
 741              		.section	.text.chSchDoRescheduleBehind,"ax",%progbits
ARM GAS  /tmp/ccDO8Csd.s 			page 14


 742              		.align	1
 743              		.p2align 4,,15
 744              		.global	chSchDoRescheduleBehind
 745              		.syntax unified
 746              		.thumb
 747              		.thumb_func
 748              		.fpu fpv4-sp-d16
 749              		.type	chSchDoRescheduleBehind, %function
 750              	chSchDoRescheduleBehind:
 751              	.LFB227:
 752              		.loc 1 452 0
 753              		.cfi_startproc
 754              		@ args = 0, pretend = 0, frame = 0
 755              		@ frame_needed = 0, uses_anonymous_args = 0
 756              		.loc 1 455 0
 757 0000 154B     		ldr	r3, .L64
 758              	.LBB215:
 759              	.LBB216:
 760              		.loc 4 672 0
 761 0002 1A68     		ldr	r2, [r3]
 762              	.LBE216:
 763              	.LBE215:
 764              		.loc 1 452 0
 765 0004 70B5     		push	{r4, r5, r6, lr}
 766              		.cfi_def_cfa_offset 16
 767              		.cfi_offset 4, -16
 768              		.cfi_offset 5, -12
 769              		.cfi_offset 6, -8
 770              		.cfi_offset 14, -4
 771              	.LBB220:
 772              	.LBB217:
 773              		.loc 4 674 0
 774 0006 1068     		ldr	r0, [r2]
 775              	.LBE217:
 776              	.LBE220:
 777              		.loc 1 455 0
 778 0008 9C69     		ldr	r4, [r3, #24]
 779              	.LVL55:
 780              	.LBB221:
 781              	.LBB218:
 782              		.loc 4 674 0
 783 000a 1860     		str	r0, [r3]
 784              	.LBE218:
 785              	.LBE221:
 786              		.loc 1 459 0
 787 000c A168     		ldr	r1, [r4, #8]
 788              	.LBB222:
 789              	.LBB219:
 790              		.loc 4 675 0
 791 000e 4360     		str	r3, [r0, #4]
 792              	.LVL56:
 793              	.LBE219:
 794              	.LBE222:
 795              	.LBB223:
 796              	.LBB224:
 797              		.loc 1 228 0
 798 0010 1D46     		mov	r5, r3
ARM GAS  /tmp/ccDO8Csd.s 			page 15


 799              	.LBE224:
 800              	.LBE223:
 801              		.loc 1 463 0
 802 0012 0126     		movs	r6, #1
 803              		.loc 1 457 0
 804 0014 9A61     		str	r2, [r3, #24]
 805              		.loc 1 465 0
 806 0016 0420     		movs	r0, #4
 807              	.LBB228:
 808              	.LBB225:
 809              		.loc 1 227 0
 810 0018 0023     		movs	r3, #0
 811              	.LBE225:
 812              	.LBE228:
 813              		.loc 1 463 0
 814 001a 82F82060 		strb	r6, [r2, #32]
 815              	.LBB229:
 816              	.LBB226:
 817              		.loc 1 227 0
 818 001e 84F82030 		strb	r3, [r4, #32]
 819              	.LBE226:
 820              	.LBE229:
 821              		.loc 1 465 0
 822 0022 84F82300 		strb	r0, [r4, #35]
 823              	.LVL57:
 824              	.LBB230:
 825              	.LBB227:
 826              		.loc 1 228 0
 827 0026 2B46     		mov	r3, r5
 828              	.LVL58:
 829              	.L60:
 830              		.loc 1 230 0
 831 0028 1B68     		ldr	r3, [r3]
 832              	.LVL59:
 833              		.loc 1 231 0
 834 002a 9A68     		ldr	r2, [r3, #8]
 835 002c 9142     		cmp	r1, r2
 836 002e FBD9     		bls	.L60
 837              		.loc 1 234 0
 838 0030 5A68     		ldr	r2, [r3, #4]
 839 0032 C4E90032 		strd	r3, r2, [r4]
 840              		.loc 1 235 0
 841 0036 1460     		str	r4, [r2]
 842              		.loc 1 236 0
 843 0038 5C60     		str	r4, [r3, #4]
 844              	.LVL60:
 845              	.LBE227:
 846              	.LBE230:
 847              	.LBB231:
 848              	.LBB232:
 849              	.LBB233:
 850              		.loc 2 428 0
 851              		.syntax unified
 852              	@ 428 "ChibiOS_3.0.5/os/ext/CMSIS/include/core_cmFunc.h" 1
 853 003a EFF30983 		MRS r3, psp
 854              	
 855              	@ 0 "" 2
ARM GAS  /tmp/ccDO8Csd.s 			page 16


 856              	.LVL61:
 857              		.thumb
 858              		.syntax unified
 859              	.LBE233:
 860              	.LBE232:
 861              		.loc 1 468 0
 862 003e E269     		ldr	r2, [r4, #28]
 863 0040 643B     		subs	r3, r3, #100
 864              	.LVL62:
 865 0042 9A42     		cmp	r2, r3
 866 0044 02D9     		bls	.L61
 867              		.loc 1 468 0 is_stmt 0 discriminator 1
 868 0046 0548     		ldr	r0, .L64+4
 869 0048 FFF7FEFF 		bl	chSysHalt
 870              	.LVL63:
 871              	.L61:
 872              		.loc 1 468 0 discriminator 3
 873 004c 2146     		mov	r1, r4
 874 004e A869     		ldr	r0, [r5, #24]
 875              	.LBE231:
 876              		.loc 1 469 0 is_stmt 1 discriminator 3
 877 0050 BDE87040 		pop	{r4, r5, r6, lr}
 878              		.cfi_restore 14
 879              		.cfi_restore 6
 880              		.cfi_restore 5
 881              		.cfi_restore 4
 882              		.cfi_def_cfa_offset 0
 883              	.LVL64:
 884              	.LBB234:
 885              		.loc 1 468 0 discriminator 3
 886 0054 FFF7FEBF 		b	_port_switch
 887              	.LVL65:
 888              	.L65:
 889              		.align	2
 890              	.L64:
 891 0058 00000000 		.word	.LANCHOR0
 892 005c 00000000 		.word	.LC0
 893              	.LBE234:
 894              		.cfi_endproc
 895              	.LFE227:
 896              		.size	chSchDoRescheduleBehind, .-chSchDoRescheduleBehind
 897              		.section	.text.chSchDoRescheduleAhead,"ax",%progbits
 898              		.align	1
 899              		.p2align 4,,15
 900              		.global	chSchDoRescheduleAhead
 901              		.syntax unified
 902              		.thumb
 903              		.thumb_func
 904              		.fpu fpv4-sp-d16
 905              		.type	chSchDoRescheduleAhead, %function
 906              	chSchDoRescheduleAhead:
 907              	.LFB228:
 908              		.loc 1 480 0
 909              		.cfi_startproc
 910              		@ args = 0, pretend = 0, frame = 0
 911              		@ frame_needed = 0, uses_anonymous_args = 0
 912              		.loc 1 483 0
ARM GAS  /tmp/ccDO8Csd.s 			page 17


 913 0000 134B     		ldr	r3, .L71
 914              	.LBB235:
 915              	.LBB236:
 916              		.loc 4 672 0
 917 0002 1A68     		ldr	r2, [r3]
 918              	.LBE236:
 919              	.LBE235:
 920              		.loc 1 480 0
 921 0004 70B5     		push	{r4, r5, r6, lr}
 922              		.cfi_def_cfa_offset 16
 923              		.cfi_offset 4, -16
 924              		.cfi_offset 5, -12
 925              		.cfi_offset 6, -8
 926              		.cfi_offset 14, -4
 927              	.LBB240:
 928              	.LBB237:
 929              		.loc 4 674 0
 930 0006 1068     		ldr	r0, [r2]
 931              	.LBE237:
 932              	.LBE240:
 933              		.loc 1 483 0
 934 0008 9C69     		ldr	r4, [r3, #24]
 935              	.LVL66:
 936              	.LBB241:
 937              	.LBB238:
 938              		.loc 4 674 0
 939 000a 1860     		str	r0, [r3]
 940              	.LBE238:
 941              	.LBE241:
 942              		.loc 1 487 0
 943 000c A168     		ldr	r1, [r4, #8]
 944              	.LBB242:
 945              	.LBB239:
 946              		.loc 4 675 0
 947 000e 4360     		str	r3, [r0, #4]
 948              	.LVL67:
 949              	.LBE239:
 950              	.LBE242:
 951              		.loc 1 491 0
 952 0010 0126     		movs	r6, #1
 953              		.loc 1 493 0
 954 0012 0020     		movs	r0, #0
 955              		.loc 1 491 0
 956 0014 82F82060 		strb	r6, [r2, #32]
 957              		.loc 1 494 0
 958 0018 1D46     		mov	r5, r3
 959              		.loc 1 485 0
 960 001a 9A61     		str	r2, [r3, #24]
 961              		.loc 1 493 0
 962 001c 84F82000 		strb	r0, [r4, #32]
 963              	.LVL68:
 964              	.L67:
 965              		.loc 1 496 0 discriminator 1
 966 0020 1B68     		ldr	r3, [r3]
 967              	.LVL69:
 968              		.loc 1 497 0 discriminator 1
 969 0022 9A68     		ldr	r2, [r3, #8]
ARM GAS  /tmp/ccDO8Csd.s 			page 18


 970 0024 9142     		cmp	r1, r2
 971 0026 FBD3     		bcc	.L67
 972              		.loc 1 500 0
 973 0028 5A68     		ldr	r2, [r3, #4]
 974 002a C4E90032 		strd	r3, r2, [r4]
 975              		.loc 1 501 0
 976 002e 1460     		str	r4, [r2]
 977              		.loc 1 502 0
 978 0030 5C60     		str	r4, [r3, #4]
 979              	.LBB243:
 980              	.LBB244:
 981              	.LBB245:
 982              		.loc 2 428 0
 983              		.syntax unified
 984              	@ 428 "ChibiOS_3.0.5/os/ext/CMSIS/include/core_cmFunc.h" 1
 985 0032 EFF30983 		MRS r3, psp
 986              	
 987              	@ 0 "" 2
 988              	.LVL70:
 989              		.thumb
 990              		.syntax unified
 991              	.LBE245:
 992              	.LBE244:
 993              		.loc 1 504 0
 994 0036 E269     		ldr	r2, [r4, #28]
 995 0038 643B     		subs	r3, r3, #100
 996              	.LVL71:
 997 003a 9A42     		cmp	r2, r3
 998 003c 02D9     		bls	.L68
 999              		.loc 1 504 0 is_stmt 0 discriminator 1
 1000 003e 0548     		ldr	r0, .L71+4
 1001 0040 FFF7FEFF 		bl	chSysHalt
 1002              	.LVL72:
 1003              	.L68:
 1004              		.loc 1 504 0 discriminator 3
 1005 0044 2146     		mov	r1, r4
 1006 0046 A869     		ldr	r0, [r5, #24]
 1007              	.LBE243:
 1008              		.loc 1 505 0 is_stmt 1 discriminator 3
 1009 0048 BDE87040 		pop	{r4, r5, r6, lr}
 1010              		.cfi_restore 14
 1011              		.cfi_restore 6
 1012              		.cfi_restore 5
 1013              		.cfi_restore 4
 1014              		.cfi_def_cfa_offset 0
 1015              	.LVL73:
 1016              	.LBB246:
 1017              		.loc 1 504 0 discriminator 3
 1018 004c FFF7FEBF 		b	_port_switch
 1019              	.LVL74:
 1020              	.L72:
 1021              		.align	2
 1022              	.L71:
 1023 0050 00000000 		.word	.LANCHOR0
 1024 0054 00000000 		.word	.LC0
 1025              	.LBE246:
 1026              		.cfi_endproc
ARM GAS  /tmp/ccDO8Csd.s 			page 19


 1027              	.LFE228:
 1028              		.size	chSchDoRescheduleAhead, .-chSchDoRescheduleAhead
 1029              		.section	.text.chSchRescheduleS,"ax",%progbits
 1030              		.align	1
 1031              		.p2align 4,,15
 1032              		.global	chSchRescheduleS
 1033              		.syntax unified
 1034              		.thumb
 1035              		.thumb_func
 1036              		.fpu fpv4-sp-d16
 1037              		.type	chSchRescheduleS, %function
 1038              	chSchRescheduleS:
 1039              	.LFB225:
 1040              		.loc 1 403 0
 1041              		.cfi_startproc
 1042              		@ args = 0, pretend = 0, frame = 0
 1043              		@ frame_needed = 0, uses_anonymous_args = 0
 1044              		@ link register save eliminated.
 1045              	.LBB247:
 1046              	.LBB248:
 1047              		.loc 4 713 0
 1048 0000 044B     		ldr	r3, .L76
 1049 0002 1A68     		ldr	r2, [r3]
 1050 0004 9B69     		ldr	r3, [r3, #24]
 1051              	.LBE248:
 1052              	.LBE247:
 1053              		.loc 1 407 0
 1054 0006 9268     		ldr	r2, [r2, #8]
 1055 0008 9B68     		ldr	r3, [r3, #8]
 1056 000a 9A42     		cmp	r2, r3
 1057 000c 00D8     		bhi	.L75
 1058              		.loc 1 410 0
 1059 000e 7047     		bx	lr
 1060              	.L75:
 1061              		.loc 1 408 0
 1062 0010 FFF7FEBF 		b	chSchDoRescheduleAhead
 1063              	.LVL75:
 1064              	.L77:
 1065              		.align	2
 1066              	.L76:
 1067 0014 00000000 		.word	.LANCHOR0
 1068              		.cfi_endproc
 1069              	.LFE225:
 1070              		.size	chSchRescheduleS, .-chSchRescheduleS
 1071              		.section	.text.chSchDoReschedule,"ax",%progbits
 1072              		.align	1
 1073              		.p2align 4,,15
 1074              		.global	chSchDoReschedule
 1075              		.syntax unified
 1076              		.thumb
 1077              		.thumb_func
 1078              		.fpu fpv4-sp-d16
 1079              		.type	chSchDoReschedule, %function
 1080              	chSchDoReschedule:
 1081              	.LFB229:
 1082              		.loc 1 517 0
 1083              		.cfi_startproc
ARM GAS  /tmp/ccDO8Csd.s 			page 20


 1084              		@ args = 0, pretend = 0, frame = 0
 1085              		@ frame_needed = 0, uses_anonymous_args = 0
 1086              		@ link register save eliminated.
 1087              		.loc 1 522 0
 1088 0000 044B     		ldr	r3, .L81
 1089 0002 9B69     		ldr	r3, [r3, #24]
 1090 0004 93F82330 		ldrb	r3, [r3, #35]	@ zero_extendqisi2
 1091 0008 0BB1     		cbz	r3, .L80
 1092              		.loc 1 530 0
 1093 000a FFF7FEBF 		b	chSchDoRescheduleAhead
 1094              	.LVL76:
 1095              	.L80:
 1096              		.loc 1 525 0
 1097 000e FFF7FEBF 		b	chSchDoRescheduleBehind
 1098              	.LVL77:
 1099              	.L82:
 1100 0012 00BF     		.align	2
 1101              	.L81:
 1102 0014 00000000 		.word	.LANCHOR0
 1103              		.cfi_endproc
 1104              	.LFE229:
 1105              		.size	chSchDoReschedule, .-chSchDoReschedule
 1106              		.global	ch
 1107              		.section	.bss.ch,"aw",%nobits
 1108              		.align	3
 1109              		.set	.LANCHOR0,. + 0
 1110              		.type	ch, %object
 1111              		.size	ch, 616
 1112              	ch:
 1113 0000 00000000 		.space	616
 1113      00000000 
 1113      00000000 
 1113      00000000 
 1113      00000000 
 1114              		.section	.rodata.chSchGoSleepS.str1.4,"aMS",%progbits,1
 1115              		.align	2
 1116              	.LC0:
 1117 0000 73746163 		.ascii	"stack overflow\000"
 1117      6B206F76 
 1117      6572666C 
 1117      6F7700
 1118              		.text
 1119              	.Letext0:
 1120              		.file 5 "/usr/lib/gcc/arm-none-eabi/7.3.1/include/stddef.h"
 1121              		.file 6 "/usr/arm-none-eabi/include/machine/_default_types.h"
 1122              		.file 7 "/usr/arm-none-eabi/include/sys/_stdint.h"
 1123              		.file 8 "ChibiOS_3.0.5/os/rt/ports/ARMCMx/compilers/GCC/chtypes.h"
 1124              		.file 9 "ChibiOS_3.0.5/os/rt/include/chsystypes.h"
 1125              		.file 10 "ChibiOS_3.0.5/os/ext/CMSIS/include/core_cm4.h"
 1126              		.file 11 "ChibiOS_3.0.5/os/ext/CMSIS/ST/system_stm32f4xx.h"
 1127              		.file 12 "ChibiOS_3.0.5/os/rt/ports/ARMCMx/chcore.h"
 1128              		.file 13 "ChibiOS_3.0.5/os/rt/ports/ARMCMx/chcore_v7m.h"
 1129              		.file 14 "ChibiOS_3.0.5/os/rt/include/chtm.h"
 1130              		.file 15 "ChibiOS_3.0.5/os/rt/include/chmtx.h"
 1131              		.file 16 "ChibiOS_3.0.5/os/rt/include/chregistry.h"
 1132              		.file 17 "ChibiOS_3.0.5/os/rt/include/chvt.h"
 1133              		.file 18 "ChibiOS_3.0.5/os/rt/include/chsys.h"
ARM GAS  /tmp/ccDO8Csd.s 			page 21


 1134              		.section	.debug_info,"",%progbits
 1135              	.Ldebug_info0:
 1136 0000 C7100000 		.4byte	0x10c7
 1137 0004 0400     		.2byte	0x4
 1138 0006 00000000 		.4byte	.Ldebug_abbrev0
 1139 000a 04       		.byte	0x4
 1140 000b 01       		.uleb128 0x1
 1141 000c 84000000 		.4byte	.LASF164
 1142 0010 0C       		.byte	0xc
 1143 0011 48060000 		.4byte	.LASF165
 1144 0015 C9060000 		.4byte	.LASF166
 1145 0019 B0010000 		.4byte	.Ldebug_ranges0+0x1b0
 1146 001d 00000000 		.4byte	0
 1147 0021 00000000 		.4byte	.Ldebug_line0
 1148 0025 02       		.uleb128 0x2
 1149 0026 04       		.byte	0x4
 1150 0027 05       		.byte	0x5
 1151 0028 696E7400 		.ascii	"int\000"
 1152 002c 03       		.uleb128 0x3
 1153 002d 1A000000 		.4byte	.LASF2
 1154 0031 05       		.byte	0x5
 1155 0032 D8       		.byte	0xd8
 1156 0033 37000000 		.4byte	0x37
 1157 0037 04       		.uleb128 0x4
 1158 0038 04       		.byte	0x4
 1159 0039 07       		.byte	0x7
 1160 003a 8E030000 		.4byte	.LASF0
 1161 003e 04       		.uleb128 0x4
 1162 003f 01       		.byte	0x1
 1163 0040 06       		.byte	0x6
 1164 0041 72020000 		.4byte	.LASF1
 1165 0045 03       		.uleb128 0x3
 1166 0046 54000000 		.4byte	.LASF3
 1167 004a 06       		.byte	0x6
 1168 004b 2B       		.byte	0x2b
 1169 004c 50000000 		.4byte	0x50
 1170 0050 04       		.uleb128 0x4
 1171 0051 01       		.byte	0x1
 1172 0052 08       		.byte	0x8
 1173 0053 B5050000 		.4byte	.LASF4
 1174 0057 04       		.uleb128 0x4
 1175 0058 02       		.byte	0x2
 1176 0059 05       		.byte	0x5
 1177 005a CC050000 		.4byte	.LASF5
 1178 005e 03       		.uleb128 0x3
 1179 005f 2E070000 		.4byte	.LASF6
 1180 0063 06       		.byte	0x6
 1181 0064 39       		.byte	0x39
 1182 0065 69000000 		.4byte	0x69
 1183 0069 04       		.uleb128 0x4
 1184 006a 02       		.byte	0x2
 1185 006b 07       		.byte	0x7
 1186 006c 1A040000 		.4byte	.LASF7
 1187 0070 03       		.uleb128 0x3
 1188 0071 02020000 		.4byte	.LASF8
 1189 0075 06       		.byte	0x6
 1190 0076 4D       		.byte	0x4d
ARM GAS  /tmp/ccDO8Csd.s 			page 22


 1191 0077 7B000000 		.4byte	0x7b
 1192 007b 04       		.uleb128 0x4
 1193 007c 04       		.byte	0x4
 1194 007d 05       		.byte	0x5
 1195 007e D8020000 		.4byte	.LASF9
 1196 0082 03       		.uleb128 0x3
 1197 0083 87070000 		.4byte	.LASF10
 1198 0087 06       		.byte	0x6
 1199 0088 4F       		.byte	0x4f
 1200 0089 8D000000 		.4byte	0x8d
 1201 008d 04       		.uleb128 0x4
 1202 008e 04       		.byte	0x4
 1203 008f 07       		.byte	0x7
 1204 0090 10070000 		.4byte	.LASF11
 1205 0094 04       		.uleb128 0x4
 1206 0095 08       		.byte	0x8
 1207 0096 05       		.byte	0x5
 1208 0097 64020000 		.4byte	.LASF12
 1209 009b 03       		.uleb128 0x3
 1210 009c 41050000 		.4byte	.LASF13
 1211 00a0 06       		.byte	0x6
 1212 00a1 69       		.byte	0x69
 1213 00a2 A6000000 		.4byte	0xa6
 1214 00a6 04       		.uleb128 0x4
 1215 00a7 08       		.byte	0x8
 1216 00a8 07       		.byte	0x7
 1217 00a9 BC010000 		.4byte	.LASF14
 1218 00ad 03       		.uleb128 0x3
 1219 00ae 05080000 		.4byte	.LASF15
 1220 00b2 07       		.byte	0x7
 1221 00b3 18       		.byte	0x18
 1222 00b4 45000000 		.4byte	0x45
 1223 00b8 03       		.uleb128 0x3
 1224 00b9 AA030000 		.4byte	.LASF16
 1225 00bd 07       		.byte	0x7
 1226 00be 24       		.byte	0x24
 1227 00bf 5E000000 		.4byte	0x5e
 1228 00c3 03       		.uleb128 0x3
 1229 00c4 AD050000 		.4byte	.LASF17
 1230 00c8 07       		.byte	0x7
 1231 00c9 2C       		.byte	0x2c
 1232 00ca 70000000 		.4byte	0x70
 1233 00ce 05       		.uleb128 0x5
 1234 00cf C3000000 		.4byte	0xc3
 1235 00d3 03       		.uleb128 0x3
 1236 00d4 CF060000 		.4byte	.LASF18
 1237 00d8 07       		.byte	0x7
 1238 00d9 30       		.byte	0x30
 1239 00da 82000000 		.4byte	0x82
 1240 00de 03       		.uleb128 0x3
 1241 00df 28000000 		.4byte	.LASF19
 1242 00e3 07       		.byte	0x7
 1243 00e4 3C       		.byte	0x3c
 1244 00e5 9B000000 		.4byte	0x9b
 1245 00e9 03       		.uleb128 0x3
 1246 00ea A2040000 		.4byte	.LASF20
 1247 00ee 08       		.byte	0x8
ARM GAS  /tmp/ccDO8Csd.s 			page 23


 1248 00ef 45       		.byte	0x45
 1249 00f0 D3000000 		.4byte	0xd3
 1250 00f4 03       		.uleb128 0x3
 1251 00f5 13060000 		.4byte	.LASF21
 1252 00f9 08       		.byte	0x8
 1253 00fa 48       		.byte	0x48
 1254 00fb AD000000 		.4byte	0xad
 1255 00ff 03       		.uleb128 0x3
 1256 0100 EF020000 		.4byte	.LASF22
 1257 0104 08       		.byte	0x8
 1258 0105 49       		.byte	0x49
 1259 0106 AD000000 		.4byte	0xad
 1260 010a 03       		.uleb128 0x3
 1261 010b 33030000 		.4byte	.LASF23
 1262 010f 08       		.byte	0x8
 1263 0110 4A       		.byte	0x4a
 1264 0111 AD000000 		.4byte	0xad
 1265 0115 03       		.uleb128 0x3
 1266 0116 BE020000 		.4byte	.LASF24
 1267 011a 08       		.byte	0x8
 1268 011b 4B       		.byte	0x4b
 1269 011c AD000000 		.4byte	0xad
 1270 0120 03       		.uleb128 0x3
 1271 0121 7C050000 		.4byte	.LASF25
 1272 0125 08       		.byte	0x8
 1273 0126 4C       		.byte	0x4c
 1274 0127 D3000000 		.4byte	0xd3
 1275 012b 03       		.uleb128 0x3
 1276 012c 44040000 		.4byte	.LASF26
 1277 0130 08       		.byte	0x8
 1278 0131 4D       		.byte	0x4d
 1279 0132 C3000000 		.4byte	0xc3
 1280 0136 03       		.uleb128 0x3
 1281 0137 48000000 		.4byte	.LASF27
 1282 013b 08       		.byte	0x8
 1283 013c 4F       		.byte	0x4f
 1284 013d D3000000 		.4byte	0xd3
 1285 0141 03       		.uleb128 0x3
 1286 0142 7D030000 		.4byte	.LASF28
 1287 0146 08       		.byte	0x8
 1288 0147 51       		.byte	0x51
 1289 0148 C3000000 		.4byte	0xc3
 1290 014c 03       		.uleb128 0x3
 1291 014d 69070000 		.4byte	.LASF29
 1292 0151 09       		.byte	0x9
 1293 0152 33       		.byte	0x33
 1294 0153 D3000000 		.4byte	0xd3
 1295 0157 05       		.uleb128 0x5
 1296 0158 4C010000 		.4byte	0x14c
 1297 015c 03       		.uleb128 0x3
 1298 015d 4E070000 		.4byte	.LASF30
 1299 0161 09       		.byte	0x9
 1300 0162 3F       		.byte	0x3f
 1301 0163 67010000 		.4byte	0x167
 1302 0167 06       		.uleb128 0x6
 1303 0168 2D040000 		.4byte	.LASF54
 1304 016c 50       		.byte	0x50
ARM GAS  /tmp/ccDO8Csd.s 			page 24


 1305 016d 04       		.byte	0x4
 1306 016e C2       		.byte	0xc2
 1307 016f 85020000 		.4byte	0x285
 1308 0173 07       		.uleb128 0x7
 1309 0174 0C060000 		.4byte	.LASF31
 1310 0178 04       		.byte	0x4
 1311 0179 C3       		.byte	0xc3
 1312 017a 90020000 		.4byte	0x290
 1313 017e 00       		.byte	0
 1314 017f 07       		.uleb128 0x7
 1315 0180 75050000 		.4byte	.LASF32
 1316 0184 04       		.byte	0x4
 1317 0185 C5       		.byte	0xc5
 1318 0186 90020000 		.4byte	0x290
 1319 018a 04       		.byte	0x4
 1320 018b 07       		.uleb128 0x7
 1321 018c 40020000 		.4byte	.LASF33
 1322 0190 04       		.byte	0x4
 1323 0191 C7       		.byte	0xc7
 1324 0192 20010000 		.4byte	0x120
 1325 0196 08       		.byte	0x8
 1326 0197 07       		.uleb128 0x7
 1327 0198 FF040000 		.4byte	.LASF34
 1328 019c 04       		.byte	0x4
 1329 019d C8       		.byte	0xc8
 1330 019e D0040000 		.4byte	0x4d0
 1331 01a2 0C       		.byte	0xc
 1332 01a3 07       		.uleb128 0x7
 1333 01a4 12030000 		.4byte	.LASF35
 1334 01a8 04       		.byte	0x4
 1335 01a9 CA       		.byte	0xca
 1336 01aa 90020000 		.4byte	0x290
 1337 01ae 10       		.byte	0x10
 1338 01af 07       		.uleb128 0x7
 1339 01b0 F1040000 		.4byte	.LASF36
 1340 01b4 04       		.byte	0x4
 1341 01b5 CB       		.byte	0xcb
 1342 01b6 90020000 		.4byte	0x290
 1343 01ba 14       		.byte	0x14
 1344 01bb 07       		.uleb128 0x7
 1345 01bc 31080000 		.4byte	.LASF37
 1346 01c0 04       		.byte	0x4
 1347 01c1 D2       		.byte	0xd2
 1348 01c2 15070000 		.4byte	0x715
 1349 01c6 18       		.byte	0x18
 1350 01c7 07       		.uleb128 0x7
 1351 01c8 83030000 		.4byte	.LASF38
 1352 01cc 04       		.byte	0x4
 1353 01cd D8       		.byte	0xd8
 1354 01ce 2C070000 		.4byte	0x72c
 1355 01d2 1C       		.byte	0x1c
 1356 01d3 07       		.uleb128 0x7
 1357 01d4 D6050000 		.4byte	.LASF39
 1358 01d8 04       		.byte	0x4
 1359 01d9 DD       		.byte	0xdd
 1360 01da FF000000 		.4byte	0xff
 1361 01de 20       		.byte	0x20
ARM GAS  /tmp/ccDO8Csd.s 			page 25


 1362 01df 07       		.uleb128 0x7
 1363 01e0 2A060000 		.4byte	.LASF40
 1364 01e4 04       		.byte	0x4
 1365 01e5 E1       		.byte	0xe1
 1366 01e6 F4000000 		.4byte	0xf4
 1367 01ea 21       		.byte	0x21
 1368 01eb 07       		.uleb128 0x7
 1369 01ec E9070000 		.4byte	.LASF41
 1370 01f0 04       		.byte	0x4
 1371 01f1 E6       		.byte	0xe6
 1372 01f2 0A010000 		.4byte	0x10a
 1373 01f6 22       		.byte	0x22
 1374 01f7 07       		.uleb128 0x7
 1375 01f8 DE050000 		.4byte	.LASF42
 1376 01fc 04       		.byte	0x4
 1377 01fd EC       		.byte	0xec
 1378 01fe 15010000 		.4byte	0x115
 1379 0202 23       		.byte	0x23
 1380 0203 07       		.uleb128 0x7
 1381 0204 C3030000 		.4byte	.LASF43
 1382 0208 04       		.byte	0x4
 1383 0209 F3       		.byte	0xf3
 1384 020a 57010000 		.4byte	0x157
 1385 020e 24       		.byte	0x24
 1386 020f 08       		.uleb128 0x8
 1387 0210 705F7500 		.ascii	"p_u\000"
 1388 0214 04       		.byte	0x4
 1389 0215 3101     		.2byte	0x131
 1390 0217 50060000 		.4byte	0x650
 1391 021b 28       		.byte	0x28
 1392 021c 09       		.uleb128 0x9
 1393 021d 98040000 		.4byte	.LASF44
 1394 0221 04       		.byte	0x4
 1395 0222 3601     		.2byte	0x136
 1396 0224 96020000 		.4byte	0x296
 1397 0228 2C       		.byte	0x2c
 1398 0229 09       		.uleb128 0x9
 1399 022a F2030000 		.4byte	.LASF45
 1400 022e 04       		.byte	0x4
 1401 022f 3C01     		.2byte	0x13c
 1402 0231 BA020000 		.4byte	0x2ba
 1403 0235 30       		.byte	0x30
 1404 0236 09       		.uleb128 0x9
 1405 0237 AB070000 		.4byte	.LASF46
 1406 023b 04       		.byte	0x4
 1407 023c 4001     		.2byte	0x140
 1408 023e 2B010000 		.4byte	0x12b
 1409 0242 38       		.byte	0x38
 1410 0243 09       		.uleb128 0x9
 1411 0244 BE060000 		.4byte	.LASF47
 1412 0248 04       		.byte	0x4
 1413 0249 4601     		.2byte	0x146
 1414 024b 36010000 		.4byte	0x136
 1415 024f 3C       		.byte	0x3c
 1416 0250 09       		.uleb128 0x9
 1417 0251 5D040000 		.4byte	.LASF48
 1418 0255 04       		.byte	0x4
ARM GAS  /tmp/ccDO8Csd.s 			page 26


 1419 0256 4D01     		.2byte	0x14d
 1420 0258 0F070000 		.4byte	0x70f
 1421 025c 40       		.byte	0x40
 1422 025d 09       		.uleb128 0x9
 1423 025e 73070000 		.4byte	.LASF49
 1424 0262 04       		.byte	0x4
 1425 0263 5101     		.2byte	0x151
 1426 0265 20010000 		.4byte	0x120
 1427 0269 44       		.byte	0x44
 1428 026a 09       		.uleb128 0x9
 1429 026b 9B020000 		.4byte	.LASF50
 1430 026f 04       		.byte	0x4
 1431 0270 5801     		.2byte	0x158
 1432 0272 6D030000 		.4byte	0x36d
 1433 0276 48       		.byte	0x48
 1434 0277 09       		.uleb128 0x9
 1435 0278 F0070000 		.4byte	.LASF51
 1436 027c 04       		.byte	0x4
 1437 027d 6201     		.2byte	0x162
 1438 027f 25000000 		.4byte	0x25
 1439 0283 4C       		.byte	0x4c
 1440 0284 00       		.byte	0
 1441 0285 03       		.uleb128 0x3
 1442 0286 0D080000 		.4byte	.LASF52
 1443 028a 09       		.byte	0x9
 1444 028b 44       		.byte	0x44
 1445 028c 90020000 		.4byte	0x290
 1446 0290 0A       		.uleb128 0xa
 1447 0291 04       		.byte	0x4
 1448 0292 5C010000 		.4byte	0x15c
 1449 0296 03       		.uleb128 0x3
 1450 0297 38080000 		.4byte	.LASF53
 1451 029b 09       		.byte	0x9
 1452 029c 49       		.byte	0x49
 1453 029d A1020000 		.4byte	0x2a1
 1454 02a1 06       		.uleb128 0x6
 1455 02a2 F8060000 		.4byte	.LASF55
 1456 02a6 04       		.byte	0x4
 1457 02a7 04       		.byte	0x4
 1458 02a8 B0       		.byte	0xb0
 1459 02a9 BA020000 		.4byte	0x2ba
 1460 02ad 07       		.uleb128 0x7
 1461 02ae 0C060000 		.4byte	.LASF31
 1462 02b2 04       		.byte	0x4
 1463 02b3 B1       		.byte	0xb1
 1464 02b4 90020000 		.4byte	0x290
 1465 02b8 00       		.byte	0
 1466 02b9 00       		.byte	0
 1467 02ba 03       		.uleb128 0x3
 1468 02bb 75060000 		.4byte	.LASF56
 1469 02bf 09       		.byte	0x9
 1470 02c0 50       		.byte	0x50
 1471 02c1 C5020000 		.4byte	0x2c5
 1472 02c5 06       		.uleb128 0x6
 1473 02c6 2F020000 		.4byte	.LASF57
 1474 02ca 08       		.byte	0x8
 1475 02cb 04       		.byte	0x4
ARM GAS  /tmp/ccDO8Csd.s 			page 27


 1476 02cc B7       		.byte	0xb7
 1477 02cd EA020000 		.4byte	0x2ea
 1478 02d1 07       		.uleb128 0x7
 1479 02d2 0C060000 		.4byte	.LASF31
 1480 02d6 04       		.byte	0x4
 1481 02d7 B8       		.byte	0xb8
 1482 02d8 90020000 		.4byte	0x290
 1483 02dc 00       		.byte	0
 1484 02dd 07       		.uleb128 0x7
 1485 02de 75050000 		.4byte	.LASF32
 1486 02e2 04       		.byte	0x4
 1487 02e3 B9       		.byte	0xb9
 1488 02e4 90020000 		.4byte	0x290
 1489 02e8 04       		.byte	0x4
 1490 02e9 00       		.byte	0
 1491 02ea 03       		.uleb128 0x3
 1492 02eb 0D000000 		.4byte	.LASF58
 1493 02ef 09       		.byte	0x9
 1494 02f0 57       		.byte	0x57
 1495 02f1 F5020000 		.4byte	0x2f5
 1496 02f5 0B       		.uleb128 0xb
 1497 02f6 06040000 		.4byte	.LASF59
 1498 02fa 1C       		.byte	0x1c
 1499 02fb 04       		.byte	0x4
 1500 02fc 9001     		.2byte	0x190
 1501 02fe 51030000 		.4byte	0x351
 1502 0302 09       		.uleb128 0x9
 1503 0303 E4060000 		.4byte	.LASF60
 1504 0307 04       		.byte	0x4
 1505 0308 9101     		.2byte	0x191
 1506 030a BA020000 		.4byte	0x2ba
 1507 030e 00       		.byte	0
 1508 030f 09       		.uleb128 0x9
 1509 0310 91040000 		.4byte	.LASF61
 1510 0314 04       		.byte	0x4
 1511 0315 9201     		.2byte	0x192
 1512 0317 20010000 		.4byte	0x120
 1513 031b 08       		.byte	0x8
 1514 031c 09       		.uleb128 0x9
 1515 031d F9040000 		.4byte	.LASF62
 1516 0321 04       		.byte	0x4
 1517 0322 9401     		.2byte	0x194
 1518 0324 D0040000 		.4byte	0x4d0
 1519 0328 0C       		.byte	0xc
 1520 0329 09       		.uleb128 0x9
 1521 032a 3B030000 		.4byte	.LASF63
 1522 032e 04       		.byte	0x4
 1523 032f 9701     		.2byte	0x197
 1524 0331 90020000 		.4byte	0x290
 1525 0335 10       		.byte	0x10
 1526 0336 09       		.uleb128 0x9
 1527 0337 2C050000 		.4byte	.LASF64
 1528 033b 04       		.byte	0x4
 1529 033c 9801     		.2byte	0x198
 1530 033e 90020000 		.4byte	0x290
 1531 0342 14       		.byte	0x14
 1532 0343 09       		.uleb128 0x9
ARM GAS  /tmp/ccDO8Csd.s 			page 28


 1533 0344 22050000 		.4byte	.LASF65
 1534 0348 04       		.byte	0x4
 1535 0349 9B01     		.2byte	0x19b
 1536 034b 90020000 		.4byte	0x290
 1537 034f 18       		.byte	0x18
 1538 0350 00       		.byte	0
 1539 0351 03       		.uleb128 0x3
 1540 0352 7E070000 		.4byte	.LASF66
 1541 0356 09       		.byte	0x9
 1542 0357 5C       		.byte	0x5c
 1543 0358 5C030000 		.4byte	0x35c
 1544 035c 0A       		.uleb128 0xa
 1545 035d 04       		.byte	0x4
 1546 035e 62030000 		.4byte	0x362
 1547 0362 0C       		.uleb128 0xc
 1548 0363 6D030000 		.4byte	0x36d
 1549 0367 0D       		.uleb128 0xd
 1550 0368 6D030000 		.4byte	0x36d
 1551 036c 00       		.byte	0
 1552 036d 0E       		.uleb128 0xe
 1553 036e 04       		.byte	0x4
 1554 036f 03       		.uleb128 0x3
 1555 0370 65050000 		.4byte	.LASF67
 1556 0374 09       		.byte	0x9
 1557 0375 61       		.byte	0x61
 1558 0376 7A030000 		.4byte	0x37a
 1559 037a 0B       		.uleb128 0xb
 1560 037b 85060000 		.4byte	.LASF68
 1561 037f 14       		.byte	0x14
 1562 0380 04       		.byte	0x4
 1563 0381 6B01     		.2byte	0x16b
 1564 0383 C9030000 		.4byte	0x3c9
 1565 0387 09       		.uleb128 0x9
 1566 0388 A2030000 		.4byte	.LASF69
 1567 038c 04       		.byte	0x4
 1568 038d 6C01     		.2byte	0x16c
 1569 038f 32070000 		.4byte	0x732
 1570 0393 00       		.byte	0
 1571 0394 09       		.uleb128 0x9
 1572 0395 5E030000 		.4byte	.LASF70
 1573 0399 04       		.byte	0x4
 1574 039a 6D01     		.2byte	0x16d
 1575 039c 32070000 		.4byte	0x732
 1576 03a0 04       		.byte	0x4
 1577 03a1 09       		.uleb128 0x9
 1578 03a2 E9030000 		.4byte	.LASF71
 1579 03a6 04       		.byte	0x4
 1580 03a7 6E01     		.2byte	0x16e
 1581 03a9 4C010000 		.4byte	0x14c
 1582 03ad 08       		.byte	0x8
 1583 03ae 09       		.uleb128 0x9
 1584 03af A3080000 		.4byte	.LASF72
 1585 03b3 04       		.byte	0x4
 1586 03b4 6F01     		.2byte	0x16f
 1587 03b6 51030000 		.4byte	0x351
 1588 03ba 0C       		.byte	0xc
 1589 03bb 09       		.uleb128 0x9
ARM GAS  /tmp/ccDO8Csd.s 			page 29


 1590 03bc CE070000 		.4byte	.LASF73
 1591 03c0 04       		.byte	0x4
 1592 03c1 7101     		.2byte	0x171
 1593 03c3 6D030000 		.4byte	0x36d
 1594 03c7 10       		.byte	0x10
 1595 03c8 00       		.byte	0
 1596 03c9 03       		.uleb128 0x3
 1597 03ca 0C020000 		.4byte	.LASF74
 1598 03ce 09       		.byte	0x9
 1599 03cf 66       		.byte	0x66
 1600 03d0 D4030000 		.4byte	0x3d4
 1601 03d4 0B       		.uleb128 0xb
 1602 03d5 AA040000 		.4byte	.LASF75
 1603 03d9 10       		.byte	0x10
 1604 03da 04       		.byte	0x4
 1605 03db 7B01     		.2byte	0x17b
 1606 03dd 16040000 		.4byte	0x416
 1607 03e1 09       		.uleb128 0x9
 1608 03e2 A2030000 		.4byte	.LASF69
 1609 03e6 04       		.byte	0x4
 1610 03e7 7C01     		.2byte	0x17c
 1611 03e9 32070000 		.4byte	0x732
 1612 03ed 00       		.byte	0
 1613 03ee 09       		.uleb128 0x9
 1614 03ef 5E030000 		.4byte	.LASF70
 1615 03f3 04       		.byte	0x4
 1616 03f4 7E01     		.2byte	0x17e
 1617 03f6 32070000 		.4byte	0x732
 1618 03fa 04       		.byte	0x4
 1619 03fb 09       		.uleb128 0x9
 1620 03fc E9030000 		.4byte	.LASF71
 1621 0400 04       		.byte	0x4
 1622 0401 8001     		.2byte	0x180
 1623 0403 4C010000 		.4byte	0x14c
 1624 0407 08       		.byte	0x8
 1625 0408 09       		.uleb128 0x9
 1626 0409 D1030000 		.4byte	.LASF76
 1627 040d 04       		.byte	0x4
 1628 040e 8201     		.2byte	0x182
 1629 0410 57010000 		.4byte	0x157
 1630 0414 0C       		.byte	0xc
 1631 0415 00       		.byte	0
 1632 0416 03       		.uleb128 0x3
 1633 0417 6A000000 		.4byte	.LASF77
 1634 041b 09       		.byte	0x9
 1635 041c 6B       		.byte	0x6b
 1636 041d 21040000 		.4byte	0x421
 1637 0421 0B       		.uleb128 0xb
 1638 0422 97050000 		.4byte	.LASF78
 1639 0426 04       		.byte	0x4
 1640 0427 04       		.byte	0x4
 1641 0428 A201     		.2byte	0x1a2
 1642 042a 3C040000 		.4byte	0x43c
 1643 042e 09       		.uleb128 0x9
 1644 042f 92070000 		.4byte	.LASF79
 1645 0433 04       		.byte	0x4
 1646 0434 AA01     		.2byte	0x1aa
ARM GAS  /tmp/ccDO8Csd.s 			page 30


 1647 0436 1B070000 		.4byte	0x71b
 1648 043a 00       		.byte	0
 1649 043b 00       		.byte	0
 1650 043c 03       		.uleb128 0x3
 1651 043d 4A040000 		.4byte	.LASF80
 1652 0441 09       		.byte	0x9
 1653 0442 70       		.byte	0x70
 1654 0443 47040000 		.4byte	0x447
 1655 0447 0F       		.uleb128 0xf
 1656 0448 CE020000 		.4byte	.LASF81
 1657 044c 6802     		.2byte	0x268
 1658 044e 04       		.byte	0x4
 1659 044f C201     		.2byte	0x1c2
 1660 0451 A3040000 		.4byte	0x4a3
 1661 0455 09       		.uleb128 0x9
 1662 0456 FF070000 		.4byte	.LASF82
 1663 045a 04       		.byte	0x4
 1664 045b C601     		.2byte	0x1c6
 1665 045d EA020000 		.4byte	0x2ea
 1666 0461 00       		.byte	0
 1667 0462 09       		.uleb128 0x9
 1668 0463 AB020000 		.4byte	.LASF83
 1669 0467 04       		.byte	0x4
 1670 0468 CA01     		.2byte	0x1ca
 1671 046a C9030000 		.4byte	0x3c9
 1672 046e 1C       		.byte	0x1c
 1673 046f 08       		.uleb128 0x8
 1674 0470 64626700 		.ascii	"dbg\000"
 1675 0474 04       		.byte	0x4
 1676 0475 CE01     		.2byte	0x1ce
 1677 0477 16040000 		.4byte	0x416
 1678 047b 2C       		.byte	0x2c
 1679 047c 09       		.uleb128 0x9
 1680 047d F7010000 		.4byte	.LASF84
 1681 0481 04       		.byte	0x4
 1682 0482 D201     		.2byte	0x1d2
 1683 0484 5C010000 		.4byte	0x15c
 1684 0488 30       		.byte	0x30
 1685 0489 08       		.uleb128 0x8
 1686 048a 746D00   		.ascii	"tm\000"
 1687 048d 04       		.byte	0x4
 1688 048e D701     		.2byte	0x1d7
 1689 0490 45060000 		.4byte	0x645
 1690 0494 80       		.byte	0x80
 1691 0495 09       		.uleb128 0x9
 1692 0496 6E030000 		.4byte	.LASF85
 1693 049a 04       		.byte	0x4
 1694 049b E301     		.2byte	0x1e3
 1695 049d 38070000 		.4byte	0x738
 1696 04a1 88       		.byte	0x88
 1697 04a2 00       		.byte	0
 1698 04a3 10       		.uleb128 0x10
 1699 04a4 22020000 		.4byte	.LASF86
 1700 04a8 0A       		.byte	0xa
 1701 04a9 A706     		.2byte	0x6a7
 1702 04ab CE000000 		.4byte	0xce
 1703 04af 11       		.uleb128 0x11
ARM GAS  /tmp/ccDO8Csd.s 			page 31


 1704 04b0 B3030000 		.4byte	.LASF87
 1705 04b4 0B       		.byte	0xb
 1706 04b5 4C       		.byte	0x4c
 1707 04b6 D3000000 		.4byte	0xd3
 1708 04ba 03       		.uleb128 0x3
 1709 04bb 43030000 		.4byte	.LASF88
 1710 04bf 0C       		.byte	0xc
 1711 04c0 65       		.byte	0x65
 1712 04c1 6D030000 		.4byte	0x36d
 1713 04c5 03       		.uleb128 0x3
 1714 04c6 72040000 		.4byte	.LASF89
 1715 04ca 0C       		.byte	0xc
 1716 04cb 6D       		.byte	0x6d
 1717 04cc DE000000 		.4byte	0xde
 1718 04d0 06       		.uleb128 0x6
 1719 04d1 A3070000 		.4byte	.LASF90
 1720 04d5 04       		.byte	0x4
 1721 04d6 0C       		.byte	0xc
 1722 04d7 89       		.byte	0x89
 1723 04d8 E9040000 		.4byte	0x4e9
 1724 04dc 12       		.uleb128 0x12
 1725 04dd 72313300 		.ascii	"r13\000"
 1726 04e1 0C       		.byte	0xc
 1727 04e2 8A       		.byte	0x8a
 1728 04e3 2A060000 		.4byte	0x62a
 1729 04e7 00       		.byte	0
 1730 04e8 00       		.byte	0
 1731 04e9 06       		.uleb128 0x6
 1732 04ea 5E000000 		.4byte	.LASF91
 1733 04ee 64       		.byte	0x64
 1734 04ef 0D       		.byte	0xd
 1735 04f0 F4       		.byte	0xf4
 1736 04f1 2A060000 		.4byte	0x62a
 1737 04f5 12       		.uleb128 0x12
 1738 04f6 73313600 		.ascii	"s16\000"
 1739 04fa 0D       		.byte	0xd
 1740 04fb F6       		.byte	0xf6
 1741 04fc BA040000 		.4byte	0x4ba
 1742 0500 00       		.byte	0
 1743 0501 12       		.uleb128 0x12
 1744 0502 73313700 		.ascii	"s17\000"
 1745 0506 0D       		.byte	0xd
 1746 0507 F7       		.byte	0xf7
 1747 0508 BA040000 		.4byte	0x4ba
 1748 050c 04       		.byte	0x4
 1749 050d 12       		.uleb128 0x12
 1750 050e 73313800 		.ascii	"s18\000"
 1751 0512 0D       		.byte	0xd
 1752 0513 F8       		.byte	0xf8
 1753 0514 BA040000 		.4byte	0x4ba
 1754 0518 08       		.byte	0x8
 1755 0519 12       		.uleb128 0x12
 1756 051a 73313900 		.ascii	"s19\000"
 1757 051e 0D       		.byte	0xd
 1758 051f F9       		.byte	0xf9
 1759 0520 BA040000 		.4byte	0x4ba
 1760 0524 0C       		.byte	0xc
ARM GAS  /tmp/ccDO8Csd.s 			page 32


 1761 0525 12       		.uleb128 0x12
 1762 0526 73323000 		.ascii	"s20\000"
 1763 052a 0D       		.byte	0xd
 1764 052b FA       		.byte	0xfa
 1765 052c BA040000 		.4byte	0x4ba
 1766 0530 10       		.byte	0x10
 1767 0531 12       		.uleb128 0x12
 1768 0532 73323100 		.ascii	"s21\000"
 1769 0536 0D       		.byte	0xd
 1770 0537 FB       		.byte	0xfb
 1771 0538 BA040000 		.4byte	0x4ba
 1772 053c 14       		.byte	0x14
 1773 053d 12       		.uleb128 0x12
 1774 053e 73323200 		.ascii	"s22\000"
 1775 0542 0D       		.byte	0xd
 1776 0543 FC       		.byte	0xfc
 1777 0544 BA040000 		.4byte	0x4ba
 1778 0548 18       		.byte	0x18
 1779 0549 12       		.uleb128 0x12
 1780 054a 73323300 		.ascii	"s23\000"
 1781 054e 0D       		.byte	0xd
 1782 054f FD       		.byte	0xfd
 1783 0550 BA040000 		.4byte	0x4ba
 1784 0554 1C       		.byte	0x1c
 1785 0555 12       		.uleb128 0x12
 1786 0556 73323400 		.ascii	"s24\000"
 1787 055a 0D       		.byte	0xd
 1788 055b FE       		.byte	0xfe
 1789 055c BA040000 		.4byte	0x4ba
 1790 0560 20       		.byte	0x20
 1791 0561 12       		.uleb128 0x12
 1792 0562 73323500 		.ascii	"s25\000"
 1793 0566 0D       		.byte	0xd
 1794 0567 FF       		.byte	0xff
 1795 0568 BA040000 		.4byte	0x4ba
 1796 056c 24       		.byte	0x24
 1797 056d 08       		.uleb128 0x8
 1798 056e 73323600 		.ascii	"s26\000"
 1799 0572 0D       		.byte	0xd
 1800 0573 0001     		.2byte	0x100
 1801 0575 BA040000 		.4byte	0x4ba
 1802 0579 28       		.byte	0x28
 1803 057a 08       		.uleb128 0x8
 1804 057b 73323700 		.ascii	"s27\000"
 1805 057f 0D       		.byte	0xd
 1806 0580 0101     		.2byte	0x101
 1807 0582 BA040000 		.4byte	0x4ba
 1808 0586 2C       		.byte	0x2c
 1809 0587 08       		.uleb128 0x8
 1810 0588 73323800 		.ascii	"s28\000"
 1811 058c 0D       		.byte	0xd
 1812 058d 0201     		.2byte	0x102
 1813 058f BA040000 		.4byte	0x4ba
 1814 0593 30       		.byte	0x30
 1815 0594 08       		.uleb128 0x8
 1816 0595 73323900 		.ascii	"s29\000"
 1817 0599 0D       		.byte	0xd
ARM GAS  /tmp/ccDO8Csd.s 			page 33


 1818 059a 0301     		.2byte	0x103
 1819 059c BA040000 		.4byte	0x4ba
 1820 05a0 34       		.byte	0x34
 1821 05a1 08       		.uleb128 0x8
 1822 05a2 73333000 		.ascii	"s30\000"
 1823 05a6 0D       		.byte	0xd
 1824 05a7 0401     		.2byte	0x104
 1825 05a9 BA040000 		.4byte	0x4ba
 1826 05ad 38       		.byte	0x38
 1827 05ae 08       		.uleb128 0x8
 1828 05af 73333100 		.ascii	"s31\000"
 1829 05b3 0D       		.byte	0xd
 1830 05b4 0501     		.2byte	0x105
 1831 05b6 BA040000 		.4byte	0x4ba
 1832 05ba 3C       		.byte	0x3c
 1833 05bb 08       		.uleb128 0x8
 1834 05bc 723400   		.ascii	"r4\000"
 1835 05bf 0D       		.byte	0xd
 1836 05c0 0701     		.2byte	0x107
 1837 05c2 BA040000 		.4byte	0x4ba
 1838 05c6 40       		.byte	0x40
 1839 05c7 08       		.uleb128 0x8
 1840 05c8 723500   		.ascii	"r5\000"
 1841 05cb 0D       		.byte	0xd
 1842 05cc 0801     		.2byte	0x108
 1843 05ce BA040000 		.4byte	0x4ba
 1844 05d2 44       		.byte	0x44
 1845 05d3 08       		.uleb128 0x8
 1846 05d4 723600   		.ascii	"r6\000"
 1847 05d7 0D       		.byte	0xd
 1848 05d8 0901     		.2byte	0x109
 1849 05da BA040000 		.4byte	0x4ba
 1850 05de 48       		.byte	0x48
 1851 05df 08       		.uleb128 0x8
 1852 05e0 723700   		.ascii	"r7\000"
 1853 05e3 0D       		.byte	0xd
 1854 05e4 0A01     		.2byte	0x10a
 1855 05e6 BA040000 		.4byte	0x4ba
 1856 05ea 4C       		.byte	0x4c
 1857 05eb 08       		.uleb128 0x8
 1858 05ec 723800   		.ascii	"r8\000"
 1859 05ef 0D       		.byte	0xd
 1860 05f0 0B01     		.2byte	0x10b
 1861 05f2 BA040000 		.4byte	0x4ba
 1862 05f6 50       		.byte	0x50
 1863 05f7 08       		.uleb128 0x8
 1864 05f8 723900   		.ascii	"r9\000"
 1865 05fb 0D       		.byte	0xd
 1866 05fc 0C01     		.2byte	0x10c
 1867 05fe BA040000 		.4byte	0x4ba
 1868 0602 54       		.byte	0x54
 1869 0603 08       		.uleb128 0x8
 1870 0604 72313000 		.ascii	"r10\000"
 1871 0608 0D       		.byte	0xd
 1872 0609 0D01     		.2byte	0x10d
 1873 060b BA040000 		.4byte	0x4ba
 1874 060f 58       		.byte	0x58
ARM GAS  /tmp/ccDO8Csd.s 			page 34


 1875 0610 08       		.uleb128 0x8
 1876 0611 72313100 		.ascii	"r11\000"
 1877 0615 0D       		.byte	0xd
 1878 0616 0E01     		.2byte	0x10e
 1879 0618 BA040000 		.4byte	0x4ba
 1880 061c 5C       		.byte	0x5c
 1881 061d 08       		.uleb128 0x8
 1882 061e 6C7200   		.ascii	"lr\000"
 1883 0621 0D       		.byte	0xd
 1884 0622 0F01     		.2byte	0x10f
 1885 0624 BA040000 		.4byte	0x4ba
 1886 0628 60       		.byte	0x60
 1887 0629 00       		.byte	0
 1888 062a 0A       		.uleb128 0xa
 1889 062b 04       		.byte	0x4
 1890 062c E9040000 		.4byte	0x4e9
 1891 0630 13       		.uleb128 0x13
 1892 0631 04       		.byte	0x4
 1893 0632 0E       		.byte	0xe
 1894 0633 38       		.byte	0x38
 1895 0634 45060000 		.4byte	0x645
 1896 0638 07       		.uleb128 0x7
 1897 0639 9C070000 		.4byte	.LASF92
 1898 063d 0E       		.byte	0xe
 1899 063e 3C       		.byte	0x3c
 1900 063f E9000000 		.4byte	0xe9
 1901 0643 00       		.byte	0
 1902 0644 00       		.byte	0
 1903 0645 03       		.uleb128 0x3
 1904 0646 05050000 		.4byte	.LASF93
 1905 064a 0E       		.byte	0xe
 1906 064b 3D       		.byte	0x3d
 1907 064c 30060000 		.4byte	0x630
 1908 0650 14       		.uleb128 0x14
 1909 0651 04       		.byte	0x4
 1910 0652 04       		.byte	0x4
 1911 0653 FA       		.byte	0xfa
 1912 0654 AD060000 		.4byte	0x6ad
 1913 0658 15       		.uleb128 0x15
 1914 0659 21000000 		.4byte	.LASF94
 1915 065d 04       		.byte	0x4
 1916 065e 0101     		.2byte	0x101
 1917 0660 2B010000 		.4byte	0x12b
 1918 0664 15       		.uleb128 0x15
 1919 0665 EE010000 		.4byte	.LASF95
 1920 0669 04       		.byte	0x4
 1921 066a 0801     		.2byte	0x108
 1922 066c 2B010000 		.4byte	0x12b
 1923 0670 15       		.uleb128 0x15
 1924 0671 56040000 		.4byte	.LASF96
 1925 0675 04       		.byte	0x4
 1926 0676 0F01     		.2byte	0x10f
 1927 0678 6D030000 		.4byte	0x36d
 1928 067c 15       		.uleb128 0x15
 1929 067d C8020000 		.4byte	.LASF97
 1930 0681 04       		.byte	0x4
 1931 0682 1601     		.2byte	0x116
ARM GAS  /tmp/ccDO8Csd.s 			page 35


 1932 0684 AD060000 		.4byte	0x6ad
 1933 0688 15       		.uleb128 0x15
 1934 0689 CA030000 		.4byte	.LASF98
 1935 068d 04       		.byte	0x4
 1936 068e 1E01     		.2byte	0x11e
 1937 0690 D8060000 		.4byte	0x6d8
 1938 0694 15       		.uleb128 0x15
 1939 0695 27070000 		.4byte	.LASF99
 1940 0699 04       		.byte	0x4
 1941 069a 2701     		.2byte	0x127
 1942 069c 0F070000 		.4byte	0x70f
 1943 06a0 15       		.uleb128 0x15
 1944 06a1 05060000 		.4byte	.LASF100
 1945 06a5 04       		.byte	0x4
 1946 06a6 2F01     		.2byte	0x12f
 1947 06a8 36010000 		.4byte	0x136
 1948 06ac 00       		.byte	0
 1949 06ad 0A       		.uleb128 0xa
 1950 06ae 04       		.byte	0x4
 1951 06af 85020000 		.4byte	0x285
 1952 06b3 06       		.uleb128 0x6
 1953 06b4 A3060000 		.4byte	.LASF101
 1954 06b8 0C       		.byte	0xc
 1955 06b9 03       		.byte	0x3
 1956 06ba 34       		.byte	0x34
 1957 06bb D8060000 		.4byte	0x6d8
 1958 06bf 07       		.uleb128 0x7
 1959 06c0 1A030000 		.4byte	.LASF102
 1960 06c4 03       		.byte	0x3
 1961 06c5 35       		.byte	0x35
 1962 06c6 BA020000 		.4byte	0x2ba
 1963 06ca 00       		.byte	0
 1964 06cb 07       		.uleb128 0x7
 1965 06cc 14040000 		.4byte	.LASF103
 1966 06d0 03       		.byte	0x3
 1967 06d1 37       		.byte	0x37
 1968 06d2 41010000 		.4byte	0x141
 1969 06d6 08       		.byte	0x8
 1970 06d7 00       		.byte	0
 1971 06d8 0A       		.uleb128 0xa
 1972 06d9 04       		.byte	0x4
 1973 06da B3060000 		.4byte	0x6b3
 1974 06de 06       		.uleb128 0x6
 1975 06df E0070000 		.4byte	.LASF104
 1976 06e3 10       		.byte	0x10
 1977 06e4 0F       		.byte	0xf
 1978 06e5 39       		.byte	0x39
 1979 06e6 0F070000 		.4byte	0x70f
 1980 06ea 07       		.uleb128 0x7
 1981 06eb A3020000 		.4byte	.LASF105
 1982 06ef 0F       		.byte	0xf
 1983 06f0 3A       		.byte	0x3a
 1984 06f1 BA020000 		.4byte	0x2ba
 1985 06f5 00       		.byte	0
 1986 06f6 07       		.uleb128 0x7
 1987 06f7 7C080000 		.4byte	.LASF106
 1988 06fb 0F       		.byte	0xf
ARM GAS  /tmp/ccDO8Csd.s 			page 36


 1989 06fc 3C       		.byte	0x3c
 1990 06fd 90020000 		.4byte	0x290
 1991 0701 08       		.byte	0x8
 1992 0702 07       		.uleb128 0x7
 1993 0703 16050000 		.4byte	.LASF107
 1994 0707 0F       		.byte	0xf
 1995 0708 3E       		.byte	0x3e
 1996 0709 75080000 		.4byte	0x875
 1997 070d 0C       		.byte	0xc
 1998 070e 00       		.byte	0
 1999 070f 0A       		.uleb128 0xa
 2000 0710 04       		.byte	0x4
 2001 0711 DE060000 		.4byte	0x6de
 2002 0715 0A       		.uleb128 0xa
 2003 0716 04       		.byte	0x4
 2004 0717 27070000 		.4byte	0x727
 2005 071b 05       		.uleb128 0x5
 2006 071c 15070000 		.4byte	0x715
 2007 0720 04       		.uleb128 0x4
 2008 0721 01       		.byte	0x1
 2009 0722 08       		.byte	0x8
 2010 0723 22070000 		.4byte	.LASF108
 2011 0727 16       		.uleb128 0x16
 2012 0728 20070000 		.4byte	0x720
 2013 072c 0A       		.uleb128 0xa
 2014 072d 04       		.byte	0x4
 2015 072e C5040000 		.4byte	0x4c5
 2016 0732 0A       		.uleb128 0xa
 2017 0733 04       		.byte	0x4
 2018 0734 6F030000 		.4byte	0x36f
 2019 0738 17       		.uleb128 0x17
 2020 0739 C5040000 		.4byte	0x4c5
 2021 073d 48070000 		.4byte	0x748
 2022 0741 18       		.uleb128 0x18
 2023 0742 37000000 		.4byte	0x37
 2024 0746 3B       		.byte	0x3b
 2025 0747 00       		.byte	0
 2026 0748 19       		.uleb128 0x19
 2027 0749 636800   		.ascii	"ch\000"
 2028 074c 04       		.byte	0x4
 2029 074d 0902     		.2byte	0x209
 2030 074f 3C040000 		.4byte	0x43c
 2031 0753 13       		.uleb128 0x13
 2032 0754 16       		.byte	0x16
 2033 0755 10       		.byte	0x10
 2034 0756 34       		.byte	0x34
 2035 0757 34080000 		.4byte	0x834
 2036 075b 07       		.uleb128 0x7
 2037 075c 95080000 		.4byte	.LASF109
 2038 0760 10       		.byte	0x10
 2039 0761 35       		.byte	0x35
 2040 0762 34080000 		.4byte	0x834
 2041 0766 00       		.byte	0
 2042 0767 07       		.uleb128 0x7
 2043 0768 7D040000 		.4byte	.LASF110
 2044 076c 10       		.byte	0x10
 2045 076d 36       		.byte	0x36
ARM GAS  /tmp/ccDO8Csd.s 			page 37


 2046 076e AD000000 		.4byte	0xad
 2047 0772 04       		.byte	0x4
 2048 0773 07       		.uleb128 0x7
 2049 0774 08070000 		.4byte	.LASF111
 2050 0778 10       		.byte	0x10
 2051 0779 37       		.byte	0x37
 2052 077a AD000000 		.4byte	0xad
 2053 077e 05       		.byte	0x5
 2054 077f 07       		.uleb128 0x7
 2055 0780 71080000 		.4byte	.LASF112
 2056 0784 10       		.byte	0x10
 2057 0785 38       		.byte	0x38
 2058 0786 B8000000 		.4byte	0xb8
 2059 078a 06       		.byte	0x6
 2060 078b 07       		.uleb128 0x7
 2061 078c 5A050000 		.4byte	.LASF113
 2062 0790 10       		.byte	0x10
 2063 0791 39       		.byte	0x39
 2064 0792 AD000000 		.4byte	0xad
 2065 0796 08       		.byte	0x8
 2066 0797 07       		.uleb128 0x7
 2067 0798 C1040000 		.4byte	.LASF114
 2068 079c 10       		.byte	0x10
 2069 079d 3A       		.byte	0x3a
 2070 079e AD000000 		.4byte	0xad
 2071 07a2 09       		.byte	0x9
 2072 07a3 07       		.uleb128 0x7
 2073 07a4 D3010000 		.4byte	.LASF115
 2074 07a8 10       		.byte	0x10
 2075 07a9 3B       		.byte	0x3b
 2076 07aa AD000000 		.4byte	0xad
 2077 07ae 0A       		.byte	0xa
 2078 07af 07       		.uleb128 0x7
 2079 07b0 D8060000 		.4byte	.LASF116
 2080 07b4 10       		.byte	0x10
 2081 07b5 3C       		.byte	0x3c
 2082 07b6 AD000000 		.4byte	0xad
 2083 07ba 0B       		.byte	0xb
 2084 07bb 07       		.uleb128 0x7
 2085 07bc D5070000 		.4byte	.LASF117
 2086 07c0 10       		.byte	0x10
 2087 07c1 3D       		.byte	0x3d
 2088 07c2 AD000000 		.4byte	0xad
 2089 07c6 0C       		.byte	0xc
 2090 07c7 07       		.uleb128 0x7
 2091 07c8 96060000 		.4byte	.LASF118
 2092 07cc 10       		.byte	0x10
 2093 07cd 3E       		.byte	0x3e
 2094 07ce AD000000 		.4byte	0xad
 2095 07d2 0D       		.byte	0xd
 2096 07d3 07       		.uleb128 0x7
 2097 07d4 00000000 		.4byte	.LASF119
 2098 07d8 10       		.byte	0x10
 2099 07d9 3F       		.byte	0x3f
 2100 07da AD000000 		.4byte	0xad
 2101 07de 0E       		.byte	0xe
 2102 07df 07       		.uleb128 0x7
ARM GAS  /tmp/ccDO8Csd.s 			page 38


 2103 07e0 E5040000 		.4byte	.LASF120
 2104 07e4 10       		.byte	0x10
 2105 07e5 40       		.byte	0x40
 2106 07e6 AD000000 		.4byte	0xad
 2107 07ea 0F       		.byte	0xf
 2108 07eb 07       		.uleb128 0x7
 2109 07ec 7E020000 		.4byte	.LASF121
 2110 07f0 10       		.byte	0x10
 2111 07f1 41       		.byte	0x41
 2112 07f2 AD000000 		.4byte	0xad
 2113 07f6 10       		.byte	0x10
 2114 07f7 07       		.uleb128 0x7
 2115 07f8 47020000 		.4byte	.LASF122
 2116 07fc 10       		.byte	0x10
 2117 07fd 43       		.byte	0x43
 2118 07fe AD000000 		.4byte	0xad
 2119 0802 11       		.byte	0x11
 2120 0803 07       		.uleb128 0x7
 2121 0804 8E020000 		.4byte	.LASF123
 2122 0808 10       		.byte	0x10
 2123 0809 44       		.byte	0x44
 2124 080a AD000000 		.4byte	0xad
 2125 080e 12       		.byte	0x12
 2126 080f 07       		.uleb128 0x7
 2127 0810 85040000 		.4byte	.LASF124
 2128 0814 10       		.byte	0x10
 2129 0815 45       		.byte	0x45
 2130 0816 AD000000 		.4byte	0xad
 2131 081a 13       		.byte	0x13
 2132 081b 07       		.uleb128 0x7
 2133 081c 1B060000 		.4byte	.LASF125
 2134 0820 10       		.byte	0x10
 2135 0821 46       		.byte	0x46
 2136 0822 AD000000 		.4byte	0xad
 2137 0826 14       		.byte	0x14
 2138 0827 07       		.uleb128 0x7
 2139 0828 E8050000 		.4byte	.LASF126
 2140 082c 10       		.byte	0x10
 2141 082d 48       		.byte	0x48
 2142 082e AD000000 		.4byte	0xad
 2143 0832 15       		.byte	0x15
 2144 0833 00       		.byte	0
 2145 0834 17       		.uleb128 0x17
 2146 0835 20070000 		.4byte	0x720
 2147 0839 44080000 		.4byte	0x844
 2148 083d 18       		.uleb128 0x18
 2149 083e 37000000 		.4byte	0x37
 2150 0842 03       		.byte	0x3
 2151 0843 00       		.byte	0
 2152 0844 03       		.uleb128 0x3
 2153 0845 8B080000 		.4byte	.LASF127
 2154 0849 10       		.byte	0x10
 2155 084a 49       		.byte	0x49
 2156 084b 53070000 		.4byte	0x753
 2157 084f 16       		.uleb128 0x16
 2158 0850 44080000 		.4byte	0x844
 2159 0854 11       		.uleb128 0x11
ARM GAS  /tmp/ccDO8Csd.s 			page 39


 2160 0855 FD030000 		.4byte	.LASF128
 2161 0859 10       		.byte	0x10
 2162 085a 6E       		.byte	0x6e
 2163 085b 4F080000 		.4byte	0x84f
 2164 085f 03       		.uleb128 0x3
 2165 0860 69060000 		.4byte	.LASF129
 2166 0864 03       		.byte	0x3
 2167 0865 38       		.byte	0x38
 2168 0866 B3060000 		.4byte	0x6b3
 2169 086a 03       		.uleb128 0x3
 2170 086b 66030000 		.4byte	.LASF130
 2171 086f 0F       		.byte	0xf
 2172 0870 34       		.byte	0x34
 2173 0871 DE060000 		.4byte	0x6de
 2174 0875 0A       		.uleb128 0xa
 2175 0876 04       		.byte	0x4
 2176 0877 6A080000 		.4byte	0x86a
 2177 087b 1A       		.uleb128 0x1a
 2178 087c 48070000 		.4byte	0x748
 2179 0880 01       		.byte	0x1
 2180 0881 2A       		.byte	0x2a
 2181 0882 05       		.uleb128 0x5
 2182 0883 03       		.byte	0x3
 2183 0884 00000000 		.4byte	ch
 2184 0888 1B       		.uleb128 0x1b
 2185 0889 4C030000 		.4byte	.LASF131
 2186 088d 01       		.byte	0x1
 2187 088e 0502     		.2byte	0x205
 2188 0890 00000000 		.4byte	.LFB229
 2189 0894 18000000 		.4byte	.LFE229-.LFB229
 2190 0898 01       		.uleb128 0x1
 2191 0899 9C       		.byte	0x9c
 2192 089a B1080000 		.4byte	0x8b1
 2193 089e 1C       		.uleb128 0x1c
 2194 089f 0E000000 		.4byte	.LVL76
 2195 08a3 B1080000 		.4byte	0x8b1
 2196 08a7 1C       		.uleb128 0x1c
 2197 08a8 12000000 		.4byte	.LVL77
 2198 08ac 6E090000 		.4byte	0x96e
 2199 08b0 00       		.byte	0
 2200 08b1 1B       		.uleb128 0x1b
 2201 08b2 31000000 		.4byte	.LASF132
 2202 08b6 01       		.byte	0x1
 2203 08b7 E001     		.2byte	0x1e0
 2204 08b9 00000000 		.4byte	.LFB228
 2205 08bd 58000000 		.4byte	.LFE228-.LFB228
 2206 08c1 01       		.uleb128 0x1
 2207 08c2 9C       		.byte	0x9c
 2208 08c3 6E090000 		.4byte	0x96e
 2209 08c7 1D       		.uleb128 0x1d
 2210 08c8 6F747000 		.ascii	"otp\000"
 2211 08cc 01       		.byte	0x1
 2212 08cd E101     		.2byte	0x1e1
 2213 08cf 90020000 		.4byte	0x290
 2214 08d3 00000000 		.4byte	.LLST26
 2215 08d7 1D       		.uleb128 0x1d
 2216 08d8 637000   		.ascii	"cp\000"
ARM GAS  /tmp/ccDO8Csd.s 			page 40


 2217 08db 01       		.byte	0x1
 2218 08dc E101     		.2byte	0x1e1
 2219 08de 90020000 		.4byte	0x290
 2220 08e2 1E000000 		.4byte	.LLST27
 2221 08e6 1E       		.uleb128 0x1e
 2222 08e7 98010000 		.4byte	.Ldebug_ranges0+0x198
 2223 08eb 44090000 		.4byte	0x944
 2224 08ef 1D       		.uleb128 0x1d
 2225 08f0 72313300 		.ascii	"r13\000"
 2226 08f4 01       		.byte	0x1
 2227 08f5 F801     		.2byte	0x1f8
 2228 08f7 2A060000 		.4byte	0x62a
 2229 08fb 31000000 		.4byte	.LLST30
 2230 08ff 1F       		.uleb128 0x1f
 2231 0900 A50E0000 		.4byte	0xea5
 2232 0904 32000000 		.4byte	.LBB244
 2233 0908 04000000 		.4byte	.LBE244-.LBB244
 2234 090c 01       		.byte	0x1
 2235 090d F801     		.2byte	0x1f8
 2236 090f 23090000 		.4byte	0x923
 2237 0913 20       		.uleb128 0x20
 2238 0914 32000000 		.4byte	.LBB245
 2239 0918 04000000 		.4byte	.LBE245-.LBB245
 2240 091c 21       		.uleb128 0x21
 2241 091d B60E0000 		.4byte	0xeb6
 2242 0921 00       		.byte	0
 2243 0922 00       		.byte	0
 2244 0923 22       		.uleb128 0x22
 2245 0924 44000000 		.4byte	.LVL72
 2246 0928 9C100000 		.4byte	0x109c
 2247 092c 3A090000 		.4byte	0x93a
 2248 0930 23       		.uleb128 0x23
 2249 0931 01       		.uleb128 0x1
 2250 0932 50       		.byte	0x50
 2251 0933 05       		.uleb128 0x5
 2252 0934 03       		.byte	0x3
 2253 0935 00000000 		.4byte	.LC0
 2254 0939 00       		.byte	0
 2255 093a 1C       		.uleb128 0x1c
 2256 093b 50000000 		.4byte	.LVL74
 2257 093f A8100000 		.4byte	0x10a8
 2258 0943 00       		.byte	0
 2259 0944 24       		.uleb128 0x24
 2260 0945 380E0000 		.4byte	0xe38
 2261 0949 02000000 		.4byte	.LBB235
 2262 094d 70010000 		.4byte	.Ldebug_ranges0+0x170
 2263 0951 01       		.byte	0x1
 2264 0952 E501     		.2byte	0x1e5
 2265 0954 25       		.uleb128 0x25
 2266 0955 490E0000 		.4byte	0xe49
 2267 0959 52000000 		.4byte	.LLST28
 2268 095d 26       		.uleb128 0x26
 2269 095e 70010000 		.4byte	.Ldebug_ranges0+0x170
 2270 0962 27       		.uleb128 0x27
 2271 0963 550E0000 		.4byte	0xe55
 2272 0967 6A000000 		.4byte	.LLST29
 2273 096b 00       		.byte	0
ARM GAS  /tmp/ccDO8Csd.s 			page 41


 2274 096c 00       		.byte	0
 2275 096d 00       		.byte	0
 2276 096e 1B       		.uleb128 0x1b
 2277 096f CD040000 		.4byte	.LASF133
 2278 0973 01       		.byte	0x1
 2279 0974 C401     		.2byte	0x1c4
 2280 0976 00000000 		.4byte	.LFB227
 2281 097a 60000000 		.4byte	.LFE227-.LFB227
 2282 097e 01       		.uleb128 0x1
 2283 097f 9C       		.byte	0x9c
 2284 0980 450A0000 		.4byte	0xa45
 2285 0984 1D       		.uleb128 0x1d
 2286 0985 6F747000 		.ascii	"otp\000"
 2287 0989 01       		.byte	0x1
 2288 098a C501     		.2byte	0x1c5
 2289 098c 90020000 		.4byte	0x290
 2290 0990 7D000000 		.4byte	.LLST21
 2291 0994 1E       		.uleb128 0x1e
 2292 0995 58010000 		.4byte	.Ldebug_ranges0+0x158
 2293 0999 F2090000 		.4byte	0x9f2
 2294 099d 1D       		.uleb128 0x1d
 2295 099e 72313300 		.ascii	"r13\000"
 2296 09a2 01       		.byte	0x1
 2297 09a3 D401     		.2byte	0x1d4
 2298 09a5 2A060000 		.4byte	0x62a
 2299 09a9 9B000000 		.4byte	.LLST25
 2300 09ad 1F       		.uleb128 0x1f
 2301 09ae A50E0000 		.4byte	0xea5
 2302 09b2 3A000000 		.4byte	.LBB232
 2303 09b6 04000000 		.4byte	.LBE232-.LBB232
 2304 09ba 01       		.byte	0x1
 2305 09bb D401     		.2byte	0x1d4
 2306 09bd D1090000 		.4byte	0x9d1
 2307 09c1 20       		.uleb128 0x20
 2308 09c2 3A000000 		.4byte	.LBB233
 2309 09c6 04000000 		.4byte	.LBE233-.LBB233
 2310 09ca 21       		.uleb128 0x21
 2311 09cb B60E0000 		.4byte	0xeb6
 2312 09cf 00       		.byte	0
 2313 09d0 00       		.byte	0
 2314 09d1 22       		.uleb128 0x22
 2315 09d2 4C000000 		.4byte	.LVL63
 2316 09d6 9C100000 		.4byte	0x109c
 2317 09da E8090000 		.4byte	0x9e8
 2318 09de 23       		.uleb128 0x23
 2319 09df 01       		.uleb128 0x1
 2320 09e0 50       		.byte	0x50
 2321 09e1 05       		.uleb128 0x5
 2322 09e2 03       		.byte	0x3
 2323 09e3 00000000 		.4byte	.LC0
 2324 09e7 00       		.byte	0
 2325 09e8 1C       		.uleb128 0x1c
 2326 09e9 58000000 		.4byte	.LVL65
 2327 09ed A8100000 		.4byte	0x10a8
 2328 09f1 00       		.byte	0
 2329 09f2 28       		.uleb128 0x28
 2330 09f3 380E0000 		.4byte	0xe38
ARM GAS  /tmp/ccDO8Csd.s 			page 42


 2331 09f7 02000000 		.4byte	.LBB215
 2332 09fb 08010000 		.4byte	.Ldebug_ranges0+0x108
 2333 09ff 01       		.byte	0x1
 2334 0a00 C901     		.2byte	0x1c9
 2335 0a02 1F0A0000 		.4byte	0xa1f
 2336 0a06 25       		.uleb128 0x25
 2337 0a07 490E0000 		.4byte	0xe49
 2338 0a0b BC000000 		.4byte	.LLST22
 2339 0a0f 26       		.uleb128 0x26
 2340 0a10 08010000 		.4byte	.Ldebug_ranges0+0x108
 2341 0a14 27       		.uleb128 0x27
 2342 0a15 550E0000 		.4byte	0xe55
 2343 0a19 D4000000 		.4byte	.LLST23
 2344 0a1d 00       		.byte	0
 2345 0a1e 00       		.byte	0
 2346 0a1f 24       		.uleb128 0x24
 2347 0a20 4B0D0000 		.4byte	0xd4b
 2348 0a24 10000000 		.4byte	.LBB223
 2349 0a28 30010000 		.4byte	.Ldebug_ranges0+0x130
 2350 0a2c 01       		.byte	0x1
 2351 0a2d D301     		.2byte	0x1d3
 2352 0a2f 25       		.uleb128 0x25
 2353 0a30 5B0D0000 		.4byte	0xd5b
 2354 0a34 E7000000 		.4byte	.LLST24
 2355 0a38 26       		.uleb128 0x26
 2356 0a39 30010000 		.4byte	.Ldebug_ranges0+0x130
 2357 0a3d 21       		.uleb128 0x21
 2358 0a3e 94100000 		.4byte	0x1094
 2359 0a42 00       		.byte	0
 2360 0a43 00       		.byte	0
 2361 0a44 00       		.byte	0
 2362 0a45 29       		.uleb128 0x29
 2363 0a46 F8020000 		.4byte	.LASF137
 2364 0a4a 01       		.byte	0x1
 2365 0a4b A901     		.2byte	0x1a9
 2366 0a4d 7C0A0000 		.4byte	0xa7c
 2367 0a51 00000000 		.4byte	.LFB226
 2368 0a55 28000000 		.4byte	.LFE226-.LFB226
 2369 0a59 01       		.uleb128 0x1
 2370 0a5a 9C       		.byte	0x9c
 2371 0a5b 7C0A0000 		.4byte	0xa7c
 2372 0a5f 1D       		.uleb128 0x1d
 2373 0a60 703100   		.ascii	"p1\000"
 2374 0a63 01       		.byte	0x1
 2375 0a64 AA01     		.2byte	0x1aa
 2376 0a66 20010000 		.4byte	0x120
 2377 0a6a FA000000 		.4byte	.LLST20
 2378 0a6e 2A       		.uleb128 0x2a
 2379 0a6f 703200   		.ascii	"p2\000"
 2380 0a72 01       		.byte	0x1
 2381 0a73 AB01     		.2byte	0x1ab
 2382 0a75 20010000 		.4byte	0x120
 2383 0a79 01       		.uleb128 0x1
 2384 0a7a 53       		.byte	0x53
 2385 0a7b 00       		.byte	0
 2386 0a7c 04       		.uleb128 0x4
 2387 0a7d 01       		.byte	0x1
ARM GAS  /tmp/ccDO8Csd.s 			page 43


 2388 0a7e 02       		.byte	0x2
 2389 0a7f A7050000 		.4byte	.LASF134
 2390 0a83 1B       		.uleb128 0x1b
 2391 0a84 22030000 		.4byte	.LASF135
 2392 0a88 01       		.byte	0x1
 2393 0a89 9301     		.2byte	0x193
 2394 0a8b 00000000 		.4byte	.LFB225
 2395 0a8f 18000000 		.4byte	.LFE225-.LFB225
 2396 0a93 01       		.uleb128 0x1
 2397 0a94 9C       		.byte	0x9c
 2398 0a95 B30A0000 		.4byte	0xab3
 2399 0a99 2B       		.uleb128 0x2b
 2400 0a9a 0E0E0000 		.4byte	0xe0e
 2401 0a9e 00000000 		.4byte	.LBB247
 2402 0aa2 06000000 		.4byte	.LBE247-.LBB247
 2403 0aa6 01       		.byte	0x1
 2404 0aa7 9701     		.2byte	0x197
 2405 0aa9 1C       		.uleb128 0x1c
 2406 0aaa 14000000 		.4byte	.LVL75
 2407 0aae B1080000 		.4byte	0x8b1
 2408 0ab2 00       		.byte	0
 2409 0ab3 1B       		.uleb128 0x1b
 2410 0ab4 37040000 		.4byte	.LASF136
 2411 0ab8 01       		.byte	0x1
 2412 0ab9 7001     		.2byte	0x170
 2413 0abb 00000000 		.4byte	.LFB224
 2414 0abf 80000000 		.4byte	.LFE224-.LFB224
 2415 0ac3 01       		.uleb128 0x1
 2416 0ac4 9C       		.byte	0x9c
 2417 0ac5 C50B0000 		.4byte	0xbc5
 2418 0ac9 2C       		.uleb128 0x2c
 2419 0aca 6E747000 		.ascii	"ntp\000"
 2420 0ace 01       		.byte	0x1
 2421 0acf 7001     		.2byte	0x170
 2422 0ad1 90020000 		.4byte	0x290
 2423 0ad5 30010000 		.4byte	.LLST15
 2424 0ad9 2C       		.uleb128 0x2c
 2425 0ada 6D736700 		.ascii	"msg\000"
 2426 0ade 01       		.byte	0x1
 2427 0adf 7001     		.2byte	0x170
 2428 0ae1 2B010000 		.4byte	0x12b
 2429 0ae5 8F010000 		.4byte	.LLST16
 2430 0ae9 1E       		.uleb128 0x1e
 2431 0aea B0000000 		.4byte	.Ldebug_ranges0+0xb0
 2432 0aee 9F0B0000 		.4byte	0xb9f
 2433 0af2 2D       		.uleb128 0x2d
 2434 0af3 6F747000 		.ascii	"otp\000"
 2435 0af7 01       		.byte	0x1
 2436 0af8 8001     		.2byte	0x180
 2437 0afa 90020000 		.4byte	0x290
 2438 0afe 1E       		.uleb128 0x1e
 2439 0aff E8000000 		.4byte	.Ldebug_ranges0+0xe8
 2440 0b03 790B0000 		.4byte	0xb79
 2441 0b07 1D       		.uleb128 0x1d
 2442 0b08 72313300 		.ascii	"r13\000"
 2443 0b0c 01       		.byte	0x1
 2444 0b0d 8801     		.2byte	0x188
ARM GAS  /tmp/ccDO8Csd.s 			page 44


 2445 0b0f 2A060000 		.4byte	0x62a
 2446 0b13 B0010000 		.4byte	.LLST19
 2447 0b17 1F       		.uleb128 0x1f
 2448 0b18 A50E0000 		.4byte	0xea5
 2449 0b1c 4E000000 		.4byte	.LBB209
 2450 0b20 04000000 		.4byte	.LBE209-.LBB209
 2451 0b24 01       		.byte	0x1
 2452 0b25 8801     		.2byte	0x188
 2453 0b27 3B0B0000 		.4byte	0xb3b
 2454 0b2b 20       		.uleb128 0x20
 2455 0b2c 4E000000 		.4byte	.LBB210
 2456 0b30 04000000 		.4byte	.LBE210-.LBB210
 2457 0b34 21       		.uleb128 0x21
 2458 0b35 B60E0000 		.4byte	0xeb6
 2459 0b39 00       		.byte	0
 2460 0b3a 00       		.byte	0
 2461 0b3b 2E       		.uleb128 0x2e
 2462 0b3c 66000000 		.4byte	.LVL46
 2463 0b40 A8100000 		.4byte	0x10a8
 2464 0b44 500B0000 		.4byte	0xb50
 2465 0b48 23       		.uleb128 0x23
 2466 0b49 01       		.uleb128 0x1
 2467 0b4a 50       		.byte	0x50
 2468 0b4b 03       		.uleb128 0x3
 2469 0b4c F3       		.byte	0xf3
 2470 0b4d 01       		.uleb128 0x1
 2471 0b4e 50       		.byte	0x50
 2472 0b4f 00       		.byte	0
 2473 0b50 22       		.uleb128 0x22
 2474 0b51 6C000000 		.4byte	.LVL47
 2475 0b55 9C100000 		.4byte	0x109c
 2476 0b59 670B0000 		.4byte	0xb67
 2477 0b5d 23       		.uleb128 0x23
 2478 0b5e 01       		.uleb128 0x1
 2479 0b5f 50       		.byte	0x50
 2480 0b60 05       		.uleb128 0x5
 2481 0b61 03       		.byte	0x3
 2482 0b62 00000000 		.4byte	.LC0
 2483 0b66 00       		.byte	0
 2484 0b67 2F       		.uleb128 0x2f
 2485 0b68 78000000 		.4byte	.LVL49
 2486 0b6c A8100000 		.4byte	0x10a8
 2487 0b70 23       		.uleb128 0x23
 2488 0b71 01       		.uleb128 0x1
 2489 0b72 50       		.byte	0x50
 2490 0b73 03       		.uleb128 0x3
 2491 0b74 F3       		.byte	0xf3
 2492 0b75 01       		.uleb128 0x1
 2493 0b76 50       		.byte	0x50
 2494 0b77 00       		.byte	0
 2495 0b78 00       		.byte	0
 2496 0b79 24       		.uleb128 0x24
 2497 0b7a 4B0D0000 		.4byte	0xd4b
 2498 0b7e 2C000000 		.4byte	.LBB204
 2499 0b82 D0000000 		.4byte	.Ldebug_ranges0+0xd0
 2500 0b86 01       		.byte	0x1
 2501 0b87 8001     		.2byte	0x180
ARM GAS  /tmp/ccDO8Csd.s 			page 45


 2502 0b89 25       		.uleb128 0x25
 2503 0b8a 5B0D0000 		.4byte	0xd5b
 2504 0b8e DF010000 		.4byte	.LLST18
 2505 0b92 26       		.uleb128 0x26
 2506 0b93 D0000000 		.4byte	.Ldebug_ranges0+0xd0
 2507 0b97 21       		.uleb128 0x21
 2508 0b98 94100000 		.4byte	0x1094
 2509 0b9c 00       		.byte	0
 2510 0b9d 00       		.byte	0
 2511 0b9e 00       		.byte	0
 2512 0b9f 24       		.uleb128 0x24
 2513 0ba0 4B0D0000 		.4byte	0xd4b
 2514 0ba4 0E000000 		.4byte	.LBB199
 2515 0ba8 98000000 		.4byte	.Ldebug_ranges0+0x98
 2516 0bac 01       		.byte	0x1
 2517 0bad 7D01     		.2byte	0x17d
 2518 0baf 25       		.uleb128 0x25
 2519 0bb0 5B0D0000 		.4byte	0xd5b
 2520 0bb4 F2010000 		.4byte	.LLST17
 2521 0bb8 26       		.uleb128 0x26
 2522 0bb9 98000000 		.4byte	.Ldebug_ranges0+0x98
 2523 0bbd 21       		.uleb128 0x21
 2524 0bbe 94100000 		.4byte	0x1094
 2525 0bc2 00       		.byte	0
 2526 0bc3 00       		.byte	0
 2527 0bc4 00       		.byte	0
 2528 0bc5 29       		.uleb128 0x29
 2529 0bc6 47080000 		.4byte	.LASF138
 2530 0bca 01       		.byte	0x1
 2531 0bcb 4B01     		.2byte	0x14b
 2532 0bcd 2B010000 		.4byte	0x12b
 2533 0bd1 00000000 		.4byte	.LFB223
 2534 0bd5 44000000 		.4byte	.LFE223-.LFB223
 2535 0bd9 01       		.uleb128 0x1
 2536 0bda 9C       		.byte	0x9c
 2537 0bdb 6D0C0000 		.4byte	0xc6d
 2538 0bdf 30       		.uleb128 0x30
 2539 0be0 C3050000 		.4byte	.LASF139
 2540 0be4 01       		.byte	0x1
 2541 0be5 4B01     		.2byte	0x14b
 2542 0be7 FF000000 		.4byte	0xff
 2543 0beb 05020000 		.4byte	.LLST13
 2544 0bef 30       		.uleb128 0x30
 2545 0bf0 1D050000 		.4byte	.LASF140
 2546 0bf4 01       		.byte	0x1
 2547 0bf5 4B01     		.2byte	0x14b
 2548 0bf7 4C010000 		.4byte	0x14c
 2549 0bfb 3F020000 		.4byte	.LLST14
 2550 0bff 31       		.uleb128 0x31
 2551 0c00 08000000 		.4byte	.LBB198
 2552 0c04 1E000000 		.4byte	.LBE198-.LBB198
 2553 0c08 630C0000 		.4byte	0xc63
 2554 0c0c 2A       		.uleb128 0x2a
 2555 0c0d 767400   		.ascii	"vt\000"
 2556 0c10 01       		.byte	0x1
 2557 0c11 5001     		.2byte	0x150
 2558 0c13 6F030000 		.4byte	0x36f
ARM GAS  /tmp/ccDO8Csd.s 			page 46


 2559 0c17 02       		.uleb128 0x2
 2560 0c18 91       		.byte	0x91
 2561 0c19 5C       		.sleb128 -36
 2562 0c1a 22       		.uleb128 0x22
 2563 0c1b 16000000 		.4byte	.LVL27
 2564 0c1f B4100000 		.4byte	0x10b4
 2565 0c23 3E0C0000 		.4byte	0xc3e
 2566 0c27 23       		.uleb128 0x23
 2567 0c28 01       		.uleb128 0x1
 2568 0c29 50       		.byte	0x50
 2569 0c2a 02       		.uleb128 0x2
 2570 0c2b 91       		.byte	0x91
 2571 0c2c 5C       		.sleb128 -36
 2572 0c2d 23       		.uleb128 0x23
 2573 0c2e 01       		.uleb128 0x1
 2574 0c2f 51       		.byte	0x51
 2575 0c30 03       		.uleb128 0x3
 2576 0c31 F3       		.byte	0xf3
 2577 0c32 01       		.uleb128 0x1
 2578 0c33 51       		.byte	0x51
 2579 0c34 23       		.uleb128 0x23
 2580 0c35 01       		.uleb128 0x1
 2581 0c36 52       		.byte	0x52
 2582 0c37 05       		.uleb128 0x5
 2583 0c38 03       		.byte	0x3
 2584 0c39 00000000 		.4byte	wakeup
 2585 0c3d 00       		.byte	0
 2586 0c3e 22       		.uleb128 0x22
 2587 0c3f 1C000000 		.4byte	.LVL28
 2588 0c43 900C0000 		.4byte	0xc90
 2589 0c47 520C0000 		.4byte	0xc52
 2590 0c4b 23       		.uleb128 0x23
 2591 0c4c 01       		.uleb128 0x1
 2592 0c4d 50       		.byte	0x50
 2593 0c4e 02       		.uleb128 0x2
 2594 0c4f 75       		.byte	0x75
 2595 0c50 00       		.sleb128 0
 2596 0c51 00       		.byte	0
 2597 0c52 32       		.uleb128 0x32
 2598 0c53 26000000 		.4byte	.LVL30
 2599 0c57 BF100000 		.4byte	0x10bf
 2600 0c5b 23       		.uleb128 0x23
 2601 0c5c 01       		.uleb128 0x1
 2602 0c5d 50       		.byte	0x50
 2603 0c5e 02       		.uleb128 0x2
 2604 0c5f 91       		.byte	0x91
 2605 0c60 5C       		.sleb128 -36
 2606 0c61 00       		.byte	0
 2607 0c62 00       		.byte	0
 2608 0c63 33       		.uleb128 0x33
 2609 0c64 34000000 		.4byte	.LVL32
 2610 0c68 900C0000 		.4byte	0xc90
 2611 0c6c 00       		.byte	0
 2612 0c6d 34       		.uleb128 0x34
 2613 0c6e 9B030000 		.4byte	.LASF144
 2614 0c72 01       		.byte	0x1
 2615 0c73 1301     		.2byte	0x113
ARM GAS  /tmp/ccDO8Csd.s 			page 47


 2616 0c75 01       		.byte	0x1
 2617 0c76 900C0000 		.4byte	0xc90
 2618 0c7a 35       		.uleb128 0x35
 2619 0c7b 7000     		.ascii	"p\000"
 2620 0c7d 01       		.byte	0x1
 2621 0c7e 1301     		.2byte	0x113
 2622 0c80 6D030000 		.4byte	0x36d
 2623 0c84 2D       		.uleb128 0x2d
 2624 0c85 747000   		.ascii	"tp\000"
 2625 0c88 01       		.byte	0x1
 2626 0c89 1401     		.2byte	0x114
 2627 0c8b 90020000 		.4byte	0x290
 2628 0c8f 00       		.byte	0
 2629 0c90 36       		.uleb128 0x36
 2630 0c91 B0060000 		.4byte	.LASF141
 2631 0c95 01       		.byte	0x1
 2632 0c96 FA       		.byte	0xfa
 2633 0c97 00000000 		.4byte	.LFB221
 2634 0c9b 48000000 		.4byte	.LFE221-.LFB221
 2635 0c9f 01       		.uleb128 0x1
 2636 0ca0 9C       		.byte	0x9c
 2637 0ca1 4B0D0000 		.4byte	0xd4b
 2638 0ca5 37       		.uleb128 0x37
 2639 0ca6 C3050000 		.4byte	.LASF139
 2640 0caa 01       		.byte	0x1
 2641 0cab FA       		.byte	0xfa
 2642 0cac FF000000 		.4byte	0xff
 2643 0cb0 79020000 		.4byte	.LLST8
 2644 0cb4 38       		.uleb128 0x38
 2645 0cb5 6F747000 		.ascii	"otp\000"
 2646 0cb9 01       		.byte	0x1
 2647 0cba FB       		.byte	0xfb
 2648 0cbb 90020000 		.4byte	0x290
 2649 0cbf 9A020000 		.4byte	.LLST9
 2650 0cc3 1E       		.uleb128 0x1e
 2651 0cc4 80000000 		.4byte	.Ldebug_ranges0+0x80
 2652 0cc8 210D0000 		.4byte	0xd21
 2653 0ccc 1D       		.uleb128 0x1d
 2654 0ccd 72313300 		.ascii	"r13\000"
 2655 0cd1 01       		.byte	0x1
 2656 0cd2 0D01     		.2byte	0x10d
 2657 0cd4 2A060000 		.4byte	0x62a
 2658 0cd8 B8020000 		.4byte	.LLST12
 2659 0cdc 1F       		.uleb128 0x1f
 2660 0cdd A50E0000 		.4byte	0xea5
 2661 0ce1 20000000 		.4byte	.LBB195
 2662 0ce5 04000000 		.4byte	.LBE195-.LBB195
 2663 0ce9 01       		.byte	0x1
 2664 0cea 0D01     		.2byte	0x10d
 2665 0cec 000D0000 		.4byte	0xd00
 2666 0cf0 20       		.uleb128 0x20
 2667 0cf1 20000000 		.4byte	.LBB196
 2668 0cf5 04000000 		.4byte	.LBE196-.LBB196
 2669 0cf9 21       		.uleb128 0x21
 2670 0cfa B60E0000 		.4byte	0xeb6
 2671 0cfe 00       		.byte	0
 2672 0cff 00       		.byte	0
ARM GAS  /tmp/ccDO8Csd.s 			page 48


 2673 0d00 22       		.uleb128 0x22
 2674 0d01 32000000 		.4byte	.LVL22
 2675 0d05 9C100000 		.4byte	0x109c
 2676 0d09 170D0000 		.4byte	0xd17
 2677 0d0d 23       		.uleb128 0x23
 2678 0d0e 01       		.uleb128 0x1
 2679 0d0f 50       		.byte	0x50
 2680 0d10 05       		.uleb128 0x5
 2681 0d11 03       		.byte	0x3
 2682 0d12 00000000 		.4byte	.LC0
 2683 0d16 00       		.byte	0
 2684 0d17 1C       		.uleb128 0x1c
 2685 0d18 40000000 		.4byte	.LVL24
 2686 0d1c A8100000 		.4byte	0x10a8
 2687 0d20 00       		.byte	0
 2688 0d21 24       		.uleb128 0x24
 2689 0d22 380E0000 		.4byte	0xe38
 2690 0d26 06000000 		.4byte	.LBB188
 2691 0d2a 60000000 		.4byte	.Ldebug_ranges0+0x60
 2692 0d2e 01       		.byte	0x1
 2693 0d2f 0601     		.2byte	0x106
 2694 0d31 25       		.uleb128 0x25
 2695 0d32 490E0000 		.4byte	0xe49
 2696 0d36 D9020000 		.4byte	.LLST10
 2697 0d3a 26       		.uleb128 0x26
 2698 0d3b 60000000 		.4byte	.Ldebug_ranges0+0x60
 2699 0d3f 27       		.uleb128 0x27
 2700 0d40 550E0000 		.4byte	0xe55
 2701 0d44 F1020000 		.4byte	.LLST11
 2702 0d48 00       		.byte	0
 2703 0d49 00       		.byte	0
 2704 0d4a 00       		.byte	0
 2705 0d4b 39       		.uleb128 0x39
 2706 0d4c EC060000 		.4byte	.LASF167
 2707 0d50 01       		.byte	0x1
 2708 0d51 DA       		.byte	0xda
 2709 0d52 90020000 		.4byte	0x290
 2710 0d56 01       		.byte	0x1
 2711 0d57 7D0D0000 		.4byte	0xd7d
 2712 0d5b 3A       		.uleb128 0x3a
 2713 0d5c 747000   		.ascii	"tp\000"
 2714 0d5f 01       		.byte	0x1
 2715 0d60 DA       		.byte	0xda
 2716 0d61 90020000 		.4byte	0x290
 2717 0d65 3B       		.uleb128 0x3b
 2718 0d66 637000   		.ascii	"cp\000"
 2719 0d69 01       		.byte	0x1
 2720 0d6a DB       		.byte	0xdb
 2721 0d6b 90020000 		.4byte	0x290
 2722 0d6f 3C       		.uleb128 0x3c
 2723 0d70 32060000 		.4byte	.LASF142
 2724 0d74 8D0D0000 		.4byte	0xd8d
 2725 0d78 EC060000 		.4byte	.LASF167
 2726 0d7c 00       		.byte	0
 2727 0d7d 17       		.uleb128 0x17
 2728 0d7e 27070000 		.4byte	0x727
 2729 0d82 8D0D0000 		.4byte	0xd8d
ARM GAS  /tmp/ccDO8Csd.s 			page 49


 2730 0d86 18       		.uleb128 0x18
 2731 0d87 37000000 		.4byte	0x37
 2732 0d8b 0B       		.byte	0xb
 2733 0d8c 00       		.byte	0
 2734 0d8d 16       		.uleb128 0x16
 2735 0d8e 7D0D0000 		.4byte	0xd7d
 2736 0d92 36       		.uleb128 0x36
 2737 0d93 54020000 		.4byte	.LASF143
 2738 0d97 01       		.byte	0x1
 2739 0d98 41       		.byte	0x41
 2740 0d99 00000000 		.4byte	.LFB219
 2741 0d9d 14000000 		.4byte	.LFE219-.LFB219
 2742 0da1 01       		.uleb128 0x1
 2743 0da2 9C       		.byte	0x9c
 2744 0da3 C10D0000 		.4byte	0xdc1
 2745 0da7 3D       		.uleb128 0x3d
 2746 0da8 670E0000 		.4byte	0xe67
 2747 0dac 00000000 		.4byte	.LBB184
 2748 0db0 48000000 		.4byte	.Ldebug_ranges0+0x48
 2749 0db4 01       		.byte	0x1
 2750 0db5 43       		.byte	0x43
 2751 0db6 25       		.uleb128 0x25
 2752 0db7 740E0000 		.4byte	0xe74
 2753 0dbb 04030000 		.4byte	.LLST6
 2754 0dbf 00       		.byte	0
 2755 0dc0 00       		.byte	0
 2756 0dc1 3E       		.uleb128 0x3e
 2757 0dc2 F4050000 		.4byte	.LASF145
 2758 0dc6 03       		.byte	0x3
 2759 0dc7 86       		.byte	0x86
 2760 0dc8 03       		.byte	0x3
 2761 0dc9 D80D0000 		.4byte	0xdd8
 2762 0dcd 3A       		.uleb128 0x3a
 2763 0dce 737000   		.ascii	"sp\000"
 2764 0dd1 03       		.byte	0x3
 2765 0dd2 86       		.byte	0x86
 2766 0dd3 D80D0000 		.4byte	0xdd8
 2767 0dd7 00       		.byte	0
 2768 0dd8 0A       		.uleb128 0xa
 2769 0dd9 04       		.byte	0x4
 2770 0dda 5F080000 		.4byte	0x85f
 2771 0dde 3F       		.uleb128 0x3f
 2772 0ddf 3B060000 		.4byte	.LASF148
 2773 0de3 11       		.byte	0x11
 2774 0de4 5101     		.2byte	0x151
 2775 0de6 7C0A0000 		.4byte	0xa7c
 2776 0dea 03       		.byte	0x3
 2777 0deb FC0D0000 		.4byte	0xdfc
 2778 0def 35       		.uleb128 0x35
 2779 0df0 76747000 		.ascii	"vtp\000"
 2780 0df4 11       		.byte	0x11
 2781 0df5 5101     		.2byte	0x151
 2782 0df7 32070000 		.4byte	0x732
 2783 0dfb 00       		.byte	0
 2784 0dfc 40       		.uleb128 0x40
 2785 0dfd 84050000 		.4byte	.LASF146
 2786 0e01 12       		.byte	0x12
ARM GAS  /tmp/ccDO8Csd.s 			page 50


 2787 0e02 9601     		.2byte	0x196
 2788 0e04 03       		.byte	0x3
 2789 0e05 40       		.uleb128 0x40
 2790 0e06 20080000 		.4byte	.LASF147
 2791 0e0a 12       		.byte	0x12
 2792 0e0b 8201     		.2byte	0x182
 2793 0e0d 03       		.byte	0x3
 2794 0e0e 41       		.uleb128 0x41
 2795 0e0f 5C080000 		.4byte	.LASF168
 2796 0e13 04       		.byte	0x4
 2797 0e14 C502     		.2byte	0x2c5
 2798 0e16 7C0A0000 		.4byte	0xa7c
 2799 0e1a 03       		.byte	0x3
 2800 0e1b 3F       		.uleb128 0x3f
 2801 0e1c E1020000 		.4byte	.LASF149
 2802 0e20 04       		.byte	0x4
 2803 0e21 B102     		.2byte	0x2b1
 2804 0e23 90020000 		.4byte	0x290
 2805 0e27 03       		.byte	0x3
 2806 0e28 380E0000 		.4byte	0xe38
 2807 0e2c 35       		.uleb128 0x35
 2808 0e2d 747000   		.ascii	"tp\000"
 2809 0e30 04       		.byte	0x4
 2810 0e31 B102     		.2byte	0x2b1
 2811 0e33 90020000 		.4byte	0x290
 2812 0e37 00       		.byte	0
 2813 0e38 3F       		.uleb128 0x3f
 2814 0e39 57070000 		.4byte	.LASF150
 2815 0e3d 04       		.byte	0x4
 2816 0e3e 9F02     		.2byte	0x29f
 2817 0e40 90020000 		.4byte	0x290
 2818 0e44 03       		.byte	0x3
 2819 0e45 610E0000 		.4byte	0xe61
 2820 0e49 35       		.uleb128 0x35
 2821 0e4a 74717000 		.ascii	"tqp\000"
 2822 0e4e 04       		.byte	0x4
 2823 0e4f 9F02     		.2byte	0x29f
 2824 0e51 610E0000 		.4byte	0xe61
 2825 0e55 2D       		.uleb128 0x2d
 2826 0e56 747000   		.ascii	"tp\000"
 2827 0e59 04       		.byte	0x4
 2828 0e5a A002     		.2byte	0x2a0
 2829 0e5c 90020000 		.4byte	0x290
 2830 0e60 00       		.byte	0
 2831 0e61 0A       		.uleb128 0xa
 2832 0e62 04       		.byte	0x4
 2833 0e63 BA020000 		.4byte	0x2ba
 2834 0e67 34       		.uleb128 0x34
 2835 0e68 79000000 		.4byte	.LASF151
 2836 0e6c 04       		.byte	0x4
 2837 0e6d 5A02     		.2byte	0x25a
 2838 0e6f 03       		.byte	0x3
 2839 0e70 810E0000 		.4byte	0xe81
 2840 0e74 35       		.uleb128 0x35
 2841 0e75 74717000 		.ascii	"tqp\000"
 2842 0e79 04       		.byte	0x4
 2843 0e7a 5A02     		.2byte	0x25a
ARM GAS  /tmp/ccDO8Csd.s 			page 51


 2844 0e7c 610E0000 		.4byte	0xe61
 2845 0e80 00       		.byte	0
 2846 0e81 40       		.uleb128 0x40
 2847 0e82 39070000 		.4byte	.LASF152
 2848 0e86 0D       		.byte	0xd
 2849 0e87 E401     		.2byte	0x1e4
 2850 0e89 03       		.byte	0x3
 2851 0e8a 40       		.uleb128 0x40
 2852 0e8b B1070000 		.4byte	.LASF153
 2853 0e8f 0D       		.byte	0xd
 2854 0e90 D901     		.2byte	0x1d9
 2855 0e92 03       		.byte	0x3
 2856 0e93 40       		.uleb128 0x40
 2857 0e94 B2020000 		.4byte	.LASF154
 2858 0e98 0D       		.byte	0xd
 2859 0e99 CA01     		.2byte	0x1ca
 2860 0e9b 03       		.byte	0x3
 2861 0e9c 40       		.uleb128 0x40
 2862 0e9d A8010000 		.4byte	.LASF155
 2863 0ea1 0D       		.byte	0xd
 2864 0ea2 BC01     		.2byte	0x1bc
 2865 0ea4 03       		.byte	0x3
 2866 0ea5 3F       		.uleb128 0x3f
 2867 0ea6 C4070000 		.4byte	.LASF156
 2868 0eaa 02       		.byte	0x2
 2869 0eab A801     		.2byte	0x1a8
 2870 0ead D3000000 		.4byte	0xd3
 2871 0eb1 03       		.byte	0x3
 2872 0eb2 C30E0000 		.4byte	0xec3
 2873 0eb6 42       		.uleb128 0x42
 2874 0eb7 84080000 		.4byte	.LASF157
 2875 0ebb 02       		.byte	0x2
 2876 0ebc AA01     		.2byte	0x1aa
 2877 0ebe D3000000 		.4byte	0xd3
 2878 0ec2 00       		.byte	0
 2879 0ec3 40       		.uleb128 0x40
 2880 0ec4 4C050000 		.4byte	.LASF158
 2881 0ec8 02       		.byte	0x2
 2882 0ec9 5401     		.2byte	0x154
 2883 0ecb 03       		.byte	0x3
 2884 0ecc 40       		.uleb128 0x40
 2885 0ecd 34050000 		.4byte	.LASF159
 2886 0ed1 02       		.byte	0x2
 2887 0ed2 4901     		.2byte	0x149
 2888 0ed4 03       		.byte	0x3
 2889 0ed5 43       		.uleb128 0x43
 2890 0ed6 6D0C0000 		.4byte	0xc6d
 2891 0eda 00000000 		.4byte	.LFB222
 2892 0ede 64000000 		.4byte	.LFE222-.LFB222
 2893 0ee2 01       		.uleb128 0x1
 2894 0ee3 9C       		.byte	0x9c
 2895 0ee4 78100000 		.4byte	0x1078
 2896 0ee8 44       		.uleb128 0x44
 2897 0ee9 7A0C0000 		.4byte	0xc7a
 2898 0eed 01       		.uleb128 0x1
 2899 0eee 50       		.byte	0x50
 2900 0eef 45       		.uleb128 0x45
ARM GAS  /tmp/ccDO8Csd.s 			page 52


 2901 0ef0 840C0000 		.4byte	0xc84
 2902 0ef4 01       		.uleb128 0x1
 2903 0ef5 50       		.byte	0x50
 2904 0ef6 1F       		.uleb128 0x1f
 2905 0ef7 050E0000 		.4byte	0xe05
 2906 0efb 00000000 		.4byte	.LBB153
 2907 0eff 02000000 		.4byte	.LBE153-.LBB153
 2908 0f03 01       		.byte	0x1
 2909 0f04 1601     		.2byte	0x116
 2910 0f06 3D0F0000 		.4byte	0xf3d
 2911 0f0a 46       		.uleb128 0x46
 2912 0f0b 8A0E0000 		.4byte	0xe8a
 2913 0f0f 00000000 		.4byte	.LBB154
 2914 0f13 02000000 		.4byte	.LBE154-.LBB154
 2915 0f17 12       		.byte	0x12
 2916 0f18 8401     		.2byte	0x184
 2917 0f1a 46       		.uleb128 0x46
 2918 0f1b 9C0E0000 		.4byte	0xe9c
 2919 0f1f 00000000 		.4byte	.LBB155
 2920 0f23 02000000 		.4byte	.LBE155-.LBB155
 2921 0f27 0D       		.byte	0xd
 2922 0f28 DB01     		.2byte	0x1db
 2923 0f2a 2B       		.uleb128 0x2b
 2924 0f2b C30E0000 		.4byte	0xec3
 2925 0f2f 00000000 		.4byte	.LBB156
 2926 0f33 02000000 		.4byte	.LBE156-.LBB156
 2927 0f37 0D       		.byte	0xd
 2928 0f38 C101     		.2byte	0x1c1
 2929 0f3a 00       		.byte	0
 2930 0f3b 00       		.byte	0
 2931 0f3c 00       		.byte	0
 2932 0f3d 1F       		.uleb128 0x1f
 2933 0f3e C10D0000 		.4byte	0xdc1
 2934 0f42 18000000 		.4byte	.LBB158
 2935 0f46 06000000 		.4byte	.LBE158-.LBB158
 2936 0f4a 01       		.byte	0x1
 2937 0f4b 2201     		.2byte	0x122
 2938 0f4d 5B0F0000 		.4byte	0xf5b
 2939 0f51 25       		.uleb128 0x25
 2940 0f52 CD0D0000 		.4byte	0xdcd
 2941 0f56 1C030000 		.4byte	.LLST0
 2942 0f5a 00       		.byte	0
 2943 0f5b 1F       		.uleb128 0x1f
 2944 0f5c 1B0E0000 		.4byte	0xe1b
 2945 0f60 1E000000 		.4byte	.LBB160
 2946 0f64 0A000000 		.4byte	.LBE160-.LBB160
 2947 0f68 01       		.byte	0x1
 2948 0f69 2B01     		.2byte	0x12b
 2949 0f6b 790F0000 		.4byte	0xf79
 2950 0f6f 25       		.uleb128 0x25
 2951 0f70 2C0E0000 		.4byte	0xe2c
 2952 0f74 2F030000 		.4byte	.LLST1
 2953 0f78 00       		.byte	0
 2954 0f79 28       		.uleb128 0x28
 2955 0f7a 4B0D0000 		.4byte	0xd4b
 2956 0f7e 2A000000 		.4byte	.LBB162
 2957 0f82 00000000 		.4byte	.Ldebug_ranges0+0
ARM GAS  /tmp/ccDO8Csd.s 			page 53


 2958 0f86 01       		.byte	0x1
 2959 0f87 3201     		.2byte	0x132
 2960 0f89 A60F0000 		.4byte	0xfa6
 2961 0f8d 25       		.uleb128 0x25
 2962 0f8e 5B0D0000 		.4byte	0xd5b
 2963 0f92 42030000 		.4byte	.LLST2
 2964 0f96 26       		.uleb128 0x26
 2965 0f97 00000000 		.4byte	.Ldebug_ranges0+0
 2966 0f9b 27       		.uleb128 0x27
 2967 0f9c 650D0000 		.4byte	0xd65
 2968 0fa0 55030000 		.4byte	.LLST3
 2969 0fa4 00       		.byte	0
 2970 0fa5 00       		.byte	0
 2971 0fa6 47       		.uleb128 0x47
 2972 0fa7 6D0C0000 		.4byte	0xc6d
 2973 0fab 18000000 		.4byte	.Ldebug_ranges0+0x18
 2974 0faf 34100000 		.4byte	0x1034
 2975 0fb3 25       		.uleb128 0x25
 2976 0fb4 7A0C0000 		.4byte	0xc7a
 2977 0fb8 6D030000 		.4byte	.LLST4
 2978 0fbc 26       		.uleb128 0x26
 2979 0fbd 18000000 		.4byte	.Ldebug_ranges0+0x18
 2980 0fc1 21       		.uleb128 0x21
 2981 0fc2 EF0E0000 		.4byte	0xeef
 2982 0fc6 28       		.uleb128 0x28
 2983 0fc7 4B0D0000 		.4byte	0xd4b
 2984 0fcb 30000000 		.4byte	.LBB167
 2985 0fcf 30000000 		.4byte	.Ldebug_ranges0+0x30
 2986 0fd3 01       		.byte	0x1
 2987 0fd4 3201     		.2byte	0x132
 2988 0fd6 EF0F0000 		.4byte	0xfef
 2989 0fda 48       		.uleb128 0x48
 2990 0fdb 5B0D0000 		.4byte	0xd5b
 2991 0fdf 26       		.uleb128 0x26
 2992 0fe0 30000000 		.4byte	.Ldebug_ranges0+0x30
 2993 0fe4 27       		.uleb128 0x27
 2994 0fe5 650D0000 		.4byte	0xd65
 2995 0fe9 80030000 		.4byte	.LLST5
 2996 0fed 00       		.byte	0
 2997 0fee 00       		.byte	0
 2998 0fef 46       		.uleb128 0x46
 2999 0ff0 FC0D0000 		.4byte	0xdfc
 3000 0ff4 4C000000 		.4byte	.LBB171
 3001 0ff8 02000000 		.4byte	.LBE171-.LBB171
 3002 0ffc 01       		.byte	0x1
 3003 0ffd 3301     		.2byte	0x133
 3004 0fff 46       		.uleb128 0x46
 3005 1000 810E0000 		.4byte	0xe81
 3006 1004 4C000000 		.4byte	.LBB172
 3007 1008 02000000 		.4byte	.LBE172-.LBB172
 3008 100c 12       		.byte	0x12
 3009 100d 9A01     		.2byte	0x19a
 3010 100f 46       		.uleb128 0x46
 3011 1010 930E0000 		.4byte	0xe93
 3012 1014 4C000000 		.4byte	.LBB173
 3013 1018 02000000 		.4byte	.LBE173-.LBB173
 3014 101c 0D       		.byte	0xd
ARM GAS  /tmp/ccDO8Csd.s 			page 54


 3015 101d E601     		.2byte	0x1e6
 3016 101f 2B       		.uleb128 0x2b
 3017 1020 CC0E0000 		.4byte	0xecc
 3018 1024 4C000000 		.4byte	.LBB174
 3019 1028 02000000 		.4byte	.LBE174-.LBB174
 3020 102c 0D       		.byte	0xd
 3021 102d CF01     		.2byte	0x1cf
 3022 102f 00       		.byte	0
 3023 1030 00       		.byte	0
 3024 1031 00       		.byte	0
 3025 1032 00       		.byte	0
 3026 1033 00       		.byte	0
 3027 1034 46       		.uleb128 0x46
 3028 1035 FC0D0000 		.4byte	0xdfc
 3029 1039 5C000000 		.4byte	.LBB179
 3030 103d 08000000 		.4byte	.LBE179-.LBB179
 3031 1041 01       		.byte	0x1
 3032 1042 1B01     		.2byte	0x11b
 3033 1044 46       		.uleb128 0x46
 3034 1045 810E0000 		.4byte	0xe81
 3035 1049 5C000000 		.4byte	.LBB180
 3036 104d 08000000 		.4byte	.LBE180-.LBB180
 3037 1051 12       		.byte	0x12
 3038 1052 9A01     		.2byte	0x19a
 3039 1054 46       		.uleb128 0x46
 3040 1055 930E0000 		.4byte	0xe93
 3041 1059 5C000000 		.4byte	.LBB181
 3042 105d 08000000 		.4byte	.LBE181-.LBB181
 3043 1061 0D       		.byte	0xd
 3044 1062 E601     		.2byte	0x1e6
 3045 1064 2B       		.uleb128 0x2b
 3046 1065 CC0E0000 		.4byte	0xecc
 3047 1069 5C000000 		.4byte	.LBB182
 3048 106d 08000000 		.4byte	.LBE182-.LBB182
 3049 1071 0D       		.byte	0xd
 3050 1072 CF01     		.2byte	0x1cf
 3051 1074 00       		.byte	0
 3052 1075 00       		.byte	0
 3053 1076 00       		.byte	0
 3054 1077 00       		.byte	0
 3055 1078 43       		.uleb128 0x43
 3056 1079 4B0D0000 		.4byte	0xd4b
 3057 107d 00000000 		.4byte	.LFB220
 3058 1081 28000000 		.4byte	.LFE220-.LFB220
 3059 1085 01       		.uleb128 0x1
 3060 1086 9C       		.byte	0x9c
 3061 1087 9C100000 		.4byte	0x109c
 3062 108b 25       		.uleb128 0x25
 3063 108c 5B0D0000 		.4byte	0xd5b
 3064 1090 93030000 		.4byte	.LLST7
 3065 1094 45       		.uleb128 0x45
 3066 1095 650D0000 		.4byte	0xd65
 3067 1099 01       		.uleb128 0x1
 3068 109a 53       		.byte	0x53
 3069 109b 00       		.byte	0
 3070 109c 49       		.uleb128 0x49
 3071 109d B2010000 		.4byte	.LASF160
ARM GAS  /tmp/ccDO8Csd.s 			page 55


 3072 10a1 B2010000 		.4byte	.LASF160
 3073 10a5 12       		.byte	0x12
 3074 10a6 1601     		.2byte	0x116
 3075 10a8 49       		.uleb128 0x49
 3076 10a9 DC030000 		.4byte	.LASF161
 3077 10ad DC030000 		.4byte	.LASF161
 3078 10b1 0D       		.byte	0xd
 3079 10b2 6701     		.2byte	0x167
 3080 10b4 4A       		.uleb128 0x4a
 3081 10b5 67040000 		.4byte	.LASF162
 3082 10b9 67040000 		.4byte	.LASF162
 3083 10bd 11       		.byte	0x11
 3084 10be BC       		.byte	0xbc
 3085 10bf 4A       		.uleb128 0x4a
 3086 10c0 E1010000 		.4byte	.LASF163
 3087 10c4 E1010000 		.4byte	.LASF163
 3088 10c8 11       		.byte	0x11
 3089 10c9 BE       		.byte	0xbe
 3090 10ca 00       		.byte	0
 3091              		.section	.debug_abbrev,"",%progbits
 3092              	.Ldebug_abbrev0:
 3093 0000 01       		.uleb128 0x1
 3094 0001 11       		.uleb128 0x11
 3095 0002 01       		.byte	0x1
 3096 0003 25       		.uleb128 0x25
 3097 0004 0E       		.uleb128 0xe
 3098 0005 13       		.uleb128 0x13
 3099 0006 0B       		.uleb128 0xb
 3100 0007 03       		.uleb128 0x3
 3101 0008 0E       		.uleb128 0xe
 3102 0009 1B       		.uleb128 0x1b
 3103 000a 0E       		.uleb128 0xe
 3104 000b 55       		.uleb128 0x55
 3105 000c 17       		.uleb128 0x17
 3106 000d 11       		.uleb128 0x11
 3107 000e 01       		.uleb128 0x1
 3108 000f 10       		.uleb128 0x10
 3109 0010 17       		.uleb128 0x17
 3110 0011 00       		.byte	0
 3111 0012 00       		.byte	0
 3112 0013 02       		.uleb128 0x2
 3113 0014 24       		.uleb128 0x24
 3114 0015 00       		.byte	0
 3115 0016 0B       		.uleb128 0xb
 3116 0017 0B       		.uleb128 0xb
 3117 0018 3E       		.uleb128 0x3e
 3118 0019 0B       		.uleb128 0xb
 3119 001a 03       		.uleb128 0x3
 3120 001b 08       		.uleb128 0x8
 3121 001c 00       		.byte	0
 3122 001d 00       		.byte	0
 3123 001e 03       		.uleb128 0x3
 3124 001f 16       		.uleb128 0x16
 3125 0020 00       		.byte	0
 3126 0021 03       		.uleb128 0x3
 3127 0022 0E       		.uleb128 0xe
 3128 0023 3A       		.uleb128 0x3a
ARM GAS  /tmp/ccDO8Csd.s 			page 56


 3129 0024 0B       		.uleb128 0xb
 3130 0025 3B       		.uleb128 0x3b
 3131 0026 0B       		.uleb128 0xb
 3132 0027 49       		.uleb128 0x49
 3133 0028 13       		.uleb128 0x13
 3134 0029 00       		.byte	0
 3135 002a 00       		.byte	0
 3136 002b 04       		.uleb128 0x4
 3137 002c 24       		.uleb128 0x24
 3138 002d 00       		.byte	0
 3139 002e 0B       		.uleb128 0xb
 3140 002f 0B       		.uleb128 0xb
 3141 0030 3E       		.uleb128 0x3e
 3142 0031 0B       		.uleb128 0xb
 3143 0032 03       		.uleb128 0x3
 3144 0033 0E       		.uleb128 0xe
 3145 0034 00       		.byte	0
 3146 0035 00       		.byte	0
 3147 0036 05       		.uleb128 0x5
 3148 0037 35       		.uleb128 0x35
 3149 0038 00       		.byte	0
 3150 0039 49       		.uleb128 0x49
 3151 003a 13       		.uleb128 0x13
 3152 003b 00       		.byte	0
 3153 003c 00       		.byte	0
 3154 003d 06       		.uleb128 0x6
 3155 003e 13       		.uleb128 0x13
 3156 003f 01       		.byte	0x1
 3157 0040 03       		.uleb128 0x3
 3158 0041 0E       		.uleb128 0xe
 3159 0042 0B       		.uleb128 0xb
 3160 0043 0B       		.uleb128 0xb
 3161 0044 3A       		.uleb128 0x3a
 3162 0045 0B       		.uleb128 0xb
 3163 0046 3B       		.uleb128 0x3b
 3164 0047 0B       		.uleb128 0xb
 3165 0048 01       		.uleb128 0x1
 3166 0049 13       		.uleb128 0x13
 3167 004a 00       		.byte	0
 3168 004b 00       		.byte	0
 3169 004c 07       		.uleb128 0x7
 3170 004d 0D       		.uleb128 0xd
 3171 004e 00       		.byte	0
 3172 004f 03       		.uleb128 0x3
 3173 0050 0E       		.uleb128 0xe
 3174 0051 3A       		.uleb128 0x3a
 3175 0052 0B       		.uleb128 0xb
 3176 0053 3B       		.uleb128 0x3b
 3177 0054 0B       		.uleb128 0xb
 3178 0055 49       		.uleb128 0x49
 3179 0056 13       		.uleb128 0x13
 3180 0057 38       		.uleb128 0x38
 3181 0058 0B       		.uleb128 0xb
 3182 0059 00       		.byte	0
 3183 005a 00       		.byte	0
 3184 005b 08       		.uleb128 0x8
 3185 005c 0D       		.uleb128 0xd
ARM GAS  /tmp/ccDO8Csd.s 			page 57


 3186 005d 00       		.byte	0
 3187 005e 03       		.uleb128 0x3
 3188 005f 08       		.uleb128 0x8
 3189 0060 3A       		.uleb128 0x3a
 3190 0061 0B       		.uleb128 0xb
 3191 0062 3B       		.uleb128 0x3b
 3192 0063 05       		.uleb128 0x5
 3193 0064 49       		.uleb128 0x49
 3194 0065 13       		.uleb128 0x13
 3195 0066 38       		.uleb128 0x38
 3196 0067 0B       		.uleb128 0xb
 3197 0068 00       		.byte	0
 3198 0069 00       		.byte	0
 3199 006a 09       		.uleb128 0x9
 3200 006b 0D       		.uleb128 0xd
 3201 006c 00       		.byte	0
 3202 006d 03       		.uleb128 0x3
 3203 006e 0E       		.uleb128 0xe
 3204 006f 3A       		.uleb128 0x3a
 3205 0070 0B       		.uleb128 0xb
 3206 0071 3B       		.uleb128 0x3b
 3207 0072 05       		.uleb128 0x5
 3208 0073 49       		.uleb128 0x49
 3209 0074 13       		.uleb128 0x13
 3210 0075 38       		.uleb128 0x38
 3211 0076 0B       		.uleb128 0xb
 3212 0077 00       		.byte	0
 3213 0078 00       		.byte	0
 3214 0079 0A       		.uleb128 0xa
 3215 007a 0F       		.uleb128 0xf
 3216 007b 00       		.byte	0
 3217 007c 0B       		.uleb128 0xb
 3218 007d 0B       		.uleb128 0xb
 3219 007e 49       		.uleb128 0x49
 3220 007f 13       		.uleb128 0x13
 3221 0080 00       		.byte	0
 3222 0081 00       		.byte	0
 3223 0082 0B       		.uleb128 0xb
 3224 0083 13       		.uleb128 0x13
 3225 0084 01       		.byte	0x1
 3226 0085 03       		.uleb128 0x3
 3227 0086 0E       		.uleb128 0xe
 3228 0087 0B       		.uleb128 0xb
 3229 0088 0B       		.uleb128 0xb
 3230 0089 3A       		.uleb128 0x3a
 3231 008a 0B       		.uleb128 0xb
 3232 008b 3B       		.uleb128 0x3b
 3233 008c 05       		.uleb128 0x5
 3234 008d 01       		.uleb128 0x1
 3235 008e 13       		.uleb128 0x13
 3236 008f 00       		.byte	0
 3237 0090 00       		.byte	0
 3238 0091 0C       		.uleb128 0xc
 3239 0092 15       		.uleb128 0x15
 3240 0093 01       		.byte	0x1
 3241 0094 27       		.uleb128 0x27
 3242 0095 19       		.uleb128 0x19
ARM GAS  /tmp/ccDO8Csd.s 			page 58


 3243 0096 01       		.uleb128 0x1
 3244 0097 13       		.uleb128 0x13
 3245 0098 00       		.byte	0
 3246 0099 00       		.byte	0
 3247 009a 0D       		.uleb128 0xd
 3248 009b 05       		.uleb128 0x5
 3249 009c 00       		.byte	0
 3250 009d 49       		.uleb128 0x49
 3251 009e 13       		.uleb128 0x13
 3252 009f 00       		.byte	0
 3253 00a0 00       		.byte	0
 3254 00a1 0E       		.uleb128 0xe
 3255 00a2 0F       		.uleb128 0xf
 3256 00a3 00       		.byte	0
 3257 00a4 0B       		.uleb128 0xb
 3258 00a5 0B       		.uleb128 0xb
 3259 00a6 00       		.byte	0
 3260 00a7 00       		.byte	0
 3261 00a8 0F       		.uleb128 0xf
 3262 00a9 13       		.uleb128 0x13
 3263 00aa 01       		.byte	0x1
 3264 00ab 03       		.uleb128 0x3
 3265 00ac 0E       		.uleb128 0xe
 3266 00ad 0B       		.uleb128 0xb
 3267 00ae 05       		.uleb128 0x5
 3268 00af 3A       		.uleb128 0x3a
 3269 00b0 0B       		.uleb128 0xb
 3270 00b1 3B       		.uleb128 0x3b
 3271 00b2 05       		.uleb128 0x5
 3272 00b3 01       		.uleb128 0x1
 3273 00b4 13       		.uleb128 0x13
 3274 00b5 00       		.byte	0
 3275 00b6 00       		.byte	0
 3276 00b7 10       		.uleb128 0x10
 3277 00b8 34       		.uleb128 0x34
 3278 00b9 00       		.byte	0
 3279 00ba 03       		.uleb128 0x3
 3280 00bb 0E       		.uleb128 0xe
 3281 00bc 3A       		.uleb128 0x3a
 3282 00bd 0B       		.uleb128 0xb
 3283 00be 3B       		.uleb128 0x3b
 3284 00bf 05       		.uleb128 0x5
 3285 00c0 49       		.uleb128 0x49
 3286 00c1 13       		.uleb128 0x13
 3287 00c2 3F       		.uleb128 0x3f
 3288 00c3 19       		.uleb128 0x19
 3289 00c4 3C       		.uleb128 0x3c
 3290 00c5 19       		.uleb128 0x19
 3291 00c6 00       		.byte	0
 3292 00c7 00       		.byte	0
 3293 00c8 11       		.uleb128 0x11
 3294 00c9 34       		.uleb128 0x34
 3295 00ca 00       		.byte	0
 3296 00cb 03       		.uleb128 0x3
 3297 00cc 0E       		.uleb128 0xe
 3298 00cd 3A       		.uleb128 0x3a
 3299 00ce 0B       		.uleb128 0xb
ARM GAS  /tmp/ccDO8Csd.s 			page 59


 3300 00cf 3B       		.uleb128 0x3b
 3301 00d0 0B       		.uleb128 0xb
 3302 00d1 49       		.uleb128 0x49
 3303 00d2 13       		.uleb128 0x13
 3304 00d3 3F       		.uleb128 0x3f
 3305 00d4 19       		.uleb128 0x19
 3306 00d5 3C       		.uleb128 0x3c
 3307 00d6 19       		.uleb128 0x19
 3308 00d7 00       		.byte	0
 3309 00d8 00       		.byte	0
 3310 00d9 12       		.uleb128 0x12
 3311 00da 0D       		.uleb128 0xd
 3312 00db 00       		.byte	0
 3313 00dc 03       		.uleb128 0x3
 3314 00dd 08       		.uleb128 0x8
 3315 00de 3A       		.uleb128 0x3a
 3316 00df 0B       		.uleb128 0xb
 3317 00e0 3B       		.uleb128 0x3b
 3318 00e1 0B       		.uleb128 0xb
 3319 00e2 49       		.uleb128 0x49
 3320 00e3 13       		.uleb128 0x13
 3321 00e4 38       		.uleb128 0x38
 3322 00e5 0B       		.uleb128 0xb
 3323 00e6 00       		.byte	0
 3324 00e7 00       		.byte	0
 3325 00e8 13       		.uleb128 0x13
 3326 00e9 13       		.uleb128 0x13
 3327 00ea 01       		.byte	0x1
 3328 00eb 0B       		.uleb128 0xb
 3329 00ec 0B       		.uleb128 0xb
 3330 00ed 3A       		.uleb128 0x3a
 3331 00ee 0B       		.uleb128 0xb
 3332 00ef 3B       		.uleb128 0x3b
 3333 00f0 0B       		.uleb128 0xb
 3334 00f1 01       		.uleb128 0x1
 3335 00f2 13       		.uleb128 0x13
 3336 00f3 00       		.byte	0
 3337 00f4 00       		.byte	0
 3338 00f5 14       		.uleb128 0x14
 3339 00f6 17       		.uleb128 0x17
 3340 00f7 01       		.byte	0x1
 3341 00f8 0B       		.uleb128 0xb
 3342 00f9 0B       		.uleb128 0xb
 3343 00fa 3A       		.uleb128 0x3a
 3344 00fb 0B       		.uleb128 0xb
 3345 00fc 3B       		.uleb128 0x3b
 3346 00fd 0B       		.uleb128 0xb
 3347 00fe 01       		.uleb128 0x1
 3348 00ff 13       		.uleb128 0x13
 3349 0100 00       		.byte	0
 3350 0101 00       		.byte	0
 3351 0102 15       		.uleb128 0x15
 3352 0103 0D       		.uleb128 0xd
 3353 0104 00       		.byte	0
 3354 0105 03       		.uleb128 0x3
 3355 0106 0E       		.uleb128 0xe
 3356 0107 3A       		.uleb128 0x3a
ARM GAS  /tmp/ccDO8Csd.s 			page 60


 3357 0108 0B       		.uleb128 0xb
 3358 0109 3B       		.uleb128 0x3b
 3359 010a 05       		.uleb128 0x5
 3360 010b 49       		.uleb128 0x49
 3361 010c 13       		.uleb128 0x13
 3362 010d 00       		.byte	0
 3363 010e 00       		.byte	0
 3364 010f 16       		.uleb128 0x16
 3365 0110 26       		.uleb128 0x26
 3366 0111 00       		.byte	0
 3367 0112 49       		.uleb128 0x49
 3368 0113 13       		.uleb128 0x13
 3369 0114 00       		.byte	0
 3370 0115 00       		.byte	0
 3371 0116 17       		.uleb128 0x17
 3372 0117 01       		.uleb128 0x1
 3373 0118 01       		.byte	0x1
 3374 0119 49       		.uleb128 0x49
 3375 011a 13       		.uleb128 0x13
 3376 011b 01       		.uleb128 0x1
 3377 011c 13       		.uleb128 0x13
 3378 011d 00       		.byte	0
 3379 011e 00       		.byte	0
 3380 011f 18       		.uleb128 0x18
 3381 0120 21       		.uleb128 0x21
 3382 0121 00       		.byte	0
 3383 0122 49       		.uleb128 0x49
 3384 0123 13       		.uleb128 0x13
 3385 0124 2F       		.uleb128 0x2f
 3386 0125 0B       		.uleb128 0xb
 3387 0126 00       		.byte	0
 3388 0127 00       		.byte	0
 3389 0128 19       		.uleb128 0x19
 3390 0129 34       		.uleb128 0x34
 3391 012a 00       		.byte	0
 3392 012b 03       		.uleb128 0x3
 3393 012c 08       		.uleb128 0x8
 3394 012d 3A       		.uleb128 0x3a
 3395 012e 0B       		.uleb128 0xb
 3396 012f 3B       		.uleb128 0x3b
 3397 0130 05       		.uleb128 0x5
 3398 0131 49       		.uleb128 0x49
 3399 0132 13       		.uleb128 0x13
 3400 0133 3F       		.uleb128 0x3f
 3401 0134 19       		.uleb128 0x19
 3402 0135 3C       		.uleb128 0x3c
 3403 0136 19       		.uleb128 0x19
 3404 0137 00       		.byte	0
 3405 0138 00       		.byte	0
 3406 0139 1A       		.uleb128 0x1a
 3407 013a 34       		.uleb128 0x34
 3408 013b 00       		.byte	0
 3409 013c 47       		.uleb128 0x47
 3410 013d 13       		.uleb128 0x13
 3411 013e 3A       		.uleb128 0x3a
 3412 013f 0B       		.uleb128 0xb
 3413 0140 3B       		.uleb128 0x3b
ARM GAS  /tmp/ccDO8Csd.s 			page 61


 3414 0141 0B       		.uleb128 0xb
 3415 0142 02       		.uleb128 0x2
 3416 0143 18       		.uleb128 0x18
 3417 0144 00       		.byte	0
 3418 0145 00       		.byte	0
 3419 0146 1B       		.uleb128 0x1b
 3420 0147 2E       		.uleb128 0x2e
 3421 0148 01       		.byte	0x1
 3422 0149 3F       		.uleb128 0x3f
 3423 014a 19       		.uleb128 0x19
 3424 014b 03       		.uleb128 0x3
 3425 014c 0E       		.uleb128 0xe
 3426 014d 3A       		.uleb128 0x3a
 3427 014e 0B       		.uleb128 0xb
 3428 014f 3B       		.uleb128 0x3b
 3429 0150 05       		.uleb128 0x5
 3430 0151 27       		.uleb128 0x27
 3431 0152 19       		.uleb128 0x19
 3432 0153 11       		.uleb128 0x11
 3433 0154 01       		.uleb128 0x1
 3434 0155 12       		.uleb128 0x12
 3435 0156 06       		.uleb128 0x6
 3436 0157 40       		.uleb128 0x40
 3437 0158 18       		.uleb128 0x18
 3438 0159 9742     		.uleb128 0x2117
 3439 015b 19       		.uleb128 0x19
 3440 015c 01       		.uleb128 0x1
 3441 015d 13       		.uleb128 0x13
 3442 015e 00       		.byte	0
 3443 015f 00       		.byte	0
 3444 0160 1C       		.uleb128 0x1c
 3445 0161 898201   		.uleb128 0x4109
 3446 0164 00       		.byte	0
 3447 0165 11       		.uleb128 0x11
 3448 0166 01       		.uleb128 0x1
 3449 0167 9542     		.uleb128 0x2115
 3450 0169 19       		.uleb128 0x19
 3451 016a 31       		.uleb128 0x31
 3452 016b 13       		.uleb128 0x13
 3453 016c 00       		.byte	0
 3454 016d 00       		.byte	0
 3455 016e 1D       		.uleb128 0x1d
 3456 016f 34       		.uleb128 0x34
 3457 0170 00       		.byte	0
 3458 0171 03       		.uleb128 0x3
 3459 0172 08       		.uleb128 0x8
 3460 0173 3A       		.uleb128 0x3a
 3461 0174 0B       		.uleb128 0xb
 3462 0175 3B       		.uleb128 0x3b
 3463 0176 05       		.uleb128 0x5
 3464 0177 49       		.uleb128 0x49
 3465 0178 13       		.uleb128 0x13
 3466 0179 02       		.uleb128 0x2
 3467 017a 17       		.uleb128 0x17
 3468 017b 00       		.byte	0
 3469 017c 00       		.byte	0
 3470 017d 1E       		.uleb128 0x1e
ARM GAS  /tmp/ccDO8Csd.s 			page 62


 3471 017e 0B       		.uleb128 0xb
 3472 017f 01       		.byte	0x1
 3473 0180 55       		.uleb128 0x55
 3474 0181 17       		.uleb128 0x17
 3475 0182 01       		.uleb128 0x1
 3476 0183 13       		.uleb128 0x13
 3477 0184 00       		.byte	0
 3478 0185 00       		.byte	0
 3479 0186 1F       		.uleb128 0x1f
 3480 0187 1D       		.uleb128 0x1d
 3481 0188 01       		.byte	0x1
 3482 0189 31       		.uleb128 0x31
 3483 018a 13       		.uleb128 0x13
 3484 018b 11       		.uleb128 0x11
 3485 018c 01       		.uleb128 0x1
 3486 018d 12       		.uleb128 0x12
 3487 018e 06       		.uleb128 0x6
 3488 018f 58       		.uleb128 0x58
 3489 0190 0B       		.uleb128 0xb
 3490 0191 59       		.uleb128 0x59
 3491 0192 05       		.uleb128 0x5
 3492 0193 01       		.uleb128 0x1
 3493 0194 13       		.uleb128 0x13
 3494 0195 00       		.byte	0
 3495 0196 00       		.byte	0
 3496 0197 20       		.uleb128 0x20
 3497 0198 0B       		.uleb128 0xb
 3498 0199 01       		.byte	0x1
 3499 019a 11       		.uleb128 0x11
 3500 019b 01       		.uleb128 0x1
 3501 019c 12       		.uleb128 0x12
 3502 019d 06       		.uleb128 0x6
 3503 019e 00       		.byte	0
 3504 019f 00       		.byte	0
 3505 01a0 21       		.uleb128 0x21
 3506 01a1 34       		.uleb128 0x34
 3507 01a2 00       		.byte	0
 3508 01a3 31       		.uleb128 0x31
 3509 01a4 13       		.uleb128 0x13
 3510 01a5 00       		.byte	0
 3511 01a6 00       		.byte	0
 3512 01a7 22       		.uleb128 0x22
 3513 01a8 898201   		.uleb128 0x4109
 3514 01ab 01       		.byte	0x1
 3515 01ac 11       		.uleb128 0x11
 3516 01ad 01       		.uleb128 0x1
 3517 01ae 31       		.uleb128 0x31
 3518 01af 13       		.uleb128 0x13
 3519 01b0 01       		.uleb128 0x1
 3520 01b1 13       		.uleb128 0x13
 3521 01b2 00       		.byte	0
 3522 01b3 00       		.byte	0
 3523 01b4 23       		.uleb128 0x23
 3524 01b5 8A8201   		.uleb128 0x410a
 3525 01b8 00       		.byte	0
 3526 01b9 02       		.uleb128 0x2
 3527 01ba 18       		.uleb128 0x18
ARM GAS  /tmp/ccDO8Csd.s 			page 63


 3528 01bb 9142     		.uleb128 0x2111
 3529 01bd 18       		.uleb128 0x18
 3530 01be 00       		.byte	0
 3531 01bf 00       		.byte	0
 3532 01c0 24       		.uleb128 0x24
 3533 01c1 1D       		.uleb128 0x1d
 3534 01c2 01       		.byte	0x1
 3535 01c3 31       		.uleb128 0x31
 3536 01c4 13       		.uleb128 0x13
 3537 01c5 52       		.uleb128 0x52
 3538 01c6 01       		.uleb128 0x1
 3539 01c7 55       		.uleb128 0x55
 3540 01c8 17       		.uleb128 0x17
 3541 01c9 58       		.uleb128 0x58
 3542 01ca 0B       		.uleb128 0xb
 3543 01cb 59       		.uleb128 0x59
 3544 01cc 05       		.uleb128 0x5
 3545 01cd 00       		.byte	0
 3546 01ce 00       		.byte	0
 3547 01cf 25       		.uleb128 0x25
 3548 01d0 05       		.uleb128 0x5
 3549 01d1 00       		.byte	0
 3550 01d2 31       		.uleb128 0x31
 3551 01d3 13       		.uleb128 0x13
 3552 01d4 02       		.uleb128 0x2
 3553 01d5 17       		.uleb128 0x17
 3554 01d6 00       		.byte	0
 3555 01d7 00       		.byte	0
 3556 01d8 26       		.uleb128 0x26
 3557 01d9 0B       		.uleb128 0xb
 3558 01da 01       		.byte	0x1
 3559 01db 55       		.uleb128 0x55
 3560 01dc 17       		.uleb128 0x17
 3561 01dd 00       		.byte	0
 3562 01de 00       		.byte	0
 3563 01df 27       		.uleb128 0x27
 3564 01e0 34       		.uleb128 0x34
 3565 01e1 00       		.byte	0
 3566 01e2 31       		.uleb128 0x31
 3567 01e3 13       		.uleb128 0x13
 3568 01e4 02       		.uleb128 0x2
 3569 01e5 17       		.uleb128 0x17
 3570 01e6 00       		.byte	0
 3571 01e7 00       		.byte	0
 3572 01e8 28       		.uleb128 0x28
 3573 01e9 1D       		.uleb128 0x1d
 3574 01ea 01       		.byte	0x1
 3575 01eb 31       		.uleb128 0x31
 3576 01ec 13       		.uleb128 0x13
 3577 01ed 52       		.uleb128 0x52
 3578 01ee 01       		.uleb128 0x1
 3579 01ef 55       		.uleb128 0x55
 3580 01f0 17       		.uleb128 0x17
 3581 01f1 58       		.uleb128 0x58
 3582 01f2 0B       		.uleb128 0xb
 3583 01f3 59       		.uleb128 0x59
 3584 01f4 05       		.uleb128 0x5
ARM GAS  /tmp/ccDO8Csd.s 			page 64


 3585 01f5 01       		.uleb128 0x1
 3586 01f6 13       		.uleb128 0x13
 3587 01f7 00       		.byte	0
 3588 01f8 00       		.byte	0
 3589 01f9 29       		.uleb128 0x29
 3590 01fa 2E       		.uleb128 0x2e
 3591 01fb 01       		.byte	0x1
 3592 01fc 3F       		.uleb128 0x3f
 3593 01fd 19       		.uleb128 0x19
 3594 01fe 03       		.uleb128 0x3
 3595 01ff 0E       		.uleb128 0xe
 3596 0200 3A       		.uleb128 0x3a
 3597 0201 0B       		.uleb128 0xb
 3598 0202 3B       		.uleb128 0x3b
 3599 0203 05       		.uleb128 0x5
 3600 0204 27       		.uleb128 0x27
 3601 0205 19       		.uleb128 0x19
 3602 0206 49       		.uleb128 0x49
 3603 0207 13       		.uleb128 0x13
 3604 0208 11       		.uleb128 0x11
 3605 0209 01       		.uleb128 0x1
 3606 020a 12       		.uleb128 0x12
 3607 020b 06       		.uleb128 0x6
 3608 020c 40       		.uleb128 0x40
 3609 020d 18       		.uleb128 0x18
 3610 020e 9742     		.uleb128 0x2117
 3611 0210 19       		.uleb128 0x19
 3612 0211 01       		.uleb128 0x1
 3613 0212 13       		.uleb128 0x13
 3614 0213 00       		.byte	0
 3615 0214 00       		.byte	0
 3616 0215 2A       		.uleb128 0x2a
 3617 0216 34       		.uleb128 0x34
 3618 0217 00       		.byte	0
 3619 0218 03       		.uleb128 0x3
 3620 0219 08       		.uleb128 0x8
 3621 021a 3A       		.uleb128 0x3a
 3622 021b 0B       		.uleb128 0xb
 3623 021c 3B       		.uleb128 0x3b
 3624 021d 05       		.uleb128 0x5
 3625 021e 49       		.uleb128 0x49
 3626 021f 13       		.uleb128 0x13
 3627 0220 02       		.uleb128 0x2
 3628 0221 18       		.uleb128 0x18
 3629 0222 00       		.byte	0
 3630 0223 00       		.byte	0
 3631 0224 2B       		.uleb128 0x2b
 3632 0225 1D       		.uleb128 0x1d
 3633 0226 00       		.byte	0
 3634 0227 31       		.uleb128 0x31
 3635 0228 13       		.uleb128 0x13
 3636 0229 11       		.uleb128 0x11
 3637 022a 01       		.uleb128 0x1
 3638 022b 12       		.uleb128 0x12
 3639 022c 06       		.uleb128 0x6
 3640 022d 58       		.uleb128 0x58
 3641 022e 0B       		.uleb128 0xb
ARM GAS  /tmp/ccDO8Csd.s 			page 65


 3642 022f 59       		.uleb128 0x59
 3643 0230 05       		.uleb128 0x5
 3644 0231 00       		.byte	0
 3645 0232 00       		.byte	0
 3646 0233 2C       		.uleb128 0x2c
 3647 0234 05       		.uleb128 0x5
 3648 0235 00       		.byte	0
 3649 0236 03       		.uleb128 0x3
 3650 0237 08       		.uleb128 0x8
 3651 0238 3A       		.uleb128 0x3a
 3652 0239 0B       		.uleb128 0xb
 3653 023a 3B       		.uleb128 0x3b
 3654 023b 05       		.uleb128 0x5
 3655 023c 49       		.uleb128 0x49
 3656 023d 13       		.uleb128 0x13
 3657 023e 02       		.uleb128 0x2
 3658 023f 17       		.uleb128 0x17
 3659 0240 00       		.byte	0
 3660 0241 00       		.byte	0
 3661 0242 2D       		.uleb128 0x2d
 3662 0243 34       		.uleb128 0x34
 3663 0244 00       		.byte	0
 3664 0245 03       		.uleb128 0x3
 3665 0246 08       		.uleb128 0x8
 3666 0247 3A       		.uleb128 0x3a
 3667 0248 0B       		.uleb128 0xb
 3668 0249 3B       		.uleb128 0x3b
 3669 024a 05       		.uleb128 0x5
 3670 024b 49       		.uleb128 0x49
 3671 024c 13       		.uleb128 0x13
 3672 024d 00       		.byte	0
 3673 024e 00       		.byte	0
 3674 024f 2E       		.uleb128 0x2e
 3675 0250 898201   		.uleb128 0x4109
 3676 0253 01       		.byte	0x1
 3677 0254 11       		.uleb128 0x11
 3678 0255 01       		.uleb128 0x1
 3679 0256 9542     		.uleb128 0x2115
 3680 0258 19       		.uleb128 0x19
 3681 0259 31       		.uleb128 0x31
 3682 025a 13       		.uleb128 0x13
 3683 025b 01       		.uleb128 0x1
 3684 025c 13       		.uleb128 0x13
 3685 025d 00       		.byte	0
 3686 025e 00       		.byte	0
 3687 025f 2F       		.uleb128 0x2f
 3688 0260 898201   		.uleb128 0x4109
 3689 0263 01       		.byte	0x1
 3690 0264 11       		.uleb128 0x11
 3691 0265 01       		.uleb128 0x1
 3692 0266 9542     		.uleb128 0x2115
 3693 0268 19       		.uleb128 0x19
 3694 0269 31       		.uleb128 0x31
 3695 026a 13       		.uleb128 0x13
 3696 026b 00       		.byte	0
 3697 026c 00       		.byte	0
 3698 026d 30       		.uleb128 0x30
ARM GAS  /tmp/ccDO8Csd.s 			page 66


 3699 026e 05       		.uleb128 0x5
 3700 026f 00       		.byte	0
 3701 0270 03       		.uleb128 0x3
 3702 0271 0E       		.uleb128 0xe
 3703 0272 3A       		.uleb128 0x3a
 3704 0273 0B       		.uleb128 0xb
 3705 0274 3B       		.uleb128 0x3b
 3706 0275 05       		.uleb128 0x5
 3707 0276 49       		.uleb128 0x49
 3708 0277 13       		.uleb128 0x13
 3709 0278 02       		.uleb128 0x2
 3710 0279 17       		.uleb128 0x17
 3711 027a 00       		.byte	0
 3712 027b 00       		.byte	0
 3713 027c 31       		.uleb128 0x31
 3714 027d 0B       		.uleb128 0xb
 3715 027e 01       		.byte	0x1
 3716 027f 11       		.uleb128 0x11
 3717 0280 01       		.uleb128 0x1
 3718 0281 12       		.uleb128 0x12
 3719 0282 06       		.uleb128 0x6
 3720 0283 01       		.uleb128 0x1
 3721 0284 13       		.uleb128 0x13
 3722 0285 00       		.byte	0
 3723 0286 00       		.byte	0
 3724 0287 32       		.uleb128 0x32
 3725 0288 898201   		.uleb128 0x4109
 3726 028b 01       		.byte	0x1
 3727 028c 11       		.uleb128 0x11
 3728 028d 01       		.uleb128 0x1
 3729 028e 31       		.uleb128 0x31
 3730 028f 13       		.uleb128 0x13
 3731 0290 00       		.byte	0
 3732 0291 00       		.byte	0
 3733 0292 33       		.uleb128 0x33
 3734 0293 898201   		.uleb128 0x4109
 3735 0296 00       		.byte	0
 3736 0297 11       		.uleb128 0x11
 3737 0298 01       		.uleb128 0x1
 3738 0299 31       		.uleb128 0x31
 3739 029a 13       		.uleb128 0x13
 3740 029b 00       		.byte	0
 3741 029c 00       		.byte	0
 3742 029d 34       		.uleb128 0x34
 3743 029e 2E       		.uleb128 0x2e
 3744 029f 01       		.byte	0x1
 3745 02a0 03       		.uleb128 0x3
 3746 02a1 0E       		.uleb128 0xe
 3747 02a2 3A       		.uleb128 0x3a
 3748 02a3 0B       		.uleb128 0xb
 3749 02a4 3B       		.uleb128 0x3b
 3750 02a5 05       		.uleb128 0x5
 3751 02a6 27       		.uleb128 0x27
 3752 02a7 19       		.uleb128 0x19
 3753 02a8 20       		.uleb128 0x20
 3754 02a9 0B       		.uleb128 0xb
 3755 02aa 01       		.uleb128 0x1
ARM GAS  /tmp/ccDO8Csd.s 			page 67


 3756 02ab 13       		.uleb128 0x13
 3757 02ac 00       		.byte	0
 3758 02ad 00       		.byte	0
 3759 02ae 35       		.uleb128 0x35
 3760 02af 05       		.uleb128 0x5
 3761 02b0 00       		.byte	0
 3762 02b1 03       		.uleb128 0x3
 3763 02b2 08       		.uleb128 0x8
 3764 02b3 3A       		.uleb128 0x3a
 3765 02b4 0B       		.uleb128 0xb
 3766 02b5 3B       		.uleb128 0x3b
 3767 02b6 05       		.uleb128 0x5
 3768 02b7 49       		.uleb128 0x49
 3769 02b8 13       		.uleb128 0x13
 3770 02b9 00       		.byte	0
 3771 02ba 00       		.byte	0
 3772 02bb 36       		.uleb128 0x36
 3773 02bc 2E       		.uleb128 0x2e
 3774 02bd 01       		.byte	0x1
 3775 02be 3F       		.uleb128 0x3f
 3776 02bf 19       		.uleb128 0x19
 3777 02c0 03       		.uleb128 0x3
 3778 02c1 0E       		.uleb128 0xe
 3779 02c2 3A       		.uleb128 0x3a
 3780 02c3 0B       		.uleb128 0xb
 3781 02c4 3B       		.uleb128 0x3b
 3782 02c5 0B       		.uleb128 0xb
 3783 02c6 27       		.uleb128 0x27
 3784 02c7 19       		.uleb128 0x19
 3785 02c8 11       		.uleb128 0x11
 3786 02c9 01       		.uleb128 0x1
 3787 02ca 12       		.uleb128 0x12
 3788 02cb 06       		.uleb128 0x6
 3789 02cc 40       		.uleb128 0x40
 3790 02cd 18       		.uleb128 0x18
 3791 02ce 9742     		.uleb128 0x2117
 3792 02d0 19       		.uleb128 0x19
 3793 02d1 01       		.uleb128 0x1
 3794 02d2 13       		.uleb128 0x13
 3795 02d3 00       		.byte	0
 3796 02d4 00       		.byte	0
 3797 02d5 37       		.uleb128 0x37
 3798 02d6 05       		.uleb128 0x5
 3799 02d7 00       		.byte	0
 3800 02d8 03       		.uleb128 0x3
 3801 02d9 0E       		.uleb128 0xe
 3802 02da 3A       		.uleb128 0x3a
 3803 02db 0B       		.uleb128 0xb
 3804 02dc 3B       		.uleb128 0x3b
 3805 02dd 0B       		.uleb128 0xb
 3806 02de 49       		.uleb128 0x49
 3807 02df 13       		.uleb128 0x13
 3808 02e0 02       		.uleb128 0x2
 3809 02e1 17       		.uleb128 0x17
 3810 02e2 00       		.byte	0
 3811 02e3 00       		.byte	0
 3812 02e4 38       		.uleb128 0x38
ARM GAS  /tmp/ccDO8Csd.s 			page 68


 3813 02e5 34       		.uleb128 0x34
 3814 02e6 00       		.byte	0
 3815 02e7 03       		.uleb128 0x3
 3816 02e8 08       		.uleb128 0x8
 3817 02e9 3A       		.uleb128 0x3a
 3818 02ea 0B       		.uleb128 0xb
 3819 02eb 3B       		.uleb128 0x3b
 3820 02ec 0B       		.uleb128 0xb
 3821 02ed 49       		.uleb128 0x49
 3822 02ee 13       		.uleb128 0x13
 3823 02ef 02       		.uleb128 0x2
 3824 02f0 17       		.uleb128 0x17
 3825 02f1 00       		.byte	0
 3826 02f2 00       		.byte	0
 3827 02f3 39       		.uleb128 0x39
 3828 02f4 2E       		.uleb128 0x2e
 3829 02f5 01       		.byte	0x1
 3830 02f6 3F       		.uleb128 0x3f
 3831 02f7 19       		.uleb128 0x19
 3832 02f8 03       		.uleb128 0x3
 3833 02f9 0E       		.uleb128 0xe
 3834 02fa 3A       		.uleb128 0x3a
 3835 02fb 0B       		.uleb128 0xb
 3836 02fc 3B       		.uleb128 0x3b
 3837 02fd 0B       		.uleb128 0xb
 3838 02fe 27       		.uleb128 0x27
 3839 02ff 19       		.uleb128 0x19
 3840 0300 49       		.uleb128 0x49
 3841 0301 13       		.uleb128 0x13
 3842 0302 20       		.uleb128 0x20
 3843 0303 0B       		.uleb128 0xb
 3844 0304 01       		.uleb128 0x1
 3845 0305 13       		.uleb128 0x13
 3846 0306 00       		.byte	0
 3847 0307 00       		.byte	0
 3848 0308 3A       		.uleb128 0x3a
 3849 0309 05       		.uleb128 0x5
 3850 030a 00       		.byte	0
 3851 030b 03       		.uleb128 0x3
 3852 030c 08       		.uleb128 0x8
 3853 030d 3A       		.uleb128 0x3a
 3854 030e 0B       		.uleb128 0xb
 3855 030f 3B       		.uleb128 0x3b
 3856 0310 0B       		.uleb128 0xb
 3857 0311 49       		.uleb128 0x49
 3858 0312 13       		.uleb128 0x13
 3859 0313 00       		.byte	0
 3860 0314 00       		.byte	0
 3861 0315 3B       		.uleb128 0x3b
 3862 0316 34       		.uleb128 0x34
 3863 0317 00       		.byte	0
 3864 0318 03       		.uleb128 0x3
 3865 0319 08       		.uleb128 0x8
 3866 031a 3A       		.uleb128 0x3a
 3867 031b 0B       		.uleb128 0xb
 3868 031c 3B       		.uleb128 0x3b
 3869 031d 0B       		.uleb128 0xb
ARM GAS  /tmp/ccDO8Csd.s 			page 69


 3870 031e 49       		.uleb128 0x49
 3871 031f 13       		.uleb128 0x13
 3872 0320 00       		.byte	0
 3873 0321 00       		.byte	0
 3874 0322 3C       		.uleb128 0x3c
 3875 0323 34       		.uleb128 0x34
 3876 0324 00       		.byte	0
 3877 0325 03       		.uleb128 0x3
 3878 0326 0E       		.uleb128 0xe
 3879 0327 49       		.uleb128 0x49
 3880 0328 13       		.uleb128 0x13
 3881 0329 34       		.uleb128 0x34
 3882 032a 19       		.uleb128 0x19
 3883 032b 1C       		.uleb128 0x1c
 3884 032c 0E       		.uleb128 0xe
 3885 032d 00       		.byte	0
 3886 032e 00       		.byte	0
 3887 032f 3D       		.uleb128 0x3d
 3888 0330 1D       		.uleb128 0x1d
 3889 0331 01       		.byte	0x1
 3890 0332 31       		.uleb128 0x31
 3891 0333 13       		.uleb128 0x13
 3892 0334 52       		.uleb128 0x52
 3893 0335 01       		.uleb128 0x1
 3894 0336 55       		.uleb128 0x55
 3895 0337 17       		.uleb128 0x17
 3896 0338 58       		.uleb128 0x58
 3897 0339 0B       		.uleb128 0xb
 3898 033a 59       		.uleb128 0x59
 3899 033b 0B       		.uleb128 0xb
 3900 033c 00       		.byte	0
 3901 033d 00       		.byte	0
 3902 033e 3E       		.uleb128 0x3e
 3903 033f 2E       		.uleb128 0x2e
 3904 0340 01       		.byte	0x1
 3905 0341 03       		.uleb128 0x3
 3906 0342 0E       		.uleb128 0xe
 3907 0343 3A       		.uleb128 0x3a
 3908 0344 0B       		.uleb128 0xb
 3909 0345 3B       		.uleb128 0x3b
 3910 0346 0B       		.uleb128 0xb
 3911 0347 27       		.uleb128 0x27
 3912 0348 19       		.uleb128 0x19
 3913 0349 20       		.uleb128 0x20
 3914 034a 0B       		.uleb128 0xb
 3915 034b 01       		.uleb128 0x1
 3916 034c 13       		.uleb128 0x13
 3917 034d 00       		.byte	0
 3918 034e 00       		.byte	0
 3919 034f 3F       		.uleb128 0x3f
 3920 0350 2E       		.uleb128 0x2e
 3921 0351 01       		.byte	0x1
 3922 0352 03       		.uleb128 0x3
 3923 0353 0E       		.uleb128 0xe
 3924 0354 3A       		.uleb128 0x3a
 3925 0355 0B       		.uleb128 0xb
 3926 0356 3B       		.uleb128 0x3b
ARM GAS  /tmp/ccDO8Csd.s 			page 70


 3927 0357 05       		.uleb128 0x5
 3928 0358 27       		.uleb128 0x27
 3929 0359 19       		.uleb128 0x19
 3930 035a 49       		.uleb128 0x49
 3931 035b 13       		.uleb128 0x13
 3932 035c 20       		.uleb128 0x20
 3933 035d 0B       		.uleb128 0xb
 3934 035e 01       		.uleb128 0x1
 3935 035f 13       		.uleb128 0x13
 3936 0360 00       		.byte	0
 3937 0361 00       		.byte	0
 3938 0362 40       		.uleb128 0x40
 3939 0363 2E       		.uleb128 0x2e
 3940 0364 00       		.byte	0
 3941 0365 03       		.uleb128 0x3
 3942 0366 0E       		.uleb128 0xe
 3943 0367 3A       		.uleb128 0x3a
 3944 0368 0B       		.uleb128 0xb
 3945 0369 3B       		.uleb128 0x3b
 3946 036a 05       		.uleb128 0x5
 3947 036b 27       		.uleb128 0x27
 3948 036c 19       		.uleb128 0x19
 3949 036d 20       		.uleb128 0x20
 3950 036e 0B       		.uleb128 0xb
 3951 036f 00       		.byte	0
 3952 0370 00       		.byte	0
 3953 0371 41       		.uleb128 0x41
 3954 0372 2E       		.uleb128 0x2e
 3955 0373 00       		.byte	0
 3956 0374 03       		.uleb128 0x3
 3957 0375 0E       		.uleb128 0xe
 3958 0376 3A       		.uleb128 0x3a
 3959 0377 0B       		.uleb128 0xb
 3960 0378 3B       		.uleb128 0x3b
 3961 0379 05       		.uleb128 0x5
 3962 037a 27       		.uleb128 0x27
 3963 037b 19       		.uleb128 0x19
 3964 037c 49       		.uleb128 0x49
 3965 037d 13       		.uleb128 0x13
 3966 037e 20       		.uleb128 0x20
 3967 037f 0B       		.uleb128 0xb
 3968 0380 00       		.byte	0
 3969 0381 00       		.byte	0
 3970 0382 42       		.uleb128 0x42
 3971 0383 34       		.uleb128 0x34
 3972 0384 00       		.byte	0
 3973 0385 03       		.uleb128 0x3
 3974 0386 0E       		.uleb128 0xe
 3975 0387 3A       		.uleb128 0x3a
 3976 0388 0B       		.uleb128 0xb
 3977 0389 3B       		.uleb128 0x3b
 3978 038a 05       		.uleb128 0x5
 3979 038b 49       		.uleb128 0x49
 3980 038c 13       		.uleb128 0x13
 3981 038d 00       		.byte	0
 3982 038e 00       		.byte	0
 3983 038f 43       		.uleb128 0x43
ARM GAS  /tmp/ccDO8Csd.s 			page 71


 3984 0390 2E       		.uleb128 0x2e
 3985 0391 01       		.byte	0x1
 3986 0392 31       		.uleb128 0x31
 3987 0393 13       		.uleb128 0x13
 3988 0394 11       		.uleb128 0x11
 3989 0395 01       		.uleb128 0x1
 3990 0396 12       		.uleb128 0x12
 3991 0397 06       		.uleb128 0x6
 3992 0398 40       		.uleb128 0x40
 3993 0399 18       		.uleb128 0x18
 3994 039a 9742     		.uleb128 0x2117
 3995 039c 19       		.uleb128 0x19
 3996 039d 01       		.uleb128 0x1
 3997 039e 13       		.uleb128 0x13
 3998 039f 00       		.byte	0
 3999 03a0 00       		.byte	0
 4000 03a1 44       		.uleb128 0x44
 4001 03a2 05       		.uleb128 0x5
 4002 03a3 00       		.byte	0
 4003 03a4 31       		.uleb128 0x31
 4004 03a5 13       		.uleb128 0x13
 4005 03a6 02       		.uleb128 0x2
 4006 03a7 18       		.uleb128 0x18
 4007 03a8 00       		.byte	0
 4008 03a9 00       		.byte	0
 4009 03aa 45       		.uleb128 0x45
 4010 03ab 34       		.uleb128 0x34
 4011 03ac 00       		.byte	0
 4012 03ad 31       		.uleb128 0x31
 4013 03ae 13       		.uleb128 0x13
 4014 03af 02       		.uleb128 0x2
 4015 03b0 18       		.uleb128 0x18
 4016 03b1 00       		.byte	0
 4017 03b2 00       		.byte	0
 4018 03b3 46       		.uleb128 0x46
 4019 03b4 1D       		.uleb128 0x1d
 4020 03b5 01       		.byte	0x1
 4021 03b6 31       		.uleb128 0x31
 4022 03b7 13       		.uleb128 0x13
 4023 03b8 11       		.uleb128 0x11
 4024 03b9 01       		.uleb128 0x1
 4025 03ba 12       		.uleb128 0x12
 4026 03bb 06       		.uleb128 0x6
 4027 03bc 58       		.uleb128 0x58
 4028 03bd 0B       		.uleb128 0xb
 4029 03be 59       		.uleb128 0x59
 4030 03bf 05       		.uleb128 0x5
 4031 03c0 00       		.byte	0
 4032 03c1 00       		.byte	0
 4033 03c2 47       		.uleb128 0x47
 4034 03c3 0B       		.uleb128 0xb
 4035 03c4 01       		.byte	0x1
 4036 03c5 31       		.uleb128 0x31
 4037 03c6 13       		.uleb128 0x13
 4038 03c7 55       		.uleb128 0x55
 4039 03c8 17       		.uleb128 0x17
 4040 03c9 01       		.uleb128 0x1
ARM GAS  /tmp/ccDO8Csd.s 			page 72


 4041 03ca 13       		.uleb128 0x13
 4042 03cb 00       		.byte	0
 4043 03cc 00       		.byte	0
 4044 03cd 48       		.uleb128 0x48
 4045 03ce 05       		.uleb128 0x5
 4046 03cf 00       		.byte	0
 4047 03d0 31       		.uleb128 0x31
 4048 03d1 13       		.uleb128 0x13
 4049 03d2 00       		.byte	0
 4050 03d3 00       		.byte	0
 4051 03d4 49       		.uleb128 0x49
 4052 03d5 2E       		.uleb128 0x2e
 4053 03d6 00       		.byte	0
 4054 03d7 3F       		.uleb128 0x3f
 4055 03d8 19       		.uleb128 0x19
 4056 03d9 3C       		.uleb128 0x3c
 4057 03da 19       		.uleb128 0x19
 4058 03db 6E       		.uleb128 0x6e
 4059 03dc 0E       		.uleb128 0xe
 4060 03dd 03       		.uleb128 0x3
 4061 03de 0E       		.uleb128 0xe
 4062 03df 3A       		.uleb128 0x3a
 4063 03e0 0B       		.uleb128 0xb
 4064 03e1 3B       		.uleb128 0x3b
 4065 03e2 05       		.uleb128 0x5
 4066 03e3 00       		.byte	0
 4067 03e4 00       		.byte	0
 4068 03e5 4A       		.uleb128 0x4a
 4069 03e6 2E       		.uleb128 0x2e
 4070 03e7 00       		.byte	0
 4071 03e8 3F       		.uleb128 0x3f
 4072 03e9 19       		.uleb128 0x19
 4073 03ea 3C       		.uleb128 0x3c
 4074 03eb 19       		.uleb128 0x19
 4075 03ec 6E       		.uleb128 0x6e
 4076 03ed 0E       		.uleb128 0xe
 4077 03ee 03       		.uleb128 0x3
 4078 03ef 0E       		.uleb128 0xe
 4079 03f0 3A       		.uleb128 0x3a
 4080 03f1 0B       		.uleb128 0xb
 4081 03f2 3B       		.uleb128 0x3b
 4082 03f3 0B       		.uleb128 0xb
 4083 03f4 00       		.byte	0
 4084 03f5 00       		.byte	0
 4085 03f6 00       		.byte	0
 4086              		.section	.debug_loc,"",%progbits
 4087              	.Ldebug_loc0:
 4088              	.LLST26:
 4089 0000 0A000000 		.4byte	.LVL66
 4090 0004 4C000000 		.4byte	.LVL73
 4091 0008 0100     		.2byte	0x1
 4092 000a 54       		.byte	0x54
 4093 000b 4C000000 		.4byte	.LVL73
 4094 000f 4F000000 		.4byte	.LVL74-1
 4095 0013 0100     		.2byte	0x1
 4096 0015 51       		.byte	0x51
 4097 0016 00000000 		.4byte	0
ARM GAS  /tmp/ccDO8Csd.s 			page 73


 4098 001a 00000000 		.4byte	0
 4099              	.LLST27:
 4100 001e 20000000 		.4byte	.LVL68
 4101 0022 36000000 		.4byte	.LVL70
 4102 0026 0100     		.2byte	0x1
 4103 0028 53       		.byte	0x53
 4104 0029 00000000 		.4byte	0
 4105 002d 00000000 		.4byte	0
 4106              	.LLST30:
 4107 0031 36000000 		.4byte	.LVL70
 4108 0035 3A000000 		.4byte	.LVL71
 4109 0039 0100     		.2byte	0x1
 4110 003b 53       		.byte	0x53
 4111 003c 3A000000 		.4byte	.LVL71
 4112 0040 43000000 		.4byte	.LVL72-1
 4113 0044 0400     		.2byte	0x4
 4114 0046 73       		.byte	0x73
 4115 0047 E400     		.sleb128 100
 4116 0049 9F       		.byte	0x9f
 4117 004a 00000000 		.4byte	0
 4118 004e 00000000 		.4byte	0
 4119              	.LLST28:
 4120 0052 0A000000 		.4byte	.LVL66
 4121 0056 10000000 		.4byte	.LVL67
 4122 005a 0600     		.2byte	0x6
 4123 005c 03       		.byte	0x3
 4124 005d 00000000 		.4byte	ch
 4125 0061 9F       		.byte	0x9f
 4126 0062 00000000 		.4byte	0
 4127 0066 00000000 		.4byte	0
 4128              	.LLST29:
 4129 006a 0A000000 		.4byte	.LVL66
 4130 006e 10000000 		.4byte	.LVL67
 4131 0072 0100     		.2byte	0x1
 4132 0074 52       		.byte	0x52
 4133 0075 00000000 		.4byte	0
 4134 0079 00000000 		.4byte	0
 4135              	.LLST21:
 4136 007d 0A000000 		.4byte	.LVL55
 4137 0081 54000000 		.4byte	.LVL64
 4138 0085 0100     		.2byte	0x1
 4139 0087 54       		.byte	0x54
 4140 0088 54000000 		.4byte	.LVL64
 4141 008c 57000000 		.4byte	.LVL65-1
 4142 0090 0100     		.2byte	0x1
 4143 0092 51       		.byte	0x51
 4144 0093 00000000 		.4byte	0
 4145 0097 00000000 		.4byte	0
 4146              	.LLST25:
 4147 009b 3E000000 		.4byte	.LVL61
 4148 009f 42000000 		.4byte	.LVL62
 4149 00a3 0100     		.2byte	0x1
 4150 00a5 53       		.byte	0x53
 4151 00a6 42000000 		.4byte	.LVL62
 4152 00aa 4B000000 		.4byte	.LVL63-1
 4153 00ae 0400     		.2byte	0x4
 4154 00b0 73       		.byte	0x73
ARM GAS  /tmp/ccDO8Csd.s 			page 74


 4155 00b1 E400     		.sleb128 100
 4156 00b3 9F       		.byte	0x9f
 4157 00b4 00000000 		.4byte	0
 4158 00b8 00000000 		.4byte	0
 4159              	.LLST22:
 4160 00bc 0A000000 		.4byte	.LVL55
 4161 00c0 10000000 		.4byte	.LVL56
 4162 00c4 0600     		.2byte	0x6
 4163 00c6 03       		.byte	0x3
 4164 00c7 00000000 		.4byte	ch
 4165 00cb 9F       		.byte	0x9f
 4166 00cc 00000000 		.4byte	0
 4167 00d0 00000000 		.4byte	0
 4168              	.LLST23:
 4169 00d4 0A000000 		.4byte	.LVL55
 4170 00d8 10000000 		.4byte	.LVL56
 4171 00dc 0100     		.2byte	0x1
 4172 00de 52       		.byte	0x52
 4173 00df 00000000 		.4byte	0
 4174 00e3 00000000 		.4byte	0
 4175              	.LLST24:
 4176 00e7 26000000 		.4byte	.LVL57
 4177 00eb 3A000000 		.4byte	.LVL60
 4178 00ef 0100     		.2byte	0x1
 4179 00f1 54       		.byte	0x54
 4180 00f2 00000000 		.4byte	0
 4181 00f6 00000000 		.4byte	0
 4182              	.LLST20:
 4183 00fa 0C000000 		.4byte	.LVL50
 4184 00fe 16000000 		.4byte	.LVL52
 4185 0102 0100     		.2byte	0x1
 4186 0104 50       		.byte	0x50
 4187 0105 16000000 		.4byte	.LVL52
 4188 0109 1A000000 		.4byte	.LVL53
 4189 010d 0200     		.2byte	0x2
 4190 010f 71       		.byte	0x71
 4191 0110 08       		.sleb128 8
 4192 0111 1A000000 		.4byte	.LVL53
 4193 0115 20000000 		.4byte	.LVL54
 4194 0119 0100     		.2byte	0x1
 4195 011b 50       		.byte	0x50
 4196 011c 20000000 		.4byte	.LVL54
 4197 0120 28000000 		.4byte	.LFE226
 4198 0124 0200     		.2byte	0x2
 4199 0126 71       		.byte	0x71
 4200 0127 08       		.sleb128 8
 4201 0128 00000000 		.4byte	0
 4202 012c 00000000 		.4byte	0
 4203              	.LLST15:
 4204 0130 00000000 		.4byte	.LVL33
 4205 0134 42000000 		.4byte	.LVL41
 4206 0138 0100     		.2byte	0x1
 4207 013a 50       		.byte	0x50
 4208 013b 42000000 		.4byte	.LVL41
 4209 013f 62000000 		.4byte	.LVL45
 4210 0143 0100     		.2byte	0x1
 4211 0145 54       		.byte	0x54
ARM GAS  /tmp/ccDO8Csd.s 			page 75


 4212 0146 62000000 		.4byte	.LVL45
 4213 014a 65000000 		.4byte	.LVL46-1
 4214 014e 0500     		.2byte	0x5
 4215 0150 03       		.byte	0x3
 4216 0151 18000000 		.4byte	ch+24
 4217 0155 65000000 		.4byte	.LVL46-1
 4218 0159 66000000 		.4byte	.LVL46
 4219 015d 0400     		.2byte	0x4
 4220 015f F3       		.byte	0xf3
 4221 0160 01       		.uleb128 0x1
 4222 0161 50       		.byte	0x50
 4223 0162 9F       		.byte	0x9f
 4224 0163 66000000 		.4byte	.LVL46
 4225 0167 74000000 		.4byte	.LVL48
 4226 016b 0100     		.2byte	0x1
 4227 016d 54       		.byte	0x54
 4228 016e 74000000 		.4byte	.LVL48
 4229 0172 77000000 		.4byte	.LVL49-1
 4230 0176 0100     		.2byte	0x1
 4231 0178 50       		.byte	0x50
 4232 0179 77000000 		.4byte	.LVL49-1
 4233 017d 80000000 		.4byte	.LFE224
 4234 0181 0400     		.2byte	0x4
 4235 0183 F3       		.byte	0xf3
 4236 0184 01       		.uleb128 0x1
 4237 0185 50       		.byte	0x50
 4238 0186 9F       		.byte	0x9f
 4239 0187 00000000 		.4byte	0
 4240 018b 00000000 		.4byte	0
 4241              	.LLST16:
 4242 018f 00000000 		.4byte	.LVL33
 4243 0193 32000000 		.4byte	.LVL39
 4244 0197 0100     		.2byte	0x1
 4245 0199 51       		.byte	0x51
 4246 019a 32000000 		.4byte	.LVL39
 4247 019e 80000000 		.4byte	.LFE224
 4248 01a2 0400     		.2byte	0x4
 4249 01a4 F3       		.byte	0xf3
 4250 01a5 01       		.uleb128 0x1
 4251 01a6 51       		.byte	0x51
 4252 01a7 9F       		.byte	0x9f
 4253 01a8 00000000 		.4byte	0
 4254 01ac 00000000 		.4byte	0
 4255              	.LLST19:
 4256 01b0 52000000 		.4byte	.LVL43
 4257 01b4 56000000 		.4byte	.LVL44
 4258 01b8 0100     		.2byte	0x1
 4259 01ba 53       		.byte	0x53
 4260 01bb 56000000 		.4byte	.LVL44
 4261 01bf 65000000 		.4byte	.LVL46-1
 4262 01c3 0400     		.2byte	0x4
 4263 01c5 73       		.byte	0x73
 4264 01c6 E400     		.sleb128 100
 4265 01c8 9F       		.byte	0x9f
 4266 01c9 66000000 		.4byte	.LVL46
 4267 01cd 6B000000 		.4byte	.LVL47-1
 4268 01d1 0400     		.2byte	0x4
ARM GAS  /tmp/ccDO8Csd.s 			page 76


 4269 01d3 73       		.byte	0x73
 4270 01d4 E400     		.sleb128 100
 4271 01d6 9F       		.byte	0x9f
 4272 01d7 00000000 		.4byte	0
 4273 01db 00000000 		.4byte	0
 4274              	.LLST18:
 4275 01df 2C000000 		.4byte	.LVL37
 4276 01e3 48000000 		.4byte	.LVL42
 4277 01e7 0100     		.2byte	0x1
 4278 01e9 55       		.byte	0x55
 4279 01ea 00000000 		.4byte	0
 4280 01ee 00000000 		.4byte	0
 4281              	.LLST17:
 4282 01f2 14000000 		.4byte	.LVL34
 4283 01f6 2C000000 		.4byte	.LVL37
 4284 01fa 0100     		.2byte	0x1
 4285 01fc 50       		.byte	0x50
 4286 01fd 00000000 		.4byte	0
 4287 0201 00000000 		.4byte	0
 4288              	.LLST13:
 4289 0205 00000000 		.4byte	.LVL25
 4290 0209 12000000 		.4byte	.LVL26
 4291 020d 0100     		.2byte	0x1
 4292 020f 50       		.byte	0x50
 4293 0210 12000000 		.4byte	.LVL26
 4294 0214 2E000000 		.4byte	.LVL31
 4295 0218 0400     		.2byte	0x4
 4296 021a F3       		.byte	0xf3
 4297 021b 01       		.uleb128 0x1
 4298 021c 50       		.byte	0x50
 4299 021d 9F       		.byte	0x9f
 4300 021e 2E000000 		.4byte	.LVL31
 4301 0222 33000000 		.4byte	.LVL32-1
 4302 0226 0100     		.2byte	0x1
 4303 0228 50       		.byte	0x50
 4304 0229 33000000 		.4byte	.LVL32-1
 4305 022d 44000000 		.4byte	.LFE223
 4306 0231 0400     		.2byte	0x4
 4307 0233 F3       		.byte	0xf3
 4308 0234 01       		.uleb128 0x1
 4309 0235 50       		.byte	0x50
 4310 0236 9F       		.byte	0x9f
 4311 0237 00000000 		.4byte	0
 4312 023b 00000000 		.4byte	0
 4313              	.LLST14:
 4314 023f 00000000 		.4byte	.LVL25
 4315 0243 15000000 		.4byte	.LVL27-1
 4316 0247 0100     		.2byte	0x1
 4317 0249 51       		.byte	0x51
 4318 024a 15000000 		.4byte	.LVL27-1
 4319 024e 2E000000 		.4byte	.LVL31
 4320 0252 0400     		.2byte	0x4
 4321 0254 F3       		.byte	0xf3
 4322 0255 01       		.uleb128 0x1
 4323 0256 51       		.byte	0x51
 4324 0257 9F       		.byte	0x9f
 4325 0258 2E000000 		.4byte	.LVL31
ARM GAS  /tmp/ccDO8Csd.s 			page 77


 4326 025c 33000000 		.4byte	.LVL32-1
 4327 0260 0100     		.2byte	0x1
 4328 0262 51       		.byte	0x51
 4329 0263 33000000 		.4byte	.LVL32-1
 4330 0267 44000000 		.4byte	.LFE223
 4331 026b 0400     		.2byte	0x4
 4332 026d F3       		.byte	0xf3
 4333 026e 01       		.uleb128 0x1
 4334 026f 51       		.byte	0x51
 4335 0270 9F       		.byte	0x9f
 4336 0271 00000000 		.4byte	0
 4337 0275 00000000 		.4byte	0
 4338              	.LLST8:
 4339 0279 00000000 		.4byte	.LVL15
 4340 027d 2E000000 		.4byte	.LVL21
 4341 0281 0100     		.2byte	0x1
 4342 0283 50       		.byte	0x50
 4343 0284 2E000000 		.4byte	.LVL21
 4344 0288 48000000 		.4byte	.LFE221
 4345 028c 0400     		.2byte	0x4
 4346 028e F3       		.byte	0xf3
 4347 028f 01       		.uleb128 0x1
 4348 0290 50       		.byte	0x50
 4349 0291 9F       		.byte	0x9f
 4350 0292 00000000 		.4byte	0
 4351 0296 00000000 		.4byte	0
 4352              	.LLST9:
 4353 029a 06000000 		.4byte	.LVL16
 4354 029e 3C000000 		.4byte	.LVL23
 4355 02a2 0100     		.2byte	0x1
 4356 02a4 55       		.byte	0x55
 4357 02a5 3C000000 		.4byte	.LVL23
 4358 02a9 3F000000 		.4byte	.LVL24-1
 4359 02ad 0100     		.2byte	0x1
 4360 02af 51       		.byte	0x51
 4361 02b0 00000000 		.4byte	0
 4362 02b4 00000000 		.4byte	0
 4363              	.LLST12:
 4364 02b8 24000000 		.4byte	.LVL19
 4365 02bc 28000000 		.4byte	.LVL20
 4366 02c0 0100     		.2byte	0x1
 4367 02c2 52       		.byte	0x52
 4368 02c3 28000000 		.4byte	.LVL20
 4369 02c7 31000000 		.4byte	.LVL22-1
 4370 02cb 0400     		.2byte	0x4
 4371 02cd 72       		.byte	0x72
 4372 02ce E400     		.sleb128 100
 4373 02d0 9F       		.byte	0x9f
 4374 02d1 00000000 		.4byte	0
 4375 02d5 00000000 		.4byte	0
 4376              	.LLST10:
 4377 02d9 12000000 		.4byte	.LVL17
 4378 02dd 1A000000 		.4byte	.LVL18
 4379 02e1 0600     		.2byte	0x6
 4380 02e3 03       		.byte	0x3
 4381 02e4 00000000 		.4byte	ch
 4382 02e8 9F       		.byte	0x9f
ARM GAS  /tmp/ccDO8Csd.s 			page 78


 4383 02e9 00000000 		.4byte	0
 4384 02ed 00000000 		.4byte	0
 4385              	.LLST11:
 4386 02f1 12000000 		.4byte	.LVL17
 4387 02f5 1A000000 		.4byte	.LVL18
 4388 02f9 0100     		.2byte	0x1
 4389 02fb 53       		.byte	0x53
 4390 02fc 00000000 		.4byte	0
 4391 0300 00000000 		.4byte	0
 4392              	.LLST6:
 4393 0304 00000000 		.4byte	.LVL9
 4394 0308 08000000 		.4byte	.LVL10
 4395 030c 0600     		.2byte	0x6
 4396 030e 03       		.byte	0x3
 4397 030f 00000000 		.4byte	ch
 4398 0313 9F       		.byte	0x9f
 4399 0314 00000000 		.4byte	0
 4400 0318 00000000 		.4byte	0
 4401              	.LLST0:
 4402 031c 18000000 		.4byte	.LVL1
 4403 0320 1E000000 		.4byte	.LVL2
 4404 0324 0100     		.2byte	0x1
 4405 0326 52       		.byte	0x52
 4406 0327 00000000 		.4byte	0
 4407 032b 00000000 		.4byte	0
 4408              	.LLST1:
 4409 032f 1E000000 		.4byte	.LVL2
 4410 0333 28000000 		.4byte	.LVL3
 4411 0337 0100     		.2byte	0x1
 4412 0339 50       		.byte	0x50
 4413 033a 00000000 		.4byte	0
 4414 033e 00000000 		.4byte	0
 4415              	.LLST2:
 4416 0342 36000000 		.4byte	.LVL4
 4417 0346 54000000 		.4byte	.LVL8
 4418 034a 0100     		.2byte	0x1
 4419 034c 50       		.byte	0x50
 4420 034d 00000000 		.4byte	0
 4421 0351 00000000 		.4byte	0
 4422              	.LLST3:
 4423 0355 3A000000 		.4byte	.LVL5
 4424 0359 54000000 		.4byte	.LVL8
 4425 035d 0600     		.2byte	0x6
 4426 035f 03       		.byte	0x3
 4427 0360 00000000 		.4byte	ch
 4428 0364 9F       		.byte	0x9f
 4429 0365 00000000 		.4byte	0
 4430 0369 00000000 		.4byte	0
 4431              	.LLST4:
 4432 036d 3A000000 		.4byte	.LVL5
 4433 0371 54000000 		.4byte	.LVL8
 4434 0375 0100     		.2byte	0x1
 4435 0377 50       		.byte	0x50
 4436 0378 00000000 		.4byte	0
 4437 037c 00000000 		.4byte	0
 4438              	.LLST5:
 4439 0380 3A000000 		.4byte	.LVL5
ARM GAS  /tmp/ccDO8Csd.s 			page 79


 4440 0384 4C000000 		.4byte	.LVL7
 4441 0388 0100     		.2byte	0x1
 4442 038a 53       		.byte	0x53
 4443 038b 00000000 		.4byte	0
 4444 038f 00000000 		.4byte	0
 4445              	.LLST7:
 4446 0393 00000000 		.4byte	.LVL11
 4447 0397 08000000 		.4byte	.LVL12
 4448 039b 0100     		.2byte	0x1
 4449 039d 50       		.byte	0x50
 4450 039e 08000000 		.4byte	.LVL12
 4451 03a2 28000000 		.4byte	.LFE220
 4452 03a6 0100     		.2byte	0x1
 4453 03a8 51       		.byte	0x51
 4454 03a9 00000000 		.4byte	0
 4455 03ad 00000000 		.4byte	0
 4456              		.section	.debug_aranges,"",%progbits
 4457 0000 6C000000 		.4byte	0x6c
 4458 0004 0200     		.2byte	0x2
 4459 0006 00000000 		.4byte	.Ldebug_info0
 4460 000a 04       		.byte	0x4
 4461 000b 00       		.byte	0
 4462 000c 0000     		.2byte	0
 4463 000e 0000     		.2byte	0
 4464 0010 00000000 		.4byte	.LFB222
 4465 0014 64000000 		.4byte	.LFE222-.LFB222
 4466 0018 00000000 		.4byte	.LFB219
 4467 001c 14000000 		.4byte	.LFE219-.LFB219
 4468 0020 00000000 		.4byte	.LFB220
 4469 0024 28000000 		.4byte	.LFE220-.LFB220
 4470 0028 00000000 		.4byte	.LFB221
 4471 002c 48000000 		.4byte	.LFE221-.LFB221
 4472 0030 00000000 		.4byte	.LFB223
 4473 0034 44000000 		.4byte	.LFE223-.LFB223
 4474 0038 00000000 		.4byte	.LFB224
 4475 003c 80000000 		.4byte	.LFE224-.LFB224
 4476 0040 00000000 		.4byte	.LFB226
 4477 0044 28000000 		.4byte	.LFE226-.LFB226
 4478 0048 00000000 		.4byte	.LFB227
 4479 004c 60000000 		.4byte	.LFE227-.LFB227
 4480 0050 00000000 		.4byte	.LFB228
 4481 0054 58000000 		.4byte	.LFE228-.LFB228
 4482 0058 00000000 		.4byte	.LFB225
 4483 005c 18000000 		.4byte	.LFE225-.LFB225
 4484 0060 00000000 		.4byte	.LFB229
 4485 0064 18000000 		.4byte	.LFE229-.LFB229
 4486 0068 00000000 		.4byte	0
 4487 006c 00000000 		.4byte	0
 4488              		.section	.debug_ranges,"",%progbits
 4489              	.Ldebug_ranges0:
 4490 0000 2A000000 		.4byte	.LBB162
 4491 0004 2C000000 		.4byte	.LBE162
 4492 0008 36000000 		.4byte	.LBB177
 4493 000c 3A000000 		.4byte	.LBE177
 4494 0010 00000000 		.4byte	0
 4495 0014 00000000 		.4byte	0
 4496 0018 30000000 		.4byte	.LBB165
ARM GAS  /tmp/ccDO8Csd.s 			page 80


 4497 001c 34000000 		.4byte	.LBE165
 4498 0020 3A000000 		.4byte	.LBB178
 4499 0024 4E000000 		.4byte	.LBE178
 4500 0028 00000000 		.4byte	0
 4501 002c 00000000 		.4byte	0
 4502 0030 30000000 		.4byte	.LBB167
 4503 0034 34000000 		.4byte	.LBE167
 4504 0038 3A000000 		.4byte	.LBB170
 4505 003c 4C000000 		.4byte	.LBE170
 4506 0040 00000000 		.4byte	0
 4507 0044 00000000 		.4byte	0
 4508 0048 00000000 		.4byte	.LBB184
 4509 004c 02000000 		.4byte	.LBE184
 4510 0050 04000000 		.4byte	.LBB187
 4511 0054 08000000 		.4byte	.LBE187
 4512 0058 00000000 		.4byte	0
 4513 005c 00000000 		.4byte	0
 4514 0060 06000000 		.4byte	.LBB188
 4515 0064 08000000 		.4byte	.LBE188
 4516 0068 12000000 		.4byte	.LBB192
 4517 006c 16000000 		.4byte	.LBE192
 4518 0070 18000000 		.4byte	.LBB193
 4519 0074 1A000000 		.4byte	.LBE193
 4520 0078 00000000 		.4byte	0
 4521 007c 00000000 		.4byte	0
 4522 0080 20000000 		.4byte	.LBB194
 4523 0084 38000000 		.4byte	.LBE194
 4524 0088 3C000000 		.4byte	.LBB197
 4525 008c 48000000 		.4byte	.LBE197
 4526 0090 00000000 		.4byte	0
 4527 0094 00000000 		.4byte	0
 4528 0098 0E000000 		.4byte	.LBB199
 4529 009c 12000000 		.4byte	.LBE199
 4530 00a0 14000000 		.4byte	.LBB202
 4531 00a4 2A000000 		.4byte	.LBE202
 4532 00a8 00000000 		.4byte	0
 4533 00ac 00000000 		.4byte	0
 4534 00b0 2C000000 		.4byte	.LBB203
 4535 00b4 5E000000 		.4byte	.LBE203
 4536 00b8 62000000 		.4byte	.LBB213
 4537 00bc 70000000 		.4byte	.LBE213
 4538 00c0 74000000 		.4byte	.LBB214
 4539 00c4 80000000 		.4byte	.LBE214
 4540 00c8 00000000 		.4byte	0
 4541 00cc 00000000 		.4byte	0
 4542 00d0 2C000000 		.4byte	.LBB204
 4543 00d4 40000000 		.4byte	.LBE204
 4544 00d8 42000000 		.4byte	.LBB207
 4545 00dc 48000000 		.4byte	.LBE207
 4546 00e0 00000000 		.4byte	0
 4547 00e4 00000000 		.4byte	0
 4548 00e8 4E000000 		.4byte	.LBB208
 4549 00ec 5E000000 		.4byte	.LBE208
 4550 00f0 62000000 		.4byte	.LBB211
 4551 00f4 70000000 		.4byte	.LBE211
 4552 00f8 74000000 		.4byte	.LBB212
 4553 00fc 80000000 		.4byte	.LBE212
ARM GAS  /tmp/ccDO8Csd.s 			page 81


 4554 0100 00000000 		.4byte	0
 4555 0104 00000000 		.4byte	0
 4556 0108 02000000 		.4byte	.LBB215
 4557 010c 04000000 		.4byte	.LBE215
 4558 0110 06000000 		.4byte	.LBB220
 4559 0114 08000000 		.4byte	.LBE220
 4560 0118 0A000000 		.4byte	.LBB221
 4561 011c 0C000000 		.4byte	.LBE221
 4562 0120 0E000000 		.4byte	.LBB222
 4563 0124 10000000 		.4byte	.LBE222
 4564 0128 00000000 		.4byte	0
 4565 012c 00000000 		.4byte	0
 4566 0130 10000000 		.4byte	.LBB223
 4567 0134 12000000 		.4byte	.LBE223
 4568 0138 18000000 		.4byte	.LBB228
 4569 013c 1A000000 		.4byte	.LBE228
 4570 0140 1E000000 		.4byte	.LBB229
 4571 0144 22000000 		.4byte	.LBE229
 4572 0148 26000000 		.4byte	.LBB230
 4573 014c 3A000000 		.4byte	.LBE230
 4574 0150 00000000 		.4byte	0
 4575 0154 00000000 		.4byte	0
 4576 0158 3A000000 		.4byte	.LBB231
 4577 015c 50000000 		.4byte	.LBE231
 4578 0160 54000000 		.4byte	.LBB234
 4579 0164 60000000 		.4byte	.LBE234
 4580 0168 00000000 		.4byte	0
 4581 016c 00000000 		.4byte	0
 4582 0170 02000000 		.4byte	.LBB235
 4583 0174 04000000 		.4byte	.LBE235
 4584 0178 06000000 		.4byte	.LBB240
 4585 017c 08000000 		.4byte	.LBE240
 4586 0180 0A000000 		.4byte	.LBB241
 4587 0184 0C000000 		.4byte	.LBE241
 4588 0188 0E000000 		.4byte	.LBB242
 4589 018c 10000000 		.4byte	.LBE242
 4590 0190 00000000 		.4byte	0
 4591 0194 00000000 		.4byte	0
 4592 0198 32000000 		.4byte	.LBB243
 4593 019c 48000000 		.4byte	.LBE243
 4594 01a0 4C000000 		.4byte	.LBB246
 4595 01a4 58000000 		.4byte	.LBE246
 4596 01a8 00000000 		.4byte	0
 4597 01ac 00000000 		.4byte	0
 4598 01b0 00000000 		.4byte	.LFB222
 4599 01b4 64000000 		.4byte	.LFE222
 4600 01b8 00000000 		.4byte	.LFB219
 4601 01bc 14000000 		.4byte	.LFE219
 4602 01c0 00000000 		.4byte	.LFB220
 4603 01c4 28000000 		.4byte	.LFE220
 4604 01c8 00000000 		.4byte	.LFB221
 4605 01cc 48000000 		.4byte	.LFE221
 4606 01d0 00000000 		.4byte	.LFB223
 4607 01d4 44000000 		.4byte	.LFE223
 4608 01d8 00000000 		.4byte	.LFB224
 4609 01dc 80000000 		.4byte	.LFE224
 4610 01e0 00000000 		.4byte	.LFB226
ARM GAS  /tmp/ccDO8Csd.s 			page 82


 4611 01e4 28000000 		.4byte	.LFE226
 4612 01e8 00000000 		.4byte	.LFB227
 4613 01ec 60000000 		.4byte	.LFE227
 4614 01f0 00000000 		.4byte	.LFB228
 4615 01f4 58000000 		.4byte	.LFE228
 4616 01f8 00000000 		.4byte	.LFB225
 4617 01fc 18000000 		.4byte	.LFE225
 4618 0200 00000000 		.4byte	.LFB229
 4619 0204 18000000 		.4byte	.LFE229
 4620 0208 00000000 		.4byte	0
 4621 020c 00000000 		.4byte	0
 4622              		.section	.debug_line,"",%progbits
 4623              	.Ldebug_line0:
 4624 0000 31050000 		.section	.debug_str,"MS",%progbits,1
 4624      02003B02 
 4624      00000201 
 4624      FB0E0D00 
 4624      01010101 
 4625              	.LASF119:
 4626 0000 63665F6F 		.ascii	"cf_off_older\000"
 4626      66665F6F 
 4626      6C646572 
 4626      00
 4627              	.LASF58:
 4628 000d 72656164 		.ascii	"ready_list_t\000"
 4628      795F6C69 
 4628      73745F74 
 4628      00
 4629              	.LASF2:
 4630 001a 73697A65 		.ascii	"size_t\000"
 4630      5F7400
 4631              	.LASF94:
 4632 0021 7264796D 		.ascii	"rdymsg\000"
 4632      736700
 4633              	.LASF19:
 4634 0028 75696E74 		.ascii	"uint64_t\000"
 4634      36345F74 
 4634      00
 4635              	.LASF132:
 4636 0031 63685363 		.ascii	"chSchDoRescheduleAhead\000"
 4636      68446F52 
 4636      65736368 
 4636      6564756C 
 4636      65416865 
 4637              	.LASF27:
 4638 0048 6576656E 		.ascii	"eventmask_t\000"
 4638      746D6173 
 4638      6B5F7400 
 4639              	.LASF3:
 4640 0054 5F5F7569 		.ascii	"__uint8_t\000"
 4640      6E74385F 
 4640      7400
 4641              	.LASF91:
 4642 005e 706F7274 		.ascii	"port_intctx\000"
 4642      5F696E74 
 4642      63747800 
 4643              	.LASF77:
ARM GAS  /tmp/ccDO8Csd.s 			page 83


 4644 006a 73797374 		.ascii	"system_debug_t\000"
 4644      656D5F64 
 4644      65627567 
 4644      5F7400
 4645              	.LASF151:
 4646 0079 71756575 		.ascii	"queue_init\000"
 4646      655F696E 
 4646      697400
 4647              	.LASF164:
 4648 0084 474E5520 		.ascii	"GNU C99 7.3.1 20180622 (release) [ARM/embedded-7-br"
 4648      43393920 
 4648      372E332E 
 4648      31203230 
 4648      31383036 
 4649 00b7 616E6368 		.ascii	"anch revision 261907] -mcpu=cortex-m4 -mfloat-abi=h"
 4649      20726576 
 4649      6973696F 
 4649      6E203236 
 4649      31393037 
 4650 00ea 61726420 		.ascii	"ard -mfpu=fpv4-sp-d16 -mno-thumb-interwork -mthumb "
 4650      2D6D6670 
 4650      753D6670 
 4650      76342D73 
 4650      702D6431 
 4651 011d 2D676764 		.ascii	"-ggdb -O2 -std=gnu99 -fomit-frame-pointer -falign-f"
 4651      62202D4F 
 4651      32202D73 
 4651      74643D67 
 4651      6E753939 
 4652 0150 756E6374 		.ascii	"unctions=16 -ffunction-sections -fdata-sections -fn"
 4652      696F6E73 
 4652      3D313620 
 4652      2D666675 
 4652      6E637469 
 4653 0183 6F2D636F 		.ascii	"o-common -fsingle-precision-constant\000"
 4653      6D6D6F6E 
 4653      202D6673 
 4653      696E676C 
 4653      652D7072 
 4654              	.LASF155:
 4655 01a8 706F7274 		.ascii	"port_lock\000"
 4655      5F6C6F63 
 4655      6B00
 4656              	.LASF160:
 4657 01b2 63685379 		.ascii	"chSysHalt\000"
 4657      7348616C 
 4657      7400
 4658              	.LASF14:
 4659 01bc 6C6F6E67 		.ascii	"long long unsigned int\000"
 4659      206C6F6E 
 4659      6720756E 
 4659      7369676E 
 4659      65642069 
 4660              	.LASF115:
 4661 01d3 63685F74 		.ascii	"ch_threadsize\000"
 4661      68726561 
 4661      6473697A 
ARM GAS  /tmp/ccDO8Csd.s 			page 84


 4661      6500
 4662              	.LASF163:
 4663 01e1 63685654 		.ascii	"chVTDoResetI\000"
 4663      446F5265 
 4663      73657449 
 4663      00
 4664              	.LASF95:
 4665 01ee 65786974 		.ascii	"exitcode\000"
 4665      636F6465 
 4665      00
 4666              	.LASF84:
 4667 01f7 6D61696E 		.ascii	"mainthread\000"
 4667      74687265 
 4667      616400
 4668              	.LASF8:
 4669 0202 5F5F696E 		.ascii	"__int32_t\000"
 4669      7433325F 
 4669      7400
 4670              	.LASF74:
 4671 020c 76697274 		.ascii	"virtual_timers_list_t\000"
 4671      75616C5F 
 4671      74696D65 
 4671      72735F6C 
 4671      6973745F 
 4672              	.LASF86:
 4673 0222 49544D5F 		.ascii	"ITM_RxBuffer\000"
 4673      52784275 
 4673      66666572 
 4673      00
 4674              	.LASF57:
 4675 022f 63685F74 		.ascii	"ch_threads_queue\000"
 4675      68726561 
 4675      64735F71 
 4675      75657565 
 4675      00
 4676              	.LASF33:
 4677 0240 705F7072 		.ascii	"p_prio\000"
 4677      696F00
 4678              	.LASF122:
 4679 0247 63665F6F 		.ascii	"cf_off_state\000"
 4679      66665F73 
 4679      74617465 
 4679      00
 4680              	.LASF143:
 4681 0254 5F736368 		.ascii	"_scheduler_init\000"
 4681      6564756C 
 4681      65725F69 
 4681      6E697400 
 4682              	.LASF12:
 4683 0264 6C6F6E67 		.ascii	"long long int\000"
 4683      206C6F6E 
 4683      6720696E 
 4683      7400
 4684              	.LASF1:
 4685 0272 7369676E 		.ascii	"signed char\000"
 4685      65642063 
 4685      68617200 
ARM GAS  /tmp/ccDO8Csd.s 			page 85


 4686              	.LASF121:
 4687 027e 63665F6F 		.ascii	"cf_off_stklimit\000"
 4687      66665F73 
 4687      746B6C69 
 4687      6D697400 
 4688              	.LASF123:
 4689 028e 63665F6F 		.ascii	"cf_off_flags\000"
 4689      66665F66 
 4689      6C616773 
 4689      00
 4690              	.LASF50:
 4691 029b 705F6D70 		.ascii	"p_mpool\000"
 4691      6F6F6C00 
 4692              	.LASF105:
 4693 02a3 6D5F7175 		.ascii	"m_queue\000"
 4693      65756500 
 4694              	.LASF83:
 4695 02ab 76746C69 		.ascii	"vtlist\000"
 4695      737400
 4696              	.LASF154:
 4697 02b2 706F7274 		.ascii	"port_unlock\000"
 4697      5F756E6C 
 4697      6F636B00 
 4698              	.LASF24:
 4699 02be 74736C69 		.ascii	"tslices_t\000"
 4699      6365735F 
 4699      7400
 4700              	.LASF97:
 4701 02c8 77747472 		.ascii	"wttrp\000"
 4701      7000
 4702              	.LASF81:
 4703 02ce 63685F73 		.ascii	"ch_system\000"
 4703      79737465 
 4703      6D00
 4704              	.LASF9:
 4705 02d8 6C6F6E67 		.ascii	"long int\000"
 4705      20696E74 
 4705      00
 4706              	.LASF149:
 4707 02e1 71756575 		.ascii	"queue_dequeue\000"
 4707      655F6465 
 4707      71756575 
 4707      6500
 4708              	.LASF22:
 4709 02ef 74737461 		.ascii	"tstate_t\000"
 4709      74655F74 
 4709      00
 4710              	.LASF137:
 4711 02f8 63685363 		.ascii	"chSchIsPreemptionRequired\000"
 4711      68497350 
 4711      7265656D 
 4711      7074696F 
 4711      6E526571 
 4712              	.LASF35:
 4713 0312 705F6E65 		.ascii	"p_newer\000"
 4713      77657200 
 4714              	.LASF102:
ARM GAS  /tmp/ccDO8Csd.s 			page 86


 4715 031a 735F7175 		.ascii	"s_queue\000"
 4715      65756500 
 4716              	.LASF135:
 4717 0322 63685363 		.ascii	"chSchRescheduleS\000"
 4717      68526573 
 4717      63686564 
 4717      756C6553 
 4717      00
 4718              	.LASF23:
 4719 0333 74726566 		.ascii	"trefs_t\000"
 4719      735F7400 
 4720              	.LASF63:
 4721 033b 725F6E65 		.ascii	"r_newer\000"
 4721      77657200 
 4722              	.LASF88:
 4723 0343 72656761 		.ascii	"regarm_t\000"
 4723      726D5F74 
 4723      00
 4724              	.LASF131:
 4725 034c 63685363 		.ascii	"chSchDoReschedule\000"
 4725      68446F52 
 4725      65736368 
 4725      6564756C 
 4725      6500
 4726              	.LASF70:
 4727 035e 76745F70 		.ascii	"vt_prev\000"
 4727      72657600 
 4728              	.LASF130:
 4729 0366 6D757465 		.ascii	"mutex_t\000"
 4729      785F7400 
 4730              	.LASF85:
 4731 036e 69646C65 		.ascii	"idle_thread_wa\000"
 4731      5F746872 
 4731      6561645F 
 4731      776100
 4732              	.LASF28:
 4733 037d 636E745F 		.ascii	"cnt_t\000"
 4733      7400
 4734              	.LASF38:
 4735 0383 705F7374 		.ascii	"p_stklimit\000"
 4735      6B6C696D 
 4735      697400
 4736              	.LASF0:
 4737 038e 756E7369 		.ascii	"unsigned int\000"
 4737      676E6564 
 4737      20696E74 
 4737      00
 4738              	.LASF144:
 4739 039b 77616B65 		.ascii	"wakeup\000"
 4739      757000
 4740              	.LASF69:
 4741 03a2 76745F6E 		.ascii	"vt_next\000"
 4741      65787400 
 4742              	.LASF16:
 4743 03aa 75696E74 		.ascii	"uint16_t\000"
 4743      31365F74 
 4743      00
ARM GAS  /tmp/ccDO8Csd.s 			page 87


 4744              	.LASF87:
 4745 03b3 53797374 		.ascii	"SystemCoreClock\000"
 4745      656D436F 
 4745      7265436C 
 4745      6F636B00 
 4746              	.LASF43:
 4747 03c3 705F7469 		.ascii	"p_time\000"
 4747      6D6500
 4748              	.LASF98:
 4749 03ca 77747365 		.ascii	"wtsemp\000"
 4749      6D7000
 4750              	.LASF76:
 4751 03d1 76745F73 		.ascii	"vt_systime\000"
 4751      79737469 
 4751      6D6500
 4752              	.LASF161:
 4753 03dc 5F706F72 		.ascii	"_port_switch\000"
 4753      745F7377 
 4753      69746368 
 4753      00
 4754              	.LASF71:
 4755 03e9 76745F64 		.ascii	"vt_delta\000"
 4755      656C7461 
 4755      00
 4756              	.LASF45:
 4757 03f2 705F6D73 		.ascii	"p_msgqueue\000"
 4757      67717565 
 4757      756500
 4758              	.LASF128:
 4759 03fd 63685F64 		.ascii	"ch_debug\000"
 4759      65627567 
 4759      00
 4760              	.LASF59:
 4761 0406 63685F72 		.ascii	"ch_ready_list\000"
 4761      65616479 
 4761      5F6C6973 
 4761      7400
 4762              	.LASF103:
 4763 0414 735F636E 		.ascii	"s_cnt\000"
 4763      7400
 4764              	.LASF7:
 4765 041a 73686F72 		.ascii	"short unsigned int\000"
 4765      7420756E 
 4765      7369676E 
 4765      65642069 
 4765      6E7400
 4766              	.LASF54:
 4767 042d 63685F74 		.ascii	"ch_thread\000"
 4767      68726561 
 4767      6400
 4768              	.LASF136:
 4769 0437 63685363 		.ascii	"chSchWakeupS\000"
 4769      6857616B 
 4769      65757053 
 4769      00
 4770              	.LASF26:
 4771 0444 6D73675F 		.ascii	"msg_t\000"
ARM GAS  /tmp/ccDO8Csd.s 			page 88


 4771      7400
 4772              	.LASF80:
 4773 044a 63685F73 		.ascii	"ch_system_t\000"
 4773      79737465 
 4773      6D5F7400 
 4774              	.LASF96:
 4775 0456 77746F62 		.ascii	"wtobjp\000"
 4775      6A7000
 4776              	.LASF48:
 4777 045d 705F6D74 		.ascii	"p_mtxlist\000"
 4777      786C6973 
 4777      7400
 4778              	.LASF162:
 4779 0467 63685654 		.ascii	"chVTDoSetI\000"
 4779      446F5365 
 4779      744900
 4780              	.LASF89:
 4781 0472 73746B61 		.ascii	"stkalign_t\000"
 4781      6C69676E 
 4781      5F7400
 4782              	.LASF110:
 4783 047d 63685F7A 		.ascii	"ch_zero\000"
 4783      65726F00 
 4784              	.LASF124:
 4785 0485 63665F6F 		.ascii	"cf_off_refs\000"
 4785      66665F72 
 4785      65667300 
 4786              	.LASF61:
 4787 0491 725F7072 		.ascii	"r_prio\000"
 4787      696F00
 4788              	.LASF44:
 4789 0498 705F7761 		.ascii	"p_waiting\000"
 4789      6974696E 
 4789      6700
 4790              	.LASF20:
 4791 04a2 7274636E 		.ascii	"rtcnt_t\000"
 4791      745F7400 
 4792              	.LASF75:
 4793 04aa 63685F76 		.ascii	"ch_virtual_timers_list\000"
 4793      69727475 
 4793      616C5F74 
 4793      696D6572 
 4793      735F6C69 
 4794              	.LASF114:
 4795 04c1 63685F74 		.ascii	"ch_timesize\000"
 4795      696D6573 
 4795      697A6500 
 4796              	.LASF133:
 4797 04cd 63685363 		.ascii	"chSchDoRescheduleBehind\000"
 4797      68446F52 
 4797      65736368 
 4797      6564756C 
 4797      65426568 
 4798              	.LASF120:
 4799 04e5 63665F6F 		.ascii	"cf_off_name\000"
 4799      66665F6E 
 4799      616D6500 
ARM GAS  /tmp/ccDO8Csd.s 			page 89


 4800              	.LASF36:
 4801 04f1 705F6F6C 		.ascii	"p_older\000"
 4801      64657200 
 4802              	.LASF62:
 4803 04f9 725F6374 		.ascii	"r_ctx\000"
 4803      7800
 4804              	.LASF34:
 4805 04ff 705F6374 		.ascii	"p_ctx\000"
 4805      7800
 4806              	.LASF93:
 4807 0505 746D5F63 		.ascii	"tm_calibration_t\000"
 4807      616C6962 
 4807      72617469 
 4807      6F6E5F74 
 4807      00
 4808              	.LASF107:
 4809 0516 6D5F6E65 		.ascii	"m_next\000"
 4809      787400
 4810              	.LASF140:
 4811 051d 74696D65 		.ascii	"time\000"
 4811      00
 4812              	.LASF65:
 4813 0522 725F6375 		.ascii	"r_current\000"
 4813      7272656E 
 4813      7400
 4814              	.LASF64:
 4815 052c 725F6F6C 		.ascii	"r_older\000"
 4815      64657200 
 4816              	.LASF159:
 4817 0534 5F5F656E 		.ascii	"__enable_irq\000"
 4817      61626C65 
 4817      5F697271 
 4817      00
 4818              	.LASF13:
 4819 0541 5F5F7569 		.ascii	"__uint64_t\000"
 4819      6E743634 
 4819      5F7400
 4820              	.LASF158:
 4821 054c 5F5F6469 		.ascii	"__disable_irq\000"
 4821      7361626C 
 4821      655F6972 
 4821      7100
 4822              	.LASF113:
 4823 055a 63685F70 		.ascii	"ch_ptrsize\000"
 4823      74727369 
 4823      7A6500
 4824              	.LASF67:
 4825 0565 76697274 		.ascii	"virtual_timer_t\000"
 4825      75616C5F 
 4825      74696D65 
 4825      725F7400 
 4826              	.LASF32:
 4827 0575 705F7072 		.ascii	"p_prev\000"
 4827      657600
 4828              	.LASF25:
 4829 057c 74707269 		.ascii	"tprio_t\000"
 4829      6F5F7400 
ARM GAS  /tmp/ccDO8Csd.s 			page 90


 4830              	.LASF146:
 4831 0584 63685379 		.ascii	"chSysUnlockFromISR\000"
 4831      73556E6C 
 4831      6F636B46 
 4831      726F6D49 
 4831      535200
 4832              	.LASF78:
 4833 0597 63685F73 		.ascii	"ch_system_debug\000"
 4833      79737465 
 4833      6D5F6465 
 4833      62756700 
 4834              	.LASF134:
 4835 05a7 5F426F6F 		.ascii	"_Bool\000"
 4835      6C00
 4836              	.LASF17:
 4837 05ad 696E7433 		.ascii	"int32_t\000"
 4837      325F7400 
 4838              	.LASF4:
 4839 05b5 756E7369 		.ascii	"unsigned char\000"
 4839      676E6564 
 4839      20636861 
 4839      7200
 4840              	.LASF139:
 4841 05c3 6E657773 		.ascii	"newstate\000"
 4841      74617465 
 4841      00
 4842              	.LASF5:
 4843 05cc 73686F72 		.ascii	"short int\000"
 4843      7420696E 
 4843      7400
 4844              	.LASF39:
 4845 05d6 705F7374 		.ascii	"p_state\000"
 4845      61746500 
 4846              	.LASF42:
 4847 05de 705F7072 		.ascii	"p_preempt\000"
 4847      65656D70 
 4847      7400
 4848              	.LASF126:
 4849 05e8 63665F6F 		.ascii	"cf_off_time\000"
 4849      66665F74 
 4849      696D6500 
 4850              	.LASF145:
 4851 05f4 63685365 		.ascii	"chSemFastSignalI\000"
 4851      6D466173 
 4851      74536967 
 4851      6E616C49 
 4851      00
 4852              	.LASF100:
 4853 0605 65776D61 		.ascii	"ewmask\000"
 4853      736B00
 4854              	.LASF31:
 4855 060c 705F6E65 		.ascii	"p_next\000"
 4855      787400
 4856              	.LASF21:
 4857 0613 746D6F64 		.ascii	"tmode_t\000"
 4857      655F7400 
 4858              	.LASF125:
ARM GAS  /tmp/ccDO8Csd.s 			page 91


 4859 061b 63665F6F 		.ascii	"cf_off_preempt\000"
 4859      66665F70 
 4859      7265656D 
 4859      707400
 4860              	.LASF40:
 4861 062a 705F666C 		.ascii	"p_flags\000"
 4861      61677300 
 4862              	.LASF142:
 4863 0632 5F5F6675 		.ascii	"__func__\000"
 4863      6E635F5F 
 4863      00
 4864              	.LASF148:
 4865 063b 63685654 		.ascii	"chVTIsArmedI\000"
 4865      49734172 
 4865      6D656449 
 4865      00
 4866              	.LASF165:
 4867 0648 43686962 		.ascii	"ChibiOS_3.0.5/os/rt/src/chschd.c\000"
 4867      694F535F 
 4867      332E302E 
 4867      352F6F73 
 4867      2F72742F 
 4868              	.LASF129:
 4869 0669 73656D61 		.ascii	"semaphore_t\000"
 4869      70686F72 
 4869      655F7400 
 4870              	.LASF56:
 4871 0675 74687265 		.ascii	"threads_queue_t\000"
 4871      6164735F 
 4871      71756575 
 4871      655F7400 
 4872              	.LASF68:
 4873 0685 63685F76 		.ascii	"ch_virtual_timer\000"
 4873      69727475 
 4873      616C5F74 
 4873      696D6572 
 4873      00
 4874              	.LASF118:
 4875 0696 63665F6F 		.ascii	"cf_off_newer\000"
 4875      66665F6E 
 4875      65776572 
 4875      00
 4876              	.LASF101:
 4877 06a3 63685F73 		.ascii	"ch_semaphore\000"
 4877      656D6170 
 4877      686F7265 
 4877      00
 4878              	.LASF141:
 4879 06b0 63685363 		.ascii	"chSchGoSleepS\000"
 4879      68476F53 
 4879      6C656570 
 4879      5300
 4880              	.LASF47:
 4881 06be 705F6570 		.ascii	"p_epending\000"
 4881      656E6469 
 4881      6E6700
 4882              	.LASF166:
ARM GAS  /tmp/ccDO8Csd.s 			page 92


 4883 06c9 2F626C64 		.ascii	"/bldc\000"
 4883      6300
 4884              	.LASF18:
 4885 06cf 75696E74 		.ascii	"uint32_t\000"
 4885      33325F74 
 4885      00
 4886              	.LASF116:
 4887 06d8 63665F6F 		.ascii	"cf_off_prio\000"
 4887      66665F70 
 4887      72696F00 
 4888              	.LASF60:
 4889 06e4 725F7175 		.ascii	"r_queue\000"
 4889      65756500 
 4890              	.LASF167:
 4891 06ec 63685363 		.ascii	"chSchReadyI\000"
 4891      68526561 
 4891      64794900 
 4892              	.LASF55:
 4893 06f8 63685F74 		.ascii	"ch_threads_list\000"
 4893      68726561 
 4893      64735F6C 
 4893      69737400 
 4894              	.LASF111:
 4895 0708 63685F73 		.ascii	"ch_size\000"
 4895      697A6500 
 4896              	.LASF11:
 4897 0710 6C6F6E67 		.ascii	"long unsigned int\000"
 4897      20756E73 
 4897      69676E65 
 4897      6420696E 
 4897      7400
 4898              	.LASF108:
 4899 0722 63686172 		.ascii	"char\000"
 4899      00
 4900              	.LASF99:
 4901 0727 77746D74 		.ascii	"wtmtxp\000"
 4901      787000
 4902              	.LASF6:
 4903 072e 5F5F7569 		.ascii	"__uint16_t\000"
 4903      6E743136 
 4903      5F7400
 4904              	.LASF152:
 4905 0739 706F7274 		.ascii	"port_unlock_from_isr\000"
 4905      5F756E6C 
 4905      6F636B5F 
 4905      66726F6D 
 4905      5F697372 
 4906              	.LASF30:
 4907 074e 74687265 		.ascii	"thread_t\000"
 4907      61645F74 
 4907      00
 4908              	.LASF150:
 4909 0757 71756575 		.ascii	"queue_fifo_remove\000"
 4909      655F6669 
 4909      666F5F72 
 4909      656D6F76 
 4909      6500
ARM GAS  /tmp/ccDO8Csd.s 			page 93


 4910              	.LASF29:
 4911 0769 73797374 		.ascii	"systime_t\000"
 4911      696D655F 
 4911      7400
 4912              	.LASF49:
 4913 0773 705F7265 		.ascii	"p_realprio\000"
 4913      616C7072 
 4913      696F00
 4914              	.LASF66:
 4915 077e 76746675 		.ascii	"vtfunc_t\000"
 4915      6E635F74 
 4915      00
 4916              	.LASF10:
 4917 0787 5F5F7569 		.ascii	"__uint32_t\000"
 4917      6E743332 
 4917      5F7400
 4918              	.LASF79:
 4919 0792 70616E69 		.ascii	"panic_msg\000"
 4919      635F6D73 
 4919      6700
 4920              	.LASF92:
 4921 079c 6F666673 		.ascii	"offset\000"
 4921      657400
 4922              	.LASF90:
 4923 07a3 636F6E74 		.ascii	"context\000"
 4923      65787400 
 4924              	.LASF46:
 4925 07ab 705F6D73 		.ascii	"p_msg\000"
 4925      6700
 4926              	.LASF153:
 4927 07b1 706F7274 		.ascii	"port_lock_from_isr\000"
 4927      5F6C6F63 
 4927      6B5F6672 
 4927      6F6D5F69 
 4927      737200
 4928              	.LASF156:
 4929 07c4 5F5F6765 		.ascii	"__get_PSP\000"
 4929      745F5053 
 4929      5000
 4930              	.LASF73:
 4931 07ce 76745F70 		.ascii	"vt_par\000"
 4931      617200
 4932              	.LASF117:
 4933 07d5 63665F6F 		.ascii	"cf_off_ctx\000"
 4933      66665F63 
 4933      747800
 4934              	.LASF104:
 4935 07e0 63685F6D 		.ascii	"ch_mutex\000"
 4935      75746578 
 4935      00
 4936              	.LASF41:
 4937 07e9 705F7265 		.ascii	"p_refs\000"
 4937      667300
 4938              	.LASF51:
 4939 07f0 6D6F746F 		.ascii	"motor_selected\000"
 4939      725F7365 
 4939      6C656374 
ARM GAS  /tmp/ccDO8Csd.s 			page 94


 4939      656400
 4940              	.LASF82:
 4941 07ff 726C6973 		.ascii	"rlist\000"
 4941      7400
 4942              	.LASF15:
 4943 0805 75696E74 		.ascii	"uint8_t\000"
 4943      385F7400 
 4944              	.LASF52:
 4945 080d 74687265 		.ascii	"thread_reference_t\000"
 4945      61645F72 
 4945      65666572 
 4945      656E6365 
 4945      5F7400
 4946              	.LASF147:
 4947 0820 63685379 		.ascii	"chSysLockFromISR\000"
 4947      734C6F63 
 4947      6B46726F 
 4947      6D495352 
 4947      00
 4948              	.LASF37:
 4949 0831 705F6E61 		.ascii	"p_name\000"
 4949      6D6500
 4950              	.LASF53:
 4951 0838 74687265 		.ascii	"threads_list_t\000"
 4951      6164735F 
 4951      6C697374 
 4951      5F7400
 4952              	.LASF138:
 4953 0847 63685363 		.ascii	"chSchGoSleepTimeoutS\000"
 4953      68476F53 
 4953      6C656570 
 4953      54696D65 
 4953      6F757453 
 4954              	.LASF168:
 4955 085c 63685363 		.ascii	"chSchIsRescRequiredI\000"
 4955      68497352 
 4955      65736352 
 4955      65717569 
 4955      72656449 
 4956              	.LASF112:
 4957 0871 63685F76 		.ascii	"ch_version\000"
 4957      65727369 
 4957      6F6E00
 4958              	.LASF106:
 4959 087c 6D5F6F77 		.ascii	"m_owner\000"
 4959      6E657200 
 4960              	.LASF157:
 4961 0884 72657375 		.ascii	"result\000"
 4961      6C7400
 4962              	.LASF127:
 4963 088b 63686465 		.ascii	"chdebug_t\000"
 4963      6275675F 
 4963      7400
 4964              	.LASF109:
 4965 0895 63685F69 		.ascii	"ch_identifier\000"
 4965      64656E74 
 4965      69666965 
ARM GAS  /tmp/ccDO8Csd.s 			page 95


 4965      7200
 4966              	.LASF72:
 4967 08a3 76745F66 		.ascii	"vt_func\000"
 4967      756E6300 
 4968              		.ident	"GCC: (GNU Tools for Arm Embedded Processors 7-2018-q3-update) 7.3.1 20180622 (release) [AR
ARM GAS  /tmp/ccDO8Csd.s 			page 96


DEFINED SYMBOLS
                            *ABS*:0000000000000000 chschd.c
     /tmp/ccDO8Csd.s:18     .text.wakeup:0000000000000000 $t
     /tmp/ccDO8Csd.s:25     .text.wakeup:0000000000000000 wakeup
     /tmp/ccDO8Csd.s:58     .text.wakeup:000000000000000e $d
     /tmp/ccDO8Csd.s:66     .text.wakeup:0000000000000016 $t
     /tmp/ccDO8Csd.s:200    .text.wakeup:0000000000000060 $d
     /tmp/ccDO8Csd.s:210    .text._scheduler_init:0000000000000000 $t
     /tmp/ccDO8Csd.s:218    .text._scheduler_init:0000000000000000 _scheduler_init
     /tmp/ccDO8Csd.s:250    .text._scheduler_init:0000000000000010 $d
     /tmp/ccDO8Csd.s:255    .text.chSchReadyI:0000000000000000 $t
     /tmp/ccDO8Csd.s:263    .text.chSchReadyI:0000000000000000 chSchReadyI
     /tmp/ccDO8Csd.s:306    .text.chSchReadyI:0000000000000024 $d
     /tmp/ccDO8Csd.s:311    .text.chSchGoSleepS:0000000000000000 $t
     /tmp/ccDO8Csd.s:319    .text.chSchGoSleepS:0000000000000000 chSchGoSleepS
     /tmp/ccDO8Csd.s:414    .text.chSchGoSleepS:0000000000000040 $d
     /tmp/ccDO8Csd.s:421    .text.chSchGoSleepTimeoutS:0000000000000000 $t
     /tmp/ccDO8Csd.s:429    .text.chSchGoSleepTimeoutS:0000000000000000 chSchGoSleepTimeoutS
     /tmp/ccDO8Csd.s:499    .text.chSchGoSleepTimeoutS:000000000000003c $d
     /tmp/ccDO8Csd.s:505    .text.chSchWakeupS:0000000000000000 $t
     /tmp/ccDO8Csd.s:513    .text.chSchWakeupS:0000000000000000 chSchWakeupS
     /tmp/ccDO8Csd.s:678    .text.chSchWakeupS:0000000000000078 $d
     /tmp/ccDO8Csd.s:686    .text.chSchIsPreemptionRequired:0000000000000000 $t
     /tmp/ccDO8Csd.s:694    .text.chSchIsPreemptionRequired:0000000000000000 chSchIsPreemptionRequired
     /tmp/ccDO8Csd.s:737    .text.chSchIsPreemptionRequired:0000000000000024 $d
     /tmp/ccDO8Csd.s:742    .text.chSchDoRescheduleBehind:0000000000000000 $t
     /tmp/ccDO8Csd.s:750    .text.chSchDoRescheduleBehind:0000000000000000 chSchDoRescheduleBehind
     /tmp/ccDO8Csd.s:891    .text.chSchDoRescheduleBehind:0000000000000058 $d
     /tmp/ccDO8Csd.s:898    .text.chSchDoRescheduleAhead:0000000000000000 $t
     /tmp/ccDO8Csd.s:906    .text.chSchDoRescheduleAhead:0000000000000000 chSchDoRescheduleAhead
     /tmp/ccDO8Csd.s:1023   .text.chSchDoRescheduleAhead:0000000000000050 $d
     /tmp/ccDO8Csd.s:1030   .text.chSchRescheduleS:0000000000000000 $t
     /tmp/ccDO8Csd.s:1038   .text.chSchRescheduleS:0000000000000000 chSchRescheduleS
     /tmp/ccDO8Csd.s:1067   .text.chSchRescheduleS:0000000000000014 $d
     /tmp/ccDO8Csd.s:1072   .text.chSchDoReschedule:0000000000000000 $t
     /tmp/ccDO8Csd.s:1080   .text.chSchDoReschedule:0000000000000000 chSchDoReschedule
     /tmp/ccDO8Csd.s:1102   .text.chSchDoReschedule:0000000000000014 $d
     /tmp/ccDO8Csd.s:1112   .bss.ch:0000000000000000 ch
     /tmp/ccDO8Csd.s:1108   .bss.ch:0000000000000000 $d
     /tmp/ccDO8Csd.s:1115   .rodata.chSchGoSleepS.str1.4:0000000000000000 $d

UNDEFINED SYMBOLS
chSysHalt
_port_switch
chVTDoSetI
chVTDoResetI
