ARM GAS  /tmp/ccDO8Csd.s 			page 1


   1              		.cpu cortex-m4
   2              		.eabi_attribute 27, 1
   3              		.eabi_attribute 28, 1
   4              		.eabi_attribute 20, 1
   5              		.eabi_attribute 21, 1
   6              		.eabi_attribute 23, 3
   7              		.eabi_attribute 24, 1
   8              		.eabi_attribute 25, 1
   9              		.eabi_attribute 26, 1
  10              		.eabi_attribute 30, 2
  11              		.eabi_attribute 34, 1
  12              		.eabi_attribute 18, 4
  13              		.file	"chschd.c"
  14              		.text
  15              	.Ltext0:
  16              		.cfi_sections	.debug_frame
  17              		.section	.text.wakeup,"ax",%progbits
  18              		.align	1
  19              		.p2align 4,,15
  20              		.syntax unified
  21              		.thumb
  22              		.thumb_func
  23              		.fpu fpv4-sp-d16
  24              		.type	wakeup, %function
  25              	wakeup:
  26              	.LFB222:
  27              		.file 1 "ChibiOS_3.0.5/os/rt/src/chschd.c"
  28              		.loc 1 275 0
  29              		.cfi_startproc
  30              		@ args = 0, pretend = 0, frame = 0
  31              		@ frame_needed = 0, uses_anonymous_args = 0
  32              		@ link register save eliminated.
  33              	.LVL0:
  34              	.LBB153:
  35              	.LBB154:
  36              	.LBB155:
  37              	.LBB156:
  38              	.LBB157:
  39              		.file 2 "ChibiOS_3.0.5/os/ext/CMSIS/include/core_cmFunc.h"
  40              		.loc 2 342 0
  41              		.syntax unified
  42              	@ 342 "ChibiOS_3.0.5/os/ext/CMSIS/include/core_cmFunc.h" 1
  43 0000 72B6     		cpsid i
  44              	@ 0 "" 2
  45              		.thumb
  46              		.syntax unified
  47              	.LBE157:
  48              	.LBE156:
  49              	.LBE155:
  50              	.LBE154:
  51              	.LBE153:
  52              		.loc 1 279 0
  53 0002 90F82030 		ldrb	r3, [r0, #32]	@ zero_extendqisi2
  54 0006 072B     		cmp	r3, #7
  55 0008 0ED8     		bhi	.L2
  56 000a DFE803F0 		tbb	[pc, r3]
  57              	.L4:
ARM GAS  /tmp/ccDO8Csd.s 			page 2


  58 000e 27       		.byte	(.L3-.L4)/2
  59 000f 0D       		.byte	(.L2-.L4)/2
  60 0010 0D       		.byte	(.L2-.L4)/2
  61 0011 23       		.byte	(.L5-.L4)/2
  62 0012 08       		.byte	(.L6-.L4)/2
  63 0013 04       		.byte	(.L7-.L4)/2
  64 0014 0D       		.byte	(.L2-.L4)/2
  65 0015 08       		.byte	(.L6-.L4)/2
  66              		.p2align 1
  67              	.L7:
  68              		.loc 1 290 0
  69 0016 826A     		ldr	r2, [r0, #40]
  70              	.LVL1:
  71              	.LBB158:
  72              	.LBB159:
  73              		.file 3 "ChibiOS_3.0.5/os/rt/include/chsem.h"
  74              		.loc 3 138 0
  75 0018 9368     		ldr	r3, [r2, #8]
  76 001a 0133     		adds	r3, r3, #1
  77 001c 9360     		str	r3, [r2, #8]
  78              	.LVL2:
  79              	.L6:
  80              	.LBE159:
  81              	.LBE158:
  82              	.LBB160:
  83              	.LBB161:
  84              		.file 4 "ChibiOS_3.0.5/os/rt/include/chschd.h"
  85              		.loc 4 691 0
  86 001e D0E90023 		ldrd	r2, r3, [r0]
  87 0022 1A60     		str	r2, [r3]
  88              		.loc 4 692 0
  89 0024 0268     		ldr	r2, [r0]
  90 0026 5360     		str	r3, [r2, #4]
  91              	.LVL3:
  92              	.L2:
  93              	.LBE161:
  94              	.LBE160:
  95              		.loc 1 275 0
  96 0028 10B4     		push	{r4}
  97              		.cfi_def_cfa_offset 4
  98              		.cfi_offset 4, -4
  99              	.LBB162:
 100              	.LBB163:
 101              		.loc 1 227 0
 102 002a 0022     		movs	r2, #0
 103              	.LBE163:
 104              	.LBE162:
 105              		.loc 1 305 0
 106 002c 4FF0FF34 		mov	r4, #-1
 107              	.LBB165:
 108              	.LBB166:
 109              	.LBB167:
 110              	.LBB168:
 111              		.loc 1 231 0
 112 0030 8168     		ldr	r1, [r0, #8]
 113              		.loc 1 228 0
 114 0032 0B4B     		ldr	r3, .L15
ARM GAS  /tmp/ccDO8Csd.s 			page 3


 115              	.LBE168:
 116              	.LBE167:
 117              	.LBE166:
 118              	.LBE165:
 119              		.loc 1 305 0
 120 0034 8462     		str	r4, [r0, #40]
 121              	.LVL4:
 122              	.LBB177:
 123              	.LBB164:
 124              		.loc 1 227 0
 125 0036 80F82020 		strb	r2, [r0, #32]
 126              	.LVL5:
 127              	.L9:
 128              	.LBE164:
 129              	.LBE177:
 130              	.LBB178:
 131              	.LBB176:
 132              	.LBB170:
 133              	.LBB169:
 134              		.loc 1 230 0
 135 003a 1B68     		ldr	r3, [r3]
 136              	.LVL6:
 137              		.loc 1 231 0
 138 003c 9A68     		ldr	r2, [r3, #8]
 139 003e 8A42     		cmp	r2, r1
 140 0040 FBD2     		bcs	.L9
 141              		.loc 1 234 0
 142 0042 5A68     		ldr	r2, [r3, #4]
 143 0044 C0E90032 		strd	r3, r2, [r0]
 144              		.loc 1 235 0
 145 0048 1060     		str	r0, [r2]
 146              		.loc 1 236 0
 147 004a 5860     		str	r0, [r3, #4]
 148              	.LVL7:
 149              	.LBE169:
 150              	.LBE170:
 151              	.LBB171:
 152              	.LBB172:
 153              	.LBB173:
 154              	.LBB174:
 155              	.LBB175:
 156              		.loc 2 331 0
 157              		.syntax unified
 158              	@ 331 "ChibiOS_3.0.5/os/ext/CMSIS/include/core_cmFunc.h" 1
 159 004c 62B6     		cpsie i
 160              	@ 0 "" 2
 161              		.thumb
 162              		.syntax unified
 163              	.LBE175:
 164              	.LBE174:
 165              	.LBE173:
 166              	.LBE172:
 167              	.LBE171:
 168              	.LBE176:
 169              	.LBE178:
 170              		.loc 1 308 0
 171 004e 5DF8044B 		ldr	r4, [sp], #4
ARM GAS  /tmp/ccDO8Csd.s 			page 4


 172              		.cfi_restore 4
 173              		.cfi_def_cfa_offset 0
 174 0052 7047     		bx	lr
 175              	.LVL8:
 176              	.L5:
 177              		.loc 1 286 0
 178 0054 836A     		ldr	r3, [r0, #40]
 179 0056 0022     		movs	r2, #0
 180 0058 1A60     		str	r2, [r3]
 181              		.loc 1 287 0
 182 005a E5E7     		b	.L2
 183              	.L3:
 184              	.LBB179:
 185              	.LBB180:
 186              	.LBB181:
 187              	.LBB182:
 188              	.LBB183:
 189              		.loc 2 331 0
 190              		.syntax unified
 191              	@ 331 "ChibiOS_3.0.5/os/ext/CMSIS/include/core_cmFunc.h" 1
 192 005c 62B6     		cpsie i
 193              	@ 0 "" 2
 194              		.thumb
 195              		.syntax unified
 196 005e 7047     		bx	lr
 197              	.L16:
 198              		.align	2
 199              	.L15:
 200 0060 00000000 		.word	.LANCHOR0
 201              	.LBE183:
 202              	.LBE182:
 203              	.LBE181:
 204              	.LBE180:
 205              	.LBE179:
 206              		.cfi_endproc
 207              	.LFE222:
 208              		.size	wakeup, .-wakeup
 209              		.section	.text._scheduler_init,"ax",%progbits
 210              		.align	1
 211              		.p2align 4,,15
 212              		.global	_scheduler_init
 213              		.syntax unified
 214              		.thumb
 215              		.thumb_func
 216              		.fpu fpv4-sp-d16
 217              		.type	_scheduler_init, %function
 218              	_scheduler_init:
 219              	.LFB219:
 220              		.loc 1 65 0
 221              		.cfi_startproc
 222              		@ args = 0, pretend = 0, frame = 0
 223              		@ frame_needed = 0, uses_anonymous_args = 0
 224              		@ link register save eliminated.
 225              	.LVL9:
 226              	.LBB184:
 227              	.LBB185:
 228              		.loc 4 604 0
ARM GAS  /tmp/ccDO8Csd.s 			page 5


 229 0000 034B     		ldr	r3, .L18
 230              	.LBE185:
 231              	.LBE184:
 232              		.loc 1 68 0
 233 0002 0022     		movs	r2, #0
 234              	.LBB187:
 235              	.LBB186:
 236              		.loc 4 605 0
 237 0004 C3E90033 		strd	r3, r3, [r3]
 238              	.LVL10:
 239              	.LBE186:
 240              	.LBE187:
 241              		.loc 1 71 0
 242 0008 C3E90433 		strd	r3, r3, [r3, #16]
 243              		.loc 1 68 0
 244 000c 9A60     		str	r2, [r3, #8]
 245              		.loc 1 73 0
 246 000e 7047     		bx	lr
 247              	.L19:
 248              		.align	2
 249              	.L18:
 250 0010 00000000 		.word	.LANCHOR0
 251              		.cfi_endproc
 252              	.LFE219:
 253              		.size	_scheduler_init, .-_scheduler_init
 254              		.section	.text.chSchReadyI,"ax",%progbits
 255              		.align	1
 256              		.p2align 4,,15
 257              		.global	chSchReadyI
 258              		.syntax unified
 259              		.thumb
 260              		.thumb_func
 261              		.fpu fpv4-sp-d16
 262              		.type	chSchReadyI, %function
 263              	chSchReadyI:
 264              	.LFB220:
 265              		.loc 1 218 0
 266              		.cfi_startproc
 267              		@ args = 0, pretend = 0, frame = 0
 268              		@ frame_needed = 0, uses_anonymous_args = 0
 269              		@ link register save eliminated.
 270              	.LVL11:
 271              		.loc 1 218 0
 272 0000 0146     		mov	r1, r0
 273              		.loc 1 227 0
 274 0002 0022     		movs	r2, #0
 275              		.loc 1 228 0
 276 0004 074B     		ldr	r3, .L23
 277              		.loc 1 231 0
 278 0006 8068     		ldr	r0, [r0, #8]
 279              	.LVL12:
 280              		.loc 1 227 0
 281 0008 81F82020 		strb	r2, [r1, #32]
 282              	.LVL13:
 283              	.L21:
 284              		.loc 1 230 0 discriminator 1
 285 000c 1B68     		ldr	r3, [r3]
ARM GAS  /tmp/ccDO8Csd.s 			page 6


 286              	.LVL14:
 287              		.loc 1 231 0 discriminator 1
 288 000e 9A68     		ldr	r2, [r3, #8]
 289 0010 8242     		cmp	r2, r0
 290 0012 FBD2     		bcs	.L21
 291              		.loc 1 234 0
 292 0014 5A68     		ldr	r2, [r3, #4]
 293              		.loc 1 239 0
 294 0016 0846     		mov	r0, r1
 295              		.loc 1 234 0
 296 0018 C1E90032 		strd	r3, r2, [r1]
 297              		.loc 1 235 0
 298 001c 1160     		str	r1, [r2]
 299              		.loc 1 236 0
 300 001e 5960     		str	r1, [r3, #4]
 301              		.loc 1 239 0
 302 0020 7047     		bx	lr
 303              	.L24:
 304 0022 00BF     		.align	2
 305              	.L23:
 306 0024 00000000 		.word	.LANCHOR0
 307              		.cfi_endproc
 308              	.LFE220:
 309              		.size	chSchReadyI, .-chSchReadyI
 310              		.section	.text.chSchGoSleepS,"ax",%progbits
 311              		.align	1
 312              		.p2align 4,,15
 313              		.global	chSchGoSleepS
 314              		.syntax unified
 315              		.thumb
 316              		.thumb_func
 317              		.fpu fpv4-sp-d16
 318              		.type	chSchGoSleepS, %function
 319              	chSchGoSleepS:
 320              	.LFB221:
 321              		.loc 1 250 0
 322              		.cfi_startproc
 323              		@ args = 0, pretend = 0, frame = 0
 324              		@ frame_needed = 0, uses_anonymous_args = 0
 325              	.LVL15:
 326 0000 38B5     		push	{r3, r4, r5, lr}
 327              		.cfi_def_cfa_offset 16
 328              		.cfi_offset 3, -16
 329              		.cfi_offset 4, -12
 330              		.cfi_offset 5, -8
 331              		.cfi_offset 14, -4
 332              		.loc 1 255 0
 333 0002 0F4C     		ldr	r4, .L28
 334 0004 A569     		ldr	r5, [r4, #24]
 335              	.LVL16:
 336              	.LBB188:
 337              	.LBB189:
 338              		.loc 4 672 0
 339 0006 2368     		ldr	r3, [r4]
 340              	.LBE189:
 341              	.LBE188:
 342              		.loc 1 256 0
ARM GAS  /tmp/ccDO8Csd.s 			page 7


 343 0008 85F82000 		strb	r0, [r5, #32]
 344              		.loc 1 260 0
 345 000c 0422     		movs	r2, #4
 346 000e 85F82320 		strb	r2, [r5, #35]
 347              	.LVL17:
 348              	.LBB192:
 349              	.LBB190:
 350              		.loc 4 674 0
 351 0012 1A68     		ldr	r2, [r3]
 352 0014 2260     		str	r2, [r4]
 353              	.LBE190:
 354              	.LBE192:
 355              		.loc 1 268 0
 356 0016 0121     		movs	r1, #1
 357              	.LBB193:
 358              	.LBB191:
 359              		.loc 4 675 0
 360 0018 5460     		str	r4, [r2, #4]
 361              	.LVL18:
 362              	.LBE191:
 363              	.LBE193:
 364              		.loc 1 262 0
 365 001a A361     		str	r3, [r4, #24]
 366              		.loc 1 268 0
 367 001c 83F82010 		strb	r1, [r3, #32]
 368              	.LBB194:
 369              	.LBB195:
 370              	.LBB196:
 371              		.loc 2 428 0
 372              		.syntax unified
 373              	@ 428 "ChibiOS_3.0.5/os/ext/CMSIS/include/core_cmFunc.h" 1
 374 0020 EFF30982 		MRS r2, psp
 375              	
 376              	@ 0 "" 2
 377              	.LVL19:
 378              		.thumb
 379              		.syntax unified
 380              	.LBE196:
 381              	.LBE195:
 382              		.loc 1 269 0
 383 0024 E969     		ldr	r1, [r5, #28]
 384 0026 643A     		subs	r2, r2, #100
 385              	.LVL20:
 386 0028 9142     		cmp	r1, r2
 387 002a 03D9     		bls	.L26
 388              		.loc 1 269 0 is_stmt 0 discriminator 1
 389 002c 0548     		ldr	r0, .L28+4
 390              	.LVL21:
 391 002e FFF7FEFF 		bl	chSysHalt
 392              	.LVL22:
 393 0032 A369     		ldr	r3, [r4, #24]
 394              	.L26:
 395              		.loc 1 269 0 discriminator 3
 396 0034 2946     		mov	r1, r5
 397 0036 1846     		mov	r0, r3
 398              	.LBE194:
 399              		.loc 1 270 0 is_stmt 1 discriminator 3
ARM GAS  /tmp/ccDO8Csd.s 			page 8


 400 0038 BDE83840 		pop	{r3, r4, r5, lr}
 401              		.cfi_restore 14
 402              		.cfi_restore 5
 403              		.cfi_restore 4
 404              		.cfi_restore 3
 405              		.cfi_def_cfa_offset 0
 406              	.LVL23:
 407              	.LBB197:
 408              		.loc 1 269 0 discriminator 3
 409 003c FFF7FEBF 		b	_port_switch
 410              	.LVL24:
 411              	.L29:
 412              		.align	2
 413              	.L28:
 414 0040 00000000 		.word	.LANCHOR0
 415 0044 00000000 		.word	.LC0
 416              	.LBE197:
 417              		.cfi_endproc
 418              	.LFE221:
 419              		.size	chSchGoSleepS, .-chSchGoSleepS
 420              		.section	.text.chSchGoSleepTimeoutS,"ax",%progbits
 421              		.align	1
 422              		.p2align 4,,15
 423              		.global	chSchGoSleepTimeoutS
 424              		.syntax unified
 425              		.thumb
 426              		.thumb_func
 427              		.fpu fpv4-sp-d16
 428              		.type	chSchGoSleepTimeoutS, %function
 429              	chSchGoSleepTimeoutS:
 430              	.LFB223:
 431              		.loc 1 331 0
 432              		.cfi_startproc
 433              		@ args = 0, pretend = 0, frame = 24
 434              		@ frame_needed = 0, uses_anonymous_args = 0
 435              	.LVL25:
 436 0000 30B5     		push	{r4, r5, lr}
 437              		.cfi_def_cfa_offset 12
 438              		.cfi_offset 4, -12
 439              		.cfi_offset 5, -8
 440              		.cfi_offset 14, -4
 441              		.loc 1 335 0
 442 0002 4B1C     		adds	r3, r1, #1
 443              		.loc 1 331 0
 444 0004 87B0     		sub	sp, sp, #28
 445              		.cfi_def_cfa_offset 40
 446              		.loc 1 335 0
 447 0006 12D0     		beq	.L31
 448              	.LBB198:
 449              		.loc 1 338 0
 450 0008 0C4C     		ldr	r4, .L38
 451 000a 0D4A     		ldr	r2, .L38+4
 452 000c A369     		ldr	r3, [r4, #24]
 453 000e 0546     		mov	r5, r0
 454 0010 01A8     		add	r0, sp, #4
 455              	.LVL26:
 456 0012 FFF7FEFF 		bl	chVTDoSetI
ARM GAS  /tmp/ccDO8Csd.s 			page 9


 457              	.LVL27:
 458              		.loc 1 339 0
 459 0016 2846     		mov	r0, r5
 460 0018 FFF7FEFF 		bl	chSchGoSleepS
 461              	.LVL28:
 462              		.loc 1 340 0
 463 001c 049B     		ldr	r3, [sp, #16]
 464 001e 13B1     		cbz	r3, .L33
 465              		.loc 1 341 0
 466 0020 01A8     		add	r0, sp, #4
 467              	.LVL29:
 468 0022 FFF7FEFF 		bl	chVTDoResetI
 469              	.LVL30:
 470              	.L33:
 471              	.LBE198:
 472              		.loc 1 348 0
 473 0026 A369     		ldr	r3, [r4, #24]
 474              		.loc 1 349 0
 475 0028 986A     		ldr	r0, [r3, #40]
 476 002a 07B0     		add	sp, sp, #28
 477              		.cfi_remember_state
 478              		.cfi_def_cfa_offset 12
 479              		@ sp needed
 480 002c 30BD     		pop	{r4, r5, pc}
 481              	.LVL31:
 482              	.L31:
 483              		.cfi_restore_state
 484 002e 034C     		ldr	r4, .L38
 485              		.loc 1 345 0
 486 0030 FFF7FEFF 		bl	chSchGoSleepS
 487              	.LVL32:
 488              		.loc 1 348 0
 489 0034 A369     		ldr	r3, [r4, #24]
 490              		.loc 1 349 0
 491 0036 986A     		ldr	r0, [r3, #40]
 492 0038 07B0     		add	sp, sp, #28
 493              		.cfi_def_cfa_offset 12
 494              		@ sp needed
 495 003a 30BD     		pop	{r4, r5, pc}
 496              	.L39:
 497              		.align	2
 498              	.L38:
 499 003c 00000000 		.word	.LANCHOR0
 500 0040 00000000 		.word	wakeup
 501              		.cfi_endproc
 502              	.LFE223:
 503              		.size	chSchGoSleepTimeoutS, .-chSchGoSleepTimeoutS
 504              		.section	.text.chSchWakeupS,"ax",%progbits
 505              		.align	1
 506              		.p2align 4,,15
 507              		.global	chSchWakeupS
 508              		.syntax unified
 509              		.thumb
 510              		.thumb_func
 511              		.fpu fpv4-sp-d16
 512              		.type	chSchWakeupS, %function
 513              	chSchWakeupS:
ARM GAS  /tmp/ccDO8Csd.s 			page 10


 514              	.LFB224:
 515              		.loc 1 368 0
 516              		.cfi_startproc
 517              		@ args = 0, pretend = 0, frame = 0
 518              		@ frame_needed = 0, uses_anonymous_args = 0
 519              	.LVL33:
 520              		.loc 1 380 0
 521 0000 1D4B     		ldr	r3, .L51
 522              		.loc 1 368 0
 523 0002 70B5     		push	{r4, r5, r6, lr}
 524              		.cfi_def_cfa_offset 16
 525              		.cfi_offset 4, -16
 526              		.cfi_offset 5, -12
 527              		.cfi_offset 6, -8
 528              		.cfi_offset 14, -4
 529              		.loc 1 380 0
 530 0004 9D69     		ldr	r5, [r3, #24]
 531 0006 8668     		ldr	r6, [r0, #8]
 532 0008 AC68     		ldr	r4, [r5, #8]
 533              		.loc 1 374 0
 534 000a 8162     		str	r1, [r0, #40]
 535              		.loc 1 380 0
 536 000c A642     		cmp	r6, r4
 537              	.LBB199:
 538              	.LBB200:
 539              		.loc 1 227 0
 540 000e 4FF00002 		mov	r2, #0
 541              	.LBE200:
 542              	.LBE199:
 543              		.loc 1 380 0
 544 0012 0BD8     		bhi	.L41
 545              	.LVL34:
 546              	.LBB202:
 547              	.LBB201:
 548              		.loc 1 227 0
 549 0014 80F82020 		strb	r2, [r0, #32]
 550              	.LVL35:
 551              	.L42:
 552              		.loc 1 230 0
 553 0018 1B68     		ldr	r3, [r3]
 554              	.LVL36:
 555              		.loc 1 231 0
 556 001a 9A68     		ldr	r2, [r3, #8]
 557 001c 9642     		cmp	r6, r2
 558 001e FBD9     		bls	.L42
 559              		.loc 1 234 0
 560 0020 5A68     		ldr	r2, [r3, #4]
 561 0022 C0E90032 		strd	r3, r2, [r0]
 562              		.loc 1 235 0
 563 0026 1060     		str	r0, [r2]
 564              		.loc 1 236 0
 565 0028 5860     		str	r0, [r3, #4]
 566              	.LBE201:
 567              	.LBE202:
 568              		.loc 1 394 0
 569 002a 70BD     		pop	{r4, r5, r6, pc}
 570              	.LVL37:
ARM GAS  /tmp/ccDO8Csd.s 			page 11


 571              	.L41:
 572              	.LBB203:
 573              	.LBB204:
 574              	.LBB205:
 575              		.loc 1 227 0
 576 002c 85F82020 		strb	r2, [r5, #32]
 577              	.LVL38:
 578              		.loc 1 228 0
 579 0030 1A46     		mov	r2, r3
 580              	.LVL39:
 581              	.L44:
 582              		.loc 1 230 0
 583 0032 1268     		ldr	r2, [r2]
 584              	.LVL40:
 585              		.loc 1 231 0
 586 0034 9168     		ldr	r1, [r2, #8]
 587 0036 8C42     		cmp	r4, r1
 588 0038 FBD9     		bls	.L44
 589              		.loc 1 234 0
 590 003a 5168     		ldr	r1, [r2, #4]
 591 003c 6960     		str	r1, [r5, #4]
 592 003e 0446     		mov	r4, r0
 593              	.LBE205:
 594              	.LBE204:
 595              		.loc 1 391 0
 596 0040 0120     		movs	r0, #1
 597              	.LVL41:
 598              	.LBB207:
 599              	.LBB206:
 600              		.loc 1 233 0
 601 0042 2A60     		str	r2, [r5]
 602              		.loc 1 235 0
 603 0044 0D60     		str	r5, [r1]
 604              		.loc 1 236 0
 605 0046 5560     		str	r5, [r2, #4]
 606              	.LVL42:
 607              	.LBE206:
 608              	.LBE207:
 609              		.loc 1 385 0
 610 0048 9C61     		str	r4, [r3, #24]
 611              		.loc 1 391 0
 612 004a 84F82000 		strb	r0, [r4, #32]
 613              	.LBB208:
 614              	.LBB209:
 615              	.LBB210:
 616              		.loc 2 428 0
 617              		.syntax unified
 618              	@ 428 "ChibiOS_3.0.5/os/ext/CMSIS/include/core_cmFunc.h" 1
 619 004e EFF30983 		MRS r3, psp
 620              	
 621              	@ 0 "" 2
 622              	.LVL43:
 623              		.thumb
 624              		.syntax unified
 625              	.LBE210:
 626              	.LBE209:
 627              		.loc 1 392 0
ARM GAS  /tmp/ccDO8Csd.s 			page 12


 628 0052 EA69     		ldr	r2, [r5, #28]
 629 0054 643B     		subs	r3, r3, #100
 630              	.LVL44:
 631 0056 9A42     		cmp	r2, r3
 632 0058 05D8     		bhi	.L50
 633              		.loc 1 392 0 is_stmt 0 discriminator 3
 634 005a 2946     		mov	r1, r5
 635 005c 2046     		mov	r0, r4
 636              	.LBE208:
 637              	.LBE203:
 638              		.loc 1 394 0 is_stmt 1 discriminator 3
 639 005e BDE87040 		pop	{r4, r5, r6, lr}
 640              		.cfi_remember_state
 641              		.cfi_restore 14
 642              		.cfi_restore 6
 643              		.cfi_restore 5
 644              		.cfi_restore 4
 645              		.cfi_def_cfa_offset 0
 646              	.LVL45:
 647              	.LBB213:
 648              	.LBB211:
 649              		.loc 1 392 0 discriminator 3
 650 0062 FFF7FEBF 		b	_port_switch
 651              	.LVL46:
 652              	.L50:
 653              		.cfi_restore_state
 654              		.loc 1 392 0 is_stmt 0 discriminator 1
 655 0066 0548     		ldr	r0, .L51+4
 656 0068 FFF7FEFF 		bl	chSysHalt
 657              	.LVL47:
 658 006c 2946     		mov	r1, r5
 659 006e 2046     		mov	r0, r4
 660              	.LBE211:
 661              	.LBE213:
 662              		.loc 1 394 0 is_stmt 1 discriminator 1
 663 0070 BDE87040 		pop	{r4, r5, r6, lr}
 664              		.cfi_restore 14
 665              		.cfi_restore 6
 666              		.cfi_restore 5
 667              		.cfi_restore 4
 668              		.cfi_def_cfa_offset 0
 669              	.LVL48:
 670              	.LBB214:
 671              	.LBB212:
 672              		.loc 1 392 0 discriminator 1
 673 0074 FFF7FEBF 		b	_port_switch
 674              	.LVL49:
 675              	.L52:
 676              		.align	2
 677              	.L51:
 678 0078 00000000 		.word	.LANCHOR0
 679 007c 00000000 		.word	.LC0
 680              	.LBE212:
 681              	.LBE214:
 682              		.cfi_endproc
 683              	.LFE224:
 684              		.size	chSchWakeupS, .-chSchWakeupS
ARM GAS  /tmp/ccDO8Csd.s 			page 13


 685              		.section	.text.chSchIsPreemptionRequired,"ax",%progbits
 686              		.align	1
 687              		.p2align 4,,15
 688              		.global	chSchIsPreemptionRequired
 689              		.syntax unified
 690              		.thumb
 691              		.thumb_func
 692              		.fpu fpv4-sp-d16
 693              		.type	chSchIsPreemptionRequired, %function
 694              	chSchIsPreemptionRequired:
 695              	.LFB226:
 696              		.loc 1 425 0
 697              		.cfi_startproc
 698              		@ args = 0, pretend = 0, frame = 0
 699              		@ frame_needed = 0, uses_anonymous_args = 0
 700              		@ link register save eliminated.
 701              		.loc 1 426 0
 702 0000 084A     		ldr	r2, .L57
 703              		.loc 1 427 0
 704 0002 9369     		ldr	r3, [r2, #24]
 705              		.loc 1 426 0
 706 0004 1168     		ldr	r1, [r2]
 707              		.loc 1 434 0
 708 0006 93F82320 		ldrb	r2, [r3, #35]	@ zero_extendqisi2
 709              		.loc 1 426 0
 710 000a 8868     		ldr	r0, [r1, #8]
 711              	.LVL50:
 712              		.loc 1 427 0
 713 000c 9B68     		ldr	r3, [r3, #8]
 714              	.LVL51:
 715              		.loc 1 434 0
 716 000e 22B9     		cbnz	r2, .L56
 717              		.loc 1 434 0 is_stmt 0 discriminator 2
 718 0010 9842     		cmp	r0, r3
 719 0012 34BF     		ite	cc
 720 0014 0020     		movcc	r0, #0
 721              	.LVL52:
 722 0016 0120     		movcs	r0, #1
 723              		.loc 1 440 0 is_stmt 1 discriminator 2
 724 0018 7047     		bx	lr
 725              	.LVL53:
 726              	.L56:
 727              		.loc 1 434 0 discriminator 1
 728 001a 9842     		cmp	r0, r3
 729 001c 94BF     		ite	ls
 730 001e 0020     		movls	r0, #0
 731              	.LVL54:
 732 0020 0120     		movhi	r0, #1
 733 0022 7047     		bx	lr
 734              	.L58:
 735              		.align	2
 736              	.L57:
 737 0024 00000000 		.word	.LANCHOR0
 738              		.cfi_endproc
 739              	.LFE226:
 740              		.size	chSchIsPreemptionRequired, .-chSchIsPreemptionRequired
 741              		.section	.text.chSchDoRescheduleBehind,"ax",%progbits
ARM GAS  /tmp/ccDO8Csd.s 			page 14


 742              		.align	1
 743              		.p2align 4,,15
 744              		.global	chSchDoRescheduleBehind
 745              		.syntax unified
 746              		.thumb
 747              		.thumb_func
 748              		.fpu fpv4-sp-d16
 749              		.type	chSchDoRescheduleBehind, %function
 750              	chSchDoRescheduleBehind:
 751              	.LFB227:
 752              		.loc 1 452 0
 753              		.cfi_startproc
 754              		@ args = 0, pretend = 0, frame = 0
 755              		@ frame_needed = 0, uses_anonymous_args = 0
 756              		.loc 1 455 0
 757 0000 154B     		ldr	r3, .L64
 758              	.LBB215:
 759              	.LBB216:
 760              		.loc 4 672 0
 761 0002 1A68     		ldr	r2, [r3]
 762              	.LBE216:
 763              	.LBE215:
 764              		.loc 1 452 0
 765 0004 70B5     		push	{r4, r5, r6, lr}
 766              		.cfi_def_cfa_offset 16
 767              		.cfi_offset 4, -16
 768              		.cfi_offset 5, -12
 769              		.cfi_offset 6, -8
 770              		.cfi_offset 14, -4
 771              	.LBB220:
 772              	.LBB217:
 773              		.loc 4 674 0
 774 0006 1068     		ldr	r0, [r2]
 775              	.LBE217:
 776              	.LBE220:
 777              		.loc 1 455 0
 778 0008 9C69     		ldr	r4, [r3, #24]
 779              	.LVL55:
 780              	.LBB221:
 781              	.LBB218:
 782              		.loc 4 674 0
 783 000a 1860     		str	r0, [r3]
 784              	.LBE218:
 785              	.LBE221:
 786              		.loc 1 459 0
 787 000c A168     		ldr	r1, [r4, #8]
 788              	.LBB222:
 789              	.LBB219:
 790              		.loc 4 675 0
 791 000e 4360     		str	r3, [r0, #4]
 792              	.LVL56:
 793              	.LBE219:
 794              	.LBE222:
 795              	.LBB223:
 796              	.LBB224:
 797              		.loc 1 228 0
 798 0010 1D46     		mov	r5, r3
ARM GAS  /tmp/ccDO8Csd.s 			page 15


 799              	.LBE224:
 800              	.LBE223:
 801              		.loc 1 463 0
 802 0012 0126     		movs	r6, #1
 803              		.loc 1 457 0
 804 0014 9A61     		str	r2, [r3, #24]
 805              		.loc 1 465 0
 806 0016 0420     		movs	r0, #4
 807              	.LBB228:
 808              	.LBB225:
 809              		.loc 1 227 0
 810 0018 0023     		movs	r3, #0
 811              	.LBE225:
 812              	.LBE228:
 813              		.loc 1 463 0
 814 001a 82F82060 		strb	r6, [r2, #32]
 815              	.LBB229:
 816              	.LBB226:
 817              		.loc 1 227 0
 818 001e 84F82030 		strb	r3, [r4, #32]
 819              	.LBE226:
 820              	.LBE229:
 821              		.loc 1 465 0
 822 0022 84F82300 		strb	r0, [r4, #35]
 823              	.LVL57:
 824              	.LBB230:
 825              	.LBB227:
 826              		.loc 1 228 0
 827 0026 2B46     		mov	r3, r5
 828              	.LVL58:
 829              	.L60:
 830              		.loc 1 230 0
 831 0028 1B68     		ldr	r3, [r3]
 832              	.LVL59:
 833              		.loc 1 231 0
 834 002a 9A68     		ldr	r2, [r3, #8]
 835 002c 9142     		cmp	r1, r2
 836 002e FBD9     		bls	.L60
 837              		.loc 1 234 0
 838 0030 5A68     		ldr	r2, [r3, #4]
 839 0032 C4E90032 		strd	r3, r2, [r4]
 840              		.loc 1 235 0
 841 0036 1460     		str	r4, [r2]
 842              		.loc 1 236 0
 843 0038 5C60     		str	r4, [r3, #4]
 844              	.LVL60:
 845              	.LBE227:
 846              	.LBE230:
 847              	.LBB231:
 848              	.LBB232:
 849              	.LBB233:
 850              		.loc 2 428 0
 851              		.syntax unified
 852              	@ 428 "ChibiOS_3.0.5/os/ext/CMSIS/include/core_cmFunc.h" 1
 853 003a EFF30983 		MRS r3, psp
 854              	
 855              	@ 0 "" 2
ARM GAS  /tmp/ccDO8Csd.s 			page 16


 856              	.LVL61:
 857              		.thumb
 858              		.syntax unified
 859              	.LBE233:
 860              	.LBE232:
 861              		.loc 1 468 0
 862 003e E269     		ldr	r2, [r4, #28]
 863 0040 643B     		subs	r3, r3, #100
 864              	.LVL62:
 865 0042 9A42     		cmp	r2, r3
 866 0044 02D9     		bls	.L61
 867              		.loc 1 468 0 is_stmt 0 discriminator 1
 868 0046 0548     		ldr	r0, .L64+4
 869 0048 FFF7FEFF 		bl	chSysHalt
 870              	.LVL63:
 871              	.L61:
 872              		.loc 1 468 0 discriminator 3
 873 004c 2146     		mov	r1, r4
 874 004e A869     		ldr	r0, [r5, #24]
 875              	.LBE231:
 876              		.loc 1 469 0 is_stmt 1 discriminator 3
 877 0050 BDE87040 		pop	{r4, r5, r6, lr}
 878              		.cfi_restore 14
 879              		.cfi_restore 6
 880              		.cfi_restore 5
 881              		.cfi_restore 4
 882              		.cfi_def_cfa_offset 0
 883              	.LVL64:
 884              	.LBB234:
 885              		.loc 1 468 0 discriminator 3
 886 0054 FFF7FEBF 		b	_port_switch
 887              	.LVL65:
 888              	.L65:
 889              		.align	2
 890              	.L64:
 891 0058 00000000 		.word	.LANCHOR0
 892 005c 00000000 		.word	.LC0
 893              	.LBE234:
 894              		.cfi_endproc
 895              	.LFE227:
 896              		.size	chSchDoRescheduleBehind, .-chSchDoRescheduleBehind
 897              		.section	.text.chSchDoRescheduleAhead,"ax",%progbits
 898              		.align	1
 899              		.p2align 4,,15
 900              		.global	chSchDoRescheduleAhead
 901              		.syntax unified
 902              		.thumb
 903              		.thumb_func
 904              		.fpu fpv4-sp-d16
 905              		.type	chSchDoRescheduleAhead, %function
 906              	chSchDoRescheduleAhead:
 907              	.LFB228:
 908              		.loc 1 480 0
 909              		.cfi_startproc
 910              		@ args = 0, pretend = 0, frame = 0
 911              		@ frame_needed = 0, uses_anonymous_args = 0
 912              		.loc 1 483 0
ARM GAS  /tmp/ccDO8Csd.s 			page 17


 913 0000 134B     		ldr	r3, .L71
 914              	.LBB235:
 915              	.LBB236:
 916              		.loc 4 672 0
 917 0002 1A68     		ldr	r2, [r3]
 918              	.LBE236:
 919              	.LBE235:
 920              		.loc 1 480 0
 921 0004 70B5     		push	{r4, r5, r6, lr}
 922              		.cfi_def_cfa_offset 16
 923              		.cfi_offset 4, -16
 924              		.cfi_offset 5, -12
 925              		.cfi_offset 6, -8
 926              		.cfi_offset 14, -4
 927              	.LBB240:
 928              	.LBB237:
 929              		.loc 4 674 0
 930 0006 1068     		ldr	r0, [r2]
 931              	.LBE237:
 932              	.LBE240:
 933              		.loc 1 483 0
 934 0008 9C69     		ldr	r4, [r3, #24]
 935              	.LVL66:
 936              	.LBB241:
 937              	.LBB238:
 938              		.loc 4 674 0
 939 000a 1860     		str	r0, [r3]
 940              	.LBE238:
 941              	.LBE241:
 942              		.loc 1 487 0
 943 000c A168     		ldr	r1, [r4, #8]
 944              	.LBB242:
 945              	.LBB239:
 946              		.loc 4 675 0
 947 000e 4360     		str	r3, [r0, #4]
 948              	.LVL67:
 949              	.LBE239:
 950              	.LBE242:
 951              		.loc 1 491 0
 952 0010 0126     		movs	r6, #1
 953              		.loc 1 493 0
 954 0012 0020     		movs	r0, #0
 955              		.loc 1 491 0
 956 0014 82F82060 		strb	r6, [r2, #32]
 957              		.loc 1 494 0
 958 0018 1D46     		mov	r5, r3
 959              		.loc 1 485 0
 960 001a 9A61     		str	r2, [r3, #24]
 961              		.loc 1 493 0
 962 001c 84F82000 		strb	r0, [r4, #32]
 963              	.LVL68:
 964              	.L67:
 965              		.loc 1 496 0 discriminator 1
 966 0020 1B68     		ldr	r3, [r3]
 967              	.LVL69:
 968              		.loc 1 497 0 discriminator 1
 969 0022 9A68     		ldr	r2, [r3, #8]
ARM GAS  /tmp/ccDO8Csd.s 			page 18


 970 0024 9142     		cmp	r1, r2
 971 0026 FBD3     		bcc	.L67
 972              		.loc 1 500 0
 973 0028 5A68     		ldr	r2, [r3, #4]
 974 002a C4E90032 		strd	r3, r2, [r4]
 975              		.loc 1 501 0
 976 002e 1460     		str	r4, [r2]
 977              		.loc 1 502 0
 978 0030 5C60     		str	r4, [r3, #4]
 979              	.LBB243:
 980              	.LBB244:
 981              	.LBB245:
 982              		.loc 2 428 0
 983              		.syntax unified
 984              	@ 428 "ChibiOS_3.0.5/os/ext/CMSIS/include/core_cmFunc.h" 1
 985 0032 EFF30983 		MRS r3, psp
 986              	
 987              	@ 0 "" 2
 988              	.LVL70:
 989              		.thumb
 990              		.syntax unified
 991              	.LBE245:
 992              	.LBE244:
 993              		.loc 1 504 0
 994 0036 E269     		ldr	r2, [r4, #28]
 995 0038 643B     		subs	r3, r3, #100
 996              	.LVL71:
 997 003a 9A42     		cmp	r2, r3
 998 003c 02D9     		bls	.L68
 999              		.loc 1 504 0 is_stmt 0 discriminator 1
 1000 003e 0548     		ldr	r0, .L71+4
 1001 0040 FFF7FEFF 		bl	chSysHalt
 1002              	.LVL72:
 1003              	.L68:
 1004              		.loc 1 504 0 discriminator 3
 1005 0044 2146     		mov	r1, r4
 1006 0046 A869     		ldr	r0, [r5, #24]
 1007              	.LBE243:
 1008              		.loc 1 505 0 is_stmt 1 discriminator 3
 1009 0048 BDE87040 		pop	{r4, r5, r6, lr}
 1010              		.cfi_restore 14
 1011              		.cfi_restore 6
 1012              		.cfi_restore 5
 1013              		.cfi_restore 4
 1014              		.cfi_def_cfa_offset 0
 1015              	.LVL73:
 1016              	.LBB246:
 1017              		.loc 1 504 0 discriminator 3
 1018 004c FFF7FEBF 		b	_port_switch
 1019              	.LVL74:
 1020              	.L72:
 1021              		.align	2
 1022              	.L71:
 1023 0050 00000000 		.word	.LANCHOR0
 1024 0054 00000000 		.word	.LC0
 1025              	.LBE246:
 1026              		.cfi_endproc
ARM GAS  /tmp/ccDO8Csd.s 			page 19


 1027              	.LFE228:
 1028              		.size	chSchDoRescheduleAhead, .-chSchDoRescheduleAhead
 1029              		.section	.text.chSchRescheduleS,"ax",%progbits
 1030              		.align	1
 1031              		.p2align 4,,15
 1032              		.global	chSchRescheduleS
 1033              		.syntax unified
 1034              		.thumb
 1035              		.thumb_func
 1036              		.fpu fpv4-sp-d16
 1037              		.type	chSchRescheduleS, %function
 1038              	chSchRescheduleS:
 1039              	.LFB225:
 1040              		.loc 1 403 0
 1041              		.cfi_startproc
 1042              		@ args = 0, pretend = 0, frame = 0
 1043              		@ frame_needed = 0, uses_anonymous_args = 0
 1044              		@ link register save eliminated.
 1045              	.LBB247:
 1046              	.LBB248:
 1047              		.loc 4 713 0
 1048 0000 044B     		ldr	r3, .L76
 1049 0002 1A68     		ldr	r2, [r3]
 1050 0004 9B69     		ldr	r3, [r3, #24]
 1051              	.LBE248:
 1052              	.LBE247:
 1053              		.loc 1 407 0
 1054 0006 9268     		ldr	r2, [r2, #8]
 1055 0008 9B68     		ldr	r3, [r3, #8]
 1056 000a 9A42     		cmp	r2, r3
 1057 000c 00D8     		bhi	.L75
 1058              		.loc 1 410 0
 1059 000e 7047     		bx	lr
 1060              	.L75:
 1061              		.loc 1 408 0
 1062 0010 FFF7FEBF 		b	chSchDoRescheduleAhead
 1063              	.LVL75:
 1064              	.L77:
 1065              		.align	2
 1066              	.L76:
 1067 0014 00000000 		.word	.LANCHOR0
 1068              		.cfi_endproc
 1069              	.LFE225:
 1070              		.size	chSchRescheduleS, .-chSchRescheduleS
 1071              		.section	.text.chSchDoReschedule,"ax",%progbits
 1072              		.align	1
 1073              		.p2align 4,,15
 1074              		.global	chSchDoReschedule
 1075              		.syntax unified
 1076              		.thumb
 1077              		.thumb_func
 1078              		.fpu fpv4-sp-d16
 1079              		.type	chSchDoReschedule, %function
 1080              	chSchDoReschedule:
 1081              	.LFB229:
 1082              		.loc 1 517 0
 1083              		.cfi_startproc
ARM GAS  /tmp/ccDO8Csd.s 			page 20


 1084              		@ args = 0, pretend = 0, frame = 0
 1085              		@ frame_needed = 0, uses_anonymous_args = 0
 1086              		@ link register save eliminated.
 1087              		.loc 1 522 0
 1088 0000 044B     		ldr	r3, .L81
 1089 0002 9B69     		ldr	r3, [r3, #24]
 1090 0004 93F82330 		ldrb	r3, [r3, #35]	@ zero_extendqisi2
 1091 0008 0BB1     		cbz	r3, .L80
 1092              		.loc 1 530 0
 1093 000a FFF7FEBF 		b	chSchDoRescheduleAhead
 1094              	.LVL76:
 1095              	.L80:
 1096              		.loc 1 525 0
 1097 000e FFF7FEBF 		b	chSchDoRescheduleBehind
 1098              	.LVL77:
 1099              	.L82:
 1100 0012 00BF     		.align	2
 1101              	.L81:
 1102 0014 00000000 		.word	.LANCHOR0
 1103              		.cfi_endproc
 1104              	.LFE229:
 1105              		.size	chSchDoReschedule, .-chSchDoReschedule
 1106              		.global	ch
 1107              		.section	.bss.ch,"aw",%nobits
 1108              		.align	3
 1109              		.set	.LANCHOR0,. + 0
 1110              		.type	ch, %object
 1111              		.size	ch, 616
 1112              	ch:
 1113 0000 00000000 		.space	616
 1113      00000000 
 1113      00000000 
 1113      00000000 
 1113      00000000 
 1114              		.section	.rodata.chSchGoSleepS.str1.4,"aMS",%progbits,1
 1115              		.align	2
 1116              	.LC0:
 1117 0000 73746163 		.ascii	"stack overflow\000"
 1117      6B206F76 
 1117      6572666C 
 1117      6F7700
 1118              		.text
 1119              	.Letext0:
 1120              		.file 5 "/usr/lib/gcc/arm-none-eabi/7.3.1/include/stddef.h"
 1121              		.file 6 "/usr/arm-none-eabi/include/machine/_default_types.h"
 1122              		.file 7 "/usr/arm-none-eabi/include/sys/_stdint.h"
 1123              		.file 8 "ChibiOS_3.0.5/os/rt/ports/ARMCMx/compilers/GCC/chtypes.h"
 1124              		.file 9 "ChibiOS_3.0.5/os/rt/include/chsystypes.h"
 1125              		.file 10 "ChibiOS_3.0.5/os/ext/CMSIS/include/core_cm4.h"
 1126              		.file 11 "ChibiOS_3.0.5/os/ext/CMSIS/ST/system_stm32f4xx.h"
 1127              		.file 12 "ChibiOS_3.0.5/os/rt/ports/ARMCMx/chcore.h"
 1128              		.file 13 "ChibiOS_3.0.5/os/rt/ports/ARMCMx/chcore_v7m.h"
 1129              		.file 14 "ChibiOS_3.0.5/os/rt/include/chtm.h"
 1130              		.file 15 "ChibiOS_3.0.5/os/rt/include/chmtx.h"
 1131              		.file 16 "ChibiOS_3.0.5/os/rt/include/chregistry.h"
 1132              		.file 17 "ChibiOS_3.0.5/os/rt/include/chvt.h"
 1133              		.file 18 "ChibiOS_3.0.5/os/rt/include/chsys.h"
ARM GAS  /tmp/ccDO8Csd.s 			page 21

