ARM GAS  /tmp/ccEshaLd.s 			page 1


   1              		.cpu cortex-m4
   2              		.eabi_attribute 27, 1
   3              		.eabi_attribute 28, 1
   4              		.eabi_attribute 20, 1
   5              		.eabi_attribute 21, 1
   6              		.eabi_attribute 23, 3
   7              		.eabi_attribute 24, 1
   8              		.eabi_attribute 25, 1
   9              		.eabi_attribute 26, 1
  10              		.eabi_attribute 30, 2
  11              		.eabi_attribute 34, 1
  12              		.eabi_attribute 18, 4
  13              		.file	"chsem.c"
  14              		.text
  15              	.Ltext0:
  16              		.cfi_sections	.debug_frame
  17              		.section	.text.chSemObjectInit,"ax",%progbits
  18              		.align	1
  19              		.p2align 4,,15
  20              		.global	chSemObjectInit
  21              		.syntax unified
  22              		.thumb
  23              		.thumb_func
  24              		.fpu fpv4-sp-d16
  25              		.type	chSemObjectInit, %function
  26              	chSemObjectInit:
  27              	.LFB219:
  28              		.file 1 "ChibiOS_3.0.5/os/rt/src/chsem.c"
  29              		.loc 1 97 0
  30              		.cfi_startproc
  31              		@ args = 0, pretend = 0, frame = 0
  32              		@ frame_needed = 0, uses_anonymous_args = 0
  33              		@ link register save eliminated.
  34              	.LVL0:
  35              	.LBB92:
  36              	.LBB93:
  37              		.file 2 "ChibiOS_3.0.5/os/rt/include/chschd.h"
  38              		.loc 2 605 0
  39 0000 C0E90000 		strd	r0, r0, [r0]
  40              	.LVL1:
  41              	.LBE93:
  42              	.LBE92:
  43              		.loc 1 102 0
  44 0004 8160     		str	r1, [r0, #8]
  45              		.loc 1 103 0
  46 0006 7047     		bx	lr
  47              		.cfi_endproc
  48              	.LFE219:
  49              		.size	chSemObjectInit, .-chSemObjectInit
  50              		.section	.text.chSemResetI,"ax",%progbits
  51              		.align	1
  52              		.p2align 4,,15
  53              		.global	chSemResetI
  54              		.syntax unified
  55              		.thumb
  56              		.thumb_func
  57              		.fpu fpv4-sp-d16
ARM GAS  /tmp/ccEshaLd.s 			page 2


  58              		.type	chSemResetI, %function
  59              	chSemResetI:
  60              	.LFB221:
  61              		.loc 1 147 0
  62              		.cfi_startproc
  63              		@ args = 0, pretend = 0, frame = 0
  64              		@ frame_needed = 0, uses_anonymous_args = 0
  65              	.LVL2:
  66 0000 70B5     		push	{r4, r5, r6, lr}
  67              		.cfi_def_cfa_offset 16
  68              		.cfi_offset 4, -16
  69              		.cfi_offset 5, -12
  70              		.cfi_offset 6, -8
  71              		.cfi_offset 14, -4
  72              		.loc 1 156 0
  73 0002 8568     		ldr	r5, [r0, #8]
  74              	.LVL3:
  75              		.loc 1 157 0
  76 0004 8160     		str	r1, [r0, #8]
  77              		.loc 1 158 0
  78 0006 0135     		adds	r5, r5, #1
  79              	.LVL4:
  80 0008 002D     		cmp	r5, #0
  81 000a 0CDC     		bgt	.L3
  82 000c 0446     		mov	r4, r0
  83              		.loc 1 159 0
  84 000e 6FF00106 		mvn	r6, #1
  85              	.LVL5:
  86              	.L5:
  87              	.LBB94:
  88              	.LBB95:
  89              		.loc 2 681 0
  90 0012 6068     		ldr	r0, [r4, #4]
  91              	.LVL6:
  92              		.loc 2 683 0
  93 0014 4368     		ldr	r3, [r0, #4]
  94 0016 6360     		str	r3, [r4, #4]
  95              		.loc 2 684 0
  96 0018 1C60     		str	r4, [r3]
  97              	.LVL7:
  98              	.LBE95:
  99              	.LBE94:
 100              		.loc 1 159 0
 101 001a FFF7FEFF 		bl	chSchReadyI
 102              	.LVL8:
 103              		.loc 1 158 0
 104 001e 0135     		adds	r5, r5, #1
 105              	.LVL9:
 106 0020 012D     		cmp	r5, #1
 107              		.loc 1 159 0
 108 0022 8662     		str	r6, [r0, #40]
 109              	.LVL10:
 110              		.loc 1 158 0
 111 0024 F5D1     		bne	.L5
 112              	.LVL11:
 113              	.L3:
 114              		.loc 1 161 0
ARM GAS  /tmp/ccEshaLd.s 			page 3


 115 0026 70BD     		pop	{r4, r5, r6, pc}
 116              		.cfi_endproc
 117              	.LFE221:
 118              		.size	chSemResetI, .-chSemResetI
 119              		.section	.text.chSemReset,"ax",%progbits
 120              		.align	1
 121              		.p2align 4,,15
 122              		.global	chSemReset
 123              		.syntax unified
 124              		.thumb
 125              		.thumb_func
 126              		.fpu fpv4-sp-d16
 127              		.type	chSemReset, %function
 128              	chSemReset:
 129              	.LFB220:
 130              		.loc 1 120 0
 131              		.cfi_startproc
 132              		@ args = 0, pretend = 0, frame = 0
 133              		@ frame_needed = 0, uses_anonymous_args = 0
 134              	.LVL12:
 135 0000 08B5     		push	{r3, lr}
 136              		.cfi_def_cfa_offset 8
 137              		.cfi_offset 3, -8
 138              		.cfi_offset 14, -4
 139              	.LBB96:
 140              	.LBB97:
 141              	.LBB98:
 142              	.LBB99:
 143              		.file 3 "ChibiOS_3.0.5/os/ext/CMSIS/include/core_cmFunc.h"
 144              		.loc 3 342 0
 145              		.syntax unified
 146              	@ 342 "ChibiOS_3.0.5/os/ext/CMSIS/include/core_cmFunc.h" 1
 147 0002 72B6     		cpsid i
 148              	@ 0 "" 2
 149              		.thumb
 150              		.syntax unified
 151              	.LBE99:
 152              	.LBE98:
 153              	.LBE97:
 154              	.LBE96:
 155              		.loc 1 123 0
 156 0004 FFF7FEFF 		bl	chSemResetI
 157              	.LVL13:
 158              		.loc 1 124 0
 159 0008 FFF7FEFF 		bl	chSchRescheduleS
 160              	.LVL14:
 161              	.LBB100:
 162              	.LBB101:
 163              	.LBB102:
 164              	.LBB103:
 165              	.LBB104:
 166              		.loc 3 331 0
 167              		.syntax unified
 168              	@ 331 "ChibiOS_3.0.5/os/ext/CMSIS/include/core_cmFunc.h" 1
 169 000c 62B6     		cpsie i
 170              	@ 0 "" 2
 171              		.thumb
ARM GAS  /tmp/ccEshaLd.s 			page 4


 172              		.syntax unified
 173              	.LBE104:
 174              	.LBE103:
 175              	.LBE102:
 176              	.LBE101:
 177              	.LBE100:
 178              		.loc 1 126 0
 179 000e 08BD     		pop	{r3, pc}
 180              		.cfi_endproc
 181              	.LFE220:
 182              		.size	chSemReset, .-chSemReset
 183              		.section	.text.chSemWait,"ax",%progbits
 184              		.align	1
 185              		.p2align 4,,15
 186              		.global	chSemWait
 187              		.syntax unified
 188              		.thumb
 189              		.thumb_func
 190              		.fpu fpv4-sp-d16
 191              		.type	chSemWait, %function
 192              	chSemWait:
 193              	.LFB222:
 194              		.loc 1 175 0
 195              		.cfi_startproc
 196              		@ args = 0, pretend = 0, frame = 0
 197              		@ frame_needed = 0, uses_anonymous_args = 0
 198              	.LVL15:
 199              	.LBB120:
 200              	.LBB121:
 201              	.LBB122:
 202              	.LBB123:
 203              		.loc 3 342 0
 204              		.syntax unified
 205              	@ 342 "ChibiOS_3.0.5/os/ext/CMSIS/include/core_cmFunc.h" 1
 206 0000 72B6     		cpsid i
 207              	@ 0 "" 2
 208              	.LVL16:
 209              		.thumb
 210              		.syntax unified
 211              	.LBE123:
 212              	.LBE122:
 213              	.LBE121:
 214              	.LBE120:
 215              	.LBB124:
 216              	.LBB125:
 217              		.loc 1 205 0
 218 0002 8368     		ldr	r3, [r0, #8]
 219 0004 013B     		subs	r3, r3, #1
 220 0006 002B     		cmp	r3, #0
 221 0008 8360     		str	r3, [r0, #8]
 222 000a 02DB     		blt	.L17
 223              		.loc 1 213 0
 224 000c 0020     		movs	r0, #0
 225              	.LVL17:
 226              	.LBE125:
 227              	.LBE124:
 228              	.LBB135:
ARM GAS  /tmp/ccEshaLd.s 			page 5


 229              	.LBB136:
 230              	.LBB137:
 231              	.LBB138:
 232              	.LBB139:
 233              		.loc 3 331 0
 234              		.syntax unified
 235              	@ 331 "ChibiOS_3.0.5/os/ext/CMSIS/include/core_cmFunc.h" 1
 236 000e 62B6     		cpsie i
 237              	@ 0 "" 2
 238              		.thumb
 239              		.syntax unified
 240              	.LBE139:
 241              	.LBE138:
 242              	.LBE137:
 243              	.LBE136:
 244              	.LBE135:
 245              		.loc 1 183 0
 246 0010 7047     		bx	lr
 247              	.LVL18:
 248              	.L17:
 249              		.loc 1 175 0
 250 0012 10B5     		push	{r4, lr}
 251              		.cfi_def_cfa_offset 8
 252              		.cfi_offset 4, -8
 253              		.cfi_offset 14, -4
 254              	.LBB144:
 255              	.LBB134:
 256              	.LBB126:
 257              	.LBB127:
 258              		.loc 1 206 0
 259 0014 074C     		ldr	r4, .L18
 260              	.LBB128:
 261              	.LBB129:
 262              		.loc 2 666 0
 263 0016 4168     		ldr	r1, [r0, #4]
 264              	.LBE129:
 265              	.LBE128:
 266              		.loc 1 206 0
 267 0018 A269     		ldr	r2, [r4, #24]
 268 001a 0346     		mov	r3, r0
 269              	.LVL19:
 270 001c 9362     		str	r3, [r2, #40]
 271              	.LVL20:
 272              	.LBB132:
 273              	.LBB130:
 274              		.loc 2 666 0
 275 001e C2E90031 		strd	r3, r1, [r2]
 276              	.LBE130:
 277              	.LBE132:
 278              		.loc 1 208 0
 279 0022 0520     		movs	r0, #5
 280              	.LVL21:
 281              	.LBB133:
 282              	.LBB131:
 283              		.loc 2 667 0
 284 0024 0A60     		str	r2, [r1]
 285              		.loc 2 668 0
ARM GAS  /tmp/ccEshaLd.s 			page 6


 286 0026 5A60     		str	r2, [r3, #4]
 287              	.LVL22:
 288              	.LBE131:
 289              	.LBE133:
 290              		.loc 1 208 0
 291 0028 FFF7FEFF 		bl	chSchGoSleepS
 292              	.LVL23:
 293              		.loc 1 210 0
 294 002c A369     		ldr	r3, [r4, #24]
 295 002e 986A     		ldr	r0, [r3, #40]
 296              	.LVL24:
 297              	.LBE127:
 298              	.LBE126:
 299              	.LBE134:
 300              	.LBE144:
 301              	.LBB145:
 302              	.LBB143:
 303              	.LBB142:
 304              	.LBB141:
 305              	.LBB140:
 306              		.loc 3 331 0
 307              		.syntax unified
 308              	@ 331 "ChibiOS_3.0.5/os/ext/CMSIS/include/core_cmFunc.h" 1
 309 0030 62B6     		cpsie i
 310              	@ 0 "" 2
 311              		.thumb
 312              		.syntax unified
 313              	.LBE140:
 314              	.LBE141:
 315              	.LBE142:
 316              	.LBE143:
 317              	.LBE145:
 318              		.loc 1 183 0
 319 0032 10BD     		pop	{r4, pc}
 320              	.L19:
 321              		.align	2
 322              	.L18:
 323 0034 00000000 		.word	ch
 324              		.cfi_endproc
 325              	.LFE222:
 326              		.size	chSemWait, .-chSemWait
 327              		.section	.text.chSemWaitS,"ax",%progbits
 328              		.align	1
 329              		.p2align 4,,15
 330              		.global	chSemWaitS
 331              		.syntax unified
 332              		.thumb
 333              		.thumb_func
 334              		.fpu fpv4-sp-d16
 335              		.type	chSemWaitS, %function
 336              	chSemWaitS:
 337              	.LFB223:
 338              		.loc 1 197 0
 339              		.cfi_startproc
 340              		@ args = 0, pretend = 0, frame = 0
 341              		@ frame_needed = 0, uses_anonymous_args = 0
 342              	.LVL25:
ARM GAS  /tmp/ccEshaLd.s 			page 7


 343              		.loc 1 205 0
 344 0000 8368     		ldr	r3, [r0, #8]
 345 0002 013B     		subs	r3, r3, #1
 346 0004 002B     		cmp	r3, #0
 347 0006 8360     		str	r3, [r0, #8]
 348 0008 01DB     		blt	.L27
 349              		.loc 1 213 0
 350 000a 0020     		movs	r0, #0
 351              	.LVL26:
 352              		.loc 1 214 0
 353 000c 7047     		bx	lr
 354              	.LVL27:
 355              	.L27:
 356              		.loc 1 197 0
 357 000e 10B5     		push	{r4, lr}
 358              		.cfi_def_cfa_offset 8
 359              		.cfi_offset 4, -8
 360              		.cfi_offset 14, -4
 361              	.LBB150:
 362              	.LBB151:
 363              		.loc 1 206 0
 364 0010 074C     		ldr	r4, .L28
 365              	.LBB152:
 366              	.LBB153:
 367              		.loc 2 666 0
 368 0012 4168     		ldr	r1, [r0, #4]
 369              	.LBE153:
 370              	.LBE152:
 371              		.loc 1 206 0
 372 0014 A269     		ldr	r2, [r4, #24]
 373 0016 0346     		mov	r3, r0
 374              	.LVL28:
 375 0018 9362     		str	r3, [r2, #40]
 376              	.LVL29:
 377              	.LBB156:
 378              	.LBB154:
 379              		.loc 2 666 0
 380 001a C2E90031 		strd	r3, r1, [r2]
 381              	.LBE154:
 382              	.LBE156:
 383              		.loc 1 208 0
 384 001e 0520     		movs	r0, #5
 385              	.LVL30:
 386              	.LBB157:
 387              	.LBB155:
 388              		.loc 2 667 0
 389 0020 0A60     		str	r2, [r1]
 390              		.loc 2 668 0
 391 0022 5A60     		str	r2, [r3, #4]
 392              	.LVL31:
 393              	.LBE155:
 394              	.LBE157:
 395              		.loc 1 208 0
 396 0024 FFF7FEFF 		bl	chSchGoSleepS
 397              	.LVL32:
 398              		.loc 1 210 0
 399 0028 A369     		ldr	r3, [r4, #24]
ARM GAS  /tmp/ccEshaLd.s 			page 8


 400 002a 986A     		ldr	r0, [r3, #40]
 401              	.LVL33:
 402              	.LBE151:
 403              	.LBE150:
 404              		.loc 1 214 0
 405 002c 10BD     		pop	{r4, pc}
 406              	.L29:
 407 002e 00BF     		.align	2
 408              	.L28:
 409 0030 00000000 		.word	ch
 410              		.cfi_endproc
 411              	.LFE223:
 412              		.size	chSemWaitS, .-chSemWaitS
 413              		.section	.text.chSemWaitTimeout,"ax",%progbits
 414              		.align	1
 415              		.p2align 4,,15
 416              		.global	chSemWaitTimeout
 417              		.syntax unified
 418              		.thumb
 419              		.thumb_func
 420              		.fpu fpv4-sp-d16
 421              		.type	chSemWaitTimeout, %function
 422              	chSemWaitTimeout:
 423              	.LFB224:
 424              		.loc 1 235 0
 425              		.cfi_startproc
 426              		@ args = 0, pretend = 0, frame = 0
 427              		@ frame_needed = 0, uses_anonymous_args = 0
 428              	.LVL34:
 429              	.LBB173:
 430              	.LBB174:
 431              	.LBB175:
 432              	.LBB176:
 433              		.loc 3 342 0
 434              		.syntax unified
 435              	@ 342 "ChibiOS_3.0.5/os/ext/CMSIS/include/core_cmFunc.h" 1
 436 0000 72B6     		cpsid i
 437              	@ 0 "" 2
 438              	.LVL35:
 439              		.thumb
 440              		.syntax unified
 441              	.LBE176:
 442              	.LBE175:
 443              	.LBE174:
 444              	.LBE173:
 445              	.LBB177:
 446              	.LBB178:
 447              		.loc 1 272 0
 448 0002 8268     		ldr	r2, [r0, #8]
 449 0004 531E     		subs	r3, r2, #1
 450 0006 002B     		cmp	r3, #0
 451 0008 8360     		str	r3, [r0, #8]
 452 000a 02DB     		blt	.L38
 453              		.loc 1 284 0
 454 000c 0020     		movs	r0, #0
 455              	.LVL36:
 456              	.LBE178:
ARM GAS  /tmp/ccEshaLd.s 			page 9


 457              	.LBE177:
 458              	.LBB189:
 459              	.LBB190:
 460              	.LBB191:
 461              	.LBB192:
 462              	.LBB193:
 463              		.loc 3 331 0
 464              		.syntax unified
 465              	@ 331 "ChibiOS_3.0.5/os/ext/CMSIS/include/core_cmFunc.h" 1
 466 000e 62B6     		cpsie i
 467              	@ 0 "" 2
 468              		.thumb
 469              		.syntax unified
 470              	.LBE193:
 471              	.LBE192:
 472              	.LBE191:
 473              	.LBE190:
 474              	.LBE189:
 475              		.loc 1 243 0
 476 0010 7047     		bx	lr
 477              	.LVL37:
 478              	.L38:
 479              		.loc 1 235 0
 480 0012 10B5     		push	{r4, lr}
 481              		.cfi_def_cfa_offset 8
 482              		.cfi_offset 4, -8
 483              		.cfi_offset 14, -4
 484              	.LBB198:
 485              	.LBB187:
 486              		.loc 1 273 0
 487 0014 69B1     		cbz	r1, .L39
 488              	.LBB179:
 489              	.LBB180:
 490              		.loc 1 278 0
 491 0016 094A     		ldr	r2, .L40
 492              	.LBB181:
 493              	.LBB182:
 494              		.loc 2 666 0
 495 0018 4468     		ldr	r4, [r0, #4]
 496              	.LBE182:
 497              	.LBE181:
 498              		.loc 1 278 0
 499 001a 9269     		ldr	r2, [r2, #24]
 500 001c 0346     		mov	r3, r0
 501              	.LVL38:
 502 001e 9362     		str	r3, [r2, #40]
 503              	.LVL39:
 504              	.LBB185:
 505              	.LBB183:
 506              		.loc 2 666 0
 507 0020 C2E90034 		strd	r3, r4, [r2]
 508              	.LBE183:
 509              	.LBE185:
 510              		.loc 1 281 0
 511 0024 0520     		movs	r0, #5
 512              	.LVL40:
 513              	.LBB186:
ARM GAS  /tmp/ccEshaLd.s 			page 10


 514              	.LBB184:
 515              		.loc 2 667 0
 516 0026 2260     		str	r2, [r4]
 517              		.loc 2 668 0
 518 0028 5A60     		str	r2, [r3, #4]
 519              	.LVL41:
 520              	.LBE184:
 521              	.LBE186:
 522              		.loc 1 281 0
 523 002a FFF7FEFF 		bl	chSchGoSleepTimeoutS
 524              	.LVL42:
 525              	.L31:
 526              	.LBE180:
 527              	.LBE179:
 528              	.LBE187:
 529              	.LBE198:
 530              	.LBB199:
 531              	.LBB197:
 532              	.LBB196:
 533              	.LBB195:
 534              	.LBB194:
 535              		.loc 3 331 0
 536              		.syntax unified
 537              	@ 331 "ChibiOS_3.0.5/os/ext/CMSIS/include/core_cmFunc.h" 1
 538 002e 62B6     		cpsie i
 539              	@ 0 "" 2
 540              		.thumb
 541              		.syntax unified
 542              	.LBE194:
 543              	.LBE195:
 544              	.LBE196:
 545              	.LBE197:
 546              	.LBE199:
 547              		.loc 1 243 0
 548 0030 10BD     		pop	{r4, pc}
 549              	.LVL43:
 550              	.L39:
 551              	.LBB200:
 552              	.LBB188:
 553              		.loc 1 274 0
 554 0032 8260     		str	r2, [r0, #8]
 555              		.loc 1 276 0
 556 0034 4FF0FF30 		mov	r0, #-1
 557              	.LVL44:
 558 0038 F9E7     		b	.L31
 559              	.L41:
 560 003a 00BF     		.align	2
 561              	.L40:
 562 003c 00000000 		.word	ch
 563              	.LBE188:
 564              	.LBE200:
 565              		.cfi_endproc
 566              	.LFE224:
 567              		.size	chSemWaitTimeout, .-chSemWaitTimeout
 568              		.section	.text.chSemWaitTimeoutS,"ax",%progbits
 569              		.align	1
 570              		.p2align 4,,15
ARM GAS  /tmp/ccEshaLd.s 			page 11


 571              		.global	chSemWaitTimeoutS
 572              		.syntax unified
 573              		.thumb
 574              		.thumb_func
 575              		.fpu fpv4-sp-d16
 576              		.type	chSemWaitTimeoutS, %function
 577              	chSemWaitTimeoutS:
 578              	.LFB225:
 579              		.loc 1 264 0
 580              		.cfi_startproc
 581              		@ args = 0, pretend = 0, frame = 0
 582              		@ frame_needed = 0, uses_anonymous_args = 0
 583              		@ link register save eliminated.
 584              	.LVL45:
 585 0000 0346     		mov	r3, r0
 586              		.loc 1 272 0
 587 0002 8068     		ldr	r0, [r0, #8]
 588              	.LVL46:
 589 0004 421E     		subs	r2, r0, #1
 590 0006 002A     		cmp	r2, #0
 591 0008 9A60     		str	r2, [r3, #8]
 592 000a 01DB     		blt	.L50
 593              		.loc 1 284 0
 594 000c 0020     		movs	r0, #0
 595              		.loc 1 285 0
 596 000e 7047     		bx	lr
 597              	.L50:
 598              		.loc 1 264 0
 599 0010 10B4     		push	{r4}
 600              		.cfi_def_cfa_offset 4
 601              		.cfi_offset 4, -4
 602              		.loc 1 273 0
 603 0012 61B1     		cbz	r1, .L51
 604              	.LVL47:
 605              	.LBB205:
 606              	.LBB206:
 607              		.loc 1 278 0
 608 0014 094A     		ldr	r2, .L52
 609              	.LBB207:
 610              	.LBB208:
 611              		.loc 2 666 0
 612 0016 5C68     		ldr	r4, [r3, #4]
 613              	.LBE208:
 614              	.LBE207:
 615              		.loc 1 278 0
 616 0018 9269     		ldr	r2, [r2, #24]
 617              		.loc 1 281 0
 618 001a 0520     		movs	r0, #5
 619              	.LBB211:
 620              	.LBB209:
 621              		.loc 2 666 0
 622 001c C2E90034 		strd	r3, r4, [r2]
 623              	.LBE209:
 624              	.LBE211:
 625              		.loc 1 278 0
 626 0020 9362     		str	r3, [r2, #40]
 627              	.LVL48:
ARM GAS  /tmp/ccEshaLd.s 			page 12


 628              	.LBB212:
 629              	.LBB210:
 630              		.loc 2 667 0
 631 0022 2260     		str	r2, [r4]
 632              		.loc 2 668 0
 633 0024 5A60     		str	r2, [r3, #4]
 634              	.LVL49:
 635              	.LBE210:
 636              	.LBE212:
 637              	.LBE206:
 638              	.LBE205:
 639              		.loc 1 285 0
 640 0026 5DF8044B 		ldr	r4, [sp], #4
 641              		.cfi_remember_state
 642              		.cfi_restore 4
 643              		.cfi_def_cfa_offset 0
 644              	.LBB214:
 645              	.LBB213:
 646              		.loc 1 281 0
 647 002a FFF7FEBF 		b	chSchGoSleepTimeoutS
 648              	.LVL50:
 649              	.L51:
 650              		.cfi_restore_state
 651              	.LBE213:
 652              	.LBE214:
 653              		.loc 1 274 0
 654 002e 9860     		str	r0, [r3, #8]
 655              		.loc 1 285 0
 656 0030 5DF8044B 		ldr	r4, [sp], #4
 657              		.cfi_restore 4
 658              		.cfi_def_cfa_offset 0
 659              		.loc 1 276 0
 660 0034 4FF0FF30 		mov	r0, #-1
 661              		.loc 1 285 0
 662 0038 7047     		bx	lr
 663              	.L53:
 664 003a 00BF     		.align	2
 665              	.L52:
 666 003c 00000000 		.word	ch
 667              		.cfi_endproc
 668              	.LFE225:
 669              		.size	chSemWaitTimeoutS, .-chSemWaitTimeoutS
 670              		.section	.text.chSemSignal,"ax",%progbits
 671              		.align	1
 672              		.p2align 4,,15
 673              		.global	chSemSignal
 674              		.syntax unified
 675              		.thumb
 676              		.thumb_func
 677              		.fpu fpv4-sp-d16
 678              		.type	chSemSignal, %function
 679              	chSemSignal:
 680              	.LFB226:
 681              		.loc 1 294 0
 682              		.cfi_startproc
 683              		@ args = 0, pretend = 0, frame = 0
 684              		@ frame_needed = 0, uses_anonymous_args = 0
ARM GAS  /tmp/ccEshaLd.s 			page 13


 685              	.LVL51:
 686 0000 08B5     		push	{r3, lr}
 687              		.cfi_def_cfa_offset 8
 688              		.cfi_offset 3, -8
 689              		.cfi_offset 14, -4
 690              	.LBB215:
 691              	.LBB216:
 692              	.LBB217:
 693              	.LBB218:
 694              		.loc 3 342 0
 695              		.syntax unified
 696              	@ 342 "ChibiOS_3.0.5/os/ext/CMSIS/include/core_cmFunc.h" 1
 697 0002 72B6     		cpsid i
 698              	@ 0 "" 2
 699              		.thumb
 700              		.syntax unified
 701              	.LBE218:
 702              	.LBE217:
 703              	.LBE216:
 704              	.LBE215:
 705              		.loc 1 302 0
 706 0004 8368     		ldr	r3, [r0, #8]
 707 0006 0133     		adds	r3, r3, #1
 708 0008 002B     		cmp	r3, #0
 709 000a 8360     		str	r3, [r0, #8]
 710 000c 01DD     		ble	.L57
 711              	.LBB219:
 712              	.LBB220:
 713              	.LBB221:
 714              	.LBB222:
 715              	.LBB223:
 716              		.loc 3 331 0
 717              		.syntax unified
 718              	@ 331 "ChibiOS_3.0.5/os/ext/CMSIS/include/core_cmFunc.h" 1
 719 000e 62B6     		cpsie i
 720              	@ 0 "" 2
 721              		.thumb
 722              		.syntax unified
 723              	.LBE223:
 724              	.LBE222:
 725              	.LBE221:
 726              	.LBE220:
 727              	.LBE219:
 728              		.loc 1 306 0
 729 0010 08BD     		pop	{r3, pc}
 730              	.L57:
 731 0012 0346     		mov	r3, r0
 732              	.LVL52:
 733              	.LBB228:
 734              	.LBB229:
 735              		.loc 2 672 0
 736 0014 0068     		ldr	r0, [r0]
 737              	.LVL53:
 738              		.loc 2 674 0
 739 0016 0268     		ldr	r2, [r0]
 740 0018 1A60     		str	r2, [r3]
 741              	.LBE229:
ARM GAS  /tmp/ccEshaLd.s 			page 14


 742              	.LBE228:
 743              		.loc 1 303 0
 744 001a 0021     		movs	r1, #0
 745              	.LBB231:
 746              	.LBB230:
 747              		.loc 2 675 0
 748 001c 5360     		str	r3, [r2, #4]
 749              	.LVL54:
 750              	.LBE230:
 751              	.LBE231:
 752              		.loc 1 303 0
 753 001e FFF7FEFF 		bl	chSchWakeupS
 754              	.LVL55:
 755              	.LBB232:
 756              	.LBB227:
 757              	.LBB226:
 758              	.LBB225:
 759              	.LBB224:
 760              		.loc 3 331 0
 761              		.syntax unified
 762              	@ 331 "ChibiOS_3.0.5/os/ext/CMSIS/include/core_cmFunc.h" 1
 763 0022 62B6     		cpsie i
 764              	@ 0 "" 2
 765              		.thumb
 766              		.syntax unified
 767              	.LBE224:
 768              	.LBE225:
 769              	.LBE226:
 770              	.LBE227:
 771              	.LBE232:
 772              		.loc 1 306 0
 773 0024 08BD     		pop	{r3, pc}
 774              		.cfi_endproc
 775              	.LFE226:
 776              		.size	chSemSignal, .-chSemSignal
 777 0026 00BF     		.section	.text.chSemSignalI,"ax",%progbits
 778              		.align	1
 779              		.p2align 4,,15
 780              		.global	chSemSignalI
 781              		.syntax unified
 782              		.thumb
 783              		.thumb_func
 784              		.fpu fpv4-sp-d16
 785              		.type	chSemSignalI, %function
 786              	chSemSignalI:
 787              	.LFB227:
 788              		.loc 1 319 0
 789              		.cfi_startproc
 790              		@ args = 0, pretend = 0, frame = 0
 791              		@ frame_needed = 0, uses_anonymous_args = 0
 792              		@ link register save eliminated.
 793              	.LVL56:
 794              		.loc 1 327 0
 795 0000 8368     		ldr	r3, [r0, #8]
 796 0002 0133     		adds	r3, r3, #1
 797 0004 002B     		cmp	r3, #0
 798 0006 8360     		str	r3, [r0, #8]
ARM GAS  /tmp/ccEshaLd.s 			page 15


 799 0008 00DD     		ble	.L60
 800              		.loc 1 334 0
 801 000a 7047     		bx	lr
 802              	.L60:
 803              	.LVL57:
 804              	.LBB233:
 805              	.LBB234:
 806              	.LBB235:
 807              		.loc 2 672 0
 808 000c 0368     		ldr	r3, [r0]
 809              	.LVL58:
 810              		.loc 2 674 0
 811 000e 1A68     		ldr	r2, [r3]
 812 0010 0260     		str	r2, [r0]
 813              	.LBE235:
 814              	.LBE234:
 815              		.loc 1 331 0
 816 0012 0021     		movs	r1, #0
 817              	.LBB237:
 818              	.LBB236:
 819              		.loc 2 675 0
 820 0014 5060     		str	r0, [r2, #4]
 821              	.LVL59:
 822              	.LBE236:
 823              	.LBE237:
 824              		.loc 1 332 0
 825 0016 1846     		mov	r0, r3
 826              	.LVL60:
 827              		.loc 1 331 0
 828 0018 9962     		str	r1, [r3, #40]
 829              		.loc 1 332 0
 830 001a FFF7FEBF 		b	chSchReadyI
 831              	.LVL61:
 832              	.LBE233:
 833              		.cfi_endproc
 834              	.LFE227:
 835              		.size	chSemSignalI, .-chSemSignalI
 836 001e 00BF     		.section	.text.chSemAddCounterI,"ax",%progbits
 837              		.align	1
 838              		.p2align 4,,15
 839              		.global	chSemAddCounterI
 840              		.syntax unified
 841              		.thumb
 842              		.thumb_func
 843              		.fpu fpv4-sp-d16
 844              		.type	chSemAddCounterI, %function
 845              	chSemAddCounterI:
 846              	.LFB228:
 847              		.loc 1 349 0
 848              		.cfi_startproc
 849              		@ args = 0, pretend = 0, frame = 0
 850              		@ frame_needed = 0, uses_anonymous_args = 0
 851              	.LVL62:
 852 0000 70B5     		push	{r4, r5, r6, lr}
 853              		.cfi_def_cfa_offset 16
 854              		.cfi_offset 4, -16
 855              		.cfi_offset 5, -12
ARM GAS  /tmp/ccEshaLd.s 			page 16


 856              		.cfi_offset 6, -8
 857              		.cfi_offset 14, -4
 858              		.loc 1 357 0
 859 0002 0C1E     		subs	r4, r1, #0
 860 0004 12DD     		ble	.L61
 861 0006 0546     		mov	r5, r0
 862              		.loc 1 359 0
 863 0008 0026     		movs	r6, #0
 864 000a 01E0     		b	.L64
 865              	.LVL63:
 866              	.L63:
 867              		.loc 1 357 0
 868 000c 013C     		subs	r4, r4, #1
 869              	.LVL64:
 870 000e 0DD0     		beq	.L61
 871              	.LVL65:
 872              	.L64:
 873              		.loc 1 358 0
 874 0010 AB68     		ldr	r3, [r5, #8]
 875 0012 0133     		adds	r3, r3, #1
 876 0014 002B     		cmp	r3, #0
 877 0016 AB60     		str	r3, [r5, #8]
 878 0018 F8DC     		bgt	.L63
 879              	.LVL66:
 880              	.LBB238:
 881              	.LBB239:
 882              		.loc 2 672 0
 883 001a 2868     		ldr	r0, [r5]
 884              	.LVL67:
 885              		.loc 2 674 0
 886 001c 0368     		ldr	r3, [r0]
 887 001e 2B60     		str	r3, [r5]
 888              		.loc 2 675 0
 889 0020 5D60     		str	r5, [r3, #4]
 890              	.LVL68:
 891              	.LBE239:
 892              	.LBE238:
 893              		.loc 1 359 0
 894 0022 FFF7FEFF 		bl	chSchReadyI
 895              	.LVL69:
 896              		.loc 1 357 0
 897 0026 013C     		subs	r4, r4, #1
 898              	.LVL70:
 899              		.loc 1 359 0
 900 0028 8662     		str	r6, [r0, #40]
 901              	.LVL71:
 902              		.loc 1 357 0
 903 002a F1D1     		bne	.L64
 904              	.LVL72:
 905              	.L61:
 906              		.loc 1 363 0
 907 002c 70BD     		pop	{r4, r5, r6, pc}
 908              		.cfi_endproc
 909              	.LFE228:
 910              		.size	chSemAddCounterI, .-chSemAddCounterI
 911 002e 00BF     		.section	.text.chSemSignalWait,"ax",%progbits
 912              		.align	1
ARM GAS  /tmp/ccEshaLd.s 			page 17


 913              		.p2align 4,,15
 914              		.global	chSemSignalWait
 915              		.syntax unified
 916              		.thumb
 917              		.thumb_func
 918              		.fpu fpv4-sp-d16
 919              		.type	chSemSignalWait, %function
 920              	chSemSignalWait:
 921              	.LFB229:
 922              		.loc 1 378 0
 923              		.cfi_startproc
 924              		@ args = 0, pretend = 0, frame = 0
 925              		@ frame_needed = 0, uses_anonymous_args = 0
 926              	.LVL73:
 927 0000 38B5     		push	{r3, r4, r5, lr}
 928              		.cfi_def_cfa_offset 16
 929              		.cfi_offset 3, -16
 930              		.cfi_offset 4, -12
 931              		.cfi_offset 5, -8
 932              		.cfi_offset 14, -4
 933              		.loc 1 378 0
 934 0002 0C46     		mov	r4, r1
 935              	.LBB240:
 936              	.LBB241:
 937              	.LBB242:
 938              	.LBB243:
 939              		.loc 3 342 0
 940              		.syntax unified
 941              	@ 342 "ChibiOS_3.0.5/os/ext/CMSIS/include/core_cmFunc.h" 1
 942 0004 72B6     		cpsid i
 943              	@ 0 "" 2
 944              		.thumb
 945              		.syntax unified
 946              	.LBE243:
 947              	.LBE242:
 948              	.LBE241:
 949              	.LBE240:
 950              		.loc 1 390 0
 951 0006 8368     		ldr	r3, [r0, #8]
 952 0008 0133     		adds	r3, r3, #1
 953 000a 002B     		cmp	r3, #0
 954 000c 8360     		str	r3, [r0, #8]
 955 000e 17DD     		ble	.L72
 956              	.LVL74:
 957              	.L68:
 958              		.loc 1 393 0
 959 0010 A368     		ldr	r3, [r4, #8]
 960 0012 013B     		subs	r3, r3, #1
 961 0014 002B     		cmp	r3, #0
 962 0016 A360     		str	r3, [r4, #8]
 963 0018 04DB     		blt	.L73
 964              		.loc 1 401 0
 965 001a FFF7FEFF 		bl	chSchRescheduleS
 966              	.LVL75:
 967              		.loc 1 402 0
 968 001e 0020     		movs	r0, #0
 969              	.LVL76:
ARM GAS  /tmp/ccEshaLd.s 			page 18


 970              	.LBB244:
 971              	.LBB245:
 972              	.LBB246:
 973              	.LBB247:
 974              	.LBB248:
 975              		.loc 3 331 0
 976              		.syntax unified
 977              	@ 331 "ChibiOS_3.0.5/os/ext/CMSIS/include/core_cmFunc.h" 1
 978 0020 62B6     		cpsie i
 979              	@ 0 "" 2
 980              		.thumb
 981              		.syntax unified
 982              	.LBE248:
 983              	.LBE247:
 984              	.LBE246:
 985              	.LBE245:
 986              	.LBE244:
 987              		.loc 1 407 0
 988 0022 38BD     		pop	{r3, r4, r5, pc}
 989              	.LVL77:
 990              	.L73:
 991              	.LBB253:
 992              		.loc 1 394 0
 993 0024 0B4A     		ldr	r2, .L74
 994              	.LBB254:
 995              	.LBB255:
 996              		.loc 2 666 0
 997 0026 6368     		ldr	r3, [r4, #4]
 998              	.LBE255:
 999              	.LBE254:
 1000              		.loc 1 394 0
 1001 0028 9569     		ldr	r5, [r2, #24]
 1002              	.LVL78:
 1003              		.loc 1 397 0
 1004 002a 0520     		movs	r0, #5
 1005              	.LBB257:
 1006              	.LBB256:
 1007              		.loc 2 666 0
 1008 002c C5E90043 		strd	r4, r3, [r5]
 1009              		.loc 2 667 0
 1010 0030 1D60     		str	r5, [r3]
 1011              		.loc 2 668 0
 1012 0032 6560     		str	r5, [r4, #4]
 1013              	.LVL79:
 1014              	.LBE256:
 1015              	.LBE257:
 1016              		.loc 1 396 0
 1017 0034 AC62     		str	r4, [r5, #40]
 1018              		.loc 1 397 0
 1019 0036 FFF7FEFF 		bl	chSchGoSleepS
 1020              	.LVL80:
 1021              		.loc 1 398 0
 1022 003a A86A     		ldr	r0, [r5, #40]
 1023              	.LVL81:
 1024              	.LBE253:
 1025              	.LBB258:
 1026              	.LBB252:
ARM GAS  /tmp/ccEshaLd.s 			page 19


 1027              	.LBB251:
 1028              	.LBB250:
 1029              	.LBB249:
 1030              		.loc 3 331 0
 1031              		.syntax unified
 1032              	@ 331 "ChibiOS_3.0.5/os/ext/CMSIS/include/core_cmFunc.h" 1
 1033 003c 62B6     		cpsie i
 1034              	@ 0 "" 2
 1035              		.thumb
 1036              		.syntax unified
 1037              	.LBE249:
 1038              	.LBE250:
 1039              	.LBE251:
 1040              	.LBE252:
 1041              	.LBE258:
 1042              		.loc 1 407 0
 1043 003e 38BD     		pop	{r3, r4, r5, pc}
 1044              	.LVL82:
 1045              	.L72:
 1046 0040 0246     		mov	r2, r0
 1047              	.LVL83:
 1048              	.LBB259:
 1049              	.LBB260:
 1050              		.loc 2 672 0
 1051 0042 0068     		ldr	r0, [r0]
 1052              	.LVL84:
 1053              		.loc 2 674 0
 1054 0044 0368     		ldr	r3, [r0]
 1055 0046 1360     		str	r3, [r2]
 1056              		.loc 2 675 0
 1057 0048 5A60     		str	r2, [r3, #4]
 1058              	.LVL85:
 1059              	.LBE260:
 1060              	.LBE259:
 1061              		.loc 1 391 0
 1062 004a FFF7FEFF 		bl	chSchReadyI
 1063              	.LVL86:
 1064 004e 0023     		movs	r3, #0
 1065 0050 8362     		str	r3, [r0, #40]
 1066 0052 DDE7     		b	.L68
 1067              	.L75:
 1068              		.align	2
 1069              	.L74:
 1070 0054 00000000 		.word	ch
 1071              		.cfi_endproc
 1072              	.LFE229:
 1073              		.size	chSemSignalWait, .-chSemSignalWait
 1074              		.text
 1075              	.Letext0:
 1076              		.file 4 "/usr/arm-none-eabi/include/machine/_default_types.h"
 1077              		.file 5 "/usr/arm-none-eabi/include/sys/_stdint.h"
 1078              		.file 6 "ChibiOS_3.0.5/os/rt/ports/ARMCMx/compilers/GCC/chtypes.h"
 1079              		.file 7 "ChibiOS_3.0.5/os/rt/include/chsystypes.h"
 1080              		.file 8 "ChibiOS_3.0.5/os/ext/CMSIS/include/core_cm4.h"
 1081              		.file 9 "ChibiOS_3.0.5/os/ext/CMSIS/ST/system_stm32f4xx.h"
 1082              		.file 10 "ChibiOS_3.0.5/os/rt/ports/ARMCMx/chcore.h"
 1083              		.file 11 "ChibiOS_3.0.5/os/rt/ports/ARMCMx/chcore_v7m.h"
ARM GAS  /tmp/ccEshaLd.s 			page 20


 1084              		.file 12 "ChibiOS_3.0.5/os/rt/include/chtm.h"
 1085              		.file 13 "ChibiOS_3.0.5/os/rt/include/chsem.h"
 1086              		.file 14 "ChibiOS_3.0.5/os/rt/include/chmtx.h"
 1087              		.file 15 "ChibiOS_3.0.5/os/rt/include/chregistry.h"
 1088              		.file 16 "ChibiOS_3.0.5/os/rt/include/chsys.h"