ARM GAS  /tmp/ccEshaLd.s 			page 1


   1              		.cpu cortex-m4
   2              		.eabi_attribute 27, 1
   3              		.eabi_attribute 28, 1
   4              		.eabi_attribute 20, 1
   5              		.eabi_attribute 21, 1
   6              		.eabi_attribute 23, 3
   7              		.eabi_attribute 24, 1
   8              		.eabi_attribute 25, 1
   9              		.eabi_attribute 26, 1
  10              		.eabi_attribute 30, 2
  11              		.eabi_attribute 34, 1
  12              		.eabi_attribute 18, 4
  13              		.file	"chsem.c"
  14              		.text
  15              	.Ltext0:
  16              		.cfi_sections	.debug_frame
  17              		.section	.text.chSemObjectInit,"ax",%progbits
  18              		.align	1
  19              		.p2align 4,,15
  20              		.global	chSemObjectInit
  21              		.syntax unified
  22              		.thumb
  23              		.thumb_func
  24              		.fpu fpv4-sp-d16
  25              		.type	chSemObjectInit, %function
  26              	chSemObjectInit:
  27              	.LFB219:
  28              		.file 1 "ChibiOS_3.0.5/os/rt/src/chsem.c"
  29              		.loc 1 97 0
  30              		.cfi_startproc
  31              		@ args = 0, pretend = 0, frame = 0
  32              		@ frame_needed = 0, uses_anonymous_args = 0
  33              		@ link register save eliminated.
  34              	.LVL0:
  35              	.LBB92:
  36              	.LBB93:
  37              		.file 2 "ChibiOS_3.0.5/os/rt/include/chschd.h"
  38              		.loc 2 605 0
  39 0000 C0E90000 		strd	r0, r0, [r0]
  40              	.LVL1:
  41              	.LBE93:
  42              	.LBE92:
  43              		.loc 1 102 0
  44 0004 8160     		str	r1, [r0, #8]
  45              		.loc 1 103 0
  46 0006 7047     		bx	lr
  47              		.cfi_endproc
  48              	.LFE219:
  49              		.size	chSemObjectInit, .-chSemObjectInit
  50              		.section	.text.chSemResetI,"ax",%progbits
  51              		.align	1
  52              		.p2align 4,,15
  53              		.global	chSemResetI
  54              		.syntax unified
  55              		.thumb
  56              		.thumb_func
  57              		.fpu fpv4-sp-d16
ARM GAS  /tmp/ccEshaLd.s 			page 2


  58              		.type	chSemResetI, %function
  59              	chSemResetI:
  60              	.LFB221:
  61              		.loc 1 147 0
  62              		.cfi_startproc
  63              		@ args = 0, pretend = 0, frame = 0
  64              		@ frame_needed = 0, uses_anonymous_args = 0
  65              	.LVL2:
  66 0000 70B5     		push	{r4, r5, r6, lr}
  67              		.cfi_def_cfa_offset 16
  68              		.cfi_offset 4, -16
  69              		.cfi_offset 5, -12
  70              		.cfi_offset 6, -8
  71              		.cfi_offset 14, -4
  72              		.loc 1 156 0
  73 0002 8568     		ldr	r5, [r0, #8]
  74              	.LVL3:
  75              		.loc 1 157 0
  76 0004 8160     		str	r1, [r0, #8]
  77              		.loc 1 158 0
  78 0006 0135     		adds	r5, r5, #1
  79              	.LVL4:
  80 0008 002D     		cmp	r5, #0
  81 000a 0CDC     		bgt	.L3
  82 000c 0446     		mov	r4, r0
  83              		.loc 1 159 0
  84 000e 6FF00106 		mvn	r6, #1
  85              	.LVL5:
  86              	.L5:
  87              	.LBB94:
  88              	.LBB95:
  89              		.loc 2 681 0
  90 0012 6068     		ldr	r0, [r4, #4]
  91              	.LVL6:
  92              		.loc 2 683 0
  93 0014 4368     		ldr	r3, [r0, #4]
  94 0016 6360     		str	r3, [r4, #4]
  95              		.loc 2 684 0
  96 0018 1C60     		str	r4, [r3]
  97              	.LVL7:
  98              	.LBE95:
  99              	.LBE94:
 100              		.loc 1 159 0
 101 001a FFF7FEFF 		bl	chSchReadyI
 102              	.LVL8:
 103              		.loc 1 158 0
 104 001e 0135     		adds	r5, r5, #1
 105              	.LVL9:
 106 0020 012D     		cmp	r5, #1
 107              		.loc 1 159 0
 108 0022 8662     		str	r6, [r0, #40]
 109              	.LVL10:
 110              		.loc 1 158 0
 111 0024 F5D1     		bne	.L5
 112              	.LVL11:
 113              	.L3:
 114              		.loc 1 161 0
ARM GAS  /tmp/ccEshaLd.s 			page 3


 115 0026 70BD     		pop	{r4, r5, r6, pc}
 116              		.cfi_endproc
 117              	.LFE221:
 118              		.size	chSemResetI, .-chSemResetI
 119              		.section	.text.chSemReset,"ax",%progbits
 120              		.align	1
 121              		.p2align 4,,15
 122              		.global	chSemReset
 123              		.syntax unified
 124              		.thumb
 125              		.thumb_func
 126              		.fpu fpv4-sp-d16
 127              		.type	chSemReset, %function
 128              	chSemReset:
 129              	.LFB220:
 130              		.loc 1 120 0
 131              		.cfi_startproc
 132              		@ args = 0, pretend = 0, frame = 0
 133              		@ frame_needed = 0, uses_anonymous_args = 0
 134              	.LVL12:
 135 0000 08B5     		push	{r3, lr}
 136              		.cfi_def_cfa_offset 8
 137              		.cfi_offset 3, -8
 138              		.cfi_offset 14, -4
 139              	.LBB96:
 140              	.LBB97:
 141              	.LBB98:
 142              	.LBB99:
 143              		.file 3 "ChibiOS_3.0.5/os/ext/CMSIS/include/core_cmFunc.h"
 144              		.loc 3 342 0
 145              		.syntax unified
 146              	@ 342 "ChibiOS_3.0.5/os/ext/CMSIS/include/core_cmFunc.h" 1
 147 0002 72B6     		cpsid i
 148              	@ 0 "" 2
 149              		.thumb
 150              		.syntax unified
 151              	.LBE99:
 152              	.LBE98:
 153              	.LBE97:
 154              	.LBE96:
 155              		.loc 1 123 0
 156 0004 FFF7FEFF 		bl	chSemResetI
 157              	.LVL13:
 158              		.loc 1 124 0
 159 0008 FFF7FEFF 		bl	chSchRescheduleS
 160              	.LVL14:
 161              	.LBB100:
 162              	.LBB101:
 163              	.LBB102:
 164              	.LBB103:
 165              	.LBB104:
 166              		.loc 3 331 0
 167              		.syntax unified
 168              	@ 331 "ChibiOS_3.0.5/os/ext/CMSIS/include/core_cmFunc.h" 1
 169 000c 62B6     		cpsie i
 170              	@ 0 "" 2
 171              		.thumb
ARM GAS  /tmp/ccEshaLd.s 			page 4


 172              		.syntax unified
 173              	.LBE104:
 174              	.LBE103:
 175              	.LBE102:
 176              	.LBE101:
 177              	.LBE100:
 178              		.loc 1 126 0
 179 000e 08BD     		pop	{r3, pc}
 180              		.cfi_endproc
 181              	.LFE220:
 182              		.size	chSemReset, .-chSemReset
 183              		.section	.text.chSemWait,"ax",%progbits
 184              		.align	1
 185              		.p2align 4,,15
 186              		.global	chSemWait
 187              		.syntax unified
 188              		.thumb
 189              		.thumb_func
 190              		.fpu fpv4-sp-d16
 191              		.type	chSemWait, %function
 192              	chSemWait:
 193              	.LFB222:
 194              		.loc 1 175 0
 195              		.cfi_startproc
 196              		@ args = 0, pretend = 0, frame = 0
 197              		@ frame_needed = 0, uses_anonymous_args = 0
 198              	.LVL15:
 199              	.LBB120:
 200              	.LBB121:
 201              	.LBB122:
 202              	.LBB123:
 203              		.loc 3 342 0
 204              		.syntax unified
 205              	@ 342 "ChibiOS_3.0.5/os/ext/CMSIS/include/core_cmFunc.h" 1
 206 0000 72B6     		cpsid i
 207              	@ 0 "" 2
 208              	.LVL16:
 209              		.thumb
 210              		.syntax unified
 211              	.LBE123:
 212              	.LBE122:
 213              	.LBE121:
 214              	.LBE120:
 215              	.LBB124:
 216              	.LBB125:
 217              		.loc 1 205 0
 218 0002 8368     		ldr	r3, [r0, #8]
 219 0004 013B     		subs	r3, r3, #1
 220 0006 002B     		cmp	r3, #0
 221 0008 8360     		str	r3, [r0, #8]
 222 000a 02DB     		blt	.L17
 223              		.loc 1 213 0
 224 000c 0020     		movs	r0, #0
 225              	.LVL17:
 226              	.LBE125:
 227              	.LBE124:
 228              	.LBB135:
ARM GAS  /tmp/ccEshaLd.s 			page 5


 229              	.LBB136:
 230              	.LBB137:
 231              	.LBB138:
 232              	.LBB139:
 233              		.loc 3 331 0
 234              		.syntax unified
 235              	@ 331 "ChibiOS_3.0.5/os/ext/CMSIS/include/core_cmFunc.h" 1
 236 000e 62B6     		cpsie i
 237              	@ 0 "" 2
 238              		.thumb
 239              		.syntax unified
 240              	.LBE139:
 241              	.LBE138:
 242              	.LBE137:
 243              	.LBE136:
 244              	.LBE135:
 245              		.loc 1 183 0
 246 0010 7047     		bx	lr
 247              	.LVL18:
 248              	.L17:
 249              		.loc 1 175 0
 250 0012 10B5     		push	{r4, lr}
 251              		.cfi_def_cfa_offset 8
 252              		.cfi_offset 4, -8
 253              		.cfi_offset 14, -4
 254              	.LBB144:
 255              	.LBB134:
 256              	.LBB126:
 257              	.LBB127:
 258              		.loc 1 206 0
 259 0014 074C     		ldr	r4, .L18
 260              	.LBB128:
 261              	.LBB129:
 262              		.loc 2 666 0
 263 0016 4168     		ldr	r1, [r0, #4]
 264              	.LBE129:
 265              	.LBE128:
 266              		.loc 1 206 0
 267 0018 A269     		ldr	r2, [r4, #24]
 268 001a 0346     		mov	r3, r0
 269              	.LVL19:
 270 001c 9362     		str	r3, [r2, #40]
 271              	.LVL20:
 272              	.LBB132:
 273              	.LBB130:
 274              		.loc 2 666 0
 275 001e C2E90031 		strd	r3, r1, [r2]
 276              	.LBE130:
 277              	.LBE132:
 278              		.loc 1 208 0
 279 0022 0520     		movs	r0, #5
 280              	.LVL21:
 281              	.LBB133:
 282              	.LBB131:
 283              		.loc 2 667 0
 284 0024 0A60     		str	r2, [r1]
 285              		.loc 2 668 0
ARM GAS  /tmp/ccEshaLd.s 			page 6


 286 0026 5A60     		str	r2, [r3, #4]
 287              	.LVL22:
 288              	.LBE131:
 289              	.LBE133:
 290              		.loc 1 208 0
 291 0028 FFF7FEFF 		bl	chSchGoSleepS
 292              	.LVL23:
 293              		.loc 1 210 0
 294 002c A369     		ldr	r3, [r4, #24]
 295 002e 986A     		ldr	r0, [r3, #40]
 296              	.LVL24:
 297              	.LBE127:
 298              	.LBE126:
 299              	.LBE134:
 300              	.LBE144:
 301              	.LBB145:
 302              	.LBB143:
 303              	.LBB142:
 304              	.LBB141:
 305              	.LBB140:
 306              		.loc 3 331 0
 307              		.syntax unified
 308              	@ 331 "ChibiOS_3.0.5/os/ext/CMSIS/include/core_cmFunc.h" 1
 309 0030 62B6     		cpsie i
 310              	@ 0 "" 2
 311              		.thumb
 312              		.syntax unified
 313              	.LBE140:
 314              	.LBE141:
 315              	.LBE142:
 316              	.LBE143:
 317              	.LBE145:
 318              		.loc 1 183 0
 319 0032 10BD     		pop	{r4, pc}
 320              	.L19:
 321              		.align	2
 322              	.L18:
 323 0034 00000000 		.word	ch
 324              		.cfi_endproc
 325              	.LFE222:
 326              		.size	chSemWait, .-chSemWait
 327              		.section	.text.chSemWaitS,"ax",%progbits
 328              		.align	1
 329              		.p2align 4,,15
 330              		.global	chSemWaitS
 331              		.syntax unified
 332              		.thumb
 333              		.thumb_func
 334              		.fpu fpv4-sp-d16
 335              		.type	chSemWaitS, %function
 336              	chSemWaitS:
 337              	.LFB223:
 338              		.loc 1 197 0
 339              		.cfi_startproc
 340              		@ args = 0, pretend = 0, frame = 0
 341              		@ frame_needed = 0, uses_anonymous_args = 0
 342              	.LVL25:
ARM GAS  /tmp/ccEshaLd.s 			page 7


 343              		.loc 1 205 0
 344 0000 8368     		ldr	r3, [r0, #8]
 345 0002 013B     		subs	r3, r3, #1
 346 0004 002B     		cmp	r3, #0
 347 0006 8360     		str	r3, [r0, #8]
 348 0008 01DB     		blt	.L27
 349              		.loc 1 213 0
 350 000a 0020     		movs	r0, #0
 351              	.LVL26:
 352              		.loc 1 214 0
 353 000c 7047     		bx	lr
 354              	.LVL27:
 355              	.L27:
 356              		.loc 1 197 0
 357 000e 10B5     		push	{r4, lr}
 358              		.cfi_def_cfa_offset 8
 359              		.cfi_offset 4, -8
 360              		.cfi_offset 14, -4
 361              	.LBB150:
 362              	.LBB151:
 363              		.loc 1 206 0
 364 0010 074C     		ldr	r4, .L28
 365              	.LBB152:
 366              	.LBB153:
 367              		.loc 2 666 0
 368 0012 4168     		ldr	r1, [r0, #4]
 369              	.LBE153:
 370              	.LBE152:
 371              		.loc 1 206 0
 372 0014 A269     		ldr	r2, [r4, #24]
 373 0016 0346     		mov	r3, r0
 374              	.LVL28:
 375 0018 9362     		str	r3, [r2, #40]
 376              	.LVL29:
 377              	.LBB156:
 378              	.LBB154:
 379              		.loc 2 666 0
 380 001a C2E90031 		strd	r3, r1, [r2]
 381              	.LBE154:
 382              	.LBE156:
 383              		.loc 1 208 0
 384 001e 0520     		movs	r0, #5
 385              	.LVL30:
 386              	.LBB157:
 387              	.LBB155:
 388              		.loc 2 667 0
 389 0020 0A60     		str	r2, [r1]
 390              		.loc 2 668 0
 391 0022 5A60     		str	r2, [r3, #4]
 392              	.LVL31:
 393              	.LBE155:
 394              	.LBE157:
 395              		.loc 1 208 0
 396 0024 FFF7FEFF 		bl	chSchGoSleepS
 397              	.LVL32:
 398              		.loc 1 210 0
 399 0028 A369     		ldr	r3, [r4, #24]
ARM GAS  /tmp/ccEshaLd.s 			page 8


 400 002a 986A     		ldr	r0, [r3, #40]
 401              	.LVL33:
 402              	.LBE151:
 403              	.LBE150:
 404              		.loc 1 214 0
 405 002c 10BD     		pop	{r4, pc}
 406              	.L29:
 407 002e 00BF     		.align	2
 408              	.L28:
 409 0030 00000000 		.word	ch
 410              		.cfi_endproc
 411              	.LFE223:
 412              		.size	chSemWaitS, .-chSemWaitS
 413              		.section	.text.chSemWaitTimeout,"ax",%progbits
 414              		.align	1
 415              		.p2align 4,,15
 416              		.global	chSemWaitTimeout
 417              		.syntax unified
 418              		.thumb
 419              		.thumb_func
 420              		.fpu fpv4-sp-d16
 421              		.type	chSemWaitTimeout, %function
 422              	chSemWaitTimeout:
 423              	.LFB224:
 424              		.loc 1 235 0
 425              		.cfi_startproc
 426              		@ args = 0, pretend = 0, frame = 0
 427              		@ frame_needed = 0, uses_anonymous_args = 0
 428              	.LVL34:
 429              	.LBB173:
 430              	.LBB174:
 431              	.LBB175:
 432              	.LBB176:
 433              		.loc 3 342 0
 434              		.syntax unified
 435              	@ 342 "ChibiOS_3.0.5/os/ext/CMSIS/include/core_cmFunc.h" 1
 436 0000 72B6     		cpsid i
 437              	@ 0 "" 2
 438              	.LVL35:
 439              		.thumb
 440              		.syntax unified
 441              	.LBE176:
 442              	.LBE175:
 443              	.LBE174:
 444              	.LBE173:
 445              	.LBB177:
 446              	.LBB178:
 447              		.loc 1 272 0
 448 0002 8268     		ldr	r2, [r0, #8]
 449 0004 531E     		subs	r3, r2, #1
 450 0006 002B     		cmp	r3, #0
 451 0008 8360     		str	r3, [r0, #8]
 452 000a 02DB     		blt	.L38
 453              		.loc 1 284 0
 454 000c 0020     		movs	r0, #0
 455              	.LVL36:
 456              	.LBE178:
ARM GAS  /tmp/ccEshaLd.s 			page 9


 457              	.LBE177:
 458              	.LBB189:
 459              	.LBB190:
 460              	.LBB191:
 461              	.LBB192:
 462              	.LBB193:
 463              		.loc 3 331 0
 464              		.syntax unified
 465              	@ 331 "ChibiOS_3.0.5/os/ext/CMSIS/include/core_cmFunc.h" 1
 466 000e 62B6     		cpsie i
 467              	@ 0 "" 2
 468              		.thumb
 469              		.syntax unified
 470              	.LBE193:
 471              	.LBE192:
 472              	.LBE191:
 473              	.LBE190:
 474              	.LBE189:
 475              		.loc 1 243 0
 476 0010 7047     		bx	lr
 477              	.LVL37:
 478              	.L38:
 479              		.loc 1 235 0
 480 0012 10B5     		push	{r4, lr}
 481              		.cfi_def_cfa_offset 8
 482              		.cfi_offset 4, -8
 483              		.cfi_offset 14, -4
 484              	.LBB198:
 485              	.LBB187:
 486              		.loc 1 273 0
 487 0014 69B1     		cbz	r1, .L39
 488              	.LBB179:
 489              	.LBB180:
 490              		.loc 1 278 0
 491 0016 094A     		ldr	r2, .L40
 492              	.LBB181:
 493              	.LBB182:
 494              		.loc 2 666 0
 495 0018 4468     		ldr	r4, [r0, #4]
 496              	.LBE182:
 497              	.LBE181:
 498              		.loc 1 278 0
 499 001a 9269     		ldr	r2, [r2, #24]
 500 001c 0346     		mov	r3, r0
 501              	.LVL38:
 502 001e 9362     		str	r3, [r2, #40]
 503              	.LVL39:
 504              	.LBB185:
 505              	.LBB183:
 506              		.loc 2 666 0
 507 0020 C2E90034 		strd	r3, r4, [r2]
 508              	.LBE183:
 509              	.LBE185:
 510              		.loc 1 281 0
 511 0024 0520     		movs	r0, #5
 512              	.LVL40:
 513              	.LBB186:
ARM GAS  /tmp/ccEshaLd.s 			page 10


 514              	.LBB184:
 515              		.loc 2 667 0
 516 0026 2260     		str	r2, [r4]
 517              		.loc 2 668 0
 518 0028 5A60     		str	r2, [r3, #4]
 519              	.LVL41:
 520              	.LBE184:
 521              	.LBE186:
 522              		.loc 1 281 0
 523 002a FFF7FEFF 		bl	chSchGoSleepTimeoutS
 524              	.LVL42:
 525              	.L31:
 526              	.LBE180:
 527              	.LBE179:
 528              	.LBE187:
 529              	.LBE198:
 530              	.LBB199:
 531              	.LBB197:
 532              	.LBB196:
 533              	.LBB195:
 534              	.LBB194:
 535              		.loc 3 331 0
 536              		.syntax unified
 537              	@ 331 "ChibiOS_3.0.5/os/ext/CMSIS/include/core_cmFunc.h" 1
 538 002e 62B6     		cpsie i
 539              	@ 0 "" 2
 540              		.thumb
 541              		.syntax unified
 542              	.LBE194:
 543              	.LBE195:
 544              	.LBE196:
 545              	.LBE197:
 546              	.LBE199:
 547              		.loc 1 243 0
 548 0030 10BD     		pop	{r4, pc}
 549              	.LVL43:
 550              	.L39:
 551              	.LBB200:
 552              	.LBB188:
 553              		.loc 1 274 0
 554 0032 8260     		str	r2, [r0, #8]
 555              		.loc 1 276 0
 556 0034 4FF0FF30 		mov	r0, #-1
 557              	.LVL44:
 558 0038 F9E7     		b	.L31
 559              	.L41:
 560 003a 00BF     		.align	2
 561              	.L40:
 562 003c 00000000 		.word	ch
 563              	.LBE188:
 564              	.LBE200:
 565              		.cfi_endproc
 566              	.LFE224:
 567              		.size	chSemWaitTimeout, .-chSemWaitTimeout
 568              		.section	.text.chSemWaitTimeoutS,"ax",%progbits
 569              		.align	1
 570              		.p2align 4,,15
ARM GAS  /tmp/ccEshaLd.s 			page 11


 571              		.global	chSemWaitTimeoutS
 572              		.syntax unified
 573              		.thumb
 574              		.thumb_func
 575              		.fpu fpv4-sp-d16
 576              		.type	chSemWaitTimeoutS, %function
 577              	chSemWaitTimeoutS:
 578              	.LFB225:
 579              		.loc 1 264 0
 580              		.cfi_startproc
 581              		@ args = 0, pretend = 0, frame = 0
 582              		@ frame_needed = 0, uses_anonymous_args = 0
 583              		@ link register save eliminated.
 584              	.LVL45:
 585 0000 0346     		mov	r3, r0
 586              		.loc 1 272 0
 587 0002 8068     		ldr	r0, [r0, #8]
 588              	.LVL46:
 589 0004 421E     		subs	r2, r0, #1
 590 0006 002A     		cmp	r2, #0
 591 0008 9A60     		str	r2, [r3, #8]
 592 000a 01DB     		blt	.L50
 593              		.loc 1 284 0
 594 000c 0020     		movs	r0, #0
 595              		.loc 1 285 0
 596 000e 7047     		bx	lr
 597              	.L50:
 598              		.loc 1 264 0
 599 0010 10B4     		push	{r4}
 600              		.cfi_def_cfa_offset 4
 601              		.cfi_offset 4, -4
 602              		.loc 1 273 0
 603 0012 61B1     		cbz	r1, .L51
 604              	.LVL47:
 605              	.LBB205:
 606              	.LBB206:
 607              		.loc 1 278 0
 608 0014 094A     		ldr	r2, .L52
 609              	.LBB207:
 610              	.LBB208:
 611              		.loc 2 666 0
 612 0016 5C68     		ldr	r4, [r3, #4]
 613              	.LBE208:
 614              	.LBE207:
 615              		.loc 1 278 0
 616 0018 9269     		ldr	r2, [r2, #24]
 617              		.loc 1 281 0
 618 001a 0520     		movs	r0, #5
 619              	.LBB211:
 620              	.LBB209:
 621              		.loc 2 666 0
 622 001c C2E90034 		strd	r3, r4, [r2]
 623              	.LBE209:
 624              	.LBE211:
 625              		.loc 1 278 0
 626 0020 9362     		str	r3, [r2, #40]
 627              	.LVL48:
ARM GAS  /tmp/ccEshaLd.s 			page 12


 628              	.LBB212:
 629              	.LBB210:
 630              		.loc 2 667 0
 631 0022 2260     		str	r2, [r4]
 632              		.loc 2 668 0
 633 0024 5A60     		str	r2, [r3, #4]
 634              	.LVL49:
 635              	.LBE210:
 636              	.LBE212:
 637              	.LBE206:
 638              	.LBE205:
 639              		.loc 1 285 0
 640 0026 5DF8044B 		ldr	r4, [sp], #4
 641              		.cfi_remember_state
 642              		.cfi_restore 4
 643              		.cfi_def_cfa_offset 0
 644              	.LBB214:
 645              	.LBB213:
 646              		.loc 1 281 0
 647 002a FFF7FEBF 		b	chSchGoSleepTimeoutS
 648              	.LVL50:
 649              	.L51:
 650              		.cfi_restore_state
 651              	.LBE213:
 652              	.LBE214:
 653              		.loc 1 274 0
 654 002e 9860     		str	r0, [r3, #8]
 655              		.loc 1 285 0
 656 0030 5DF8044B 		ldr	r4, [sp], #4
 657              		.cfi_restore 4
 658              		.cfi_def_cfa_offset 0
 659              		.loc 1 276 0
 660 0034 4FF0FF30 		mov	r0, #-1
 661              		.loc 1 285 0
 662 0038 7047     		bx	lr
 663              	.L53:
 664 003a 00BF     		.align	2
 665              	.L52:
 666 003c 00000000 		.word	ch
 667              		.cfi_endproc
 668              	.LFE225:
 669              		.size	chSemWaitTimeoutS, .-chSemWaitTimeoutS
 670              		.section	.text.chSemSignal,"ax",%progbits
 671              		.align	1
 672              		.p2align 4,,15
 673              		.global	chSemSignal
 674              		.syntax unified
 675              		.thumb
 676              		.thumb_func
 677              		.fpu fpv4-sp-d16
 678              		.type	chSemSignal, %function
 679              	chSemSignal:
 680              	.LFB226:
 681              		.loc 1 294 0
 682              		.cfi_startproc
 683              		@ args = 0, pretend = 0, frame = 0
 684              		@ frame_needed = 0, uses_anonymous_args = 0
ARM GAS  /tmp/ccEshaLd.s 			page 13


 685              	.LVL51:
 686 0000 08B5     		push	{r3, lr}
 687              		.cfi_def_cfa_offset 8
 688              		.cfi_offset 3, -8
 689              		.cfi_offset 14, -4
 690              	.LBB215:
 691              	.LBB216:
 692              	.LBB217:
 693              	.LBB218:
 694              		.loc 3 342 0
 695              		.syntax unified
 696              	@ 342 "ChibiOS_3.0.5/os/ext/CMSIS/include/core_cmFunc.h" 1
 697 0002 72B6     		cpsid i
 698              	@ 0 "" 2
 699              		.thumb
 700              		.syntax unified
 701              	.LBE218:
 702              	.LBE217:
 703              	.LBE216:
 704              	.LBE215:
 705              		.loc 1 302 0
 706 0004 8368     		ldr	r3, [r0, #8]
 707 0006 0133     		adds	r3, r3, #1
 708 0008 002B     		cmp	r3, #0
 709 000a 8360     		str	r3, [r0, #8]
 710 000c 01DD     		ble	.L57
 711              	.LBB219:
 712              	.LBB220:
 713              	.LBB221:
 714              	.LBB222:
 715              	.LBB223:
 716              		.loc 3 331 0
 717              		.syntax unified
 718              	@ 331 "ChibiOS_3.0.5/os/ext/CMSIS/include/core_cmFunc.h" 1
 719 000e 62B6     		cpsie i
 720              	@ 0 "" 2
 721              		.thumb
 722              		.syntax unified
 723              	.LBE223:
 724              	.LBE222:
 725              	.LBE221:
 726              	.LBE220:
 727              	.LBE219:
 728              		.loc 1 306 0
 729 0010 08BD     		pop	{r3, pc}
 730              	.L57:
 731 0012 0346     		mov	r3, r0
 732              	.LVL52:
 733              	.LBB228:
 734              	.LBB229:
 735              		.loc 2 672 0
 736 0014 0068     		ldr	r0, [r0]
 737              	.LVL53:
 738              		.loc 2 674 0
 739 0016 0268     		ldr	r2, [r0]
 740 0018 1A60     		str	r2, [r3]
 741              	.LBE229:
ARM GAS  /tmp/ccEshaLd.s 			page 14


 742              	.LBE228:
 743              		.loc 1 303 0
 744 001a 0021     		movs	r1, #0
 745              	.LBB231:
 746              	.LBB230:
 747              		.loc 2 675 0
 748 001c 5360     		str	r3, [r2, #4]
 749              	.LVL54:
 750              	.LBE230:
 751              	.LBE231:
 752              		.loc 1 303 0
 753 001e FFF7FEFF 		bl	chSchWakeupS
 754              	.LVL55:
 755              	.LBB232:
 756              	.LBB227:
 757              	.LBB226:
 758              	.LBB225:
 759              	.LBB224:
 760              		.loc 3 331 0
 761              		.syntax unified
 762              	@ 331 "ChibiOS_3.0.5/os/ext/CMSIS/include/core_cmFunc.h" 1
 763 0022 62B6     		cpsie i
 764              	@ 0 "" 2
 765              		.thumb
 766              		.syntax unified
 767              	.LBE224:
 768              	.LBE225:
 769              	.LBE226:
 770              	.LBE227:
 771              	.LBE232:
 772              		.loc 1 306 0
 773 0024 08BD     		pop	{r3, pc}
 774              		.cfi_endproc
 775              	.LFE226:
 776              		.size	chSemSignal, .-chSemSignal
 777 0026 00BF     		.section	.text.chSemSignalI,"ax",%progbits
 778              		.align	1
 779              		.p2align 4,,15
 780              		.global	chSemSignalI
 781              		.syntax unified
 782              		.thumb
 783              		.thumb_func
 784              		.fpu fpv4-sp-d16
 785              		.type	chSemSignalI, %function
 786              	chSemSignalI:
 787              	.LFB227:
 788              		.loc 1 319 0
 789              		.cfi_startproc
 790              		@ args = 0, pretend = 0, frame = 0
 791              		@ frame_needed = 0, uses_anonymous_args = 0
 792              		@ link register save eliminated.
 793              	.LVL56:
 794              		.loc 1 327 0
 795 0000 8368     		ldr	r3, [r0, #8]
 796 0002 0133     		adds	r3, r3, #1
 797 0004 002B     		cmp	r3, #0
 798 0006 8360     		str	r3, [r0, #8]
ARM GAS  /tmp/ccEshaLd.s 			page 15


 799 0008 00DD     		ble	.L60
 800              		.loc 1 334 0
 801 000a 7047     		bx	lr
 802              	.L60:
 803              	.LVL57:
 804              	.LBB233:
 805              	.LBB234:
 806              	.LBB235:
 807              		.loc 2 672 0
 808 000c 0368     		ldr	r3, [r0]
 809              	.LVL58:
 810              		.loc 2 674 0
 811 000e 1A68     		ldr	r2, [r3]
 812 0010 0260     		str	r2, [r0]
 813              	.LBE235:
 814              	.LBE234:
 815              		.loc 1 331 0
 816 0012 0021     		movs	r1, #0
 817              	.LBB237:
 818              	.LBB236:
 819              		.loc 2 675 0
 820 0014 5060     		str	r0, [r2, #4]
 821              	.LVL59:
 822              	.LBE236:
 823              	.LBE237:
 824              		.loc 1 332 0
 825 0016 1846     		mov	r0, r3
 826              	.LVL60:
 827              		.loc 1 331 0
 828 0018 9962     		str	r1, [r3, #40]
 829              		.loc 1 332 0
 830 001a FFF7FEBF 		b	chSchReadyI
 831              	.LVL61:
 832              	.LBE233:
 833              		.cfi_endproc
 834              	.LFE227:
 835              		.size	chSemSignalI, .-chSemSignalI
 836 001e 00BF     		.section	.text.chSemAddCounterI,"ax",%progbits
 837              		.align	1
 838              		.p2align 4,,15
 839              		.global	chSemAddCounterI
 840              		.syntax unified
 841              		.thumb
 842              		.thumb_func
 843              		.fpu fpv4-sp-d16
 844              		.type	chSemAddCounterI, %function
 845              	chSemAddCounterI:
 846              	.LFB228:
 847              		.loc 1 349 0
 848              		.cfi_startproc
 849              		@ args = 0, pretend = 0, frame = 0
 850              		@ frame_needed = 0, uses_anonymous_args = 0
 851              	.LVL62:
 852 0000 70B5     		push	{r4, r5, r6, lr}
 853              		.cfi_def_cfa_offset 16
 854              		.cfi_offset 4, -16
 855              		.cfi_offset 5, -12
ARM GAS  /tmp/ccEshaLd.s 			page 16


 856              		.cfi_offset 6, -8
 857              		.cfi_offset 14, -4
 858              		.loc 1 357 0
 859 0002 0C1E     		subs	r4, r1, #0
 860 0004 12DD     		ble	.L61
 861 0006 0546     		mov	r5, r0
 862              		.loc 1 359 0
 863 0008 0026     		movs	r6, #0
 864 000a 01E0     		b	.L64
 865              	.LVL63:
 866              	.L63:
 867              		.loc 1 357 0
 868 000c 013C     		subs	r4, r4, #1
 869              	.LVL64:
 870 000e 0DD0     		beq	.L61
 871              	.LVL65:
 872              	.L64:
 873              		.loc 1 358 0
 874 0010 AB68     		ldr	r3, [r5, #8]
 875 0012 0133     		adds	r3, r3, #1
 876 0014 002B     		cmp	r3, #0
 877 0016 AB60     		str	r3, [r5, #8]
 878 0018 F8DC     		bgt	.L63
 879              	.LVL66:
 880              	.LBB238:
 881              	.LBB239:
 882              		.loc 2 672 0
 883 001a 2868     		ldr	r0, [r5]
 884              	.LVL67:
 885              		.loc 2 674 0
 886 001c 0368     		ldr	r3, [r0]
 887 001e 2B60     		str	r3, [r5]
 888              		.loc 2 675 0
 889 0020 5D60     		str	r5, [r3, #4]
 890              	.LVL68:
 891              	.LBE239:
 892              	.LBE238:
 893              		.loc 1 359 0
 894 0022 FFF7FEFF 		bl	chSchReadyI
 895              	.LVL69:
 896              		.loc 1 357 0
 897 0026 013C     		subs	r4, r4, #1
 898              	.LVL70:
 899              		.loc 1 359 0
 900 0028 8662     		str	r6, [r0, #40]
 901              	.LVL71:
 902              		.loc 1 357 0
 903 002a F1D1     		bne	.L64
 904              	.LVL72:
 905              	.L61:
 906              		.loc 1 363 0
 907 002c 70BD     		pop	{r4, r5, r6, pc}
 908              		.cfi_endproc
 909              	.LFE228:
 910              		.size	chSemAddCounterI, .-chSemAddCounterI
 911 002e 00BF     		.section	.text.chSemSignalWait,"ax",%progbits
 912              		.align	1
ARM GAS  /tmp/ccEshaLd.s 			page 17


 913              		.p2align 4,,15
 914              		.global	chSemSignalWait
 915              		.syntax unified
 916              		.thumb
 917              		.thumb_func
 918              		.fpu fpv4-sp-d16
 919              		.type	chSemSignalWait, %function
 920              	chSemSignalWait:
 921              	.LFB229:
 922              		.loc 1 378 0
 923              		.cfi_startproc
 924              		@ args = 0, pretend = 0, frame = 0
 925              		@ frame_needed = 0, uses_anonymous_args = 0
 926              	.LVL73:
 927 0000 38B5     		push	{r3, r4, r5, lr}
 928              		.cfi_def_cfa_offset 16
 929              		.cfi_offset 3, -16
 930              		.cfi_offset 4, -12
 931              		.cfi_offset 5, -8
 932              		.cfi_offset 14, -4
 933              		.loc 1 378 0
 934 0002 0C46     		mov	r4, r1
 935              	.LBB240:
 936              	.LBB241:
 937              	.LBB242:
 938              	.LBB243:
 939              		.loc 3 342 0
 940              		.syntax unified
 941              	@ 342 "ChibiOS_3.0.5/os/ext/CMSIS/include/core_cmFunc.h" 1
 942 0004 72B6     		cpsid i
 943              	@ 0 "" 2
 944              		.thumb
 945              		.syntax unified
 946              	.LBE243:
 947              	.LBE242:
 948              	.LBE241:
 949              	.LBE240:
 950              		.loc 1 390 0
 951 0006 8368     		ldr	r3, [r0, #8]
 952 0008 0133     		adds	r3, r3, #1
 953 000a 002B     		cmp	r3, #0
 954 000c 8360     		str	r3, [r0, #8]
 955 000e 17DD     		ble	.L72
 956              	.LVL74:
 957              	.L68:
 958              		.loc 1 393 0
 959 0010 A368     		ldr	r3, [r4, #8]
 960 0012 013B     		subs	r3, r3, #1
 961 0014 002B     		cmp	r3, #0
 962 0016 A360     		str	r3, [r4, #8]
 963 0018 04DB     		blt	.L73
 964              		.loc 1 401 0
 965 001a FFF7FEFF 		bl	chSchRescheduleS
 966              	.LVL75:
 967              		.loc 1 402 0
 968 001e 0020     		movs	r0, #0
 969              	.LVL76:
ARM GAS  /tmp/ccEshaLd.s 			page 18


 970              	.LBB244:
 971              	.LBB245:
 972              	.LBB246:
 973              	.LBB247:
 974              	.LBB248:
 975              		.loc 3 331 0
 976              		.syntax unified
 977              	@ 331 "ChibiOS_3.0.5/os/ext/CMSIS/include/core_cmFunc.h" 1
 978 0020 62B6     		cpsie i
 979              	@ 0 "" 2
 980              		.thumb
 981              		.syntax unified
 982              	.LBE248:
 983              	.LBE247:
 984              	.LBE246:
 985              	.LBE245:
 986              	.LBE244:
 987              		.loc 1 407 0
 988 0022 38BD     		pop	{r3, r4, r5, pc}
 989              	.LVL77:
 990              	.L73:
 991              	.LBB253:
 992              		.loc 1 394 0
 993 0024 0B4A     		ldr	r2, .L74
 994              	.LBB254:
 995              	.LBB255:
 996              		.loc 2 666 0
 997 0026 6368     		ldr	r3, [r4, #4]
 998              	.LBE255:
 999              	.LBE254:
 1000              		.loc 1 394 0
 1001 0028 9569     		ldr	r5, [r2, #24]
 1002              	.LVL78:
 1003              		.loc 1 397 0
 1004 002a 0520     		movs	r0, #5
 1005              	.LBB257:
 1006              	.LBB256:
 1007              		.loc 2 666 0
 1008 002c C5E90043 		strd	r4, r3, [r5]
 1009              		.loc 2 667 0
 1010 0030 1D60     		str	r5, [r3]
 1011              		.loc 2 668 0
 1012 0032 6560     		str	r5, [r4, #4]
 1013              	.LVL79:
 1014              	.LBE256:
 1015              	.LBE257:
 1016              		.loc 1 396 0
 1017 0034 AC62     		str	r4, [r5, #40]
 1018              		.loc 1 397 0
 1019 0036 FFF7FEFF 		bl	chSchGoSleepS
 1020              	.LVL80:
 1021              		.loc 1 398 0
 1022 003a A86A     		ldr	r0, [r5, #40]
 1023              	.LVL81:
 1024              	.LBE253:
 1025              	.LBB258:
 1026              	.LBB252:
ARM GAS  /tmp/ccEshaLd.s 			page 19


 1027              	.LBB251:
 1028              	.LBB250:
 1029              	.LBB249:
 1030              		.loc 3 331 0
 1031              		.syntax unified
 1032              	@ 331 "ChibiOS_3.0.5/os/ext/CMSIS/include/core_cmFunc.h" 1
 1033 003c 62B6     		cpsie i
 1034              	@ 0 "" 2
 1035              		.thumb
 1036              		.syntax unified
 1037              	.LBE249:
 1038              	.LBE250:
 1039              	.LBE251:
 1040              	.LBE252:
 1041              	.LBE258:
 1042              		.loc 1 407 0
 1043 003e 38BD     		pop	{r3, r4, r5, pc}
 1044              	.LVL82:
 1045              	.L72:
 1046 0040 0246     		mov	r2, r0
 1047              	.LVL83:
 1048              	.LBB259:
 1049              	.LBB260:
 1050              		.loc 2 672 0
 1051 0042 0068     		ldr	r0, [r0]
 1052              	.LVL84:
 1053              		.loc 2 674 0
 1054 0044 0368     		ldr	r3, [r0]
 1055 0046 1360     		str	r3, [r2]
 1056              		.loc 2 675 0
 1057 0048 5A60     		str	r2, [r3, #4]
 1058              	.LVL85:
 1059              	.LBE260:
 1060              	.LBE259:
 1061              		.loc 1 391 0
 1062 004a FFF7FEFF 		bl	chSchReadyI
 1063              	.LVL86:
 1064 004e 0023     		movs	r3, #0
 1065 0050 8362     		str	r3, [r0, #40]
 1066 0052 DDE7     		b	.L68
 1067              	.L75:
 1068              		.align	2
 1069              	.L74:
 1070 0054 00000000 		.word	ch
 1071              		.cfi_endproc
 1072              	.LFE229:
 1073              		.size	chSemSignalWait, .-chSemSignalWait
 1074              		.text
 1075              	.Letext0:
 1076              		.file 4 "/usr/arm-none-eabi/include/machine/_default_types.h"
 1077              		.file 5 "/usr/arm-none-eabi/include/sys/_stdint.h"
 1078              		.file 6 "ChibiOS_3.0.5/os/rt/ports/ARMCMx/compilers/GCC/chtypes.h"
 1079              		.file 7 "ChibiOS_3.0.5/os/rt/include/chsystypes.h"
 1080              		.file 8 "ChibiOS_3.0.5/os/ext/CMSIS/include/core_cm4.h"
 1081              		.file 9 "ChibiOS_3.0.5/os/ext/CMSIS/ST/system_stm32f4xx.h"
 1082              		.file 10 "ChibiOS_3.0.5/os/rt/ports/ARMCMx/chcore.h"
 1083              		.file 11 "ChibiOS_3.0.5/os/rt/ports/ARMCMx/chcore_v7m.h"
ARM GAS  /tmp/ccEshaLd.s 			page 20


 1084              		.file 12 "ChibiOS_3.0.5/os/rt/include/chtm.h"
 1085              		.file 13 "ChibiOS_3.0.5/os/rt/include/chsem.h"
 1086              		.file 14 "ChibiOS_3.0.5/os/rt/include/chmtx.h"
 1087              		.file 15 "ChibiOS_3.0.5/os/rt/include/chregistry.h"
 1088              		.file 16 "ChibiOS_3.0.5/os/rt/include/chsys.h"
 1089              		.section	.debug_info,"",%progbits
 1090              	.Ldebug_info0:
 1091 0000 6B120000 		.4byte	0x126b
 1092 0004 0400     		.2byte	0x4
 1093 0006 00000000 		.4byte	.Ldebug_abbrev0
 1094 000a 04       		.byte	0x4
 1095 000b 01       		.uleb128 0x1
 1096 000c 8A000000 		.4byte	.LASF158
 1097 0010 0C       		.byte	0xc
 1098 0011 71040000 		.4byte	.LASF159
 1099 0015 63060000 		.4byte	.LASF160
 1100 0019 78010000 		.4byte	.Ldebug_ranges0+0x178
 1101 001d 00000000 		.4byte	0
 1102 0021 00000000 		.4byte	.Ldebug_line0
 1103 0025 02       		.uleb128 0x2
 1104 0026 04       		.byte	0x4
 1105 0027 05       		.byte	0x5
 1106 0028 696E7400 		.ascii	"int\000"
 1107 002c 03       		.uleb128 0x3
 1108 002d 04       		.byte	0x4
 1109 002e 07       		.byte	0x7
 1110 002f 61030000 		.4byte	.LASF0
 1111 0033 03       		.uleb128 0x3
 1112 0034 01       		.byte	0x1
 1113 0035 06       		.byte	0x6
 1114 0036 54020000 		.4byte	.LASF1
 1115 003a 04       		.uleb128 0x4
 1116 003b 5A000000 		.4byte	.LASF4
 1117 003f 04       		.byte	0x4
 1118 0040 2B       		.byte	0x2b
 1119 0041 45000000 		.4byte	0x45
 1120 0045 03       		.uleb128 0x3
 1121 0046 01       		.byte	0x1
 1122 0047 08       		.byte	0x8
 1123 0048 87050000 		.4byte	.LASF2
 1124 004c 03       		.uleb128 0x3
 1125 004d 02       		.byte	0x2
 1126 004e 05       		.byte	0x5
 1127 004f 9F050000 		.4byte	.LASF3
 1128 0053 04       		.uleb128 0x4
 1129 0054 DA060000 		.4byte	.LASF5
 1130 0058 04       		.byte	0x4
 1131 0059 39       		.byte	0x39
 1132 005a 5E000000 		.4byte	0x5e
 1133 005e 03       		.uleb128 0x3
 1134 005f 02       		.byte	0x2
 1135 0060 07       		.byte	0x7
 1136 0061 DC030000 		.4byte	.LASF6
 1137 0065 04       		.uleb128 0x4
 1138 0066 3E040000 		.4byte	.LASF7
 1139 006a 04       		.byte	0x4
 1140 006b 4D       		.byte	0x4d
ARM GAS  /tmp/ccEshaLd.s 			page 21


 1141 006c 70000000 		.4byte	0x70
 1142 0070 03       		.uleb128 0x3
 1143 0071 04       		.byte	0x4
 1144 0072 05       		.byte	0x5
 1145 0073 CB020000 		.4byte	.LASF8
 1146 0077 04       		.uleb128 0x4
 1147 0078 1E070000 		.4byte	.LASF9
 1148 007c 04       		.byte	0x4
 1149 007d 4F       		.byte	0x4f
 1150 007e 82000000 		.4byte	0x82
 1151 0082 03       		.uleb128 0x3
 1152 0083 04       		.byte	0x4
 1153 0084 07       		.byte	0x7
 1154 0085 AA060000 		.4byte	.LASF10
 1155 0089 03       		.uleb128 0x3
 1156 008a 08       		.byte	0x8
 1157 008b 05       		.byte	0x5
 1158 008c 46020000 		.4byte	.LASF11
 1159 0090 04       		.uleb128 0x4
 1160 0091 2C050000 		.4byte	.LASF12
 1161 0095 04       		.byte	0x4
 1162 0096 69       		.byte	0x69
 1163 0097 9B000000 		.4byte	0x9b
 1164 009b 03       		.uleb128 0x3
 1165 009c 08       		.byte	0x8
 1166 009d 07       		.byte	0x7
 1167 009e 85020000 		.4byte	.LASF13
 1168 00a2 04       		.uleb128 0x4
 1169 00a3 95070000 		.4byte	.LASF14
 1170 00a7 05       		.byte	0x5
 1171 00a8 18       		.byte	0x18
 1172 00a9 3A000000 		.4byte	0x3a
 1173 00ad 04       		.uleb128 0x4
 1174 00ae 87030000 		.4byte	.LASF15
 1175 00b2 05       		.byte	0x5
 1176 00b3 24       		.byte	0x24
 1177 00b4 53000000 		.4byte	0x53
 1178 00b8 04       		.uleb128 0x4
 1179 00b9 7F050000 		.4byte	.LASF16
 1180 00bd 05       		.byte	0x5
 1181 00be 2C       		.byte	0x2c
 1182 00bf 65000000 		.4byte	0x65
 1183 00c3 05       		.uleb128 0x5
 1184 00c4 B8000000 		.4byte	0xb8
 1185 00c8 04       		.uleb128 0x4
 1186 00c9 69060000 		.4byte	.LASF17
 1187 00cd 05       		.byte	0x5
 1188 00ce 30       		.byte	0x30
 1189 00cf 77000000 		.4byte	0x77
 1190 00d3 04       		.uleb128 0x4
 1191 00d4 51000000 		.4byte	.LASF18
 1192 00d8 05       		.byte	0x5
 1193 00d9 3C       		.byte	0x3c
 1194 00da 90000000 		.4byte	0x90
 1195 00de 04       		.uleb128 0x4
 1196 00df 9B040000 		.4byte	.LASF19
 1197 00e3 06       		.byte	0x6
ARM GAS  /tmp/ccEshaLd.s 			page 22


 1198 00e4 45       		.byte	0x45
 1199 00e5 C8000000 		.4byte	0xc8
 1200 00e9 04       		.uleb128 0x4
 1201 00ea D0050000 		.4byte	.LASF20
 1202 00ee 06       		.byte	0x6
 1203 00ef 48       		.byte	0x48
 1204 00f0 A2000000 		.4byte	0xa2
 1205 00f4 04       		.uleb128 0x4
 1206 00f5 D4020000 		.4byte	.LASF21
 1207 00f9 06       		.byte	0x6
 1208 00fa 49       		.byte	0x49
 1209 00fb A2000000 		.4byte	0xa2
 1210 00ff 04       		.uleb128 0x4
 1211 0100 08030000 		.4byte	.LASF22
 1212 0104 06       		.byte	0x6
 1213 0105 4A       		.byte	0x4a
 1214 0106 A2000000 		.4byte	0xa2
 1215 010a 04       		.uleb128 0x4
 1216 010b B7020000 		.4byte	.LASF23
 1217 010f 06       		.byte	0x6
 1218 0110 4B       		.byte	0x4b
 1219 0111 A2000000 		.4byte	0xa2
 1220 0115 04       		.uleb128 0x4
 1221 0116 67050000 		.4byte	.LASF24
 1222 011a 06       		.byte	0x6
 1223 011b 4C       		.byte	0x4c
 1224 011c C8000000 		.4byte	0xc8
 1225 0120 04       		.uleb128 0x4
 1226 0121 06040000 		.4byte	.LASF25
 1227 0125 06       		.byte	0x6
 1228 0126 4D       		.byte	0x4d
 1229 0127 B8000000 		.4byte	0xb8
 1230 012b 04       		.uleb128 0x4
 1231 012c 32040000 		.4byte	.LASF26
 1232 0130 06       		.byte	0x6
 1233 0131 4F       		.byte	0x4f
 1234 0132 C8000000 		.4byte	0xc8
 1235 0136 04       		.uleb128 0x4
 1236 0137 50030000 		.4byte	.LASF27
 1237 013b 06       		.byte	0x6
 1238 013c 51       		.byte	0x51
 1239 013d B8000000 		.4byte	0xb8
 1240 0141 04       		.uleb128 0x4
 1241 0142 00070000 		.4byte	.LASF28
 1242 0146 07       		.byte	0x7
 1243 0147 33       		.byte	0x33
 1244 0148 C8000000 		.4byte	0xc8
 1245 014c 05       		.uleb128 0x5
 1246 014d 41010000 		.4byte	0x141
 1247 0151 04       		.uleb128 0x4
 1248 0152 E5060000 		.4byte	.LASF29
 1249 0156 07       		.byte	0x7
 1250 0157 3F       		.byte	0x3f
 1251 0158 5C010000 		.4byte	0x15c
 1252 015c 06       		.uleb128 0x6
 1253 015d EF030000 		.4byte	.LASF53
 1254 0161 50       		.byte	0x50
ARM GAS  /tmp/ccEshaLd.s 			page 23


 1255 0162 02       		.byte	0x2
 1256 0163 C2       		.byte	0xc2
 1257 0164 7A020000 		.4byte	0x27a
 1258 0168 07       		.uleb128 0x7
 1259 0169 C9050000 		.4byte	.LASF30
 1260 016d 02       		.byte	0x2
 1261 016e C3       		.byte	0xc3
 1262 016f 85020000 		.4byte	0x285
 1263 0173 00       		.byte	0
 1264 0174 07       		.uleb128 0x7
 1265 0175 60050000 		.4byte	.LASF31
 1266 0179 02       		.byte	0x2
 1267 017a C5       		.byte	0xc5
 1268 017b 85020000 		.4byte	0x285
 1269 017f 04       		.byte	0x4
 1270 0180 07       		.uleb128 0x7
 1271 0181 27020000 		.4byte	.LASF32
 1272 0185 02       		.byte	0x2
 1273 0186 C7       		.byte	0xc7
 1274 0187 15010000 		.4byte	0x115
 1275 018b 08       		.byte	0x8
 1276 018c 07       		.uleb128 0x7
 1277 018d EA040000 		.4byte	.LASF33
 1278 0191 02       		.byte	0x2
 1279 0192 C8       		.byte	0xc8
 1280 0193 C5040000 		.4byte	0x4c5
 1281 0197 0C       		.byte	0xc
 1282 0198 07       		.uleb128 0x7
 1283 0199 E7020000 		.4byte	.LASF34
 1284 019d 02       		.byte	0x2
 1285 019e CA       		.byte	0xca
 1286 019f 85020000 		.4byte	0x285
 1287 01a3 10       		.byte	0x10
 1288 01a4 07       		.uleb128 0x7
 1289 01a5 DC040000 		.4byte	.LASF35
 1290 01a9 02       		.byte	0x2
 1291 01aa CB       		.byte	0xcb
 1292 01ab 85020000 		.4byte	0x285
 1293 01af 14       		.byte	0x14
 1294 01b0 07       		.uleb128 0x7
 1295 01b1 B7070000 		.4byte	.LASF36
 1296 01b5 02       		.byte	0x2
 1297 01b6 D2       		.byte	0xd2
 1298 01b7 0A070000 		.4byte	0x70a
 1299 01bb 18       		.byte	0x18
 1300 01bc 07       		.uleb128 0x7
 1301 01bd 56030000 		.4byte	.LASF37
 1302 01c1 02       		.byte	0x2
 1303 01c2 D8       		.byte	0xd8
 1304 01c3 21070000 		.4byte	0x721
 1305 01c7 1C       		.byte	0x1c
 1306 01c8 07       		.uleb128 0x7
 1307 01c9 A9050000 		.4byte	.LASF38
 1308 01cd 02       		.byte	0x2
 1309 01ce DD       		.byte	0xdd
 1310 01cf F4000000 		.4byte	0xf4
 1311 01d3 20       		.byte	0x20
ARM GAS  /tmp/ccEshaLd.s 			page 24


 1312 01d4 07       		.uleb128 0x7
 1313 01d5 E7050000 		.4byte	.LASF39
 1314 01d9 02       		.byte	0x2
 1315 01da E1       		.byte	0xe1
 1316 01db E9000000 		.4byte	0xe9
 1317 01df 21       		.byte	0x21
 1318 01e0 07       		.uleb128 0x7
 1319 01e1 6D070000 		.4byte	.LASF40
 1320 01e5 02       		.byte	0x2
 1321 01e6 E6       		.byte	0xe6
 1322 01e7 FF000000 		.4byte	0xff
 1323 01eb 22       		.byte	0x22
 1324 01ec 07       		.uleb128 0x7
 1325 01ed B1050000 		.4byte	.LASF41
 1326 01f1 02       		.byte	0x2
 1327 01f2 EC       		.byte	0xec
 1328 01f3 0A010000 		.4byte	0x10a
 1329 01f7 23       		.byte	0x23
 1330 01f8 07       		.uleb128 0x7
 1331 01f9 A0030000 		.4byte	.LASF42
 1332 01fd 02       		.byte	0x2
 1333 01fe F3       		.byte	0xf3
 1334 01ff 4C010000 		.4byte	0x14c
 1335 0203 24       		.byte	0x24
 1336 0204 08       		.uleb128 0x8
 1337 0205 705F7500 		.ascii	"p_u\000"
 1338 0209 02       		.byte	0x2
 1339 020a 3101     		.2byte	0x131
 1340 020c 45060000 		.4byte	0x645
 1341 0210 28       		.byte	0x28
 1342 0211 09       		.uleb128 0x9
 1343 0212 91040000 		.4byte	.LASF43
 1344 0216 02       		.byte	0x2
 1345 0217 3601     		.2byte	0x136
 1346 0219 8B020000 		.4byte	0x28b
 1347 021d 2C       		.byte	0x2c
 1348 021e 09       		.uleb128 0x9
 1349 021f B7030000 		.4byte	.LASF44
 1350 0223 02       		.byte	0x2
 1351 0224 3C01     		.2byte	0x13c
 1352 0226 AF020000 		.4byte	0x2af
 1353 022a 30       		.byte	0x30
 1354 022b 09       		.uleb128 0x9
 1355 022c 4C070000 		.4byte	.LASF45
 1356 0230 02       		.byte	0x2
 1357 0231 4001     		.2byte	0x140
 1358 0233 20010000 		.4byte	0x120
 1359 0237 38       		.byte	0x38
 1360 0238 09       		.uleb128 0x9
 1361 0239 58060000 		.4byte	.LASF46
 1362 023d 02       		.byte	0x2
 1363 023e 4601     		.2byte	0x146
 1364 0240 2B010000 		.4byte	0x12b
 1365 0244 3C       		.byte	0x3c
 1366 0245 09       		.uleb128 0x9
 1367 0246 95050000 		.4byte	.LASF47
 1368 024a 02       		.byte	0x2
ARM GAS  /tmp/ccEshaLd.s 			page 25


 1369 024b 4D01     		.2byte	0x14d
 1370 024d 04070000 		.4byte	0x704
 1371 0251 40       		.byte	0x40
 1372 0252 09       		.uleb128 0x9
 1373 0253 0A070000 		.4byte	.LASF48
 1374 0257 02       		.byte	0x2
 1375 0258 5101     		.2byte	0x151
 1376 025a 15010000 		.4byte	0x115
 1377 025e 44       		.byte	0x44
 1378 025f 09       		.uleb128 0x9
 1379 0260 7D020000 		.4byte	.LASF49
 1380 0264 02       		.byte	0x2
 1381 0265 5801     		.2byte	0x158
 1382 0267 62030000 		.4byte	0x362
 1383 026b 48       		.byte	0x48
 1384 026c 09       		.uleb128 0x9
 1385 026d 74070000 		.4byte	.LASF50
 1386 0271 02       		.byte	0x2
 1387 0272 6201     		.2byte	0x162
 1388 0274 25000000 		.4byte	0x25
 1389 0278 4C       		.byte	0x4c
 1390 0279 00       		.byte	0
 1391 027a 04       		.uleb128 0x4
 1392 027b 9D070000 		.4byte	.LASF51
 1393 027f 07       		.byte	0x7
 1394 0280 44       		.byte	0x44
 1395 0281 85020000 		.4byte	0x285
 1396 0285 0A       		.uleb128 0xa
 1397 0286 04       		.byte	0x4
 1398 0287 51010000 		.4byte	0x151
 1399 028b 04       		.uleb128 0x4
 1400 028c BE070000 		.4byte	.LASF52
 1401 0290 07       		.byte	0x7
 1402 0291 49       		.byte	0x49
 1403 0292 96020000 		.4byte	0x296
 1404 0296 06       		.uleb128 0x6
 1405 0297 92060000 		.4byte	.LASF54
 1406 029b 04       		.byte	0x4
 1407 029c 02       		.byte	0x2
 1408 029d B0       		.byte	0xb0
 1409 029e AF020000 		.4byte	0x2af
 1410 02a2 07       		.uleb128 0x7
 1411 02a3 C9050000 		.4byte	.LASF30
 1412 02a7 02       		.byte	0x2
 1413 02a8 B1       		.byte	0xb1
 1414 02a9 85020000 		.4byte	0x285
 1415 02ad 00       		.byte	0
 1416 02ae 00       		.byte	0
 1417 02af 04       		.uleb128 0x4
 1418 02b0 0F060000 		.4byte	.LASF55
 1419 02b4 07       		.byte	0x7
 1420 02b5 50       		.byte	0x50
 1421 02b6 BA020000 		.4byte	0x2ba
 1422 02ba 06       		.uleb128 0x6
 1423 02bb 16020000 		.4byte	.LASF56
 1424 02bf 08       		.byte	0x8
 1425 02c0 02       		.byte	0x2
ARM GAS  /tmp/ccEshaLd.s 			page 26


 1426 02c1 B7       		.byte	0xb7
 1427 02c2 DF020000 		.4byte	0x2df
 1428 02c6 07       		.uleb128 0x7
 1429 02c7 C9050000 		.4byte	.LASF30
 1430 02cb 02       		.byte	0x2
 1431 02cc B8       		.byte	0xb8
 1432 02cd 85020000 		.4byte	0x285
 1433 02d1 00       		.byte	0
 1434 02d2 07       		.uleb128 0x7
 1435 02d3 60050000 		.4byte	.LASF31
 1436 02d7 02       		.byte	0x2
 1437 02d8 B9       		.byte	0xb9
 1438 02d9 85020000 		.4byte	0x285
 1439 02dd 04       		.byte	0x4
 1440 02de 00       		.byte	0
 1441 02df 04       		.uleb128 0x4
 1442 02e0 0D000000 		.4byte	.LASF57
 1443 02e4 07       		.byte	0x7
 1444 02e5 57       		.byte	0x57
 1445 02e6 EA020000 		.4byte	0x2ea
 1446 02ea 0B       		.uleb128 0xb
 1447 02eb 24040000 		.4byte	.LASF58
 1448 02ef 1C       		.byte	0x1c
 1449 02f0 02       		.byte	0x2
 1450 02f1 9001     		.2byte	0x190
 1451 02f3 46030000 		.4byte	0x346
 1452 02f7 09       		.uleb128 0x9
 1453 02f8 7E060000 		.4byte	.LASF59
 1454 02fc 02       		.byte	0x2
 1455 02fd 9101     		.2byte	0x191
 1456 02ff AF020000 		.4byte	0x2af
 1457 0303 00       		.byte	0
 1458 0304 09       		.uleb128 0x9
 1459 0305 BB050000 		.4byte	.LASF60
 1460 0309 02       		.byte	0x2
 1461 030a 9201     		.2byte	0x192
 1462 030c 15010000 		.4byte	0x115
 1463 0310 08       		.byte	0x8
 1464 0311 09       		.uleb128 0x9
 1465 0312 E4040000 		.4byte	.LASF61
 1466 0316 02       		.byte	0x2
 1467 0317 9401     		.2byte	0x194
 1468 0319 C5040000 		.4byte	0x4c5
 1469 031d 0C       		.byte	0xc
 1470 031e 09       		.uleb128 0x9
 1471 031f 10030000 		.4byte	.LASF62
 1472 0323 02       		.byte	0x2
 1473 0324 9701     		.2byte	0x197
 1474 0326 85020000 		.4byte	0x285
 1475 032a 10       		.byte	0x10
 1476 032b 09       		.uleb128 0x9
 1477 032c 17050000 		.4byte	.LASF63
 1478 0330 02       		.byte	0x2
 1479 0331 9801     		.2byte	0x198
 1480 0333 85020000 		.4byte	0x285
 1481 0337 14       		.byte	0x14
 1482 0338 09       		.uleb128 0x9
ARM GAS  /tmp/ccEshaLd.s 			page 27


 1483 0339 0D050000 		.4byte	.LASF64
 1484 033d 02       		.byte	0x2
 1485 033e 9B01     		.2byte	0x19b
 1486 0340 85020000 		.4byte	0x285
 1487 0344 18       		.byte	0x18
 1488 0345 00       		.byte	0
 1489 0346 04       		.uleb128 0x4
 1490 0347 15070000 		.4byte	.LASF65
 1491 034b 07       		.byte	0x7
 1492 034c 5C       		.byte	0x5c
 1493 034d 51030000 		.4byte	0x351
 1494 0351 0A       		.uleb128 0xa
 1495 0352 04       		.byte	0x4
 1496 0353 57030000 		.4byte	0x357
 1497 0357 0C       		.uleb128 0xc
 1498 0358 62030000 		.4byte	0x362
 1499 035c 0D       		.uleb128 0xd
 1500 035d 62030000 		.4byte	0x362
 1501 0361 00       		.byte	0
 1502 0362 0E       		.uleb128 0xe
 1503 0363 04       		.byte	0x4
 1504 0364 04       		.uleb128 0x4
 1505 0365 50050000 		.4byte	.LASF66
 1506 0369 07       		.byte	0x7
 1507 036a 61       		.byte	0x61
 1508 036b 6F030000 		.4byte	0x36f
 1509 036f 0B       		.uleb128 0xb
 1510 0370 1F060000 		.4byte	.LASF67
 1511 0374 14       		.byte	0x14
 1512 0375 02       		.byte	0x2
 1513 0376 6B01     		.2byte	0x16b
 1514 0378 BE030000 		.4byte	0x3be
 1515 037c 09       		.uleb128 0x9
 1516 037d 7F030000 		.4byte	.LASF68
 1517 0381 02       		.byte	0x2
 1518 0382 6C01     		.2byte	0x16c
 1519 0384 27070000 		.4byte	0x727
 1520 0388 00       		.byte	0
 1521 0389 09       		.uleb128 0x9
 1522 038a 21030000 		.4byte	.LASF69
 1523 038e 02       		.byte	0x2
 1524 038f 6D01     		.2byte	0x16d
 1525 0391 27070000 		.4byte	0x727
 1526 0395 04       		.byte	0x4
 1527 0396 09       		.uleb128 0x9
 1528 0397 AE030000 		.4byte	.LASF70
 1529 039b 02       		.byte	0x2
 1530 039c 6E01     		.2byte	0x16e
 1531 039e 41010000 		.4byte	0x141
 1532 03a2 08       		.byte	0x8
 1533 03a3 09       		.uleb128 0x9
 1534 03a4 1B080000 		.4byte	.LASF71
 1535 03a8 02       		.byte	0x2
 1536 03a9 6F01     		.2byte	0x16f
 1537 03ab 46030000 		.4byte	0x346
 1538 03af 0C       		.byte	0xc
 1539 03b0 09       		.uleb128 0x9
ARM GAS  /tmp/ccEshaLd.s 			page 28


 1540 03b1 52070000 		.4byte	.LASF72
 1541 03b5 02       		.byte	0x2
 1542 03b6 7101     		.2byte	0x171
 1543 03b8 62030000 		.4byte	0x362
 1544 03bc 10       		.byte	0x10
 1545 03bd 00       		.byte	0
 1546 03be 04       		.uleb128 0x4
 1547 03bf 48040000 		.4byte	.LASF73
 1548 03c3 07       		.byte	0x7
 1549 03c4 66       		.byte	0x66
 1550 03c5 C9030000 		.4byte	0x3c9
 1551 03c9 0B       		.uleb128 0xb
 1552 03ca A3040000 		.4byte	.LASF74
 1553 03ce 10       		.byte	0x10
 1554 03cf 02       		.byte	0x2
 1555 03d0 7B01     		.2byte	0x17b
 1556 03d2 0B040000 		.4byte	0x40b
 1557 03d6 09       		.uleb128 0x9
 1558 03d7 7F030000 		.4byte	.LASF68
 1559 03db 02       		.byte	0x2
 1560 03dc 7C01     		.2byte	0x17c
 1561 03de 27070000 		.4byte	0x727
 1562 03e2 00       		.byte	0
 1563 03e3 09       		.uleb128 0x9
 1564 03e4 21030000 		.4byte	.LASF69
 1565 03e8 02       		.byte	0x2
 1566 03e9 7E01     		.2byte	0x17e
 1567 03eb 27070000 		.4byte	0x727
 1568 03ef 04       		.byte	0x4
 1569 03f0 09       		.uleb128 0x9
 1570 03f1 AE030000 		.4byte	.LASF70
 1571 03f5 02       		.byte	0x2
 1572 03f6 8001     		.2byte	0x180
 1573 03f8 41010000 		.4byte	0x141
 1574 03fc 08       		.byte	0x8
 1575 03fd 09       		.uleb128 0x9
 1576 03fe 3B020000 		.4byte	.LASF75
 1577 0402 02       		.byte	0x2
 1578 0403 8201     		.2byte	0x182
 1579 0405 4C010000 		.4byte	0x14c
 1580 0409 0C       		.byte	0xc
 1581 040a 00       		.byte	0
 1582 040b 04       		.uleb128 0x4
 1583 040c 70000000 		.4byte	.LASF76
 1584 0410 07       		.byte	0x7
 1585 0411 6B       		.byte	0x6b
 1586 0412 16040000 		.4byte	0x416
 1587 0416 0B       		.uleb128 0xb
 1588 0417 6F050000 		.4byte	.LASF77
 1589 041b 04       		.byte	0x4
 1590 041c 02       		.byte	0x2
 1591 041d A201     		.2byte	0x1a2
 1592 041f 31040000 		.4byte	0x431
 1593 0423 09       		.uleb128 0x9
 1594 0424 33070000 		.4byte	.LASF78
 1595 0428 02       		.byte	0x2
 1596 0429 AA01     		.2byte	0x1aa
ARM GAS  /tmp/ccEshaLd.s 			page 29


 1597 042b 10070000 		.4byte	0x710
 1598 042f 00       		.byte	0
 1599 0430 00       		.byte	0
 1600 0431 04       		.uleb128 0x4
 1601 0432 0C040000 		.4byte	.LASF79
 1602 0436 07       		.byte	0x7
 1603 0437 70       		.byte	0x70
 1604 0438 3C040000 		.4byte	0x43c
 1605 043c 0F       		.uleb128 0xf
 1606 043d C1020000 		.4byte	.LASF80
 1607 0441 6802     		.2byte	0x268
 1608 0443 02       		.byte	0x2
 1609 0444 C201     		.2byte	0x1c2
 1610 0446 98040000 		.4byte	0x498
 1611 044a 09       		.uleb128 0x9
 1612 044b 8F070000 		.4byte	.LASF81
 1613 044f 02       		.byte	0x2
 1614 0450 C601     		.2byte	0x1c6
 1615 0452 DF020000 		.4byte	0x2df
 1616 0456 00       		.byte	0
 1617 0457 09       		.uleb128 0x9
 1618 0458 A4020000 		.4byte	.LASF82
 1619 045c 02       		.byte	0x2
 1620 045d CA01     		.2byte	0x1ca
 1621 045f BE030000 		.4byte	0x3be
 1622 0463 1C       		.byte	0x1c
 1623 0464 08       		.uleb128 0x8
 1624 0465 64626700 		.ascii	"dbg\000"
 1625 0469 02       		.byte	0x2
 1626 046a CE01     		.2byte	0x1ce
 1627 046c 0B040000 		.4byte	0x40b
 1628 0470 2C       		.byte	0x2c
 1629 0471 09       		.uleb128 0x9
 1630 0472 ED010000 		.4byte	.LASF83
 1631 0476 02       		.byte	0x2
 1632 0477 D201     		.2byte	0x1d2
 1633 0479 51010000 		.4byte	0x151
 1634 047d 30       		.byte	0x30
 1635 047e 08       		.uleb128 0x8
 1636 047f 746D00   		.ascii	"tm\000"
 1637 0482 02       		.byte	0x2
 1638 0483 D701     		.2byte	0x1d7
 1639 0485 3A060000 		.4byte	0x63a
 1640 0489 80       		.byte	0x80
 1641 048a 09       		.uleb128 0x9
 1642 048b 31030000 		.4byte	.LASF84
 1643 048f 02       		.byte	0x2
 1644 0490 E301     		.2byte	0x1e3
 1645 0492 2D070000 		.4byte	0x72d
 1646 0496 88       		.byte	0x88
 1647 0497 00       		.byte	0
 1648 0498 10       		.uleb128 0x10
 1649 0499 09020000 		.4byte	.LASF85
 1650 049d 08       		.byte	0x8
 1651 049e A706     		.2byte	0x6a7
 1652 04a0 C3000000 		.4byte	0xc3
 1653 04a4 11       		.uleb128 0x11
ARM GAS  /tmp/ccEshaLd.s 			page 30


 1654 04a5 90030000 		.4byte	.LASF86
 1655 04a9 09       		.byte	0x9
 1656 04aa 4C       		.byte	0x4c
 1657 04ab C8000000 		.4byte	0xc8
 1658 04af 04       		.uleb128 0x4
 1659 04b0 18030000 		.4byte	.LASF87
 1660 04b4 0A       		.byte	0xa
 1661 04b5 65       		.byte	0x65
 1662 04b6 62030000 		.4byte	0x362
 1663 04ba 04       		.uleb128 0x4
 1664 04bb 5E040000 		.4byte	.LASF88
 1665 04bf 0A       		.byte	0xa
 1666 04c0 6D       		.byte	0x6d
 1667 04c1 D3000000 		.4byte	0xd3
 1668 04c5 06       		.uleb128 0x6
 1669 04c6 44070000 		.4byte	.LASF89
 1670 04ca 04       		.byte	0x4
 1671 04cb 0A       		.byte	0xa
 1672 04cc 89       		.byte	0x89
 1673 04cd DE040000 		.4byte	0x4de
 1674 04d1 12       		.uleb128 0x12
 1675 04d2 72313300 		.ascii	"r13\000"
 1676 04d6 0A       		.byte	0xa
 1677 04d7 8A       		.byte	0x8a
 1678 04d8 1F060000 		.4byte	0x61f
 1679 04dc 00       		.byte	0
 1680 04dd 00       		.byte	0
 1681 04de 06       		.uleb128 0x6
 1682 04df 64000000 		.4byte	.LASF90
 1683 04e3 64       		.byte	0x64
 1684 04e4 0B       		.byte	0xb
 1685 04e5 F4       		.byte	0xf4
 1686 04e6 1F060000 		.4byte	0x61f
 1687 04ea 12       		.uleb128 0x12
 1688 04eb 73313600 		.ascii	"s16\000"
 1689 04ef 0B       		.byte	0xb
 1690 04f0 F6       		.byte	0xf6
 1691 04f1 AF040000 		.4byte	0x4af
 1692 04f5 00       		.byte	0
 1693 04f6 12       		.uleb128 0x12
 1694 04f7 73313700 		.ascii	"s17\000"
 1695 04fb 0B       		.byte	0xb
 1696 04fc F7       		.byte	0xf7
 1697 04fd AF040000 		.4byte	0x4af
 1698 0501 04       		.byte	0x4
 1699 0502 12       		.uleb128 0x12
 1700 0503 73313800 		.ascii	"s18\000"
 1701 0507 0B       		.byte	0xb
 1702 0508 F8       		.byte	0xf8
 1703 0509 AF040000 		.4byte	0x4af
 1704 050d 08       		.byte	0x8
 1705 050e 12       		.uleb128 0x12
 1706 050f 73313900 		.ascii	"s19\000"
 1707 0513 0B       		.byte	0xb
 1708 0514 F9       		.byte	0xf9
 1709 0515 AF040000 		.4byte	0x4af
 1710 0519 0C       		.byte	0xc
ARM GAS  /tmp/ccEshaLd.s 			page 31


 1711 051a 12       		.uleb128 0x12
 1712 051b 73323000 		.ascii	"s20\000"
 1713 051f 0B       		.byte	0xb
 1714 0520 FA       		.byte	0xfa
 1715 0521 AF040000 		.4byte	0x4af
 1716 0525 10       		.byte	0x10
 1717 0526 12       		.uleb128 0x12
 1718 0527 73323100 		.ascii	"s21\000"
 1719 052b 0B       		.byte	0xb
 1720 052c FB       		.byte	0xfb
 1721 052d AF040000 		.4byte	0x4af
 1722 0531 14       		.byte	0x14
 1723 0532 12       		.uleb128 0x12
 1724 0533 73323200 		.ascii	"s22\000"
 1725 0537 0B       		.byte	0xb
 1726 0538 FC       		.byte	0xfc
 1727 0539 AF040000 		.4byte	0x4af
 1728 053d 18       		.byte	0x18
 1729 053e 12       		.uleb128 0x12
 1730 053f 73323300 		.ascii	"s23\000"
 1731 0543 0B       		.byte	0xb
 1732 0544 FD       		.byte	0xfd
 1733 0545 AF040000 		.4byte	0x4af
 1734 0549 1C       		.byte	0x1c
 1735 054a 12       		.uleb128 0x12
 1736 054b 73323400 		.ascii	"s24\000"
 1737 054f 0B       		.byte	0xb
 1738 0550 FE       		.byte	0xfe
 1739 0551 AF040000 		.4byte	0x4af
 1740 0555 20       		.byte	0x20
 1741 0556 12       		.uleb128 0x12
 1742 0557 73323500 		.ascii	"s25\000"
 1743 055b 0B       		.byte	0xb
 1744 055c FF       		.byte	0xff
 1745 055d AF040000 		.4byte	0x4af
 1746 0561 24       		.byte	0x24
 1747 0562 08       		.uleb128 0x8
 1748 0563 73323600 		.ascii	"s26\000"
 1749 0567 0B       		.byte	0xb
 1750 0568 0001     		.2byte	0x100
 1751 056a AF040000 		.4byte	0x4af
 1752 056e 28       		.byte	0x28
 1753 056f 08       		.uleb128 0x8
 1754 0570 73323700 		.ascii	"s27\000"
 1755 0574 0B       		.byte	0xb
 1756 0575 0101     		.2byte	0x101
 1757 0577 AF040000 		.4byte	0x4af
 1758 057b 2C       		.byte	0x2c
 1759 057c 08       		.uleb128 0x8
 1760 057d 73323800 		.ascii	"s28\000"
 1761 0581 0B       		.byte	0xb
 1762 0582 0201     		.2byte	0x102
 1763 0584 AF040000 		.4byte	0x4af
 1764 0588 30       		.byte	0x30
 1765 0589 08       		.uleb128 0x8
 1766 058a 73323900 		.ascii	"s29\000"
 1767 058e 0B       		.byte	0xb
ARM GAS  /tmp/ccEshaLd.s 			page 32


 1768 058f 0301     		.2byte	0x103
 1769 0591 AF040000 		.4byte	0x4af
 1770 0595 34       		.byte	0x34
 1771 0596 08       		.uleb128 0x8
 1772 0597 73333000 		.ascii	"s30\000"
 1773 059b 0B       		.byte	0xb
 1774 059c 0401     		.2byte	0x104
 1775 059e AF040000 		.4byte	0x4af
 1776 05a2 38       		.byte	0x38
 1777 05a3 08       		.uleb128 0x8
 1778 05a4 73333100 		.ascii	"s31\000"
 1779 05a8 0B       		.byte	0xb
 1780 05a9 0501     		.2byte	0x105
 1781 05ab AF040000 		.4byte	0x4af
 1782 05af 3C       		.byte	0x3c
 1783 05b0 08       		.uleb128 0x8
 1784 05b1 723400   		.ascii	"r4\000"
 1785 05b4 0B       		.byte	0xb
 1786 05b5 0701     		.2byte	0x107
 1787 05b7 AF040000 		.4byte	0x4af
 1788 05bb 40       		.byte	0x40
 1789 05bc 08       		.uleb128 0x8
 1790 05bd 723500   		.ascii	"r5\000"
 1791 05c0 0B       		.byte	0xb
 1792 05c1 0801     		.2byte	0x108
 1793 05c3 AF040000 		.4byte	0x4af
 1794 05c7 44       		.byte	0x44
 1795 05c8 08       		.uleb128 0x8
 1796 05c9 723600   		.ascii	"r6\000"
 1797 05cc 0B       		.byte	0xb
 1798 05cd 0901     		.2byte	0x109
 1799 05cf AF040000 		.4byte	0x4af
 1800 05d3 48       		.byte	0x48
 1801 05d4 08       		.uleb128 0x8
 1802 05d5 723700   		.ascii	"r7\000"
 1803 05d8 0B       		.byte	0xb
 1804 05d9 0A01     		.2byte	0x10a
 1805 05db AF040000 		.4byte	0x4af
 1806 05df 4C       		.byte	0x4c
 1807 05e0 08       		.uleb128 0x8
 1808 05e1 723800   		.ascii	"r8\000"
 1809 05e4 0B       		.byte	0xb
 1810 05e5 0B01     		.2byte	0x10b
 1811 05e7 AF040000 		.4byte	0x4af
 1812 05eb 50       		.byte	0x50
 1813 05ec 08       		.uleb128 0x8
 1814 05ed 723900   		.ascii	"r9\000"
 1815 05f0 0B       		.byte	0xb
 1816 05f1 0C01     		.2byte	0x10c
 1817 05f3 AF040000 		.4byte	0x4af
 1818 05f7 54       		.byte	0x54
 1819 05f8 08       		.uleb128 0x8
 1820 05f9 72313000 		.ascii	"r10\000"
 1821 05fd 0B       		.byte	0xb
 1822 05fe 0D01     		.2byte	0x10d
 1823 0600 AF040000 		.4byte	0x4af
 1824 0604 58       		.byte	0x58
ARM GAS  /tmp/ccEshaLd.s 			page 33


 1825 0605 08       		.uleb128 0x8
 1826 0606 72313100 		.ascii	"r11\000"
 1827 060a 0B       		.byte	0xb
 1828 060b 0E01     		.2byte	0x10e
 1829 060d AF040000 		.4byte	0x4af
 1830 0611 5C       		.byte	0x5c
 1831 0612 08       		.uleb128 0x8
 1832 0613 6C7200   		.ascii	"lr\000"
 1833 0616 0B       		.byte	0xb
 1834 0617 0F01     		.2byte	0x10f
 1835 0619 AF040000 		.4byte	0x4af
 1836 061d 60       		.byte	0x60
 1837 061e 00       		.byte	0
 1838 061f 0A       		.uleb128 0xa
 1839 0620 04       		.byte	0x4
 1840 0621 DE040000 		.4byte	0x4de
 1841 0625 13       		.uleb128 0x13
 1842 0626 04       		.byte	0x4
 1843 0627 0C       		.byte	0xc
 1844 0628 38       		.byte	0x38
 1845 0629 3A060000 		.4byte	0x63a
 1846 062d 07       		.uleb128 0x7
 1847 062e 3D070000 		.4byte	.LASF91
 1848 0632 0C       		.byte	0xc
 1849 0633 3C       		.byte	0x3c
 1850 0634 DE000000 		.4byte	0xde
 1851 0638 00       		.byte	0
 1852 0639 00       		.byte	0
 1853 063a 04       		.uleb128 0x4
 1854 063b F0040000 		.4byte	.LASF92
 1855 063f 0C       		.byte	0xc
 1856 0640 3D       		.byte	0x3d
 1857 0641 25060000 		.4byte	0x625
 1858 0645 14       		.uleb128 0x14
 1859 0646 04       		.byte	0x4
 1860 0647 02       		.byte	0x2
 1861 0648 FA       		.byte	0xfa
 1862 0649 A2060000 		.4byte	0x6a2
 1863 064d 15       		.uleb128 0x15
 1864 064e 3A000000 		.4byte	.LASF93
 1865 0652 02       		.byte	0x2
 1866 0653 0101     		.2byte	0x101
 1867 0655 20010000 		.4byte	0x120
 1868 0659 15       		.uleb128 0x15
 1869 065a E4010000 		.4byte	.LASF94
 1870 065e 02       		.byte	0x2
 1871 065f 0801     		.2byte	0x108
 1872 0661 20010000 		.4byte	0x120
 1873 0665 15       		.uleb128 0x15
 1874 0666 B0070000 		.4byte	.LASF95
 1875 066a 02       		.byte	0x2
 1876 066b 0F01     		.2byte	0x10f
 1877 066d 62030000 		.4byte	0x362
 1878 0671 15       		.uleb128 0x15
 1879 0672 34000000 		.4byte	.LASF96
 1880 0676 02       		.byte	0x2
 1881 0677 1601     		.2byte	0x116
ARM GAS  /tmp/ccEshaLd.s 			page 34


 1882 0679 A2060000 		.4byte	0x6a2
 1883 067d 15       		.uleb128 0x15
 1884 067e A7030000 		.4byte	.LASF97
 1885 0682 02       		.byte	0x2
 1886 0683 1E01     		.2byte	0x11e
 1887 0685 CD060000 		.4byte	0x6cd
 1888 0689 15       		.uleb128 0x15
 1889 068a C1060000 		.4byte	.LASF98
 1890 068e 02       		.byte	0x2
 1891 068f 2701     		.2byte	0x127
 1892 0691 04070000 		.4byte	0x704
 1893 0695 15       		.uleb128 0x15
 1894 0696 C2050000 		.4byte	.LASF99
 1895 069a 02       		.byte	0x2
 1896 069b 2F01     		.2byte	0x12f
 1897 069d 2B010000 		.4byte	0x12b
 1898 06a1 00       		.byte	0
 1899 06a2 0A       		.uleb128 0xa
 1900 06a3 04       		.byte	0x4
 1901 06a4 7A020000 		.4byte	0x27a
 1902 06a8 06       		.uleb128 0x6
 1903 06a9 3D060000 		.4byte	.LASF100
 1904 06ad 0C       		.byte	0xc
 1905 06ae 0D       		.byte	0xd
 1906 06af 34       		.byte	0x34
 1907 06b0 CD060000 		.4byte	0x6cd
 1908 06b4 07       		.uleb128 0x7
 1909 06b5 EF020000 		.4byte	.LASF101
 1910 06b9 0D       		.byte	0xd
 1911 06ba 35       		.byte	0x35
 1912 06bb AF020000 		.4byte	0x2af
 1913 06bf 00       		.byte	0
 1914 06c0 07       		.uleb128 0x7
 1915 06c1 D6030000 		.4byte	.LASF102
 1916 06c5 0D       		.byte	0xd
 1917 06c6 37       		.byte	0x37
 1918 06c7 36010000 		.4byte	0x136
 1919 06cb 08       		.byte	0x8
 1920 06cc 00       		.byte	0
 1921 06cd 0A       		.uleb128 0xa
 1922 06ce 04       		.byte	0x4
 1923 06cf A8060000 		.4byte	0x6a8
 1924 06d3 06       		.uleb128 0x6
 1925 06d4 64070000 		.4byte	.LASF103
 1926 06d8 10       		.byte	0x10
 1927 06d9 0E       		.byte	0xe
 1928 06da 39       		.byte	0x39
 1929 06db 04070000 		.4byte	0x704
 1930 06df 07       		.uleb128 0x7
 1931 06e0 9C020000 		.4byte	.LASF104
 1932 06e4 0E       		.byte	0xe
 1933 06e5 3A       		.byte	0x3a
 1934 06e6 AF020000 		.4byte	0x2af
 1935 06ea 00       		.byte	0
 1936 06eb 07       		.uleb128 0x7
 1937 06ec 05080000 		.4byte	.LASF105
 1938 06f0 0E       		.byte	0xe
ARM GAS  /tmp/ccEshaLd.s 			page 35


 1939 06f1 3C       		.byte	0x3c
 1940 06f2 85020000 		.4byte	0x285
 1941 06f6 08       		.byte	0x8
 1942 06f7 07       		.uleb128 0x7
 1943 06f8 01050000 		.4byte	.LASF106
 1944 06fc 0E       		.byte	0xe
 1945 06fd 3E       		.byte	0x3e
 1946 06fe 6A080000 		.4byte	0x86a
 1947 0702 0C       		.byte	0xc
 1948 0703 00       		.byte	0
 1949 0704 0A       		.uleb128 0xa
 1950 0705 04       		.byte	0x4
 1951 0706 D3060000 		.4byte	0x6d3
 1952 070a 0A       		.uleb128 0xa
 1953 070b 04       		.byte	0x4
 1954 070c 1C070000 		.4byte	0x71c
 1955 0710 05       		.uleb128 0x5
 1956 0711 0A070000 		.4byte	0x70a
 1957 0715 03       		.uleb128 0x3
 1958 0716 01       		.byte	0x1
 1959 0717 08       		.byte	0x8
 1960 0718 BC060000 		.4byte	.LASF107
 1961 071c 16       		.uleb128 0x16
 1962 071d 15070000 		.4byte	0x715
 1963 0721 0A       		.uleb128 0xa
 1964 0722 04       		.byte	0x4
 1965 0723 BA040000 		.4byte	0x4ba
 1966 0727 0A       		.uleb128 0xa
 1967 0728 04       		.byte	0x4
 1968 0729 64030000 		.4byte	0x364
 1969 072d 17       		.uleb128 0x17
 1970 072e BA040000 		.4byte	0x4ba
 1971 0732 3D070000 		.4byte	0x73d
 1972 0736 18       		.uleb128 0x18
 1973 0737 2C000000 		.4byte	0x2c
 1974 073b 3B       		.byte	0x3b
 1975 073c 00       		.byte	0
 1976 073d 19       		.uleb128 0x19
 1977 073e 636800   		.ascii	"ch\000"
 1978 0741 02       		.byte	0x2
 1979 0742 0902     		.2byte	0x209
 1980 0744 31040000 		.4byte	0x431
 1981 0748 13       		.uleb128 0x13
 1982 0749 16       		.byte	0x16
 1983 074a 0F       		.byte	0xf
 1984 074b 34       		.byte	0x34
 1985 074c 29080000 		.4byte	0x829
 1986 0750 07       		.uleb128 0x7
 1987 0751 0D080000 		.4byte	.LASF108
 1988 0755 0F       		.byte	0xf
 1989 0756 35       		.byte	0x35
 1990 0757 29080000 		.4byte	0x829
 1991 075b 00       		.byte	0
 1992 075c 07       		.uleb128 0x7
 1993 075d 69040000 		.4byte	.LASF109
 1994 0761 0F       		.byte	0xf
 1995 0762 36       		.byte	0x36
ARM GAS  /tmp/ccEshaLd.s 			page 36


 1996 0763 A2000000 		.4byte	0xa2
 1997 0767 04       		.byte	0x4
 1998 0768 07       		.uleb128 0x7
 1999 0769 A2060000 		.4byte	.LASF110
 2000 076d 0F       		.byte	0xf
 2001 076e 37       		.byte	0x37
 2002 076f A2000000 		.4byte	0xa2
 2003 0773 05       		.byte	0x5
 2004 0774 07       		.uleb128 0x7
 2005 0775 EE070000 		.4byte	.LASF111
 2006 0779 0F       		.byte	0xf
 2007 077a 38       		.byte	0x38
 2008 077b AD000000 		.4byte	0xad
 2009 077f 06       		.byte	0x6
 2010 0780 07       		.uleb128 0x7
 2011 0781 45050000 		.4byte	.LASF112
 2012 0785 0F       		.byte	0xf
 2013 0786 39       		.byte	0x39
 2014 0787 A2000000 		.4byte	0xa2
 2015 078b 08       		.byte	0x8
 2016 078c 07       		.uleb128 0x7
 2017 078d BA040000 		.4byte	.LASF113
 2018 0791 0F       		.byte	0xf
 2019 0792 3A       		.byte	0x3a
 2020 0793 A2000000 		.4byte	0xa2
 2021 0797 09       		.byte	0x9
 2022 0798 07       		.uleb128 0x7
 2023 0799 D6010000 		.4byte	.LASF114
 2024 079d 0F       		.byte	0xf
 2025 079e 3B       		.byte	0x3b
 2026 079f A2000000 		.4byte	0xa2
 2027 07a3 0A       		.byte	0xa
 2028 07a4 07       		.uleb128 0x7
 2029 07a5 72060000 		.4byte	.LASF115
 2030 07a9 0F       		.byte	0xf
 2031 07aa 3C       		.byte	0x3c
 2032 07ab A2000000 		.4byte	0xa2
 2033 07af 0B       		.byte	0xb
 2034 07b0 07       		.uleb128 0x7
 2035 07b1 59070000 		.4byte	.LASF116
 2036 07b5 0F       		.byte	0xf
 2037 07b6 3D       		.byte	0x3d
 2038 07b7 A2000000 		.4byte	0xa2
 2039 07bb 0C       		.byte	0xc
 2040 07bc 07       		.uleb128 0x7
 2041 07bd 30060000 		.4byte	.LASF117
 2042 07c1 0F       		.byte	0xf
 2043 07c2 3E       		.byte	0x3e
 2044 07c3 A2000000 		.4byte	0xa2
 2045 07c7 0D       		.byte	0xd
 2046 07c8 07       		.uleb128 0x7
 2047 07c9 00000000 		.4byte	.LASF118
 2048 07cd 0F       		.byte	0xf
 2049 07ce 3F       		.byte	0x3f
 2050 07cf A2000000 		.4byte	0xa2
 2051 07d3 0E       		.byte	0xe
 2052 07d4 07       		.uleb128 0x7
ARM GAS  /tmp/ccEshaLd.s 			page 37


 2053 07d5 C6040000 		.4byte	.LASF119
 2054 07d9 0F       		.byte	0xf
 2055 07da 40       		.byte	0x40
 2056 07db A2000000 		.4byte	0xa2
 2057 07df 0F       		.byte	0xf
 2058 07e0 07       		.uleb128 0x7
 2059 07e1 41000000 		.4byte	.LASF120
 2060 07e5 0F       		.byte	0xf
 2061 07e6 41       		.byte	0x41
 2062 07e7 A2000000 		.4byte	0xa2
 2063 07eb 10       		.byte	0x10
 2064 07ec 07       		.uleb128 0x7
 2065 07ed 2E020000 		.4byte	.LASF121
 2066 07f1 0F       		.byte	0xf
 2067 07f2 43       		.byte	0x43
 2068 07f3 A2000000 		.4byte	0xa2
 2069 07f7 11       		.byte	0x11
 2070 07f8 07       		.uleb128 0x7
 2071 07f9 70020000 		.4byte	.LASF122
 2072 07fd 0F       		.byte	0xf
 2073 07fe 44       		.byte	0x44
 2074 07ff A2000000 		.4byte	0xa2
 2075 0803 12       		.byte	0x12
 2076 0804 07       		.uleb128 0x7
 2077 0805 F9070000 		.4byte	.LASF123
 2078 0809 0F       		.byte	0xf
 2079 080a 45       		.byte	0x45
 2080 080b A2000000 		.4byte	0xa2
 2081 080f 13       		.byte	0x13
 2082 0810 07       		.uleb128 0x7
 2083 0811 D8050000 		.4byte	.LASF124
 2084 0815 0F       		.byte	0xf
 2085 0816 46       		.byte	0x46
 2086 0817 A2000000 		.4byte	0xa2
 2087 081b 14       		.byte	0x14
 2088 081c 07       		.uleb128 0x7
 2089 081d 18040000 		.4byte	.LASF125
 2090 0821 0F       		.byte	0xf
 2091 0822 48       		.byte	0x48
 2092 0823 A2000000 		.4byte	0xa2
 2093 0827 15       		.byte	0x15
 2094 0828 00       		.byte	0
 2095 0829 17       		.uleb128 0x17
 2096 082a 15070000 		.4byte	0x715
 2097 082e 39080000 		.4byte	0x839
 2098 0832 18       		.uleb128 0x18
 2099 0833 2C000000 		.4byte	0x2c
 2100 0837 03       		.byte	0x3
 2101 0838 00       		.byte	0
 2102 0839 04       		.uleb128 0x4
 2103 083a DD020000 		.4byte	.LASF126
 2104 083e 0F       		.byte	0xf
 2105 083f 49       		.byte	0x49
 2106 0840 48070000 		.4byte	0x748
 2107 0844 16       		.uleb128 0x16
 2108 0845 39080000 		.4byte	0x839
 2109 0849 11       		.uleb128 0x11
ARM GAS  /tmp/ccEshaLd.s 			page 38


 2110 084a CD030000 		.4byte	.LASF127
 2111 084e 0F       		.byte	0xf
 2112 084f 6E       		.byte	0x6e
 2113 0850 44080000 		.4byte	0x844
 2114 0854 04       		.uleb128 0x4
 2115 0855 03060000 		.4byte	.LASF128
 2116 0859 0D       		.byte	0xd
 2117 085a 38       		.byte	0x38
 2118 085b A8060000 		.4byte	0x6a8
 2119 085f 04       		.uleb128 0x4
 2120 0860 29030000 		.4byte	.LASF129
 2121 0864 0E       		.byte	0xe
 2122 0865 34       		.byte	0x34
 2123 0866 D3060000 		.4byte	0x6d3
 2124 086a 0A       		.uleb128 0xa
 2125 086b 04       		.byte	0x4
 2126 086c 5F080000 		.4byte	0x85f
 2127 0870 1A       		.uleb128 0x1a
 2128 0871 60020000 		.4byte	.LASF135
 2129 0875 01       		.byte	0x1
 2130 0876 7A01     		.2byte	0x17a
 2131 0878 20010000 		.4byte	0x120
 2132 087c 00000000 		.4byte	.LFB229
 2133 0880 58000000 		.4byte	.LFE229-.LFB229
 2134 0884 01       		.uleb128 0x1
 2135 0885 9C       		.byte	0x9c
 2136 0886 CD090000 		.4byte	0x9cd
 2137 088a 1B       		.uleb128 0x1b
 2138 088b 73707300 		.ascii	"sps\000"
 2139 088f 01       		.byte	0x1
 2140 0890 7A01     		.2byte	0x17a
 2141 0892 CD090000 		.4byte	0x9cd
 2142 0896 00000000 		.4byte	.LLST39
 2143 089a 1B       		.uleb128 0x1b
 2144 089b 73707700 		.ascii	"spw\000"
 2145 089f 01       		.byte	0x1
 2146 08a0 7A01     		.2byte	0x17a
 2147 08a2 CD090000 		.4byte	0x9cd
 2148 08a6 45000000 		.4byte	.LLST40
 2149 08aa 1C       		.uleb128 0x1c
 2150 08ab 6D736700 		.ascii	"msg\000"
 2151 08af 01       		.byte	0x1
 2152 08b0 7B01     		.2byte	0x17b
 2153 08b2 20010000 		.4byte	0x120
 2154 08b6 79000000 		.4byte	.LLST41
 2155 08ba 1D       		.uleb128 0x1d
 2156 08bb EF050000 		.4byte	.LASF130
 2157 08bf E3090000 		.4byte	0x9e3
 2158 08c3 1E       		.uleb128 0x1e
 2159 08c4 24000000 		.4byte	.LBB253
 2160 08c8 18000000 		.4byte	.LBE253-.LBB253
 2161 08cc 17090000 		.4byte	0x917
 2162 08d0 1C       		.uleb128 0x1c
 2163 08d1 63747000 		.ascii	"ctp\000"
 2164 08d5 01       		.byte	0x1
 2165 08d6 8A01     		.2byte	0x18a
 2166 08d8 85020000 		.4byte	0x285
ARM GAS  /tmp/ccEshaLd.s 			page 39


 2167 08dc A3000000 		.4byte	.LLST42
 2168 08e0 1F       		.uleb128 0x1f
 2169 08e1 E2100000 		.4byte	0x10e2
 2170 08e5 26000000 		.4byte	.LBB254
 2171 08e9 60010000 		.4byte	.Ldebug_ranges0+0x160
 2172 08ed 01       		.byte	0x1
 2173 08ee 8B01     		.2byte	0x18b
 2174 08f0 07090000 		.4byte	0x907
 2175 08f4 20       		.uleb128 0x20
 2176 08f5 FA100000 		.4byte	0x10fa
 2177 08f9 B6000000 		.4byte	.LLST43
 2178 08fd 20       		.uleb128 0x20
 2179 08fe EF100000 		.4byte	0x10ef
 2180 0902 C9000000 		.4byte	.LLST44
 2181 0906 00       		.byte	0
 2182 0907 21       		.uleb128 0x21
 2183 0908 3A000000 		.4byte	.LVL80
 2184 090c 32120000 		.4byte	0x1232
 2185 0910 22       		.uleb128 0x22
 2186 0911 01       		.uleb128 0x1
 2187 0912 50       		.byte	0x50
 2188 0913 01       		.uleb128 0x1
 2189 0914 35       		.byte	0x35
 2190 0915 00       		.byte	0
 2191 0916 00       		.byte	0
 2192 0917 23       		.uleb128 0x23
 2193 0918 81100000 		.4byte	0x1081
 2194 091c 04000000 		.4byte	.LBB240
 2195 0920 02000000 		.4byte	.LBE240-.LBB240
 2196 0924 01       		.byte	0x1
 2197 0925 8501     		.2byte	0x185
 2198 0927 4D090000 		.4byte	0x94d
 2199 092b 24       		.uleb128 0x24
 2200 092c 2A110000 		.4byte	0x112a
 2201 0930 04000000 		.4byte	.LBB241
 2202 0934 02000000 		.4byte	.LBE241-.LBB241
 2203 0938 10       		.byte	0x10
 2204 0939 5C01     		.2byte	0x15c
 2205 093b 25       		.uleb128 0x25
 2206 093c 33110000 		.4byte	0x1133
 2207 0940 04000000 		.4byte	.LBB242
 2208 0944 02000000 		.4byte	.LBE242-.LBB242
 2209 0948 0B       		.byte	0xb
 2210 0949 C101     		.2byte	0x1c1
 2211 094b 00       		.byte	0
 2212 094c 00       		.byte	0
 2213 094d 1F       		.uleb128 0x1f
 2214 094e 66100000 		.4byte	0x1066
 2215 0952 20000000 		.4byte	.LBB244
 2216 0956 48010000 		.4byte	.Ldebug_ranges0+0x148
 2217 095a 01       		.byte	0x1
 2218 095b 9401     		.2byte	0x194
 2219 095d 89090000 		.4byte	0x989
 2220 0961 26       		.uleb128 0x26
 2221 0962 48010000 		.4byte	.Ldebug_ranges0+0x148
 2222 0966 27       		.uleb128 0x27
 2223 0967 21110000 		.4byte	0x1121
ARM GAS  /tmp/ccEshaLd.s 			page 40


 2224 096b 20000000 		.4byte	.LBB246
 2225 096f 48010000 		.4byte	.Ldebug_ranges0+0x148
 2226 0973 10       		.byte	0x10
 2227 0974 7301     		.2byte	0x173
 2228 0976 28       		.uleb128 0x28
 2229 0977 3C110000 		.4byte	0x113c
 2230 097b 20000000 		.4byte	.LBB247
 2231 097f 48010000 		.4byte	.Ldebug_ranges0+0x148
 2232 0983 0B       		.byte	0xb
 2233 0984 CF01     		.2byte	0x1cf
 2234 0986 00       		.byte	0
 2235 0987 00       		.byte	0
 2236 0988 00       		.byte	0
 2237 0989 23       		.uleb128 0x23
 2238 098a B9100000 		.4byte	0x10b9
 2239 098e 42000000 		.4byte	.LBB259
 2240 0992 08000000 		.4byte	.LBE259-.LBB259
 2241 0996 01       		.byte	0x1
 2242 0997 8701     		.2byte	0x187
 2243 0999 BA090000 		.4byte	0x9ba
 2244 099d 20       		.uleb128 0x20
 2245 099e CA100000 		.4byte	0x10ca
 2246 09a2 DC000000 		.4byte	.LLST45
 2247 09a6 29       		.uleb128 0x29
 2248 09a7 42000000 		.4byte	.LBB260
 2249 09ab 08000000 		.4byte	.LBE260-.LBB260
 2250 09af 2A       		.uleb128 0x2a
 2251 09b0 D6100000 		.4byte	0x10d6
 2252 09b4 EF000000 		.4byte	.LLST46
 2253 09b8 00       		.byte	0
 2254 09b9 00       		.byte	0
 2255 09ba 2B       		.uleb128 0x2b
 2256 09bb 1E000000 		.4byte	.LVL75
 2257 09bf 3E120000 		.4byte	0x123e
 2258 09c3 2B       		.uleb128 0x2b
 2259 09c4 4E000000 		.4byte	.LVL86
 2260 09c8 4A120000 		.4byte	0x124a
 2261 09cc 00       		.byte	0
 2262 09cd 0A       		.uleb128 0xa
 2263 09ce 04       		.byte	0x4
 2264 09cf 54080000 		.4byte	0x854
 2265 09d3 17       		.uleb128 0x17
 2266 09d4 1C070000 		.4byte	0x71c
 2267 09d8 E3090000 		.4byte	0x9e3
 2268 09dc 18       		.uleb128 0x18
 2269 09dd 2C000000 		.4byte	0x2c
 2270 09e1 0F       		.byte	0xf
 2271 09e2 00       		.byte	0
 2272 09e3 16       		.uleb128 0x16
 2273 09e4 D3090000 		.4byte	0x9d3
 2274 09e8 2C       		.uleb128 0x2c
 2275 09e9 F8010000 		.4byte	.LASF131
 2276 09ed 01       		.byte	0x1
 2277 09ee 5D01     		.2byte	0x15d
 2278 09f0 00000000 		.4byte	.LFB228
 2279 09f4 2E000000 		.4byte	.LFE228-.LFB228
 2280 09f8 01       		.uleb128 0x1
ARM GAS  /tmp/ccEshaLd.s 			page 41


 2281 09f9 9C       		.byte	0x9c
 2282 09fa 5F0A0000 		.4byte	0xa5f
 2283 09fe 1B       		.uleb128 0x1b
 2284 09ff 737000   		.ascii	"sp\000"
 2285 0a02 01       		.byte	0x1
 2286 0a03 5D01     		.2byte	0x15d
 2287 0a05 CD090000 		.4byte	0x9cd
 2288 0a09 02010000 		.4byte	.LLST35
 2289 0a0d 1B       		.uleb128 0x1b
 2290 0a0e 6E00     		.ascii	"n\000"
 2291 0a10 01       		.byte	0x1
 2292 0a11 5D01     		.2byte	0x15d
 2293 0a13 36010000 		.4byte	0x136
 2294 0a17 2E010000 		.4byte	.LLST36
 2295 0a1b 1D       		.uleb128 0x1d
 2296 0a1c EF050000 		.4byte	.LASF130
 2297 0a20 6F0A0000 		.4byte	0xa6f
 2298 0a24 23       		.uleb128 0x23
 2299 0a25 B9100000 		.4byte	0x10b9
 2300 0a29 1A000000 		.4byte	.LBB238
 2301 0a2d 08000000 		.4byte	.LBE238-.LBB238
 2302 0a31 01       		.byte	0x1
 2303 0a32 6701     		.2byte	0x167
 2304 0a34 550A0000 		.4byte	0xa55
 2305 0a38 20       		.uleb128 0x20
 2306 0a39 CA100000 		.4byte	0x10ca
 2307 0a3d 66010000 		.4byte	.LLST37
 2308 0a41 29       		.uleb128 0x29
 2309 0a42 1A000000 		.4byte	.LBB239
 2310 0a46 08000000 		.4byte	.LBE239-.LBB239
 2311 0a4a 2A       		.uleb128 0x2a
 2312 0a4b D6100000 		.4byte	0x10d6
 2313 0a4f 79010000 		.4byte	.LLST38
 2314 0a53 00       		.byte	0
 2315 0a54 00       		.byte	0
 2316 0a55 2B       		.uleb128 0x2b
 2317 0a56 26000000 		.4byte	.LVL69
 2318 0a5a 4A120000 		.4byte	0x124a
 2319 0a5e 00       		.byte	0
 2320 0a5f 17       		.uleb128 0x17
 2321 0a60 1C070000 		.4byte	0x71c
 2322 0a64 6F0A0000 		.4byte	0xa6f
 2323 0a68 18       		.uleb128 0x18
 2324 0a69 2C000000 		.4byte	0x2c
 2325 0a6d 10       		.byte	0x10
 2326 0a6e 00       		.byte	0
 2327 0a6f 16       		.uleb128 0x16
 2328 0a70 5F0A0000 		.4byte	0xa5f
 2329 0a74 2C       		.uleb128 0x2c
 2330 0a75 27000000 		.4byte	.LASF132
 2331 0a79 01       		.byte	0x1
 2332 0a7a 3F01     		.2byte	0x13f
 2333 0a7c 00000000 		.4byte	.LFB227
 2334 0a80 1E000000 		.4byte	.LFE227-.LFB227
 2335 0a84 01       		.uleb128 0x1
 2336 0a85 9C       		.byte	0x9c
 2337 0a86 EE0A0000 		.4byte	0xaee
ARM GAS  /tmp/ccEshaLd.s 			page 42


 2338 0a8a 1B       		.uleb128 0x1b
 2339 0a8b 737000   		.ascii	"sp\000"
 2340 0a8e 01       		.byte	0x1
 2341 0a8f 3F01     		.2byte	0x13f
 2342 0a91 CD090000 		.4byte	0x9cd
 2343 0a95 8C010000 		.4byte	.LLST32
 2344 0a99 1D       		.uleb128 0x1d
 2345 0a9a EF050000 		.4byte	.LASF130
 2346 0a9e FE0A0000 		.4byte	0xafe
 2347 0aa2 29       		.uleb128 0x29
 2348 0aa3 0C000000 		.4byte	.LBB233
 2349 0aa7 12000000 		.4byte	.LBE233-.LBB233
 2350 0aab 2D       		.uleb128 0x2d
 2351 0aac 747000   		.ascii	"tp\000"
 2352 0aaf 01       		.byte	0x1
 2353 0ab0 4A01     		.2byte	0x14a
 2354 0ab2 85020000 		.4byte	0x285
 2355 0ab6 1F       		.uleb128 0x1f
 2356 0ab7 B9100000 		.4byte	0x10b9
 2357 0abb 0C000000 		.4byte	.LBB234
 2358 0abf 30010000 		.4byte	.Ldebug_ranges0+0x130
 2359 0ac3 01       		.byte	0x1
 2360 0ac4 4A01     		.2byte	0x14a
 2361 0ac6 E30A0000 		.4byte	0xae3
 2362 0aca 20       		.uleb128 0x20
 2363 0acb CA100000 		.4byte	0x10ca
 2364 0acf B9010000 		.4byte	.LLST33
 2365 0ad3 26       		.uleb128 0x26
 2366 0ad4 30010000 		.4byte	.Ldebug_ranges0+0x130
 2367 0ad8 2A       		.uleb128 0x2a
 2368 0ad9 D6100000 		.4byte	0x10d6
 2369 0add CC010000 		.4byte	.LLST34
 2370 0ae1 00       		.byte	0
 2371 0ae2 00       		.byte	0
 2372 0ae3 2E       		.uleb128 0x2e
 2373 0ae4 1E000000 		.4byte	.LVL61
 2374 0ae8 4A120000 		.4byte	0x124a
 2375 0aec 00       		.byte	0
 2376 0aed 00       		.byte	0
 2377 0aee 17       		.uleb128 0x17
 2378 0aef 1C070000 		.4byte	0x71c
 2379 0af3 FE0A0000 		.4byte	0xafe
 2380 0af7 18       		.uleb128 0x18
 2381 0af8 2C000000 		.4byte	0x2c
 2382 0afc 0C       		.byte	0xc
 2383 0afd 00       		.byte	0
 2384 0afe 16       		.uleb128 0x16
 2385 0aff EE0A0000 		.4byte	0xaee
 2386 0b03 2C       		.uleb128 0x2c
 2387 0b04 CA010000 		.4byte	.LASF133
 2388 0b08 01       		.byte	0x1
 2389 0b09 2601     		.2byte	0x126
 2390 0b0b 00000000 		.4byte	.LFB226
 2391 0b0f 26000000 		.4byte	.LFE226-.LFB226
 2392 0b13 01       		.uleb128 0x1
 2393 0b14 9C       		.byte	0x9c
 2394 0b15 E00B0000 		.4byte	0xbe0
ARM GAS  /tmp/ccEshaLd.s 			page 43


 2395 0b19 1B       		.uleb128 0x1b
 2396 0b1a 737000   		.ascii	"sp\000"
 2397 0b1d 01       		.byte	0x1
 2398 0b1e 2601     		.2byte	0x126
 2399 0b20 CD090000 		.4byte	0x9cd
 2400 0b24 DF010000 		.4byte	.LLST29
 2401 0b28 1D       		.uleb128 0x1d
 2402 0b29 EF050000 		.4byte	.LASF130
 2403 0b2d F00B0000 		.4byte	0xbf0
 2404 0b31 23       		.uleb128 0x23
 2405 0b32 81100000 		.4byte	0x1081
 2406 0b36 02000000 		.4byte	.LBB215
 2407 0b3a 02000000 		.4byte	.LBE215-.LBB215
 2408 0b3e 01       		.byte	0x1
 2409 0b3f 2D01     		.2byte	0x12d
 2410 0b41 670B0000 		.4byte	0xb67
 2411 0b45 24       		.uleb128 0x24
 2412 0b46 2A110000 		.4byte	0x112a
 2413 0b4a 02000000 		.4byte	.LBB216
 2414 0b4e 02000000 		.4byte	.LBE216-.LBB216
 2415 0b52 10       		.byte	0x10
 2416 0b53 5C01     		.2byte	0x15c
 2417 0b55 25       		.uleb128 0x25
 2418 0b56 33110000 		.4byte	0x1133
 2419 0b5a 02000000 		.4byte	.LBB217
 2420 0b5e 02000000 		.4byte	.LBE217-.LBB217
 2421 0b62 0B       		.byte	0xb
 2422 0b63 C101     		.2byte	0x1c1
 2423 0b65 00       		.byte	0
 2424 0b66 00       		.byte	0
 2425 0b67 1F       		.uleb128 0x1f
 2426 0b68 66100000 		.4byte	0x1066
 2427 0b6c 0E000000 		.4byte	.LBB219
 2428 0b70 00010000 		.4byte	.Ldebug_ranges0+0x100
 2429 0b74 01       		.byte	0x1
 2430 0b75 3101     		.2byte	0x131
 2431 0b77 A30B0000 		.4byte	0xba3
 2432 0b7b 26       		.uleb128 0x26
 2433 0b7c 00010000 		.4byte	.Ldebug_ranges0+0x100
 2434 0b80 27       		.uleb128 0x27
 2435 0b81 21110000 		.4byte	0x1121
 2436 0b85 0E000000 		.4byte	.LBB221
 2437 0b89 00010000 		.4byte	.Ldebug_ranges0+0x100
 2438 0b8d 10       		.byte	0x10
 2439 0b8e 7301     		.2byte	0x173
 2440 0b90 28       		.uleb128 0x28
 2441 0b91 3C110000 		.4byte	0x113c
 2442 0b95 0E000000 		.4byte	.LBB222
 2443 0b99 00010000 		.4byte	.Ldebug_ranges0+0x100
 2444 0b9d 0B       		.byte	0xb
 2445 0b9e CF01     		.2byte	0x1cf
 2446 0ba0 00       		.byte	0
 2447 0ba1 00       		.byte	0
 2448 0ba2 00       		.byte	0
 2449 0ba3 1F       		.uleb128 0x1f
 2450 0ba4 B9100000 		.4byte	0x10b9
 2451 0ba8 14000000 		.4byte	.LBB228
ARM GAS  /tmp/ccEshaLd.s 			page 44


 2452 0bac 18010000 		.4byte	.Ldebug_ranges0+0x118
 2453 0bb0 01       		.byte	0x1
 2454 0bb1 2F01     		.2byte	0x12f
 2455 0bb3 D00B0000 		.4byte	0xbd0
 2456 0bb7 20       		.uleb128 0x20
 2457 0bb8 CA100000 		.4byte	0x10ca
 2458 0bbc 0B020000 		.4byte	.LLST30
 2459 0bc0 26       		.uleb128 0x26
 2460 0bc1 18010000 		.4byte	.Ldebug_ranges0+0x118
 2461 0bc5 2A       		.uleb128 0x2a
 2462 0bc6 D6100000 		.4byte	0x10d6
 2463 0bca 1E020000 		.4byte	.LLST31
 2464 0bce 00       		.byte	0
 2465 0bcf 00       		.byte	0
 2466 0bd0 21       		.uleb128 0x21
 2467 0bd1 22000000 		.4byte	.LVL55
 2468 0bd5 56120000 		.4byte	0x1256
 2469 0bd9 22       		.uleb128 0x22
 2470 0bda 01       		.uleb128 0x1
 2471 0bdb 51       		.byte	0x51
 2472 0bdc 01       		.uleb128 0x1
 2473 0bdd 30       		.byte	0x30
 2474 0bde 00       		.byte	0
 2475 0bdf 00       		.byte	0
 2476 0be0 17       		.uleb128 0x17
 2477 0be1 1C070000 		.4byte	0x71c
 2478 0be5 F00B0000 		.4byte	0xbf0
 2479 0be9 18       		.uleb128 0x18
 2480 0bea 2C000000 		.4byte	0x2c
 2481 0bee 0B       		.byte	0xb
 2482 0bef 00       		.byte	0
 2483 0bf0 16       		.uleb128 0x16
 2484 0bf1 E00B0000 		.4byte	0xbe0
 2485 0bf5 2F       		.uleb128 0x2f
 2486 0bf6 C8060000 		.4byte	.LASF137
 2487 0bfa 01       		.byte	0x1
 2488 0bfb 0801     		.2byte	0x108
 2489 0bfd 20010000 		.4byte	0x120
 2490 0c01 01       		.byte	0x1
 2491 0c02 2B0C0000 		.4byte	0xc2b
 2492 0c06 30       		.uleb128 0x30
 2493 0c07 737000   		.ascii	"sp\000"
 2494 0c0a 01       		.byte	0x1
 2495 0c0b 0801     		.2byte	0x108
 2496 0c0d CD090000 		.4byte	0x9cd
 2497 0c11 31       		.uleb128 0x31
 2498 0c12 08050000 		.4byte	.LASF134
 2499 0c16 01       		.byte	0x1
 2500 0c17 0801     		.2byte	0x108
 2501 0c19 41010000 		.4byte	0x141
 2502 0c1d 32       		.uleb128 0x32
 2503 0c1e EF050000 		.4byte	.LASF130
 2504 0c22 3B0C0000 		.4byte	0xc3b
 2505 0c26 C8060000 		.4byte	.LASF137
 2506 0c2a 00       		.byte	0
 2507 0c2b 17       		.uleb128 0x17
 2508 0c2c 1C070000 		.4byte	0x71c
ARM GAS  /tmp/ccEshaLd.s 			page 45


 2509 0c30 3B0C0000 		.4byte	0xc3b
 2510 0c34 18       		.uleb128 0x18
 2511 0c35 2C000000 		.4byte	0x2c
 2512 0c39 11       		.byte	0x11
 2513 0c3a 00       		.byte	0
 2514 0c3b 16       		.uleb128 0x16
 2515 0c3c 2B0C0000 		.4byte	0xc2b
 2516 0c40 33       		.uleb128 0x33
 2517 0c41 6E030000 		.4byte	.LASF136
 2518 0c45 01       		.byte	0x1
 2519 0c46 EB       		.byte	0xeb
 2520 0c47 20010000 		.4byte	0x120
 2521 0c4b 00000000 		.4byte	.LFB224
 2522 0c4f 40000000 		.4byte	.LFE224-.LFB224
 2523 0c53 01       		.uleb128 0x1
 2524 0c54 9C       		.byte	0x9c
 2525 0c55 760D0000 		.4byte	0xd76
 2526 0c59 34       		.uleb128 0x34
 2527 0c5a 737000   		.ascii	"sp\000"
 2528 0c5d 01       		.byte	0x1
 2529 0c5e EB       		.byte	0xeb
 2530 0c5f CD090000 		.4byte	0x9cd
 2531 0c63 31020000 		.4byte	.LLST17
 2532 0c67 35       		.uleb128 0x35
 2533 0c68 08050000 		.4byte	.LASF134
 2534 0c6c 01       		.byte	0x1
 2535 0c6d EB       		.byte	0xeb
 2536 0c6e 41010000 		.4byte	0x141
 2537 0c72 8F020000 		.4byte	.LLST18
 2538 0c76 36       		.uleb128 0x36
 2539 0c77 6D736700 		.ascii	"msg\000"
 2540 0c7b 01       		.byte	0x1
 2541 0c7c EC       		.byte	0xec
 2542 0c7d 20010000 		.4byte	0x120
 2543 0c81 37       		.uleb128 0x37
 2544 0c82 81100000 		.4byte	0x1081
 2545 0c86 00000000 		.4byte	.LBB173
 2546 0c8a 02000000 		.4byte	.LBE173-.LBB173
 2547 0c8e 01       		.byte	0x1
 2548 0c8f EE       		.byte	0xee
 2549 0c90 B60C0000 		.4byte	0xcb6
 2550 0c94 24       		.uleb128 0x24
 2551 0c95 2A110000 		.4byte	0x112a
 2552 0c99 00000000 		.4byte	.LBB174
 2553 0c9d 02000000 		.4byte	.LBE174-.LBB174
 2554 0ca1 10       		.byte	0x10
 2555 0ca2 5C01     		.2byte	0x15c
 2556 0ca4 25       		.uleb128 0x25
 2557 0ca5 33110000 		.4byte	0x1133
 2558 0ca9 00000000 		.4byte	.LBB175
 2559 0cad 02000000 		.4byte	.LBE175-.LBB175
 2560 0cb1 0B       		.byte	0xb
 2561 0cb2 C101     		.2byte	0x1c1
 2562 0cb4 00       		.byte	0
 2563 0cb5 00       		.byte	0
 2564 0cb6 38       		.uleb128 0x38
 2565 0cb7 F50B0000 		.4byte	0xbf5
ARM GAS  /tmp/ccEshaLd.s 			page 46


 2566 0cbb 02000000 		.4byte	.LBB177
 2567 0cbf 70000000 		.4byte	.Ldebug_ranges0+0x70
 2568 0cc3 01       		.byte	0x1
 2569 0cc4 EF       		.byte	0xef
 2570 0cc5 3E0D0000 		.4byte	0xd3e
 2571 0cc9 20       		.uleb128 0x20
 2572 0cca 110C0000 		.4byte	0xc11
 2573 0cce BB020000 		.4byte	.LLST19
 2574 0cd2 20       		.uleb128 0x20
 2575 0cd3 060C0000 		.4byte	0xc06
 2576 0cd7 F2020000 		.4byte	.LLST20
 2577 0cdb 26       		.uleb128 0x26
 2578 0cdc 70000000 		.4byte	.Ldebug_ranges0+0x70
 2579 0ce0 39       		.uleb128 0x39
 2580 0ce1 F50B0000 		.4byte	0xbf5
 2581 0ce5 16000000 		.4byte	.LBB179
 2582 0ce9 18000000 		.4byte	.LBE179-.LBB179
 2583 0ced 3A       		.uleb128 0x3a
 2584 0cee 110C0000 		.4byte	0xc11
 2585 0cf2 20       		.uleb128 0x20
 2586 0cf3 060C0000 		.4byte	0xc06
 2587 0cf7 42030000 		.4byte	.LLST21
 2588 0cfb 29       		.uleb128 0x29
 2589 0cfc 16000000 		.4byte	.LBB180
 2590 0d00 18000000 		.4byte	.LBE180-.LBB180
 2591 0d04 1F       		.uleb128 0x1f
 2592 0d05 E2100000 		.4byte	0x10e2
 2593 0d09 18000000 		.4byte	.LBB181
 2594 0d0d 90000000 		.4byte	.Ldebug_ranges0+0x90
 2595 0d11 01       		.byte	0x1
 2596 0d12 1701     		.2byte	0x117
 2597 0d14 2B0D0000 		.4byte	0xd2b
 2598 0d18 20       		.uleb128 0x20
 2599 0d19 FA100000 		.4byte	0x10fa
 2600 0d1d 63030000 		.4byte	.LLST22
 2601 0d21 20       		.uleb128 0x20
 2602 0d22 EF100000 		.4byte	0x10ef
 2603 0d26 76030000 		.4byte	.LLST23
 2604 0d2a 00       		.byte	0
 2605 0d2b 21       		.uleb128 0x21
 2606 0d2c 2E000000 		.4byte	.LVL42
 2607 0d30 62120000 		.4byte	0x1262
 2608 0d34 22       		.uleb128 0x22
 2609 0d35 01       		.uleb128 0x1
 2610 0d36 50       		.byte	0x50
 2611 0d37 01       		.uleb128 0x1
 2612 0d38 35       		.byte	0x35
 2613 0d39 00       		.byte	0
 2614 0d3a 00       		.byte	0
 2615 0d3b 00       		.byte	0
 2616 0d3c 00       		.byte	0
 2617 0d3d 00       		.byte	0
 2618 0d3e 3B       		.uleb128 0x3b
 2619 0d3f 66100000 		.4byte	0x1066
 2620 0d43 0E000000 		.4byte	.LBB189
 2621 0d47 B0000000 		.4byte	.Ldebug_ranges0+0xb0
 2622 0d4b 01       		.byte	0x1
ARM GAS  /tmp/ccEshaLd.s 			page 47


 2623 0d4c F0       		.byte	0xf0
 2624 0d4d 26       		.uleb128 0x26
 2625 0d4e B0000000 		.4byte	.Ldebug_ranges0+0xb0
 2626 0d52 27       		.uleb128 0x27
 2627 0d53 21110000 		.4byte	0x1121
 2628 0d57 0E000000 		.4byte	.LBB191
 2629 0d5b B0000000 		.4byte	.Ldebug_ranges0+0xb0
 2630 0d5f 10       		.byte	0x10
 2631 0d60 7301     		.2byte	0x173
 2632 0d62 28       		.uleb128 0x28
 2633 0d63 3C110000 		.4byte	0x113c
 2634 0d67 0E000000 		.4byte	.LBB192
 2635 0d6b B0000000 		.4byte	.Ldebug_ranges0+0xb0
 2636 0d6f 0B       		.byte	0xb
 2637 0d70 CF01     		.2byte	0x1cf
 2638 0d72 00       		.byte	0
 2639 0d73 00       		.byte	0
 2640 0d74 00       		.byte	0
 2641 0d75 00       		.byte	0
 2642 0d76 3C       		.uleb128 0x3c
 2643 0d77 F8050000 		.4byte	.LASF138
 2644 0d7b 01       		.byte	0x1
 2645 0d7c C5       		.byte	0xc5
 2646 0d7d 20010000 		.4byte	0x120
 2647 0d81 01       		.byte	0x1
 2648 0d82 9E0D0000 		.4byte	0xd9e
 2649 0d86 3D       		.uleb128 0x3d
 2650 0d87 737000   		.ascii	"sp\000"
 2651 0d8a 01       		.byte	0x1
 2652 0d8b C5       		.byte	0xc5
 2653 0d8c CD090000 		.4byte	0x9cd
 2654 0d90 32       		.uleb128 0x32
 2655 0d91 EF050000 		.4byte	.LASF130
 2656 0d95 AE0D0000 		.4byte	0xdae
 2657 0d99 F8050000 		.4byte	.LASF138
 2658 0d9d 00       		.byte	0
 2659 0d9e 17       		.uleb128 0x17
 2660 0d9f 1C070000 		.4byte	0x71c
 2661 0da3 AE0D0000 		.4byte	0xdae
 2662 0da7 18       		.uleb128 0x18
 2663 0da8 2C000000 		.4byte	0x2c
 2664 0dac 0A       		.byte	0xa
 2665 0dad 00       		.byte	0
 2666 0dae 16       		.uleb128 0x16
 2667 0daf 9E0D0000 		.4byte	0xd9e
 2668 0db3 33       		.uleb128 0x33
 2669 0db4 29070000 		.4byte	.LASF139
 2670 0db8 01       		.byte	0x1
 2671 0db9 AF       		.byte	0xaf
 2672 0dba 20010000 		.4byte	0x120
 2673 0dbe 00000000 		.4byte	.LFB222
 2674 0dc2 38000000 		.4byte	.LFE222-.LFB222
 2675 0dc6 01       		.uleb128 0x1
 2676 0dc7 9C       		.byte	0x9c
 2677 0dc8 CB0E0000 		.4byte	0xecb
 2678 0dcc 34       		.uleb128 0x34
 2679 0dcd 737000   		.ascii	"sp\000"
ARM GAS  /tmp/ccEshaLd.s 			page 48


 2680 0dd0 01       		.byte	0x1
 2681 0dd1 AF       		.byte	0xaf
 2682 0dd2 CD090000 		.4byte	0x9cd
 2683 0dd6 89030000 		.4byte	.LLST8
 2684 0dda 36       		.uleb128 0x36
 2685 0ddb 6D736700 		.ascii	"msg\000"
 2686 0ddf 01       		.byte	0x1
 2687 0de0 B0       		.byte	0xb0
 2688 0de1 20010000 		.4byte	0x120
 2689 0de5 37       		.uleb128 0x37
 2690 0de6 81100000 		.4byte	0x1081
 2691 0dea 00000000 		.4byte	.LBB120
 2692 0dee 02000000 		.4byte	.LBE120-.LBB120
 2693 0df2 01       		.byte	0x1
 2694 0df3 B2       		.byte	0xb2
 2695 0df4 1A0E0000 		.4byte	0xe1a
 2696 0df8 24       		.uleb128 0x24
 2697 0df9 2A110000 		.4byte	0x112a
 2698 0dfd 00000000 		.4byte	.LBB121
 2699 0e01 02000000 		.4byte	.LBE121-.LBB121
 2700 0e05 10       		.byte	0x10
 2701 0e06 5C01     		.2byte	0x15c
 2702 0e08 25       		.uleb128 0x25
 2703 0e09 33110000 		.4byte	0x1133
 2704 0e0d 00000000 		.4byte	.LBB122
 2705 0e11 02000000 		.4byte	.LBE122-.LBB122
 2706 0e15 0B       		.byte	0xb
 2707 0e16 C101     		.2byte	0x1c1
 2708 0e18 00       		.byte	0
 2709 0e19 00       		.byte	0
 2710 0e1a 38       		.uleb128 0x38
 2711 0e1b 760D0000 		.4byte	0xd76
 2712 0e1f 02000000 		.4byte	.LBB124
 2713 0e23 00000000 		.4byte	.Ldebug_ranges0+0
 2714 0e27 01       		.byte	0x1
 2715 0e28 B3       		.byte	0xb3
 2716 0e29 930E0000 		.4byte	0xe93
 2717 0e2d 20       		.uleb128 0x20
 2718 0e2e 860D0000 		.4byte	0xd86
 2719 0e32 CE030000 		.4byte	.LLST9
 2720 0e36 26       		.uleb128 0x26
 2721 0e37 00000000 		.4byte	.Ldebug_ranges0+0
 2722 0e3b 39       		.uleb128 0x39
 2723 0e3c 760D0000 		.4byte	0xd76
 2724 0e40 14000000 		.4byte	.LBB126
 2725 0e44 1C000000 		.4byte	.LBE126-.LBB126
 2726 0e48 20       		.uleb128 0x20
 2727 0e49 860D0000 		.4byte	0xd86
 2728 0e4d 05040000 		.4byte	.LLST10
 2729 0e51 29       		.uleb128 0x29
 2730 0e52 14000000 		.4byte	.LBB127
 2731 0e56 1C000000 		.4byte	.LBE127-.LBB127
 2732 0e5a 38       		.uleb128 0x38
 2733 0e5b E2100000 		.4byte	0x10e2
 2734 0e5f 16000000 		.4byte	.LBB128
 2735 0e63 18000000 		.4byte	.Ldebug_ranges0+0x18
 2736 0e67 01       		.byte	0x1
ARM GAS  /tmp/ccEshaLd.s 			page 49


 2737 0e68 CF       		.byte	0xcf
 2738 0e69 800E0000 		.4byte	0xe80
 2739 0e6d 20       		.uleb128 0x20
 2740 0e6e FA100000 		.4byte	0x10fa
 2741 0e72 26040000 		.4byte	.LLST11
 2742 0e76 20       		.uleb128 0x20
 2743 0e77 EF100000 		.4byte	0x10ef
 2744 0e7b 39040000 		.4byte	.LLST12
 2745 0e7f 00       		.byte	0
 2746 0e80 21       		.uleb128 0x21
 2747 0e81 2C000000 		.4byte	.LVL23
 2748 0e85 32120000 		.4byte	0x1232
 2749 0e89 22       		.uleb128 0x22
 2750 0e8a 01       		.uleb128 0x1
 2751 0e8b 50       		.byte	0x50
 2752 0e8c 01       		.uleb128 0x1
 2753 0e8d 35       		.byte	0x35
 2754 0e8e 00       		.byte	0
 2755 0e8f 00       		.byte	0
 2756 0e90 00       		.byte	0
 2757 0e91 00       		.byte	0
 2758 0e92 00       		.byte	0
 2759 0e93 3B       		.uleb128 0x3b
 2760 0e94 66100000 		.4byte	0x1066
 2761 0e98 0E000000 		.4byte	.LBB135
 2762 0e9c 38000000 		.4byte	.Ldebug_ranges0+0x38
 2763 0ea0 01       		.byte	0x1
 2764 0ea1 B4       		.byte	0xb4
 2765 0ea2 26       		.uleb128 0x26
 2766 0ea3 38000000 		.4byte	.Ldebug_ranges0+0x38
 2767 0ea7 27       		.uleb128 0x27
 2768 0ea8 21110000 		.4byte	0x1121
 2769 0eac 0E000000 		.4byte	.LBB137
 2770 0eb0 38000000 		.4byte	.Ldebug_ranges0+0x38
 2771 0eb4 10       		.byte	0x10
 2772 0eb5 7301     		.2byte	0x173
 2773 0eb7 28       		.uleb128 0x28
 2774 0eb8 3C110000 		.4byte	0x113c
 2775 0ebc 0E000000 		.4byte	.LBB138
 2776 0ec0 38000000 		.4byte	.Ldebug_ranges0+0x38
 2777 0ec4 0B       		.byte	0xb
 2778 0ec5 CF01     		.2byte	0x1cf
 2779 0ec7 00       		.byte	0
 2780 0ec8 00       		.byte	0
 2781 0ec9 00       		.byte	0
 2782 0eca 00       		.byte	0
 2783 0ecb 3E       		.uleb128 0x3e
 2784 0ecc 83070000 		.4byte	.LASF140
 2785 0ed0 01       		.byte	0x1
 2786 0ed1 93       		.byte	0x93
 2787 0ed2 00000000 		.4byte	.LFB221
 2788 0ed6 28000000 		.4byte	.LFE221-.LFB221
 2789 0eda 01       		.uleb128 0x1
 2790 0edb 9C       		.byte	0x9c
 2791 0edc 4D0F0000 		.4byte	0xf4d
 2792 0ee0 34       		.uleb128 0x34
 2793 0ee1 737000   		.ascii	"sp\000"
ARM GAS  /tmp/ccEshaLd.s 			page 50


 2794 0ee4 01       		.byte	0x1
 2795 0ee5 93       		.byte	0x93
 2796 0ee6 CD090000 		.4byte	0x9cd
 2797 0eea 4C040000 		.4byte	.LLST1
 2798 0eee 34       		.uleb128 0x34
 2799 0eef 6E00     		.ascii	"n\000"
 2800 0ef1 01       		.byte	0x1
 2801 0ef2 93       		.byte	0x93
 2802 0ef3 36010000 		.4byte	0x136
 2803 0ef7 78040000 		.4byte	.LLST2
 2804 0efb 3F       		.uleb128 0x3f
 2805 0efc 636E7400 		.ascii	"cnt\000"
 2806 0f00 01       		.byte	0x1
 2807 0f01 94       		.byte	0x94
 2808 0f02 36010000 		.4byte	0x136
 2809 0f06 99040000 		.4byte	.LLST3
 2810 0f0a 1D       		.uleb128 0x1d
 2811 0f0b EF050000 		.4byte	.LASF130
 2812 0f0f F00B0000 		.4byte	0xbf0
 2813 0f13 37       		.uleb128 0x37
 2814 0f14 8A100000 		.4byte	0x108a
 2815 0f18 12000000 		.4byte	.LBB94
 2816 0f1c 08000000 		.4byte	.LBE94-.LBB94
 2817 0f20 01       		.byte	0x1
 2818 0f21 9F       		.byte	0x9f
 2819 0f22 430F0000 		.4byte	0xf43
 2820 0f26 20       		.uleb128 0x20
 2821 0f27 9B100000 		.4byte	0x109b
 2822 0f2b C4040000 		.4byte	.LLST4
 2823 0f2f 29       		.uleb128 0x29
 2824 0f30 12000000 		.4byte	.LBB95
 2825 0f34 08000000 		.4byte	.LBE95-.LBB95
 2826 0f38 2A       		.uleb128 0x2a
 2827 0f39 A7100000 		.4byte	0x10a7
 2828 0f3d D7040000 		.4byte	.LLST5
 2829 0f41 00       		.byte	0
 2830 0f42 00       		.byte	0
 2831 0f43 2B       		.uleb128 0x2b
 2832 0f44 1E000000 		.4byte	.LVL8
 2833 0f48 4A120000 		.4byte	0x124a
 2834 0f4c 00       		.byte	0
 2835 0f4d 3E       		.uleb128 0x3e
 2836 0f4e C2030000 		.4byte	.LASF141
 2837 0f52 01       		.byte	0x1
 2838 0f53 78       		.byte	0x78
 2839 0f54 00000000 		.4byte	.LFB220
 2840 0f58 10000000 		.4byte	.LFE220-.LFB220
 2841 0f5c 01       		.uleb128 0x1
 2842 0f5d 9C       		.byte	0x9c
 2843 0f5e 17100000 		.4byte	0x1017
 2844 0f62 34       		.uleb128 0x34
 2845 0f63 737000   		.ascii	"sp\000"
 2846 0f66 01       		.byte	0x1
 2847 0f67 78       		.byte	0x78
 2848 0f68 CD090000 		.4byte	0x9cd
 2849 0f6c EA040000 		.4byte	.LLST6
 2850 0f70 34       		.uleb128 0x34
ARM GAS  /tmp/ccEshaLd.s 			page 51


 2851 0f71 6E00     		.ascii	"n\000"
 2852 0f73 01       		.byte	0x1
 2853 0f74 78       		.byte	0x78
 2854 0f75 36010000 		.4byte	0x136
 2855 0f79 0B050000 		.4byte	.LLST7
 2856 0f7d 37       		.uleb128 0x37
 2857 0f7e 81100000 		.4byte	0x1081
 2858 0f82 02000000 		.4byte	.LBB96
 2859 0f86 02000000 		.4byte	.LBE96-.LBB96
 2860 0f8a 01       		.byte	0x1
 2861 0f8b 7A       		.byte	0x7a
 2862 0f8c B20F0000 		.4byte	0xfb2
 2863 0f90 24       		.uleb128 0x24
 2864 0f91 2A110000 		.4byte	0x112a
 2865 0f95 02000000 		.4byte	.LBB97
 2866 0f99 02000000 		.4byte	.LBE97-.LBB97
 2867 0f9d 10       		.byte	0x10
 2868 0f9e 5C01     		.2byte	0x15c
 2869 0fa0 25       		.uleb128 0x25
 2870 0fa1 33110000 		.4byte	0x1133
 2871 0fa5 02000000 		.4byte	.LBB98
 2872 0fa9 02000000 		.4byte	.LBE98-.LBB98
 2873 0fad 0B       		.byte	0xb
 2874 0fae C101     		.2byte	0x1c1
 2875 0fb0 00       		.byte	0
 2876 0fb1 00       		.byte	0
 2877 0fb2 37       		.uleb128 0x37
 2878 0fb3 66100000 		.4byte	0x1066
 2879 0fb7 0C000000 		.4byte	.LBB100
 2880 0fbb 02000000 		.4byte	.LBE100-.LBB100
 2881 0fbf 01       		.byte	0x1
 2882 0fc0 7D       		.byte	0x7d
 2883 0fc1 F10F0000 		.4byte	0xff1
 2884 0fc5 29       		.uleb128 0x29
 2885 0fc6 0C000000 		.4byte	.LBB101
 2886 0fca 02000000 		.4byte	.LBE101-.LBB101
 2887 0fce 24       		.uleb128 0x24
 2888 0fcf 21110000 		.4byte	0x1121
 2889 0fd3 0C000000 		.4byte	.LBB102
 2890 0fd7 02000000 		.4byte	.LBE102-.LBB102
 2891 0fdb 10       		.byte	0x10
 2892 0fdc 7301     		.2byte	0x173
 2893 0fde 25       		.uleb128 0x25
 2894 0fdf 3C110000 		.4byte	0x113c
 2895 0fe3 0C000000 		.4byte	.LBB103
 2896 0fe7 02000000 		.4byte	.LBE103-.LBB103
 2897 0feb 0B       		.byte	0xb
 2898 0fec CF01     		.2byte	0x1cf
 2899 0fee 00       		.byte	0
 2900 0fef 00       		.byte	0
 2901 0ff0 00       		.byte	0
 2902 0ff1 40       		.uleb128 0x40
 2903 0ff2 08000000 		.4byte	.LVL13
 2904 0ff6 CB0E0000 		.4byte	0xecb
 2905 0ffa 0D100000 		.4byte	0x100d
 2906 0ffe 22       		.uleb128 0x22
 2907 0fff 01       		.uleb128 0x1
ARM GAS  /tmp/ccEshaLd.s 			page 52


 2908 1000 50       		.byte	0x50
 2909 1001 03       		.uleb128 0x3
 2910 1002 F3       		.byte	0xf3
 2911 1003 01       		.uleb128 0x1
 2912 1004 50       		.byte	0x50
 2913 1005 22       		.uleb128 0x22
 2914 1006 01       		.uleb128 0x1
 2915 1007 51       		.byte	0x51
 2916 1008 03       		.uleb128 0x3
 2917 1009 F3       		.byte	0xf3
 2918 100a 01       		.uleb128 0x1
 2919 100b 51       		.byte	0x51
 2920 100c 00       		.byte	0
 2921 100d 2B       		.uleb128 0x2b
 2922 100e 0C000000 		.4byte	.LVL14
 2923 1012 3E120000 		.4byte	0x123e
 2924 1016 00       		.byte	0
 2925 1017 3E       		.uleb128 0x3e
 2926 1018 40030000 		.4byte	.LASF142
 2927 101c 01       		.byte	0x1
 2928 101d 61       		.byte	0x61
 2929 101e 00000000 		.4byte	.LFB219
 2930 1022 08000000 		.4byte	.LFE219-.LFB219
 2931 1026 01       		.uleb128 0x1
 2932 1027 9C       		.byte	0x9c
 2933 1028 66100000 		.4byte	0x1066
 2934 102c 41       		.uleb128 0x41
 2935 102d 737000   		.ascii	"sp\000"
 2936 1030 01       		.byte	0x1
 2937 1031 61       		.byte	0x61
 2938 1032 CD090000 		.4byte	0x9cd
 2939 1036 01       		.uleb128 0x1
 2940 1037 50       		.byte	0x50
 2941 1038 41       		.uleb128 0x41
 2942 1039 6E00     		.ascii	"n\000"
 2943 103b 01       		.byte	0x1
 2944 103c 61       		.byte	0x61
 2945 103d 36010000 		.4byte	0x136
 2946 1041 01       		.uleb128 0x1
 2947 1042 51       		.byte	0x51
 2948 1043 1D       		.uleb128 0x1d
 2949 1044 EF050000 		.4byte	.LASF130
 2950 1048 E3090000 		.4byte	0x9e3
 2951 104c 42       		.uleb128 0x42
 2952 104d 07110000 		.4byte	0x1107
 2953 1051 00000000 		.4byte	.LBB92
 2954 1055 04000000 		.4byte	.LBE92-.LBB92
 2955 1059 01       		.byte	0x1
 2956 105a 65       		.byte	0x65
 2957 105b 20       		.uleb128 0x20
 2958 105c 14110000 		.4byte	0x1114
 2959 1060 2C050000 		.4byte	.LLST0
 2960 1064 00       		.byte	0
 2961 1065 00       		.byte	0
 2962 1066 43       		.uleb128 0x43
 2963 1067 E2070000 		.4byte	.LASF143
 2964 106b 10       		.byte	0x10
ARM GAS  /tmp/ccEshaLd.s 			page 53


 2965 106c 6601     		.2byte	0x166
 2966 106e 03       		.byte	0x3
 2967 106f 81100000 		.4byte	0x1081
 2968 1073 32       		.uleb128 0x32
 2969 1074 EF050000 		.4byte	.LASF130
 2970 1078 F00B0000 		.4byte	0xbf0
 2971 107c E2070000 		.4byte	.LASF143
 2972 1080 00       		.byte	0
 2973 1081 44       		.uleb128 0x44
 2974 1082 D2040000 		.4byte	.LASF148
 2975 1086 10       		.byte	0x10
 2976 1087 5A01     		.2byte	0x15a
 2977 1089 03       		.byte	0x3
 2978 108a 45       		.uleb128 0x45
 2979 108b B8010000 		.4byte	.LASF144
 2980 108f 02       		.byte	0x2
 2981 1090 A802     		.2byte	0x2a8
 2982 1092 85020000 		.4byte	0x285
 2983 1096 03       		.byte	0x3
 2984 1097 B3100000 		.4byte	0x10b3
 2985 109b 30       		.uleb128 0x30
 2986 109c 74717000 		.ascii	"tqp\000"
 2987 10a0 02       		.byte	0x2
 2988 10a1 A802     		.2byte	0x2a8
 2989 10a3 B3100000 		.4byte	0x10b3
 2990 10a7 2D       		.uleb128 0x2d
 2991 10a8 747000   		.ascii	"tp\000"
 2992 10ab 02       		.byte	0x2
 2993 10ac A902     		.2byte	0x2a9
 2994 10ae 85020000 		.4byte	0x285
 2995 10b2 00       		.byte	0
 2996 10b3 0A       		.uleb128 0xa
 2997 10b4 04       		.byte	0x4
 2998 10b5 AF020000 		.4byte	0x2af
 2999 10b9 45       		.uleb128 0x45
 3000 10ba EE060000 		.4byte	.LASF145
 3001 10be 02       		.byte	0x2
 3002 10bf 9F02     		.2byte	0x29f
 3003 10c1 85020000 		.4byte	0x285
 3004 10c5 03       		.byte	0x3
 3005 10c6 E2100000 		.4byte	0x10e2
 3006 10ca 30       		.uleb128 0x30
 3007 10cb 74717000 		.ascii	"tqp\000"
 3008 10cf 02       		.byte	0x2
 3009 10d0 9F02     		.2byte	0x29f
 3010 10d2 B3100000 		.4byte	0x10b3
 3011 10d6 2D       		.uleb128 0x2d
 3012 10d7 747000   		.ascii	"tp\000"
 3013 10da 02       		.byte	0x2
 3014 10db A002     		.2byte	0x2a0
 3015 10dd 85020000 		.4byte	0x285
 3016 10e1 00       		.byte	0
 3017 10e2 43       		.uleb128 0x43
 3018 10e3 1A000000 		.4byte	.LASF146
 3019 10e7 02       		.byte	0x2
 3020 10e8 9702     		.2byte	0x297
 3021 10ea 03       		.byte	0x3
ARM GAS  /tmp/ccEshaLd.s 			page 54


 3022 10eb 07110000 		.4byte	0x1107
 3023 10ef 30       		.uleb128 0x30
 3024 10f0 747000   		.ascii	"tp\000"
 3025 10f3 02       		.byte	0x2
 3026 10f4 9702     		.2byte	0x297
 3027 10f6 85020000 		.4byte	0x285
 3028 10fa 30       		.uleb128 0x30
 3029 10fb 74717000 		.ascii	"tqp\000"
 3030 10ff 02       		.byte	0x2
 3031 1100 9702     		.2byte	0x297
 3032 1102 B3100000 		.4byte	0x10b3
 3033 1106 00       		.byte	0
 3034 1107 43       		.uleb128 0x43
 3035 1108 7F000000 		.4byte	.LASF147
 3036 110c 02       		.byte	0x2
 3037 110d 5A02     		.2byte	0x25a
 3038 110f 03       		.byte	0x3
 3039 1110 21110000 		.4byte	0x1121
 3040 1114 30       		.uleb128 0x30
 3041 1115 74717000 		.ascii	"tqp\000"
 3042 1119 02       		.byte	0x2
 3043 111a 5A02     		.2byte	0x25a
 3044 111c B3100000 		.4byte	0x10b3
 3045 1120 00       		.byte	0
 3046 1121 44       		.uleb128 0x44
 3047 1122 AB020000 		.4byte	.LASF149
 3048 1126 0B       		.byte	0xb
 3049 1127 CA01     		.2byte	0x1ca
 3050 1129 03       		.byte	0x3
 3051 112a 44       		.uleb128 0x44
 3052 112b AE010000 		.4byte	.LASF150
 3053 112f 0B       		.byte	0xb
 3054 1130 BC01     		.2byte	0x1bc
 3055 1132 03       		.byte	0x3
 3056 1133 44       		.uleb128 0x44
 3057 1134 37050000 		.4byte	.LASF151
 3058 1138 03       		.byte	0x3
 3059 1139 5401     		.2byte	0x154
 3060 113b 03       		.byte	0x3
 3061 113c 44       		.uleb128 0x44
 3062 113d 1F050000 		.4byte	.LASF152
 3063 1141 03       		.byte	0x3
 3064 1142 4901     		.2byte	0x149
 3065 1144 03       		.byte	0x3
 3066 1145 46       		.uleb128 0x46
 3067 1146 760D0000 		.4byte	0xd76
 3068 114a 00000000 		.4byte	.LFB223
 3069 114e 34000000 		.4byte	.LFE223-.LFB223
 3070 1152 01       		.uleb128 0x1
 3071 1153 9C       		.byte	0x9c
 3072 1154 B8110000 		.4byte	0x11b8
 3073 1158 20       		.uleb128 0x20
 3074 1159 860D0000 		.4byte	0xd86
 3075 115d 3F050000 		.4byte	.LLST13
 3076 1161 39       		.uleb128 0x39
 3077 1162 760D0000 		.4byte	0xd76
 3078 1166 10000000 		.4byte	.LBB150
ARM GAS  /tmp/ccEshaLd.s 			page 55


 3079 116a 1C000000 		.4byte	.LBE150-.LBB150
 3080 116e 20       		.uleb128 0x20
 3081 116f 860D0000 		.4byte	0xd86
 3082 1173 84050000 		.4byte	.LLST14
 3083 1177 29       		.uleb128 0x29
 3084 1178 10000000 		.4byte	.LBB151
 3085 117c 1C000000 		.4byte	.LBE151-.LBB151
 3086 1180 38       		.uleb128 0x38
 3087 1181 E2100000 		.4byte	0x10e2
 3088 1185 12000000 		.4byte	.LBB152
 3089 1189 50000000 		.4byte	.Ldebug_ranges0+0x50
 3090 118d 01       		.byte	0x1
 3091 118e CF       		.byte	0xcf
 3092 118f A6110000 		.4byte	0x11a6
 3093 1193 20       		.uleb128 0x20
 3094 1194 FA100000 		.4byte	0x10fa
 3095 1198 A5050000 		.4byte	.LLST15
 3096 119c 20       		.uleb128 0x20
 3097 119d EF100000 		.4byte	0x10ef
 3098 11a1 B8050000 		.4byte	.LLST16
 3099 11a5 00       		.byte	0
 3100 11a6 21       		.uleb128 0x21
 3101 11a7 28000000 		.4byte	.LVL32
 3102 11ab 32120000 		.4byte	0x1232
 3103 11af 22       		.uleb128 0x22
 3104 11b0 01       		.uleb128 0x1
 3105 11b1 50       		.byte	0x50
 3106 11b2 01       		.uleb128 0x1
 3107 11b3 35       		.byte	0x35
 3108 11b4 00       		.byte	0
 3109 11b5 00       		.byte	0
 3110 11b6 00       		.byte	0
 3111 11b7 00       		.byte	0
 3112 11b8 46       		.uleb128 0x46
 3113 11b9 F50B0000 		.4byte	0xbf5
 3114 11bd 00000000 		.4byte	.LFB225
 3115 11c1 40000000 		.4byte	.LFE225-.LFB225
 3116 11c5 01       		.uleb128 0x1
 3117 11c6 9C       		.byte	0x9c
 3118 11c7 32120000 		.4byte	0x1232
 3119 11cb 20       		.uleb128 0x20
 3120 11cc 060C0000 		.4byte	0xc06
 3121 11d0 CB050000 		.4byte	.LLST24
 3122 11d4 20       		.uleb128 0x20
 3123 11d5 110C0000 		.4byte	0xc11
 3124 11d9 02060000 		.4byte	.LLST25
 3125 11dd 47       		.uleb128 0x47
 3126 11de F50B0000 		.4byte	0xbf5
 3127 11e2 C8000000 		.4byte	.Ldebug_ranges0+0xc8
 3128 11e6 3A       		.uleb128 0x3a
 3129 11e7 110C0000 		.4byte	0xc11
 3130 11eb 20       		.uleb128 0x20
 3131 11ec 060C0000 		.4byte	0xc06
 3132 11f0 2E060000 		.4byte	.LLST26
 3133 11f4 26       		.uleb128 0x26
 3134 11f5 C8000000 		.4byte	.Ldebug_ranges0+0xc8
 3135 11f9 1F       		.uleb128 0x1f
ARM GAS  /tmp/ccEshaLd.s 			page 56


 3136 11fa E2100000 		.4byte	0x10e2
 3137 11fe 16000000 		.4byte	.LBB207
 3138 1202 E0000000 		.4byte	.Ldebug_ranges0+0xe0
 3139 1206 01       		.byte	0x1
 3140 1207 1701     		.2byte	0x117
 3141 1209 20120000 		.4byte	0x1220
 3142 120d 20       		.uleb128 0x20
 3143 120e FA100000 		.4byte	0x10fa
 3144 1212 4F060000 		.4byte	.LLST27
 3145 1216 20       		.uleb128 0x20
 3146 1217 EF100000 		.4byte	0x10ef
 3147 121b 62060000 		.4byte	.LLST28
 3148 121f 00       		.byte	0
 3149 1220 48       		.uleb128 0x48
 3150 1221 2E000000 		.4byte	.LVL50
 3151 1225 62120000 		.4byte	0x1262
 3152 1229 22       		.uleb128 0x22
 3153 122a 01       		.uleb128 0x1
 3154 122b 50       		.byte	0x50
 3155 122c 01       		.uleb128 0x1
 3156 122d 35       		.byte	0x35
 3157 122e 00       		.byte	0
 3158 122f 00       		.byte	0
 3159 1230 00       		.byte	0
 3160 1231 00       		.byte	0
 3161 1232 49       		.uleb128 0x49
 3162 1233 4A060000 		.4byte	.LASF153
 3163 1237 4A060000 		.4byte	.LASF153
 3164 123b 02       		.byte	0x2
 3165 123c 1402     		.2byte	0x214
 3166 123e 49       		.uleb128 0x49
 3167 123f F7020000 		.4byte	.LASF154
 3168 1243 F7020000 		.4byte	.LASF154
 3169 1247 02       		.byte	0x2
 3170 1248 1702     		.2byte	0x217
 3171 124a 49       		.uleb128 0x49
 3172 124b 86060000 		.4byte	.LASF155
 3173 124f 86060000 		.4byte	.LASF155
 3174 1253 02       		.byte	0x2
 3175 1254 1302     		.2byte	0x213
 3176 1256 49       		.uleb128 0x49
 3177 1257 F9030000 		.4byte	.LASF156
 3178 125b F9030000 		.4byte	.LASF156
 3179 125f 02       		.byte	0x2
 3180 1260 1602     		.2byte	0x216
 3181 1262 49       		.uleb128 0x49
 3182 1263 CD070000 		.4byte	.LASF157
 3183 1267 CD070000 		.4byte	.LASF157
 3184 126b 02       		.byte	0x2
 3185 126c 1502     		.2byte	0x215
 3186 126e 00       		.byte	0
 3187              		.section	.debug_abbrev,"",%progbits
 3188              	.Ldebug_abbrev0:
 3189 0000 01       		.uleb128 0x1
 3190 0001 11       		.uleb128 0x11
 3191 0002 01       		.byte	0x1
 3192 0003 25       		.uleb128 0x25
ARM GAS  /tmp/ccEshaLd.s 			page 57


 3193 0004 0E       		.uleb128 0xe
 3194 0005 13       		.uleb128 0x13
 3195 0006 0B       		.uleb128 0xb
 3196 0007 03       		.uleb128 0x3
 3197 0008 0E       		.uleb128 0xe
 3198 0009 1B       		.uleb128 0x1b
 3199 000a 0E       		.uleb128 0xe
 3200 000b 55       		.uleb128 0x55
 3201 000c 17       		.uleb128 0x17
 3202 000d 11       		.uleb128 0x11
 3203 000e 01       		.uleb128 0x1
 3204 000f 10       		.uleb128 0x10
 3205 0010 17       		.uleb128 0x17
 3206 0011 00       		.byte	0
 3207 0012 00       		.byte	0
 3208 0013 02       		.uleb128 0x2
 3209 0014 24       		.uleb128 0x24
 3210 0015 00       		.byte	0
 3211 0016 0B       		.uleb128 0xb
 3212 0017 0B       		.uleb128 0xb
 3213 0018 3E       		.uleb128 0x3e
 3214 0019 0B       		.uleb128 0xb
 3215 001a 03       		.uleb128 0x3
 3216 001b 08       		.uleb128 0x8
 3217 001c 00       		.byte	0
 3218 001d 00       		.byte	0
 3219 001e 03       		.uleb128 0x3
 3220 001f 24       		.uleb128 0x24
 3221 0020 00       		.byte	0
 3222 0021 0B       		.uleb128 0xb
 3223 0022 0B       		.uleb128 0xb
 3224 0023 3E       		.uleb128 0x3e
 3225 0024 0B       		.uleb128 0xb
 3226 0025 03       		.uleb128 0x3
 3227 0026 0E       		.uleb128 0xe
 3228 0027 00       		.byte	0
 3229 0028 00       		.byte	0
 3230 0029 04       		.uleb128 0x4
 3231 002a 16       		.uleb128 0x16
 3232 002b 00       		.byte	0
 3233 002c 03       		.uleb128 0x3
 3234 002d 0E       		.uleb128 0xe
 3235 002e 3A       		.uleb128 0x3a
 3236 002f 0B       		.uleb128 0xb
 3237 0030 3B       		.uleb128 0x3b
 3238 0031 0B       		.uleb128 0xb
 3239 0032 49       		.uleb128 0x49
 3240 0033 13       		.uleb128 0x13
 3241 0034 00       		.byte	0
 3242 0035 00       		.byte	0
 3243 0036 05       		.uleb128 0x5
 3244 0037 35       		.uleb128 0x35
 3245 0038 00       		.byte	0
 3246 0039 49       		.uleb128 0x49
 3247 003a 13       		.uleb128 0x13
 3248 003b 00       		.byte	0
 3249 003c 00       		.byte	0
ARM GAS  /tmp/ccEshaLd.s 			page 58


 3250 003d 06       		.uleb128 0x6
 3251 003e 13       		.uleb128 0x13
 3252 003f 01       		.byte	0x1
 3253 0040 03       		.uleb128 0x3
 3254 0041 0E       		.uleb128 0xe
 3255 0042 0B       		.uleb128 0xb
 3256 0043 0B       		.uleb128 0xb
 3257 0044 3A       		.uleb128 0x3a
 3258 0045 0B       		.uleb128 0xb
 3259 0046 3B       		.uleb128 0x3b
 3260 0047 0B       		.uleb128 0xb
 3261 0048 01       		.uleb128 0x1
 3262 0049 13       		.uleb128 0x13
 3263 004a 00       		.byte	0
 3264 004b 00       		.byte	0
 3265 004c 07       		.uleb128 0x7
 3266 004d 0D       		.uleb128 0xd
 3267 004e 00       		.byte	0
 3268 004f 03       		.uleb128 0x3
 3269 0050 0E       		.uleb128 0xe
 3270 0051 3A       		.uleb128 0x3a
 3271 0052 0B       		.uleb128 0xb
 3272 0053 3B       		.uleb128 0x3b
 3273 0054 0B       		.uleb128 0xb
 3274 0055 49       		.uleb128 0x49
 3275 0056 13       		.uleb128 0x13
 3276 0057 38       		.uleb128 0x38
 3277 0058 0B       		.uleb128 0xb
 3278 0059 00       		.byte	0
 3279 005a 00       		.byte	0
 3280 005b 08       		.uleb128 0x8
 3281 005c 0D       		.uleb128 0xd
 3282 005d 00       		.byte	0
 3283 005e 03       		.uleb128 0x3
 3284 005f 08       		.uleb128 0x8
 3285 0060 3A       		.uleb128 0x3a
 3286 0061 0B       		.uleb128 0xb
 3287 0062 3B       		.uleb128 0x3b
 3288 0063 05       		.uleb128 0x5
 3289 0064 49       		.uleb128 0x49
 3290 0065 13       		.uleb128 0x13
 3291 0066 38       		.uleb128 0x38
 3292 0067 0B       		.uleb128 0xb
 3293 0068 00       		.byte	0
 3294 0069 00       		.byte	0
 3295 006a 09       		.uleb128 0x9
 3296 006b 0D       		.uleb128 0xd
 3297 006c 00       		.byte	0
 3298 006d 03       		.uleb128 0x3
 3299 006e 0E       		.uleb128 0xe
 3300 006f 3A       		.uleb128 0x3a
 3301 0070 0B       		.uleb128 0xb
 3302 0071 3B       		.uleb128 0x3b
 3303 0072 05       		.uleb128 0x5
 3304 0073 49       		.uleb128 0x49
 3305 0074 13       		.uleb128 0x13
 3306 0075 38       		.uleb128 0x38
ARM GAS  /tmp/ccEshaLd.s 			page 59


 3307 0076 0B       		.uleb128 0xb
 3308 0077 00       		.byte	0
 3309 0078 00       		.byte	0
 3310 0079 0A       		.uleb128 0xa
 3311 007a 0F       		.uleb128 0xf
 3312 007b 00       		.byte	0
 3313 007c 0B       		.uleb128 0xb
 3314 007d 0B       		.uleb128 0xb
 3315 007e 49       		.uleb128 0x49
 3316 007f 13       		.uleb128 0x13
 3317 0080 00       		.byte	0
 3318 0081 00       		.byte	0
 3319 0082 0B       		.uleb128 0xb
 3320 0083 13       		.uleb128 0x13
 3321 0084 01       		.byte	0x1
 3322 0085 03       		.uleb128 0x3
 3323 0086 0E       		.uleb128 0xe
 3324 0087 0B       		.uleb128 0xb
 3325 0088 0B       		.uleb128 0xb
 3326 0089 3A       		.uleb128 0x3a
 3327 008a 0B       		.uleb128 0xb
 3328 008b 3B       		.uleb128 0x3b
 3329 008c 05       		.uleb128 0x5
 3330 008d 01       		.uleb128 0x1
 3331 008e 13       		.uleb128 0x13
 3332 008f 00       		.byte	0
 3333 0090 00       		.byte	0
 3334 0091 0C       		.uleb128 0xc
 3335 0092 15       		.uleb128 0x15
 3336 0093 01       		.byte	0x1
 3337 0094 27       		.uleb128 0x27
 3338 0095 19       		.uleb128 0x19
 3339 0096 01       		.uleb128 0x1
 3340 0097 13       		.uleb128 0x13
 3341 0098 00       		.byte	0
 3342 0099 00       		.byte	0
 3343 009a 0D       		.uleb128 0xd
 3344 009b 05       		.uleb128 0x5
 3345 009c 00       		.byte	0
 3346 009d 49       		.uleb128 0x49
 3347 009e 13       		.uleb128 0x13
 3348 009f 00       		.byte	0
 3349 00a0 00       		.byte	0
 3350 00a1 0E       		.uleb128 0xe
 3351 00a2 0F       		.uleb128 0xf
 3352 00a3 00       		.byte	0
 3353 00a4 0B       		.uleb128 0xb
 3354 00a5 0B       		.uleb128 0xb
 3355 00a6 00       		.byte	0
 3356 00a7 00       		.byte	0
 3357 00a8 0F       		.uleb128 0xf
 3358 00a9 13       		.uleb128 0x13
 3359 00aa 01       		.byte	0x1
 3360 00ab 03       		.uleb128 0x3
 3361 00ac 0E       		.uleb128 0xe
 3362 00ad 0B       		.uleb128 0xb
 3363 00ae 05       		.uleb128 0x5
ARM GAS  /tmp/ccEshaLd.s 			page 60


 3364 00af 3A       		.uleb128 0x3a
 3365 00b0 0B       		.uleb128 0xb
 3366 00b1 3B       		.uleb128 0x3b
 3367 00b2 05       		.uleb128 0x5
 3368 00b3 01       		.uleb128 0x1
 3369 00b4 13       		.uleb128 0x13
 3370 00b5 00       		.byte	0
 3371 00b6 00       		.byte	0
 3372 00b7 10       		.uleb128 0x10
 3373 00b8 34       		.uleb128 0x34
 3374 00b9 00       		.byte	0
 3375 00ba 03       		.uleb128 0x3
 3376 00bb 0E       		.uleb128 0xe
 3377 00bc 3A       		.uleb128 0x3a
 3378 00bd 0B       		.uleb128 0xb
 3379 00be 3B       		.uleb128 0x3b
 3380 00bf 05       		.uleb128 0x5
 3381 00c0 49       		.uleb128 0x49
 3382 00c1 13       		.uleb128 0x13
 3383 00c2 3F       		.uleb128 0x3f
 3384 00c3 19       		.uleb128 0x19
 3385 00c4 3C       		.uleb128 0x3c
 3386 00c5 19       		.uleb128 0x19
 3387 00c6 00       		.byte	0
 3388 00c7 00       		.byte	0
 3389 00c8 11       		.uleb128 0x11
 3390 00c9 34       		.uleb128 0x34
 3391 00ca 00       		.byte	0
 3392 00cb 03       		.uleb128 0x3
 3393 00cc 0E       		.uleb128 0xe
 3394 00cd 3A       		.uleb128 0x3a
 3395 00ce 0B       		.uleb128 0xb
 3396 00cf 3B       		.uleb128 0x3b
 3397 00d0 0B       		.uleb128 0xb
 3398 00d1 49       		.uleb128 0x49
 3399 00d2 13       		.uleb128 0x13
 3400 00d3 3F       		.uleb128 0x3f
 3401 00d4 19       		.uleb128 0x19
 3402 00d5 3C       		.uleb128 0x3c
 3403 00d6 19       		.uleb128 0x19
 3404 00d7 00       		.byte	0
 3405 00d8 00       		.byte	0
 3406 00d9 12       		.uleb128 0x12
 3407 00da 0D       		.uleb128 0xd
 3408 00db 00       		.byte	0
 3409 00dc 03       		.uleb128 0x3
 3410 00dd 08       		.uleb128 0x8
 3411 00de 3A       		.uleb128 0x3a
 3412 00df 0B       		.uleb128 0xb
 3413 00e0 3B       		.uleb128 0x3b
 3414 00e1 0B       		.uleb128 0xb
 3415 00e2 49       		.uleb128 0x49
 3416 00e3 13       		.uleb128 0x13
 3417 00e4 38       		.uleb128 0x38
 3418 00e5 0B       		.uleb128 0xb
 3419 00e6 00       		.byte	0
 3420 00e7 00       		.byte	0
ARM GAS  /tmp/ccEshaLd.s 			page 61


 3421 00e8 13       		.uleb128 0x13
 3422 00e9 13       		.uleb128 0x13
 3423 00ea 01       		.byte	0x1
 3424 00eb 0B       		.uleb128 0xb
 3425 00ec 0B       		.uleb128 0xb
 3426 00ed 3A       		.uleb128 0x3a
 3427 00ee 0B       		.uleb128 0xb
 3428 00ef 3B       		.uleb128 0x3b
 3429 00f0 0B       		.uleb128 0xb
 3430 00f1 01       		.uleb128 0x1
 3431 00f2 13       		.uleb128 0x13
 3432 00f3 00       		.byte	0
 3433 00f4 00       		.byte	0
 3434 00f5 14       		.uleb128 0x14
 3435 00f6 17       		.uleb128 0x17
 3436 00f7 01       		.byte	0x1
 3437 00f8 0B       		.uleb128 0xb
 3438 00f9 0B       		.uleb128 0xb
 3439 00fa 3A       		.uleb128 0x3a
 3440 00fb 0B       		.uleb128 0xb
 3441 00fc 3B       		.uleb128 0x3b
 3442 00fd 0B       		.uleb128 0xb
 3443 00fe 01       		.uleb128 0x1
 3444 00ff 13       		.uleb128 0x13
 3445 0100 00       		.byte	0
 3446 0101 00       		.byte	0
 3447 0102 15       		.uleb128 0x15
 3448 0103 0D       		.uleb128 0xd
 3449 0104 00       		.byte	0
 3450 0105 03       		.uleb128 0x3
 3451 0106 0E       		.uleb128 0xe
 3452 0107 3A       		.uleb128 0x3a
 3453 0108 0B       		.uleb128 0xb
 3454 0109 3B       		.uleb128 0x3b
 3455 010a 05       		.uleb128 0x5
 3456 010b 49       		.uleb128 0x49
 3457 010c 13       		.uleb128 0x13
 3458 010d 00       		.byte	0
 3459 010e 00       		.byte	0
 3460 010f 16       		.uleb128 0x16
 3461 0110 26       		.uleb128 0x26
 3462 0111 00       		.byte	0
 3463 0112 49       		.uleb128 0x49
 3464 0113 13       		.uleb128 0x13
 3465 0114 00       		.byte	0
 3466 0115 00       		.byte	0
 3467 0116 17       		.uleb128 0x17
 3468 0117 01       		.uleb128 0x1
 3469 0118 01       		.byte	0x1
 3470 0119 49       		.uleb128 0x49
 3471 011a 13       		.uleb128 0x13
 3472 011b 01       		.uleb128 0x1
 3473 011c 13       		.uleb128 0x13
 3474 011d 00       		.byte	0
 3475 011e 00       		.byte	0
 3476 011f 18       		.uleb128 0x18
 3477 0120 21       		.uleb128 0x21
ARM GAS  /tmp/ccEshaLd.s 			page 62


 3478 0121 00       		.byte	0
 3479 0122 49       		.uleb128 0x49
 3480 0123 13       		.uleb128 0x13
 3481 0124 2F       		.uleb128 0x2f
 3482 0125 0B       		.uleb128 0xb
 3483 0126 00       		.byte	0
 3484 0127 00       		.byte	0
 3485 0128 19       		.uleb128 0x19
 3486 0129 34       		.uleb128 0x34
 3487 012a 00       		.byte	0
 3488 012b 03       		.uleb128 0x3
 3489 012c 08       		.uleb128 0x8
 3490 012d 3A       		.uleb128 0x3a
 3491 012e 0B       		.uleb128 0xb
 3492 012f 3B       		.uleb128 0x3b
 3493 0130 05       		.uleb128 0x5
 3494 0131 49       		.uleb128 0x49
 3495 0132 13       		.uleb128 0x13
 3496 0133 3F       		.uleb128 0x3f
 3497 0134 19       		.uleb128 0x19
 3498 0135 3C       		.uleb128 0x3c
 3499 0136 19       		.uleb128 0x19
 3500 0137 00       		.byte	0
 3501 0138 00       		.byte	0
 3502 0139 1A       		.uleb128 0x1a
 3503 013a 2E       		.uleb128 0x2e
 3504 013b 01       		.byte	0x1
 3505 013c 3F       		.uleb128 0x3f
 3506 013d 19       		.uleb128 0x19
 3507 013e 03       		.uleb128 0x3
 3508 013f 0E       		.uleb128 0xe
 3509 0140 3A       		.uleb128 0x3a
 3510 0141 0B       		.uleb128 0xb
 3511 0142 3B       		.uleb128 0x3b
 3512 0143 05       		.uleb128 0x5
 3513 0144 27       		.uleb128 0x27
 3514 0145 19       		.uleb128 0x19
 3515 0146 49       		.uleb128 0x49
 3516 0147 13       		.uleb128 0x13
 3517 0148 11       		.uleb128 0x11
 3518 0149 01       		.uleb128 0x1
 3519 014a 12       		.uleb128 0x12
 3520 014b 06       		.uleb128 0x6
 3521 014c 40       		.uleb128 0x40
 3522 014d 18       		.uleb128 0x18
 3523 014e 9742     		.uleb128 0x2117
 3524 0150 19       		.uleb128 0x19
 3525 0151 01       		.uleb128 0x1
 3526 0152 13       		.uleb128 0x13
 3527 0153 00       		.byte	0
 3528 0154 00       		.byte	0
 3529 0155 1B       		.uleb128 0x1b
 3530 0156 05       		.uleb128 0x5
 3531 0157 00       		.byte	0
 3532 0158 03       		.uleb128 0x3
 3533 0159 08       		.uleb128 0x8
 3534 015a 3A       		.uleb128 0x3a
ARM GAS  /tmp/ccEshaLd.s 			page 63


 3535 015b 0B       		.uleb128 0xb
 3536 015c 3B       		.uleb128 0x3b
 3537 015d 05       		.uleb128 0x5
 3538 015e 49       		.uleb128 0x49
 3539 015f 13       		.uleb128 0x13
 3540 0160 02       		.uleb128 0x2
 3541 0161 17       		.uleb128 0x17
 3542 0162 00       		.byte	0
 3543 0163 00       		.byte	0
 3544 0164 1C       		.uleb128 0x1c
 3545 0165 34       		.uleb128 0x34
 3546 0166 00       		.byte	0
 3547 0167 03       		.uleb128 0x3
 3548 0168 08       		.uleb128 0x8
 3549 0169 3A       		.uleb128 0x3a
 3550 016a 0B       		.uleb128 0xb
 3551 016b 3B       		.uleb128 0x3b
 3552 016c 05       		.uleb128 0x5
 3553 016d 49       		.uleb128 0x49
 3554 016e 13       		.uleb128 0x13
 3555 016f 02       		.uleb128 0x2
 3556 0170 17       		.uleb128 0x17
 3557 0171 00       		.byte	0
 3558 0172 00       		.byte	0
 3559 0173 1D       		.uleb128 0x1d
 3560 0174 34       		.uleb128 0x34
 3561 0175 00       		.byte	0
 3562 0176 03       		.uleb128 0x3
 3563 0177 0E       		.uleb128 0xe
 3564 0178 49       		.uleb128 0x49
 3565 0179 13       		.uleb128 0x13
 3566 017a 34       		.uleb128 0x34
 3567 017b 19       		.uleb128 0x19
 3568 017c 00       		.byte	0
 3569 017d 00       		.byte	0
 3570 017e 1E       		.uleb128 0x1e
 3571 017f 0B       		.uleb128 0xb
 3572 0180 01       		.byte	0x1
 3573 0181 11       		.uleb128 0x11
 3574 0182 01       		.uleb128 0x1
 3575 0183 12       		.uleb128 0x12
 3576 0184 06       		.uleb128 0x6
 3577 0185 01       		.uleb128 0x1
 3578 0186 13       		.uleb128 0x13
 3579 0187 00       		.byte	0
 3580 0188 00       		.byte	0
 3581 0189 1F       		.uleb128 0x1f
 3582 018a 1D       		.uleb128 0x1d
 3583 018b 01       		.byte	0x1
 3584 018c 31       		.uleb128 0x31
 3585 018d 13       		.uleb128 0x13
 3586 018e 52       		.uleb128 0x52
 3587 018f 01       		.uleb128 0x1
 3588 0190 55       		.uleb128 0x55
 3589 0191 17       		.uleb128 0x17
 3590 0192 58       		.uleb128 0x58
 3591 0193 0B       		.uleb128 0xb
ARM GAS  /tmp/ccEshaLd.s 			page 64


 3592 0194 59       		.uleb128 0x59
 3593 0195 05       		.uleb128 0x5
 3594 0196 01       		.uleb128 0x1
 3595 0197 13       		.uleb128 0x13
 3596 0198 00       		.byte	0
 3597 0199 00       		.byte	0
 3598 019a 20       		.uleb128 0x20
 3599 019b 05       		.uleb128 0x5
 3600 019c 00       		.byte	0
 3601 019d 31       		.uleb128 0x31
 3602 019e 13       		.uleb128 0x13
 3603 019f 02       		.uleb128 0x2
 3604 01a0 17       		.uleb128 0x17
 3605 01a1 00       		.byte	0
 3606 01a2 00       		.byte	0
 3607 01a3 21       		.uleb128 0x21
 3608 01a4 898201   		.uleb128 0x4109
 3609 01a7 01       		.byte	0x1
 3610 01a8 11       		.uleb128 0x11
 3611 01a9 01       		.uleb128 0x1
 3612 01aa 31       		.uleb128 0x31
 3613 01ab 13       		.uleb128 0x13
 3614 01ac 00       		.byte	0
 3615 01ad 00       		.byte	0
 3616 01ae 22       		.uleb128 0x22
 3617 01af 8A8201   		.uleb128 0x410a
 3618 01b2 00       		.byte	0
 3619 01b3 02       		.uleb128 0x2
 3620 01b4 18       		.uleb128 0x18
 3621 01b5 9142     		.uleb128 0x2111
 3622 01b7 18       		.uleb128 0x18
 3623 01b8 00       		.byte	0
 3624 01b9 00       		.byte	0
 3625 01ba 23       		.uleb128 0x23
 3626 01bb 1D       		.uleb128 0x1d
 3627 01bc 01       		.byte	0x1
 3628 01bd 31       		.uleb128 0x31
 3629 01be 13       		.uleb128 0x13
 3630 01bf 11       		.uleb128 0x11
 3631 01c0 01       		.uleb128 0x1
 3632 01c1 12       		.uleb128 0x12
 3633 01c2 06       		.uleb128 0x6
 3634 01c3 58       		.uleb128 0x58
 3635 01c4 0B       		.uleb128 0xb
 3636 01c5 59       		.uleb128 0x59
 3637 01c6 05       		.uleb128 0x5
 3638 01c7 01       		.uleb128 0x1
 3639 01c8 13       		.uleb128 0x13
 3640 01c9 00       		.byte	0
 3641 01ca 00       		.byte	0
 3642 01cb 24       		.uleb128 0x24
 3643 01cc 1D       		.uleb128 0x1d
 3644 01cd 01       		.byte	0x1
 3645 01ce 31       		.uleb128 0x31
 3646 01cf 13       		.uleb128 0x13
 3647 01d0 11       		.uleb128 0x11
 3648 01d1 01       		.uleb128 0x1
ARM GAS  /tmp/ccEshaLd.s 			page 65


 3649 01d2 12       		.uleb128 0x12
 3650 01d3 06       		.uleb128 0x6
 3651 01d4 58       		.uleb128 0x58
 3652 01d5 0B       		.uleb128 0xb
 3653 01d6 59       		.uleb128 0x59
 3654 01d7 05       		.uleb128 0x5
 3655 01d8 00       		.byte	0
 3656 01d9 00       		.byte	0
 3657 01da 25       		.uleb128 0x25
 3658 01db 1D       		.uleb128 0x1d
 3659 01dc 00       		.byte	0
 3660 01dd 31       		.uleb128 0x31
 3661 01de 13       		.uleb128 0x13
 3662 01df 11       		.uleb128 0x11
 3663 01e0 01       		.uleb128 0x1
 3664 01e1 12       		.uleb128 0x12
 3665 01e2 06       		.uleb128 0x6
 3666 01e3 58       		.uleb128 0x58
 3667 01e4 0B       		.uleb128 0xb
 3668 01e5 59       		.uleb128 0x59
 3669 01e6 05       		.uleb128 0x5
 3670 01e7 00       		.byte	0
 3671 01e8 00       		.byte	0
 3672 01e9 26       		.uleb128 0x26
 3673 01ea 0B       		.uleb128 0xb
 3674 01eb 01       		.byte	0x1
 3675 01ec 55       		.uleb128 0x55
 3676 01ed 17       		.uleb128 0x17
 3677 01ee 00       		.byte	0
 3678 01ef 00       		.byte	0
 3679 01f0 27       		.uleb128 0x27
 3680 01f1 1D       		.uleb128 0x1d
 3681 01f2 01       		.byte	0x1
 3682 01f3 31       		.uleb128 0x31
 3683 01f4 13       		.uleb128 0x13
 3684 01f5 52       		.uleb128 0x52
 3685 01f6 01       		.uleb128 0x1
 3686 01f7 55       		.uleb128 0x55
 3687 01f8 17       		.uleb128 0x17
 3688 01f9 58       		.uleb128 0x58
 3689 01fa 0B       		.uleb128 0xb
 3690 01fb 59       		.uleb128 0x59
 3691 01fc 05       		.uleb128 0x5
 3692 01fd 00       		.byte	0
 3693 01fe 00       		.byte	0
 3694 01ff 28       		.uleb128 0x28
 3695 0200 1D       		.uleb128 0x1d
 3696 0201 00       		.byte	0
 3697 0202 31       		.uleb128 0x31
 3698 0203 13       		.uleb128 0x13
 3699 0204 52       		.uleb128 0x52
 3700 0205 01       		.uleb128 0x1
 3701 0206 55       		.uleb128 0x55
 3702 0207 17       		.uleb128 0x17
 3703 0208 58       		.uleb128 0x58
 3704 0209 0B       		.uleb128 0xb
 3705 020a 59       		.uleb128 0x59
ARM GAS  /tmp/ccEshaLd.s 			page 66


 3706 020b 05       		.uleb128 0x5
 3707 020c 00       		.byte	0
 3708 020d 00       		.byte	0
 3709 020e 29       		.uleb128 0x29
 3710 020f 0B       		.uleb128 0xb
 3711 0210 01       		.byte	0x1
 3712 0211 11       		.uleb128 0x11
 3713 0212 01       		.uleb128 0x1
 3714 0213 12       		.uleb128 0x12
 3715 0214 06       		.uleb128 0x6
 3716 0215 00       		.byte	0
 3717 0216 00       		.byte	0
 3718 0217 2A       		.uleb128 0x2a
 3719 0218 34       		.uleb128 0x34
 3720 0219 00       		.byte	0
 3721 021a 31       		.uleb128 0x31
 3722 021b 13       		.uleb128 0x13
 3723 021c 02       		.uleb128 0x2
 3724 021d 17       		.uleb128 0x17
 3725 021e 00       		.byte	0
 3726 021f 00       		.byte	0
 3727 0220 2B       		.uleb128 0x2b
 3728 0221 898201   		.uleb128 0x4109
 3729 0224 00       		.byte	0
 3730 0225 11       		.uleb128 0x11
 3731 0226 01       		.uleb128 0x1
 3732 0227 31       		.uleb128 0x31
 3733 0228 13       		.uleb128 0x13
 3734 0229 00       		.byte	0
 3735 022a 00       		.byte	0
 3736 022b 2C       		.uleb128 0x2c
 3737 022c 2E       		.uleb128 0x2e
 3738 022d 01       		.byte	0x1
 3739 022e 3F       		.uleb128 0x3f
 3740 022f 19       		.uleb128 0x19
 3741 0230 03       		.uleb128 0x3
 3742 0231 0E       		.uleb128 0xe
 3743 0232 3A       		.uleb128 0x3a
 3744 0233 0B       		.uleb128 0xb
 3745 0234 3B       		.uleb128 0x3b
 3746 0235 05       		.uleb128 0x5
 3747 0236 27       		.uleb128 0x27
 3748 0237 19       		.uleb128 0x19
 3749 0238 11       		.uleb128 0x11
 3750 0239 01       		.uleb128 0x1
 3751 023a 12       		.uleb128 0x12
 3752 023b 06       		.uleb128 0x6
 3753 023c 40       		.uleb128 0x40
 3754 023d 18       		.uleb128 0x18
 3755 023e 9742     		.uleb128 0x2117
 3756 0240 19       		.uleb128 0x19
 3757 0241 01       		.uleb128 0x1
 3758 0242 13       		.uleb128 0x13
 3759 0243 00       		.byte	0
 3760 0244 00       		.byte	0
 3761 0245 2D       		.uleb128 0x2d
 3762 0246 34       		.uleb128 0x34
ARM GAS  /tmp/ccEshaLd.s 			page 67


 3763 0247 00       		.byte	0
 3764 0248 03       		.uleb128 0x3
 3765 0249 08       		.uleb128 0x8
 3766 024a 3A       		.uleb128 0x3a
 3767 024b 0B       		.uleb128 0xb
 3768 024c 3B       		.uleb128 0x3b
 3769 024d 05       		.uleb128 0x5
 3770 024e 49       		.uleb128 0x49
 3771 024f 13       		.uleb128 0x13
 3772 0250 00       		.byte	0
 3773 0251 00       		.byte	0
 3774 0252 2E       		.uleb128 0x2e
 3775 0253 898201   		.uleb128 0x4109
 3776 0256 00       		.byte	0
 3777 0257 11       		.uleb128 0x11
 3778 0258 01       		.uleb128 0x1
 3779 0259 9542     		.uleb128 0x2115
 3780 025b 19       		.uleb128 0x19
 3781 025c 31       		.uleb128 0x31
 3782 025d 13       		.uleb128 0x13
 3783 025e 00       		.byte	0
 3784 025f 00       		.byte	0
 3785 0260 2F       		.uleb128 0x2f
 3786 0261 2E       		.uleb128 0x2e
 3787 0262 01       		.byte	0x1
 3788 0263 3F       		.uleb128 0x3f
 3789 0264 19       		.uleb128 0x19
 3790 0265 03       		.uleb128 0x3
 3791 0266 0E       		.uleb128 0xe
 3792 0267 3A       		.uleb128 0x3a
 3793 0268 0B       		.uleb128 0xb
 3794 0269 3B       		.uleb128 0x3b
 3795 026a 05       		.uleb128 0x5
 3796 026b 27       		.uleb128 0x27
 3797 026c 19       		.uleb128 0x19
 3798 026d 49       		.uleb128 0x49
 3799 026e 13       		.uleb128 0x13
 3800 026f 20       		.uleb128 0x20
 3801 0270 0B       		.uleb128 0xb
 3802 0271 01       		.uleb128 0x1
 3803 0272 13       		.uleb128 0x13
 3804 0273 00       		.byte	0
 3805 0274 00       		.byte	0
 3806 0275 30       		.uleb128 0x30
 3807 0276 05       		.uleb128 0x5
 3808 0277 00       		.byte	0
 3809 0278 03       		.uleb128 0x3
 3810 0279 08       		.uleb128 0x8
 3811 027a 3A       		.uleb128 0x3a
 3812 027b 0B       		.uleb128 0xb
 3813 027c 3B       		.uleb128 0x3b
 3814 027d 05       		.uleb128 0x5
 3815 027e 49       		.uleb128 0x49
 3816 027f 13       		.uleb128 0x13
 3817 0280 00       		.byte	0
 3818 0281 00       		.byte	0
 3819 0282 31       		.uleb128 0x31
ARM GAS  /tmp/ccEshaLd.s 			page 68


 3820 0283 05       		.uleb128 0x5
 3821 0284 00       		.byte	0
 3822 0285 03       		.uleb128 0x3
 3823 0286 0E       		.uleb128 0xe
 3824 0287 3A       		.uleb128 0x3a
 3825 0288 0B       		.uleb128 0xb
 3826 0289 3B       		.uleb128 0x3b
 3827 028a 05       		.uleb128 0x5
 3828 028b 49       		.uleb128 0x49
 3829 028c 13       		.uleb128 0x13
 3830 028d 00       		.byte	0
 3831 028e 00       		.byte	0
 3832 028f 32       		.uleb128 0x32
 3833 0290 34       		.uleb128 0x34
 3834 0291 00       		.byte	0
 3835 0292 03       		.uleb128 0x3
 3836 0293 0E       		.uleb128 0xe
 3837 0294 49       		.uleb128 0x49
 3838 0295 13       		.uleb128 0x13
 3839 0296 34       		.uleb128 0x34
 3840 0297 19       		.uleb128 0x19
 3841 0298 1C       		.uleb128 0x1c
 3842 0299 0E       		.uleb128 0xe
 3843 029a 00       		.byte	0
 3844 029b 00       		.byte	0
 3845 029c 33       		.uleb128 0x33
 3846 029d 2E       		.uleb128 0x2e
 3847 029e 01       		.byte	0x1
 3848 029f 3F       		.uleb128 0x3f
 3849 02a0 19       		.uleb128 0x19
 3850 02a1 03       		.uleb128 0x3
 3851 02a2 0E       		.uleb128 0xe
 3852 02a3 3A       		.uleb128 0x3a
 3853 02a4 0B       		.uleb128 0xb
 3854 02a5 3B       		.uleb128 0x3b
 3855 02a6 0B       		.uleb128 0xb
 3856 02a7 27       		.uleb128 0x27
 3857 02a8 19       		.uleb128 0x19
 3858 02a9 49       		.uleb128 0x49
 3859 02aa 13       		.uleb128 0x13
 3860 02ab 11       		.uleb128 0x11
 3861 02ac 01       		.uleb128 0x1
 3862 02ad 12       		.uleb128 0x12
 3863 02ae 06       		.uleb128 0x6
 3864 02af 40       		.uleb128 0x40
 3865 02b0 18       		.uleb128 0x18
 3866 02b1 9742     		.uleb128 0x2117
 3867 02b3 19       		.uleb128 0x19
 3868 02b4 01       		.uleb128 0x1
 3869 02b5 13       		.uleb128 0x13
 3870 02b6 00       		.byte	0
 3871 02b7 00       		.byte	0
 3872 02b8 34       		.uleb128 0x34
 3873 02b9 05       		.uleb128 0x5
 3874 02ba 00       		.byte	0
 3875 02bb 03       		.uleb128 0x3
 3876 02bc 08       		.uleb128 0x8
ARM GAS  /tmp/ccEshaLd.s 			page 69


 3877 02bd 3A       		.uleb128 0x3a
 3878 02be 0B       		.uleb128 0xb
 3879 02bf 3B       		.uleb128 0x3b
 3880 02c0 0B       		.uleb128 0xb
 3881 02c1 49       		.uleb128 0x49
 3882 02c2 13       		.uleb128 0x13
 3883 02c3 02       		.uleb128 0x2
 3884 02c4 17       		.uleb128 0x17
 3885 02c5 00       		.byte	0
 3886 02c6 00       		.byte	0
 3887 02c7 35       		.uleb128 0x35
 3888 02c8 05       		.uleb128 0x5
 3889 02c9 00       		.byte	0
 3890 02ca 03       		.uleb128 0x3
 3891 02cb 0E       		.uleb128 0xe
 3892 02cc 3A       		.uleb128 0x3a
 3893 02cd 0B       		.uleb128 0xb
 3894 02ce 3B       		.uleb128 0x3b
 3895 02cf 0B       		.uleb128 0xb
 3896 02d0 49       		.uleb128 0x49
 3897 02d1 13       		.uleb128 0x13
 3898 02d2 02       		.uleb128 0x2
 3899 02d3 17       		.uleb128 0x17
 3900 02d4 00       		.byte	0
 3901 02d5 00       		.byte	0
 3902 02d6 36       		.uleb128 0x36
 3903 02d7 34       		.uleb128 0x34
 3904 02d8 00       		.byte	0
 3905 02d9 03       		.uleb128 0x3
 3906 02da 08       		.uleb128 0x8
 3907 02db 3A       		.uleb128 0x3a
 3908 02dc 0B       		.uleb128 0xb
 3909 02dd 3B       		.uleb128 0x3b
 3910 02de 0B       		.uleb128 0xb
 3911 02df 49       		.uleb128 0x49
 3912 02e0 13       		.uleb128 0x13
 3913 02e1 00       		.byte	0
 3914 02e2 00       		.byte	0
 3915 02e3 37       		.uleb128 0x37
 3916 02e4 1D       		.uleb128 0x1d
 3917 02e5 01       		.byte	0x1
 3918 02e6 31       		.uleb128 0x31
 3919 02e7 13       		.uleb128 0x13
 3920 02e8 11       		.uleb128 0x11
 3921 02e9 01       		.uleb128 0x1
 3922 02ea 12       		.uleb128 0x12
 3923 02eb 06       		.uleb128 0x6
 3924 02ec 58       		.uleb128 0x58
 3925 02ed 0B       		.uleb128 0xb
 3926 02ee 59       		.uleb128 0x59
 3927 02ef 0B       		.uleb128 0xb
 3928 02f0 01       		.uleb128 0x1
 3929 02f1 13       		.uleb128 0x13
 3930 02f2 00       		.byte	0
 3931 02f3 00       		.byte	0
 3932 02f4 38       		.uleb128 0x38
 3933 02f5 1D       		.uleb128 0x1d
ARM GAS  /tmp/ccEshaLd.s 			page 70


 3934 02f6 01       		.byte	0x1
 3935 02f7 31       		.uleb128 0x31
 3936 02f8 13       		.uleb128 0x13
 3937 02f9 52       		.uleb128 0x52
 3938 02fa 01       		.uleb128 0x1
 3939 02fb 55       		.uleb128 0x55
 3940 02fc 17       		.uleb128 0x17
 3941 02fd 58       		.uleb128 0x58
 3942 02fe 0B       		.uleb128 0xb
 3943 02ff 59       		.uleb128 0x59
 3944 0300 0B       		.uleb128 0xb
 3945 0301 01       		.uleb128 0x1
 3946 0302 13       		.uleb128 0x13
 3947 0303 00       		.byte	0
 3948 0304 00       		.byte	0
 3949 0305 39       		.uleb128 0x39
 3950 0306 0B       		.uleb128 0xb
 3951 0307 01       		.byte	0x1
 3952 0308 31       		.uleb128 0x31
 3953 0309 13       		.uleb128 0x13
 3954 030a 11       		.uleb128 0x11
 3955 030b 01       		.uleb128 0x1
 3956 030c 12       		.uleb128 0x12
 3957 030d 06       		.uleb128 0x6
 3958 030e 00       		.byte	0
 3959 030f 00       		.byte	0
 3960 0310 3A       		.uleb128 0x3a
 3961 0311 05       		.uleb128 0x5
 3962 0312 00       		.byte	0
 3963 0313 31       		.uleb128 0x31
 3964 0314 13       		.uleb128 0x13
 3965 0315 00       		.byte	0
 3966 0316 00       		.byte	0
 3967 0317 3B       		.uleb128 0x3b
 3968 0318 1D       		.uleb128 0x1d
 3969 0319 01       		.byte	0x1
 3970 031a 31       		.uleb128 0x31
 3971 031b 13       		.uleb128 0x13
 3972 031c 52       		.uleb128 0x52
 3973 031d 01       		.uleb128 0x1
 3974 031e 55       		.uleb128 0x55
 3975 031f 17       		.uleb128 0x17
 3976 0320 58       		.uleb128 0x58
 3977 0321 0B       		.uleb128 0xb
 3978 0322 59       		.uleb128 0x59
 3979 0323 0B       		.uleb128 0xb
 3980 0324 00       		.byte	0
 3981 0325 00       		.byte	0
 3982 0326 3C       		.uleb128 0x3c
 3983 0327 2E       		.uleb128 0x2e
 3984 0328 01       		.byte	0x1
 3985 0329 3F       		.uleb128 0x3f
 3986 032a 19       		.uleb128 0x19
 3987 032b 03       		.uleb128 0x3
 3988 032c 0E       		.uleb128 0xe
 3989 032d 3A       		.uleb128 0x3a
 3990 032e 0B       		.uleb128 0xb
ARM GAS  /tmp/ccEshaLd.s 			page 71


 3991 032f 3B       		.uleb128 0x3b
 3992 0330 0B       		.uleb128 0xb
 3993 0331 27       		.uleb128 0x27
 3994 0332 19       		.uleb128 0x19
 3995 0333 49       		.uleb128 0x49
 3996 0334 13       		.uleb128 0x13
 3997 0335 20       		.uleb128 0x20
 3998 0336 0B       		.uleb128 0xb
 3999 0337 01       		.uleb128 0x1
 4000 0338 13       		.uleb128 0x13
 4001 0339 00       		.byte	0
 4002 033a 00       		.byte	0
 4003 033b 3D       		.uleb128 0x3d
 4004 033c 05       		.uleb128 0x5
 4005 033d 00       		.byte	0
 4006 033e 03       		.uleb128 0x3
 4007 033f 08       		.uleb128 0x8
 4008 0340 3A       		.uleb128 0x3a
 4009 0341 0B       		.uleb128 0xb
 4010 0342 3B       		.uleb128 0x3b
 4011 0343 0B       		.uleb128 0xb
 4012 0344 49       		.uleb128 0x49
 4013 0345 13       		.uleb128 0x13
 4014 0346 00       		.byte	0
 4015 0347 00       		.byte	0
 4016 0348 3E       		.uleb128 0x3e
 4017 0349 2E       		.uleb128 0x2e
 4018 034a 01       		.byte	0x1
 4019 034b 3F       		.uleb128 0x3f
 4020 034c 19       		.uleb128 0x19
 4021 034d 03       		.uleb128 0x3
 4022 034e 0E       		.uleb128 0xe
 4023 034f 3A       		.uleb128 0x3a
 4024 0350 0B       		.uleb128 0xb
 4025 0351 3B       		.uleb128 0x3b
 4026 0352 0B       		.uleb128 0xb
 4027 0353 27       		.uleb128 0x27
 4028 0354 19       		.uleb128 0x19
 4029 0355 11       		.uleb128 0x11
 4030 0356 01       		.uleb128 0x1
 4031 0357 12       		.uleb128 0x12
 4032 0358 06       		.uleb128 0x6
 4033 0359 40       		.uleb128 0x40
 4034 035a 18       		.uleb128 0x18
 4035 035b 9742     		.uleb128 0x2117
 4036 035d 19       		.uleb128 0x19
 4037 035e 01       		.uleb128 0x1
 4038 035f 13       		.uleb128 0x13
 4039 0360 00       		.byte	0
 4040 0361 00       		.byte	0
 4041 0362 3F       		.uleb128 0x3f
 4042 0363 34       		.uleb128 0x34
 4043 0364 00       		.byte	0
 4044 0365 03       		.uleb128 0x3
 4045 0366 08       		.uleb128 0x8
 4046 0367 3A       		.uleb128 0x3a
 4047 0368 0B       		.uleb128 0xb
ARM GAS  /tmp/ccEshaLd.s 			page 72


 4048 0369 3B       		.uleb128 0x3b
 4049 036a 0B       		.uleb128 0xb
 4050 036b 49       		.uleb128 0x49
 4051 036c 13       		.uleb128 0x13
 4052 036d 02       		.uleb128 0x2
 4053 036e 17       		.uleb128 0x17
 4054 036f 00       		.byte	0
 4055 0370 00       		.byte	0
 4056 0371 40       		.uleb128 0x40
 4057 0372 898201   		.uleb128 0x4109
 4058 0375 01       		.byte	0x1
 4059 0376 11       		.uleb128 0x11
 4060 0377 01       		.uleb128 0x1
 4061 0378 31       		.uleb128 0x31
 4062 0379 13       		.uleb128 0x13
 4063 037a 01       		.uleb128 0x1
 4064 037b 13       		.uleb128 0x13
 4065 037c 00       		.byte	0
 4066 037d 00       		.byte	0
 4067 037e 41       		.uleb128 0x41
 4068 037f 05       		.uleb128 0x5
 4069 0380 00       		.byte	0
 4070 0381 03       		.uleb128 0x3
 4071 0382 08       		.uleb128 0x8
 4072 0383 3A       		.uleb128 0x3a
 4073 0384 0B       		.uleb128 0xb
 4074 0385 3B       		.uleb128 0x3b
 4075 0386 0B       		.uleb128 0xb
 4076 0387 49       		.uleb128 0x49
 4077 0388 13       		.uleb128 0x13
 4078 0389 02       		.uleb128 0x2
 4079 038a 18       		.uleb128 0x18
 4080 038b 00       		.byte	0
 4081 038c 00       		.byte	0
 4082 038d 42       		.uleb128 0x42
 4083 038e 1D       		.uleb128 0x1d
 4084 038f 01       		.byte	0x1
 4085 0390 31       		.uleb128 0x31
 4086 0391 13       		.uleb128 0x13
 4087 0392 11       		.uleb128 0x11
 4088 0393 01       		.uleb128 0x1
 4089 0394 12       		.uleb128 0x12
 4090 0395 06       		.uleb128 0x6
 4091 0396 58       		.uleb128 0x58
 4092 0397 0B       		.uleb128 0xb
 4093 0398 59       		.uleb128 0x59
 4094 0399 0B       		.uleb128 0xb
 4095 039a 00       		.byte	0
 4096 039b 00       		.byte	0
 4097 039c 43       		.uleb128 0x43
 4098 039d 2E       		.uleb128 0x2e
 4099 039e 01       		.byte	0x1
 4100 039f 03       		.uleb128 0x3
 4101 03a0 0E       		.uleb128 0xe
 4102 03a1 3A       		.uleb128 0x3a
 4103 03a2 0B       		.uleb128 0xb
 4104 03a3 3B       		.uleb128 0x3b
ARM GAS  /tmp/ccEshaLd.s 			page 73


 4105 03a4 05       		.uleb128 0x5
 4106 03a5 27       		.uleb128 0x27
 4107 03a6 19       		.uleb128 0x19
 4108 03a7 20       		.uleb128 0x20
 4109 03a8 0B       		.uleb128 0xb
 4110 03a9 01       		.uleb128 0x1
 4111 03aa 13       		.uleb128 0x13
 4112 03ab 00       		.byte	0
 4113 03ac 00       		.byte	0
 4114 03ad 44       		.uleb128 0x44
 4115 03ae 2E       		.uleb128 0x2e
 4116 03af 00       		.byte	0
 4117 03b0 03       		.uleb128 0x3
 4118 03b1 0E       		.uleb128 0xe
 4119 03b2 3A       		.uleb128 0x3a
 4120 03b3 0B       		.uleb128 0xb
 4121 03b4 3B       		.uleb128 0x3b
 4122 03b5 05       		.uleb128 0x5
 4123 03b6 27       		.uleb128 0x27
 4124 03b7 19       		.uleb128 0x19
 4125 03b8 20       		.uleb128 0x20
 4126 03b9 0B       		.uleb128 0xb
 4127 03ba 00       		.byte	0
 4128 03bb 00       		.byte	0
 4129 03bc 45       		.uleb128 0x45
 4130 03bd 2E       		.uleb128 0x2e
 4131 03be 01       		.byte	0x1
 4132 03bf 03       		.uleb128 0x3
 4133 03c0 0E       		.uleb128 0xe
 4134 03c1 3A       		.uleb128 0x3a
 4135 03c2 0B       		.uleb128 0xb
 4136 03c3 3B       		.uleb128 0x3b
 4137 03c4 05       		.uleb128 0x5
 4138 03c5 27       		.uleb128 0x27
 4139 03c6 19       		.uleb128 0x19
 4140 03c7 49       		.uleb128 0x49
 4141 03c8 13       		.uleb128 0x13
 4142 03c9 20       		.uleb128 0x20
 4143 03ca 0B       		.uleb128 0xb
 4144 03cb 01       		.uleb128 0x1
 4145 03cc 13       		.uleb128 0x13
 4146 03cd 00       		.byte	0
 4147 03ce 00       		.byte	0
 4148 03cf 46       		.uleb128 0x46
 4149 03d0 2E       		.uleb128 0x2e
 4150 03d1 01       		.byte	0x1
 4151 03d2 31       		.uleb128 0x31
 4152 03d3 13       		.uleb128 0x13
 4153 03d4 11       		.uleb128 0x11
 4154 03d5 01       		.uleb128 0x1
 4155 03d6 12       		.uleb128 0x12
 4156 03d7 06       		.uleb128 0x6
 4157 03d8 40       		.uleb128 0x40
 4158 03d9 18       		.uleb128 0x18
 4159 03da 9742     		.uleb128 0x2117
 4160 03dc 19       		.uleb128 0x19
 4161 03dd 01       		.uleb128 0x1
ARM GAS  /tmp/ccEshaLd.s 			page 74


 4162 03de 13       		.uleb128 0x13
 4163 03df 00       		.byte	0
 4164 03e0 00       		.byte	0
 4165 03e1 47       		.uleb128 0x47
 4166 03e2 0B       		.uleb128 0xb
 4167 03e3 01       		.byte	0x1
 4168 03e4 31       		.uleb128 0x31
 4169 03e5 13       		.uleb128 0x13
 4170 03e6 55       		.uleb128 0x55
 4171 03e7 17       		.uleb128 0x17
 4172 03e8 00       		.byte	0
 4173 03e9 00       		.byte	0
 4174 03ea 48       		.uleb128 0x48
 4175 03eb 898201   		.uleb128 0x4109
 4176 03ee 01       		.byte	0x1
 4177 03ef 11       		.uleb128 0x11
 4178 03f0 01       		.uleb128 0x1
 4179 03f1 9542     		.uleb128 0x2115
 4180 03f3 19       		.uleb128 0x19
 4181 03f4 31       		.uleb128 0x31
 4182 03f5 13       		.uleb128 0x13
 4183 03f6 00       		.byte	0
 4184 03f7 00       		.byte	0
 4185 03f8 49       		.uleb128 0x49
 4186 03f9 2E       		.uleb128 0x2e
 4187 03fa 00       		.byte	0
 4188 03fb 3F       		.uleb128 0x3f
 4189 03fc 19       		.uleb128 0x19
 4190 03fd 3C       		.uleb128 0x3c
 4191 03fe 19       		.uleb128 0x19
 4192 03ff 6E       		.uleb128 0x6e
 4193 0400 0E       		.uleb128 0xe
 4194 0401 03       		.uleb128 0x3
 4195 0402 0E       		.uleb128 0xe
 4196 0403 3A       		.uleb128 0x3a
 4197 0404 0B       		.uleb128 0xb
 4198 0405 3B       		.uleb128 0x3b
 4199 0406 05       		.uleb128 0x5
 4200 0407 00       		.byte	0
 4201 0408 00       		.byte	0
 4202 0409 00       		.byte	0
 4203              		.section	.debug_loc,"",%progbits
 4204              	.Ldebug_loc0:
 4205              	.LLST39:
 4206 0000 00000000 		.4byte	.LVL73
 4207 0004 10000000 		.4byte	.LVL74
 4208 0008 0100     		.2byte	0x1
 4209 000a 50       		.byte	0x50
 4210 000b 10000000 		.4byte	.LVL74
 4211 000f 40000000 		.4byte	.LVL82
 4212 0013 0400     		.2byte	0x4
 4213 0015 F3       		.byte	0xf3
 4214 0016 01       		.uleb128 0x1
 4215 0017 50       		.byte	0x50
 4216 0018 9F       		.byte	0x9f
 4217 0019 40000000 		.4byte	.LVL82
 4218 001d 44000000 		.4byte	.LVL84
ARM GAS  /tmp/ccEshaLd.s 			page 75


 4219 0021 0100     		.2byte	0x1
 4220 0023 50       		.byte	0x50
 4221 0024 44000000 		.4byte	.LVL84
 4222 0028 4D000000 		.4byte	.LVL86-1
 4223 002c 0100     		.2byte	0x1
 4224 002e 52       		.byte	0x52
 4225 002f 4D000000 		.4byte	.LVL86-1
 4226 0033 58000000 		.4byte	.LFE229
 4227 0037 0400     		.2byte	0x4
 4228 0039 F3       		.byte	0xf3
 4229 003a 01       		.uleb128 0x1
 4230 003b 50       		.byte	0x50
 4231 003c 9F       		.byte	0x9f
 4232 003d 00000000 		.4byte	0
 4233 0041 00000000 		.4byte	0
 4234              	.LLST40:
 4235 0045 00000000 		.4byte	.LVL73
 4236 0049 10000000 		.4byte	.LVL74
 4237 004d 0100     		.2byte	0x1
 4238 004f 51       		.byte	0x51
 4239 0050 10000000 		.4byte	.LVL74
 4240 0054 40000000 		.4byte	.LVL82
 4241 0058 0100     		.2byte	0x1
 4242 005a 54       		.byte	0x54
 4243 005b 40000000 		.4byte	.LVL82
 4244 005f 4D000000 		.4byte	.LVL86-1
 4245 0063 0100     		.2byte	0x1
 4246 0065 51       		.byte	0x51
 4247 0066 4D000000 		.4byte	.LVL86-1
 4248 006a 58000000 		.4byte	.LFE229
 4249 006e 0100     		.2byte	0x1
 4250 0070 54       		.byte	0x54
 4251 0071 00000000 		.4byte	0
 4252 0075 00000000 		.4byte	0
 4253              	.LLST41:
 4254 0079 1E000000 		.4byte	.LVL75
 4255 007d 20000000 		.4byte	.LVL76
 4256 0081 0200     		.2byte	0x2
 4257 0083 30       		.byte	0x30
 4258 0084 9F       		.byte	0x9f
 4259 0085 20000000 		.4byte	.LVL76
 4260 0089 24000000 		.4byte	.LVL77
 4261 008d 0100     		.2byte	0x1
 4262 008f 50       		.byte	0x50
 4263 0090 3C000000 		.4byte	.LVL81
 4264 0094 40000000 		.4byte	.LVL82
 4265 0098 0100     		.2byte	0x1
 4266 009a 50       		.byte	0x50
 4267 009b 00000000 		.4byte	0
 4268 009f 00000000 		.4byte	0
 4269              	.LLST42:
 4270 00a3 2A000000 		.4byte	.LVL78
 4271 00a7 40000000 		.4byte	.LVL82
 4272 00ab 0100     		.2byte	0x1
 4273 00ad 55       		.byte	0x55
 4274 00ae 00000000 		.4byte	0
 4275 00b2 00000000 		.4byte	0
ARM GAS  /tmp/ccEshaLd.s 			page 76


 4276              	.LLST43:
 4277 00b6 2A000000 		.4byte	.LVL78
 4278 00ba 34000000 		.4byte	.LVL79
 4279 00be 0100     		.2byte	0x1
 4280 00c0 54       		.byte	0x54
 4281 00c1 00000000 		.4byte	0
 4282 00c5 00000000 		.4byte	0
 4283              	.LLST44:
 4284 00c9 2A000000 		.4byte	.LVL78
 4285 00cd 34000000 		.4byte	.LVL79
 4286 00d1 0100     		.2byte	0x1
 4287 00d3 55       		.byte	0x55
 4288 00d4 00000000 		.4byte	0
 4289 00d8 00000000 		.4byte	0
 4290              	.LLST45:
 4291 00dc 42000000 		.4byte	.LVL83
 4292 00e0 4A000000 		.4byte	.LVL85
 4293 00e4 0100     		.2byte	0x1
 4294 00e6 52       		.byte	0x52
 4295 00e7 00000000 		.4byte	0
 4296 00eb 00000000 		.4byte	0
 4297              	.LLST46:
 4298 00ef 44000000 		.4byte	.LVL84
 4299 00f3 4A000000 		.4byte	.LVL85
 4300 00f7 0100     		.2byte	0x1
 4301 00f9 50       		.byte	0x50
 4302 00fa 00000000 		.4byte	0
 4303 00fe 00000000 		.4byte	0
 4304              	.LLST35:
 4305 0102 00000000 		.4byte	.LVL62
 4306 0106 0C000000 		.4byte	.LVL63
 4307 010a 0100     		.2byte	0x1
 4308 010c 50       		.byte	0x50
 4309 010d 0C000000 		.4byte	.LVL63
 4310 0111 2C000000 		.4byte	.LVL72
 4311 0115 0100     		.2byte	0x1
 4312 0117 55       		.byte	0x55
 4313 0118 2C000000 		.4byte	.LVL72
 4314 011c 2E000000 		.4byte	.LFE228
 4315 0120 0400     		.2byte	0x4
 4316 0122 F3       		.byte	0xf3
 4317 0123 01       		.uleb128 0x1
 4318 0124 50       		.byte	0x50
 4319 0125 9F       		.byte	0x9f
 4320 0126 00000000 		.4byte	0
 4321 012a 00000000 		.4byte	0
 4322              	.LLST36:
 4323 012e 00000000 		.4byte	.LVL62
 4324 0132 0C000000 		.4byte	.LVL63
 4325 0136 0100     		.2byte	0x1
 4326 0138 51       		.byte	0x51
 4327 0139 0C000000 		.4byte	.LVL63
 4328 013d 0E000000 		.4byte	.LVL64
 4329 0141 0300     		.2byte	0x3
 4330 0143 74       		.byte	0x74
 4331 0144 7F       		.sleb128 -1
 4332 0145 9F       		.byte	0x9f
ARM GAS  /tmp/ccEshaLd.s 			page 77


 4333 0146 0E000000 		.4byte	.LVL64
 4334 014a 28000000 		.4byte	.LVL70
 4335 014e 0100     		.2byte	0x1
 4336 0150 54       		.byte	0x54
 4337 0151 28000000 		.4byte	.LVL70
 4338 0155 2A000000 		.4byte	.LVL71
 4339 0159 0300     		.2byte	0x3
 4340 015b 74       		.byte	0x74
 4341 015c 01       		.sleb128 1
 4342 015d 9F       		.byte	0x9f
 4343 015e 00000000 		.4byte	0
 4344 0162 00000000 		.4byte	0
 4345              	.LLST37:
 4346 0166 1A000000 		.4byte	.LVL66
 4347 016a 22000000 		.4byte	.LVL68
 4348 016e 0100     		.2byte	0x1
 4349 0170 55       		.byte	0x55
 4350 0171 00000000 		.4byte	0
 4351 0175 00000000 		.4byte	0
 4352              	.LLST38:
 4353 0179 1C000000 		.4byte	.LVL67
 4354 017d 22000000 		.4byte	.LVL68
 4355 0181 0100     		.2byte	0x1
 4356 0183 50       		.byte	0x50
 4357 0184 00000000 		.4byte	0
 4358 0188 00000000 		.4byte	0
 4359              	.LLST32:
 4360 018c 00000000 		.4byte	.LVL56
 4361 0190 18000000 		.4byte	.LVL60
 4362 0194 0100     		.2byte	0x1
 4363 0196 50       		.byte	0x50
 4364 0197 18000000 		.4byte	.LVL60
 4365 019b 1D000000 		.4byte	.LVL61-1
 4366 019f 0200     		.2byte	0x2
 4367 01a1 72       		.byte	0x72
 4368 01a2 04       		.sleb128 4
 4369 01a3 1D000000 		.4byte	.LVL61-1
 4370 01a7 1E000000 		.4byte	.LFE227
 4371 01ab 0400     		.2byte	0x4
 4372 01ad F3       		.byte	0xf3
 4373 01ae 01       		.uleb128 0x1
 4374 01af 50       		.byte	0x50
 4375 01b0 9F       		.byte	0x9f
 4376 01b1 00000000 		.4byte	0
 4377 01b5 00000000 		.4byte	0
 4378              	.LLST33:
 4379 01b9 0C000000 		.4byte	.LVL57
 4380 01bd 16000000 		.4byte	.LVL59
 4381 01c1 0100     		.2byte	0x1
 4382 01c3 50       		.byte	0x50
 4383 01c4 00000000 		.4byte	0
 4384 01c8 00000000 		.4byte	0
 4385              	.LLST34:
 4386 01cc 0E000000 		.4byte	.LVL58
 4387 01d0 16000000 		.4byte	.LVL59
 4388 01d4 0100     		.2byte	0x1
 4389 01d6 53       		.byte	0x53
ARM GAS  /tmp/ccEshaLd.s 			page 78


 4390 01d7 00000000 		.4byte	0
 4391 01db 00000000 		.4byte	0
 4392              	.LLST29:
 4393 01df 00000000 		.4byte	.LVL51
 4394 01e3 16000000 		.4byte	.LVL53
 4395 01e7 0100     		.2byte	0x1
 4396 01e9 50       		.byte	0x50
 4397 01ea 16000000 		.4byte	.LVL53
 4398 01ee 21000000 		.4byte	.LVL55-1
 4399 01f2 0100     		.2byte	0x1
 4400 01f4 53       		.byte	0x53
 4401 01f5 21000000 		.4byte	.LVL55-1
 4402 01f9 26000000 		.4byte	.LFE226
 4403 01fd 0400     		.2byte	0x4
 4404 01ff F3       		.byte	0xf3
 4405 0200 01       		.uleb128 0x1
 4406 0201 50       		.byte	0x50
 4407 0202 9F       		.byte	0x9f
 4408 0203 00000000 		.4byte	0
 4409 0207 00000000 		.4byte	0
 4410              	.LLST30:
 4411 020b 14000000 		.4byte	.LVL52
 4412 020f 1E000000 		.4byte	.LVL54
 4413 0213 0100     		.2byte	0x1
 4414 0215 53       		.byte	0x53
 4415 0216 00000000 		.4byte	0
 4416 021a 00000000 		.4byte	0
 4417              	.LLST31:
 4418 021e 16000000 		.4byte	.LVL53
 4419 0222 1E000000 		.4byte	.LVL54
 4420 0226 0100     		.2byte	0x1
 4421 0228 50       		.byte	0x50
 4422 0229 00000000 		.4byte	0
 4423 022d 00000000 		.4byte	0
 4424              	.LLST17:
 4425 0231 00000000 		.4byte	.LVL34
 4426 0235 0E000000 		.4byte	.LVL36
 4427 0239 0100     		.2byte	0x1
 4428 023b 50       		.byte	0x50
 4429 023c 0E000000 		.4byte	.LVL36
 4430 0240 12000000 		.4byte	.LVL37
 4431 0244 0400     		.2byte	0x4
 4432 0246 F3       		.byte	0xf3
 4433 0247 01       		.uleb128 0x1
 4434 0248 50       		.byte	0x50
 4435 0249 9F       		.byte	0x9f
 4436 024a 12000000 		.4byte	.LVL37
 4437 024e 26000000 		.4byte	.LVL40
 4438 0252 0100     		.2byte	0x1
 4439 0254 50       		.byte	0x50
 4440 0255 26000000 		.4byte	.LVL40
 4441 0259 2D000000 		.4byte	.LVL42-1
 4442 025d 0100     		.2byte	0x1
 4443 025f 53       		.byte	0x53
 4444 0260 2D000000 		.4byte	.LVL42-1
 4445 0264 32000000 		.4byte	.LVL43
 4446 0268 0400     		.2byte	0x4
ARM GAS  /tmp/ccEshaLd.s 			page 79


 4447 026a F3       		.byte	0xf3
 4448 026b 01       		.uleb128 0x1
 4449 026c 50       		.byte	0x50
 4450 026d 9F       		.byte	0x9f
 4451 026e 32000000 		.4byte	.LVL43
 4452 0272 38000000 		.4byte	.LVL44
 4453 0276 0100     		.2byte	0x1
 4454 0278 50       		.byte	0x50
 4455 0279 38000000 		.4byte	.LVL44
 4456 027d 40000000 		.4byte	.LFE224
 4457 0281 0400     		.2byte	0x4
 4458 0283 F3       		.byte	0xf3
 4459 0284 01       		.uleb128 0x1
 4460 0285 50       		.byte	0x50
 4461 0286 9F       		.byte	0x9f
 4462 0287 00000000 		.4byte	0
 4463 028b 00000000 		.4byte	0
 4464              	.LLST18:
 4465 028f 00000000 		.4byte	.LVL34
 4466 0293 2D000000 		.4byte	.LVL42-1
 4467 0297 0100     		.2byte	0x1
 4468 0299 51       		.byte	0x51
 4469 029a 2D000000 		.4byte	.LVL42-1
 4470 029e 32000000 		.4byte	.LVL43
 4471 02a2 0400     		.2byte	0x4
 4472 02a4 F3       		.byte	0xf3
 4473 02a5 01       		.uleb128 0x1
 4474 02a6 51       		.byte	0x51
 4475 02a7 9F       		.byte	0x9f
 4476 02a8 32000000 		.4byte	.LVL43
 4477 02ac 40000000 		.4byte	.LFE224
 4478 02b0 0100     		.2byte	0x1
 4479 02b2 51       		.byte	0x51
 4480 02b3 00000000 		.4byte	0
 4481 02b7 00000000 		.4byte	0
 4482              	.LLST19:
 4483 02bb 02000000 		.4byte	.LVL35
 4484 02bf 0E000000 		.4byte	.LVL36
 4485 02c3 0100     		.2byte	0x1
 4486 02c5 51       		.byte	0x51
 4487 02c6 12000000 		.4byte	.LVL37
 4488 02ca 2D000000 		.4byte	.LVL42-1
 4489 02ce 0100     		.2byte	0x1
 4490 02d0 51       		.byte	0x51
 4491 02d1 2D000000 		.4byte	.LVL42-1
 4492 02d5 2E000000 		.4byte	.LVL42
 4493 02d9 0400     		.2byte	0x4
 4494 02db F3       		.byte	0xf3
 4495 02dc 01       		.uleb128 0x1
 4496 02dd 51       		.byte	0x51
 4497 02de 9F       		.byte	0x9f
 4498 02df 32000000 		.4byte	.LVL43
 4499 02e3 40000000 		.4byte	.LFE224
 4500 02e7 0100     		.2byte	0x1
 4501 02e9 51       		.byte	0x51
 4502 02ea 00000000 		.4byte	0
 4503 02ee 00000000 		.4byte	0
ARM GAS  /tmp/ccEshaLd.s 			page 80


 4504              	.LLST20:
 4505 02f2 02000000 		.4byte	.LVL35
 4506 02f6 0E000000 		.4byte	.LVL36
 4507 02fa 0100     		.2byte	0x1
 4508 02fc 50       		.byte	0x50
 4509 02fd 12000000 		.4byte	.LVL37
 4510 0301 26000000 		.4byte	.LVL40
 4511 0305 0100     		.2byte	0x1
 4512 0307 50       		.byte	0x50
 4513 0308 26000000 		.4byte	.LVL40
 4514 030c 2D000000 		.4byte	.LVL42-1
 4515 0310 0100     		.2byte	0x1
 4516 0312 53       		.byte	0x53
 4517 0313 2D000000 		.4byte	.LVL42-1
 4518 0317 2E000000 		.4byte	.LVL42
 4519 031b 0400     		.2byte	0x4
 4520 031d F3       		.byte	0xf3
 4521 031e 01       		.uleb128 0x1
 4522 031f 50       		.byte	0x50
 4523 0320 9F       		.byte	0x9f
 4524 0321 32000000 		.4byte	.LVL43
 4525 0325 38000000 		.4byte	.LVL44
 4526 0329 0100     		.2byte	0x1
 4527 032b 50       		.byte	0x50
 4528 032c 38000000 		.4byte	.LVL44
 4529 0330 40000000 		.4byte	.LFE224
 4530 0334 0400     		.2byte	0x4
 4531 0336 F3       		.byte	0xf3
 4532 0337 01       		.uleb128 0x1
 4533 0338 50       		.byte	0x50
 4534 0339 9F       		.byte	0x9f
 4535 033a 00000000 		.4byte	0
 4536 033e 00000000 		.4byte	0
 4537              	.LLST21:
 4538 0342 1E000000 		.4byte	.LVL38
 4539 0346 2D000000 		.4byte	.LVL42-1
 4540 034a 0100     		.2byte	0x1
 4541 034c 53       		.byte	0x53
 4542 034d 2D000000 		.4byte	.LVL42-1
 4543 0351 2E000000 		.4byte	.LVL42
 4544 0355 0400     		.2byte	0x4
 4545 0357 F3       		.byte	0xf3
 4546 0358 01       		.uleb128 0x1
 4547 0359 50       		.byte	0x50
 4548 035a 9F       		.byte	0x9f
 4549 035b 00000000 		.4byte	0
 4550 035f 00000000 		.4byte	0
 4551              	.LLST22:
 4552 0363 20000000 		.4byte	.LVL39
 4553 0367 2A000000 		.4byte	.LVL41
 4554 036b 0100     		.2byte	0x1
 4555 036d 53       		.byte	0x53
 4556 036e 00000000 		.4byte	0
 4557 0372 00000000 		.4byte	0
 4558              	.LLST23:
 4559 0376 20000000 		.4byte	.LVL39
 4560 037a 2A000000 		.4byte	.LVL41
ARM GAS  /tmp/ccEshaLd.s 			page 81


 4561 037e 0100     		.2byte	0x1
 4562 0380 52       		.byte	0x52
 4563 0381 00000000 		.4byte	0
 4564 0385 00000000 		.4byte	0
 4565              	.LLST8:
 4566 0389 00000000 		.4byte	.LVL15
 4567 038d 0E000000 		.4byte	.LVL17
 4568 0391 0100     		.2byte	0x1
 4569 0393 50       		.byte	0x50
 4570 0394 0E000000 		.4byte	.LVL17
 4571 0398 12000000 		.4byte	.LVL18
 4572 039c 0400     		.2byte	0x4
 4573 039e F3       		.byte	0xf3
 4574 039f 01       		.uleb128 0x1
 4575 03a0 50       		.byte	0x50
 4576 03a1 9F       		.byte	0x9f
 4577 03a2 12000000 		.4byte	.LVL18
 4578 03a6 24000000 		.4byte	.LVL21
 4579 03aa 0100     		.2byte	0x1
 4580 03ac 50       		.byte	0x50
 4581 03ad 24000000 		.4byte	.LVL21
 4582 03b1 2B000000 		.4byte	.LVL23-1
 4583 03b5 0100     		.2byte	0x1
 4584 03b7 53       		.byte	0x53
 4585 03b8 2B000000 		.4byte	.LVL23-1
 4586 03bc 38000000 		.4byte	.LFE222
 4587 03c0 0400     		.2byte	0x4
 4588 03c2 F3       		.byte	0xf3
 4589 03c3 01       		.uleb128 0x1
 4590 03c4 50       		.byte	0x50
 4591 03c5 9F       		.byte	0x9f
 4592 03c6 00000000 		.4byte	0
 4593 03ca 00000000 		.4byte	0
 4594              	.LLST9:
 4595 03ce 02000000 		.4byte	.LVL16
 4596 03d2 0E000000 		.4byte	.LVL17
 4597 03d6 0100     		.2byte	0x1
 4598 03d8 50       		.byte	0x50
 4599 03d9 12000000 		.4byte	.LVL18
 4600 03dd 24000000 		.4byte	.LVL21
 4601 03e1 0100     		.2byte	0x1
 4602 03e3 50       		.byte	0x50
 4603 03e4 24000000 		.4byte	.LVL21
 4604 03e8 2B000000 		.4byte	.LVL23-1
 4605 03ec 0100     		.2byte	0x1
 4606 03ee 53       		.byte	0x53
 4607 03ef 2B000000 		.4byte	.LVL23-1
 4608 03f3 30000000 		.4byte	.LVL24
 4609 03f7 0400     		.2byte	0x4
 4610 03f9 F3       		.byte	0xf3
 4611 03fa 01       		.uleb128 0x1
 4612 03fb 50       		.byte	0x50
 4613 03fc 9F       		.byte	0x9f
 4614 03fd 00000000 		.4byte	0
 4615 0401 00000000 		.4byte	0
 4616              	.LLST10:
 4617 0405 1C000000 		.4byte	.LVL19
ARM GAS  /tmp/ccEshaLd.s 			page 82


 4618 0409 2B000000 		.4byte	.LVL23-1
 4619 040d 0100     		.2byte	0x1
 4620 040f 53       		.byte	0x53
 4621 0410 2B000000 		.4byte	.LVL23-1
 4622 0414 30000000 		.4byte	.LVL24
 4623 0418 0400     		.2byte	0x4
 4624 041a F3       		.byte	0xf3
 4625 041b 01       		.uleb128 0x1
 4626 041c 50       		.byte	0x50
 4627 041d 9F       		.byte	0x9f
 4628 041e 00000000 		.4byte	0
 4629 0422 00000000 		.4byte	0
 4630              	.LLST11:
 4631 0426 1E000000 		.4byte	.LVL20
 4632 042a 28000000 		.4byte	.LVL22
 4633 042e 0100     		.2byte	0x1
 4634 0430 53       		.byte	0x53
 4635 0431 00000000 		.4byte	0
 4636 0435 00000000 		.4byte	0
 4637              	.LLST12:
 4638 0439 1E000000 		.4byte	.LVL20
 4639 043d 28000000 		.4byte	.LVL22
 4640 0441 0100     		.2byte	0x1
 4641 0443 52       		.byte	0x52
 4642 0444 00000000 		.4byte	0
 4643 0448 00000000 		.4byte	0
 4644              	.LLST1:
 4645 044c 00000000 		.4byte	.LVL2
 4646 0450 12000000 		.4byte	.LVL5
 4647 0454 0100     		.2byte	0x1
 4648 0456 50       		.byte	0x50
 4649 0457 12000000 		.4byte	.LVL5
 4650 045b 26000000 		.4byte	.LVL11
 4651 045f 0100     		.2byte	0x1
 4652 0461 54       		.byte	0x54
 4653 0462 26000000 		.4byte	.LVL11
 4654 0466 28000000 		.4byte	.LFE221
 4655 046a 0400     		.2byte	0x4
 4656 046c F3       		.byte	0xf3
 4657 046d 01       		.uleb128 0x1
 4658 046e 50       		.byte	0x50
 4659 046f 9F       		.byte	0x9f
 4660 0470 00000000 		.4byte	0
 4661 0474 00000000 		.4byte	0
 4662              	.LLST2:
 4663 0478 00000000 		.4byte	.LVL2
 4664 047c 12000000 		.4byte	.LVL5
 4665 0480 0100     		.2byte	0x1
 4666 0482 51       		.byte	0x51
 4667 0483 12000000 		.4byte	.LVL5
 4668 0487 28000000 		.4byte	.LFE221
 4669 048b 0400     		.2byte	0x4
 4670 048d F3       		.byte	0xf3
 4671 048e 01       		.uleb128 0x1
 4672 048f 51       		.byte	0x51
 4673 0490 9F       		.byte	0x9f
 4674 0491 00000000 		.4byte	0
ARM GAS  /tmp/ccEshaLd.s 			page 83


 4675 0495 00000000 		.4byte	0
 4676              	.LLST3:
 4677 0499 04000000 		.4byte	.LVL3
 4678 049d 20000000 		.4byte	.LVL9
 4679 04a1 0100     		.2byte	0x1
 4680 04a3 55       		.byte	0x55
 4681 04a4 20000000 		.4byte	.LVL9
 4682 04a8 24000000 		.4byte	.LVL10
 4683 04ac 0300     		.2byte	0x3
 4684 04ae 75       		.byte	0x75
 4685 04af 7F       		.sleb128 -1
 4686 04b0 9F       		.byte	0x9f
 4687 04b1 24000000 		.4byte	.LVL10
 4688 04b5 28000000 		.4byte	.LFE221
 4689 04b9 0100     		.2byte	0x1
 4690 04bb 55       		.byte	0x55
 4691 04bc 00000000 		.4byte	0
 4692 04c0 00000000 		.4byte	0
 4693              	.LLST4:
 4694 04c4 12000000 		.4byte	.LVL5
 4695 04c8 1A000000 		.4byte	.LVL7
 4696 04cc 0100     		.2byte	0x1
 4697 04ce 54       		.byte	0x54
 4698 04cf 00000000 		.4byte	0
 4699 04d3 00000000 		.4byte	0
 4700              	.LLST5:
 4701 04d7 14000000 		.4byte	.LVL6
 4702 04db 1A000000 		.4byte	.LVL7
 4703 04df 0100     		.2byte	0x1
 4704 04e1 50       		.byte	0x50
 4705 04e2 00000000 		.4byte	0
 4706 04e6 00000000 		.4byte	0
 4707              	.LLST6:
 4708 04ea 00000000 		.4byte	.LVL12
 4709 04ee 07000000 		.4byte	.LVL13-1
 4710 04f2 0100     		.2byte	0x1
 4711 04f4 50       		.byte	0x50
 4712 04f5 07000000 		.4byte	.LVL13-1
 4713 04f9 10000000 		.4byte	.LFE220
 4714 04fd 0400     		.2byte	0x4
 4715 04ff F3       		.byte	0xf3
 4716 0500 01       		.uleb128 0x1
 4717 0501 50       		.byte	0x50
 4718 0502 9F       		.byte	0x9f
 4719 0503 00000000 		.4byte	0
 4720 0507 00000000 		.4byte	0
 4721              	.LLST7:
 4722 050b 00000000 		.4byte	.LVL12
 4723 050f 07000000 		.4byte	.LVL13-1
 4724 0513 0100     		.2byte	0x1
 4725 0515 51       		.byte	0x51
 4726 0516 07000000 		.4byte	.LVL13-1
 4727 051a 10000000 		.4byte	.LFE220
 4728 051e 0400     		.2byte	0x4
 4729 0520 F3       		.byte	0xf3
 4730 0521 01       		.uleb128 0x1
 4731 0522 51       		.byte	0x51
ARM GAS  /tmp/ccEshaLd.s 			page 84


 4732 0523 9F       		.byte	0x9f
 4733 0524 00000000 		.4byte	0
 4734 0528 00000000 		.4byte	0
 4735              	.LLST0:
 4736 052c 00000000 		.4byte	.LVL0
 4737 0530 04000000 		.4byte	.LVL1
 4738 0534 0100     		.2byte	0x1
 4739 0536 50       		.byte	0x50
 4740 0537 00000000 		.4byte	0
 4741 053b 00000000 		.4byte	0
 4742              	.LLST13:
 4743 053f 00000000 		.4byte	.LVL25
 4744 0543 0C000000 		.4byte	.LVL26
 4745 0547 0100     		.2byte	0x1
 4746 0549 50       		.byte	0x50
 4747 054a 0C000000 		.4byte	.LVL26
 4748 054e 0E000000 		.4byte	.LVL27
 4749 0552 0400     		.2byte	0x4
 4750 0554 F3       		.byte	0xf3
 4751 0555 01       		.uleb128 0x1
 4752 0556 50       		.byte	0x50
 4753 0557 9F       		.byte	0x9f
 4754 0558 0E000000 		.4byte	.LVL27
 4755 055c 20000000 		.4byte	.LVL30
 4756 0560 0100     		.2byte	0x1
 4757 0562 50       		.byte	0x50
 4758 0563 20000000 		.4byte	.LVL30
 4759 0567 27000000 		.4byte	.LVL32-1
 4760 056b 0100     		.2byte	0x1
 4761 056d 53       		.byte	0x53
 4762 056e 27000000 		.4byte	.LVL32-1
 4763 0572 34000000 		.4byte	.LFE223
 4764 0576 0400     		.2byte	0x4
 4765 0578 F3       		.byte	0xf3
 4766 0579 01       		.uleb128 0x1
 4767 057a 50       		.byte	0x50
 4768 057b 9F       		.byte	0x9f
 4769 057c 00000000 		.4byte	0
 4770 0580 00000000 		.4byte	0
 4771              	.LLST14:
 4772 0584 18000000 		.4byte	.LVL28
 4773 0588 27000000 		.4byte	.LVL32-1
 4774 058c 0100     		.2byte	0x1
 4775 058e 53       		.byte	0x53
 4776 058f 27000000 		.4byte	.LVL32-1
 4777 0593 2C000000 		.4byte	.LVL33
 4778 0597 0400     		.2byte	0x4
 4779 0599 F3       		.byte	0xf3
 4780 059a 01       		.uleb128 0x1
 4781 059b 50       		.byte	0x50
 4782 059c 9F       		.byte	0x9f
 4783 059d 00000000 		.4byte	0
 4784 05a1 00000000 		.4byte	0
 4785              	.LLST15:
 4786 05a5 1A000000 		.4byte	.LVL29
 4787 05a9 24000000 		.4byte	.LVL31
 4788 05ad 0100     		.2byte	0x1
ARM GAS  /tmp/ccEshaLd.s 			page 85


 4789 05af 53       		.byte	0x53
 4790 05b0 00000000 		.4byte	0
 4791 05b4 00000000 		.4byte	0
 4792              	.LLST16:
 4793 05b8 1A000000 		.4byte	.LVL29
 4794 05bc 24000000 		.4byte	.LVL31
 4795 05c0 0100     		.2byte	0x1
 4796 05c2 52       		.byte	0x52
 4797 05c3 00000000 		.4byte	0
 4798 05c7 00000000 		.4byte	0
 4799              	.LLST24:
 4800 05cb 00000000 		.4byte	.LVL45
 4801 05cf 04000000 		.4byte	.LVL46
 4802 05d3 0100     		.2byte	0x1
 4803 05d5 50       		.byte	0x50
 4804 05d6 04000000 		.4byte	.LVL46
 4805 05da 2D000000 		.4byte	.LVL50-1
 4806 05de 0100     		.2byte	0x1
 4807 05e0 53       		.byte	0x53
 4808 05e1 2D000000 		.4byte	.LVL50-1
 4809 05e5 2E000000 		.4byte	.LVL50
 4810 05e9 0400     		.2byte	0x4
 4811 05eb F3       		.byte	0xf3
 4812 05ec 01       		.uleb128 0x1
 4813 05ed 50       		.byte	0x50
 4814 05ee 9F       		.byte	0x9f
 4815 05ef 2E000000 		.4byte	.LVL50
 4816 05f3 40000000 		.4byte	.LFE225
 4817 05f7 0100     		.2byte	0x1
 4818 05f9 53       		.byte	0x53
 4819 05fa 00000000 		.4byte	0
 4820 05fe 00000000 		.4byte	0
 4821              	.LLST25:
 4822 0602 00000000 		.4byte	.LVL45
 4823 0606 2D000000 		.4byte	.LVL50-1
 4824 060a 0100     		.2byte	0x1
 4825 060c 51       		.byte	0x51
 4826 060d 2D000000 		.4byte	.LVL50-1
 4827 0611 2E000000 		.4byte	.LVL50
 4828 0615 0400     		.2byte	0x4
 4829 0617 F3       		.byte	0xf3
 4830 0618 01       		.uleb128 0x1
 4831 0619 51       		.byte	0x51
 4832 061a 9F       		.byte	0x9f
 4833 061b 2E000000 		.4byte	.LVL50
 4834 061f 40000000 		.4byte	.LFE225
 4835 0623 0100     		.2byte	0x1
 4836 0625 51       		.byte	0x51
 4837 0626 00000000 		.4byte	0
 4838 062a 00000000 		.4byte	0
 4839              	.LLST26:
 4840 062e 14000000 		.4byte	.LVL47
 4841 0632 2D000000 		.4byte	.LVL50-1
 4842 0636 0100     		.2byte	0x1
 4843 0638 53       		.byte	0x53
 4844 0639 2D000000 		.4byte	.LVL50-1
 4845 063d 2E000000 		.4byte	.LVL50
ARM GAS  /tmp/ccEshaLd.s 			page 86


 4846 0641 0400     		.2byte	0x4
 4847 0643 F3       		.byte	0xf3
 4848 0644 01       		.uleb128 0x1
 4849 0645 50       		.byte	0x50
 4850 0646 9F       		.byte	0x9f
 4851 0647 00000000 		.4byte	0
 4852 064b 00000000 		.4byte	0
 4853              	.LLST27:
 4854 064f 22000000 		.4byte	.LVL48
 4855 0653 26000000 		.4byte	.LVL49
 4856 0657 0100     		.2byte	0x1
 4857 0659 53       		.byte	0x53
 4858 065a 00000000 		.4byte	0
 4859 065e 00000000 		.4byte	0
 4860              	.LLST28:
 4861 0662 22000000 		.4byte	.LVL48
 4862 0666 26000000 		.4byte	.LVL49
 4863 066a 0100     		.2byte	0x1
 4864 066c 52       		.byte	0x52
 4865 066d 00000000 		.4byte	0
 4866 0671 00000000 		.4byte	0
 4867              		.section	.debug_aranges,"",%progbits
 4868 0000 6C000000 		.4byte	0x6c
 4869 0004 0200     		.2byte	0x2
 4870 0006 00000000 		.4byte	.Ldebug_info0
 4871 000a 04       		.byte	0x4
 4872 000b 00       		.byte	0
 4873 000c 0000     		.2byte	0
 4874 000e 0000     		.2byte	0
 4875 0010 00000000 		.4byte	.LFB219
 4876 0014 08000000 		.4byte	.LFE219-.LFB219
 4877 0018 00000000 		.4byte	.LFB221
 4878 001c 28000000 		.4byte	.LFE221-.LFB221
 4879 0020 00000000 		.4byte	.LFB220
 4880 0024 10000000 		.4byte	.LFE220-.LFB220
 4881 0028 00000000 		.4byte	.LFB222
 4882 002c 38000000 		.4byte	.LFE222-.LFB222
 4883 0030 00000000 		.4byte	.LFB223
 4884 0034 34000000 		.4byte	.LFE223-.LFB223
 4885 0038 00000000 		.4byte	.LFB224
 4886 003c 40000000 		.4byte	.LFE224-.LFB224
 4887 0040 00000000 		.4byte	.LFB225
 4888 0044 40000000 		.4byte	.LFE225-.LFB225
 4889 0048 00000000 		.4byte	.LFB226
 4890 004c 26000000 		.4byte	.LFE226-.LFB226
 4891 0050 00000000 		.4byte	.LFB227
 4892 0054 1E000000 		.4byte	.LFE227-.LFB227
 4893 0058 00000000 		.4byte	.LFB228
 4894 005c 2E000000 		.4byte	.LFE228-.LFB228
 4895 0060 00000000 		.4byte	.LFB229
 4896 0064 58000000 		.4byte	.LFE229-.LFB229
 4897 0068 00000000 		.4byte	0
 4898 006c 00000000 		.4byte	0
 4899              		.section	.debug_ranges,"",%progbits
 4900              	.Ldebug_ranges0:
 4901 0000 02000000 		.4byte	.LBB124
 4902 0004 0E000000 		.4byte	.LBE124
ARM GAS  /tmp/ccEshaLd.s 			page 87


 4903 0008 14000000 		.4byte	.LBB144
 4904 000c 30000000 		.4byte	.LBE144
 4905 0010 00000000 		.4byte	0
 4906 0014 00000000 		.4byte	0
 4907 0018 16000000 		.4byte	.LBB128
 4908 001c 18000000 		.4byte	.LBE128
 4909 0020 1E000000 		.4byte	.LBB132
 4910 0024 22000000 		.4byte	.LBE132
 4911 0028 24000000 		.4byte	.LBB133
 4912 002c 28000000 		.4byte	.LBE133
 4913 0030 00000000 		.4byte	0
 4914 0034 00000000 		.4byte	0
 4915 0038 0E000000 		.4byte	.LBB135
 4916 003c 10000000 		.4byte	.LBE135
 4917 0040 30000000 		.4byte	.LBB145
 4918 0044 32000000 		.4byte	.LBE145
 4919 0048 00000000 		.4byte	0
 4920 004c 00000000 		.4byte	0
 4921 0050 12000000 		.4byte	.LBB152
 4922 0054 14000000 		.4byte	.LBE152
 4923 0058 1A000000 		.4byte	.LBB156
 4924 005c 1E000000 		.4byte	.LBE156
 4925 0060 20000000 		.4byte	.LBB157
 4926 0064 24000000 		.4byte	.LBE157
 4927 0068 00000000 		.4byte	0
 4928 006c 00000000 		.4byte	0
 4929 0070 02000000 		.4byte	.LBB177
 4930 0074 0E000000 		.4byte	.LBE177
 4931 0078 14000000 		.4byte	.LBB198
 4932 007c 2E000000 		.4byte	.LBE198
 4933 0080 32000000 		.4byte	.LBB200
 4934 0084 40000000 		.4byte	.LBE200
 4935 0088 00000000 		.4byte	0
 4936 008c 00000000 		.4byte	0
 4937 0090 18000000 		.4byte	.LBB181
 4938 0094 1A000000 		.4byte	.LBE181
 4939 0098 20000000 		.4byte	.LBB185
 4940 009c 24000000 		.4byte	.LBE185
 4941 00a0 26000000 		.4byte	.LBB186
 4942 00a4 2A000000 		.4byte	.LBE186
 4943 00a8 00000000 		.4byte	0
 4944 00ac 00000000 		.4byte	0
 4945 00b0 0E000000 		.4byte	.LBB189
 4946 00b4 10000000 		.4byte	.LBE189
 4947 00b8 2E000000 		.4byte	.LBB199
 4948 00bc 30000000 		.4byte	.LBE199
 4949 00c0 00000000 		.4byte	0
 4950 00c4 00000000 		.4byte	0
 4951 00c8 14000000 		.4byte	.LBB205
 4952 00cc 26000000 		.4byte	.LBE205
 4953 00d0 2A000000 		.4byte	.LBB214
 4954 00d4 2E000000 		.4byte	.LBE214
 4955 00d8 00000000 		.4byte	0
 4956 00dc 00000000 		.4byte	0
 4957 00e0 16000000 		.4byte	.LBB207
 4958 00e4 18000000 		.4byte	.LBE207
 4959 00e8 1C000000 		.4byte	.LBB211
ARM GAS  /tmp/ccEshaLd.s 			page 88


 4960 00ec 20000000 		.4byte	.LBE211
 4961 00f0 22000000 		.4byte	.LBB212
 4962 00f4 26000000 		.4byte	.LBE212
 4963 00f8 00000000 		.4byte	0
 4964 00fc 00000000 		.4byte	0
 4965 0100 0E000000 		.4byte	.LBB219
 4966 0104 10000000 		.4byte	.LBE219
 4967 0108 22000000 		.4byte	.LBB232
 4968 010c 24000000 		.4byte	.LBE232
 4969 0110 00000000 		.4byte	0
 4970 0114 00000000 		.4byte	0
 4971 0118 14000000 		.4byte	.LBB228
 4972 011c 1A000000 		.4byte	.LBE228
 4973 0120 1C000000 		.4byte	.LBB231
 4974 0124 1E000000 		.4byte	.LBE231
 4975 0128 00000000 		.4byte	0
 4976 012c 00000000 		.4byte	0
 4977 0130 0C000000 		.4byte	.LBB234
 4978 0134 12000000 		.4byte	.LBE234
 4979 0138 14000000 		.4byte	.LBB237
 4980 013c 16000000 		.4byte	.LBE237
 4981 0140 00000000 		.4byte	0
 4982 0144 00000000 		.4byte	0
 4983 0148 20000000 		.4byte	.LBB244
 4984 014c 22000000 		.4byte	.LBE244
 4985 0150 3C000000 		.4byte	.LBB258
 4986 0154 3E000000 		.4byte	.LBE258
 4987 0158 00000000 		.4byte	0
 4988 015c 00000000 		.4byte	0
 4989 0160 26000000 		.4byte	.LBB254
 4990 0164 28000000 		.4byte	.LBE254
 4991 0168 2C000000 		.4byte	.LBB257
 4992 016c 34000000 		.4byte	.LBE257
 4993 0170 00000000 		.4byte	0
 4994 0174 00000000 		.4byte	0
 4995 0178 00000000 		.4byte	.LFB219
 4996 017c 08000000 		.4byte	.LFE219
 4997 0180 00000000 		.4byte	.LFB221
 4998 0184 28000000 		.4byte	.LFE221
 4999 0188 00000000 		.4byte	.LFB220
 5000 018c 10000000 		.4byte	.LFE220
 5001 0190 00000000 		.4byte	.LFB222
 5002 0194 38000000 		.4byte	.LFE222
 5003 0198 00000000 		.4byte	.LFB223
 5004 019c 34000000 		.4byte	.LFE223
 5005 01a0 00000000 		.4byte	.LFB224
 5006 01a4 40000000 		.4byte	.LFE224
 5007 01a8 00000000 		.4byte	.LFB225
 5008 01ac 40000000 		.4byte	.LFE225
 5009 01b0 00000000 		.4byte	.LFB226
 5010 01b4 26000000 		.4byte	.LFE226
 5011 01b8 00000000 		.4byte	.LFB227
 5012 01bc 1E000000 		.4byte	.LFE227
 5013 01c0 00000000 		.4byte	.LFB228
 5014 01c4 2E000000 		.4byte	.LFE228
 5015 01c8 00000000 		.4byte	.LFB229
 5016 01cc 58000000 		.4byte	.LFE229
ARM GAS  /tmp/ccEshaLd.s 			page 89


 5017 01d0 00000000 		.4byte	0
 5018 01d4 00000000 		.4byte	0
 5019              		.section	.debug_line,"",%progbits
 5020              	.Ldebug_line0:
 5021 0000 C2040000 		.section	.debug_str,"MS",%progbits,1
 5021      0200FB01 
 5021      00000201 
 5021      FB0E0D00 
 5021      01010101 
 5022              	.LASF118:
 5023 0000 63665F6F 		.ascii	"cf_off_older\000"
 5023      66665F6F 
 5023      6C646572 
 5023      00
 5024              	.LASF57:
 5025 000d 72656164 		.ascii	"ready_list_t\000"
 5025      795F6C69 
 5025      73745F74 
 5025      00
 5026              	.LASF146:
 5027 001a 71756575 		.ascii	"queue_insert\000"
 5027      655F696E 
 5027      73657274 
 5027      00
 5028              	.LASF132:
 5029 0027 63685365 		.ascii	"chSemSignalI\000"
 5029      6D536967 
 5029      6E616C49 
 5029      00
 5030              	.LASF96:
 5031 0034 77747472 		.ascii	"wttrp\000"
 5031      7000
 5032              	.LASF93:
 5033 003a 7264796D 		.ascii	"rdymsg\000"
 5033      736700
 5034              	.LASF120:
 5035 0041 63665F6F 		.ascii	"cf_off_stklimit\000"
 5035      66665F73 
 5035      746B6C69 
 5035      6D697400 
 5036              	.LASF18:
 5037 0051 75696E74 		.ascii	"uint64_t\000"
 5037      36345F74 
 5037      00
 5038              	.LASF4:
 5039 005a 5F5F7569 		.ascii	"__uint8_t\000"
 5039      6E74385F 
 5039      7400
 5040              	.LASF90:
 5041 0064 706F7274 		.ascii	"port_intctx\000"
 5041      5F696E74 
 5041      63747800 
 5042              	.LASF76:
 5043 0070 73797374 		.ascii	"system_debug_t\000"
 5043      656D5F64 
 5043      65627567 
 5043      5F7400
ARM GAS  /tmp/ccEshaLd.s 			page 90


 5044              	.LASF147:
 5045 007f 71756575 		.ascii	"queue_init\000"
 5045      655F696E 
 5045      697400
 5046              	.LASF158:
 5047 008a 474E5520 		.ascii	"GNU C99 7.3.1 20180622 (release) [ARM/embedded-7-br"
 5047      43393920 
 5047      372E332E 
 5047      31203230 
 5047      31383036 
 5048 00bd 616E6368 		.ascii	"anch revision 261907] -mcpu=cortex-m4 -mfloat-abi=h"
 5048      20726576 
 5048      6973696F 
 5048      6E203236 
 5048      31393037 
 5049 00f0 61726420 		.ascii	"ard -mfpu=fpv4-sp-d16 -mno-thumb-interwork -mthumb "
 5049      2D6D6670 
 5049      753D6670 
 5049      76342D73 
 5049      702D6431 
 5050 0123 2D676764 		.ascii	"-ggdb -O2 -std=gnu99 -fomit-frame-pointer -falign-f"
 5050      62202D4F 
 5050      32202D73 
 5050      74643D67 
 5050      6E753939 
 5051 0156 756E6374 		.ascii	"unctions=16 -ffunction-sections -fdata-sections -fn"
 5051      696F6E73 
 5051      3D313620 
 5051      2D666675 
 5051      6E637469 
 5052 0189 6F2D636F 		.ascii	"o-common -fsingle-precision-constant\000"
 5052      6D6D6F6E 
 5052      202D6673 
 5052      696E676C 
 5052      652D7072 
 5053              	.LASF150:
 5054 01ae 706F7274 		.ascii	"port_lock\000"
 5054      5F6C6F63 
 5054      6B00
 5055              	.LASF144:
 5056 01b8 71756575 		.ascii	"queue_lifo_remove\000"
 5056      655F6C69 
 5056      666F5F72 
 5056      656D6F76 
 5056      6500
 5057              	.LASF133:
 5058 01ca 63685365 		.ascii	"chSemSignal\000"
 5058      6D536967 
 5058      6E616C00 
 5059              	.LASF114:
 5060 01d6 63685F74 		.ascii	"ch_threadsize\000"
 5060      68726561 
 5060      6473697A 
 5060      6500
 5061              	.LASF94:
 5062 01e4 65786974 		.ascii	"exitcode\000"
 5062      636F6465 
ARM GAS  /tmp/ccEshaLd.s 			page 91


 5062      00
 5063              	.LASF83:
 5064 01ed 6D61696E 		.ascii	"mainthread\000"
 5064      74687265 
 5064      616400
 5065              	.LASF131:
 5066 01f8 63685365 		.ascii	"chSemAddCounterI\000"
 5066      6D416464 
 5066      436F756E 
 5066      74657249 
 5066      00
 5067              	.LASF85:
 5068 0209 49544D5F 		.ascii	"ITM_RxBuffer\000"
 5068      52784275 
 5068      66666572 
 5068      00
 5069              	.LASF56:
 5070 0216 63685F74 		.ascii	"ch_threads_queue\000"
 5070      68726561 
 5070      64735F71 
 5070      75657565 
 5070      00
 5071              	.LASF32:
 5072 0227 705F7072 		.ascii	"p_prio\000"
 5072      696F00
 5073              	.LASF121:
 5074 022e 63665F6F 		.ascii	"cf_off_state\000"
 5074      66665F73 
 5074      74617465 
 5074      00
 5075              	.LASF75:
 5076 023b 76745F73 		.ascii	"vt_systime\000"
 5076      79737469 
 5076      6D6500
 5077              	.LASF11:
 5078 0246 6C6F6E67 		.ascii	"long long int\000"
 5078      206C6F6E 
 5078      6720696E 
 5078      7400
 5079              	.LASF1:
 5080 0254 7369676E 		.ascii	"signed char\000"
 5080      65642063 
 5080      68617200 
 5081              	.LASF135:
 5082 0260 63685365 		.ascii	"chSemSignalWait\000"
 5082      6D536967 
 5082      6E616C57 
 5082      61697400 
 5083              	.LASF122:
 5084 0270 63665F6F 		.ascii	"cf_off_flags\000"
 5084      66665F66 
 5084      6C616773 
 5084      00
 5085              	.LASF49:
 5086 027d 705F6D70 		.ascii	"p_mpool\000"
 5086      6F6F6C00 
 5087              	.LASF13:
ARM GAS  /tmp/ccEshaLd.s 			page 92


 5088 0285 6C6F6E67 		.ascii	"long long unsigned int\000"
 5088      206C6F6E 
 5088      6720756E 
 5088      7369676E 
 5088      65642069 
 5089              	.LASF104:
 5090 029c 6D5F7175 		.ascii	"m_queue\000"
 5090      65756500 
 5091              	.LASF82:
 5092 02a4 76746C69 		.ascii	"vtlist\000"
 5092      737400
 5093              	.LASF149:
 5094 02ab 706F7274 		.ascii	"port_unlock\000"
 5094      5F756E6C 
 5094      6F636B00 
 5095              	.LASF23:
 5096 02b7 74736C69 		.ascii	"tslices_t\000"
 5096      6365735F 
 5096      7400
 5097              	.LASF80:
 5098 02c1 63685F73 		.ascii	"ch_system\000"
 5098      79737465 
 5098      6D00
 5099              	.LASF8:
 5100 02cb 6C6F6E67 		.ascii	"long int\000"
 5100      20696E74 
 5100      00
 5101              	.LASF21:
 5102 02d4 74737461 		.ascii	"tstate_t\000"
 5102      74655F74 
 5102      00
 5103              	.LASF126:
 5104 02dd 63686465 		.ascii	"chdebug_t\000"
 5104      6275675F 
 5104      7400
 5105              	.LASF34:
 5106 02e7 705F6E65 		.ascii	"p_newer\000"
 5106      77657200 
 5107              	.LASF101:
 5108 02ef 735F7175 		.ascii	"s_queue\000"
 5108      65756500 
 5109              	.LASF154:
 5110 02f7 63685363 		.ascii	"chSchRescheduleS\000"
 5110      68526573 
 5110      63686564 
 5110      756C6553 
 5110      00
 5111              	.LASF22:
 5112 0308 74726566 		.ascii	"trefs_t\000"
 5112      735F7400 
 5113              	.LASF62:
 5114 0310 725F6E65 		.ascii	"r_newer\000"
 5114      77657200 
 5115              	.LASF87:
 5116 0318 72656761 		.ascii	"regarm_t\000"
 5116      726D5F74 
 5116      00
ARM GAS  /tmp/ccEshaLd.s 			page 93


 5117              	.LASF69:
 5118 0321 76745F70 		.ascii	"vt_prev\000"
 5118      72657600 
 5119              	.LASF129:
 5120 0329 6D757465 		.ascii	"mutex_t\000"
 5120      785F7400 
 5121              	.LASF84:
 5122 0331 69646C65 		.ascii	"idle_thread_wa\000"
 5122      5F746872 
 5122      6561645F 
 5122      776100
 5123              	.LASF142:
 5124 0340 63685365 		.ascii	"chSemObjectInit\000"
 5124      6D4F626A 
 5124      65637449 
 5124      6E697400 
 5125              	.LASF27:
 5126 0350 636E745F 		.ascii	"cnt_t\000"
 5126      7400
 5127              	.LASF37:
 5128 0356 705F7374 		.ascii	"p_stklimit\000"
 5128      6B6C696D 
 5128      697400
 5129              	.LASF0:
 5130 0361 756E7369 		.ascii	"unsigned int\000"
 5130      676E6564 
 5130      20696E74 
 5130      00
 5131              	.LASF136:
 5132 036e 63685365 		.ascii	"chSemWaitTimeout\000"
 5132      6D576169 
 5132      7454696D 
 5132      656F7574 
 5132      00
 5133              	.LASF68:
 5134 037f 76745F6E 		.ascii	"vt_next\000"
 5134      65787400 
 5135              	.LASF15:
 5136 0387 75696E74 		.ascii	"uint16_t\000"
 5136      31365F74 
 5136      00
 5137              	.LASF86:
 5138 0390 53797374 		.ascii	"SystemCoreClock\000"
 5138      656D436F 
 5138      7265436C 
 5138      6F636B00 
 5139              	.LASF42:
 5140 03a0 705F7469 		.ascii	"p_time\000"
 5140      6D6500
 5141              	.LASF97:
 5142 03a7 77747365 		.ascii	"wtsemp\000"
 5142      6D7000
 5143              	.LASF70:
 5144 03ae 76745F64 		.ascii	"vt_delta\000"
 5144      656C7461 
 5144      00
 5145              	.LASF44:
ARM GAS  /tmp/ccEshaLd.s 			page 94


 5146 03b7 705F6D73 		.ascii	"p_msgqueue\000"
 5146      67717565 
 5146      756500
 5147              	.LASF141:
 5148 03c2 63685365 		.ascii	"chSemReset\000"
 5148      6D526573 
 5148      657400
 5149              	.LASF127:
 5150 03cd 63685F64 		.ascii	"ch_debug\000"
 5150      65627567 
 5150      00
 5151              	.LASF102:
 5152 03d6 735F636E 		.ascii	"s_cnt\000"
 5152      7400
 5153              	.LASF6:
 5154 03dc 73686F72 		.ascii	"short unsigned int\000"
 5154      7420756E 
 5154      7369676E 
 5154      65642069 
 5154      6E7400
 5155              	.LASF53:
 5156 03ef 63685F74 		.ascii	"ch_thread\000"
 5156      68726561 
 5156      6400
 5157              	.LASF156:
 5158 03f9 63685363 		.ascii	"chSchWakeupS\000"
 5158      6857616B 
 5158      65757053 
 5158      00
 5159              	.LASF25:
 5160 0406 6D73675F 		.ascii	"msg_t\000"
 5160      7400
 5161              	.LASF79:
 5162 040c 63685F73 		.ascii	"ch_system_t\000"
 5162      79737465 
 5162      6D5F7400 
 5163              	.LASF125:
 5164 0418 63665F6F 		.ascii	"cf_off_time\000"
 5164      66665F74 
 5164      696D6500 
 5165              	.LASF58:
 5166 0424 63685F72 		.ascii	"ch_ready_list\000"
 5166      65616479 
 5166      5F6C6973 
 5166      7400
 5167              	.LASF26:
 5168 0432 6576656E 		.ascii	"eventmask_t\000"
 5168      746D6173 
 5168      6B5F7400 
 5169              	.LASF7:
 5170 043e 5F5F696E 		.ascii	"__int32_t\000"
 5170      7433325F 
 5170      7400
 5171              	.LASF73:
 5172 0448 76697274 		.ascii	"virtual_timers_list_t\000"
 5172      75616C5F 
 5172      74696D65 
ARM GAS  /tmp/ccEshaLd.s 			page 95


 5172      72735F6C 
 5172      6973745F 
 5173              	.LASF88:
 5174 045e 73746B61 		.ascii	"stkalign_t\000"
 5174      6C69676E 
 5174      5F7400
 5175              	.LASF109:
 5176 0469 63685F7A 		.ascii	"ch_zero\000"
 5176      65726F00 
 5177              	.LASF159:
 5178 0471 43686962 		.ascii	"ChibiOS_3.0.5/os/rt/src/chsem.c\000"
 5178      694F535F 
 5178      332E302E 
 5178      352F6F73 
 5178      2F72742F 
 5179              	.LASF43:
 5180 0491 705F7761 		.ascii	"p_waiting\000"
 5180      6974696E 
 5180      6700
 5181              	.LASF19:
 5182 049b 7274636E 		.ascii	"rtcnt_t\000"
 5182      745F7400 
 5183              	.LASF74:
 5184 04a3 63685F76 		.ascii	"ch_virtual_timers_list\000"
 5184      69727475 
 5184      616C5F74 
 5184      696D6572 
 5184      735F6C69 
 5185              	.LASF113:
 5186 04ba 63685F74 		.ascii	"ch_timesize\000"
 5186      696D6573 
 5186      697A6500 
 5187              	.LASF119:
 5188 04c6 63665F6F 		.ascii	"cf_off_name\000"
 5188      66665F6E 
 5188      616D6500 
 5189              	.LASF148:
 5190 04d2 63685379 		.ascii	"chSysLock\000"
 5190      734C6F63 
 5190      6B00
 5191              	.LASF35:
 5192 04dc 705F6F6C 		.ascii	"p_older\000"
 5192      64657200 
 5193              	.LASF61:
 5194 04e4 725F6374 		.ascii	"r_ctx\000"
 5194      7800
 5195              	.LASF33:
 5196 04ea 705F6374 		.ascii	"p_ctx\000"
 5196      7800
 5197              	.LASF92:
 5198 04f0 746D5F63 		.ascii	"tm_calibration_t\000"
 5198      616C6962 
 5198      72617469 
 5198      6F6E5F74 
 5198      00
 5199              	.LASF106:
 5200 0501 6D5F6E65 		.ascii	"m_next\000"
ARM GAS  /tmp/ccEshaLd.s 			page 96


 5200      787400
 5201              	.LASF134:
 5202 0508 74696D65 		.ascii	"time\000"
 5202      00
 5203              	.LASF64:
 5204 050d 725F6375 		.ascii	"r_current\000"
 5204      7272656E 
 5204      7400
 5205              	.LASF63:
 5206 0517 725F6F6C 		.ascii	"r_older\000"
 5206      64657200 
 5207              	.LASF152:
 5208 051f 5F5F656E 		.ascii	"__enable_irq\000"
 5208      61626C65 
 5208      5F697271 
 5208      00
 5209              	.LASF12:
 5210 052c 5F5F7569 		.ascii	"__uint64_t\000"
 5210      6E743634 
 5210      5F7400
 5211              	.LASF151:
 5212 0537 5F5F6469 		.ascii	"__disable_irq\000"
 5212      7361626C 
 5212      655F6972 
 5212      7100
 5213              	.LASF112:
 5214 0545 63685F70 		.ascii	"ch_ptrsize\000"
 5214      74727369 
 5214      7A6500
 5215              	.LASF66:
 5216 0550 76697274 		.ascii	"virtual_timer_t\000"
 5216      75616C5F 
 5216      74696D65 
 5216      725F7400 
 5217              	.LASF31:
 5218 0560 705F7072 		.ascii	"p_prev\000"
 5218      657600
 5219              	.LASF24:
 5220 0567 74707269 		.ascii	"tprio_t\000"
 5220      6F5F7400 
 5221              	.LASF77:
 5222 056f 63685F73 		.ascii	"ch_system_debug\000"
 5222      79737465 
 5222      6D5F6465 
 5222      62756700 
 5223              	.LASF16:
 5224 057f 696E7433 		.ascii	"int32_t\000"
 5224      325F7400 
 5225              	.LASF2:
 5226 0587 756E7369 		.ascii	"unsigned char\000"
 5226      676E6564 
 5226      20636861 
 5226      7200
 5227              	.LASF47:
 5228 0595 705F6D74 		.ascii	"p_mtxlist\000"
 5228      786C6973 
 5228      7400
ARM GAS  /tmp/ccEshaLd.s 			page 97


 5229              	.LASF3:
 5230 059f 73686F72 		.ascii	"short int\000"
 5230      7420696E 
 5230      7400
 5231              	.LASF38:
 5232 05a9 705F7374 		.ascii	"p_state\000"
 5232      61746500 
 5233              	.LASF41:
 5234 05b1 705F7072 		.ascii	"p_preempt\000"
 5234      65656D70 
 5234      7400
 5235              	.LASF60:
 5236 05bb 725F7072 		.ascii	"r_prio\000"
 5236      696F00
 5237              	.LASF99:
 5238 05c2 65776D61 		.ascii	"ewmask\000"
 5238      736B00
 5239              	.LASF30:
 5240 05c9 705F6E65 		.ascii	"p_next\000"
 5240      787400
 5241              	.LASF20:
 5242 05d0 746D6F64 		.ascii	"tmode_t\000"
 5242      655F7400 
 5243              	.LASF124:
 5244 05d8 63665F6F 		.ascii	"cf_off_preempt\000"
 5244      66665F70 
 5244      7265656D 
 5244      707400
 5245              	.LASF39:
 5246 05e7 705F666C 		.ascii	"p_flags\000"
 5246      61677300 
 5247              	.LASF130:
 5248 05ef 5F5F6675 		.ascii	"__func__\000"
 5248      6E635F5F 
 5248      00
 5249              	.LASF138:
 5250 05f8 63685365 		.ascii	"chSemWaitS\000"
 5250      6D576169 
 5250      745300
 5251              	.LASF128:
 5252 0603 73656D61 		.ascii	"semaphore_t\000"
 5252      70686F72 
 5252      655F7400 
 5253              	.LASF55:
 5254 060f 74687265 		.ascii	"threads_queue_t\000"
 5254      6164735F 
 5254      71756575 
 5254      655F7400 
 5255              	.LASF67:
 5256 061f 63685F76 		.ascii	"ch_virtual_timer\000"
 5256      69727475 
 5256      616C5F74 
 5256      696D6572 
 5256      00
 5257              	.LASF117:
 5258 0630 63665F6F 		.ascii	"cf_off_newer\000"
 5258      66665F6E 
ARM GAS  /tmp/ccEshaLd.s 			page 98


 5258      65776572 
 5258      00
 5259              	.LASF100:
 5260 063d 63685F73 		.ascii	"ch_semaphore\000"
 5260      656D6170 
 5260      686F7265 
 5260      00
 5261              	.LASF153:
 5262 064a 63685363 		.ascii	"chSchGoSleepS\000"
 5262      68476F53 
 5262      6C656570 
 5262      5300
 5263              	.LASF46:
 5264 0658 705F6570 		.ascii	"p_epending\000"
 5264      656E6469 
 5264      6E6700
 5265              	.LASF160:
 5266 0663 2F626C64 		.ascii	"/bldc\000"
 5266      6300
 5267              	.LASF17:
 5268 0669 75696E74 		.ascii	"uint32_t\000"
 5268      33325F74 
 5268      00
 5269              	.LASF115:
 5270 0672 63665F6F 		.ascii	"cf_off_prio\000"
 5270      66665F70 
 5270      72696F00 
 5271              	.LASF59:
 5272 067e 725F7175 		.ascii	"r_queue\000"
 5272      65756500 
 5273              	.LASF155:
 5274 0686 63685363 		.ascii	"chSchReadyI\000"
 5274      68526561 
 5274      64794900 
 5275              	.LASF54:
 5276 0692 63685F74 		.ascii	"ch_threads_list\000"
 5276      68726561 
 5276      64735F6C 
 5276      69737400 
 5277              	.LASF110:
 5278 06a2 63685F73 		.ascii	"ch_size\000"
 5278      697A6500 
 5279              	.LASF10:
 5280 06aa 6C6F6E67 		.ascii	"long unsigned int\000"
 5280      20756E73 
 5280      69676E65 
 5280      6420696E 
 5280      7400
 5281              	.LASF107:
 5282 06bc 63686172 		.ascii	"char\000"
 5282      00
 5283              	.LASF98:
 5284 06c1 77746D74 		.ascii	"wtmtxp\000"
 5284      787000
 5285              	.LASF137:
 5286 06c8 63685365 		.ascii	"chSemWaitTimeoutS\000"
 5286      6D576169 
ARM GAS  /tmp/ccEshaLd.s 			page 99


 5286      7454696D 
 5286      656F7574 
 5286      5300
 5287              	.LASF5:
 5288 06da 5F5F7569 		.ascii	"__uint16_t\000"
 5288      6E743136 
 5288      5F7400
 5289              	.LASF29:
 5290 06e5 74687265 		.ascii	"thread_t\000"
 5290      61645F74 
 5290      00
 5291              	.LASF145:
 5292 06ee 71756575 		.ascii	"queue_fifo_remove\000"
 5292      655F6669 
 5292      666F5F72 
 5292      656D6F76 
 5292      6500
 5293              	.LASF28:
 5294 0700 73797374 		.ascii	"systime_t\000"
 5294      696D655F 
 5294      7400
 5295              	.LASF48:
 5296 070a 705F7265 		.ascii	"p_realprio\000"
 5296      616C7072 
 5296      696F00
 5297              	.LASF65:
 5298 0715 76746675 		.ascii	"vtfunc_t\000"
 5298      6E635F74 
 5298      00
 5299              	.LASF9:
 5300 071e 5F5F7569 		.ascii	"__uint32_t\000"
 5300      6E743332 
 5300      5F7400
 5301              	.LASF139:
 5302 0729 63685365 		.ascii	"chSemWait\000"
 5302      6D576169 
 5302      7400
 5303              	.LASF78:
 5304 0733 70616E69 		.ascii	"panic_msg\000"
 5304      635F6D73 
 5304      6700
 5305              	.LASF91:
 5306 073d 6F666673 		.ascii	"offset\000"
 5306      657400
 5307              	.LASF89:
 5308 0744 636F6E74 		.ascii	"context\000"
 5308      65787400 
 5309              	.LASF45:
 5310 074c 705F6D73 		.ascii	"p_msg\000"
 5310      6700
 5311              	.LASF72:
 5312 0752 76745F70 		.ascii	"vt_par\000"
 5312      617200
 5313              	.LASF116:
 5314 0759 63665F6F 		.ascii	"cf_off_ctx\000"
 5314      66665F63 
 5314      747800
ARM GAS  /tmp/ccEshaLd.s 			page 100


 5315              	.LASF103:
 5316 0764 63685F6D 		.ascii	"ch_mutex\000"
 5316      75746578 
 5316      00
 5317              	.LASF40:
 5318 076d 705F7265 		.ascii	"p_refs\000"
 5318      667300
 5319              	.LASF50:
 5320 0774 6D6F746F 		.ascii	"motor_selected\000"
 5320      725F7365 
 5320      6C656374 
 5320      656400
 5321              	.LASF140:
 5322 0783 63685365 		.ascii	"chSemResetI\000"
 5322      6D526573 
 5322      65744900 
 5323              	.LASF81:
 5324 078f 726C6973 		.ascii	"rlist\000"
 5324      7400
 5325              	.LASF14:
 5326 0795 75696E74 		.ascii	"uint8_t\000"
 5326      385F7400 
 5327              	.LASF51:
 5328 079d 74687265 		.ascii	"thread_reference_t\000"
 5328      61645F72 
 5328      65666572 
 5328      656E6365 
 5328      5F7400
 5329              	.LASF95:
 5330 07b0 77746F62 		.ascii	"wtobjp\000"
 5330      6A7000
 5331              	.LASF36:
 5332 07b7 705F6E61 		.ascii	"p_name\000"
 5332      6D6500
 5333              	.LASF52:
 5334 07be 74687265 		.ascii	"threads_list_t\000"
 5334      6164735F 
 5334      6C697374 
 5334      5F7400
 5335              	.LASF157:
 5336 07cd 63685363 		.ascii	"chSchGoSleepTimeoutS\000"
 5336      68476F53 
 5336      6C656570 
 5336      54696D65 
 5336      6F757453 
 5337              	.LASF143:
 5338 07e2 63685379 		.ascii	"chSysUnlock\000"
 5338      73556E6C 
 5338      6F636B00 
 5339              	.LASF111:
 5340 07ee 63685F76 		.ascii	"ch_version\000"
 5340      65727369 
 5340      6F6E00
 5341              	.LASF123:
 5342 07f9 63665F6F 		.ascii	"cf_off_refs\000"
 5342      66665F72 
 5342      65667300 
ARM GAS  /tmp/ccEshaLd.s 			page 101


 5343              	.LASF105:
 5344 0805 6D5F6F77 		.ascii	"m_owner\000"
 5344      6E657200 
 5345              	.LASF108:
 5346 080d 63685F69 		.ascii	"ch_identifier\000"
 5346      64656E74 
 5346      69666965 
 5346      7200
 5347              	.LASF71:
 5348 081b 76745F66 		.ascii	"vt_func\000"
 5348      756E6300 
 5349              		.ident	"GCC: (GNU Tools for Arm Embedded Processors 7-2018-q3-update) 7.3.1 20180622 (release) [AR
ARM GAS  /tmp/ccEshaLd.s 			page 102


DEFINED SYMBOLS
                            *ABS*:0000000000000000 chsem.c
     /tmp/ccEshaLd.s:18     .text.chSemObjectInit:0000000000000000 $t
     /tmp/ccEshaLd.s:26     .text.chSemObjectInit:0000000000000000 chSemObjectInit
     /tmp/ccEshaLd.s:51     .text.chSemResetI:0000000000000000 $t
     /tmp/ccEshaLd.s:59     .text.chSemResetI:0000000000000000 chSemResetI
     /tmp/ccEshaLd.s:120    .text.chSemReset:0000000000000000 $t
     /tmp/ccEshaLd.s:128    .text.chSemReset:0000000000000000 chSemReset
     /tmp/ccEshaLd.s:184    .text.chSemWait:0000000000000000 $t
     /tmp/ccEshaLd.s:192    .text.chSemWait:0000000000000000 chSemWait
     /tmp/ccEshaLd.s:323    .text.chSemWait:0000000000000034 $d
     /tmp/ccEshaLd.s:328    .text.chSemWaitS:0000000000000000 $t
     /tmp/ccEshaLd.s:336    .text.chSemWaitS:0000000000000000 chSemWaitS
     /tmp/ccEshaLd.s:409    .text.chSemWaitS:0000000000000030 $d
     /tmp/ccEshaLd.s:414    .text.chSemWaitTimeout:0000000000000000 $t
     /tmp/ccEshaLd.s:422    .text.chSemWaitTimeout:0000000000000000 chSemWaitTimeout
     /tmp/ccEshaLd.s:562    .text.chSemWaitTimeout:000000000000003c $d
     /tmp/ccEshaLd.s:569    .text.chSemWaitTimeoutS:0000000000000000 $t
     /tmp/ccEshaLd.s:577    .text.chSemWaitTimeoutS:0000000000000000 chSemWaitTimeoutS
     /tmp/ccEshaLd.s:666    .text.chSemWaitTimeoutS:000000000000003c $d
     /tmp/ccEshaLd.s:671    .text.chSemSignal:0000000000000000 $t
     /tmp/ccEshaLd.s:679    .text.chSemSignal:0000000000000000 chSemSignal
     /tmp/ccEshaLd.s:778    .text.chSemSignalI:0000000000000000 $t
     /tmp/ccEshaLd.s:786    .text.chSemSignalI:0000000000000000 chSemSignalI
     /tmp/ccEshaLd.s:837    .text.chSemAddCounterI:0000000000000000 $t
     /tmp/ccEshaLd.s:845    .text.chSemAddCounterI:0000000000000000 chSemAddCounterI
     /tmp/ccEshaLd.s:912    .text.chSemSignalWait:0000000000000000 $t
     /tmp/ccEshaLd.s:920    .text.chSemSignalWait:0000000000000000 chSemSignalWait
     /tmp/ccEshaLd.s:1070   .text.chSemSignalWait:0000000000000054 $d

UNDEFINED SYMBOLS
chSchReadyI
chSchRescheduleS
chSchGoSleepS
ch
chSchGoSleepTimeoutS
chSchWakeupS
