ARM GAS  /tmp/cc37KnWA.s 			page 1


   1              		.cpu cortex-m4
   2              		.eabi_attribute 27, 1
   3              		.eabi_attribute 28, 1
   4              		.eabi_attribute 20, 1
   5              		.eabi_attribute 21, 1
   6              		.eabi_attribute 23, 3
   7              		.eabi_attribute 24, 1
   8              		.eabi_attribute 25, 1
   9              		.eabi_attribute 26, 1
  10              		.eabi_attribute 30, 2
  11              		.eabi_attribute 34, 1
  12              		.eabi_attribute 18, 4
  13              		.file	"chsys.c"
  14              		.text
  15              	.Ltext0:
  16              		.cfi_sections	.debug_frame
  17              		.section	.text._idle_thread,"ax",%progbits
  18              		.align	1
  19              		.p2align 4,,15
  20              		.syntax unified
  21              		.thumb
  22              		.thumb_func
  23              		.fpu fpv4-sp-d16
  24              		.type	_idle_thread, %function
  25              	_idle_thread:
  26              	.LFB219:
  27              		.file 1 "ChibiOS_3.0.5/os/rt/src/chsys.c"
  28              		.loc 1 65 0
  29              		.cfi_startproc
  30              		@ Volatile: function does not return.
  31              		@ args = 0, pretend = 0, frame = 0
  32              		@ frame_needed = 0, uses_anonymous_args = 0
  33              		@ link register save eliminated.
  34              	.LVL0:
  35              	.L2:
  36 0000 FEE7     		b	.L2
  37              		.cfi_endproc
  38              	.LFE219:
  39              		.size	_idle_thread, .-_idle_thread
  40 0002 00BF     		.section	.text.chSysInit,"ax",%progbits
  41              		.align	1
  42              		.p2align 4,,15
  43              		.global	chSysInit
  44              		.syntax unified
  45              		.thumb
  46              		.thumb_func
  47              		.fpu fpv4-sp-d16
  48              		.type	chSysInit, %function
  49              	chSysInit:
  50              	.LFB220:
  51              		.loc 1 93 0
  52              		.cfi_startproc
  53              		@ args = 0, pretend = 0, frame = 0
  54              		@ frame_needed = 0, uses_anonymous_args = 0
  55              	.LBB127:
  56              	.LBB128:
  57              		.file 2 "ChibiOS_3.0.5/os/rt/ports/ARMCMx/chcore_v7m.h"
ARM GAS  /tmp/cc37KnWA.s 			page 2


  58              		.loc 2 377 0
  59 0000 1F4B     		ldr	r3, .L6
  60              	.LBB129:
  61              	.LBB130:
  62              		.file 3 "ChibiOS_3.0.5/os/ext/CMSIS/include/core_cm4.h"
  63              		.loc 3 1442 0
  64 0002 204A     		ldr	r2, .L6+4
  65              	.LBE130:
  66              	.LBE129:
  67              		.loc 2 383 0
  68 0004 2048     		ldr	r0, .L6+8
  69              	.LBE128:
  70              	.LBE127:
  71              		.loc 1 93 0
  72 0006 30B5     		push	{r4, r5, lr}
  73              		.cfi_def_cfa_offset 12
  74              		.cfi_offset 4, -12
  75              		.cfi_offset 5, -8
  76              		.cfi_offset 14, -4
  77              	.LBB138:
  78              	.LBB135:
  79              		.loc 2 377 0
  80 0008 0024     		movs	r4, #0
  81 000a 9C60     		str	r4, [r3, #8]
  82              	.LVL1:
  83              	.LBB132:
  84              	.LBB131:
  85              		.loc 3 1440 0
  86 000c D968     		ldr	r1, [r3, #12]
  87              	.LVL2:
  88              		.loc 3 1441 0
  89 000e 4FF6FF05 		movw	r5, #63743
  90 0012 2940     		ands	r1, r1, r5
  91              	.LVL3:
  92              		.loc 3 1442 0
  93 0014 0A43     		orrs	r2, r2, r1
  94              	.LVL4:
  95              		.loc 3 1445 0
  96 0016 DA60     		str	r2, [r3, #12]
  97              	.LVL5:
  98              	.LBE131:
  99              	.LBE132:
 100              		.loc 2 383 0
 101 0018 C268     		ldr	r2, [r0, #12]
 102              		.loc 2 384 0
 103 001a 1C49     		ldr	r1, .L6+12
 104              	.LBE135:
 105              	.LBE138:
 106              		.loc 1 119 0
 107 001c 1C4D     		ldr	r5, .L6+16
 108              	.LBB139:
 109              	.LBB136:
 110              		.loc 2 383 0
 111 001e 42F08072 		orr	r2, r2, #16777216
 112 0022 C260     		str	r2, [r0, #12]
 113              		.loc 2 384 0
 114 0024 0A68     		ldr	r2, [r1]
ARM GAS  /tmp/cc37KnWA.s 			page 3


 115 0026 42F00102 		orr	r2, r2, #1
 116              	.LBE136:
 117              	.LBE139:
 118              		.loc 1 93 0
 119 002a 83B0     		sub	sp, sp, #12
 120              		.cfi_def_cfa_offset 24
 121              	.LBB140:
 122              	.LBB137:
 123              		.loc 2 384 0
 124 002c 0A60     		str	r2, [r1]
 125              	.LVL6:
 126              	.LBB133:
 127              	.LBB134:
 128              		.loc 3 1553 0
 129 002e 83F82240 		strb	r4, [r3, #34]
 130              	.LVL7:
 131              	.LBE134:
 132              	.LBE133:
 133              	.LBE137:
 134              	.LBE140:
 135              		.loc 1 99 0
 136 0032 FFF7FEFF 		bl	_scheduler_init
 137              	.LVL8:
 138              		.loc 1 100 0
 139 0036 FFF7FEFF 		bl	_vt_init
 140              	.LVL9:
 141              		.loc 1 102 0
 142 003a FFF7FEFF 		bl	_tm_init
 143              	.LVL10:
 144              		.loc 1 105 0
 145 003e FFF7FEFF 		bl	_core_init
 146              	.LVL11:
 147              		.loc 1 108 0
 148 0042 FFF7FEFF 		bl	_heap_init
 149              	.LVL12:
 150              		.loc 1 119 0
 151 0046 2846     		mov	r0, r5
 152 0048 4021     		movs	r1, #64
 153 004a FFF7FEFF 		bl	_thread_init
 154              	.LVL13:
 155 004e A5F13003 		sub	r3, r5, #48
 156              		.loc 1 129 0
 157 0052 104A     		ldr	r2, .L6+20
 158 0054 C261     		str	r2, [r0, #28]
 159              		.loc 1 125 0
 160 0056 0122     		movs	r2, #1
 161              		.loc 1 119 0
 162 0058 9861     		str	r0, [r3, #24]
 163              		.loc 1 125 0
 164 005a 80F82020 		strb	r2, [r0, #32]
 165              	.LBB141:
 166              	.LBB142:
 167              	.LBB143:
 168              	.LBB144:
 169              		.file 4 "ChibiOS_3.0.5/os/ext/CMSIS/include/core_cmFunc.h"
 170              		.loc 4 331 0
 171              		.syntax unified
ARM GAS  /tmp/cc37KnWA.s 			page 4


 172              	@ 331 "ChibiOS_3.0.5/os/ext/CMSIS/include/core_cmFunc.h" 1
 173 005e 62B6     		cpsie i
 174              	@ 0 "" 2
 175              	.LVL14:
 176              		.thumb
 177              		.syntax unified
 178              	.LBE144:
 179              	.LBE143:
 180              	.LBE142:
 181              	.LBE141:
 182              	.LBB145:
 183              	.LBB146:
 184              		.file 5 "ChibiOS_3.0.5/os/rt/include/chregistry.h"
 185              		.loc 5 135 0
 186 0060 9B69     		ldr	r3, [r3, #24]
 187 0062 0D49     		ldr	r1, .L6+24
 188 0064 9961     		str	r1, [r3, #24]
 189              	.LVL15:
 190              	.LBE146:
 191              	.LBE145:
 192              	.LBB147:
 193              		.loc 1 144 0
 194 0066 05F15800 		add	r0, r5, #88
 195 006a 0094     		str	r4, [sp]
 196 006c 0B4B     		ldr	r3, .L6+28
 197 006e 4FF4F071 		mov	r1, #480
 198 0072 FFF7FEFF 		bl	chThdCreateStatic
 199              	.LVL16:
 200              	.LBB148:
 201              	.LBB149:
 202              		.loc 5 175 0
 203 0076 0A4B     		ldr	r3, .L6+32
 204 0078 8361     		str	r3, [r0, #24]
 205              	.LVL17:
 206              	.LBE149:
 207              	.LBE148:
 208              	.LBE147:
 209              		.loc 1 152 0
 210 007a 03B0     		add	sp, sp, #12
 211              		.cfi_def_cfa_offset 12
 212              		@ sp needed
 213 007c 30BD     		pop	{r4, r5, pc}
 214              	.L7:
 215 007e 00BF     		.align	2
 216              	.L6:
 217 0080 00ED00E0 		.word	-536810240
 218 0084 0003FA05 		.word	100270848
 219 0088 F0ED00E0 		.word	-536810000
 220 008c 001000E0 		.word	-536866816
 221 0090 30000000 		.word	ch+48
 222 0094 00000000 		.word	__main_thread_stack_base__
 223 0098 00000000 		.word	ch_debug
 224 009c 00000000 		.word	_idle_thread
 225 00a0 00000000 		.word	.LC0
 226              		.cfi_endproc
 227              	.LFE220:
 228              		.size	chSysInit, .-chSysInit
ARM GAS  /tmp/cc37KnWA.s 			page 5


 229              		.section	.text.chSysHalt,"ax",%progbits
 230              		.align	1
 231              		.p2align 4,,15
 232              		.global	chSysHalt
 233              		.syntax unified
 234              		.thumb
 235              		.thumb_func
 236              		.fpu fpv4-sp-d16
 237              		.type	chSysHalt, %function
 238              	chSysHalt:
 239              	.LFB221:
 240              		.loc 1 166 0
 241              		.cfi_startproc
 242              		@ Volatile: function does not return.
 243              		@ args = 0, pretend = 0, frame = 0
 244              		@ frame_needed = 0, uses_anonymous_args = 0
 245              		@ link register save eliminated.
 246              	.LVL18:
 247              	.LBB150:
 248              	.LBB151:
 249              	.LBB152:
 250              		.loc 4 342 0
 251              		.syntax unified
 252              	@ 342 "ChibiOS_3.0.5/os/ext/CMSIS/include/core_cmFunc.h" 1
 253 0000 72B6     		cpsid i
 254              	@ 0 "" 2
 255              		.thumb
 256              		.syntax unified
 257              	.LBE152:
 258              	.LBE151:
 259              	.LBE150:
 260              		.loc 1 175 0
 261 0002 014B     		ldr	r3, .L10
 262 0004 D862     		str	r0, [r3, #44]
 263              	.L9:
 264 0006 FEE7     		b	.L9
 265              	.L11:
 266              		.align	2
 267              	.L10:
 268 0008 00000000 		.word	ch
 269              		.cfi_endproc
 270              	.LFE221:
 271              		.size	chSysHalt, .-chSysHalt
 272              		.section	.text.chSysIntegrityCheckI,"ax",%progbits
 273              		.align	1
 274              		.p2align 4,,15
 275              		.global	chSysIntegrityCheckI
 276              		.syntax unified
 277              		.thumb
 278              		.thumb_func
 279              		.fpu fpv4-sp-d16
 280              		.type	chSysIntegrityCheckI, %function
 281              	chSysIntegrityCheckI:
 282              	.LFB222:
 283              		.loc 1 206 0
 284              		.cfi_startproc
 285              		@ args = 0, pretend = 0, frame = 0
ARM GAS  /tmp/cc37KnWA.s 			page 6


 286              		@ frame_needed = 0, uses_anonymous_args = 0
 287              		@ link register save eliminated.
 288              	.LVL19:
 289              		.loc 1 212 0
 290 0000 C207     		lsls	r2, r0, #31
 291              		.loc 1 206 0
 292 0002 10B4     		push	{r4}
 293              		.cfi_def_cfa_offset 4
 294              		.cfi_offset 4, -4
 295              		.loc 1 212 0
 296 0004 12D5     		bpl	.L13
 297              	.LVL20:
 298              	.LBB153:
 299              		.loc 1 217 0
 300 0006 2A4B     		ldr	r3, .L56
 301 0008 D3E90014 		ldrd	r1, r4, [r3]
 302              		.loc 1 218 0
 303 000c 9942     		cmp	r1, r3
 304 000e 43D0     		beq	.L14
 305              		.loc 1 216 0
 306 0010 0022     		movs	r2, #0
 307              	.LVL21:
 308              	.L15:
 309              		.loc 1 220 0
 310 0012 0968     		ldr	r1, [r1]
 311              	.LVL22:
 312              		.loc 1 218 0
 313 0014 9942     		cmp	r1, r3
 314              		.loc 1 219 0
 315 0016 02F10102 		add	r2, r2, #1
 316              	.LVL23:
 317              		.loc 1 218 0
 318 001a FAD1     		bne	.L15
 319              	.LVL24:
 320              		.loc 1 225 0
 321 001c 8C42     		cmp	r4, r1
 322 001e 37D0     		beq	.L39
 323              	.LVL25:
 324              	.L19:
 325              		.loc 1 227 0
 326 0020 6468     		ldr	r4, [r4, #4]
 327              	.LVL26:
 328              		.loc 1 225 0
 329 0022 9C42     		cmp	r4, r3
 330              		.loc 1 226 0
 331 0024 02F1FF32 		add	r2, r2, #-1
 332              	.LVL27:
 333              		.loc 1 225 0
 334 0028 FAD1     		bne	.L19
 335              		.loc 1 231 0
 336 002a 8ABB     		cbnz	r2, .L39
 337              	.LVL28:
 338              	.L13:
 339              	.LBE153:
 340              		.loc 1 237 0
 341 002c 8307     		lsls	r3, r0, #30
 342 002e 13D5     		bpl	.L20
ARM GAS  /tmp/cc37KnWA.s 			page 7


 343              	.LVL29:
 344              	.LBB154:
 345              		.loc 1 242 0
 346 0030 1F4C     		ldr	r4, .L56
 347 0032 D4E90721 		ldrd	r2, r1, [r4, #28]
 348              		.loc 1 243 0
 349 0036 1C34     		adds	r4, r4, #28
 350 0038 A242     		cmp	r2, r4
 351 003a 31D0     		beq	.L21
 352              		.loc 1 241 0
 353 003c 0023     		movs	r3, #0
 354              	.LVL30:
 355              	.L22:
 356              		.loc 1 245 0
 357 003e 1268     		ldr	r2, [r2]
 358              	.LVL31:
 359              		.loc 1 243 0
 360 0040 A242     		cmp	r2, r4
 361              		.loc 1 244 0
 362 0042 03F10103 		add	r3, r3, #1
 363              	.LVL32:
 364              		.loc 1 243 0
 365 0046 FAD1     		bne	.L22
 366              	.LVL33:
 367              		.loc 1 250 0
 368 0048 9142     		cmp	r1, r2
 369 004a 21D0     		beq	.L39
 370              	.LVL34:
 371              	.L25:
 372              		.loc 1 252 0
 373 004c 4968     		ldr	r1, [r1, #4]
 374              	.LVL35:
 375              		.loc 1 250 0
 376 004e A142     		cmp	r1, r4
 377              		.loc 1 251 0
 378 0050 03F1FF33 		add	r3, r3, #-1
 379              	.LVL36:
 380              		.loc 1 250 0
 381 0054 FAD1     		bne	.L25
 382              		.loc 1 256 0
 383 0056 DBB9     		cbnz	r3, .L39
 384              	.LVL37:
 385              	.L20:
 386              	.LBE154:
 387              		.loc 1 262 0
 388 0058 10F00400 		ands	r0, r0, #4
 389              	.LVL38:
 390 005c 15D0     		beq	.L18
 391              	.LVL39:
 392              	.LBB155:
 393              		.loc 1 267 0
 394 005e 144B     		ldr	r3, .L56
 395 0060 D3E90421 		ldrd	r2, r1, [r3, #16]
 396              		.loc 1 268 0
 397 0064 9A42     		cmp	r2, r3
 398              		.loc 1 266 0
 399 0066 4FF00000 		mov	r0, #0
ARM GAS  /tmp/cc37KnWA.s 			page 8


 400              		.loc 1 268 0
 401 006a 1DD0     		beq	.L26
 402              	.LVL40:
 403              	.L27:
 404              		.loc 1 270 0
 405 006c 1269     		ldr	r2, [r2, #16]
 406              	.LVL41:
 407              		.loc 1 268 0
 408 006e 9A42     		cmp	r2, r3
 409              		.loc 1 269 0
 410 0070 00F10100 		add	r0, r0, #1
 411              	.LVL42:
 412              		.loc 1 268 0
 413 0074 FAD1     		bne	.L27
 414              	.LVL43:
 415              		.loc 1 275 0
 416 0076 9142     		cmp	r1, r2
 417 0078 0AD0     		beq	.L39
 418              	.LVL44:
 419              	.L30:
 420              		.loc 1 277 0
 421 007a 4969     		ldr	r1, [r1, #20]
 422              	.LVL45:
 423              		.loc 1 275 0
 424 007c 9942     		cmp	r1, r3
 425              		.loc 1 276 0
 426 007e 00F1FF30 		add	r0, r0, #-1
 427              	.LVL46:
 428              		.loc 1 275 0
 429 0082 FAD1     		bne	.L30
 430              		.loc 1 281 0
 431 0084 0030     		adds	r0, r0, #0
 432 0086 18BF     		it	ne
 433 0088 0120     		movne	r0, #1
 434              	.LVL47:
 435              	.L18:
 436              	.LBE155:
 437              		.loc 1 294 0
 438 008a 5DF8044B 		ldr	r4, [sp], #4
 439              		.cfi_remember_state
 440              		.cfi_restore 4
 441              		.cfi_def_cfa_offset 0
 442 008e 7047     		bx	lr
 443              	.L39:
 444              		.cfi_restore_state
 445              	.LBB156:
 446              		.loc 1 232 0
 447 0090 0120     		movs	r0, #1
 448              	.LBE156:
 449              		.loc 1 294 0
 450 0092 5DF8044B 		ldr	r4, [sp], #4
 451              		.cfi_remember_state
 452              		.cfi_restore 4
 453              		.cfi_def_cfa_offset 0
 454 0096 7047     		bx	lr
 455              	.LVL48:
 456              	.L14:
ARM GAS  /tmp/cc37KnWA.s 			page 9


 457              		.cfi_restore_state
 458              	.LBB157:
 459              		.loc 1 225 0
 460 0098 9C42     		cmp	r4, r3
 461 009a C7D0     		beq	.L13
 462              		.loc 1 216 0
 463 009c 0022     		movs	r2, #0
 464 009e BFE7     		b	.L19
 465              	.LVL49:
 466              	.L21:
 467              	.LBE157:
 468              	.LBB158:
 469              		.loc 1 250 0
 470 00a0 A142     		cmp	r1, r4
 471 00a2 D9D0     		beq	.L20
 472              		.loc 1 241 0
 473 00a4 0023     		movs	r3, #0
 474 00a6 D1E7     		b	.L25
 475              	.LVL50:
 476              	.L26:
 477              	.LBE158:
 478              	.LBB159:
 479              		.loc 1 275 0
 480 00a8 9142     		cmp	r1, r2
 481 00aa E6D1     		bne	.L30
 482 00ac EDE7     		b	.L18
 483              	.L57:
 484 00ae 00BF     		.align	2
 485              	.L56:
 486 00b0 00000000 		.word	ch
 487              	.LBE159:
 488              		.cfi_endproc
 489              	.LFE222:
 490              		.size	chSysIntegrityCheckI, .-chSysIntegrityCheckI
 491              		.section	.text.chSysTimerHandlerI,"ax",%progbits
 492              		.align	1
 493              		.p2align 4,,15
 494              		.global	chSysTimerHandlerI
 495              		.syntax unified
 496              		.thumb
 497              		.thumb_func
 498              		.fpu fpv4-sp-d16
 499              		.type	chSysTimerHandlerI, %function
 500              	chSysTimerHandlerI:
 501              	.LFB223:
 502              		.loc 1 307 0
 503              		.cfi_startproc
 504              		@ args = 0, pretend = 0, frame = 0
 505              		@ frame_needed = 0, uses_anonymous_args = 0
 506 0000 70B5     		push	{r4, r5, r6, lr}
 507              		.cfi_def_cfa_offset 16
 508              		.cfi_offset 4, -16
 509              		.cfi_offset 5, -12
 510              		.cfi_offset 6, -8
 511              		.cfi_offset 14, -4
 512              		.loc 1 313 0
 513 0002 124C     		ldr	r4, .L68
ARM GAS  /tmp/cc37KnWA.s 			page 10


 514 0004 A269     		ldr	r2, [r4, #24]
 515 0006 92F82330 		ldrb	r3, [r2, #35]	@ zero_extendqisi2
 516 000a 13B1     		cbz	r3, .L59
 517              		.loc 1 315 0
 518 000c 013B     		subs	r3, r3, #1
 519 000e 82F82330 		strb	r3, [r2, #35]
 520              	.L59:
 521              		.loc 1 319 0
 522 0012 516A     		ldr	r1, [r2, #36]
 523              	.LBB173:
 524              	.LBB174:
 525              		.file 6 "ChibiOS_3.0.5/os/rt/include/chvt.h"
 526              		.loc 6 472 0
 527 0014 E369     		ldr	r3, [r4, #28]
 528 0016 0E4E     		ldr	r6, .L68+4
 529              	.LBE174:
 530              	.LBE173:
 531              		.loc 1 319 0
 532 0018 0131     		adds	r1, r1, #1
 533 001a 5162     		str	r1, [r2, #36]
 534              	.LBB187:
 535              	.LBB186:
 536              		.loc 6 471 0
 537 001c A26A     		ldr	r2, [r4, #40]
 538              		.loc 6 472 0
 539 001e B342     		cmp	r3, r6
 540              		.loc 6 471 0
 541 0020 02F10102 		add	r2, r2, #1
 542 0024 A262     		str	r2, [r4, #40]
 543              		.loc 6 472 0
 544 0026 10D0     		beq	.L58
 545              		.loc 6 474 0
 546 0028 9D68     		ldr	r5, [r3, #8]
 547 002a 013D     		subs	r5, r5, #1
 548 002c 9D60     		str	r5, [r3, #8]
 549              		.loc 6 475 0
 550 002e 65B9     		cbnz	r5, .L58
 551              	.L61:
 552              	.LVL51:
 553              	.LBB175:
 554              		.loc 6 482 0
 555 0030 1A68     		ldr	r2, [r3]
 556              		.loc 6 480 0
 557 0032 D968     		ldr	r1, [r3, #12]
 558              	.LVL52:
 559              		.loc 6 481 0
 560 0034 DD60     		str	r5, [r3, #12]
 561              		.loc 6 482 0
 562 0036 5660     		str	r6, [r2, #4]
 563              		.loc 6 483 0
 564 0038 E261     		str	r2, [r4, #28]
 565              	.LBB176:
 566              	.LBB177:
 567              	.LBB178:
 568              	.LBB179:
 569              	.LBB180:
 570              		.loc 4 331 0
ARM GAS  /tmp/cc37KnWA.s 			page 11


 571              		.syntax unified
 572              	@ 331 "ChibiOS_3.0.5/os/ext/CMSIS/include/core_cmFunc.h" 1
 573 003a 62B6     		cpsie i
 574              	@ 0 "" 2
 575              		.thumb
 576              		.syntax unified
 577              	.LBE180:
 578              	.LBE179:
 579              	.LBE178:
 580              	.LBE177:
 581              	.LBE176:
 582              		.loc 6 485 0
 583 003c 1869     		ldr	r0, [r3, #16]
 584 003e 8847     		blx	r1
 585              	.LVL53:
 586              	.LBB181:
 587              	.LBB182:
 588              	.LBB183:
 589              	.LBB184:
 590              	.LBB185:
 591              		.loc 4 342 0
 592              		.syntax unified
 593              	@ 342 "ChibiOS_3.0.5/os/ext/CMSIS/include/core_cmFunc.h" 1
 594 0040 72B6     		cpsid i
 595              	@ 0 "" 2
 596              		.thumb
 597              		.syntax unified
 598              	.LBE185:
 599              	.LBE184:
 600              	.LBE183:
 601              	.LBE182:
 602              	.LBE181:
 603              	.LBE175:
 604              		.loc 6 475 0
 605 0042 E369     		ldr	r3, [r4, #28]
 606 0044 9A68     		ldr	r2, [r3, #8]
 607 0046 002A     		cmp	r2, #0
 608 0048 F2D0     		beq	.L61
 609              	.L58:
 610              	.LBE186:
 611              	.LBE187:
 612              		.loc 1 325 0
 613 004a 70BD     		pop	{r4, r5, r6, pc}
 614              	.L69:
 615              		.align	2
 616              	.L68:
 617 004c 00000000 		.word	ch
 618 0050 1C000000 		.word	ch+28
 619              		.cfi_endproc
 620              	.LFE223:
 621              		.size	chSysTimerHandlerI, .-chSysTimerHandlerI
 622              		.section	.text.chSysGetStatusAndLockX,"ax",%progbits
 623              		.align	1
 624              		.p2align 4,,15
 625              		.global	chSysGetStatusAndLockX
 626              		.syntax unified
 627              		.thumb
ARM GAS  /tmp/cc37KnWA.s 			page 12


 628              		.thumb_func
 629              		.fpu fpv4-sp-d16
 630              		.type	chSysGetStatusAndLockX, %function
 631              	chSysGetStatusAndLockX:
 632              	.LFB224:
 633              		.loc 1 340 0
 634              		.cfi_startproc
 635              		@ args = 0, pretend = 0, frame = 0
 636              		@ frame_needed = 0, uses_anonymous_args = 0
 637              		@ link register save eliminated.
 638              	.LBB188:
 639              	.LBB189:
 640              	.LBB190:
 641              	.LBB191:
 642              		.loc 4 482 0
 643              		.syntax unified
 644              	@ 482 "ChibiOS_3.0.5/os/ext/CMSIS/include/core_cmFunc.h" 1
 645 0000 EFF31080 		MRS r0, primask
 646              	@ 0 "" 2
 647              		.thumb
 648              		.syntax unified
 649              	.LBE191:
 650              	.LBE190:
 651              	.LBE189:
 652              	.LBE188:
 653              		.loc 1 343 0
 654 0004 C307     		lsls	r3, r0, #31
 655 0006 02D4     		bmi	.L70
 656              	.LBB192:
 657              	.LBB193:
 658              	.LBB194:
 659              	.LBB195:
 660              		.loc 4 383 0
 661              		.syntax unified
 662              	@ 383 "ChibiOS_3.0.5/os/ext/CMSIS/include/core_cmFunc.h" 1
 663 0008 EFF30583 		MRS r3, ipsr
 664              	@ 0 "" 2
 665              		.thumb
 666              		.syntax unified
 667              	.LBE195:
 668              	.LBE194:
 669              	.LBE193:
 670              	.LBE192:
 671              	.LBB196:
 672              	.LBB197:
 673              	.LBB198:
 674              	.LBB199:
 675              		.loc 4 342 0
 676              		.syntax unified
 677              	@ 342 "ChibiOS_3.0.5/os/ext/CMSIS/include/core_cmFunc.h" 1
 678 000c 72B6     		cpsid i
 679              	@ 0 "" 2
 680              		.thumb
 681              		.syntax unified
 682              	.L70:
 683              	.LBE199:
 684              	.LBE198:
ARM GAS  /tmp/cc37KnWA.s 			page 13


 685              	.LBE197:
 686              	.LBE196:
 687              		.loc 1 352 0
 688 000e 7047     		bx	lr
 689              		.cfi_endproc
 690              	.LFE224:
 691              		.size	chSysGetStatusAndLockX, .-chSysGetStatusAndLockX
 692              		.section	.text.chSysRestoreStatusX,"ax",%progbits
 693              		.align	1
 694              		.p2align 4,,15
 695              		.global	chSysRestoreStatusX
 696              		.syntax unified
 697              		.thumb
 698              		.thumb_func
 699              		.fpu fpv4-sp-d16
 700              		.type	chSysRestoreStatusX, %function
 701              	chSysRestoreStatusX:
 702              	.LFB225:
 703              		.loc 1 363 0
 704              		.cfi_startproc
 705              		@ args = 0, pretend = 0, frame = 0
 706              		@ frame_needed = 0, uses_anonymous_args = 0
 707              	.LVL54:
 708              		.loc 1 365 0
 709 0000 C207     		lsls	r2, r0, #31
 710 0002 07D4     		bmi	.L77
 711              		.loc 1 363 0
 712 0004 08B5     		push	{r3, lr}
 713              		.cfi_def_cfa_offset 8
 714              		.cfi_offset 3, -8
 715              		.cfi_offset 14, -4
 716              	.LBB200:
 717              	.LBB201:
 718              	.LBB202:
 719              	.LBB203:
 720              		.loc 4 383 0
 721              		.syntax unified
 722              	@ 383 "ChibiOS_3.0.5/os/ext/CMSIS/include/core_cmFunc.h" 1
 723 0006 EFF30583 		MRS r3, ipsr
 724              	@ 0 "" 2
 725              		.thumb
 726              		.syntax unified
 727              	.LBE203:
 728              	.LBE202:
 729              		.loc 2 436 0
 730 000a C3F30803 		ubfx	r3, r3, #0, #9
 731              	.LBE201:
 732              	.LBE200:
 733              		.loc 1 366 0
 734 000e 13B1     		cbz	r3, .L75
 735              	.LBB204:
 736              	.LBB205:
 737              	.LBB206:
 738              	.LBB207:
 739              	.LBB208:
 740              		.loc 4 331 0
 741              		.syntax unified
ARM GAS  /tmp/cc37KnWA.s 			page 14


 742              	@ 331 "ChibiOS_3.0.5/os/ext/CMSIS/include/core_cmFunc.h" 1
 743 0010 62B6     		cpsie i
 744              	@ 0 "" 2
 745              		.thumb
 746              		.syntax unified
 747              	.LBE208:
 748              	.LBE207:
 749              	.LBE206:
 750              	.LBE205:
 751              	.LBE204:
 752              		.loc 1 374 0
 753 0012 08BD     		pop	{r3, pc}
 754              	.L77:
 755              		.cfi_def_cfa_offset 0
 756              		.cfi_restore 3
 757              		.cfi_restore 14
 758 0014 7047     		bx	lr
 759              	.L75:
 760              		.cfi_def_cfa_offset 8
 761              		.cfi_offset 3, -8
 762              		.cfi_offset 14, -4
 763              		.loc 1 370 0
 764 0016 FFF7FEFF 		bl	chSchRescheduleS
 765              	.LVL55:
 766              	.LBB213:
 767              	.LBB212:
 768              	.LBB211:
 769              	.LBB210:
 770              	.LBB209:
 771              		.loc 4 331 0
 772              		.syntax unified
 773              	@ 331 "ChibiOS_3.0.5/os/ext/CMSIS/include/core_cmFunc.h" 1
 774 001a 62B6     		cpsie i
 775              	@ 0 "" 2
 776              		.thumb
 777              		.syntax unified
 778              	.LBE209:
 779              	.LBE210:
 780              	.LBE211:
 781              	.LBE212:
 782              	.LBE213:
 783              		.loc 1 374 0
 784 001c 08BD     		pop	{r3, pc}
 785              		.cfi_endproc
 786              	.LFE225:
 787              		.size	chSysRestoreStatusX, .-chSysRestoreStatusX
 788 001e 00BF     		.section	.text.chSysIsCounterWithinX,"ax",%progbits
 789              		.align	1
 790              		.p2align 4,,15
 791              		.global	chSysIsCounterWithinX
 792              		.syntax unified
 793              		.thumb
 794              		.thumb_func
 795              		.fpu fpv4-sp-d16
 796              		.type	chSysIsCounterWithinX, %function
 797              	chSysIsCounterWithinX:
 798              	.LFB226:
ARM GAS  /tmp/cc37KnWA.s 			page 15


 799              		.loc 1 395 0
 800              		.cfi_startproc
 801              		@ args = 0, pretend = 0, frame = 0
 802              		@ frame_needed = 0, uses_anonymous_args = 0
 803              		@ link register save eliminated.
 804              	.LVL56:
 805              		.loc 1 397 0
 806 0000 401A     		subs	r0, r0, r1
 807              	.LVL57:
 808 0002 521A     		subs	r2, r2, r1
 809              	.LVL58:
 810              		.loc 1 398 0
 811 0004 9042     		cmp	r0, r2
 812 0006 2CBF     		ite	cs
 813 0008 0020     		movcs	r0, #0
 814 000a 0120     		movcc	r0, #1
 815 000c 7047     		bx	lr
 816              		.cfi_endproc
 817              	.LFE226:
 818              		.size	chSysIsCounterWithinX, .-chSysIsCounterWithinX
 819 000e 00BF     		.section	.text.chSysPolledDelayX,"ax",%progbits
 820              		.align	1
 821              		.p2align 4,,15
 822              		.global	chSysPolledDelayX
 823              		.syntax unified
 824              		.thumb
 825              		.thumb_func
 826              		.fpu fpv4-sp-d16
 827              		.type	chSysPolledDelayX, %function
 828              	chSysPolledDelayX:
 829              	.LFB227:
 830              		.loc 1 411 0
 831              		.cfi_startproc
 832              		@ args = 0, pretend = 0, frame = 0
 833              		@ frame_needed = 0, uses_anonymous_args = 0
 834              		@ link register save eliminated.
 835              	.LVL59:
 836              	.LBB214:
 837              	.LBB215:
 838              		.loc 2 548 0
 839 0000 034A     		ldr	r2, .L85
 840 0002 5168     		ldr	r1, [r2, #4]
 841              	.LVL60:
 842              	.L83:
 843              	.LBE215:
 844              	.LBE214:
 845              	.LBB216:
 846              	.LBB217:
 847              		.loc 2 548 0 is_stmt 0 discriminator 1
 848 0004 5368     		ldr	r3, [r2, #4]
 849              	.LBE217:
 850              	.LBE216:
 851              	.LBB218:
 852              	.LBB219:
 853              		.loc 1 397 0 is_stmt 1 discriminator 1
 854 0006 5B1A     		subs	r3, r3, r1
 855              	.LBE219:
ARM GAS  /tmp/cc37KnWA.s 			page 16


 856              	.LBE218:
 857              		.loc 1 415 0 discriminator 1
 858 0008 9842     		cmp	r0, r3
 859 000a FBD8     		bhi	.L83
 860              		.loc 1 417 0
 861 000c 7047     		bx	lr
 862              	.L86:
 863 000e 00BF     		.align	2
 864              	.L85:
 865 0010 001000E0 		.word	-536866816
 866              		.cfi_endproc
 867              	.LFE227:
 868              		.size	chSysPolledDelayX, .-chSysPolledDelayX
 869              		.section	.rodata.chSysInit.str1.4,"aMS",%progbits,1
 870              		.align	2
 871              	.LC0:
 872 0000 69646C65 		.ascii	"idle\000"
 872      00
 873              		.text
 874              	.Letext0:
 875              		.file 7 "/usr/arm-none-eabi/include/machine/_default_types.h"
 876              		.file 8 "/usr/arm-none-eabi/include/sys/_stdint.h"
 877              		.file 9 "ChibiOS_3.0.5/os/rt/ports/ARMCMx/compilers/GCC/chtypes.h"
 878              		.file 10 "ChibiOS_3.0.5/os/rt/include/chsystypes.h"
 879              		.file 11 "ChibiOS_3.0.5/os/rt/include/chschd.h"
 880              		.file 12 "ChibiOS_3.0.5/os/ext/CMSIS/ST/stm32f407xx.h"
 881              		.file 13 "ChibiOS_3.0.5/os/ext/CMSIS/ST/system_stm32f4xx.h"
 882              		.file 14 "ChibiOS_3.0.5/os/rt/ports/ARMCMx/chcore.h"
 883              		.file 15 "ChibiOS_3.0.5/os/rt/include/chtm.h"
 884              		.file 16 "ChibiOS_3.0.5/os/rt/include/chsem.h"
 885              		.file 17 "ChibiOS_3.0.5/os/rt/include/chmtx.h"
 886              		.file 18 "ChibiOS_3.0.5/os/rt/include/chthreads.h"
 887              		.file 19 "ChibiOS_3.0.5/os/rt/include/chsys.h"
 888              		.file 20 "ChibiOS_3.0.5/os/rt/include/chmemcore.h"
 889              		.file 21 "ChibiOS_3.0.5/os/rt/include/chheap.h"