ARM GAS  /tmp/ccOtlGAG.s 			page 1


   1              		.cpu cortex-m4
   2              		.eabi_attribute 27, 1
   3              		.eabi_attribute 28, 1
   4              		.eabi_attribute 20, 1
   5              		.eabi_attribute 21, 1
   6              		.eabi_attribute 23, 3
   7              		.eabi_attribute 24, 1
   8              		.eabi_attribute 25, 1
   9              		.eabi_attribute 26, 1
  10              		.eabi_attribute 30, 2
  11              		.eabi_attribute 34, 1
  12              		.eabi_attribute 18, 4
  13              		.file	"chtm.c"
  14              		.text
  15              	.Ltext0:
  16              		.cfi_sections	.debug_frame
  17              		.section	.text.chTMObjectInit,"ax",%progbits
  18              		.align	1
  19              		.p2align 4,,15
  20              		.global	chTMObjectInit
  21              		.syntax unified
  22              		.thumb
  23              		.thumb_func
  24              		.fpu fpv4-sp-d16
  25              		.type	chTMObjectInit, %function
  26              	chTMObjectInit:
  27              	.LFB221:
  28              		.file 1 "ChibiOS_3.0.5/os/rt/src/chtm.c"
  29              		.loc 1 97 0
  30              		.cfi_startproc
  31              		@ args = 0, pretend = 0, frame = 0
  32              		@ frame_needed = 0, uses_anonymous_args = 0
  33              		@ link register save eliminated.
  34              	.LVL0:
  35              		.loc 1 103 0
  36 0000 0022     		movs	r2, #0
  37 0002 0023     		movs	r3, #0
  38 0004 C0E90423 		strd	r2, [r0, #16]
  39              		.loc 1 100 0
  40 0008 0023     		movs	r3, #0
  41 000a 4FF0FF32 		mov	r2, #-1
  42 000e C0E90023 		strd	r2, r3, [r0]
  43              		.loc 1 102 0
  44 0012 C0E90233 		strd	r3, r3, [r0, #8]
  45              		.loc 1 104 0
  46 0016 7047     		bx	lr
  47              		.cfi_endproc
  48              	.LFE221:
  49              		.size	chTMObjectInit, .-chTMObjectInit
  50              		.section	.text.chTMStartMeasurementX,"ax",%progbits
  51              		.align	1
  52              		.p2align 4,,15
  53              		.global	chTMStartMeasurementX
  54              		.syntax unified
  55              		.thumb
  56              		.thumb_func
  57              		.fpu fpv4-sp-d16
ARM GAS  /tmp/ccOtlGAG.s 			page 2


  58              		.type	chTMStartMeasurementX, %function
  59              	chTMStartMeasurementX:
  60              	.LFB222:
  61              		.loc 1 114 0
  62              		.cfi_startproc
  63              		@ args = 0, pretend = 0, frame = 0
  64              		@ frame_needed = 0, uses_anonymous_args = 0
  65              		@ link register save eliminated.
  66              	.LVL1:
  67              	.LBB14:
  68              	.LBB15:
  69              		.file 2 "ChibiOS_3.0.5/os/rt/ports/ARMCMx/chcore_v7m.h"
  70              		.loc 2 548 0
  71 0000 014B     		ldr	r3, .L4
  72 0002 5B68     		ldr	r3, [r3, #4]
  73              	.LBE15:
  74              	.LBE14:
  75              		.loc 1 116 0
  76 0004 8360     		str	r3, [r0, #8]
  77              		.loc 1 117 0
  78 0006 7047     		bx	lr
  79              	.L5:
  80              		.align	2
  81              	.L4:
  82 0008 001000E0 		.word	-536866816
  83              		.cfi_endproc
  84              	.LFE222:
  85              		.size	chTMStartMeasurementX, .-chTMStartMeasurementX
  86              		.section	.text.chTMStopMeasurementX,"ax",%progbits
  87              		.align	1
  88              		.p2align 4,,15
  89              		.global	chTMStopMeasurementX
  90              		.syntax unified
  91              		.thumb
  92              		.thumb_func
  93              		.fpu fpv4-sp-d16
  94              		.type	chTMStopMeasurementX, %function
  95              	chTMStopMeasurementX:
  96              	.LFB223:
  97              		.loc 1 127 0
  98              		.cfi_startproc
  99              		@ args = 0, pretend = 0, frame = 0
 100              		@ frame_needed = 0, uses_anonymous_args = 0
 101              		@ link register save eliminated.
 102              	.LVL2:
 103              	.LBB16:
 104              	.LBB17:
 105              		.loc 2 548 0
 106 0000 0E4B     		ldr	r3, .L10
 107              	.LBE17:
 108              	.LBE16:
 109              		.loc 1 129 0
 110 0002 0F4A     		ldr	r2, .L10+4
 111              	.LBB19:
 112              	.LBB18:
 113              		.loc 2 548 0
 114 0004 5B68     		ldr	r3, [r3, #4]
ARM GAS  /tmp/ccOtlGAG.s 			page 3


 115              	.LBE18:
 116              	.LBE19:
 117              	.LBB20:
 118              	.LBB21:
 119              		.loc 1 57 0
 120 0006 C168     		ldr	r1, [r0, #12]
 121              	.LBE21:
 122              	.LBE20:
 123              		.loc 1 127 0
 124 0008 F0B4     		push	{r4, r5, r6, r7}
 125              		.cfi_def_cfa_offset 16
 126              		.cfi_offset 4, -16
 127              		.cfi_offset 5, -12
 128              		.cfi_offset 6, -8
 129              		.cfi_offset 7, -4
 130              	.LBB24:
 131              	.LBB22:
 132              		.loc 1 58 0
 133 000a 8468     		ldr	r4, [r0, #8]
 134              	.LBE22:
 135              	.LBE24:
 136              		.loc 1 129 0
 137 000c D2F88060 		ldr	r6, [r2, #128]
 138              	.LVL3:
 139              	.LBB25:
 140              	.LBB23:
 141              		.loc 1 60 0
 142 0010 4268     		ldr	r2, [r0, #4]
 143              		.loc 1 58 0
 144 0012 1B1B     		subs	r3, r3, r4
 145              		.loc 1 59 0
 146 0014 D0E90445 		ldrd	r4, [r0, #16]
 147              		.loc 1 58 0
 148 0018 9B1B     		subs	r3, r3, r6
 149              		.loc 1 59 0
 150 001a E618     		adds	r6, r4, r3
 151              	.LVL4:
 152 001c 45F10007 		adc	r7, r5, #0
 153              		.loc 1 60 0
 154 0020 9342     		cmp	r3, r2
 155              		.loc 1 63 0
 156 0022 0268     		ldr	r2, [r0]
 157              		.loc 1 61 0
 158 0024 88BF     		it	hi
 159 0026 4360     		strhi	r3, [r0, #4]
 160              		.loc 1 57 0
 161 0028 0131     		adds	r1, r1, #1
 162              		.loc 1 63 0
 163 002a 9342     		cmp	r3, r2
 164              		.loc 1 59 0
 165 002c C0E90467 		strd	r6, [r0, #16]
 166              		.loc 1 58 0
 167 0030 C0E90231 		strd	r3, r1, [r0, #8]
 168              		.loc 1 64 0
 169 0034 38BF     		it	cc
 170 0036 0360     		strcc	r3, [r0]
 171              	.LVL5:
ARM GAS  /tmp/ccOtlGAG.s 			page 4


 172              	.LBE23:
 173              	.LBE25:
 174              		.loc 1 130 0
 175 0038 F0BC     		pop	{r4, r5, r6, r7}
 176              		.cfi_restore 7
 177              		.cfi_restore 6
 178              		.cfi_restore 5
 179              		.cfi_restore 4
 180              		.cfi_def_cfa_offset 0
 181 003a 7047     		bx	lr
 182              	.L11:
 183              		.align	2
 184              	.L10:
 185 003c 001000E0 		.word	-536866816
 186 0040 00000000 		.word	ch
 187              		.cfi_endproc
 188              	.LFE223:
 189              		.size	chTMStopMeasurementX, .-chTMStopMeasurementX
 190              		.section	.text._tm_init,"ax",%progbits
 191              		.align	1
 192              		.p2align 4,,15
 193              		.global	_tm_init
 194              		.syntax unified
 195              		.thumb
 196              		.thumb_func
 197              		.fpu fpv4-sp-d16
 198              		.type	_tm_init, %function
 199              	_tm_init:
 200              	.LFB220:
 201              		.loc 1 77 0
 202              		.cfi_startproc
 203              		@ args = 0, pretend = 0, frame = 24
 204              		@ frame_needed = 0, uses_anonymous_args = 0
 205 0000 10B5     		push	{r4, lr}
 206              		.cfi_def_cfa_offset 8
 207              		.cfi_offset 4, -8
 208              		.cfi_offset 14, -4
 209              		.loc 1 83 0
 210 0002 0D4C     		ldr	r4, .L14
 211              		.loc 1 77 0
 212 0004 86B0     		sub	sp, sp, #24
 213              		.cfi_def_cfa_offset 32
 214              		.loc 1 83 0
 215 0006 0023     		movs	r3, #0
 216              	.LBB26:
 217              	.LBB27:
 218              		.loc 1 99 0
 219 0008 4FF0FF31 		mov	r1, #-1
 220              		.loc 1 103 0
 221 000c 0022     		movs	r2, #0
 222              	.LBE27:
 223              	.LBE26:
 224              		.loc 1 85 0
 225 000e 6846     		mov	r0, sp
 226              		.loc 1 83 0
 227 0010 C4F88030 		str	r3, [r4, #128]
 228              	.LVL6:
ARM GAS  /tmp/ccOtlGAG.s 			page 5


 229              	.LBB29:
 230              	.LBB28:
 231              		.loc 1 101 0
 232 0014 CDE90133 		strd	r3, r3, [sp, #4]
 233              		.loc 1 102 0
 234 0018 0393     		str	r3, [sp, #12]
 235              		.loc 1 103 0
 236 001a 0023     		movs	r3, #0
 237 001c CDE90423 		strd	r2, [sp, #16]
 238              	.LVL7:
 239              		.loc 1 99 0
 240 0020 0091     		str	r1, [sp]
 241              	.LBE28:
 242              	.LBE29:
 243              		.loc 1 85 0
 244 0022 FFF7FEFF 		bl	chTMStartMeasurementX
 245              	.LVL8:
 246              		.loc 1 86 0
 247 0026 6846     		mov	r0, sp
 248 0028 FFF7FEFF 		bl	chTMStopMeasurementX
 249              	.LVL9:
 250              		.loc 1 87 0
 251 002c 029B     		ldr	r3, [sp, #8]
 252 002e C4F88030 		str	r3, [r4, #128]
 253              		.loc 1 88 0
 254 0032 06B0     		add	sp, sp, #24
 255              		.cfi_def_cfa_offset 8
 256              		@ sp needed
 257 0034 10BD     		pop	{r4, pc}
 258              	.L15:
 259 0036 00BF     		.align	2
 260              	.L14:
 261 0038 00000000 		.word	ch
 262              		.cfi_endproc
 263              	.LFE220:
 264              		.size	_tm_init, .-_tm_init
 265              		.section	.text.chTMChainMeasurementToX,"ax",%progbits
 266              		.align	1
 267              		.p2align 4,,15
 268              		.global	chTMChainMeasurementToX
 269              		.syntax unified
 270              		.thumb
 271              		.thumb_func
 272              		.fpu fpv4-sp-d16
 273              		.type	chTMChainMeasurementToX, %function
 274              	chTMChainMeasurementToX:
 275              	.LFB224:
 276              		.loc 1 145 0
 277              		.cfi_startproc
 278              		@ args = 0, pretend = 0, frame = 0
 279              		@ frame_needed = 0, uses_anonymous_args = 0
 280              		@ link register save eliminated.
 281              	.LVL10:
 282              	.LBB30:
 283              	.LBB31:
 284              		.loc 2 548 0
 285 0000 0D4B     		ldr	r3, .L20
ARM GAS  /tmp/ccOtlGAG.s 			page 6


 286              	.LBE31:
 287              	.LBE30:
 288              	.LBB33:
 289              	.LBB34:
 290              		.loc 1 60 0
 291 0002 4268     		ldr	r2, [r0, #4]
 292              	.LBE34:
 293              	.LBE33:
 294              	.LBB36:
 295              	.LBB32:
 296              		.loc 2 548 0
 297 0004 5B68     		ldr	r3, [r3, #4]
 298              	.LBE32:
 299              	.LBE36:
 300              		.loc 1 145 0
 301 0006 F0B4     		push	{r4, r5, r6, r7}
 302              		.cfi_def_cfa_offset 16
 303              		.cfi_offset 4, -16
 304              		.cfi_offset 5, -12
 305              		.cfi_offset 6, -8
 306              		.cfi_offset 7, -4
 307              		.loc 1 148 0
 308 0008 8B60     		str	r3, [r1, #8]
 309              	.LVL11:
 310              	.LBB37:
 311              	.LBB35:
 312              		.loc 1 57 0
 313 000a D0E90261 		ldrd	r6, r1, [r0, #8]
 314              	.LVL12:
 315              		.loc 1 59 0
 316 000e D0E90445 		ldrd	r4, [r0, #16]
 317              		.loc 1 58 0
 318 0012 9B1B     		subs	r3, r3, r6
 319              	.LVL13:
 320              		.loc 1 59 0
 321 0014 E618     		adds	r6, r4, r3
 322 0016 45F10007 		adc	r7, r5, #0
 323              		.loc 1 60 0
 324 001a 9342     		cmp	r3, r2
 325              		.loc 1 63 0
 326 001c 0268     		ldr	r2, [r0]
 327              		.loc 1 61 0
 328 001e 88BF     		it	hi
 329 0020 4360     		strhi	r3, [r0, #4]
 330              		.loc 1 57 0
 331 0022 0131     		adds	r1, r1, #1
 332              		.loc 1 63 0
 333 0024 9342     		cmp	r3, r2
 334              		.loc 1 59 0
 335 0026 C0E90467 		strd	r6, [r0, #16]
 336              		.loc 1 58 0
 337 002a C0E90231 		strd	r3, r1, [r0, #8]
 338              	.LVL14:
 339              		.loc 1 64 0
 340 002e 38BF     		it	cc
 341 0030 0360     		strcc	r3, [r0]
 342              	.LVL15:
ARM GAS  /tmp/ccOtlGAG.s 			page 7


 343              	.LBE35:
 344              	.LBE37:
 345              		.loc 1 152 0
 346 0032 F0BC     		pop	{r4, r5, r6, r7}
 347              		.cfi_restore 7
 348              		.cfi_restore 6
 349              		.cfi_restore 5
 350              		.cfi_restore 4
 351              		.cfi_def_cfa_offset 0
 352 0034 7047     		bx	lr
 353              	.L21:
 354 0036 00BF     		.align	2
 355              	.L20:
 356 0038 001000E0 		.word	-536866816
 357              		.cfi_endproc
 358              	.LFE224:
 359              		.size	chTMChainMeasurementToX, .-chTMChainMeasurementToX
 360              		.text
 361              	.Letext0:
 362              		.file 3 "/usr/arm-none-eabi/include/machine/_default_types.h"
 363              		.file 4 "/usr/arm-none-eabi/include/sys/_stdint.h"
 364              		.file 5 "ChibiOS_3.0.5/os/rt/ports/ARMCMx/compilers/GCC/chtypes.h"
 365              		.file 6 "ChibiOS_3.0.5/os/rt/include/chsystypes.h"
 366              		.file 7 "ChibiOS_3.0.5/os/rt/include/chschd.h"
 367              		.file 8 "ChibiOS_3.0.5/os/ext/CMSIS/include/core_cm4.h"
 368              		.file 9 "ChibiOS_3.0.5/os/ext/CMSIS/ST/system_stm32f4xx.h"
 369              		.file 10 "ChibiOS_3.0.5/os/rt/ports/ARMCMx/chcore.h"
 370              		.file 11 "ChibiOS_3.0.5/os/rt/include/chtm.h"
 371              		.file 12 "ChibiOS_3.0.5/os/rt/include/chsem.h"
 372              		.file 13 "ChibiOS_3.0.5/os/rt/include/chmtx.h"
 373              		.file 14 "ChibiOS_3.0.5/os/rt/include/chregistry.h"