ARM GAS  /tmp/ccOtlGAG.s 			page 1


   1              		.cpu cortex-m4
   2              		.eabi_attribute 27, 1
   3              		.eabi_attribute 28, 1
   4              		.eabi_attribute 20, 1
   5              		.eabi_attribute 21, 1
   6              		.eabi_attribute 23, 3
   7              		.eabi_attribute 24, 1
   8              		.eabi_attribute 25, 1
   9              		.eabi_attribute 26, 1
  10              		.eabi_attribute 30, 2
  11              		.eabi_attribute 34, 1
  12              		.eabi_attribute 18, 4
  13              		.file	"chtm.c"
  14              		.text
  15              	.Ltext0:
  16              		.cfi_sections	.debug_frame
  17              		.section	.text.chTMObjectInit,"ax",%progbits
  18              		.align	1
  19              		.p2align 4,,15
  20              		.global	chTMObjectInit
  21              		.syntax unified
  22              		.thumb
  23              		.thumb_func
  24              		.fpu fpv4-sp-d16
  25              		.type	chTMObjectInit, %function
  26              	chTMObjectInit:
  27              	.LFB221:
  28              		.file 1 "ChibiOS_3.0.5/os/rt/src/chtm.c"
  29              		.loc 1 97 0
  30              		.cfi_startproc
  31              		@ args = 0, pretend = 0, frame = 0
  32              		@ frame_needed = 0, uses_anonymous_args = 0
  33              		@ link register save eliminated.
  34              	.LVL0:
  35              		.loc 1 103 0
  36 0000 0022     		movs	r2, #0
  37 0002 0023     		movs	r3, #0
  38 0004 C0E90423 		strd	r2, [r0, #16]
  39              		.loc 1 100 0
  40 0008 0023     		movs	r3, #0
  41 000a 4FF0FF32 		mov	r2, #-1
  42 000e C0E90023 		strd	r2, r3, [r0]
  43              		.loc 1 102 0
  44 0012 C0E90233 		strd	r3, r3, [r0, #8]
  45              		.loc 1 104 0
  46 0016 7047     		bx	lr
  47              		.cfi_endproc
  48              	.LFE221:
  49              		.size	chTMObjectInit, .-chTMObjectInit
  50              		.section	.text.chTMStartMeasurementX,"ax",%progbits
  51              		.align	1
  52              		.p2align 4,,15
  53              		.global	chTMStartMeasurementX
  54              		.syntax unified
  55              		.thumb
  56              		.thumb_func
  57              		.fpu fpv4-sp-d16
ARM GAS  /tmp/ccOtlGAG.s 			page 2


  58              		.type	chTMStartMeasurementX, %function
  59              	chTMStartMeasurementX:
  60              	.LFB222:
  61              		.loc 1 114 0
  62              		.cfi_startproc
  63              		@ args = 0, pretend = 0, frame = 0
  64              		@ frame_needed = 0, uses_anonymous_args = 0
  65              		@ link register save eliminated.
  66              	.LVL1:
  67              	.LBB14:
  68              	.LBB15:
  69              		.file 2 "ChibiOS_3.0.5/os/rt/ports/ARMCMx/chcore_v7m.h"
  70              		.loc 2 548 0
  71 0000 014B     		ldr	r3, .L4
  72 0002 5B68     		ldr	r3, [r3, #4]
  73              	.LBE15:
  74              	.LBE14:
  75              		.loc 1 116 0
  76 0004 8360     		str	r3, [r0, #8]
  77              		.loc 1 117 0
  78 0006 7047     		bx	lr
  79              	.L5:
  80              		.align	2
  81              	.L4:
  82 0008 001000E0 		.word	-536866816
  83              		.cfi_endproc
  84              	.LFE222:
  85              		.size	chTMStartMeasurementX, .-chTMStartMeasurementX
  86              		.section	.text.chTMStopMeasurementX,"ax",%progbits
  87              		.align	1
  88              		.p2align 4,,15
  89              		.global	chTMStopMeasurementX
  90              		.syntax unified
  91              		.thumb
  92              		.thumb_func
  93              		.fpu fpv4-sp-d16
  94              		.type	chTMStopMeasurementX, %function
  95              	chTMStopMeasurementX:
  96              	.LFB223:
  97              		.loc 1 127 0
  98              		.cfi_startproc
  99              		@ args = 0, pretend = 0, frame = 0
 100              		@ frame_needed = 0, uses_anonymous_args = 0
 101              		@ link register save eliminated.
 102              	.LVL2:
 103              	.LBB16:
 104              	.LBB17:
 105              		.loc 2 548 0
 106 0000 0E4B     		ldr	r3, .L10
 107              	.LBE17:
 108              	.LBE16:
 109              		.loc 1 129 0
 110 0002 0F4A     		ldr	r2, .L10+4
 111              	.LBB19:
 112              	.LBB18:
 113              		.loc 2 548 0
 114 0004 5B68     		ldr	r3, [r3, #4]
ARM GAS  /tmp/ccOtlGAG.s 			page 3


 115              	.LBE18:
 116              	.LBE19:
 117              	.LBB20:
 118              	.LBB21:
 119              		.loc 1 57 0
 120 0006 C168     		ldr	r1, [r0, #12]
 121              	.LBE21:
 122              	.LBE20:
 123              		.loc 1 127 0
 124 0008 F0B4     		push	{r4, r5, r6, r7}
 125              		.cfi_def_cfa_offset 16
 126              		.cfi_offset 4, -16
 127              		.cfi_offset 5, -12
 128              		.cfi_offset 6, -8
 129              		.cfi_offset 7, -4
 130              	.LBB24:
 131              	.LBB22:
 132              		.loc 1 58 0
 133 000a 8468     		ldr	r4, [r0, #8]
 134              	.LBE22:
 135              	.LBE24:
 136              		.loc 1 129 0
 137 000c D2F88060 		ldr	r6, [r2, #128]
 138              	.LVL3:
 139              	.LBB25:
 140              	.LBB23:
 141              		.loc 1 60 0
 142 0010 4268     		ldr	r2, [r0, #4]
 143              		.loc 1 58 0
 144 0012 1B1B     		subs	r3, r3, r4
 145              		.loc 1 59 0
 146 0014 D0E90445 		ldrd	r4, [r0, #16]
 147              		.loc 1 58 0
 148 0018 9B1B     		subs	r3, r3, r6
 149              		.loc 1 59 0
 150 001a E618     		adds	r6, r4, r3
 151              	.LVL4:
 152 001c 45F10007 		adc	r7, r5, #0
 153              		.loc 1 60 0
 154 0020 9342     		cmp	r3, r2
 155              		.loc 1 63 0
 156 0022 0268     		ldr	r2, [r0]
 157              		.loc 1 61 0
 158 0024 88BF     		it	hi
 159 0026 4360     		strhi	r3, [r0, #4]
 160              		.loc 1 57 0
 161 0028 0131     		adds	r1, r1, #1
 162              		.loc 1 63 0
 163 002a 9342     		cmp	r3, r2
 164              		.loc 1 59 0
 165 002c C0E90467 		strd	r6, [r0, #16]
 166              		.loc 1 58 0
 167 0030 C0E90231 		strd	r3, r1, [r0, #8]
 168              		.loc 1 64 0
 169 0034 38BF     		it	cc
 170 0036 0360     		strcc	r3, [r0]
 171              	.LVL5:
ARM GAS  /tmp/ccOtlGAG.s 			page 4


 172              	.LBE23:
 173              	.LBE25:
 174              		.loc 1 130 0
 175 0038 F0BC     		pop	{r4, r5, r6, r7}
 176              		.cfi_restore 7
 177              		.cfi_restore 6
 178              		.cfi_restore 5
 179              		.cfi_restore 4
 180              		.cfi_def_cfa_offset 0
 181 003a 7047     		bx	lr
 182              	.L11:
 183              		.align	2
 184              	.L10:
 185 003c 001000E0 		.word	-536866816
 186 0040 00000000 		.word	ch
 187              		.cfi_endproc
 188              	.LFE223:
 189              		.size	chTMStopMeasurementX, .-chTMStopMeasurementX
 190              		.section	.text._tm_init,"ax",%progbits
 191              		.align	1
 192              		.p2align 4,,15
 193              		.global	_tm_init
 194              		.syntax unified
 195              		.thumb
 196              		.thumb_func
 197              		.fpu fpv4-sp-d16
 198              		.type	_tm_init, %function
 199              	_tm_init:
 200              	.LFB220:
 201              		.loc 1 77 0
 202              		.cfi_startproc
 203              		@ args = 0, pretend = 0, frame = 24
 204              		@ frame_needed = 0, uses_anonymous_args = 0
 205 0000 10B5     		push	{r4, lr}
 206              		.cfi_def_cfa_offset 8
 207              		.cfi_offset 4, -8
 208              		.cfi_offset 14, -4
 209              		.loc 1 83 0
 210 0002 0D4C     		ldr	r4, .L14
 211              		.loc 1 77 0
 212 0004 86B0     		sub	sp, sp, #24
 213              		.cfi_def_cfa_offset 32
 214              		.loc 1 83 0
 215 0006 0023     		movs	r3, #0
 216              	.LBB26:
 217              	.LBB27:
 218              		.loc 1 99 0
 219 0008 4FF0FF31 		mov	r1, #-1
 220              		.loc 1 103 0
 221 000c 0022     		movs	r2, #0
 222              	.LBE27:
 223              	.LBE26:
 224              		.loc 1 85 0
 225 000e 6846     		mov	r0, sp
 226              		.loc 1 83 0
 227 0010 C4F88030 		str	r3, [r4, #128]
 228              	.LVL6:
ARM GAS  /tmp/ccOtlGAG.s 			page 5


 229              	.LBB29:
 230              	.LBB28:
 231              		.loc 1 101 0
 232 0014 CDE90133 		strd	r3, r3, [sp, #4]
 233              		.loc 1 102 0
 234 0018 0393     		str	r3, [sp, #12]
 235              		.loc 1 103 0
 236 001a 0023     		movs	r3, #0
 237 001c CDE90423 		strd	r2, [sp, #16]
 238              	.LVL7:
 239              		.loc 1 99 0
 240 0020 0091     		str	r1, [sp]
 241              	.LBE28:
 242              	.LBE29:
 243              		.loc 1 85 0
 244 0022 FFF7FEFF 		bl	chTMStartMeasurementX
 245              	.LVL8:
 246              		.loc 1 86 0
 247 0026 6846     		mov	r0, sp
 248 0028 FFF7FEFF 		bl	chTMStopMeasurementX
 249              	.LVL9:
 250              		.loc 1 87 0
 251 002c 029B     		ldr	r3, [sp, #8]
 252 002e C4F88030 		str	r3, [r4, #128]
 253              		.loc 1 88 0
 254 0032 06B0     		add	sp, sp, #24
 255              		.cfi_def_cfa_offset 8
 256              		@ sp needed
 257 0034 10BD     		pop	{r4, pc}
 258              	.L15:
 259 0036 00BF     		.align	2
 260              	.L14:
 261 0038 00000000 		.word	ch
 262              		.cfi_endproc
 263              	.LFE220:
 264              		.size	_tm_init, .-_tm_init
 265              		.section	.text.chTMChainMeasurementToX,"ax",%progbits
 266              		.align	1
 267              		.p2align 4,,15
 268              		.global	chTMChainMeasurementToX
 269              		.syntax unified
 270              		.thumb
 271              		.thumb_func
 272              		.fpu fpv4-sp-d16
 273              		.type	chTMChainMeasurementToX, %function
 274              	chTMChainMeasurementToX:
 275              	.LFB224:
 276              		.loc 1 145 0
 277              		.cfi_startproc
 278              		@ args = 0, pretend = 0, frame = 0
 279              		@ frame_needed = 0, uses_anonymous_args = 0
 280              		@ link register save eliminated.
 281              	.LVL10:
 282              	.LBB30:
 283              	.LBB31:
 284              		.loc 2 548 0
 285 0000 0D4B     		ldr	r3, .L20
ARM GAS  /tmp/ccOtlGAG.s 			page 6


 286              	.LBE31:
 287              	.LBE30:
 288              	.LBB33:
 289              	.LBB34:
 290              		.loc 1 60 0
 291 0002 4268     		ldr	r2, [r0, #4]
 292              	.LBE34:
 293              	.LBE33:
 294              	.LBB36:
 295              	.LBB32:
 296              		.loc 2 548 0
 297 0004 5B68     		ldr	r3, [r3, #4]
 298              	.LBE32:
 299              	.LBE36:
 300              		.loc 1 145 0
 301 0006 F0B4     		push	{r4, r5, r6, r7}
 302              		.cfi_def_cfa_offset 16
 303              		.cfi_offset 4, -16
 304              		.cfi_offset 5, -12
 305              		.cfi_offset 6, -8
 306              		.cfi_offset 7, -4
 307              		.loc 1 148 0
 308 0008 8B60     		str	r3, [r1, #8]
 309              	.LVL11:
 310              	.LBB37:
 311              	.LBB35:
 312              		.loc 1 57 0
 313 000a D0E90261 		ldrd	r6, r1, [r0, #8]
 314              	.LVL12:
 315              		.loc 1 59 0
 316 000e D0E90445 		ldrd	r4, [r0, #16]
 317              		.loc 1 58 0
 318 0012 9B1B     		subs	r3, r3, r6
 319              	.LVL13:
 320              		.loc 1 59 0
 321 0014 E618     		adds	r6, r4, r3
 322 0016 45F10007 		adc	r7, r5, #0
 323              		.loc 1 60 0
 324 001a 9342     		cmp	r3, r2
 325              		.loc 1 63 0
 326 001c 0268     		ldr	r2, [r0]
 327              		.loc 1 61 0
 328 001e 88BF     		it	hi
 329 0020 4360     		strhi	r3, [r0, #4]
 330              		.loc 1 57 0
 331 0022 0131     		adds	r1, r1, #1
 332              		.loc 1 63 0
 333 0024 9342     		cmp	r3, r2
 334              		.loc 1 59 0
 335 0026 C0E90467 		strd	r6, [r0, #16]
 336              		.loc 1 58 0
 337 002a C0E90231 		strd	r3, r1, [r0, #8]
 338              	.LVL14:
 339              		.loc 1 64 0
 340 002e 38BF     		it	cc
 341 0030 0360     		strcc	r3, [r0]
 342              	.LVL15:
ARM GAS  /tmp/ccOtlGAG.s 			page 7


 343              	.LBE35:
 344              	.LBE37:
 345              		.loc 1 152 0
 346 0032 F0BC     		pop	{r4, r5, r6, r7}
 347              		.cfi_restore 7
 348              		.cfi_restore 6
 349              		.cfi_restore 5
 350              		.cfi_restore 4
 351              		.cfi_def_cfa_offset 0
 352 0034 7047     		bx	lr
 353              	.L21:
 354 0036 00BF     		.align	2
 355              	.L20:
 356 0038 001000E0 		.word	-536866816
 357              		.cfi_endproc
 358              	.LFE224:
 359              		.size	chTMChainMeasurementToX, .-chTMChainMeasurementToX
 360              		.text
 361              	.Letext0:
 362              		.file 3 "/usr/arm-none-eabi/include/machine/_default_types.h"
 363              		.file 4 "/usr/arm-none-eabi/include/sys/_stdint.h"
 364              		.file 5 "ChibiOS_3.0.5/os/rt/ports/ARMCMx/compilers/GCC/chtypes.h"
 365              		.file 6 "ChibiOS_3.0.5/os/rt/include/chsystypes.h"
 366              		.file 7 "ChibiOS_3.0.5/os/rt/include/chschd.h"
 367              		.file 8 "ChibiOS_3.0.5/os/ext/CMSIS/include/core_cm4.h"
 368              		.file 9 "ChibiOS_3.0.5/os/ext/CMSIS/ST/system_stm32f4xx.h"
 369              		.file 10 "ChibiOS_3.0.5/os/rt/ports/ARMCMx/chcore.h"
 370              		.file 11 "ChibiOS_3.0.5/os/rt/include/chtm.h"
 371              		.file 12 "ChibiOS_3.0.5/os/rt/include/chsem.h"
 372              		.file 13 "ChibiOS_3.0.5/os/rt/include/chmtx.h"
 373              		.file 14 "ChibiOS_3.0.5/os/rt/include/chregistry.h"
 374              		.section	.debug_info,"",%progbits
 375              	.Ldebug_info0:
 376 0000 EC0B0000 		.4byte	0xbec
 377 0004 0400     		.2byte	0x4
 378 0006 00000000 		.4byte	.Ldebug_abbrev0
 379 000a 04       		.byte	0x4
 380 000b 01       		.uleb128 0x1
 381 000c 8B000000 		.4byte	.LASF166
 382 0010 0C       		.byte	0xc
 383 0011 1A000000 		.4byte	.LASF167
 384 0015 73060000 		.4byte	.LASF168
 385 0019 80000000 		.4byte	.Ldebug_ranges0+0x80
 386 001d 00000000 		.4byte	0
 387 0021 00000000 		.4byte	.Ldebug_line0
 388 0025 02       		.uleb128 0x2
 389 0026 04       		.byte	0x4
 390 0027 05       		.byte	0x5
 391 0028 696E7400 		.ascii	"int\000"
 392 002c 03       		.uleb128 0x3
 393 002d 04       		.byte	0x4
 394 002e 07       		.byte	0x7
 395 002f 74030000 		.4byte	.LASF0
 396 0033 03       		.uleb128 0x3
 397 0034 01       		.byte	0x1
 398 0035 06       		.byte	0x6
 399 0036 6E020000 		.4byte	.LASF1
ARM GAS  /tmp/ccOtlGAG.s 			page 8


 400 003a 04       		.uleb128 0x4
 401 003b 55000000 		.4byte	.LASF4
 402 003f 03       		.byte	0x3
 403 0040 2B       		.byte	0x2b
 404 0041 45000000 		.4byte	0x45
 405 0045 03       		.uleb128 0x3
 406 0046 01       		.byte	0x1
 407 0047 08       		.byte	0x8
 408 0048 97050000 		.4byte	.LASF2
 409 004c 03       		.uleb128 0x3
 410 004d 02       		.byte	0x2
 411 004e 05       		.byte	0x5
 412 004f DA050000 		.4byte	.LASF3
 413 0053 04       		.uleb128 0x4
 414 0054 E3060000 		.4byte	.LASF5
 415 0058 03       		.byte	0x3
 416 0059 39       		.byte	0x39
 417 005a 5E000000 		.4byte	0x5e
 418 005e 03       		.uleb128 0x3
 419 005f 02       		.byte	0x2
 420 0060 07       		.byte	0x7
 421 0061 E3030000 		.4byte	.LASF6
 422 0065 04       		.uleb128 0x4
 423 0066 50040000 		.4byte	.LASF7
 424 006a 03       		.byte	0x3
 425 006b 4D       		.byte	0x4d
 426 006c 70000000 		.4byte	0x70
 427 0070 03       		.uleb128 0x3
 428 0071 04       		.byte	0x4
 429 0072 05       		.byte	0x5
 430 0073 EE020000 		.4byte	.LASF8
 431 0077 04       		.uleb128 0x4
 432 0078 36070000 		.4byte	.LASF9
 433 007c 03       		.byte	0x3
 434 007d 4F       		.byte	0x4f
 435 007e 82000000 		.4byte	0x82
 436 0082 03       		.uleb128 0x3
 437 0083 04       		.byte	0x4
 438 0084 07       		.byte	0x7
 439 0085 BF060000 		.4byte	.LASF10
 440 0089 03       		.uleb128 0x3
 441 008a 08       		.byte	0x8
 442 008b 05       		.byte	0x5
 443 008c 60020000 		.4byte	.LASF11
 444 0090 04       		.uleb128 0x4
 445 0091 22050000 		.4byte	.LASF12
 446 0095 03       		.byte	0x3
 447 0096 69       		.byte	0x69
 448 0097 9B000000 		.4byte	0x9b
 449 009b 03       		.uleb128 0x3
 450 009c 08       		.byte	0x8
 451 009d 07       		.byte	0x7
 452 009e C8010000 		.4byte	.LASF13
 453 00a2 04       		.uleb128 0x4
 454 00a3 B6070000 		.4byte	.LASF14
 455 00a7 04       		.byte	0x4
 456 00a8 18       		.byte	0x18
ARM GAS  /tmp/ccOtlGAG.s 			page 9


 457 00a9 3A000000 		.4byte	0x3a
 458 00ad 04       		.uleb128 0x4
 459 00ae 31040000 		.4byte	.LASF15
 460 00b2 04       		.byte	0x4
 461 00b3 24       		.byte	0x24
 462 00b4 53000000 		.4byte	0x53
 463 00b8 04       		.uleb128 0x4
 464 00b9 8F050000 		.4byte	.LASF16
 465 00bd 04       		.byte	0x4
 466 00be 2C       		.byte	0x2c
 467 00bf 65000000 		.4byte	0x65
 468 00c3 05       		.uleb128 0x5
 469 00c4 B8000000 		.4byte	0xb8
 470 00c8 04       		.uleb128 0x4
 471 00c9 80060000 		.4byte	.LASF17
 472 00cd 04       		.byte	0x4
 473 00ce 30       		.byte	0x30
 474 00cf 77000000 		.4byte	0x77
 475 00d3 05       		.uleb128 0x5
 476 00d4 C8000000 		.4byte	0xc8
 477 00d8 06       		.uleb128 0x6
 478 00d9 D3000000 		.4byte	0xd3
 479 00dd 04       		.uleb128 0x4
 480 00de 4C000000 		.4byte	.LASF18
 481 00e2 04       		.byte	0x4
 482 00e3 3C       		.byte	0x3c
 483 00e4 90000000 		.4byte	0x90
 484 00e8 04       		.uleb128 0x4
 485 00e9 A2040000 		.4byte	.LASF19
 486 00ed 05       		.byte	0x5
 487 00ee 45       		.byte	0x45
 488 00ef C8000000 		.4byte	0xc8
 489 00f3 04       		.uleb128 0x4
 490 00f4 2E020000 		.4byte	.LASF20
 491 00f8 05       		.byte	0x5
 492 00f9 46       		.byte	0x46
 493 00fa DD000000 		.4byte	0xdd
 494 00fe 04       		.uleb128 0x4
 495 00ff 0B060000 		.4byte	.LASF21
 496 0103 05       		.byte	0x5
 497 0104 48       		.byte	0x48
 498 0105 A2000000 		.4byte	0xa2
 499 0109 04       		.uleb128 0x4
 500 010a F7020000 		.4byte	.LASF22
 501 010e 05       		.byte	0x5
 502 010f 49       		.byte	0x49
 503 0110 A2000000 		.4byte	0xa2
 504 0114 04       		.uleb128 0x4
 505 0115 38050000 		.4byte	.LASF23
 506 0119 05       		.byte	0x5
 507 011a 4A       		.byte	0x4a
 508 011b A2000000 		.4byte	0xa2
 509 011f 04       		.uleb128 0x4
 510 0120 B5060000 		.4byte	.LASF24
 511 0124 05       		.byte	0x5
 512 0125 4B       		.byte	0x4b
 513 0126 A2000000 		.4byte	0xa2
ARM GAS  /tmp/ccOtlGAG.s 			page 10


 514 012a 04       		.uleb128 0x4
 515 012b 76050000 		.4byte	.LASF25
 516 012f 05       		.byte	0x5
 517 0130 4C       		.byte	0x4c
 518 0131 C8000000 		.4byte	0xc8
 519 0135 04       		.uleb128 0x4
 520 0136 07040000 		.4byte	.LASF26
 521 013a 05       		.byte	0x5
 522 013b 4D       		.byte	0x4d
 523 013c B8000000 		.4byte	0xb8
 524 0140 04       		.uleb128 0x4
 525 0141 44040000 		.4byte	.LASF27
 526 0145 05       		.byte	0x5
 527 0146 4F       		.byte	0x4f
 528 0147 C8000000 		.4byte	0xc8
 529 014b 04       		.uleb128 0x4
 530 014c 63030000 		.4byte	.LASF28
 531 0150 05       		.byte	0x5
 532 0151 51       		.byte	0x51
 533 0152 B8000000 		.4byte	0xb8
 534 0156 04       		.uleb128 0x4
 535 0157 12040000 		.4byte	.LASF29
 536 015b 05       		.byte	0x5
 537 015c 52       		.byte	0x52
 538 015d C8000000 		.4byte	0xc8
 539 0161 04       		.uleb128 0x4
 540 0162 18070000 		.4byte	.LASF30
 541 0166 06       		.byte	0x6
 542 0167 33       		.byte	0x33
 543 0168 C8000000 		.4byte	0xc8
 544 016c 05       		.uleb128 0x5
 545 016d 61010000 		.4byte	0x161
 546 0171 04       		.uleb128 0x4
 547 0172 EE060000 		.4byte	.LASF31
 548 0176 06       		.byte	0x6
 549 0177 3F       		.byte	0x3f
 550 0178 7C010000 		.4byte	0x17c
 551 017c 07       		.uleb128 0x7
 552 017d F6030000 		.4byte	.LASF55
 553 0181 50       		.byte	0x50
 554 0182 07       		.byte	0x7
 555 0183 C2       		.byte	0xc2
 556 0184 9A020000 		.4byte	0x29a
 557 0188 08       		.uleb128 0x8
 558 0189 04060000 		.4byte	.LASF32
 559 018d 07       		.byte	0x7
 560 018e C3       		.byte	0xc3
 561 018f A5020000 		.4byte	0x2a5
 562 0193 00       		.byte	0
 563 0194 08       		.uleb128 0x8
 564 0195 6F050000 		.4byte	.LASF33
 565 0199 07       		.byte	0x7
 566 019a C5       		.byte	0xc5
 567 019b A5020000 		.4byte	0x2a5
 568 019f 04       		.byte	0x4
 569 01a0 08       		.uleb128 0x8
 570 01a1 37020000 		.4byte	.LASF34
ARM GAS  /tmp/ccOtlGAG.s 			page 11


 571 01a5 07       		.byte	0x7
 572 01a6 C7       		.byte	0xc7
 573 01a7 2A010000 		.4byte	0x12a
 574 01ab 08       		.byte	0x8
 575 01ac 08       		.uleb128 0x8
 576 01ad F8040000 		.4byte	.LASF35
 577 01b1 07       		.byte	0x7
 578 01b2 C8       		.byte	0xc8
 579 01b3 36060000 		.4byte	0x636
 580 01b7 0C       		.byte	0xc
 581 01b8 08       		.uleb128 0x8
 582 01b9 13030000 		.4byte	.LASF36
 583 01bd 07       		.byte	0x7
 584 01be CA       		.byte	0xca
 585 01bf A5020000 		.4byte	0x2a5
 586 01c3 10       		.byte	0x10
 587 01c4 08       		.uleb128 0x8
 588 01c5 EA040000 		.4byte	.LASF37
 589 01c9 07       		.byte	0x7
 590 01ca CB       		.byte	0xcb
 591 01cb A5020000 		.4byte	0x2a5
 592 01cf 14       		.byte	0x14
 593 01d0 08       		.uleb128 0x8
 594 01d1 E0070000 		.4byte	.LASF38
 595 01d5 07       		.byte	0x7
 596 01d6 D2       		.byte	0xd2
 597 01d7 C9080000 		.4byte	0x8c9
 598 01db 18       		.byte	0x18
 599 01dc 08       		.uleb128 0x8
 600 01dd 69030000 		.4byte	.LASF39
 601 01e1 07       		.byte	0x7
 602 01e2 D8       		.byte	0xd8
 603 01e3 E0080000 		.4byte	0x8e0
 604 01e7 1C       		.byte	0x1c
 605 01e8 08       		.uleb128 0x8
 606 01e9 E4050000 		.4byte	.LASF40
 607 01ed 07       		.byte	0x7
 608 01ee DD       		.byte	0xdd
 609 01ef 09010000 		.4byte	0x109
 610 01f3 20       		.byte	0x20
 611 01f4 08       		.uleb128 0x8
 612 01f5 22060000 		.4byte	.LASF41
 613 01f9 07       		.byte	0x7
 614 01fa E1       		.byte	0xe1
 615 01fb FE000000 		.4byte	0xfe
 616 01ff 21       		.byte	0x21
 617 0200 08       		.uleb128 0x8
 618 0201 9A070000 		.4byte	.LASF42
 619 0205 07       		.byte	0x7
 620 0206 E6       		.byte	0xe6
 621 0207 14010000 		.4byte	0x114
 622 020b 22       		.byte	0x22
 623 020c 08       		.uleb128 0x8
 624 020d EC050000 		.4byte	.LASF43
 625 0211 07       		.byte	0x7
 626 0212 EC       		.byte	0xec
 627 0213 1F010000 		.4byte	0x11f
ARM GAS  /tmp/ccOtlGAG.s 			page 12


 628 0217 23       		.byte	0x23
 629 0218 08       		.uleb128 0x8
 630 0219 9F030000 		.4byte	.LASF44
 631 021d 07       		.byte	0x7
 632 021e F3       		.byte	0xf3
 633 021f 6C010000 		.4byte	0x16c
 634 0223 24       		.byte	0x24
 635 0224 09       		.uleb128 0x9
 636 0225 705F7500 		.ascii	"p_u\000"
 637 0229 07       		.byte	0x7
 638 022a 3101     		.2byte	0x131
 639 022c 04080000 		.4byte	0x804
 640 0230 28       		.byte	0x28
 641 0231 0A       		.uleb128 0xa
 642 0232 98040000 		.4byte	.LASF45
 643 0236 07       		.byte	0x7
 644 0237 3601     		.2byte	0x136
 645 0239 AB020000 		.4byte	0x2ab
 646 023d 2C       		.byte	0x2c
 647 023e 0A       		.uleb128 0xa
 648 023f B6030000 		.4byte	.LASF46
 649 0243 07       		.byte	0x7
 650 0244 3C01     		.2byte	0x13c
 651 0246 CF020000 		.4byte	0x2cf
 652 024a 30       		.byte	0x30
 653 024b 0A       		.uleb128 0xa
 654 024c DD060000 		.4byte	.LASF47
 655 0250 07       		.byte	0x7
 656 0251 4001     		.2byte	0x140
 657 0253 35010000 		.4byte	0x135
 658 0257 38       		.byte	0x38
 659 0258 0A       		.uleb128 0xa
 660 0259 68060000 		.4byte	.LASF48
 661 025d 07       		.byte	0x7
 662 025e 4601     		.2byte	0x146
 663 0260 40010000 		.4byte	0x140
 664 0264 3C       		.byte	0x3c
 665 0265 0A       		.uleb128 0xa
 666 0266 3A040000 		.4byte	.LASF49
 667 026a 07       		.byte	0x7
 668 026b 4D01     		.2byte	0x14d
 669 026d C3080000 		.4byte	0x8c3
 670 0271 40       		.byte	0x40
 671 0272 0A       		.uleb128 0xa
 672 0273 22070000 		.4byte	.LASF50
 673 0277 07       		.byte	0x7
 674 0278 5101     		.2byte	0x151
 675 027a 2A010000 		.4byte	0x12a
 676 027e 44       		.byte	0x44
 677 027f 0A       		.uleb128 0xa
 678 0280 97020000 		.4byte	.LASF51
 679 0284 07       		.byte	0x7
 680 0285 5801     		.2byte	0x158
 681 0287 82030000 		.4byte	0x382
 682 028b 48       		.byte	0x48
 683 028c 0A       		.uleb128 0xa
 684 028d A1070000 		.4byte	.LASF52
ARM GAS  /tmp/ccOtlGAG.s 			page 13


 685 0291 07       		.byte	0x7
 686 0292 6201     		.2byte	0x162
 687 0294 25000000 		.4byte	0x25
 688 0298 4C       		.byte	0x4c
 689 0299 00       		.byte	0
 690 029a 04       		.uleb128 0x4
 691 029b C6070000 		.4byte	.LASF53
 692 029f 06       		.byte	0x6
 693 02a0 44       		.byte	0x44
 694 02a1 A5020000 		.4byte	0x2a5
 695 02a5 0B       		.uleb128 0xb
 696 02a6 04       		.byte	0x4
 697 02a7 71010000 		.4byte	0x171
 698 02ab 04       		.uleb128 0x4
 699 02ac E7070000 		.4byte	.LASF54
 700 02b0 06       		.byte	0x6
 701 02b1 49       		.byte	0x49
 702 02b2 B6020000 		.4byte	0x2b6
 703 02b6 07       		.uleb128 0x7
 704 02b7 9D060000 		.4byte	.LASF56
 705 02bb 04       		.byte	0x4
 706 02bc 07       		.byte	0x7
 707 02bd B0       		.byte	0xb0
 708 02be CF020000 		.4byte	0x2cf
 709 02c2 08       		.uleb128 0x8
 710 02c3 04060000 		.4byte	.LASF32
 711 02c7 07       		.byte	0x7
 712 02c8 B1       		.byte	0xb1
 713 02c9 A5020000 		.4byte	0x2a5
 714 02cd 00       		.byte	0
 715 02ce 00       		.byte	0
 716 02cf 04       		.uleb128 0x4
 717 02d0 34060000 		.4byte	.LASF57
 718 02d4 06       		.byte	0x6
 719 02d5 50       		.byte	0x50
 720 02d6 DA020000 		.4byte	0x2da
 721 02da 07       		.uleb128 0x7
 722 02db 6B000000 		.4byte	.LASF58
 723 02df 08       		.byte	0x8
 724 02e0 07       		.byte	0x7
 725 02e1 B7       		.byte	0xb7
 726 02e2 FF020000 		.4byte	0x2ff
 727 02e6 08       		.uleb128 0x8
 728 02e7 04060000 		.4byte	.LASF32
 729 02eb 07       		.byte	0x7
 730 02ec B8       		.byte	0xb8
 731 02ed A5020000 		.4byte	0x2a5
 732 02f1 00       		.byte	0
 733 02f2 08       		.uleb128 0x8
 734 02f3 6F050000 		.4byte	.LASF33
 735 02f7 07       		.byte	0x7
 736 02f8 B9       		.byte	0xb9
 737 02f9 A5020000 		.4byte	0x2a5
 738 02fd 04       		.byte	0x4
 739 02fe 00       		.byte	0
 740 02ff 04       		.uleb128 0x4
 741 0300 0D000000 		.4byte	.LASF59
ARM GAS  /tmp/ccOtlGAG.s 			page 14


 742 0304 06       		.byte	0x6
 743 0305 57       		.byte	0x57
 744 0306 0A030000 		.4byte	0x30a
 745 030a 0C       		.uleb128 0xc
 746 030b CA030000 		.4byte	.LASF60
 747 030f 1C       		.byte	0x1c
 748 0310 07       		.byte	0x7
 749 0311 9001     		.2byte	0x190
 750 0313 66030000 		.4byte	0x366
 751 0317 0A       		.uleb128 0xa
 752 0318 95060000 		.4byte	.LASF61
 753 031c 07       		.byte	0x7
 754 031d 9101     		.2byte	0x191
 755 031f CF020000 		.4byte	0x2cf
 756 0323 00       		.byte	0
 757 0324 0A       		.uleb128 0xa
 758 0325 F6050000 		.4byte	.LASF62
 759 0329 07       		.byte	0x7
 760 032a 9201     		.2byte	0x192
 761 032c 2A010000 		.4byte	0x12a
 762 0330 08       		.byte	0x8
 763 0331 0A       		.uleb128 0xa
 764 0332 F2040000 		.4byte	.LASF63
 765 0336 07       		.byte	0x7
 766 0337 9401     		.2byte	0x194
 767 0339 36060000 		.4byte	0x636
 768 033d 0C       		.byte	0xc
 769 033e 0A       		.uleb128 0xa
 770 033f 23030000 		.4byte	.LASF64
 771 0343 07       		.byte	0x7
 772 0344 9701     		.2byte	0x197
 773 0346 A5020000 		.4byte	0x2a5
 774 034a 10       		.byte	0x10
 775 034b 0A       		.uleb128 0xa
 776 034c 1A050000 		.4byte	.LASF65
 777 0350 07       		.byte	0x7
 778 0351 9801     		.2byte	0x198
 779 0353 A5020000 		.4byte	0x2a5
 780 0357 14       		.byte	0x14
 781 0358 0A       		.uleb128 0xa
 782 0359 10050000 		.4byte	.LASF66
 783 035d 07       		.byte	0x7
 784 035e 9B01     		.2byte	0x19b
 785 0360 A5020000 		.4byte	0x2a5
 786 0364 18       		.byte	0x18
 787 0365 00       		.byte	0
 788 0366 04       		.uleb128 0x4
 789 0367 2D070000 		.4byte	.LASF67
 790 036b 06       		.byte	0x6
 791 036c 5C       		.byte	0x5c
 792 036d 71030000 		.4byte	0x371
 793 0371 0B       		.uleb128 0xb
 794 0372 04       		.byte	0x4
 795 0373 77030000 		.4byte	0x377
 796 0377 0D       		.uleb128 0xd
 797 0378 82030000 		.4byte	0x382
 798 037c 0E       		.uleb128 0xe
ARM GAS  /tmp/ccOtlGAG.s 			page 15


 799 037d 82030000 		.4byte	0x382
 800 0381 00       		.byte	0
 801 0382 0F       		.uleb128 0xf
 802 0383 04       		.byte	0x4
 803 0384 04       		.uleb128 0x4
 804 0385 5F050000 		.4byte	.LASF68
 805 0389 06       		.byte	0x6
 806 038a 61       		.byte	0x61
 807 038b 8F030000 		.4byte	0x38f
 808 038f 0C       		.uleb128 0xc
 809 0390 63070000 		.4byte	.LASF69
 810 0394 14       		.byte	0x14
 811 0395 07       		.byte	0x7
 812 0396 6B01     		.2byte	0x16b
 813 0398 DE030000 		.4byte	0x3de
 814 039c 0A       		.uleb128 0xa
 815 039d 81030000 		.4byte	.LASF70
 816 03a1 07       		.byte	0x7
 817 03a2 6C01     		.2byte	0x16c
 818 03a4 E6080000 		.4byte	0x8e6
 819 03a8 00       		.byte	0
 820 03a9 0A       		.uleb128 0xa
 821 03aa 34030000 		.4byte	.LASF71
 822 03ae 07       		.byte	0x7
 823 03af 6D01     		.2byte	0x16d
 824 03b1 E6080000 		.4byte	0x8e6
 825 03b5 04       		.byte	0x4
 826 03b6 0A       		.uleb128 0xa
 827 03b7 AD030000 		.4byte	.LASF72
 828 03bb 07       		.byte	0x7
 829 03bc 6E01     		.2byte	0x16e
 830 03be 61010000 		.4byte	0x161
 831 03c2 08       		.byte	0x8
 832 03c3 0A       		.uleb128 0xa
 833 03c4 09080000 		.4byte	.LASF73
 834 03c8 07       		.byte	0x7
 835 03c9 6F01     		.2byte	0x16f
 836 03cb 66030000 		.4byte	0x366
 837 03cf 0C       		.byte	0xc
 838 03d0 0A       		.uleb128 0xa
 839 03d1 79070000 		.4byte	.LASF74
 840 03d5 07       		.byte	0x7
 841 03d6 7101     		.2byte	0x171
 842 03d8 82030000 		.4byte	0x382
 843 03dc 10       		.byte	0x10
 844 03dd 00       		.byte	0
 845 03de 04       		.uleb128 0x4
 846 03df 09020000 		.4byte	.LASF75
 847 03e3 06       		.byte	0x6
 848 03e4 66       		.byte	0x66
 849 03e5 E9030000 		.4byte	0x3e9
 850 03e9 0C       		.uleb128 0xc
 851 03ea AA040000 		.4byte	.LASF76
 852 03ee 10       		.byte	0x10
 853 03ef 07       		.byte	0x7
 854 03f0 7B01     		.2byte	0x17b
 855 03f2 2B040000 		.4byte	0x42b
ARM GAS  /tmp/ccOtlGAG.s 			page 16


 856 03f6 0A       		.uleb128 0xa
 857 03f7 81030000 		.4byte	.LASF70
 858 03fb 07       		.byte	0x7
 859 03fc 7C01     		.2byte	0x17c
 860 03fe E6080000 		.4byte	0x8e6
 861 0402 00       		.byte	0
 862 0403 0A       		.uleb128 0xa
 863 0404 34030000 		.4byte	.LASF71
 864 0408 07       		.byte	0x7
 865 0409 7E01     		.2byte	0x17e
 866 040b E6080000 		.4byte	0x8e6
 867 040f 04       		.byte	0x4
 868 0410 0A       		.uleb128 0xa
 869 0411 AD030000 		.4byte	.LASF72
 870 0415 07       		.byte	0x7
 871 0416 8001     		.2byte	0x180
 872 0418 61010000 		.4byte	0x161
 873 041c 08       		.byte	0x8
 874 041d 0A       		.uleb128 0xa
 875 041e 55020000 		.4byte	.LASF77
 876 0422 07       		.byte	0x7
 877 0423 8201     		.2byte	0x182
 878 0425 6C010000 		.4byte	0x16c
 879 0429 0C       		.byte	0xc
 880 042a 00       		.byte	0
 881 042b 04       		.uleb128 0x4
 882 042c 7C000000 		.4byte	.LASF78
 883 0430 06       		.byte	0x6
 884 0431 6B       		.byte	0x6b
 885 0432 36040000 		.4byte	0x436
 886 0436 0C       		.uleb128 0xc
 887 0437 3C030000 		.4byte	.LASF79
 888 043b 04       		.byte	0x4
 889 043c 07       		.byte	0x7
 890 043d A201     		.2byte	0x1a2
 891 043f 51040000 		.4byte	0x451
 892 0443 0A       		.uleb128 0xa
 893 0444 41070000 		.4byte	.LASF80
 894 0448 07       		.byte	0x7
 895 0449 AA01     		.2byte	0x1aa
 896 044b CF080000 		.4byte	0x8cf
 897 044f 00       		.byte	0
 898 0450 00       		.byte	0
 899 0451 04       		.uleb128 0x4
 900 0452 19040000 		.4byte	.LASF81
 901 0456 06       		.byte	0x6
 902 0457 70       		.byte	0x70
 903 0458 5C040000 		.4byte	0x45c
 904 045c 10       		.uleb128 0x10
 905 045d 2A060000 		.4byte	.LASF82
 906 0461 6802     		.2byte	0x268
 907 0463 07       		.byte	0x7
 908 0464 C201     		.2byte	0x1c2
 909 0466 B8040000 		.4byte	0x4b8
 910 046a 0A       		.uleb128 0xa
 911 046b B0070000 		.4byte	.LASF83
 912 046f 07       		.byte	0x7
ARM GAS  /tmp/ccOtlGAG.s 			page 17


 913 0470 C601     		.2byte	0x1c6
 914 0472 FF020000 		.4byte	0x2ff
 915 0476 00       		.byte	0
 916 0477 0A       		.uleb128 0xa
 917 0478 AE020000 		.4byte	.LASF84
 918 047c 07       		.byte	0x7
 919 047d CA01     		.2byte	0x1ca
 920 047f DE030000 		.4byte	0x3de
 921 0483 1C       		.byte	0x1c
 922 0484 09       		.uleb128 0x9
 923 0485 64626700 		.ascii	"dbg\000"
 924 0489 07       		.byte	0x7
 925 048a CE01     		.2byte	0x1ce
 926 048c 2B040000 		.4byte	0x42b
 927 0490 2C       		.byte	0x2c
 928 0491 0A       		.uleb128 0xa
 929 0492 F6010000 		.4byte	.LASF85
 930 0496 07       		.byte	0x7
 931 0497 D201     		.2byte	0x1d2
 932 0499 71010000 		.4byte	0x171
 933 049d 30       		.byte	0x30
 934 049e 09       		.uleb128 0x9
 935 049f 746D00   		.ascii	"tm\000"
 936 04a2 07       		.byte	0x7
 937 04a3 D701     		.2byte	0x1d7
 938 04a5 AB070000 		.4byte	0x7ab
 939 04a9 80       		.byte	0x80
 940 04aa 0A       		.uleb128 0xa
 941 04ab 54030000 		.4byte	.LASF86
 942 04af 07       		.byte	0x7
 943 04b0 E301     		.2byte	0x1e3
 944 04b2 EC080000 		.4byte	0x8ec
 945 04b6 88       		.byte	0x88
 946 04b7 00       		.byte	0
 947 04b8 11       		.uleb128 0x11
 948 04b9 C8000000 		.4byte	0xc8
 949 04bd C8040000 		.4byte	0x4c8
 950 04c1 12       		.uleb128 0x12
 951 04c2 2C000000 		.4byte	0x2c
 952 04c6 00       		.byte	0
 953 04c7 00       		.byte	0
 954 04c8 13       		.uleb128 0x13
 955 04c9 5C       		.byte	0x5c
 956 04ca 08       		.byte	0x8
 957 04cb 0603     		.2byte	0x306
 958 04cd FD050000 		.4byte	0x5fd
 959 04d1 0A       		.uleb128 0xa
 960 04d2 74070000 		.4byte	.LASF87
 961 04d6 08       		.byte	0x8
 962 04d7 0803     		.2byte	0x308
 963 04d9 D3000000 		.4byte	0xd3
 964 04dd 00       		.byte	0
 965 04de 0A       		.uleb128 0xa
 966 04df 91040000 		.4byte	.LASF88
 967 04e3 08       		.byte	0x8
 968 04e4 0903     		.2byte	0x309
 969 04e6 D3000000 		.4byte	0xd3
ARM GAS  /tmp/ccOtlGAG.s 			page 18


 970 04ea 04       		.byte	0x4
 971 04eb 0A       		.uleb128 0xa
 972 04ec 9F020000 		.4byte	.LASF89
 973 04f0 08       		.byte	0x8
 974 04f1 0A03     		.2byte	0x30a
 975 04f3 D3000000 		.4byte	0xd3
 976 04f7 08       		.byte	0x8
 977 04f8 0A       		.uleb128 0xa
 978 04f9 00040000 		.4byte	.LASF90
 979 04fd 08       		.byte	0x8
 980 04fe 0B03     		.2byte	0x30b
 981 0500 D3000000 		.4byte	0xd3
 982 0504 0C       		.byte	0xc
 983 0505 0A       		.uleb128 0xa
 984 0506 0A030000 		.4byte	.LASF91
 985 050a 08       		.byte	0x8
 986 050b 0C03     		.2byte	0x30c
 987 050d D3000000 		.4byte	0xd3
 988 0511 10       		.byte	0x10
 989 0512 0A       		.uleb128 0xa
 990 0513 79060000 		.4byte	.LASF92
 991 0517 08       		.byte	0x8
 992 0518 0D03     		.2byte	0x30d
 993 051a D3000000 		.4byte	0xd3
 994 051e 14       		.byte	0x14
 995 051f 0A       		.uleb128 0xa
 996 0520 BE070000 		.4byte	.LASF93
 997 0524 08       		.byte	0x8
 998 0525 0E03     		.2byte	0x30e
 999 0527 D3000000 		.4byte	0xd3
 1000 052b 18       		.byte	0x18
 1001 052c 0A       		.uleb128 0xa
 1002 052d 7E050000 		.4byte	.LASF94
 1003 0531 08       		.byte	0x8
 1004 0532 0F03     		.2byte	0x30f
 1005 0534 D8000000 		.4byte	0xd8
 1006 0538 1C       		.byte	0x1c
 1007 0539 0A       		.uleb128 0xa
 1008 053a 80070000 		.4byte	.LASF95
 1009 053e 08       		.byte	0x8
 1010 053f 1003     		.2byte	0x310
 1011 0541 D3000000 		.4byte	0xd3
 1012 0545 20       		.byte	0x20
 1013 0546 0A       		.uleb128 0xa
 1014 0547 83050000 		.4byte	.LASF96
 1015 054b 08       		.byte	0x8
 1016 054c 1103     		.2byte	0x311
 1017 054e D3000000 		.4byte	0xd3
 1018 0552 24       		.byte	0x24
 1019 0553 0A       		.uleb128 0xa
 1020 0554 B2050000 		.4byte	.LASF97
 1021 0558 08       		.byte	0x8
 1022 0559 1203     		.2byte	0x312
 1023 055b D3000000 		.4byte	0xd3
 1024 055f 28       		.byte	0x28
 1025 0560 0A       		.uleb128 0xa
 1026 0561 40050000 		.4byte	.LASF98
ARM GAS  /tmp/ccOtlGAG.s 			page 19


 1027 0565 08       		.byte	0x8
 1028 0566 1303     		.2byte	0x313
 1029 0568 B8040000 		.4byte	0x4b8
 1030 056c 2C       		.byte	0x2c
 1031 056d 0A       		.uleb128 0xa
 1032 056e FE040000 		.4byte	.LASF99
 1033 0572 08       		.byte	0x8
 1034 0573 1403     		.2byte	0x314
 1035 0575 D3000000 		.4byte	0xd3
 1036 0579 30       		.byte	0x30
 1037 057a 0A       		.uleb128 0xa
 1038 057b 89050000 		.4byte	.LASF100
 1039 057f 08       		.byte	0x8
 1040 0580 1503     		.2byte	0x315
 1041 0582 D3000000 		.4byte	0xd3
 1042 0586 34       		.byte	0x34
 1043 0587 0A       		.uleb128 0xa
 1044 0588 BC050000 		.4byte	.LASF101
 1045 058c 08       		.byte	0x8
 1046 058d 1603     		.2byte	0x316
 1047 058f D3000000 		.4byte	0xd3
 1048 0593 38       		.byte	0x38
 1049 0594 0A       		.uleb128 0xa
 1050 0595 44060000 		.4byte	.LASF102
 1051 0599 08       		.byte	0x8
 1052 059a 1703     		.2byte	0x317
 1053 059c B8040000 		.4byte	0x4b8
 1054 05a0 3C       		.byte	0x3c
 1055 05a1 0A       		.uleb128 0xa
 1056 05a2 04050000 		.4byte	.LASF103
 1057 05a6 08       		.byte	0x8
 1058 05a7 1803     		.2byte	0x318
 1059 05a9 D3000000 		.4byte	0xd3
 1060 05ad 40       		.byte	0x40
 1061 05ae 0A       		.uleb128 0xa
 1062 05af 89030000 		.4byte	.LASF104
 1063 05b3 08       		.byte	0x8
 1064 05b4 1903     		.2byte	0x319
 1065 05b6 D3000000 		.4byte	0xd3
 1066 05ba 44       		.byte	0x44
 1067 05bb 0A       		.uleb128 0xa
 1068 05bc C6050000 		.4byte	.LASF105
 1069 05c0 08       		.byte	0x8
 1070 05c1 1A03     		.2byte	0x31a
 1071 05c3 D3000000 		.4byte	0xd3
 1072 05c7 48       		.byte	0x48
 1073 05c8 0A       		.uleb128 0xa
 1074 05c9 55050000 		.4byte	.LASF106
 1075 05cd 08       		.byte	0x8
 1076 05ce 1B03     		.2byte	0x31b
 1077 05d0 B8040000 		.4byte	0x4b8
 1078 05d4 4C       		.byte	0x4c
 1079 05d5 0A       		.uleb128 0xa
 1080 05d6 0A050000 		.4byte	.LASF107
 1081 05da 08       		.byte	0x8
 1082 05db 1C03     		.2byte	0x31c
 1083 05dd D3000000 		.4byte	0xd3
ARM GAS  /tmp/ccOtlGAG.s 			page 20


 1084 05e1 50       		.byte	0x50
 1085 05e2 0A       		.uleb128 0xa
 1086 05e3 39000000 		.4byte	.LASF108
 1087 05e7 08       		.byte	0x8
 1088 05e8 1D03     		.2byte	0x31d
 1089 05ea D3000000 		.4byte	0xd3
 1090 05ee 54       		.byte	0x54
 1091 05ef 0A       		.uleb128 0xa
 1092 05f0 D0050000 		.4byte	.LASF109
 1093 05f4 08       		.byte	0x8
 1094 05f5 1E03     		.2byte	0x31e
 1095 05f7 D3000000 		.4byte	0xd3
 1096 05fb 58       		.byte	0x58
 1097 05fc 00       		.byte	0
 1098 05fd 14       		.uleb128 0x14
 1099 05fe 5A070000 		.4byte	.LASF110
 1100 0602 08       		.byte	0x8
 1101 0603 1F03     		.2byte	0x31f
 1102 0605 C8040000 		.4byte	0x4c8
 1103 0609 15       		.uleb128 0x15
 1104 060a A5050000 		.4byte	.LASF111
 1105 060e 08       		.byte	0x8
 1106 060f A706     		.2byte	0x6a7
 1107 0611 C3000000 		.4byte	0xc3
 1108 0615 16       		.uleb128 0x16
 1109 0616 8F030000 		.4byte	.LASF112
 1110 061a 09       		.byte	0x9
 1111 061b 4C       		.byte	0x4c
 1112 061c C8000000 		.4byte	0xc8
 1113 0620 04       		.uleb128 0x4
 1114 0621 2B030000 		.4byte	.LASF113
 1115 0625 0A       		.byte	0xa
 1116 0626 65       		.byte	0x65
 1117 0627 82030000 		.4byte	0x382
 1118 062b 04       		.uleb128 0x4
 1119 062c 72040000 		.4byte	.LASF114
 1120 0630 0A       		.byte	0xa
 1121 0631 6D       		.byte	0x6d
 1122 0632 DD000000 		.4byte	0xdd
 1123 0636 07       		.uleb128 0x7
 1124 0637 52070000 		.4byte	.LASF115
 1125 063b 04       		.byte	0x4
 1126 063c 0A       		.byte	0xa
 1127 063d 89       		.byte	0x89
 1128 063e 4F060000 		.4byte	0x64f
 1129 0642 17       		.uleb128 0x17
 1130 0643 72313300 		.ascii	"r13\000"
 1131 0647 0A       		.byte	0xa
 1132 0648 8A       		.byte	0x8a
 1133 0649 90070000 		.4byte	0x790
 1134 064d 00       		.byte	0
 1135 064e 00       		.byte	0
 1136 064f 07       		.uleb128 0x7
 1137 0650 5F000000 		.4byte	.LASF116
 1138 0654 64       		.byte	0x64
 1139 0655 02       		.byte	0x2
 1140 0656 F4       		.byte	0xf4
ARM GAS  /tmp/ccOtlGAG.s 			page 21


 1141 0657 90070000 		.4byte	0x790
 1142 065b 17       		.uleb128 0x17
 1143 065c 73313600 		.ascii	"s16\000"
 1144 0660 02       		.byte	0x2
 1145 0661 F6       		.byte	0xf6
 1146 0662 20060000 		.4byte	0x620
 1147 0666 00       		.byte	0
 1148 0667 17       		.uleb128 0x17
 1149 0668 73313700 		.ascii	"s17\000"
 1150 066c 02       		.byte	0x2
 1151 066d F7       		.byte	0xf7
 1152 066e 20060000 		.4byte	0x620
 1153 0672 04       		.byte	0x4
 1154 0673 17       		.uleb128 0x17
 1155 0674 73313800 		.ascii	"s18\000"
 1156 0678 02       		.byte	0x2
 1157 0679 F8       		.byte	0xf8
 1158 067a 20060000 		.4byte	0x620
 1159 067e 08       		.byte	0x8
 1160 067f 17       		.uleb128 0x17
 1161 0680 73313900 		.ascii	"s19\000"
 1162 0684 02       		.byte	0x2
 1163 0685 F9       		.byte	0xf9
 1164 0686 20060000 		.4byte	0x620
 1165 068a 0C       		.byte	0xc
 1166 068b 17       		.uleb128 0x17
 1167 068c 73323000 		.ascii	"s20\000"
 1168 0690 02       		.byte	0x2
 1169 0691 FA       		.byte	0xfa
 1170 0692 20060000 		.4byte	0x620
 1171 0696 10       		.byte	0x10
 1172 0697 17       		.uleb128 0x17
 1173 0698 73323100 		.ascii	"s21\000"
 1174 069c 02       		.byte	0x2
 1175 069d FB       		.byte	0xfb
 1176 069e 20060000 		.4byte	0x620
 1177 06a2 14       		.byte	0x14
 1178 06a3 17       		.uleb128 0x17
 1179 06a4 73323200 		.ascii	"s22\000"
 1180 06a8 02       		.byte	0x2
 1181 06a9 FC       		.byte	0xfc
 1182 06aa 20060000 		.4byte	0x620
 1183 06ae 18       		.byte	0x18
 1184 06af 17       		.uleb128 0x17
 1185 06b0 73323300 		.ascii	"s23\000"
 1186 06b4 02       		.byte	0x2
 1187 06b5 FD       		.byte	0xfd
 1188 06b6 20060000 		.4byte	0x620
 1189 06ba 1C       		.byte	0x1c
 1190 06bb 17       		.uleb128 0x17
 1191 06bc 73323400 		.ascii	"s24\000"
 1192 06c0 02       		.byte	0x2
 1193 06c1 FE       		.byte	0xfe
 1194 06c2 20060000 		.4byte	0x620
 1195 06c6 20       		.byte	0x20
 1196 06c7 17       		.uleb128 0x17
 1197 06c8 73323500 		.ascii	"s25\000"
ARM GAS  /tmp/ccOtlGAG.s 			page 22


 1198 06cc 02       		.byte	0x2
 1199 06cd FF       		.byte	0xff
 1200 06ce 20060000 		.4byte	0x620
 1201 06d2 24       		.byte	0x24
 1202 06d3 09       		.uleb128 0x9
 1203 06d4 73323600 		.ascii	"s26\000"
 1204 06d8 02       		.byte	0x2
 1205 06d9 0001     		.2byte	0x100
 1206 06db 20060000 		.4byte	0x620
 1207 06df 28       		.byte	0x28
 1208 06e0 09       		.uleb128 0x9
 1209 06e1 73323700 		.ascii	"s27\000"
 1210 06e5 02       		.byte	0x2
 1211 06e6 0101     		.2byte	0x101
 1212 06e8 20060000 		.4byte	0x620
 1213 06ec 2C       		.byte	0x2c
 1214 06ed 09       		.uleb128 0x9
 1215 06ee 73323800 		.ascii	"s28\000"
 1216 06f2 02       		.byte	0x2
 1217 06f3 0201     		.2byte	0x102
 1218 06f5 20060000 		.4byte	0x620
 1219 06f9 30       		.byte	0x30
 1220 06fa 09       		.uleb128 0x9
 1221 06fb 73323900 		.ascii	"s29\000"
 1222 06ff 02       		.byte	0x2
 1223 0700 0301     		.2byte	0x103
 1224 0702 20060000 		.4byte	0x620
 1225 0706 34       		.byte	0x34
 1226 0707 09       		.uleb128 0x9
 1227 0708 73333000 		.ascii	"s30\000"
 1228 070c 02       		.byte	0x2
 1229 070d 0401     		.2byte	0x104
 1230 070f 20060000 		.4byte	0x620
 1231 0713 38       		.byte	0x38
 1232 0714 09       		.uleb128 0x9
 1233 0715 73333100 		.ascii	"s31\000"
 1234 0719 02       		.byte	0x2
 1235 071a 0501     		.2byte	0x105
 1236 071c 20060000 		.4byte	0x620
 1237 0720 3C       		.byte	0x3c
 1238 0721 09       		.uleb128 0x9
 1239 0722 723400   		.ascii	"r4\000"
 1240 0725 02       		.byte	0x2
 1241 0726 0701     		.2byte	0x107
 1242 0728 20060000 		.4byte	0x620
 1243 072c 40       		.byte	0x40
 1244 072d 09       		.uleb128 0x9
 1245 072e 723500   		.ascii	"r5\000"
 1246 0731 02       		.byte	0x2
 1247 0732 0801     		.2byte	0x108
 1248 0734 20060000 		.4byte	0x620
 1249 0738 44       		.byte	0x44
 1250 0739 09       		.uleb128 0x9
 1251 073a 723600   		.ascii	"r6\000"
 1252 073d 02       		.byte	0x2
 1253 073e 0901     		.2byte	0x109
 1254 0740 20060000 		.4byte	0x620
ARM GAS  /tmp/ccOtlGAG.s 			page 23


 1255 0744 48       		.byte	0x48
 1256 0745 09       		.uleb128 0x9
 1257 0746 723700   		.ascii	"r7\000"
 1258 0749 02       		.byte	0x2
 1259 074a 0A01     		.2byte	0x10a
 1260 074c 20060000 		.4byte	0x620
 1261 0750 4C       		.byte	0x4c
 1262 0751 09       		.uleb128 0x9
 1263 0752 723800   		.ascii	"r8\000"
 1264 0755 02       		.byte	0x2
 1265 0756 0B01     		.2byte	0x10b
 1266 0758 20060000 		.4byte	0x620
 1267 075c 50       		.byte	0x50
 1268 075d 09       		.uleb128 0x9
 1269 075e 723900   		.ascii	"r9\000"
 1270 0761 02       		.byte	0x2
 1271 0762 0C01     		.2byte	0x10c
 1272 0764 20060000 		.4byte	0x620
 1273 0768 54       		.byte	0x54
 1274 0769 09       		.uleb128 0x9
 1275 076a 72313000 		.ascii	"r10\000"
 1276 076e 02       		.byte	0x2
 1277 076f 0D01     		.2byte	0x10d
 1278 0771 20060000 		.4byte	0x620
 1279 0775 58       		.byte	0x58
 1280 0776 09       		.uleb128 0x9
 1281 0777 72313100 		.ascii	"r11\000"
 1282 077b 02       		.byte	0x2
 1283 077c 0E01     		.2byte	0x10e
 1284 077e 20060000 		.4byte	0x620
 1285 0782 5C       		.byte	0x5c
 1286 0783 09       		.uleb128 0x9
 1287 0784 6C7200   		.ascii	"lr\000"
 1288 0787 02       		.byte	0x2
 1289 0788 0F01     		.2byte	0x10f
 1290 078a 20060000 		.4byte	0x620
 1291 078e 60       		.byte	0x60
 1292 078f 00       		.byte	0
 1293 0790 0B       		.uleb128 0xb
 1294 0791 04       		.byte	0x4
 1295 0792 4F060000 		.4byte	0x64f
 1296 0796 18       		.uleb128 0x18
 1297 0797 04       		.byte	0x4
 1298 0798 0B       		.byte	0xb
 1299 0799 38       		.byte	0x38
 1300 079a AB070000 		.4byte	0x7ab
 1301 079e 08       		.uleb128 0x8
 1302 079f 4B070000 		.4byte	.LASF117
 1303 07a3 0B       		.byte	0xb
 1304 07a4 3C       		.byte	0x3c
 1305 07a5 E8000000 		.4byte	0xe8
 1306 07a9 00       		.byte	0
 1307 07aa 00       		.byte	0
 1308 07ab 04       		.uleb128 0x4
 1309 07ac CD040000 		.4byte	.LASF118
 1310 07b0 0B       		.byte	0xb
 1311 07b1 3D       		.byte	0x3d
ARM GAS  /tmp/ccOtlGAG.s 			page 24


 1312 07b2 96070000 		.4byte	0x796
 1313 07b6 18       		.uleb128 0x18
 1314 07b7 18       		.byte	0x18
 1315 07b8 0B       		.byte	0xb
 1316 07b9 48       		.byte	0x48
 1317 07ba F9070000 		.4byte	0x7f9
 1318 07be 08       		.uleb128 0x8
 1319 07bf DE030000 		.4byte	.LASF119
 1320 07c3 0B       		.byte	0xb
 1321 07c4 49       		.byte	0x49
 1322 07c5 E8000000 		.4byte	0xe8
 1323 07c9 00       		.byte	0
 1324 07ca 08       		.uleb128 0x8
 1325 07cb AF010000 		.4byte	.LASF120
 1326 07cf 0B       		.byte	0xb
 1327 07d0 4A       		.byte	0x4a
 1328 07d1 E8000000 		.4byte	0xe8
 1329 07d5 04       		.byte	0x4
 1330 07d6 08       		.uleb128 0x8
 1331 07d7 0D040000 		.4byte	.LASF121
 1332 07db 0B       		.byte	0xb
 1333 07dc 4B       		.byte	0x4b
 1334 07dd E8000000 		.4byte	0xe8
 1335 07e1 08       		.byte	0x8
 1336 07e2 17       		.uleb128 0x17
 1337 07e3 6E00     		.ascii	"n\000"
 1338 07e5 0B       		.byte	0xb
 1339 07e6 4C       		.byte	0x4c
 1340 07e7 56010000 		.4byte	0x156
 1341 07eb 0C       		.byte	0xc
 1342 07ec 08       		.uleb128 0x8
 1343 07ed 2D050000 		.4byte	.LASF122
 1344 07f1 0B       		.byte	0xb
 1345 07f2 4D       		.byte	0x4d
 1346 07f3 F3000000 		.4byte	0xf3
 1347 07f7 10       		.byte	0x10
 1348 07f8 00       		.byte	0
 1349 07f9 04       		.uleb128 0x4
 1350 07fa B5010000 		.4byte	.LASF123
 1351 07fe 0B       		.byte	0xb
 1352 07ff 4E       		.byte	0x4e
 1353 0800 B6070000 		.4byte	0x7b6
 1354 0804 19       		.uleb128 0x19
 1355 0805 04       		.byte	0x4
 1356 0806 07       		.byte	0x7
 1357 0807 FA       		.byte	0xfa
 1358 0808 61080000 		.4byte	0x861
 1359 080c 1A       		.uleb128 0x1a
 1360 080d 45000000 		.4byte	.LASF124
 1361 0811 07       		.byte	0x7
 1362 0812 0101     		.2byte	0x101
 1363 0814 35010000 		.4byte	0x135
 1364 0818 1A       		.uleb128 0x1a
 1365 0819 ED010000 		.4byte	.LASF125
 1366 081d 07       		.byte	0x7
 1367 081e 0801     		.2byte	0x108
 1368 0820 35010000 		.4byte	0x135
ARM GAS  /tmp/ccOtlGAG.s 			page 25


 1369 0824 1A       		.uleb128 0x1a
 1370 0825 D9070000 		.4byte	.LASF126
 1371 0829 07       		.byte	0x7
 1372 082a 0F01     		.2byte	0x10f
 1373 082c 82030000 		.4byte	0x382
 1374 0830 1A       		.uleb128 0x1a
 1375 0831 3F000000 		.4byte	.LASF127
 1376 0835 07       		.byte	0x7
 1377 0836 1601     		.2byte	0x116
 1378 0838 61080000 		.4byte	0x861
 1379 083c 1A       		.uleb128 0x1a
 1380 083d A6030000 		.4byte	.LASF128
 1381 0841 07       		.byte	0x7
 1382 0842 1E01     		.2byte	0x11e
 1383 0844 8C080000 		.4byte	0x88c
 1384 0848 1A       		.uleb128 0x1a
 1385 0849 D6060000 		.4byte	.LASF129
 1386 084d 07       		.byte	0x7
 1387 084e 2701     		.2byte	0x127
 1388 0850 C3080000 		.4byte	0x8c3
 1389 0854 1A       		.uleb128 0x1a
 1390 0855 FD050000 		.4byte	.LASF130
 1391 0859 07       		.byte	0x7
 1392 085a 2F01     		.2byte	0x12f
 1393 085c 40010000 		.4byte	0x140
 1394 0860 00       		.byte	0
 1395 0861 0B       		.uleb128 0xb
 1396 0862 04       		.byte	0x4
 1397 0863 9A020000 		.4byte	0x29a
 1398 0867 07       		.uleb128 0x7
 1399 0868 5B060000 		.4byte	.LASF131
 1400 086c 0C       		.byte	0xc
 1401 086d 0C       		.byte	0xc
 1402 086e 34       		.byte	0x34
 1403 086f 8C080000 		.4byte	0x88c
 1404 0873 08       		.uleb128 0x8
 1405 0874 1B030000 		.4byte	.LASF132
 1406 0878 0C       		.byte	0xc
 1407 0879 35       		.byte	0x35
 1408 087a CF020000 		.4byte	0x2cf
 1409 087e 00       		.byte	0
 1410 087f 08       		.uleb128 0x8
 1411 0880 D8030000 		.4byte	.LASF133
 1412 0884 0C       		.byte	0xc
 1413 0885 37       		.byte	0x37
 1414 0886 4B010000 		.4byte	0x14b
 1415 088a 08       		.byte	0x8
 1416 088b 00       		.byte	0
 1417 088c 0B       		.uleb128 0xb
 1418 088d 04       		.byte	0x4
 1419 088e 67080000 		.4byte	0x867
 1420 0892 07       		.uleb128 0x7
 1421 0893 91070000 		.4byte	.LASF134
 1422 0897 10       		.byte	0x10
 1423 0898 0D       		.byte	0xd
 1424 0899 39       		.byte	0x39
 1425 089a C3080000 		.4byte	0x8c3
ARM GAS  /tmp/ccOtlGAG.s 			page 26


 1426 089e 08       		.uleb128 0x8
 1427 089f A6020000 		.4byte	.LASF135
 1428 08a3 0D       		.byte	0xd
 1429 08a4 3A       		.byte	0x3a
 1430 08a5 CF020000 		.4byte	0x2cf
 1431 08a9 00       		.byte	0
 1432 08aa 08       		.uleb128 0x8
 1433 08ab 01080000 		.4byte	.LASF136
 1434 08af 0D       		.byte	0xd
 1435 08b0 3C       		.byte	0x3c
 1436 08b1 A5020000 		.4byte	0x2a5
 1437 08b5 08       		.byte	0x8
 1438 08b6 08       		.uleb128 0x8
 1439 08b7 11070000 		.4byte	.LASF137
 1440 08bb 0D       		.byte	0xd
 1441 08bc 3E       		.byte	0x3e
 1442 08bd 1E0A0000 		.4byte	0xa1e
 1443 08c1 0C       		.byte	0xc
 1444 08c2 00       		.byte	0
 1445 08c3 0B       		.uleb128 0xb
 1446 08c4 04       		.byte	0x4
 1447 08c5 92080000 		.4byte	0x892
 1448 08c9 0B       		.uleb128 0xb
 1449 08ca 04       		.byte	0x4
 1450 08cb DB080000 		.4byte	0x8db
 1451 08cf 05       		.uleb128 0x5
 1452 08d0 C9080000 		.4byte	0x8c9
 1453 08d4 03       		.uleb128 0x3
 1454 08d5 01       		.byte	0x1
 1455 08d6 08       		.byte	0x8
 1456 08d7 D1060000 		.4byte	.LASF138
 1457 08db 06       		.uleb128 0x6
 1458 08dc D4080000 		.4byte	0x8d4
 1459 08e0 0B       		.uleb128 0xb
 1460 08e1 04       		.byte	0x4
 1461 08e2 2B060000 		.4byte	0x62b
 1462 08e6 0B       		.uleb128 0xb
 1463 08e7 04       		.byte	0x4
 1464 08e8 84030000 		.4byte	0x384
 1465 08ec 11       		.uleb128 0x11
 1466 08ed 2B060000 		.4byte	0x62b
 1467 08f1 FC080000 		.4byte	0x8fc
 1468 08f5 12       		.uleb128 0x12
 1469 08f6 2C000000 		.4byte	0x2c
 1470 08fa 3B       		.byte	0x3b
 1471 08fb 00       		.byte	0
 1472 08fc 1B       		.uleb128 0x1b
 1473 08fd 636800   		.ascii	"ch\000"
 1474 0900 07       		.byte	0x7
 1475 0901 0902     		.2byte	0x209
 1476 0903 51040000 		.4byte	0x451
 1477 0907 18       		.uleb128 0x18
 1478 0908 16       		.byte	0x16
 1479 0909 0E       		.byte	0xe
 1480 090a 34       		.byte	0x34
 1481 090b E8090000 		.4byte	0x9e8
 1482 090f 08       		.uleb128 0x8
ARM GAS  /tmp/ccOtlGAG.s 			page 27


 1483 0910 B5020000 		.4byte	.LASF139
 1484 0914 0E       		.byte	0xe
 1485 0915 35       		.byte	0x35
 1486 0916 E8090000 		.4byte	0x9e8
 1487 091a 00       		.byte	0
 1488 091b 08       		.uleb128 0x8
 1489 091c 7D040000 		.4byte	.LASF140
 1490 0920 0E       		.byte	0xe
 1491 0921 36       		.byte	0x36
 1492 0922 A2000000 		.4byte	0xa2
 1493 0926 04       		.byte	0x4
 1494 0927 08       		.uleb128 0x8
 1495 0928 AD060000 		.4byte	.LASF141
 1496 092c 0E       		.byte	0xe
 1497 092d 37       		.byte	0x37
 1498 092e A2000000 		.4byte	0xa2
 1499 0932 05       		.byte	0x5
 1500 0933 08       		.uleb128 0x8
 1501 0934 F6070000 		.4byte	.LASF142
 1502 0938 0E       		.byte	0xe
 1503 0939 38       		.byte	0x38
 1504 093a AD000000 		.4byte	0xad
 1505 093e 06       		.byte	0x6
 1506 093f 08       		.uleb128 0x8
 1507 0940 4A050000 		.4byte	.LASF143
 1508 0944 0E       		.byte	0xe
 1509 0945 39       		.byte	0x39
 1510 0946 A2000000 		.4byte	0xa2
 1511 094a 08       		.byte	0x8
 1512 094b 08       		.uleb128 0x8
 1513 094c C1040000 		.4byte	.LASF144
 1514 0950 0E       		.byte	0xe
 1515 0951 3A       		.byte	0x3a
 1516 0952 A2000000 		.4byte	0xa2
 1517 0956 09       		.byte	0x9
 1518 0957 08       		.uleb128 0x8
 1519 0958 DF010000 		.4byte	.LASF145
 1520 095c 0E       		.byte	0xe
 1521 095d 3B       		.byte	0x3b
 1522 095e A2000000 		.4byte	0xa2
 1523 0962 0A       		.byte	0xa
 1524 0963 08       		.uleb128 0x8
 1525 0964 89060000 		.4byte	.LASF146
 1526 0968 0E       		.byte	0xe
 1527 0969 3C       		.byte	0x3c
 1528 096a A2000000 		.4byte	0xa2
 1529 096e 0B       		.byte	0xb
 1530 096f 08       		.uleb128 0x8
 1531 0970 86070000 		.4byte	.LASF147
 1532 0974 0E       		.byte	0xe
 1533 0975 3D       		.byte	0x3d
 1534 0976 A2000000 		.4byte	0xa2
 1535 097a 0C       		.byte	0xc
 1536 097b 08       		.uleb128 0x8
 1537 097c 4E060000 		.4byte	.LASF148
 1538 0980 0E       		.byte	0xe
 1539 0981 3E       		.byte	0x3e
ARM GAS  /tmp/ccOtlGAG.s 			page 28


 1540 0982 A2000000 		.4byte	0xa2
 1541 0986 0D       		.byte	0xd
 1542 0987 08       		.uleb128 0x8
 1543 0988 00000000 		.4byte	.LASF149
 1544 098c 0E       		.byte	0xe
 1545 098d 3F       		.byte	0x3f
 1546 098e A2000000 		.4byte	0xa2
 1547 0992 0E       		.byte	0xe
 1548 0993 08       		.uleb128 0x8
 1549 0994 DE040000 		.4byte	.LASF150
 1550 0998 0E       		.byte	0xe
 1551 0999 40       		.byte	0x40
 1552 099a A2000000 		.4byte	0xa2
 1553 099e 0F       		.byte	0xf
 1554 099f 08       		.uleb128 0x8
 1555 09a0 7A020000 		.4byte	.LASF151
 1556 09a4 0E       		.byte	0xe
 1557 09a5 41       		.byte	0x41
 1558 09a6 A2000000 		.4byte	0xa2
 1559 09aa 10       		.byte	0x10
 1560 09ab 08       		.uleb128 0x8
 1561 09ac 3E020000 		.4byte	.LASF152
 1562 09b0 0E       		.byte	0xe
 1563 09b1 43       		.byte	0x43
 1564 09b2 A2000000 		.4byte	0xa2
 1565 09b6 11       		.byte	0x11
 1566 09b7 08       		.uleb128 0x8
 1567 09b8 8A020000 		.4byte	.LASF153
 1568 09bc 0E       		.byte	0xe
 1569 09bd 44       		.byte	0x44
 1570 09be A2000000 		.4byte	0xa2
 1571 09c2 12       		.byte	0x12
 1572 09c3 08       		.uleb128 0x8
 1573 09c4 85040000 		.4byte	.LASF154
 1574 09c8 0E       		.byte	0xe
 1575 09c9 45       		.byte	0x45
 1576 09ca A2000000 		.4byte	0xa2
 1577 09ce 13       		.byte	0x13
 1578 09cf 08       		.uleb128 0x8
 1579 09d0 13060000 		.4byte	.LASF155
 1580 09d4 0E       		.byte	0xe
 1581 09d5 46       		.byte	0x46
 1582 09d6 A2000000 		.4byte	0xa2
 1583 09da 14       		.byte	0x14
 1584 09db 08       		.uleb128 0x8
 1585 09dc 25040000 		.4byte	.LASF156
 1586 09e0 0E       		.byte	0xe
 1587 09e1 48       		.byte	0x48
 1588 09e2 A2000000 		.4byte	0xa2
 1589 09e6 15       		.byte	0x15
 1590 09e7 00       		.byte	0
 1591 09e8 11       		.uleb128 0x11
 1592 09e9 D4080000 		.4byte	0x8d4
 1593 09ed F8090000 		.4byte	0x9f8
 1594 09f1 12       		.uleb128 0x12
 1595 09f2 2C000000 		.4byte	0x2c
 1596 09f6 03       		.byte	0x3
ARM GAS  /tmp/ccOtlGAG.s 			page 29


 1597 09f7 00       		.byte	0
 1598 09f8 04       		.uleb128 0x4
 1599 09f9 00030000 		.4byte	.LASF157
 1600 09fd 0E       		.byte	0xe
 1601 09fe 49       		.byte	0x49
 1602 09ff 07090000 		.4byte	0x907
 1603 0a03 06       		.uleb128 0x6
 1604 0a04 F8090000 		.4byte	0x9f8
 1605 0a08 16       		.uleb128 0x16
 1606 0a09 C1030000 		.4byte	.LASF158
 1607 0a0d 0E       		.byte	0xe
 1608 0a0e 6E       		.byte	0x6e
 1609 0a0f 030A0000 		.4byte	0xa03
 1610 0a13 04       		.uleb128 0x4
 1611 0a14 4C030000 		.4byte	.LASF159
 1612 0a18 0D       		.byte	0xd
 1613 0a19 34       		.byte	0x34
 1614 0a1a 92080000 		.4byte	0x892
 1615 0a1e 0B       		.uleb128 0xb
 1616 0a1f 04       		.byte	0x4
 1617 0a20 130A0000 		.4byte	0xa13
 1618 0a24 1C       		.uleb128 0x1c
 1619 0a25 5A040000 		.4byte	.LASF162
 1620 0a29 01       		.byte	0x1
 1621 0a2a 90       		.byte	0x90
 1622 0a2b 00000000 		.4byte	.LFB224
 1623 0a2f 3C000000 		.4byte	.LFE224-.LFB224
 1624 0a33 01       		.uleb128 0x1
 1625 0a34 9C       		.byte	0x9c
 1626 0a35 900A0000 		.4byte	0xa90
 1627 0a39 1D       		.uleb128 0x1d
 1628 0a3a 4B020000 		.4byte	.LASF160
 1629 0a3e 01       		.byte	0x1
 1630 0a3f 90       		.byte	0x90
 1631 0a40 900A0000 		.4byte	0xa90
 1632 0a44 01       		.uleb128 0x1
 1633 0a45 50       		.byte	0x50
 1634 0a46 1E       		.uleb128 0x1e
 1635 0a47 50020000 		.4byte	.LASF161
 1636 0a4b 01       		.byte	0x1
 1637 0a4c 91       		.byte	0x91
 1638 0a4d 900A0000 		.4byte	0xa90
 1639 0a51 00000000 		.4byte	.LLST3
 1640 0a55 1F       		.uleb128 0x1f
 1641 0a56 CB0B0000 		.4byte	0xbcb
 1642 0a5a 00000000 		.4byte	.LBB30
 1643 0a5e 50000000 		.4byte	.Ldebug_ranges0+0x50
 1644 0a62 01       		.byte	0x1
 1645 0a63 94       		.byte	0x94
 1646 0a64 20       		.uleb128 0x20
 1647 0a65 9D0B0000 		.4byte	0xb9d
 1648 0a69 02000000 		.4byte	.LBB33
 1649 0a6d 68000000 		.4byte	.Ldebug_ranges0+0x68
 1650 0a71 01       		.byte	0x1
 1651 0a72 97       		.byte	0x97
 1652 0a73 21       		.uleb128 0x21
 1653 0a74 BF0B0000 		.4byte	0xbbf
ARM GAS  /tmp/ccOtlGAG.s 			page 30


 1654 0a78 21000000 		.4byte	.LLST4
 1655 0a7c 21       		.uleb128 0x21
 1656 0a7d B40B0000 		.4byte	0xbb4
 1657 0a81 35000000 		.4byte	.LLST5
 1658 0a85 21       		.uleb128 0x21
 1659 0a86 A90B0000 		.4byte	0xba9
 1660 0a8a 57000000 		.4byte	.LLST6
 1661 0a8e 00       		.byte	0
 1662 0a8f 00       		.byte	0
 1663 0a90 0B       		.uleb128 0xb
 1664 0a91 04       		.byte	0x4
 1665 0a92 F9070000 		.4byte	0x7f9
 1666 0a96 1C       		.uleb128 0x1c
 1667 0a97 D9020000 		.4byte	.LASF163
 1668 0a9b 01       		.byte	0x1
 1669 0a9c 7F       		.byte	0x7f
 1670 0a9d 00000000 		.4byte	.LFB223
 1671 0aa1 44000000 		.4byte	.LFE223-.LFB223
 1672 0aa5 01       		.uleb128 0x1
 1673 0aa6 9C       		.byte	0x9c
 1674 0aa7 EF0A0000 		.4byte	0xaef
 1675 0aab 22       		.uleb128 0x22
 1676 0aac 746D7000 		.ascii	"tmp\000"
 1677 0ab0 01       		.byte	0x1
 1678 0ab1 7F       		.byte	0x7f
 1679 0ab2 900A0000 		.4byte	0xa90
 1680 0ab6 01       		.uleb128 0x1
 1681 0ab7 50       		.byte	0x50
 1682 0ab8 1F       		.uleb128 0x1f
 1683 0ab9 CB0B0000 		.4byte	0xbcb
 1684 0abd 00000000 		.4byte	.LBB16
 1685 0ac1 00000000 		.4byte	.Ldebug_ranges0+0
 1686 0ac5 01       		.byte	0x1
 1687 0ac6 81       		.byte	0x81
 1688 0ac7 20       		.uleb128 0x20
 1689 0ac8 9D0B0000 		.4byte	0xb9d
 1690 0acc 06000000 		.4byte	.LBB20
 1691 0ad0 18000000 		.4byte	.Ldebug_ranges0+0x18
 1692 0ad4 01       		.byte	0x1
 1693 0ad5 81       		.byte	0x81
 1694 0ad6 21       		.uleb128 0x21
 1695 0ad7 BF0B0000 		.4byte	0xbbf
 1696 0adb 6A000000 		.4byte	.LLST0
 1697 0adf 23       		.uleb128 0x23
 1698 0ae0 B40B0000 		.4byte	0xbb4
 1699 0ae4 21       		.uleb128 0x21
 1700 0ae5 A90B0000 		.4byte	0xba9
 1701 0ae9 7D000000 		.4byte	.LLST1
 1702 0aed 00       		.byte	0
 1703 0aee 00       		.byte	0
 1704 0aef 1C       		.uleb128 0x1c
 1705 0af0 C3020000 		.4byte	.LASF164
 1706 0af4 01       		.byte	0x1
 1707 0af5 72       		.byte	0x72
 1708 0af6 00000000 		.4byte	.LFB222
 1709 0afa 0C000000 		.4byte	.LFE222-.LFB222
 1710 0afe 01       		.uleb128 0x1
ARM GAS  /tmp/ccOtlGAG.s 			page 31


 1711 0aff 9C       		.byte	0x9c
 1712 0b00 210B0000 		.4byte	0xb21
 1713 0b04 22       		.uleb128 0x22
 1714 0b05 746D7000 		.ascii	"tmp\000"
 1715 0b09 01       		.byte	0x1
 1716 0b0a 72       		.byte	0x72
 1717 0b0b 900A0000 		.4byte	0xa90
 1718 0b0f 01       		.uleb128 0x1
 1719 0b10 50       		.byte	0x50
 1720 0b11 24       		.uleb128 0x24
 1721 0b12 CB0B0000 		.4byte	0xbcb
 1722 0b16 00000000 		.4byte	.LBB14
 1723 0b1a 04000000 		.4byte	.LBE14-.LBB14
 1724 0b1e 01       		.byte	0x1
 1725 0b1f 74       		.byte	0x74
 1726 0b20 00       		.byte	0
 1727 0b21 25       		.uleb128 0x25
 1728 0b22 1F020000 		.4byte	.LASF169
 1729 0b26 01       		.byte	0x1
 1730 0b27 61       		.byte	0x61
 1731 0b28 01       		.byte	0x1
 1732 0b29 390B0000 		.4byte	0xb39
 1733 0b2d 26       		.uleb128 0x26
 1734 0b2e 746D7000 		.ascii	"tmp\000"
 1735 0b32 01       		.byte	0x1
 1736 0b33 61       		.byte	0x61
 1737 0b34 900A0000 		.4byte	0xa90
 1738 0b38 00       		.byte	0
 1739 0b39 1C       		.uleb128 0x1c
 1740 0b3a 11080000 		.4byte	.LASF165
 1741 0b3e 01       		.byte	0x1
 1742 0b3f 4D       		.byte	0x4d
 1743 0b40 00000000 		.4byte	.LFB220
 1744 0b44 3C000000 		.4byte	.LFE220-.LFB220
 1745 0b48 01       		.uleb128 0x1
 1746 0b49 9C       		.byte	0x9c
 1747 0b4a 9D0B0000 		.4byte	0xb9d
 1748 0b4e 27       		.uleb128 0x27
 1749 0b4f 746D00   		.ascii	"tm\000"
 1750 0b52 01       		.byte	0x1
 1751 0b53 4E       		.byte	0x4e
 1752 0b54 F9070000 		.4byte	0x7f9
 1753 0b58 02       		.uleb128 0x2
 1754 0b59 91       		.byte	0x91
 1755 0b5a 60       		.sleb128 -32
 1756 0b5b 28       		.uleb128 0x28
 1757 0b5c 210B0000 		.4byte	0xb21
 1758 0b60 08000000 		.4byte	.LBB26
 1759 0b64 38000000 		.4byte	.Ldebug_ranges0+0x38
 1760 0b68 01       		.byte	0x1
 1761 0b69 54       		.byte	0x54
 1762 0b6a 780B0000 		.4byte	0xb78
 1763 0b6e 21       		.uleb128 0x21
 1764 0b6f 2D0B0000 		.4byte	0xb2d
 1765 0b73 90000000 		.4byte	.LLST2
 1766 0b77 00       		.byte	0
 1767 0b78 29       		.uleb128 0x29
ARM GAS  /tmp/ccOtlGAG.s 			page 32


 1768 0b79 26000000 		.4byte	.LVL8
 1769 0b7d EF0A0000 		.4byte	0xaef
 1770 0b81 8C0B0000 		.4byte	0xb8c
 1771 0b85 2A       		.uleb128 0x2a
 1772 0b86 01       		.uleb128 0x1
 1773 0b87 50       		.byte	0x50
 1774 0b88 02       		.uleb128 0x2
 1775 0b89 70       		.byte	0x70
 1776 0b8a 00       		.sleb128 0
 1777 0b8b 00       		.byte	0
 1778 0b8c 2B       		.uleb128 0x2b
 1779 0b8d 2C000000 		.4byte	.LVL9
 1780 0b91 960A0000 		.4byte	0xa96
 1781 0b95 2A       		.uleb128 0x2a
 1782 0b96 01       		.uleb128 0x1
 1783 0b97 50       		.byte	0x50
 1784 0b98 02       		.uleb128 0x2
 1785 0b99 70       		.byte	0x70
 1786 0b9a 00       		.sleb128 0
 1787 0b9b 00       		.byte	0
 1788 0b9c 00       		.byte	0
 1789 0b9d 2C       		.uleb128 0x2c
 1790 0b9e 01020000 		.4byte	.LASF170
 1791 0ba2 01       		.byte	0x1
 1792 0ba3 35       		.byte	0x35
 1793 0ba4 03       		.byte	0x3
 1794 0ba5 CB0B0000 		.4byte	0xbcb
 1795 0ba9 26       		.uleb128 0x26
 1796 0baa 746D7000 		.ascii	"tmp\000"
 1797 0bae 01       		.byte	0x1
 1798 0baf 35       		.byte	0x35
 1799 0bb0 900A0000 		.4byte	0xa90
 1800 0bb4 26       		.uleb128 0x26
 1801 0bb5 6E6F7700 		.ascii	"now\000"
 1802 0bb9 01       		.byte	0x1
 1803 0bba 36       		.byte	0x36
 1804 0bbb E8000000 		.4byte	0xe8
 1805 0bbf 2D       		.uleb128 0x2d
 1806 0bc0 4B070000 		.4byte	.LASF117
 1807 0bc4 01       		.byte	0x1
 1808 0bc5 37       		.byte	0x37
 1809 0bc6 E8000000 		.4byte	0xe8
 1810 0bca 00       		.byte	0
 1811 0bcb 2E       		.uleb128 0x2e
 1812 0bcc F7060000 		.4byte	.LASF171
 1813 0bd0 02       		.byte	0x2
 1814 0bd1 2202     		.2byte	0x222
 1815 0bd3 E8000000 		.4byte	0xe8
 1816 0bd7 03       		.byte	0x3
 1817 0bd8 2F       		.uleb128 0x2f
 1818 0bd9 210B0000 		.4byte	0xb21
 1819 0bdd 00000000 		.4byte	.LFB221
 1820 0be1 18000000 		.4byte	.LFE221-.LFB221
 1821 0be5 01       		.uleb128 0x1
 1822 0be6 9C       		.byte	0x9c
 1823 0be7 30       		.uleb128 0x30
 1824 0be8 2D0B0000 		.4byte	0xb2d
ARM GAS  /tmp/ccOtlGAG.s 			page 33


 1825 0bec 01       		.uleb128 0x1
 1826 0bed 50       		.byte	0x50
 1827 0bee 00       		.byte	0
 1828 0bef 00       		.byte	0
 1829              		.section	.debug_abbrev,"",%progbits
 1830              	.Ldebug_abbrev0:
 1831 0000 01       		.uleb128 0x1
 1832 0001 11       		.uleb128 0x11
 1833 0002 01       		.byte	0x1
 1834 0003 25       		.uleb128 0x25
 1835 0004 0E       		.uleb128 0xe
 1836 0005 13       		.uleb128 0x13
 1837 0006 0B       		.uleb128 0xb
 1838 0007 03       		.uleb128 0x3
 1839 0008 0E       		.uleb128 0xe
 1840 0009 1B       		.uleb128 0x1b
 1841 000a 0E       		.uleb128 0xe
 1842 000b 55       		.uleb128 0x55
 1843 000c 17       		.uleb128 0x17
 1844 000d 11       		.uleb128 0x11
 1845 000e 01       		.uleb128 0x1
 1846 000f 10       		.uleb128 0x10
 1847 0010 17       		.uleb128 0x17
 1848 0011 00       		.byte	0
 1849 0012 00       		.byte	0
 1850 0013 02       		.uleb128 0x2
 1851 0014 24       		.uleb128 0x24
 1852 0015 00       		.byte	0
 1853 0016 0B       		.uleb128 0xb
 1854 0017 0B       		.uleb128 0xb
 1855 0018 3E       		.uleb128 0x3e
 1856 0019 0B       		.uleb128 0xb
 1857 001a 03       		.uleb128 0x3
 1858 001b 08       		.uleb128 0x8
 1859 001c 00       		.byte	0
 1860 001d 00       		.byte	0
 1861 001e 03       		.uleb128 0x3
 1862 001f 24       		.uleb128 0x24
 1863 0020 00       		.byte	0
 1864 0021 0B       		.uleb128 0xb
 1865 0022 0B       		.uleb128 0xb
 1866 0023 3E       		.uleb128 0x3e
 1867 0024 0B       		.uleb128 0xb
 1868 0025 03       		.uleb128 0x3
 1869 0026 0E       		.uleb128 0xe
 1870 0027 00       		.byte	0
 1871 0028 00       		.byte	0
 1872 0029 04       		.uleb128 0x4
 1873 002a 16       		.uleb128 0x16
 1874 002b 00       		.byte	0
 1875 002c 03       		.uleb128 0x3
 1876 002d 0E       		.uleb128 0xe
 1877 002e 3A       		.uleb128 0x3a
 1878 002f 0B       		.uleb128 0xb
 1879 0030 3B       		.uleb128 0x3b
 1880 0031 0B       		.uleb128 0xb
 1881 0032 49       		.uleb128 0x49
ARM GAS  /tmp/ccOtlGAG.s 			page 34


 1882 0033 13       		.uleb128 0x13
 1883 0034 00       		.byte	0
 1884 0035 00       		.byte	0
 1885 0036 05       		.uleb128 0x5
 1886 0037 35       		.uleb128 0x35
 1887 0038 00       		.byte	0
 1888 0039 49       		.uleb128 0x49
 1889 003a 13       		.uleb128 0x13
 1890 003b 00       		.byte	0
 1891 003c 00       		.byte	0
 1892 003d 06       		.uleb128 0x6
 1893 003e 26       		.uleb128 0x26
 1894 003f 00       		.byte	0
 1895 0040 49       		.uleb128 0x49
 1896 0041 13       		.uleb128 0x13
 1897 0042 00       		.byte	0
 1898 0043 00       		.byte	0
 1899 0044 07       		.uleb128 0x7
 1900 0045 13       		.uleb128 0x13
 1901 0046 01       		.byte	0x1
 1902 0047 03       		.uleb128 0x3
 1903 0048 0E       		.uleb128 0xe
 1904 0049 0B       		.uleb128 0xb
 1905 004a 0B       		.uleb128 0xb
 1906 004b 3A       		.uleb128 0x3a
 1907 004c 0B       		.uleb128 0xb
 1908 004d 3B       		.uleb128 0x3b
 1909 004e 0B       		.uleb128 0xb
 1910 004f 01       		.uleb128 0x1
 1911 0050 13       		.uleb128 0x13
 1912 0051 00       		.byte	0
 1913 0052 00       		.byte	0
 1914 0053 08       		.uleb128 0x8
 1915 0054 0D       		.uleb128 0xd
 1916 0055 00       		.byte	0
 1917 0056 03       		.uleb128 0x3
 1918 0057 0E       		.uleb128 0xe
 1919 0058 3A       		.uleb128 0x3a
 1920 0059 0B       		.uleb128 0xb
 1921 005a 3B       		.uleb128 0x3b
 1922 005b 0B       		.uleb128 0xb
 1923 005c 49       		.uleb128 0x49
 1924 005d 13       		.uleb128 0x13
 1925 005e 38       		.uleb128 0x38
 1926 005f 0B       		.uleb128 0xb
 1927 0060 00       		.byte	0
 1928 0061 00       		.byte	0
 1929 0062 09       		.uleb128 0x9
 1930 0063 0D       		.uleb128 0xd
 1931 0064 00       		.byte	0
 1932 0065 03       		.uleb128 0x3
 1933 0066 08       		.uleb128 0x8
 1934 0067 3A       		.uleb128 0x3a
 1935 0068 0B       		.uleb128 0xb
 1936 0069 3B       		.uleb128 0x3b
 1937 006a 05       		.uleb128 0x5
 1938 006b 49       		.uleb128 0x49
ARM GAS  /tmp/ccOtlGAG.s 			page 35


 1939 006c 13       		.uleb128 0x13
 1940 006d 38       		.uleb128 0x38
 1941 006e 0B       		.uleb128 0xb
 1942 006f 00       		.byte	0
 1943 0070 00       		.byte	0
 1944 0071 0A       		.uleb128 0xa
 1945 0072 0D       		.uleb128 0xd
 1946 0073 00       		.byte	0
 1947 0074 03       		.uleb128 0x3
 1948 0075 0E       		.uleb128 0xe
 1949 0076 3A       		.uleb128 0x3a
 1950 0077 0B       		.uleb128 0xb
 1951 0078 3B       		.uleb128 0x3b
 1952 0079 05       		.uleb128 0x5
 1953 007a 49       		.uleb128 0x49
 1954 007b 13       		.uleb128 0x13
 1955 007c 38       		.uleb128 0x38
 1956 007d 0B       		.uleb128 0xb
 1957 007e 00       		.byte	0
 1958 007f 00       		.byte	0
 1959 0080 0B       		.uleb128 0xb
 1960 0081 0F       		.uleb128 0xf
 1961 0082 00       		.byte	0
 1962 0083 0B       		.uleb128 0xb
 1963 0084 0B       		.uleb128 0xb
 1964 0085 49       		.uleb128 0x49
 1965 0086 13       		.uleb128 0x13
 1966 0087 00       		.byte	0
 1967 0088 00       		.byte	0
 1968 0089 0C       		.uleb128 0xc
 1969 008a 13       		.uleb128 0x13
 1970 008b 01       		.byte	0x1
 1971 008c 03       		.uleb128 0x3
 1972 008d 0E       		.uleb128 0xe
 1973 008e 0B       		.uleb128 0xb
 1974 008f 0B       		.uleb128 0xb
 1975 0090 3A       		.uleb128 0x3a
 1976 0091 0B       		.uleb128 0xb
 1977 0092 3B       		.uleb128 0x3b
 1978 0093 05       		.uleb128 0x5
 1979 0094 01       		.uleb128 0x1
 1980 0095 13       		.uleb128 0x13
 1981 0096 00       		.byte	0
 1982 0097 00       		.byte	0
 1983 0098 0D       		.uleb128 0xd
 1984 0099 15       		.uleb128 0x15
 1985 009a 01       		.byte	0x1
 1986 009b 27       		.uleb128 0x27
 1987 009c 19       		.uleb128 0x19
 1988 009d 01       		.uleb128 0x1
 1989 009e 13       		.uleb128 0x13
 1990 009f 00       		.byte	0
 1991 00a0 00       		.byte	0
 1992 00a1 0E       		.uleb128 0xe
 1993 00a2 05       		.uleb128 0x5
 1994 00a3 00       		.byte	0
 1995 00a4 49       		.uleb128 0x49
ARM GAS  /tmp/ccOtlGAG.s 			page 36


 1996 00a5 13       		.uleb128 0x13
 1997 00a6 00       		.byte	0
 1998 00a7 00       		.byte	0
 1999 00a8 0F       		.uleb128 0xf
 2000 00a9 0F       		.uleb128 0xf
 2001 00aa 00       		.byte	0
 2002 00ab 0B       		.uleb128 0xb
 2003 00ac 0B       		.uleb128 0xb
 2004 00ad 00       		.byte	0
 2005 00ae 00       		.byte	0
 2006 00af 10       		.uleb128 0x10
 2007 00b0 13       		.uleb128 0x13
 2008 00b1 01       		.byte	0x1
 2009 00b2 03       		.uleb128 0x3
 2010 00b3 0E       		.uleb128 0xe
 2011 00b4 0B       		.uleb128 0xb
 2012 00b5 05       		.uleb128 0x5
 2013 00b6 3A       		.uleb128 0x3a
 2014 00b7 0B       		.uleb128 0xb
 2015 00b8 3B       		.uleb128 0x3b
 2016 00b9 05       		.uleb128 0x5
 2017 00ba 01       		.uleb128 0x1
 2018 00bb 13       		.uleb128 0x13
 2019 00bc 00       		.byte	0
 2020 00bd 00       		.byte	0
 2021 00be 11       		.uleb128 0x11
 2022 00bf 01       		.uleb128 0x1
 2023 00c0 01       		.byte	0x1
 2024 00c1 49       		.uleb128 0x49
 2025 00c2 13       		.uleb128 0x13
 2026 00c3 01       		.uleb128 0x1
 2027 00c4 13       		.uleb128 0x13
 2028 00c5 00       		.byte	0
 2029 00c6 00       		.byte	0
 2030 00c7 12       		.uleb128 0x12
 2031 00c8 21       		.uleb128 0x21
 2032 00c9 00       		.byte	0
 2033 00ca 49       		.uleb128 0x49
 2034 00cb 13       		.uleb128 0x13
 2035 00cc 2F       		.uleb128 0x2f
 2036 00cd 0B       		.uleb128 0xb
 2037 00ce 00       		.byte	0
 2038 00cf 00       		.byte	0
 2039 00d0 13       		.uleb128 0x13
 2040 00d1 13       		.uleb128 0x13
 2041 00d2 01       		.byte	0x1
 2042 00d3 0B       		.uleb128 0xb
 2043 00d4 0B       		.uleb128 0xb
 2044 00d5 3A       		.uleb128 0x3a
 2045 00d6 0B       		.uleb128 0xb
 2046 00d7 3B       		.uleb128 0x3b
 2047 00d8 05       		.uleb128 0x5
 2048 00d9 01       		.uleb128 0x1
 2049 00da 13       		.uleb128 0x13
 2050 00db 00       		.byte	0
 2051 00dc 00       		.byte	0
 2052 00dd 14       		.uleb128 0x14
ARM GAS  /tmp/ccOtlGAG.s 			page 37


 2053 00de 16       		.uleb128 0x16
 2054 00df 00       		.byte	0
 2055 00e0 03       		.uleb128 0x3
 2056 00e1 0E       		.uleb128 0xe
 2057 00e2 3A       		.uleb128 0x3a
 2058 00e3 0B       		.uleb128 0xb
 2059 00e4 3B       		.uleb128 0x3b
 2060 00e5 05       		.uleb128 0x5
 2061 00e6 49       		.uleb128 0x49
 2062 00e7 13       		.uleb128 0x13
 2063 00e8 00       		.byte	0
 2064 00e9 00       		.byte	0
 2065 00ea 15       		.uleb128 0x15
 2066 00eb 34       		.uleb128 0x34
 2067 00ec 00       		.byte	0
 2068 00ed 03       		.uleb128 0x3
 2069 00ee 0E       		.uleb128 0xe
 2070 00ef 3A       		.uleb128 0x3a
 2071 00f0 0B       		.uleb128 0xb
 2072 00f1 3B       		.uleb128 0x3b
 2073 00f2 05       		.uleb128 0x5
 2074 00f3 49       		.uleb128 0x49
 2075 00f4 13       		.uleb128 0x13
 2076 00f5 3F       		.uleb128 0x3f
 2077 00f6 19       		.uleb128 0x19
 2078 00f7 3C       		.uleb128 0x3c
 2079 00f8 19       		.uleb128 0x19
 2080 00f9 00       		.byte	0
 2081 00fa 00       		.byte	0
 2082 00fb 16       		.uleb128 0x16
 2083 00fc 34       		.uleb128 0x34
 2084 00fd 00       		.byte	0
 2085 00fe 03       		.uleb128 0x3
 2086 00ff 0E       		.uleb128 0xe
 2087 0100 3A       		.uleb128 0x3a
 2088 0101 0B       		.uleb128 0xb
 2089 0102 3B       		.uleb128 0x3b
 2090 0103 0B       		.uleb128 0xb
 2091 0104 49       		.uleb128 0x49
 2092 0105 13       		.uleb128 0x13
 2093 0106 3F       		.uleb128 0x3f
 2094 0107 19       		.uleb128 0x19
 2095 0108 3C       		.uleb128 0x3c
 2096 0109 19       		.uleb128 0x19
 2097 010a 00       		.byte	0
 2098 010b 00       		.byte	0
 2099 010c 17       		.uleb128 0x17
 2100 010d 0D       		.uleb128 0xd
 2101 010e 00       		.byte	0
 2102 010f 03       		.uleb128 0x3
 2103 0110 08       		.uleb128 0x8
 2104 0111 3A       		.uleb128 0x3a
 2105 0112 0B       		.uleb128 0xb
 2106 0113 3B       		.uleb128 0x3b
 2107 0114 0B       		.uleb128 0xb
 2108 0115 49       		.uleb128 0x49
 2109 0116 13       		.uleb128 0x13
ARM GAS  /tmp/ccOtlGAG.s 			page 38


 2110 0117 38       		.uleb128 0x38
 2111 0118 0B       		.uleb128 0xb
 2112 0119 00       		.byte	0
 2113 011a 00       		.byte	0
 2114 011b 18       		.uleb128 0x18
 2115 011c 13       		.uleb128 0x13
 2116 011d 01       		.byte	0x1
 2117 011e 0B       		.uleb128 0xb
 2118 011f 0B       		.uleb128 0xb
 2119 0120 3A       		.uleb128 0x3a
 2120 0121 0B       		.uleb128 0xb
 2121 0122 3B       		.uleb128 0x3b
 2122 0123 0B       		.uleb128 0xb
 2123 0124 01       		.uleb128 0x1
 2124 0125 13       		.uleb128 0x13
 2125 0126 00       		.byte	0
 2126 0127 00       		.byte	0
 2127 0128 19       		.uleb128 0x19
 2128 0129 17       		.uleb128 0x17
 2129 012a 01       		.byte	0x1
 2130 012b 0B       		.uleb128 0xb
 2131 012c 0B       		.uleb128 0xb
 2132 012d 3A       		.uleb128 0x3a
 2133 012e 0B       		.uleb128 0xb
 2134 012f 3B       		.uleb128 0x3b
 2135 0130 0B       		.uleb128 0xb
 2136 0131 01       		.uleb128 0x1
 2137 0132 13       		.uleb128 0x13
 2138 0133 00       		.byte	0
 2139 0134 00       		.byte	0
 2140 0135 1A       		.uleb128 0x1a
 2141 0136 0D       		.uleb128 0xd
 2142 0137 00       		.byte	0
 2143 0138 03       		.uleb128 0x3
 2144 0139 0E       		.uleb128 0xe
 2145 013a 3A       		.uleb128 0x3a
 2146 013b 0B       		.uleb128 0xb
 2147 013c 3B       		.uleb128 0x3b
 2148 013d 05       		.uleb128 0x5
 2149 013e 49       		.uleb128 0x49
 2150 013f 13       		.uleb128 0x13
 2151 0140 00       		.byte	0
 2152 0141 00       		.byte	0
 2153 0142 1B       		.uleb128 0x1b
 2154 0143 34       		.uleb128 0x34
 2155 0144 00       		.byte	0
 2156 0145 03       		.uleb128 0x3
 2157 0146 08       		.uleb128 0x8
 2158 0147 3A       		.uleb128 0x3a
 2159 0148 0B       		.uleb128 0xb
 2160 0149 3B       		.uleb128 0x3b
 2161 014a 05       		.uleb128 0x5
 2162 014b 49       		.uleb128 0x49
 2163 014c 13       		.uleb128 0x13
 2164 014d 3F       		.uleb128 0x3f
 2165 014e 19       		.uleb128 0x19
 2166 014f 3C       		.uleb128 0x3c
ARM GAS  /tmp/ccOtlGAG.s 			page 39


 2167 0150 19       		.uleb128 0x19
 2168 0151 00       		.byte	0
 2169 0152 00       		.byte	0
 2170 0153 1C       		.uleb128 0x1c
 2171 0154 2E       		.uleb128 0x2e
 2172 0155 01       		.byte	0x1
 2173 0156 3F       		.uleb128 0x3f
 2174 0157 19       		.uleb128 0x19
 2175 0158 03       		.uleb128 0x3
 2176 0159 0E       		.uleb128 0xe
 2177 015a 3A       		.uleb128 0x3a
 2178 015b 0B       		.uleb128 0xb
 2179 015c 3B       		.uleb128 0x3b
 2180 015d 0B       		.uleb128 0xb
 2181 015e 27       		.uleb128 0x27
 2182 015f 19       		.uleb128 0x19
 2183 0160 11       		.uleb128 0x11
 2184 0161 01       		.uleb128 0x1
 2185 0162 12       		.uleb128 0x12
 2186 0163 06       		.uleb128 0x6
 2187 0164 40       		.uleb128 0x40
 2188 0165 18       		.uleb128 0x18
 2189 0166 9742     		.uleb128 0x2117
 2190 0168 19       		.uleb128 0x19
 2191 0169 01       		.uleb128 0x1
 2192 016a 13       		.uleb128 0x13
 2193 016b 00       		.byte	0
 2194 016c 00       		.byte	0
 2195 016d 1D       		.uleb128 0x1d
 2196 016e 05       		.uleb128 0x5
 2197 016f 00       		.byte	0
 2198 0170 03       		.uleb128 0x3
 2199 0171 0E       		.uleb128 0xe
 2200 0172 3A       		.uleb128 0x3a
 2201 0173 0B       		.uleb128 0xb
 2202 0174 3B       		.uleb128 0x3b
 2203 0175 0B       		.uleb128 0xb
 2204 0176 49       		.uleb128 0x49
 2205 0177 13       		.uleb128 0x13
 2206 0178 02       		.uleb128 0x2
 2207 0179 18       		.uleb128 0x18
 2208 017a 00       		.byte	0
 2209 017b 00       		.byte	0
 2210 017c 1E       		.uleb128 0x1e
 2211 017d 05       		.uleb128 0x5
 2212 017e 00       		.byte	0
 2213 017f 03       		.uleb128 0x3
 2214 0180 0E       		.uleb128 0xe
 2215 0181 3A       		.uleb128 0x3a
 2216 0182 0B       		.uleb128 0xb
 2217 0183 3B       		.uleb128 0x3b
 2218 0184 0B       		.uleb128 0xb
 2219 0185 49       		.uleb128 0x49
 2220 0186 13       		.uleb128 0x13
 2221 0187 02       		.uleb128 0x2
 2222 0188 17       		.uleb128 0x17
 2223 0189 00       		.byte	0
ARM GAS  /tmp/ccOtlGAG.s 			page 40


 2224 018a 00       		.byte	0
 2225 018b 1F       		.uleb128 0x1f
 2226 018c 1D       		.uleb128 0x1d
 2227 018d 00       		.byte	0
 2228 018e 31       		.uleb128 0x31
 2229 018f 13       		.uleb128 0x13
 2230 0190 52       		.uleb128 0x52
 2231 0191 01       		.uleb128 0x1
 2232 0192 55       		.uleb128 0x55
 2233 0193 17       		.uleb128 0x17
 2234 0194 58       		.uleb128 0x58
 2235 0195 0B       		.uleb128 0xb
 2236 0196 59       		.uleb128 0x59
 2237 0197 0B       		.uleb128 0xb
 2238 0198 00       		.byte	0
 2239 0199 00       		.byte	0
 2240 019a 20       		.uleb128 0x20
 2241 019b 1D       		.uleb128 0x1d
 2242 019c 01       		.byte	0x1
 2243 019d 31       		.uleb128 0x31
 2244 019e 13       		.uleb128 0x13
 2245 019f 52       		.uleb128 0x52
 2246 01a0 01       		.uleb128 0x1
 2247 01a1 55       		.uleb128 0x55
 2248 01a2 17       		.uleb128 0x17
 2249 01a3 58       		.uleb128 0x58
 2250 01a4 0B       		.uleb128 0xb
 2251 01a5 59       		.uleb128 0x59
 2252 01a6 0B       		.uleb128 0xb
 2253 01a7 00       		.byte	0
 2254 01a8 00       		.byte	0
 2255 01a9 21       		.uleb128 0x21
 2256 01aa 05       		.uleb128 0x5
 2257 01ab 00       		.byte	0
 2258 01ac 31       		.uleb128 0x31
 2259 01ad 13       		.uleb128 0x13
 2260 01ae 02       		.uleb128 0x2
 2261 01af 17       		.uleb128 0x17
 2262 01b0 00       		.byte	0
 2263 01b1 00       		.byte	0
 2264 01b2 22       		.uleb128 0x22
 2265 01b3 05       		.uleb128 0x5
 2266 01b4 00       		.byte	0
 2267 01b5 03       		.uleb128 0x3
 2268 01b6 08       		.uleb128 0x8
 2269 01b7 3A       		.uleb128 0x3a
 2270 01b8 0B       		.uleb128 0xb
 2271 01b9 3B       		.uleb128 0x3b
 2272 01ba 0B       		.uleb128 0xb
 2273 01bb 49       		.uleb128 0x49
 2274 01bc 13       		.uleb128 0x13
 2275 01bd 02       		.uleb128 0x2
 2276 01be 18       		.uleb128 0x18
 2277 01bf 00       		.byte	0
 2278 01c0 00       		.byte	0
 2279 01c1 23       		.uleb128 0x23
 2280 01c2 05       		.uleb128 0x5
ARM GAS  /tmp/ccOtlGAG.s 			page 41


 2281 01c3 00       		.byte	0
 2282 01c4 31       		.uleb128 0x31
 2283 01c5 13       		.uleb128 0x13
 2284 01c6 00       		.byte	0
 2285 01c7 00       		.byte	0
 2286 01c8 24       		.uleb128 0x24
 2287 01c9 1D       		.uleb128 0x1d
 2288 01ca 00       		.byte	0
 2289 01cb 31       		.uleb128 0x31
 2290 01cc 13       		.uleb128 0x13
 2291 01cd 11       		.uleb128 0x11
 2292 01ce 01       		.uleb128 0x1
 2293 01cf 12       		.uleb128 0x12
 2294 01d0 06       		.uleb128 0x6
 2295 01d1 58       		.uleb128 0x58
 2296 01d2 0B       		.uleb128 0xb
 2297 01d3 59       		.uleb128 0x59
 2298 01d4 0B       		.uleb128 0xb
 2299 01d5 00       		.byte	0
 2300 01d6 00       		.byte	0
 2301 01d7 25       		.uleb128 0x25
 2302 01d8 2E       		.uleb128 0x2e
 2303 01d9 01       		.byte	0x1
 2304 01da 3F       		.uleb128 0x3f
 2305 01db 19       		.uleb128 0x19
 2306 01dc 03       		.uleb128 0x3
 2307 01dd 0E       		.uleb128 0xe
 2308 01de 3A       		.uleb128 0x3a
 2309 01df 0B       		.uleb128 0xb
 2310 01e0 3B       		.uleb128 0x3b
 2311 01e1 0B       		.uleb128 0xb
 2312 01e2 27       		.uleb128 0x27
 2313 01e3 19       		.uleb128 0x19
 2314 01e4 20       		.uleb128 0x20
 2315 01e5 0B       		.uleb128 0xb
 2316 01e6 01       		.uleb128 0x1
 2317 01e7 13       		.uleb128 0x13
 2318 01e8 00       		.byte	0
 2319 01e9 00       		.byte	0
 2320 01ea 26       		.uleb128 0x26
 2321 01eb 05       		.uleb128 0x5
 2322 01ec 00       		.byte	0
 2323 01ed 03       		.uleb128 0x3
 2324 01ee 08       		.uleb128 0x8
 2325 01ef 3A       		.uleb128 0x3a
 2326 01f0 0B       		.uleb128 0xb
 2327 01f1 3B       		.uleb128 0x3b
 2328 01f2 0B       		.uleb128 0xb
 2329 01f3 49       		.uleb128 0x49
 2330 01f4 13       		.uleb128 0x13
 2331 01f5 00       		.byte	0
 2332 01f6 00       		.byte	0
 2333 01f7 27       		.uleb128 0x27
 2334 01f8 34       		.uleb128 0x34
 2335 01f9 00       		.byte	0
 2336 01fa 03       		.uleb128 0x3
 2337 01fb 08       		.uleb128 0x8
ARM GAS  /tmp/ccOtlGAG.s 			page 42


 2338 01fc 3A       		.uleb128 0x3a
 2339 01fd 0B       		.uleb128 0xb
 2340 01fe 3B       		.uleb128 0x3b
 2341 01ff 0B       		.uleb128 0xb
 2342 0200 49       		.uleb128 0x49
 2343 0201 13       		.uleb128 0x13
 2344 0202 02       		.uleb128 0x2
 2345 0203 18       		.uleb128 0x18
 2346 0204 00       		.byte	0
 2347 0205 00       		.byte	0
 2348 0206 28       		.uleb128 0x28
 2349 0207 1D       		.uleb128 0x1d
 2350 0208 01       		.byte	0x1
 2351 0209 31       		.uleb128 0x31
 2352 020a 13       		.uleb128 0x13
 2353 020b 52       		.uleb128 0x52
 2354 020c 01       		.uleb128 0x1
 2355 020d 55       		.uleb128 0x55
 2356 020e 17       		.uleb128 0x17
 2357 020f 58       		.uleb128 0x58
 2358 0210 0B       		.uleb128 0xb
 2359 0211 59       		.uleb128 0x59
 2360 0212 0B       		.uleb128 0xb
 2361 0213 01       		.uleb128 0x1
 2362 0214 13       		.uleb128 0x13
 2363 0215 00       		.byte	0
 2364 0216 00       		.byte	0
 2365 0217 29       		.uleb128 0x29
 2366 0218 898201   		.uleb128 0x4109
 2367 021b 01       		.byte	0x1
 2368 021c 11       		.uleb128 0x11
 2369 021d 01       		.uleb128 0x1
 2370 021e 31       		.uleb128 0x31
 2371 021f 13       		.uleb128 0x13
 2372 0220 01       		.uleb128 0x1
 2373 0221 13       		.uleb128 0x13
 2374 0222 00       		.byte	0
 2375 0223 00       		.byte	0
 2376 0224 2A       		.uleb128 0x2a
 2377 0225 8A8201   		.uleb128 0x410a
 2378 0228 00       		.byte	0
 2379 0229 02       		.uleb128 0x2
 2380 022a 18       		.uleb128 0x18
 2381 022b 9142     		.uleb128 0x2111
 2382 022d 18       		.uleb128 0x18
 2383 022e 00       		.byte	0
 2384 022f 00       		.byte	0
 2385 0230 2B       		.uleb128 0x2b
 2386 0231 898201   		.uleb128 0x4109
 2387 0234 01       		.byte	0x1
 2388 0235 11       		.uleb128 0x11
 2389 0236 01       		.uleb128 0x1
 2390 0237 31       		.uleb128 0x31
 2391 0238 13       		.uleb128 0x13
 2392 0239 00       		.byte	0
 2393 023a 00       		.byte	0
 2394 023b 2C       		.uleb128 0x2c
ARM GAS  /tmp/ccOtlGAG.s 			page 43


 2395 023c 2E       		.uleb128 0x2e
 2396 023d 01       		.byte	0x1
 2397 023e 03       		.uleb128 0x3
 2398 023f 0E       		.uleb128 0xe
 2399 0240 3A       		.uleb128 0x3a
 2400 0241 0B       		.uleb128 0xb
 2401 0242 3B       		.uleb128 0x3b
 2402 0243 0B       		.uleb128 0xb
 2403 0244 27       		.uleb128 0x27
 2404 0245 19       		.uleb128 0x19
 2405 0246 20       		.uleb128 0x20
 2406 0247 0B       		.uleb128 0xb
 2407 0248 01       		.uleb128 0x1
 2408 0249 13       		.uleb128 0x13
 2409 024a 00       		.byte	0
 2410 024b 00       		.byte	0
 2411 024c 2D       		.uleb128 0x2d
 2412 024d 05       		.uleb128 0x5
 2413 024e 00       		.byte	0
 2414 024f 03       		.uleb128 0x3
 2415 0250 0E       		.uleb128 0xe
 2416 0251 3A       		.uleb128 0x3a
 2417 0252 0B       		.uleb128 0xb
 2418 0253 3B       		.uleb128 0x3b
 2419 0254 0B       		.uleb128 0xb
 2420 0255 49       		.uleb128 0x49
 2421 0256 13       		.uleb128 0x13
 2422 0257 00       		.byte	0
 2423 0258 00       		.byte	0
 2424 0259 2E       		.uleb128 0x2e
 2425 025a 2E       		.uleb128 0x2e
 2426 025b 00       		.byte	0
 2427 025c 03       		.uleb128 0x3
 2428 025d 0E       		.uleb128 0xe
 2429 025e 3A       		.uleb128 0x3a
 2430 025f 0B       		.uleb128 0xb
 2431 0260 3B       		.uleb128 0x3b
 2432 0261 05       		.uleb128 0x5
 2433 0262 27       		.uleb128 0x27
 2434 0263 19       		.uleb128 0x19
 2435 0264 49       		.uleb128 0x49
 2436 0265 13       		.uleb128 0x13
 2437 0266 20       		.uleb128 0x20
 2438 0267 0B       		.uleb128 0xb
 2439 0268 00       		.byte	0
 2440 0269 00       		.byte	0
 2441 026a 2F       		.uleb128 0x2f
 2442 026b 2E       		.uleb128 0x2e
 2443 026c 01       		.byte	0x1
 2444 026d 31       		.uleb128 0x31
 2445 026e 13       		.uleb128 0x13
 2446 026f 11       		.uleb128 0x11
 2447 0270 01       		.uleb128 0x1
 2448 0271 12       		.uleb128 0x12
 2449 0272 06       		.uleb128 0x6
 2450 0273 40       		.uleb128 0x40
 2451 0274 18       		.uleb128 0x18
ARM GAS  /tmp/ccOtlGAG.s 			page 44


 2452 0275 9742     		.uleb128 0x2117
 2453 0277 19       		.uleb128 0x19
 2454 0278 00       		.byte	0
 2455 0279 00       		.byte	0
 2456 027a 30       		.uleb128 0x30
 2457 027b 05       		.uleb128 0x5
 2458 027c 00       		.byte	0
 2459 027d 31       		.uleb128 0x31
 2460 027e 13       		.uleb128 0x13
 2461 027f 02       		.uleb128 0x2
 2462 0280 18       		.uleb128 0x18
 2463 0281 00       		.byte	0
 2464 0282 00       		.byte	0
 2465 0283 00       		.byte	0
 2466              		.section	.debug_loc,"",%progbits
 2467              	.Ldebug_loc0:
 2468              	.LLST3:
 2469 0000 00000000 		.4byte	.LVL10
 2470 0004 0E000000 		.4byte	.LVL12
 2471 0008 0100     		.2byte	0x1
 2472 000a 51       		.byte	0x51
 2473 000b 0E000000 		.4byte	.LVL12
 2474 000f 3C000000 		.4byte	.LFE224
 2475 0013 0400     		.2byte	0x4
 2476 0015 F3       		.byte	0xf3
 2477 0016 01       		.uleb128 0x1
 2478 0017 51       		.byte	0x51
 2479 0018 9F       		.byte	0x9f
 2480 0019 00000000 		.4byte	0
 2481 001d 00000000 		.4byte	0
 2482              	.LLST4:
 2483 0021 0A000000 		.4byte	.LVL11
 2484 0025 32000000 		.4byte	.LVL15
 2485 0029 0200     		.2byte	0x2
 2486 002b 30       		.byte	0x30
 2487 002c 9F       		.byte	0x9f
 2488 002d 00000000 		.4byte	0
 2489 0031 00000000 		.4byte	0
 2490              	.LLST5:
 2491 0035 0A000000 		.4byte	.LVL11
 2492 0039 14000000 		.4byte	.LVL13
 2493 003d 0100     		.2byte	0x1
 2494 003f 53       		.byte	0x53
 2495 0040 14000000 		.4byte	.LVL13
 2496 0044 2E000000 		.4byte	.LVL14
 2497 0048 0500     		.2byte	0x5
 2498 004a F3       		.byte	0xf3
 2499 004b 01       		.uleb128 0x1
 2500 004c 51       		.byte	0x51
 2501 004d 23       		.byte	0x23
 2502 004e 08       		.uleb128 0x8
 2503 004f 00000000 		.4byte	0
 2504 0053 00000000 		.4byte	0
 2505              	.LLST6:
 2506 0057 0A000000 		.4byte	.LVL11
 2507 005b 32000000 		.4byte	.LVL15
 2508 005f 0100     		.2byte	0x1
ARM GAS  /tmp/ccOtlGAG.s 			page 45


 2509 0061 50       		.byte	0x50
 2510 0062 00000000 		.4byte	0
 2511 0066 00000000 		.4byte	0
 2512              	.LLST0:
 2513 006a 10000000 		.4byte	.LVL3
 2514 006e 1C000000 		.4byte	.LVL4
 2515 0072 0100     		.2byte	0x1
 2516 0074 56       		.byte	0x56
 2517 0075 00000000 		.4byte	0
 2518 0079 00000000 		.4byte	0
 2519              	.LLST1:
 2520 007d 10000000 		.4byte	.LVL3
 2521 0081 38000000 		.4byte	.LVL5
 2522 0085 0100     		.2byte	0x1
 2523 0087 50       		.byte	0x50
 2524 0088 00000000 		.4byte	0
 2525 008c 00000000 		.4byte	0
 2526              	.LLST2:
 2527 0090 14000000 		.4byte	.LVL6
 2528 0094 20000000 		.4byte	.LVL7
 2529 0098 0100     		.2byte	0x1
 2530 009a 50       		.byte	0x50
 2531 009b 00000000 		.4byte	0
 2532 009f 00000000 		.4byte	0
 2533              		.section	.debug_aranges,"",%progbits
 2534 0000 3C000000 		.4byte	0x3c
 2535 0004 0200     		.2byte	0x2
 2536 0006 00000000 		.4byte	.Ldebug_info0
 2537 000a 04       		.byte	0x4
 2538 000b 00       		.byte	0
 2539 000c 0000     		.2byte	0
 2540 000e 0000     		.2byte	0
 2541 0010 00000000 		.4byte	.LFB221
 2542 0014 18000000 		.4byte	.LFE221-.LFB221
 2543 0018 00000000 		.4byte	.LFB222
 2544 001c 0C000000 		.4byte	.LFE222-.LFB222
 2545 0020 00000000 		.4byte	.LFB223
 2546 0024 44000000 		.4byte	.LFE223-.LFB223
 2547 0028 00000000 		.4byte	.LFB220
 2548 002c 3C000000 		.4byte	.LFE220-.LFB220
 2549 0030 00000000 		.4byte	.LFB224
 2550 0034 3C000000 		.4byte	.LFE224-.LFB224
 2551 0038 00000000 		.4byte	0
 2552 003c 00000000 		.4byte	0
 2553              		.section	.debug_ranges,"",%progbits
 2554              	.Ldebug_ranges0:
 2555 0000 00000000 		.4byte	.LBB16
 2556 0004 02000000 		.4byte	.LBE16
 2557 0008 04000000 		.4byte	.LBB19
 2558 000c 06000000 		.4byte	.LBE19
 2559 0010 00000000 		.4byte	0
 2560 0014 00000000 		.4byte	0
 2561 0018 06000000 		.4byte	.LBB20
 2562 001c 08000000 		.4byte	.LBE20
 2563 0020 0A000000 		.4byte	.LBB24
 2564 0024 0C000000 		.4byte	.LBE24
 2565 0028 10000000 		.4byte	.LBB25
ARM GAS  /tmp/ccOtlGAG.s 			page 46


 2566 002c 38000000 		.4byte	.LBE25
 2567 0030 00000000 		.4byte	0
 2568 0034 00000000 		.4byte	0
 2569 0038 08000000 		.4byte	.LBB26
 2570 003c 0E000000 		.4byte	.LBE26
 2571 0040 14000000 		.4byte	.LBB29
 2572 0044 22000000 		.4byte	.LBE29
 2573 0048 00000000 		.4byte	0
 2574 004c 00000000 		.4byte	0
 2575 0050 00000000 		.4byte	.LBB30
 2576 0054 02000000 		.4byte	.LBE30
 2577 0058 04000000 		.4byte	.LBB36
 2578 005c 06000000 		.4byte	.LBE36
 2579 0060 00000000 		.4byte	0
 2580 0064 00000000 		.4byte	0
 2581 0068 02000000 		.4byte	.LBB33
 2582 006c 04000000 		.4byte	.LBE33
 2583 0070 0A000000 		.4byte	.LBB37
 2584 0074 32000000 		.4byte	.LBE37
 2585 0078 00000000 		.4byte	0
 2586 007c 00000000 		.4byte	0
 2587 0080 00000000 		.4byte	.LFB221
 2588 0084 18000000 		.4byte	.LFE221
 2589 0088 00000000 		.4byte	.LFB222
 2590 008c 0C000000 		.4byte	.LFE222
 2591 0090 00000000 		.4byte	.LFB223
 2592 0094 44000000 		.4byte	.LFE223
 2593 0098 00000000 		.4byte	.LFB220
 2594 009c 3C000000 		.4byte	.LFE220
 2595 00a0 00000000 		.4byte	.LFB224
 2596 00a4 3C000000 		.4byte	.LFE224
 2597 00a8 00000000 		.4byte	0
 2598 00ac 00000000 		.4byte	0
 2599              		.section	.debug_line,"",%progbits
 2600              	.Ldebug_line0:
 2601 0000 C2020000 		.section	.debug_str,"MS",%progbits,1
 2601      0200DE01 
 2601      00000201 
 2601      FB0E0D00 
 2601      01010101 
 2602              	.LASF149:
 2603 0000 63665F6F 		.ascii	"cf_off_older\000"
 2603      66665F6F 
 2603      6C646572 
 2603      00
 2604              	.LASF59:
 2605 000d 72656164 		.ascii	"ready_list_t\000"
 2605      795F6C69 
 2605      73745F74 
 2605      00
 2606              	.LASF167:
 2607 001a 43686962 		.ascii	"ChibiOS_3.0.5/os/rt/src/chtm.c\000"
 2607      694F535F 
 2607      332E302E 
 2607      352F6F73 
 2607      2F72742F 
 2608              	.LASF108:
ARM GAS  /tmp/ccOtlGAG.s 			page 47


 2609 0039 4D41534B 		.ascii	"MASK3\000"
 2609      3300
 2610              	.LASF127:
 2611 003f 77747472 		.ascii	"wttrp\000"
 2611      7000
 2612              	.LASF124:
 2613 0045 7264796D 		.ascii	"rdymsg\000"
 2613      736700
 2614              	.LASF18:
 2615 004c 75696E74 		.ascii	"uint64_t\000"
 2615      36345F74 
 2615      00
 2616              	.LASF4:
 2617 0055 5F5F7569 		.ascii	"__uint8_t\000"
 2617      6E74385F 
 2617      7400
 2618              	.LASF116:
 2619 005f 706F7274 		.ascii	"port_intctx\000"
 2619      5F696E74 
 2619      63747800 
 2620              	.LASF58:
 2621 006b 63685F74 		.ascii	"ch_threads_queue\000"
 2621      68726561 
 2621      64735F71 
 2621      75657565 
 2621      00
 2622              	.LASF78:
 2623 007c 73797374 		.ascii	"system_debug_t\000"
 2623      656D5F64 
 2623      65627567 
 2623      5F7400
 2624              	.LASF166:
 2625 008b 474E5520 		.ascii	"GNU C99 7.3.1 20180622 (release) [ARM/embedded-7-br"
 2625      43393920 
 2625      372E332E 
 2625      31203230 
 2625      31383036 
 2626 00be 616E6368 		.ascii	"anch revision 261907] -mcpu=cortex-m4 -mfloat-abi=h"
 2626      20726576 
 2626      6973696F 
 2626      6E203236 
 2626      31393037 
 2627 00f1 61726420 		.ascii	"ard -mfpu=fpv4-sp-d16 -mno-thumb-interwork -mthumb "
 2627      2D6D6670 
 2627      753D6670 
 2627      76342D73 
 2627      702D6431 
 2628 0124 2D676764 		.ascii	"-ggdb -O2 -std=gnu99 -fomit-frame-pointer -falign-f"
 2628      62202D4F 
 2628      32202D73 
 2628      74643D67 
 2628      6E753939 
 2629 0157 756E6374 		.ascii	"unctions=16 -ffunction-sections -fdata-sections -fn"
 2629      696F6E73 
 2629      3D313620 
 2629      2D666675 
 2629      6E637469 
ARM GAS  /tmp/ccOtlGAG.s 			page 48


 2630 018a 6F2D636F 		.ascii	"o-common -fsingle-precision-constant\000"
 2630      6D6D6F6E 
 2630      202D6673 
 2630      696E676C 
 2630      652D7072 
 2631              	.LASF120:
 2632 01af 776F7273 		.ascii	"worst\000"
 2632      7400
 2633              	.LASF123:
 2634 01b5 74696D65 		.ascii	"time_measurement_t\000"
 2634      5F6D6561 
 2634      73757265 
 2634      6D656E74 
 2634      5F7400
 2635              	.LASF13:
 2636 01c8 6C6F6E67 		.ascii	"long long unsigned int\000"
 2636      206C6F6E 
 2636      6720756E 
 2636      7369676E 
 2636      65642069 
 2637              	.LASF145:
 2638 01df 63685F74 		.ascii	"ch_threadsize\000"
 2638      68726561 
 2638      6473697A 
 2638      6500
 2639              	.LASF125:
 2640 01ed 65786974 		.ascii	"exitcode\000"
 2640      636F6465 
 2640      00
 2641              	.LASF85:
 2642 01f6 6D61696E 		.ascii	"mainthread\000"
 2642      74687265 
 2642      616400
 2643              	.LASF170:
 2644 0201 746D5F73 		.ascii	"tm_stop\000"
 2644      746F7000 
 2645              	.LASF75:
 2646 0209 76697274 		.ascii	"virtual_timers_list_t\000"
 2646      75616C5F 
 2646      74696D65 
 2646      72735F6C 
 2646      6973745F 
 2647              	.LASF169:
 2648 021f 6368544D 		.ascii	"chTMObjectInit\000"
 2648      4F626A65 
 2648      6374496E 
 2648      697400
 2649              	.LASF20:
 2650 022e 72747469 		.ascii	"rttime_t\000"
 2650      6D655F74 
 2650      00
 2651              	.LASF34:
 2652 0237 705F7072 		.ascii	"p_prio\000"
 2652      696F00
 2653              	.LASF152:
 2654 023e 63665F6F 		.ascii	"cf_off_state\000"
 2654      66665F73 
ARM GAS  /tmp/ccOtlGAG.s 			page 49


 2654      74617465 
 2654      00
 2655              	.LASF160:
 2656 024b 746D7031 		.ascii	"tmp1\000"
 2656      00
 2657              	.LASF161:
 2658 0250 746D7032 		.ascii	"tmp2\000"
 2658      00
 2659              	.LASF77:
 2660 0255 76745F73 		.ascii	"vt_systime\000"
 2660      79737469 
 2660      6D6500
 2661              	.LASF11:
 2662 0260 6C6F6E67 		.ascii	"long long int\000"
 2662      206C6F6E 
 2662      6720696E 
 2662      7400
 2663              	.LASF1:
 2664 026e 7369676E 		.ascii	"signed char\000"
 2664      65642063 
 2664      68617200 
 2665              	.LASF151:
 2666 027a 63665F6F 		.ascii	"cf_off_stklimit\000"
 2666      66665F73 
 2666      746B6C69 
 2666      6D697400 
 2667              	.LASF153:
 2668 028a 63665F6F 		.ascii	"cf_off_flags\000"
 2668      66665F66 
 2668      6C616773 
 2668      00
 2669              	.LASF51:
 2670 0297 705F6D70 		.ascii	"p_mpool\000"
 2670      6F6F6C00 
 2671              	.LASF89:
 2672 029f 43504943 		.ascii	"CPICNT\000"
 2672      4E5400
 2673              	.LASF135:
 2674 02a6 6D5F7175 		.ascii	"m_queue\000"
 2674      65756500 
 2675              	.LASF84:
 2676 02ae 76746C69 		.ascii	"vtlist\000"
 2676      737400
 2677              	.LASF139:
 2678 02b5 63685F69 		.ascii	"ch_identifier\000"
 2678      64656E74 
 2678      69666965 
 2678      7200
 2679              	.LASF164:
 2680 02c3 6368544D 		.ascii	"chTMStartMeasurementX\000"
 2680      53746172 
 2680      744D6561 
 2680      73757265 
 2680      6D656E74 
 2681              	.LASF163:
 2682 02d9 6368544D 		.ascii	"chTMStopMeasurementX\000"
 2682      53746F70 
ARM GAS  /tmp/ccOtlGAG.s 			page 50


 2682      4D656173 
 2682      7572656D 
 2682      656E7458 
 2683              	.LASF8:
 2684 02ee 6C6F6E67 		.ascii	"long int\000"
 2684      20696E74 
 2684      00
 2685              	.LASF22:
 2686 02f7 74737461 		.ascii	"tstate_t\000"
 2686      74655F74 
 2686      00
 2687              	.LASF157:
 2688 0300 63686465 		.ascii	"chdebug_t\000"
 2688      6275675F 
 2688      7400
 2689              	.LASF91:
 2690 030a 534C4545 		.ascii	"SLEEPCNT\000"
 2690      50434E54 
 2690      00
 2691              	.LASF36:
 2692 0313 705F6E65 		.ascii	"p_newer\000"
 2692      77657200 
 2693              	.LASF132:
 2694 031b 735F7175 		.ascii	"s_queue\000"
 2694      65756500 
 2695              	.LASF64:
 2696 0323 725F6E65 		.ascii	"r_newer\000"
 2696      77657200 
 2697              	.LASF113:
 2698 032b 72656761 		.ascii	"regarm_t\000"
 2698      726D5F74 
 2698      00
 2699              	.LASF71:
 2700 0334 76745F70 		.ascii	"vt_prev\000"
 2700      72657600 
 2701              	.LASF79:
 2702 033c 63685F73 		.ascii	"ch_system_debug\000"
 2702      79737465 
 2702      6D5F6465 
 2702      62756700 
 2703              	.LASF159:
 2704 034c 6D757465 		.ascii	"mutex_t\000"
 2704      785F7400 
 2705              	.LASF86:
 2706 0354 69646C65 		.ascii	"idle_thread_wa\000"
 2706      5F746872 
 2706      6561645F 
 2706      776100
 2707              	.LASF28:
 2708 0363 636E745F 		.ascii	"cnt_t\000"
 2708      7400
 2709              	.LASF39:
 2710 0369 705F7374 		.ascii	"p_stklimit\000"
 2710      6B6C696D 
 2710      697400
 2711              	.LASF0:
 2712 0374 756E7369 		.ascii	"unsigned int\000"
ARM GAS  /tmp/ccOtlGAG.s 			page 51


 2712      676E6564 
 2712      20696E74 
 2712      00
 2713              	.LASF70:
 2714 0381 76745F6E 		.ascii	"vt_next\000"
 2714      65787400 
 2715              	.LASF104:
 2716 0389 4D41534B 		.ascii	"MASK2\000"
 2716      3200
 2717              	.LASF112:
 2718 038f 53797374 		.ascii	"SystemCoreClock\000"
 2718      656D436F 
 2718      7265436C 
 2718      6F636B00 
 2719              	.LASF44:
 2720 039f 705F7469 		.ascii	"p_time\000"
 2720      6D6500
 2721              	.LASF128:
 2722 03a6 77747365 		.ascii	"wtsemp\000"
 2722      6D7000
 2723              	.LASF72:
 2724 03ad 76745F64 		.ascii	"vt_delta\000"
 2724      656C7461 
 2724      00
 2725              	.LASF46:
 2726 03b6 705F6D73 		.ascii	"p_msgqueue\000"
 2726      67717565 
 2726      756500
 2727              	.LASF158:
 2728 03c1 63685F64 		.ascii	"ch_debug\000"
 2728      65627567 
 2728      00
 2729              	.LASF60:
 2730 03ca 63685F72 		.ascii	"ch_ready_list\000"
 2730      65616479 
 2730      5F6C6973 
 2730      7400
 2731              	.LASF133:
 2732 03d8 735F636E 		.ascii	"s_cnt\000"
 2732      7400
 2733              	.LASF119:
 2734 03de 62657374 		.ascii	"best\000"
 2734      00
 2735              	.LASF6:
 2736 03e3 73686F72 		.ascii	"short unsigned int\000"
 2736      7420756E 
 2736      7369676E 
 2736      65642069 
 2736      6E7400
 2737              	.LASF55:
 2738 03f6 63685F74 		.ascii	"ch_thread\000"
 2738      68726561 
 2738      6400
 2739              	.LASF90:
 2740 0400 45584343 		.ascii	"EXCCNT\000"
 2740      4E5400
 2741              	.LASF26:
ARM GAS  /tmp/ccOtlGAG.s 			page 52


 2742 0407 6D73675F 		.ascii	"msg_t\000"
 2742      7400
 2743              	.LASF121:
 2744 040d 6C617374 		.ascii	"last\000"
 2744      00
 2745              	.LASF29:
 2746 0412 75636E74 		.ascii	"ucnt_t\000"
 2746      5F7400
 2747              	.LASF81:
 2748 0419 63685F73 		.ascii	"ch_system_t\000"
 2748      79737465 
 2748      6D5F7400 
 2749              	.LASF156:
 2750 0425 63665F6F 		.ascii	"cf_off_time\000"
 2750      66665F74 
 2750      696D6500 
 2751              	.LASF15:
 2752 0431 75696E74 		.ascii	"uint16_t\000"
 2752      31365F74 
 2752      00
 2753              	.LASF49:
 2754 043a 705F6D74 		.ascii	"p_mtxlist\000"
 2754      786C6973 
 2754      7400
 2755              	.LASF27:
 2756 0444 6576656E 		.ascii	"eventmask_t\000"
 2756      746D6173 
 2756      6B5F7400 
 2757              	.LASF7:
 2758 0450 5F5F696E 		.ascii	"__int32_t\000"
 2758      7433325F 
 2758      7400
 2759              	.LASF162:
 2760 045a 6368544D 		.ascii	"chTMChainMeasurementToX\000"
 2760      43686169 
 2760      6E4D6561 
 2760      73757265 
 2760      6D656E74 
 2761              	.LASF114:
 2762 0472 73746B61 		.ascii	"stkalign_t\000"
 2762      6C69676E 
 2762      5F7400
 2763              	.LASF140:
 2764 047d 63685F7A 		.ascii	"ch_zero\000"
 2764      65726F00 
 2765              	.LASF154:
 2766 0485 63665F6F 		.ascii	"cf_off_refs\000"
 2766      66665F72 
 2766      65667300 
 2767              	.LASF88:
 2768 0491 43594343 		.ascii	"CYCCNT\000"
 2768      4E5400
 2769              	.LASF45:
 2770 0498 705F7761 		.ascii	"p_waiting\000"
 2770      6974696E 
 2770      6700
 2771              	.LASF19:
ARM GAS  /tmp/ccOtlGAG.s 			page 53


 2772 04a2 7274636E 		.ascii	"rtcnt_t\000"
 2772      745F7400 
 2773              	.LASF76:
 2774 04aa 63685F76 		.ascii	"ch_virtual_timers_list\000"
 2774      69727475 
 2774      616C5F74 
 2774      696D6572 
 2774      735F6C69 
 2775              	.LASF144:
 2776 04c1 63685F74 		.ascii	"ch_timesize\000"
 2776      696D6573 
 2776      697A6500 
 2777              	.LASF118:
 2778 04cd 746D5F63 		.ascii	"tm_calibration_t\000"
 2778      616C6962 
 2778      72617469 
 2778      6F6E5F74 
 2778      00
 2779              	.LASF150:
 2780 04de 63665F6F 		.ascii	"cf_off_name\000"
 2780      66665F6E 
 2780      616D6500 
 2781              	.LASF37:
 2782 04ea 705F6F6C 		.ascii	"p_older\000"
 2782      64657200 
 2783              	.LASF63:
 2784 04f2 725F6374 		.ascii	"r_ctx\000"
 2784      7800
 2785              	.LASF35:
 2786 04f8 705F6374 		.ascii	"p_ctx\000"
 2786      7800
 2787              	.LASF99:
 2788 04fe 434F4D50 		.ascii	"COMP1\000"
 2788      3100
 2789              	.LASF103:
 2790 0504 434F4D50 		.ascii	"COMP2\000"
 2790      3200
 2791              	.LASF107:
 2792 050a 434F4D50 		.ascii	"COMP3\000"
 2792      3300
 2793              	.LASF66:
 2794 0510 725F6375 		.ascii	"r_current\000"
 2794      7272656E 
 2794      7400
 2795              	.LASF65:
 2796 051a 725F6F6C 		.ascii	"r_older\000"
 2796      64657200 
 2797              	.LASF12:
 2798 0522 5F5F7569 		.ascii	"__uint64_t\000"
 2798      6E743634 
 2798      5F7400
 2799              	.LASF122:
 2800 052d 63756D75 		.ascii	"cumulative\000"
 2800      6C617469 
 2800      766500
 2801              	.LASF23:
 2802 0538 74726566 		.ascii	"trefs_t\000"
ARM GAS  /tmp/ccOtlGAG.s 			page 54


 2802      735F7400 
 2803              	.LASF98:
 2804 0540 52455345 		.ascii	"RESERVED0\000"
 2804      52564544 
 2804      3000
 2805              	.LASF143:
 2806 054a 63685F70 		.ascii	"ch_ptrsize\000"
 2806      74727369 
 2806      7A6500
 2807              	.LASF106:
 2808 0555 52455345 		.ascii	"RESERVED2\000"
 2808      52564544 
 2808      3200
 2809              	.LASF68:
 2810 055f 76697274 		.ascii	"virtual_timer_t\000"
 2810      75616C5F 
 2810      74696D65 
 2810      725F7400 
 2811              	.LASF33:
 2812 056f 705F7072 		.ascii	"p_prev\000"
 2812      657600
 2813              	.LASF25:
 2814 0576 74707269 		.ascii	"tprio_t\000"
 2814      6F5F7400 
 2815              	.LASF94:
 2816 057e 50435352 		.ascii	"PCSR\000"
 2816      00
 2817              	.LASF96:
 2818 0583 4D41534B 		.ascii	"MASK0\000"
 2818      3000
 2819              	.LASF100:
 2820 0589 4D41534B 		.ascii	"MASK1\000"
 2820      3100
 2821              	.LASF16:
 2822 058f 696E7433 		.ascii	"int32_t\000"
 2822      325F7400 
 2823              	.LASF2:
 2824 0597 756E7369 		.ascii	"unsigned char\000"
 2824      676E6564 
 2824      20636861 
 2824      7200
 2825              	.LASF111:
 2826 05a5 49544D5F 		.ascii	"ITM_RxBuffer\000"
 2826      52784275 
 2826      66666572 
 2826      00
 2827              	.LASF97:
 2828 05b2 46554E43 		.ascii	"FUNCTION0\000"
 2828      54494F4E 
 2828      3000
 2829              	.LASF101:
 2830 05bc 46554E43 		.ascii	"FUNCTION1\000"
 2830      54494F4E 
 2830      3100
 2831              	.LASF105:
 2832 05c6 46554E43 		.ascii	"FUNCTION2\000"
 2832      54494F4E 
ARM GAS  /tmp/ccOtlGAG.s 			page 55


 2832      3200
 2833              	.LASF109:
 2834 05d0 46554E43 		.ascii	"FUNCTION3\000"
 2834      54494F4E 
 2834      3300
 2835              	.LASF3:
 2836 05da 73686F72 		.ascii	"short int\000"
 2836      7420696E 
 2836      7400
 2837              	.LASF40:
 2838 05e4 705F7374 		.ascii	"p_state\000"
 2838      61746500 
 2839              	.LASF43:
 2840 05ec 705F7072 		.ascii	"p_preempt\000"
 2840      65656D70 
 2840      7400
 2841              	.LASF62:
 2842 05f6 725F7072 		.ascii	"r_prio\000"
 2842      696F00
 2843              	.LASF130:
 2844 05fd 65776D61 		.ascii	"ewmask\000"
 2844      736B00
 2845              	.LASF32:
 2846 0604 705F6E65 		.ascii	"p_next\000"
 2846      787400
 2847              	.LASF21:
 2848 060b 746D6F64 		.ascii	"tmode_t\000"
 2848      655F7400 
 2849              	.LASF155:
 2850 0613 63665F6F 		.ascii	"cf_off_preempt\000"
 2850      66665F70 
 2850      7265656D 
 2850      707400
 2851              	.LASF41:
 2852 0622 705F666C 		.ascii	"p_flags\000"
 2852      61677300 
 2853              	.LASF82:
 2854 062a 63685F73 		.ascii	"ch_system\000"
 2854      79737465 
 2854      6D00
 2855              	.LASF57:
 2856 0634 74687265 		.ascii	"threads_queue_t\000"
 2856      6164735F 
 2856      71756575 
 2856      655F7400 
 2857              	.LASF102:
 2858 0644 52455345 		.ascii	"RESERVED1\000"
 2858      52564544 
 2858      3100
 2859              	.LASF148:
 2860 064e 63665F6F 		.ascii	"cf_off_newer\000"
 2860      66665F6E 
 2860      65776572 
 2860      00
 2861              	.LASF131:
 2862 065b 63685F73 		.ascii	"ch_semaphore\000"
 2862      656D6170 
ARM GAS  /tmp/ccOtlGAG.s 			page 56


 2862      686F7265 
 2862      00
 2863              	.LASF48:
 2864 0668 705F6570 		.ascii	"p_epending\000"
 2864      656E6469 
 2864      6E6700
 2865              	.LASF168:
 2866 0673 2F626C64 		.ascii	"/bldc\000"
 2866      6300
 2867              	.LASF92:
 2868 0679 4C535543 		.ascii	"LSUCNT\000"
 2868      4E5400
 2869              	.LASF17:
 2870 0680 75696E74 		.ascii	"uint32_t\000"
 2870      33325F74 
 2870      00
 2871              	.LASF146:
 2872 0689 63665F6F 		.ascii	"cf_off_prio\000"
 2872      66665F70 
 2872      72696F00 
 2873              	.LASF61:
 2874 0695 725F7175 		.ascii	"r_queue\000"
 2874      65756500 
 2875              	.LASF56:
 2876 069d 63685F74 		.ascii	"ch_threads_list\000"
 2876      68726561 
 2876      64735F6C 
 2876      69737400 
 2877              	.LASF141:
 2878 06ad 63685F73 		.ascii	"ch_size\000"
 2878      697A6500 
 2879              	.LASF24:
 2880 06b5 74736C69 		.ascii	"tslices_t\000"
 2880      6365735F 
 2880      7400
 2881              	.LASF10:
 2882 06bf 6C6F6E67 		.ascii	"long unsigned int\000"
 2882      20756E73 
 2882      69676E65 
 2882      6420696E 
 2882      7400
 2883              	.LASF138:
 2884 06d1 63686172 		.ascii	"char\000"
 2884      00
 2885              	.LASF129:
 2886 06d6 77746D74 		.ascii	"wtmtxp\000"
 2886      787000
 2887              	.LASF47:
 2888 06dd 705F6D73 		.ascii	"p_msg\000"
 2888      6700
 2889              	.LASF5:
 2890 06e3 5F5F7569 		.ascii	"__uint16_t\000"
 2890      6E743136 
 2890      5F7400
 2891              	.LASF31:
 2892 06ee 74687265 		.ascii	"thread_t\000"
 2892      61645F74 
ARM GAS  /tmp/ccOtlGAG.s 			page 57


 2892      00
 2893              	.LASF171:
 2894 06f7 706F7274 		.ascii	"port_rt_get_counter_value\000"
 2894      5F72745F 
 2894      6765745F 
 2894      636F756E 
 2894      7465725F 
 2895              	.LASF137:
 2896 0711 6D5F6E65 		.ascii	"m_next\000"
 2896      787400
 2897              	.LASF30:
 2898 0718 73797374 		.ascii	"systime_t\000"
 2898      696D655F 
 2898      7400
 2899              	.LASF50:
 2900 0722 705F7265 		.ascii	"p_realprio\000"
 2900      616C7072 
 2900      696F00
 2901              	.LASF67:
 2902 072d 76746675 		.ascii	"vtfunc_t\000"
 2902      6E635F74 
 2902      00
 2903              	.LASF9:
 2904 0736 5F5F7569 		.ascii	"__uint32_t\000"
 2904      6E743332 
 2904      5F7400
 2905              	.LASF80:
 2906 0741 70616E69 		.ascii	"panic_msg\000"
 2906      635F6D73 
 2906      6700
 2907              	.LASF117:
 2908 074b 6F666673 		.ascii	"offset\000"
 2908      657400
 2909              	.LASF115:
 2910 0752 636F6E74 		.ascii	"context\000"
 2910      65787400 
 2911              	.LASF110:
 2912 075a 4457545F 		.ascii	"DWT_Type\000"
 2912      54797065 
 2912      00
 2913              	.LASF69:
 2914 0763 63685F76 		.ascii	"ch_virtual_timer\000"
 2914      69727475 
 2914      616C5F74 
 2914      696D6572 
 2914      00
 2915              	.LASF87:
 2916 0774 4354524C 		.ascii	"CTRL\000"
 2916      00
 2917              	.LASF74:
 2918 0779 76745F70 		.ascii	"vt_par\000"
 2918      617200
 2919              	.LASF95:
 2920 0780 434F4D50 		.ascii	"COMP0\000"
 2920      3000
 2921              	.LASF147:
 2922 0786 63665F6F 		.ascii	"cf_off_ctx\000"
ARM GAS  /tmp/ccOtlGAG.s 			page 58


 2922      66665F63 
 2922      747800
 2923              	.LASF134:
 2924 0791 63685F6D 		.ascii	"ch_mutex\000"
 2924      75746578 
 2924      00
 2925              	.LASF42:
 2926 079a 705F7265 		.ascii	"p_refs\000"
 2926      667300
 2927              	.LASF52:
 2928 07a1 6D6F746F 		.ascii	"motor_selected\000"
 2928      725F7365 
 2928      6C656374 
 2928      656400
 2929              	.LASF83:
 2930 07b0 726C6973 		.ascii	"rlist\000"
 2930      7400
 2931              	.LASF14:
 2932 07b6 75696E74 		.ascii	"uint8_t\000"
 2932      385F7400 
 2933              	.LASF93:
 2934 07be 464F4C44 		.ascii	"FOLDCNT\000"
 2934      434E5400 
 2935              	.LASF53:
 2936 07c6 74687265 		.ascii	"thread_reference_t\000"
 2936      61645F72 
 2936      65666572 
 2936      656E6365 
 2936      5F7400
 2937              	.LASF126:
 2938 07d9 77746F62 		.ascii	"wtobjp\000"
 2938      6A7000
 2939              	.LASF38:
 2940 07e0 705F6E61 		.ascii	"p_name\000"
 2940      6D6500
 2941              	.LASF54:
 2942 07e7 74687265 		.ascii	"threads_list_t\000"
 2942      6164735F 
 2942      6C697374 
 2942      5F7400
 2943              	.LASF142:
 2944 07f6 63685F76 		.ascii	"ch_version\000"
 2944      65727369 
 2944      6F6E00
 2945              	.LASF136:
 2946 0801 6D5F6F77 		.ascii	"m_owner\000"
 2946      6E657200 
 2947              	.LASF73:
 2948 0809 76745F66 		.ascii	"vt_func\000"
 2948      756E6300 
 2949              	.LASF165:
 2950 0811 5F746D5F 		.ascii	"_tm_init\000"
 2950      696E6974 
 2950      00
 2951              		.ident	"GCC: (GNU Tools for Arm Embedded Processors 7-2018-q3-update) 7.3.1 20180622 (release) [AR
ARM GAS  /tmp/ccOtlGAG.s 			page 59


DEFINED SYMBOLS
                            *ABS*:0000000000000000 chtm.c
     /tmp/ccOtlGAG.s:18     .text.chTMObjectInit:0000000000000000 $t
     /tmp/ccOtlGAG.s:26     .text.chTMObjectInit:0000000000000000 chTMObjectInit
     /tmp/ccOtlGAG.s:51     .text.chTMStartMeasurementX:0000000000000000 $t
     /tmp/ccOtlGAG.s:59     .text.chTMStartMeasurementX:0000000000000000 chTMStartMeasurementX
     /tmp/ccOtlGAG.s:82     .text.chTMStartMeasurementX:0000000000000008 $d
     /tmp/ccOtlGAG.s:87     .text.chTMStopMeasurementX:0000000000000000 $t
     /tmp/ccOtlGAG.s:95     .text.chTMStopMeasurementX:0000000000000000 chTMStopMeasurementX
     /tmp/ccOtlGAG.s:185    .text.chTMStopMeasurementX:000000000000003c $d
     /tmp/ccOtlGAG.s:191    .text._tm_init:0000000000000000 $t
     /tmp/ccOtlGAG.s:199    .text._tm_init:0000000000000000 _tm_init
     /tmp/ccOtlGAG.s:261    .text._tm_init:0000000000000038 $d
     /tmp/ccOtlGAG.s:266    .text.chTMChainMeasurementToX:0000000000000000 $t
     /tmp/ccOtlGAG.s:274    .text.chTMChainMeasurementToX:0000000000000000 chTMChainMeasurementToX
     /tmp/ccOtlGAG.s:356    .text.chTMChainMeasurementToX:0000000000000038 $d

UNDEFINED SYMBOLS
ch
