ARM GAS  /tmp/ccaTeLRH.s 			page 1


   1              		.cpu cortex-m4
   2              		.eabi_attribute 27, 1
   3              		.eabi_attribute 28, 1
   4              		.eabi_attribute 20, 1
   5              		.eabi_attribute 21, 1
   6              		.eabi_attribute 23, 3
   7              		.eabi_attribute 24, 1
   8              		.eabi_attribute 25, 1
   9              		.eabi_attribute 26, 1
  10              		.eabi_attribute 30, 2
  11              		.eabi_attribute 34, 1
  12              		.eabi_attribute 18, 4
  13              		.file	"comm_usb.c"
  14              		.text
  15              	.Ltext0:
  16              		.cfi_sections	.debug_frame
  17              		.section	.text.serial_process_thread,"ax",%progbits
  18              		.align	1
  19              		.p2align 4,,15
  20              		.syntax unified
  21              		.thumb
  22              		.thumb_func
  23              		.fpu fpv4-sp-d16
  24              		.type	serial_process_thread, %function
  25              	serial_process_thread:
  26              	.LFB257:
  27              		.file 1 "comm_usb.c"
  28              		.loc 1 72 0
  29              		.cfi_startproc
  30              		@ Volatile: function does not return.
  31              		@ args = 0, pretend = 0, frame = 0
  32              		@ frame_needed = 0, uses_anonymous_args = 0
  33              	.LVL0:
  34              	.LBB11:
  35              	.LBB12:
  36              		.file 2 "ChibiOS_3.0.5/os/rt/include/chregistry.h"
  37              		.loc 2 135 0
  38 0000 124B     		ldr	r3, .L9
  39              	.LBE12:
  40              	.LBE11:
  41              		.loc 1 77 0
  42 0002 134A     		ldr	r2, .L9+4
  43              	.LBB15:
  44              	.LBB13:
  45              		.loc 2 135 0
  46 0004 9B69     		ldr	r3, [r3, #24]
  47 0006 1349     		ldr	r1, .L9+8
  48 0008 134C     		ldr	r4, .L9+12
  49 000a DFF85880 		ldr	r8, .L9+24
  50              	.LBE13:
  51              	.LBE15:
  52              		.loc 1 83 0
  53 000e 134E     		ldr	r6, .L9+16
  54              		.loc 1 72 0
  55 0010 80B5     		push	{r7, lr}
  56              		.cfi_def_cfa_offset 8
  57              		.cfi_offset 7, -8
ARM GAS  /tmp/ccaTeLRH.s 			page 2


  58              		.cfi_offset 14, -4
  59 0012 134F     		ldr	r7, .L9+20
  60              	.LBB16:
  61              	.LBB14:
  62              		.loc 2 135 0
  63 0014 9961     		str	r1, [r3, #24]
  64              	.LVL1:
  65              	.LBE14:
  66              	.LBE16:
  67              		.loc 1 77 0
  68 0016 1360     		str	r3, [r2]
  69              		.loc 1 86 0
  70 0018 4FF00009 		mov	r9, #0
  71              	.LVL2:
  72              	.L5:
  73              		.loc 1 80 0
  74 001c 0120     		movs	r0, #1
  75 001e FFF7FEFF 		bl	chEvtWaitAny
  76              	.LVL3:
  77 0022 2368     		ldr	r3, [r4]
  78              	.L3:
  79              		.loc 1 82 0
  80 0024 3A68     		ldr	r2, [r7]
  81 0026 9A42     		cmp	r2, r3
  82              		.loc 1 83 0
  83 0028 03F10105 		add	r5, r3, #1
  84 002c 3146     		mov	r1, r6
  85              		.loc 1 82 0
  86 002e F5D0     		beq	.L5
  87              		.loc 1 83 0
  88 0030 18F80300 		ldrb	r0, [r8, r3]	@ zero_extendqisi2
  89 0034 2560     		str	r5, [r4]
  90 0036 FFF7FEFF 		bl	packet_process_byte
  91              	.LVL4:
  92              		.loc 1 85 0
  93 003a 2368     		ldr	r3, [r4]
  94 003c B3F5006F 		cmp	r3, #2048
  95              		.loc 1 86 0
  96 0040 04BF     		itt	eq
  97 0042 C4F80090 		streq	r9, [r4]
  98 0046 0023     		moveq	r3, #0
  99 0048 ECE7     		b	.L3
 100              	.L10:
 101 004a 00BF     		.align	2
 102              	.L9:
 103 004c 00000000 		.word	ch
 104 0050 00000000 		.word	.LANCHOR0
 105 0054 00000000 		.word	.LC0
 106 0058 00000000 		.word	.LANCHOR1
 107 005c 00000000 		.word	.LANCHOR2
 108 0060 00000000 		.word	.LANCHOR4
 109 0064 00000000 		.word	.LANCHOR3
 110              		.cfi_endproc
 111              	.LFE257:
 112              		.size	serial_process_thread, .-serial_process_thread
 113              		.section	.text.serial_read_thread,"ax",%progbits
 114              		.align	1
ARM GAS  /tmp/ccaTeLRH.s 			page 3


 115              		.p2align 4,,15
 116              		.syntax unified
 117              		.thumb
 118              		.thumb_func
 119              		.fpu fpv4-sp-d16
 120              		.type	serial_read_thread, %function
 121              	serial_read_thread:
 122              	.LFB256:
 123              		.loc 1 44 0
 124              		.cfi_startproc
 125              		@ args = 0, pretend = 0, frame = 8
 126              		@ frame_needed = 0, uses_anonymous_args = 0
 127              	.LVL5:
 128 0000 2DE9F041 		push	{r4, r5, r6, r7, r8, lr}
 129              		.cfi_def_cfa_offset 24
 130              		.cfi_offset 4, -24
 131              		.cfi_offset 5, -20
 132              		.cfi_offset 6, -16
 133              		.cfi_offset 7, -12
 134              		.cfi_offset 8, -8
 135              		.cfi_offset 14, -4
 136              	.LBB17:
 137              	.LBB18:
 138              		.loc 2 135 0
 139 0004 1A4B     		ldr	r3, .L25
 140 0006 1B4E     		ldr	r6, .L25+4
 141 0008 9B69     		ldr	r3, [r3, #24]
 142 000a 1B4A     		ldr	r2, .L25+8
 143 000c 1B4C     		ldr	r4, .L25+12
 144 000e 1C4D     		ldr	r5, .L25+16
 145 0010 DFF87080 		ldr	r8, .L25+20
 146 0014 9A61     		str	r2, [r3, #24]
 147              	.LVL6:
 148              	.LBE18:
 149              	.LBE17:
 150              		.loc 1 44 0
 151 0016 82B0     		sub	sp, sp, #8
 152              		.cfi_def_cfa_offset 32
 153              	.LBB19:
 154              		.loc 1 53 0
 155 0018 3746     		mov	r7, r6
 156              	.LVL7:
 157              	.L12:
 158 001a 3368     		ldr	r3, [r6]
 159 001c 0122     		movs	r2, #1
 160 001e 5B68     		ldr	r3, [r3, #4]
 161 0020 01A9     		add	r1, sp, #4
 162 0022 3846     		mov	r0, r7
 163 0024 9847     		blx	r3
 164              	.LVL8:
 165              	.LBB20:
 166              		.loc 1 55 0
 167 0026 0028     		cmp	r0, #0
 168 0028 F7DD     		ble	.L12
 169              	.LVL9:
 170 002a 2368     		ldr	r3, [r4]
 171              	.LVL10:
ARM GAS  /tmp/ccaTeLRH.s 			page 4


 172              		.loc 1 56 0
 173 002c 9DF80420 		ldrb	r2, [sp, #4]	@ zero_extendqisi2
 174 0030 EA54     		strb	r2, [r5, r3]
 175 0032 5A1C     		adds	r2, r3, #1
 176              		.loc 1 58 0
 177 0034 B2F5006F 		cmp	r2, #2048
 178 0038 11D0     		beq	.L13
 179              		.loc 1 55 0
 180 003a 0128     		cmp	r0, #1
 181 003c 08D0     		beq	.L14
 182              		.loc 1 56 0
 183 003e 0233     		adds	r3, r3, #2
 184              		.loc 1 59 0
 185 0040 B3F5006F 		cmp	r3, #2048
 186              		.loc 1 56 0
 187 0044 9DF80510 		ldrb	r1, [sp, #5]	@ zero_extendqisi2
 188 0048 A954     		strb	r1, [r5, r2]
 189              		.loc 1 59 0
 190 004a 14BF     		ite	ne
 191 004c 1A46     		movne	r2, r3
 192 004e 0022     		moveq	r2, #0
 193              	.LVL11:
 194              	.L14:
 195              	.LBE20:
 196              		.loc 1 66 0
 197 0050 0121     		movs	r1, #1
 198 0052 D8F80000 		ldr	r0, [r8]
 199              	.LVL12:
 200 0056 2260     		str	r2, [r4]
 201 0058 FFF7FEFF 		bl	chEvtSignal
 202              	.LVL13:
 203 005c DDE7     		b	.L12
 204              	.LVL14:
 205              	.L13:
 206              	.LBB21:
 207              		.loc 1 55 0
 208 005e 0128     		cmp	r0, #1
 209 0060 04D0     		beq	.L24
 210              		.loc 1 56 0
 211 0062 9DF80530 		ldrb	r3, [sp, #5]	@ zero_extendqisi2
 212 0066 2B70     		strb	r3, [r5]
 213 0068 0122     		movs	r2, #1
 214 006a F1E7     		b	.L14
 215              	.L24:
 216              		.loc 1 59 0
 217 006c 0022     		movs	r2, #0
 218 006e EFE7     		b	.L14
 219              	.L26:
 220              		.align	2
 221              	.L25:
 222 0070 00000000 		.word	ch
 223 0074 00000000 		.word	SDU1
 224 0078 00000000 		.word	.LC1
 225 007c 00000000 		.word	.LANCHOR4
 226 0080 00000000 		.word	.LANCHOR3
 227 0084 00000000 		.word	.LANCHOR0
 228              	.LBE21:
ARM GAS  /tmp/ccaTeLRH.s 			page 5


 229              	.LBE19:
 230              		.cfi_endproc
 231              	.LFE256:
 232              		.size	serial_read_thread, .-serial_read_thread
 233              		.section	.text.process_packet,"ax",%progbits
 234              		.align	1
 235              		.p2align 4,,15
 236              		.syntax unified
 237              		.thumb
 238              		.thumb_func
 239              		.fpu fpv4-sp-d16
 240              		.type	process_packet, %function
 241              	process_packet:
 242              	.LFB258:
 243              		.loc 1 92 0
 244              		.cfi_startproc
 245              		@ args = 0, pretend = 0, frame = 0
 246              		@ frame_needed = 0, uses_anonymous_args = 0
 247              		@ link register save eliminated.
 248              	.LVL15:
 249              		.loc 1 93 0
 250 0000 014A     		ldr	r2, .L28
 251 0002 FFF7FEBF 		b	commands_process_packet
 252              	.LVL16:
 253              	.L29:
 254 0006 00BF     		.align	2
 255              	.L28:
 256 0008 00000000 		.word	comm_usb_send_packet
 257              		.cfi_endproc
 258              	.LFE258:
 259              		.size	process_packet, .-process_packet
 260              		.section	.text.comm_usb_send_packet,"ax",%progbits
 261              		.align	1
 262              		.p2align 4,,15
 263              		.global	comm_usb_send_packet
 264              		.syntax unified
 265              		.thumb
 266              		.thumb_func
 267              		.fpu fpv4-sp-d16
 268              		.type	comm_usb_send_packet, %function
 269              	comm_usb_send_packet:
 270              	.LFB261:
 271              		.loc 1 128 0
 272              		.cfi_startproc
 273              		@ args = 0, pretend = 0, frame = 0
 274              		@ frame_needed = 0, uses_anonymous_args = 0
 275              	.LVL17:
 276 0000 70B5     		push	{r4, r5, r6, lr}
 277              		.cfi_def_cfa_offset 16
 278              		.cfi_offset 4, -16
 279              		.cfi_offset 5, -12
 280              		.cfi_offset 6, -8
 281              		.cfi_offset 14, -4
 282              		.loc 1 129 0
 283 0002 084C     		ldr	r4, .L32
 284              		.loc 1 128 0
 285 0004 0546     		mov	r5, r0
ARM GAS  /tmp/ccaTeLRH.s 			page 6


 286 0006 0E46     		mov	r6, r1
 287              		.loc 1 129 0
 288 0008 2046     		mov	r0, r4
 289              	.LVL18:
 290 000a FFF7FEFF 		bl	chMtxLock
 291              	.LVL19:
 292              		.loc 1 130 0
 293 000e 2846     		mov	r0, r5
 294 0010 3146     		mov	r1, r6
 295 0012 054A     		ldr	r2, .L32+4
 296 0014 FFF7FEFF 		bl	packet_send_packet
 297              	.LVL20:
 298              		.loc 1 131 0
 299 0018 2046     		mov	r0, r4
 300              		.loc 1 132 0
 301 001a BDE87040 		pop	{r4, r5, r6, lr}
 302              		.cfi_restore 14
 303              		.cfi_restore 6
 304              		.cfi_restore 5
 305              		.cfi_restore 4
 306              		.cfi_def_cfa_offset 0
 307              	.LVL21:
 308              		.loc 1 131 0
 309 001e FFF7FEBF 		b	chMtxUnlock
 310              	.LVL22:
 311              	.L33:
 312 0022 00BF     		.align	2
 313              	.L32:
 314 0024 00000000 		.word	.LANCHOR5
 315 0028 00000000 		.word	.LANCHOR2
 316              		.cfi_endproc
 317              	.LFE261:
 318              		.size	comm_usb_send_packet, .-comm_usb_send_packet
 319              		.section	.text.send_packet_raw,"ax",%progbits
 320              		.align	1
 321              		.p2align 4,,15
 322              		.syntax unified
 323              		.thumb
 324              		.thumb_func
 325              		.fpu fpv4-sp-d16
 326              		.type	send_packet_raw, %function
 327              	send_packet_raw:
 328              	.LFB259:
 329              		.loc 1 96 0
 330              		.cfi_startproc
 331              		@ args = 0, pretend = 0, frame = 0
 332              		@ frame_needed = 0, uses_anonymous_args = 0
 333              	.LVL23:
 334 0000 F8B5     		push	{r3, r4, r5, r6, r7, lr}
 335              		.cfi_def_cfa_offset 24
 336              		.cfi_offset 3, -24
 337              		.cfi_offset 4, -20
 338              		.cfi_offset 5, -16
 339              		.cfi_offset 6, -12
 340              		.cfi_offset 7, -8
 341              		.cfi_offset 14, -4
 342              		.loc 1 96 0
ARM GAS  /tmp/ccaTeLRH.s 			page 7


 343 0002 0646     		mov	r6, r0
 344 0004 0D46     		mov	r5, r1
 345              		.loc 1 102 0
 346 0006 FFF7FEFF 		bl	comm_usb_serial_configured_cnt
 347              	.LVL24:
 348 000a 0028     		cmp	r0, #0
 349 000c 14DD     		ble	.L34
 350              	.LVL25:
 351 000e 0D48     		ldr	r0, .L45
 352              	.LBB26:
 353              		.loc 1 104 0
 354 0010 0D4C     		ldr	r4, .L45+4
 355 0012 0268     		ldr	r2, [r0]
 356 0014 2378     		ldrb	r3, [r4]	@ zero_extendqisi2
 357 0016 9769     		ldr	r7, [r2, #24]
 358              		.loc 1 105 0
 359 0018 3146     		mov	r1, r6
 360              		.loc 1 104 0
 361 001a 73B9     		cbnz	r3, .L44
 362              		.loc 1 107 0
 363 001c 4FF47A73 		mov	r3, #1000
 364 0020 2A46     		mov	r2, r5
 365 0022 B847     		blx	r7
 366              	.LVL26:
 367              	.L38:
 368              		.loc 1 110 0
 369 0024 401B     		subs	r0, r0, r5
 370              	.LVL27:
 371 0026 18BF     		it	ne
 372 0028 0120     		movne	r0, #1
 373 002a 2070     		strb	r0, [r4]
 374              		.loc 1 111 0
 375 002c 2378     		ldrb	r3, [r4]	@ zero_extendqisi2
 376 002e 1BB1     		cbz	r3, .L34
 377              	.LVL28:
 378              	.LBE26:
 379              	.LBB27:
 380              	.LBB28:
 381              		.loc 1 112 0
 382 0030 064A     		ldr	r2, .L45+8
 383 0032 1368     		ldr	r3, [r2]
 384 0034 0133     		adds	r3, r3, #1
 385 0036 1360     		str	r3, [r2]
 386              	.LVL29:
 387              	.L34:
 388              	.LBE28:
 389              	.LBE27:
 390              		.loc 1 115 0
 391 0038 F8BD     		pop	{r3, r4, r5, r6, r7, pc}
 392              	.LVL30:
 393              	.L44:
 394              	.LBB29:
 395              		.loc 1 105 0
 396 003a 0023     		movs	r3, #0
 397 003c 2A46     		mov	r2, r5
 398 003e B847     		blx	r7
 399              	.LVL31:
ARM GAS  /tmp/ccaTeLRH.s 			page 8


 400 0040 F0E7     		b	.L38
 401              	.L46:
 402 0042 00BF     		.align	2
 403              	.L45:
 404 0044 00000000 		.word	SDU1
 405 0048 00000000 		.word	.LANCHOR6
 406 004c 00000000 		.word	.LANCHOR7
 407              	.LBE29:
 408              		.cfi_endproc
 409              	.LFE259:
 410              		.size	send_packet_raw, .-send_packet_raw
 411              		.section	.text.comm_usb_init,"ax",%progbits
 412              		.align	1
 413              		.p2align 4,,15
 414              		.global	comm_usb_init
 415              		.syntax unified
 416              		.thumb
 417              		.thumb_func
 418              		.fpu fpv4-sp-d16
 419              		.type	comm_usb_init, %function
 420              	comm_usb_init:
 421              	.LFB260:
 422              		.loc 1 117 0
 423              		.cfi_startproc
 424              		@ args = 0, pretend = 0, frame = 0
 425              		@ frame_needed = 0, uses_anonymous_args = 0
 426 0000 10B5     		push	{r4, lr}
 427              		.cfi_def_cfa_offset 8
 428              		.cfi_offset 4, -8
 429              		.cfi_offset 14, -4
 430 0002 82B0     		sub	sp, sp, #8
 431              		.cfi_def_cfa_offset 16
 432              		.loc 1 118 0
 433 0004 FFF7FEFF 		bl	comm_usb_serial_init
 434              	.LVL32:
 435              		.loc 1 119 0
 436 0008 0D4A     		ldr	r2, .L49
 437 000a 0E49     		ldr	r1, .L49+4
 438 000c 0E48     		ldr	r0, .L49+8
 439 000e FFF7FEFF 		bl	packet_init
 440              	.LVL33:
 441              		.loc 1 124 0
 442 0012 0024     		movs	r4, #0
 443              		.loc 1 121 0
 444 0014 0D48     		ldr	r0, .L49+12
 445 0016 FFF7FEFF 		bl	chMtxObjectInit
 446              	.LVL34:
 447              		.loc 1 124 0
 448 001a 0094     		str	r4, [sp]
 449 001c 0C4B     		ldr	r3, .L49+16
 450 001e 0D48     		ldr	r0, .L49+20
 451 0020 4022     		movs	r2, #64
 452 0022 4FF42871 		mov	r1, #672
 453 0026 FFF7FEFF 		bl	chThdCreateStatic
 454              	.LVL35:
 455              		.loc 1 125 0
 456 002a 0094     		str	r4, [sp]
ARM GAS  /tmp/ccaTeLRH.s 			page 9


 457 002c 0A4B     		ldr	r3, .L49+24
 458 002e 0B48     		ldr	r0, .L49+28
 459 0030 4022     		movs	r2, #64
 460 0032 4FF41A61 		mov	r1, #2464
 461 0036 FFF7FEFF 		bl	chThdCreateStatic
 462              	.LVL36:
 463              		.loc 1 126 0
 464 003a 02B0     		add	sp, sp, #8
 465              		.cfi_def_cfa_offset 8
 466              		@ sp needed
 467 003c 10BD     		pop	{r4, pc}
 468              	.L50:
 469 003e 00BF     		.align	2
 470              	.L49:
 471 0040 00000000 		.word	.LANCHOR2
 472 0044 00000000 		.word	process_packet
 473 0048 00000000 		.word	send_packet_raw
 474 004c 00000000 		.word	.LANCHOR5
 475 0050 00000000 		.word	serial_read_thread
 476 0054 00000000 		.word	.LANCHOR8
 477 0058 00000000 		.word	serial_process_thread
 478 005c 00000000 		.word	.LANCHOR9
 479              		.cfi_endproc
 480              	.LFE260:
 481              		.size	comm_usb_init, .-comm_usb_init
 482              		.section	.text.comm_usb_get_write_timeout_cnt,"ax",%progbits
 483              		.align	1
 484              		.p2align 4,,15
 485              		.global	comm_usb_get_write_timeout_cnt
 486              		.syntax unified
 487              		.thumb
 488              		.thumb_func
 489              		.fpu fpv4-sp-d16
 490              		.type	comm_usb_get_write_timeout_cnt, %function
 491              	comm_usb_get_write_timeout_cnt:
 492              	.LFB262:
 493              		.loc 1 134 0
 494              		.cfi_startproc
 495              		@ args = 0, pretend = 0, frame = 0
 496              		@ frame_needed = 0, uses_anonymous_args = 0
 497              		@ link register save eliminated.
 498              		.loc 1 135 0
 499 0000 014B     		ldr	r3, .L52
 500 0002 1868     		ldr	r0, [r3]
 501              		.loc 1 136 0
 502 0004 7047     		bx	lr
 503              	.L53:
 504 0006 00BF     		.align	2
 505              	.L52:
 506 0008 00000000 		.word	.LANCHOR7
 507              		.cfi_endproc
 508              	.LFE262:
 509              		.size	comm_usb_get_write_timeout_cnt, .-comm_usb_get_write_timeout_cnt
 510              		.section	.bss.packet_state,"aw",%nobits
 511              		.align	2
 512              		.set	.LANCHOR2,. + 0
 513              		.type	packet_state, %object
ARM GAS  /tmp/ccaTeLRH.s 			page 10


 514              		.size	packet_state, 1060
 515              	packet_state:
 516 0000 00000000 		.space	1060
 516      00000000 
 516      00000000 
 516      00000000 
 516      00000000 
 517              		.section	.bss.process_tp,"aw",%nobits
 518              		.align	2
 519              		.set	.LANCHOR0,. + 0
 520              		.type	process_tp, %object
 521              		.size	process_tp, 4
 522              	process_tp:
 523 0000 00000000 		.space	4
 524              		.section	.bss.send_mutex,"aw",%nobits
 525              		.align	2
 526              		.set	.LANCHOR5,. + 0
 527              		.type	send_mutex, %object
 528              		.size	send_mutex, 16
 529              	send_mutex:
 530 0000 00000000 		.space	16
 530      00000000 
 530      00000000 
 530      00000000 
 531              		.section	.bss.serial_process_thread_wa,"aw",%nobits
 532              		.align	3
 533              		.set	.LANCHOR9,. + 0
 534              		.type	serial_process_thread_wa, %object
 535              		.size	serial_process_thread_wa, 2464
 536              	serial_process_thread_wa:
 537 0000 00000000 		.space	2464
 537      00000000 
 537      00000000 
 537      00000000 
 537      00000000 
 538              		.section	.bss.serial_read_thread_wa,"aw",%nobits
 539              		.align	3
 540              		.set	.LANCHOR8,. + 0
 541              		.type	serial_read_thread_wa, %object
 542              		.size	serial_read_thread_wa, 672
 543              	serial_read_thread_wa:
 544 0000 00000000 		.space	672
 544      00000000 
 544      00000000 
 544      00000000 
 544      00000000 
 545              		.section	.bss.serial_rx_buffer,"aw",%nobits
 546              		.align	2
 547              		.set	.LANCHOR3,. + 0
 548              		.type	serial_rx_buffer, %object
 549              		.size	serial_rx_buffer, 2048
 550              	serial_rx_buffer:
 551 0000 00000000 		.space	2048
 551      00000000 
 551      00000000 
 551      00000000 
 551      00000000 
ARM GAS  /tmp/ccaTeLRH.s 			page 11


 552              		.section	.bss.serial_rx_read_pos,"aw",%nobits
 553              		.align	2
 554              		.set	.LANCHOR1,. + 0
 555              		.type	serial_rx_read_pos, %object
 556              		.size	serial_rx_read_pos, 4
 557              	serial_rx_read_pos:
 558 0000 00000000 		.space	4
 559              		.section	.bss.serial_rx_write_pos,"aw",%nobits
 560              		.align	2
 561              		.set	.LANCHOR4,. + 0
 562              		.type	serial_rx_write_pos, %object
 563              		.size	serial_rx_write_pos, 4
 564              	serial_rx_write_pos:
 565 0000 00000000 		.space	4
 566              		.section	.bss.was_timeout,"aw",%nobits
 567              		.set	.LANCHOR6,. + 0
 568              		.type	was_timeout, %object
 569              		.size	was_timeout, 1
 570              	was_timeout:
 571 0000 00       		.space	1
 572              		.section	.bss.write_timeout_cnt,"aw",%nobits
 573              		.align	2
 574              		.set	.LANCHOR7,. + 0
 575              		.type	write_timeout_cnt, %object
 576              		.size	write_timeout_cnt, 4
 577              	write_timeout_cnt:
 578 0000 00000000 		.space	4
 579              		.section	.rodata.serial_process_thread.str1.4,"aMS",%progbits,1
 580              		.align	2
 581              	.LC0:
 582 0000 55534220 		.ascii	"USB process\000"
 582      70726F63 
 582      65737300 
 583              		.section	.rodata.serial_read_thread.str1.4,"aMS",%progbits,1
 584              		.align	2
 585              	.LC1:
 586 0000 55534220 		.ascii	"USB read\000"
 586      72656164 
 586      00
 587              		.text
 588              	.Letext0:
 589              		.file 3 "/usr/lib/gcc/arm-none-eabi/7.3.1/include/stddef.h"
 590              		.file 4 "/usr/arm-none-eabi/include/machine/_default_types.h"
 591              		.file 5 "/usr/arm-none-eabi/include/sys/_stdint.h"
 592              		.file 6 "ChibiOS_3.0.5/os/rt/ports/ARMCMx/compilers/GCC/chtypes.h"
 593              		.file 7 "ChibiOS_3.0.5/os/rt/include/chsystypes.h"
 594              		.file 8 "ChibiOS_3.0.5/os/rt/include/chschd.h"
 595              		.file 9 "ChibiOS_3.0.5/os/ext/CMSIS/include/core_cm4.h"
 596              		.file 10 "ChibiOS_3.0.5/os/ext/CMSIS/ST/system_stm32f4xx.h"
 597              		.file 11 "ChibiOS_3.0.5/os/ext/CMSIS/ST/stm32f407xx.h"
 598              		.file 12 "ChibiOS_3.0.5/os/rt/ports/ARMCMx/chcore.h"
 599              		.file 13 "ChibiOS_3.0.5/os/rt/ports/ARMCMx/chcore_v7m.h"
 600              		.file 14 "ChibiOS_3.0.5/os/rt/include/chtm.h"
 601              		.file 15 "ChibiOS_3.0.5/os/rt/include/chsem.h"
 602              		.file 16 "ChibiOS_3.0.5/os/rt/include/chmtx.h"
 603              		.file 17 "ChibiOS_3.0.5/os/rt/include/chevents.h"
 604              		.file 18 "ChibiOS_3.0.5/os/rt/include/chqueues.h"
ARM GAS  /tmp/ccaTeLRH.s 			page 12


 605              		.file 19 "./datatypes.h"
 606              		.file 20 "./conf_general.h"
 607              		.file 21 "ChibiOS_3.0.5/os/hal/ports/STM32/STM32F4xx/stm32_dma.h"
 608              		.file 22 "ChibiOS_3.0.5/os/hal/ports/STM32/LLD/GPIOv2/pal_lld.h"
 609              		.file 23 "ChibiOS_3.0.5/os/hal/include/can.h"
 610              		.file 24 "ChibiOS_3.0.5/os/hal/ports/STM32/LLD/can_lld.h"
 611              		.file 25 "ChibiOS_3.0.5/os/hal/include/i2c.h"
 612              		.file 26 "ChibiOS_3.0.5/os/hal/ports/STM32/LLD/I2Cv1/i2c_lld.h"
 613              		.file 27 "ChibiOS_3.0.5/os/hal/include/icu.h"
 614              		.file 28 "ChibiOS_3.0.5/os/hal/ports/STM32/LLD/TIMv1/icu_lld.h"
 615              		.file 29 "ChibiOS_3.0.5/os/hal/ports/STM32/LLD/TIMv1/stm32_tim.h"
 616              		.file 30 "ChibiOS_3.0.5/os/hal/include/serial.h"
 617              		.file 31 "ChibiOS_3.0.5/os/hal/ports/STM32/LLD/USARTv1/serial_lld.h"
 618              		.file 32 "ChibiOS_3.0.5/os/hal/include/spi.h"
 619              		.file 33 "ChibiOS_3.0.5/os/hal/ports/STM32/LLD/SPIv1/spi_lld.h"
 620              		.file 34 "ChibiOS_3.0.5/os/hal/include/usb.h"
 621              		.file 35 "ChibiOS_3.0.5/os/hal/ports/STM32/LLD/OTGv1/usb_lld.h"
 622              		.file 36 "ChibiOS_3.0.5/os/hal/ports/STM32/LLD/OTGv1/stm32_otg.h"
 623              		.file 37 "ChibiOS_3.0.5/os/hal/include/serial_usb.h"
 624              		.file 38 "packet.h"
 625              		.file 39 "comm_usb_serial.h"
 626              		.file 40 "commands.h"
 627              		.file 41 "ChibiOS_3.0.5/os/rt/include/chthreads.h"