ARM GAS  /tmp/ccuyDb88.s 			page 1


   1              		.cpu cortex-m4
   2              		.eabi_attribute 27, 1
   3              		.eabi_attribute 28, 1
   4              		.eabi_attribute 20, 1
   5              		.eabi_attribute 21, 1
   6              		.eabi_attribute 23, 3
   7              		.eabi_attribute 24, 1
   8              		.eabi_attribute 25, 1
   9              		.eabi_attribute 26, 1
  10              		.eabi_attribute 30, 2
  11              		.eabi_attribute 34, 1
  12              		.eabi_attribute 18, 4
  13              		.file	"comm_can.c"
  14              		.text
  15              	.Ltext0:
  16              		.cfi_sections	.debug_frame
  17              		.section	.text.cancom_read_thread,"ax",%progbits
  18              		.align	1
  19              		.p2align 4,,15
  20              		.syntax unified
  21              		.thumb
  22              		.thumb_func
  23              		.fpu fpv4-sp-d16
  24              		.type	cancom_read_thread, %function
  25              	cancom_read_thread:
  26              	.LFB313:
  27              		.file 1 "comm_can.c"
  28              		.loc 1 1113 0
  29              		.cfi_startproc
  30              		@ args = 0, pretend = 0, frame = 40
  31              		@ frame_needed = 0, uses_anonymous_args = 0
  32              	.LVL0:
  33 0000 2DE9F04F 		push	{r4, r5, r6, r7, r8, r9, r10, fp, lr}
  34              		.cfi_def_cfa_offset 36
  35              		.cfi_offset 4, -36
  36              		.cfi_offset 5, -32
  37              		.cfi_offset 6, -28
  38              		.cfi_offset 7, -24
  39              		.cfi_offset 8, -20
  40              		.cfi_offset 9, -16
  41              		.cfi_offset 10, -12
  42              		.cfi_offset 11, -8
  43              		.cfi_offset 14, -4
  44              	.LBB372:
  45              	.LBB373:
  46              		.file 2 "ChibiOS_3.0.5/os/rt/include/chregistry.h"
  47              		.loc 2 135 0
  48 0004 DFF8D8B0 		ldr	fp, .L15+20
  49 0008 304A     		ldr	r2, .L15
  50 000a DBF81830 		ldr	r3, [fp, #24]
  51              	.LBE373:
  52              	.LBE372:
  53              	.LBB375:
  54              	.LBB376:
  55              	.LBB377:
  56              		.file 3 "ChibiOS_3.0.5/os/rt/include/chevents.h"
  57              		.loc 3 193 0
ARM GAS  /tmp/ccuyDb88.s 			page 2


  58 000e 3048     		ldr	r0, .L15+4
  59              	.LVL1:
  60              	.LBE377:
  61              	.LBE376:
  62              	.LBE375:
  63              	.LBB380:
  64              	.LBB374:
  65              		.loc 2 135 0
  66 0010 9A61     		str	r2, [r3, #24]
  67              	.LVL2:
  68              	.LBE374:
  69              	.LBE380:
  70              		.loc 1 1113 0
  71 0012 8BB0     		sub	sp, sp, #44
  72              		.cfi_def_cfa_offset 80
  73              	.LVL3:
  74              	.LBB381:
  75              	.LBB379:
  76              	.LBB378:
  77              		.loc 3 193 0
  78 0014 6946     		mov	r1, sp
  79 0016 4FF0FF33 		mov	r3, #-1
  80 001a 0122     		movs	r2, #1
  81 001c FFF7FEFF 		bl	chEvtRegisterMaskWithFlags
  82              	.LVL4:
  83              	.LBE378:
  84              	.LBE379:
  85              	.LBE381:
  86              	.LBB382:
  87              		.loc 1 1134 0
  88 0020 2C4F     		ldr	r7, .L15+8
  89 0022 2D4D     		ldr	r5, .L15+12
  90 0024 DFF8BC90 		ldr	r9, .L15+24
  91              	.L3:
  92              	.LBE382:
  93              	.LBB383:
  94              	.LBB384:
  95              		.file 4 "ChibiOS_3.0.5/os/rt/include/chthreads.h"
  96              		.loc 4 233 0
  97 0028 DBF81830 		ldr	r3, [fp, #24]
  98              	.LBE384:
  99              	.LBE383:
 100              		.loc 1 1126 0
 101 002c 93F82130 		ldrb	r3, [r3, #33]	@ zero_extendqisi2
 102 0030 13F00404 		ands	r4, r3, #4
 103 0034 43D1     		bne	.L14
 104              	.L7:
 105              	.LBB386:
 106              		.loc 1 1128 0
 107 0036 0120     		movs	r0, #1
 108 0038 FFF7FEFF 		bl	timeout_feed_WDT
 109              	.LVL5:
 110              		.loc 1 1130 0
 111 003c 6421     		movs	r1, #100
 112 003e 4FF0FF30 		mov	r0, #-1
 113 0042 FFF7FEFF 		bl	chEvtWaitAnyTimeout
 114              	.LVL6:
ARM GAS  /tmp/ccuyDb88.s 			page 3


 115 0046 0028     		cmp	r0, #0
 116 0048 EED0     		beq	.L3
 117              		.loc 1 1134 0
 118 004a 05AA     		add	r2, sp, #20
 119 004c 2346     		mov	r3, r4
 120 004e 2146     		mov	r1, r4
 121 0050 3846     		mov	r0, r7
 122 0052 FFF7FEFF 		bl	canReceive
 123              	.LVL7:
 124              		.loc 1 1136 0
 125 0056 0028     		cmp	r0, #0
 126 0058 E6D1     		bne	.L3
 127 005a DFF88C80 		ldr	r8, .L15+28
 128              		.loc 1 1137 0
 129 005e 1F4E     		ldr	r6, .L15+16
 130              		.loc 1 1140 0
 131 0060 8246     		mov	r10, r0
 132              	.L6:
 133              	.LVL8:
 134              		.loc 1 1137 0
 135 0062 3046     		mov	r0, r6
 136              		.loc 1 1138 0
 137 0064 05AC     		add	r4, sp, #20
 138              		.loc 1 1137 0
 139 0066 FFF7FEFF 		bl	chMtxLock
 140              	.LVL9:
 141              		.loc 1 1138 0
 142 006a 0FCC     		ldmia	r4!, {r0, r1, r2, r3}
 143 006c D5F800C0 		ldr	ip, [r5]
 144 0070 D4F800E0 		ldr	lr, [r4]
 145 0074 0CEB8C04 		add	r4, ip, ip, lsl #2
 146 0078 09EB8404 		add	r4, r9, r4, lsl #2
 147 007c 0FC4     		stmia	r4!, {r0, r1, r2, r3}
 148 007e 0CF10103 		add	r3, ip, #1
 149              		.loc 1 1139 0
 150 0082 642B     		cmp	r3, #100
 151              		.loc 1 1142 0
 152 0084 3046     		mov	r0, r6
 153              		.loc 1 1138 0
 154 0086 2B60     		str	r3, [r5]
 155 0088 C4F800E0 		str	lr, [r4]
 156              		.loc 1 1140 0
 157 008c 08BF     		it	eq
 158 008e C5F800A0 		streq	r10, [r5]
 159              		.loc 1 1142 0
 160 0092 FFF7FEFF 		bl	chMtxUnlock
 161              	.LVL10:
 162              		.loc 1 1144 0
 163 0096 0121     		movs	r1, #1
 164 0098 D8F80000 		ldr	r0, [r8]
 165 009c FFF7FEFF 		bl	chEvtSignal
 166              	.LVL11:
 167              		.loc 1 1146 0
 168 00a0 0023     		movs	r3, #0
 169 00a2 1946     		mov	r1, r3
 170 00a4 05AA     		add	r2, sp, #20
 171 00a6 3846     		mov	r0, r7
ARM GAS  /tmp/ccuyDb88.s 			page 4


 172 00a8 FFF7FEFF 		bl	canReceive
 173              	.LVL12:
 174              		.loc 1 1136 0
 175 00ac 0028     		cmp	r0, #0
 176 00ae D8D0     		beq	.L6
 177              	.LBE386:
 178              	.LBB387:
 179              	.LBB385:
 180              		.loc 4 233 0
 181 00b0 DBF81830 		ldr	r3, [fp, #24]
 182              	.LBE385:
 183              	.LBE387:
 184              		.loc 1 1126 0
 185 00b4 93F82130 		ldrb	r3, [r3, #33]	@ zero_extendqisi2
 186 00b8 13F00404 		ands	r4, r3, #4
 187 00bc BBD0     		beq	.L7
 188              	.LVL13:
 189              	.L14:
 190              		.loc 1 1167 0
 191 00be 6946     		mov	r1, sp
 192 00c0 0348     		ldr	r0, .L15+4
 193              	.LVL14:
 194 00c2 FFF7FEFF 		bl	chEvtUnregister
 195              	.LVL15:
 196              		.loc 1 1171 0
 197 00c6 0BB0     		add	sp, sp, #44
 198              		.cfi_def_cfa_offset 36
 199              	.LVL16:
 200              		@ sp needed
 201 00c8 BDE8F08F 		pop	{r4, r5, r6, r7, r8, r9, r10, fp, pc}
 202              	.LVL17:
 203              	.L16:
 204              		.align	2
 205              	.L15:
 206 00cc 00000000 		.word	.LC0
 207 00d0 18000000 		.word	CAND1+24
 208 00d4 00000000 		.word	CAND1
 209 00d8 00000000 		.word	.LANCHOR1
 210 00dc 00000000 		.word	.LANCHOR0
 211 00e0 00000000 		.word	ch
 212 00e4 00000000 		.word	.LANCHOR2
 213 00e8 00000000 		.word	.LANCHOR3
 214              		.cfi_endproc
 215              	.LFE313:
 216              		.size	cancom_read_thread, .-cancom_read_thread
 217              		.section	.text.comm_can_transmit_eid_replace.constprop.2,"ax",%progbits
 218              		.align	1
 219              		.p2align 4,,15
 220              		.syntax unified
 221              		.thumb
 222              		.thumb_func
 223              		.fpu fpv4-sp-d16
 224              		.type	comm_can_transmit_eid_replace.constprop.2, %function
 225              	comm_can_transmit_eid_replace.constprop.2:
 226              	.LFB320:
 227              		.loc 1 214 0
 228              		.cfi_startproc
ARM GAS  /tmp/ccuyDb88.s 			page 5


 229              		@ args = 0, pretend = 0, frame = 16
 230              		@ frame_needed = 0, uses_anonymous_args = 0
 231              	.LVL18:
 232              		.loc 1 220 0
 233 0000 144B     		ldr	r3, .L28
 234 0002 1B78     		ldrb	r3, [r3]	@ zero_extendqisi2
 235              	.LVL19:
 236 0004 03B9     		cbnz	r3, .L27
 237 0006 7047     		bx	lr
 238              	.L27:
 239              		.loc 1 214 0
 240 0008 30B5     		push	{r4, r5, lr}
 241              		.cfi_def_cfa_offset 12
 242              		.cfi_offset 4, -12
 243              		.cfi_offset 5, -8
 244              		.cfi_offset 14, -4
 245 000a 85B0     		sub	sp, sp, #20
 246              		.cfi_def_cfa_offset 32
 247 000c 082A     		cmp	r2, #8
 248              		.loc 1 239 0
 249 000e 9DF80030 		ldrb	r3, [sp]	@ zero_extendqisi2
 250              		.loc 1 240 0
 251 0012 019D     		ldr	r5, [sp, #4]
 252              		.loc 1 241 0
 253 0014 43F02003 		orr	r3, r3, #32
 254 0018 28BF     		it	cs
 255 001a 0822     		movcs	r2, #8
 256              	.LVL20:
 257              		.loc 1 242 0
 258 001c 04AC     		add	r4, sp, #16
 259 001e 03F0EF03 		and	r3, r3, #239
 260 0022 62F30303 		bfi	r3, r2, #0, #4
 261 0026 04F8103D 		strb	r3, [r4, #-16]!
 262              		.loc 1 240 0
 263 002a 60F31C05 		bfi	r5, r0, #0, #29
 264              		.loc 1 243 0
 265 002e 02A8     		add	r0, sp, #8
 266              	.LVL21:
 267              		.loc 1 240 0
 268 0030 0195     		str	r5, [sp, #4]
 269              		.loc 1 243 0
 270 0032 FFF7FEFF 		bl	memcpy
 271              	.LVL22:
 272              		.loc 1 245 0
 273 0036 0848     		ldr	r0, .L28+4
 274 0038 FFF7FEFF 		bl	chMtxLock
 275              	.LVL23:
 276              		.loc 1 256 0
 277 003c 2246     		mov	r2, r4
 278 003e 3223     		movs	r3, #50
 279 0040 0021     		movs	r1, #0
 280 0042 0648     		ldr	r0, .L28+8
 281 0044 FFF7FEFF 		bl	canTransmit
 282              	.LVL24:
 283              		.loc 1 258 0
 284 0048 0348     		ldr	r0, .L28+4
 285 004a FFF7FEFF 		bl	chMtxUnlock
ARM GAS  /tmp/ccuyDb88.s 			page 6


 286              	.LVL25:
 287              		.loc 1 265 0
 288 004e 05B0     		add	sp, sp, #20
 289              		.cfi_def_cfa_offset 12
 290              		@ sp needed
 291 0050 30BD     		pop	{r4, r5, pc}
 292              	.L29:
 293 0052 00BF     		.align	2
 294              	.L28:
 295 0054 00000000 		.word	.LANCHOR4
 296 0058 00000000 		.word	.LANCHOR5
 297 005c 00000000 		.word	CAND1
 298              		.cfi_endproc
 299              	.LFE320:
 300              		.size	comm_can_transmit_eid_replace.constprop.2, .-comm_can_transmit_eid_replace.constprop.2
 301              		.section	.text.comm_can_init,"ax",%progbits
 302              		.align	1
 303              		.p2align 4,,15
 304              		.global	comm_can_init
 305              		.syntax unified
 306              		.thumb
 307              		.thumb_func
 308              		.fpu fpv4-sp-d16
 309              		.type	comm_can_init, %function
 310              	comm_can_init:
 311              	.LFB256:
 312              		.loc 1 112 0
 313              		.cfi_startproc
 314              		@ args = 0, pretend = 0, frame = 0
 315              		@ frame_needed = 0, uses_anonymous_args = 0
 316              	.LVL26:
 317 0000 2DE9F043 		push	{r4, r5, r6, r7, r8, r9, lr}
 318              		.cfi_def_cfa_offset 28
 319              		.cfi_offset 4, -28
 320              		.cfi_offset 5, -24
 321              		.cfi_offset 6, -20
 322              		.cfi_offset 7, -16
 323              		.cfi_offset 8, -12
 324              		.cfi_offset 9, -8
 325              		.cfi_offset 14, -4
 326 0004 0021     		movs	r1, #0
 327 0006 3548     		ldr	r0, .L36
 328 0008 DFF82091 		ldr	r9, .L36+80
 329 000c DFF82081 		ldr	r8, .L36+84
 330 0010 DFF820E1 		ldr	lr, .L36+88
 331 0014 DFF820C1 		ldr	ip, .L36+92
 332 0018 314F     		ldr	r7, .L36+4
 333 001a 324E     		ldr	r6, .L36+8
 334 001c 324D     		ldr	r5, .L36+12
 335 001e 334C     		ldr	r4, .L36+16
 336 0020 83B0     		sub	sp, sp, #12
 337              		.cfi_def_cfa_offset 40
 338              		.loc 1 112 0
 339 0022 0A46     		mov	r2, r1
 340              	.LBB388:
 341              		.loc 1 114 0
 342 0024 4FF0FF33 		mov	r3, #-1
ARM GAS  /tmp/ccuyDb88.s 			page 7


 343              	.LVL27:
 344              	.L31:
 345              		.loc 1 115 0 discriminator 3
 346 0028 49F80230 		str	r3, [r9, r2]
 347              		.loc 1 116 0 discriminator 3
 348 002c 48F80230 		str	r3, [r8, r2]
 349              		.loc 1 118 0 discriminator 3
 350 0030 4CF80230 		str	r3, [ip, r2]
 351              		.loc 1 122 0 discriminator 3
 352 0034 AB50     		str	r3, [r5, r2]
 353 0036 1032     		adds	r2, r2, #16
 354              		.loc 1 113 0 discriminator 3
 355 0038 A02A     		cmp	r2, #160
 356              		.loc 1 117 0 discriminator 3
 357 003a 4EF80130 		str	r3, [lr, r1]
 358              		.loc 1 120 0 discriminator 3
 359 003e 7B50     		str	r3, [r7, r1]
 360              		.loc 1 121 0 discriminator 3
 361 0040 7350     		str	r3, [r6, r1]
 362              		.loc 1 124 0 discriminator 3
 363 0042 6350     		str	r3, [r4, r1]
 364              		.loc 1 114 0 discriminator 3
 365 0044 40F8143B 		str	r3, [r0], #20
 366 0048 01F11801 		add	r1, r1, #24
 367              		.loc 1 113 0 discriminator 3
 368 004c ECD1     		bne	.L31
 369              	.LBE388:
 370              		.loc 1 128 0
 371 004e 2849     		ldr	r1, .L36+20
 372              		.loc 1 129 0
 373 0050 284A     		ldr	r2, .L36+24
 374              		.loc 1 131 0
 375 0052 2948     		ldr	r0, .L36+28
 376              		.loc 1 128 0
 377 0054 0023     		movs	r3, #0
 378 0056 0B60     		str	r3, [r1]
 379              		.loc 1 129 0
 380 0058 1360     		str	r3, [r2]
 381              		.loc 1 131 0
 382 005a FFF7FEFF 		bl	chMtxObjectInit
 383              	.LVL28:
 384              		.loc 1 132 0
 385 005e 2748     		ldr	r0, .L36+32
 386 0060 FFF7FEFF 		bl	chMtxObjectInit
 387              	.LVL29:
 388              		.loc 1 134 0
 389 0064 40F28A42 		movw	r2, #1162
 390 0068 4FF48071 		mov	r1, #256
 391 006c 2448     		ldr	r0, .L36+36
 392 006e FFF7FEFF 		bl	_pal_lld_setgroupmode
 393              	.LVL30:
 394              		.loc 1 138 0
 395 0072 2348     		ldr	r0, .L36+36
 396 0074 40F28A42 		movw	r2, #1162
 397 0078 4FF40071 		mov	r1, #512
 398 007c FFF7FEFF 		bl	_pal_lld_setgroupmode
 399              	.LVL31:
ARM GAS  /tmp/ccuyDb88.s 			page 8


 400              		.loc 1 158 0
 401 0080 2048     		ldr	r0, .L36+40
 402 0082 214B     		ldr	r3, .L36+44
 403 0084 9842     		cmp	r0, r3
 404 0086 24D0     		beq	.L35
 405              	.L32:
 406              		.loc 1 167 0
 407 0088 0024     		movs	r4, #0
 408              		.loc 1 162 0
 409 008a 2049     		ldr	r1, .L36+48
 410 008c 1D48     		ldr	r0, .L36+40
 411 008e FFF7FEFF 		bl	canStart
 412              	.LVL32:
 413              		.loc 1 165 0
 414 0092 FFF7FEFF 		bl	canard_driver_init
 415              	.LVL33:
 416              		.loc 1 167 0
 417 0096 0094     		str	r4, [sp]
 418 0098 1D4B     		ldr	r3, .L36+52
 419 009a 1E48     		ldr	r0, .L36+56
 420 009c 4122     		movs	r2, #65
 421 009e 4FF42871 		mov	r1, #672
 422 00a2 FFF7FEFF 		bl	chThdCreateStatic
 423              	.LVL34:
 424              		.loc 1 169 0
 425 00a6 0094     		str	r4, [sp]
 426 00a8 1B4B     		ldr	r3, .L36+60
 427 00aa 1C48     		ldr	r0, .L36+64
 428 00ac 4022     		movs	r2, #64
 429 00ae 4FF46871 		mov	r1, #928
 430 00b2 FFF7FEFF 		bl	chThdCreateStatic
 431              	.LVL35:
 432              		.loc 1 171 0
 433 00b6 0094     		str	r4, [sp]
 434 00b8 194B     		ldr	r3, .L36+68
 435 00ba 1A48     		ldr	r0, .L36+72
 436 00bc 4022     		movs	r2, #64
 437 00be 4FF41A61 		mov	r1, #2464
 438 00c2 FFF7FEFF 		bl	chThdCreateStatic
 439              	.LVL36:
 440              		.loc 1 178 0
 441 00c6 184B     		ldr	r3, .L36+76
 442 00c8 0122     		movs	r2, #1
 443 00ca 1A70     		strb	r2, [r3]
 444              		.loc 1 181 0
 445 00cc 03B0     		add	sp, sp, #12
 446              		.cfi_remember_state
 447              		.cfi_def_cfa_offset 28
 448              		@ sp needed
 449 00ce BDE8F083 		pop	{r4, r5, r6, r7, r8, r9, pc}
 450              	.L35:
 451              		.cfi_restore_state
 452              		.loc 1 159 0
 453 00d2 0E49     		ldr	r1, .L36+48
 454 00d4 FFF7FEFF 		bl	canStart
 455              	.LVL37:
 456 00d8 D6E7     		b	.L32
ARM GAS  /tmp/ccuyDb88.s 			page 9


 457              	.L37:
 458 00da 00BF     		.align	2
 459              	.L36:
 460 00dc 00000000 		.word	.LANCHOR6
 461 00e0 00000000 		.word	.LANCHOR11
 462 00e4 00000000 		.word	.LANCHOR12
 463 00e8 00000000 		.word	.LANCHOR13
 464 00ec 00000000 		.word	.LANCHOR14
 465 00f0 00000000 		.word	.LANCHOR15
 466 00f4 00000000 		.word	.LANCHOR1
 467 00f8 00000000 		.word	.LANCHOR5
 468 00fc 00000000 		.word	.LANCHOR0
 469 0100 00040240 		.word	1073873920
 470 0104 00000000 		.word	CAND1
 471 0108 00000000 		.word	CAND2
 472 010c 00000000 		.word	.LANCHOR16
 473 0110 00000000 		.word	cancom_read_thread
 474 0114 00000000 		.word	.LANCHOR17
 475 0118 00000000 		.word	cancom_status_thread
 476 011c 00000000 		.word	.LANCHOR18
 477 0120 00000000 		.word	cancom_process_thread
 478 0124 00000000 		.word	.LANCHOR19
 479 0128 00000000 		.word	.LANCHOR4
 480 012c 00000000 		.word	.LANCHOR7
 481 0130 00000000 		.word	.LANCHOR8
 482 0134 00000000 		.word	.LANCHOR9
 483 0138 00000000 		.word	.LANCHOR10
 484              		.cfi_endproc
 485              	.LFE256:
 486              		.size	comm_can_init, .-comm_can_init
 487              		.section	.text.comm_can_set_baud,"ax",%progbits
 488              		.align	1
 489              		.p2align 4,,15
 490              		.global	comm_can_set_baud
 491              		.syntax unified
 492              		.thumb
 493              		.thumb_func
 494              		.fpu fpv4-sp-d16
 495              		.type	comm_can_set_baud, %function
 496              	comm_can_set_baud:
 497              	.LFB257:
 498              		.loc 1 183 0
 499              		.cfi_startproc
 500              		@ args = 0, pretend = 0, frame = 0
 501              		@ frame_needed = 0, uses_anonymous_args = 0
 502              	.LVL38:
 503 0000 10B5     		push	{r4, lr}
 504              		.cfi_def_cfa_offset 8
 505              		.cfi_offset 4, -8
 506              		.cfi_offset 14, -4
 507              		.loc 1 184 0
 508 0002 0828     		cmp	r0, #8
 509 0004 2AD8     		bhi	.L38
 510 0006 DFE800F0 		tbb	[pc, r0]
 511              	.L41:
 512 000a 11       		.byte	(.L40-.L41)/2
 513 000b 14       		.byte	(.L42-.L41)/2
ARM GAS  /tmp/ccuyDb88.s 			page 10


 514 000c 17       		.byte	(.L43-.L41)/2
 515 000d 1A       		.byte	(.L44-.L41)/2
 516 000e 1D       		.byte	(.L45-.L41)/2
 517 000f 20       		.byte	(.L46-.L41)/2
 518 0010 23       		.byte	(.L47-.L41)/2
 519 0011 26       		.byte	(.L48-.L41)/2
 520 0012 05       		.byte	(.L49-.L41)/2
 521 0013 00       		.p2align 1
 522              	.L49:
 523              	.LVL39:
 524              	.LBB389:
 525              	.LBB390:
 526              		.loc 1 1901 0
 527 0014 124C     		ldr	r4, .L52
 528 0016 134B     		ldr	r3, .L52+4
 529              	.LVL40:
 530              	.L51:
 531              		.loc 1 1910 0
 532 0018 1348     		ldr	r0, .L52+8
 533              	.LVL41:
 534              		.loc 1 1901 0
 535 001a 6360     		str	r3, [r4, #4]
 536              		.loc 1 1910 0
 537 001c FFF7FEFF 		bl	canStop
 538              	.LVL42:
 539              		.loc 1 1911 0
 540 0020 2146     		mov	r1, r4
 541 0022 1148     		ldr	r0, .L52+8
 542              	.LBE390:
 543              	.LBE389:
 544              		.loc 1 196 0
 545 0024 BDE81040 		pop	{r4, lr}
 546              		.cfi_remember_state
 547              		.cfi_restore 14
 548              		.cfi_restore 4
 549              		.cfi_def_cfa_offset 0
 550              	.LBB392:
 551              	.LBB391:
 552              		.loc 1 1911 0
 553 0028 FFF7FEBF 		b	canStart
 554              	.LVL43:
 555              	.L40:
 556              		.cfi_restore_state
 557              	.LBE391:
 558              	.LBE392:
 559              	.LBB393:
 560              	.LBB394:
 561              		.loc 1 1901 0
 562 002c 0C4C     		ldr	r4, .L52
 563 002e 0F4B     		ldr	r3, .L52+12
 564 0030 F2E7     		b	.L51
 565              	.LVL44:
 566              	.L42:
 567              	.LBE394:
 568              	.LBE393:
 569              	.LBB395:
 570              	.LBB396:
ARM GAS  /tmp/ccuyDb88.s 			page 11


 571 0032 0B4C     		ldr	r4, .L52
 572 0034 0E4B     		ldr	r3, .L52+16
 573 0036 EFE7     		b	.L51
 574              	.LVL45:
 575              	.L43:
 576              	.LBE396:
 577              	.LBE395:
 578              	.LBB397:
 579              	.LBB398:
 580 0038 094C     		ldr	r4, .L52
 581 003a 0E4B     		ldr	r3, .L52+20
 582 003c ECE7     		b	.L51
 583              	.LVL46:
 584              	.L44:
 585              	.LBE398:
 586              	.LBE397:
 587              	.LBB399:
 588              	.LBB400:
 589 003e 084C     		ldr	r4, .L52
 590 0040 0D4B     		ldr	r3, .L52+24
 591 0042 E9E7     		b	.L51
 592              	.LVL47:
 593              	.L45:
 594              	.LBE400:
 595              	.LBE399:
 596              	.LBB401:
 597              	.LBB402:
 598 0044 064C     		ldr	r4, .L52
 599 0046 0D4B     		ldr	r3, .L52+28
 600 0048 E6E7     		b	.L51
 601              	.LVL48:
 602              	.L46:
 603              	.LBE402:
 604              	.LBE401:
 605              	.LBB403:
 606              	.LBB404:
 607 004a 054C     		ldr	r4, .L52
 608 004c 0C4B     		ldr	r3, .L52+32
 609 004e E3E7     		b	.L51
 610              	.LVL49:
 611              	.L47:
 612              	.LBE404:
 613              	.LBE403:
 614              	.LBB405:
 615              	.LBB406:
 616 0050 034C     		ldr	r4, .L52
 617 0052 0C4B     		ldr	r3, .L52+36
 618 0054 E0E7     		b	.L51
 619              	.LVL50:
 620              	.L48:
 621              	.LBE406:
 622              	.LBE405:
 623              	.LBB407:
 624              	.LBB408:
 625 0056 024C     		ldr	r4, .L52
 626 0058 0B4B     		ldr	r3, .L52+40
 627 005a DDE7     		b	.L51
ARM GAS  /tmp/ccuyDb88.s 			page 12


 628              	.LVL51:
 629              	.L38:
 630              	.LBE408:
 631              	.LBE407:
 632              		.loc 1 196 0
 633 005c 10BD     		pop	{r4, pc}
 634              	.L53:
 635 005e 00BF     		.align	2
 636              	.L52:
 637 0060 00000000 		.word	.LANCHOR16
 638 0064 1D001A03 		.word	52035613
 639 0068 00000000 		.word	CAND1
 640 006c 0F004E03 		.word	55443471
 641 0070 07004E03 		.word	55443463
 642 0074 05002903 		.word	53018629
 643 0078 02002903 		.word	53018626
 644 007c 2B011A03 		.word	52035883
 645 0080 95001A03 		.word	52035733
 646 0084 3B001A03 		.word	52035643
 647 0088 27001A03 		.word	52035623
 648              		.cfi_endproc
 649              	.LFE257:
 650              		.size	comm_can_set_baud, .-comm_can_set_baud
 651              		.section	.text.comm_can_transmit_eid_replace,"ax",%progbits
 652              		.align	1
 653              		.p2align 4,,15
 654              		.global	comm_can_transmit_eid_replace
 655              		.syntax unified
 656              		.thumb
 657              		.thumb_func
 658              		.fpu fpv4-sp-d16
 659              		.type	comm_can_transmit_eid_replace, %function
 660              	comm_can_transmit_eid_replace:
 661              	.LFB258:
 662              		.loc 1 214 0
 663              		.cfi_startproc
 664              		@ args = 0, pretend = 0, frame = 16
 665              		@ frame_needed = 0, uses_anonymous_args = 0
 666              	.LVL52:
 667              		.loc 1 220 0
 668 0000 144B     		ldr	r3, .L65
 669              	.LVL53:
 670 0002 1B78     		ldrb	r3, [r3]	@ zero_extendqisi2
 671              	.LVL54:
 672 0004 03B9     		cbnz	r3, .L64
 673 0006 7047     		bx	lr
 674              	.L64:
 675              		.loc 1 214 0
 676 0008 30B5     		push	{r4, r5, lr}
 677              		.cfi_def_cfa_offset 12
 678              		.cfi_offset 4, -12
 679              		.cfi_offset 5, -8
 680              		.cfi_offset 14, -4
 681 000a 85B0     		sub	sp, sp, #20
 682              		.cfi_def_cfa_offset 32
 683 000c 082A     		cmp	r2, #8
 684              		.loc 1 239 0
ARM GAS  /tmp/ccuyDb88.s 			page 13


 685 000e 9DF80030 		ldrb	r3, [sp]	@ zero_extendqisi2
 686              		.loc 1 240 0
 687 0012 019D     		ldr	r5, [sp, #4]
 688              		.loc 1 241 0
 689 0014 43F02003 		orr	r3, r3, #32
 690 0018 28BF     		it	cs
 691 001a 0822     		movcs	r2, #8
 692              	.LVL55:
 693              		.loc 1 242 0
 694 001c 04AC     		add	r4, sp, #16
 695 001e 03F0EF03 		and	r3, r3, #239
 696 0022 62F30303 		bfi	r3, r2, #0, #4
 697 0026 04F8103D 		strb	r3, [r4, #-16]!
 698              		.loc 1 240 0
 699 002a 60F31C05 		bfi	r5, r0, #0, #29
 700              		.loc 1 243 0
 701 002e 02A8     		add	r0, sp, #8
 702              	.LVL56:
 703              		.loc 1 240 0
 704 0030 0195     		str	r5, [sp, #4]
 705              		.loc 1 243 0
 706 0032 FFF7FEFF 		bl	memcpy
 707              	.LVL57:
 708              		.loc 1 245 0
 709 0036 0848     		ldr	r0, .L65+4
 710 0038 FFF7FEFF 		bl	chMtxLock
 711              	.LVL58:
 712              		.loc 1 256 0
 713 003c 2246     		mov	r2, r4
 714 003e 3223     		movs	r3, #50
 715 0040 0021     		movs	r1, #0
 716 0042 0648     		ldr	r0, .L65+8
 717 0044 FFF7FEFF 		bl	canTransmit
 718              	.LVL59:
 719              		.loc 1 258 0
 720 0048 0348     		ldr	r0, .L65+4
 721 004a FFF7FEFF 		bl	chMtxUnlock
 722              	.LVL60:
 723              		.loc 1 265 0
 724 004e 05B0     		add	sp, sp, #20
 725              		.cfi_def_cfa_offset 12
 726              		@ sp needed
 727 0050 30BD     		pop	{r4, r5, pc}
 728              	.L66:
 729 0052 00BF     		.align	2
 730              	.L65:
 731 0054 00000000 		.word	.LANCHOR4
 732 0058 00000000 		.word	.LANCHOR5
 733 005c 00000000 		.word	CAND1
 734              		.cfi_endproc
 735              	.LFE258:
 736              		.size	comm_can_transmit_eid_replace, .-comm_can_transmit_eid_replace
 737              		.section	.text.comm_can_transmit_eid,"ax",%progbits
 738              		.align	1
 739              		.p2align 4,,15
 740              		.global	comm_can_transmit_eid
 741              		.syntax unified
ARM GAS  /tmp/ccuyDb88.s 			page 14


 742              		.thumb
 743              		.thumb_func
 744              		.fpu fpv4-sp-d16
 745              		.type	comm_can_transmit_eid, %function
 746              	comm_can_transmit_eid:
 747              	.LFB259:
 748              		.loc 1 267 0
 749              		.cfi_startproc
 750              		@ args = 0, pretend = 0, frame = 0
 751              		@ frame_needed = 0, uses_anonymous_args = 0
 752              		@ link register save eliminated.
 753              	.LVL61:
 754              		.loc 1 268 0
 755 0000 FFF7FEBF 		b	comm_can_transmit_eid_replace.constprop.2
 756              	.LVL62:
 757              		.cfi_endproc
 758              	.LFE259:
 759              		.size	comm_can_transmit_eid, .-comm_can_transmit_eid
 760              		.section	.text.comm_can_transmit_sid,"ax",%progbits
 761              		.align	1
 762              		.p2align 4,,15
 763              		.global	comm_can_transmit_sid
 764              		.syntax unified
 765              		.thumb
 766              		.thumb_func
 767              		.fpu fpv4-sp-d16
 768              		.type	comm_can_transmit_sid, %function
 769              	comm_can_transmit_sid:
 770              	.LFB260:
 771              		.loc 1 271 0
 772              		.cfi_startproc
 773              		@ args = 0, pretend = 0, frame = 16
 774              		@ frame_needed = 0, uses_anonymous_args = 0
 775              	.LVL63:
 776              		.loc 1 277 0
 777 0000 144B     		ldr	r3, .L79
 778 0002 1B78     		ldrb	r3, [r3]	@ zero_extendqisi2
 779              	.LVL64:
 780 0004 03B9     		cbnz	r3, .L78
 781 0006 7047     		bx	lr
 782              	.L78:
 783              		.loc 1 271 0
 784 0008 30B5     		push	{r4, r5, lr}
 785              		.cfi_def_cfa_offset 12
 786              		.cfi_offset 4, -12
 787              		.cfi_offset 5, -8
 788              		.cfi_offset 14, -4
 789 000a 85B0     		sub	sp, sp, #20
 790              		.cfi_def_cfa_offset 32
 791 000c 082A     		cmp	r2, #8
 792              		.loc 1 282 0
 793 000e 9DF80030 		ldrb	r3, [sp]	@ zero_extendqisi2
 794              		.loc 1 283 0
 795 0012 BDF80450 		ldrh	r5, [sp, #4]
 796 0016 28BF     		it	cs
 797 0018 0822     		movcs	r2, #8
 798              	.LVL65:
ARM GAS  /tmp/ccuyDb88.s 			page 15


 799              		.loc 1 285 0
 800 001a 04AC     		add	r4, sp, #16
 801 001c 03F0CF03 		and	r3, r3, #207
 802 0020 62F30303 		bfi	r3, r2, #0, #4
 803 0024 04F8103D 		strb	r3, [r4, #-16]!
 804              		.loc 1 283 0
 805 0028 60F30A05 		bfi	r5, r0, #0, #11
 806              		.loc 1 286 0
 807 002c 02A8     		add	r0, sp, #8
 808              	.LVL66:
 809              		.loc 1 283 0
 810 002e ADF80450 		strh	r5, [sp, #4]	@ movhi
 811              		.loc 1 286 0
 812 0032 FFF7FEFF 		bl	memcpy
 813              	.LVL67:
 814              		.loc 1 288 0
 815 0036 0848     		ldr	r0, .L79+4
 816 0038 FFF7FEFF 		bl	chMtxLock
 817              	.LVL68:
 818              		.loc 1 299 0
 819 003c 2246     		mov	r2, r4
 820 003e 3223     		movs	r3, #50
 821 0040 0021     		movs	r1, #0
 822 0042 0648     		ldr	r0, .L79+8
 823 0044 FFF7FEFF 		bl	canTransmit
 824              	.LVL69:
 825              		.loc 1 301 0
 826 0048 0348     		ldr	r0, .L79+4
 827 004a FFF7FEFF 		bl	chMtxUnlock
 828              	.LVL70:
 829              		.loc 1 307 0
 830 004e 05B0     		add	sp, sp, #20
 831              		.cfi_def_cfa_offset 12
 832              		@ sp needed
 833 0050 30BD     		pop	{r4, r5, pc}
 834              	.L80:
 835 0052 00BF     		.align	2
 836              	.L79:
 837 0054 00000000 		.word	.LANCHOR4
 838 0058 00000000 		.word	.LANCHOR5
 839 005c 00000000 		.word	CAND1
 840              		.cfi_endproc
 841              	.LFE260:
 842              		.size	comm_can_transmit_sid, .-comm_can_transmit_sid
 843              		.section	.text.comm_can_set_sid_rx_callback,"ax",%progbits
 844              		.align	1
 845              		.p2align 4,,15
 846              		.global	comm_can_set_sid_rx_callback
 847              		.syntax unified
 848              		.thumb
 849              		.thumb_func
 850              		.fpu fpv4-sp-d16
 851              		.type	comm_can_set_sid_rx_callback, %function
 852              	comm_can_set_sid_rx_callback:
 853              	.LFB261:
 854              		.loc 1 318 0
 855              		.cfi_startproc
ARM GAS  /tmp/ccuyDb88.s 			page 16


 856              		@ args = 0, pretend = 0, frame = 0
 857              		@ frame_needed = 0, uses_anonymous_args = 0
 858              		@ link register save eliminated.
 859              	.LVL71:
 860              		.loc 1 319 0
 861 0000 014B     		ldr	r3, .L82
 862 0002 1860     		str	r0, [r3]
 863              		.loc 1 320 0
 864 0004 7047     		bx	lr
 865              	.L83:
 866 0006 00BF     		.align	2
 867              	.L82:
 868 0008 00000000 		.word	.LANCHOR20
 869              		.cfi_endproc
 870              	.LFE261:
 871              		.size	comm_can_set_sid_rx_callback, .-comm_can_set_sid_rx_callback
 872              		.section	.text.comm_can_set_eid_rx_callback,"ax",%progbits
 873              		.align	1
 874              		.p2align 4,,15
 875              		.global	comm_can_set_eid_rx_callback
 876              		.syntax unified
 877              		.thumb
 878              		.thumb_func
 879              		.fpu fpv4-sp-d16
 880              		.type	comm_can_set_eid_rx_callback, %function
 881              	comm_can_set_eid_rx_callback:
 882              	.LFB262:
 883              		.loc 1 331 0
 884              		.cfi_startproc
 885              		@ args = 0, pretend = 0, frame = 0
 886              		@ frame_needed = 0, uses_anonymous_args = 0
 887              		@ link register save eliminated.
 888              	.LVL72:
 889              		.loc 1 332 0
 890 0000 014B     		ldr	r3, .L85
 891 0002 1860     		str	r0, [r3]
 892              		.loc 1 333 0
 893 0004 7047     		bx	lr
 894              	.L86:
 895 0006 00BF     		.align	2
 896              	.L85:
 897 0008 00000000 		.word	.LANCHOR21
 898              		.cfi_endproc
 899              	.LFE262:
 900              		.size	comm_can_set_eid_rx_callback, .-comm_can_set_eid_rx_callback
 901              		.section	.text.comm_can_send_buffer,"ax",%progbits
 902              		.align	1
 903              		.p2align 4,,15
 904              		.global	comm_can_send_buffer
 905              		.syntax unified
 906              		.thumb
 907              		.thumb_func
 908              		.fpu fpv4-sp-d16
 909              		.type	comm_can_send_buffer, %function
 910              	comm_can_send_buffer:
 911              	.LFB263:
 912              		.loc 1 355 0
ARM GAS  /tmp/ccuyDb88.s 			page 17


 913              		.cfi_startproc
 914              		@ args = 0, pretend = 0, frame = 24
 915              		@ frame_needed = 0, uses_anonymous_args = 0
 916              	.LVL73:
 917 0000 2DE9F04F 		push	{r4, r5, r6, r7, r8, r9, r10, fp, lr}
 918              		.cfi_def_cfa_offset 36
 919              		.cfi_offset 4, -36
 920              		.cfi_offset 5, -32
 921              		.cfi_offset 6, -28
 922              		.cfi_offset 7, -24
 923              		.cfi_offset 8, -20
 924              		.cfi_offset 9, -16
 925              		.cfi_offset 10, -12
 926              		.cfi_offset 11, -8
 927              		.cfi_offset 14, -4
 928 0004 87B0     		sub	sp, sp, #28
 929              		.cfi_def_cfa_offset 64
 930              		.loc 1 358 0
 931 0006 062A     		cmp	r2, #6
 932              		.loc 1 355 0
 933 0008 1546     		mov	r5, r2
 934 000a 8246     		mov	r10, r0
 935 000c 0E46     		mov	r6, r1
 936 000e 0193     		str	r3, [sp, #4]
 937              		.loc 1 358 0
 938 0010 45D9     		bls	.L88
 939 0012 D3B2     		uxtb	r3, r2
 940              	.LVL74:
 941 0014 40F4A067 		orr	r7, r0, #1280
 942 0018 0293     		str	r3, [sp, #8]
 943              	.LBB419:
 944              	.LBB420:
 945              	.LBB421:
 946              		.loc 1 367 0
 947 001a 0021     		movs	r1, #0
 948              	.LVL75:
 949              	.LBB422:
 950              	.LBB423:
 951              		.loc 1 369 0
 952 001c 40F20318 		movw	r8, #259
 953 0020 01E0     		b	.L89
 954              	.LVL76:
 955              	.L94:
 956 0022 4445     		cmp	r4, r8
 957 0024 53D0     		beq	.L91
 958              	.LVL77:
 959              	.L89:
 960              		.loc 1 373 0
 961 0026 CC1D     		adds	r4, r1, #7
 962              	.LVL78:
 963 0028 5FFA84F9 		uxtb	r9, r4
 964              		.loc 1 376 0
 965 002c A9F10703 		sub	r3, r9, #7
 966              		.loc 1 378 0
 967 0030 A542     		cmp	r5, r4
 968 0032 3144     		add	r1, r1, r6
 969              		.loc 1 376 0
ARM GAS  /tmp/ccuyDb88.s 			page 18


 970 0034 8DF81030 		strb	r3, [sp, #16]
 971              		.loc 1 378 0
 972 0038 7DD3     		bcc	.L92
 973              		.loc 1 379 0
 974 003a 8A88     		ldrh	r2, [r1, #4]	@ unaligned
 975 003c 0868     		ldr	r0, [r1]	@ unaligned
 976 003e 8B79     		ldrb	r3, [r1, #6]	@ zero_extendqisi2
 977 0040 ADF81520 		strh	r2, [sp, #21]	@ unaligned
 978 0044 CDF81100 		str	r0, [sp, #17]	@ unaligned
 979 0048 8DF81730 		strb	r3, [sp, #23]
 980 004c 0822     		movs	r2, #8
 981              	.LVL79:
 982              	.L93:
 983              		.loc 1 385 0
 984 004e 04A9     		add	r1, sp, #16
 985 0050 3846     		mov	r0, r7
 986 0052 FFF7FEFF 		bl	comm_can_transmit_eid_replace.constprop.2
 987              	.LVL80:
 988              	.LBE423:
 989              		.loc 1 368 0
 990 0056 A542     		cmp	r5, r4
 991 0058 2146     		mov	r1, r4
 992 005a E2D8     		bhi	.L94
 993              	.LVL81:
 994              	.L95:
 995              	.LBE422:
 996              		.loc 1 406 0
 997 005c FFF7FEFF 		bl	app_get_configuration
 998              	.LVL82:
 999              		.loc 1 407 0
 1000 0060 019A     		ldr	r2, [sp, #4]
 1001              		.loc 1 406 0
 1002 0062 0378     		ldrb	r3, [r0]	@ zero_extendqisi2
 1003 0064 8DF81030 		strb	r3, [sp, #16]
 1004              	.LVL83:
 1005              		.loc 1 410 0
 1006 0068 2946     		mov	r1, r5
 1007              		.loc 1 408 0
 1008 006a 2B0A     		lsrs	r3, r5, #8
 1009              		.loc 1 407 0
 1010 006c 8DF81120 		strb	r2, [sp, #17]
 1011              	.LVL84:
 1012              		.loc 1 410 0
 1013 0070 3046     		mov	r0, r6
 1014              		.loc 1 409 0
 1015 0072 029A     		ldr	r2, [sp, #8]
 1016 0074 8DF81320 		strb	r2, [sp, #19]
 1017              		.loc 1 408 0
 1018 0078 8DF81230 		strb	r3, [sp, #18]
 1019              	.LVL85:
 1020              		.loc 1 410 0
 1021 007c FFF7FEFF 		bl	crc16
 1022              	.LVL86:
 1023              		.loc 1 414 0
 1024 0080 04A9     		add	r1, sp, #16
 1025              		.loc 1 410 0
 1026 0082 0346     		mov	r3, r0
ARM GAS  /tmp/ccuyDb88.s 			page 19


 1027              	.LVL87:
 1028              		.loc 1 411 0
 1029 0084 040A     		lsrs	r4, r0, #8
 1030              		.loc 1 414 0
 1031 0086 0622     		movs	r2, #6
 1032 0088 4AF4E060 		orr	r0, r10, #1792
 1033              	.LVL88:
 1034              		.loc 1 412 0
 1035 008c 8DF81530 		strb	r3, [sp, #21]
 1036              		.loc 1 411 0
 1037 0090 8DF81440 		strb	r4, [sp, #20]
 1038              	.LVL89:
 1039              		.loc 1 414 0
 1040 0094 FFF7FEFF 		bl	comm_can_transmit_eid_replace.constprop.2
 1041              	.LVL90:
 1042              	.LBE421:
 1043              	.LBE420:
 1044              	.LBE419:
 1045              		.loc 1 417 0
 1046 0098 07B0     		add	sp, sp, #28
 1047              		.cfi_remember_state
 1048              		.cfi_def_cfa_offset 36
 1049              		@ sp needed
 1050 009a BDE8F08F 		pop	{r4, r5, r6, r7, r8, r9, r10, fp, pc}
 1051              	.LVL91:
 1052              	.L88:
 1053              		.cfi_restore_state
 1054              	.LBB431:
 1055              		.loc 1 360 0
 1056 009e FFF7FEFF 		bl	app_get_configuration
 1057              	.LVL92:
 1058 00a2 0378     		ldrb	r3, [r0]	@ zero_extendqisi2
 1059 00a4 8DF81030 		strb	r3, [sp, #16]
 1060              	.LVL93:
 1061              		.loc 1 362 0
 1062 00a8 3146     		mov	r1, r6
 1063              		.loc 1 361 0
 1064 00aa 019B     		ldr	r3, [sp, #4]
 1065 00ac 8DF81130 		strb	r3, [sp, #17]
 1066              		.loc 1 362 0
 1067 00b0 2A46     		mov	r2, r5
 1068 00b2 0DF11200 		add	r0, sp, #18
 1069 00b6 FFF7FEFF 		bl	memcpy
 1070              	.LVL94:
 1071              		.loc 1 363 0
 1072 00ba AA1C     		adds	r2, r5, #2
 1073              	.LVL95:
 1074              		.loc 1 364 0
 1075 00bc D2B2     		uxtb	r2, r2
 1076              	.LVL96:
 1077 00be 4AF40060 		orr	r0, r10, #2048
 1078 00c2 04A9     		add	r1, sp, #16
 1079 00c4 FFF7FEFF 		bl	comm_can_transmit_eid_replace.constprop.2
 1080              	.LVL97:
 1081              	.LBE431:
 1082              		.loc 1 417 0
 1083 00c8 07B0     		add	sp, sp, #28
ARM GAS  /tmp/ccuyDb88.s 			page 20


 1084              		.cfi_remember_state
 1085              		.cfi_def_cfa_offset 36
 1086              		@ sp needed
 1087 00ca BDE8F08F 		pop	{r4, r5, r6, r7, r8, r9, r10, fp, pc}
 1088              	.LVL98:
 1089              	.L91:
 1090              		.cfi_restore_state
 1091              	.LBB432:
 1092              	.LBB430:
 1093              	.LBB429:
 1094              	.LBB425:
 1095              	.LBB426:
 1096              		.loc 1 398 0
 1097 00ce 029B     		ldr	r3, [sp, #8]
 1098 00d0 0396     		str	r6, [sp, #12]
 1099 00d2 9F1D     		adds	r7, r3, #6
 1100 00d4 0833     		adds	r3, r3, #8
 1101 00d6 4AF4C069 		orr	r9, r10, #1536
 1102 00da A6F10608 		sub	r8, r6, #6
 1103 00de 9B46     		mov	fp, r3
 1104 00e0 0CE0     		b	.L98
 1105              	.LVL99:
 1106              	.L102:
 1107              		.loc 1 395 0
 1108 00e2 0A68     		ldr	r2, [r1]	@ unaligned
 1109 00e4 8B88     		ldrh	r3, [r1, #4]	@ unaligned
 1110 00e6 CDF81220 		str	r2, [sp, #18]	@ unaligned
 1111              		.loc 1 401 0
 1112 00ea 04A9     		add	r1, sp, #16
 1113              		.loc 1 395 0
 1114 00ec 0822     		movs	r2, #8
 1115              		.loc 1 401 0
 1116 00ee 4846     		mov	r0, r9
 1117              		.loc 1 395 0
 1118 00f0 ADF81630 		strh	r3, [sp, #22]	@ unaligned
 1119              		.loc 1 401 0
 1120 00f4 FFF7FEFF 		bl	comm_can_transmit_eid_replace.constprop.2
 1121              	.LVL100:
 1122              	.LBE426:
 1123              		.loc 1 389 0
 1124 00f8 A542     		cmp	r5, r4
 1125 00fa 1AD9     		bls	.L101
 1126              	.LVL101:
 1127              	.L98:
 1128              	.LBB427:
 1129              		.loc 1 391 0
 1130 00fc 220A     		lsrs	r2, r4, #8
 1131              		.loc 1 392 0
 1132 00fe 8DF81140 		strb	r4, [sp, #17]
 1133              		.loc 1 394 0
 1134 0102 0634     		adds	r4, r4, #6
 1135              	.LVL102:
 1136 0104 E6B2     		uxtb	r6, r4
 1137              	.LVL103:
 1138 0106 A542     		cmp	r5, r4
 1139              		.loc 1 391 0
 1140 0108 8DF81020 		strb	r2, [sp, #16]
ARM GAS  /tmp/ccuyDb88.s 			page 21


 1141 010c 08EB0401 		add	r1, r8, r4
 1142              		.loc 1 398 0
 1143 0110 A7EB0602 		sub	r2, r7, r6
 1144              		.loc 1 394 0
 1145 0114 E5D2     		bcs	.L102
 1146              		.loc 1 398 0
 1147 0116 D2B2     		uxtb	r2, r2
 1148 0118 0DF11200 		add	r0, sp, #18
 1149 011c FFF7FEFF 		bl	memcpy
 1150              	.LVL104:
 1151 0120 ABEB0602 		sub	r2, fp, r6
 1152 0124 D2B2     		uxtb	r2, r2
 1153              		.loc 1 401 0
 1154 0126 04A9     		add	r1, sp, #16
 1155 0128 4846     		mov	r0, r9
 1156 012a FFF7FEFF 		bl	comm_can_transmit_eid_replace.constprop.2
 1157              	.LVL105:
 1158              	.LBE427:
 1159              		.loc 1 389 0
 1160 012e A542     		cmp	r5, r4
 1161 0130 E4D8     		bhi	.L98
 1162              	.L101:
 1163 0132 039E     		ldr	r6, [sp, #12]
 1164 0134 92E7     		b	.L95
 1165              	.LVL106:
 1166              	.L92:
 1167              	.LBE425:
 1168              	.LBB428:
 1169              	.LBB424:
 1170              		.loc 1 382 0
 1171 0136 029B     		ldr	r3, [sp, #8]
 1172 0138 C9F10702 		rsb	r2, r9, #7
 1173 013c 1A44     		add	r2, r2, r3
 1174 013e D2B2     		uxtb	r2, r2
 1175 0140 0DF11100 		add	r0, sp, #17
 1176 0144 FFF7FEFF 		bl	memcpy
 1177              	.LVL107:
 1178 0148 029B     		ldr	r3, [sp, #8]
 1179 014a C9F10802 		rsb	r2, r9, #8
 1180 014e 1A44     		add	r2, r2, r3
 1181 0150 D2B2     		uxtb	r2, r2
 1182 0152 7CE7     		b	.L93
 1183              	.LBE424:
 1184              	.LBE428:
 1185              	.LBE429:
 1186              	.LBE430:
 1187              	.LBE432:
 1188              		.cfi_endproc
 1189              	.LFE263:
 1190              		.size	comm_can_send_buffer, .-comm_can_send_buffer
 1191              		.section	.text.send_packet_wrapper,"ax",%progbits
 1192              		.align	1
 1193              		.p2align 4,,15
 1194              		.syntax unified
 1195              		.thumb
 1196              		.thumb_func
 1197              		.fpu fpv4-sp-d16
ARM GAS  /tmp/ccuyDb88.s 			page 22


 1198              		.type	send_packet_wrapper, %function
 1199              	send_packet_wrapper:
 1200              	.LFB316:
 1201              		.loc 1 1343 0
 1202              		.cfi_startproc
 1203              		@ args = 0, pretend = 0, frame = 0
 1204              		@ frame_needed = 0, uses_anonymous_args = 0
 1205              		@ link register save eliminated.
 1206              	.LVL108:
 1207 0000 10B4     		push	{r4}
 1208              		.cfi_def_cfa_offset 4
 1209              		.cfi_offset 4, -4
 1210              		.loc 1 1344 0
 1211 0002 044C     		ldr	r4, .L105
 1212 0004 0A46     		mov	r2, r1
 1213 0006 0123     		movs	r3, #1
 1214 0008 0146     		mov	r1, r0
 1215              	.LVL109:
 1216 000a 2078     		ldrb	r0, [r4]	@ zero_extendqisi2
 1217              	.LVL110:
 1218              		.loc 1 1345 0
 1219 000c 5DF8044B 		ldr	r4, [sp], #4
 1220              		.cfi_restore 4
 1221              		.cfi_def_cfa_offset 0
 1222              		.loc 1 1344 0
 1223 0010 FFF7FEBF 		b	comm_can_send_buffer
 1224              	.LVL111:
 1225              	.L106:
 1226              		.align	2
 1227              	.L105:
 1228 0014 00000000 		.word	.LANCHOR22
 1229              		.cfi_endproc
 1230              	.LFE316:
 1231              		.size	send_packet_wrapper, .-send_packet_wrapper
 1232              		.section	.text.comm_can_set_duty,"ax",%progbits
 1233              		.align	1
 1234              		.p2align 4,,15
 1235              		.global	comm_can_set_duty
 1236              		.syntax unified
 1237              		.thumb
 1238              		.thumb_func
 1239              		.fpu fpv4-sp-d16
 1240              		.type	comm_can_set_duty, %function
 1241              	comm_can_set_duty:
 1242              	.LFB264:
 1243              		.loc 1 419 0
 1244              		.cfi_startproc
 1245              		@ args = 0, pretend = 0, frame = 8
 1246              		@ frame_needed = 0, uses_anonymous_args = 0
 1247              	.LVL112:
 1248 0000 10B5     		push	{r4, lr}
 1249              		.cfi_def_cfa_offset 8
 1250              		.cfi_offset 4, -8
 1251              		.cfi_offset 14, -4
 1252              		.loc 1 422 0
 1253 0002 DFED0C7A 		vldr.32	s15, .L109
 1254 0006 20EE270A 		vmul.f32	s0, s0, s15
ARM GAS  /tmp/ccuyDb88.s 			page 23


 1255              	.LVL113:
 1256              		.loc 1 419 0
 1257 000a 82B0     		sub	sp, sp, #8
 1258              		.cfi_def_cfa_offset 16
 1259              		.loc 1 420 0
 1260 000c 02AA     		add	r2, sp, #8
 1261              		.loc 1 422 0
 1262 000e FDEEC07A 		vcvt.s32.f32	s15, s0
 1263              		.loc 1 420 0
 1264 0012 0023     		movs	r3, #0
 1265 0014 42F8083D 		str	r3, [r2, #-8]!
 1266              		.loc 1 422 0
 1267 0018 17EE901A 		vmov	r1, s15	@ int
 1268              		.loc 1 419 0
 1269 001c 0446     		mov	r4, r0
 1270              		.loc 1 422 0
 1271 001e 01A8     		add	r0, sp, #4
 1272              	.LVL114:
 1273 0020 FFF7FEFF 		bl	buffer_append_int32
 1274              	.LVL115:
 1275              		.loc 1 423 0
 1276 0024 01A9     		add	r1, sp, #4
 1277 0026 2046     		mov	r0, r4
 1278 0028 9DF80020 		ldrb	r2, [sp]	@ zero_extendqisi2
 1279 002c FFF7FEFF 		bl	comm_can_transmit_eid_replace.constprop.2
 1280              	.LVL116:
 1281              		.loc 1 425 0
 1282 0030 02B0     		add	sp, sp, #8
 1283              		.cfi_def_cfa_offset 8
 1284              		@ sp needed
 1285 0032 10BD     		pop	{r4, pc}
 1286              	.L110:
 1287              		.align	2
 1288              	.L109:
 1289 0034 0050C347 		.word	1203982336
 1290              		.cfi_endproc
 1291              	.LFE264:
 1292              		.size	comm_can_set_duty, .-comm_can_set_duty
 1293              		.section	.text.comm_can_set_current,"ax",%progbits
 1294              		.align	1
 1295              		.p2align 4,,15
 1296              		.global	comm_can_set_current
 1297              		.syntax unified
 1298              		.thumb
 1299              		.thumb_func
 1300              		.fpu fpv4-sp-d16
 1301              		.type	comm_can_set_current, %function
 1302              	comm_can_set_current:
 1303              	.LFB265:
 1304              		.loc 1 427 0
 1305              		.cfi_startproc
 1306              		@ args = 0, pretend = 0, frame = 8
 1307              		@ frame_needed = 0, uses_anonymous_args = 0
 1308              	.LVL117:
 1309 0000 10B5     		push	{r4, lr}
 1310              		.cfi_def_cfa_offset 8
 1311              		.cfi_offset 4, -8
ARM GAS  /tmp/ccuyDb88.s 			page 24


 1312              		.cfi_offset 14, -4
 1313              		.loc 1 430 0
 1314 0002 DFED0D7A 		vldr.32	s15, .L113
 1315 0006 20EE270A 		vmul.f32	s0, s0, s15
 1316              	.LVL118:
 1317              		.loc 1 427 0
 1318 000a 82B0     		sub	sp, sp, #8
 1319              		.cfi_def_cfa_offset 16
 1320              		.loc 1 428 0
 1321 000c 02AA     		add	r2, sp, #8
 1322              		.loc 1 430 0
 1323 000e FDEEC07A 		vcvt.s32.f32	s15, s0
 1324              		.loc 1 428 0
 1325 0012 0023     		movs	r3, #0
 1326 0014 42F8083D 		str	r3, [r2, #-8]!
 1327              		.loc 1 430 0
 1328 0018 17EE901A 		vmov	r1, s15	@ int
 1329              		.loc 1 427 0
 1330 001c 0446     		mov	r4, r0
 1331              		.loc 1 430 0
 1332 001e 01A8     		add	r0, sp, #4
 1333              	.LVL119:
 1334 0020 FFF7FEFF 		bl	buffer_append_int32
 1335              	.LVL120:
 1336              		.loc 1 431 0
 1337 0024 01A9     		add	r1, sp, #4
 1338 0026 44F48070 		orr	r0, r4, #256
 1339 002a 9DF80020 		ldrb	r2, [sp]	@ zero_extendqisi2
 1340 002e FFF7FEFF 		bl	comm_can_transmit_eid_replace.constprop.2
 1341              	.LVL121:
 1342              		.loc 1 433 0
 1343 0032 02B0     		add	sp, sp, #8
 1344              		.cfi_def_cfa_offset 8
 1345              		@ sp needed
 1346 0034 10BD     		pop	{r4, pc}
 1347              	.L114:
 1348 0036 00BF     		.align	2
 1349              	.L113:
 1350 0038 00007A44 		.word	1148846080
 1351              		.cfi_endproc
 1352              	.LFE265:
 1353              		.size	comm_can_set_current, .-comm_can_set_current
 1354              		.section	.text.comm_can_set_current_off_delay,"ax",%progbits
 1355              		.align	1
 1356              		.p2align 4,,15
 1357              		.global	comm_can_set_current_off_delay
 1358              		.syntax unified
 1359              		.thumb
 1360              		.thumb_func
 1361              		.fpu fpv4-sp-d16
 1362              		.type	comm_can_set_current_off_delay, %function
 1363              	comm_can_set_current_off_delay:
 1364              	.LFB266:
 1365              		.loc 1 435 0
 1366              		.cfi_startproc
 1367              		@ args = 0, pretend = 0, frame = 16
 1368              		@ frame_needed = 0, uses_anonymous_args = 0
ARM GAS  /tmp/ccuyDb88.s 			page 25


 1369              	.LVL122:
 1370 0000 30B5     		push	{r4, r5, lr}
 1371              		.cfi_def_cfa_offset 12
 1372              		.cfi_offset 4, -12
 1373              		.cfi_offset 5, -8
 1374              		.cfi_offset 14, -4
 1375 0002 2DED028B 		vpush.64	{d8}
 1376              		.cfi_def_cfa_offset 20
 1377              		.cfi_offset 80, -20
 1378              		.cfi_offset 81, -16
 1379              		.loc 1 438 0
 1380 0006 9FED138A 		vldr.32	s16, .L117
 1381              		.loc 1 435 0
 1382 000a 85B0     		sub	sp, sp, #20
 1383              		.cfi_def_cfa_offset 40
 1384              		.loc 1 436 0
 1385 000c 04AC     		add	r4, sp, #16
 1386              		.loc 1 438 0
 1387 000e 20EE080A 		vmul.f32	s0, s0, s16
 1388              	.LVL123:
 1389              		.loc 1 436 0
 1390 0012 0023     		movs	r3, #0
 1391 0014 44F80C3D 		str	r3, [r4, #-12]!
 1392              		.loc 1 438 0
 1393 0018 FDEEC07A 		vcvt.s32.f32	s15, s0
 1394              		.loc 1 435 0
 1395 001c F0EE608A 		vmov.f32	s17, s1
 1396              		.loc 1 438 0
 1397 0020 17EE901A 		vmov	r1, s15	@ int
 1398 0024 2246     		mov	r2, r4
 1399              		.loc 1 435 0
 1400 0026 0546     		mov	r5, r0
 1401              		.loc 1 438 0
 1402 0028 02A8     		add	r0, sp, #8
 1403              	.LVL124:
 1404 002a FFF7FEFF 		bl	buffer_append_int32
 1405              	.LVL125:
 1406              		.loc 1 439 0
 1407 002e 2146     		mov	r1, r4
 1408 0030 F0EE480A 		vmov.f32	s1, s16
 1409 0034 B0EE680A 		vmov.f32	s0, s17
 1410 0038 02A8     		add	r0, sp, #8
 1411 003a FFF7FEFF 		bl	buffer_append_float16
 1412              	.LVL126:
 1413              		.loc 1 440 0
 1414 003e 02A9     		add	r1, sp, #8
 1415 0040 45F48070 		orr	r0, r5, #256
 1416 0044 9DF80420 		ldrb	r2, [sp, #4]	@ zero_extendqisi2
 1417 0048 FFF7FEFF 		bl	comm_can_transmit_eid_replace.constprop.2
 1418              	.LVL127:
 1419              		.loc 1 442 0
 1420 004c 05B0     		add	sp, sp, #20
 1421              		.cfi_def_cfa_offset 20
 1422              		@ sp needed
 1423 004e BDEC028B 		vldm	sp!, {d8}
 1424              		.cfi_restore 80
 1425              		.cfi_restore 81
ARM GAS  /tmp/ccuyDb88.s 			page 26


 1426              		.cfi_def_cfa_offset 12
 1427 0052 30BD     		pop	{r4, r5, pc}
 1428              	.L118:
 1429              		.align	2
 1430              	.L117:
 1431 0054 00007A44 		.word	1148846080
 1432              		.cfi_endproc
 1433              	.LFE266:
 1434              		.size	comm_can_set_current_off_delay, .-comm_can_set_current_off_delay
 1435              		.section	.text.comm_can_set_current_brake,"ax",%progbits
 1436              		.align	1
 1437              		.p2align 4,,15
 1438              		.global	comm_can_set_current_brake
 1439              		.syntax unified
 1440              		.thumb
 1441              		.thumb_func
 1442              		.fpu fpv4-sp-d16
 1443              		.type	comm_can_set_current_brake, %function
 1444              	comm_can_set_current_brake:
 1445              	.LFB267:
 1446              		.loc 1 444 0
 1447              		.cfi_startproc
 1448              		@ args = 0, pretend = 0, frame = 8
 1449              		@ frame_needed = 0, uses_anonymous_args = 0
 1450              	.LVL128:
 1451 0000 10B5     		push	{r4, lr}
 1452              		.cfi_def_cfa_offset 8
 1453              		.cfi_offset 4, -8
 1454              		.cfi_offset 14, -4
 1455              		.loc 1 447 0
 1456 0002 DFED0D7A 		vldr.32	s15, .L121
 1457 0006 20EE270A 		vmul.f32	s0, s0, s15
 1458              	.LVL129:
 1459              		.loc 1 444 0
 1460 000a 82B0     		sub	sp, sp, #8
 1461              		.cfi_def_cfa_offset 16
 1462              		.loc 1 445 0
 1463 000c 02AA     		add	r2, sp, #8
 1464              		.loc 1 447 0
 1465 000e FDEEC07A 		vcvt.s32.f32	s15, s0
 1466              		.loc 1 445 0
 1467 0012 0023     		movs	r3, #0
 1468 0014 42F8083D 		str	r3, [r2, #-8]!
 1469              		.loc 1 447 0
 1470 0018 17EE901A 		vmov	r1, s15	@ int
 1471              		.loc 1 444 0
 1472 001c 0446     		mov	r4, r0
 1473              		.loc 1 447 0
 1474 001e 01A8     		add	r0, sp, #4
 1475              	.LVL130:
 1476 0020 FFF7FEFF 		bl	buffer_append_int32
 1477              	.LVL131:
 1478              		.loc 1 448 0
 1479 0024 01A9     		add	r1, sp, #4
 1480 0026 44F40070 		orr	r0, r4, #512
 1481 002a 9DF80020 		ldrb	r2, [sp]	@ zero_extendqisi2
 1482 002e FFF7FEFF 		bl	comm_can_transmit_eid_replace.constprop.2
ARM GAS  /tmp/ccuyDb88.s 			page 27


 1483              	.LVL132:
 1484              		.loc 1 450 0
 1485 0032 02B0     		add	sp, sp, #8
 1486              		.cfi_def_cfa_offset 8
 1487              		@ sp needed
 1488 0034 10BD     		pop	{r4, pc}
 1489              	.L122:
 1490 0036 00BF     		.align	2
 1491              	.L121:
 1492 0038 00007A44 		.word	1148846080
 1493              		.cfi_endproc
 1494              	.LFE267:
 1495              		.size	comm_can_set_current_brake, .-comm_can_set_current_brake
 1496              		.section	.text.comm_can_set_rpm,"ax",%progbits
 1497              		.align	1
 1498              		.p2align 4,,15
 1499              		.global	comm_can_set_rpm
 1500              		.syntax unified
 1501              		.thumb
 1502              		.thumb_func
 1503              		.fpu fpv4-sp-d16
 1504              		.type	comm_can_set_rpm, %function
 1505              	comm_can_set_rpm:
 1506              	.LFB268:
 1507              		.loc 1 452 0
 1508              		.cfi_startproc
 1509              		@ args = 0, pretend = 0, frame = 8
 1510              		@ frame_needed = 0, uses_anonymous_args = 0
 1511              	.LVL133:
 1512 0000 10B5     		push	{r4, lr}
 1513              		.cfi_def_cfa_offset 8
 1514              		.cfi_offset 4, -8
 1515              		.cfi_offset 14, -4
 1516 0002 82B0     		sub	sp, sp, #8
 1517              		.cfi_def_cfa_offset 16
 1518              		.loc 1 453 0
 1519 0004 02AA     		add	r2, sp, #8
 1520              		.loc 1 455 0
 1521 0006 FDEEC07A 		vcvt.s32.f32	s15, s0
 1522              		.loc 1 453 0
 1523 000a 0023     		movs	r3, #0
 1524 000c 42F8083D 		str	r3, [r2, #-8]!
 1525              		.loc 1 455 0
 1526 0010 17EE901A 		vmov	r1, s15	@ int
 1527              		.loc 1 452 0
 1528 0014 0446     		mov	r4, r0
 1529              		.loc 1 455 0
 1530 0016 01A8     		add	r0, sp, #4
 1531              	.LVL134:
 1532 0018 FFF7FEFF 		bl	buffer_append_int32
 1533              	.LVL135:
 1534              		.loc 1 456 0
 1535 001c 01A9     		add	r1, sp, #4
 1536 001e 44F44070 		orr	r0, r4, #768
 1537 0022 9DF80020 		ldrb	r2, [sp]	@ zero_extendqisi2
 1538 0026 FFF7FEFF 		bl	comm_can_transmit_eid_replace.constprop.2
 1539              	.LVL136:
ARM GAS  /tmp/ccuyDb88.s 			page 28


 1540              		.loc 1 458 0
 1541 002a 02B0     		add	sp, sp, #8
 1542              		.cfi_def_cfa_offset 8
 1543              		@ sp needed
 1544 002c 10BD     		pop	{r4, pc}
 1545              		.cfi_endproc
 1546              	.LFE268:
 1547              		.size	comm_can_set_rpm, .-comm_can_set_rpm
 1548 002e 00BF     		.section	.text.comm_can_set_pos,"ax",%progbits
 1549              		.align	1
 1550              		.p2align 4,,15
 1551              		.global	comm_can_set_pos
 1552              		.syntax unified
 1553              		.thumb
 1554              		.thumb_func
 1555              		.fpu fpv4-sp-d16
 1556              		.type	comm_can_set_pos, %function
 1557              	comm_can_set_pos:
 1558              	.LFB269:
 1559              		.loc 1 460 0
 1560              		.cfi_startproc
 1561              		@ args = 0, pretend = 0, frame = 8
 1562              		@ frame_needed = 0, uses_anonymous_args = 0
 1563              	.LVL137:
 1564 0000 10B5     		push	{r4, lr}
 1565              		.cfi_def_cfa_offset 8
 1566              		.cfi_offset 4, -8
 1567              		.cfi_offset 14, -4
 1568              		.loc 1 463 0
 1569 0002 DFED0D7A 		vldr.32	s15, .L127
 1570 0006 20EE270A 		vmul.f32	s0, s0, s15
 1571              	.LVL138:
 1572              		.loc 1 460 0
 1573 000a 82B0     		sub	sp, sp, #8
 1574              		.cfi_def_cfa_offset 16
 1575              		.loc 1 461 0
 1576 000c 02AA     		add	r2, sp, #8
 1577              		.loc 1 463 0
 1578 000e FDEEC07A 		vcvt.s32.f32	s15, s0
 1579              		.loc 1 461 0
 1580 0012 0023     		movs	r3, #0
 1581 0014 42F8083D 		str	r3, [r2, #-8]!
 1582              		.loc 1 463 0
 1583 0018 17EE901A 		vmov	r1, s15	@ int
 1584              		.loc 1 460 0
 1585 001c 0446     		mov	r4, r0
 1586              		.loc 1 463 0
 1587 001e 01A8     		add	r0, sp, #4
 1588              	.LVL139:
 1589 0020 FFF7FEFF 		bl	buffer_append_int32
 1590              	.LVL140:
 1591              		.loc 1 464 0
 1592 0024 01A9     		add	r1, sp, #4
 1593 0026 44F48060 		orr	r0, r4, #1024
 1594 002a 9DF80020 		ldrb	r2, [sp]	@ zero_extendqisi2
 1595 002e FFF7FEFF 		bl	comm_can_transmit_eid_replace.constprop.2
 1596              	.LVL141:
ARM GAS  /tmp/ccuyDb88.s 			page 29


 1597              		.loc 1 466 0
 1598 0032 02B0     		add	sp, sp, #8
 1599              		.cfi_def_cfa_offset 8
 1600              		@ sp needed
 1601 0034 10BD     		pop	{r4, pc}
 1602              	.L128:
 1603 0036 00BF     		.align	2
 1604              	.L127:
 1605 0038 00247449 		.word	1232348160
 1606              		.cfi_endproc
 1607              	.LFE269:
 1608              		.size	comm_can_set_pos, .-comm_can_set_pos
 1609              		.section	.text.comm_can_set_current_rel,"ax",%progbits
 1610              		.align	1
 1611              		.p2align 4,,15
 1612              		.global	comm_can_set_current_rel
 1613              		.syntax unified
 1614              		.thumb
 1615              		.thumb_func
 1616              		.fpu fpv4-sp-d16
 1617              		.type	comm_can_set_current_rel, %function
 1618              	comm_can_set_current_rel:
 1619              	.LFB270:
 1620              		.loc 1 477 0
 1621              		.cfi_startproc
 1622              		@ args = 0, pretend = 0, frame = 8
 1623              		@ frame_needed = 0, uses_anonymous_args = 0
 1624              	.LVL142:
 1625 0000 10B5     		push	{r4, lr}
 1626              		.cfi_def_cfa_offset 8
 1627              		.cfi_offset 4, -8
 1628              		.cfi_offset 14, -4
 1629 0002 82B0     		sub	sp, sp, #8
 1630              		.cfi_def_cfa_offset 16
 1631              		.loc 1 478 0
 1632 0004 02A9     		add	r1, sp, #8
 1633 0006 0023     		movs	r3, #0
 1634 0008 41F8083D 		str	r3, [r1, #-8]!
 1635              		.loc 1 477 0
 1636 000c 0446     		mov	r4, r0
 1637              		.loc 1 480 0
 1638 000e DFED070A 		vldr.32	s1, .L131
 1639 0012 01A8     		add	r0, sp, #4
 1640              	.LVL143:
 1641 0014 FFF7FEFF 		bl	buffer_append_float32
 1642              	.LVL144:
 1643              		.loc 1 481 0
 1644 0018 01A9     		add	r1, sp, #4
 1645 001a 44F42060 		orr	r0, r4, #2560
 1646 001e 9DF80020 		ldrb	r2, [sp]	@ zero_extendqisi2
 1647 0022 FFF7FEFF 		bl	comm_can_transmit_eid_replace.constprop.2
 1648              	.LVL145:
 1649              		.loc 1 483 0
 1650 0026 02B0     		add	sp, sp, #8
 1651              		.cfi_def_cfa_offset 8
 1652              		@ sp needed
 1653 0028 10BD     		pop	{r4, pc}
ARM GAS  /tmp/ccuyDb88.s 			page 30


 1654              	.L132:
 1655 002a 00BF     		.align	2
 1656              	.L131:
 1657 002c 0050C347 		.word	1203982336
 1658              		.cfi_endproc
 1659              	.LFE270:
 1660              		.size	comm_can_set_current_rel, .-comm_can_set_current_rel
 1661              		.section	.text.comm_can_set_current_rel_off_delay,"ax",%progbits
 1662              		.align	1
 1663              		.p2align 4,,15
 1664              		.global	comm_can_set_current_rel_off_delay
 1665              		.syntax unified
 1666              		.thumb
 1667              		.thumb_func
 1668              		.fpu fpv4-sp-d16
 1669              		.type	comm_can_set_current_rel_off_delay, %function
 1670              	comm_can_set_current_rel_off_delay:
 1671              	.LFB271:
 1672              		.loc 1 488 0
 1673              		.cfi_startproc
 1674              		@ args = 0, pretend = 0, frame = 8
 1675              		@ frame_needed = 0, uses_anonymous_args = 0
 1676              	.LVL146:
 1677 0000 30B5     		push	{r4, r5, lr}
 1678              		.cfi_def_cfa_offset 12
 1679              		.cfi_offset 4, -12
 1680              		.cfi_offset 5, -8
 1681              		.cfi_offset 14, -4
 1682 0002 2DED028B 		vpush.64	{d8}
 1683              		.cfi_def_cfa_offset 20
 1684              		.cfi_offset 80, -20
 1685              		.cfi_offset 81, -16
 1686 0006 83B0     		sub	sp, sp, #12
 1687              		.cfi_def_cfa_offset 32
 1688              		.loc 1 489 0
 1689 0008 02AC     		add	r4, sp, #8
 1690 000a 0023     		movs	r3, #0
 1691 000c 44F8083D 		str	r3, [r4, #-8]!
 1692              		.loc 1 488 0
 1693 0010 B0EE608A 		vmov.f32	s16, s1
 1694 0014 0546     		mov	r5, r0
 1695              		.loc 1 491 0
 1696 0016 2146     		mov	r1, r4
 1697 0018 01A8     		add	r0, sp, #4
 1698              	.LVL147:
 1699 001a DFED0B0A 		vldr.32	s1, .L135
 1700              	.LVL148:
 1701 001e FFF7FEFF 		bl	buffer_append_float32
 1702              	.LVL149:
 1703              		.loc 1 492 0
 1704 0022 2146     		mov	r1, r4
 1705 0024 B0EE480A 		vmov.f32	s0, s16
 1706 0028 01A8     		add	r0, sp, #4
 1707 002a DFED080A 		vldr.32	s1, .L135+4
 1708 002e FFF7FEFF 		bl	buffer_append_float16
 1709              	.LVL150:
 1710              		.loc 1 493 0
ARM GAS  /tmp/ccuyDb88.s 			page 31


 1711 0032 01A9     		add	r1, sp, #4
 1712 0034 45F42060 		orr	r0, r5, #2560
 1713 0038 9DF80020 		ldrb	r2, [sp]	@ zero_extendqisi2
 1714 003c FFF7FEFF 		bl	comm_can_transmit_eid_replace.constprop.2
 1715              	.LVL151:
 1716              		.loc 1 495 0
 1717 0040 03B0     		add	sp, sp, #12
 1718              		.cfi_def_cfa_offset 20
 1719              		@ sp needed
 1720 0042 BDEC028B 		vldm	sp!, {d8}
 1721              		.cfi_restore 80
 1722              		.cfi_restore 81
 1723              		.cfi_def_cfa_offset 12
 1724              	.LVL152:
 1725 0046 30BD     		pop	{r4, r5, pc}
 1726              	.L136:
 1727              		.align	2
 1728              	.L135:
 1729 0048 0050C347 		.word	1203982336
 1730 004c 00007A44 		.word	1148846080
 1731              		.cfi_endproc
 1732              	.LFE271:
 1733              		.size	comm_can_set_current_rel_off_delay, .-comm_can_set_current_rel_off_delay
 1734              		.section	.text.comm_can_set_current_brake_rel,"ax",%progbits
 1735              		.align	1
 1736              		.p2align 4,,15
 1737              		.global	comm_can_set_current_brake_rel
 1738              		.syntax unified
 1739              		.thumb
 1740              		.thumb_func
 1741              		.fpu fpv4-sp-d16
 1742              		.type	comm_can_set_current_brake_rel, %function
 1743              	comm_can_set_current_brake_rel:
 1744              	.LFB272:
 1745              		.loc 1 506 0
 1746              		.cfi_startproc
 1747              		@ args = 0, pretend = 0, frame = 8
 1748              		@ frame_needed = 0, uses_anonymous_args = 0
 1749              	.LVL153:
 1750 0000 10B5     		push	{r4, lr}
 1751              		.cfi_def_cfa_offset 8
 1752              		.cfi_offset 4, -8
 1753              		.cfi_offset 14, -4
 1754 0002 82B0     		sub	sp, sp, #8
 1755              		.cfi_def_cfa_offset 16
 1756              		.loc 1 507 0
 1757 0004 02A9     		add	r1, sp, #8
 1758 0006 0023     		movs	r3, #0
 1759 0008 41F8083D 		str	r3, [r1, #-8]!
 1760              		.loc 1 506 0
 1761 000c 0446     		mov	r4, r0
 1762              		.loc 1 509 0
 1763 000e DFED070A 		vldr.32	s1, .L139
 1764 0012 01A8     		add	r0, sp, #4
 1765              	.LVL154:
 1766 0014 FFF7FEFF 		bl	buffer_append_float32
 1767              	.LVL155:
ARM GAS  /tmp/ccuyDb88.s 			page 32


 1768              		.loc 1 510 0
 1769 0018 01A9     		add	r1, sp, #4
 1770 001a 44F43060 		orr	r0, r4, #2816
 1771 001e 9DF80020 		ldrb	r2, [sp]	@ zero_extendqisi2
 1772 0022 FFF7FEFF 		bl	comm_can_transmit_eid_replace.constprop.2
 1773              	.LVL156:
 1774              		.loc 1 512 0
 1775 0026 02B0     		add	sp, sp, #8
 1776              		.cfi_def_cfa_offset 8
 1777              		@ sp needed
 1778 0028 10BD     		pop	{r4, pc}
 1779              	.L140:
 1780 002a 00BF     		.align	2
 1781              	.L139:
 1782 002c 0050C347 		.word	1203982336
 1783              		.cfi_endproc
 1784              	.LFE272:
 1785              		.size	comm_can_set_current_brake_rel, .-comm_can_set_current_brake_rel
 1786              		.section	.text.comm_can_set_handbrake,"ax",%progbits
 1787              		.align	1
 1788              		.p2align 4,,15
 1789              		.global	comm_can_set_handbrake
 1790              		.syntax unified
 1791              		.thumb
 1792              		.thumb_func
 1793              		.fpu fpv4-sp-d16
 1794              		.type	comm_can_set_handbrake, %function
 1795              	comm_can_set_handbrake:
 1796              	.LFB273:
 1797              		.loc 1 523 0
 1798              		.cfi_startproc
 1799              		@ args = 0, pretend = 0, frame = 8
 1800              		@ frame_needed = 0, uses_anonymous_args = 0
 1801              	.LVL157:
 1802 0000 10B5     		push	{r4, lr}
 1803              		.cfi_def_cfa_offset 8
 1804              		.cfi_offset 4, -8
 1805              		.cfi_offset 14, -4
 1806 0002 82B0     		sub	sp, sp, #8
 1807              		.cfi_def_cfa_offset 16
 1808              		.loc 1 524 0
 1809 0004 02A9     		add	r1, sp, #8
 1810 0006 0023     		movs	r3, #0
 1811 0008 41F8083D 		str	r3, [r1, #-8]!
 1812              		.loc 1 523 0
 1813 000c 0446     		mov	r4, r0
 1814              		.loc 1 526 0
 1815 000e DFED070A 		vldr.32	s1, .L143
 1816 0012 01A8     		add	r0, sp, #4
 1817              	.LVL158:
 1818 0014 FFF7FEFF 		bl	buffer_append_float32
 1819              	.LVL159:
 1820              		.loc 1 527 0
 1821 0018 01A9     		add	r1, sp, #4
 1822 001a 44F44060 		orr	r0, r4, #3072
 1823 001e 9DF80020 		ldrb	r2, [sp]	@ zero_extendqisi2
 1824 0022 FFF7FEFF 		bl	comm_can_transmit_eid_replace.constprop.2
ARM GAS  /tmp/ccuyDb88.s 			page 33


 1825              	.LVL160:
 1826              		.loc 1 529 0
 1827 0026 02B0     		add	sp, sp, #8
 1828              		.cfi_def_cfa_offset 8
 1829              		@ sp needed
 1830 0028 10BD     		pop	{r4, pc}
 1831              	.L144:
 1832 002a 00BF     		.align	2
 1833              	.L143:
 1834 002c 00007A44 		.word	1148846080
 1835              		.cfi_endproc
 1836              	.LFE273:
 1837              		.size	comm_can_set_handbrake, .-comm_can_set_handbrake
 1838              		.section	.text.comm_can_set_handbrake_rel,"ax",%progbits
 1839              		.align	1
 1840              		.p2align 4,,15
 1841              		.global	comm_can_set_handbrake_rel
 1842              		.syntax unified
 1843              		.thumb
 1844              		.thumb_func
 1845              		.fpu fpv4-sp-d16
 1846              		.type	comm_can_set_handbrake_rel, %function
 1847              	comm_can_set_handbrake_rel:
 1848              	.LFB274:
 1849              		.loc 1 540 0
 1850              		.cfi_startproc
 1851              		@ args = 0, pretend = 0, frame = 8
 1852              		@ frame_needed = 0, uses_anonymous_args = 0
 1853              	.LVL161:
 1854 0000 10B5     		push	{r4, lr}
 1855              		.cfi_def_cfa_offset 8
 1856              		.cfi_offset 4, -8
 1857              		.cfi_offset 14, -4
 1858 0002 82B0     		sub	sp, sp, #8
 1859              		.cfi_def_cfa_offset 16
 1860              		.loc 1 541 0
 1861 0004 02A9     		add	r1, sp, #8
 1862 0006 0023     		movs	r3, #0
 1863 0008 41F8083D 		str	r3, [r1, #-8]!
 1864              		.loc 1 540 0
 1865 000c 0446     		mov	r4, r0
 1866              		.loc 1 543 0
 1867 000e DFED070A 		vldr.32	s1, .L147
 1868 0012 01A8     		add	r0, sp, #4
 1869              	.LVL162:
 1870 0014 FFF7FEFF 		bl	buffer_append_float32
 1871              	.LVL163:
 1872              		.loc 1 544 0
 1873 0018 01A9     		add	r1, sp, #4
 1874 001a 44F45060 		orr	r0, r4, #3328
 1875 001e 9DF80020 		ldrb	r2, [sp]	@ zero_extendqisi2
 1876 0022 FFF7FEFF 		bl	comm_can_transmit_eid_replace.constprop.2
 1877              	.LVL164:
 1878              		.loc 1 546 0
 1879 0026 02B0     		add	sp, sp, #8
 1880              		.cfi_def_cfa_offset 8
 1881              		@ sp needed
ARM GAS  /tmp/ccuyDb88.s 			page 34


 1882 0028 10BD     		pop	{r4, pc}
 1883              	.L148:
 1884 002a 00BF     		.align	2
 1885              	.L147:
 1886 002c 0050C347 		.word	1203982336
 1887              		.cfi_endproc
 1888              	.LFE274:
 1889              		.size	comm_can_set_handbrake_rel, .-comm_can_set_handbrake_rel
 1890              		.section	.text.comm_can_ping,"ax",%progbits
 1891              		.align	1
 1892              		.p2align 4,,15
 1893              		.global	comm_can_ping
 1894              		.syntax unified
 1895              		.thumb
 1896              		.thumb_func
 1897              		.fpu fpv4-sp-d16
 1898              		.type	comm_can_ping, %function
 1899              	comm_can_ping:
 1900              	.LFB275:
 1901              		.loc 1 560 0
 1902              		.cfi_startproc
 1903              		@ args = 0, pretend = 0, frame = 8
 1904              		@ frame_needed = 0, uses_anonymous_args = 0
 1905              	.LVL165:
 1906 0000 F0B5     		push	{r4, r5, r6, r7, lr}
 1907              		.cfi_def_cfa_offset 20
 1908              		.cfi_offset 4, -20
 1909              		.cfi_offset 5, -16
 1910              		.cfi_offset 6, -12
 1911              		.cfi_offset 7, -8
 1912              		.cfi_offset 14, -4
 1913 0002 83B0     		sub	sp, sp, #12
 1914              		.cfi_def_cfa_offset 32
 1915              		.loc 1 560 0
 1916 0004 0546     		mov	r5, r0
 1917 0006 0E46     		mov	r6, r1
 1918              		.loc 1 562 0
 1919 0008 FFF7FEFF 		bl	app_get_configuration
 1920              	.LVL166:
 1921 000c 847E     		ldrb	r4, [r0, #26]	@ zero_extendqisi2
 1922 000e 14B1     		cbz	r4, .L160
 1923              		.loc 1 563 0
 1924 0010 0020     		movs	r0, #0
 1925              		.loc 1 597 0
 1926 0012 03B0     		add	sp, sp, #12
 1927              		.cfi_remember_state
 1928              		.cfi_def_cfa_offset 20
 1929              		@ sp needed
 1930 0014 F0BD     		pop	{r4, r5, r6, r7, pc}
 1931              	.LVL167:
 1932              	.L160:
 1933              		.cfi_restore_state
 1934              	.LBB433:
 1935              	.LBB434:
 1936              		.loc 4 176 0
 1937 0016 124B     		ldr	r3, .L161
 1938              	.LBE434:
ARM GAS  /tmp/ccuyDb88.s 			page 35


 1939              	.LBE433:
 1940              		.loc 1 572 0
 1941 0018 124F     		ldr	r7, .L161+4
 1942 001a 9B69     		ldr	r3, [r3, #24]
 1943 001c 3B60     		str	r3, [r7]
 1944              		.loc 1 573 0
 1945 001e 4FF0FF30 		mov	r0, #-1
 1946 0022 FFF7FEFF 		bl	chEvtGetAndClearEvents
 1947              	.LVL168:
 1948              		.loc 1 575 0
 1949 0026 104B     		ldr	r3, .L161+8
 1950 0028 1D60     		str	r5, [r3]
 1951              		.loc 1 578 0
 1952 002a FFF7FEFF 		bl	app_get_configuration
 1953              	.LVL169:
 1954 002e 02A9     		add	r1, sp, #8
 1955 0030 0378     		ldrb	r3, [r0]	@ zero_extendqisi2
 1956 0032 01F8043D 		strb	r3, [r1, #-4]!
 1957              		.loc 1 579 0
 1958 0036 45F48850 		orr	r0, r5, #4352
 1959 003a 0122     		movs	r2, #1
 1960 003c FFF7FEFF 		bl	comm_can_transmit_eid_replace.constprop.2
 1961              	.LVL170:
 1962              		.loc 1 582 0
 1963 0040 6421     		movs	r1, #100
 1964 0042 4FF00050 		mov	r0, #536870912
 1965 0046 FFF7FEFF 		bl	chEvtWaitAnyTimeout
 1966              	.LVL171:
 1967              		.loc 1 583 0
 1968 004a 3C60     		str	r4, [r7]
 1969              		.loc 1 585 0
 1970 004c 18B1     		cbz	r0, .L151
 1971              		.loc 1 586 0
 1972 004e 16B1     		cbz	r6, .L151
 1973              		.loc 1 587 0
 1974 0050 064B     		ldr	r3, .L161+12
 1975 0052 1B78     		ldrb	r3, [r3]	@ zero_extendqisi2
 1976 0054 3370     		strb	r3, [r6]
 1977              	.L151:
 1978              		.loc 1 591 0
 1979 0056 0030     		adds	r0, r0, #0
 1980 0058 18BF     		it	ne
 1981 005a 0120     		movne	r0, #1
 1982              	.LVL172:
 1983              		.loc 1 597 0
 1984 005c 03B0     		add	sp, sp, #12
 1985              		.cfi_def_cfa_offset 20
 1986              		@ sp needed
 1987 005e F0BD     		pop	{r4, r5, r6, r7, pc}
 1988              	.LVL173:
 1989              	.L162:
 1990              		.align	2
 1991              	.L161:
 1992 0060 00000000 		.word	ch
 1993 0064 00000000 		.word	.LANCHOR23
 1994 0068 00000000 		.word	.LANCHOR24
 1995 006c 00000000 		.word	.LANCHOR25
ARM GAS  /tmp/ccuyDb88.s 			page 36


 1996              		.cfi_endproc
 1997              	.LFE275:
 1998              		.size	comm_can_ping, .-comm_can_ping
 1999              		.section	.text.comm_can_detect_apply_all_foc,"ax",%progbits
 2000              		.align	1
 2001              		.p2align 4,,15
 2002              		.global	comm_can_detect_apply_all_foc
 2003              		.syntax unified
 2004              		.thumb
 2005              		.thumb_func
 2006              		.fpu fpv4-sp-d16
 2007              		.type	comm_can_detect_apply_all_foc, %function
 2008              	comm_can_detect_apply_all_foc:
 2009              	.LFB276:
 2010              		.loc 1 611 0
 2011              		.cfi_startproc
 2012              		@ args = 0, pretend = 0, frame = 16
 2013              		@ frame_needed = 0, uses_anonymous_args = 0
 2014              	.LVL174:
 2015 0000 30B5     		push	{r4, r5, lr}
 2016              		.cfi_def_cfa_offset 12
 2017              		.cfi_offset 4, -12
 2018              		.cfi_offset 5, -8
 2019              		.cfi_offset 14, -4
 2020 0002 2DED028B 		vpush.64	{d8}
 2021              		.cfi_def_cfa_offset 20
 2022              		.cfi_offset 80, -20
 2023              		.cfi_offset 81, -16
 2024 0006 85B0     		sub	sp, sp, #20
 2025              		.cfi_def_cfa_offset 40
 2026              		.loc 1 612 0
 2027 0008 0023     		movs	r3, #0
 2028              		.loc 1 611 0
 2029 000a 0D46     		mov	r5, r1
 2030 000c 0446     		mov	r4, r0
 2031 000e B0EE408A 		vmov.f32	s16, s0
 2032              		.loc 1 612 0
 2033 0012 0193     		str	r3, [sp, #4]
 2034              		.loc 1 614 0
 2035 0014 FFF7FEFF 		bl	app_get_configuration
 2036              	.LVL175:
 2037 0018 019B     		ldr	r3, [sp, #4]
 2038 001a 0278     		ldrb	r2, [r0]	@ zero_extendqisi2
 2039              		.loc 1 616 0
 2040 001c DFED0D0A 		vldr.32	s1, .L165
 2041              		.loc 1 615 0
 2042 0020 04A9     		add	r1, sp, #16
 2043 0022 981C     		adds	r0, r3, #2
 2044 0024 41F80C0D 		str	r0, [r1, #-12]!
 2045              		.loc 1 614 0
 2046 0028 04A8     		add	r0, sp, #16
 2047 002a 0344     		add	r3, r3, r0
 2048              		.loc 1 616 0
 2049 002c B0EE480A 		vmov.f32	s0, s16
 2050 0030 02A8     		add	r0, sp, #8
 2051              		.loc 1 614 0
 2052 0032 03F8082C 		strb	r2, [r3, #-8]
ARM GAS  /tmp/ccuyDb88.s 			page 37


 2053              		.loc 1 615 0
 2054 0036 03F8075C 		strb	r5, [r3, #-7]
 2055              		.loc 1 616 0
 2056 003a FFF7FEFF 		bl	buffer_append_float32
 2057              	.LVL176:
 2058              		.loc 1 617 0
 2059 003e 02A9     		add	r1, sp, #8
 2060 0040 44F49850 		orr	r0, r4, #4864
 2061 0044 9DF80420 		ldrb	r2, [sp, #4]	@ zero_extendqisi2
 2062 0048 FFF7FEFF 		bl	comm_can_transmit_eid_replace.constprop.2
 2063              	.LVL177:
 2064              		.loc 1 619 0
 2065 004c 05B0     		add	sp, sp, #20
 2066              		.cfi_def_cfa_offset 20
 2067              		@ sp needed
 2068 004e BDEC028B 		vldm	sp!, {d8}
 2069              		.cfi_restore 80
 2070              		.cfi_restore 81
 2071              		.cfi_def_cfa_offset 12
 2072              	.LVL178:
 2073 0052 30BD     		pop	{r4, r5, pc}
 2074              	.L166:
 2075              		.align	2
 2076              	.L165:
 2077 0054 00007A44 		.word	1148846080
 2078              		.cfi_endproc
 2079              	.LFE276:
 2080              		.size	comm_can_detect_apply_all_foc, .-comm_can_detect_apply_all_foc
 2081              		.section	.text.comm_can_conf_current_limits,"ax",%progbits
 2082              		.align	1
 2083              		.p2align 4,,15
 2084              		.global	comm_can_conf_current_limits
 2085              		.syntax unified
 2086              		.thumb
 2087              		.thumb_func
 2088              		.fpu fpv4-sp-d16
 2089              		.type	comm_can_conf_current_limits, %function
 2090              	comm_can_conf_current_limits:
 2091              	.LFB277:
 2092              		.loc 1 637 0
 2093              		.cfi_startproc
 2094              		@ args = 0, pretend = 0, frame = 16
 2095              		@ frame_needed = 0, uses_anonymous_args = 0
 2096              	.LVL179:
 2097 0000 70B5     		push	{r4, r5, r6, lr}
 2098              		.cfi_def_cfa_offset 16
 2099              		.cfi_offset 4, -16
 2100              		.cfi_offset 5, -12
 2101              		.cfi_offset 6, -8
 2102              		.cfi_offset 14, -4
 2103 0002 2DED028B 		vpush.64	{d8}
 2104              		.cfi_def_cfa_offset 24
 2105              		.cfi_offset 80, -24
 2106              		.cfi_offset 81, -20
 2107 0006 84B0     		sub	sp, sp, #16
 2108              		.cfi_def_cfa_offset 40
 2109              		.loc 1 638 0
ARM GAS  /tmp/ccuyDb88.s 			page 38


 2110 0008 04AC     		add	r4, sp, #16
 2111 000a 0023     		movs	r3, #0
 2112 000c 44F80C3D 		str	r3, [r4, #-12]!
 2113              		.loc 1 637 0
 2114 0010 B0EE608A 		vmov.f32	s16, s1
 2115 0014 0546     		mov	r5, r0
 2116 0016 0E46     		mov	r6, r1
 2117              		.loc 1 640 0
 2118 0018 02A8     		add	r0, sp, #8
 2119              	.LVL180:
 2120 001a 2146     		mov	r1, r4
 2121              	.LVL181:
 2122 001c DFED0D0A 		vldr.32	s1, .L171
 2123              	.LVL182:
 2124 0020 FFF7FEFF 		bl	buffer_append_float32
 2125              	.LVL183:
 2126              		.loc 1 641 0
 2127 0024 02A8     		add	r0, sp, #8
 2128 0026 2146     		mov	r1, r4
 2129 0028 B0EE480A 		vmov.f32	s0, s16
 2130 002c DFED090A 		vldr.32	s1, .L171
 2131 0030 FFF7FEFF 		bl	buffer_append_float32
 2132              	.LVL184:
 2133              		.loc 1 644 0
 2134 0034 002E     		cmp	r6, #0
 2135 0036 14BF     		ite	ne
 2136 0038 4FF4B050 		movne	r0, #5632
 2137 003c 4FF4A850 		moveq	r0, #5376
 2138              		.loc 1 642 0
 2139 0040 02A9     		add	r1, sp, #8
 2140 0042 2843     		orrs	r0, r0, r5
 2141 0044 9DF80420 		ldrb	r2, [sp, #4]	@ zero_extendqisi2
 2142 0048 FFF7FEFF 		bl	comm_can_transmit_eid_replace.constprop.2
 2143              	.LVL185:
 2144              		.loc 1 645 0
 2145 004c 04B0     		add	sp, sp, #16
 2146              		.cfi_def_cfa_offset 24
 2147              		@ sp needed
 2148 004e BDEC028B 		vldm	sp!, {d8}
 2149              		.cfi_restore 80
 2150              		.cfi_restore 81
 2151              		.cfi_def_cfa_offset 16
 2152              	.LVL186:
 2153 0052 70BD     		pop	{r4, r5, r6, pc}
 2154              	.L172:
 2155              		.align	2
 2156              	.L171:
 2157 0054 00007A44 		.word	1148846080
 2158              		.cfi_endproc
 2159              	.LFE277:
 2160              		.size	comm_can_conf_current_limits, .-comm_can_conf_current_limits
 2161              		.section	.text.comm_can_conf_current_limits_in,"ax",%progbits
 2162              		.align	1
 2163              		.p2align 4,,15
 2164              		.global	comm_can_conf_current_limits_in
 2165              		.syntax unified
 2166              		.thumb
ARM GAS  /tmp/ccuyDb88.s 			page 39


 2167              		.thumb_func
 2168              		.fpu fpv4-sp-d16
 2169              		.type	comm_can_conf_current_limits_in, %function
 2170              	comm_can_conf_current_limits_in:
 2171              	.LFB278:
 2172              		.loc 1 663 0
 2173              		.cfi_startproc
 2174              		@ args = 0, pretend = 0, frame = 16
 2175              		@ frame_needed = 0, uses_anonymous_args = 0
 2176              	.LVL187:
 2177 0000 70B5     		push	{r4, r5, r6, lr}
 2178              		.cfi_def_cfa_offset 16
 2179              		.cfi_offset 4, -16
 2180              		.cfi_offset 5, -12
 2181              		.cfi_offset 6, -8
 2182              		.cfi_offset 14, -4
 2183 0002 2DED028B 		vpush.64	{d8}
 2184              		.cfi_def_cfa_offset 24
 2185              		.cfi_offset 80, -24
 2186              		.cfi_offset 81, -20
 2187 0006 84B0     		sub	sp, sp, #16
 2188              		.cfi_def_cfa_offset 40
 2189              		.loc 1 664 0
 2190 0008 04AC     		add	r4, sp, #16
 2191 000a 0023     		movs	r3, #0
 2192 000c 44F80C3D 		str	r3, [r4, #-12]!
 2193              		.loc 1 663 0
 2194 0010 B0EE608A 		vmov.f32	s16, s1
 2195 0014 0546     		mov	r5, r0
 2196 0016 0E46     		mov	r6, r1
 2197              		.loc 1 666 0
 2198 0018 02A8     		add	r0, sp, #8
 2199              	.LVL188:
 2200 001a 2146     		mov	r1, r4
 2201              	.LVL189:
 2202 001c DFED0D0A 		vldr.32	s1, .L177
 2203              	.LVL190:
 2204 0020 FFF7FEFF 		bl	buffer_append_float32
 2205              	.LVL191:
 2206              		.loc 1 667 0
 2207 0024 02A8     		add	r0, sp, #8
 2208 0026 2146     		mov	r1, r4
 2209 0028 B0EE480A 		vmov.f32	s0, s16
 2210 002c DFED090A 		vldr.32	s1, .L177
 2211 0030 FFF7FEFF 		bl	buffer_append_float32
 2212              	.LVL192:
 2213              		.loc 1 670 0
 2214 0034 002E     		cmp	r6, #0
 2215 0036 14BF     		ite	ne
 2216 0038 4FF4C050 		movne	r0, #6144
 2217 003c 4FF4B850 		moveq	r0, #5888
 2218              		.loc 1 668 0
 2219 0040 02A9     		add	r1, sp, #8
 2220 0042 2843     		orrs	r0, r0, r5
 2221 0044 9DF80420 		ldrb	r2, [sp, #4]	@ zero_extendqisi2
 2222 0048 FFF7FEFF 		bl	comm_can_transmit_eid_replace.constprop.2
 2223              	.LVL193:
ARM GAS  /tmp/ccuyDb88.s 			page 40


 2224              		.loc 1 671 0
 2225 004c 04B0     		add	sp, sp, #16
 2226              		.cfi_def_cfa_offset 24
 2227              		@ sp needed
 2228 004e BDEC028B 		vldm	sp!, {d8}
 2229              		.cfi_restore 80
 2230              		.cfi_restore 81
 2231              		.cfi_def_cfa_offset 16
 2232              	.LVL194:
 2233 0052 70BD     		pop	{r4, r5, r6, pc}
 2234              	.L178:
 2235              		.align	2
 2236              	.L177:
 2237 0054 00007A44 		.word	1148846080
 2238              		.cfi_endproc
 2239              	.LFE278:
 2240              		.size	comm_can_conf_current_limits_in, .-comm_can_conf_current_limits_in
 2241              		.section	.text.comm_can_conf_foc_erpms,"ax",%progbits
 2242              		.align	1
 2243              		.p2align 4,,15
 2244              		.global	comm_can_conf_foc_erpms
 2245              		.syntax unified
 2246              		.thumb
 2247              		.thumb_func
 2248              		.fpu fpv4-sp-d16
 2249              		.type	comm_can_conf_foc_erpms, %function
 2250              	comm_can_conf_foc_erpms:
 2251              	.LFB279:
 2252              		.loc 1 689 0
 2253              		.cfi_startproc
 2254              		@ args = 0, pretend = 0, frame = 16
 2255              		@ frame_needed = 0, uses_anonymous_args = 0
 2256              	.LVL195:
 2257 0000 70B5     		push	{r4, r5, r6, lr}
 2258              		.cfi_def_cfa_offset 16
 2259              		.cfi_offset 4, -16
 2260              		.cfi_offset 5, -12
 2261              		.cfi_offset 6, -8
 2262              		.cfi_offset 14, -4
 2263 0002 2DED028B 		vpush.64	{d8}
 2264              		.cfi_def_cfa_offset 24
 2265              		.cfi_offset 80, -24
 2266              		.cfi_offset 81, -20
 2267 0006 84B0     		sub	sp, sp, #16
 2268              		.cfi_def_cfa_offset 40
 2269              		.loc 1 690 0
 2270 0008 04AC     		add	r4, sp, #16
 2271 000a 0023     		movs	r3, #0
 2272 000c 44F80C3D 		str	r3, [r4, #-12]!
 2273              		.loc 1 689 0
 2274 0010 B0EE608A 		vmov.f32	s16, s1
 2275 0014 0546     		mov	r5, r0
 2276 0016 0E46     		mov	r6, r1
 2277              		.loc 1 692 0
 2278 0018 02A8     		add	r0, sp, #8
 2279              	.LVL196:
 2280 001a 2146     		mov	r1, r4
ARM GAS  /tmp/ccuyDb88.s 			page 41


 2281              	.LVL197:
 2282 001c DFED0D0A 		vldr.32	s1, .L183
 2283              	.LVL198:
 2284 0020 FFF7FEFF 		bl	buffer_append_float32
 2285              	.LVL199:
 2286              		.loc 1 693 0
 2287 0024 02A8     		add	r0, sp, #8
 2288 0026 2146     		mov	r1, r4
 2289 0028 B0EE480A 		vmov.f32	s0, s16
 2290 002c DFED090A 		vldr.32	s1, .L183
 2291 0030 FFF7FEFF 		bl	buffer_append_float32
 2292              	.LVL200:
 2293              		.loc 1 696 0
 2294 0034 002E     		cmp	r6, #0
 2295 0036 14BF     		ite	ne
 2296 0038 4FF4D050 		movne	r0, #6656
 2297 003c 4FF4C850 		moveq	r0, #6400
 2298              		.loc 1 694 0
 2299 0040 02A9     		add	r1, sp, #8
 2300 0042 2843     		orrs	r0, r0, r5
 2301 0044 9DF80420 		ldrb	r2, [sp, #4]	@ zero_extendqisi2
 2302 0048 FFF7FEFF 		bl	comm_can_transmit_eid_replace.constprop.2
 2303              	.LVL201:
 2304              		.loc 1 697 0
 2305 004c 04B0     		add	sp, sp, #16
 2306              		.cfi_def_cfa_offset 24
 2307              		@ sp needed
 2308 004e BDEC028B 		vldm	sp!, {d8}
 2309              		.cfi_restore 80
 2310              		.cfi_restore 81
 2311              		.cfi_def_cfa_offset 16
 2312              	.LVL202:
 2313 0052 70BD     		pop	{r4, r5, r6, pc}
 2314              	.L184:
 2315              		.align	2
 2316              	.L183:
 2317 0054 00007A44 		.word	1148846080
 2318              		.cfi_endproc
 2319              	.LFE279:
 2320              		.size	comm_can_conf_foc_erpms, .-comm_can_conf_foc_erpms
 2321              		.section	.text.comm_can_detect_all_foc_res,"ax",%progbits
 2322              		.align	1
 2323              		.p2align 4,,15
 2324              		.global	comm_can_detect_all_foc_res
 2325              		.syntax unified
 2326              		.thumb
 2327              		.thumb_func
 2328              		.fpu fpv4-sp-d16
 2329              		.type	comm_can_detect_all_foc_res, %function
 2330              	comm_can_detect_all_foc_res:
 2331              	.LFB280:
 2332              		.loc 1 699 0
 2333              		.cfi_startproc
 2334              		@ args = 0, pretend = 0, frame = 0
 2335              		@ frame_needed = 0, uses_anonymous_args = 0
 2336              		@ link register save eliminated.
 2337              	.LVL203:
ARM GAS  /tmp/ccuyDb88.s 			page 42


 2338              		.loc 1 700 0
 2339 0000 034B     		ldr	r3, .L188
 2340 0002 1B68     		ldr	r3, [r3]
 2341 0004 8342     		cmp	r3, r0
 2342              		.loc 1 701 0
 2343 0006 86BF     		itte	hi
 2344 0008 024A     		ldrhi	r2, .L188+4
 2345 000a D056     		ldrsbhi	r0, [r2, r3]
 2346              	.LVL204:
 2347              		.loc 1 703 0
 2348 000c 0248     		ldrls	r0, .L188+8
 2349              		.loc 1 705 0
 2350 000e 7047     		bx	lr
 2351              	.L189:
 2352              		.align	2
 2353              	.L188:
 2354 0010 00000000 		.word	.LANCHOR26
 2355 0014 00000000 		.word	.LANCHOR27
 2356 0018 19FCFFFF 		.word	-999
 2357              		.cfi_endproc
 2358              	.LFE280:
 2359              		.size	comm_can_detect_all_foc_res, .-comm_can_detect_all_foc_res
 2360              		.section	.text.comm_can_detect_all_foc_res_size,"ax",%progbits
 2361              		.align	1
 2362              		.p2align 4,,15
 2363              		.global	comm_can_detect_all_foc_res_size
 2364              		.syntax unified
 2365              		.thumb
 2366              		.thumb_func
 2367              		.fpu fpv4-sp-d16
 2368              		.type	comm_can_detect_all_foc_res_size, %function
 2369              	comm_can_detect_all_foc_res_size:
 2370              	.LFB281:
 2371              		.loc 1 707 0
 2372              		.cfi_startproc
 2373              		@ args = 0, pretend = 0, frame = 0
 2374              		@ frame_needed = 0, uses_anonymous_args = 0
 2375              		@ link register save eliminated.
 2376              		.loc 1 708 0
 2377 0000 014B     		ldr	r3, .L191
 2378              		.loc 1 709 0
 2379 0002 1868     		ldr	r0, [r3]
 2380 0004 7047     		bx	lr
 2381              	.L192:
 2382 0006 00BF     		.align	2
 2383              	.L191:
 2384 0008 00000000 		.word	.LANCHOR26
 2385              		.cfi_endproc
 2386              	.LFE281:
 2387              		.size	comm_can_detect_all_foc_res_size, .-comm_can_detect_all_foc_res_size
 2388              		.section	.text.comm_can_detect_all_foc_res_clear,"ax",%progbits
 2389              		.align	1
 2390              		.p2align 4,,15
 2391              		.global	comm_can_detect_all_foc_res_clear
 2392              		.syntax unified
 2393              		.thumb
 2394              		.thumb_func
ARM GAS  /tmp/ccuyDb88.s 			page 43


 2395              		.fpu fpv4-sp-d16
 2396              		.type	comm_can_detect_all_foc_res_clear, %function
 2397              	comm_can_detect_all_foc_res_clear:
 2398              	.LFB282:
 2399              		.loc 1 711 0
 2400              		.cfi_startproc
 2401              		@ args = 0, pretend = 0, frame = 0
 2402              		@ frame_needed = 0, uses_anonymous_args = 0
 2403              		@ link register save eliminated.
 2404              		.loc 1 712 0
 2405 0000 014B     		ldr	r3, .L194
 2406 0002 0022     		movs	r2, #0
 2407 0004 1A60     		str	r2, [r3]
 2408              		.loc 1 713 0
 2409 0006 7047     		bx	lr
 2410              	.L195:
 2411              		.align	2
 2412              	.L194:
 2413 0008 00000000 		.word	.LANCHOR26
 2414              		.cfi_endproc
 2415              	.LFE282:
 2416              		.size	comm_can_detect_all_foc_res_clear, .-comm_can_detect_all_foc_res_clear
 2417              		.section	.text.comm_can_conf_battery_cut,"ax",%progbits
 2418              		.align	1
 2419              		.p2align 4,,15
 2420              		.global	comm_can_conf_battery_cut
 2421              		.syntax unified
 2422              		.thumb
 2423              		.thumb_func
 2424              		.fpu fpv4-sp-d16
 2425              		.type	comm_can_conf_battery_cut, %function
 2426              	comm_can_conf_battery_cut:
 2427              	.LFB283:
 2428              		.loc 1 716 0
 2429              		.cfi_startproc
 2430              		@ args = 0, pretend = 0, frame = 16
 2431              		@ frame_needed = 0, uses_anonymous_args = 0
 2432              	.LVL205:
 2433 0000 70B5     		push	{r4, r5, r6, lr}
 2434              		.cfi_def_cfa_offset 16
 2435              		.cfi_offset 4, -16
 2436              		.cfi_offset 5, -12
 2437              		.cfi_offset 6, -8
 2438              		.cfi_offset 14, -4
 2439 0002 2DED028B 		vpush.64	{d8}
 2440              		.cfi_def_cfa_offset 24
 2441              		.cfi_offset 80, -24
 2442              		.cfi_offset 81, -20
 2443 0006 84B0     		sub	sp, sp, #16
 2444              		.cfi_def_cfa_offset 40
 2445              		.loc 1 717 0
 2446 0008 04AC     		add	r4, sp, #16
 2447 000a 0023     		movs	r3, #0
 2448 000c 44F80C3D 		str	r3, [r4, #-12]!
 2449              		.loc 1 716 0
 2450 0010 B0EE608A 		vmov.f32	s16, s1
 2451 0014 0546     		mov	r5, r0
ARM GAS  /tmp/ccuyDb88.s 			page 44


 2452 0016 0E46     		mov	r6, r1
 2453              		.loc 1 719 0
 2454 0018 02A8     		add	r0, sp, #8
 2455              	.LVL206:
 2456 001a 2146     		mov	r1, r4
 2457              	.LVL207:
 2458 001c DFED0D0A 		vldr.32	s1, .L200
 2459              	.LVL208:
 2460 0020 FFF7FEFF 		bl	buffer_append_float32
 2461              	.LVL209:
 2462              		.loc 1 720 0
 2463 0024 02A8     		add	r0, sp, #8
 2464 0026 2146     		mov	r1, r4
 2465 0028 B0EE480A 		vmov.f32	s0, s16
 2466 002c DFED090A 		vldr.32	s1, .L200
 2467 0030 FFF7FEFF 		bl	buffer_append_float32
 2468              	.LVL210:
 2469              		.loc 1 723 0
 2470 0034 002E     		cmp	r6, #0
 2471 0036 14BF     		ite	ne
 2472 0038 4FF4F050 		movne	r0, #7680
 2473 003c 4FF4E850 		moveq	r0, #7424
 2474              		.loc 1 721 0
 2475 0040 02A9     		add	r1, sp, #8
 2476 0042 2843     		orrs	r0, r0, r5
 2477 0044 9DF80420 		ldrb	r2, [sp, #4]	@ zero_extendqisi2
 2478 0048 FFF7FEFF 		bl	comm_can_transmit_eid_replace.constprop.2
 2479              	.LVL211:
 2480              		.loc 1 724 0
 2481 004c 04B0     		add	sp, sp, #16
 2482              		.cfi_def_cfa_offset 24
 2483              		@ sp needed
 2484 004e BDEC028B 		vldm	sp!, {d8}
 2485              		.cfi_restore 80
 2486              		.cfi_restore 81
 2487              		.cfi_def_cfa_offset 16
 2488              	.LVL212:
 2489 0052 70BD     		pop	{r4, r5, r6, pc}
 2490              	.L201:
 2491              		.align	2
 2492              	.L200:
 2493 0054 00007A44 		.word	1148846080
 2494              		.cfi_endproc
 2495              	.LFE283:
 2496              		.size	comm_can_conf_battery_cut, .-comm_can_conf_battery_cut
 2497              		.section	.text.comm_can_shutdown,"ax",%progbits
 2498              		.align	1
 2499              		.p2align 4,,15
 2500              		.global	comm_can_shutdown
 2501              		.syntax unified
 2502              		.thumb
 2503              		.thumb_func
 2504              		.fpu fpv4-sp-d16
 2505              		.type	comm_can_shutdown, %function
 2506              	comm_can_shutdown:
 2507              	.LFB284:
 2508              		.loc 1 726 0
ARM GAS  /tmp/ccuyDb88.s 			page 45


 2509              		.cfi_startproc
 2510              		@ args = 0, pretend = 0, frame = 8
 2511              		@ frame_needed = 0, uses_anonymous_args = 0
 2512              	.LVL213:
 2513 0000 00B5     		push	{lr}
 2514              		.cfi_def_cfa_offset 4
 2515              		.cfi_offset 14, -4
 2516 0002 83B0     		sub	sp, sp, #12
 2517              		.cfi_def_cfa_offset 16
 2518              		.loc 1 729 0
 2519 0004 40F4F850 		orr	r0, r0, #7936
 2520              	.LVL214:
 2521 0008 0022     		movs	r2, #0
 2522 000a 6946     		mov	r1, sp
 2523 000c FFF7FEFF 		bl	comm_can_transmit_eid_replace.constprop.2
 2524              	.LVL215:
 2525              		.loc 1 731 0
 2526 0010 03B0     		add	sp, sp, #12
 2527              		.cfi_def_cfa_offset 4
 2528              		@ sp needed
 2529 0012 5DF804FB 		ldr	pc, [sp], #4
 2530              		.cfi_endproc
 2531              	.LFE284:
 2532              		.size	comm_can_shutdown, .-comm_can_shutdown
 2533 0016 00BF     		.section	.text.comm_can_get_status_msg_index,"ax",%progbits
 2534              		.align	1
 2535              		.p2align 4,,15
 2536              		.global	comm_can_get_status_msg_index
 2537              		.syntax unified
 2538              		.thumb
 2539              		.thumb_func
 2540              		.fpu fpv4-sp-d16
 2541              		.type	comm_can_get_status_msg_index, %function
 2542              	comm_can_get_status_msg_index:
 2543              	.LFB285:
 2544              		.loc 1 742 0
 2545              		.cfi_startproc
 2546              		@ args = 0, pretend = 0, frame = 0
 2547              		@ frame_needed = 0, uses_anonymous_args = 0
 2548              		@ link register save eliminated.
 2549              	.LVL216:
 2550              		.loc 1 743 0
 2551 0000 0928     		cmp	r0, #9
 2552              		.loc 1 744 0
 2553 0002 DDBF     		ittte	le
 2554 0004 034B     		ldrle	r3, .L207
 2555 0006 00EB8000 		addle	r0, r0, r0, lsl #2
 2556              	.LVL217:
 2557 000a 03EB8000 		addle	r0, r3, r0, lsl #2
 2558              		.loc 1 746 0
 2559 000e 0020     		movgt	r0, #0
 2560              		.loc 1 748 0
 2561 0010 7047     		bx	lr
 2562              	.L208:
 2563 0012 00BF     		.align	2
 2564              	.L207:
 2565 0014 00000000 		.word	.LANCHOR6
ARM GAS  /tmp/ccuyDb88.s 			page 46


 2566              		.cfi_endproc
 2567              	.LFE285:
 2568              		.size	comm_can_get_status_msg_index, .-comm_can_get_status_msg_index
 2569              		.section	.text.comm_can_get_status_msg_id,"ax",%progbits
 2570              		.align	1
 2571              		.p2align 4,,15
 2572              		.global	comm_can_get_status_msg_id
 2573              		.syntax unified
 2574              		.thumb
 2575              		.thumb_func
 2576              		.fpu fpv4-sp-d16
 2577              		.type	comm_can_get_status_msg_id, %function
 2578              	comm_can_get_status_msg_id:
 2579              	.LFB286:
 2580              		.loc 1 759 0
 2581              		.cfi_startproc
 2582              		@ args = 0, pretend = 0, frame = 0
 2583              		@ frame_needed = 0, uses_anonymous_args = 0
 2584              		@ link register save eliminated.
 2585              	.LVL218:
 2586 0000 10B4     		push	{r4}
 2587              		.cfi_def_cfa_offset 4
 2588              		.cfi_offset 4, -4
 2589 0002 0B4C     		ldr	r4, .L216
 2590              	.LBB435:
 2591              		.loc 1 760 0
 2592 0004 0023     		movs	r3, #0
 2593 0006 2246     		mov	r2, r4
 2594              	.LVL219:
 2595              	.L212:
 2596              		.loc 1 761 0
 2597 0008 1168     		ldr	r1, [r2]
 2598 000a 8142     		cmp	r1, r0
 2599 000c 02F11402 		add	r2, r2, #20
 2600 0010 06D0     		beq	.L215
 2601              		.loc 1 760 0 discriminator 2
 2602 0012 0133     		adds	r3, r3, #1
 2603              	.LVL220:
 2604 0014 0A2B     		cmp	r3, #10
 2605 0016 F7D1     		bne	.L212
 2606              	.LBE435:
 2607              		.loc 1 766 0
 2608 0018 0020     		movs	r0, #0
 2609              	.LVL221:
 2610              		.loc 1 767 0
 2611 001a 5DF8044B 		ldr	r4, [sp], #4
 2612              		.cfi_remember_state
 2613              		.cfi_restore 4
 2614              		.cfi_def_cfa_offset 0
 2615 001e 7047     		bx	lr
 2616              	.LVL222:
 2617              	.L215:
 2618              		.cfi_restore_state
 2619              	.LBB436:
 2620              		.loc 1 762 0
 2621 0020 03EB8303 		add	r3, r3, r3, lsl #2
 2622              	.LVL223:
ARM GAS  /tmp/ccuyDb88.s 			page 47


 2623 0024 04EB8300 		add	r0, r4, r3, lsl #2
 2624              	.LVL224:
 2625              	.LBE436:
 2626              		.loc 1 767 0
 2627 0028 5DF8044B 		ldr	r4, [sp], #4
 2628              		.cfi_restore 4
 2629              		.cfi_def_cfa_offset 0
 2630 002c 7047     		bx	lr
 2631              	.L217:
 2632 002e 00BF     		.align	2
 2633              	.L216:
 2634 0030 00000000 		.word	.LANCHOR6
 2635              		.cfi_endproc
 2636              	.LFE286:
 2637              		.size	comm_can_get_status_msg_id, .-comm_can_get_status_msg_id
 2638              		.section	.text.comm_can_get_status_msg_2_index,"ax",%progbits
 2639              		.align	1
 2640              		.p2align 4,,15
 2641              		.global	comm_can_get_status_msg_2_index
 2642              		.syntax unified
 2643              		.thumb
 2644              		.thumb_func
 2645              		.fpu fpv4-sp-d16
 2646              		.type	comm_can_get_status_msg_2_index, %function
 2647              	comm_can_get_status_msg_2_index:
 2648              	.LFB287:
 2649              		.loc 1 778 0
 2650              		.cfi_startproc
 2651              		@ args = 0, pretend = 0, frame = 0
 2652              		@ frame_needed = 0, uses_anonymous_args = 0
 2653              		@ link register save eliminated.
 2654              	.LVL225:
 2655              		.loc 1 779 0
 2656 0000 0928     		cmp	r0, #9
 2657              		.loc 1 780 0
 2658 0002 DABF     		itte	le
 2659 0004 024B     		ldrle	r3, .L221
 2660 0006 03EB0010 		addle	r0, r3, r0, lsl #4
 2661              	.LVL226:
 2662              		.loc 1 782 0
 2663 000a 0020     		movgt	r0, #0
 2664              		.loc 1 784 0
 2665 000c 7047     		bx	lr
 2666              	.L222:
 2667 000e 00BF     		.align	2
 2668              	.L221:
 2669 0010 00000000 		.word	.LANCHOR7
 2670              		.cfi_endproc
 2671              	.LFE287:
 2672              		.size	comm_can_get_status_msg_2_index, .-comm_can_get_status_msg_2_index
 2673              		.section	.text.comm_can_get_status_msg_2_id,"ax",%progbits
 2674              		.align	1
 2675              		.p2align 4,,15
 2676              		.global	comm_can_get_status_msg_2_id
 2677              		.syntax unified
 2678              		.thumb
 2679              		.thumb_func
ARM GAS  /tmp/ccuyDb88.s 			page 48


 2680              		.fpu fpv4-sp-d16
 2681              		.type	comm_can_get_status_msg_2_id, %function
 2682              	comm_can_get_status_msg_2_id:
 2683              	.LFB288:
 2684              		.loc 1 795 0
 2685              		.cfi_startproc
 2686              		@ args = 0, pretend = 0, frame = 0
 2687              		@ frame_needed = 0, uses_anonymous_args = 0
 2688              		@ link register save eliminated.
 2689              	.LVL227:
 2690 0000 10B4     		push	{r4}
 2691              		.cfi_def_cfa_offset 4
 2692              		.cfi_offset 4, -4
 2693 0002 084C     		ldr	r4, .L230
 2694              	.LBB437:
 2695              		.loc 1 796 0
 2696 0004 0023     		movs	r3, #0
 2697              	.LVL228:
 2698              	.L226:
 2699 0006 1A01     		lsls	r2, r3, #4
 2700 0008 0133     		adds	r3, r3, #1
 2701              	.LVL229:
 2702              		.loc 1 797 0
 2703 000a A158     		ldr	r1, [r4, r2]
 2704 000c 8142     		cmp	r1, r0
 2705 000e 05D0     		beq	.L229
 2706              		.loc 1 796 0 discriminator 2
 2707 0010 0A2B     		cmp	r3, #10
 2708 0012 F8D1     		bne	.L226
 2709              	.LBE437:
 2710              		.loc 1 802 0
 2711 0014 0020     		movs	r0, #0
 2712              	.LVL230:
 2713              		.loc 1 803 0
 2714 0016 5DF8044B 		ldr	r4, [sp], #4
 2715              		.cfi_remember_state
 2716              		.cfi_restore 4
 2717              		.cfi_def_cfa_offset 0
 2718 001a 7047     		bx	lr
 2719              	.LVL231:
 2720              	.L229:
 2721              		.cfi_restore_state
 2722              	.LBB438:
 2723              		.loc 1 798 0
 2724 001c A018     		adds	r0, r4, r2
 2725              	.LVL232:
 2726              	.LBE438:
 2727              		.loc 1 803 0
 2728 001e 5DF8044B 		ldr	r4, [sp], #4
 2729              		.cfi_restore 4
 2730              		.cfi_def_cfa_offset 0
 2731 0022 7047     		bx	lr
 2732              	.L231:
 2733              		.align	2
 2734              	.L230:
 2735 0024 00000000 		.word	.LANCHOR7
 2736              		.cfi_endproc
ARM GAS  /tmp/ccuyDb88.s 			page 49


 2737              	.LFE288:
 2738              		.size	comm_can_get_status_msg_2_id, .-comm_can_get_status_msg_2_id
 2739              		.section	.text.comm_can_get_status_msg_3_index,"ax",%progbits
 2740              		.align	1
 2741              		.p2align 4,,15
 2742              		.global	comm_can_get_status_msg_3_index
 2743              		.syntax unified
 2744              		.thumb
 2745              		.thumb_func
 2746              		.fpu fpv4-sp-d16
 2747              		.type	comm_can_get_status_msg_3_index, %function
 2748              	comm_can_get_status_msg_3_index:
 2749              	.LFB289:
 2750              		.loc 1 814 0
 2751              		.cfi_startproc
 2752              		@ args = 0, pretend = 0, frame = 0
 2753              		@ frame_needed = 0, uses_anonymous_args = 0
 2754              		@ link register save eliminated.
 2755              	.LVL233:
 2756              		.loc 1 815 0
 2757 0000 0928     		cmp	r0, #9
 2758              		.loc 1 816 0
 2759 0002 DABF     		itte	le
 2760 0004 024B     		ldrle	r3, .L235
 2761 0006 03EB0010 		addle	r0, r3, r0, lsl #4
 2762              	.LVL234:
 2763              		.loc 1 818 0
 2764 000a 0020     		movgt	r0, #0
 2765              		.loc 1 820 0
 2766 000c 7047     		bx	lr
 2767              	.L236:
 2768 000e 00BF     		.align	2
 2769              	.L235:
 2770 0010 00000000 		.word	.LANCHOR8
 2771              		.cfi_endproc
 2772              	.LFE289:
 2773              		.size	comm_can_get_status_msg_3_index, .-comm_can_get_status_msg_3_index
 2774              		.section	.text.comm_can_get_status_msg_3_id,"ax",%progbits
 2775              		.align	1
 2776              		.p2align 4,,15
 2777              		.global	comm_can_get_status_msg_3_id
 2778              		.syntax unified
 2779              		.thumb
 2780              		.thumb_func
 2781              		.fpu fpv4-sp-d16
 2782              		.type	comm_can_get_status_msg_3_id, %function
 2783              	comm_can_get_status_msg_3_id:
 2784              	.LFB290:
 2785              		.loc 1 831 0
 2786              		.cfi_startproc
 2787              		@ args = 0, pretend = 0, frame = 0
 2788              		@ frame_needed = 0, uses_anonymous_args = 0
 2789              		@ link register save eliminated.
 2790              	.LVL235:
 2791 0000 10B4     		push	{r4}
 2792              		.cfi_def_cfa_offset 4
 2793              		.cfi_offset 4, -4
ARM GAS  /tmp/ccuyDb88.s 			page 50


 2794 0002 084C     		ldr	r4, .L244
 2795              	.LBB439:
 2796              		.loc 1 832 0
 2797 0004 0023     		movs	r3, #0
 2798              	.LVL236:
 2799              	.L240:
 2800 0006 1A01     		lsls	r2, r3, #4
 2801 0008 0133     		adds	r3, r3, #1
 2802              	.LVL237:
 2803              		.loc 1 833 0
 2804 000a A158     		ldr	r1, [r4, r2]
 2805 000c 8142     		cmp	r1, r0
 2806 000e 05D0     		beq	.L243
 2807              		.loc 1 832 0 discriminator 2
 2808 0010 0A2B     		cmp	r3, #10
 2809 0012 F8D1     		bne	.L240
 2810              	.LBE439:
 2811              		.loc 1 838 0
 2812 0014 0020     		movs	r0, #0
 2813              	.LVL238:
 2814              		.loc 1 839 0
 2815 0016 5DF8044B 		ldr	r4, [sp], #4
 2816              		.cfi_remember_state
 2817              		.cfi_restore 4
 2818              		.cfi_def_cfa_offset 0
 2819 001a 7047     		bx	lr
 2820              	.LVL239:
 2821              	.L243:
 2822              		.cfi_restore_state
 2823              	.LBB440:
 2824              		.loc 1 834 0
 2825 001c A018     		adds	r0, r4, r2
 2826              	.LVL240:
 2827              	.LBE440:
 2828              		.loc 1 839 0
 2829 001e 5DF8044B 		ldr	r4, [sp], #4
 2830              		.cfi_restore 4
 2831              		.cfi_def_cfa_offset 0
 2832 0022 7047     		bx	lr
 2833              	.L245:
 2834              		.align	2
 2835              	.L244:
 2836 0024 00000000 		.word	.LANCHOR8
 2837              		.cfi_endproc
 2838              	.LFE290:
 2839              		.size	comm_can_get_status_msg_3_id, .-comm_can_get_status_msg_3_id
 2840              		.section	.text.comm_can_get_status_msg_4_index,"ax",%progbits
 2841              		.align	1
 2842              		.p2align 4,,15
 2843              		.global	comm_can_get_status_msg_4_index
 2844              		.syntax unified
 2845              		.thumb
 2846              		.thumb_func
 2847              		.fpu fpv4-sp-d16
 2848              		.type	comm_can_get_status_msg_4_index, %function
 2849              	comm_can_get_status_msg_4_index:
 2850              	.LFB291:
ARM GAS  /tmp/ccuyDb88.s 			page 51


 2851              		.loc 1 850 0
 2852              		.cfi_startproc
 2853              		@ args = 0, pretend = 0, frame = 0
 2854              		@ frame_needed = 0, uses_anonymous_args = 0
 2855              		@ link register save eliminated.
 2856              	.LVL241:
 2857              		.loc 1 851 0
 2858 0000 0928     		cmp	r0, #9
 2859              		.loc 1 852 0
 2860 0002 DDBF     		ittte	le
 2861 0004 034B     		ldrle	r3, .L249
 2862 0006 00EB4000 		addle	r0, r0, r0, lsl #1
 2863              	.LVL242:
 2864 000a 03EBC000 		addle	r0, r3, r0, lsl #3
 2865              		.loc 1 854 0
 2866 000e 0020     		movgt	r0, #0
 2867              		.loc 1 856 0
 2868 0010 7047     		bx	lr
 2869              	.L250:
 2870 0012 00BF     		.align	2
 2871              	.L249:
 2872 0014 00000000 		.word	.LANCHOR9
 2873              		.cfi_endproc
 2874              	.LFE291:
 2875              		.size	comm_can_get_status_msg_4_index, .-comm_can_get_status_msg_4_index
 2876              		.section	.text.comm_can_get_status_msg_4_id,"ax",%progbits
 2877              		.align	1
 2878              		.p2align 4,,15
 2879              		.global	comm_can_get_status_msg_4_id
 2880              		.syntax unified
 2881              		.thumb
 2882              		.thumb_func
 2883              		.fpu fpv4-sp-d16
 2884              		.type	comm_can_get_status_msg_4_id, %function
 2885              	comm_can_get_status_msg_4_id:
 2886              	.LFB292:
 2887              		.loc 1 867 0
 2888              		.cfi_startproc
 2889              		@ args = 0, pretend = 0, frame = 0
 2890              		@ frame_needed = 0, uses_anonymous_args = 0
 2891              		@ link register save eliminated.
 2892              	.LVL243:
 2893 0000 10B4     		push	{r4}
 2894              		.cfi_def_cfa_offset 4
 2895              		.cfi_offset 4, -4
 2896 0002 0B4C     		ldr	r4, .L258
 2897              	.LBB441:
 2898              		.loc 1 868 0
 2899 0004 0023     		movs	r3, #0
 2900 0006 2246     		mov	r2, r4
 2901              	.LVL244:
 2902              	.L254:
 2903              		.loc 1 869 0
 2904 0008 1168     		ldr	r1, [r2]
 2905 000a 8142     		cmp	r1, r0
 2906 000c 02F11802 		add	r2, r2, #24
 2907 0010 06D0     		beq	.L257
ARM GAS  /tmp/ccuyDb88.s 			page 52


 2908              		.loc 1 868 0 discriminator 2
 2909 0012 0133     		adds	r3, r3, #1
 2910              	.LVL245:
 2911 0014 0A2B     		cmp	r3, #10
 2912 0016 F7D1     		bne	.L254
 2913              	.LBE441:
 2914              		.loc 1 874 0
 2915 0018 0020     		movs	r0, #0
 2916              	.LVL246:
 2917              		.loc 1 875 0
 2918 001a 5DF8044B 		ldr	r4, [sp], #4
 2919              		.cfi_remember_state
 2920              		.cfi_restore 4
 2921              		.cfi_def_cfa_offset 0
 2922 001e 7047     		bx	lr
 2923              	.LVL247:
 2924              	.L257:
 2925              		.cfi_restore_state
 2926              	.LBB442:
 2927              		.loc 1 870 0
 2928 0020 03EB4303 		add	r3, r3, r3, lsl #1
 2929              	.LVL248:
 2930 0024 04EBC300 		add	r0, r4, r3, lsl #3
 2931              	.LVL249:
 2932              	.LBE442:
 2933              		.loc 1 875 0
 2934 0028 5DF8044B 		ldr	r4, [sp], #4
 2935              		.cfi_restore 4
 2936              		.cfi_def_cfa_offset 0
 2937 002c 7047     		bx	lr
 2938              	.L259:
 2939 002e 00BF     		.align	2
 2940              	.L258:
 2941 0030 00000000 		.word	.LANCHOR9
 2942              		.cfi_endproc
 2943              	.LFE292:
 2944              		.size	comm_can_get_status_msg_4_id, .-comm_can_get_status_msg_4_id
 2945              		.section	.text.comm_can_get_status_msg_5_index,"ax",%progbits
 2946              		.align	1
 2947              		.p2align 4,,15
 2948              		.global	comm_can_get_status_msg_5_index
 2949              		.syntax unified
 2950              		.thumb
 2951              		.thumb_func
 2952              		.fpu fpv4-sp-d16
 2953              		.type	comm_can_get_status_msg_5_index, %function
 2954              	comm_can_get_status_msg_5_index:
 2955              	.LFB293:
 2956              		.loc 1 886 0
 2957              		.cfi_startproc
 2958              		@ args = 0, pretend = 0, frame = 0
 2959              		@ frame_needed = 0, uses_anonymous_args = 0
 2960              		@ link register save eliminated.
 2961              	.LVL250:
 2962              		.loc 1 887 0
 2963 0000 0928     		cmp	r0, #9
 2964              		.loc 1 888 0
ARM GAS  /tmp/ccuyDb88.s 			page 53


 2965 0002 DABF     		itte	le
 2966 0004 024B     		ldrle	r3, .L263
 2967 0006 03EB0010 		addle	r0, r3, r0, lsl #4
 2968              	.LVL251:
 2969              		.loc 1 890 0
 2970 000a 0020     		movgt	r0, #0
 2971              		.loc 1 892 0
 2972 000c 7047     		bx	lr
 2973              	.L264:
 2974 000e 00BF     		.align	2
 2975              	.L263:
 2976 0010 00000000 		.word	.LANCHOR10
 2977              		.cfi_endproc
 2978              	.LFE293:
 2979              		.size	comm_can_get_status_msg_5_index, .-comm_can_get_status_msg_5_index
 2980              		.section	.text.comm_can_get_status_msg_5_id,"ax",%progbits
 2981              		.align	1
 2982              		.p2align 4,,15
 2983              		.global	comm_can_get_status_msg_5_id
 2984              		.syntax unified
 2985              		.thumb
 2986              		.thumb_func
 2987              		.fpu fpv4-sp-d16
 2988              		.type	comm_can_get_status_msg_5_id, %function
 2989              	comm_can_get_status_msg_5_id:
 2990              	.LFB294:
 2991              		.loc 1 903 0
 2992              		.cfi_startproc
 2993              		@ args = 0, pretend = 0, frame = 0
 2994              		@ frame_needed = 0, uses_anonymous_args = 0
 2995              		@ link register save eliminated.
 2996              	.LVL252:
 2997 0000 10B4     		push	{r4}
 2998              		.cfi_def_cfa_offset 4
 2999              		.cfi_offset 4, -4
 3000 0002 084C     		ldr	r4, .L272
 3001              	.LBB443:
 3002              		.loc 1 904 0
 3003 0004 0023     		movs	r3, #0
 3004              	.LVL253:
 3005              	.L268:
 3006 0006 1A01     		lsls	r2, r3, #4
 3007 0008 0133     		adds	r3, r3, #1
 3008              	.LVL254:
 3009              		.loc 1 905 0
 3010 000a A158     		ldr	r1, [r4, r2]
 3011 000c 8142     		cmp	r1, r0
 3012 000e 05D0     		beq	.L271
 3013              		.loc 1 904 0 discriminator 2
 3014 0010 0A2B     		cmp	r3, #10
 3015 0012 F8D1     		bne	.L268
 3016              	.LBE443:
 3017              		.loc 1 910 0
 3018 0014 0020     		movs	r0, #0
 3019              	.LVL255:
 3020              		.loc 1 911 0
 3021 0016 5DF8044B 		ldr	r4, [sp], #4
ARM GAS  /tmp/ccuyDb88.s 			page 54


 3022              		.cfi_remember_state
 3023              		.cfi_restore 4
 3024              		.cfi_def_cfa_offset 0
 3025 001a 7047     		bx	lr
 3026              	.LVL256:
 3027              	.L271:
 3028              		.cfi_restore_state
 3029              	.LBB444:
 3030              		.loc 1 906 0
 3031 001c A018     		adds	r0, r4, r2
 3032              	.LVL257:
 3033              	.LBE444:
 3034              		.loc 1 911 0
 3035 001e 5DF8044B 		ldr	r4, [sp], #4
 3036              		.cfi_restore 4
 3037              		.cfi_def_cfa_offset 0
 3038 0022 7047     		bx	lr
 3039              	.L273:
 3040              		.align	2
 3041              	.L272:
 3042 0024 00000000 		.word	.LANCHOR10
 3043              		.cfi_endproc
 3044              	.LFE294:
 3045              		.size	comm_can_get_status_msg_5_id, .-comm_can_get_status_msg_5_id
 3046              		.section	.text.comm_can_get_io_board_adc_1_4_index,"ax",%progbits
 3047              		.align	1
 3048              		.p2align 4,,15
 3049              		.global	comm_can_get_io_board_adc_1_4_index
 3050              		.syntax unified
 3051              		.thumb
 3052              		.thumb_func
 3053              		.fpu fpv4-sp-d16
 3054              		.type	comm_can_get_io_board_adc_1_4_index, %function
 3055              	comm_can_get_io_board_adc_1_4_index:
 3056              	.LFB295:
 3057              		.loc 1 913 0
 3058              		.cfi_startproc
 3059              		@ args = 0, pretend = 0, frame = 0
 3060              		@ frame_needed = 0, uses_anonymous_args = 0
 3061              		@ link register save eliminated.
 3062              	.LVL258:
 3063              		.loc 1 914 0
 3064 0000 0928     		cmp	r0, #9
 3065              		.loc 1 915 0
 3066 0002 DDBF     		ittte	le
 3067 0004 034B     		ldrle	r3, .L277
 3068 0006 00EB4000 		addle	r0, r0, r0, lsl #1
 3069              	.LVL259:
 3070 000a 03EBC000 		addle	r0, r3, r0, lsl #3
 3071              		.loc 1 917 0
 3072 000e 0020     		movgt	r0, #0
 3073              		.loc 1 919 0
 3074 0010 7047     		bx	lr
 3075              	.L278:
 3076 0012 00BF     		.align	2
 3077              	.L277:
 3078 0014 00000000 		.word	.LANCHOR11
ARM GAS  /tmp/ccuyDb88.s 			page 55


 3079              		.cfi_endproc
 3080              	.LFE295:
 3081              		.size	comm_can_get_io_board_adc_1_4_index, .-comm_can_get_io_board_adc_1_4_index
 3082              		.section	.text.comm_can_get_io_board_adc_1_4_id,"ax",%progbits
 3083              		.align	1
 3084              		.p2align 4,,15
 3085              		.global	comm_can_get_io_board_adc_1_4_id
 3086              		.syntax unified
 3087              		.thumb
 3088              		.thumb_func
 3089              		.fpu fpv4-sp-d16
 3090              		.type	comm_can_get_io_board_adc_1_4_id, %function
 3091              	comm_can_get_io_board_adc_1_4_id:
 3092              	.LFB296:
 3093              		.loc 1 921 0
 3094              		.cfi_startproc
 3095              		@ args = 0, pretend = 0, frame = 0
 3096              		@ frame_needed = 0, uses_anonymous_args = 0
 3097              		@ link register save eliminated.
 3098              	.LVL260:
 3099 0000 10B4     		push	{r4}
 3100              		.cfi_def_cfa_offset 4
 3101              		.cfi_offset 4, -4
 3102 0002 0F4C     		ldr	r4, .L291
 3103              		.loc 1 922 0
 3104 0004 FF28     		cmp	r0, #255
 3105 0006 2268     		ldr	r2, [r4]
 3106 0008 14D0     		beq	.L288
 3107              	.L280:
 3108 000a 0D49     		ldr	r1, .L291
 3109              		.loc 1 921 0
 3110 000c 0023     		movs	r3, #0
 3111 000e 01E0     		b	.L283
 3112              	.LVL261:
 3113              	.L290:
 3114 0010 51F8182F 		ldr	r2, [r1, #24]!
 3115              	.LVL262:
 3116              	.L283:
 3117              	.LBB445:
 3118              		.loc 1 927 0
 3119 0014 9042     		cmp	r0, r2
 3120 0016 06D0     		beq	.L289
 3121              		.loc 1 926 0 discriminator 2
 3122 0018 0133     		adds	r3, r3, #1
 3123              	.LVL263:
 3124 001a 0A2B     		cmp	r3, #10
 3125 001c F8D1     		bne	.L290
 3126              	.LBE445:
 3127              		.loc 1 932 0
 3128 001e 0020     		movs	r0, #0
 3129              	.LVL264:
 3130              		.loc 1 933 0
 3131 0020 5DF8044B 		ldr	r4, [sp], #4
 3132              		.cfi_remember_state
 3133              		.cfi_restore 4
 3134              		.cfi_def_cfa_offset 0
 3135 0024 7047     		bx	lr
ARM GAS  /tmp/ccuyDb88.s 			page 56


 3136              	.LVL265:
 3137              	.L289:
 3138              		.cfi_restore_state
 3139              	.LBB446:
 3140              		.loc 1 928 0
 3141 0026 03EB4303 		add	r3, r3, r3, lsl #1
 3142              	.LVL266:
 3143 002a 04EBC300 		add	r0, r4, r3, lsl #3
 3144              	.LVL267:
 3145              	.LBE446:
 3146              		.loc 1 933 0
 3147 002e 5DF8044B 		ldr	r4, [sp], #4
 3148              		.cfi_remember_state
 3149              		.cfi_restore 4
 3150              		.cfi_def_cfa_offset 0
 3151 0032 7047     		bx	lr
 3152              	.LVL268:
 3153              	.L288:
 3154              		.cfi_restore_state
 3155              		.loc 1 922 0 discriminator 1
 3156 0034 002A     		cmp	r2, #0
 3157 0036 E8DB     		blt	.L280
 3158              		.loc 1 923 0
 3159 0038 2046     		mov	r0, r4
 3160              	.LVL269:
 3161              		.loc 1 933 0
 3162 003a 5DF8044B 		ldr	r4, [sp], #4
 3163              		.cfi_restore 4
 3164              		.cfi_def_cfa_offset 0
 3165 003e 7047     		bx	lr
 3166              	.L292:
 3167              		.align	2
 3168              	.L291:
 3169 0040 00000000 		.word	.LANCHOR11
 3170              		.cfi_endproc
 3171              	.LFE296:
 3172              		.size	comm_can_get_io_board_adc_1_4_id, .-comm_can_get_io_board_adc_1_4_id
 3173              		.section	.text.comm_can_get_io_board_adc_5_8_index,"ax",%progbits
 3174              		.align	1
 3175              		.p2align 4,,15
 3176              		.global	comm_can_get_io_board_adc_5_8_index
 3177              		.syntax unified
 3178              		.thumb
 3179              		.thumb_func
 3180              		.fpu fpv4-sp-d16
 3181              		.type	comm_can_get_io_board_adc_5_8_index, %function
 3182              	comm_can_get_io_board_adc_5_8_index:
 3183              	.LFB297:
 3184              		.loc 1 935 0
 3185              		.cfi_startproc
 3186              		@ args = 0, pretend = 0, frame = 0
 3187              		@ frame_needed = 0, uses_anonymous_args = 0
 3188              		@ link register save eliminated.
 3189              	.LVL270:
 3190              		.loc 1 936 0
 3191 0000 0928     		cmp	r0, #9
 3192              		.loc 1 937 0
ARM GAS  /tmp/ccuyDb88.s 			page 57


 3193 0002 DDBF     		ittte	le
 3194 0004 034B     		ldrle	r3, .L296
 3195 0006 00EB4000 		addle	r0, r0, r0, lsl #1
 3196              	.LVL271:
 3197 000a 03EBC000 		addle	r0, r3, r0, lsl #3
 3198              		.loc 1 939 0
 3199 000e 0020     		movgt	r0, #0
 3200              		.loc 1 941 0
 3201 0010 7047     		bx	lr
 3202              	.L297:
 3203 0012 00BF     		.align	2
 3204              	.L296:
 3205 0014 00000000 		.word	.LANCHOR12
 3206              		.cfi_endproc
 3207              	.LFE297:
 3208              		.size	comm_can_get_io_board_adc_5_8_index, .-comm_can_get_io_board_adc_5_8_index
 3209              		.section	.text.comm_can_get_io_board_adc_5_8_id,"ax",%progbits
 3210              		.align	1
 3211              		.p2align 4,,15
 3212              		.global	comm_can_get_io_board_adc_5_8_id
 3213              		.syntax unified
 3214              		.thumb
 3215              		.thumb_func
 3216              		.fpu fpv4-sp-d16
 3217              		.type	comm_can_get_io_board_adc_5_8_id, %function
 3218              	comm_can_get_io_board_adc_5_8_id:
 3219              	.LFB298:
 3220              		.loc 1 943 0
 3221              		.cfi_startproc
 3222              		@ args = 0, pretend = 0, frame = 0
 3223              		@ frame_needed = 0, uses_anonymous_args = 0
 3224              		@ link register save eliminated.
 3225              	.LVL272:
 3226 0000 10B4     		push	{r4}
 3227              		.cfi_def_cfa_offset 4
 3228              		.cfi_offset 4, -4
 3229 0002 0F4C     		ldr	r4, .L310
 3230              		.loc 1 944 0
 3231 0004 FF28     		cmp	r0, #255
 3232 0006 2268     		ldr	r2, [r4]
 3233 0008 14D0     		beq	.L307
 3234              	.L299:
 3235 000a 0D49     		ldr	r1, .L310
 3236              		.loc 1 943 0
 3237 000c 0023     		movs	r3, #0
 3238 000e 01E0     		b	.L302
 3239              	.LVL273:
 3240              	.L309:
 3241 0010 51F8182F 		ldr	r2, [r1, #24]!
 3242              	.LVL274:
 3243              	.L302:
 3244              	.LBB447:
 3245              		.loc 1 949 0
 3246 0014 9042     		cmp	r0, r2
 3247 0016 06D0     		beq	.L308
 3248              		.loc 1 948 0 discriminator 2
 3249 0018 0133     		adds	r3, r3, #1
ARM GAS  /tmp/ccuyDb88.s 			page 58


 3250              	.LVL275:
 3251 001a 0A2B     		cmp	r3, #10
 3252 001c F8D1     		bne	.L309
 3253              	.LBE447:
 3254              		.loc 1 954 0
 3255 001e 0020     		movs	r0, #0
 3256              	.LVL276:
 3257              		.loc 1 955 0
 3258 0020 5DF8044B 		ldr	r4, [sp], #4
 3259              		.cfi_remember_state
 3260              		.cfi_restore 4
 3261              		.cfi_def_cfa_offset 0
 3262 0024 7047     		bx	lr
 3263              	.LVL277:
 3264              	.L308:
 3265              		.cfi_restore_state
 3266              	.LBB448:
 3267              		.loc 1 950 0
 3268 0026 03EB4303 		add	r3, r3, r3, lsl #1
 3269              	.LVL278:
 3270 002a 04EBC300 		add	r0, r4, r3, lsl #3
 3271              	.LVL279:
 3272              	.LBE448:
 3273              		.loc 1 955 0
 3274 002e 5DF8044B 		ldr	r4, [sp], #4
 3275              		.cfi_remember_state
 3276              		.cfi_restore 4
 3277              		.cfi_def_cfa_offset 0
 3278 0032 7047     		bx	lr
 3279              	.LVL280:
 3280              	.L307:
 3281              		.cfi_restore_state
 3282              		.loc 1 944 0 discriminator 1
 3283 0034 002A     		cmp	r2, #0
 3284 0036 E8DB     		blt	.L299
 3285              		.loc 1 945 0
 3286 0038 2046     		mov	r0, r4
 3287              	.LVL281:
 3288              		.loc 1 955 0
 3289 003a 5DF8044B 		ldr	r4, [sp], #4
 3290              		.cfi_restore 4
 3291              		.cfi_def_cfa_offset 0
 3292 003e 7047     		bx	lr
 3293              	.L311:
 3294              		.align	2
 3295              	.L310:
 3296 0040 00000000 		.word	.LANCHOR12
 3297              		.cfi_endproc
 3298              	.LFE298:
 3299              		.size	comm_can_get_io_board_adc_5_8_id, .-comm_can_get_io_board_adc_5_8_id
 3300              		.section	.text.comm_can_get_io_board_digital_in_index,"ax",%progbits
 3301              		.align	1
 3302              		.p2align 4,,15
 3303              		.global	comm_can_get_io_board_digital_in_index
 3304              		.syntax unified
 3305              		.thumb
 3306              		.thumb_func
ARM GAS  /tmp/ccuyDb88.s 			page 59


 3307              		.fpu fpv4-sp-d16
 3308              		.type	comm_can_get_io_board_digital_in_index, %function
 3309              	comm_can_get_io_board_digital_in_index:
 3310              	.LFB299:
 3311              		.loc 1 957 0
 3312              		.cfi_startproc
 3313              		@ args = 0, pretend = 0, frame = 0
 3314              		@ frame_needed = 0, uses_anonymous_args = 0
 3315              		@ link register save eliminated.
 3316              	.LVL282:
 3317              		.loc 1 958 0
 3318 0000 0928     		cmp	r0, #9
 3319              		.loc 1 959 0
 3320 0002 DABF     		itte	le
 3321 0004 024B     		ldrle	r3, .L315
 3322 0006 03EB0010 		addle	r0, r3, r0, lsl #4
 3323              	.LVL283:
 3324              		.loc 1 961 0
 3325 000a 0020     		movgt	r0, #0
 3326              		.loc 1 963 0
 3327 000c 7047     		bx	lr
 3328              	.L316:
 3329 000e 00BF     		.align	2
 3330              	.L315:
 3331 0010 00000000 		.word	.LANCHOR13
 3332              		.cfi_endproc
 3333              	.LFE299:
 3334              		.size	comm_can_get_io_board_digital_in_index, .-comm_can_get_io_board_digital_in_index
 3335              		.section	.text.comm_can_get_io_board_digital_in_id,"ax",%progbits
 3336              		.align	1
 3337              		.p2align 4,,15
 3338              		.global	comm_can_get_io_board_digital_in_id
 3339              		.syntax unified
 3340              		.thumb
 3341              		.thumb_func
 3342              		.fpu fpv4-sp-d16
 3343              		.type	comm_can_get_io_board_digital_in_id, %function
 3344              	comm_can_get_io_board_digital_in_id:
 3345              	.LFB300:
 3346              		.loc 1 965 0
 3347              		.cfi_startproc
 3348              		@ args = 0, pretend = 0, frame = 0
 3349              		@ frame_needed = 0, uses_anonymous_args = 0
 3350              		@ link register save eliminated.
 3351              	.LVL284:
 3352 0000 0B49     		ldr	r1, .L329
 3353              		.loc 1 966 0
 3354 0002 FF28     		cmp	r0, #255
 3355 0004 0A68     		ldr	r2, [r1]
 3356 0006 0ED0     		beq	.L326
 3357              	.L322:
 3358 0008 0023     		movs	r3, #0
 3359 000a 00E0     		b	.L321
 3360              	.LVL285:
 3361              	.L328:
 3362 000c 8A58     		ldr	r2, [r1, r2]
 3363              	.LVL286:
ARM GAS  /tmp/ccuyDb88.s 			page 60


 3364              	.L321:
 3365              	.LBB449:
 3366              		.loc 1 971 0
 3367 000e 9042     		cmp	r0, r2
 3368 0010 06D0     		beq	.L327
 3369              		.loc 1 970 0 discriminator 2
 3370 0012 0133     		adds	r3, r3, #1
 3371              	.LVL287:
 3372 0014 0A2B     		cmp	r3, #10
 3373 0016 4FEA0312 		lsl	r2, r3, #4
 3374 001a F7D1     		bne	.L328
 3375              	.LBE449:
 3376              		.loc 1 976 0
 3377 001c 0020     		movs	r0, #0
 3378              	.LVL288:
 3379              		.loc 1 977 0
 3380 001e 7047     		bx	lr
 3381              	.LVL289:
 3382              	.L327:
 3383              	.LBB450:
 3384              		.loc 1 972 0
 3385 0020 01EB0310 		add	r0, r1, r3, lsl #4
 3386              	.LVL290:
 3387 0024 7047     		bx	lr
 3388              	.LVL291:
 3389              	.L326:
 3390              	.LBE450:
 3391              		.loc 1 966 0 discriminator 1
 3392 0026 002A     		cmp	r2, #0
 3393 0028 EEDB     		blt	.L322
 3394              		.loc 1 967 0
 3395 002a 0846     		mov	r0, r1
 3396              	.LVL292:
 3397 002c 7047     		bx	lr
 3398              	.L330:
 3399 002e 00BF     		.align	2
 3400              	.L329:
 3401 0030 00000000 		.word	.LANCHOR13
 3402              		.cfi_endproc
 3403              	.LFE300:
 3404              		.size	comm_can_get_io_board_digital_in_id, .-comm_can_get_io_board_digital_in_id
 3405              		.section	.text.comm_can_io_board_set_output_digital,"ax",%progbits
 3406              		.align	1
 3407              		.p2align 4,,15
 3408              		.global	comm_can_io_board_set_output_digital
 3409              		.syntax unified
 3410              		.thumb
 3411              		.thumb_func
 3412              		.fpu fpv4-sp-d16
 3413              		.type	comm_can_io_board_set_output_digital, %function
 3414              	comm_can_io_board_set_output_digital:
 3415              	.LFB301:
 3416              		.loc 1 979 0
 3417              		.cfi_startproc
 3418              		@ args = 0, pretend = 0, frame = 8
 3419              		@ frame_needed = 0, uses_anonymous_args = 0
 3420              	.LVL293:
ARM GAS  /tmp/ccuyDb88.s 			page 61


 3421 0000 00B5     		push	{lr}
 3422              		.cfi_def_cfa_offset 4
 3423              		.cfi_offset 14, -4
 3424 0002 83B0     		sub	sp, sp, #12
 3425              		.cfi_def_cfa_offset 16
 3426              		.loc 1 984 0
 3427 0004 0123     		movs	r3, #1
 3428              		.loc 1 983 0
 3429 0006 8DF80010 		strb	r1, [sp]
 3430              	.LVL294:
 3431              		.loc 1 985 0
 3432 000a 8DF80220 		strb	r2, [sp, #2]
 3433              		.loc 1 987 0
 3434 000e 40F41050 		orr	r0, r0, #9216
 3435              	.LVL295:
 3436 0012 0322     		movs	r2, #3
 3437              	.LVL296:
 3438 0014 6946     		mov	r1, sp
 3439              	.LVL297:
 3440              		.loc 1 984 0
 3441 0016 8DF80130 		strb	r3, [sp, #1]
 3442              	.LVL298:
 3443              		.loc 1 987 0
 3444 001a FFF7FEFF 		bl	comm_can_transmit_eid_replace.constprop.2
 3445              	.LVL299:
 3446              		.loc 1 989 0
 3447 001e 03B0     		add	sp, sp, #12
 3448              		.cfi_def_cfa_offset 4
 3449              		@ sp needed
 3450 0020 5DF804FB 		ldr	pc, [sp], #4
 3451              		.cfi_endproc
 3452              	.LFE301:
 3453              		.size	comm_can_io_board_set_output_digital, .-comm_can_io_board_set_output_digital
 3454              		.section	.text.comm_can_io_board_set_output_pwm,"ax",%progbits
 3455              		.align	1
 3456              		.p2align 4,,15
 3457              		.global	comm_can_io_board_set_output_pwm
 3458              		.syntax unified
 3459              		.thumb
 3460              		.thumb_func
 3461              		.fpu fpv4-sp-d16
 3462              		.type	comm_can_io_board_set_output_pwm, %function
 3463              	comm_can_io_board_set_output_pwm:
 3464              	.LFB302:
 3465              		.loc 1 991 0
 3466              		.cfi_startproc
 3467              		@ args = 0, pretend = 0, frame = 16
 3468              		@ frame_needed = 0, uses_anonymous_args = 0
 3469              	.LVL300:
 3470 0000 10B5     		push	{r4, lr}
 3471              		.cfi_def_cfa_offset 8
 3472              		.cfi_offset 4, -8
 3473              		.cfi_offset 14, -4
 3474 0002 84B0     		sub	sp, sp, #16
 3475              		.cfi_def_cfa_offset 24
 3476              		.loc 1 995 0
 3477 0004 0123     		movs	r3, #1
ARM GAS  /tmp/ccuyDb88.s 			page 62


 3478              		.loc 1 991 0
 3479 0006 0446     		mov	r4, r0
 3480              		.loc 1 995 0
 3481 0008 8DF80810 		strb	r1, [sp, #8]
 3482              		.loc 1 996 0
 3483 000c 02A8     		add	r0, sp, #8
 3484              	.LVL301:
 3485 000e 01A9     		add	r1, sp, #4
 3486              	.LVL302:
 3487 0010 DFED060A 		vldr.32	s1, .L335
 3488              		.loc 1 995 0
 3489 0014 0193     		str	r3, [sp, #4]
 3490              		.loc 1 996 0
 3491 0016 FFF7FEFF 		bl	buffer_append_float16
 3492              	.LVL303:
 3493              		.loc 1 998 0
 3494 001a 02A9     		add	r1, sp, #8
 3495 001c 44F41450 		orr	r0, r4, #9472
 3496 0020 9DF80420 		ldrb	r2, [sp, #4]	@ zero_extendqisi2
 3497 0024 FFF7FEFF 		bl	comm_can_transmit_eid_replace.constprop.2
 3498              	.LVL304:
 3499              		.loc 1 1000 0
 3500 0028 04B0     		add	sp, sp, #16
 3501              		.cfi_def_cfa_offset 8
 3502              		@ sp needed
 3503 002a 10BD     		pop	{r4, pc}
 3504              	.LVL305:
 3505              	.L336:
 3506              		.align	2
 3507              	.L335:
 3508 002c 00007A44 		.word	1148846080
 3509              		.cfi_endproc
 3510              	.LFE302:
 3511              		.size	comm_can_io_board_set_output_pwm, .-comm_can_io_board_set_output_pwm
 3512              		.section	.text.comm_can_get_psw_status_index,"ax",%progbits
 3513              		.align	1
 3514              		.p2align 4,,15
 3515              		.global	comm_can_get_psw_status_index
 3516              		.syntax unified
 3517              		.thumb
 3518              		.thumb_func
 3519              		.fpu fpv4-sp-d16
 3520              		.type	comm_can_get_psw_status_index, %function
 3521              	comm_can_get_psw_status_index:
 3522              	.LFB303:
 3523              		.loc 1 1002 0
 3524              		.cfi_startproc
 3525              		@ args = 0, pretend = 0, frame = 0
 3526              		@ frame_needed = 0, uses_anonymous_args = 0
 3527              		@ link register save eliminated.
 3528              	.LVL306:
 3529              		.loc 1 1003 0
 3530 0000 0928     		cmp	r0, #9
 3531              		.loc 1 1004 0
 3532 0002 DDBF     		ittte	le
 3533 0004 034B     		ldrle	r3, .L340
 3534 0006 00EB4000 		addle	r0, r0, r0, lsl #1
ARM GAS  /tmp/ccuyDb88.s 			page 63


 3535              	.LVL307:
 3536 000a 03EBC000 		addle	r0, r3, r0, lsl #3
 3537              		.loc 1 1006 0
 3538 000e 0020     		movgt	r0, #0
 3539              		.loc 1 1008 0
 3540 0010 7047     		bx	lr
 3541              	.L341:
 3542 0012 00BF     		.align	2
 3543              	.L340:
 3544 0014 00000000 		.word	.LANCHOR14
 3545              		.cfi_endproc
 3546              	.LFE303:
 3547              		.size	comm_can_get_psw_status_index, .-comm_can_get_psw_status_index
 3548              		.section	.text.comm_can_get_psw_status_id,"ax",%progbits
 3549              		.align	1
 3550              		.p2align 4,,15
 3551              		.global	comm_can_get_psw_status_id
 3552              		.syntax unified
 3553              		.thumb
 3554              		.thumb_func
 3555              		.fpu fpv4-sp-d16
 3556              		.type	comm_can_get_psw_status_id, %function
 3557              	comm_can_get_psw_status_id:
 3558              	.LFB304:
 3559              		.loc 1 1010 0
 3560              		.cfi_startproc
 3561              		@ args = 0, pretend = 0, frame = 0
 3562              		@ frame_needed = 0, uses_anonymous_args = 0
 3563              		@ link register save eliminated.
 3564              	.LVL308:
 3565 0000 10B4     		push	{r4}
 3566              		.cfi_def_cfa_offset 4
 3567              		.cfi_offset 4, -4
 3568 0002 0B4C     		ldr	r4, .L349
 3569              	.LBB451:
 3570              		.loc 1 1011 0
 3571 0004 0023     		movs	r3, #0
 3572 0006 2246     		mov	r2, r4
 3573              	.LVL309:
 3574              	.L345:
 3575              		.loc 1 1012 0
 3576 0008 1168     		ldr	r1, [r2]
 3577 000a 8142     		cmp	r1, r0
 3578 000c 02F11802 		add	r2, r2, #24
 3579 0010 06D0     		beq	.L348
 3580              		.loc 1 1011 0 discriminator 2
 3581 0012 0133     		adds	r3, r3, #1
 3582              	.LVL310:
 3583 0014 0A2B     		cmp	r3, #10
 3584 0016 F7D1     		bne	.L345
 3585              	.LBE451:
 3586              		.loc 1 1017 0
 3587 0018 0020     		movs	r0, #0
 3588              	.LVL311:
 3589              		.loc 1 1018 0
 3590 001a 5DF8044B 		ldr	r4, [sp], #4
 3591              		.cfi_remember_state
ARM GAS  /tmp/ccuyDb88.s 			page 64


 3592              		.cfi_restore 4
 3593              		.cfi_def_cfa_offset 0
 3594 001e 7047     		bx	lr
 3595              	.LVL312:
 3596              	.L348:
 3597              		.cfi_restore_state
 3598              	.LBB452:
 3599              		.loc 1 1013 0
 3600 0020 03EB4303 		add	r3, r3, r3, lsl #1
 3601              	.LVL313:
 3602 0024 04EBC300 		add	r0, r4, r3, lsl #3
 3603              	.LVL314:
 3604              	.LBE452:
 3605              		.loc 1 1018 0
 3606 0028 5DF8044B 		ldr	r4, [sp], #4
 3607              		.cfi_restore 4
 3608              		.cfi_def_cfa_offset 0
 3609 002c 7047     		bx	lr
 3610              	.L350:
 3611 002e 00BF     		.align	2
 3612              	.L349:
 3613 0030 00000000 		.word	.LANCHOR14
 3614              		.cfi_endproc
 3615              	.LFE304:
 3616              		.size	comm_can_get_psw_status_id, .-comm_can_get_psw_status_id
 3617              		.section	.text.comm_can_psw_switch,"ax",%progbits
 3618              		.align	1
 3619              		.p2align 4,,15
 3620              		.global	comm_can_psw_switch
 3621              		.syntax unified
 3622              		.thumb
 3623              		.thumb_func
 3624              		.fpu fpv4-sp-d16
 3625              		.type	comm_can_psw_switch, %function
 3626              	comm_can_psw_switch:
 3627              	.LFB305:
 3628              		.loc 1 1020 0
 3629              		.cfi_startproc
 3630              		@ args = 0, pretend = 0, frame = 8
 3631              		@ frame_needed = 0, uses_anonymous_args = 0
 3632              	.LVL315:
 3633 0000 00B5     		push	{lr}
 3634              		.cfi_def_cfa_offset 4
 3635              		.cfi_offset 14, -4
 3636 0002 83B0     		sub	sp, sp, #12
 3637              		.cfi_def_cfa_offset 16
 3638              		.loc 1 1027 0
 3639 0004 40F43C50 		orr	r0, r0, #12032
 3640              	.LVL316:
 3641              		.loc 1 1024 0
 3642 0008 8DF80010 		strb	r1, [sp]
 3643              	.LVL317:
 3644              		.loc 1 1025 0
 3645 000c 8DF80120 		strb	r2, [sp, #1]
 3646              		.loc 1 1027 0
 3647 0010 6946     		mov	r1, sp
 3648              	.LVL318:
ARM GAS  /tmp/ccuyDb88.s 			page 65


 3649 0012 0222     		movs	r2, #2
 3650              	.LVL319:
 3651 0014 FFF7FEFF 		bl	comm_can_transmit_eid_replace.constprop.2
 3652              	.LVL320:
 3653              		.loc 1 1029 0
 3654 0018 03B0     		add	sp, sp, #12
 3655              		.cfi_def_cfa_offset 4
 3656              		@ sp needed
 3657 001a 5DF804FB 		ldr	pc, [sp], #4
 3658              		.cfi_endproc
 3659              	.LFE305:
 3660              		.size	comm_can_psw_switch, .-comm_can_psw_switch
 3661 001e 00BF     		.section	.text.comm_can_update_pid_pos_offset,"ax",%progbits
 3662              		.align	1
 3663              		.p2align 4,,15
 3664              		.global	comm_can_update_pid_pos_offset
 3665              		.syntax unified
 3666              		.thumb
 3667              		.thumb_func
 3668              		.fpu fpv4-sp-d16
 3669              		.type	comm_can_update_pid_pos_offset, %function
 3670              	comm_can_update_pid_pos_offset:
 3671              	.LFB306:
 3672              		.loc 1 1031 0
 3673              		.cfi_startproc
 3674              		@ args = 0, pretend = 0, frame = 16
 3675              		@ frame_needed = 0, uses_anonymous_args = 0
 3676              	.LVL321:
 3677 0000 70B5     		push	{r4, r5, r6, lr}
 3678              		.cfi_def_cfa_offset 16
 3679              		.cfi_offset 4, -16
 3680              		.cfi_offset 5, -12
 3681              		.cfi_offset 6, -8
 3682              		.cfi_offset 14, -4
 3683 0002 84B0     		sub	sp, sp, #16
 3684              		.cfi_def_cfa_offset 32
 3685              		.loc 1 1032 0
 3686 0004 04AB     		add	r3, sp, #16
 3687 0006 0022     		movs	r2, #0
 3688 0008 43F80C2D 		str	r2, [r3, #-12]!
 3689              		.loc 1 1031 0
 3690 000c 0646     		mov	r6, r0
 3691 000e 0D46     		mov	r5, r1
 3692              		.loc 1 1035 0
 3693 0010 02A8     		add	r0, sp, #8
 3694              	.LVL322:
 3695 0012 1946     		mov	r1, r3
 3696              	.LVL323:
 3697 0014 DFED090A 		vldr.32	s1, .L355
 3698 0018 FFF7FEFF 		bl	buffer_append_float32
 3699              	.LVL324:
 3700              		.loc 1 1036 0
 3701 001c 019B     		ldr	r3, [sp, #4]
 3702 001e 04AA     		add	r2, sp, #16
 3703 0020 D418     		adds	r4, r2, r3
 3704 0022 0133     		adds	r3, r3, #1
 3705              		.loc 1 1038 0
ARM GAS  /tmp/ccuyDb88.s 			page 66


 3706 0024 02A9     		add	r1, sp, #8
 3707 0026 46F45C50 		orr	r0, r6, #14080
 3708 002a DAB2     		uxtb	r2, r3
 3709              		.loc 1 1036 0
 3710 002c 04F8085C 		strb	r5, [r4, #-8]
 3711 0030 0193     		str	r3, [sp, #4]
 3712              		.loc 1 1038 0
 3713 0032 FFF7FEFF 		bl	comm_can_transmit_eid_replace.constprop.2
 3714              	.LVL325:
 3715              		.loc 1 1040 0
 3716 0036 04B0     		add	sp, sp, #16
 3717              		.cfi_def_cfa_offset 16
 3718              		@ sp needed
 3719 0038 70BD     		pop	{r4, r5, r6, pc}
 3720              	.LVL326:
 3721              	.L356:
 3722 003a 00BF     		.align	2
 3723              	.L355:
 3724 003c 00401C46 		.word	1176256512
 3725              		.cfi_endproc
 3726              	.LFE306:
 3727              		.size	comm_can_update_pid_pos_offset, .-comm_can_update_pid_pos_offset
 3728              		.section	.text.comm_can_get_rx_frame,"ax",%progbits
 3729              		.align	1
 3730              		.p2align 4,,15
 3731              		.global	comm_can_get_rx_frame
 3732              		.syntax unified
 3733              		.thumb
 3734              		.thumb_func
 3735              		.fpu fpv4-sp-d16
 3736              		.type	comm_can_get_rx_frame, %function
 3737              	comm_can_get_rx_frame:
 3738              	.LFB307:
 3739              		.loc 1 1042 0
 3740              		.cfi_startproc
 3741              		@ args = 0, pretend = 0, frame = 0
 3742              		@ frame_needed = 0, uses_anonymous_args = 0
 3743 0000 10B5     		push	{r4, lr}
 3744              		.cfi_def_cfa_offset 8
 3745              		.cfi_offset 4, -8
 3746              		.cfi_offset 14, -4
 3747              		.loc 1 1044 0
 3748 0002 0E48     		ldr	r0, .L364
 3749 0004 FFF7FEFF 		bl	chMtxLock
 3750              	.LVL327:
 3751              		.loc 1 1045 0
 3752 0008 0D4A     		ldr	r2, .L364+4
 3753 000a 0E49     		ldr	r1, .L364+8
 3754 000c 1368     		ldr	r3, [r2]
 3755 000e 0968     		ldr	r1, [r1]
 3756 0010 8B42     		cmp	r3, r1
 3757 0012 0ED0     		beq	.L358
 3758              	.LBB453:
 3759              		.loc 1 1046 0
 3760 0014 03EB8301 		add	r1, r3, r3, lsl #2
 3761 0018 0133     		adds	r3, r3, #1
 3762 001a 0B4C     		ldr	r4, .L364+12
ARM GAS  /tmp/ccuyDb88.s 			page 67


 3763              		.loc 1 1052 0
 3764 001c 0748     		ldr	r0, .L364
 3765              		.loc 1 1048 0
 3766 001e 642B     		cmp	r3, #100
 3767              		.loc 1 1049 0
 3768 0020 08BF     		it	eq
 3769 0022 0023     		moveq	r3, #0
 3770              		.loc 1 1046 0
 3771 0024 04EB8104 		add	r4, r4, r1, lsl #2
 3772              	.LVL328:
 3773              		.loc 1 1049 0
 3774 0028 1360     		str	r3, [r2]
 3775              		.loc 1 1052 0
 3776 002a FFF7FEFF 		bl	chMtxUnlock
 3777              	.LVL329:
 3778              	.L357:
 3779              	.LBE453:
 3780              		.loc 1 1061 0
 3781 002e 2046     		mov	r0, r4
 3782 0030 10BD     		pop	{r4, pc}
 3783              	.L358:
 3784              		.loc 1 1055 0
 3785 0032 0248     		ldr	r0, .L364
 3786 0034 FFF7FEFF 		bl	chMtxUnlock
 3787              	.LVL330:
 3788              		.loc 1 1056 0
 3789 0038 0024     		movs	r4, #0
 3790 003a F8E7     		b	.L357
 3791              	.L365:
 3792              		.align	2
 3793              	.L364:
 3794 003c 00000000 		.word	.LANCHOR0
 3795 0040 00000000 		.word	.LANCHOR15
 3796 0044 00000000 		.word	.LANCHOR1
 3797 0048 00000000 		.word	.LANCHOR2
 3798              		.cfi_endproc
 3799              	.LFE307:
 3800              		.size	comm_can_get_rx_frame, .-comm_can_get_rx_frame
 3801              		.section	.text.cancom_process_thread,"ax",%progbits
 3802              		.align	1
 3803              		.p2align 4,,15
 3804              		.syntax unified
 3805              		.thumb
 3806              		.thumb_func
 3807              		.fpu fpv4-sp-d16
 3808              		.type	cancom_process_thread, %function
 3809              	cancom_process_thread:
 3810              	.LFB314:
 3811              		.loc 1 1173 0
 3812              		.cfi_startproc
 3813              		@ args = 0, pretend = 0, frame = 56
 3814              		@ frame_needed = 0, uses_anonymous_args = 0
 3815              	.LVL331:
 3816 0000 2DE9F04F 		push	{r4, r5, r6, r7, r8, r9, r10, fp, lr}
 3817              		.cfi_def_cfa_offset 36
 3818              		.cfi_offset 4, -36
 3819              		.cfi_offset 5, -32
ARM GAS  /tmp/ccuyDb88.s 			page 68


 3820              		.cfi_offset 6, -28
 3821              		.cfi_offset 7, -24
 3822              		.cfi_offset 8, -20
 3823              		.cfi_offset 9, -16
 3824              		.cfi_offset 10, -12
 3825              		.cfi_offset 11, -8
 3826              		.cfi_offset 14, -4
 3827              	.LBB610:
 3828              	.LBB611:
 3829              		.loc 2 135 0
 3830 0004 914B     		ldr	r3, .L547
 3831              	.LBE611:
 3832              	.LBE610:
 3833              		.loc 1 1177 0
 3834 0006 924A     		ldr	r2, .L547+4
 3835              	.LBB614:
 3836              	.LBB612:
 3837              		.loc 2 135 0
 3838 0008 9B69     		ldr	r3, [r3, #24]
 3839 000a 9249     		ldr	r1, .L547+8
 3840 000c 924F     		ldr	r7, .L547+12
 3841 000e 934E     		ldr	r6, .L547+16
 3842              	.LBE612:
 3843              	.LBE614:
 3844              		.loc 1 1173 0
 3845 0010 2DED088B 		vpush.64	{d8, d9, d10, d11}
 3846              		.cfi_def_cfa_offset 68
 3847              		.cfi_offset 80, -68
 3848              		.cfi_offset 81, -64
 3849              		.cfi_offset 82, -60
 3850              		.cfi_offset 83, -56
 3851              		.cfi_offset 84, -52
 3852              		.cfi_offset 85, -48
 3853              		.cfi_offset 86, -44
 3854              		.cfi_offset 87, -40
 3855              	.LBB615:
 3856              	.LBB616:
 3857              	.LBB617:
 3858              	.LBB618:
 3859              	.LBB619:
 3860              	.LBB620:
 3861              	.LBB621:
 3862              	.LBB622:
 3863              		.loc 1 1822 0
 3864 0014 DFED928A 		vldr.32	s17, .L547+20
 3865              	.LBE622:
 3866              	.LBE621:
 3867              	.LBE620:
 3868              	.LBB640:
 3869              	.LBB641:
 3870              		.loc 1 1775 0
 3871 0018 DFED92AA 		vldr.32	s21, .L547+24
 3872              	.LBE641:
 3873              	.LBE640:
 3874              	.LBB658:
 3875              	.LBB659:
 3876              		.loc 1 1758 0
ARM GAS  /tmp/ccuyDb88.s 			page 69


 3877 001c DFED929A 		vldr.32	s19, .L547+28
 3878              	.LBE659:
 3879              	.LBE658:
 3880              	.LBB676:
 3881              	.LBB677:
 3882              		.loc 1 1731 0
 3883 0020 9FED929A 		vldr.32	s18, .L547+32
 3884              	.LBE677:
 3885              	.LBE676:
 3886              	.LBE619:
 3887              	.LBE618:
 3888              	.LBE617:
 3889              	.LBE616:
 3890              	.LBE615:
 3891              	.LBB816:
 3892              	.LBB613:
 3893              		.loc 2 135 0
 3894 0024 9961     		str	r1, [r3, #24]
 3895              	.LVL332:
 3896              	.LBE613:
 3897              	.LBE816:
 3898              		.loc 1 1173 0
 3899 0026 8FB0     		sub	sp, sp, #60
 3900              		.cfi_def_cfa_offset 128
 3901              		.loc 1 1177 0
 3902 0028 1360     		str	r3, [r2]
 3903              	.LVL333:
 3904              	.L368:
 3905              	.LBB817:
 3906              		.loc 1 1180 0
 3907 002a 0120     		movs	r0, #1
 3908 002c FFF7FEFF 		bl	chEvtWaitAny
 3909              	.LVL334:
 3910              		.loc 1 1182 0
 3911 0030 FFF7FEFF 		bl	app_get_configuration
 3912              	.LVL335:
 3913 0034 837E     		ldrb	r3, [r0, #26]	@ zero_extendqisi2
 3914 0036 012B     		cmp	r3, #1
 3915 0038 F7D0     		beq	.L368
 3916              		.loc 1 1184 0
 3917 003a FFF7FEFF 		bl	app_get_configuration
 3918              	.LVL336:
 3919 003e 837E     		ldrb	r3, [r0, #26]	@ zero_extendqisi2
 3920 0040 022B     		cmp	r3, #2
 3921 0042 72D0     		beq	.L369
 3922              	.LBB808:
 3923              	.LBB801:
 3924              	.LBB794:
 3925              	.LBB787:
 3926              	.LBB694:
 3927              		.loc 1 1709 0
 3928 0044 9FED8A8A 		vldr.32	s16, .L547+36
 3929              	.LBE694:
 3930              		.loc 1 1579 0
 3931 0048 DFF83492 		ldr	r9, .L547+52
 3932              	.L370:
 3933              	.LBE787:
ARM GAS  /tmp/ccuyDb88.s 			page 70


 3934              	.LBE794:
 3935              	.LBE801:
 3936              	.LBE808:
 3937              		.loc 1 1206 0
 3938 004c FFF7FEFF 		bl	comm_can_get_rx_frame
 3939              	.LVL337:
 3940 0050 0028     		cmp	r0, #0
 3941 0052 EAD0     		beq	.L368
 3942              	.LBB809:
 3943              		.loc 1 1207 0
 3944 0054 0446     		mov	r4, r0
 3945 0056 0FCC     		ldmia	r4!, {r0, r1, r2, r3}
 3946              	.LVL338:
 3947 0058 09AD     		add	r5, sp, #36
 3948 005a 0FC5     		stmia	r5!, {r0, r1, r2, r3}
 3949              		.loc 1 1209 0
 3950 005c 9DF82820 		ldrb	r2, [sp, #40]	@ zero_extendqisi2
 3951              		.loc 1 1207 0
 3952 0060 2368     		ldr	r3, [r4]
 3953 0062 2B60     		str	r3, [r5]
 3954              		.loc 1 1209 0
 3955 0064 9306     		lsls	r3, r2, #26
 3956 0066 40F10782 		bpl	.L377
 3957              	.LVL339:
 3958 006a 0B98     		ldr	r0, [sp, #44]
 3959              	.LBB802:
 3960              		.loc 1 1211 0
 3961 006c 3368     		ldr	r3, [r6]
 3962 006e 02F00F02 		and	r2, r2, #15
 3963 0072 C0F31C00 		ubfx	r0, r0, #0, #29
 3964 0076 53B1     		cbz	r3, .L378
 3965              		.loc 1 1212 0
 3966 0078 0CA9     		add	r1, sp, #48
 3967 007a 9847     		blx	r3
 3968              	.LVL340:
 3969              		.loc 1 1215 0
 3970 007c 0028     		cmp	r0, #0
 3971 007e E5D1     		bne	.L370
 3972 0080 0B98     		ldr	r0, [sp, #44]
 3973              	.LVL341:
 3974 0082 9DF82820 		ldrb	r2, [sp, #40]	@ zero_extendqisi2
 3975 0086 C0F31C00 		ubfx	r0, r0, #0, #29
 3976 008a 02F00F02 		and	r2, r2, #15
 3977              	.L378:
 3978              		.loc 1 1216 0
 3979 008e 0123     		movs	r3, #1
 3980 0090 0CA9     		add	r1, sp, #48
 3981 0092 FFF7FEFF 		bl	bms_process_can_frame
 3982              	.LVL342:
 3983 0096 0028     		cmp	r0, #0
 3984 0098 D8D1     		bne	.L370
 3985              		.loc 1 1217 0
 3986 009a 0B9C     		ldr	r4, [sp, #44]
 3987              	.LVL343:
 3988 009c 9DF82880 		ldrb	r8, [sp, #40]	@ zero_extendqisi2
 3989              	.LBB795:
 3990              	.LBB788:
ARM GAS  /tmp/ccuyDb88.s 			page 71


 3991              		.loc 1 1348 0
 3992 00a0 0690     		str	r0, [sp, #24]
 3993              	.LBE788:
 3994              	.LBE795:
 3995              		.loc 1 1217 0
 3996 00a2 C4F31C04 		ubfx	r4, r4, #0, #29
 3997              	.LBB796:
 3998              	.LBB789:
 3999              		.loc 1 1355 0
 4000 00a6 E5B2     		uxtb	r5, r4
 4001              		.loc 1 1358 0
 4002 00a8 FFF7FEFF 		bl	app_get_configuration
 4003              	.LVL344:
 4004              		.loc 1 1374 0
 4005 00ac FF2D     		cmp	r5, #255
 4006              		.loc 1 1356 0
 4007 00ae 4FEA1424 		lsr	r4, r4, #8
 4008              	.LBE789:
 4009              	.LBE796:
 4010              		.loc 1 1217 0
 4011 00b2 08F00F08 		and	r8, r8, #15
 4012              	.LVL345:
 4013              	.LBB797:
 4014              	.LBB790:
 4015              		.loc 1 1374 0
 4016 00b6 00F0FC81 		beq	.L382
 4017              		.loc 1 1358 0
 4018 00ba 0378     		ldrb	r3, [r0]	@ zero_extendqisi2
 4019              		.loc 1 1374 0
 4020 00bc AB42     		cmp	r3, r5
 4021 00be 00F0F881 		beq	.L382
 4022              	.LVL346:
 4023              	.L383:
 4024              		.loc 1 1721 0
 4025 00c2 093C     		subs	r4, r4, #9
 4026              	.LVL347:
 4027 00c4 252C     		cmp	r4, #37
 4028 00c6 74D8     		bhi	.L536
 4029 00c8 DFE814F0 		tbh	[pc, r4, lsl #1]
 4030              	.L439:
 4031 00cc 9001     		.2byte	(.L438-.L439)/2
 4032 00ce 7300     		.2byte	(.L536-.L439)/2
 4033 00d0 7300     		.2byte	(.L536-.L439)/2
 4034 00d2 7300     		.2byte	(.L536-.L439)/2
 4035 00d4 7300     		.2byte	(.L536-.L439)/2
 4036 00d6 7201     		.2byte	(.L440-.L439)/2
 4037 00d8 8101     		.2byte	(.L441-.L439)/2
 4038 00da 1E01     		.2byte	(.L442-.L439)/2
 4039 00dc 7300     		.2byte	(.L536-.L439)/2
 4040 00de 7300     		.2byte	(.L536-.L439)/2
 4041 00e0 7300     		.2byte	(.L536-.L439)/2
 4042 00e2 7300     		.2byte	(.L536-.L439)/2
 4043 00e4 7300     		.2byte	(.L536-.L439)/2
 4044 00e6 7300     		.2byte	(.L536-.L439)/2
 4045 00e8 7300     		.2byte	(.L536-.L439)/2
 4046 00ea 7300     		.2byte	(.L536-.L439)/2
 4047 00ec 7300     		.2byte	(.L536-.L439)/2
ARM GAS  /tmp/ccuyDb88.s 			page 72


 4048 00ee 7300     		.2byte	(.L536-.L439)/2
 4049 00f0 0F01     		.2byte	(.L443-.L439)/2
 4050 00f2 7300     		.2byte	(.L536-.L439)/2
 4051 00f4 7300     		.2byte	(.L536-.L439)/2
 4052 00f6 7300     		.2byte	(.L536-.L439)/2
 4053 00f8 7300     		.2byte	(.L536-.L439)/2
 4054 00fa DC00     		.2byte	(.L444-.L439)/2
 4055 00fc 8E00     		.2byte	(.L445-.L439)/2
 4056 00fe 7300     		.2byte	(.L536-.L439)/2
 4057 0100 7F00     		.2byte	(.L446-.L439)/2
 4058 0102 7300     		.2byte	(.L536-.L439)/2
 4059 0104 7300     		.2byte	(.L536-.L439)/2
 4060 0106 7300     		.2byte	(.L536-.L439)/2
 4061 0108 7300     		.2byte	(.L536-.L439)/2
 4062 010a 7300     		.2byte	(.L536-.L439)/2
 4063 010c 7300     		.2byte	(.L536-.L439)/2
 4064 010e 7300     		.2byte	(.L536-.L439)/2
 4065 0110 7300     		.2byte	(.L536-.L439)/2
 4066 0112 7300     		.2byte	(.L536-.L439)/2
 4067 0114 7300     		.2byte	(.L536-.L439)/2
 4068 0116 6500     		.2byte	(.L447-.L439)/2
 4069              	.LVL348:
 4070              		.p2align 1
 4071              	.L373:
 4072              	.LBE790:
 4073              	.LBE797:
 4074              	.LBE802:
 4075              	.LBE809:
 4076              	.LBB810:
 4077              	.LBB811:
 4078              		.loc 1 1198 0
 4079 0118 03F00F02 		and	r2, r3, #15
 4080              		.loc 1 1197 0
 4081 011c 3368     		ldr	r3, [r6]
 4082              		.loc 1 1198 0
 4083 011e 0CA9     		add	r1, sp, #48
 4084              		.loc 1 1197 0
 4085 0120 1BB1     		cbz	r3, .L369
 4086              		.loc 1 1198 0
 4087 0122 0B98     		ldr	r0, [sp, #44]
 4088 0124 20F06040 		bic	r0, r0, #-536870912
 4089 0128 9847     		blx	r3
 4090              	.LVL349:
 4091              	.L369:
 4092              	.LBE811:
 4093              		.loc 1 1186 0
 4094 012a FFF7FEFF 		bl	comm_can_get_rx_frame
 4095              	.LVL350:
 4096              	.LBB812:
 4097              		.loc 1 1187 0
 4098 012e 09AD     		add	r5, sp, #36
 4099 0130 0446     		mov	r4, r0
 4100              	.LBE812:
 4101              		.loc 1 1186 0
 4102 0132 0028     		cmp	r0, #0
 4103 0134 3FF479AF 		beq	.L368
 4104              	.L375:
ARM GAS  /tmp/ccuyDb88.s 			page 73


 4105              	.LBB813:
 4106              		.loc 1 1187 0
 4107 0138 0FCC     		ldmia	r4!, {r0, r1, r2, r3}
 4108              	.LVL351:
 4109 013a 0FC5     		stmia	r5!, {r0, r1, r2, r3}
 4110              		.loc 1 1188 0
 4111 013c 9DF82830 		ldrb	r3, [sp, #40]	@ zero_extendqisi2
 4112              		.loc 1 1187 0
 4113 0140 2268     		ldr	r2, [r4]
 4114 0142 2A60     		str	r2, [r5]
 4115              		.loc 1 1188 0
 4116 0144 03F00F00 		and	r0, r3, #15
 4117 0148 13F02003 		ands	r3, r3, #32
 4118              		.loc 1 1189 0
 4119 014c 15BF     		itete	ne
 4120 014e 0B9A     		ldrne	r2, [sp, #44]
 4121 0150 BDF82C20 		ldrheq	r2, [sp, #44]
 4122 0154 C2F31C02 		ubfxne	r2, r2, #0, #29
 4123              		.loc 1 1188 0
 4124 0158 C2F30A02 		ubfxeq	r2, r2, #0, #11
 4125 015c 0033     		adds	r3, r3, #0
 4126 015e 18BF     		it	ne
 4127 0160 0123     		movne	r3, #1
 4128 0162 0CA9     		add	r1, sp, #48
 4129 0164 FFF7FEFF 		bl	commands_fwd_can_frame
 4130              	.LVL352:
 4131              		.loc 1 1192 0
 4132 0168 9DF82830 		ldrb	r3, [sp, #40]	@ zero_extendqisi2
 4133 016c 13F0200F 		tst	r3, #32
 4134              		.loc 1 1194 0
 4135 0170 03F00F02 		and	r2, r3, #15
 4136 0174 0CA9     		add	r1, sp, #48
 4137              		.loc 1 1192 0
 4138 0176 CFD1     		bne	.L373
 4139              		.loc 1 1193 0
 4140 0178 3B68     		ldr	r3, [r7]
 4141 017a 002B     		cmp	r3, #0
 4142 017c D5D0     		beq	.L369
 4143              		.loc 1 1194 0
 4144 017e BDF82C00 		ldrh	r0, [sp, #44]
 4145 0182 C0F30A00 		ubfx	r0, r0, #0, #11
 4146 0186 9847     		blx	r3
 4147              	.LVL353:
 4148              	.LBE813:
 4149              		.loc 1 1186 0
 4150 0188 FFF7FEFF 		bl	comm_can_get_rx_frame
 4151              	.LVL354:
 4152              	.LBB814:
 4153              		.loc 1 1187 0
 4154 018c 09AD     		add	r5, sp, #36
 4155 018e 0446     		mov	r4, r0
 4156              	.LBE814:
 4157              		.loc 1 1186 0
 4158 0190 0028     		cmp	r0, #0
 4159 0192 D1D1     		bne	.L375
 4160 0194 49E7     		b	.L368
 4161              	.LVL355:
ARM GAS  /tmp/ccuyDb88.s 			page 74


 4162              	.L447:
 4163 0196 374A     		ldr	r2, .L547+40
 4164              	.LBE810:
 4165              	.LBB815:
 4166              	.LBB803:
 4167              	.LBB798:
 4168              	.LBB791:
 4169              	.LBB695:
 4170              		.loc 1 1848 0
 4171 0198 0023     		movs	r3, #0
 4172              	.L478:
 4173              	.LVL356:
 4174              	.LBB696:
 4175              		.loc 1 1850 0
 4176 019a 1168     		ldr	r1, [r2]
 4177 019c A942     		cmp	r1, r5
 4178 019e 02F11802 		add	r2, r2, #24
 4179 01a2 00F07D84 		beq	.L476
 4180 01a6 0131     		adds	r1, r1, #1
 4181 01a8 00F07A84 		beq	.L476
 4182              	.LBE696:
 4183              		.loc 1 1848 0
 4184 01ac 0133     		adds	r3, r3, #1
 4185              	.LVL357:
 4186 01ae 0A2B     		cmp	r3, #10
 4187 01b0 F3D1     		bne	.L478
 4188              	.LVL358:
 4189              	.L536:
 4190              	.LBE695:
 4191              	.LBE791:
 4192              	.LBE798:
 4193              	.LBE803:
 4194              	.LBB804:
 4195              		.loc 1 1235 0
 4196 01b2 9DF82820 		ldrb	r2, [sp, #40]	@ zero_extendqisi2
 4197 01b6 0B98     		ldr	r0, [sp, #44]
 4198 01b8 02F00F02 		and	r2, r2, #15
 4199 01bc 20F06040 		bic	r0, r0, #-536870912
 4200 01c0 0123     		movs	r3, #1
 4201 01c2 0CA9     		add	r1, sp, #48
 4202 01c4 FFF7FEFF 		bl	lispif_process_can
 4203              	.LVL359:
 4204 01c8 40E7     		b	.L370
 4205              	.LVL360:
 4206              	.L446:
 4207              	.LBE804:
 4208              	.LBB805:
 4209              	.LBB799:
 4210              	.LBB792:
 4211              	.LBB711:
 4212              		.loc 1 1830 0
 4213 01ca 0023     		movs	r3, #0
 4214              	.L475:
 4215              	.LVL361:
 4216              	.LBB712:
 4217              		.loc 1 1832 0
 4218 01cc 1A01     		lsls	r2, r3, #4
ARM GAS  /tmp/ccuyDb88.s 			page 75


 4219 01ce 2A49     		ldr	r1, .L547+44
 4220 01d0 8958     		ldr	r1, [r1, r2]
 4221 01d2 8D42     		cmp	r5, r1
 4222              	.LBE712:
 4223              		.loc 1 1830 0
 4224 01d4 03F10103 		add	r3, r3, #1
 4225              	.LVL362:
 4226              	.LBB726:
 4227              		.loc 1 1832 0
 4228 01d8 00F09884 		beq	.L471
 4229 01dc 0131     		adds	r1, r1, #1
 4230 01de 00F09584 		beq	.L471
 4231              	.LBE726:
 4232              		.loc 1 1830 0
 4233 01e2 0A2B     		cmp	r3, #10
 4234 01e4 F2D1     		bne	.L475
 4235 01e6 E4E7     		b	.L536
 4236              	.LVL363:
 4237              	.L445:
 4238 01e8 244A     		ldr	r2, .L547+48
 4239              	.LBE711:
 4240              	.LBB728:
 4241              	.LBB637:
 4242              		.loc 1 1815 0
 4243 01ea 1168     		ldr	r1, [r2]
 4244 01ec A942     		cmp	r1, r5
 4245              	.LBE637:
 4246              		.loc 1 1813 0
 4247 01ee 4FF00003 		mov	r3, #0
 4248              	.LVL364:
 4249 01f2 02F11802 		add	r2, r2, #24
 4250              	.LBB638:
 4251              		.loc 1 1815 0
 4252 01f6 09D0     		beq	.L467
 4253              	.LVL365:
 4254              	.L542:
 4255 01f8 0131     		adds	r1, r1, #1
 4256 01fa 07D0     		beq	.L467
 4257              	.LBE638:
 4258              		.loc 1 1813 0
 4259 01fc 0133     		adds	r3, r3, #1
 4260              	.LVL366:
 4261 01fe 0A2B     		cmp	r3, #10
 4262 0200 D7D0     		beq	.L536
 4263              	.LVL367:
 4264              	.LBB639:
 4265              		.loc 1 1815 0
 4266 0202 1168     		ldr	r1, [r2]
 4267 0204 A942     		cmp	r1, r5
 4268 0206 02F11802 		add	r2, r2, #24
 4269 020a F5D1     		bne	.L542
 4270              	.LVL368:
 4271              	.L467:
 4272              	.LBB636:
 4273              		.loc 1 1817 0
 4274 020c 03EB4303 		add	r3, r3, r3, lsl #1
 4275              	.LVL369:
ARM GAS  /tmp/ccuyDb88.s 			page 76


 4276 0210 1A4C     		ldr	r4, .L547+48
 4277              	.LVL370:
 4278 0212 DA00     		lsls	r2, r3, #3
 4279              		.loc 1 1816 0
 4280 0214 0021     		movs	r1, #0
 4281              		.loc 1 1817 0
 4282 0216 44F83350 		str	r5, [r4, r3, lsl #3]
 4283              		.loc 1 1816 0
 4284 021a 0691     		str	r1, [sp, #24]
 4285              		.loc 1 1817 0
 4286 021c A318     		adds	r3, r4, r2
 4287              	.LBB623:
 4288              	.LBB624:
 4289              	.LBB625:
 4290              	.LBB626:
 4291              	.LBB627:
 4292              	.LBB628:
 4293              		.file 5 "ChibiOS_3.0.5/os/ext/CMSIS/include/core_cmFunc.h"
 4294              		.loc 5 342 0
 4295              		.syntax unified
 4296              	@ 342 "ChibiOS_3.0.5/os/ext/CMSIS/include/core_cmFunc.h" 1
 4297 021e 72B6     		cpsid i
 4298              	@ 0 "" 2
 4299              		.thumb
 4300              		.syntax unified
 4301              	.LBE628:
 4302              	.LBE627:
 4303              	.LBE626:
 4304              	.LBE625:
 4305              	.LBB629:
 4306              	.LBB630:
 4307              		.file 6 "ChibiOS_3.0.5/os/rt/include/chvt.h"
 4308              		.loc 6 231 0
 4309 0220 0A48     		ldr	r0, .L547
 4310 0222 806A     		ldr	r0, [r0, #40]
 4311              	.LBE630:
 4312              	.LBE629:
 4313              	.LBB631:
 4314              	.LBB632:
 4315              	.LBB633:
 4316              	.LBB634:
 4317              	.LBB635:
 4318              		.loc 5 331 0
 4319              		.syntax unified
 4320              	@ 331 "ChibiOS_3.0.5/os/ext/CMSIS/include/core_cmFunc.h" 1
 4321 0224 62B6     		cpsie i
 4322              	@ 0 "" 2
 4323              		.thumb
 4324              		.syntax unified
 4325              	.LBE635:
 4326              	.LBE634:
 4327              	.LBE633:
 4328              	.LBE632:
 4329              	.LBE631:
 4330              	.LBE624:
 4331              	.LBE623:
 4332              		.loc 1 1818 0
ARM GAS  /tmp/ccuyDb88.s 			page 77


 4333 0226 5860     		str	r0, [r3, #4]
 4334              		.loc 1 1819 0
 4335 0228 0691     		str	r1, [sp, #24]
 4336              	.LVL371:
 4337              		.loc 1 1821 0
 4338 022a B8F1000F 		cmp	r8, #0
 4339 022e C0D0     		beq	.L536
 4340 0230 0832     		adds	r2, r2, #8
 4341 0232 1444     		add	r4, r4, r2
 4342              	.LVL372:
 4343              	.L469:
 4344              		.loc 1 1822 0
 4345 0234 06A9     		add	r1, sp, #24
 4346 0236 B0EE680A 		vmov.f32	s0, s17
 4347 023a 0CA8     		add	r0, sp, #48
 4348              	.LVL373:
 4349 023c FFF7FEFF 		bl	buffer_get_float16
 4350              	.LVL374:
 4351              		.loc 1 1821 0
 4352 0240 069B     		ldr	r3, [sp, #24]
 4353              		.loc 1 1822 0
 4354 0242 A4EC010A 		vstmia.32	r4!, {s0}
 4355              		.loc 1 1821 0
 4356 0246 9845     		cmp	r8, r3
 4357 0248 F4DC     		bgt	.L469
 4358 024a B2E7     		b	.L536
 4359              	.L548:
 4360              		.align	2
 4361              	.L547:
 4362 024c 00000000 		.word	ch
 4363 0250 00000000 		.word	.LANCHOR3
 4364 0254 00000000 		.word	.LC1
 4365 0258 00000000 		.word	.LANCHOR20
 4366 025c 00000000 		.word	.LANCHOR21
 4367 0260 0000C842 		.word	1120403456
 4368 0264 00004842 		.word	1112014848
 4369 0268 00401C46 		.word	1176256512
 4370 026c 00007A44 		.word	1148846080
 4371 0270 0050C347 		.word	1203982336
 4372 0274 00000000 		.word	.LANCHOR14
 4373 0278 00000000 		.word	.LANCHOR13
 4374 027c 00000000 		.word	.LANCHOR12
 4375 0280 1F85EB51 		.word	1374389535
 4376              	.LVL375:
 4377              	.L444:
 4378 0284 C74A     		ldr	r2, .L549
 4379              	.LBE636:
 4380              	.LBE639:
 4381              	.LBE728:
 4382              	.LBB729:
 4383              	.LBB730:
 4384              		.loc 1 1798 0
 4385 0286 1168     		ldr	r1, [r2]
 4386 0288 A942     		cmp	r1, r5
 4387              	.LBE730:
 4388              		.loc 1 1796 0
 4389 028a 4FF00003 		mov	r3, #0
ARM GAS  /tmp/ccuyDb88.s 			page 78


 4390              	.LVL376:
 4391 028e 02F11802 		add	r2, r2, #24
 4392              	.LBB745:
 4393              		.loc 1 1798 0
 4394 0292 09D0     		beq	.L463
 4395              	.LVL377:
 4396              	.L543:
 4397 0294 0131     		adds	r1, r1, #1
 4398 0296 07D0     		beq	.L463
 4399              	.LBE745:
 4400              		.loc 1 1796 0
 4401 0298 0133     		adds	r3, r3, #1
 4402              	.LVL378:
 4403 029a 0A2B     		cmp	r3, #10
 4404 029c 89D0     		beq	.L536
 4405              	.LVL379:
 4406              	.LBB746:
 4407              		.loc 1 1798 0
 4408 029e 1168     		ldr	r1, [r2]
 4409 02a0 A942     		cmp	r1, r5
 4410 02a2 02F11802 		add	r2, r2, #24
 4411 02a6 F5D1     		bne	.L543
 4412              	.LVL380:
 4413              	.L463:
 4414              	.LBB731:
 4415              		.loc 1 1800 0
 4416 02a8 03EB4303 		add	r3, r3, r3, lsl #1
 4417              	.LVL381:
 4418 02ac BD4C     		ldr	r4, .L549
 4419              	.LVL382:
 4420 02ae DA00     		lsls	r2, r3, #3
 4421              		.loc 1 1799 0
 4422 02b0 0021     		movs	r1, #0
 4423              		.loc 1 1800 0
 4424 02b2 44F83350 		str	r5, [r4, r3, lsl #3]
 4425              		.loc 1 1799 0
 4426 02b6 0691     		str	r1, [sp, #24]
 4427              		.loc 1 1800 0
 4428 02b8 A318     		adds	r3, r4, r2
 4429              	.LBB732:
 4430              	.LBB733:
 4431              	.LBB734:
 4432              	.LBB735:
 4433              	.LBB736:
 4434              	.LBB737:
 4435              		.loc 5 342 0
 4436              		.syntax unified
 4437              	@ 342 "ChibiOS_3.0.5/os/ext/CMSIS/include/core_cmFunc.h" 1
 4438 02ba 72B6     		cpsid i
 4439              	@ 0 "" 2
 4440              		.thumb
 4441              		.syntax unified
 4442              	.LBE737:
 4443              	.LBE736:
 4444              	.LBE735:
 4445              	.LBE734:
 4446              	.LBB738:
ARM GAS  /tmp/ccuyDb88.s 			page 79


 4447              	.LBB739:
 4448              		.loc 6 231 0
 4449 02bc BA48     		ldr	r0, .L549+4
 4450 02be 806A     		ldr	r0, [r0, #40]
 4451              	.LBE739:
 4452              	.LBE738:
 4453              	.LBB740:
 4454              	.LBB741:
 4455              	.LBB742:
 4456              	.LBB743:
 4457              	.LBB744:
 4458              		.loc 5 331 0
 4459              		.syntax unified
 4460              	@ 331 "ChibiOS_3.0.5/os/ext/CMSIS/include/core_cmFunc.h" 1
 4461 02c0 62B6     		cpsie i
 4462              	@ 0 "" 2
 4463              		.thumb
 4464              		.syntax unified
 4465              	.LBE744:
 4466              	.LBE743:
 4467              	.LBE742:
 4468              	.LBE741:
 4469              	.LBE740:
 4470              	.LBE733:
 4471              	.LBE732:
 4472              		.loc 1 1801 0
 4473 02c2 5860     		str	r0, [r3, #4]
 4474              		.loc 1 1802 0
 4475 02c4 0691     		str	r1, [sp, #24]
 4476              	.LVL383:
 4477              		.loc 1 1804 0
 4478 02c6 B8F1000F 		cmp	r8, #0
 4479 02ca 3FF472AF 		beq	.L536
 4480 02ce 0832     		adds	r2, r2, #8
 4481 02d0 1444     		add	r4, r4, r2
 4482              	.LVL384:
 4483              	.L465:
 4484              		.loc 1 1805 0
 4485 02d2 06A9     		add	r1, sp, #24
 4486 02d4 B0EE680A 		vmov.f32	s0, s17
 4487 02d8 0CA8     		add	r0, sp, #48
 4488              	.LVL385:
 4489 02da FFF7FEFF 		bl	buffer_get_float16
 4490              	.LVL386:
 4491              		.loc 1 1804 0
 4492 02de 069B     		ldr	r3, [sp, #24]
 4493              		.loc 1 1805 0
 4494 02e0 A4EC010A 		vstmia.32	r4!, {s0}
 4495              		.loc 1 1804 0
 4496 02e4 9845     		cmp	r8, r3
 4497 02e6 F4DC     		bgt	.L465
 4498 02e8 63E7     		b	.L536
 4499              	.LVL387:
 4500              	.L443:
 4501              	.LBE731:
 4502              	.LBE746:
 4503              	.LBE729:
ARM GAS  /tmp/ccuyDb88.s 			page 80


 4504              	.LBB747:
 4505              		.loc 1 1782 0
 4506 02ea 0023     		movs	r3, #0
 4507              	.L462:
 4508              	.LVL388:
 4509              	.LBB748:
 4510              		.loc 1 1784 0
 4511 02ec 1901     		lsls	r1, r3, #4
 4512 02ee AF4A     		ldr	r2, .L549+8
 4513 02f0 5258     		ldr	r2, [r2, r1]
 4514 02f2 9542     		cmp	r5, r2
 4515              	.LBE748:
 4516              		.loc 1 1782 0
 4517 02f4 03F10103 		add	r3, r3, #1
 4518              	.LVL389:
 4519              	.LBB762:
 4520              		.loc 1 1784 0
 4521 02f8 00F03E84 		beq	.L460
 4522 02fc 0132     		adds	r2, r2, #1
 4523 02fe 00F03B84 		beq	.L460
 4524              	.LBE762:
 4525              		.loc 1 1782 0
 4526 0302 0A2B     		cmp	r3, #10
 4527 0304 F2D1     		bne	.L462
 4528 0306 54E7     		b	.L536
 4529              	.LVL390:
 4530              	.L442:
 4531 0308 A94A     		ldr	r2, .L549+12
 4532              	.LBE747:
 4533              	.LBB764:
 4534              	.LBB655:
 4535              		.loc 1 1768 0
 4536 030a 1168     		ldr	r1, [r2]
 4537 030c A942     		cmp	r1, r5
 4538              	.LBE655:
 4539              		.loc 1 1766 0
 4540 030e 4FF00003 		mov	r3, #0
 4541              	.LVL391:
 4542 0312 02F11802 		add	r2, r2, #24
 4543              	.LBB656:
 4544              		.loc 1 1768 0
 4545 0316 0AD0     		beq	.L457
 4546              	.LVL392:
 4547              	.L544:
 4548 0318 0131     		adds	r1, r1, #1
 4549 031a 08D0     		beq	.L457
 4550              	.LBE656:
 4551              		.loc 1 1766 0
 4552 031c 0133     		adds	r3, r3, #1
 4553              	.LVL393:
 4554 031e 0A2B     		cmp	r3, #10
 4555 0320 3FF447AF 		beq	.L536
 4556              	.LVL394:
 4557              	.LBB657:
 4558              		.loc 1 1768 0
 4559 0324 1168     		ldr	r1, [r2]
 4560 0326 A942     		cmp	r1, r5
ARM GAS  /tmp/ccuyDb88.s 			page 81


 4561 0328 02F11802 		add	r2, r2, #24
 4562 032c F4D1     		bne	.L544
 4563              	.LVL395:
 4564              	.L457:
 4565              		.loc 1 1770 0
 4566 032e 03EB4303 		add	r3, r3, r3, lsl #1
 4567              	.LVL396:
 4568 0332 9F49     		ldr	r1, .L549+12
 4569              		.loc 1 1769 0
 4570 0334 0022     		movs	r2, #0
 4571              		.loc 1 1770 0
 4572 0336 41F83350 		str	r5, [r1, r3, lsl #3]
 4573 033a 01EBC304 		add	r4, r1, r3, lsl #3
 4574              	.LVL397:
 4575              		.loc 1 1769 0
 4576 033e 0692     		str	r2, [sp, #24]
 4577              	.LBB642:
 4578              	.LBB643:
 4579              	.LBB644:
 4580              	.LBB645:
 4581              	.LBB646:
 4582              	.LBB647:
 4583              		.loc 5 342 0
 4584              		.syntax unified
 4585              	@ 342 "ChibiOS_3.0.5/os/ext/CMSIS/include/core_cmFunc.h" 1
 4586 0340 72B6     		cpsid i
 4587              	@ 0 "" 2
 4588              		.thumb
 4589              		.syntax unified
 4590              	.LBE647:
 4591              	.LBE646:
 4592              	.LBE645:
 4593              	.LBE644:
 4594              	.LBB648:
 4595              	.LBB649:
 4596              		.loc 6 231 0
 4597 0342 994B     		ldr	r3, .L549+4
 4598 0344 9B6A     		ldr	r3, [r3, #40]
 4599              	.LBE649:
 4600              	.LBE648:
 4601              	.LBB650:
 4602              	.LBB651:
 4603              	.LBB652:
 4604              	.LBB653:
 4605              	.LBB654:
 4606              		.loc 5 331 0
 4607              		.syntax unified
 4608              	@ 331 "ChibiOS_3.0.5/os/ext/CMSIS/include/core_cmFunc.h" 1
 4609 0346 62B6     		cpsie i
 4610              	@ 0 "" 2
 4611              		.thumb
 4612              		.syntax unified
 4613              	.LBE654:
 4614              	.LBE653:
 4615              	.LBE652:
 4616              	.LBE651:
 4617              	.LBE650:
ARM GAS  /tmp/ccuyDb88.s 			page 82


 4618              	.LBE643:
 4619              	.LBE642:
 4620              		.loc 1 1771 0
 4621 0348 6360     		str	r3, [r4, #4]
 4622              		.loc 1 1772 0
 4623 034a 06A9     		add	r1, sp, #24
 4624 034c 0CA8     		add	r0, sp, #48
 4625              	.LVL398:
 4626 034e FFF7FEFF 		bl	buffer_get_int16
 4627              	.LVL399:
 4628 0352 07EE900A 		vmov	s15, r0	@ int
 4629 0356 B8EEE77A 		vcvt.f32.s32	s14, s15
 4630 035a B2EE04AA 		vmov.f32	s20, #1.0e+1
 4631 035e C7EE0A7A 		vdiv.f32	s15, s14, s20
 4632              		.loc 1 1773 0
 4633 0362 06A9     		add	r1, sp, #24
 4634 0364 0CA8     		add	r0, sp, #48
 4635              	.LVL400:
 4636              		.loc 1 1772 0
 4637 0366 C4ED027A 		vstr.32	s15, [r4, #8]
 4638              		.loc 1 1773 0
 4639 036a FFF7FEFF 		bl	buffer_get_int16
 4640              	.LVL401:
 4641 036e 07EE900A 		vmov	s15, r0	@ int
 4642 0372 B8EEE77A 		vcvt.f32.s32	s14, s15
 4643              		.loc 1 1774 0
 4644 0376 06A9     		add	r1, sp, #24
 4645              		.loc 1 1773 0
 4646 0378 C7EE0A7A 		vdiv.f32	s15, s14, s20
 4647              		.loc 1 1774 0
 4648 037c 0CA8     		add	r0, sp, #48
 4649              	.LVL402:
 4650              		.loc 1 1773 0
 4651 037e C4ED037A 		vstr.32	s15, [r4, #12]
 4652              		.loc 1 1774 0
 4653 0382 FFF7FEFF 		bl	buffer_get_int16
 4654              	.LVL403:
 4655 0386 07EE900A 		vmov	s15, r0	@ int
 4656 038a B8EEE77A 		vcvt.f32.s32	s14, s15
 4657              		.loc 1 1775 0
 4658 038e 06A9     		add	r1, sp, #24
 4659              		.loc 1 1774 0
 4660 0390 C7EE0A7A 		vdiv.f32	s15, s14, s20
 4661              		.loc 1 1775 0
 4662 0394 0CA8     		add	r0, sp, #48
 4663              	.LVL404:
 4664              		.loc 1 1774 0
 4665 0396 C4ED047A 		vstr.32	s15, [r4, #16]
 4666              		.loc 1 1775 0
 4667 039a FFF7FEFF 		bl	buffer_get_int16
 4668              	.LVL405:
 4669 039e 07EE900A 		vmov	s15, r0	@ int
 4670 03a2 B8EEE77A 		vcvt.f32.s32	s14, s15
 4671 03a6 C7EE2A7A 		vdiv.f32	s15, s14, s21
 4672 03aa C4ED057A 		vstr.32	s15, [r4, #20]
 4673 03ae 00E7     		b	.L536
 4674              	.LVL406:
ARM GAS  /tmp/ccuyDb88.s 			page 83


 4675              	.L440:
 4676              	.LBE657:
 4677              	.LBE764:
 4678              	.LBB765:
 4679              		.loc 1 1738 0
 4680 03b0 0023     		movs	r3, #0
 4681              	.L453:
 4682              	.LVL407:
 4683              	.LBB766:
 4684              		.loc 1 1740 0
 4685 03b2 1901     		lsls	r1, r3, #4
 4686 03b4 7F4A     		ldr	r2, .L549+16
 4687 03b6 5258     		ldr	r2, [r2, r1]
 4688 03b8 9542     		cmp	r5, r2
 4689              	.LBE766:
 4690              		.loc 1 1738 0
 4691 03ba 03F10103 		add	r3, r3, #1
 4692              	.LVL408:
 4693              	.LBB767:
 4694              		.loc 1 1740 0
 4695 03be 00F0FA83 		beq	.L451
 4696 03c2 0132     		adds	r2, r2, #1
 4697 03c4 00F0F783 		beq	.L451
 4698              	.LBE767:
 4699              		.loc 1 1738 0
 4700 03c8 0A2B     		cmp	r3, #10
 4701 03ca F2D1     		bne	.L453
 4702 03cc F1E6     		b	.L536
 4703              	.LVL409:
 4704              	.L441:
 4705              	.LBE765:
 4706              	.LBB769:
 4707              		.loc 1 1752 0
 4708 03ce 0023     		movs	r3, #0
 4709              	.L456:
 4710              	.LVL410:
 4711              	.LBB673:
 4712              		.loc 1 1754 0
 4713 03d0 1901     		lsls	r1, r3, #4
 4714 03d2 794A     		ldr	r2, .L549+20
 4715 03d4 5258     		ldr	r2, [r2, r1]
 4716 03d6 9542     		cmp	r5, r2
 4717              	.LBE673:
 4718              		.loc 1 1752 0
 4719 03d8 03F10103 		add	r3, r3, #1
 4720              	.LVL411:
 4721              	.LBB674:
 4722              		.loc 1 1754 0
 4723 03dc 00F00F84 		beq	.L454
 4724 03e0 0132     		adds	r2, r2, #1
 4725 03e2 00F00C84 		beq	.L454
 4726              	.LBE674:
 4727              		.loc 1 1752 0
 4728 03e6 0A2B     		cmp	r3, #10
 4729 03e8 F2D1     		bne	.L456
 4730 03ea E2E6     		b	.L536
 4731              	.LVL412:
ARM GAS  /tmp/ccuyDb88.s 			page 84


 4732              	.L438:
 4733 03ec 734A     		ldr	r2, .L549+24
 4734              	.LBE769:
 4735              	.LBB770:
 4736              	.LBB691:
 4737              		.loc 1 1725 0
 4738 03ee 1168     		ldr	r1, [r2]
 4739 03f0 A942     		cmp	r1, r5
 4740              	.LBE691:
 4741              		.loc 1 1723 0
 4742 03f2 4FF00003 		mov	r3, #0
 4743              	.LVL413:
 4744 03f6 02F11402 		add	r2, r2, #20
 4745              	.LBB692:
 4746              		.loc 1 1725 0
 4747 03fa 0AD0     		beq	.L448
 4748              	.LVL414:
 4749              	.L545:
 4750 03fc 0131     		adds	r1, r1, #1
 4751 03fe 08D0     		beq	.L448
 4752              	.LBE692:
 4753              		.loc 1 1723 0
 4754 0400 0133     		adds	r3, r3, #1
 4755              	.LVL415:
 4756 0402 0A2B     		cmp	r3, #10
 4757 0404 3FF4D5AE 		beq	.L536
 4758              	.LVL416:
 4759              	.LBB693:
 4760              		.loc 1 1725 0
 4761 0408 1168     		ldr	r1, [r2]
 4762 040a A942     		cmp	r1, r5
 4763 040c 02F11402 		add	r2, r2, #20
 4764 0410 F4D1     		bne	.L545
 4765              	.LVL417:
 4766              	.L448:
 4767              		.loc 1 1727 0
 4768 0412 03EB8303 		add	r3, r3, r3, lsl #2
 4769              	.LVL418:
 4770 0416 6949     		ldr	r1, .L549+24
 4771              		.loc 1 1726 0
 4772 0418 0022     		movs	r2, #0
 4773              		.loc 1 1727 0
 4774 041a 41F82350 		str	r5, [r1, r3, lsl #2]
 4775 041e 01EB8304 		add	r4, r1, r3, lsl #2
 4776              	.LVL419:
 4777              		.loc 1 1726 0
 4778 0422 0692     		str	r2, [sp, #24]
 4779              	.LBB678:
 4780              	.LBB679:
 4781              	.LBB680:
 4782              	.LBB681:
 4783              	.LBB682:
 4784              	.LBB683:
 4785              		.loc 5 342 0
 4786              		.syntax unified
 4787              	@ 342 "ChibiOS_3.0.5/os/ext/CMSIS/include/core_cmFunc.h" 1
 4788 0424 72B6     		cpsid i
ARM GAS  /tmp/ccuyDb88.s 			page 85


 4789              	@ 0 "" 2
 4790              		.thumb
 4791              		.syntax unified
 4792              	.LBE683:
 4793              	.LBE682:
 4794              	.LBE681:
 4795              	.LBE680:
 4796              	.LBB684:
 4797              	.LBB685:
 4798              		.loc 6 231 0
 4799 0426 604B     		ldr	r3, .L549+4
 4800 0428 9B6A     		ldr	r3, [r3, #40]
 4801              	.LBE685:
 4802              	.LBE684:
 4803              	.LBB686:
 4804              	.LBB687:
 4805              	.LBB688:
 4806              	.LBB689:
 4807              	.LBB690:
 4808              		.loc 5 331 0
 4809              		.syntax unified
 4810              	@ 331 "ChibiOS_3.0.5/os/ext/CMSIS/include/core_cmFunc.h" 1
 4811 042a 62B6     		cpsie i
 4812              	@ 0 "" 2
 4813              		.thumb
 4814              		.syntax unified
 4815              	.LBE690:
 4816              	.LBE689:
 4817              	.LBE688:
 4818              	.LBE687:
 4819              	.LBE686:
 4820              	.LBE679:
 4821              	.LBE678:
 4822              		.loc 1 1728 0
 4823 042c 6360     		str	r3, [r4, #4]
 4824              		.loc 1 1729 0
 4825 042e 06A9     		add	r1, sp, #24
 4826 0430 0CA8     		add	r0, sp, #48
 4827              	.LVL420:
 4828 0432 FFF7FEFF 		bl	buffer_get_int32
 4829              	.LVL421:
 4830 0436 07EE900A 		vmov	s15, r0	@ int
 4831 043a F8EEE77A 		vcvt.f32.s32	s15, s15
 4832              		.loc 1 1730 0
 4833 043e 06A9     		add	r1, sp, #24
 4834              		.loc 1 1729 0
 4835 0440 C4ED027A 		vstr.32	s15, [r4, #8]
 4836              		.loc 1 1730 0
 4837 0444 0CA8     		add	r0, sp, #48
 4838              	.LVL422:
 4839 0446 FFF7FEFF 		bl	buffer_get_int16
 4840              	.LVL423:
 4841 044a 07EE900A 		vmov	s15, r0	@ int
 4842 044e F8EEE76A 		vcvt.f32.s32	s13, s15
 4843 0452 B2EE047A 		vmov.f32	s14, #1.0e+1
 4844 0456 C6EE877A 		vdiv.f32	s15, s13, s14
 4845              		.loc 1 1731 0
ARM GAS  /tmp/ccuyDb88.s 			page 86


 4846 045a 06A9     		add	r1, sp, #24
 4847 045c 0CA8     		add	r0, sp, #48
 4848              	.LVL424:
 4849              		.loc 1 1730 0
 4850 045e C4ED037A 		vstr.32	s15, [r4, #12]
 4851              		.loc 1 1731 0
 4852 0462 FFF7FEFF 		bl	buffer_get_int16
 4853              	.LVL425:
 4854 0466 07EE900A 		vmov	s15, r0	@ int
 4855 046a B8EEE77A 		vcvt.f32.s32	s14, s15
 4856 046e C7EE097A 		vdiv.f32	s15, s14, s18
 4857 0472 C4ED047A 		vstr.32	s15, [r4, #16]
 4858 0476 9CE6     		b	.L536
 4859              	.LVL426:
 4860              	.L377:
 4861 0478 BDF82C00 		ldrh	r0, [sp, #44]
 4862              	.LBE693:
 4863              	.LBE770:
 4864              	.LBE792:
 4865              	.LBE799:
 4866              	.LBE805:
 4867              	.LBB806:
 4868              		.loc 1 1225 0
 4869 047c 3B68     		ldr	r3, [r7]
 4870 047e 02F00F02 		and	r2, r2, #15
 4871 0482 C0F30A00 		ubfx	r0, r0, #0, #11
 4872 0486 63B1     		cbz	r3, .L479
 4873              		.loc 1 1226 0
 4874 0488 0CA9     		add	r1, sp, #48
 4875 048a 9847     		blx	r3
 4876              	.LVL427:
 4877              		.loc 1 1229 0
 4878 048c 0028     		cmp	r0, #0
 4879 048e 7FF4DDAD 		bne	.L370
 4880 0492 BDF82C00 		ldrh	r0, [sp, #44]
 4881              	.LVL428:
 4882 0496 9DF82820 		ldrb	r2, [sp, #40]	@ zero_extendqisi2
 4883 049a C0F30A00 		ubfx	r0, r0, #0, #11
 4884 049e 02F00F02 		and	r2, r2, #15
 4885              	.L479:
 4886              		.loc 1 1230 0
 4887 04a2 0023     		movs	r3, #0
 4888 04a4 0CA9     		add	r1, sp, #48
 4889 04a6 FFF7FEFF 		bl	bms_process_can_frame
 4890              	.LVL429:
 4891              		.loc 1 1234 0
 4892 04aa 0028     		cmp	r0, #0
 4893 04ac 3FF481AE 		beq	.L536
 4894 04b0 CCE5     		b	.L370
 4895              	.LVL430:
 4896              	.L382:
 4897              	.LBE806:
 4898              	.LBB807:
 4899              	.LBB800:
 4900              	.LBB793:
 4901              		.loc 1 1375 0
 4902 04b2 382C     		cmp	r4, #56
ARM GAS  /tmp/ccuyDb88.s 			page 87


 4903 04b4 3FF605AE 		bhi	.L383
 4904 04b8 01A3     		adr	r3, .L386
 4905 04ba 53F824F0 		ldr	pc, [r3, r4, lsl #2]
 4906 04be 00BF     		.p2align 2
 4907              	.L386:
 4908 04c0 E9060000 		.word	.L385+1
 4909 04c4 C9060000 		.word	.L387+1
 4910 04c8 AF060000 		.word	.L388+1
 4911 04cc 95060000 		.word	.L389+1
 4912 04d0 7B060000 		.word	.L390+1
 4913 04d4 65060000 		.word	.L391+1
 4914 04d8 35080000 		.word	.L392+1
 4915 04dc C7070000 		.word	.L393+1
 4916 04e0 95070000 		.word	.L394+1
 4917 04e4 C3000000 		.word	.L383+1
 4918 04e8 69070000 		.word	.L395+1
 4919 04ec 4F070000 		.word	.L396+1
 4920 04f0 35070000 		.word	.L397+1
 4921 04f4 1F070000 		.word	.L398+1
 4922 04f8 C3000000 		.word	.L383+1
 4923 04fc C3000000 		.word	.L383+1
 4924 0500 C3000000 		.word	.L383+1
 4925 0504 03070000 		.word	.L399+1
 4926 0508 1B0A0000 		.word	.L400+1
 4927 050c DD090000 		.word	.L401+1
 4928 0510 4F0A0000 		.word	.L402+1
 4929 0514 57080000 		.word	.L403+1
 4930 0518 57080000 		.word	.L403+1
 4931 051c 71090000 		.word	.L404+1
 4932 0520 71090000 		.word	.L404+1
 4933 0524 DD080000 		.word	.L405+1
 4934 0528 DD080000 		.word	.L405+1
 4935 052c C3000000 		.word	.L383+1
 4936 0530 49090000 		.word	.L406+1
 4937 0534 EB050000 		.word	.L407+1
 4938 0538 EB050000 		.word	.L407+1
 4939 053c C3000000 		.word	.L383+1
 4940 0540 C3000000 		.word	.L383+1
 4941 0544 C3000000 		.word	.L383+1
 4942 0548 C3000000 		.word	.L383+1
 4943 054c C3000000 		.word	.L383+1
 4944 0550 C3000000 		.word	.L383+1
 4945 0554 C3000000 		.word	.L383+1
 4946 0558 C3000000 		.word	.L383+1
 4947 055c C3000000 		.word	.L383+1
 4948 0560 C3000000 		.word	.L383+1
 4949 0564 C3000000 		.word	.L383+1
 4950 0568 C3000000 		.word	.L383+1
 4951 056c C3000000 		.word	.L383+1
 4952 0570 C3000000 		.word	.L383+1
 4953 0574 C3000000 		.word	.L383+1
 4954 0578 C3000000 		.word	.L383+1
 4955 057c C3000000 		.word	.L383+1
 4956 0580 C3000000 		.word	.L383+1
 4957 0584 C3000000 		.word	.L383+1
 4958 0588 C3000000 		.word	.L383+1
 4959 058c C3000000 		.word	.L383+1
ARM GAS  /tmp/ccuyDb88.s 			page 88


 4960 0590 C3000000 		.word	.L383+1
 4961 0594 C3000000 		.word	.L383+1
 4962 0598 C3000000 		.word	.L383+1
 4963 059c C1050000 		.word	.L408+1
 4964 05a0 6F0A0000 		.word	.L409+1
 4965              		.p2align 1
 4966              	.L550:
 4967              		.align	2
 4968              	.L549:
 4969 05a4 00000000 		.word	.LANCHOR11
 4970 05a8 00000000 		.word	ch
 4971 05ac 00000000 		.word	.LANCHOR10
 4972 05b0 00000000 		.word	.LANCHOR9
 4973 05b4 00000000 		.word	.LANCHOR7
 4974 05b8 00000000 		.word	.LANCHOR8
 4975 05bc 00000000 		.word	.LANCHOR6
 4976              	.L408:
 4977              	.LBB771:
 4978              		.loc 1 1700 0
 4979 05c0 0023     		movs	r3, #0
 4980              		.loc 1 1701 0
 4981 05c2 0CA8     		add	r0, sp, #48
 4982              	.LVL431:
 4983 05c4 06A9     		add	r1, sp, #24
 4984 05c6 B0EE690A 		vmov.f32	s0, s19
 4985              		.loc 1 1700 0
 4986 05ca 0693     		str	r3, [sp, #24]
 4987              		.loc 1 1701 0
 4988 05cc FFF7FEFF 		bl	buffer_get_float32
 4989              	.LVL432:
 4990              		.loc 1 1702 0
 4991 05d0 069B     		ldr	r3, [sp, #24]
 4992 05d2 0EAA     		add	r2, sp, #56
 4993 05d4 1A44     		add	r2, r2, r3
 4994 05d6 0133     		adds	r3, r3, #1
 4995 05d8 12F8080C 		ldrb	r0, [r2, #-8]	@ zero_extendqisi2
 4996 05dc 0693     		str	r3, [sp, #24]
 4997              	.LVL433:
 4998              		.loc 1 1703 0
 4999 05de 0030     		adds	r0, r0, #0
 5000 05e0 18BF     		it	ne
 5001 05e2 0120     		movne	r0, #1
 5002 05e4 FFF7FEFF 		bl	mc_interface_update_pid_pos_offset
 5003              	.LVL434:
 5004 05e8 E3E5     		b	.L536
 5005              	.LVL435:
 5006              	.L407:
 5007              	.LBE771:
 5008              	.LBB772:
 5009              		.loc 1 1663 0
 5010 05ea 0023     		movs	r3, #0
 5011              		.loc 1 1664 0
 5012 05ec 06A9     		add	r1, sp, #24
 5013 05ee 0CA8     		add	r0, sp, #48
 5014              	.LVL436:
 5015 05f0 B0EE490A 		vmov.f32	s0, s18
 5016              		.loc 1 1663 0
ARM GAS  /tmp/ccuyDb88.s 			page 89


 5017 05f4 0693     		str	r3, [sp, #24]
 5018              		.loc 1 1664 0
 5019 05f6 FFF7FEFF 		bl	buffer_get_float32
 5020              	.LVL437:
 5021              		.loc 1 1665 0
 5022 05fa 06A9     		add	r1, sp, #24
 5023              		.loc 1 1664 0
 5024 05fc B0EE40BA 		vmov.f32	s22, s0
 5025              	.LVL438:
 5026              		.loc 1 1665 0
 5027 0600 0CA8     		add	r0, sp, #48
 5028              	.LVL439:
 5029 0602 B0EE490A 		vmov.f32	s0, s18
 5030              	.LVL440:
 5031 0606 FFF7FEFF 		bl	buffer_get_float32
 5032              	.LVL441:
 5033 060a B0EE40AA 		vmov.f32	s20, s0
 5034              	.LVL442:
 5035              		.loc 1 1667 0
 5036 060e FFF7FEFF 		bl	mempools_alloc_mcconf
 5037              	.LVL443:
 5038 0612 0090     		str	r0, [sp]
 5039              	.LVL444:
 5040              		.loc 1 1668 0
 5041 0614 FFF7FEFF 		bl	mc_interface_get_configuration
 5042              	.LVL445:
 5043 0618 009B     		ldr	r3, [sp]
 5044 061a 0146     		mov	r1, r0
 5045 061c 4FF42372 		mov	r2, #652
 5046 0620 1846     		mov	r0, r3
 5047 0622 FFF7FEFF 		bl	memcpy
 5048              	.LVL446:
 5049              		.loc 1 1670 0
 5050 0626 D0ED0C7A 		vldr.32	s15, [r0, #48]
 5051 062a B4EE67BA 		vcmp.f32	s22, s15
 5052 062e F1EE10FA 		vmrs	APSR_nzcv, FPSCR
 5053              		.loc 1 1668 0
 5054 0632 0346     		mov	r3, r0
 5055              		.loc 1 1670 0
 5056 0634 06D1     		bne	.L435
 5057 0636 D0ED0D7A 		vldr.32	s15, [r0, #52]
 5058 063a B4EE67AA 		vcmp.f32	s20, s15
 5059 063e F1EE10FA 		vmrs	APSR_nzcv, FPSCR
 5060 0642 0BD0     		beq	.L436
 5061              	.L435:
 5062              		.loc 1 1674 0
 5063 0644 1E2C     		cmp	r4, #30
 5064              		.loc 1 1671 0
 5065 0646 83ED0CBA 		vstr.32	s22, [r3, #48]
 5066              		.loc 1 1672 0
 5067 064a 83ED0DAA 		vstr.32	s20, [r3, #52]
 5068              		.loc 1 1674 0
 5069 064e 00F03781 		beq	.L537
 5070              	.LVL447:
 5071              	.L437:
 5072              		.loc 1 1679 0
 5073 0652 1846     		mov	r0, r3
ARM GAS  /tmp/ccuyDb88.s 			page 90


 5074 0654 0093     		str	r3, [sp]
 5075 0656 FFF7FEFF 		bl	mc_interface_set_configuration
 5076              	.LVL448:
 5077 065a 009B     		ldr	r3, [sp]
 5078              	.L436:
 5079              		.loc 1 1682 0
 5080 065c 1846     		mov	r0, r3
 5081 065e FFF7FEFF 		bl	mempools_free_mcconf
 5082              	.LVL449:
 5083 0662 2EE5     		b	.L383
 5084              	.LVL450:
 5085              	.L391:
 5086              	.LBE772:
 5087              		.loc 1 1412 0
 5088 0664 9DF83000 		ldrb	r0, [sp, #48]	@ zero_extendqisi2
 5089              	.LVL451:
 5090 0668 BE4B     		ldr	r3, .L551
 5091 066a 08F1FF32 		add	r2, r8, #-1
 5092 066e 1844     		add	r0, r0, r3
 5093 0670 0DF13101 		add	r1, sp, #49
 5094 0674 FFF7FEFF 		bl	memcpy
 5095              	.LVL452:
 5096 0678 9BE5     		b	.L536
 5097              	.LVL453:
 5098              	.L390:
 5099              		.loc 1 1406 0
 5100 067a 0023     		movs	r3, #0
 5101              		.loc 1 1407 0
 5102 067c 06A9     		add	r1, sp, #24
 5103 067e 0CA8     		add	r0, sp, #48
 5104              	.LVL454:
 5105 0680 9FEDB90A 		vldr.32	s0, .L551+4
 5106              		.loc 1 1406 0
 5107 0684 0693     		str	r3, [sp, #24]
 5108              		.loc 1 1407 0
 5109 0686 FFF7FEFF 		bl	buffer_get_float32
 5110              	.LVL455:
 5111 068a FFF7FEFF 		bl	mc_interface_set_pid_pos
 5112              	.LVL456:
 5113              		.loc 1 1408 0
 5114 068e FFF7FEFF 		bl	timeout_reset
 5115              	.LVL457:
 5116 0692 8EE5     		b	.L536
 5117              	.LVL458:
 5118              	.L389:
 5119              		.loc 1 1400 0
 5120 0694 0023     		movs	r3, #0
 5121              		.loc 1 1401 0
 5122 0696 06A9     		add	r1, sp, #24
 5123 0698 0CA8     		add	r0, sp, #48
 5124              	.LVL459:
 5125 069a B7EE000A 		vmov.f32	s0, #1.0e+0
 5126              		.loc 1 1400 0
 5127 069e 0693     		str	r3, [sp, #24]
 5128              		.loc 1 1401 0
 5129 06a0 FFF7FEFF 		bl	buffer_get_float32
 5130              	.LVL460:
ARM GAS  /tmp/ccuyDb88.s 			page 91


 5131 06a4 FFF7FEFF 		bl	mc_interface_set_pid_speed
 5132              	.LVL461:
 5133              		.loc 1 1402 0
 5134 06a8 FFF7FEFF 		bl	timeout_reset
 5135              	.LVL462:
 5136 06ac 81E5     		b	.L536
 5137              	.LVL463:
 5138              	.L388:
 5139              		.loc 1 1394 0
 5140 06ae 0023     		movs	r3, #0
 5141              		.loc 1 1395 0
 5142 06b0 06A9     		add	r1, sp, #24
 5143 06b2 0CA8     		add	r0, sp, #48
 5144              	.LVL464:
 5145 06b4 B0EE490A 		vmov.f32	s0, s18
 5146              		.loc 1 1394 0
 5147 06b8 0693     		str	r3, [sp, #24]
 5148              		.loc 1 1395 0
 5149 06ba FFF7FEFF 		bl	buffer_get_float32
 5150              	.LVL465:
 5151 06be FFF7FEFF 		bl	mc_interface_set_brake_current
 5152              	.LVL466:
 5153              		.loc 1 1396 0
 5154 06c2 FFF7FEFF 		bl	timeout_reset
 5155              	.LVL467:
 5156 06c6 74E5     		b	.L536
 5157              	.LVL468:
 5158              	.L387:
 5159              		.loc 1 1383 0
 5160 06c8 0023     		movs	r3, #0
 5161              		.loc 1 1384 0
 5162 06ca 06A9     		add	r1, sp, #24
 5163 06cc 0CA8     		add	r0, sp, #48
 5164              	.LVL469:
 5165 06ce B0EE490A 		vmov.f32	s0, s18
 5166              		.loc 1 1383 0
 5167 06d2 0693     		str	r3, [sp, #24]
 5168              		.loc 1 1384 0
 5169 06d4 FFF7FEFF 		bl	buffer_get_float32
 5170              	.LVL470:
 5171 06d8 FFF7FEFF 		bl	mc_interface_set_current
 5172              	.LVL471:
 5173              		.loc 1 1386 0
 5174 06dc B8F1050F 		cmp	r8, #5
 5175 06e0 4FDC     		bgt	.L533
 5176              	.L534:
 5177              		.loc 1 1523 0
 5178 06e2 FFF7FEFF 		bl	timeout_reset
 5179              	.LVL472:
 5180 06e6 64E5     		b	.L536
 5181              	.LVL473:
 5182              	.L385:
 5183              		.loc 1 1377 0
 5184 06e8 0023     		movs	r3, #0
 5185              		.loc 1 1378 0
 5186 06ea 06A9     		add	r1, sp, #24
 5187 06ec 0CA8     		add	r0, sp, #48
ARM GAS  /tmp/ccuyDb88.s 			page 92


 5188              	.LVL474:
 5189 06ee B0EE480A 		vmov.f32	s0, s16
 5190              		.loc 1 1377 0
 5191 06f2 0693     		str	r3, [sp, #24]
 5192              		.loc 1 1378 0
 5193 06f4 FFF7FEFF 		bl	buffer_get_float32
 5194              	.LVL475:
 5195 06f8 FFF7FEFF 		bl	mc_interface_set_duty
 5196              	.LVL476:
 5197              		.loc 1 1379 0
 5198 06fc FFF7FEFF 		bl	timeout_reset
 5199              	.LVL477:
 5200 0700 57E5     		b	.L536
 5201              	.LVL478:
 5202              	.L399:
 5203              	.LBB773:
 5204              		.loc 1 1530 0
 5205 0702 9DF83000 		ldrb	r0, [sp, #48]	@ zero_extendqisi2
 5206              	.LVL479:
 5207              		.loc 1 1528 0
 5208 0706 8DF82050 		strb	r5, [sp, #32]
 5209              		.loc 1 1529 0
 5210 070a 0023     		movs	r3, #0
 5211              		.loc 1 1530 0
 5212 070c 40F49050 		orr	r0, r0, #4608
 5213 0710 0222     		movs	r2, #2
 5214 0712 08A9     		add	r1, sp, #32
 5215              		.loc 1 1529 0
 5216 0714 8DF82130 		strb	r3, [sp, #33]
 5217              		.loc 1 1530 0
 5218 0718 FFF7FEFF 		bl	comm_can_transmit_eid_replace.constprop.2
 5219              	.LVL480:
 5220 071c 49E5     		b	.L536
 5221              	.LVL481:
 5222              	.L398:
 5223              	.LBE773:
 5224              		.loc 1 1521 0
 5225 071e 0023     		movs	r3, #0
 5226              		.loc 1 1522 0
 5227 0720 06A9     		add	r1, sp, #24
 5228 0722 0CA8     		add	r0, sp, #48
 5229              	.LVL482:
 5230 0724 B0EE480A 		vmov.f32	s0, s16
 5231              		.loc 1 1521 0
 5232 0728 0693     		str	r3, [sp, #24]
 5233              		.loc 1 1522 0
 5234 072a FFF7FEFF 		bl	buffer_get_float32
 5235              	.LVL483:
 5236 072e FFF7FEFF 		bl	mc_interface_set_handbrake_rel
 5237              	.LVL484:
 5238 0732 D6E7     		b	.L534
 5239              	.LVL485:
 5240              	.L397:
 5241              		.loc 1 1515 0
 5242 0734 0023     		movs	r3, #0
 5243              		.loc 1 1516 0
 5244 0736 06A9     		add	r1, sp, #24
ARM GAS  /tmp/ccuyDb88.s 			page 93


 5245 0738 0CA8     		add	r0, sp, #48
 5246              	.LVL486:
 5247 073a B0EE490A 		vmov.f32	s0, s18
 5248              		.loc 1 1515 0
 5249 073e 0693     		str	r3, [sp, #24]
 5250              		.loc 1 1516 0
 5251 0740 FFF7FEFF 		bl	buffer_get_float32
 5252              	.LVL487:
 5253 0744 FFF7FEFF 		bl	mc_interface_set_handbrake
 5254              	.LVL488:
 5255              		.loc 1 1517 0
 5256 0748 FFF7FEFF 		bl	timeout_reset
 5257              	.LVL489:
 5258 074c 31E5     		b	.L536
 5259              	.LVL490:
 5260              	.L396:
 5261              		.loc 1 1509 0
 5262 074e 0023     		movs	r3, #0
 5263              		.loc 1 1510 0
 5264 0750 06A9     		add	r1, sp, #24
 5265 0752 0CA8     		add	r0, sp, #48
 5266              	.LVL491:
 5267 0754 B0EE480A 		vmov.f32	s0, s16
 5268              		.loc 1 1509 0
 5269 0758 0693     		str	r3, [sp, #24]
 5270              		.loc 1 1510 0
 5271 075a FFF7FEFF 		bl	buffer_get_float32
 5272              	.LVL492:
 5273 075e FFF7FEFF 		bl	mc_interface_set_brake_current_rel
 5274              	.LVL493:
 5275              		.loc 1 1511 0
 5276 0762 FFF7FEFF 		bl	timeout_reset
 5277              	.LVL494:
 5278 0766 24E5     		b	.L536
 5279              	.LVL495:
 5280              	.L395:
 5281              		.loc 1 1498 0
 5282 0768 0023     		movs	r3, #0
 5283              		.loc 1 1499 0
 5284 076a 06A9     		add	r1, sp, #24
 5285 076c 0CA8     		add	r0, sp, #48
 5286              	.LVL496:
 5287 076e B0EE480A 		vmov.f32	s0, s16
 5288              		.loc 1 1498 0
 5289 0772 0693     		str	r3, [sp, #24]
 5290              		.loc 1 1499 0
 5291 0774 FFF7FEFF 		bl	buffer_get_float32
 5292              	.LVL497:
 5293 0778 FFF7FEFF 		bl	mc_interface_set_current_rel
 5294              	.LVL498:
 5295              		.loc 1 1501 0
 5296 077c B8F1050F 		cmp	r8, #5
 5297 0780 AFDD     		ble	.L534
 5298              	.L533:
 5299              		.loc 1 1387 0
 5300 0782 06A9     		add	r1, sp, #24
 5301 0784 0CA8     		add	r0, sp, #48
ARM GAS  /tmp/ccuyDb88.s 			page 94


 5302              	.LVL499:
 5303 0786 B0EE490A 		vmov.f32	s0, s18
 5304 078a FFF7FEFF 		bl	buffer_get_float16
 5305              	.LVL500:
 5306 078e FFF7FEFF 		bl	mc_interface_set_current_off_delay
 5307              	.LVL501:
 5308 0792 A6E7     		b	.L534
 5309              	.LVL502:
 5310              	.L394:
 5311              		.loc 1 1482 0
 5312 0794 9DF83130 		ldrb	r3, [sp, #49]	@ zero_extendqisi2
 5313              		.loc 1 1469 0
 5314 0798 7449     		ldr	r1, .L551+8
 5315 079a 9DF83020 		ldrb	r2, [sp, #48]	@ zero_extendqisi2
 5316 079e 0A60     		str	r2, [r1]
 5317              		.loc 1 1482 0
 5318 07a0 012B     		cmp	r3, #1
 5319              		.loc 1 1470 0
 5320 07a2 4FF00202 		mov	r2, #2
 5321 07a6 0692     		str	r2, [sp, #24]
 5322              	.LVL503:
 5323              		.loc 1 1482 0
 5324 07a8 00F03582 		beq	.L418
 5325 07ac C0F02A82 		bcc	.L419
 5326 07b0 9342     		cmp	r3, r2
 5327 07b2 7FF486AC 		bne	.L383
 5328              		.loc 1 1490 0
 5329 07b6 A8F10201 		sub	r1, r8, #2
 5330 07ba 0022     		movs	r2, #0
 5331 07bc 0DF13200 		add	r0, sp, #50
 5332 07c0 FFF7FEFF 		bl	commands_process_packet
 5333              	.LVL504:
 5334 07c4 F5E4     		b	.L536
 5335              	.LVL505:
 5336              	.L393:
 5337              		.loc 1 1427 0
 5338 07c6 9DF83220 		ldrb	r2, [sp, #50]	@ zero_extendqisi2
 5339              		.loc 1 1428 0
 5340 07ca 9DF83330 		ldrb	r3, [sp, #51]	@ zero_extendqisi2
 5341              		.loc 1 1425 0
 5342 07ce 6748     		ldr	r0, .L551+8
 5343              	.LVL506:
 5344 07d0 9DF83010 		ldrb	r1, [sp, #48]	@ zero_extendqisi2
 5345 07d4 0160     		str	r1, [r0]
 5346              		.loc 1 1428 0
 5347 07d6 43EA0223 		orr	r3, r3, r2, lsl #8
 5348 07da 0422     		movs	r2, #4
 5349 07dc 0692     		str	r2, [sp, #24]
 5350              		.loc 1 1430 0
 5351 07de B3F5007F 		cmp	r3, #512
 5352              		.loc 1 1426 0
 5353 07e2 9DF83120 		ldrb	r2, [sp, #49]	@ zero_extendqisi2
 5354 07e6 0092     		str	r2, [sp]
 5355              	.LVL507:
 5356              		.loc 1 1430 0
 5357 07e8 3FF6E3AC 		bhi	.L536
 5358              	.LVL508:
ARM GAS  /tmp/ccuyDb88.s 			page 95


 5359              		.loc 1 1435 0
 5360 07ec 0622     		movs	r2, #6
 5361              		.loc 1 1437 0
 5362 07ee 1946     		mov	r1, r3
 5363 07f0 0593     		str	r3, [sp, #20]
 5364              		.loc 1 1435 0
 5365 07f2 0692     		str	r2, [sp, #24]
 5366              		.loc 1 1434 0
 5367 07f4 9DF83430 		ldrb	r3, [sp, #52]	@ zero_extendqisi2
 5368              	.LVL509:
 5369              		.loc 1 1435 0
 5370 07f8 9DF83520 		ldrb	r2, [sp, #53]	@ zero_extendqisi2
 5371              		.loc 1 1437 0
 5372 07fc 5948     		ldr	r0, .L551
 5373              		.loc 1 1434 0
 5374 07fe 0393     		str	r3, [sp, #12]
 5375              	.LVL510:
 5376              		.loc 1 1435 0
 5377 0800 0492     		str	r2, [sp, #16]
 5378              	.LVL511:
 5379              		.loc 1 1437 0
 5380 0802 FFF7FEFF 		bl	crc16
 5381              	.LVL512:
 5382              		.loc 1 1439 0
 5383 0806 DDE90332 		ldrd	r3, r2, [sp, #12]
 5384 080a 42EA0322 		orr	r2, r2, r3, lsl #8
 5385              		.loc 1 1437 0
 5386 080e 9042     		cmp	r0, r2
 5387 0810 059B     		ldr	r3, [sp, #20]
 5388 0812 7FF4CEAC 		bne	.L536
 5389              		.loc 1 1451 0
 5390 0816 009A     		ldr	r2, [sp]
 5391 0818 012A     		cmp	r2, #1
 5392 081a 00F02582 		beq	.L415
 5393 081e C0F01C82 		bcc	.L416
 5394 0822 022A     		cmp	r2, #2
 5395 0824 7FF44DAC 		bne	.L383
 5396              		.loc 1 1459 0
 5397 0828 1946     		mov	r1, r3
 5398 082a 0022     		movs	r2, #0
 5399 082c 4D48     		ldr	r0, .L551
 5400 082e FFF7FEFF 		bl	commands_process_packet
 5401              	.LVL513:
 5402 0832 BEE4     		b	.L536
 5403              	.LVL514:
 5404              	.L392:
 5405 0834 BDF83000 		ldrh	r0, [sp, #48]
 5406              	.LVL515:
 5407 0838 40BA     		rev16	r0, r0
 5408 083a 80B2     		uxth	r0, r0
 5409              	.LVL516:
 5410              		.loc 1 1418 0
 5411 083c B0F5007F 		cmp	r0, #512
 5412 0840 BFF4B7AC 		bcs	.L536
 5413              		.loc 1 1419 0
 5414 0844 474B     		ldr	r3, .L551
 5415 0846 A8F10202 		sub	r2, r8, #2
ARM GAS  /tmp/ccuyDb88.s 			page 96


 5416 084a 1844     		add	r0, r0, r3
 5417 084c 0DF13201 		add	r1, sp, #50
 5418 0850 FFF7FEFF 		bl	memcpy
 5419              	.LVL517:
 5420 0854 ADE4     		b	.L536
 5421              	.LVL518:
 5422              	.L403:
 5423              	.LBB774:
 5424              		.loc 1 1584 0
 5425 0856 0023     		movs	r3, #0
 5426              		.loc 1 1585 0
 5427 0858 06A9     		add	r1, sp, #24
 5428 085a 0CA8     		add	r0, sp, #48
 5429              	.LVL519:
 5430 085c B0EE490A 		vmov.f32	s0, s18
 5431              		.loc 1 1584 0
 5432 0860 0693     		str	r3, [sp, #24]
 5433              		.loc 1 1585 0
 5434 0862 FFF7FEFF 		bl	buffer_get_float32
 5435              	.LVL520:
 5436              		.loc 1 1586 0
 5437 0866 06A9     		add	r1, sp, #24
 5438              		.loc 1 1585 0
 5439 0868 B0EE40BA 		vmov.f32	s22, s0
 5440              	.LVL521:
 5441              		.loc 1 1586 0
 5442 086c 0CA8     		add	r0, sp, #48
 5443              	.LVL522:
 5444 086e B0EE490A 		vmov.f32	s0, s18
 5445              	.LVL523:
 5446 0872 FFF7FEFF 		bl	buffer_get_float32
 5447              	.LVL524:
 5448 0876 B0EE40AA 		vmov.f32	s20, s0
 5449              	.LVL525:
 5450              		.loc 1 1588 0
 5451 087a FFF7FEFF 		bl	mempools_alloc_mcconf
 5452              	.LVL526:
 5453 087e 0090     		str	r0, [sp]
 5454              	.LVL527:
 5455              		.loc 1 1589 0
 5456 0880 FFF7FEFF 		bl	mc_interface_get_configuration
 5457              	.LVL528:
 5458 0884 009B     		ldr	r3, [sp]
 5459 0886 0146     		mov	r1, r0
 5460 0888 4FF42372 		mov	r2, #652
 5461 088c 1846     		mov	r0, r3
 5462 088e FFF7FEFF 		bl	memcpy
 5463              	.LVL529:
 5464              		.loc 1 1591 0
 5465 0892 D0ED017A 		vldr.32	s15, [r0, #4]
 5466 0896 B4EE67BA 		vcmp.f32	s22, s15
 5467 089a F1EE10FA 		vmrs	APSR_nzcv, FPSCR
 5468              		.loc 1 1589 0
 5469 089e 0346     		mov	r3, r0
 5470              		.loc 1 1591 0
 5471 08a0 07D1     		bne	.L426
 5472 08a2 D0ED007A 		vldr.32	s15, [r0]
ARM GAS  /tmp/ccuyDb88.s 			page 97


 5473 08a6 B4EE67AA 		vcmp.f32	s20, s15
 5474 08aa F1EE10FA 		vmrs	APSR_nzcv, FPSCR
 5475 08ae 3FF4D5AE 		beq	.L436
 5476              	.L426:
 5477              		.loc 1 1595 0
 5478 08b2 162C     		cmp	r4, #22
 5479              		.loc 1 1592 0
 5480 08b4 83ED01BA 		vstr.32	s22, [r3, #4]
 5481              		.loc 1 1593 0
 5482 08b8 83ED00AA 		vstr.32	s20, [r3]
 5483              		.loc 1 1595 0
 5484 08bc 7FF4C9AE 		bne	.L437
 5485              	.LVL530:
 5486              	.L537:
 5487 08c0 0093     		str	r3, [sp]
 5488              	.LBE774:
 5489              	.LBB775:
 5490              		.loc 1 1676 0
 5491 08c2 FFF7FEFF 		bl	mc_interface_get_motor_thread
 5492              	.LVL531:
 5493              		.loc 1 1675 0
 5494 08c6 009B     		ldr	r3, [sp]
 5495 08c8 A0F10201 		sub	r1, r0, #2
 5496 08cc B1FA81F1 		clz	r1, r1
 5497 08d0 1846     		mov	r0, r3
 5498 08d2 4909     		lsrs	r1, r1, #5
 5499 08d4 FFF7FEFF 		bl	conf_general_store_mc_configuration
 5500              	.LVL532:
 5501 08d8 009B     		ldr	r3, [sp]
 5502 08da BAE6     		b	.L437
 5503              	.LVL533:
 5504              	.L405:
 5505              	.LBE775:
 5506              	.LBB776:
 5507              		.loc 1 1632 0
 5508 08dc 0023     		movs	r3, #0
 5509              		.loc 1 1633 0
 5510 08de 06A9     		add	r1, sp, #24
 5511 08e0 0CA8     		add	r0, sp, #48
 5512              	.LVL534:
 5513 08e2 B0EE490A 		vmov.f32	s0, s18
 5514              		.loc 1 1632 0
 5515 08e6 0693     		str	r3, [sp, #24]
 5516              		.loc 1 1633 0
 5517 08e8 FFF7FEFF 		bl	buffer_get_float32
 5518              	.LVL535:
 5519              		.loc 1 1634 0
 5520 08ec 06A9     		add	r1, sp, #24
 5521              		.loc 1 1633 0
 5522 08ee B0EE40BA 		vmov.f32	s22, s0
 5523              	.LVL536:
 5524              		.loc 1 1634 0
 5525 08f2 0CA8     		add	r0, sp, #48
 5526              	.LVL537:
 5527 08f4 B0EE490A 		vmov.f32	s0, s18
 5528              	.LVL538:
 5529 08f8 FFF7FEFF 		bl	buffer_get_float32
ARM GAS  /tmp/ccuyDb88.s 			page 98


 5530              	.LVL539:
 5531 08fc B0EE40AA 		vmov.f32	s20, s0
 5532              	.LVL540:
 5533              		.loc 1 1636 0
 5534 0900 FFF7FEFF 		bl	mempools_alloc_mcconf
 5535              	.LVL541:
 5536 0904 0090     		str	r0, [sp]
 5537              	.LVL542:
 5538              		.loc 1 1637 0
 5539 0906 FFF7FEFF 		bl	mc_interface_get_configuration
 5540              	.LVL543:
 5541 090a 009B     		ldr	r3, [sp]
 5542 090c 0146     		mov	r1, r0
 5543 090e 4FF42372 		mov	r2, #652
 5544 0912 1846     		mov	r0, r3
 5545 0914 FFF7FEFF 		bl	memcpy
 5546              	.LVL544:
 5547              		.loc 1 1639 0
 5548 0918 D0ED437A 		vldr.32	s15, [r0, #268]
 5549 091c B4EE67BA 		vcmp.f32	s22, s15
 5550 0920 F1EE10FA 		vmrs	APSR_nzcv, FPSCR
 5551              		.loc 1 1637 0
 5552 0924 0346     		mov	r3, r0
 5553              		.loc 1 1639 0
 5554 0926 07D1     		bne	.L432
 5555 0928 D0ED4F7A 		vldr.32	s15, [r0, #316]
 5556 092c B4EE67AA 		vcmp.f32	s20, s15
 5557 0930 F1EE10FA 		vmrs	APSR_nzcv, FPSCR
 5558 0934 3FF492AE 		beq	.L436
 5559              	.L432:
 5560              		.loc 1 1644 0
 5561 0938 1A2C     		cmp	r4, #26
 5562              		.loc 1 1641 0
 5563 093a 83ED43BA 		vstr.32	s22, [r3, #268]
 5564              		.loc 1 1642 0
 5565 093e 83ED4FAA 		vstr.32	s20, [r3, #316]
 5566              		.loc 1 1644 0
 5567 0942 7FF486AE 		bne	.L437
 5568 0946 BBE7     		b	.L537
 5569              	.LVL545:
 5570              	.L406:
 5571              	.LBE776:
 5572              		.loc 1 1656 0
 5573 0948 FFF7FEFF 		bl	app_get_configuration
 5574              	.LVL546:
 5575 094c 0478     		ldrb	r4, [r0]	@ zero_extendqisi2
 5576              	.LVL547:
 5577              		.loc 1 1658 0
 5578 094e FFF7FEFF 		bl	encoder_ts5700n8501_get_raw_status
 5579              	.LVL548:
 5580              		.loc 1 1656 0
 5581 0952 44F4E054 		orr	r4, r4, #7168
 5582 0956 0146     		mov	r1, r0
 5583 0958 0822     		movs	r2, #8
 5584 095a 2046     		mov	r0, r4
 5585 095c FFF7FEFF 		bl	comm_can_transmit_eid_replace.constprop.2
 5586              	.LVL549:
ARM GAS  /tmp/ccuyDb88.s 			page 99


 5587 0960 27E4     		b	.L536
 5588              	.L552:
 5589 0962 00BF     		.align	2
 5590              	.L551:
 5591 0964 00000000 		.word	.LANCHOR28
 5592 0968 00247449 		.word	1232348160
 5593 096c 00000000 		.word	.LANCHOR22
 5594              	.LVL550:
 5595              	.L404:
 5596              	.LBB777:
 5597              		.loc 1 1608 0
 5598 0970 0023     		movs	r3, #0
 5599              		.loc 1 1609 0
 5600 0972 06A9     		add	r1, sp, #24
 5601 0974 0CA8     		add	r0, sp, #48
 5602              	.LVL551:
 5603 0976 B0EE490A 		vmov.f32	s0, s18
 5604              		.loc 1 1608 0
 5605 097a 0693     		str	r3, [sp, #24]
 5606              		.loc 1 1609 0
 5607 097c FFF7FEFF 		bl	buffer_get_float32
 5608              	.LVL552:
 5609              		.loc 1 1610 0
 5610 0980 06A9     		add	r1, sp, #24
 5611              		.loc 1 1609 0
 5612 0982 B0EE40BA 		vmov.f32	s22, s0
 5613              	.LVL553:
 5614              		.loc 1 1610 0
 5615 0986 0CA8     		add	r0, sp, #48
 5616              	.LVL554:
 5617 0988 B0EE490A 		vmov.f32	s0, s18
 5618              	.LVL555:
 5619 098c FFF7FEFF 		bl	buffer_get_float32
 5620              	.LVL556:
 5621 0990 B0EE40AA 		vmov.f32	s20, s0
 5622              	.LVL557:
 5623              		.loc 1 1612 0
 5624 0994 FFF7FEFF 		bl	mempools_alloc_mcconf
 5625              	.LVL558:
 5626 0998 0090     		str	r0, [sp]
 5627              	.LVL559:
 5628              		.loc 1 1613 0
 5629 099a FFF7FEFF 		bl	mc_interface_get_configuration
 5630              	.LVL560:
 5631 099e 009B     		ldr	r3, [sp]
 5632 09a0 0146     		mov	r1, r0
 5633 09a2 4FF42372 		mov	r2, #652
 5634 09a6 1846     		mov	r0, r3
 5635 09a8 FFF7FEFF 		bl	memcpy
 5636              	.LVL561:
 5637              		.loc 1 1615 0
 5638 09ac D0ED037A 		vldr.32	s15, [r0, #12]
 5639 09b0 B4EE67BA 		vcmp.f32	s22, s15
 5640 09b4 F1EE10FA 		vmrs	APSR_nzcv, FPSCR
 5641              		.loc 1 1613 0
 5642 09b8 0346     		mov	r3, r0
 5643              		.loc 1 1615 0
ARM GAS  /tmp/ccuyDb88.s 			page 100


 5644 09ba 07D1     		bne	.L429
 5645 09bc D0ED027A 		vldr.32	s15, [r0, #8]
 5646 09c0 B4EE67AA 		vcmp.f32	s20, s15
 5647 09c4 F1EE10FA 		vmrs	APSR_nzcv, FPSCR
 5648 09c8 3FF448AE 		beq	.L436
 5649              	.L429:
 5650              		.loc 1 1619 0
 5651 09cc 182C     		cmp	r4, #24
 5652              		.loc 1 1616 0
 5653 09ce 83ED03BA 		vstr.32	s22, [r3, #12]
 5654              		.loc 1 1617 0
 5655 09d2 83ED02AA 		vstr.32	s20, [r3, #8]
 5656              		.loc 1 1619 0
 5657 09d6 7FF43CAE 		bne	.L437
 5658 09da 71E7     		b	.L537
 5659              	.LVL562:
 5660              	.L401:
 5661              	.LBE777:
 5662              	.LBB778:
 5663              		.loc 1 1551 0
 5664 09dc 0223     		movs	r3, #2
 5665              		.loc 1 1552 0
 5666 09de 06A9     		add	r1, sp, #24
 5667 09e0 0CA8     		add	r0, sp, #48
 5668              	.LVL563:
 5669 09e2 B0EE490A 		vmov.f32	s0, s18
 5670              		.loc 1 1551 0
 5671 09e6 0693     		str	r3, [sp, #24]
 5672 09e8 9DF83140 		ldrb	r4, [sp, #49]	@ zero_extendqisi2
 5673              	.LVL564:
 5674              		.loc 1 1552 0
 5675 09ec FFF7FEFF 		bl	buffer_get_float32
 5676              	.LVL565:
 5677              		.loc 1 1553 0
 5678 09f0 0021     		movs	r1, #0
 5679 09f2 0120     		movs	r0, #1
 5680 09f4 FFF7FEFF 		bl	conf_general_detect_apply_all_foc
 5681              	.LVL566:
 5682              		.loc 1 1554 0
 5683 09f8 051E     		subs	r5, r0, #0
 5684              	.LVL567:
 5685 09fa 02DB     		blt	.L424
 5686 09fc 002C     		cmp	r4, #0
 5687 09fe 40F01281 		bne	.L546
 5688              	.LVL568:
 5689              	.L424:
 5690              		.loc 1 1569 0
 5691 0a02 9DF83000 		ldrb	r0, [sp, #48]	@ zero_extendqisi2
 5692              		.loc 1 1568 0
 5693 0a06 8DF82050 		strb	r5, [sp, #32]
 5694              		.loc 1 1569 0
 5695 0a0a 40F4A050 		orr	r0, r0, #5120
 5696 0a0e 0122     		movs	r2, #1
 5697 0a10 08A9     		add	r1, sp, #32
 5698 0a12 FFF7FEFF 		bl	comm_can_transmit_eid_replace.constprop.2
 5699              	.LVL569:
 5700 0a16 FFF7CCBB 		b	.L536
ARM GAS  /tmp/ccuyDb88.s 			page 101


 5701              	.LVL570:
 5702              	.L400:
 5703              	.LBE778:
 5704              		.loc 1 1535 0
 5705 0a1a 964B     		ldr	r3, .L553
 5706 0a1c 1868     		ldr	r0, [r3]
 5707              	.LVL571:
 5708 0a1e 0028     		cmp	r0, #0
 5709 0a20 3FF4C7AB 		beq	.L536
 5710 0a24 944B     		ldr	r3, .L553+4
 5711 0a26 9DF83020 		ldrb	r2, [sp, #48]	@ zero_extendqisi2
 5712 0a2a 1B68     		ldr	r3, [r3]
 5713 0a2c 9A42     		cmp	r2, r3
 5714 0a2e 7FF4C0AB 		bne	.L536
 5715              		.loc 1 1536 0
 5716 0a32 B8F1010F 		cmp	r8, #1
 5717              		.loc 1 1539 0
 5718 0a36 914A     		ldr	r2, .L553+8
 5719              		.loc 1 1537 0
 5720 0a38 CCBF     		ite	gt
 5721 0a3a 9DF83130 		ldrbgt	r3, [sp, #49]	@ zero_extendqisi2
 5722              		.loc 1 1539 0
 5723 0a3e 0023     		movle	r3, #0
 5724              		.loc 1 1541 0
 5725 0a40 4FF00051 		mov	r1, #536870912
 5726              		.loc 1 1539 0
 5727 0a44 1370     		strb	r3, [r2]
 5728              		.loc 1 1541 0
 5729 0a46 FFF7FEFF 		bl	chEvtSignal
 5730              	.LVL572:
 5731 0a4a FFF7B2BB 		b	.L536
 5732              	.LVL573:
 5733              	.L402:
 5734              		.loc 1 1578 0
 5735 0a4e 8C48     		ldr	r0, .L553+12
 5736              	.LVL574:
 5737 0a50 8C49     		ldr	r1, .L553+16
 5738 0a52 0368     		ldr	r3, [r0]
 5739 0a54 9DF83020 		ldrb	r2, [sp, #48]	@ zero_extendqisi2
 5740 0a58 CA54     		strb	r2, [r1, r3]
 5741 0a5a 5A1C     		adds	r2, r3, #1
 5742              		.loc 1 1579 0
 5743 0a5c A9FB0213 		umull	r1, r3, r9, r2
 5744 0a60 1B09     		lsrs	r3, r3, #4
 5745 0a62 3221     		movs	r1, #50
 5746 0a64 01FB1323 		mls	r3, r1, r3, r2
 5747 0a68 0360     		str	r3, [r0]
 5748 0a6a FFF7A2BB 		b	.L536
 5749              	.LVL575:
 5750              	.L409:
 5751              	.LBB780:
 5752              		.loc 1 1708 0
 5753 0a6e 0023     		movs	r3, #0
 5754 0a70 0893     		str	r3, [sp, #32]
 5755              	.LVL576:
 5756              		.loc 1 1709 0
 5757 0a72 FFF7FEFF 		bl	encoder_read_deg
ARM GAS  /tmp/ccuyDb88.s 			page 102


 5758              	.LVL577:
 5759 0a76 20EE080A 		vmul.f32	s0, s0, s16
 5760 0a7a 08AA     		add	r2, sp, #32
 5761 0a7c FDEEC07A 		vcvt.s32.f32	s15, s0
 5762 0a80 07A8     		add	r0, sp, #28
 5763 0a82 17EE901A 		vmov	r1, s15	@ int
 5764 0a86 FFF7FEFF 		bl	buffer_append_int32
 5765              	.LVL578:
 5766              		.loc 1 1710 0
 5767 0a8a FFF7FEFF 		bl	app_get_configuration
 5768              	.LVL579:
 5769 0a8e 0078     		ldrb	r0, [r0]	@ zero_extendqisi2
 5770 0a90 0422     		movs	r2, #4
 5771 0a92 40F46050 		orr	r0, r0, #14336
 5772 0a96 07A9     		add	r1, sp, #28
 5773 0a98 FFF7FEFF 		bl	comm_can_transmit_eid_replace.constprop.2
 5774              	.LVL580:
 5775 0a9c FFF789BB 		b	.L536
 5776              	.LVL581:
 5777              	.L476:
 5778              	.LBE780:
 5779              	.LBB781:
 5780              	.LBB710:
 5781              		.loc 1 1852 0
 5782 0aa0 03EB4303 		add	r3, r3, r3, lsl #1
 5783              	.LVL582:
 5784 0aa4 7849     		ldr	r1, .L553+20
 5785              		.loc 1 1851 0
 5786 0aa6 0022     		movs	r2, #0
 5787              		.loc 1 1852 0
 5788 0aa8 41F83350 		str	r5, [r1, r3, lsl #3]
 5789 0aac 01EBC304 		add	r4, r1, r3, lsl #3
 5790              	.LVL583:
 5791              		.loc 1 1851 0
 5792 0ab0 0692     		str	r2, [sp, #24]
 5793              	.LBB697:
 5794              	.LBB698:
 5795              	.LBB699:
 5796              	.LBB700:
 5797              	.LBB701:
 5798              	.LBB702:
 5799              		.loc 5 342 0
 5800              		.syntax unified
 5801              	@ 342 "ChibiOS_3.0.5/os/ext/CMSIS/include/core_cmFunc.h" 1
 5802 0ab2 72B6     		cpsid i
 5803              	@ 0 "" 2
 5804              		.thumb
 5805              		.syntax unified
 5806              	.LBE702:
 5807              	.LBE701:
 5808              	.LBE700:
 5809              	.LBE699:
 5810              	.LBB703:
 5811              	.LBB704:
 5812              		.loc 6 231 0
 5813 0ab4 754B     		ldr	r3, .L553+24
 5814 0ab6 9B6A     		ldr	r3, [r3, #40]
ARM GAS  /tmp/ccuyDb88.s 			page 103


 5815              	.LBE704:
 5816              	.LBE703:
 5817              	.LBB705:
 5818              	.LBB706:
 5819              	.LBB707:
 5820              	.LBB708:
 5821              	.LBB709:
 5822              		.loc 5 331 0
 5823              		.syntax unified
 5824              	@ 331 "ChibiOS_3.0.5/os/ext/CMSIS/include/core_cmFunc.h" 1
 5825 0ab8 62B6     		cpsie i
 5826              	@ 0 "" 2
 5827              		.thumb
 5828              		.syntax unified
 5829              	.LBE709:
 5830              	.LBE708:
 5831              	.LBE707:
 5832              	.LBE706:
 5833              	.LBE705:
 5834              	.LBE698:
 5835              	.LBE697:
 5836              		.loc 1 1855 0
 5837 0aba B2EE040A 		vmov.f32	s0, #1.0e+1
 5838              		.loc 1 1853 0
 5839 0abe 6360     		str	r3, [r4, #4]
 5840              		.loc 1 1855 0
 5841 0ac0 06A9     		add	r1, sp, #24
 5842 0ac2 0CA8     		add	r0, sp, #48
 5843              	.LVL584:
 5844 0ac4 FFF7FEFF 		bl	buffer_get_float16
 5845              	.LVL585:
 5846              		.loc 1 1856 0
 5847 0ac8 06A9     		add	r1, sp, #24
 5848              		.loc 1 1855 0
 5849 0aca 84ED020A 		vstr.32	s0, [r4, #8]
 5850              		.loc 1 1856 0
 5851 0ace 0CA8     		add	r0, sp, #48
 5852              	.LVL586:
 5853 0ad0 B2EE040A 		vmov.f32	s0, #1.0e+1
 5854 0ad4 FFF7FEFF 		bl	buffer_get_float16
 5855              	.LVL587:
 5856              		.loc 1 1857 0
 5857 0ad8 06A9     		add	r1, sp, #24
 5858              		.loc 1 1856 0
 5859 0ada 84ED030A 		vstr.32	s0, [r4, #12]
 5860              		.loc 1 1857 0
 5861 0ade 0CA8     		add	r0, sp, #48
 5862              	.LVL588:
 5863 0ae0 B2EE040A 		vmov.f32	s0, #1.0e+1
 5864 0ae4 FFF7FEFF 		bl	buffer_get_float16
 5865              	.LVL589:
 5866              		.loc 1 1858 0
 5867 0ae8 069B     		ldr	r3, [sp, #24]
 5868              		.loc 1 1857 0
 5869 0aea 84ED040A 		vstr.32	s0, [r4, #16]
 5870              		.loc 1 1858 0
 5871 0aee 0EAA     		add	r2, sp, #56
ARM GAS  /tmp/ccuyDb88.s 			page 104


 5872 0af0 1344     		add	r3, r3, r2
 5873 0af2 13F8083C 		ldrb	r3, [r3, #-8]	@ zero_extendqisi2
 5874 0af6 03F00101 		and	r1, r3, #1
 5875              		.loc 1 1859 0
 5876 0afa C3F34002 		ubfx	r2, r3, #1, #1
 5877              		.loc 1 1860 0
 5878 0afe C3F38003 		ubfx	r3, r3, #2, #1
 5879              		.loc 1 1858 0
 5880 0b02 2175     		strb	r1, [r4, #20]
 5881              		.loc 1 1859 0
 5882 0b04 6275     		strb	r2, [r4, #21]
 5883              		.loc 1 1860 0
 5884 0b06 A375     		strb	r3, [r4, #22]
 5885 0b08 FFF753BB 		b	.L536
 5886              	.LVL590:
 5887              	.L471:
 5888              	.LBE710:
 5889              	.LBE781:
 5890              	.LBB782:
 5891              	.LBB727:
 5892              		.loc 1 1834 0
 5893 0b0c 6049     		ldr	r1, .L553+28
 5894              		.loc 1 1833 0
 5895 0b0e 0023     		movs	r3, #0
 5896              	.LVL591:
 5897              		.loc 1 1834 0
 5898 0b10 8D50     		str	r5, [r1, r2]
 5899              		.loc 1 1833 0
 5900 0b12 0693     		str	r3, [sp, #24]
 5901              		.loc 1 1834 0
 5902 0b14 1144     		add	r1, r1, r2
 5903              	.LBB713:
 5904              	.LBB714:
 5905              	.LBB715:
 5906              	.LBB716:
 5907              	.LBB717:
 5908              	.LBB718:
 5909              		.loc 5 342 0
 5910              		.syntax unified
 5911              	@ 342 "ChibiOS_3.0.5/os/ext/CMSIS/include/core_cmFunc.h" 1
 5912 0b16 72B6     		cpsid i
 5913              	@ 0 "" 2
 5914              		.thumb
 5915              		.syntax unified
 5916              	.LBE718:
 5917              	.LBE717:
 5918              	.LBE716:
 5919              	.LBE715:
 5920              	.LBB719:
 5921              	.LBB720:
 5922              		.loc 6 231 0
 5923 0b18 5C48     		ldr	r0, .L553+24
 5924 0b1a 806A     		ldr	r0, [r0, #40]
 5925              	.LBE720:
 5926              	.LBE719:
 5927              	.LBB721:
 5928              	.LBB722:
ARM GAS  /tmp/ccuyDb88.s 			page 105


 5929              	.LBB723:
 5930              	.LBB724:
 5931              	.LBB725:
 5932              		.loc 5 331 0
 5933              		.syntax unified
 5934              	@ 331 "ChibiOS_3.0.5/os/ext/CMSIS/include/core_cmFunc.h" 1
 5935 0b1c 62B6     		cpsie i
 5936              	@ 0 "" 2
 5937              		.thumb
 5938              		.syntax unified
 5939              	.LBE725:
 5940              	.LBE724:
 5941              	.LBE723:
 5942              	.LBE722:
 5943              	.LBE721:
 5944              	.LBE714:
 5945              	.LBE713:
 5946              		.loc 1 1835 0
 5947 0b1e 4860     		str	r0, [r1, #4]
 5948              		.loc 1 1837 0
 5949 0b20 0693     		str	r3, [sp, #24]
 5950              		.loc 1 1836 0
 5951 0b22 C1E90233 		strd	r3, r3, [r1, #8]
 5952              		.loc 1 1838 0
 5953 0b26 B8F1000F 		cmp	r8, #0
 5954 0b2a 3FF442AB 		beq	.L536
 5955 0b2e 1846     		mov	r0, r3
 5956 0b30 1946     		mov	r1, r3
 5957 0b32 4FEAC808 		lsl	r8, r8, #3
 5958              	.LVL592:
 5959 0b36 0DF12F0C 		add	ip, sp, #47
 5960              	.LVL593:
 5961              	.L473:
 5962              		.loc 1 1839 0
 5963 0b3a 1CF8014F 		ldrb	r4, [ip, #1]!	@ zero_extendqisi2
 5964 0b3e 0025     		movs	r5, #0
 5965 0b40 CDE90045 		strd	r4, [sp]
 5966 0b44 009C     		ldr	r4, [sp]
 5967 0b46 A3F1200E 		sub	lr, r3, #32
 5968 0b4a C3F12005 		rsb	r5, r3, #32
 5969 0b4e 04FA03FA 		lsl	r10, r4, r3
 5970 0b52 04FA0EFB 		lsl	fp, r4, lr
 5971 0b56 24FA05F5 		lsr	r5, r4, r5
 5972 0b5a 0833     		adds	r3, r3, #8
 5973 0b5c 4BEA050B 		orr	fp, fp, r5
 5974              		.loc 1 1838 0
 5975 0b60 9845     		cmp	r8, r3
 5976              		.loc 1 1839 0
 5977 0b62 40EA0A00 		orr	r0, r0, r10
 5978 0b66 41EA0B01 		orr	r1, r1, fp
 5979              		.loc 1 1838 0
 5980 0b6a E6D1     		bne	.L473
 5981 0b6c 484B     		ldr	r3, .L553+28
 5982              	.LVL594:
 5983 0b6e 1A44     		add	r2, r2, r3
 5984              	.LVL595:
 5985 0b70 C2E90201 		strd	r0, [r2, #8]
ARM GAS  /tmp/ccuyDb88.s 			page 106


 5986 0b74 FFF71DBB 		b	.L536
 5987              	.LVL596:
 5988              	.L460:
 5989              	.LBE727:
 5990              	.LBE782:
 5991              	.LBB783:
 5992              	.LBB763:
 5993              		.loc 1 1786 0
 5994 0b78 464A     		ldr	r2, .L553+32
 5995              		.loc 1 1785 0
 5996 0b7a 0023     		movs	r3, #0
 5997              	.LVL597:
 5998              		.loc 1 1786 0
 5999 0b7c 5550     		str	r5, [r2, r1]
 6000 0b7e 5418     		adds	r4, r2, r1
 6001              	.LVL598:
 6002              		.loc 1 1785 0
 6003 0b80 0693     		str	r3, [sp, #24]
 6004              	.LBB749:
 6005              	.LBB750:
 6006              	.LBB751:
 6007              	.LBB752:
 6008              	.LBB753:
 6009              	.LBB754:
 6010              		.loc 5 342 0
 6011              		.syntax unified
 6012              	@ 342 "ChibiOS_3.0.5/os/ext/CMSIS/include/core_cmFunc.h" 1
 6013 0b82 72B6     		cpsid i
 6014              	@ 0 "" 2
 6015              		.thumb
 6016              		.syntax unified
 6017              	.LBE754:
 6018              	.LBE753:
 6019              	.LBE752:
 6020              	.LBE751:
 6021              	.LBB755:
 6022              	.LBB756:
 6023              		.loc 6 231 0
 6024 0b84 414B     		ldr	r3, .L553+24
 6025 0b86 9B6A     		ldr	r3, [r3, #40]
 6026              	.LBE756:
 6027              	.LBE755:
 6028              	.LBB757:
 6029              	.LBB758:
 6030              	.LBB759:
 6031              	.LBB760:
 6032              	.LBB761:
 6033              		.loc 5 331 0
 6034              		.syntax unified
 6035              	@ 331 "ChibiOS_3.0.5/os/ext/CMSIS/include/core_cmFunc.h" 1
 6036 0b88 62B6     		cpsie i
 6037              	@ 0 "" 2
 6038              		.thumb
 6039              		.syntax unified
 6040              	.LBE761:
 6041              	.LBE760:
 6042              	.LBE759:
ARM GAS  /tmp/ccuyDb88.s 			page 107


 6043              	.LBE758:
 6044              	.LBE757:
 6045              	.LBE750:
 6046              	.LBE749:
 6047              		.loc 1 1788 0
 6048 0b8a 06A9     		add	r1, sp, #24
 6049              		.loc 1 1787 0
 6050 0b8c 6360     		str	r3, [r4, #4]
 6051              		.loc 1 1788 0
 6052 0b8e 0CA8     		add	r0, sp, #48
 6053              	.LVL599:
 6054 0b90 FFF7FEFF 		bl	buffer_get_int32
 6055              	.LVL600:
 6056              		.loc 1 1789 0
 6057 0b94 06A9     		add	r1, sp, #24
 6058              		.loc 1 1788 0
 6059 0b96 E060     		str	r0, [r4, #12]
 6060              		.loc 1 1789 0
 6061 0b98 0CA8     		add	r0, sp, #48
 6062              	.LVL601:
 6063 0b9a FFF7FEFF 		bl	buffer_get_int16
 6064              	.LVL602:
 6065 0b9e 07EE900A 		vmov	s15, r0	@ int
 6066 0ba2 F8EEE76A 		vcvt.f32.s32	s13, s15
 6067 0ba6 B2EE047A 		vmov.f32	s14, #1.0e+1
 6068 0baa C6EE877A 		vdiv.f32	s15, s13, s14
 6069 0bae C4ED027A 		vstr.32	s15, [r4, #8]
 6070 0bb2 FFF7FEBA 		b	.L536
 6071              	.LVL603:
 6072              	.L451:
 6073              	.LBE763:
 6074              	.LBE783:
 6075              	.LBB784:
 6076              	.LBB768:
 6077              		.loc 1 1742 0
 6078 0bb6 384A     		ldr	r2, .L553+36
 6079              		.loc 1 1741 0
 6080 0bb8 0023     		movs	r3, #0
 6081              	.LVL604:
 6082              	.L535:
 6083              	.LBE768:
 6084              	.LBE784:
 6085              	.LBB785:
 6086              	.LBB675:
 6087              		.loc 1 1756 0
 6088 0bba 5550     		str	r5, [r2, r1]
 6089 0bbc 5418     		adds	r4, r2, r1
 6090              	.LVL605:
 6091              		.loc 1 1755 0
 6092 0bbe 0693     		str	r3, [sp, #24]
 6093              	.LBB660:
 6094              	.LBB661:
 6095              	.LBB662:
 6096              	.LBB663:
 6097              	.LBB664:
 6098              	.LBB665:
 6099              		.loc 5 342 0
ARM GAS  /tmp/ccuyDb88.s 			page 108


 6100              		.syntax unified
 6101              	@ 342 "ChibiOS_3.0.5/os/ext/CMSIS/include/core_cmFunc.h" 1
 6102 0bc0 72B6     		cpsid i
 6103              	@ 0 "" 2
 6104              		.thumb
 6105              		.syntax unified
 6106              	.LBE665:
 6107              	.LBE664:
 6108              	.LBE663:
 6109              	.LBE662:
 6110              	.LBB666:
 6111              	.LBB667:
 6112              		.loc 6 231 0
 6113 0bc2 324B     		ldr	r3, .L553+24
 6114 0bc4 9B6A     		ldr	r3, [r3, #40]
 6115              	.LBE667:
 6116              	.LBE666:
 6117              	.LBB668:
 6118              	.LBB669:
 6119              	.LBB670:
 6120              	.LBB671:
 6121              	.LBB672:
 6122              		.loc 5 331 0
 6123              		.syntax unified
 6124              	@ 331 "ChibiOS_3.0.5/os/ext/CMSIS/include/core_cmFunc.h" 1
 6125 0bc6 62B6     		cpsie i
 6126              	@ 0 "" 2
 6127              		.thumb
 6128              		.syntax unified
 6129              	.LBE672:
 6130              	.LBE671:
 6131              	.LBE670:
 6132              	.LBE669:
 6133              	.LBE668:
 6134              	.LBE661:
 6135              	.LBE660:
 6136              		.loc 1 1758 0
 6137 0bc8 06A9     		add	r1, sp, #24
 6138              		.loc 1 1757 0
 6139 0bca 6360     		str	r3, [r4, #4]
 6140              		.loc 1 1758 0
 6141 0bcc 0CA8     		add	r0, sp, #48
 6142              	.LVL606:
 6143 0bce FFF7FEFF 		bl	buffer_get_int32
 6144              	.LVL607:
 6145 0bd2 07EE900A 		vmov	s15, r0	@ int
 6146 0bd6 B8EEE77A 		vcvt.f32.s32	s14, s15
 6147              		.loc 1 1759 0
 6148 0bda 06A9     		add	r1, sp, #24
 6149              		.loc 1 1758 0
 6150 0bdc C7EE297A 		vdiv.f32	s15, s14, s19
 6151              		.loc 1 1759 0
 6152 0be0 0CA8     		add	r0, sp, #48
 6153              	.LVL608:
 6154              		.loc 1 1758 0
 6155 0be2 C4ED027A 		vstr.32	s15, [r4, #8]
 6156              		.loc 1 1759 0
ARM GAS  /tmp/ccuyDb88.s 			page 109


 6157 0be6 FFF7FEFF 		bl	buffer_get_int32
 6158              	.LVL609:
 6159 0bea 07EE900A 		vmov	s15, r0	@ int
 6160 0bee B8EEE77A 		vcvt.f32.s32	s14, s15
 6161 0bf2 C7EE297A 		vdiv.f32	s15, s14, s19
 6162 0bf6 C4ED037A 		vstr.32	s15, [r4, #12]
 6163 0bfa FFF7DABA 		b	.L536
 6164              	.LVL610:
 6165              	.L454:
 6166              		.loc 1 1755 0
 6167 0bfe 0023     		movs	r3, #0
 6168              	.LVL611:
 6169              		.loc 1 1756 0
 6170 0c00 264A     		ldr	r2, .L553+40
 6171 0c02 DAE7     		b	.L535
 6172              	.LVL612:
 6173              	.L419:
 6174              	.LBE675:
 6175              	.LBE785:
 6176              		.loc 1 1484 0
 6177 0c04 A8F10201 		sub	r1, r8, #2
 6178 0c08 254A     		ldr	r2, .L553+44
 6179 0c0a 0DF13200 		add	r0, sp, #50
 6180 0c0e FFF7FEFF 		bl	commands_process_packet
 6181              	.LVL613:
 6182 0c12 FFF7CEBA 		b	.L536
 6183              	.LVL614:
 6184              	.L418:
 6185              		.loc 1 1487 0
 6186 0c16 A8F10201 		sub	r1, r8, #2
 6187 0c1a 0DF13200 		add	r0, sp, #50
 6188 0c1e FFF7FEFF 		bl	commands_send_packet_can_last
 6189              	.LVL615:
 6190 0c22 FFF7C6BA 		b	.L536
 6191              	.LVL616:
 6192              	.L546:
 6193              	.LBB786:
 6194              	.LBB779:
 6195              		.loc 1 1555 0
 6196 0c26 FFF7FEFF 		bl	mempools_alloc_appconf
 6197              	.LVL617:
 6198 0c2a 0446     		mov	r4, r0
 6199              	.LVL618:
 6200              		.loc 1 1556 0
 6201 0c2c FFF7FEFF 		bl	app_get_configuration
 6202              	.LVL619:
 6203 0c30 4FF40E72 		mov	r2, #568
 6204 0c34 0146     		mov	r1, r0
 6205 0c36 2046     		mov	r0, r4
 6206 0c38 FFF7FEFF 		bl	memcpy
 6207              	.LVL620:
 6208              		.loc 1 1558 0
 6209 0c3c 237B     		ldrb	r3, [r4, #12]	@ zero_extendqisi2
 6210 0c3e 042B     		cmp	r3, #4
 6211 0c40 07D0     		beq	.L425
 6212              		.loc 1 1559 0
 6213 0c42 0423     		movs	r3, #4
ARM GAS  /tmp/ccuyDb88.s 			page 110


 6214 0c44 2373     		strb	r3, [r4, #12]
 6215              		.loc 1 1560 0
 6216 0c46 2046     		mov	r0, r4
 6217 0c48 FFF7FEFF 		bl	conf_general_store_app_configuration
 6218              	.LVL621:
 6219              		.loc 1 1561 0
 6220 0c4c 2046     		mov	r0, r4
 6221 0c4e FFF7FEFF 		bl	app_set_configuration
 6222              	.LVL622:
 6223              	.L425:
 6224              		.loc 1 1564 0
 6225 0c52 2046     		mov	r0, r4
 6226 0c54 FFF7FEFF 		bl	mempools_free_appconf
 6227              	.LVL623:
 6228 0c58 D3E6     		b	.L424
 6229              	.LVL624:
 6230              	.L416:
 6231              	.LBE779:
 6232              	.LBE786:
 6233              		.loc 1 1453 0
 6234 0c5a 1946     		mov	r1, r3
 6235 0c5c 104A     		ldr	r2, .L553+44
 6236 0c5e 1148     		ldr	r0, .L553+48
 6237 0c60 FFF7FEFF 		bl	commands_process_packet
 6238              	.LVL625:
 6239 0c64 FFF7A5BA 		b	.L536
 6240              	.L415:
 6241              		.loc 1 1456 0
 6242 0c68 1946     		mov	r1, r3
 6243 0c6a 0E48     		ldr	r0, .L553+48
 6244 0c6c FFF7FEFF 		bl	commands_send_packet_can_last
 6245              	.LVL626:
 6246 0c70 FFF79FBA 		b	.L536
 6247              	.L554:
 6248              		.align	2
 6249              	.L553:
 6250 0c74 00000000 		.word	.LANCHOR23
 6251 0c78 00000000 		.word	.LANCHOR24
 6252 0c7c 00000000 		.word	.LANCHOR25
 6253 0c80 00000000 		.word	.LANCHOR26
 6254 0c84 00000000 		.word	.LANCHOR27
 6255 0c88 00000000 		.word	.LANCHOR14
 6256 0c8c 00000000 		.word	ch
 6257 0c90 00000000 		.word	.LANCHOR13
 6258 0c94 00000000 		.word	.LANCHOR10
 6259 0c98 00000000 		.word	.LANCHOR7
 6260 0c9c 00000000 		.word	.LANCHOR8
 6261 0ca0 00000000 		.word	send_packet_wrapper
 6262 0ca4 00000000 		.word	.LANCHOR28
 6263              	.LBE793:
 6264              	.LBE800:
 6265              	.LBE807:
 6266              	.LBE815:
 6267              	.LBE817:
 6268              		.cfi_endproc
 6269              	.LFE314:
 6270              		.size	cancom_process_thread, .-cancom_process_thread
ARM GAS  /tmp/ccuyDb88.s 			page 111


 6271              		.section	.text.comm_can_send_status1,"ax",%progbits
 6272              		.align	1
 6273              		.p2align 4,,15
 6274              		.global	comm_can_send_status1
 6275              		.syntax unified
 6276              		.thumb
 6277              		.thumb_func
 6278              		.fpu fpv4-sp-d16
 6279              		.type	comm_can_send_status1, %function
 6280              	comm_can_send_status1:
 6281              	.LFB308:
 6282              		.loc 1 1063 0
 6283              		.cfi_startproc
 6284              		@ args = 0, pretend = 0, frame = 16
 6285              		@ frame_needed = 0, uses_anonymous_args = 0
 6286              	.LVL627:
 6287 0000 30B5     		push	{r4, r5, lr}
 6288              		.cfi_def_cfa_offset 12
 6289              		.cfi_offset 4, -12
 6290              		.cfi_offset 5, -8
 6291              		.cfi_offset 14, -4
 6292 0002 85B0     		sub	sp, sp, #20
 6293              		.cfi_def_cfa_offset 32
 6294              		.loc 1 1064 0
 6295 0004 04AC     		add	r4, sp, #16
 6296 0006 0023     		movs	r3, #0
 6297 0008 44F80C3D 		str	r3, [r4, #-12]!
 6298              		.loc 1 1063 0
 6299 000c 0546     		mov	r5, r0
 6300              		.loc 1 1066 0
 6301 000e FFF7FEFF 		bl	mc_interface_get_rpm
 6302              	.LVL628:
 6303 0012 FDEEC07A 		vcvt.s32.f32	s15, s0
 6304 0016 2246     		mov	r2, r4
 6305 0018 17EE901A 		vmov	r1, s15	@ int
 6306 001c 02A8     		add	r0, sp, #8
 6307 001e FFF7FEFF 		bl	buffer_append_int32
 6308              	.LVL629:
 6309              		.loc 1 1067 0
 6310 0022 FFF7FEFF 		bl	mc_interface_get_tot_current_filtered
 6311              	.LVL630:
 6312 0026 F2EE047A 		vmov.f32	s15, #1.0e+1
 6313 002a 20EE270A 		vmul.f32	s0, s0, s15
 6314 002e 2246     		mov	r2, r4
 6315 0030 BDEEC00A 		vcvt.s32.f32	s0, s0
 6316 0034 02A8     		add	r0, sp, #8
 6317 0036 10EE103A 		vmov	r3, s0	@ int
 6318 003a 19B2     		sxth	r1, r3
 6319 003c FFF7FEFF 		bl	buffer_append_int16
 6320              	.LVL631:
 6321              		.loc 1 1068 0
 6322 0040 FFF7FEFF 		bl	mc_interface_get_duty_cycle_now
 6323              	.LVL632:
 6324 0044 DFED0A7A 		vldr.32	s15, .L557
 6325 0048 20EE270A 		vmul.f32	s0, s0, s15
 6326 004c 2246     		mov	r2, r4
 6327 004e BDEEC00A 		vcvt.s32.f32	s0, s0
ARM GAS  /tmp/ccuyDb88.s 			page 112


 6328 0052 02A8     		add	r0, sp, #8
 6329 0054 10EE103A 		vmov	r3, s0	@ int
 6330 0058 19B2     		sxth	r1, r3
 6331 005a FFF7FEFF 		bl	buffer_append_int16
 6332              	.LVL633:
 6333              		.loc 1 1069 0
 6334 005e 02A9     		add	r1, sp, #8
 6335 0060 45F41060 		orr	r0, r5, #2304
 6336 0064 9DF80420 		ldrb	r2, [sp, #4]	@ zero_extendqisi2
 6337 0068 FFF7FEFF 		bl	comm_can_transmit_eid_replace.constprop.2
 6338              	.LVL634:
 6339              		.loc 1 1071 0
 6340 006c 05B0     		add	sp, sp, #20
 6341              		.cfi_def_cfa_offset 12
 6342              		@ sp needed
 6343 006e 30BD     		pop	{r4, r5, pc}
 6344              	.L558:
 6345              		.align	2
 6346              	.L557:
 6347 0070 00007A44 		.word	1148846080
 6348              		.cfi_endproc
 6349              	.LFE308:
 6350              		.size	comm_can_send_status1, .-comm_can_send_status1
 6351              		.section	.text.comm_can_send_status2,"ax",%progbits
 6352              		.align	1
 6353              		.p2align 4,,15
 6354              		.global	comm_can_send_status2
 6355              		.syntax unified
 6356              		.thumb
 6357              		.thumb_func
 6358              		.fpu fpv4-sp-d16
 6359              		.type	comm_can_send_status2, %function
 6360              	comm_can_send_status2:
 6361              	.LFB309:
 6362              		.loc 1 1073 0
 6363              		.cfi_startproc
 6364              		@ args = 0, pretend = 0, frame = 16
 6365              		@ frame_needed = 0, uses_anonymous_args = 0
 6366              	.LVL635:
 6367 0000 70B5     		push	{r4, r5, r6, lr}
 6368              		.cfi_def_cfa_offset 16
 6369              		.cfi_offset 4, -16
 6370              		.cfi_offset 5, -12
 6371              		.cfi_offset 6, -8
 6372              		.cfi_offset 14, -4
 6373 0002 2DED028B 		vpush.64	{d8}
 6374              		.cfi_def_cfa_offset 24
 6375              		.cfi_offset 80, -24
 6376              		.cfi_offset 81, -20
 6377 0006 84B0     		sub	sp, sp, #16
 6378              		.cfi_def_cfa_offset 40
 6379              		.loc 1 1074 0
 6380 0008 0025     		movs	r5, #0
 6381 000a 04AC     		add	r4, sp, #16
 6382              		.loc 1 1073 0
 6383 000c 0646     		mov	r6, r0
 6384              		.loc 1 1076 0
ARM GAS  /tmp/ccuyDb88.s 			page 113


 6385 000e 2846     		mov	r0, r5
 6386              	.LVL636:
 6387              		.loc 1 1074 0
 6388 0010 44F80C5D 		str	r5, [r4, #-12]!
 6389              		.loc 1 1076 0
 6390 0014 FFF7FEFF 		bl	mc_interface_get_amp_hours
 6391              	.LVL637:
 6392 0018 9FED118A 		vldr.32	s16, .L561
 6393 001c 20EE080A 		vmul.f32	s0, s0, s16
 6394 0020 2246     		mov	r2, r4
 6395 0022 FDEEC07A 		vcvt.s32.f32	s15, s0
 6396 0026 02A8     		add	r0, sp, #8
 6397 0028 17EE901A 		vmov	r1, s15	@ int
 6398 002c FFF7FEFF 		bl	buffer_append_int32
 6399              	.LVL638:
 6400              		.loc 1 1077 0
 6401 0030 2846     		mov	r0, r5
 6402 0032 FFF7FEFF 		bl	mc_interface_get_amp_hours_charged
 6403              	.LVL639:
 6404 0036 20EE080A 		vmul.f32	s0, s0, s16
 6405 003a 2246     		mov	r2, r4
 6406 003c FDEEC07A 		vcvt.s32.f32	s15, s0
 6407 0040 02A8     		add	r0, sp, #8
 6408 0042 17EE901A 		vmov	r1, s15	@ int
 6409 0046 FFF7FEFF 		bl	buffer_append_int32
 6410              	.LVL640:
 6411              		.loc 1 1078 0
 6412 004a 02A9     		add	r1, sp, #8
 6413 004c 46F46060 		orr	r0, r6, #3584
 6414 0050 9DF80420 		ldrb	r2, [sp, #4]	@ zero_extendqisi2
 6415 0054 FFF7FEFF 		bl	comm_can_transmit_eid_replace.constprop.2
 6416              	.LVL641:
 6417              		.loc 1 1080 0
 6418 0058 04B0     		add	sp, sp, #16
 6419              		.cfi_def_cfa_offset 24
 6420              		@ sp needed
 6421 005a BDEC028B 		vldm	sp!, {d8}
 6422              		.cfi_restore 80
 6423              		.cfi_restore 81
 6424              		.cfi_def_cfa_offset 16
 6425 005e 70BD     		pop	{r4, r5, r6, pc}
 6426              	.L562:
 6427              		.align	2
 6428              	.L561:
 6429 0060 00401C46 		.word	1176256512
 6430              		.cfi_endproc
 6431              	.LFE309:
 6432              		.size	comm_can_send_status2, .-comm_can_send_status2
 6433              		.section	.text.comm_can_send_status3,"ax",%progbits
 6434              		.align	1
 6435              		.p2align 4,,15
 6436              		.global	comm_can_send_status3
 6437              		.syntax unified
 6438              		.thumb
 6439              		.thumb_func
 6440              		.fpu fpv4-sp-d16
 6441              		.type	comm_can_send_status3, %function
ARM GAS  /tmp/ccuyDb88.s 			page 114


 6442              	comm_can_send_status3:
 6443              	.LFB310:
 6444              		.loc 1 1082 0
 6445              		.cfi_startproc
 6446              		@ args = 0, pretend = 0, frame = 16
 6447              		@ frame_needed = 0, uses_anonymous_args = 0
 6448              	.LVL642:
 6449 0000 70B5     		push	{r4, r5, r6, lr}
 6450              		.cfi_def_cfa_offset 16
 6451              		.cfi_offset 4, -16
 6452              		.cfi_offset 5, -12
 6453              		.cfi_offset 6, -8
 6454              		.cfi_offset 14, -4
 6455 0002 2DED028B 		vpush.64	{d8}
 6456              		.cfi_def_cfa_offset 24
 6457              		.cfi_offset 80, -24
 6458              		.cfi_offset 81, -20
 6459 0006 84B0     		sub	sp, sp, #16
 6460              		.cfi_def_cfa_offset 40
 6461              		.loc 1 1083 0
 6462 0008 0025     		movs	r5, #0
 6463 000a 04AC     		add	r4, sp, #16
 6464              		.loc 1 1082 0
 6465 000c 0646     		mov	r6, r0
 6466              		.loc 1 1085 0
 6467 000e 2846     		mov	r0, r5
 6468              	.LVL643:
 6469              		.loc 1 1083 0
 6470 0010 44F80C5D 		str	r5, [r4, #-12]!
 6471              		.loc 1 1085 0
 6472 0014 FFF7FEFF 		bl	mc_interface_get_watt_hours
 6473              	.LVL644:
 6474 0018 9FED118A 		vldr.32	s16, .L565
 6475 001c 20EE080A 		vmul.f32	s0, s0, s16
 6476 0020 2246     		mov	r2, r4
 6477 0022 FDEEC07A 		vcvt.s32.f32	s15, s0
 6478 0026 02A8     		add	r0, sp, #8
 6479 0028 17EE901A 		vmov	r1, s15	@ int
 6480 002c FFF7FEFF 		bl	buffer_append_int32
 6481              	.LVL645:
 6482              		.loc 1 1086 0
 6483 0030 2846     		mov	r0, r5
 6484 0032 FFF7FEFF 		bl	mc_interface_get_watt_hours_charged
 6485              	.LVL646:
 6486 0036 20EE080A 		vmul.f32	s0, s0, s16
 6487 003a 2246     		mov	r2, r4
 6488 003c FDEEC07A 		vcvt.s32.f32	s15, s0
 6489 0040 02A8     		add	r0, sp, #8
 6490 0042 17EE901A 		vmov	r1, s15	@ int
 6491 0046 FFF7FEFF 		bl	buffer_append_int32
 6492              	.LVL647:
 6493              		.loc 1 1087 0
 6494 004a 02A9     		add	r1, sp, #8
 6495 004c 46F47060 		orr	r0, r6, #3840
 6496 0050 9DF80420 		ldrb	r2, [sp, #4]	@ zero_extendqisi2
 6497 0054 FFF7FEFF 		bl	comm_can_transmit_eid_replace.constprop.2
 6498              	.LVL648:
ARM GAS  /tmp/ccuyDb88.s 			page 115


 6499              		.loc 1 1089 0
 6500 0058 04B0     		add	sp, sp, #16
 6501              		.cfi_def_cfa_offset 24
 6502              		@ sp needed
 6503 005a BDEC028B 		vldm	sp!, {d8}
 6504              		.cfi_restore 80
 6505              		.cfi_restore 81
 6506              		.cfi_def_cfa_offset 16
 6507 005e 70BD     		pop	{r4, r5, r6, pc}
 6508              	.L566:
 6509              		.align	2
 6510              	.L565:
 6511 0060 00401C46 		.word	1176256512
 6512              		.cfi_endproc
 6513              	.LFE310:
 6514              		.size	comm_can_send_status3, .-comm_can_send_status3
 6515              		.section	.text.comm_can_send_status4,"ax",%progbits
 6516              		.align	1
 6517              		.p2align 4,,15
 6518              		.global	comm_can_send_status4
 6519              		.syntax unified
 6520              		.thumb
 6521              		.thumb_func
 6522              		.fpu fpv4-sp-d16
 6523              		.type	comm_can_send_status4, %function
 6524              	comm_can_send_status4:
 6525              	.LFB311:
 6526              		.loc 1 1091 0
 6527              		.cfi_startproc
 6528              		@ args = 0, pretend = 0, frame = 16
 6529              		@ frame_needed = 0, uses_anonymous_args = 0
 6530              	.LVL649:
 6531 0000 30B5     		push	{r4, r5, lr}
 6532              		.cfi_def_cfa_offset 12
 6533              		.cfi_offset 4, -12
 6534              		.cfi_offset 5, -8
 6535              		.cfi_offset 14, -4
 6536 0002 2DED028B 		vpush.64	{d8}
 6537              		.cfi_def_cfa_offset 20
 6538              		.cfi_offset 80, -20
 6539              		.cfi_offset 81, -16
 6540 0006 85B0     		sub	sp, sp, #20
 6541              		.cfi_def_cfa_offset 40
 6542              		.loc 1 1092 0
 6543 0008 04AC     		add	r4, sp, #16
 6544 000a 0023     		movs	r3, #0
 6545 000c 44F80C3D 		str	r3, [r4, #-12]!
 6546              		.loc 1 1091 0
 6547 0010 0546     		mov	r5, r0
 6548              		.loc 1 1094 0
 6549 0012 FFF7FEFF 		bl	mc_interface_temp_fet_filtered
 6550              	.LVL650:
 6551 0016 B2EE048A 		vmov.f32	s16, #1.0e+1
 6552 001a 20EE080A 		vmul.f32	s0, s0, s16
 6553 001e 2246     		mov	r2, r4
 6554 0020 BDEEC00A 		vcvt.s32.f32	s0, s0
 6555 0024 02A8     		add	r0, sp, #8
ARM GAS  /tmp/ccuyDb88.s 			page 116


 6556 0026 10EE103A 		vmov	r3, s0	@ int
 6557 002a 19B2     		sxth	r1, r3
 6558 002c FFF7FEFF 		bl	buffer_append_int16
 6559              	.LVL651:
 6560              		.loc 1 1095 0
 6561 0030 FFF7FEFF 		bl	mc_interface_temp_motor_filtered
 6562              	.LVL652:
 6563 0034 20EE080A 		vmul.f32	s0, s0, s16
 6564 0038 2246     		mov	r2, r4
 6565 003a BDEEC00A 		vcvt.s32.f32	s0, s0
 6566 003e 02A8     		add	r0, sp, #8
 6567 0040 10EE103A 		vmov	r3, s0	@ int
 6568 0044 19B2     		sxth	r1, r3
 6569 0046 FFF7FEFF 		bl	buffer_append_int16
 6570              	.LVL653:
 6571              		.loc 1 1096 0
 6572 004a FFF7FEFF 		bl	mc_interface_get_tot_current_in_filtered
 6573              	.LVL654:
 6574 004e 20EE080A 		vmul.f32	s0, s0, s16
 6575 0052 2246     		mov	r2, r4
 6576 0054 BDEEC00A 		vcvt.s32.f32	s0, s0
 6577 0058 02A8     		add	r0, sp, #8
 6578 005a 10EE103A 		vmov	r3, s0	@ int
 6579 005e 19B2     		sxth	r1, r3
 6580 0060 FFF7FEFF 		bl	buffer_append_int16
 6581              	.LVL655:
 6582              		.loc 1 1097 0
 6583 0064 FFF7FEFF 		bl	mc_interface_get_pid_pos_now
 6584              	.LVL656:
 6585 0068 DFED0B7A 		vldr.32	s15, .L569
 6586 006c 20EE270A 		vmul.f32	s0, s0, s15
 6587 0070 2246     		mov	r2, r4
 6588 0072 BDEEC00A 		vcvt.s32.f32	s0, s0
 6589 0076 02A8     		add	r0, sp, #8
 6590 0078 10EE103A 		vmov	r3, s0	@ int
 6591 007c 19B2     		sxth	r1, r3
 6592 007e FFF7FEFF 		bl	buffer_append_int16
 6593              	.LVL657:
 6594              		.loc 1 1098 0
 6595 0082 02A9     		add	r1, sp, #8
 6596 0084 45F48050 		orr	r0, r5, #4096
 6597 0088 9DF80420 		ldrb	r2, [sp, #4]	@ zero_extendqisi2
 6598 008c FFF7FEFF 		bl	comm_can_transmit_eid_replace.constprop.2
 6599              	.LVL658:
 6600              		.loc 1 1100 0
 6601 0090 05B0     		add	sp, sp, #20
 6602              		.cfi_def_cfa_offset 20
 6603              		@ sp needed
 6604 0092 BDEC028B 		vldm	sp!, {d8}
 6605              		.cfi_restore 80
 6606              		.cfi_restore 81
 6607              		.cfi_def_cfa_offset 12
 6608 0096 30BD     		pop	{r4, r5, pc}
 6609              	.L570:
 6610              		.align	2
 6611              	.L569:
 6612 0098 00004842 		.word	1112014848
ARM GAS  /tmp/ccuyDb88.s 			page 117


 6613              		.cfi_endproc
 6614              	.LFE311:
 6615              		.size	comm_can_send_status4, .-comm_can_send_status4
 6616              		.section	.text.comm_can_send_status5,"ax",%progbits
 6617              		.align	1
 6618              		.p2align 4,,15
 6619              		.global	comm_can_send_status5
 6620              		.syntax unified
 6621              		.thumb
 6622              		.thumb_func
 6623              		.fpu fpv4-sp-d16
 6624              		.type	comm_can_send_status5, %function
 6625              	comm_can_send_status5:
 6626              	.LFB312:
 6627              		.loc 1 1102 0
 6628              		.cfi_startproc
 6629              		@ args = 0, pretend = 0, frame = 16
 6630              		@ frame_needed = 0, uses_anonymous_args = 0
 6631              	.LVL659:
 6632 0000 70B5     		push	{r4, r5, r6, lr}
 6633              		.cfi_def_cfa_offset 16
