ARM GAS  /tmp/cc8pZ867.s 			page 1


   1              		.cpu cortex-m4
   2              		.eabi_attribute 27, 1
   3              		.eabi_attribute 28, 1
   4              		.eabi_attribute 20, 1
   5              		.eabi_attribute 21, 1
   6              		.eabi_attribute 23, 3
   7              		.eabi_attribute 24, 1
   8              		.eabi_attribute 25, 1
   9              		.eabi_attribute 26, 1
  10              		.eabi_attribute 30, 2
  11              		.eabi_attribute 34, 1
  12              		.eabi_attribute 18, 4
  13              		.file	"commands.c"
  14              		.text
  15              	.Ltext0:
  16              		.cfi_sections	.debug_frame
  17              		.section	.text.commands_send_packet,"ax",%progbits
  18              		.align	1
  19              		.p2align 4,,15
  20              		.global	commands_send_packet
  21              		.syntax unified
  22              		.thumb
  23              		.thumb_func
  24              		.fpu fpv4-sp-d16
  25              		.type	commands_send_packet, %function
  26              	commands_send_packet:
  27              	.LFB261:
  28              		.file 1 "commands.c"
  29              		.loc 1 115 0
  30              		.cfi_startproc
  31              		@ args = 0, pretend = 0, frame = 0
  32              		@ frame_needed = 0, uses_anonymous_args = 0
  33              		@ link register save eliminated.
  34              	.LVL0:
  35              		.loc 1 116 0
  36 0000 024B     		ldr	r3, .L4
  37 0002 1A68     		ldr	r2, [r3]
  38 0004 0AB1     		cbz	r2, .L1
  39              		.loc 1 117 0
  40 0006 1B68     		ldr	r3, [r3]
  41 0008 1847     		bx	r3	@ indirect register sibling call
  42              	.LVL1:
  43              	.L1:
  44              		.loc 1 119 0
  45 000a 7047     		bx	lr
  46              	.L5:
  47              		.align	2
  48              	.L4:
  49 000c 00000000 		.word	.LANCHOR0
  50              		.cfi_endproc
  51              	.LFE261:
  52              		.size	commands_send_packet, .-commands_send_packet
  53              		.section	.text.blocking_thread,"ax",%progbits
  54              		.align	1
  55              		.p2align 4,,15
  56              		.syntax unified
  57              		.thumb
ARM GAS  /tmp/cc8pZ867.s 			page 2


  58              		.thumb_func
  59              		.fpu fpv4-sp-d16
  60              		.type	blocking_thread, %function
  61              	blocking_thread:
  62              	.LFB286:
  63              		.loc 1 1877 0
  64              		.cfi_startproc
  65              		@ args = 0, pretend = 0, frame = 64
  66              		@ frame_needed = 0, uses_anonymous_args = 0
  67              	.LVL2:
  68 0000 2DE9F04F 		push	{r4, r5, r6, r7, r8, r9, r10, fp, lr}
  69              		.cfi_def_cfa_offset 36
  70              		.cfi_offset 4, -36
  71              		.cfi_offset 5, -32
  72              		.cfi_offset 6, -28
  73              		.cfi_offset 7, -24
  74              		.cfi_offset 8, -20
  75              		.cfi_offset 9, -16
  76              		.cfi_offset 10, -12
  77              		.cfi_offset 11, -8
  78              		.cfi_offset 14, -4
  79              	.LBB257:
  80              	.LBB258:
  81              		.file 2 "ChibiOS_3.0.5/os/rt/include/chregistry.h"
  82              		.loc 2 135 0
  83 0004 CD4B     		ldr	r3, .L149
  84              	.LBE258:
  85              	.LBE257:
  86              		.loc 1 1882 0
  87 0006 CE4A     		ldr	r2, .L149+4
  88              	.LBB261:
  89              	.LBB259:
  90              		.loc 2 135 0
  91 0008 9B69     		ldr	r3, [r3, #24]
  92 000a CE49     		ldr	r1, .L149+8
  93              	.LBE259:
  94              	.LBE261:
  95              		.loc 1 1877 0
  96 000c 2DED0A8B 		vpush.64	{d8, d9, d10, d11, d12}
  97              		.cfi_def_cfa_offset 76
  98              		.cfi_offset 80, -76
  99              		.cfi_offset 81, -72
 100              		.cfi_offset 82, -68
 101              		.cfi_offset 83, -64
 102              		.cfi_offset 84, -60
 103              		.cfi_offset 85, -56
 104              		.cfi_offset 86, -52
 105              		.cfi_offset 87, -48
 106              		.cfi_offset 88, -44
 107              		.cfi_offset 89, -40
 108              	.LBB262:
 109              	.LBB260:
 110              		.loc 2 135 0
 111 0010 9961     		str	r1, [r3, #24]
 112              	.LVL3:
 113              	.LBE260:
 114              	.LBE262:
ARM GAS  /tmp/cc8pZ867.s 			page 3


 115              		.loc 1 1877 0
 116 0012 93B0     		sub	sp, sp, #76
 117              		.cfi_def_cfa_offset 152
 118              		.loc 1 1882 0
 119 0014 1360     		str	r3, [r2]
 120              		.loc 1 1885 0
 121 0016 02E0     		b	.L7
 122              	.LVL4:
 123              	.L8:
 124              		.loc 1 1886 0
 125 0018 6420     		movs	r0, #100
 126 001a FFF7FEFF 		bl	chThdSleep
 127              	.LVL5:
 128              	.L7:
 129              		.loc 1 1885 0
 130 001e FFF7FEFF 		bl	main_init_done
 131              	.LVL6:
 132 0022 0028     		cmp	r0, #0
 133 0024 F8D0     		beq	.L8
 134              		.loc 1 1891 0
 135 0026 FFF7FEFF 		bl	lispif_init
 136              	.LVL7:
 137 002a C74E     		ldr	r6, .L149+12
 138 002c C74C     		ldr	r4, .L149+16
 139 002e DFF84483 		ldr	r8, .L149+56
 140 0032 C74F     		ldr	r7, .L149+20
 141 0034 C74D     		ldr	r5, .L149+24
 142              	.LBB263:
 143              	.LBB264:
 144              		.loc 1 2299 0
 145 0036 9FEDC88A 		vldr.32	s16, .L149+28
 146              		.loc 1 2305 0
 147 003a DFEDC88A 		vldr.32	s17, .L149+32
 148              	.LBE264:
 149              	.LBB265:
 150              		.loc 1 2107 0
 151 003e 9FEDC8CA 		vldr.32	s24, .L149+36
 152              		.loc 1 2117 0
 153 0042 DFEDC89A 		vldr.32	s19, .L149+40
 154              		.loc 1 2112 0
 155 0046 9FEDC89A 		vldr.32	s18, .L149+44
 156              	.L9:
 157              	.LBE265:
 158              		.loc 1 1895 0
 159 004a 4FF0000A 		mov	r10, #0
 160              	.L10:
 161              		.loc 1 1897 0
 162 004e 0120     		movs	r0, #1
 163              		.loc 1 1895 0
 164 0050 88F800A0 		strb	r10, [r8]
 165              		.loc 1 1897 0
 166 0054 FFF7FEFF 		bl	chEvtWaitAny
 167              	.LVL8:
 168              		.loc 1 1899 0
 169 0058 3868     		ldr	r0, [r7]
 170 005a FFF7FEFF 		bl	mc_interface_select_motor_thread
 171              	.LVL9:
ARM GAS  /tmp/cc8pZ867.s 			page 4


 172              		.loc 1 1902 0
 173 005e C34B     		ldr	r3, .L149+48
 174              		.loc 1 1907 0
 175 0060 96F80090 		ldrb	r9, [r6]	@ zero_extendqisi2
 176              		.loc 1 1902 0
 177 0064 1968     		ldr	r1, [r3]
 178              	.LVL10:
 179              		.loc 1 1911 0
 180 0066 A9F11403 		sub	r3, r9, #20
 181              		.loc 1 1909 0
 182 006a 01F1FF3B 		add	fp, r1, #-1
 183              	.LVL11:
 184              		.loc 1 1911 0
 185 006e 692B     		cmp	r3, #105
 186 0070 EDD8     		bhi	.L10
 187 0072 01A2     		adr	r2, .L12
 188 0074 52F823F0 		ldr	pc, [r2, r3, lsl #2]
 189              		.p2align 2
 190              	.L12:
 191 0078 BB090000 		.word	.L11+1
 192 007c 4F000000 		.word	.L10+1
 193 0080 4F000000 		.word	.L10+1
 194 0084 4F000000 		.word	.L10+1
 195 0088 09090000 		.word	.L13+1
 196 008c 19060000 		.word	.L14+1
 197 0090 87050000 		.word	.L15+1
 198 0094 71070000 		.word	.L16+1
 199 0098 C3060000 		.word	.L17+1
 200 009c 4F000000 		.word	.L10+1
 201 00a0 4F000000 		.word	.L10+1
 202 00a4 4F000000 		.word	.L10+1
 203 00a8 4F000000 		.word	.L10+1
 204 00ac 4F000000 		.word	.L10+1
 205 00b0 4F000000 		.word	.L10+1
 206 00b4 4F000000 		.word	.L10+1
 207 00b8 4F000000 		.word	.L10+1
 208 00bc 4F000000 		.word	.L10+1
 209 00c0 4F000000 		.word	.L10+1
 210 00c4 4F000000 		.word	.L10+1
 211 00c8 4F000000 		.word	.L10+1
 212 00cc 4F000000 		.word	.L10+1
 213 00d0 4F000000 		.word	.L10+1
 214 00d4 4F000000 		.word	.L10+1
 215 00d8 4F000000 		.word	.L10+1
 216 00dc 4F000000 		.word	.L10+1
 217 00e0 4F000000 		.word	.L10+1
 218 00e4 4F000000 		.word	.L10+1
 219 00e8 4F000000 		.word	.L10+1
 220 00ec 4F000000 		.word	.L10+1
 221 00f0 4F000000 		.word	.L10+1
 222 00f4 4F000000 		.word	.L10+1
 223 00f8 4F000000 		.word	.L10+1
 224 00fc 4F000000 		.word	.L10+1
 225 0100 4F000000 		.word	.L10+1
 226 0104 4F000000 		.word	.L10+1
 227 0108 4F000000 		.word	.L10+1
 228 010c 3F080000 		.word	.L18+1
ARM GAS  /tmp/cc8pZ867.s 			page 5


 229 0110 EF040000 		.word	.L19+1
 230 0114 4F000000 		.word	.L10+1
 231 0118 4F000000 		.word	.L10+1
 232 011c 4F000000 		.word	.L10+1
 233 0120 B1040000 		.word	.L20+1
 234 0124 4F000000 		.word	.L10+1
 235 0128 4F000000 		.word	.L10+1
 236 012c 4F000000 		.word	.L10+1
 237 0130 A3040000 		.word	.L21+1
 238 0134 95040000 		.word	.L22+1
 239 0138 57040000 		.word	.L23+1
 240 013c 37040000 		.word	.L24+1
 241 0140 21040000 		.word	.L25+1
 242 0144 FD030000 		.word	.L26+1
 243 0148 D1030000 		.word	.L27+1
 244 014c 4F000000 		.word	.L10+1
 245 0150 4F000000 		.word	.L10+1
 246 0154 4F000000 		.word	.L10+1
 247 0158 4F000000 		.word	.L10+1
 248 015c 4F000000 		.word	.L10+1
 249 0160 4F000000 		.word	.L10+1
 250 0164 4F000000 		.word	.L10+1
 251 0168 79030000 		.word	.L28+1
 252 016c 4F000000 		.word	.L10+1
 253 0170 4F000000 		.word	.L10+1
 254 0174 57040000 		.word	.L23+1
 255 0178 4F000000 		.word	.L10+1
 256 017c 4F000000 		.word	.L10+1
 257 0180 4F000000 		.word	.L10+1
 258 0184 4F000000 		.word	.L10+1
 259 0188 4F000000 		.word	.L10+1
 260 018c 4F000000 		.word	.L10+1
 261 0190 7D020000 		.word	.L29+1
 262 0194 4F000000 		.word	.L10+1
 263 0198 4F000000 		.word	.L10+1
 264 019c 4F000000 		.word	.L10+1
 265 01a0 4F000000 		.word	.L10+1
 266 01a4 4F000000 		.word	.L10+1
 267 01a8 4F000000 		.word	.L10+1
 268 01ac 4F000000 		.word	.L10+1
 269 01b0 4F000000 		.word	.L10+1
 270 01b4 4F000000 		.word	.L10+1
 271 01b8 4F000000 		.word	.L10+1
 272 01bc 4F000000 		.word	.L10+1
 273 01c0 4F000000 		.word	.L10+1
 274 01c4 4F000000 		.word	.L10+1
 275 01c8 4F000000 		.word	.L10+1
 276 01cc 4F000000 		.word	.L10+1
 277 01d0 4F000000 		.word	.L10+1
 278 01d4 4F000000 		.word	.L10+1
 279 01d8 4F000000 		.word	.L10+1
 280 01dc 4F000000 		.word	.L10+1
 281 01e0 4F000000 		.word	.L10+1
 282 01e4 4F000000 		.word	.L10+1
 283 01e8 4F000000 		.word	.L10+1
 284 01ec 4F000000 		.word	.L10+1
 285 01f0 4F000000 		.word	.L10+1
ARM GAS  /tmp/cc8pZ867.s 			page 6


 286 01f4 4F000000 		.word	.L10+1
 287 01f8 63020000 		.word	.L30+1
 288 01fc 4F000000 		.word	.L10+1
 289 0200 4F000000 		.word	.L10+1
 290 0204 4F000000 		.word	.L10+1
 291 0208 4F000000 		.word	.L10+1
 292 020c 4F000000 		.word	.L10+1
 293 0210 4F000000 		.word	.L10+1
 294 0214 4F000000 		.word	.L10+1
 295 0218 4F000000 		.word	.L10+1
 296 021c 21020000 		.word	.L31+1
 297              		.p2align 1
 298              	.L31:
 299              	.LBB266:
 300              		.loc 1 2284 0
 301 0220 0023     		movs	r3, #0
 302              		.loc 1 2285 0
 303 0222 09A9     		add	r1, sp, #36
 304 0224 5248     		ldr	r0, .L149+52
 305              		.loc 1 2284 0
 306 0226 0993     		str	r3, [sp, #36]
 307              		.loc 1 2285 0
 308 0228 FFF7FEFF 		bl	buffer_get_uint32
 309              	.LVL12:
 310              		.loc 1 2287 0
 311 022c 0999     		ldr	r1, [sp, #36]
 312 022e 504B     		ldr	r3, .L149+52
 313 0230 ABEB0102 		sub	r2, fp, r1
 314 0234 1944     		add	r1, r1, r3
 315 0236 FFF7FEFF 		bl	bm_mem_write
 316              	.LVL13:
 317              		.loc 1 2290 0
 318 023a 7D23     		movs	r3, #125
 319 023c 4FF0010C 		mov	ip, #1
 320              		.loc 1 2291 0
 321 0240 01B2     		sxth	r1, r0
 322 0242 09AA     		add	r2, sp, #36
 323 0244 4148     		ldr	r0, .L149+16
 324              	.LVL14:
 325              		.loc 1 2290 0
 326 0246 2370     		strb	r3, [r4]
 327 0248 CDF824C0 		str	ip, [sp, #36]
 328              		.loc 1 2291 0
 329 024c FFF7FEFF 		bl	buffer_append_int16
 330              	.LVL15:
 331              		.loc 1 2292 0
 332 0250 2B68     		ldr	r3, [r5]
 333 0252 002B     		cmp	r3, #0
 334 0254 3FF4F9AE 		beq	.L9
 335              	.LVL16:
 336              	.L141:
 337              		.loc 1 2293 0
 338 0258 2B68     		ldr	r3, [r5]
 339 025a 0999     		ldr	r1, [sp, #36]
 340 025c 3B48     		ldr	r0, .L149+16
 341 025e 9847     		blx	r3
 342              	.LVL17:
ARM GAS  /tmp/cc8pZ867.s 			page 7


 343              	.LBE266:
 344              		.loc 1 2295 0
 345 0260 F3E6     		b	.L9
 346              	.LVL18:
 347              	.L30:
 348              	.LBB267:
 349              		.loc 1 2218 0
 350 0262 FFF7FEFF 		bl	bm_halt_req
 351              	.LVL19:
 352              		.loc 1 2222 0
 353 0266 2B68     		ldr	r3, [r5]
 354              		.loc 1 2221 0
 355 0268 7422     		movs	r2, #116
 356 026a 2270     		strb	r2, [r4]
 357              		.loc 1 2222 0
 358 026c 002B     		cmp	r3, #0
 359 026e 3FF4ECAE 		beq	.L9
 360              	.LVL20:
 361              	.L142:
 362              	.LBE267:
 363              	.LBB268:
 364              		.loc 1 2234 0
 365 0272 2B68     		ldr	r3, [r5]
 366 0274 3548     		ldr	r0, .L149+16
 367 0276 0121     		movs	r1, #1
 368 0278 9847     		blx	r3
 369              	.LVL21:
 370 027a E6E6     		b	.L9
 371              	.L29:
 372              	.LBE268:
 373              	.LBB269:
 374              		.loc 1 2298 0
 375 027c 0023     		movs	r3, #0
 376              		.loc 1 2299 0
 377 027e 08A9     		add	r1, sp, #32
 378 0280 3B48     		ldr	r0, .L149+52
 379              		.loc 1 2298 0
 380 0282 0893     		str	r3, [sp, #32]
 381              		.loc 1 2299 0
 382 0284 B0EE480A 		vmov.f32	s0, s16
 383 0288 FFF7FEFF 		bl	buffer_get_float32
 384              	.LVL22:
 385              		.loc 1 2301 0
 386 028c 09A8     		add	r0, sp, #36
 387 028e FFF7FEFF 		bl	imu_get_calibration
 388              	.LVL23:
 389              		.loc 1 2304 0
 390 0292 5A23     		movs	r3, #90
 391 0294 0122     		movs	r2, #1
 392              		.loc 1 2305 0
 393 0296 F0EE680A 		vmov.f32	s1, s17
 394 029a 9DED090A 		vldr.32	s0, [sp, #36]
 395 029e 2B48     		ldr	r0, .L149+16
 396              		.loc 1 2304 0
 397 02a0 2370     		strb	r3, [r4]
 398              		.loc 1 2305 0
 399 02a2 08A9     		add	r1, sp, #32
ARM GAS  /tmp/cc8pZ867.s 			page 8


 400              		.loc 1 2304 0
 401 02a4 0892     		str	r2, [sp, #32]
 402              		.loc 1 2305 0
 403 02a6 FFF7FEFF 		bl	buffer_append_float32
 404              	.LVL24:
 405              		.loc 1 2306 0
 406 02aa 08A9     		add	r1, sp, #32
 407 02ac F0EE680A 		vmov.f32	s1, s17
 408 02b0 9DED0A0A 		vldr.32	s0, [sp, #40]
 409 02b4 2548     		ldr	r0, .L149+16
 410 02b6 FFF7FEFF 		bl	buffer_append_float32
 411              	.LVL25:
 412              		.loc 1 2307 0
 413 02ba 08A9     		add	r1, sp, #32
 414 02bc F0EE680A 		vmov.f32	s1, s17
 415 02c0 9DED0B0A 		vldr.32	s0, [sp, #44]
 416 02c4 2148     		ldr	r0, .L149+16
 417 02c6 FFF7FEFF 		bl	buffer_append_float32
 418              	.LVL26:
 419              		.loc 1 2308 0
 420 02ca 08A9     		add	r1, sp, #32
 421 02cc F0EE680A 		vmov.f32	s1, s17
 422 02d0 9DED0C0A 		vldr.32	s0, [sp, #48]
 423 02d4 1D48     		ldr	r0, .L149+16
 424 02d6 FFF7FEFF 		bl	buffer_append_float32
 425              	.LVL27:
 426              		.loc 1 2309 0
 427 02da 08A9     		add	r1, sp, #32
 428 02dc F0EE680A 		vmov.f32	s1, s17
 429 02e0 9DED0D0A 		vldr.32	s0, [sp, #52]
 430 02e4 1948     		ldr	r0, .L149+16
 431 02e6 FFF7FEFF 		bl	buffer_append_float32
 432              	.LVL28:
 433              		.loc 1 2310 0
 434 02ea 08A9     		add	r1, sp, #32
 435 02ec F0EE680A 		vmov.f32	s1, s17
 436 02f0 9DED0E0A 		vldr.32	s0, [sp, #56]
 437 02f4 1548     		ldr	r0, .L149+16
 438 02f6 FFF7FEFF 		bl	buffer_append_float32
 439              	.LVL29:
 440              		.loc 1 2311 0
 441 02fa 08A9     		add	r1, sp, #32
 442 02fc F0EE680A 		vmov.f32	s1, s17
 443 0300 9DED0F0A 		vldr.32	s0, [sp, #60]
 444 0304 1148     		ldr	r0, .L149+16
 445 0306 FFF7FEFF 		bl	buffer_append_float32
 446              	.LVL30:
 447              		.loc 1 2312 0
 448 030a 08A9     		add	r1, sp, #32
 449 030c F0EE680A 		vmov.f32	s1, s17
 450 0310 9DED100A 		vldr.32	s0, [sp, #64]
 451 0314 0D48     		ldr	r0, .L149+16
 452 0316 FFF7FEFF 		bl	buffer_append_float32
 453              	.LVL31:
 454              		.loc 1 2313 0
 455 031a 08A9     		add	r1, sp, #32
 456 031c F0EE680A 		vmov.f32	s1, s17
ARM GAS  /tmp/cc8pZ867.s 			page 9


 457 0320 9DED110A 		vldr.32	s0, [sp, #68]
 458 0324 0948     		ldr	r0, .L149+16
 459 0326 FFF7FEFF 		bl	buffer_append_float32
 460              	.LVL32:
 461              		.loc 1 2315 0
 462 032a 2B68     		ldr	r3, [r5]
 463 032c 002B     		cmp	r3, #0
 464 032e 3FF48CAE 		beq	.L9
 465              	.L139:
 466              		.loc 1 2316 0
 467 0332 2B68     		ldr	r3, [r5]
 468 0334 0899     		ldr	r1, [sp, #32]
 469 0336 0548     		ldr	r0, .L149+16
 470 0338 9847     		blx	r3
 471              	.LVL33:
 472              	.LBE269:
 473              		.loc 1 2318 0
 474 033a 86E6     		b	.L9
 475              	.L150:
 476              		.align	2
 477              	.L149:
 478 033c 00000000 		.word	ch
 479 0340 00000000 		.word	.LANCHOR1
 480 0344 00000000 		.word	.LC0
 481 0348 00000000 		.word	.LANCHOR5
 482 034c 00000000 		.word	.LANCHOR6
 483 0350 00000000 		.word	.LANCHOR3
 484 0354 00000000 		.word	.LANCHOR7
 485 0358 00007A44 		.word	1148846080
 486 035c 00247449 		.word	1232348160
 487 0360 00007042 		.word	1114636288
 488 0364 8096184B 		.word	1259902592
 489 0368 00000000 		.word	0
 490 036c 00000000 		.word	.LANCHOR4
 491 0370 01000000 		.word	.LANCHOR5+1
 492 0374 00000000 		.word	.LANCHOR2
 493              	.L28:
 494              	.LBB270:
 495              		.loc 1 2265 0
 496 0378 0023     		movs	r3, #0
 497              		.loc 1 2266 0
 498 037a 09A9     		add	r1, sp, #36
 499 037c A148     		ldr	r0, .L151
 500              		.loc 1 2265 0
 501 037e 0993     		str	r3, [sp, #36]
 502              		.loc 1 2266 0
 503 0380 FFF7FEFF 		bl	buffer_get_uint32
 504              	.LVL34:
 505              		.loc 1 2267 0
 506 0384 09A9     		add	r1, sp, #36
 507              		.loc 1 2266 0
 508 0386 8246     		mov	r10, r0
 509              	.LVL35:
 510              		.loc 1 2267 0
 511 0388 9E48     		ldr	r0, .L151
 512              	.LVL36:
 513 038a FFF7FEFF 		bl	buffer_get_uint16
ARM GAS  /tmp/cc8pZ867.s 			page 10


 514              	.LVL37:
 515 038e 40F2FD19 		movw	r9, #509
 516              	.LVL38:
 517 0392 8145     		cmp	r9, r0
 518 0394 28BF     		it	cs
 519 0396 8146     		movcs	r9, r0
 520 0398 1FFA89F9 		uxth	r9, r9
 521              	.LVL39:
 522              		.loc 1 2273 0
 523 039c 4A46     		mov	r2, r9
 524 039e 9A49     		ldr	r1, .L151+4
 525 03a0 5046     		mov	r0, r10
 526 03a2 FFF7FEFF 		bl	bm_mem_read
 527              	.LVL40:
 528              		.loc 1 2276 0
 529 03a6 5023     		movs	r3, #80
 530 03a8 4FF0010C 		mov	ip, #1
 531              		.loc 1 2277 0
 532 03ac 01B2     		sxth	r1, r0
 533 03ae 09AA     		add	r2, sp, #36
 534 03b0 9648     		ldr	r0, .L151+8
 535              	.LVL41:
 536              		.loc 1 2276 0
 537 03b2 2370     		strb	r3, [r4]
 538 03b4 CDF824C0 		str	ip, [sp, #36]
 539              		.loc 1 2277 0
 540 03b8 FFF7FEFF 		bl	buffer_append_int16
 541              	.LVL42:
 542              		.loc 1 2278 0
 543 03bc 2B68     		ldr	r3, [r5]
 544 03be 002B     		cmp	r3, #0
 545 03c0 3FF443AE 		beq	.L9
 546              		.loc 1 2279 0
 547 03c4 0999     		ldr	r1, [sp, #36]
 548 03c6 2B68     		ldr	r3, [r5]
 549 03c8 9048     		ldr	r0, .L151+8
 550 03ca 4944     		add	r1, r1, r9
 551 03cc 9847     		blx	r3
 552              	.LVL43:
 553              	.LBE270:
 554              		.loc 1 2281 0
 555 03ce 3CE6     		b	.L9
 556              	.LVL44:
 557              	.L27:
 558              	.LBB271:
 559              		.loc 1 2250 0
 560 03d0 0123     		movs	r3, #1
 561              		.loc 1 2253 0
 562 03d2 1946     		mov	r1, r3
 563              		.loc 1 2250 0
 564 03d4 4FF0480C 		mov	ip, #72
 565              		.loc 1 2253 0
 566 03d8 09AA     		add	r2, sp, #36
 567 03da 8C48     		ldr	r0, .L151+8
 568              		.loc 1 2250 0
 569 03dc 0993     		str	r3, [sp, #36]
 570 03de 84F800C0 		strb	ip, [r4]
ARM GAS  /tmp/cc8pZ867.s 			page 11


 571              		.loc 1 2253 0
 572 03e2 FFF7FEFF 		bl	buffer_append_int16
 573              	.LVL45:
 574              		.loc 1 2254 0
 575 03e6 0C23     		movs	r3, #12
 576 03e8 894A     		ldr	r2, .L151+12
 577 03ea 8A48     		ldr	r0, .L151+16
 578 03ec 0221     		movs	r1, #2
 579 03ee FFF7FEFF 		bl	bm_change_swd_pins
 580              	.LVL46:
 581              		.loc 1 2259 0
 582 03f2 2B68     		ldr	r3, [r5]
 583 03f4 002B     		cmp	r3, #0
 584 03f6 7FF42FAF 		bne	.L141
 585 03fa 26E6     		b	.L9
 586              	.L26:
 587              	.LBE271:
 588              	.LBB272:
 589              		.loc 1 2239 0
 590 03fc FFF7FEFF 		bl	bm_default_swd_pins
 591              	.LVL47:
 592              		.loc 1 2241 0
 593 0400 0123     		movs	r3, #1
 594              		.loc 1 2242 0
 595 0402 1946     		mov	r1, r3
 596              		.loc 1 2241 0
 597 0404 4FF0470C 		mov	ip, #71
 598              		.loc 1 2242 0
 599 0408 09AA     		add	r2, sp, #36
 600 040a 8048     		ldr	r0, .L151+8
 601              		.loc 1 2241 0
 602 040c 0993     		str	r3, [sp, #36]
 603 040e 84F800C0 		strb	ip, [r4]
 604              		.loc 1 2242 0
 605 0412 FFF7FEFF 		bl	buffer_append_int16
 606              	.LVL48:
 607              		.loc 1 2243 0
 608 0416 2B68     		ldr	r3, [r5]
 609 0418 002B     		cmp	r3, #0
 610 041a 7FF41DAF 		bne	.L141
 611 041e 14E6     		b	.L9
 612              	.L25:
 613              	.LBE272:
 614              	.LBB273:
 615              		.loc 1 2228 0
 616 0420 FFF7FEFF 		bl	bm_disconnect
 617              	.LVL49:
 618              		.loc 1 2229 0
 619 0424 FFF7FEFF 		bl	bm_leave_nrf_debug_mode
 620              	.LVL50:
 621              		.loc 1 2233 0
 622 0428 2B68     		ldr	r3, [r5]
 623              		.loc 1 2232 0
 624 042a 4622     		movs	r2, #70
 625 042c 2270     		strb	r2, [r4]
 626              		.loc 1 2233 0
 627 042e 002B     		cmp	r3, #0
ARM GAS  /tmp/cc8pZ867.s 			page 12


 628 0430 7FF41FAF 		bne	.L142
 629              		.loc 1 2227 0
 630 0434 09E6     		b	.L9
 631              	.LVL51:
 632              	.L24:
 633              	.LBE273:
 634              	.LBB274:
 635              		.loc 1 2210 0
 636 0436 0122     		movs	r2, #1
 637 0438 4523     		movs	r3, #69
 638 043a 0992     		str	r2, [sp, #36]
 639 043c 2370     		strb	r3, [r4]
 640              		.loc 1 2211 0
 641 043e FFF7FEFF 		bl	bm_reboot
 642              	.LVL52:
 643              	.L146:
 644 0442 01B2     		sxth	r1, r0
 645 0444 09AA     		add	r2, sp, #36
 646 0446 7148     		ldr	r0, .L151+8
 647 0448 FFF7FEFF 		bl	buffer_append_int16
 648              	.LVL53:
 649              		.loc 1 2212 0
 650 044c 2B68     		ldr	r3, [r5]
 651 044e 002B     		cmp	r3, #0
 652 0450 7FF402AF 		bne	.L141
 653 0454 F9E5     		b	.L9
 654              	.L23:
 655              	.LBE274:
 656              	.LBB275:
 657              		.loc 1 2187 0
 658 0456 B9F1530F 		cmp	r9, #83
 659 045a 00F00B83 		beq	.L147
 660              	.L60:
 661              		.loc 1 2195 0
 662 045e 0023     		movs	r3, #0
 663              		.loc 1 2196 0
 664 0460 09A9     		add	r1, sp, #36
 665 0462 6848     		ldr	r0, .L151
 666              		.loc 1 2195 0
 667 0464 0993     		str	r3, [sp, #36]
 668              		.loc 1 2196 0
 669 0466 FFF7FEFF 		bl	buffer_get_uint32
 670              	.LVL54:
 671              		.loc 1 2198 0
 672 046a 0999     		ldr	r1, [sp, #36]
 673 046c 654B     		ldr	r3, .L151
 674 046e ABEB0102 		sub	r2, fp, r1
 675 0472 1944     		add	r1, r1, r3
 676 0474 FFF7FEFF 		bl	bm_write_flash
 677              	.LVL55:
 678              		.loc 1 2201 0
 679 0478 0123     		movs	r3, #1
 680              		.loc 1 2202 0
 681 047a 01B2     		sxth	r1, r0
 682 047c 09AA     		add	r2, sp, #36
 683 047e 6348     		ldr	r0, .L151+8
 684              	.LVL56:
ARM GAS  /tmp/cc8pZ867.s 			page 13


 685              		.loc 1 2201 0
 686 0480 0993     		str	r3, [sp, #36]
 687 0482 84F80090 		strb	r9, [r4]
 688              		.loc 1 2202 0
 689 0486 FFF7FEFF 		bl	buffer_append_int16
 690              	.LVL57:
 691              		.loc 1 2203 0
 692 048a 2B68     		ldr	r3, [r5]
 693 048c 002B     		cmp	r3, #0
 694 048e 7FF4E3AE 		bne	.L141
 695 0492 DAE5     		b	.L9
 696              	.L22:
 697              	.LBE275:
 698              	.LBB277:
 699              		.loc 1 2178 0
 700 0494 0122     		movs	r2, #1
 701 0496 4323     		movs	r3, #67
 702 0498 0992     		str	r2, [sp, #36]
 703 049a 2370     		strb	r3, [r4]
 704              		.loc 1 2179 0
 705 049c FFF7FEFF 		bl	bm_erase_flash_all
 706              	.LVL58:
 707 04a0 CFE7     		b	.L146
 708              	.L21:
 709              	.LBE277:
 710              	.LBB278:
 711              		.loc 1 2169 0
 712 04a2 0122     		movs	r2, #1
 713 04a4 4223     		movs	r3, #66
 714 04a6 0992     		str	r2, [sp, #36]
 715 04a8 2370     		strb	r3, [r4]
 716              		.loc 1 2170 0
 717 04aa FFF7FEFF 		bl	bm_connect
 718              	.LVL59:
 719 04ae C8E7     		b	.L146
 720              	.L20:
 721              	.LVL60:
 722              	.LBE278:
 723              	.LBB279:
 724              		.loc 1 2152 0
 725 04b0 3E23     		movs	r3, #62
 726 04b2 2370     		strb	r3, [r4]
 727              	.LVL61:
 728 04b4 4FF00009 		mov	r9, #0
 729              	.LVL62:
 730 04b8 4FF0010B 		mov	fp, #1
 731              	.LVL63:
 732              	.L56:
 733 04bc 5FFA89FA 		uxtb	r10, r9
 734              	.LVL64:
 735              	.LBB280:
 736              	.LBB281:
 737              		.loc 1 2156 0
 738 04c0 5046     		mov	r0, r10
 739 04c2 09A9     		add	r1, sp, #36
 740 04c4 FFF7FEFF 		bl	comm_can_ping
 741              	.LVL65:
ARM GAS  /tmp/cc8pZ867.s 			page 14


 742 04c8 09F10109 		add	r9, r9, #1
 743              	.LVL66:
 744 04cc 18B1     		cbz	r0, .L55
 745              		.loc 1 2157 0
 746 04ce 04F80BA0 		strb	r10, [r4, fp]
 747 04d2 0BF1010B 		add	fp, fp, #1
 748              	.LVL67:
 749              	.L55:
 750              	.LBE281:
 751              		.loc 1 2154 0 discriminator 2
 752 04d6 B9F1FF0F 		cmp	r9, #255
 753 04da EFD1     		bne	.L56
 754              	.LBE280:
 755              		.loc 1 2161 0
 756 04dc 2B68     		ldr	r3, [r5]
 757 04de 002B     		cmp	r3, #0
 758 04e0 3FF4B3AD 		beq	.L9
 759              		.loc 1 2162 0
 760 04e4 5946     		mov	r1, fp
 761              	.LVL68:
 762              	.L140:
 763 04e6 2B68     		ldr	r3, [r5]
 764 04e8 4848     		ldr	r0, .L151+8
 765 04ea 9847     		blx	r3
 766              	.LVL69:
 767 04ec ADE5     		b	.L9
 768              	.LVL70:
 769              	.L19:
 770              	.LBE279:
 771              	.LBB282:
 772              		.loc 1 2125 0
 773 04ee 96F80190 		ldrb	r9, [r6, #1]	@ zero_extendqisi2
 774              	.LVL71:
 775              		.loc 1 2126 0
 776 04f2 4448     		ldr	r0, .L151
 777              		.loc 1 2125 0
 778 04f4 19F10009 		adds	r9, r9, #0
 779 04f8 4FF0010A 		mov	r10, #1
 780              		.loc 1 2126 0
 781 04fc 09A9     		add	r1, sp, #36
 782 04fe B0EE480A 		vmov.f32	s0, s16
 783              		.loc 1 2125 0
 784 0502 18BF     		it	ne
 785 0504 4FF00109 		movne	r9, #1
 786              	.LVL72:
 787 0508 CDF824A0 		str	r10, [sp, #36]
 788              		.loc 1 2126 0
 789 050c FFF7FEFF 		bl	buffer_get_float32
 790              	.LVL73:
 791              		.loc 1 2127 0
 792 0510 09A9     		add	r1, sp, #36
 793              		.loc 1 2126 0
 794 0512 B0EE40AA 		vmov.f32	s20, s0
 795              	.LVL74:
 796              		.loc 1 2127 0
 797 0516 3B48     		ldr	r0, .L151
 798 0518 B0EE480A 		vmov.f32	s0, s16
ARM GAS  /tmp/cc8pZ867.s 			page 15


 799              	.LVL75:
 800 051c FFF7FEFF 		bl	buffer_get_float32
 801              	.LVL76:
 802              		.loc 1 2128 0
 803 0520 09A9     		add	r1, sp, #36
 804              		.loc 1 2127 0
 805 0522 F0EE40AA 		vmov.f32	s21, s0
 806              	.LVL77:
 807              		.loc 1 2128 0
 808 0526 3748     		ldr	r0, .L151
 809 0528 B0EE480A 		vmov.f32	s0, s16
 810              	.LVL78:
 811 052c FFF7FEFF 		bl	buffer_get_float32
 812              	.LVL79:
 813              		.loc 1 2129 0
 814 0530 09A9     		add	r1, sp, #36
 815              		.loc 1 2128 0
 816 0532 B0EE40BA 		vmov.f32	s22, s0
 817              	.LVL80:
 818              		.loc 1 2129 0
 819 0536 3348     		ldr	r0, .L151
 820 0538 B0EE480A 		vmov.f32	s0, s16
 821              	.LVL81:
 822 053c FFF7FEFF 		bl	buffer_get_float32
 823              	.LVL82:
 824              		.loc 1 2130 0
 825 0540 09A9     		add	r1, sp, #36
 826              		.loc 1 2129 0
 827 0542 F0EE40BA 		vmov.f32	s23, s0
 828              	.LVL83:
 829              		.loc 1 2130 0
 830 0546 2F48     		ldr	r0, .L151
 831 0548 B0EE480A 		vmov.f32	s0, s16
 832              	.LVL84:
 833 054c FFF7FEFF 		bl	buffer_get_float32
 834              	.LVL85:
 835              		.loc 1 2132 0
 836 0550 F0EE6B1A 		vmov.f32	s3, s23
 837 0554 B0EE402A 		vmov.f32	s4, s0
 838 0558 B0EE4B1A 		vmov.f32	s2, s22
 839 055c F0EE6A0A 		vmov.f32	s1, s21
 840 0560 B0EE4A0A 		vmov.f32	s0, s20
 841              	.LVL86:
 842 0564 4846     		mov	r0, r9
 843 0566 FFF7FEFF 		bl	conf_general_detect_apply_all_foc_can
 844              	.LVL87:
 845              		.loc 1 2136 0
 846 056a 3A23     		movs	r3, #58
 847              		.loc 1 2137 0
 848 056c 01B2     		sxth	r1, r0
 849 056e 09AA     		add	r2, sp, #36
 850 0570 2648     		ldr	r0, .L151+8
 851              	.LVL88:
 852              		.loc 1 2136 0
 853 0572 2370     		strb	r3, [r4]
 854 0574 CDF824A0 		str	r10, [sp, #36]
 855              		.loc 1 2137 0
ARM GAS  /tmp/cc8pZ867.s 			page 16


 856 0578 FFF7FEFF 		bl	buffer_append_int16
 857              	.LVL89:
 858              		.loc 1 2138 0
 859 057c 2B68     		ldr	r3, [r5]
 860 057e 002B     		cmp	r3, #0
 861 0580 7FF46AAE 		bne	.L141
 862 0584 61E5     		b	.L9
 863              	.LVL90:
 864              	.L15:
 865              	.LBE282:
 866              	.LBB283:
 867              		.loc 1 1976 0
 868 0586 0023     		movs	r3, #0
 869              		.loc 1 1977 0
 870 0588 08A9     		add	r1, sp, #32
 871 058a 1E48     		ldr	r0, .L151
 872              		.loc 1 1976 0
 873 058c 0893     		str	r3, [sp, #32]
 874              		.loc 1 1977 0
 875 058e B0EE480A 		vmov.f32	s0, s16
 876 0592 FFF7FEFF 		bl	buffer_get_float32
 877              	.LVL91:
 878              		.loc 1 1978 0
 879 0596 08A9     		add	r1, sp, #32
 880              		.loc 1 1977 0
 881 0598 B0EE40AA 		vmov.f32	s20, s0
 882              	.LVL92:
 883              		.loc 1 1978 0
 884 059c 1948     		ldr	r0, .L151
 885 059e B0EE480A 		vmov.f32	s0, s16
 886              	.LVL93:
 887 05a2 FFF7FEFF 		bl	buffer_get_float32
 888              	.LVL94:
 889              		.loc 1 1979 0
 890 05a6 08A9     		add	r1, sp, #32
 891              		.loc 1 1978 0
 892 05a8 B0EE40BA 		vmov.f32	s22, s0
 893              	.LVL95:
 894              		.loc 1 1979 0
 895 05ac 1548     		ldr	r0, .L151
 896 05ae B0EE480A 		vmov.f32	s0, s16
 897              	.LVL96:
 898 05b2 FFF7FEFF 		bl	buffer_get_float32
 899              	.LVL97:
 900              		.loc 1 1980 0
 901 05b6 1348     		ldr	r0, .L151
 902              		.loc 1 1979 0
 903 05b8 F0EE40AA 		vmov.f32	s21, s0
 904              	.LVL98:
 905              		.loc 1 1980 0
 906 05bc 08A9     		add	r1, sp, #32
 907 05be B0EE680A 		vmov.f32	s0, s17
 908              	.LVL99:
 909 05c2 FFF7FEFF 		bl	buffer_get_float32
 910              	.LVL100:
 911              		.loc 1 1983 0
 912 05c6 09A8     		add	r0, sp, #36
ARM GAS  /tmp/cc8pZ867.s 			page 17


 913 05c8 F0EE401A 		vmov.f32	s3, s0
 914 05cc B0EE4B1A 		vmov.f32	s2, s22
 915 05d0 F0EE6A0A 		vmov.f32	s1, s21
 916 05d4 B0EE4A0A 		vmov.f32	s0, s20
 917              	.LVL101:
 918 05d8 FFF7FEFF 		bl	conf_general_measure_flux_linkage
 919              	.LVL102:
 920              		.loc 1 1985 0
 921 05dc 0028     		cmp	r0, #0
 922 05de 00F03682 		beq	.L39
 923 05e2 9DED090A 		vldr.32	s0, [sp, #36]
 924              	.L40:
 925              		.loc 1 1991 0
 926 05e6 0948     		ldr	r0, .L151+8
 927              	.LVL103:
 928              		.loc 1 1990 0
 929 05e8 1A23     		movs	r3, #26
 930 05ea 0122     		movs	r2, #1
 931              		.loc 1 1991 0
 932 05ec F0EE690A 		vmov.f32	s1, s19
 933 05f0 08A9     		add	r1, sp, #32
 934              		.loc 1 1990 0
 935 05f2 2370     		strb	r3, [r4]
 936 05f4 0892     		str	r2, [sp, #32]
 937              		.loc 1 1991 0
 938 05f6 FFF7FEFF 		bl	buffer_append_float32
 939              	.LVL104:
 940              		.loc 1 1992 0
 941 05fa 2B68     		ldr	r3, [r5]
 942 05fc 002B     		cmp	r3, #0
 943 05fe 7FF498AE 		bne	.L139
 944 0602 22E5     		b	.L9
 945              	.L152:
 946              		.align	2
 947              	.L151:
 948 0604 01000000 		.word	.LANCHOR5+1
 949 0608 03000000 		.word	.LANCHOR6+3
 950 060c 00000000 		.word	.LANCHOR6
 951 0610 00080240 		.word	1073874944
 952 0614 000C0240 		.word	1073875968
 953              	.LVL105:
 954              	.L14:
 955              	.LBE283:
 956              	.LBB284:
 957              		.loc 1 1943 0
 958 0618 FFF7FEFF 		bl	mempools_alloc_mcconf
 959              	.LVL106:
 960 061c 8146     		mov	r9, r0
 961              	.LVL107:
 962              		.loc 1 1944 0
 963 061e FFF7FEFF 		bl	mc_interface_get_configuration
 964              	.LVL108:
 965 0622 4FF42372 		mov	r2, #652
 966 0626 0146     		mov	r1, r0
 967 0628 4846     		mov	r0, r9
 968 062a FFF7FEFF 		bl	memcpy
 969              	.LVL109:
ARM GAS  /tmp/cc8pZ867.s 			page 18


 970              		.loc 1 1945 0
 971 062e FFF7FEFF 		bl	mempools_alloc_mcconf
 972              	.LVL110:
 973              		.loc 1 1946 0
 974 0632 4946     		mov	r1, r9
 975 0634 4FF42372 		mov	r2, #652
 976              		.loc 1 1945 0
 977 0638 8246     		mov	r10, r0
 978              	.LVL111:
 979              		.loc 1 1946 0
 980 063a FFF7FEFF 		bl	memcpy
 981              	.LVL112:
 982              		.loc 1 1948 0
 983 063e 0223     		movs	r3, #2
 984 0640 89F88630 		strb	r3, [r9, #134]
 985              		.loc 1 1949 0
 986 0644 4846     		mov	r0, r9
 987 0646 FFF7FEFF 		bl	mc_interface_set_configuration
 988              	.LVL113:
 989              		.loc 1 1954 0
 990 064a 08AA     		add	r2, sp, #32
 991 064c 07A9     		add	r1, sp, #28
 992 064e 06A8     		add	r0, sp, #24
 993              		.loc 1 1951 0
 994 0650 8DED069A 		vstr.32	s18, [sp, #24]
 995              		.loc 1 1952 0
 996 0654 8DED079A 		vstr.32	s18, [sp, #28]
 997              		.loc 1 1953 0
 998 0658 8DED089A 		vstr.32	s18, [sp, #32]
 999              		.loc 1 1954 0
 1000 065c FFF7FEFF 		bl	mcpwm_foc_measure_res_ind
 1001              	.LVL114:
 1002 0660 8346     		mov	fp, r0
 1003              	.LVL115:
 1004              		.loc 1 1955 0
 1005 0662 5046     		mov	r0, r10
 1006 0664 FFF7FEFF 		bl	mc_interface_set_configuration
 1007              	.LVL116:
 1008              		.loc 1 1957 0
 1009 0668 BBF1000F 		cmp	fp, #0
 1010 066c 00F0E881 		beq	.L36
 1011 0670 9DED060A 		vldr.32	s0, [sp, #24]
 1012              	.L37:
 1013              		.loc 1 1964 0
 1014 0674 9E48     		ldr	r0, .L153
 1015              		.loc 1 1963 0
 1016 0676 1923     		movs	r3, #25
 1017 0678 0122     		movs	r2, #1
 1018              		.loc 1 1964 0
 1019 067a F0EE680A 		vmov.f32	s1, s17
 1020 067e 09A9     		add	r1, sp, #36
 1021              		.loc 1 1963 0
 1022 0680 2370     		strb	r3, [r4]
 1023 0682 0992     		str	r2, [sp, #36]
 1024              		.loc 1 1964 0
 1025 0684 FFF7FEFF 		bl	buffer_append_float32
 1026              	.LVL117:
ARM GAS  /tmp/cc8pZ867.s 			page 19


 1027              		.loc 1 1965 0
 1028 0688 09A9     		add	r1, sp, #36
 1029 068a F0EE480A 		vmov.f32	s1, s16
 1030 068e 9DED070A 		vldr.32	s0, [sp, #28]
 1031 0692 9748     		ldr	r0, .L153
 1032 0694 FFF7FEFF 		bl	buffer_append_float32
 1033              	.LVL118:
 1034              		.loc 1 1966 0
 1035 0698 09A9     		add	r1, sp, #36
 1036 069a F0EE480A 		vmov.f32	s1, s16
 1037 069e 9DED080A 		vldr.32	s0, [sp, #32]
 1038 06a2 9348     		ldr	r0, .L153
 1039 06a4 FFF7FEFF 		bl	buffer_append_float32
 1040              	.LVL119:
 1041              		.loc 1 1967 0
 1042 06a8 2B68     		ldr	r3, [r5]
 1043 06aa 1BB1     		cbz	r3, .L43
 1044              		.loc 1 1968 0
 1045 06ac 2B68     		ldr	r3, [r5]
 1046 06ae 0999     		ldr	r1, [sp, #36]
 1047 06b0 8F48     		ldr	r0, .L153
 1048 06b2 9847     		blx	r3
 1049              	.LVL120:
 1050              	.L43:
 1051              	.LBE284:
 1052              	.LBB285:
 1053              		.loc 1 2029 0
 1054 06b4 4846     		mov	r0, r9
 1055 06b6 FFF7FEFF 		bl	mempools_free_mcconf
 1056              	.LVL121:
 1057              		.loc 1 2030 0
 1058 06ba 5046     		mov	r0, r10
 1059 06bc FFF7FEFF 		bl	mempools_free_mcconf
 1060              	.LVL122:
 1061              	.LBE285:
 1062 06c0 C3E4     		b	.L9
 1063              	.LVL123:
 1064              	.L17:
 1065              	.LBB286:
 1066              		.loc 1 2045 0
 1067 06c2 FFF7FEFF 		bl	mempools_alloc_mcconf
 1068              	.LVL124:
 1069 06c6 8146     		mov	r9, r0
 1070              	.LVL125:
 1071              		.loc 1 2046 0
 1072 06c8 FFF7FEFF 		bl	mc_interface_get_configuration
 1073              	.LVL126:
 1074 06cc 4FF42372 		mov	r2, #652
 1075 06d0 0146     		mov	r1, r0
 1076 06d2 4846     		mov	r0, r9
 1077 06d4 FFF7FEFF 		bl	memcpy
 1078              	.LVL127:
 1079              		.loc 1 2048 0
 1080 06d8 99F828B2 		ldrb	fp, [r9, #552]	@ zero_extendqisi2
 1081              	.LVL128:
 1082 06dc BBF1000F 		cmp	fp, #0
 1083 06e0 40F09F81 		bne	.L45
ARM GAS  /tmp/cc8pZ867.s 			page 20


 1084              	.LBB287:
 1085              		.loc 1 2049 0
 1086 06e4 FFF7FEFF 		bl	mempools_alloc_mcconf
 1087              	.LVL129:
 1088              		.loc 1 2050 0
 1089 06e8 4FF42372 		mov	r2, #652
 1090 06ec 4946     		mov	r1, r9
 1091              		.loc 1 2049 0
 1092 06ee 8246     		mov	r10, r0
 1093              	.LVL130:
 1094              		.loc 1 2050 0
 1095 06f0 FFF7FEFF 		bl	memcpy
 1096              	.LVL131:
 1097              		.loc 1 2053 0
 1098 06f4 08A9     		add	r1, sp, #32
 1099 06f6 7F48     		ldr	r0, .L153+4
 1100              		.loc 1 2052 0
 1101 06f8 CDF820B0 		str	fp, [sp, #32]
 1102              		.loc 1 2053 0
 1103 06fc B0EE480A 		vmov.f32	s0, s16
 1104 0700 FFF7FEFF 		bl	buffer_get_float32
 1105              	.LVL132:
 1106              		.loc 1 2056 0
 1107 0704 7C4B     		ldr	r3, .L153+8
 1108              		.loc 1 2057 0
 1109 0706 7D49     		ldr	r1, .L153+12
 1110              		.loc 1 2056 0
 1111 0708 C9F8B830 		str	r3, [r9, #184]	@ float
 1112              		.loc 1 2055 0
 1113 070c 0222     		movs	r2, #2
 1114              		.loc 1 2058 0
 1115 070e 7C4B     		ldr	r3, .L153+16
 1116              		.loc 1 2057 0
 1117 0710 C9F8B010 		str	r1, [r9, #176]	@ float
 1118              		.loc 1 2055 0
 1119 0714 89F88620 		strb	r2, [r9, #134]
 1120              		.loc 1 2058 0
 1121 0718 C9F8B430 		str	r3, [r9, #180]	@ float
 1122              		.loc 1 2053 0
 1123 071c B0EE40AA 		vmov.f32	s20, s0
 1124              	.LVL133:
 1125              		.loc 1 2059 0
 1126 0720 4846     		mov	r0, r9
 1127 0722 FFF7FEFF 		bl	mc_interface_set_configuration
 1128              	.LVL134:
 1129              		.loc 1 2062 0
 1130 0726 B0EE4A0A 		vmov.f32	s0, s20
 1131 072a 09A8     		add	r0, sp, #36
 1132 072c FFF7FEFF 		bl	mcpwm_foc_hall_detect
 1133              	.LVL135:
 1134 0730 8346     		mov	fp, r0
 1135              	.LVL136:
 1136              		.loc 1 2063 0
 1137 0732 5046     		mov	r0, r10
 1138 0734 FFF7FEFF 		bl	mc_interface_set_configuration
 1139              	.LVL137:
 1140              		.loc 1 2067 0
ARM GAS  /tmp/cc8pZ867.s 			page 21


 1141 0738 09AB     		add	r3, sp, #36
 1142 073a 03CB     		ldmia	r3!, {r0, r1}
 1143 073c 714B     		ldr	r3, .L153+20
 1144              		.loc 1 2071 0
 1145 073e 2A68     		ldr	r2, [r5]
 1146              		.loc 1 2067 0
 1147 0740 1860     		str	r0, [r3]	@ unaligned
 1148              		.loc 1 2069 0
 1149 0742 8BF0010B 		eor	fp, fp, #1
 1150              	.LVL138:
 1151              		.loc 1 2066 0
 1152 0746 1C20     		movs	r0, #28
 1153              		.loc 1 2069 0
 1154 0748 4FF00A0C 		mov	ip, #10
 1155 074c 84F809B0 		strb	fp, [r4, #9]
 1156 0750 CDF820C0 		str	ip, [sp, #32]
 1157              		.loc 1 2067 0
 1158 0754 5960     		str	r1, [r3, #4]	@ unaligned
 1159              		.loc 1 2066 0
 1160 0756 2070     		strb	r0, [r4]
 1161              		.loc 1 2071 0
 1162 0758 1AB1     		cbz	r2, .L46
 1163              		.loc 1 2072 0
 1164 075a 6146     		mov	r1, ip
 1165 075c 2B68     		ldr	r3, [r5]
 1166 075e 6448     		ldr	r0, .L153
 1167 0760 9847     		blx	r3
 1168              	.LVL139:
 1169              	.L46:
 1170              		.loc 1 2075 0
 1171 0762 5046     		mov	r0, r10
 1172 0764 FFF7FEFF 		bl	mempools_free_mcconf
 1173              	.LVL140:
 1174              	.L47:
 1175              	.LBE287:
 1176              		.loc 1 2087 0
 1177 0768 4846     		mov	r0, r9
 1178 076a FFF7FEFF 		bl	mempools_free_mcconf
 1179              	.LVL141:
 1180              	.LBE286:
 1181              		.loc 1 2088 0
 1182 076e 6CE4     		b	.L9
 1183              	.LVL142:
 1184              	.L16:
 1185              		.loc 1 1998 0
 1186 0770 FFF7FEFF 		bl	encoder_is_configured
 1187              	.LVL143:
 1188 0774 8146     		mov	r9, r0
 1189              	.LVL144:
 1190 0776 0028     		cmp	r0, #0
 1191 0778 00F03481 		beq	.L42
 1192              	.LBB289:
 1193              		.loc 1 1999 0
 1194 077c FFF7FEFF 		bl	mempools_alloc_mcconf
 1195              	.LVL145:
 1196 0780 8146     		mov	r9, r0
 1197              	.LVL146:
ARM GAS  /tmp/cc8pZ867.s 			page 22


 1198              		.loc 1 2000 0
 1199 0782 FFF7FEFF 		bl	mc_interface_get_configuration
 1200              	.LVL147:
 1201 0786 4FF42372 		mov	r2, #652
 1202 078a 0146     		mov	r1, r0
 1203 078c 4846     		mov	r0, r9
 1204 078e FFF7FEFF 		bl	memcpy
 1205              	.LVL148:
 1206              		.loc 1 2001 0
 1207 0792 FFF7FEFF 		bl	mempools_alloc_mcconf
 1208              	.LVL149:
 1209              		.loc 1 2002 0
 1210 0796 4FF42372 		mov	r2, #652
 1211 079a 4946     		mov	r1, r9
 1212              		.loc 1 2004 0
 1213 079c 4FF0000B 		mov	fp, #0
 1214              	.LVL150:
 1215              		.loc 1 2001 0
 1216 07a0 8246     		mov	r10, r0
 1217              	.LVL151:
 1218              		.loc 1 2002 0
 1219 07a2 FFF7FEFF 		bl	memcpy
 1220              	.LVL152:
 1221              		.loc 1 2005 0
 1222 07a6 07A9     		add	r1, sp, #28
 1223 07a8 5248     		ldr	r0, .L153+4
 1224              		.loc 1 2004 0
 1225 07aa CDF81CB0 		str	fp, [sp, #28]
 1226              		.loc 1 2005 0
 1227 07ae B0EE480A 		vmov.f32	s0, s16
 1228 07b2 FFF7FEFF 		bl	buffer_get_float32
 1229              	.LVL153:
 1230              		.loc 1 2008 0
 1231 07b6 504B     		ldr	r3, .L153+8
 1232              		.loc 1 2009 0
 1233 07b8 504A     		ldr	r2, .L153+12
 1234              		.loc 1 2008 0
 1235 07ba C9F8B830 		str	r3, [r9, #184]	@ float
 1236              		.loc 1 2007 0
 1237 07be 0221     		movs	r1, #2
 1238              		.loc 1 2010 0
 1239 07c0 4F4B     		ldr	r3, .L153+16
 1240              		.loc 1 2007 0
 1241 07c2 89F88610 		strb	r1, [r9, #134]
 1242              		.loc 1 2005 0
 1243 07c6 B0EE40AA 		vmov.f32	s20, s0
 1244              	.LVL154:
 1245              		.loc 1 2009 0
 1246 07ca C9F8B020 		str	r2, [r9, #176]	@ float
 1247              		.loc 1 2010 0
 1248 07ce C9F8B430 		str	r3, [r9, #180]	@ float
 1249              		.loc 1 2011 0
 1250 07d2 4846     		mov	r0, r9
 1251 07d4 FFF7FEFF 		bl	mc_interface_set_configuration
 1252              	.LVL155:
 1253              		.loc 1 2016 0
 1254 07d8 B0EE4A0A 		vmov.f32	s0, s20
ARM GAS  /tmp/cc8pZ867.s 			page 23


 1255 07dc 06AB     		add	r3, sp, #24
 1256 07de 09AA     		add	r2, sp, #36
 1257 07e0 08A9     		add	r1, sp, #32
 1258 07e2 5846     		mov	r0, fp
 1259              		.loc 1 2015 0
 1260 07e4 8DF818B0 		strb	fp, [sp, #24]
 1261              		.loc 1 2013 0
 1262 07e8 8DED089A 		vstr.32	s18, [sp, #32]
 1263              		.loc 1 2014 0
 1264 07ec 8DED099A 		vstr.32	s18, [sp, #36]
 1265              		.loc 1 2016 0
 1266 07f0 FFF7FEFF 		bl	mcpwm_foc_encoder_detect
 1267              	.LVL156:
 1268              		.loc 1 2017 0
 1269 07f4 5046     		mov	r0, r10
 1270 07f6 FFF7FEFF 		bl	mc_interface_set_configuration
 1271              	.LVL157:
 1272              		.loc 1 2020 0
 1273 07fa 0122     		movs	r2, #1
 1274 07fc 1B23     		movs	r3, #27
 1275              		.loc 1 2021 0
 1276 07fe 07A9     		add	r1, sp, #28
 1277 0800 F0EE680A 		vmov.f32	s1, s17
 1278 0804 9DED080A 		vldr.32	s0, [sp, #32]
 1279 0808 3948     		ldr	r0, .L153
 1280              		.loc 1 2020 0
 1281 080a 0792     		str	r2, [sp, #28]
 1282 080c 2370     		strb	r3, [r4]
 1283              		.loc 1 2021 0
 1284 080e FFF7FEFF 		bl	buffer_append_float32
 1285              	.LVL158:
 1286              		.loc 1 2022 0
 1287 0812 07A9     		add	r1, sp, #28
 1288 0814 F0EE680A 		vmov.f32	s1, s17
 1289 0818 9DED090A 		vldr.32	s0, [sp, #36]
 1290 081c 3448     		ldr	r0, .L153
 1291 081e FFF7FEFF 		bl	buffer_append_float32
 1292              	.LVL159:
 1293              		.loc 1 2023 0
 1294 0822 079B     		ldr	r3, [sp, #28]
 1295 0824 9DF81810 		ldrb	r1, [sp, #24]	@ zero_extendqisi2
 1296              		.loc 1 2025 0
 1297 0828 2A68     		ldr	r2, [r5]
 1298              		.loc 1 2023 0
 1299 082a E154     		strb	r1, [r4, r3]
 1300 082c 591C     		adds	r1, r3, #1
 1301 082e 0791     		str	r1, [sp, #28]
 1302              		.loc 1 2025 0
 1303 0830 002A     		cmp	r2, #0
 1304 0832 3FF43FAF 		beq	.L43
 1305              		.loc 1 2026 0
 1306 0836 2B68     		ldr	r3, [r5]
 1307 0838 2D48     		ldr	r0, .L153
 1308 083a 9847     		blx	r3
 1309              	.LVL160:
 1310 083c 3AE7     		b	.L43
 1311              	.LVL161:
ARM GAS  /tmp/cc8pZ867.s 			page 24


 1312              	.L18:
 1313              	.LBE289:
 1314              	.LBB290:
 1315              		.loc 1 2091 0
 1316 083e 0023     		movs	r3, #0
 1317              		.loc 1 2092 0
 1318 0840 06A9     		add	r1, sp, #24
 1319 0842 2C48     		ldr	r0, .L153+4
 1320              		.loc 1 2091 0
 1321 0844 0693     		str	r3, [sp, #24]
 1322              		.loc 1 2092 0
 1323 0846 B0EE480A 		vmov.f32	s0, s16
 1324 084a FFF7FEFF 		bl	buffer_get_float32
 1325              	.LVL162:
 1326              		.loc 1 2093 0
 1327 084e 06A9     		add	r1, sp, #24
 1328 0850 2848     		ldr	r0, .L153+4
 1329              		.loc 1 2092 0
 1330 0852 B0EE40AA 		vmov.f32	s20, s0
 1331              	.LVL163:
 1332              		.loc 1 2093 0
 1333 0856 B0EE480A 		vmov.f32	s0, s16
 1334              	.LVL164:
 1335 085a FFF7FEFF 		bl	buffer_get_float32
 1336              	.LVL165:
 1337              		.loc 1 2094 0
 1338 085e 06A9     		add	r1, sp, #24
 1339 0860 2448     		ldr	r0, .L153+4
 1340              		.loc 1 2093 0
 1341 0862 B0EE40BA 		vmov.f32	s22, s0
 1342              	.LVL166:
 1343              		.loc 1 2094 0
 1344 0866 B0EE480A 		vmov.f32	s0, s16
 1345              	.LVL167:
 1346 086a FFF7FEFF 		bl	buffer_get_float32
 1347              	.LVL168:
 1348              		.loc 1 2095 0
 1349 086e 06A9     		add	r1, sp, #24
 1350              		.loc 1 2094 0
 1351 0870 F0EE40AA 		vmov.f32	s21, s0
 1352              	.LVL169:
 1353              		.loc 1 2095 0
 1354 0874 1F48     		ldr	r0, .L153+4
 1355 0876 B0EE680A 		vmov.f32	s0, s17
 1356              	.LVL170:
 1357 087a FFF7FEFF 		bl	buffer_get_float32
 1358              	.LVL171:
 1359              		.loc 1 2098 0
 1360 087e 069B     		ldr	r3, [sp, #24]
 1361 0880 0433     		adds	r3, r3, #4
 1362 0882 5B45     		cmp	r3, fp
 1363              		.loc 1 2095 0
 1364 0884 F0EE40BA 		vmov.f32	s23, s0
 1365              	.LVL172:
 1366              		.loc 1 2098 0
 1367 0888 40F2EB80 		bls	.L148
 1368              		.loc 1 2096 0
ARM GAS  /tmp/cc8pZ867.s 			page 25


 1369 088c B0EE492A 		vmov.f32	s4, s18
 1370              	.LVL173:
 1371              	.L48:
 1372              		.loc 1 2103 0
 1373 0890 F0EE6B1A 		vmov.f32	s3, s23
 1374 0894 B0EE4B1A 		vmov.f32	s2, s22
 1375 0898 F0EE6A0A 		vmov.f32	s1, s21
 1376 089c B0EE4A0A 		vmov.f32	s0, s20
 1377 08a0 09AA     		add	r2, sp, #36
 1378 08a2 08A9     		add	r1, sp, #32
 1379 08a4 07A8     		add	r0, sp, #28
 1380 08a6 FFF7FEFF 		bl	conf_general_measure_flux_linkage_openloop
 1381              	.LVL174:
 1382              		.loc 1 2107 0
 1383 08aa DDED097A 		vldr.32	s15, [sp, #36]
 1384 08ae F4EECC7A 		vcmpe.f32	s15, s24
 1385 08b2 F1EE10FA 		vmrs	APSR_nzcv, FPSCR
 1386              		.loc 1 2108 0
 1387 08b6 C4BF     		itt	gt
 1388 08b8 089B     		ldrgt	r3, [sp, #32]	@ float
 1389 08ba 0793     		strgt	r3, [sp, #28]	@ float
 1390              		.loc 1 2111 0
 1391 08bc 0028     		cmp	r0, #0
 1392 08be 00F0CB80 		beq	.L51
 1393 08c2 9DED070A 		vldr.32	s0, [sp, #28]
 1394              	.L52:
 1395              		.loc 1 2117 0
 1396 08c6 0A48     		ldr	r0, .L153
 1397              	.LVL175:
 1398              		.loc 1 2116 0
 1399 08c8 3923     		movs	r3, #57
 1400 08ca 0122     		movs	r2, #1
 1401              		.loc 1 2117 0
 1402 08cc F0EE690A 		vmov.f32	s1, s19
 1403 08d0 06A9     		add	r1, sp, #24
 1404              		.loc 1 2116 0
 1405 08d2 2370     		strb	r3, [r4]
 1406 08d4 0692     		str	r2, [sp, #24]
 1407              		.loc 1 2117 0
 1408 08d6 FFF7FEFF 		bl	buffer_append_float32
 1409              	.LVL176:
 1410              		.loc 1 2118 0
 1411 08da 2B68     		ldr	r3, [r5]
 1412 08dc 002B     		cmp	r3, #0
 1413 08de 3FF4B4AB 		beq	.L9
 1414              		.loc 1 2119 0
 1415 08e2 2B68     		ldr	r3, [r5]
 1416 08e4 0699     		ldr	r1, [sp, #24]
 1417 08e6 0248     		ldr	r0, .L153
 1418 08e8 9847     		blx	r3
 1419              	.LVL177:
 1420              	.LBE290:
 1421              		.loc 1 2121 0
 1422 08ea FFF7AEBB 		b	.L9
 1423              	.L154:
 1424 08ee 00BF     		.align	2
 1425              	.L153:
ARM GAS  /tmp/cc8pZ867.s 			page 26


 1426 08f0 00000000 		.word	.LANCHOR6
 1427 08f4 01000000 		.word	.LANCHOR5+1
 1428 08f8 00401C46 		.word	1176256512
 1429 08fc 0AD7233C 		.word	1008981770
 1430 0900 00002041 		.word	1092616192
 1431 0904 01000000 		.word	.LANCHOR6+1
 1432              	.LVL178:
 1433              	.L13:
 1434              	.LBB291:
 1435              		.loc 1 1913 0
 1436 0908 0023     		movs	r3, #0
 1437              		.loc 1 1914 0
 1438 090a 05A9     		add	r1, sp, #20
 1439 090c 6648     		ldr	r0, .L155
 1440 090e 9FED670A 		vldr.32	s0, .L155+4
 1441              		.loc 1 1913 0
 1442 0912 0593     		str	r3, [sp, #20]
 1443              		.loc 1 1914 0
 1444 0914 FFF7FEFF 		bl	buffer_get_float32
 1445              	.LVL179:
 1446              		.loc 1 1915 0
 1447 0918 05A9     		add	r1, sp, #20
 1448              		.loc 1 1914 0
 1449 091a B0EE40AA 		vmov.f32	s20, s0
 1450              	.LVL180:
 1451              		.loc 1 1915 0
 1452 091e 6248     		ldr	r0, .L155
 1453 0920 9FED620A 		vldr.32	s0, .L155+4
 1454              	.LVL181:
 1455 0924 FFF7FEFF 		bl	buffer_get_float32
 1456              	.LVL182:
 1457              		.loc 1 1916 0
 1458 0928 05A9     		add	r1, sp, #20
 1459              		.loc 1 1915 0
 1460 092a F0EE40AA 		vmov.f32	s21, s0
 1461              	.LVL183:
 1462              		.loc 1 1916 0
 1463 092e 5E48     		ldr	r0, .L155
 1464 0930 9FED5E0A 		vldr.32	s0, .L155+4
 1465              	.LVL184:
 1466 0934 FFF7FEFF 		bl	buffer_get_float32
 1467              	.LVL185:
 1468              		.loc 1 1922 0
 1469 0938 08AB     		add	r3, sp, #32
 1470 093a B0EE401A 		vmov.f32	s2, s0
 1471 093e 09AA     		add	r2, sp, #36
 1472 0940 07A9     		add	r1, sp, #28
 1473 0942 06A8     		add	r0, sp, #24
 1474 0944 F0EE6A0A 		vmov.f32	s1, s21
 1475 0948 B0EE4A0A 		vmov.f32	s0, s20
 1476              	.LVL186:
 1477 094c FFF7FEFF 		bl	conf_general_detect_motor_param
 1478              	.LVL187:
 1479 0950 0028     		cmp	r0, #0
 1480 0952 41D0     		beq	.L32
 1481 0954 DDED067A 		vldr.32	s15, [sp, #24]
 1482 0958 67EE887A 		vmul.f32	s15, s15, s16
ARM GAS  /tmp/cc8pZ867.s 			page 27


 1483 095c FDEEE77A 		vcvt.s32.f32	s15, s15
 1484 0960 CDED037A 		vstr.32	s15, [sp, #12]	@ int
 1485              	.L33:
 1486              		.loc 1 1930 0
 1487 0964 0120     		movs	r0, #1
 1488 0966 1823     		movs	r3, #24
 1489              		.loc 1 1931 0
 1490 0968 05AA     		add	r2, sp, #20
 1491 096a 0399     		ldr	r1, [sp, #12]
 1492              		.loc 1 1930 0
 1493 096c 0590     		str	r0, [sp, #20]
 1494              		.loc 1 1931 0
 1495 096e 5048     		ldr	r0, .L155+8
 1496              		.loc 1 1930 0
 1497 0970 2370     		strb	r3, [r4]
 1498              		.loc 1 1931 0
 1499 0972 FFF7FEFF 		bl	buffer_append_int32
 1500              	.LVL188:
 1501              		.loc 1 1932 0
 1502 0976 DDED077A 		vldr.32	s15, [sp, #28]
 1503 097a 4D48     		ldr	r0, .L155+8
 1504 097c 67EE887A 		vmul.f32	s15, s15, s16
 1505 0980 05AA     		add	r2, sp, #20
 1506 0982 FDEEE77A 		vcvt.s32.f32	s15, s15
 1507 0986 17EE901A 		vmov	r1, s15	@ int
 1508 098a FFF7FEFF 		bl	buffer_append_int32
 1509              	.LVL189:
 1510              		.loc 1 1933 0
 1511 098e 059B     		ldr	r3, [sp, #20]
 1512              		.loc 1 1937 0
 1513 0990 D5F800C0 		ldr	ip, [r5]
 1514              		.loc 1 1933 0
 1515 0994 09AA     		add	r2, sp, #36
 1516 0996 03CA     		ldmia	r2!, {r0, r1}
 1517 0998 E218     		adds	r2, r4, r3
 1518 099a E050     		str	r0, [r4, r3]	@ unaligned
 1519              		.loc 1 1935 0
 1520 099c 0933     		adds	r3, r3, #9
 1521              		.loc 1 1933 0
 1522 099e 5160     		str	r1, [r2, #4]	@ unaligned
 1523              		.loc 1 1935 0
 1524 09a0 0899     		ldr	r1, [sp, #32]
 1525 09a2 0593     		str	r3, [sp, #20]
 1526 09a4 1172     		strb	r1, [r2, #8]
 1527              		.loc 1 1937 0
 1528 09a6 BCF1000F 		cmp	ip, #0
 1529 09aa 3FF44EAB 		beq	.L9
 1530              		.loc 1 1938 0
 1531 09ae 1946     		mov	r1, r3
 1532 09b0 3F48     		ldr	r0, .L155+8
 1533 09b2 2B68     		ldr	r3, [r5]
 1534 09b4 9847     		blx	r3
 1535              	.LVL190:
 1536              	.LBE291:
 1537              		.loc 1 1940 0
 1538 09b6 FFF748BB 		b	.L9
 1539              	.LVL191:
ARM GAS  /tmp/cc8pZ867.s 			page 28


 1540              	.L11:
 1541              		.loc 1 2144 0
 1542 09ba B344     		add	fp, fp, r6
 1543              	.LVL192:
 1544 09bc 0023     		movs	r3, #0
 1545 09be 8BF80130 		strb	r3, [fp, #1]
 1546              		.loc 1 2145 0
 1547 09c2 3C48     		ldr	r0, .L155+12
 1548 09c4 FFF7FEFF 		bl	chMtxLock
 1549              	.LVL193:
 1550              		.loc 1 2146 0
 1551 09c8 3748     		ldr	r0, .L155
 1552 09ca FFF7FEFF 		bl	terminal_process_string
 1553              	.LVL194:
 1554              		.loc 1 2147 0
 1555 09ce 3948     		ldr	r0, .L155+12
 1556 09d0 FFF7FEFF 		bl	chMtxUnlock
 1557              	.LVL195:
 1558              		.loc 1 2148 0
 1559 09d4 FFF739BB 		b	.L9
 1560              	.LVL196:
 1561              	.L32:
 1562              	.LBB292:
 1563              		.loc 1 1925 0
 1564 09d8 8DED069A 		vstr.32	s18, [sp, #24]
 1565              		.loc 1 1926 0
 1566 09dc 8DED079A 		vstr.32	s18, [sp, #28]
 1567 09e0 0390     		str	r0, [sp, #12]
 1568 09e2 BFE7     		b	.L33
 1569              	.LVL197:
 1570              	.L42:
 1571              	.LBE292:
 1572              	.LBB293:
 1573              		.loc 1 2033 0
 1574 09e4 0122     		movs	r2, #1
 1575 09e6 1B23     		movs	r3, #27
 1576              		.loc 1 2034 0
 1577 09e8 F0EE680A 		vmov.f32	s1, s17
 1578 09ec 9FED320A 		vldr.32	s0, .L155+16
 1579 09f0 2F48     		ldr	r0, .L155+8
 1580              		.loc 1 2033 0
 1581 09f2 0992     		str	r2, [sp, #36]
 1582              		.loc 1 2034 0
 1583 09f4 09A9     		add	r1, sp, #36
 1584              		.loc 1 2033 0
 1585 09f6 2370     		strb	r3, [r4]
 1586              		.loc 1 2034 0
 1587 09f8 FFF7FEFF 		bl	buffer_append_float32
 1588              	.LVL198:
 1589              		.loc 1 2035 0
 1590 09fc 09A9     		add	r1, sp, #36
 1591 09fe F0EE680A 		vmov.f32	s1, s17
 1592 0a02 B0EE490A 		vmov.f32	s0, s18
 1593 0a06 2A48     		ldr	r0, .L155+8
 1594 0a08 FFF7FEFF 		bl	buffer_append_float32
 1595              	.LVL199:
 1596              		.loc 1 2036 0
ARM GAS  /tmp/cc8pZ867.s 			page 29


 1597 0a0c 0999     		ldr	r1, [sp, #36]
 1598              		.loc 1 2038 0
 1599 0a0e 2A68     		ldr	r2, [r5]
 1600              		.loc 1 2036 0
 1601 0a10 04F80190 		strb	r9, [r4, r1]
 1602 0a14 0131     		adds	r1, r1, #1
 1603 0a16 0991     		str	r1, [sp, #36]
 1604              		.loc 1 2038 0
 1605 0a18 002A     		cmp	r2, #0
 1606 0a1a 7FF464AD 		bne	.L140
 1607 0a1e FFF714BB 		b	.L9
 1608              	.LVL200:
 1609              	.L45:
 1610              	.LBE293:
 1611              	.LBB294:
 1612              	.LBB288:
 1613              		.loc 1 2079 0
 1614 0a22 4FF0FF33 		mov	r3, #-1
 1615              		.loc 1 2082 0
 1616 0a26 2A68     		ldr	r2, [r5]
 1617              		.loc 1 2079 0
 1618 0a28 C4E90033 		strd	r3, r3, [r4]
 1619              	.LVL201:
 1620              		.loc 1 2081 0
 1621 0a2c 0023     		movs	r3, #0
 1622 0a2e 6372     		strb	r3, [r4, #9]
 1623              		.loc 1 2082 0
 1624 0a30 002A     		cmp	r2, #0
 1625 0a32 3FF499AE 		beq	.L47
 1626              		.loc 1 2083 0
 1627 0a36 2B68     		ldr	r3, [r5]
 1628 0a38 1D48     		ldr	r0, .L155+8
 1629 0a3a 0A21     		movs	r1, #10
 1630 0a3c 9847     		blx	r3
 1631              	.LVL202:
 1632 0a3e 93E6     		b	.L47
 1633              	.LVL203:
 1634              	.L36:
 1635              	.LBE288:
 1636              	.LBE294:
 1637              	.LBB295:
 1638              		.loc 1 1959 0
 1639 0a40 B0EE490A 		vmov.f32	s0, s18
 1640              		.loc 1 1958 0
 1641 0a44 8DED069A 		vstr.32	s18, [sp, #24]
 1642              		.loc 1 1959 0
 1643 0a48 8DED079A 		vstr.32	s18, [sp, #28]
 1644 0a4c 12E6     		b	.L37
 1645              	.LVL204:
 1646              	.L39:
 1647              	.LBE295:
 1648              	.LBB296:
 1649              		.loc 1 1986 0
 1650 0a4e 9FED1B0A 		vldr.32	s0, .L155+20
 1651 0a52 8DED099A 		vstr.32	s18, [sp, #36]
 1652 0a56 C6E5     		b	.L40
 1653              	.LVL205:
ARM GAS  /tmp/cc8pZ867.s 			page 30


 1654              	.L51:
 1655              	.LBE296:
 1656              	.LBB297:
 1657              		.loc 1 2112 0
 1658 0a58 9FED180A 		vldr.32	s0, .L155+20
 1659 0a5c 8DED079A 		vstr.32	s18, [sp, #28]
 1660 0a60 31E7     		b	.L52
 1661              	.LVL206:
 1662              	.L148:
 1663              		.loc 1 2099 0
 1664 0a62 06A9     		add	r1, sp, #24
 1665 0a64 9FED160A 		vldr.32	s0, .L155+24
 1666              	.LVL207:
 1667 0a68 0F48     		ldr	r0, .L155
 1668 0a6a FFF7FEFF 		bl	buffer_get_float32
 1669              	.LVL208:
 1670 0a6e B0EE402A 		vmov.f32	s4, s0
 1671              	.LVL209:
 1672 0a72 0DE7     		b	.L48
 1673              	.LVL210:
 1674              	.L147:
 1675              	.LBE297:
 1676              	.LBB298:
 1677              	.LBB276:
 1678              		.loc 1 2188 0
 1679 0a74 A1F1070A 		sub	r10, r1, #7
 1680 0a78 5246     		mov	r2, r10
 1681 0a7a 1249     		ldr	r1, .L155+28
 1682 0a7c 0C48     		ldr	r0, .L155+8
 1683 0a7e FFF7FEFF 		bl	memcpy
 1684              	.LVL211:
 1685              		.loc 1 2189 0
 1686 0a82 0423     		movs	r3, #4
 1687              		.loc 1 2190 0
 1688 0a84 08A9     		add	r1, sp, #32
 1689 0a86 0848     		ldr	r0, .L155
 1690              		.loc 1 2189 0
 1691 0a88 0893     		str	r3, [sp, #32]
 1692              		.loc 1 2190 0
 1693 0a8a FFF7FEFF 		bl	buffer_get_uint16
 1694              	.LVL212:
 1695              		.loc 1 2191 0
 1696 0a8e 0023     		movs	r3, #0
 1697              		.loc 1 2190 0
 1698 0a90 0990     		str	r0, [sp, #36]
 1699              		.loc 1 2191 0
 1700 0a92 0093     		str	r3, [sp]
 1701 0a94 5146     		mov	r1, r10
 1702 0a96 09AB     		add	r3, sp, #36
 1703 0a98 0B4A     		ldr	r2, .L155+32
 1704 0a9a 0548     		ldr	r0, .L155+8
 1705 0a9c FFF7FEFF 		bl	lzo1x_decompress_safe
 1706              	.LVL213:
 1707              		.loc 1 2192 0
 1708 0aa0 099B     		ldr	r3, [sp, #36]
 1709 0aa2 03F1040B 		add	fp, r3, #4
 1710              	.LVL214:
ARM GAS  /tmp/cc8pZ867.s 			page 31


 1711 0aa6 DAE4     		b	.L60
 1712              	.L156:
 1713              		.align	2
 1714              	.L155:
 1715 0aa8 01000000 		.word	.LANCHOR5+1
 1716 0aac 00007A44 		.word	1148846080
 1717 0ab0 00000000 		.word	.LANCHOR6
 1718 0ab4 00000000 		.word	.LANCHOR8
 1719 0ab8 00407A44 		.word	1148862464
 1720 0abc 00000000 		.word	0
 1721 0ac0 20BCBE4C 		.word	1287568416
 1722 0ac4 07000000 		.word	.LANCHOR5+7
 1723 0ac8 05000000 		.word	.LANCHOR5+5
 1724              	.LBE276:
 1725              	.LBE298:
 1726              	.LBE263:
 1727              		.cfi_endproc
 1728              	.LFE286:
 1729              		.size	blocking_thread, .-blocking_thread
 1730              		.section	.text.commands_init,"ax",%progbits
 1731              		.align	1
 1732              		.p2align 4,,15
 1733              		.global	commands_init
 1734              		.syntax unified
 1735              		.thumb
 1736              		.thumb_func
 1737              		.fpu fpv4-sp-d16
 1738              		.type	commands_init, %function
 1739              	commands_init:
 1740              	.LFB259:
 1741              		.loc 1 94 0
 1742              		.cfi_startproc
 1743              		@ args = 0, pretend = 0, frame = 0
 1744              		@ frame_needed = 0, uses_anonymous_args = 0
 1745 0000 00B5     		push	{lr}
 1746              		.cfi_def_cfa_offset 4
 1747              		.cfi_offset 14, -4
 1748              		.loc 1 95 0
 1749 0002 0C48     		ldr	r0, .L159
 1750              		.loc 1 94 0
 1751 0004 83B0     		sub	sp, sp, #12
 1752              		.cfi_def_cfa_offset 16
 1753              		.loc 1 95 0
 1754 0006 FFF7FEFF 		bl	chMtxObjectInit
 1755              	.LVL215:
 1756              		.loc 1 96 0
 1757 000a 0B48     		ldr	r0, .L159+4
 1758 000c FFF7FEFF 		bl	chMtxObjectInit
 1759              	.LVL216:
 1760              		.loc 1 97 0
 1761 0010 0A48     		ldr	r0, .L159+8
 1762 0012 FFF7FEFF 		bl	chMtxObjectInit
 1763              	.LVL217:
 1764              		.loc 1 98 0
 1765 0016 0023     		movs	r3, #0
 1766 0018 0093     		str	r3, [sp]
 1767 001a 4022     		movs	r2, #64
ARM GAS  /tmp/cc8pZ867.s 			page 32


 1768 001c 084B     		ldr	r3, .L159+12
 1769 001e 0948     		ldr	r0, .L159+16
 1770 0020 40F65851 		movw	r1, #3416
 1771 0024 FFF7FEFF 		bl	chThdCreateStatic
 1772              	.LVL218:
 1773              		.loc 1 99 0
 1774 0028 074B     		ldr	r3, .L159+20
 1775 002a 0122     		movs	r2, #1
 1776 002c 1A70     		strb	r2, [r3]
 1777              		.loc 1 100 0
 1778 002e 03B0     		add	sp, sp, #12
 1779              		.cfi_def_cfa_offset 4
 1780              		@ sp needed
 1781 0030 5DF804FB 		ldr	pc, [sp], #4
 1782              	.L160:
 1783              		.align	2
 1784              	.L159:
 1785 0034 00000000 		.word	.LANCHOR9
 1786 0038 00000000 		.word	.LANCHOR10
 1787 003c 00000000 		.word	.LANCHOR8
 1788 0040 00000000 		.word	blocking_thread
 1789 0044 00000000 		.word	.LANCHOR11
 1790 0048 00000000 		.word	.LANCHOR12
 1791              		.cfi_endproc
 1792              	.LFE259:
 1793              		.size	commands_init, .-commands_init
 1794              		.section	.text.commands_is_initialized,"ax",%progbits
 1795              		.align	1
 1796              		.p2align 4,,15
 1797              		.global	commands_is_initialized
 1798              		.syntax unified
 1799              		.thumb
 1800              		.thumb_func
 1801              		.fpu fpv4-sp-d16
 1802              		.type	commands_is_initialized, %function
 1803              	commands_is_initialized:
 1804              	.LFB260:
 1805              		.loc 1 102 0
 1806              		.cfi_startproc
 1807              		@ args = 0, pretend = 0, frame = 0
 1808              		@ frame_needed = 0, uses_anonymous_args = 0
 1809              		@ link register save eliminated.
 1810              		.loc 1 103 0
 1811 0000 014B     		ldr	r3, .L162
 1812              		.loc 1 104 0
 1813 0002 1878     		ldrb	r0, [r3]	@ zero_extendqisi2
 1814 0004 7047     		bx	lr
 1815              	.L163:
 1816 0006 00BF     		.align	2
 1817              	.L162:
 1818 0008 00000000 		.word	.LANCHOR12
 1819              		.cfi_endproc
 1820              	.LFE260:
 1821              		.size	commands_is_initialized, .-commands_is_initialized
 1822              		.section	.text.commands_send_packet_can_last,"ax",%progbits
 1823              		.align	1
 1824              		.p2align 4,,15
ARM GAS  /tmp/cc8pZ867.s 			page 33


 1825              		.global	commands_send_packet_can_last
 1826              		.syntax unified
 1827              		.thumb
 1828              		.thumb_func
 1829              		.fpu fpv4-sp-d16
 1830              		.type	commands_send_packet_can_last, %function
 1831              	commands_send_packet_can_last:
 1832              	.LFB262:
 1833              		.loc 1 130 0
 1834              		.cfi_startproc
 1835              		@ args = 0, pretend = 0, frame = 0
 1836              		@ frame_needed = 0, uses_anonymous_args = 0
 1837              		@ link register save eliminated.
 1838              	.LVL219:
 1839              		.loc 1 131 0
 1840 0000 024B     		ldr	r3, .L166
 1841 0002 1A68     		ldr	r2, [r3]
 1842 0004 0AB1     		cbz	r2, .L164
 1843              		.loc 1 132 0
 1844 0006 1B68     		ldr	r3, [r3]
 1845 0008 1847     		bx	r3	@ indirect register sibling call
 1846              	.LVL220:
 1847              	.L164:
 1848              		.loc 1 134 0
 1849 000a 7047     		bx	lr
 1850              	.L167:
 1851              		.align	2
 1852              	.L166:
 1853 000c 00000000 		.word	.LANCHOR13
 1854              		.cfi_endproc
 1855              	.LFE262:
 1856              		.size	commands_send_packet_can_last, .-commands_send_packet_can_last
 1857              		.section	.text.commands_send_packet_nrf,"ax",%progbits
 1858              		.align	1
 1859              		.p2align 4,,15
 1860              		.global	commands_send_packet_nrf
 1861              		.syntax unified
 1862              		.thumb
 1863              		.thumb_func
 1864              		.fpu fpv4-sp-d16
 1865              		.type	commands_send_packet_nrf, %function
 1866              	commands_send_packet_nrf:
 1867              	.LFB263:
 1868              		.loc 1 150 0
 1869              		.cfi_startproc
 1870              		@ args = 0, pretend = 0, frame = 0
 1871              		@ frame_needed = 0, uses_anonymous_args = 0
 1872              		@ link register save eliminated.
 1873              	.LVL221:
 1874              		.loc 1 151 0
 1875 0000 024B     		ldr	r3, .L170
 1876 0002 1A68     		ldr	r2, [r3]
 1877 0004 0AB1     		cbz	r2, .L168
 1878              		.loc 1 152 0
 1879 0006 1B68     		ldr	r3, [r3]
 1880 0008 1847     		bx	r3	@ indirect register sibling call
 1881              	.LVL222:
ARM GAS  /tmp/cc8pZ867.s 			page 34


 1882              	.L168:
 1883              		.loc 1 154 0
 1884 000a 7047     		bx	lr
 1885              	.L171:
 1886              		.align	2
 1887              	.L170:
 1888 000c 00000000 		.word	.LANCHOR14
 1889              		.cfi_endproc
 1890              	.LFE263:
 1891              		.size	commands_send_packet_nrf, .-commands_send_packet_nrf
 1892              		.section	.text.commands_send_packet_last_blocking,"ax",%progbits
 1893              		.align	1
 1894              		.p2align 4,,15
 1895              		.global	commands_send_packet_last_blocking
 1896              		.syntax unified
 1897              		.thumb
 1898              		.thumb_func
 1899              		.fpu fpv4-sp-d16
 1900              		.type	commands_send_packet_last_blocking, %function
 1901              	commands_send_packet_last_blocking:
 1902              	.LFB264:
 1903              		.loc 1 165 0
 1904              		.cfi_startproc
 1905              		@ args = 0, pretend = 0, frame = 0
 1906              		@ frame_needed = 0, uses_anonymous_args = 0
 1907              		@ link register save eliminated.
 1908              	.LVL223:
 1909              		.loc 1 166 0
 1910 0000 024B     		ldr	r3, .L174
 1911 0002 1A68     		ldr	r2, [r3]
 1912 0004 0AB1     		cbz	r2, .L172
 1913              		.loc 1 167 0
 1914 0006 1B68     		ldr	r3, [r3]
 1915 0008 1847     		bx	r3	@ indirect register sibling call
 1916              	.LVL224:
 1917              	.L172:
 1918              		.loc 1 169 0
 1919 000a 7047     		bx	lr
 1920              	.L175:
 1921              		.align	2
 1922              	.L174:
 1923 000c 00000000 		.word	.LANCHOR7
 1924              		.cfi_endproc
 1925              	.LFE264:
 1926              		.size	commands_send_packet_last_blocking, .-commands_send_packet_last_blocking
 1927              		.section	.text.commands_printf,"ax",%progbits
 1928              		.align	1
 1929              		.p2align 4,,15
 1930              		.global	commands_printf
 1931              		.syntax unified
 1932              		.thumb
 1933              		.thumb_func
 1934              		.fpu fpv4-sp-d16
 1935              		.type	commands_printf, %function
 1936              	commands_printf:
 1937              	.LFB266:
 1938              		.loc 1 1616 0
ARM GAS  /tmp/cc8pZ867.s 			page 35


 1939              		.cfi_startproc
 1940              		@ args = 4, pretend = 16, frame = 8
 1941              		@ frame_needed = 0, uses_anonymous_args = 1
 1942              	.LVL225:
 1943 0000 0FB4     		push	{r0, r1, r2, r3}
 1944              		.cfi_def_cfa_offset 16
 1945              		.cfi_offset 0, -16
 1946              		.cfi_offset 1, -12
 1947              		.cfi_offset 2, -8
 1948              		.cfi_offset 3, -4
 1949 0002 70B5     		push	{r4, r5, r6, lr}
 1950              		.cfi_def_cfa_offset 32
 1951              		.cfi_offset 4, -32
 1952              		.cfi_offset 5, -28
 1953              		.cfi_offset 6, -24
 1954              		.cfi_offset 14, -20
 1955 0004 82B0     		sub	sp, sp, #8
 1956              		.cfi_def_cfa_offset 40
 1957              		.loc 1 1616 0
 1958 0006 06AC     		add	r4, sp, #24
 1959              		.loc 1 1623 0
 1960 0008 114D     		ldr	r5, .L182
 1961              		.loc 1 1617 0
 1962 000a 1248     		ldr	r0, .L182+4
 1963              		.loc 1 1616 0
 1964 000c 54F8046B 		ldr	r6, [r4], #4
 1965              		.loc 1 1617 0
 1966 0010 FFF7FEFF 		bl	chMtxLock
 1967              	.LVL226:
 1968              		.loc 1 1623 0
 1969 0014 2846     		mov	r0, r5
 1970 0016 1523     		movs	r3, #21
 1971 0018 00F8013B 		strb	r3, [r0], #1
 1972              		.loc 1 1624 0
 1973 001c 3246     		mov	r2, r6
 1974 001e 2346     		mov	r3, r4
 1975 0020 FE21     		movs	r1, #254
 1976              		.loc 1 1620 0
 1977 0022 0194     		str	r4, [sp, #4]
 1978              		.loc 1 1624 0
 1979 0024 FFF7FEFF 		bl	vsnprintf
 1980              	.LVL227:
 1981              		.loc 1 1627 0
 1982 0028 0028     		cmp	r0, #0
 1983 002a 09DD     		ble	.L177
 1984              	.LBB299:
 1985              	.LBB300:
 1986              		.loc 1 166 0
 1987 002c 0A4B     		ldr	r3, .L182+8
 1988              	.LBE300:
 1989              	.LBE299:
 1990              		.loc 1 1629 0
 1991 002e FE28     		cmp	r0, #254
 1992              	.LBB303:
 1993              	.LBB301:
 1994              		.loc 1 166 0
 1995 0030 1A68     		ldr	r2, [r3]
ARM GAS  /tmp/cc8pZ867.s 			page 36


 1996              	.LBE301:
 1997              	.LBE303:
 1998              		.loc 1 1629 0
 1999 0032 A8BF     		it	ge
 2000 0034 FE20     		movge	r0, #254
 2001              	.LVL228:
 2002 0036 411C     		adds	r1, r0, #1
 2003              	.LVL229:
 2004              	.LBB304:
 2005              	.LBB302:
 2006              		.loc 1 166 0
 2007 0038 12B1     		cbz	r2, .L177
 2008              		.loc 1 167 0
 2009 003a 1B68     		ldr	r3, [r3]
 2010 003c 2846     		mov	r0, r5
 2011 003e 9847     		blx	r3
 2012              	.LVL230:
 2013              	.L177:
 2014              	.LBE302:
 2015              	.LBE304:
 2016              		.loc 1 1632 0
 2017 0040 0448     		ldr	r0, .L182+4
 2018 0042 FFF7FEFF 		bl	chMtxUnlock
 2019              	.LVL231:
 2020              		.loc 1 1633 0
 2021 0046 02B0     		add	sp, sp, #8
 2022              		.cfi_def_cfa_offset 32
 2023              		@ sp needed
 2024 0048 BDE87040 		pop	{r4, r5, r6, lr}
 2025              		.cfi_restore 14
 2026              		.cfi_restore 6
 2027              		.cfi_restore 5
 2028              		.cfi_restore 4
 2029              		.cfi_def_cfa_offset 16
 2030 004c 04B0     		add	sp, sp, #16
 2031              		.cfi_restore 3
 2032              		.cfi_restore 2
 2033              		.cfi_restore 1
 2034              		.cfi_restore 0
 2035              		.cfi_def_cfa_offset 0
 2036 004e 7047     		bx	lr
 2037              	.L183:
 2038              		.align	2
 2039              	.L182:
 2040 0050 00000000 		.word	.LANCHOR15
 2041 0054 00000000 		.word	.LANCHOR9
 2042 0058 00000000 		.word	.LANCHOR7
 2043              		.cfi_endproc
 2044              	.LFE266:
 2045              		.size	commands_printf, .-commands_printf
 2046              		.section	.text.commands_printf_lisp,"ax",%progbits
 2047              		.align	1
 2048              		.p2align 4,,15
 2049              		.global	commands_printf_lisp
 2050              		.syntax unified
 2051              		.thumb
 2052              		.thumb_func
ARM GAS  /tmp/cc8pZ867.s 			page 37


 2053              		.fpu fpv4-sp-d16
 2054              		.type	commands_printf_lisp, %function
 2055              	commands_printf_lisp:
 2056              	.LFB267:
 2057              		.loc 1 1635 0
 2058              		.cfi_startproc
 2059              		@ args = 4, pretend = 16, frame = 8
 2060              		@ frame_needed = 0, uses_anonymous_args = 1
 2061              	.LVL232:
 2062 0000 0FB4     		push	{r0, r1, r2, r3}
 2063              		.cfi_def_cfa_offset 16
 2064              		.cfi_offset 0, -16
 2065              		.cfi_offset 1, -12
 2066              		.cfi_offset 2, -8
 2067              		.cfi_offset 3, -4
 2068 0002 70B5     		push	{r4, r5, r6, lr}
 2069              		.cfi_def_cfa_offset 32
 2070              		.cfi_offset 4, -32
 2071              		.cfi_offset 5, -28
 2072              		.cfi_offset 6, -24
 2073              		.cfi_offset 14, -20
 2074 0004 82B0     		sub	sp, sp, #8
 2075              		.cfi_def_cfa_offset 40
 2076              		.loc 1 1635 0
 2077 0006 06AC     		add	r4, sp, #24
 2078              		.loc 1 1642 0
 2079 0008 114D     		ldr	r5, .L190
 2080              		.loc 1 1636 0
 2081 000a 1248     		ldr	r0, .L190+4
 2082              		.loc 1 1635 0
 2083 000c 54F8046B 		ldr	r6, [r4], #4
 2084              		.loc 1 1636 0
 2085 0010 FFF7FEFF 		bl	chMtxLock
 2086              	.LVL233:
 2087              		.loc 1 1642 0
 2088 0014 2846     		mov	r0, r5
 2089 0016 8723     		movs	r3, #135
 2090 0018 00F8013B 		strb	r3, [r0], #1
 2091              		.loc 1 1643 0
 2092 001c 3246     		mov	r2, r6
 2093 001e 2346     		mov	r3, r4
 2094 0020 FE21     		movs	r1, #254
 2095              		.loc 1 1639 0
 2096 0022 0194     		str	r4, [sp, #4]
 2097              		.loc 1 1643 0
 2098 0024 FFF7FEFF 		bl	vsnprintf
 2099              	.LVL234:
 2100              		.loc 1 1646 0
 2101 0028 0028     		cmp	r0, #0
 2102 002a 09DD     		ble	.L185
 2103              	.LBB305:
 2104              	.LBB306:
 2105              		.loc 1 166 0
 2106 002c 0A4B     		ldr	r3, .L190+8
 2107              	.LBE306:
 2108              	.LBE305:
 2109              		.loc 1 1648 0
ARM GAS  /tmp/cc8pZ867.s 			page 38


 2110 002e FE28     		cmp	r0, #254
 2111              	.LBB309:
 2112              	.LBB307:
 2113              		.loc 1 166 0
 2114 0030 1A68     		ldr	r2, [r3]
 2115              	.LBE307:
 2116              	.LBE309:
 2117              		.loc 1 1648 0
 2118 0032 A8BF     		it	ge
 2119 0034 FE20     		movge	r0, #254
 2120              	.LVL235:
 2121 0036 411C     		adds	r1, r0, #1
 2122              	.LVL236:
 2123              	.LBB310:
 2124              	.LBB308:
 2125              		.loc 1 166 0
 2126 0038 12B1     		cbz	r2, .L185
 2127              		.loc 1 167 0
 2128 003a 1B68     		ldr	r3, [r3]
 2129 003c 2846     		mov	r0, r5
 2130 003e 9847     		blx	r3
 2131              	.LVL237:
 2132              	.L185:
 2133              	.LBE308:
 2134              	.LBE310:
 2135              		.loc 1 1651 0
 2136 0040 0448     		ldr	r0, .L190+4
 2137 0042 FFF7FEFF 		bl	chMtxUnlock
 2138              	.LVL238:
 2139              		.loc 1 1652 0
 2140 0046 02B0     		add	sp, sp, #8
 2141              		.cfi_def_cfa_offset 32
 2142              		@ sp needed
 2143 0048 BDE87040 		pop	{r4, r5, r6, lr}
 2144              		.cfi_restore 14
 2145              		.cfi_restore 6
 2146              		.cfi_restore 5
 2147              		.cfi_restore 4
 2148              		.cfi_def_cfa_offset 16
 2149 004c 04B0     		add	sp, sp, #16
 2150              		.cfi_restore 3
 2151              		.cfi_restore 2
 2152              		.cfi_restore 1
 2153              		.cfi_restore 0
 2154              		.cfi_def_cfa_offset 0
 2155 004e 7047     		bx	lr
 2156              	.L191:
 2157              		.align	2
 2158              	.L190:
 2159 0050 00000000 		.word	.LANCHOR15
 2160 0054 00000000 		.word	.LANCHOR9
 2161 0058 00000000 		.word	.LANCHOR7
 2162              		.cfi_endproc
 2163              	.LFE267:
 2164              		.size	commands_printf_lisp, .-commands_printf_lisp
 2165              		.section	.text.commands_send_rotor_pos,"ax",%progbits
 2166              		.align	1
ARM GAS  /tmp/cc8pZ867.s 			page 39


 2167              		.p2align 4,,15
 2168              		.global	commands_send_rotor_pos
 2169              		.syntax unified
 2170              		.thumb
 2171              		.thumb_func
 2172              		.fpu fpv4-sp-d16
 2173              		.type	commands_send_rotor_pos, %function
 2174              	commands_send_rotor_pos:
 2175              	.LFB268:
 2176              		.loc 1 1654 0
 2177              		.cfi_startproc
 2178              		@ args = 0, pretend = 0, frame = 16
 2179              		@ frame_needed = 0, uses_anonymous_args = 0
 2180              	.LVL239:
 2181 0000 10B5     		push	{r4, lr}
 2182              		.cfi_def_cfa_offset 8
 2183              		.cfi_offset 4, -8
 2184              		.cfi_offset 14, -4
 2185              		.loc 1 1658 0
 2186 0002 DFED0D7A 		vldr.32	s15, .L198
 2187 0006 20EE270A 		vmul.f32	s0, s0, s15
 2188              	.LVL240:
 2189              		.loc 1 1654 0
 2190 000a 84B0     		sub	sp, sp, #16
 2191              		.cfi_def_cfa_offset 24
 2192              		.loc 1 1658 0
 2193 000c FDEEC07A 		vcvt.s32.f32	s15, s0
 2194              		.loc 1 1657 0
 2195 0010 1623     		movs	r3, #22
 2196              		.loc 1 1658 0
 2197 0012 17EE901A 		vmov	r1, s15	@ int
 2198 0016 01AA     		add	r2, sp, #4
 2199 0018 02A8     		add	r0, sp, #8
 2200              		.loc 1 1657 0
 2201 001a 0124     		movs	r4, #1
 2202 001c 8DF80830 		strb	r3, [sp, #8]
 2203 0020 0194     		str	r4, [sp, #4]
 2204              		.loc 1 1658 0
 2205 0022 FFF7FEFF 		bl	buffer_append_int32
 2206              	.LVL241:
 2207              	.LBB311:
 2208              	.LBB312:
 2209              		.loc 1 116 0
 2210 0026 054B     		ldr	r3, .L198+4
 2211              	.LBE312:
 2212              	.LBE311:
 2213              		.loc 1 1659 0
 2214 0028 0199     		ldr	r1, [sp, #4]
 2215              	.LVL242:
 2216              	.LBB314:
 2217              	.LBB313:
 2218              		.loc 1 116 0
 2219 002a 1A68     		ldr	r2, [r3]
 2220 002c 12B1     		cbz	r2, .L192
 2221              		.loc 1 117 0
 2222 002e 1B68     		ldr	r3, [r3]
 2223 0030 02A8     		add	r0, sp, #8
ARM GAS  /tmp/cc8pZ867.s 			page 40


 2224              	.LVL243:
 2225 0032 9847     		blx	r3
 2226              	.LVL244:
 2227              	.L192:
 2228              	.LBE313:
 2229              	.LBE314:
 2230              		.loc 1 1660 0
 2231 0034 04B0     		add	sp, sp, #16
 2232              		.cfi_def_cfa_offset 8
 2233              		@ sp needed
 2234 0036 10BD     		pop	{r4, pc}
 2235              	.L199:
 2236              		.align	2
 2237              	.L198:
 2238 0038 0050C347 		.word	1203982336
 2239 003c 00000000 		.word	.LANCHOR0
 2240              		.cfi_endproc
 2241              	.LFE268:
 2242              		.size	commands_send_rotor_pos, .-commands_send_rotor_pos
 2243              		.section	.text.commands_send_experiment_samples,"ax",%progbits
 2244              		.align	1
 2245              		.p2align 4,,15
 2246              		.global	commands_send_experiment_samples
 2247              		.syntax unified
 2248              		.thumb
 2249              		.thumb_func
 2250              		.fpu fpv4-sp-d16
 2251              		.type	commands_send_experiment_samples, %function
 2252              	commands_send_experiment_samples:
 2253              	.LFB269:
 2254              		.loc 1 1662 0
 2255              		.cfi_startproc
 2256              		@ args = 0, pretend = 0, frame = 8
 2257              		@ frame_needed = 1, uses_anonymous_args = 0
 2258              	.LVL245:
 2259 0000 2DE9F041 		push	{r4, r5, r6, r7, r8, lr}
 2260              		.cfi_def_cfa_offset 24
 2261              		.cfi_offset 4, -24
 2262              		.cfi_offset 5, -20
 2263              		.cfi_offset 6, -16
 2264              		.cfi_offset 7, -12
 2265              		.cfi_offset 8, -8
 2266              		.cfi_offset 14, -4
 2267 0004 2DED028B 		vpush.64	{d8}
 2268              		.cfi_def_cfa_offset 32
 2269              		.cfi_offset 80, -32
 2270              		.cfi_offset 81, -28
 2271              		.loc 1 1663 0
 2272 0008 8D00     		lsls	r5, r1, #2
 2273              		.loc 1 1662 0
 2274 000a 82B0     		sub	sp, sp, #8
 2275              		.cfi_def_cfa_offset 40
 2276              		.loc 1 1663 0
 2277 000c FF2D     		cmp	r5, #255
 2278              		.loc 1 1662 0
 2279 000e 00AF     		add	r7, sp, #0
 2280              		.cfi_def_cfa_register 7
ARM GAS  /tmp/cc8pZ867.s 			page 41


 2281              		.loc 1 1663 0
 2282 0010 28DC     		bgt	.L200
 2283              	.LVL246:
 2284              		.loc 1 1667 0
 2285 0012 05F10803 		add	r3, r5, #8
 2286 0016 23F00703 		bic	r3, r3, #7
 2287 001a E846     		mov	r8, sp
 2288 001c ADEB030D 		sub	sp, sp, r3
 2289              		.loc 1 1670 0
 2290 0020 1722     		movs	r2, #23
 2291 0022 0123     		movs	r3, #1
 2292              	.LBB315:
 2293              		.loc 1 1672 0
 2294 0024 0029     		cmp	r1, #0
 2295              	.LBE315:
 2296              		.loc 1 1670 0
 2297 0026 8DF80020 		strb	r2, [sp]
 2298              		.loc 1 1667 0
 2299 002a 6E46     		mov	r6, sp
 2300              	.LVL247:
 2301              		.loc 1 1670 0
 2302 002c 7B60     		str	r3, [r7, #4]
 2303              	.LBB316:
 2304              		.loc 1 1672 0
 2305 002e 1FDD     		ble	.L206
 2306              		.loc 1 1673 0
 2307 0030 9FED108A 		vldr.32	s16, .L212
 2308 0034 0446     		mov	r4, r0
 2309 0036 0544     		add	r5, r5, r0
 2310              	.LVL248:
 2311              	.L203:
 2312              		.loc 1 1673 0 is_stmt 0 discriminator 3
 2313 0038 F4EC017A 		vldmia.32	r4!, {s15}
 2314 003c 67EE887A 		vmul.f32	s15, s15, s16
 2315 0040 3A1D     		adds	r2, r7, #4
 2316 0042 FDEEE77A 		vcvt.s32.f32	s15, s15
 2317 0046 3046     		mov	r0, r6
 2318 0048 17EE901A 		vmov	r1, s15	@ int
 2319 004c FFF7FEFF 		bl	buffer_append_int32
 2320              	.LVL249:
 2321              		.loc 1 1672 0 is_stmt 1 discriminator 3
 2322 0050 A542     		cmp	r5, r4
 2323 0052 F1D1     		bne	.L203
 2324 0054 7968     		ldr	r1, [r7, #4]
 2325              	.L202:
 2326              	.LVL250:
 2327              	.LBE316:
 2328              	.LBB317:
 2329              	.LBB318:
 2330              		.loc 1 116 0
 2331 0056 084B     		ldr	r3, .L212+4
 2332 0058 1A68     		ldr	r2, [r3]
 2333 005a 12B1     		cbz	r2, .L204
 2334              		.loc 1 117 0
 2335 005c 1B68     		ldr	r3, [r3]
 2336 005e 3046     		mov	r0, r6
 2337 0060 9847     		blx	r3
ARM GAS  /tmp/cc8pZ867.s 			page 42


 2338              	.LVL251:
 2339              	.L204:
 2340 0062 C546     		mov	sp, r8
 2341              	.LVL252:
 2342              	.L200:
 2343              	.LBE318:
 2344              	.LBE317:
 2345              		.loc 1 1677 0
 2346 0064 0837     		adds	r7, r7, #8
 2347              		.cfi_remember_state
 2348              		.cfi_def_cfa_offset 32
 2349 0066 BD46     		mov	sp, r7
 2350              		.cfi_def_cfa_register 13
 2351              		@ sp needed
 2352 0068 BDEC028B 		vldm	sp!, {d8}
 2353              		.cfi_restore 80
 2354              		.cfi_restore 81
 2355              		.cfi_def_cfa_offset 24
 2356 006c BDE8F081 		pop	{r4, r5, r6, r7, r8, pc}
 2357              	.LVL253:
 2358              	.L206:
 2359              		.cfi_restore_state
 2360              	.LBB319:
 2361              		.loc 1 1672 0
 2362 0070 1946     		mov	r1, r3
 2363              	.LVL254:
 2364 0072 F0E7     		b	.L202
 2365              	.L213:
 2366              		.align	2
 2367              	.L212:
 2368 0074 00401C46 		.word	1176256512
 2369 0078 00000000 		.word	.LANCHOR0
 2370              	.LBE319:
 2371              		.cfi_endproc
 2372              	.LFE269:
 2373              		.size	commands_send_experiment_samples, .-commands_send_experiment_samples
 2374              		.section	.text.commands_fwd_can_frame,"ax",%progbits
 2375              		.align	1
 2376              		.p2align 4,,15
 2377              		.global	commands_fwd_can_frame
 2378              		.syntax unified
 2379              		.thumb
 2380              		.thumb_func
 2381              		.fpu fpv4-sp-d16
 2382              		.type	commands_fwd_can_frame, %function
 2383              	commands_fwd_can_frame:
 2384              	.LFB270:
 2385              		.loc 1 1679 0
 2386              		.cfi_startproc
 2387              		@ args = 0, pretend = 0, frame = 8
 2388              		@ frame_needed = 1, uses_anonymous_args = 0
 2389              	.LVL255:
 2390 0000 2DE9F043 		push	{r4, r5, r6, r7, r8, r9, lr}
 2391              		.cfi_def_cfa_offset 28
 2392              		.cfi_offset 4, -28
 2393              		.cfi_offset 5, -24
 2394              		.cfi_offset 6, -20
ARM GAS  /tmp/cc8pZ867.s 			page 43


 2395              		.cfi_offset 7, -16
 2396              		.cfi_offset 8, -12
 2397              		.cfi_offset 9, -8
 2398              		.cfi_offset 14, -4
 2399 0004 83B0     		sub	sp, sp, #12
 2400              		.cfi_def_cfa_offset 40
 2401 0006 0828     		cmp	r0, #8
 2402 0008 00AF     		add	r7, sp, #0
 2403              		.cfi_def_cfa_register 7
 2404 000a A8BF     		it	ge
 2405 000c 0820     		movge	r0, #8
 2406              	.LVL256:
 2407              		.loc 1 1686 0
 2408 000e 07F10804 		add	r4, r7, #8
 2409 0012 0546     		mov	r5, r0
 2410              	.LVL257:
 2411 0014 0126     		movs	r6, #1
 2412              		.loc 1 1684 0
 2413 0016 0D30     		adds	r0, r0, #13
 2414              	.LVL258:
 2415              		.loc 1 1686 0
 2416 0018 44F8046D 		str	r6, [r4, #-4]!
 2417              		.loc 1 1684 0
 2418 001c 20F00700 		bic	r0, r0, #7
 2419 0020 ADEB000D 		sub	sp, sp, r0
 2420              	.LVL259:
 2421              		.loc 1 1679 0
 2422 0024 8946     		mov	r9, r1
 2423              		.loc 1 1686 0
 2424 0026 5526     		movs	r6, #85
 2425              		.loc 1 1687 0
 2426 0028 1146     		mov	r1, r2
 2427              	.LVL260:
 2428 002a 6846     		mov	r0, sp
 2429 002c 2246     		mov	r2, r4
 2430              	.LVL261:
 2431              		.loc 1 1679 0
 2432 002e 9846     		mov	r8, r3
 2433              		.loc 1 1686 0
 2434 0030 8DF80060 		strb	r6, [sp]
 2435              		.loc 1 1687 0
 2436 0034 FFF7FEFF 		bl	buffer_append_uint32
 2437              	.LVL262:
 2438              		.loc 1 1688 0
 2439 0038 7E68     		ldr	r6, [r7, #4]
 2440 003a 741C     		adds	r4, r6, #1
 2441              		.loc 1 1689 0
 2442 003c 4946     		mov	r1, r9
 2443 003e 2A46     		mov	r2, r5
 2444 0040 0DEB0400 		add	r0, sp, r4
 2445              		.loc 1 1688 0
 2446 0044 0DF80680 		strb	r8, [sp, r6]
 2447              		.loc 1 1689 0
 2448 0048 FFF7FEFF 		bl	memcpy
 2449              	.LVL263:
 2450              	.LBB320:
 2451              	.LBB321:
ARM GAS  /tmp/cc8pZ867.s 			page 44


 2452              		.loc 1 116 0
 2453 004c 054B     		ldr	r3, .L220
 2454 004e 1A68     		ldr	r2, [r3]
 2455              	.LBE321:
 2456              	.LBE320:
 2457              		.loc 1 1690 0
 2458 0050 6119     		adds	r1, r4, r5
 2459 0052 7960     		str	r1, [r7, #4]
 2460              	.LVL264:
 2461              	.LBB323:
 2462              	.LBB322:
 2463              		.loc 1 116 0
 2464 0054 12B1     		cbz	r2, .L214
 2465              		.loc 1 117 0
 2466 0056 1B68     		ldr	r3, [r3]
 2467 0058 6846     		mov	r0, sp
 2468 005a 9847     		blx	r3
 2469              	.LVL265:
 2470              	.L214:
 2471              	.LBE322:
 2472              	.LBE323:
 2473              		.loc 1 1692 0
 2474 005c 0C37     		adds	r7, r7, #12
 2475              		.cfi_def_cfa_offset 28
 2476 005e BD46     		mov	sp, r7
 2477              		.cfi_def_cfa_register 13
 2478              	.LVL266:
 2479              		@ sp needed
 2480 0060 BDE8F083 		pop	{r4, r5, r6, r7, r8, r9, pc}
 2481              	.LVL267:
 2482              	.L221:
 2483              		.align	2
 2484              	.L220:
 2485 0064 00000000 		.word	.LANCHOR0
 2486              		.cfi_endproc
 2487              	.LFE270:
 2488              		.size	commands_fwd_can_frame, .-commands_fwd_can_frame
 2489              		.section	.text.commands_get_disp_pos_mode,"ax",%progbits
 2490              		.align	1
 2491              		.p2align 4,,15
 2492              		.global	commands_get_disp_pos_mode
 2493              		.syntax unified
 2494              		.thumb
 2495              		.thumb_func
 2496              		.fpu fpv4-sp-d16
 2497              		.type	commands_get_disp_pos_mode, %function
 2498              	commands_get_disp_pos_mode:
 2499              	.LFB271:
 2500              		.loc 1 1694 0
 2501              		.cfi_startproc
 2502              		@ args = 0, pretend = 0, frame = 0
 2503              		@ frame_needed = 0, uses_anonymous_args = 0
 2504              		@ link register save eliminated.
 2505              		.loc 1 1695 0
 2506 0000 014B     		ldr	r3, .L223
 2507              		.loc 1 1696 0
 2508 0002 1878     		ldrb	r0, [r3]	@ zero_extendqisi2
ARM GAS  /tmp/cc8pZ867.s 			page 45


 2509 0004 7047     		bx	lr
 2510              	.L224:
 2511 0006 00BF     		.align	2
 2512              	.L223:
 2513 0008 00000000 		.word	.LANCHOR16
 2514              		.cfi_endproc
 2515              	.LFE271:
 2516              		.size	commands_get_disp_pos_mode, .-commands_get_disp_pos_mode
 2517              		.section	.text.commands_set_app_data_handler,"ax",%progbits
 2518              		.align	1
 2519              		.p2align 4,,15
 2520              		.global	commands_set_app_data_handler
 2521              		.syntax unified
 2522              		.thumb
 2523              		.thumb_func
 2524              		.fpu fpv4-sp-d16
 2525              		.type	commands_set_app_data_handler, %function
 2526              	commands_set_app_data_handler:
 2527              	.LFB272:
 2528              		.loc 1 1698 0
 2529              		.cfi_startproc
 2530              		@ args = 0, pretend = 0, frame = 0
 2531              		@ frame_needed = 0, uses_anonymous_args = 0
 2532              		@ link register save eliminated.
 2533              	.LVL268:
 2534              		.loc 1 1699 0
 2535 0000 014B     		ldr	r3, .L226
 2536 0002 1860     		str	r0, [r3]
 2537              		.loc 1 1700 0
 2538 0004 7047     		bx	lr
 2539              	.L227:
 2540 0006 00BF     		.align	2
 2541              	.L226:
 2542 0008 00000000 		.word	.LANCHOR17
 2543              		.cfi_endproc
 2544              	.LFE272:
 2545              		.size	commands_set_app_data_handler, .-commands_set_app_data_handler
 2546              		.section	.text.commands_set_hw_data_handler,"ax",%progbits
 2547              		.align	1
 2548              		.p2align 4,,15
 2549              		.global	commands_set_hw_data_handler
 2550              		.syntax unified
 2551              		.thumb
 2552              		.thumb_func
 2553              		.fpu fpv4-sp-d16
 2554              		.type	commands_set_hw_data_handler, %function
 2555              	commands_set_hw_data_handler:
 2556              	.LFB273:
 2557              		.loc 1 1702 0
 2558              		.cfi_startproc
 2559              		@ args = 0, pretend = 0, frame = 0
 2560              		@ frame_needed = 0, uses_anonymous_args = 0
 2561              		@ link register save eliminated.
 2562              	.LVL269:
 2563              		.loc 1 1703 0
 2564 0000 014B     		ldr	r3, .L229
 2565 0002 1860     		str	r0, [r3]
ARM GAS  /tmp/cc8pZ867.s 			page 46


 2566              		.loc 1 1704 0
 2567 0004 7047     		bx	lr
 2568              	.L230:
 2569 0006 00BF     		.align	2
 2570              	.L229:
 2571 0008 00000000 		.word	.LANCHOR18
 2572              		.cfi_endproc
 2573              	.LFE273:
 2574              		.size	commands_set_hw_data_handler, .-commands_set_hw_data_handler
 2575              		.section	.text.commands_send_app_data,"ax",%progbits
 2576              		.align	1
 2577              		.p2align 4,,15
 2578              		.global	commands_send_app_data
 2579              		.syntax unified
 2580              		.thumb
 2581              		.thumb_func
 2582              		.fpu fpv4-sp-d16
 2583              		.type	commands_send_app_data, %function
 2584              	commands_send_app_data:
 2585              	.LFB274:
 2586              		.loc 1 1706 0
 2587              		.cfi_startproc
 2588              		@ args = 0, pretend = 0, frame = 0
 2589              		@ frame_needed = 0, uses_anonymous_args = 0
 2590              	.LVL270:
 2591 0000 70B5     		push	{r4, r5, r6, lr}
 2592              		.cfi_def_cfa_offset 16
 2593              		.cfi_offset 4, -16
 2594              		.cfi_offset 5, -12
 2595              		.cfi_offset 6, -8
 2596              		.cfi_offset 14, -4
 2597              		.loc 1 1709 0
 2598 0002 0D4D     		ldr	r5, .L237
 2599              		.loc 1 1706 0
 2600 0004 0646     		mov	r6, r0
 2601              		.loc 1 1708 0
 2602 0006 0D48     		ldr	r0, .L237+4
 2603              	.LVL271:
 2604              		.loc 1 1706 0
 2605 0008 0C46     		mov	r4, r1
 2606              		.loc 1 1708 0
 2607 000a FFF7FEFF 		bl	chMtxLock
 2608              	.LVL272:
 2609              		.loc 1 1709 0
 2610 000e 2846     		mov	r0, r5
 2611 0010 2423     		movs	r3, #36
 2612 0012 00F8013B 		strb	r3, [r0], #1
 2613              		.loc 1 1710 0
 2614 0016 2246     		mov	r2, r4
 2615 0018 3146     		mov	r1, r6
 2616 001a FFF7FEFF 		bl	memcpy
 2617              	.LVL273:
 2618              	.LBB324:
 2619              	.LBB325:
 2620              		.loc 1 116 0
 2621 001e 084B     		ldr	r3, .L237+8
 2622 0020 1A68     		ldr	r2, [r3]
ARM GAS  /tmp/cc8pZ867.s 			page 47


 2623              	.LVL274:
 2624 0022 1AB1     		cbz	r2, .L232
 2625 0024 611C     		adds	r1, r4, #1
 2626              	.LVL275:
 2627              		.loc 1 117 0
 2628 0026 1B68     		ldr	r3, [r3]
 2629 0028 2846     		mov	r0, r5
 2630 002a 9847     		blx	r3
 2631              	.LVL276:
 2632              	.L232:
 2633              	.LBE325:
 2634              	.LBE324:
 2635              		.loc 1 1713 0
 2636 002c 0348     		ldr	r0, .L237+4
 2637              		.loc 1 1714 0
 2638 002e BDE87040 		pop	{r4, r5, r6, lr}
 2639              		.cfi_restore 14
 2640              		.cfi_restore 6
 2641              		.cfi_restore 5
 2642              		.cfi_restore 4
 2643              		.cfi_def_cfa_offset 0
 2644              	.LVL277:
 2645              		.loc 1 1713 0
 2646 0032 FFF7FEBF 		b	chMtxUnlock
 2647              	.LVL278:
 2648              	.L238:
 2649 0036 00BF     		.align	2
 2650              	.L237:
 2651 0038 00000000 		.word	.LANCHOR19
 2652 003c 00000000 		.word	.LANCHOR10
 2653 0040 00000000 		.word	.LANCHOR0
 2654              		.cfi_endproc
 2655              	.LFE274:
 2656              		.size	commands_send_app_data, .-commands_send_app_data
 2657              		.section	.text.commands_send_hw_data,"ax",%progbits
 2658              		.align	1
 2659              		.p2align 4,,15
 2660              		.global	commands_send_hw_data
 2661              		.syntax unified
 2662              		.thumb
 2663              		.thumb_func
 2664              		.fpu fpv4-sp-d16
 2665              		.type	commands_send_hw_data, %function
 2666              	commands_send_hw_data:
 2667              	.LFB275:
 2668              		.loc 1 1716 0
 2669              		.cfi_startproc
 2670              		@ args = 0, pretend = 0, frame = 0
 2671              		@ frame_needed = 0, uses_anonymous_args = 0
 2672              	.LVL279:
 2673 0000 70B5     		push	{r4, r5, r6, lr}
 2674              		.cfi_def_cfa_offset 16
 2675              		.cfi_offset 4, -16
 2676              		.cfi_offset 5, -12
 2677              		.cfi_offset 6, -8
 2678              		.cfi_offset 14, -4
 2679              		.loc 1 1719 0
ARM GAS  /tmp/cc8pZ867.s 			page 48


 2680 0002 0D4D     		ldr	r5, .L245
 2681              		.loc 1 1716 0
 2682 0004 0646     		mov	r6, r0
 2683              		.loc 1 1718 0
 2684 0006 0D48     		ldr	r0, .L245+4
 2685              	.LVL280:
 2686              		.loc 1 1716 0
 2687 0008 0C46     		mov	r4, r1
 2688              		.loc 1 1718 0
 2689 000a FFF7FEFF 		bl	chMtxLock
 2690              	.LVL281:
 2691              		.loc 1 1719 0
 2692 000e 2846     		mov	r0, r5
 2693 0010 7723     		movs	r3, #119
 2694 0012 00F8013B 		strb	r3, [r0], #1
 2695              		.loc 1 1720 0
 2696 0016 2246     		mov	r2, r4
 2697 0018 3146     		mov	r1, r6
 2698 001a FFF7FEFF 		bl	memcpy
 2699              	.LVL282:
 2700              	.LBB326:
 2701              	.LBB327:
 2702              		.loc 1 116 0
 2703 001e 084B     		ldr	r3, .L245+8
 2704 0020 1A68     		ldr	r2, [r3]
 2705              	.LVL283:
 2706 0022 1AB1     		cbz	r2, .L240
 2707 0024 611C     		adds	r1, r4, #1
 2708              	.LVL284:
 2709              		.loc 1 117 0
 2710 0026 1B68     		ldr	r3, [r3]
 2711 0028 2846     		mov	r0, r5
 2712 002a 9847     		blx	r3
 2713              	.LVL285:
 2714              	.L240:
 2715              	.LBE327:
 2716              	.LBE326:
 2717              		.loc 1 1723 0
 2718 002c 0348     		ldr	r0, .L245+4
 2719              		.loc 1 1724 0
 2720 002e BDE87040 		pop	{r4, r5, r6, lr}
 2721              		.cfi_restore 14
 2722              		.cfi_restore 6
 2723              		.cfi_restore 5
 2724              		.cfi_restore 4
 2725              		.cfi_def_cfa_offset 0
 2726              	.LVL286:
 2727              		.loc 1 1723 0
 2728 0032 FFF7FEBF 		b	chMtxUnlock
 2729              	.LVL287:
 2730              	.L246:
 2731 0036 00BF     		.align	2
 2732              	.L245:
 2733 0038 00000000 		.word	.LANCHOR19
 2734 003c 00000000 		.word	.LANCHOR10
 2735 0040 00000000 		.word	.LANCHOR0
 2736              		.cfi_endproc
ARM GAS  /tmp/cc8pZ867.s 			page 49


 2737              	.LFE275:
 2738              		.size	commands_send_hw_data, .-commands_send_hw_data
 2739              		.section	.text.commands_send_gpd_buffer_notify,"ax",%progbits
 2740              		.align	1
 2741              		.p2align 4,,15
 2742              		.global	commands_send_gpd_buffer_notify
 2743              		.syntax unified
 2744              		.thumb
 2745              		.thumb_func
 2746              		.fpu fpv4-sp-d16
 2747              		.type	commands_send_gpd_buffer_notify, %function
 2748              	commands_send_gpd_buffer_notify:
 2749              	.LFB276:
 2750              		.loc 1 1726 0
 2751              		.cfi_startproc
 2752              		@ args = 0, pretend = 0, frame = 8
 2753              		@ frame_needed = 0, uses_anonymous_args = 0
 2754              	.LVL288:
 2755 0000 00B5     		push	{lr}
 2756              		.cfi_def_cfa_offset 4
 2757              		.cfi_offset 14, -4
 2758              	.LBB328:
 2759              	.LBB329:
 2760              		.loc 1 116 0
 2761 0002 074B     		ldr	r3, .L253
 2762              	.LBE329:
 2763              	.LBE328:
 2764              		.loc 1 1726 0
 2765 0004 83B0     		sub	sp, sp, #12
 2766              		.cfi_def_cfa_offset 16
 2767              	.LBB332:
 2768              	.LBB330:
 2769              		.loc 1 116 0
 2770 0006 1A68     		ldr	r2, [r3]
 2771              	.LBE330:
 2772              	.LBE332:
 2773              		.loc 1 1729 0
 2774 0008 2721     		movs	r1, #39
 2775 000a 8DF80410 		strb	r1, [sp, #4]
 2776              	.LVL289:
 2777              	.LBB333:
 2778              	.LBB331:
 2779              		.loc 1 116 0
 2780 000e 1AB1     		cbz	r2, .L247
 2781              		.loc 1 117 0
 2782 0010 1B68     		ldr	r3, [r3]
 2783 0012 0121     		movs	r1, #1
 2784 0014 01A8     		add	r0, sp, #4
 2785              	.LVL290:
 2786 0016 9847     		blx	r3
 2787              	.LVL291:
 2788              	.L247:
 2789              	.LBE331:
 2790              	.LBE333:
 2791              		.loc 1 1731 0
 2792 0018 03B0     		add	sp, sp, #12
 2793              		.cfi_def_cfa_offset 4
ARM GAS  /tmp/cc8pZ867.s 			page 50


 2794              		@ sp needed
 2795 001a 5DF804FB 		ldr	pc, [sp], #4
 2796              	.L254:
 2797 001e 00BF     		.align	2
 2798              	.L253:
 2799 0020 00000000 		.word	.LANCHOR0
 2800              		.cfi_endproc
 2801              	.LFE276:
 2802              		.size	commands_send_gpd_buffer_notify, .-commands_send_gpd_buffer_notify
 2803              		.section	.text.commands_send_mcconf,"ax",%progbits
 2804              		.align	1
 2805              		.p2align 4,,15
 2806              		.global	commands_send_mcconf
 2807              		.syntax unified
 2808              		.thumb
 2809              		.thumb_func
 2810              		.fpu fpv4-sp-d16
 2811              		.type	commands_send_mcconf, %function
 2812              	commands_send_mcconf:
 2813              	.LFB277:
 2814              		.loc 1 1733 0
 2815              		.cfi_startproc
 2816              		@ args = 0, pretend = 0, frame = 0
 2817              		@ frame_needed = 0, uses_anonymous_args = 0
 2818              	.LVL292:
 2819 0000 70B5     		push	{r4, r5, r6, lr}
 2820              		.cfi_def_cfa_offset 16
 2821              		.cfi_offset 4, -16
 2822              		.cfi_offset 5, -12
 2823              		.cfi_offset 6, -8
 2824              		.cfi_offset 14, -4
 2825              		.loc 1 1735 0
 2826 0002 0C4C     		ldr	r4, .L261
 2827              		.loc 1 1733 0
 2828 0004 0546     		mov	r5, r0
 2829              		.loc 1 1734 0
 2830 0006 0C48     		ldr	r0, .L261+4
 2831              	.LVL293:
 2832              		.loc 1 1733 0
 2833 0008 0E46     		mov	r6, r1
 2834              		.loc 1 1734 0
 2835 000a FFF7FEFF 		bl	chMtxLock
 2836              	.LVL294:
 2837              		.loc 1 1735 0
 2838 000e 2046     		mov	r0, r4
 2839              		.loc 1 1736 0
 2840 0010 3146     		mov	r1, r6
 2841              		.loc 1 1735 0
 2842 0012 00F8015B 		strb	r5, [r0], #1
 2843              		.loc 1 1736 0
 2844 0016 FFF7FEFF 		bl	confgenerator_serialize_mcconf
 2845              	.LVL295:
 2846              	.LBB334:
 2847              	.LBB335:
 2848              		.loc 1 116 0
 2849 001a 084B     		ldr	r3, .L261+8
 2850 001c 1A68     		ldr	r2, [r3]
ARM GAS  /tmp/cc8pZ867.s 			page 51


 2851              	.LVL296:
 2852 001e 1AB1     		cbz	r2, .L256
 2853 0020 411C     		adds	r1, r0, #1
 2854              	.LVL297:
 2855              		.loc 1 117 0
 2856 0022 1B68     		ldr	r3, [r3]
 2857 0024 2046     		mov	r0, r4
 2858              	.LVL298:
 2859 0026 9847     		blx	r3
 2860              	.LVL299:
 2861              	.L256:
 2862              	.LBE335:
 2863              	.LBE334:
 2864              		.loc 1 1738 0
 2865 0028 0348     		ldr	r0, .L261+4
 2866              		.loc 1 1739 0
 2867 002a BDE87040 		pop	{r4, r5, r6, lr}
 2868              		.cfi_restore 14
 2869              		.cfi_restore 6
 2870              		.cfi_restore 5
 2871              		.cfi_restore 4
 2872              		.cfi_def_cfa_offset 0
 2873              	.LVL300:
 2874              		.loc 1 1738 0
 2875 002e FFF7FEBF 		b	chMtxUnlock
 2876              	.LVL301:
 2877              	.L262:
 2878 0032 00BF     		.align	2
 2879              	.L261:
 2880 0034 00000000 		.word	.LANCHOR19
 2881 0038 00000000 		.word	.LANCHOR10
 2882 003c 00000000 		.word	.LANCHOR0
 2883              		.cfi_endproc
 2884              	.LFE277:
 2885              		.size	commands_send_mcconf, .-commands_send_mcconf
 2886              		.section	.text.commands_send_appconf,"ax",%progbits
 2887              		.align	1
 2888              		.p2align 4,,15
 2889              		.global	commands_send_appconf
 2890              		.syntax unified
 2891              		.thumb
 2892              		.thumb_func
 2893              		.fpu fpv4-sp-d16
 2894              		.type	commands_send_appconf, %function
 2895              	commands_send_appconf:
 2896              	.LFB278:
 2897              		.loc 1 1741 0
 2898              		.cfi_startproc
 2899              		@ args = 0, pretend = 0, frame = 0
 2900              		@ frame_needed = 0, uses_anonymous_args = 0
 2901              	.LVL302:
 2902 0000 70B5     		push	{r4, r5, r6, lr}
 2903              		.cfi_def_cfa_offset 16
 2904              		.cfi_offset 4, -16
 2905              		.cfi_offset 5, -12
 2906              		.cfi_offset 6, -8
 2907              		.cfi_offset 14, -4
ARM GAS  /tmp/cc8pZ867.s 			page 52


 2908              		.loc 1 1743 0
 2909 0002 0C4C     		ldr	r4, .L269
 2910              		.loc 1 1741 0
 2911 0004 0546     		mov	r5, r0
 2912              		.loc 1 1742 0
 2913 0006 0C48     		ldr	r0, .L269+4
 2914              	.LVL303:
 2915              		.loc 1 1741 0
 2916 0008 0E46     		mov	r6, r1
 2917              		.loc 1 1742 0
 2918 000a FFF7FEFF 		bl	chMtxLock
 2919              	.LVL304:
 2920              		.loc 1 1743 0
 2921 000e 2046     		mov	r0, r4
 2922              		.loc 1 1744 0
 2923 0010 3146     		mov	r1, r6
 2924              		.loc 1 1743 0
 2925 0012 00F8015B 		strb	r5, [r0], #1
 2926              		.loc 1 1744 0
 2927 0016 FFF7FEFF 		bl	confgenerator_serialize_appconf
 2928              	.LVL305:
 2929              	.LBB336:
 2930              	.LBB337:
 2931              		.loc 1 116 0
 2932 001a 084B     		ldr	r3, .L269+8
 2933 001c 1A68     		ldr	r2, [r3]
 2934              	.LVL306:
 2935 001e 1AB1     		cbz	r2, .L264
 2936 0020 411C     		adds	r1, r0, #1
 2937              	.LVL307:
 2938              		.loc 1 117 0
 2939 0022 1B68     		ldr	r3, [r3]
 2940 0024 2046     		mov	r0, r4
 2941              	.LVL308:
 2942 0026 9847     		blx	r3
 2943              	.LVL309:
 2944              	.L264:
 2945              	.LBE337:
 2946              	.LBE336:
 2947              		.loc 1 1746 0
 2948 0028 0348     		ldr	r0, .L269+4
 2949              		.loc 1 1747 0
 2950 002a BDE87040 		pop	{r4, r5, r6, lr}
 2951              		.cfi_restore 14
 2952              		.cfi_restore 6
 2953              		.cfi_restore 5
 2954              		.cfi_restore 4
 2955              		.cfi_def_cfa_offset 0
 2956              	.LVL310:
 2957              		.loc 1 1746 0
 2958 002e FFF7FEBF 		b	chMtxUnlock
 2959              	.LVL311:
 2960              	.L270:
 2961 0032 00BF     		.align	2
 2962              	.L269:
 2963 0034 00000000 		.word	.LANCHOR19
 2964 0038 00000000 		.word	.LANCHOR10
ARM GAS  /tmp/cc8pZ867.s 			page 53


 2965 003c 00000000 		.word	.LANCHOR0
 2966              		.cfi_endproc
 2967              	.LFE278:
 2968              		.size	commands_send_appconf, .-commands_send_appconf
 2969              		.section	.text.commands_apply_mcconf_hw_limits,"ax",%progbits
 2970              		.align	1
 2971              		.p2align 4,,15
 2972              		.global	commands_apply_mcconf_hw_limits
 2973              		.syntax unified
 2974              		.thumb
 2975              		.thumb_func
 2976              		.fpu fpv4-sp-d16
 2977              		.type	commands_apply_mcconf_hw_limits, %function
 2978              	commands_apply_mcconf_hw_limits:
 2979              	.LFB280:
 2980              		.loc 1 1751 0
 2981              		.cfi_startproc
 2982              		@ args = 0, pretend = 0, frame = 0
 2983              		@ frame_needed = 0, uses_anonymous_args = 0
 2984              	.LVL312:
 2985 0000 10B5     		push	{r4, lr}
 2986              		.cfi_def_cfa_offset 8
 2987              		.cfi_offset 4, -8
 2988              		.cfi_offset 14, -4
 2989              		.loc 1 1752 0
 2990 0002 F7EE000A 		vmov.f32	s1, #1.0e+0
 2991              		.loc 1 1751 0
 2992 0006 0446     		mov	r4, r0
 2993              		.loc 1 1752 0
 2994 0008 9FED590A 		vldr.32	s0, .L285
 2995 000c 6030     		adds	r0, r0, #96
 2996              	.LVL313:
 2997 000e FFF7FEFF 		bl	utils_truncate_number
 2998              	.LVL314:
 2999              		.loc 1 1753 0
 3000 0012 04F16400 		add	r0, r4, #100
 3001 0016 F7EE000A 		vmov.f32	s1, #1.0e+0
 3002 001a 9FED550A 		vldr.32	s0, .L285
 3003 001e FFF7FEFF 		bl	utils_truncate_number
 3004              	.LVL315:
 3005              		.loc 1 1760 0
 3006 0022 94F84031 		ldrb	r3, [r4, #320]	@ zero_extendqisi2
 3007 0026 04F1B800 		add	r0, r4, #184
 3008 002a 002B     		cmp	r3, #0
 3009 002c 00F08E80 		beq	.L272
 3010              		.loc 1 1762 0
 3011 0030 DFED500A 		vldr.32	s1, .L285+4
 3012 0034 9FED500A 		vldr.32	s0, .L285+8
 3013 0038 FFF7FEFF 		bl	utils_truncate_number
 3014              	.LVL316:
 3015              		.loc 1 1763 0
 3016 003c D4ED2E7A 		vldr.32	s15, [r4, #184]
 3017              	.LVL317:
 3018              	.L273:
 3019              		.loc 1 1775 0
 3020 0040 9FED4E7A 		vldr.32	s14, .L285+12
 3021 0044 F4EEC77A 		vcmpe.f32	s15, s14
ARM GAS  /tmp/cc8pZ867.s 			page 54


 3022 0048 F1EE10FA 		vmrs	APSR_nzcv, FPSCR
 3023 004c 04F51270 		add	r0, r4, #584
 3024 0050 80F28980 		bge	.L284
 3025              	.LVL318:
 3026              		.loc 1 1777 0
 3027 0054 9FED4A7A 		vldr.32	s14, .L285+16
 3028 0058 F4EEC77A 		vcmpe.f32	s15, s14
 3029 005c F1EE10FA 		vmrs	APSR_nzcv, FPSCR
 3030              		.loc 1 1778 0
 3031 0060 ACBF     		ite	ge
 3032 0062 0422     		movge	r2, #4
 3033              		.loc 1 1780 0
 3034 0064 0A22     		movlt	r2, #10
 3035 0066 0021     		movs	r1, #0
 3036 0068 FFF7FEFF 		bl	utils_truncate_number_int
 3037              	.LVL319:
 3038              	.L276:
 3039              		.loc 1 1797 0
 3040 006c DFED450A 		vldr.32	s1, .L285+20
 3041 0070 9FED450A 		vldr.32	s0, .L285+24
 3042 0074 2046     		mov	r0, r4
 3043 0076 FFF7FEFF 		bl	utils_truncate_number
 3044              	.LVL320:
 3045              		.loc 1 1798 0
 3046 007a DFED420A 		vldr.32	s1, .L285+20
 3047 007e 9FED420A 		vldr.32	s0, .L285+24
 3048 0082 201D     		adds	r0, r4, #4
 3049 0084 FFF7FEFF 		bl	utils_truncate_number
 3050              	.LVL321:
 3051              		.loc 1 1801 0
 3052 0088 DFED3E0A 		vldr.32	s1, .L285+20
 3053 008c 9FED3E0A 		vldr.32	s0, .L285+24
 3054 0090 04F10800 		add	r0, r4, #8
 3055 0094 FFF7FEFF 		bl	utils_truncate_number
 3056              	.LVL322:
 3057              		.loc 1 1802 0
 3058 0098 DFED3A0A 		vldr.32	s1, .L285+20
 3059 009c 9FED3A0A 		vldr.32	s0, .L285+24
 3060 00a0 04F10C00 		add	r0, r4, #12
 3061 00a4 FFF7FEFF 		bl	utils_truncate_number
 3062              	.LVL323:
 3063              		.loc 1 1805 0
 3064 00a8 DFED380A 		vldr.32	s1, .L285+28
 3065 00ac 9FED300A 		vldr.32	s0, .L285
 3066 00b0 04F11000 		add	r0, r4, #16
 3067 00b4 FFF7FEFF 		bl	utils_truncate_number
 3068              	.LVL324:
 3069              		.loc 1 1808 0
 3070 00b8 DFED350A 		vldr.32	s1, .L285+32
 3071 00bc B2EE080A 		vmov.f32	s0, #1.2e+1
 3072 00c0 04F12C00 		add	r0, r4, #44
 3073 00c4 FFF7FEFF 		bl	utils_truncate_number
 3074              	.LVL325:
 3075              		.loc 1 1809 0
 3076 00c8 DFED310A 		vldr.32	s1, .L285+32
 3077 00cc B2EE080A 		vmov.f32	s0, #1.2e+1
 3078 00d0 04F12800 		add	r0, r4, #40
ARM GAS  /tmp/cc8pZ867.s 			page 55


 3079 00d4 FFF7FEFF 		bl	utils_truncate_number
 3080              	.LVL326:
 3081              		.loc 1 1812 0
 3082 00d8 DFED2E0A 		vldr.32	s1, .L285+36
 3083 00dc 9FED2E0A 		vldr.32	s0, .L285+40
 3084 00e0 04F11800 		add	r0, r4, #24
 3085 00e4 FFF7FEFF 		bl	utils_truncate_number
 3086              	.LVL327:
 3087              		.loc 1 1813 0
 3088 00e8 DFED2A0A 		vldr.32	s1, .L285+36
 3089 00ec 9FED2A0A 		vldr.32	s0, .L285+40
 3090 00f0 04F11400 		add	r0, r4, #20
 3091 00f4 FFF7FEFF 		bl	utils_truncate_number
 3092              	.LVL328:
 3093              		.loc 1 1816 0
 3094 00f8 DFED280A 		vldr.32	s1, .L285+44
 3095 00fc 9FED1C0A 		vldr.32	s0, .L285
 3096 0100 04F15000 		add	r0, r4, #80
 3097 0104 FFF7FEFF 		bl	utils_truncate_number
 3098              	.LVL329:
 3099              		.loc 1 1819 0
 3100 0108 DFED250A 		vldr.32	s1, .L285+48
 3101 010c 9FED180A 		vldr.32	s0, .L285
 3102 0110 04F15400 		add	r0, r4, #84
 3103 0114 FFF7FEFF 		bl	utils_truncate_number
 3104              	.LVL330:
 3105              		.loc 1 1822 0
 3106 0118 DFED220A 		vldr.32	s1, .L285+52
 3107 011c 9FED220A 		vldr.32	s0, .L285+56
 3108 0120 04F13C00 		add	r0, r4, #60
 3109 0124 FFF7FEFF 		bl	utils_truncate_number
 3110              	.LVL331:
 3111              		.loc 1 1823 0
 3112 0128 DFED1E0A 		vldr.32	s1, .L285+52
 3113 012c 9FED1E0A 		vldr.32	s0, .L285+56
 3114 0130 04F14000 		add	r0, r4, #64
 3115 0134 FFF7FEFF 		bl	utils_truncate_number
 3116              	.LVL332:
 3117              		.loc 1 1826 0
 3118 0138 04F5A870 		add	r0, r4, #336
 3119 013c F7EE000A 		vmov.f32	s1, #1.0e+0
 3120 0140 9FED1A0A 		vldr.32	s0, .L285+60
 3121              		.loc 1 1829 0
 3122 0144 BDE81040 		pop	{r4, lr}
 3123              		.cfi_remember_state
 3124              		.cfi_restore 14
 3125              		.cfi_restore 4
 3126              		.cfi_def_cfa_offset 0
 3127              	.LVL333:
 3128              		.loc 1 1826 0
 3129 0148 FFF7FEBF 		b	utils_truncate_number
 3130              	.LVL334:
 3131              	.L272:
 3132              		.cfi_restore_state
 3133              		.loc 1 1769 0
 3134 014c DFED180A 		vldr.32	s1, .L285+64
 3135 0150 9FED090A 		vldr.32	s0, .L285+8
ARM GAS  /tmp/cc8pZ867.s 			page 56


 3136 0154 FFF7FEFF 		bl	utils_truncate_number
 3137              	.LVL335:
 3138              		.loc 1 1770 0
 3139 0158 D4ED2E7A 		vldr.32	s15, [r4, #184]
 3140 015c B6EE007A 		vmov.f32	s14, #5.0e-1
 3141 0160 67EE877A 		vmul.f32	s15, s15, s14
 3142              	.LVL336:
 3143 0164 6CE7     		b	.L273
 3144              	.LVL337:
 3145              	.L284:
 3146              		.loc 1 1776 0
 3147 0166 0222     		movs	r2, #2
 3148 0168 0021     		movs	r1, #0
 3149 016a FFF7FEFF 		bl	utils_truncate_number_int
 3150              	.LVL338:
 3151 016e 7DE7     		b	.L276
 3152              	.L286:
 3153              		.align	2
 3154              	.L285:
 3155 0170 00000000 		.word	0
 3156 0174 0060EA46 		.word	1189765120
 3157 0178 00803B45 		.word	1161527296
 3158 017c 00F0D246 		.word	1188229120
 3159 0180 0010A446 		.word	1185157120
 3160 0184 00009643 		.word	1133903872
 3161 0188 000096C3 		.word	3281387520
 3162 018c 0000E143 		.word	1138819072
 3163 0190 0000B442 		.word	1119092736
 3164 0194 00504348 		.word	1212370944
 3165 0198 005043C8 		.word	3359854592
 3166 019c CDCCCC3D 		.word	1036831949
 3167 01a0 A4707D3F 		.word	1065185444
 3168 01a4 0000DC42 		.word	1121714176
 3169 01a8 000020C2 		.word	3256877056
 3170 01ac CDCC4C3D 		.word	1028443341
 3171 01b0 00606A47 		.word	1198153728
 3172              		.cfi_endproc
 3173              	.LFE280:
 3174              		.size	commands_apply_mcconf_hw_limits, .-commands_apply_mcconf_hw_limits
 3175              		.section	.text.commands_process_packet,"ax",%progbits
 3176              		.align	1
 3177              		.p2align 4,,15
 3178              		.global	commands_process_packet
 3179              		.syntax unified
 3180              		.thumb
 3181              		.thumb_func
 3182              		.fpu fpv4-sp-d16
 3183              		.type	commands_process_packet, %function
 3184              	commands_process_packet:
 3185              	.LFB265:
 3186              		.loc 1 181 0
 3187              		.cfi_startproc
 3188              		@ args = 0, pretend = 0, frame = 160
 3189              		@ frame_needed = 0, uses_anonymous_args = 0
 3190              	.LVL339:
 3191              		.loc 1 183 0
 3192 0000 0029     		cmp	r1, #0
ARM GAS  /tmp/cc8pZ867.s 			page 57


 3193 0002 00F02481 		beq	.L820
 3194              		.loc 1 181 0
 3195 0006 2DE9F04F 		push	{r4, r5, r6, r7, r8, r9, r10, fp, lr}
 3196              		.cfi_def_cfa_offset 36
 3197              		.cfi_offset 4, -36
 3198              		.cfi_offset 5, -32
 3199              		.cfi_offset 6, -28
 3200              		.cfi_offset 7, -24
 3201              		.cfi_offset 8, -20
 3202              		.cfi_offset 9, -16
 3203              		.cfi_offset 10, -12
 3204              		.cfi_offset 11, -8
 3205              		.cfi_offset 14, -4
 3206 000a 2DED068B 		vpush.64	{d8, d9, d10}
 3207              		.cfi_def_cfa_offset 60
 3208              		.cfi_offset 80, -60
 3209              		.cfi_offset 81, -56
 3210              		.cfi_offset 82, -52
 3211              		.cfi_offset 83, -48
 3212              		.cfi_offset 84, -44
 3213              		.cfi_offset 85, -40
 3214              		.loc 1 189 0
 3215 000e 0546     		mov	r5, r0
 3216              		.loc 1 181 0
 3217 0010 ABB0     		sub	sp, sp, #172
 3218              		.cfi_def_cfa_offset 232
 3219              		.loc 1 189 0
 3220 0012 15F8019B 		ldrb	r9, [r5], #1	@ zero_extendqisi2
 3221              	.LVL340:
 3222              		.loc 1 195 0
 3223 0016 B9F1340F 		cmp	r9, #52
 3224 001a 0746     		mov	r7, r0
 3225 001c 1646     		mov	r6, r2
 3226 001e 8846     		mov	r8, r1
 3227              		.loc 1 191 0
 3228 0020 01F1FF3A 		add	r10, r1, #-1
 3229              	.LVL341:
 3230              		.loc 1 195 0
 3231 0024 00F09C80 		beq	.L290
 3232              		.loc 1 195 0 is_stmt 0 discriminator 1
 3233 0028 B9F1370F 		cmp	r9, #55
 3234 002c 00F09880 		beq	.L290
 3235              		.loc 1 199 0 is_stmt 1
 3236 0030 924B     		ldr	r3, .L922
 3237 0032 1A60     		str	r2, [r3]
 3238              	.L292:
 3239              		.loc 1 208 0
 3240 0034 924C     		ldr	r4, .L922+4
 3241              		.loc 1 205 0
 3242 0036 934A     		ldr	r2, .L922+8
 3243              	.LVL342:
 3244              		.loc 1 208 0
 3245 0038 2368     		ldr	r3, [r4]
 3246              		.loc 1 205 0
 3247 003a 002E     		cmp	r6, #0
 3248 003c 08BF     		it	eq
 3249 003e 1646     		moveq	r6, r2
ARM GAS  /tmp/cc8pZ867.s 			page 58


 3250              	.LVL343:
 3251              		.loc 1 208 0
 3252 0040 002B     		cmp	r3, #0
 3253 0042 00F00581 		beq	.L830
 3254              	.L294:
 3255              		.loc 1 212 0
 3256 0046 B9F1860F 		cmp	r9, #134
 3257 004a 00F2FB80 		bhi	.L287
 3258 004e DFE819F0 		tbh	[pc, r9, lsl #1]
 3259              	.L296:
 3260 0052 F107     		.2byte	(.L295-.L296)/2
 3261 0054 5701     		.2byte	(.L297-.L296)/2
 3262 0056 6A01     		.2byte	(.L298-.L296)/2
 3263 0058 3408     		.2byte	(.L616-.L296)/2
 3264 005a 2509     		.2byte	(.L300-.L296)/2
 3265 005c 8109     		.2byte	(.L301-.L296)/2
 3266 005e DC07     		.2byte	(.L302-.L296)/2
 3267 0060 2F0A     		.2byte	(.L303-.L296)/2
 3268 0062 050A     		.2byte	(.L304-.L296)/2
 3269 0064 440A     		.2byte	(.L305-.L296)/2
 3270 0066 A206     		.2byte	(.L306-.L296)/2
 3271 0068 0101     		.2byte	(.L307-.L296)/2
 3272 006a B106     		.2byte	(.L308-.L296)/2
 3273 006c B109     		.2byte	(.L309-.L296)/2
 3274 006e FF02     		.2byte	(.L310-.L296)/2
 3275 0070 FF02     		.2byte	(.L310-.L296)/2
 3276 0072 3603     		.2byte	(.L311-.L296)/2
 3277 0074 6C03     		.2byte	(.L312-.L296)/2
 3278 0076 6C03     		.2byte	(.L312-.L296)/2
 3279 0078 7A03     		.2byte	(.L313-.L296)/2
 3280 007a 020B     		.2byte	(.L314-.L296)/2
 3281 007c F900     		.2byte	(.L287-.L296)/2
 3282 007e F900     		.2byte	(.L287-.L296)/2
 3283 0080 F900     		.2byte	(.L287-.L296)/2
 3284 0082 020B     		.2byte	(.L314-.L296)/2
 3285 0084 020B     		.2byte	(.L314-.L296)/2
 3286 0086 020B     		.2byte	(.L314-.L296)/2
 3287 0088 020B     		.2byte	(.L314-.L296)/2
 3288 008a 020B     		.2byte	(.L314-.L296)/2
 3289 008c 1F0B     		.2byte	(.L315-.L296)/2
 3290 008e 1101     		.2byte	(.L826-.L296)/2
 3291 0090 BB0A     		.2byte	(.L317-.L296)/2
 3292 0092 D30A     		.2byte	(.L318-.L296)/2
 3293 0094 590A     		.2byte	(.L319-.L296)/2
 3294 0096 710A     		.2byte	(.L320-.L296)/2
 3295 0098 7B0A     		.2byte	(.L321-.L296)/2
 3296 009a B40A     		.2byte	(.L322-.L296)/2
 3297 009c 2605     		.2byte	(.L323-.L296)/2
 3298 009e 3B05     		.2byte	(.L324-.L296)/2
 3299 00a0 F900     		.2byte	(.L287-.L296)/2
 3300 00a2 4C05     		.2byte	(.L325-.L296)/2
 3301 00a4 5605     		.2byte	(.L326-.L296)/2
 3302 00a6 6A05     		.2byte	(.L327-.L296)/2
 3303 00a8 7705     		.2byte	(.L328-.L296)/2
 3304 00aa 7E05     		.2byte	(.L329-.L296)/2
 3305 00ac 8E05     		.2byte	(.L330-.L296)/2
 3306 00ae A205     		.2byte	(.L331-.L296)/2
ARM GAS  /tmp/cc8pZ867.s 			page 59


 3307 00b0 8A00     		.2byte	(.L332-.L296)/2
 3308 00b2 B905     		.2byte	(.L333-.L296)/2
 3309 00b4 B905     		.2byte	(.L333-.L296)/2
 3310 00b6 2509     		.2byte	(.L300-.L296)/2
 3311 00b8 8A00     		.2byte	(.L332-.L296)/2
 3312 00ba 1C07     		.2byte	(.L334-.L296)/2
 3313 00bc F900     		.2byte	(.L287-.L296)/2
 3314 00be F900     		.2byte	(.L287-.L296)/2
 3315 00c0 BE06     		.2byte	(.L335-.L296)/2
 3316 00c2 F900     		.2byte	(.L287-.L296)/2
 3317 00c4 020B     		.2byte	(.L314-.L296)/2
 3318 00c6 020B     		.2byte	(.L314-.L296)/2
 3319 00c8 4B01     		.2byte	(.L336-.L296)/2
 3320 00ca 5A01     		.2byte	(.L337-.L296)/2
 3321 00cc D806     		.2byte	(.L338-.L296)/2
 3322 00ce 020B     		.2byte	(.L314-.L296)/2
 3323 00d0 6B02     		.2byte	(.L339-.L296)/2
 3324 00d2 8002     		.2byte	(.L340-.L296)/2
 3325 00d4 8801     		.2byte	(.L341-.L296)/2
 3326 00d6 020B     		.2byte	(.L314-.L296)/2
 3327 00d8 020B     		.2byte	(.L314-.L296)/2
 3328 00da 020B     		.2byte	(.L314-.L296)/2
 3329 00dc 020B     		.2byte	(.L314-.L296)/2
 3330 00de 020B     		.2byte	(.L314-.L296)/2
 3331 00e0 020B     		.2byte	(.L314-.L296)/2
 3332 00e2 020B     		.2byte	(.L314-.L296)/2
 3333 00e4 3401     		.2byte	(.L342-.L296)/2
 3334 00e6 2301     		.2byte	(.L343-.L296)/2
 3335 00e8 F900     		.2byte	(.L287-.L296)/2
 3336 00ea F900     		.2byte	(.L287-.L296)/2
 3337 00ec F900     		.2byte	(.L287-.L296)/2
 3338 00ee F900     		.2byte	(.L287-.L296)/2
 3339 00f0 9A03     		.2byte	(.L344-.L296)/2
 3340 00f2 020B     		.2byte	(.L314-.L296)/2
 3341 00f4 3408     		.2byte	(.L616-.L296)/2
 3342 00f6 D806     		.2byte	(.L338-.L296)/2
 3343 00f8 020B     		.2byte	(.L314-.L296)/2
 3344 00fa 8D02     		.2byte	(.L345-.L296)/2
 3345 00fc 9B02     		.2byte	(.L346-.L296)/2
 3346 00fe B302     		.2byte	(.L347-.L296)/2
 3347 0100 6203     		.2byte	(.L348-.L296)/2
 3348 0102 6203     		.2byte	(.L348-.L296)/2
 3349 0104 DF01     		.2byte	(.L349-.L296)/2
 3350 0106 020B     		.2byte	(.L314-.L296)/2
 3351 0108 0302     		.2byte	(.L350-.L296)/2
 3352 010a F900     		.2byte	(.L287-.L296)/2
 3353 010c F900     		.2byte	(.L287-.L296)/2
 3354 010e F900     		.2byte	(.L287-.L296)/2
 3355 0110 F900     		.2byte	(.L287-.L296)/2
 3356 0112 9403     		.2byte	(.L351-.L296)/2
 3357 0114 9403     		.2byte	(.L351-.L296)/2
 3358 0116 9403     		.2byte	(.L351-.L296)/2
 3359 0118 9403     		.2byte	(.L351-.L296)/2
 3360 011a 9403     		.2byte	(.L351-.L296)/2
 3361 011c 9403     		.2byte	(.L351-.L296)/2
 3362 011e F900     		.2byte	(.L287-.L296)/2
 3363 0120 F900     		.2byte	(.L287-.L296)/2
ARM GAS  /tmp/cc8pZ867.s 			page 60


 3364 0122 F900     		.2byte	(.L287-.L296)/2
 3365 0124 F900     		.2byte	(.L287-.L296)/2
 3366 0126 F900     		.2byte	(.L287-.L296)/2
 3367 0128 F900     		.2byte	(.L287-.L296)/2
 3368 012a F900     		.2byte	(.L287-.L296)/2
 3369 012c F900     		.2byte	(.L287-.L296)/2
 3370 012e 1A04     		.2byte	(.L352-.L296)/2
 3371 0130 2F04     		.2byte	(.L353-.L296)/2
 3372 0132 9904     		.2byte	(.L354-.L296)/2
 3373 0134 F900     		.2byte	(.L287-.L296)/2
 3374 0136 F900     		.2byte	(.L287-.L296)/2
 3375 0138 B004     		.2byte	(.L355-.L296)/2
 3376 013a F900     		.2byte	(.L287-.L296)/2
 3377 013c F900     		.2byte	(.L287-.L296)/2
 3378 013e D104     		.2byte	(.L356-.L296)/2
 3379 0140 1B05     		.2byte	(.L357-.L296)/2
 3380 0142 160A     		.2byte	(.L358-.L296)/2
 3381 0144 3808     		.2byte	(.L359-.L296)/2
 3382 0146 6608     		.2byte	(.L360-.L296)/2
 3383 0148 4E07     		.2byte	(.L361-.L296)/2
 3384 014a 6607     		.2byte	(.L362-.L296)/2
 3385 014c 020B     		.2byte	(.L314-.L296)/2
 3386 014e F900     		.2byte	(.L287-.L296)/2
 3387 0150 F900     		.2byte	(.L287-.L296)/2
 3388 0152 8F07     		.2byte	(.L363-.L296)/2
 3389 0154 CA07     		.2byte	(.L364-.L296)/2
 3390 0156 D104     		.2byte	(.L356-.L296)/2
 3391 0158 3808     		.2byte	(.L359-.L296)/2
 3392 015a 160A     		.2byte	(.L358-.L296)/2
 3393 015c 270B     		.2byte	(.L365-.L296)/2
 3394 015e 270B     		.2byte	(.L365-.L296)/2
 3395              	.LVL344:
 3396              		.p2align 1
 3397              	.L290:
 3398              		.loc 1 197 0
 3399 0160 494B     		ldr	r3, .L922+12
 3400 0162 1E60     		str	r6, [r3]
 3401 0164 66E7     		b	.L292
 3402              	.LVL345:
 3403              	.L332:
 3404              	.LBB338:
 3405              		.loc 1 821 0
 3406 0166 18A8     		add	r0, sp, #96
 3407 0168 FFF7FEFF 		bl	mc_interface_get_setup_values
 3408              	.LVL346:
 3409              		.loc 1 823 0
 3410 016c 2AA8     		add	r0, sp, #168
 3411 016e 0023     		movs	r3, #0
 3412 0170 40F8703D 		str	r3, [r0, #-112]!	@ float
 3413              		.loc 1 824 0
 3414 0174 FFF7FEFF 		bl	mc_interface_get_battery_level
 3415              	.LVL347:
 3416              		.loc 1 826 0
 3417 0178 0024     		movs	r4, #0
 3418              		.loc 1 827 0
 3419 017a 4448     		ldr	r0, .L922+16
 3420              		.loc 1 826 0
ARM GAS  /tmp/cc8pZ867.s 			page 61


 3421 017c 1194     		str	r4, [sp, #68]
 3422              		.loc 1 824 0
 3423 017e B0EE408A 		vmov.f32	s16, s0
 3424              	.LVL348:
 3425              		.loc 1 827 0
 3426 0182 FFF7FEFF 		bl	chMtxLock
 3427              	.LVL349:
 3428              		.loc 1 829 0
 3429 0186 119B     		ldr	r3, [sp, #68]
 3430 0188 414F     		ldr	r7, .L922+20
 3431 018a 5A1C     		adds	r2, r3, #1
 3432              		.loc 1 832 0
 3433 018c B9F1330F 		cmp	r9, #51
 3434              		.loc 1 829 0
 3435 0190 1192     		str	r2, [sp, #68]
 3436 0192 07F80390 		strb	r9, [r7, r3]
 3437              	.LVL350:
 3438              		.loc 1 832 0
 3439 0196 01F08A82 		beq	.L831
 3440              		.loc 1 831 0
 3441 019a 4FF0FF34 		mov	r4, #-1
 3442 019e 11AD     		add	r5, sp, #68
 3443              	.LVL351:
 3444              	.L418:
 3445              		.loc 1 839 0
 3446 01a0 FFF7FEFF 		bl	mc_interface_temp_fet_filtered
 3447              	.LVL352:
 3448 01a4 2946     		mov	r1, r5
 3449 01a6 F2EE040A 		vmov.f32	s1, #1.0e+1
 3450 01aa 3948     		ldr	r0, .L922+20
 3451 01ac FFF7FEFF 		bl	buffer_append_float16
 3452              	.LVL353:
 3453              	.L419:
 3454              		.loc 1 841 0
 3455 01b0 A307     		lsls	r3, r4, #30
 3456 01b2 01F1E783 		bmi	.L832
 3457              	.L420:
 3458              		.loc 1 844 0
 3459 01b6 6007     		lsls	r0, r4, #29
 3460 01b8 01F1DA83 		bmi	.L833
 3461              	.L421:
 3462              		.loc 1 847 0
 3463 01bc 2107     		lsls	r1, r4, #28
 3464 01be 01F1B083 		bmi	.L834
 3465              	.L422:
 3466              		.loc 1 850 0
 3467 01c2 E206     		lsls	r2, r4, #27
 3468 01c4 01F1A383 		bmi	.L835
 3469              	.L423:
 3470              		.loc 1 853 0
 3471 01c8 A306     		lsls	r3, r4, #26
 3472 01ca 01F19683 		bmi	.L836
 3473              	.L424:
 3474              		.loc 1 856 0
 3475 01ce 6006     		lsls	r0, r4, #25
 3476 01d0 01F18983 		bmi	.L837
 3477              	.L425:
ARM GAS  /tmp/cc8pZ867.s 			page 62


 3478              		.loc 1 859 0
 3479 01d4 2106     		lsls	r1, r4, #24
 3480 01d6 01F17C83 		bmi	.L838
 3481              	.L426:
 3482              		.loc 1 862 0
 3483 01da E205     		lsls	r2, r4, #23
 3484 01dc 01F16F83 		bmi	.L839
 3485              	.L427:
 3486              		.loc 1 865 0
 3487 01e0 A305     		lsls	r3, r4, #22
 3488 01e2 01F16283 		bmi	.L840
 3489              	.L428:
 3490              		.loc 1 868 0
 3491 01e6 6005     		lsls	r0, r4, #21
 3492 01e8 01F15583 		bmi	.L841
 3493              	.L429:
 3494              		.loc 1 871 0
 3495 01ec 2105     		lsls	r1, r4, #20
 3496 01ee 01F14883 		bmi	.L842
 3497              	.L430:
 3498              		.loc 1 874 0
 3499 01f2 E204     		lsls	r2, r4, #19
 3500 01f4 01F13B83 		bmi	.L843
 3501              	.L431:
 3502              		.loc 1 877 0
 3503 01f8 A304     		lsls	r3, r4, #18
 3504 01fa 01F12E83 		bmi	.L844
 3505              	.L432:
 3506              		.loc 1 880 0
 3507 01fe 6004     		lsls	r0, r4, #17
 3508 0200 01F12183 		bmi	.L845
 3509              	.L433:
 3510              		.loc 1 883 0
 3511 0204 2104     		lsls	r1, r4, #16
 3512 0206 01F11483 		bmi	.L846
 3513              	.L434:
 3514              		.loc 1 886 0
 3515 020a E203     		lsls	r2, r4, #15
 3516 020c 01F10683 		bmi	.L847
 3517              	.L435:
 3518              		.loc 1 889 0
 3519 0210 A303     		lsls	r3, r4, #14
 3520 0212 01F1C183 		bmi	.L848
 3521              	.L436:
 3522              		.loc 1 898 0
 3523 0216 6003     		lsls	r0, r4, #13
 3524 0218 05D5     		bpl	.L437
 3525              		.loc 1 899 0
 3526 021a 119B     		ldr	r3, [sp, #68]
 3527 021c 9DF87820 		ldrb	r2, [sp, #120]	@ zero_extendqisi2
 3528 0220 FA54     		strb	r2, [r7, r3]
 3529 0222 0133     		adds	r3, r3, #1
 3530 0224 1193     		str	r3, [sp, #68]
 3531              	.L437:
 3532              		.loc 1 901 0
 3533 0226 2103     		lsls	r1, r4, #12
 3534 0228 01F17F84 		bmi	.L849
ARM GAS  /tmp/cc8pZ867.s 			page 63


 3535              	.L438:
 3536              		.loc 1 904 0
 3537 022c E202     		lsls	r2, r4, #11
 3538 022e 01F17384 		bmi	.L850
 3539              	.L439:
 3540              		.loc 1 907 0
 3541 0232 A302     		lsls	r3, r4, #10
 3542 0234 01F16584 		bmi	.L851
 3543              	.L440:
 3544              		.loc 1 911 0
 3545 0238 1199     		ldr	r1, [sp, #68]
 3546              	.LVL354:
 3547              	.L823:
 3548 023a 1548     		ldr	r0, .L922+20
 3549 023c B047     		blx	r6
 3550              	.LVL355:
 3551              		.loc 1 912 0
 3552 023e 1348     		ldr	r0, .L922+16
 3553 0240 FFF7FEFF 		bl	chMtxUnlock
 3554              	.LVL356:
 3555              	.L287:
 3556              	.LBE338:
 3557              		.loc 1 1614 0
 3558 0244 2BB0     		add	sp, sp, #172
 3559              		.cfi_def_cfa_offset 60
 3560              		@ sp needed
 3561 0246 BDEC068B 		vldm	sp!, {d8-d10}
 3562              		.cfi_restore 84
 3563              		.cfi_restore 85
 3564              		.cfi_restore 82
 3565              		.cfi_restore 83
 3566              		.cfi_restore 80
 3567              		.cfi_restore 81
 3568              		.cfi_def_cfa_offset 36
 3569 024a BDE8F08F 		pop	{r4, r5, r6, r7, r8, r9, r10, fp, pc}
 3570              	.LVL357:
 3571              	.L820:
 3572              		.cfi_def_cfa_offset 0
 3573              		.cfi_restore 4
 3574              		.cfi_restore 5
 3575              		.cfi_restore 6
 3576              		.cfi_restore 7
 3577              		.cfi_restore 8
 3578              		.cfi_restore 9
 3579              		.cfi_restore 10
 3580              		.cfi_restore 11
 3581              		.cfi_restore 14
 3582 024e 7047     		bx	lr
 3583              	.LVL358:
 3584              	.L830:
 3585              		.cfi_def_cfa_offset 232
 3586              		.cfi_offset 4, -36
 3587              		.cfi_offset 5, -32
 3588              		.cfi_offset 6, -28
 3589              		.cfi_offset 7, -24
 3590              		.cfi_offset 8, -20
 3591              		.cfi_offset 9, -16
ARM GAS  /tmp/cc8pZ867.s 			page 64


 3592              		.cfi_offset 10, -12
 3593              		.cfi_offset 11, -8
 3594              		.cfi_offset 14, -4
 3595              		.cfi_offset 80, -60
 3596              		.cfi_offset 81, -56
 3597              		.cfi_offset 82, -52
 3598              		.cfi_offset 83, -48
 3599              		.cfi_offset 84, -44
 3600              		.cfi_offset 85, -40
 3601              		.loc 1 209 0
 3602 0250 2660     		str	r6, [r4]
 3603 0252 F8E6     		b	.L294
 3604              	.L307:
 3605              	.LVL359:
 3606              	.LBB345:
 3607              		.loc 1 495 0
 3608 0254 0F4C     		ldr	r4, .L922+24
 3609 0256 7B78     		ldrb	r3, [r7, #1]	@ zero_extendqisi2
 3610 0258 2370     		strb	r3, [r4]
 3611              		.loc 1 497 0
 3612 025a FFF7FEFF 		bl	mc_interface_get_configuration
 3613              	.LVL360:
 3614 025e 90F88630 		ldrb	r3, [r0, #134]	@ zero_extendqisi2
 3615 0262 3BB9     		cbnz	r3, .L826
 3616              		.loc 1 498 0
 3617 0264 2378     		ldrb	r3, [r4]	@ zero_extendqisi2
 3618 0266 002B     		cmp	r3, #0
 3619 0268 01F0DD83 		beq	.L852
 3620              		.loc 1 500 0
 3621 026c 012B     		cmp	r3, #1
 3622 026e 01D1     		bne	.L826
 3623              		.loc 1 501 0
 3624 0270 FFF7FEFF 		bl	mcpwm_set_detect
 3625              	.LVL361:
 3626              	.L826:
 3627              	.LBE345:
 3628              	.LBB346:
 3629              		.loc 1 918 0
 3630 0274 FFF7FEFF 		bl	timeout_reset
 3631              	.LVL362:
 3632              	.LBE346:
 3633              		.loc 1 919 0
 3634 0278 E4E7     		b	.L287
 3635              	.L923:
 3636 027a 00BF     		.align	2
 3637              	.L922:
 3638 027c 00000000 		.word	.LANCHOR0
 3639 0280 00000000 		.word	.LANCHOR13
 3640 0284 00000000 		.word	commands_send_packet
 3641 0288 00000000 		.word	.LANCHOR14
 3642 028c 00000000 		.word	.LANCHOR10
 3643 0290 00000000 		.word	.LANCHOR19
 3644 0294 00000000 		.word	.LANCHOR16
 3645              	.L343:
 3646              		.loc 1 1187 0
 3647 0298 FFF7FEFF 		bl	nrf_driver_ext_nrf_running
 3648              	.LVL363:
ARM GAS  /tmp/cc8pZ867.s 			page 65


 3649 029c 0028     		cmp	r0, #0
 3650 029e 41F08983 		bne	.L853
 3651              	.L473:
 3652              		.loc 1 1191 0
 3653 02a2 4923     		movs	r3, #73
 3654 02a4 3B70     		strb	r3, [r7]
 3655              		.loc 1 1192 0
 3656 02a6 FF20     		movs	r0, #255
 3657 02a8 4246     		mov	r2, r8
 3658 02aa 3946     		mov	r1, r7
 3659 02ac 0223     		movs	r3, #2
 3660 02ae FFF7FEFF 		bl	comm_can_send_buffer
 3661              	.LVL364:
 3662              		.loc 1 1193 0
 3663 02b2 43F69820 		movw	r0, #15000
 3664 02b6 FFF7FEFF 		bl	chThdSleep
 3665              	.LVL365:
 3666              	.L342:
 3667              	.LBB347:
 3668              		.loc 1 1199 0
 3669 02ba FFF7FEFF 		bl	nrf_driver_ext_nrf_running
 3670              	.LVL366:
 3671 02be 18B1     		cbz	r0, .L474
 3672              		.loc 1 1200 0
 3673 02c0 41F27070 		movw	r0, #6000
 3674 02c4 FFF7FEFF 		bl	nrf_driver_pause
 3675              	.LVL367:
 3676              	.L474:
 3677              		.loc 1 1202 0
 3678 02c8 FFF7FEFF 		bl	flash_helper_erase_bootloader
 3679              	.LVL368:
 3680              		.loc 1 1207 0
 3681 02cc A0F10902 		sub	r2, r0, #9
 3682 02d0 B2FA82F2 		clz	r2, r2
 3683              		.loc 1 1206 0
 3684 02d4 4923     		movs	r3, #73
 3685              		.loc 1 1207 0
 3686 02d6 5209     		lsrs	r2, r2, #5
 3687              		.loc 1 1208 0
 3688 02d8 0221     		movs	r1, #2
 3689 02da 18A8     		add	r0, sp, #96
 3690              	.LVL369:
 3691              		.loc 1 1207 0
 3692 02dc 8DF86120 		strb	r2, [sp, #97]
 3693              		.loc 1 1206 0
 3694 02e0 8DF86030 		strb	r3, [sp, #96]
 3695              	.LVL370:
 3696              		.loc 1 1208 0
 3697 02e4 B047     		blx	r6
 3698              	.LVL371:
 3699              	.LBE347:
 3700              		.loc 1 1209 0
 3701 02e6 ADE7     		b	.L287
 3702              	.LVL372:
 3703              	.L336:
 3704              		.loc 1 276 0
 3705 02e8 0123     		movs	r3, #1
ARM GAS  /tmp/cc8pZ867.s 			page 66


 3706 02ea 3B70     		strb	r3, [r7]
 3707              		.loc 1 277 0
 3708 02ec FF20     		movs	r0, #255
 3709 02ee 4246     		mov	r2, r8
 3710 02f0 3946     		mov	r1, r7
 3711 02f2 0223     		movs	r3, #2
 3712 02f4 FFF7FEFF 		bl	comm_can_send_buffer
 3713              	.LVL373:
 3714              		.loc 1 278 0
 3715 02f8 4FF47A70 		mov	r0, #1000
 3716 02fc FFF7FEFF 		bl	chThdSleep
 3717              	.LVL374:
 3718              	.L297:
 3719              		.loc 1 282 0
 3720 0300 FFF7FEFF 		bl	flash_helper_jump_to_bootloader
 3721              	.LVL375:
 3722              		.loc 1 283 0
 3723 0304 9EE7     		b	.L287
 3724              	.L337:
 3725              		.loc 1 286 0
 3726 0306 FFF7FEFF 		bl	nrf_driver_ext_nrf_running
 3727              	.LVL376:
 3728 030a 0028     		cmp	r0, #0
 3729 030c 41F08082 		bne	.L854
 3730              	.L369:
 3731              		.loc 1 290 0
 3732 0310 0223     		movs	r3, #2
 3733              		.loc 1 291 0
 3734 0312 FF20     		movs	r0, #255
 3735 0314 4246     		mov	r2, r8
 3736              		.loc 1 290 0
 3737 0316 3B70     		strb	r3, [r7]
 3738              		.loc 1 291 0
 3739 0318 3946     		mov	r1, r7
 3740 031a FFF7FEFF 		bl	comm_can_send_buffer
 3741              	.LVL377:
 3742              		.loc 1 292 0
 3743 031e 43F69820 		movw	r0, #15000
 3744 0322 FFF7FEFF 		bl	chThdSleep
 3745              	.LVL378:
 3746              	.L298:
 3747              	.LBB348:
 3748              		.loc 1 296 0
 3749 0326 0023     		movs	r3, #0
 3750 0328 1493     		str	r3, [sp, #80]
 3751              		.loc 1 298 0
 3752 032a FFF7FEFF 		bl	nrf_driver_ext_nrf_running
 3753              	.LVL379:
 3754 032e 18B1     		cbz	r0, .L370
 3755              		.loc 1 299 0
 3756 0330 41F27070 		movw	r0, #6000
 3757 0334 FFF7FEFF 		bl	nrf_driver_pause
 3758              	.LVL380:
 3759              	.L370:
 3760              		.loc 1 301 0
 3761 0338 14A9     		add	r1, sp, #80
 3762 033a 2846     		mov	r0, r5
ARM GAS  /tmp/cc8pZ867.s 			page 67


 3763 033c FFF7FEFF 		bl	buffer_get_uint32
 3764              	.LVL381:
 3765 0340 FFF7FEFF 		bl	flash_helper_erase_new_app
 3766              	.LVL382:
 3767              		.loc 1 306 0
 3768 0344 A0F10902 		sub	r2, r0, #9
 3769              		.loc 1 305 0
 3770 0348 0223     		movs	r3, #2
 3771              		.loc 1 306 0
 3772 034a B2FA82F2 		clz	r2, r2
 3773 034e 5209     		lsrs	r2, r2, #5
 3774              		.loc 1 307 0
 3775 0350 1946     		mov	r1, r3
 3776 0352 18A8     		add	r0, sp, #96
 3777              	.LVL383:
 3778              		.loc 1 306 0
 3779 0354 1493     		str	r3, [sp, #80]
 3780 0356 8DF86120 		strb	r2, [sp, #97]
 3781              		.loc 1 305 0
 3782 035a 8DF86030 		strb	r3, [sp, #96]
 3783              		.loc 1 307 0
 3784 035e B047     		blx	r6
 3785              	.LVL384:
 3786              	.LBE348:
 3787              		.loc 1 308 0
 3788 0360 70E7     		b	.L287
 3789              	.L341:
 3790              	.LBB349:
 3791              		.loc 1 1108 0
 3792 0362 2AA9     		add	r1, sp, #168
 3793 0364 0023     		movs	r3, #0
 3794 0366 41F88C3D 		str	r3, [r1, #-140]!
 3795              		.loc 1 1106 0
 3796 036a 0122     		movs	r2, #1
 3797 036c 4123     		movs	r3, #65
 3798              		.loc 1 1109 0
 3799 036e 2846     		mov	r0, r5
 3800              		.loc 1 1106 0
 3801 0370 0692     		str	r2, [sp, #24]
 3802 0372 8DF86030 		strb	r3, [sp, #96]
 3803              		.loc 1 1109 0
 3804 0376 FFF7FEFF 		bl	buffer_get_uint16
 3805              	.LVL385:
 3806 037a 0446     		mov	r4, r0
 3807              	.LVL386:
 3808              		.loc 1 1112 0
 3809 037c 08A8     		add	r0, sp, #32
 3810 037e FFF7FEFF 		bl	imu_get_rpy
 3811              	.LVL387:
 3812              		.loc 1 1113 0
 3813 0382 0BA8     		add	r0, sp, #44
 3814 0384 FFF7FEFF 		bl	imu_get_accel
 3815              	.LVL388:
 3816              		.loc 1 1114 0
 3817 0388 0EA8     		add	r0, sp, #56
 3818 038a FFF7FEFF 		bl	imu_get_gyro
 3819              	.LVL389:
ARM GAS  /tmp/cc8pZ867.s 			page 68


 3820              		.loc 1 1115 0
 3821 038e 11A8     		add	r0, sp, #68
 3822 0390 FFF7FEFF 		bl	imu_get_mag
 3823              	.LVL390:
 3824              		.loc 1 1118 0
 3825 0394 0DF1600B 		add	fp, sp, #96
 3826              		.loc 1 1116 0
 3827 0398 14A8     		add	r0, sp, #80
 3828 039a FFF7FEFF 		bl	imu_get_quaternions
 3829              	.LVL391:
 3830              		.loc 1 1118 0
 3831 039e 2146     		mov	r1, r4
 3832 03a0 06AA     		add	r2, sp, #24
 3833 03a2 5846     		mov	r0, fp
 3834 03a4 FFF7FEFF 		bl	buffer_append_uint16
 3835              	.LVL392:
 3836              		.loc 1 1120 0
 3837 03a8 E707     		lsls	r7, r4, #31
 3838 03aa 01F14084 		bmi	.L855
 3839              	.L457:
 3840              		.loc 1 1123 0
 3841 03ae A507     		lsls	r5, r4, #30
 3842              	.LVL393:
 3843 03b0 01F13584 		bmi	.L856
 3844              	.L458:
 3845              		.loc 1 1126 0
 3846 03b4 6007     		lsls	r0, r4, #29
 3847 03b6 01F12A84 		bmi	.L857
 3848              	.L459:
 3849              		.loc 1 1130 0
 3850 03ba 2107     		lsls	r1, r4, #28
 3851 03bc 01F11F84 		bmi	.L858
 3852              	.L460:
 3853              		.loc 1 1133 0
 3854 03c0 E206     		lsls	r2, r4, #27
 3855 03c2 01F11484 		bmi	.L859
 3856              	.L461:
 3857              		.loc 1 1136 0
 3858 03c6 A306     		lsls	r3, r4, #26
 3859 03c8 01F10984 		bmi	.L860
 3860              	.L462:
 3861              		.loc 1 1140 0
 3862 03cc 6706     		lsls	r7, r4, #25
 3863 03ce 01F1FE83 		bmi	.L861
 3864              	.L463:
 3865              		.loc 1 1143 0
 3866 03d2 2506     		lsls	r5, r4, #24
 3867 03d4 01F1F383 		bmi	.L862
 3868              	.L464:
 3869              		.loc 1 1146 0
 3870 03d8 E005     		lsls	r0, r4, #23
 3871 03da 01F1E883 		bmi	.L863
 3872              	.L465:
 3873              		.loc 1 1150 0
 3874 03de A105     		lsls	r1, r4, #22
 3875 03e0 01F1DD83 		bmi	.L864
 3876              	.L466:
ARM GAS  /tmp/cc8pZ867.s 			page 69


 3877              		.loc 1 1153 0
 3878 03e4 6205     		lsls	r2, r4, #21
 3879 03e6 01F1D283 		bmi	.L865
 3880              	.L467:
 3881              		.loc 1 1156 0
 3882 03ea 2305     		lsls	r3, r4, #20
 3883 03ec 01F1C783 		bmi	.L866
 3884              	.L468:
 3885              		.loc 1 1160 0
 3886 03f0 E704     		lsls	r7, r4, #19
 3887 03f2 01F1BC83 		bmi	.L867
 3888              	.L469:
 3889              		.loc 1 1163 0
 3890 03f6 A504     		lsls	r5, r4, #18
 3891 03f8 01F1B183 		bmi	.L868
 3892              	.L470:
 3893              		.loc 1 1166 0
 3894 03fc 6004     		lsls	r0, r4, #17
 3895 03fe 01F1A683 		bmi	.L869
 3896              	.L471:
 3897              		.loc 1 1169 0
 3898 0402 2104     		lsls	r1, r4, #16
 3899 0404 01F19B83 		bmi	.L870
 3900              	.L472:
 3901              		.loc 1 1183 0
 3902 0408 5846     		mov	r0, fp
 3903 040a 0699     		ldr	r1, [sp, #24]
 3904 040c B047     		blx	r6
 3905              	.LVL394:
 3906              	.LBE349:
 3907              		.loc 1 1184 0
 3908 040e 19E7     		b	.L287
 3909              	.LVL395:
 3910              	.L349:
 3911              	.LBB350:
 3912              		.loc 1 1278 0
 3913 0410 97F80180 		ldrb	r8, [r7, #1]	@ zero_extendqisi2
 3914              	.LVL396:
 3915              		.loc 1 1279 0
 3916 0414 BD78     		ldrb	r5, [r7, #2]	@ zero_extendqisi2
 3917              	.LVL397:
 3918              		.loc 1 1280 0
 3919 0416 FF78     		ldrb	r7, [r7, #3]	@ zero_extendqisi2
 3920              	.LVL398:
 3921              		.loc 1 1282 0
 3922 0418 FFF7FEFF 		bl	mempools_alloc_appconf
 3923              	.LVL399:
 3924 041c 0446     		mov	r4, r0
 3925              	.LVL400:
 3926              		.loc 1 1283 0
 3927 041e FFF7FEFF 		bl	app_get_configuration
 3928              	.LVL401:
 3929 0422 4FF40E72 		mov	r2, #568
 3930 0426 0146     		mov	r1, r0
 3931 0428 2046     		mov	r0, r4
 3932 042a FFF7FEFF 		bl	memcpy
 3933              	.LVL402:
ARM GAS  /tmp/cc8pZ867.s 			page 70


 3934              		.loc 1 1284 0
 3935 042e A776     		strb	r7, [r4, #26]
 3936              		.loc 1 1286 0
 3937 0430 B8F1000F 		cmp	r8, #0
 3938 0434 41F0B982 		bne	.L871
 3939              	.L481:
 3940              		.loc 1 1290 0
 3941 0438 2046     		mov	r0, r4
 3942 043a FFF7FEFF 		bl	app_set_configuration
 3943              	.LVL403:
 3944              		.loc 1 1292 0
 3945 043e 2046     		mov	r0, r4
 3946 0440 FFF7FEFF 		bl	mempools_free_appconf
 3947              	.LVL404:
 3948              		.loc 1 1294 0
 3949 0444 002D     		cmp	r5, #0
 3950 0446 3FF4FDAE 		beq	.L287
 3951              	.LVL405:
 3952              	.LBB351:
 3953              		.loc 1 1297 0
 3954 044a 2AA8     		add	r0, sp, #168
 3955 044c 5923     		movs	r3, #89
 3956 044e 00F8483D 		strb	r3, [r0, #-72]!
 3957              		.loc 1 1298 0
 3958 0452 0121     		movs	r1, #1
 3959 0454 B047     		blx	r6
 3960              	.LVL406:
 3961 0456 F5E6     		b	.L287
 3962              	.LVL407:
 3963              	.L350:
 3964              	.LBE351:
 3965              	.LBE350:
 3966              	.LBB352:
 3967              		.loc 1 1023 0
 3968 0458 FFF7FEFF 		bl	mempools_alloc_mcconf
 3969              	.LVL408:
 3970 045c 0446     		mov	r4, r0
 3971              	.LVL409:
 3972              		.loc 1 1024 0
 3973 045e FFF7FEFF 		bl	mc_interface_get_configuration
 3974              	.LVL410:
 3975 0462 4FF42372 		mov	r2, #652
 3976 0466 0146     		mov	r1, r0
 3977 0468 2046     		mov	r0, r4
 3978 046a FFF7FEFF 		bl	memcpy
 3979              	.LVL411:
 3980              		.loc 1 1028 0
 3981 046e 5B23     		movs	r3, #91
 3982 0470 8DF86030 		strb	r3, [sp, #96]
 3983              		.loc 1 1029 0
 3984 0474 94ED190A 		vldr.32	s0, [r4, #100]
 3985              		.loc 1 1028 0
 3986 0478 0123     		movs	r3, #1
 3987              		.loc 1 1029 0
 3988 047a 14A9     		add	r1, sp, #80
 3989 047c 18A8     		add	r0, sp, #96
 3990              		.loc 1 1028 0
ARM GAS  /tmp/cc8pZ867.s 			page 71


 3991 047e 1493     		str	r3, [sp, #80]
 3992              		.loc 1 1029 0
 3993 0480 FFF7FEFF 		bl	buffer_append_float32_auto
 3994              	.LVL412:
 3995              		.loc 1 1030 0
 3996 0484 14A9     		add	r1, sp, #80
 3997 0486 94ED180A 		vldr.32	s0, [r4, #96]
 3998 048a 18A8     		add	r0, sp, #96
 3999 048c FFF7FEFF 		bl	buffer_append_float32_auto
 4000              	.LVL413:
 4001              		.loc 1 1031 0
 4002 0490 14A9     		add	r1, sp, #80
 4003 0492 94ED050A 		vldr.32	s0, [r4, #20]
 4004 0496 18A8     		add	r0, sp, #96
 4005 0498 FFF7FEFF 		bl	buffer_append_float32_auto
 4006              	.LVL414:
 4007              		.loc 1 1032 0
 4008 049c 14A9     		add	r1, sp, #80
 4009 049e 94ED060A 		vldr.32	s0, [r4, #24]
 4010 04a2 18A8     		add	r0, sp, #96
 4011 04a4 FFF7FEFF 		bl	buffer_append_float32_auto
 4012              	.LVL415:
 4013              		.loc 1 1033 0
 4014 04a8 14A9     		add	r1, sp, #80
 4015 04aa 94ED140A 		vldr.32	s0, [r4, #80]
 4016 04ae 18A8     		add	r0, sp, #96
 4017 04b0 FFF7FEFF 		bl	buffer_append_float32_auto
 4018              	.LVL416:
 4019              		.loc 1 1034 0
 4020 04b4 14A9     		add	r1, sp, #80
 4021 04b6 94ED150A 		vldr.32	s0, [r4, #84]
 4022 04ba 18A8     		add	r0, sp, #96
 4023 04bc FFF7FEFF 		bl	buffer_append_float32_auto
 4024              	.LVL417:
 4025              		.loc 1 1035 0
 4026 04c0 14A9     		add	r1, sp, #80
 4027 04c2 94ED170A 		vldr.32	s0, [r4, #92]
 4028 04c6 18A8     		add	r0, sp, #96
 4029 04c8 FFF7FEFF 		bl	buffer_append_float32_auto
 4030              	.LVL418:
 4031              		.loc 1 1036 0
 4032 04cc 14A9     		add	r1, sp, #80
 4033 04ce 94ED160A 		vldr.32	s0, [r4, #88]
 4034 04d2 18A8     		add	r0, sp, #96
 4035 04d4 FFF7FEFF 		bl	buffer_append_float32_auto
 4036              	.LVL419:
 4037              		.loc 1 1037 0
 4038 04d8 14A9     		add	r1, sp, #80
 4039 04da 94ED030A 		vldr.32	s0, [r4, #12]
 4040 04de 18A8     		add	r0, sp, #96
 4041 04e0 FFF7FEFF 		bl	buffer_append_float32_auto
 4042              	.LVL420:
 4043              		.loc 1 1038 0
 4044 04e4 14A9     		add	r1, sp, #80
 4045 04e6 94ED020A 		vldr.32	s0, [r4, #8]
 4046 04ea 18A8     		add	r0, sp, #96
 4047 04ec FFF7FEFF 		bl	buffer_append_float32_auto
ARM GAS  /tmp/cc8pZ867.s 			page 72


 4048              	.LVL421:
 4049              		.loc 1 1040 0
 4050 04f0 149B     		ldr	r3, [sp, #80]
 4051 04f2 5A1C     		adds	r2, r3, #1
 4052 04f4 1492     		str	r2, [sp, #80]
 4053 04f6 2AAA     		add	r2, sp, #168
 4054 04f8 1344     		add	r3, r3, r2
 4055 04fa 94F85422 		ldrb	r2, [r4, #596]	@ zero_extendqisi2
 4056 04fe 03F8482C 		strb	r2, [r3, #-72]
 4057              		.loc 1 1041 0
 4058 0502 94ED960A 		vldr.32	s0, [r4, #600]
 4059 0506 14A9     		add	r1, sp, #80
 4060 0508 18A8     		add	r0, sp, #96
 4061 050a FFF7FEFF 		bl	buffer_append_float32_auto
 4062              	.LVL422:
 4063              		.loc 1 1042 0
 4064 050e 14A9     		add	r1, sp, #80
 4065 0510 94ED970A 		vldr.32	s0, [r4, #604]
 4066 0514 18A8     		add	r0, sp, #96
 4067 0516 FFF7FEFF 		bl	buffer_append_float32_auto
 4068              	.LVL423:
 4069              		.loc 1 1044 0
 4070 051a 2046     		mov	r0, r4
 4071 051c FFF7FEFF 		bl	mempools_free_mcconf
 4072              	.LVL424:
 4073              		.loc 1 1045 0
 4074 0520 18A8     		add	r0, sp, #96
 4075 0522 1499     		ldr	r1, [sp, #80]
 4076 0524 B047     		blx	r6
 4077              	.LVL425:
 4078              	.LBE352:
 4079              		.loc 1 1046 0
 4080 0526 8DE6     		b	.L287
 4081              	.LVL426:
 4082              	.L339:
 4083              	.LBB353:
 4084              		.loc 1 1086 0
 4085 0528 2AA9     		add	r1, sp, #168
 4086 052a 0123     		movs	r3, #1
 4087 052c 41F8483D 		str	r3, [r1, #-72]!
 4088 0530 7C78     		ldrb	r4, [r7, #1]	@ zero_extendqisi2
 4089              	.LVL427:
 4090              		.loc 1 1087 0
 4091 0532 2846     		mov	r0, r5
 4092 0534 FFF7FEFF 		bl	buffer_get_int32
 4093              	.LVL428:
 4094              		.loc 1 1088 0
 4095 0538 FFF7FEFF 		bl	app_disable_output
 4096              	.LVL429:
 4097              		.loc 1 1090 0
 4098 053c 002C     		cmp	r4, #0
 4099 053e 3FF481AE 		beq	.L287
 4100              		.loc 1 1091 0
 4101 0542 0023     		movs	r3, #0
 4102              		.loc 1 1092 0
 4103 0544 4246     		mov	r2, r8
 4104              		.loc 1 1091 0
ARM GAS  /tmp/cc8pZ867.s 			page 73


 4105 0546 7B70     		strb	r3, [r7, #1]
 4106              		.loc 1 1092 0
 4107 0548 3946     		mov	r1, r7
 4108 054a FF20     		movs	r0, #255
 4109 054c FFF7FEFF 		bl	comm_can_send_buffer
 4110              	.LVL430:
 4111              	.LBE353:
 4112              		.loc 1 1094 0
 4113 0550 78E6     		b	.L287
 4114              	.LVL431:
 4115              	.L340:
 4116              		.loc 1 1097 0
 4117 0552 0023     		movs	r3, #0
 4118 0554 07F80830 		strb	r3, [r7, r8]
 4119              		.loc 1 1098 0
 4120 0558 D048     		ldr	r0, .L924
 4121 055a FFF7FEFF 		bl	chMtxLock
 4122              	.LVL432:
 4123              		.loc 1 1099 0
 4124 055e 2846     		mov	r0, r5
 4125 0560 FFF7FEFF 		bl	terminal_process_string
 4126              	.LVL433:
 4127              		.loc 1 1100 0
 4128 0564 CD48     		ldr	r0, .L924
 4129 0566 FFF7FEFF 		bl	chMtxUnlock
 4130              	.LVL434:
 4131              		.loc 1 1101 0
 4132 056a 6BE6     		b	.L287
 4133              	.L345:
 4134              	.LBB354:
 4135              		.loc 1 1212 0
 4136 056c 2AA9     		add	r1, sp, #168
 4137 056e 0023     		movs	r3, #0
 4138 0570 41F8483D 		str	r3, [r1, #-72]!
 4139              		.loc 1 1213 0
 4140 0574 2846     		mov	r0, r5
 4141 0576 9FEDCA0A 		vldr.32	s0, .L924+4
 4142 057a FFF7FEFF 		bl	buffer_get_float32
 4143              	.LVL435:
 4144 057e FFF7FEFF 		bl	mc_interface_set_current_rel
 4145              	.LVL436:
 4146              		.loc 1 1214 0
 4147 0582 FFF7FEFF 		bl	timeout_reset
 4148              	.LVL437:
 4149              	.LBE354:
 4150              		.loc 1 1215 0
 4151 0586 5DE6     		b	.L287
 4152              	.L346:
 4153              	.LBB355:
 4154              		.loc 1 1218 0
 4155 0588 2AA9     		add	r1, sp, #168
 4156 058a 0023     		movs	r3, #0
 4157 058c 41F8483D 		str	r3, [r1, #-72]!
 4158              		.loc 1 1219 0
 4159 0590 2846     		mov	r0, r5
 4160 0592 FFF7FEFF 		bl	buffer_get_uint32
 4161              	.LVL438:
ARM GAS  /tmp/cc8pZ867.s 			page 74


 4162              		.loc 1 1220 0
 4163 0596 1899     		ldr	r1, [sp, #96]
 4164 0598 5FFA8AFA 		uxtb	r10, r10
 4165              	.LVL439:
 4166              		.loc 1 1222 0
 4167 059c 6B5C     		ldrb	r3, [r5, r1]	@ zero_extendqisi2
 4168              		.loc 1 1220 0
 4169 059e 0131     		adds	r1, r1, #1
 4170              		.loc 1 1223 0
 4171 05a0 AAEB010A 		sub	r10, r10, r1
 4172              		.loc 1 1220 0
 4173 05a4 1891     		str	r1, [sp, #96]
 4174              	.LVL440:
 4175              		.loc 1 1223 0
 4176 05a6 5FFA8AF2 		uxtb	r2, r10
 4177 05aa 2944     		add	r1, r1, r5
 4178              	.LVL441:
 4179              		.loc 1 1222 0
 4180 05ac 002B     		cmp	r3, #0
 4181 05ae 01F02082 		beq	.L475
 4182              		.loc 1 1223 0
 4183 05b2 FFF7FEFF 		bl	comm_can_transmit_eid
 4184              	.LVL442:
 4185 05b6 45E6     		b	.L287
 4186              	.LVL443:
 4187              	.L347:
 4188              	.LBE355:
 4189              	.LBB356:
 4190              		.loc 1 1230 0
 4191 05b8 2AAC     		add	r4, sp, #168
 4192 05ba 0023     		movs	r3, #0
 4193 05bc 44F8583D 		str	r3, [r4, #-88]!
 4194              		.loc 1 1231 0
 4195 05c0 2846     		mov	r0, r5
 4196 05c2 2146     		mov	r1, r4
 4197 05c4 9FEDB70A 		vldr.32	s0, .L924+8
 4198 05c8 FFF7FEFF 		bl	buffer_get_float32
 4199              	.LVL444:
 4200              		.loc 1 1232 0
 4201 05cc 2146     		mov	r1, r4
 4202 05ce 2846     		mov	r0, r5
 4203              		.loc 1 1231 0
 4204 05d0 F0EE408A 		vmov.f32	s17, s0
 4205              	.LVL445:
 4206              		.loc 1 1232 0
 4207 05d4 9FEDB30A 		vldr.32	s0, .L924+8
 4208              	.LVL446:
 4209 05d8 FFF7FEFF 		bl	buffer_get_float32
 4210              	.LVL447:
 4211              		.loc 1 1233 0
 4212 05dc 149B     		ldr	r3, [sp, #80]
 4213              		.loc 1 1234 0
 4214 05de EA18     		adds	r2, r5, r3
 4215 05e0 991C     		adds	r1, r3, #2
 4216              		.loc 1 1236 0
 4217 05e2 5278     		ldrb	r2, [r2, #1]	@ zero_extendqisi2
 4218              		.loc 1 1233 0
ARM GAS  /tmp/cc8pZ867.s 			page 75


 4219 05e4 ED5C     		ldrb	r5, [r5, r3]	@ zero_extendqisi2
 4220              	.LVL448:
 4221              		.loc 1 1234 0
 4222 05e6 1491     		str	r1, [sp, #80]
 4223              		.loc 1 1232 0
 4224 05e8 B0EE408A 		vmov.f32	s16, s0
 4225              	.LVL449:
 4226              		.loc 1 1236 0
 4227 05ec 002A     		cmp	r2, #0
 4228 05ee 41F0EA81 		bne	.L872
 4229              	.LVL450:
 4230              	.L477:
 4231              		.loc 1 1240 0
 4232 05f2 FFF7FEFF 		bl	mempools_alloc_mcconf
 4233              	.LVL451:
 4234 05f6 0446     		mov	r4, r0
 4235              	.LVL452:
 4236              		.loc 1 1241 0
 4237 05f8 FFF7FEFF 		bl	mc_interface_get_configuration
 4238              	.LVL453:
 4239 05fc 4FF42372 		mov	r2, #652
 4240 0600 0146     		mov	r1, r0
 4241 0602 2046     		mov	r0, r4
 4242 0604 FFF7FEFF 		bl	memcpy
 4243              	.LVL454:
 4244              		.loc 1 1243 0
 4245 0608 D4ED0C7A 		vldr.32	s15, [r4, #48]
 4246 060c F4EE687A 		vcmp.f32	s15, s17
 4247 0610 F1EE10FA 		vmrs	APSR_nzcv, FPSCR
 4248 0614 06D1     		bne	.L478
 4249              		.loc 1 1243 0 is_stmt 0 discriminator 1
 4250 0616 D4ED0D7A 		vldr.32	s15, [r4, #52]
 4251 061a F4EE487A 		vcmp.f32	s15, s16
 4252 061e F1EE10FA 		vmrs	APSR_nzcv, FPSCR
 4253 0622 09D0     		beq	.L479
 4254              	.L478:
 4255              		.loc 1 1244 0 is_stmt 1
 4256 0624 C4ED0C8A 		vstr.32	s17, [r4, #48]
 4257              		.loc 1 1245 0
 4258 0628 84ED0D8A 		vstr.32	s16, [r4, #52]
 4259              		.loc 1 1247 0
 4260 062c 002D     		cmp	r5, #0
 4261 062e 41F0D681 		bne	.L873
 4262              	.L480:
 4263              		.loc 1 1252 0
 4264 0632 2046     		mov	r0, r4
 4265 0634 FFF7FEFF 		bl	mc_interface_set_configuration
 4266              	.LVL455:
 4267              	.L479:
 4268              		.loc 1 1255 0
 4269 0638 2046     		mov	r0, r4
 4270 063a FFF7FEFF 		bl	mempools_free_mcconf
 4271              	.LVL456:
 4272              		.loc 1 1260 0
 4273 063e 2AA8     		add	r0, sp, #168
 4274 0640 5623     		movs	r3, #86
 4275 0642 00F8483D 		strb	r3, [r0, #-72]!
ARM GAS  /tmp/cc8pZ867.s 			page 76


 4276 0646 0123     		movs	r3, #1
 4277              		.loc 1 1261 0
 4278 0648 1946     		mov	r1, r3
 4279              		.loc 1 1260 0
 4280 064a 1493     		str	r3, [sp, #80]
 4281              		.loc 1 1261 0
 4282 064c B047     		blx	r6
 4283              	.LVL457:
 4284              	.LBE356:
 4285              		.loc 1 1262 0
 4286 064e F9E5     		b	.L287
 4287              	.LVL458:
 4288              	.L310:
 4289              	.LBB357:
 4290              		.loc 1 552 0
 4291 0650 FFF7FEFF 		bl	mempools_alloc_mcconf
 4292              	.LVL459:
 4293              		.loc 1 554 0
 4294 0654 B9F10E0F 		cmp	r9, #14
 4295              		.loc 1 552 0
 4296 0658 0446     		mov	r4, r0
 4297              	.LVL460:
 4298              		.loc 1 554 0
 4299 065a 01F05080 		beq	.L874
 4300              	.LBB358:
 4301              		.loc 1 557 0
 4302 065e FFF7FEFF 		bl	confgenerator_set_defaults_mcconf
 4303              	.LVL461:
 4304              		.loc 1 558 0
 4305 0662 FFF7FEFF 		bl	mc_interface_get_configuration
 4306              	.LVL462:
 4307              		.loc 1 561 0
 4308 0666 D0F87431 		ldr	r3, [r0, #372]	@ float
 4309 066a C4F87431 		str	r3, [r4, #372]	@ float
 4310              		.loc 1 562 0
 4311 066e D0F87831 		ldr	r3, [r0, #376]	@ float
 4312 0672 C4F87831 		str	r3, [r4, #376]	@ float
 4313              		.loc 1 563 0
 4314 0676 D0F87C31 		ldr	r3, [r0, #380]	@ float
 4315 067a C4F87C31 		str	r3, [r4, #380]	@ float
 4316              		.loc 1 564 0
 4317 067e D0F88031 		ldr	r3, [r0, #384]	@ float
 4318 0682 C4F88031 		str	r3, [r4, #384]	@ float
 4319              		.loc 1 565 0
 4320 0686 D0F88431 		ldr	r3, [r0, #388]	@ float
 4321 068a C4F88431 		str	r3, [r4, #388]	@ float
 4322              		.loc 1 566 0
 4323 068e D0F88831 		ldr	r3, [r0, #392]	@ float
 4324 0692 C4F88831 		str	r3, [r4, #392]	@ float
 4325              		.loc 1 567 0
 4326 0696 D0F88C31 		ldr	r3, [r0, #396]	@ float
 4327 069a C4F88C31 		str	r3, [r4, #396]	@ float
 4328              		.loc 1 568 0
 4329 069e D0F89031 		ldr	r3, [r0, #400]	@ float
 4330 06a2 C4F89031 		str	r3, [r4, #400]	@ float
 4331              		.loc 1 569 0
 4332 06a6 D0F89431 		ldr	r3, [r0, #404]	@ float
ARM GAS  /tmp/cc8pZ867.s 			page 77


 4333 06aa C4F89431 		str	r3, [r4, #404]	@ float
 4334              	.LVL463:
 4335              	.L403:
 4336              	.LBE358:
 4337              		.loc 1 572 0
 4338 06ae 4846     		mov	r0, r9
 4339 06b0 2146     		mov	r1, r4
 4340 06b2 FFF7FEFF 		bl	commands_send_mcconf
 4341              	.LVL464:
 4342              	.L824:
 4343              		.loc 1 573 0
 4344 06b6 2046     		mov	r0, r4
 4345 06b8 FFF7FEFF 		bl	mempools_free_mcconf
 4346              	.LVL465:
 4347              	.LBE357:
 4348              		.loc 1 574 0
 4349 06bc C2E5     		b	.L287
 4350              	.L311:
 4351              	.LBB359:
 4352              		.loc 1 578 0
 4353 06be FFF7FEFF 		bl	mempools_alloc_appconf
 4354              	.LVL466:
 4355 06c2 0446     		mov	r4, r0
 4356              	.LVL467:
 4357              		.loc 1 579 0
 4358 06c4 FFF7FEFF 		bl	app_get_configuration
 4359              	.LVL468:
 4360 06c8 4FF40E72 		mov	r2, #568
 4361 06cc 0146     		mov	r1, r0
 4362 06ce 2046     		mov	r0, r4
 4363 06d0 FFF7FEFF 		bl	memcpy
 4364              	.LVL469:
 4365              		.loc 1 581 0
 4366 06d4 2146     		mov	r1, r4
 4367 06d6 2846     		mov	r0, r5
 4368 06d8 FFF7FEFF 		bl	confgenerator_deserialize_appconf
 4369              	.LVL470:
 4370 06dc 0028     		cmp	r0, #0
 4371 06de 01F08C81 		beq	.L404
 4372              	.LBB360:
 4373              		.loc 1 589 0
 4374 06e2 2046     		mov	r0, r4
 4375 06e4 FFF7FEFF 		bl	conf_general_store_app_configuration
 4376              	.LVL471:
 4377              		.loc 1 590 0
 4378 06e8 2046     		mov	r0, r4
 4379 06ea FFF7FEFF 		bl	app_set_configuration
 4380              	.LVL472:
 4381              		.loc 1 591 0
 4382 06ee 617E     		ldrb	r1, [r4, #25]	@ zero_extendqisi2
 4383 06f0 94ED020A 		vldr.32	s0, [r4, #8]
 4384 06f4 6068     		ldr	r0, [r4, #4]
 4385 06f6 FFF7FEFF 		bl	timeout_configure
 4386              	.LVL473:
 4387              		.loc 1 592 0
 4388 06fa 4FF4FA60 		mov	r0, #2000
 4389 06fe FFF7FEFF 		bl	chThdSleep
ARM GAS  /tmp/cc8pZ867.s 			page 78


 4390              	.LVL474:
 4391              		.loc 1 596 0
 4392 0702 2AA8     		add	r0, sp, #168
 4393 0704 1023     		movs	r3, #16
 4394 0706 00F8483D 		strb	r3, [r0, #-72]!
 4395              		.loc 1 597 0
 4396 070a 0121     		movs	r1, #1
 4397 070c B047     		blx	r6
 4398              	.LVL475:
 4399              	.L825:
 4400              	.LBE360:
 4401              	.LBE359:
 4402              	.LBB361:
 4403              		.loc 1 624 0
 4404 070e 2046     		mov	r0, r4
 4405 0710 FFF7FEFF 		bl	mempools_free_appconf
 4406              	.LVL476:
 4407              	.LBE361:
 4408              		.loc 1 625 0
 4409 0714 96E5     		b	.L287
 4410              	.L348:
 4411              	.LVL477:
 4412              	.LBB362:
 4413              	.LBB363:
 4414              		.loc 1 151 0
 4415 0716 644B     		ldr	r3, .L924+12
 4416 0718 1A68     		ldr	r2, [r3]
 4417 071a 002A     		cmp	r2, #0
 4418 071c 3FF492AD 		beq	.L287
 4419              		.loc 1 152 0
 4420 0720 1B68     		ldr	r3, [r3]
 4421 0722 4146     		mov	r1, r8
 4422 0724 3846     		mov	r0, r7
 4423              	.LVL478:
 4424 0726 9847     		blx	r3
 4425              	.LVL479:
 4426 0728 8CE5     		b	.L287
 4427              	.LVL480:
 4428              	.L312:
 4429              	.LBE363:
 4430              	.LBE362:
 4431              	.LBB364:
 4432              		.loc 1 608 0
 4433 072a FFF7FEFF 		bl	mempools_alloc_appconf
 4434              	.LVL481:
 4435              		.loc 1 610 0
 4436 072e B9F1110F 		cmp	r9, #17
 4437              		.loc 1 608 0
 4438 0732 0446     		mov	r4, r0
 4439              	.LVL482:
 4440              		.loc 1 610 0
 4441 0734 00F0ED87 		beq	.L875
 4442              		.loc 1 613 0
 4443 0738 FFF7FEFF 		bl	confgenerator_set_defaults_appconf
 4444              	.LVL483:
 4445              	.L407:
 4446              		.loc 1 622 0
ARM GAS  /tmp/cc8pZ867.s 			page 79


 4447 073c 4846     		mov	r0, r9
 4448 073e 2146     		mov	r1, r4
 4449 0740 FFF7FEFF 		bl	commands_send_appconf
 4450              	.LVL484:
 4451 0744 E3E7     		b	.L825
 4452              	.LVL485:
 4453              	.L313:
 4454              	.LBE364:
 4455              	.LBB365:
 4456              		.loc 1 633 0
 4457 0746 2AA9     		add	r1, sp, #168
 4458 0748 0123     		movs	r3, #1
 4459 074a 41F8483D 		str	r3, [r1, #-72]!
 4460              		.loc 1 634 0
 4461 074e 2846     		mov	r0, r5
 4462              		.loc 1 633 0
 4463 0750 7E78     		ldrb	r6, [r7, #1]	@ zero_extendqisi2
 4464              	.LVL486:
 4465              		.loc 1 634 0
 4466 0752 FFF7FEFF 		bl	buffer_get_uint16
 4467              	.LVL487:
 4468              		.loc 1 635 0
 4469 0756 189B     		ldr	r3, [sp, #96]
 4470 0758 5C1C     		adds	r4, r3, #1
 4471              		.loc 1 638 0
 4472 075a 5445     		cmp	r4, r10
 4473              		.loc 1 634 0
 4474 075c 0146     		mov	r1, r0
 4475              	.LVL488:
 4476              		.loc 1 635 0
 4477 075e 1894     		str	r4, [sp, #96]
 4478 0760 EA5C     		ldrb	r2, [r5, r3]	@ zero_extendqisi2
 4479              	.LVL489:
 4480              		.loc 1 638 0
 4481 0762 81F02D81 		bcs	.L514
 4482              		.loc 1 639 0
 4483 0766 2D5D     		ldrb	r5, [r5, r4]	@ zero_extendqisi2
 4484              	.LVL490:
 4485 0768 9C1C     		adds	r4, r3, #2
 4486 076a 2B1C     		adds	r3, r5, #0
 4487 076c 18BF     		it	ne
 4488 076e 0123     		movne	r3, #1
 4489              	.LVL491:
 4490 0770 1894     		str	r4, [sp, #96]
 4491              	.LVL492:
 4492              	.L408:
 4493              		.loc 1 642 0
 4494 0772 3046     		mov	r0, r6
 4495 0774 FFF7FEFF 		bl	mc_interface_sample_print_data
 4496              	.LVL493:
 4497              	.LBE365:
 4498              		.loc 1 643 0
 4499 0778 64E5     		b	.L287
 4500              	.LVL494:
 4501              	.L351:
 4502              		.loc 1 1308 0
 4503 077a 3246     		mov	r2, r6
ARM GAS  /tmp/cc8pZ867.s 			page 80


 4504 077c 4146     		mov	r1, r8
 4505 077e 3846     		mov	r0, r7
 4506 0780 FFF7FEFF 		bl	bms_process_cmd
 4507              	.LVL495:
 4508              		.loc 1 1309 0
 4509 0784 5EE5     		b	.L287
 4510              	.L344:
 4511              	.LBB366:
 4512              		.loc 1 688 0
 4513 0786 4F23     		movs	r3, #79
 4514 0788 0122     		movs	r2, #1
 4515 078a 8DF86030 		strb	r3, [sp, #96]
 4516 078e 1492     		str	r2, [sp, #80]
 4517              		.loc 1 689 0
 4518 0790 FFF7FEFF 		bl	app_balance_get_pid_output
 4519              	.LVL496:
 4520 0794 9FED458A 		vldr.32	s16, .L924+16
 4521 0798 20EE080A 		vmul.f32	s0, s0, s16
 4522 079c 14AA     		add	r2, sp, #80
 4523 079e FDEEC07A 		vcvt.s32.f32	s15, s0
 4524 07a2 18A8     		add	r0, sp, #96
 4525 07a4 17EE901A 		vmov	r1, s15	@ int
 4526 07a8 FFF7FEFF 		bl	buffer_append_int32
 4527              	.LVL497:
 4528              		.loc 1 690 0
 4529 07ac FFF7FEFF 		bl	app_balance_get_pitch_angle
 4530              	.LVL498:
 4531 07b0 20EE080A 		vmul.f32	s0, s0, s16
 4532 07b4 14AA     		add	r2, sp, #80
 4533 07b6 FDEEC07A 		vcvt.s32.f32	s15, s0
 4534 07ba 18A8     		add	r0, sp, #96
 4535 07bc 17EE901A 		vmov	r1, s15	@ int
 4536 07c0 FFF7FEFF 		bl	buffer_append_int32
 4537              	.LVL499:
 4538              		.loc 1 691 0
 4539 07c4 FFF7FEFF 		bl	app_balance_get_roll_angle
 4540              	.LVL500:
 4541 07c8 20EE080A 		vmul.f32	s0, s0, s16
 4542 07cc 14AA     		add	r2, sp, #80
 4543 07ce FDEEC07A 		vcvt.s32.f32	s15, s0
 4544 07d2 18A8     		add	r0, sp, #96
 4545 07d4 17EE901A 		vmov	r1, s15	@ int
 4546 07d8 FFF7FEFF 		bl	buffer_append_int32
 4547              	.LVL501:
 4548              		.loc 1 692 0
 4549 07dc FFF7FEFF 		bl	app_balance_get_diff_time
 4550              	.LVL502:
 4551 07e0 14AA     		add	r2, sp, #80
 4552 07e2 0146     		mov	r1, r0
 4553 07e4 18A8     		add	r0, sp, #96
 4554 07e6 FFF7FEFF 		bl	buffer_append_uint32
 4555              	.LVL503:
 4556              		.loc 1 693 0
 4557 07ea FFF7FEFF 		bl	app_balance_get_motor_current
 4558              	.LVL504:
 4559 07ee 20EE080A 		vmul.f32	s0, s0, s16
 4560 07f2 14AA     		add	r2, sp, #80
ARM GAS  /tmp/cc8pZ867.s 			page 81


 4561 07f4 FDEEC07A 		vcvt.s32.f32	s15, s0
 4562 07f8 18A8     		add	r0, sp, #96
 4563 07fa 17EE901A 		vmov	r1, s15	@ int
 4564 07fe FFF7FEFF 		bl	buffer_append_int32
 4565              	.LVL505:
 4566              		.loc 1 694 0
 4567 0802 FFF7FEFF 		bl	app_balance_get_debug1
 4568              	.LVL506:
 4569 0806 20EE080A 		vmul.f32	s0, s0, s16
 4570 080a 14AA     		add	r2, sp, #80
 4571 080c FDEEC07A 		vcvt.s32.f32	s15, s0
 4572 0810 18A8     		add	r0, sp, #96
 4573 0812 17EE901A 		vmov	r1, s15	@ int
 4574 0816 FFF7FEFF 		bl	buffer_append_int32
 4575              	.LVL507:
 4576              		.loc 1 695 0
 4577 081a FFF7FEFF 		bl	app_balance_get_state
 4578              	.LVL508:
 4579 081e 14AA     		add	r2, sp, #80
 4580 0820 0146     		mov	r1, r0
 4581 0822 18A8     		add	r0, sp, #96
 4582 0824 FFF7FEFF 		bl	buffer_append_uint16
 4583              	.LVL509:
 4584              		.loc 1 696 0
 4585 0828 FFF7FEFF 		bl	app_balance_get_switch_state
 4586              	.LVL510:
 4587 082c 14AA     		add	r2, sp, #80
 4588 082e 0146     		mov	r1, r0
 4589 0830 18A8     		add	r0, sp, #96
 4590 0832 FFF7FEFF 		bl	buffer_append_uint16
 4591              	.LVL511:
 4592              		.loc 1 697 0
 4593 0836 FFF7FEFF 		bl	app_balance_get_adc1
 4594              	.LVL512:
 4595 083a 20EE080A 		vmul.f32	s0, s0, s16
 4596 083e 14AA     		add	r2, sp, #80
 4597 0840 FDEEC07A 		vcvt.s32.f32	s15, s0
 4598 0844 18A8     		add	r0, sp, #96
 4599 0846 17EE901A 		vmov	r1, s15	@ int
 4600 084a FFF7FEFF 		bl	buffer_append_int32
 4601              	.LVL513:
 4602              		.loc 1 698 0
 4603 084e FFF7FEFF 		bl	app_balance_get_adc2
 4604              	.LVL514:
 4605 0852 20EE080A 		vmul.f32	s0, s0, s16
 4606 0856 14AA     		add	r2, sp, #80
 4607 0858 FDEEC07A 		vcvt.s32.f32	s15, s0
 4608 085c 18A8     		add	r0, sp, #96
 4609 085e 17EE901A 		vmov	r1, s15	@ int
 4610 0862 FFF7FEFF 		bl	buffer_append_int32
 4611              	.LVL515:
 4612              		.loc 1 699 0
 4613 0866 FFF7FEFF 		bl	app_balance_get_debug2
 4614              	.LVL516:
 4615              	.L827:
 4616              	.LBE366:
 4617              	.LBB367:
ARM GAS  /tmp/cc8pZ867.s 			page 82


 4618              		.loc 1 673 0
 4619 086a 20EE080A 		vmul.f32	s0, s0, s16
 4620 086e 14AA     		add	r2, sp, #80
 4621 0870 FDEEC07A 		vcvt.s32.f32	s15, s0
 4622 0874 17EE901A 		vmov	r1, s15	@ int
 4623              	.L829:
 4624 0878 18A8     		add	r0, sp, #96
 4625 087a FFF7FEFF 		bl	buffer_append_int32
 4626              	.LVL517:
 4627              		.loc 1 674 0
 4628 087e 18A8     		add	r0, sp, #96
 4629 0880 1499     		ldr	r1, [sp, #80]
 4630 0882 B047     		blx	r6
 4631              	.LVL518:
 4632              	.LBE367:
 4633              		.loc 1 675 0
 4634 0884 DEE4     		b	.L287
 4635              	.L352:
 4636              	.LBB368:
 4637              		.loc 1 916 0
 4638 0886 2AA9     		add	r1, sp, #168
 4639 0888 0024     		movs	r4, #0
 4640 088a 41F8484D 		str	r4, [r1, #-72]!
 4641              		.loc 1 917 0
 4642 088e 2846     		mov	r0, r5
 4643 0890 FFF7FEFF 		bl	buffer_get_uint32
 4644              	.LVL519:
 4645 0894 2146     		mov	r1, r4
 4646 0896 FFF7FEFF 		bl	mc_interface_set_odometer
 4647              	.LVL520:
 4648 089a EBE4     		b	.L826
 4649              	.L925:
 4650              		.align	2
 4651              	.L924:
 4652 089c 00000000 		.word	.LANCHOR8
 4653 08a0 0050C347 		.word	1203982336
 4654 08a4 00007A44 		.word	1148846080
 4655 08a8 00000000 		.word	.LANCHOR14
 4656 08ac 00247449 		.word	1232348160
 4657              	.L353:
 4658              	.LBE368:
 4659              	.LBB369:
 4660              		.loc 1 1315 0
 4661 08b0 2AAC     		add	r4, sp, #168
 4662 08b2 0123     		movs	r3, #1
 4663 08b4 44F8583D 		str	r3, [r4, #-88]!
 4664              		.loc 1 1316 0
 4665 08b8 2846     		mov	r0, r5
 4666 08ba 2146     		mov	r1, r4
 4667              		.loc 1 1315 0
 4668 08bc 7F78     		ldrb	r7, [r7, #1]	@ zero_extendqisi2
 4669              	.LVL521:
 4670              		.loc 1 1316 0
 4671 08be FFF7FEFF 		bl	buffer_get_int16
 4672              	.LVL522:
 4673              		.loc 1 1318 0
 4674 08c2 4FF00008 		mov	r8, #0
ARM GAS  /tmp/cc8pZ867.s 			page 83


 4675              		.loc 1 1316 0
 4676 08c6 0546     		mov	r5, r0
 4677              	.LVL523:
 4678              	.L483:
 4679              	.LBB370:
 4680              	.LBB371:
 4681              		.loc 1 1320 0
 4682 08c8 4046     		mov	r0, r8
 4683 08ca FFF7FEFF 		bl	comm_can_get_psw_status_index
 4684              	.LVL524:
 4685              		.loc 1 1321 0
 4686 08ce 0368     		ldr	r3, [r0]
 4687 08d0 002B     		cmp	r3, #0
 4688 08d2 04DB     		blt	.L482
 4689              		.loc 1 1322 0 discriminator 2
 4690 08d4 08F10108 		add	r8, r8, #1
 4691              	.LVL525:
 4692              	.LBE371:
 4693              		.loc 1 1319 0 discriminator 2
 4694 08d8 B8F10A0F 		cmp	r8, #10
 4695 08dc F4D1     		bne	.L483
 4696              	.L482:
 4697              	.LVL526:
 4698              	.LBE370:
 4699              		.loc 1 1329 0
 4700 08de 002F     		cmp	r7, #0
 4701 08e0 40F00787 		bne	.L876
 4702              		.loc 1 1331 0
 4703 08e4 4545     		cmp	r5, r8
 4704 08e6 BFF6ADAC 		bge	.L287
 4705              		.loc 1 1332 0
 4706 08ea 2846     		mov	r0, r5
 4707              	.LVL527:
 4708 08ec FFF7FEFF 		bl	comm_can_get_psw_status_index
 4709              	.LVL528:
 4710 08f0 0546     		mov	r5, r0
 4711              	.LVL529:
 4712              	.L485:
 4713              		.loc 1 1335 0
 4714 08f2 002D     		cmp	r5, #0
 4715 08f4 3FF4A6AC 		beq	.L287
 4716              	.LBB372:
 4717              		.loc 1 1339 0
 4718 08f8 2AAF     		add	r7, sp, #168
 4719              	.LVL530:
 4720 08fa 6F23     		movs	r3, #111
 4721 08fc 07F8483D 		strb	r3, [r7, #-72]!
 4722              		.loc 1 1340 0
 4723 0900 2246     		mov	r2, r4
 4724              		.loc 1 1339 0
 4725 0902 0123     		movs	r3, #1
 4726              		.loc 1 1340 0
 4727 0904 B5F90010 		ldrsh	r1, [r5]
 4728              		.loc 1 1339 0
 4729 0908 1493     		str	r3, [sp, #80]
 4730              		.loc 1 1340 0
 4731 090a 3846     		mov	r0, r7
ARM GAS  /tmp/cc8pZ867.s 			page 84


 4732              	.LVL531:
 4733 090c FFF7FEFF 		bl	buffer_append_int16
 4734              	.LVL532:
 4735              		.loc 1 1341 0
 4736 0910 2246     		mov	r2, r4
 4737 0912 0FFA88F1 		sxth	r1, r8
 4738 0916 3846     		mov	r0, r7
 4739 0918 FFF7FEFF 		bl	buffer_append_int16
 4740              	.LVL533:
 4741              	.LBB373:
 4742              	.LBB374:
 4743              	.LBB375:
 4744              	.LBB376:
 4745              		.file 3 "ChibiOS_3.0.5/os/rt/include/chvt.h"
 4746              		.loc 3 231 0
 4747 091c A34B     		ldr	r3, .L926
 4748              	.LBE376:
 4749              	.LBE375:
 4750              		.loc 3 267 0
 4751 091e 6A68     		ldr	r2, [r5, #4]
 4752              	.LBB378:
 4753              	.LBB377:
 4754              		.loc 3 231 0
 4755 0920 9B6A     		ldr	r3, [r3, #40]
 4756              	.LVL534:
 4757              	.LBE377:
 4758              	.LBE378:
 4759              	.LBE374:
 4760              	.LBE373:
 4761              		.loc 1 1342 0
 4762 0922 9FEDA30A 		vldr.32	s0, .L926+4
 4763              	.LBB380:
 4764              	.LBB379:
 4765              		.loc 3 267 0
 4766 0926 9B1A     		subs	r3, r3, r2
 4767              	.LBE379:
 4768              	.LBE380:
 4769              		.loc 1 1342 0
 4770 0928 07EE903A 		vmov	s15, r3	@ int
 4771 092c F8EE677A 		vcvt.f32.u32	s15, s15
 4772 0930 3846     		mov	r0, r7
 4773 0932 87EE800A 		vdiv.f32	s0, s15, s0
 4774 0936 2146     		mov	r1, r4
 4775 0938 FFF7FEFF 		bl	buffer_append_float32_auto
 4776              	.LVL535:
 4777              		.loc 1 1343 0
 4778 093c 2146     		mov	r1, r4
 4779 093e 3846     		mov	r0, r7
 4780 0940 95ED020A 		vldr.32	s0, [r5, #8]
 4781 0944 FFF7FEFF 		bl	buffer_append_float32_auto
 4782              	.LVL536:
 4783              		.loc 1 1344 0
 4784 0948 2146     		mov	r1, r4
 4785 094a 3846     		mov	r0, r7
 4786 094c 95ED030A 		vldr.32	s0, [r5, #12]
 4787 0950 FFF7FEFF 		bl	buffer_append_float32_auto
 4788              	.LVL537:
ARM GAS  /tmp/cc8pZ867.s 			page 85


 4789              		.loc 1 1345 0
 4790 0954 2146     		mov	r1, r4
 4791 0956 3846     		mov	r0, r7
 4792 0958 95ED040A 		vldr.32	s0, [r5, #16]
 4793 095c FFF7FEFF 		bl	buffer_append_float32_auto
 4794              	.LVL538:
 4795              		.loc 1 1346 0
 4796 0960 149B     		ldr	r3, [sp, #80]
 4797 0962 297D     		ldrb	r1, [r5, #20]	@ zero_extendqisi2
 4798 0964 2AAA     		add	r2, sp, #168
 4799 0966 1A44     		add	r2, r2, r3
 4800              		.loc 1 1348 0
 4801 0968 0333     		adds	r3, r3, #3
 4802              		.loc 1 1346 0
 4803 096a 02F8481C 		strb	r1, [r2, #-72]
 4804              		.loc 1 1347 0
 4805 096e 697D     		ldrb	r1, [r5, #21]	@ zero_extendqisi2
 4806 0970 02F8471C 		strb	r1, [r2, #-71]
 4807              		.loc 1 1348 0
 4808 0974 A97D     		ldrb	r1, [r5, #22]	@ zero_extendqisi2
 4809 0976 02F8461C 		strb	r1, [r2, #-70]
 4810              		.loc 1 1350 0
 4811 097a 3846     		mov	r0, r7
 4812 097c 1946     		mov	r1, r3
 4813              		.loc 1 1348 0
 4814 097e 1493     		str	r3, [sp, #80]
 4815              		.loc 1 1350 0
 4816 0980 B047     		blx	r6
 4817              	.LVL539:
 4818              	.LBE372:
 4819              	.LBE369:
 4820              		.loc 1 1352 0
 4821 0982 5FE4     		b	.L287
 4822              	.LVL540:
 4823              	.L354:
 4824              	.LBB381:
 4825              		.loc 1 1355 0
 4826 0984 2AA9     		add	r1, sp, #168
 4827 0986 0023     		movs	r3, #0
 4828 0988 41F8483D 		str	r3, [r1, #-72]!
 4829              		.loc 1 1356 0
 4830 098c 2846     		mov	r0, r5
 4831 098e FFF7FEFF 		bl	buffer_get_int16
 4832              	.LVL541:
 4833              		.loc 1 1357 0
 4834 0992 189B     		ldr	r3, [sp, #96]
 4835              		.loc 1 1358 0
 4836 0994 EA18     		adds	r2, r5, r3
 4837              		.loc 1 1357 0
 4838 0996 E95C     		ldrb	r1, [r5, r3]	@ zero_extendqisi2
 4839              	.LVL542:
 4840              		.loc 1 1358 0
 4841 0998 5278     		ldrb	r2, [r2, #1]	@ zero_extendqisi2
 4842              		.loc 1 1359 0
 4843 099a 0031     		adds	r1, r1, #0
 4844 099c 18BF     		it	ne
 4845 099e 0121     		movne	r1, #1
ARM GAS  /tmp/cc8pZ867.s 			page 86


 4846              	.LVL543:
 4847 09a0 0032     		adds	r2, r2, #0
 4848              		.loc 1 1358 0
 4849 09a2 03F10203 		add	r3, r3, #2
 4850              	.LVL544:
 4851              		.loc 1 1359 0
 4852 09a6 18BF     		it	ne
 4853 09a8 0122     		movne	r2, #1
 4854              		.loc 1 1358 0
 4855 09aa 1893     		str	r3, [sp, #96]
 4856              	.LVL545:
 4857              		.loc 1 1359 0
 4858 09ac FFF7FEFF 		bl	comm_can_psw_switch
 4859              	.LVL546:
 4860              	.LBE381:
 4861              		.loc 1 1360 0
 4862 09b0 48E4     		b	.L287
 4863              	.L355:
 4864              	.LBB382:
 4865              		.loc 1 1265 0
 4866 09b2 0023     		movs	r3, #0
 4867 09b4 1493     		str	r3, [sp, #80]
 4868              		.loc 1 1267 0
 4869 09b6 FFF7FEFF 		bl	mc_interface_get_configuration
 4870              	.LVL547:
 4871              		.loc 1 1269 0
 4872 09ba 149B     		ldr	r3, [sp, #80]
 4873              		.loc 1 1270 0
 4874 09bc DFED7D0A 		vldr.32	s1, .L926+8
 4875              		.loc 1 1269 0
 4876 09c0 2AAA     		add	r2, sp, #168
 4877 09c2 1A44     		add	r2, r2, r3
 4878 09c4 7321     		movs	r1, #115
 4879 09c6 02F8481C 		strb	r1, [r2, #-72]
 4880              		.loc 1 1270 0
 4881 09ca 90ED0C0A 		vldr.32	s0, [r0, #48]
 4882              		.loc 1 1269 0
 4883 09ce 0133     		adds	r3, r3, #1
 4884              		.loc 1 1267 0
 4885 09d0 0446     		mov	r4, r0
 4886              	.LVL548:
 4887              		.loc 1 1270 0
 4888 09d2 14A9     		add	r1, sp, #80
 4889 09d4 18A8     		add	r0, sp, #96
 4890              	.LVL549:
 4891              		.loc 1 1269 0
 4892 09d6 1493     		str	r3, [sp, #80]
 4893              		.loc 1 1270 0
 4894 09d8 FFF7FEFF 		bl	buffer_append_float32
 4895              	.LVL550:
 4896              		.loc 1 1271 0
 4897 09dc 14A9     		add	r1, sp, #80
 4898 09de 18A8     		add	r0, sp, #96
 4899 09e0 94ED0D0A 		vldr.32	s0, [r4, #52]
 4900 09e4 DFED730A 		vldr.32	s1, .L926+8
 4901 09e8 FFF7FEFF 		bl	buffer_append_float32
 4902              	.LVL551:
ARM GAS  /tmp/cc8pZ867.s 			page 87


 4903              		.loc 1 1273 0
 4904 09ec 18A8     		add	r0, sp, #96
 4905 09ee 1499     		ldr	r1, [sp, #80]
 4906 09f0 B047     		blx	r6
 4907              	.LVL552:
 4908              	.LBE382:
 4909              		.loc 1 1274 0
 4910 09f2 27E4     		b	.L287
 4911              	.LVL553:
 4912              	.L356:
 4913              	.LBB383:
 4914              		.loc 1 1388 0
 4915 09f4 2AAC     		add	r4, sp, #168
 4916 09f6 4FF0000B 		mov	fp, #0
 4917 09fa 44F858BD 		str	fp, [r4, #-88]!
 4918              		.loc 1 1390 0
 4919 09fe 2846     		mov	r0, r5
 4920 0a00 2146     		mov	r1, r4
 4921 0a02 FFF7FEFF 		bl	buffer_get_int32
 4922              	.LVL554:
 4923              		.loc 1 1391 0
 4924 0a06 2146     		mov	r1, r4
 4925              		.loc 1 1390 0
 4926 0a08 8046     		mov	r8, r0
 4927              	.LVL555:
 4928              		.loc 1 1391 0
 4929 0a0a 2846     		mov	r0, r5
 4930              	.LVL556:
 4931 0a0c FFF7FEFF 		bl	buffer_get_int32
 4932              	.LVL557:
 4933 0a10 8246     		mov	r10, r0
 4934              	.LVL558:
 4935              		.loc 1 1393 0
 4936 0a12 5846     		mov	r0, fp
 4937              	.LVL559:
 4938 0a14 FFF7FEFF 		bl	flash_helper_code_data
 4939              	.LVL560:
 4940 0a18 0746     		mov	r7, r0
 4941              	.LVL561:
 4942              		.loc 1 1394 0
 4943 0a1a 5846     		mov	r0, fp
 4944              	.LVL562:
 4945 0a1c FFF7FEFF 		bl	flash_helper_code_size
 4946              	.LVL563:
 4947              		.loc 1 1401 0
 4948 0a20 B9F1820F 		cmp	r9, #130
 4949              		.loc 1 1394 0
 4950 0a24 8346     		mov	fp, r0
 4951              	.LVL564:
 4952              		.loc 1 1401 0
 4953 0a26 00F05486 		beq	.L877
 4954              	.L489:
 4955              		.loc 1 1406 0
 4956 0a2a 002F     		cmp	r7, #0
 4957 0a2c 00F09586 		beq	.L878
 4958              		.loc 1 1416 0
 4959 0a30 08EB0A03 		add	r3, r8, r10
ARM GAS  /tmp/cc8pZ867.s 			page 88


 4960 0a34 5B45     		cmp	r3, fp
 4961 0a36 3FF705AC 		bgt	.L287
 4962              		.loc 1 1416 0 is_stmt 0 discriminator 1
 4963 0a3a B8F5FB7F 		cmp	r8, #502
 4964 0a3e 3FF701AC 		bgt	.L287
 4965              		.loc 1 1422 0 is_stmt 1
 4966 0a42 5D4D     		ldr	r5, .L926+12
 4967              	.LVL565:
 4968              		.loc 1 1420 0
 4969 0a44 5D48     		ldr	r0, .L926+16
 4970              	.LVL566:
 4971 0a46 FFF7FEFF 		bl	chMtxLock
 4972              	.LVL567:
 4973              		.loc 1 1422 0
 4974 0a4a 0123     		movs	r3, #1
 4975              		.loc 1 1423 0
 4976 0a4c 5946     		mov	r1, fp
 4977 0a4e 2846     		mov	r0, r5
 4978 0a50 2246     		mov	r2, r4
 4979              		.loc 1 1422 0
 4980 0a52 1493     		str	r3, [sp, #80]
 4981 0a54 85F80090 		strb	r9, [r5]
 4982              		.loc 1 1423 0
 4983 0a58 FFF7FEFF 		bl	buffer_append_int32
 4984              	.LVL568:
 4985              		.loc 1 1424 0
 4986 0a5c 2246     		mov	r2, r4
 4987 0a5e 5146     		mov	r1, r10
 4988 0a60 2846     		mov	r0, r5
 4989 0a62 FFF7FEFF 		bl	buffer_append_int32
 4990              	.LVL569:
 4991              		.loc 1 1425 0
 4992 0a66 149C     		ldr	r4, [sp, #80]
 4993 0a68 07EB0A01 		add	r1, r7, r10
 4994 0a6c 2819     		adds	r0, r5, r4
 4995 0a6e 4246     		mov	r2, r8
 4996              		.loc 1 1426 0
 4997 0a70 4444     		add	r4, r4, r8
 4998              		.loc 1 1425 0
 4999 0a72 FFF7FEFF 		bl	memcpy
 5000              	.LVL570:
 5001              		.loc 1 1427 0
 5002 0a76 2846     		mov	r0, r5
 5003 0a78 2146     		mov	r1, r4
 5004              		.loc 1 1426 0
 5005 0a7a 1494     		str	r4, [sp, #80]
 5006              		.loc 1 1427 0
 5007 0a7c B047     		blx	r6
 5008              	.LVL571:
 5009              		.loc 1 1429 0
 5010 0a7e 4F48     		ldr	r0, .L926+16
 5011 0a80 FFF7FEFF 		bl	chMtxUnlock
 5012              	.LVL572:
 5013              	.LBE383:
 5014              		.loc 1 1430 0
 5015 0a84 FFF7DEBB 		b	.L287
 5016              	.LVL573:
ARM GAS  /tmp/cc8pZ867.s 			page 89


 5017              	.L357:
 5018              		.loc 1 748 0
 5019 0a88 4D4B     		ldr	r3, .L926+20
 5020 0a8a 1A68     		ldr	r2, [r3]
 5021 0a8c 002A     		cmp	r2, #0
 5022 0a8e 3FF4D9AB 		beq	.L287
 5023              	.L828:
 5024              		.loc 1 749 0
 5025 0a92 1B68     		ldr	r3, [r3]
 5026 0a94 5146     		mov	r1, r10
 5027 0a96 2846     		mov	r0, r5
 5028 0a98 9847     		blx	r3
 5029              	.LVL574:
 5030 0a9a FFF7D3BB 		b	.L287
 5031              	.L323:
 5032              	.LBB385:
 5033              		.loc 1 754 0
 5034 0a9e 2AA9     		add	r1, sp, #168
 5035 0aa0 0024     		movs	r4, #0
 5036 0aa2 41F8584D 		str	r4, [r1, #-88]!
 5037              		.loc 1 755 0
 5038 0aa6 2846     		mov	r0, r5
 5039 0aa8 FFF7FEFF 		bl	buffer_get_int32
 5040              	.LVL575:
 5041 0aac FFF7FEFF 		bl	nrf_driver_start_pairing
 5042              	.LVL576:
 5043              		.loc 1 760 0
 5044 0ab0 0223     		movs	r3, #2
 5045              		.loc 1 759 0
 5046 0ab2 2522     		movs	r2, #37
 5047              		.loc 1 761 0
 5048 0ab4 1946     		mov	r1, r3
 5049 0ab6 18A8     		add	r0, sp, #96
 5050              		.loc 1 760 0
 5051 0ab8 8DF86140 		strb	r4, [sp, #97]
 5052 0abc 1493     		str	r3, [sp, #80]
 5053              		.loc 1 759 0
 5054 0abe 8DF86020 		strb	r2, [sp, #96]
 5055              		.loc 1 761 0
 5056 0ac2 B047     		blx	r6
 5057              	.LVL577:
 5058              	.LBE385:
 5059              		.loc 1 762 0
 5060 0ac4 FFF7BEBB 		b	.L287
 5061              	.L324:
 5062              	.LBB386:
 5063              		.loc 1 765 0
 5064 0ac8 FFF7FEFF 		bl	timeout_reset
 5065              	.LVL578:
 5066              		.loc 1 766 0
 5067 0acc 2AA9     		add	r1, sp, #168
 5068 0ace 0023     		movs	r3, #0
 5069 0ad0 41F8483D 		str	r3, [r1, #-72]!
 5070              		.loc 1 767 0
 5071 0ad4 2846     		mov	r0, r5
 5072 0ad6 FFF7FEFF 		bl	buffer_get_int32
 5073              	.LVL579:
ARM GAS  /tmp/cc8pZ867.s 			page 90


 5074 0ada 07EE900A 		vmov	s15, r0	@ int
 5075 0ade B8EEE70A 		vcvt.f32.s32	s0, s15
 5076 0ae2 FFF7FEFF 		bl	gpdrive_set_switching_frequency
 5077              	.LVL580:
 5078              	.LBE386:
 5079              		.loc 1 768 0
 5080 0ae6 FFF7ADBB 		b	.L287
 5081              	.L325:
 5082              	.LBB387:
 5083              		.loc 1 773 0
 5084 0aea 0122     		movs	r2, #1
 5085 0aec 2823     		movs	r3, #40
 5086 0aee 1492     		str	r2, [sp, #80]
 5087 0af0 8DF86030 		strb	r3, [sp, #96]
 5088              		.loc 1 774 0
 5089 0af4 FFF7FEFF 		bl	gpdrive_buffer_size_left
 5090              	.LVL581:
 5091 0af8 14AA     		add	r2, sp, #80
 5092 0afa 0146     		mov	r1, r0
 5093 0afc BCE6     		b	.L829
 5094              	.L326:
 5095              	.LBE387:
 5096              	.LBB388:
 5097              		.loc 1 779 0
 5098 0afe FFF7FEFF 		bl	timeout_reset
 5099              	.LVL582:
 5100              		.loc 1 780 0
 5101 0b02 0023     		movs	r3, #0
 5102              		.loc 1 781 0
 5103 0b04 9A45     		cmp	r10, r3
 5104              		.loc 1 780 0
 5105 0b06 1893     		str	r3, [sp, #96]
 5106              		.loc 1 781 0
 5107 0b08 7FF79CAB 		ble	.L287
 5108 0b0c 0DF1600B 		add	fp, sp, #96
 5109              	.L414:
 5110              		.loc 1 782 0
 5111 0b10 5946     		mov	r1, fp
 5112 0b12 2846     		mov	r0, r5
 5113 0b14 FFF7FEFF 		bl	buffer_get_float32_auto
 5114              	.LVL583:
 5115 0b18 FFF7FEFF 		bl	gpdrive_add_buffer_sample
 5116              	.LVL584:
 5117              		.loc 1 781 0
 5118 0b1c 189B     		ldr	r3, [sp, #96]
 5119 0b1e 5345     		cmp	r3, r10
 5120 0b20 F6DB     		blt	.L414
 5121 0b22 FFF78FBB 		b	.L287
 5122              	.L327:
 5123              	.LBE388:
 5124              	.LBB389:
 5125              		.loc 1 787 0
 5126 0b26 FFF7FEFF 		bl	timeout_reset
 5127              	.LVL585:
 5128              		.loc 1 788 0
 5129 0b2a 2AA9     		add	r1, sp, #168
 5130 0b2c 0023     		movs	r3, #0
ARM GAS  /tmp/cc8pZ867.s 			page 91


 5131 0b2e 41F8483D 		str	r3, [r1, #-72]!
 5132              		.loc 1 789 0
 5133 0b32 2846     		mov	r0, r5
 5134 0b34 FFF7FEFF 		bl	buffer_get_float32_auto
 5135              	.LVL586:
 5136 0b38 FFF7FEFF 		bl	gpdrive_output_sample
 5137              	.LVL587:
 5138              	.LBE389:
 5139              		.loc 1 790 0
 5140 0b3c FFF782BB 		b	.L287
 5141              	.L328:
 5142              	.LBB390:
 5143              		.loc 1 793 0
 5144 0b40 FFF7FEFF 		bl	timeout_reset
 5145              	.LVL588:
 5146              		.loc 1 795 0
 5147 0b44 7878     		ldrb	r0, [r7, #1]	@ zero_extendqisi2
 5148 0b46 FFF7FEFF 		bl	gpdrive_set_mode
 5149              	.LVL589:
 5150              	.LBE390:
 5151              		.loc 1 796 0
 5152 0b4a FFF77BBB 		b	.L287
 5153              	.LVL590:
 5154              	.L329:
 5155              	.LBB391:
 5156              		.loc 1 799 0
 5157 0b4e FFF7FEFF 		bl	timeout_reset
 5158              	.LVL591:
 5159              		.loc 1 801 0
 5160 0b52 BAF1000F 		cmp	r10, #0
 5161 0b56 7FF775AB 		ble	.L287
 5162 0b5a 7B1E     		subs	r3, r7, #1
 5163 0b5c 9844     		add	r8, r8, r3
 5164              	.LVL592:
 5165              	.L415:
 5166              		.loc 1 802 0
 5167 0b5e 17F9010F 		ldrsb	r0, [r7, #1]!
 5168              	.LVL593:
 5169 0b62 FFF7FEFF 		bl	gpdrive_add_buffer_sample_int
 5170              	.LVL594:
 5171              		.loc 1 801 0
 5172 0b66 4745     		cmp	r7, r8
 5173 0b68 F9D1     		bne	.L415
 5174 0b6a FFF76BBB 		b	.L287
 5175              	.LVL595:
 5176              	.L330:
 5177              	.LBE391:
 5178              	.LBB392:
 5179              		.loc 1 807 0
 5180 0b6e FFF7FEFF 		bl	timeout_reset
 5181              	.LVL596:
 5182              		.loc 1 808 0
 5183 0b72 0023     		movs	r3, #0
 5184              		.loc 1 809 0
 5185 0b74 9A45     		cmp	r10, r3
 5186              		.loc 1 808 0
 5187 0b76 1893     		str	r3, [sp, #96]
ARM GAS  /tmp/cc8pZ867.s 			page 92


 5188              		.loc 1 809 0
 5189 0b78 7FF764AB 		ble	.L287
 5190 0b7c 0DF1600B 		add	fp, sp, #96
 5191              	.L417:
 5192              		.loc 1 810 0
 5193 0b80 5946     		mov	r1, fp
 5194 0b82 2846     		mov	r0, r5
 5195 0b84 FFF7FEFF 		bl	buffer_get_int16
 5196              	.LVL597:
 5197 0b88 FFF7FEFF 		bl	gpdrive_add_buffer_sample_int
 5198              	.LVL598:
 5199              		.loc 1 809 0
 5200 0b8c 189B     		ldr	r3, [sp, #96]
 5201 0b8e 5345     		cmp	r3, r10
 5202 0b90 F6DB     		blt	.L417
 5203 0b92 FFF757BB 		b	.L287
 5204              	.L331:
 5205              	.LBE392:
 5206              	.LBB393:
 5207              		.loc 1 815 0
 5208 0b96 2AA9     		add	r1, sp, #168
 5209 0b98 0023     		movs	r3, #0
 5210 0b9a 41F8483D 		str	r3, [r1, #-72]!
 5211              		.loc 1 816 0
 5212 0b9e 2846     		mov	r0, r5
 5213 0ba0 FFF7FEFF 		bl	buffer_get_float32_auto
 5214              	.LVL599:
 5215 0ba4 FFF7FEFF 		bl	gpdrive_set_buffer_int_scale
 5216              	.LVL600:
 5217              	.LBE393:
 5218              		.loc 1 817 0
 5219 0ba8 FFF74CBB 		b	.L287
 5220              	.L927:
 5221              		.align	2
 5222              	.L926:
 5223 0bac 00000000 		.word	ch
 5224 0bb0 00401C46 		.word	1176256512
 5225 0bb4 00007A44 		.word	1148846080
 5226 0bb8 00000000 		.word	.LANCHOR19
 5227 0bbc 00000000 		.word	.LANCHOR10
 5228 0bc0 00000000 		.word	.LANCHOR18
 5229              	.L333:
 5230              	.LBB394:
 5231              		.loc 1 923 0
 5232 0bc4 FFF7FEFF 		bl	mempools_alloc_mcconf
 5233              	.LVL601:
 5234 0bc8 8346     		mov	fp, r0
 5235              	.LVL602:
 5236              		.loc 1 924 0
 5237 0bca FFF7FEFF 		bl	mc_interface_get_configuration
 5238              	.LVL603:
 5239 0bce 4FF42372 		mov	r2, #652
 5240 0bd2 0146     		mov	r1, r0
 5241 0bd4 5846     		mov	r0, fp
 5242 0bd6 FFF7FEFF 		bl	memcpy
 5243              	.LVL604:
 5244              		.loc 1 927 0
ARM GAS  /tmp/cc8pZ867.s 			page 93


 5245 0bda 7A78     		ldrb	r2, [r7, #1]	@ zero_extendqisi2
 5246 0bdc 0292     		str	r2, [sp, #8]
 5247              	.LVL605:
 5248              		.loc 1 928 0
 5249 0bde BA78     		ldrb	r2, [r7, #2]	@ zero_extendqisi2
 5250 0be0 0392     		str	r2, [sp, #12]
 5251              	.LVL606:
 5252              		.loc 1 934 0
 5253 0be2 3B79     		ldrb	r3, [r7, #4]	@ zero_extendqisi2
 5254              		.loc 1 929 0
 5255 0be4 FA78     		ldrb	r2, [r7, #3]	@ zero_extendqisi2
 5256 0be6 0492     		str	r2, [sp, #16]
 5257              	.LVL607:
 5258              		.loc 1 930 0
 5259 0be8 0422     		movs	r2, #4
 5260 0bea 1492     		str	r2, [sp, #80]
 5261              	.LVL608:
 5262              		.loc 1 934 0
 5263 0bec 002B     		cmp	r3, #0
 5264 0bee 00F05385 		beq	.L516
 5265              	.LBB395:
 5266              	.LBB396:
 5267              	.LBB397:
 5268              	.LBB398:
 5269              	.LBB399:
 5270              	.LBB400:
 5271              		.loc 3 231 0
 5272 0bf2 D84A     		ldr	r2, .L928
 5273              	.LBE400:
 5274              	.LBE399:
 5275              	.LBE398:
 5276              	.LBE397:
 5277              		.loc 1 937 0
 5278 0bf4 9FEDD89A 		vldr.32	s18, .L928+4
 5279 0bf8 DFEDD88A 		vldr.32	s17, .L928+8
 5280              	.LBE396:
 5281              		.loc 1 935 0
 5282 0bfc 0024     		movs	r4, #0
 5283              	.LBE395:
 5284              		.loc 1 932 0
 5285 0bfe B7EE008A 		vmov.f32	s16, #1.0e+0
 5286              	.LVL609:
 5287              	.L444:
 5288              	.LBB407:
 5289              	.LBB405:
 5290              		.loc 1 936 0
 5291 0c02 2046     		mov	r0, r4
 5292 0c04 0592     		str	r2, [sp, #20]
 5293              	.LVL610:
 5294 0c06 FFF7FEFF 		bl	comm_can_get_status_msg_index
 5295              	.LVL611:
 5296              		.loc 1 937 0
 5297 0c0a 0368     		ldr	r3, [r0]
 5298 0c0c 059A     		ldr	r2, [sp, #20]
 5299 0c0e 002B     		cmp	r3, #0
 5300              	.LBE405:
 5301              		.loc 1 935 0
ARM GAS  /tmp/cc8pZ867.s 			page 94


 5302 0c10 04F10104 		add	r4, r4, #1
 5303              	.LVL612:
 5304              	.LBB406:
 5305              		.loc 1 937 0
 5306 0c14 11DB     		blt	.L442
 5307              	.LBB404:
 5308              	.LBB403:
 5309              		.loc 3 267 0 discriminator 1
 5310 0c16 4168     		ldr	r1, [r0, #4]
 5311              	.LBB402:
 5312              	.LBB401:
 5313              		.loc 3 231 0 discriminator 1
 5314 0c18 936A     		ldr	r3, [r2, #40]
 5315              	.LVL613:
 5316              	.LBE401:
 5317              	.LBE402:
 5318              		.loc 3 267 0 discriminator 1
 5319 0c1a 5B1A     		subs	r3, r3, r1
 5320              	.LBE403:
 5321              	.LBE404:
 5322              		.loc 1 937 0 discriminator 1
 5323 0c1c 07EE903A 		vmov	s15, r3	@ int
 5324 0c20 F8EE677A 		vcvt.f32.u32	s15, s15
 5325              		.loc 1 938 0 discriminator 1
 5326 0c24 B7EE007A 		vmov.f32	s14, #1.0e+0
 5327              		.loc 1 937 0 discriminator 1
 5328 0c28 C7EE896A 		vdiv.f32	s13, s15, s18
 5329 0c2c F4EEE86A 		vcmpe.f32	s13, s17
 5330 0c30 F1EE10FA 		vmrs	APSR_nzcv, FPSCR
 5331              		.loc 1 938 0 discriminator 1
 5332 0c34 48BF     		it	mi
 5333 0c36 38EE078A 		vaddmi.f32	s16, s16, s14
 5334              	.LVL614:
 5335              	.L442:
 5336              	.LBE406:
 5337              		.loc 1 935 0 discriminator 2
 5338 0c3a 0A2C     		cmp	r4, #10
 5339 0c3c E1D1     		bne	.L444
 5340              	.LVL615:
 5341              	.L441:
 5342              	.LBE407:
 5343              		.loc 1 943 0
 5344 0c3e 14AC     		add	r4, sp, #80
 5345 0c40 2146     		mov	r1, r4
 5346 0c42 2846     		mov	r0, r5
 5347 0c44 FFF7FEFF 		bl	buffer_get_float32_auto
 5348              	.LVL616:
 5349              		.loc 1 944 0
 5350 0c48 2146     		mov	r1, r4
 5351              		.loc 1 943 0
 5352 0c4a 8BED190A 		vstr.32	s0, [fp, #100]
 5353              		.loc 1 944 0
 5354 0c4e 2846     		mov	r0, r5
 5355 0c50 FFF7FEFF 		bl	buffer_get_float32_auto
 5356              	.LVL617:
 5357              		.loc 1 946 0
 5358 0c54 B9F1310F 		cmp	r9, #49
ARM GAS  /tmp/cc8pZ867.s 			page 95


 5359              		.loc 1 944 0
 5360 0c58 8BED180A 		vstr.32	s0, [fp, #96]
 5361              		.loc 1 946 0
 5362 0c5c 00F0F986 		beq	.L879
 5363              		.loc 1 960 0
 5364 0c60 2146     		mov	r1, r4
 5365 0c62 2846     		mov	r0, r5
 5366 0c64 FFF7FEFF 		bl	buffer_get_float32_auto
 5367              	.LVL618:
 5368              		.loc 1 961 0
 5369 0c68 2146     		mov	r1, r4
 5370              		.loc 1 960 0
 5371 0c6a 8BED050A 		vstr.32	s0, [fp, #20]
 5372              		.loc 1 961 0
 5373 0c6e 2846     		mov	r0, r5
 5374 0c70 FFF7FEFF 		bl	buffer_get_float32_auto
 5375              	.LVL619:
 5376 0c74 8BED060A 		vstr.32	s0, [fp, #24]
 5377              	.L446:
 5378              		.loc 1 964 0
 5379 0c78 2146     		mov	r1, r4
 5380 0c7a 2846     		mov	r0, r5
 5381 0c7c FFF7FEFF 		bl	buffer_get_float32_auto
 5382              	.LVL620:
 5383              		.loc 1 965 0
 5384 0c80 2146     		mov	r1, r4
 5385 0c82 2846     		mov	r0, r5
 5386              		.loc 1 964 0
 5387 0c84 8BED140A 		vstr.32	s0, [fp, #80]
 5388              		.loc 1 965 0
 5389 0c88 FFF7FEFF 		bl	buffer_get_float32_auto
 5390              	.LVL621:
 5391              		.loc 1 966 0
 5392 0c8c 2146     		mov	r1, r4
 5393 0c8e 2846     		mov	r0, r5
 5394              		.loc 1 965 0
 5395 0c90 8BED150A 		vstr.32	s0, [fp, #84]
 5396              		.loc 1 966 0
 5397 0c94 FFF7FEFF 		bl	buffer_get_float32_auto
 5398              	.LVL622:
 5399 0c98 80EE080A 		vdiv.f32	s0, s0, s16
 5400              		.loc 1 967 0
 5401 0c9c 2146     		mov	r1, r4
 5402 0c9e 2846     		mov	r0, r5
 5403              		.loc 1 966 0
 5404 0ca0 8BED170A 		vstr.32	s0, [fp, #92]
 5405              		.loc 1 967 0
 5406 0ca4 FFF7FEFF 		bl	buffer_get_float32_auto
 5407              	.LVL623:
 5408 0ca8 C0EE087A 		vdiv.f32	s15, s0, s16
 5409              		.loc 1 972 0
 5410 0cac 149B     		ldr	r3, [sp, #80]
 5411              		.loc 1 973 0
 5412 0cae 2146     		mov	r1, r4
 5413              		.loc 1 972 0
 5414 0cb0 083B     		subs	r3, r3, #8
 5415              		.loc 1 973 0
ARM GAS  /tmp/cc8pZ867.s 			page 96


 5416 0cb2 2846     		mov	r0, r5
 5417 0cb4 9BED170A 		vldr.32	s0, [fp, #92]
 5418              		.loc 1 967 0
 5419 0cb8 CBED167A 		vstr.32	s15, [fp, #88]
 5420              		.loc 1 972 0
 5421 0cbc 1493     		str	r3, [sp, #80]
 5422              		.loc 1 973 0
 5423 0cbe FFF7FEFF 		bl	buffer_append_float32_auto
 5424              	.LVL624:
 5425              		.loc 1 974 0
 5426 0cc2 2146     		mov	r1, r4
 5427 0cc4 9BED160A 		vldr.32	s0, [fp, #88]
 5428 0cc8 2846     		mov	r0, r5
 5429 0cca FFF7FEFF 		bl	buffer_append_float32_auto
 5430              	.LVL625:
 5431              		.loc 1 977 0
 5432 0cce 149B     		ldr	r3, [sp, #80]
 5433 0cd0 0733     		adds	r3, r3, #7
 5434 0cd2 5345     		cmp	r3, r10
 5435 0cd4 C0F2AF86 		blt	.L880
 5436              	.L447:
 5437              		.loc 1 982 0
 5438 0cd8 9BED017A 		vldr.32	s14, [fp, #4]
 5439 0cdc 9BED196A 		vldr.32	s12, [fp, #100]
 5440              		.loc 1 983 0
 5441 0ce0 DBED007A 		vldr.32	s15, [fp]
 5442 0ce4 DBED186A 		vldr.32	s13, [fp, #96]
 5443              		.loc 1 987 0
 5444 0ce8 DBF80830 		ldr	r3, [fp, #8]	@ float
 5445              		.loc 1 986 0
 5446 0cec DBF80C20 		ldr	r2, [fp, #12]	@ float
 5447              		.loc 1 987 0
 5448 0cf0 CBF87430 		str	r3, [fp, #116]	@ float
 5449              		.loc 1 982 0
 5450 0cf4 27EE067A 		vmul.f32	s14, s14, s12
 5451              		.loc 1 983 0
 5452 0cf8 67EEA67A 		vmul.f32	s15, s15, s13
 5453              		.loc 1 986 0
 5454 0cfc CBF87820 		str	r2, [fp, #120]	@ float
 5455              		.loc 1 982 0
 5456 0d00 8BED1C7A 		vstr.32	s14, [fp, #112]
 5457              		.loc 1 984 0
 5458 0d04 8BED207A 		vstr.32	s14, [fp, #128]
 5459              		.loc 1 983 0
 5460 0d08 CBED1B7A 		vstr.32	s15, [fp, #108]
 5461              		.loc 1 985 0
 5462 0d0c CBED1F7A 		vstr.32	s15, [fp, #124]
 5463              		.loc 1 989 0
 5464 0d10 5846     		mov	r0, fp
 5465 0d12 FFF7FEFF 		bl	commands_apply_mcconf_hw_limits
 5466              	.LVL626:
 5467              		.loc 1 991 0
 5468 0d16 029B     		ldr	r3, [sp, #8]
 5469 0d18 002B     		cmp	r3, #0
 5470 0d1a 40F06C85 		bne	.L881
 5471              	.L448:
 5472              		.loc 1 995 0
ARM GAS  /tmp/cc8pZ867.s 			page 97


 5473 0d1e 5846     		mov	r0, fp
 5474 0d20 FFF7FEFF 		bl	mc_interface_set_configuration
 5475              	.LVL627:
 5476              		.loc 1 997 0
 5477 0d24 039B     		ldr	r3, [sp, #12]
 5478 0d26 43B3     		cbz	r3, .L449
 5479              		.loc 1 999 0
 5480 0d28 0024     		movs	r4, #0
 5481              		.loc 1 998 0
 5482 0d2a 3023     		movs	r3, #48
 5483              	.LBB408:
 5484              	.LBB409:
 5485              		.loc 1 1006 0
 5486 0d2c DFED8A8A 		vldr.32	s17, .L928+4
 5487 0d30 9FED8A8A 		vldr.32	s16, .L928+8
 5488              	.LVL628:
 5489              	.LBB410:
 5490              	.LBB411:
 5491              	.LBB412:
 5492              	.LBB413:
 5493              		.loc 3 231 0
 5494 0d34 874D     		ldr	r5, .L928
 5495              	.LVL629:
 5496              	.LBE413:
 5497              	.LBE412:
 5498              	.LBE411:
 5499              	.LBE410:
 5500              	.LBE409:
 5501              	.LBE408:
 5502              		.loc 1 998 0
 5503 0d36 3B70     		strb	r3, [r7]
 5504              		.loc 1 999 0
 5505 0d38 BC70     		strb	r4, [r7, #2]
 5506              		.loc 1 1000 0
 5507 0d3a FC70     		strb	r4, [r7, #3]
 5508              		.loc 1 1001 0
 5509 0d3c 3C71     		strb	r4, [r7, #4]
 5510              	.LVL630:
 5511              	.L452:
 5512              	.LBB420:
 5513              	.LBB418:
 5514              		.loc 1 1005 0
 5515 0d3e 2046     		mov	r0, r4
 5516 0d40 FFF7FEFF 		bl	comm_can_get_status_msg_index
 5517              	.LVL631:
 5518              		.loc 1 1006 0
 5519 0d44 0268     		ldr	r2, [r0]
 5520 0d46 002A     		cmp	r2, #0
 5521              	.LBE418:
 5522              		.loc 1 1004 0
 5523 0d48 04F10104 		add	r4, r4, #1
 5524              	.LVL632:
 5525              	.LBB419:
 5526              		.loc 1 1006 0
 5527 0d4c 13DB     		blt	.L450
 5528              	.LBB417:
 5529              	.LBB416:
ARM GAS  /tmp/cc8pZ867.s 			page 98


 5530              		.loc 3 267 0 discriminator 1
 5531 0d4e 4168     		ldr	r1, [r0, #4]
 5532              	.LBB415:
 5533              	.LBB414:
 5534              		.loc 3 231 0 discriminator 1
 5535 0d50 AB6A     		ldr	r3, [r5, #40]
 5536              	.LVL633:
 5537              	.LBE414:
 5538              	.LBE415:
 5539              		.loc 3 267 0 discriminator 1
 5540 0d52 5B1A     		subs	r3, r3, r1
 5541              	.LBE416:
 5542              	.LBE417:
 5543              		.loc 1 1006 0 discriminator 1
 5544 0d54 07EE903A 		vmov	s15, r3	@ int
 5545 0d58 F8EE677A 		vcvt.f32.u32	s15, s15
 5546 0d5c 87EEA87A 		vdiv.f32	s14, s15, s17
 5547 0d60 B4EEC87A 		vcmpe.f32	s14, s16
 5548 0d64 F1EE10FA 		vmrs	APSR_nzcv, FPSCR
 5549 0d68 05D5     		bpl	.L450
 5550              		.loc 1 1007 0
 5551 0d6a D0B2     		uxtb	r0, r2
 5552              	.LVL634:
 5553 0d6c 0023     		movs	r3, #0
 5554 0d6e 4246     		mov	r2, r8
 5555 0d70 3946     		mov	r1, r7
 5556 0d72 FFF7FEFF 		bl	comm_can_send_buffer
 5557              	.LVL635:
 5558              	.L450:
 5559              	.LBE419:
 5560              		.loc 1 1004 0 discriminator 2
 5561 0d76 0A2C     		cmp	r4, #10
 5562 0d78 E1D1     		bne	.L452
 5563              	.LVL636:
 5564              	.L449:
 5565              	.LBE420:
 5566              		.loc 1 1012 0
 5567 0d7a 049B     		ldr	r3, [sp, #16]
 5568 0d7c 33B1     		cbz	r3, .L453
 5569              	.LBB421:
 5570              		.loc 1 1015 0
 5571 0d7e 2AA8     		add	r0, sp, #168
 5572 0d80 0123     		movs	r3, #1
 5573 0d82 00F8489D 		strb	r9, [r0, #-72]!
 5574              		.loc 1 1016 0
 5575 0d86 1946     		mov	r1, r3
 5576              		.loc 1 1015 0
 5577 0d88 1493     		str	r3, [sp, #80]
 5578              		.loc 1 1016 0
 5579 0d8a B047     		blx	r6
 5580              	.LVL637:
 5581              	.L453:
 5582              	.LBE421:
 5583              		.loc 1 1019 0
 5584 0d8c 5846     		mov	r0, fp
 5585 0d8e FFF7FEFF 		bl	mempools_free_mcconf
 5586              	.LVL638:
ARM GAS  /tmp/cc8pZ867.s 			page 99


 5587              	.LBE394:
 5588              		.loc 1 1020 0
 5589 0d92 FFF757BA 		b	.L287
 5590              	.LVL639:
 5591              	.L306:
 5592              	.LBB423:
 5593              		.loc 1 488 0
 5594 0d96 2AA9     		add	r1, sp, #168
 5595 0d98 0023     		movs	r3, #0
 5596 0d9a 41F8483D 		str	r3, [r1, #-72]!
 5597              		.loc 1 489 0
 5598 0d9e 2846     		mov	r0, r5
 5599 0da0 9FED720A 		vldr.32	s0, .L928+24
 5600 0da4 FFF7FEFF 		bl	buffer_get_float32
 5601              	.LVL640:
 5602 0da8 FFF7FEFF 		bl	mc_interface_set_handbrake
 5603              	.LVL641:
 5604              		.loc 1 490 0
 5605 0dac FFF7FEFF 		bl	timeout_reset
 5606              	.LVL642:
 5607              	.LBE423:
 5608              		.loc 1 491 0
 5609 0db0 FFF748BA 		b	.L287
 5610              	.L308:
 5611              	.LBB424:
 5612              		.loc 1 509 0
 5613 0db4 2AA9     		add	r1, sp, #168
 5614 0db6 0023     		movs	r3, #0
 5615 0db8 41F8483D 		str	r3, [r1, #-72]!
 5616              		.loc 1 510 0
 5617 0dbc 2846     		mov	r0, r5
 5618 0dbe 9FED6B0A 		vldr.32	s0, .L928+24
 5619 0dc2 FFF7FEFF 		bl	buffer_get_float16
 5620              	.LVL643:
 5621 0dc6 FFF7FEFF 		bl	servo_simple_set_output
 5622              	.LVL644:
 5623              	.LBE424:
 5624              		.loc 1 511 0
 5625 0dca FFF73BBA 		b	.L287
 5626              	.L335:
 5627              		.loc 1 1069 0
 5628 0dce BAF1020F 		cmp	r10, #2
 5629 0dd2 7FF637AA 		bls	.L287
 5630              	.LBB425:
 5631              		.loc 1 1070 0
 5632 0dd6 A8F10304 		sub	r4, r8, #3
 5633              		.loc 1 1073 0
 5634 0dda A844     		add	r8, r8, r5
 5635              		.loc 1 1070 0
 5636 0ddc 2146     		mov	r1, r4
 5637 0dde 2846     		mov	r0, r5
 5638 0de0 FFF7FEFF 		bl	crc16
 5639              	.LVL645:
 5640              		.loc 1 1072 0
 5641 0de4 2A5D     		ldrb	r2, [r5, r4]	@ zero_extendqisi2
 5642              		.loc 1 1073 0
 5643 0de6 18F8023C 		ldrb	r3, [r8, #-2]	@ zero_extendqisi2
ARM GAS  /tmp/cc8pZ867.s 			page 100


 5644              		.loc 1 1072 0
 5645 0dea 43EA0223 		orr	r3, r3, r2, lsl #8
 5646 0dee 9842     		cmp	r0, r3
 5647 0df0 7FF428AA 		bne	.L287
 5648              		.loc 1 1074 0
 5649 0df4 5FFA8AF1 		uxtb	r1, r10
 5650 0df8 2846     		mov	r0, r5
 5651              	.LVL646:
 5652 0dfa FFF7FEFF 		bl	nrf_driver_process_packet
 5653              	.LVL647:
 5654 0dfe FFF721BA 		b	.L287
 5655              	.L338:
 5656              	.LBE425:
 5657              		.loc 1 312 0
 5658 0e02 B9F1520F 		cmp	r9, #82
 5659 0e06 00F0D084 		beq	.L817
 5660 0e0a 0DF1600B 		add	fp, sp, #96
 5661 0e0e 14AC     		add	r4, sp, #80
 5662              	.L371:
 5663              		.loc 1 322 0
 5664 0e10 FFF7FEFF 		bl	nrf_driver_ext_nrf_running
 5665              	.LVL648:
 5666 0e14 0028     		cmp	r0, #0
 5667 0e16 40F0C284 		bne	.L882
 5668              	.L372:
 5669              		.loc 1 326 0
 5670 0e1a 0323     		movs	r3, #3
 5671 0e1c 3B70     		strb	r3, [r7]
 5672              		.loc 1 328 0
 5673 0e1e 0AF10102 		add	r2, r10, #1
 5674 0e22 0223     		movs	r3, #2
 5675 0e24 3946     		mov	r1, r7
 5676 0e26 FF20     		movs	r0, #255
 5677 0e28 FFF7FEFF 		bl	comm_can_send_buffer
 5678              	.LVL649:
 5679              	.L299:
 5680              	.LBB426:
 5681              		.loc 1 333 0
 5682 0e2c B9F1510F 		cmp	r9, #81
 5683 0e30 00F04686 		beq	.L883
 5684              	.L373:
 5685              		.loc 1 343 0
 5686 0e34 0023     		movs	r3, #0
 5687              		.loc 1 344 0
 5688 0e36 2146     		mov	r1, r4
 5689 0e38 2846     		mov	r0, r5
 5690              		.loc 1 343 0
 5691 0e3a 1493     		str	r3, [sp, #80]
 5692              		.loc 1 344 0
 5693 0e3c FFF7FEFF 		bl	buffer_get_uint32
 5694              	.LVL650:
 5695 0e40 0746     		mov	r7, r0
 5696              	.LVL651:
 5697              		.loc 1 346 0
 5698 0e42 FFF7FEFF 		bl	nrf_driver_ext_nrf_running
 5699              	.LVL652:
 5700 0e46 18B1     		cbz	r0, .L374
ARM GAS  /tmp/cc8pZ867.s 			page 101


 5701              		.loc 1 347 0
 5702 0e48 4FF4FA60 		mov	r0, #2000
 5703 0e4c FFF7FEFF 		bl	nrf_driver_pause
 5704              	.LVL653:
 5705              	.L374:
 5706              		.loc 1 349 0
 5707 0e50 1499     		ldr	r1, [sp, #80]
 5708 0e52 3846     		mov	r0, r7
 5709 0e54 AAEB0102 		sub	r2, r10, r1
 5710 0e58 2944     		add	r1, r1, r5
 5711 0e5a FFF7FEFF 		bl	flash_helper_write_new_app_data
 5712              	.LVL654:
 5713              		.loc 1 356 0
 5714 0e5e A0F10905 		sub	r5, r0, #9
 5715              	.LVL655:
 5716 0e62 B5FA85F5 		clz	r5, r5
 5717              		.loc 1 357 0
 5718 0e66 2246     		mov	r2, r4
 5719 0e68 3946     		mov	r1, r7
 5720              		.loc 1 356 0
 5721 0e6a 0223     		movs	r3, #2
 5722              		.loc 1 357 0
 5723 0e6c 5846     		mov	r0, fp
 5724              	.LVL656:
 5725              		.loc 1 356 0
 5726 0e6e 6D09     		lsrs	r5, r5, #5
 5727              		.loc 1 355 0
 5728 0e70 0324     		movs	r4, #3
 5729              		.loc 1 356 0
 5730 0e72 8DF86150 		strb	r5, [sp, #97]
 5731              		.loc 1 355 0
 5732 0e76 8DF86040 		strb	r4, [sp, #96]
 5733              		.loc 1 356 0
 5734 0e7a 1493     		str	r3, [sp, #80]
 5735              		.loc 1 357 0
 5736 0e7c FFF7FEFF 		bl	buffer_append_uint32
 5737              	.LVL657:
 5738              		.loc 1 358 0
 5739 0e80 5846     		mov	r0, fp
 5740 0e82 1499     		ldr	r1, [sp, #80]
 5741 0e84 B047     		blx	r6
 5742              	.LVL658:
 5743              	.LBE426:
 5744              		.loc 1 359 0
 5745 0e86 FFF7DDB9 		b	.L287
 5746              	.LVL659:
 5747              	.L334:
 5748              		.loc 1 1049 0
 5749 0e8a 354B     		ldr	r3, .L928+12
 5750 0e8c 1B78     		ldrb	r3, [r3]	@ zero_extendqisi2
 5751 0e8e 002B     		cmp	r3, #0
 5752 0e90 7FF4D8A9 		bne	.L287
 5753              		.loc 1 1050 0
 5754 0e94 BAF1000F 		cmp	r10, #0
 5755 0e98 02D0     		beq	.L454
 5756              		.loc 1 1051 0
 5757 0e9a 324B     		ldr	r3, .L928+16
ARM GAS  /tmp/cc8pZ867.s 			page 102


 5758 0e9c 7A78     		ldrb	r2, [r7, #1]	@ zero_extendqisi2
 5759 0e9e 1A60     		str	r2, [r3]
 5760              	.L454:
 5761              		.loc 1 1054 0
 5762 0ea0 FFF7FEFF 		bl	nrf_driver_init_ext_nrf
 5763              	.LVL660:
 5764              		.loc 1 1055 0
 5765 0ea4 FFF7FEFF 		bl	nrf_driver_is_pairing
 5766              	.LVL661:
 5767 0ea8 0028     		cmp	r0, #0
 5768 0eaa 7FF4CBA9 		bne	.L287
 5769              	.LBB428:
 5770              		.loc 1 1056 0
 5771 0eae FFF7FEFF 		bl	app_get_configuration
 5772              	.LVL662:
 5773              		.loc 1 1058 0
 5774 0eb2 3523     		movs	r3, #53
 5775 0eb4 8DF86030 		strb	r3, [sp, #96]
 5776              		.loc 1 1059 0
 5777 0eb8 90F8E930 		ldrb	r3, [r0, #233]	@ zero_extendqisi2
 5778 0ebc 8DF86130 		strb	r3, [sp, #97]
 5779              		.loc 1 1060 0
 5780 0ec0 90F8EA30 		ldrb	r3, [r0, #234]	@ zero_extendqisi2
 5781 0ec4 8DF86230 		strb	r3, [sp, #98]
 5782              	.LBB429:
 5783              	.LBB430:
 5784              		.loc 1 151 0
 5785 0ec8 274B     		ldr	r3, .L928+20
 5786              	.LBE430:
 5787              	.LBE429:
 5788              		.loc 1 1061 0
 5789 0eca 90F8EB20 		ldrb	r2, [r0, #235]	@ zero_extendqisi2
 5790 0ece 8DF86320 		strb	r2, [sp, #99]
 5791              	.LBB433:
 5792              	.LBB431:
 5793              		.loc 1 151 0
 5794 0ed2 1A68     		ldr	r2, [r3]
 5795              	.LBE431:
 5796              	.LBE433:
 5797              		.loc 1 1062 0
 5798 0ed4 90F8EC10 		ldrb	r1, [r0, #236]	@ zero_extendqisi2
 5799 0ed8 8DF86410 		strb	r1, [sp, #100]
 5800              	.LVL663:
 5801              	.LBB434:
 5802              	.LBB432:
 5803              		.loc 1 151 0
 5804 0edc 002A     		cmp	r2, #0
 5805 0ede 3FF4B1A9 		beq	.L287
 5806              		.loc 1 152 0
 5807 0ee2 1B68     		ldr	r3, [r3]
 5808 0ee4 0521     		movs	r1, #5
 5809 0ee6 18A8     		add	r0, sp, #96
 5810              	.LVL664:
 5811 0ee8 9847     		blx	r3
 5812              	.LVL665:
 5813 0eea FFF7ABB9 		b	.L287
 5814              	.L361:
ARM GAS  /tmp/cc8pZ867.s 			page 103


 5815              	.LBE432:
 5816              	.LBE434:
 5817              	.LBE428:
 5818              	.LBB435:
 5819              		.loc 1 1514 0
 5820 0eee 2AAC     		add	r4, sp, #168
 5821 0ef0 0023     		movs	r3, #0
 5822 0ef2 44F8483D 		str	r3, [r4, #-72]!
 5823              		.loc 1 1515 0
 5824 0ef6 2846     		mov	r0, r5
 5825 0ef8 2146     		mov	r1, r4
 5826 0efa FFF7FEFF 		bl	buffer_get_int16
 5827              	.LVL666:
 5828              		.loc 1 1516 0
 5829 0efe 2146     		mov	r1, r4
 5830              		.loc 1 1515 0
 5831 0f00 0646     		mov	r6, r0
 5832              	.LVL667:
 5833              		.loc 1 1516 0
 5834 0f02 2846     		mov	r0, r5
 5835 0f04 FFF7FEFF 		bl	buffer_get_int16
 5836              	.LVL668:
 5837              		.loc 1 1517 0
 5838 0f08 2146     		mov	r1, r4
 5839              		.loc 1 1516 0
 5840 0f0a 0746     		mov	r7, r0
 5841              	.LVL669:
 5842              		.loc 1 1517 0
 5843 0f0c 2846     		mov	r0, r5
 5844 0f0e FFF7FEFF 		bl	buffer_get_float32_auto
 5845              	.LVL670:
 5846              		.loc 1 1518 0
 5847 0f12 3946     		mov	r1, r7
 5848 0f14 3046     		mov	r0, r6
 5849 0f16 FFF7FEFF 		bl	comm_can_io_board_set_output_pwm
 5850              	.LVL671:
 5851              	.LBE435:
 5852              		.loc 1 1519 0
 5853 0f1a FFF793B9 		b	.L287
 5854              	.LVL672:
 5855              	.L362:
 5856              	.LBB436:
 5857              		.loc 1 1522 0
 5858 0f1e 2AAC     		add	r4, sp, #168
 5859 0f20 0023     		movs	r3, #0
 5860 0f22 44F8483D 		str	r3, [r4, #-72]!
 5861              		.loc 1 1523 0
 5862 0f26 2846     		mov	r0, r5
 5863 0f28 2146     		mov	r1, r4
 5864 0f2a FFF7FEFF 		bl	buffer_get_int16
 5865              	.LVL673:
 5866              		.loc 1 1524 0
 5867 0f2e 2146     		mov	r1, r4
 5868              		.loc 1 1523 0
 5869 0f30 0646     		mov	r6, r0
 5870              	.LVL674:
 5871              		.loc 1 1524 0
ARM GAS  /tmp/cc8pZ867.s 			page 104


 5872 0f32 2846     		mov	r0, r5
 5873 0f34 FFF7FEFF 		bl	buffer_get_int16
 5874              	.LVL675:
 5875              		.loc 1 1525 0
 5876 0f38 189B     		ldr	r3, [sp, #96]
 5877 0f3a EA5C     		ldrb	r2, [r5, r3]	@ zero_extendqisi2
 5878              		.loc 1 1526 0
 5879 0f3c 0032     		adds	r2, r2, #0
 5880 0f3e 0146     		mov	r1, r0
 5881              		.loc 1 1525 0
 5882 0f40 03F10103 		add	r3, r3, #1
 5883              		.loc 1 1526 0
 5884 0f44 18BF     		it	ne
 5885 0f46 0122     		movne	r2, #1
 5886 0f48 3046     		mov	r0, r6
 5887              	.LVL676:
 5888              		.loc 1 1525 0
 5889 0f4a 1893     		str	r3, [sp, #96]
 5890              	.LVL677:
 5891              		.loc 1 1526 0
 5892 0f4c FFF7FEFF 		bl	comm_can_io_board_set_output_digital
 5893              	.LVL678:
 5894              	.LBE436:
 5895              		.loc 1 1527 0
 5896 0f50 FFF778B9 		b	.L287
 5897              	.L929:
 5898              		.align	2
 5899              	.L928:
 5900 0f54 00000000 		.word	ch
 5901 0f58 00401C46 		.word	1176256512
 5902 0f5c CDCCCC3D 		.word	1036831949
 5903 0f60 00000000 		.word	conf_general_permanent_nrf_found
 5904 0f64 00000000 		.word	.LANCHOR20
 5905 0f68 00000000 		.word	.LANCHOR14
 5906 0f6c 00007A44 		.word	1148846080
 5907              	.LVL679:
 5908              	.L363:
 5909              	.LBB437:
 5910              		.loc 1 1530 0
 5911 0f70 2AAC     		add	r4, sp, #168
 5912 0f72 0023     		movs	r3, #0
 5913 0f74 44F8583D 		str	r3, [r4, #-88]!
 5914              		.loc 1 1531 0
 5915 0f78 2846     		mov	r0, r5
 5916 0f7a 2146     		mov	r1, r4
 5917 0f7c FFF7FEFF 		bl	buffer_get_uint16
 5918              	.LVL680:
 5919              		.loc 1 1535 0
 5920 0f80 0DF1A80B 		add	fp, sp, #168
 5921 0f84 8023     		movs	r3, #128
 5922 0f86 0BF8483D 		strb	r3, [fp, #-72]!
 5923              		.loc 1 1531 0
 5924 0f8a 0546     		mov	r5, r0
 5925              	.LVL681:
 5926              		.loc 1 1535 0
 5927 0f8c 0123     		movs	r3, #1
 5928              		.loc 1 1536 0
ARM GAS  /tmp/cc8pZ867.s 			page 105


 5929 0f8e 2246     		mov	r2, r4
 5930 0f90 5846     		mov	r0, fp
 5931 0f92 2946     		mov	r1, r5
 5932              		.loc 1 1535 0
 5933 0f94 1493     		str	r3, [sp, #80]
 5934              		.loc 1 1536 0
 5935 0f96 FFF7FEFF 		bl	buffer_append_uint32
 5936              	.LVL682:
 5937              		.loc 1 1538 0
 5938 0f9a EB07     		lsls	r3, r5, #31
 5939 0f9c 00F13987 		bmi	.L884
 5940              	.L499:
 5941              		.loc 1 1539 0
 5942 0fa0 AF07     		lsls	r7, r5, #30
 5943              	.LVL683:
 5944 0fa2 00F12E87 		bmi	.L885
 5945              	.L500:
 5946              		.loc 1 1540 0
 5947 0fa6 6807     		lsls	r0, r5, #29
 5948 0fa8 00F12387 		bmi	.L886
 5949              	.L501:
 5950              		.loc 1 1541 0
 5951 0fac 2907     		lsls	r1, r5, #28
 5952 0fae 00F11887 		bmi	.L887
 5953              	.L502:
 5954              		.loc 1 1542 0
 5955 0fb2 EA06     		lsls	r2, r5, #27
 5956 0fb4 00F10D87 		bmi	.L888
 5957              	.L503:
 5958              		.loc 1 1543 0
 5959 0fb8 AB06     		lsls	r3, r5, #26
 5960 0fba 00F10287 		bmi	.L889
 5961              	.L504:
 5962              		.loc 1 1544 0
 5963 0fbe 6F06     		lsls	r7, r5, #25
 5964 0fc0 00F1F786 		bmi	.L890
 5965              	.L505:
 5966              		.loc 1 1545 0
 5967 0fc4 2806     		lsls	r0, r5, #24
 5968 0fc6 00F1EC86 		bmi	.L891
 5969              	.L506:
 5970              		.loc 1 1546 0
 5971 0fca E905     		lsls	r1, r5, #23
 5972 0fcc 00F1B283 		bmi	.L892
 5973              	.L507:
 5974              		.loc 1 1547 0
 5975 0fd0 AA05     		lsls	r2, r5, #22
 5976 0fd2 00F1A883 		bmi	.L893
 5977              	.L508:
 5978              		.loc 1 1548 0
 5979 0fd6 6B05     		lsls	r3, r5, #21
 5980 0fd8 00F1B383 		bmi	.L894
 5981              	.L509:
 5982              		.loc 1 1550 0
 5983 0fdc 5846     		mov	r0, fp
 5984 0fde 1499     		ldr	r1, [sp, #80]
 5985 0fe0 B047     		blx	r6
ARM GAS  /tmp/cc8pZ867.s 			page 106


 5986              	.LVL684:
 5987              	.LBE437:
 5988              		.loc 1 1551 0
 5989 0fe2 FFF72FB9 		b	.L287
 5990              	.LVL685:
 5991              	.L364:
 5992              	.LBB438:
 5993              		.loc 1 1556 0
 5994 0fe6 BAF1000F 		cmp	r10, #0
 5995 0fea 00F0CF83 		beq	.L895
 5996              		.loc 1 1557 0
 5997 0fee 7C78     		ldrb	r4, [r7, #1]	@ zero_extendqisi2
 5998              	.LVL686:
 5999              		.loc 1 1560 0
 6000 0ff0 FFF7FEFF 		bl	mc_interface_stat_reset
 6001              	.LVL687:
 6002              		.loc 1 1562 0
 6003 0ff4 002C     		cmp	r4, #0
 6004 0ff6 3FF425A9 		beq	.L287
 6005              	.LVL688:
 6006              	.LBB439:
 6007              		.loc 1 1565 0
 6008 0ffa 2AA8     		add	r0, sp, #168
 6009 0ffc 8123     		movs	r3, #129
 6010 0ffe 00F8483D 		strb	r3, [r0, #-72]!
 6011              		.loc 1 1566 0
 6012 1002 0121     		movs	r1, #1
 6013 1004 B047     		blx	r6
 6014              	.LVL689:
 6015 1006 FFF71DB9 		b	.L287
 6016              	.LVL690:
 6017              	.L302:
 6018              	.LBE439:
 6019              	.LBE438:
 6020              	.LBB440:
 6021              		.loc 1 464 0
 6022 100a 2AA9     		add	r1, sp, #168
 6023 100c 0023     		movs	r3, #0
 6024 100e 41F8483D 		str	r3, [r1, #-72]!
 6025              		.loc 1 465 0
 6026 1012 2846     		mov	r0, r5
 6027 1014 FFF7FEFF 		bl	buffer_get_int32
 6028              	.LVL691:
 6029 1018 07EE100A 		vmov	s14, r0	@ int
 6030 101c 5FED2D7A 		vldr.32	s15, .L928+24
 6031 1020 B8EEC70A 		vcvt.f32.s32	s0, s14
 6032 1024 80EE270A 		vdiv.f32	s0, s0, s15
 6033 1028 FFF7FEFF 		bl	mc_interface_set_current
 6034              	.LVL692:
 6035              		.loc 1 466 0
 6036 102c FFF7FEFF 		bl	timeout_reset
 6037              	.LVL693:
 6038              	.LBE440:
 6039              		.loc 1 467 0
 6040 1030 FFF708B9 		b	.L287
 6041              	.L295:
 6042              	.LVL694:
ARM GAS  /tmp/cc8pZ867.s 			page 107


 6043              	.LBB441:
 6044              		.loc 1 220 0
 6045 1034 D24B     		ldr	r3, .L930
 6046              		.loc 1 223 0
 6047 1036 D34A     		ldr	r2, .L930+4
 6048              		.loc 1 220 0
 6049 1038 03CB     		ldmia	r3!, {r0, r1}
 6050 103a 1B78     		ldrb	r3, [r3]	@ zero_extendqisi2
 6051 103c CDF86300 		str	r0, [sp, #99]	@ unaligned
 6052 1040 8DF86B30 		strb	r3, [sp, #107]
 6053              	.LVL695:
 6054              		.loc 1 216 0
 6055 1044 4FF4C060 		mov	r0, #1536
 6056              		.loc 1 217 0
 6057 1048 0023     		movs	r3, #0
 6058 104a 8DF86230 		strb	r3, [sp, #98]
 6059              		.loc 1 220 0
 6060 104e CDF86710 		str	r1, [sp, #103]	@ unaligned
 6061              		.loc 1 216 0
 6062 1052 ADF86000 		strh	r0, [sp, #96]	@ movhi
 6063              		.loc 1 223 0
 6064 1056 07CA     		ldm	r2, {r0, r1, r2}
 6065 1058 1BAB     		add	r3, sp, #108
 6066 105a 83E80700 		stm	r3, {r0, r1, r2}
 6067              	.LVL696:
 6068              		.loc 1 228 0
 6069 105e FFF7FEFF 		bl	mc_interface_get_motor_thread
 6070              	.LVL697:
 6071 1062 0228     		cmp	r0, #2
 6072 1064 00F0EF85 		beq	.L896
 6073              	.L366:
 6074              		.loc 1 232 0
 6075 1068 FFF7FEFF 		bl	app_get_configuration
 6076              	.LVL698:
 6077              		.loc 1 235 0
 6078 106c 0024     		movs	r4, #0
 6079              		.loc 1 232 0
 6080 106e 437D     		ldrb	r3, [r0, #21]	@ zero_extendqisi2
 6081 1070 8DF87830 		strb	r3, [sp, #120]
 6082              	.LVL699:
 6083              		.loc 1 262 0
 6084 1074 2046     		mov	r0, r4
 6085              		.loc 1 233 0
 6086 1076 0723     		movs	r3, #7
 6087              		.loc 1 235 0
 6088 1078 8DF87A40 		strb	r4, [sp, #122]
 6089              		.loc 1 237 0
 6090 107c 8DF87B40 		strb	r4, [sp, #123]
 6091              		.loc 1 242 0
 6092 1080 8DF87C40 		strb	r4, [sp, #124]
 6093              		.loc 1 252 0
 6094 1084 8DF87D40 		strb	r4, [sp, #125]
 6095              		.loc 1 233 0
 6096 1088 8DF87930 		strb	r3, [sp, #121]
 6097              	.LVL700:
 6098              		.loc 1 262 0
 6099 108c FFF7FEFF 		bl	flash_helper_code_data
ARM GAS  /tmp/cc8pZ867.s 			page 108


 6100              	.LVL701:
 6101 1090 0028     		cmp	r0, #0
 6102 1092 00F0D485 		beq	.L367
 6103              		.loc 1 263 0
 6104 1096 2046     		mov	r0, r4
 6105 1098 FFF7FEFF 		bl	flash_helper_code_flags
 6106              	.LVL702:
 6107 109c 8DF87E00 		strb	r0, [sp, #126]
 6108              	.L368:
 6109              	.LVL703:
 6110              		.loc 1 270 0
 6111 10a0 B94A     		ldr	r2, .L930+8
 6112              		.loc 1 268 0
 6113 10a2 BA49     		ldr	r1, .L930+12
 6114              		.loc 1 270 0
 6115 10a4 1368     		ldr	r3, [r2]
 6116              		.loc 1 268 0
 6117 10a6 0968     		ldr	r1, [r1]
 6118 10a8 8DF87F10 		strb	r1, [sp, #127]
 6119              		.loc 1 270 0
 6120 10ac 0133     		adds	r3, r3, #1
 6121              		.loc 1 272 0
 6122 10ae 2021     		movs	r1, #32
 6123 10b0 18A8     		add	r0, sp, #96
 6124              		.loc 1 270 0
 6125 10b2 1360     		str	r3, [r2]
 6126              		.loc 1 272 0
 6127 10b4 B047     		blx	r6
 6128              	.LVL704:
 6129              	.LBE441:
 6130              		.loc 1 273 0
 6131 10b6 FFF7C5B8 		b	.L287
 6132              	.LVL705:
 6133              	.L616:
 6134 10ba 0DF1600B 		add	fp, sp, #96
 6135 10be 14AC     		add	r4, sp, #80
 6136 10c0 B4E6     		b	.L299
 6137              	.L359:
 6138              	.LBB442:
 6139              		.loc 1 1449 0
 6140 10c2 2AAC     		add	r4, sp, #168
 6141 10c4 0023     		movs	r3, #0
 6142 10c6 44F8583D 		str	r3, [r4, #-88]!
 6143              		.loc 1 1450 0
 6144 10ca 2846     		mov	r0, r5
 6145 10cc 2146     		mov	r1, r4
 6146 10ce FFF7FEFF 		bl	buffer_get_uint32
 6147              	.LVL706:
 6148 10d2 0746     		mov	r7, r0
 6149              	.LVL707:
 6150              		.loc 1 1452 0
 6151 10d4 FFF7FEFF 		bl	nrf_driver_ext_nrf_running
 6152              	.LVL708:
 6153 10d8 0028     		cmp	r0, #0
 6154 10da 40F03983 		bne	.L897
 6155              	.L493:
 6156              		.loc 1 1455 0
ARM GAS  /tmp/cc8pZ867.s 			page 109


 6157 10de 149A     		ldr	r2, [sp, #80]
 6158 10e0 B9F17900 		subs	r0, r9, #121
 6159 10e4 AAEB0203 		sub	r3, r10, r2
 6160 10e8 3946     		mov	r1, r7
 6161 10ea 2A44     		add	r2, r2, r5
 6162 10ec 18BF     		it	ne
 6163 10ee 0120     		movne	r0, #1
 6164 10f0 FFF7FEFF 		bl	flash_helper_write_code
 6165              	.LVL709:
 6166              		.loc 1 1463 0
 6167 10f4 A0F10905 		sub	r5, r0, #9
 6168              	.LVL710:
 6169 10f8 B5FA85F5 		clz	r5, r5
 6170              		.loc 1 1464 0
 6171 10fc 3946     		mov	r1, r7
 6172 10fe 18A8     		add	r0, sp, #96
 6173              	.LVL711:
 6174              		.loc 1 1463 0
 6175 1100 0223     		movs	r3, #2
 6176 1102 6D09     		lsrs	r5, r5, #5
 6177              		.loc 1 1464 0
 6178 1104 2246     		mov	r2, r4
 6179              		.loc 1 1463 0
 6180 1106 8DF86150 		strb	r5, [sp, #97]
 6181              		.loc 1 1462 0
 6182 110a 8DF86090 		strb	r9, [sp, #96]
 6183              		.loc 1 1463 0
 6184 110e 1493     		str	r3, [sp, #80]
 6185              		.loc 1 1464 0
 6186 1110 FFF7FEFF 		bl	buffer_append_uint32
 6187              	.LVL712:
 6188              		.loc 1 1465 0
 6189 1114 18A8     		add	r0, sp, #96
 6190 1116 1499     		ldr	r1, [sp, #80]
 6191 1118 B047     		blx	r6
 6192              	.LVL713:
 6193              	.LBE442:
 6194              		.loc 1 1466 0
 6195 111a FFF793B8 		b	.L287
 6196              	.LVL714:
 6197              	.L360:
 6198              	.LBB443:
 6199              		.loc 1 1469 0
 6200 111e 2AAC     		add	r4, sp, #168
 6201 1120 0023     		movs	r3, #0
 6202 1122 44F8583D 		str	r3, [r4, #-88]!
 6203              		.loc 1 1470 0
 6204 1126 2846     		mov	r0, r5
 6205 1128 2146     		mov	r1, r4
 6206 112a FFF7FEFF 		bl	buffer_get_int16
 6207              	.LVL715:
 6208 112e 8146     		mov	r9, r0
 6209              	.LVL716:
 6210              		.loc 1 1472 0
 6211 1130 FFF7FEFF 		bl	comm_can_get_io_board_adc_1_4_id
 6212              	.LVL717:
 6213 1134 0546     		mov	r5, r0
ARM GAS  /tmp/cc8pZ867.s 			page 110


 6214              	.LVL718:
 6215              		.loc 1 1473 0
 6216 1136 4846     		mov	r0, r9
 6217              	.LVL719:
 6218 1138 FFF7FEFF 		bl	comm_can_get_io_board_adc_5_8_id
 6219              	.LVL720:
 6220 113c 8046     		mov	r8, r0
 6221              	.LVL721:
 6222              		.loc 1 1474 0
 6223 113e 4846     		mov	r0, r9
 6224              	.LVL722:
 6225 1140 FFF7FEFF 		bl	comm_can_get_io_board_digital_in_id
 6226              	.LVL723:
 6227 1144 0746     		mov	r7, r0
 6228              	.LVL724:
 6229              		.loc 1 1476 0
 6230 1146 002D     		cmp	r5, #0
 6231 1148 00F05C84 		beq	.L898
 6232              		.loc 1 1482 0
 6233 114c 0DF1A80B 		add	fp, sp, #168
 6234 1150 7A23     		movs	r3, #122
 6235 1152 0BF8483D 		strb	r3, [fp, #-72]!
 6236              		.loc 1 1483 0
 6237 1156 4946     		mov	r1, r9
 6238 1158 5846     		mov	r0, fp
 6239              	.LVL725:
 6240              		.loc 1 1482 0
 6241 115a 4FF00109 		mov	r9, #1
 6242              	.LVL726:
 6243              		.loc 1 1483 0
 6244 115e 2246     		mov	r2, r4
 6245              		.loc 1 1482 0
 6246 1160 CDF85090 		str	r9, [sp, #80]
 6247              		.loc 1 1483 0
 6248 1164 FFF7FEFF 		bl	buffer_append_int16
 6249              	.LVL727:
 6250              		.loc 1 1486 0
 6251 1168 149A     		ldr	r2, [sp, #80]
 6252              	.LBB444:
 6253              	.LBB445:
 6254              	.LBB446:
 6255              	.LBB447:
 6256              		.loc 3 231 0
 6257 116a 894B     		ldr	r3, .L930+16
 6258              	.LBE447:
 6259              	.LBE446:
 6260              	.LBE445:
 6261              	.LBE444:
 6262              		.loc 1 1487 0
 6263 116c 9FED890A 		vldr.32	s0, .L930+20
 6264              	.LBB452:
 6265              	.LBB450:
 6266              	.LBB449:
 6267              	.LBB448:
 6268              		.loc 3 231 0
 6269 1170 9B6A     		ldr	r3, [r3, #40]
 6270              	.LBE448:
ARM GAS  /tmp/cc8pZ867.s 			page 111


 6271              	.LBE449:
 6272              	.LBE450:
 6273              	.LBE452:
 6274              		.loc 1 1486 0
 6275 1172 2AA9     		add	r1, sp, #168
 6276 1174 1144     		add	r1, r1, r2
 6277 1176 4A44     		add	r2, r2, r9
 6278 1178 01F8489C 		strb	r9, [r1, #-72]
 6279 117c 1492     		str	r2, [sp, #80]
 6280              	.LBB453:
 6281              	.LBB451:
 6282              		.loc 3 267 0
 6283 117e 6A68     		ldr	r2, [r5, #4]
 6284 1180 9B1A     		subs	r3, r3, r2
 6285              	.LBE451:
 6286              	.LBE453:
 6287              		.loc 1 1487 0
 6288 1182 07EE903A 		vmov	s15, r3	@ int
 6289 1186 F8EE677A 		vcvt.f32.u32	s15, s15
 6290 118a 5846     		mov	r0, fp
 6291 118c 87EE800A 		vdiv.f32	s0, s15, s0
 6292 1190 2146     		mov	r1, r4
 6293 1192 FFF7FEFF 		bl	buffer_append_float32_auto
 6294              	.LVL728:
 6295              		.loc 1 1488 0
 6296 1196 2146     		mov	r1, r4
 6297 1198 5846     		mov	r0, fp
 6298 119a DFED7F0A 		vldr.32	s1, .L930+24
 6299 119e 95ED020A 		vldr.32	s0, [r5, #8]
 6300 11a2 FFF7FEFF 		bl	buffer_append_float16
 6301              	.LVL729:
 6302              		.loc 1 1489 0
 6303 11a6 2146     		mov	r1, r4
 6304 11a8 5846     		mov	r0, fp
 6305 11aa DFED7B0A 		vldr.32	s1, .L930+24
 6306 11ae 95ED030A 		vldr.32	s0, [r5, #12]
 6307 11b2 FFF7FEFF 		bl	buffer_append_float16
 6308              	.LVL730:
 6309              		.loc 1 1490 0
 6310 11b6 2146     		mov	r1, r4
 6311 11b8 5846     		mov	r0, fp
 6312 11ba DFED770A 		vldr.32	s1, .L930+24
 6313 11be 95ED040A 		vldr.32	s0, [r5, #16]
 6314 11c2 FFF7FEFF 		bl	buffer_append_float16
 6315              	.LVL731:
 6316              		.loc 1 1491 0
 6317 11c6 2146     		mov	r1, r4
 6318 11c8 5846     		mov	r0, fp
 6319 11ca DFED730A 		vldr.32	s1, .L930+24
 6320 11ce 95ED050A 		vldr.32	s0, [r5, #20]
 6321 11d2 FFF7FEFF 		bl	buffer_append_float16
 6322              	.LVL732:
 6323              	.L511:
 6324 11d6 1499     		ldr	r1, [sp, #80]
 6325              		.loc 1 1494 0
 6326 11d8 B8F1000F 		cmp	r8, #0
 6327 11dc 37D0     		beq	.L497
ARM GAS  /tmp/cc8pZ867.s 			page 112


 6328              		.loc 1 1495 0
 6329 11de 2AAB     		add	r3, sp, #168
 6330 11e0 5A18     		adds	r2, r3, r1
 6331 11e2 0220     		movs	r0, #2
 6332 11e4 0131     		adds	r1, r1, #1
 6333              	.LBB454:
 6334              	.LBB455:
 6335              	.LBB456:
 6336              	.LBB457:
 6337              		.loc 3 231 0
 6338 11e6 6A4B     		ldr	r3, .L930+16
 6339              	.LBE457:
 6340              	.LBE456:
 6341              	.LBE455:
 6342              	.LBE454:
 6343              		.loc 1 1495 0
 6344 11e8 1491     		str	r1, [sp, #80]
 6345 11ea 02F8480C 		strb	r0, [r2, #-72]
 6346              	.LVL733:
 6347              	.LBB462:
 6348              	.LBB460:
 6349              		.loc 3 267 0
 6350 11ee 6A68     		ldr	r2, [r5, #4]
 6351              	.LBB459:
 6352              	.LBB458:
 6353              		.loc 3 231 0
 6354 11f0 9B6A     		ldr	r3, [r3, #40]
 6355              	.LVL734:
 6356              	.LBE458:
 6357              	.LBE459:
 6358              	.LBE460:
 6359              	.LBE462:
 6360              		.loc 1 1496 0
 6361 11f2 9FED680A 		vldr.32	s0, .L930+20
 6362              	.LBB463:
 6363              	.LBB461:
 6364              		.loc 3 267 0
 6365 11f6 9B1A     		subs	r3, r3, r2
 6366              	.LBE461:
 6367              	.LBE463:
 6368              		.loc 1 1496 0
 6369 11f8 07EE903A 		vmov	s15, r3	@ int
 6370 11fc F8EE677A 		vcvt.f32.u32	s15, s15
 6371 1200 2146     		mov	r1, r4
 6372 1202 87EE800A 		vdiv.f32	s0, s15, s0
 6373 1206 5846     		mov	r0, fp
 6374 1208 FFF7FEFF 		bl	buffer_append_float32_auto
 6375              	.LVL735:
 6376              		.loc 1 1497 0
 6377 120c 2146     		mov	r1, r4
 6378 120e 5846     		mov	r0, fp
 6379 1210 DFED610A 		vldr.32	s1, .L930+24
 6380 1214 98ED020A 		vldr.32	s0, [r8, #8]
 6381 1218 FFF7FEFF 		bl	buffer_append_float16
 6382              	.LVL736:
 6383              		.loc 1 1498 0
 6384 121c 2146     		mov	r1, r4
ARM GAS  /tmp/cc8pZ867.s 			page 113


 6385 121e DFED5E0A 		vldr.32	s1, .L930+24
 6386 1222 98ED030A 		vldr.32	s0, [r8, #12]
 6387 1226 5846     		mov	r0, fp
 6388 1228 FFF7FEFF 		bl	buffer_append_float16
 6389              	.LVL737:
 6390              		.loc 1 1499 0
 6391 122c 2146     		mov	r1, r4
 6392 122e DFED5A0A 		vldr.32	s1, .L930+24
 6393 1232 98ED040A 		vldr.32	s0, [r8, #16]
 6394 1236 5846     		mov	r0, fp
 6395 1238 FFF7FEFF 		bl	buffer_append_float16
 6396              	.LVL738:
 6397              		.loc 1 1500 0
 6398 123c 2146     		mov	r1, r4
 6399 123e DFED560A 		vldr.32	s1, .L930+24
 6400 1242 98ED050A 		vldr.32	s0, [r8, #20]
 6401 1246 5846     		mov	r0, fp
 6402 1248 FFF7FEFF 		bl	buffer_append_float16
 6403              	.LVL739:
 6404 124c 1499     		ldr	r1, [sp, #80]
 6405              	.L497:
 6406              		.loc 1 1503 0
 6407 124e 0FB3     		cbz	r7, .L498
 6408              		.loc 1 1504 0
 6409 1250 2AAB     		add	r3, sp, #168
 6410 1252 5A18     		adds	r2, r3, r1
 6411 1254 0320     		movs	r0, #3
 6412 1256 0131     		adds	r1, r1, #1
 6413              	.LBB464:
 6414              	.LBB465:
 6415              	.LBB466:
 6416              	.LBB467:
 6417              		.loc 3 231 0
 6418 1258 4D4B     		ldr	r3, .L930+16
 6419              	.LBE467:
 6420              	.LBE466:
 6421              	.LBE465:
 6422              	.LBE464:
 6423              		.loc 1 1504 0
 6424 125a 1491     		str	r1, [sp, #80]
 6425 125c 02F8480C 		strb	r0, [r2, #-72]
 6426              	.LVL740:
 6427              	.LBB472:
 6428              	.LBB470:
 6429              		.loc 3 267 0
 6430 1260 6A68     		ldr	r2, [r5, #4]
 6431              	.LBB469:
 6432              	.LBB468:
 6433              		.loc 3 231 0
 6434 1262 9B6A     		ldr	r3, [r3, #40]
 6435              	.LVL741:
 6436              	.LBE468:
 6437              	.LBE469:
 6438              	.LBE470:
 6439              	.LBE472:
 6440              		.loc 1 1505 0
 6441 1264 9FED4B0A 		vldr.32	s0, .L930+20
ARM GAS  /tmp/cc8pZ867.s 			page 114


 6442              	.LBB473:
 6443              	.LBB471:
 6444              		.loc 3 267 0
 6445 1268 9B1A     		subs	r3, r3, r2
 6446              	.LBE471:
 6447              	.LBE473:
 6448              		.loc 1 1505 0
 6449 126a 07EE903A 		vmov	s15, r3	@ int
 6450 126e F8EE677A 		vcvt.f32.u32	s15, s15
 6451 1272 2146     		mov	r1, r4
 6452 1274 87EE800A 		vdiv.f32	s0, s15, s0
 6453 1278 5846     		mov	r0, fp
 6454 127a FFF7FEFF 		bl	buffer_append_float32_auto
 6455              	.LVL742:
 6456              		.loc 1 1506 0
 6457 127e 2246     		mov	r2, r4
 6458 1280 F968     		ldr	r1, [r7, #12]
 6459 1282 5846     		mov	r0, fp
 6460 1284 FFF7FEFF 		bl	buffer_append_uint32
 6461              	.LVL743:
 6462              		.loc 1 1507 0
 6463 1288 B968     		ldr	r1, [r7, #8]
 6464 128a 2246     		mov	r2, r4
 6465 128c 5846     		mov	r0, fp
 6466 128e FFF7FEFF 		bl	buffer_append_uint32
 6467              	.LVL744:
 6468 1292 1499     		ldr	r1, [sp, #80]
 6469              	.L498:
 6470              		.loc 1 1510 0
 6471 1294 5846     		mov	r0, fp
 6472 1296 B047     		blx	r6
 6473              	.LVL745:
 6474              	.LBE443:
 6475              		.loc 1 1511 0
 6476 1298 FEF7D4BF 		b	.L287
 6477              	.LVL746:
 6478              	.L300:
 6479              	.LBB474:
 6480              		.loc 1 363 0
 6481 129c 0024     		movs	r4, #0
 6482              		.loc 1 364 0
 6483 129e 3F48     		ldr	r0, .L930+28
 6484              		.loc 1 363 0
 6485 12a0 1494     		str	r4, [sp, #80]
 6486              		.loc 1 364 0
 6487 12a2 FFF7FEFF 		bl	chMtxLock
 6488              	.LVL747:
 6489              		.loc 1 366 0
 6490 12a6 149B     		ldr	r3, [sp, #80]
 6491 12a8 3D4F     		ldr	r7, .L930+32
 6492 12aa 5A1C     		adds	r2, r3, #1
 6493              		.loc 1 369 0
 6494 12ac B9F1320F 		cmp	r9, #50
 6495              		.loc 1 366 0
 6496 12b0 1492     		str	r2, [sp, #80]
 6497 12b2 07F80390 		strb	r9, [r7, r3]
 6498              	.LVL748:
ARM GAS  /tmp/cc8pZ867.s 			page 115


 6499              		.loc 1 369 0
 6500 12b6 00F04F86 		beq	.L899
 6501              		.loc 1 368 0
 6502 12ba 4FF0FF35 		mov	r5, #-1
 6503              	.LVL749:
 6504 12be 14AC     		add	r4, sp, #80
 6505              	.LVL750:
 6506              	.L375:
 6507              		.loc 1 376 0
 6508 12c0 FFF7FEFF 		bl	mc_interface_temp_fet_filtered
 6509              	.LVL751:
 6510 12c4 2146     		mov	r1, r4
 6511 12c6 F2EE040A 		vmov.f32	s1, #1.0e+1
 6512 12ca 3548     		ldr	r0, .L930+32
 6513 12cc FFF7FEFF 		bl	buffer_append_float16
 6514              	.LVL752:
 6515              	.L376:
 6516              		.loc 1 378 0
 6517 12d0 A807     		lsls	r0, r5, #30
 6518 12d2 00F13786 		bmi	.L900
 6519              	.L377:
 6520              		.loc 1 381 0
 6521 12d6 6907     		lsls	r1, r5, #29
 6522 12d8 00F12A86 		bmi	.L901
 6523              	.L378:
 6524              		.loc 1 384 0
 6525 12dc 2A07     		lsls	r2, r5, #28
 6526 12de 00F11D86 		bmi	.L902
 6527              	.L379:
 6528              		.loc 1 387 0
 6529 12e2 EB06     		lsls	r3, r5, #27
 6530 12e4 00F11086 		bmi	.L903
 6531              	.L380:
 6532              		.loc 1 390 0
 6533 12e8 A806     		lsls	r0, r5, #26
 6534 12ea 00F10386 		bmi	.L904
 6535              	.L381:
 6536              		.loc 1 393 0
 6537 12ee 6906     		lsls	r1, r5, #25
 6538 12f0 00F1F685 		bmi	.L905
 6539              	.L382:
 6540              		.loc 1 396 0
 6541 12f4 2A06     		lsls	r2, r5, #24
 6542 12f6 00F1E985 		bmi	.L906
 6543              	.L383:
 6544              		.loc 1 399 0
 6545 12fa EB05     		lsls	r3, r5, #23
 6546 12fc 00F1DC85 		bmi	.L907
 6547              	.L384:
 6548              		.loc 1 402 0
 6549 1300 A805     		lsls	r0, r5, #22
 6550 1302 00F1CE85 		bmi	.L908
 6551              	.L385:
 6552              		.loc 1 405 0
 6553 1306 6905     		lsls	r1, r5, #21
 6554 1308 00F1C085 		bmi	.L909
 6555              	.L386:
ARM GAS  /tmp/cc8pZ867.s 			page 116


 6556              		.loc 1 408 0
 6557 130c 2A05     		lsls	r2, r5, #20
 6558 130e 00F1B285 		bmi	.L910
 6559              	.L387:
 6560              		.loc 1 411 0
 6561 1312 EB04     		lsls	r3, r5, #19
 6562 1314 00F1A485 		bmi	.L911
 6563              	.L388:
 6564              		.loc 1 414 0
 6565 1318 A804     		lsls	r0, r5, #18
 6566 131a 00F19785 		bmi	.L912
 6567              	.L389:
 6568              		.loc 1 417 0
 6569 131e 6904     		lsls	r1, r5, #17
 6570 1320 00F18A85 		bmi	.L913
 6571              	.L390:
 6572              		.loc 1 420 0
 6573 1324 2A04     		lsls	r2, r5, #16
 6574 1326 00F17C85 		bmi	.L914
 6575              	.L391:
 6576              		.loc 1 423 0
 6577 132a EB03     		lsls	r3, r5, #15
 6578 132c 00F12F85 		bmi	.L915
 6579              	.L392:
 6580              		.loc 1 426 0
 6581 1330 A803     		lsls	r0, r5, #14
 6582 1332 00F12385 		bmi	.L916
 6583              	.L393:
 6584              		.loc 1 435 0
 6585 1336 6903     		lsls	r1, r5, #13
 6586 1338 00F1BC84 		bmi	.L917
 6587              	.L394:
 6588              		.loc 1 440 0
 6589 133c 2A03     		lsls	r2, r5, #12
 6590 133e 00F1A084 		bmi	.L918
 6591              	.L395:
 6592              		.loc 1 443 0
 6593 1342 EB02     		lsls	r3, r5, #11
 6594 1344 00F19384 		bmi	.L919
 6595              	.L396:
 6596              		.loc 1 446 0
 6597 1348 AC02     		lsls	r4, r5, #10
 6598 134a 00F18384 		bmi	.L818
 6599 134e 1499     		ldr	r1, [sp, #80]
 6600 1350 FEF773BF 		b	.L823
 6601              	.LVL753:
 6602              	.L301:
 6603              	.LBE474:
 6604              	.LBB478:
 6605              		.loc 1 458 0
 6606 1354 2AA9     		add	r1, sp, #168
 6607 1356 0023     		movs	r3, #0
 6608 1358 41F8483D 		str	r3, [r1, #-72]!
 6609              		.loc 1 459 0
 6610 135c 2846     		mov	r0, r5
 6611 135e FFF7FEFF 		bl	buffer_get_int32
 6612              	.LVL754:
ARM GAS  /tmp/cc8pZ867.s 			page 117


 6613 1362 07EE100A 		vmov	s14, r0	@ int
 6614 1366 DFED0F7A 		vldr.32	s15, .L930+36
 6615 136a B8EEC70A 		vcvt.f32.s32	s0, s14
 6616 136e 80EE270A 		vdiv.f32	s0, s0, s15
 6617 1372 FFF7FEFF 		bl	mc_interface_set_duty
 6618              	.LVL755:
 6619              		.loc 1 460 0
 6620 1376 FFF7FEFF 		bl	timeout_reset
 6621              	.LVL756:
 6622              	.LBE478:
 6623              		.loc 1 461 0
 6624 137a FEF763BF 		b	.L287
 6625              	.L931:
 6626 137e 00BF     		.align	2
 6627              	.L930:
 6628 1380 00000000 		.word	.LC1
 6629 1384 107AFF1F 		.word	536836624
 6630 1388 00000000 		.word	.LANCHOR21
 6631 138c 00000000 		.word	.LANCHOR20
 6632 1390 00000000 		.word	ch
 6633 1394 00401C46 		.word	1176256512
 6634 1398 0000C842 		.word	1120403456
 6635 139c 00000000 		.word	.LANCHOR10
 6636 13a0 00000000 		.word	.LANCHOR19
 6637 13a4 0050C347 		.word	1203982336
 6638 13a8 00000000 		.word	0
 6639 13ac 00007A44 		.word	1148846080
 6640 13b0 00247449 		.word	1232348160
 6641              	.L309:
 6642              	.LBB479:
 6643              		.loc 1 515 0
 6644 13b4 FFF7FEFF 		bl	mempools_alloc_mcconf
 6645              	.LVL757:
 6646 13b8 0446     		mov	r4, r0
 6647              	.LVL758:
 6648              		.loc 1 516 0
 6649 13ba FFF7FEFF 		bl	mc_interface_get_configuration
 6650              	.LVL759:
 6651 13be 4FF42372 		mov	r2, #652
 6652 13c2 0146     		mov	r1, r0
 6653 13c4 2046     		mov	r0, r4
 6654 13c6 FFF7FEFF 		bl	memcpy
 6655              	.LVL760:
 6656              		.loc 1 518 0
 6657 13ca 2146     		mov	r1, r4
 6658 13cc 2846     		mov	r0, r5
 6659 13ce FFF7FEFF 		bl	confgenerator_deserialize_mcconf
 6660              	.LVL761:
 6661 13d2 0028     		cmp	r0, #0
 6662 13d4 00F0D581 		beq	.L400
 6663              	.LBB480:
 6664              		.loc 1 519 0
 6665 13d8 F7EE000A 		vmov.f32	s1, #1.0e+0
 6666 13dc 1FED0E0A 		vldr.32	s0, .L930+40
 6667 13e0 04F16000 		add	r0, r4, #96
 6668 13e4 FFF7FEFF 		bl	utils_truncate_number
 6669              	.LVL762:
ARM GAS  /tmp/cc8pZ867.s 			page 118


 6670              		.loc 1 520 0
 6671 13e8 F7EE000A 		vmov.f32	s1, #1.0e+0
 6672 13ec 1FED120A 		vldr.32	s0, .L930+40
 6673 13f0 04F16400 		add	r0, r4, #100
 6674 13f4 FFF7FEFF 		bl	utils_truncate_number
 6675              	.LVL763:
 6676              		.loc 1 526 0
 6677 13f8 94ED186A 		vldr.32	s12, [r4, #96]
 6678              		.loc 1 527 0
 6679 13fc D4ED196A 		vldr.32	s13, [r4, #100]
 6680              		.loc 1 526 0
 6681 1400 94ED007A 		vldr.32	s14, [r4]
 6682              		.loc 1 527 0
 6683 1404 D4ED017A 		vldr.32	s15, [r4, #4]
 6684              		.loc 1 529 0
 6685 1408 E368     		ldr	r3, [r4, #12]	@ float
 6686              		.loc 1 528 0
 6687 140a A268     		ldr	r2, [r4, #8]	@ float
 6688              		.loc 1 529 0
 6689 140c A367     		str	r3, [r4, #120]	@ float
 6690              		.loc 1 526 0
 6691 140e 27EE067A 		vmul.f32	s14, s14, s12
 6692              		.loc 1 527 0
 6693 1412 67EEA67A 		vmul.f32	s15, s15, s13
 6694              		.loc 1 528 0
 6695 1416 6267     		str	r2, [r4, #116]	@ float
 6696              		.loc 1 526 0
 6697 1418 84ED1B7A 		vstr.32	s14, [r4, #108]
 6698              		.loc 1 530 0
 6699 141c 84ED1F7A 		vstr.32	s14, [r4, #124]
 6700              		.loc 1 527 0
 6701 1420 C4ED1C7A 		vstr.32	s15, [r4, #112]
 6702              		.loc 1 531 0
 6703 1424 C4ED207A 		vstr.32	s15, [r4, #128]
 6704              		.loc 1 533 0
 6705 1428 2046     		mov	r0, r4
 6706 142a FFF7FEFF 		bl	commands_apply_mcconf_hw_limits
 6707              	.LVL764:
 6708              		.loc 1 534 0
 6709 142e FFF7FEFF 		bl	mc_interface_get_motor_thread
 6710              	.LVL765:
 6711 1432 0238     		subs	r0, r0, #2
 6712 1434 4142     		rsbs	r1, r0, #0
 6713 1436 4141     		adcs	r1, r1, r0
 6714 1438 2046     		mov	r0, r4
 6715 143a FFF7FEFF 		bl	conf_general_store_mc_configuration
 6716              	.LVL766:
 6717              		.loc 1 535 0
 6718 143e 2046     		mov	r0, r4
 6719 1440 FFF7FEFF 		bl	mc_interface_set_configuration
 6720              	.LVL767:
 6721              		.loc 1 536 0
 6722 1444 4FF4FA60 		mov	r0, #2000
 6723 1448 FFF7FEFF 		bl	chThdSleep
 6724              	.LVL768:
 6725              		.loc 1 540 0
 6726 144c 2AA8     		add	r0, sp, #168
ARM GAS  /tmp/cc8pZ867.s 			page 119


 6727 144e 0D23     		movs	r3, #13
 6728 1450 00F8483D 		strb	r3, [r0, #-72]!
 6729              		.loc 1 541 0
 6730 1454 0121     		movs	r1, #1
 6731 1456 B047     		blx	r6
 6732              	.LVL769:
 6733              	.LBE480:
 6734 1458 FFF72DB9 		b	.L824
 6735              	.LVL770:
 6736              	.L304:
 6737              	.LBE479:
 6738              	.LBB481:
 6739              		.loc 1 476 0
 6740 145c 2AA9     		add	r1, sp, #168
 6741 145e 0023     		movs	r3, #0
 6742 1460 41F8483D 		str	r3, [r1, #-72]!
 6743              		.loc 1 477 0
 6744 1464 2846     		mov	r0, r5
 6745 1466 FFF7FEFF 		bl	buffer_get_int32
 6746              	.LVL771:
 6747 146a 07EE900A 		vmov	s15, r0	@ int
 6748 146e B8EEE70A 		vcvt.f32.s32	s0, s15
 6749 1472 FFF7FEFF 		bl	mc_interface_set_pid_speed
 6750              	.LVL772:
 6751              		.loc 1 478 0
 6752 1476 FFF7FEFF 		bl	timeout_reset
 6753              	.LVL773:
 6754              	.LBE481:
 6755              		.loc 1 479 0
 6756 147a FEF7E3BE 		b	.L287
 6757              	.L358:
 6758              	.LBB482:
 6759              		.loc 1 1434 0
 6760 147e FFF7FEFF 		bl	nrf_driver_ext_nrf_running
 6761              	.LVL774:
 6762 1482 0028     		cmp	r0, #0
 6763 1484 40F08681 		bne	.L920
 6764              	.L492:
 6765              		.loc 1 1438 0
 6766 1488 B9F17800 		subs	r0, r9, #120
 6767 148c 18BF     		it	ne
 6768 148e 0120     		movne	r0, #1
 6769 1490 FFF7FEFF 		bl	flash_helper_erase_code
 6770              	.LVL775:
 6771              		.loc 1 1443 0
 6772 1494 A0F10903 		sub	r3, r0, #9
 6773 1498 B3FA83F3 		clz	r3, r3
 6774 149c 5B09     		lsrs	r3, r3, #5
 6775              		.loc 1 1444 0
 6776 149e 0221     		movs	r1, #2
 6777 14a0 18A8     		add	r0, sp, #96
 6778              	.LVL776:
 6779              		.loc 1 1443 0
 6780 14a2 8DF86130 		strb	r3, [sp, #97]
 6781              		.loc 1 1442 0
 6782 14a6 8DF86090 		strb	r9, [sp, #96]
 6783              	.LVL777:
ARM GAS  /tmp/cc8pZ867.s 			page 120


 6784              		.loc 1 1444 0
 6785 14aa B047     		blx	r6
 6786              	.LVL778:
 6787              	.LBE482:
 6788              		.loc 1 1445 0
 6789 14ac FEF7CABE 		b	.L287
 6790              	.LVL779:
 6791              	.L303:
 6792              	.LBB483:
 6793              		.loc 1 470 0
 6794 14b0 2AA9     		add	r1, sp, #168
 6795 14b2 0023     		movs	r3, #0
 6796 14b4 41F8483D 		str	r3, [r1, #-72]!
 6797              		.loc 1 471 0
 6798 14b8 2846     		mov	r0, r5
 6799 14ba FFF7FEFF 		bl	buffer_get_int32
 6800              	.LVL780:
 6801 14be 07EE100A 		vmov	s14, r0	@ int
 6802 14c2 5FED467A 		vldr.32	s15, .L930+44
 6803 14c6 B8EEC70A 		vcvt.f32.s32	s0, s14
 6804 14ca 80EE270A 		vdiv.f32	s0, s0, s15
 6805 14ce FFF7FEFF 		bl	mc_interface_set_brake_current
 6806              	.LVL781:
 6807              		.loc 1 472 0
 6808 14d2 FFF7FEFF 		bl	timeout_reset
 6809              	.LVL782:
 6810              	.LBE483:
 6811              		.loc 1 473 0
 6812 14d6 FEF7B5BE 		b	.L287
 6813              	.L305:
 6814              	.LBB484:
 6815              		.loc 1 482 0
 6816 14da 2AA9     		add	r1, sp, #168
 6817 14dc 0023     		movs	r3, #0
 6818 14de 41F8483D 		str	r3, [r1, #-72]!
 6819              		.loc 1 483 0
 6820 14e2 2846     		mov	r0, r5
 6821 14e4 FFF7FEFF 		bl	buffer_get_int32
 6822              	.LVL783:
 6823 14e8 07EE100A 		vmov	s14, r0	@ int
 6824 14ec 5FED507A 		vldr.32	s15, .L930+48
 6825 14f0 B8EEC70A 		vcvt.f32.s32	s0, s14
 6826 14f4 80EE270A 		vdiv.f32	s0, s0, s15
 6827 14f8 FFF7FEFF 		bl	mc_interface_set_pid_pos
 6828              	.LVL784:
 6829              		.loc 1 484 0
 6830 14fc FFF7FEFF 		bl	timeout_reset
 6831              	.LVL785:
 6832              	.LBE484:
 6833              		.loc 1 485 0
 6834 1500 FEF7A0BE 		b	.L287
 6835              	.L319:
 6836              	.LBB485:
 6837              		.loc 1 680 0
 6838 1504 2123     		movs	r3, #33
