ARM GAS  /tmp/cczU1kEP.s 			page 1


   1              		.cpu cortex-m4
   2              		.eabi_attribute 27, 1
   3              		.eabi_attribute 28, 1
   4              		.eabi_attribute 20, 1
   5              		.eabi_attribute 21, 1
   6              		.eabi_attribute 23, 3
   7              		.eabi_attribute 24, 1
   8              		.eabi_attribute 25, 1
   9              		.eabi_attribute 26, 1
  10              		.eabi_attribute 30, 2
  11              		.eabi_attribute 34, 1
  12              		.eabi_attribute 18, 4
  13              		.file	"conf_general.c"
  14              		.text
  15              	.Ltext0:
  16              		.cfi_sections	.debug_frame
  17              		.section	.text.read_eeprom_var,"ax",%progbits
  18              		.align	1
  19              		.p2align 4,,15
  20              		.syntax unified
  21              		.thumb
  22              		.thumb_func
  23              		.fpu fpv4-sp-d16
  24              		.type	read_eeprom_var, %function
  25              	read_eeprom_var:
  26              	.LFB262:
  27              		.file 1 "conf_general.c"
  28              		.loc 1 229 0
  29              		.cfi_startproc
  30              		@ args = 0, pretend = 0, frame = 8
  31              		@ frame_needed = 0, uses_anonymous_args = 0
  32              	.LVL0:
  33 0000 30B5     		push	{r4, r5, lr}
  34              		.cfi_def_cfa_offset 12
  35              		.cfi_offset 4, -12
  36              		.cfi_offset 5, -8
  37              		.cfi_offset 14, -4
  38              		.loc 1 233 0
  39 0002 02EB4102 		add	r2, r2, r1, lsl #1
  40              	.LVL1:
  41              		.loc 1 229 0
  42 0006 83B0     		sub	sp, sp, #12
  43              		.cfi_def_cfa_offset 24
  44              		.loc 1 233 0
  45 0008 94B2     		uxth	r4, r2
  46              		.loc 1 229 0
  47 000a 0546     		mov	r5, r0
  48              		.loc 1 233 0
  49 000c 01A9     		add	r1, sp, #4
  50              	.LVL2:
  51 000e 2046     		mov	r0, r4
  52              	.LVL3:
  53 0010 FFF7FEFF 		bl	EE_ReadVariable
  54              	.LVL4:
  55 0014 10B1     		cbz	r0, .L2
  56              	.L4:
  57              		.loc 1 238 0
ARM GAS  /tmp/cczU1kEP.s 			page 2


  58 0016 0020     		movs	r0, #0
  59              	.LVL5:
  60              		.loc 1 242 0
  61 0018 03B0     		add	sp, sp, #12
  62              		.cfi_remember_state
  63              		.cfi_def_cfa_offset 12
  64              		@ sp needed
  65 001a 30BD     		pop	{r4, r5, pc}
  66              	.LVL6:
  67              	.L2:
  68              		.cfi_restore_state
  69              		.loc 1 234 0 discriminator 1
  70 001c 601C     		adds	r0, r4, #1
  71 001e 80B2     		uxth	r0, r0
  72 0020 0DF10601 		add	r1, sp, #6
  73 0024 FFF7FEFF 		bl	EE_ReadVariable
  74              	.LVL7:
  75              		.loc 1 233 0 discriminator 1
  76 0028 0028     		cmp	r0, #0
  77 002a F4D1     		bne	.L4
  78              	.LVL8:
  79              	.LBB11:
  80              		.loc 1 235 0
  81 002c BDF80420 		ldrh	r2, [sp, #4]
  82 0030 BDF80630 		ldrh	r3, [sp, #6]
  83              	.LBE11:
  84              		.loc 1 230 0
  85 0034 0120     		movs	r0, #1
  86              	.LVL9:
  87              	.LBB12:
  88              		.loc 1 235 0
  89 0036 43EA0243 		orr	r3, r3, r2, lsl #16
  90              		.loc 1 236 0
  91 003a 2B60     		str	r3, [r5]
  92              	.LBE12:
  93              		.loc 1 242 0
  94 003c 03B0     		add	sp, sp, #12
  95              		.cfi_def_cfa_offset 12
  96              		@ sp needed
  97 003e 30BD     		pop	{r4, r5, pc}
  98              		.cfi_endproc
  99              	.LFE262:
 100              		.size	read_eeprom_var, .-read_eeprom_var
 101              		.section	.text.store_eeprom_var,"ax",%progbits
 102              		.align	1
 103              		.p2align 4,,15
 104              		.syntax unified
 105              		.thumb
 106              		.thumb_func
 107              		.fpu fpv4-sp-d16
 108              		.type	store_eeprom_var, %function
 109              	store_eeprom_var:
 110              	.LFB263:
 111              		.loc 1 244 0
 112              		.cfi_startproc
 113              		@ args = 0, pretend = 0, frame = 0
 114              		@ frame_needed = 0, uses_anonymous_args = 0
ARM GAS  /tmp/cczU1kEP.s 			page 3


 115              	.LVL10:
 116 0000 70B5     		push	{r4, r5, r6, lr}
 117              		.cfi_def_cfa_offset 16
 118              		.cfi_offset 4, -16
 119              		.cfi_offset 5, -12
 120              		.cfi_offset 6, -8
 121              		.cfi_offset 14, -4
 122              		.loc 1 244 0
 123 0002 0E46     		mov	r6, r1
 124 0004 1446     		mov	r4, r2
 125              		.loc 1 248 0
 126 0006 0568     		ldr	r5, [r0]
 127              	.LVL11:
 128              		.loc 1 257 0
 129 0008 04EB4604 		add	r4, r4, r6, lsl #1
 130              		.loc 1 251 0
 131 000c FFF7FEFF 		bl	timeout_configure_IWDT_slowest
 132              	.LVL12:
 133              		.loc 1 257 0
 134 0010 A4B2     		uxth	r4, r4
 135              		.loc 1 253 0
 136 0012 FFF7FEFF 		bl	FLASH_Unlock
 137              	.LVL13:
 138              		.loc 1 254 0
 139 0016 F220     		movs	r0, #242
 140 0018 FFF7FEFF 		bl	FLASH_ClearFlag
 141              	.LVL14:
 142              		.loc 1 257 0
 143 001c 2046     		mov	r0, r4
 144 001e 290C     		lsrs	r1, r5, #16
 145 0020 FFF7FEFF 		bl	EE_WriteVariable
 146              	.LVL15:
 147 0024 0928     		cmp	r0, #9
 148 0026 06D0     		beq	.L11
 149              		.loc 1 258 0
 150 0028 0024     		movs	r4, #0
 151              	.LVL16:
 152              		.loc 1 267 0
 153 002a FFF7FEFF 		bl	FLASH_Lock
 154              	.LVL17:
 155              		.loc 1 269 0
 156 002e FFF7FEFF 		bl	timeout_configure_IWDT
 157              	.LVL18:
 158              		.loc 1 272 0
 159 0032 2046     		mov	r0, r4
 160 0034 70BD     		pop	{r4, r5, r6, pc}
 161              	.LVL19:
 162              	.L11:
 163              		.loc 1 262 0
 164 0036 601C     		adds	r0, r4, #1
 165 0038 A9B2     		uxth	r1, r5
 166 003a 80B2     		uxth	r0, r0
 167 003c FFF7FEFF 		bl	EE_WriteVariable
 168              	.LVL20:
 169 0040 A0F10904 		sub	r4, r0, #9
 170 0044 B4FA84F4 		clz	r4, r4
 171 0048 6409     		lsrs	r4, r4, #5
ARM GAS  /tmp/cczU1kEP.s 			page 4


 172              	.LVL21:
 173              		.loc 1 267 0
 174 004a FFF7FEFF 		bl	FLASH_Lock
 175              	.LVL22:
 176              		.loc 1 269 0
 177 004e FFF7FEFF 		bl	timeout_configure_IWDT
 178              	.LVL23:
 179              		.loc 1 272 0
 180 0052 2046     		mov	r0, r4
 181 0054 70BD     		pop	{r4, r5, r6, pc}
 182              		.cfi_endproc
 183              	.LFE263:
 184              		.size	store_eeprom_var, .-store_eeprom_var
 185 0056 00BF     		.section	.text.conf_general_store_backup_data,"ax",%progbits
 186              		.align	1
 187              		.p2align 4,,15
 188              		.global	conf_general_store_backup_data
 189              		.syntax unified
 190              		.thumb
 191              		.thumb_func
 192              		.fpu fpv4-sp-d16
 193              		.type	conf_general_store_backup_data, %function
 194              	conf_general_store_backup_data:
 195              	.LFB257:
 196              		.loc 1 138 0
 197              		.cfi_startproc
 198              		@ args = 0, pretend = 0, frame = 0
 199              		@ frame_needed = 0, uses_anonymous_args = 0
 200 0000 70B5     		push	{r4, r5, r6, lr}
 201              		.cfi_def_cfa_offset 16
 202              		.cfi_offset 4, -16
 203              		.cfi_offset 5, -12
 204              		.cfi_offset 6, -8
 205              		.cfi_offset 14, -4
 206              		.loc 1 139 0
 207 0002 FFF7FEFF 		bl	timeout_configure_IWDT_slowest
 208              	.LVL24:
 209              		.loc 1 145 0
 210 0006 FFF7FEFF 		bl	FLASH_Unlock
 211              	.LVL25:
 212              		.loc 1 146 0
 213 000a F220     		movs	r0, #242
 214 000c FFF7FEFF 		bl	FLASH_ClearFlag
 215              	.LVL26:
 216 0010 104D     		ldr	r5, .L18
 217 0012 41F27074 		movw	r4, #6000
 218              	.LBB13:
 219              		.loc 1 149 0
 220 0016 41F27C76 		movw	r6, #6012
 221              	.LVL27:
 222              	.L14:
 223              		.loc 1 150 0
 224 001a 2978     		ldrb	r1, [r5]	@ zero_extendqisi2
 225              	.LVL28:
 226              		.loc 1 151 0
 227 001c 6B78     		ldrb	r3, [r5, #1]	@ zero_extendqisi2
 228              		.loc 1 153 0
ARM GAS  /tmp/cczU1kEP.s 			page 5


 229 001e 2046     		mov	r0, r4
 230 0020 43EA0121 		orr	r1, r3, r1, lsl #8
 231              	.LVL29:
 232 0024 FFF7FEFF 		bl	EE_WriteVariable
 233              	.LVL30:
 234 0028 0134     		adds	r4, r4, #1
 235 002a 0928     		cmp	r0, #9
 236 002c A4B2     		uxth	r4, r4
 237 002e 05F10205 		add	r5, r5, #2
 238 0032 08D1     		bne	.L15
 239              		.loc 1 149 0 discriminator 2
 240 0034 B442     		cmp	r4, r6
 241 0036 F0D1     		bne	.L14
 242              	.LBE13:
 243              		.loc 1 141 0
 244 0038 0124     		movs	r4, #1
 245              	.LVL31:
 246              		.loc 1 158 0
 247 003a FFF7FEFF 		bl	FLASH_Lock
 248              	.LVL32:
 249              		.loc 1 160 0
 250 003e FFF7FEFF 		bl	timeout_configure_IWDT
 251              	.LVL33:
 252              		.loc 1 163 0
 253 0042 2046     		mov	r0, r4
 254 0044 70BD     		pop	{r4, r5, r6, pc}
 255              	.LVL34:
 256              	.L15:
 257              	.LBB14:
 258              		.loc 1 154 0
 259 0046 0024     		movs	r4, #0
 260              	.LVL35:
 261              	.LBE14:
 262              		.loc 1 158 0
 263 0048 FFF7FEFF 		bl	FLASH_Lock
 264              	.LVL36:
 265              		.loc 1 160 0
 266 004c FFF7FEFF 		bl	timeout_configure_IWDT
 267              	.LVL37:
 268              		.loc 1 163 0
 269 0050 2046     		mov	r0, r4
 270 0052 70BD     		pop	{r4, r5, r6, pc}
 271              	.LVL38:
 272              	.L19:
 273              		.align	2
 274              	.L18:
 275 0054 00000000 		.word	.LANCHOR0
 276              		.cfi_endproc
 277              	.LFE257:
 278              		.size	conf_general_store_backup_data, .-conf_general_store_backup_data
 279              		.section	.text.conf_general_init,"ax",%progbits
 280              		.align	1
 281              		.p2align 4,,15
 282              		.global	conf_general_init
 283              		.syntax unified
 284              		.thumb
 285              		.thumb_func
ARM GAS  /tmp/cczU1kEP.s 			page 6


 286              		.fpu fpv4-sp-d16
 287              		.type	conf_general_init, %function
 288              	conf_general_init:
 289              	.LFB256:
 290              		.loc 1 62 0
 291              		.cfi_startproc
 292              		@ args = 0, pretend = 0, frame = 32
 293              		@ frame_needed = 0, uses_anonymous_args = 0
 294 0000 70B5     		push	{r4, r5, r6, lr}
 295              		.cfi_def_cfa_offset 16
 296              		.cfi_offset 4, -16
 297              		.cfi_offset 5, -12
 298              		.cfi_offset 6, -8
 299              		.cfi_offset 14, -4
 300              		.loc 1 64 0
 301 0002 4FF41B62 		mov	r2, #2480
 302 0006 0021     		movs	r1, #0
 303              		.loc 1 62 0
 304 0008 88B0     		sub	sp, sp, #32
 305              		.cfi_def_cfa_offset 48
 306              		.loc 1 64 0
 307 000a 4148     		ldr	r0, .L41
 308 000c FFF7FEFF 		bl	memset
 309              	.LVL39:
 310 0010 404A     		ldr	r2, .L41+4
 311 0012 4FF47A73 		mov	r3, #1000
 312 0016 02F52371 		add	r1, r2, #652
 313              	.LVL40:
 314              	.L21:
 315              	.LBB15:
 316              		.loc 1 68 0 discriminator 3
 317 001a 22F8023F 		strh	r3, [r2, #2]!	@ movhi
 318 001e 0133     		adds	r3, r3, #1
 319              		.loc 1 67 0 discriminator 3
 320 0020 8A42     		cmp	r2, r1
 321 0022 9BB2     		uxth	r3, r3
 322 0024 F9D1     		bne	.L21
 323 0026 3C4A     		ldr	r2, .L41+8
 324              		.loc 1 67 0 is_stmt 0
 325 0028 4FF4FA63 		mov	r3, #2000
 326 002c 02F50E71 		add	r1, r2, #568
 327              	.L22:
 328              	.LBE15:
 329              	.LBB16:
 330              		.loc 1 72 0 is_stmt 1 discriminator 3
 331 0030 22F8023F 		strh	r3, [r2, #2]!	@ movhi
 332              	.LVL41:
 333 0034 0133     		adds	r3, r3, #1
 334              		.loc 1 71 0 discriminator 3
 335 0036 8A42     		cmp	r2, r1
 336 0038 9BB2     		uxth	r3, r3
 337 003a F9D1     		bne	.L22
 338 003c 374A     		ldr	r2, .L41+12
 339              		.loc 1 71 0 is_stmt 0
 340 003e 40F6B833 		movw	r3, #3000
 341 0042 02F58071 		add	r1, r2, #256
 342              	.L23:
ARM GAS  /tmp/cczU1kEP.s 			page 7


 343              	.LBE16:
 344              	.LBB17:
 345              		.loc 1 76 0 is_stmt 1 discriminator 3
 346 0046 22F8023F 		strh	r3, [r2, #2]!	@ movhi
 347              	.LVL42:
 348 004a 0133     		adds	r3, r3, #1
 349              		.loc 1 75 0 discriminator 3
 350 004c 9142     		cmp	r1, r2
 351 004e 9BB2     		uxth	r3, r3
 352 0050 F9D1     		bne	.L23
 353 0052 334A     		ldr	r2, .L41+16
 354              		.loc 1 75 0 is_stmt 0
 355 0054 4FF47A63 		mov	r3, #4000
 356 0058 02F58071 		add	r1, r2, #256
 357              	.L24:
 358              	.LBE17:
 359              	.LBB18:
 360              		.loc 1 80 0 is_stmt 1 discriminator 3
 361 005c 22F8023F 		strh	r3, [r2, #2]!	@ movhi
 362              	.LVL43:
 363 0060 0133     		adds	r3, r3, #1
 364              		.loc 1 79 0 discriminator 3
 365 0062 9142     		cmp	r1, r2
 366 0064 9BB2     		uxth	r3, r3
 367 0066 F9D1     		bne	.L24
 368 0068 2E4A     		ldr	r2, .L41+20
 369              		.loc 1 79 0 is_stmt 0
 370 006a 41F27073 		movw	r3, #6000
 371              	.LBE18:
 372              	.LBB19:
 373              		.loc 1 83 0 is_stmt 1
 374 006e 41F27C70 		movw	r0, #6012
 375              	.L25:
 376 0072 591C     		adds	r1, r3, #1
 377              		.loc 1 84 0 discriminator 3
 378 0074 22F8023F 		strh	r3, [r2, #2]!	@ movhi
 379              	.LVL44:
 380 0078 8BB2     		uxth	r3, r1
 381              		.loc 1 83 0 discriminator 3
 382 007a 8342     		cmp	r3, r0
 383 007c F9D1     		bne	.L25
 384              	.LBE19:
 385              		.loc 1 87 0
 386 007e FFF7FEFF 		bl	FLASH_Unlock
 387              	.LVL45:
 388              		.loc 1 88 0
 389 0082 F220     		movs	r0, #242
 390 0084 FFF7FEFF 		bl	FLASH_ClearFlag
 391              	.LVL46:
 392              		.loc 1 90 0
 393 0088 FFF7FEFF 		bl	EE_Init
 394              	.LVL47:
 395              		.loc 1 91 0
 396 008c FFF7FEFF 		bl	FLASH_Lock
 397              	.LVL48:
 398 0090 02AD     		add	r5, sp, #8
 399              	.LVL49:
ARM GAS  /tmp/cczU1kEP.s 			page 8


 400 0092 41F27074 		movw	r4, #6000
 401              	.LBB20:
 402              		.loc 1 99 0
 403 0096 41F27C76 		movw	r6, #6012
 404              	.LVL50:
 405              	.L27:
 406              		.loc 1 100 0
 407 009a 2046     		mov	r0, r4
 408 009c 0DF10601 		add	r1, sp, #6
 409 00a0 FFF7FEFF 		bl	EE_ReadVariable
 410              	.LVL51:
 411 00a4 0134     		adds	r4, r4, #1
 412 00a6 A4B2     		uxth	r4, r4
 413 00a8 C0B9     		cbnz	r0, .L26
 414              		.loc 1 101 0
 415 00aa BDF80630 		ldrh	r3, [sp, #6]
 416              		.loc 1 102 0
 417 00ae 6B70     		strb	r3, [r5, #1]
 418              		.loc 1 99 0
 419 00b0 B442     		cmp	r4, r6
 420              		.loc 1 101 0
 421 00b2 4FEA1323 		lsr	r3, r3, #8
 422 00b6 2B70     		strb	r3, [r5]
 423 00b8 05F10205 		add	r5, r5, #2
 424              		.loc 1 99 0
 425 00bc EDD1     		bne	.L27
 426              	.LVL52:
 427              	.L28:
 428              	.LBE20:
 429              		.loc 1 124 0
 430 00be 1A4B     		ldr	r3, .L41+24
 431 00c0 0293     		str	r3, [sp, #8]
 432              		.loc 1 125 0
 433 00c2 0593     		str	r3, [sp, #20]
 434              		.loc 1 127 0
 435 00c4 02AD     		add	r5, sp, #8
 436              	.LVL53:
 437 00c6 0FCD     		ldmia	r5!, {r0, r1, r2, r3}
 438              	.LVL54:
 439 00c8 184C     		ldr	r4, .L41+28
 440 00ca 0FC4     		stmia	r4!, {r0, r1, r2, r3}
 441 00cc 95E80300 		ldm	r5, {r0, r1}
 442 00d0 84E80300 		stm	r4, {r0, r1}
 443              		.loc 1 128 0
 444 00d4 FFF7FEFF 		bl	conf_general_store_backup_data
 445              	.LVL55:
 446              		.loc 1 129 0
 447 00d8 08B0     		add	sp, sp, #32
 448              		.cfi_remember_state
 449              		.cfi_def_cfa_offset 16
 450              		@ sp needed
 451 00da 70BD     		pop	{r4, r5, r6, pc}
 452              	.LVL56:
 453              	.L26:
 454              		.cfi_restore_state
 455              		.loc 1 115 0
 456 00dc 134A     		ldr	r2, .L41+28
ARM GAS  /tmp/cczU1kEP.s 			page 9


 457 00de 1249     		ldr	r1, .L41+24
 458 00e0 1068     		ldr	r0, [r2]
 459              		.loc 1 110 0
 460 00e2 0023     		movs	r3, #0
 461              		.loc 1 115 0
 462 00e4 8842     		cmp	r0, r1
 463              		.loc 1 110 0
 464 00e6 CDE90233 		strd	r3, r3, [sp, #8]
 465 00ea CDE90433 		strd	r3, r3, [sp, #16]
 466 00ee CDE90633 		strd	r3, r3, [sp, #24]
 467              		.loc 1 115 0
 468 00f2 08D0     		beq	.L40
 469              	.L31:
 470              		.loc 1 119 0
 471 00f4 D168     		ldr	r1, [r2, #12]
 472 00f6 0C4B     		ldr	r3, .L41+24
 473 00f8 9942     		cmp	r1, r3
 474 00fa E0D1     		bne	.L28
 475              		.loc 1 120 0
 476 00fc 1169     		ldr	r1, [r2, #16]
 477 00fe 5369     		ldr	r3, [r2, #20]
 478 0100 CDE90613 		strd	r1, r3, [sp, #24]
 479 0104 DBE7     		b	.L28
 480              	.L40:
 481              		.loc 1 116 0
 482 0106 5168     		ldr	r1, [r2, #4]
 483 0108 9368     		ldr	r3, [r2, #8]
 484 010a CDE90313 		strd	r1, r3, [sp, #12]
 485 010e F1E7     		b	.L31
 486              	.L42:
 487              		.align	2
 488              	.L41:
 489 0110 00000000 		.word	.LANCHOR1
 490 0114 FEFFFFFF 		.word	.LANCHOR1-2
 491 0118 8A020000 		.word	.LANCHOR1+650
 492 011c C2040000 		.word	.LANCHOR1+1218
 493 0120 C2050000 		.word	.LANCHOR1+1474
 494 0124 C2060000 		.word	.LANCHOR1+1730
 495 0128 1E6B8905 		.word	92891934
 496 012c 00000000 		.word	.LANCHOR0
 497              		.cfi_endproc
 498              	.LFE256:
 499              		.size	conf_general_init, .-conf_general_init
 500              		.section	.text.conf_general_read_eeprom_var_hw,"ax",%progbits
 501              		.align	1
 502              		.p2align 4,,15
 503              		.global	conf_general_read_eeprom_var_hw
 504              		.syntax unified
 505              		.thumb
 506              		.thumb_func
 507              		.fpu fpv4-sp-d16
 508              		.type	conf_general_read_eeprom_var_hw, %function
 509              	conf_general_read_eeprom_var_hw:
 510              	.LFB258:
 511              		.loc 1 177 0
 512              		.cfi_startproc
 513              		@ args = 0, pretend = 0, frame = 0
ARM GAS  /tmp/cczU1kEP.s 			page 10


 514              		@ frame_needed = 0, uses_anonymous_args = 0
 515              		@ link register save eliminated.
 516              	.LVL57:
 517              		.loc 1 178 0
 518 0000 40F6B832 		movw	r2, #3000
 519 0004 FFF7FEBF 		b	read_eeprom_var
 520              	.LVL58:
 521              		.cfi_endproc
 522              	.LFE258:
 523              		.size	conf_general_read_eeprom_var_hw, .-conf_general_read_eeprom_var_hw
 524              		.section	.text.conf_general_read_eeprom_var_custom,"ax",%progbits
 525              		.align	1
 526              		.p2align 4,,15
 527              		.global	conf_general_read_eeprom_var_custom
 528              		.syntax unified
 529              		.thumb
 530              		.thumb_func
 531              		.fpu fpv4-sp-d16
 532              		.type	conf_general_read_eeprom_var_custom, %function
 533              	conf_general_read_eeprom_var_custom:
 534              	.LFB259:
 535              		.loc 1 193 0
 536              		.cfi_startproc
 537              		@ args = 0, pretend = 0, frame = 0
 538              		@ frame_needed = 0, uses_anonymous_args = 0
 539              		@ link register save eliminated.
 540              	.LVL59:
 541              		.loc 1 194 0
 542 0000 4FF47A62 		mov	r2, #4000
 543 0004 FFF7FEBF 		b	read_eeprom_var
 544              	.LVL60:
 545              		.cfi_endproc
 546              	.LFE259:
 547              		.size	conf_general_read_eeprom_var_custom, .-conf_general_read_eeprom_var_custom
 548              		.section	.text.conf_general_store_eeprom_var_hw,"ax",%progbits
 549              		.align	1
 550              		.p2align 4,,15
 551              		.global	conf_general_store_eeprom_var_hw
 552              		.syntax unified
 553              		.thumb
 554              		.thumb_func
 555              		.fpu fpv4-sp-d16
 556              		.type	conf_general_store_eeprom_var_hw, %function
 557              	conf_general_store_eeprom_var_hw:
 558              	.LFB260:
 559              		.loc 1 209 0
 560              		.cfi_startproc
 561              		@ args = 0, pretend = 0, frame = 0
 562              		@ frame_needed = 0, uses_anonymous_args = 0
 563              		@ link register save eliminated.
 564              	.LVL61:
 565              		.loc 1 210 0
 566 0000 40F6B832 		movw	r2, #3000
 567 0004 FFF7FEBF 		b	store_eeprom_var
 568              	.LVL62:
 569              		.cfi_endproc
 570              	.LFE260:
ARM GAS  /tmp/cczU1kEP.s 			page 11


 571              		.size	conf_general_store_eeprom_var_hw, .-conf_general_store_eeprom_var_hw
 572              		.section	.text.conf_general_store_eeprom_var_custom,"ax",%progbits
 573              		.align	1
 574              		.p2align 4,,15
 575              		.global	conf_general_store_eeprom_var_custom
 576              		.syntax unified
 577              		.thumb
 578              		.thumb_func
 579              		.fpu fpv4-sp-d16
 580              		.type	conf_general_store_eeprom_var_custom, %function
 581              	conf_general_store_eeprom_var_custom:
 582              	.LFB261:
 583              		.loc 1 225 0
 584              		.cfi_startproc
 585              		@ args = 0, pretend = 0, frame = 0
 586              		@ frame_needed = 0, uses_anonymous_args = 0
 587              		@ link register save eliminated.
 588              	.LVL63:
 589              		.loc 1 226 0
 590 0000 4FF47A62 		mov	r2, #4000
 591 0004 FFF7FEBF 		b	store_eeprom_var
 592              	.LVL64:
 593              		.cfi_endproc
 594              	.LFE261:
 595              		.size	conf_general_store_eeprom_var_custom, .-conf_general_store_eeprom_var_custom
 596              		.section	.text.conf_general_read_app_configuration,"ax",%progbits
 597              		.align	1
 598              		.p2align 4,,15
 599              		.global	conf_general_read_app_configuration
 600              		.syntax unified
 601              		.thumb
 602              		.thumb_func
 603              		.fpu fpv4-sp-d16
 604              		.type	conf_general_read_app_configuration, %function
 605              	conf_general_read_app_configuration:
 606              	.LFB264:
 607              		.loc 1 280 0
 608              		.cfi_startproc
 609              		@ args = 0, pretend = 0, frame = 64
 610              		@ frame_needed = 0, uses_anonymous_args = 0
 611              	.LVL65:
 612 0000 F0B5     		push	{r4, r5, r6, r7, lr}
 613              		.cfi_def_cfa_offset 20
 614              		.cfi_offset 4, -20
 615              		.cfi_offset 5, -16
 616              		.cfi_offset 6, -12
 617              		.cfi_offset 7, -8
 618              		.cfi_offset 14, -4
 619 0002 0746     		mov	r7, r0
 620              	.LVL66:
 621 0004 91B0     		sub	sp, sp, #68
 622              		.cfi_def_cfa_offset 88
 623 0006 451C     		adds	r5, r0, #1
 624              		.loc 1 280 0
 625 0008 4FF4FA64 		mov	r4, #2000
 626              	.LBB21:
 627              		.loc 1 285 0
ARM GAS  /tmp/cczU1kEP.s 			page 12


 628 000c 40F6EC06 		movw	r6, #2284
 629 0010 09E0     		b	.L49
 630              	.LVL67:
 631              	.L58:
 632              		.loc 1 287 0
 633 0012 BDF80230 		ldrh	r3, [sp, #2]
 634              		.loc 1 285 0
 635 0016 B442     		cmp	r4, r6
 636              		.loc 1 287 0
 637 0018 4FEA1322 		lsr	r2, r3, #8
 638 001c 05F8012C 		strb	r2, [r5, #-1]
 639              		.loc 1 288 0
 640 0020 05F8023B 		strb	r3, [r5], #2
 641              		.loc 1 285 0
 642 0024 1AD0     		beq	.L57
 643              	.L49:
 644              		.loc 1 286 0
 645 0026 2046     		mov	r0, r4
 646 0028 0DF10201 		add	r1, sp, #2
 647 002c FFF7FEFF 		bl	EE_ReadVariable
 648              	.LVL68:
 649 0030 0134     		adds	r4, r4, #1
 650 0032 A4B2     		uxth	r4, r4
 651 0034 0028     		cmp	r0, #0
 652 0036 ECD0     		beq	.L58
 653              	.LVL69:
 654              	.LBE21:
 655              		.loc 1 299 0
 656 0038 3846     		mov	r0, r7
 657 003a B7F83442 		ldrh	r4, [r7, #564]
 658 003e FFF7FEFF 		bl	app_calc_crc
 659              	.LVL70:
 660 0042 8442     		cmp	r4, r0
 661 0044 05D0     		beq	.L52
 662              	.LVL71:
 663              	.L51:
 664              	.LBB22:
 665              		.loc 1 303 0
 666 0046 1723     		movs	r3, #23
 667              		.loc 1 304 0
 668 0048 01A8     		add	r0, sp, #4
 669              		.loc 1 303 0
 670 004a 8DF80530 		strb	r3, [sp, #5]
 671              		.loc 1 304 0
 672 004e FFF7FEFF 		bl	terminal_add_fault_data
 673              	.LVL72:
 674              	.L52:
 675              	.LBE22:
 676              		.loc 1 309 0
 677 0052 3846     		mov	r0, r7
 678 0054 FFF7FEFF 		bl	confgenerator_set_defaults_appconf
 679              	.LVL73:
 680              		.loc 1 311 0
 681 0058 11B0     		add	sp, sp, #68
 682              		.cfi_remember_state
 683              		.cfi_def_cfa_offset 20
 684              		@ sp needed
ARM GAS  /tmp/cczU1kEP.s 			page 13


 685 005a F0BD     		pop	{r4, r5, r6, r7, pc}
 686              	.LVL74:
 687              	.L57:
 688              		.cfi_restore_state
 689              		.loc 1 299 0
 690 005c 3846     		mov	r0, r7
 691 005e B7F83442 		ldrh	r4, [r7, #564]
 692 0062 FFF7FEFF 		bl	app_calc_crc
 693              	.LVL75:
 694 0066 8442     		cmp	r4, r0
 695 0068 EDD1     		bne	.L51
 696              		.loc 1 311 0
 697 006a 11B0     		add	sp, sp, #68
 698              		.cfi_def_cfa_offset 20
 699              		@ sp needed
 700 006c F0BD     		pop	{r4, r5, r6, r7, pc}
 701              		.cfi_endproc
 702              	.LFE264:
 703              		.size	conf_general_read_app_configuration, .-conf_general_read_app_configuration
 704 006e 00BF     		.section	.text.conf_general_store_app_configuration,"ax",%progbits
 705              		.align	1
 706              		.p2align 4,,15
 707              		.global	conf_general_store_app_configuration
 708              		.syntax unified
 709              		.thumb
 710              		.thumb_func
 711              		.fpu fpv4-sp-d16
 712              		.type	conf_general_store_app_configuration, %function
 713              	conf_general_store_app_configuration:
 714              	.LFB265:
 715              		.loc 1 319 0
 716              		.cfi_startproc
 717              		@ args = 0, pretend = 0, frame = 0
 718              		@ frame_needed = 0, uses_anonymous_args = 0
 719              	.LVL76:
 720 0000 2DE9F041 		push	{r4, r5, r6, r7, r8, lr}
 721              		.cfi_def_cfa_offset 24
 722              		.cfi_offset 4, -24
 723              		.cfi_offset 5, -20
 724              		.cfi_offset 6, -16
 725              		.cfi_offset 7, -12
 726              		.cfi_offset 8, -8
 727              		.cfi_offset 14, -4
 728              		.loc 1 319 0
 729 0004 0546     		mov	r5, r0
 730              		.loc 1 320 0
 731 0006 FFF7FEFF 		bl	mc_interface_get_motor_thread
 732              	.LVL77:
 733 000a 0746     		mov	r7, r0
 734              	.LVL78:
 735              		.loc 1 322 0
 736 000c 0120     		movs	r0, #1
 737              	.LVL79:
 738 000e FFF7FEFF 		bl	mc_interface_select_motor_thread
 739              	.LVL80:
 740              		.loc 1 323 0
 741 0012 FFF7FEFF 		bl	mc_interface_unlock
ARM GAS  /tmp/cczU1kEP.s 			page 14


 742              	.LVL81:
 743              		.loc 1 324 0
 744 0016 FFF7FEFF 		bl	mc_interface_release_motor
 745              	.LVL82:
 746              		.loc 1 325 0
 747 001a FFF7FEFF 		bl	mc_interface_lock
 748              	.LVL83:
 749              		.loc 1 327 0
 750 001e B0EE000A 		vmov.f32	s0, #2.0e+0
 751 0022 FFF7FEFF 		bl	mc_interface_wait_for_motor_release
 752              	.LVL84:
 753 0026 0028     		cmp	r0, #0
 754 0028 56D0     		beq	.L68
 755              		.loc 1 333 0
 756 002a 0220     		movs	r0, #2
 757 002c FFF7FEFF 		bl	mc_interface_select_motor_thread
 758              	.LVL85:
 759              		.loc 1 334 0
 760 0030 FFF7FEFF 		bl	mc_interface_unlock
 761              	.LVL86:
 762              		.loc 1 335 0
 763 0034 FFF7FEFF 		bl	mc_interface_release_motor
 764              	.LVL87:
 765              		.loc 1 336 0
 766 0038 FFF7FEFF 		bl	mc_interface_lock
 767              	.LVL88:
 768              		.loc 1 338 0
 769 003c B0EE000A 		vmov.f32	s0, #2.0e+0
 770 0040 FFF7FEFF 		bl	mc_interface_wait_for_motor_release
 771              	.LVL89:
 772 0044 0646     		mov	r6, r0
 773 0046 0028     		cmp	r0, #0
 774 0048 3ED0     		beq	.L69
 775              		.loc 1 344 0
 776 004a FFF7FEFF 		bl	utils_sys_lock_cnt
 777              	.LVL90:
 778              		.loc 1 346 0
 779 004e FFF7FEFF 		bl	timeout_configure_IWDT_slowest
 780              	.LVL91:
 781              		.loc 1 352 0
 782 0052 2846     		mov	r0, r5
 783 0054 FFF7FEFF 		bl	app_calc_crc
 784              	.LVL92:
 785 0058 A5F83402 		strh	r0, [r5, #564]	@ movhi
 786              		.loc 1 354 0
 787 005c FFF7FEFF 		bl	FLASH_Unlock
 788              	.LVL93:
 789              		.loc 1 355 0
 790 0060 F220     		movs	r0, #242
 791 0062 FFF7FEFF 		bl	FLASH_ClearFlag
 792              	.LVL94:
 793 0066 0135     		adds	r5, r5, #1
 794              	.LVL95:
 795 0068 4FF4FA64 		mov	r4, #2000
 796              	.LBB23:
 797              		.loc 1 358 0
 798 006c 40F6EC08 		movw	r8, #2284
ARM GAS  /tmp/cczU1kEP.s 			page 15


 799 0070 01E0     		b	.L64
 800              	.LVL96:
 801              	.L70:
 802              		.loc 1 358 0 is_stmt 0 discriminator 2
 803 0072 4445     		cmp	r4, r8
 804 0074 0ED0     		beq	.L63
 805              	.L64:
 806              		.loc 1 359 0 is_stmt 1
 807 0076 15F8011C 		ldrb	r1, [r5, #-1]	@ zero_extendqisi2
 808              	.LVL97:
 809              		.loc 1 360 0
 810 007a 2B78     		ldrb	r3, [r5]	@ zero_extendqisi2
 811              		.loc 1 362 0
 812 007c 2046     		mov	r0, r4
 813 007e 43EA0121 		orr	r1, r3, r1, lsl #8
 814              	.LVL98:
 815 0082 FFF7FEFF 		bl	EE_WriteVariable
 816              	.LVL99:
 817 0086 0134     		adds	r4, r4, #1
 818 0088 0928     		cmp	r0, #9
 819 008a A4B2     		uxth	r4, r4
 820 008c 05F10205 		add	r5, r5, #2
 821 0090 EFD0     		beq	.L70
 822              		.loc 1 363 0
 823 0092 0026     		movs	r6, #0
 824              	.L63:
 825              	.LVL100:
 826              	.LBE23:
 827              		.loc 1 367 0
 828 0094 FFF7FEFF 		bl	FLASH_Lock
 829              	.LVL101:
 830              		.loc 1 369 0
 831 0098 FFF7FEFF 		bl	timeout_configure_IWDT
 832              	.LVL102:
 833              		.loc 1 371 0
 834 009c 4FF47A70 		mov	r0, #1000
 835 00a0 FFF7FEFF 		bl	chThdSleep
 836              	.LVL103:
 837              		.loc 1 373 0
 838 00a4 0120     		movs	r0, #1
 839 00a6 FFF7FEFF 		bl	mc_interface_select_motor_thread
 840              	.LVL104:
 841              		.loc 1 374 0
 842 00aa FFF7FEFF 		bl	mc_interface_unlock
 843              	.LVL105:
 844              		.loc 1 375 0
 845 00ae 0220     		movs	r0, #2
 846 00b0 FFF7FEFF 		bl	mc_interface_select_motor_thread
 847              	.LVL106:
 848              		.loc 1 376 0
 849 00b4 FFF7FEFF 		bl	mc_interface_unlock
 850              	.LVL107:
 851              		.loc 1 378 0
 852 00b8 FFF7FEFF 		bl	utils_sys_unlock_cnt
 853              	.LVL108:
 854              		.loc 1 380 0
 855 00bc 3846     		mov	r0, r7
ARM GAS  /tmp/cczU1kEP.s 			page 16


 856 00be FFF7FEFF 		bl	mc_interface_select_motor_thread
 857              	.LVL109:
 858              		.loc 1 383 0
 859 00c2 3046     		mov	r0, r6
 860 00c4 BDE8F081 		pop	{r4, r5, r6, r7, r8, pc}
 861              	.LVL110:
 862              	.L69:
 863              		.loc 1 339 0
 864 00c8 FFF7FEFF 		bl	mc_interface_unlock
 865              	.LVL111:
 866              		.loc 1 340 0
 867 00cc 3846     		mov	r0, r7
 868 00ce FFF7FEFF 		bl	mc_interface_select_motor_thread
 869              	.LVL112:
 870              		.loc 1 383 0
 871 00d2 3046     		mov	r0, r6
 872 00d4 BDE8F081 		pop	{r4, r5, r6, r7, r8, pc}
 873              	.LVL113:
 874              	.L68:
 875 00d8 0646     		mov	r6, r0
 876              		.loc 1 328 0
 877 00da FFF7FEFF 		bl	mc_interface_unlock
 878              	.LVL114:
 879              		.loc 1 329 0
 880 00de 3846     		mov	r0, r7
 881 00e0 FFF7FEFF 		bl	mc_interface_select_motor_thread
 882              	.LVL115:
 883              		.loc 1 383 0
 884 00e4 3046     		mov	r0, r6
 885 00e6 BDE8F081 		pop	{r4, r5, r6, r7, r8, pc}
 886              		.cfi_endproc
 887              	.LFE265:
 888              		.size	conf_general_store_app_configuration, .-conf_general_store_app_configuration
 889 00ea 00BF     		.section	.text.conf_general_read_mc_configuration,"ax",%progbits
 890              		.align	1
 891              		.p2align 4,,15
 892              		.global	conf_general_read_mc_configuration
 893              		.syntax unified
 894              		.thumb
 895              		.thumb_func
 896              		.fpu fpv4-sp-d16
 897              		.type	conf_general_read_mc_configuration, %function
 898              	conf_general_read_mc_configuration:
 899              	.LFB266:
 900              		.loc 1 391 0
 901              		.cfi_startproc
 902              		@ args = 0, pretend = 0, frame = 64
 903              		@ frame_needed = 0, uses_anonymous_args = 0
 904              	.LVL116:
 905 0000 2DE9F041 		push	{r4, r5, r6, r7, r8, lr}
 906              		.cfi_def_cfa_offset 24
 907              		.cfi_offset 4, -24
 908              		.cfi_offset 5, -20
 909              		.cfi_offset 6, -16
 910              		.cfi_offset 7, -12
 911              		.cfi_offset 8, -8
 912              		.cfi_offset 14, -4
ARM GAS  /tmp/cczU1kEP.s 			page 17


 913              		.loc 1 395 0
 914 0004 41F28837 		movw	r7, #5000
 915              		.loc 1 391 0
 916 0008 90B0     		sub	sp, sp, #64
 917              		.cfi_def_cfa_offset 88
 918              		.loc 1 391 0
 919 000a 0646     		mov	r6, r0
 920              	.LVL117:
 921 000c 0546     		mov	r5, r0
 922              		.loc 1 395 0
 923 000e 0029     		cmp	r1, #0
 924 0010 08BF     		it	eq
 925 0012 4FF47A77 		moveq	r7, #1000
 926              	.LVL118:
 927 0016 8846     		mov	r8, r1
 928              	.LBB24:
 929              		.loc 1 397 0
 930 0018 0024     		movs	r4, #0
 931 001a 0BE0     		b	.L74
 932              	.LVL119:
 933              	.L84:
 934              		.loc 1 399 0
 935 001c BDF80230 		ldrh	r3, [sp, #2]
 936 0020 1A0A     		lsrs	r2, r3, #8
 937 0022 06F81420 		strb	r2, [r6, r4, lsl #1]
 938              		.loc 1 397 0
 939 0026 0134     		adds	r4, r4, #1
 940              	.LVL120:
 941 0028 B4F5A37F 		cmp	r4, #326
 942              		.loc 1 400 0
 943 002c 6B70     		strb	r3, [r5, #1]
 944 002e 05F10205 		add	r5, r5, #2
 945              		.loc 1 397 0
 946 0032 1BD0     		beq	.L83
 947              	.LVL121:
 948              	.L74:
 949              		.loc 1 398 0
 950 0034 3819     		adds	r0, r7, r4
 951 0036 80B2     		uxth	r0, r0
 952 0038 0DF10201 		add	r1, sp, #2
 953 003c FFF7FEFF 		bl	EE_ReadVariable
 954              	.LVL122:
 955 0040 0028     		cmp	r0, #0
 956 0042 EBD0     		beq	.L84
 957              	.LVL123:
 958              	.LBE24:
 959              		.loc 1 411 0
 960 0044 4146     		mov	r1, r8
 961 0046 3046     		mov	r0, r6
 962 0048 B6F88842 		ldrh	r4, [r6, #648]
 963              	.LVL124:
 964 004c FFF7FEFF 		bl	mc_interface_calc_crc
 965              	.LVL125:
 966 0050 8442     		cmp	r4, r0
 967 0052 05D0     		beq	.L77
 968              	.LVL126:
 969              	.L76:
ARM GAS  /tmp/cczU1kEP.s 			page 18


 970              	.LBB25:
 971              		.loc 1 415 0
 972 0054 1823     		movs	r3, #24
 973              		.loc 1 416 0
 974 0056 01A8     		add	r0, sp, #4
 975              		.loc 1 415 0
 976 0058 8DF80530 		strb	r3, [sp, #5]
 977              		.loc 1 416 0
 978 005c FFF7FEFF 		bl	terminal_add_fault_data
 979              	.LVL127:
 980              	.L77:
 981              	.LBE25:
 982              		.loc 1 420 0
 983 0060 3046     		mov	r0, r6
 984 0062 FFF7FEFF 		bl	confgenerator_set_defaults_mcconf
 985              	.LVL128:
 986              		.loc 1 422 0
 987 0066 10B0     		add	sp, sp, #64
 988              		.cfi_remember_state
 989              		.cfi_def_cfa_offset 24
 990              		@ sp needed
 991 0068 BDE8F081 		pop	{r4, r5, r6, r7, r8, pc}
 992              	.LVL129:
 993              	.L83:
 994              		.cfi_restore_state
 995              		.loc 1 411 0
 996 006c 4146     		mov	r1, r8
 997 006e 3046     		mov	r0, r6
 998 0070 B6F88842 		ldrh	r4, [r6, #648]
 999              	.LVL130:
 1000 0074 FFF7FEFF 		bl	mc_interface_calc_crc
 1001              	.LVL131:
 1002 0078 8442     		cmp	r4, r0
 1003 007a EBD1     		bne	.L76
 1004              		.loc 1 422 0
 1005 007c 10B0     		add	sp, sp, #64
 1006              		.cfi_def_cfa_offset 24
 1007              		@ sp needed
 1008 007e BDE8F081 		pop	{r4, r5, r6, r7, r8, pc}
 1009              		.cfi_endproc
 1010              	.LFE266:
 1011              		.size	conf_general_read_mc_configuration, .-conf_general_read_mc_configuration
 1012              		.section	.text.conf_general_store_mc_configuration,"ax",%progbits
 1013              		.align	1
 1014              		.p2align 4,,15
 1015              		.global	conf_general_store_mc_configuration
 1016              		.syntax unified
 1017              		.thumb
 1018              		.thumb_func
 1019              		.fpu fpv4-sp-d16
 1020              		.type	conf_general_store_mc_configuration, %function
 1021              	conf_general_store_mc_configuration:
 1022              	.LFB267:
 1023              		.loc 1 430 0
 1024              		.cfi_startproc
 1025              		@ args = 0, pretend = 0, frame = 0
 1026              		@ frame_needed = 0, uses_anonymous_args = 0
ARM GAS  /tmp/cczU1kEP.s 			page 19


 1027              	.LVL132:
 1028 0000 2DE9F843 		push	{r3, r4, r5, r6, r7, r8, r9, lr}
 1029              		.cfi_def_cfa_offset 32
 1030              		.cfi_offset 3, -32
 1031              		.cfi_offset 4, -28
 1032              		.cfi_offset 5, -24
 1033              		.cfi_offset 6, -20
 1034              		.cfi_offset 7, -16
 1035              		.cfi_offset 8, -12
 1036              		.cfi_offset 9, -8
 1037              		.cfi_offset 14, -4
 1038              		.loc 1 430 0
 1039 0004 0C46     		mov	r4, r1
 1040 0006 0646     		mov	r6, r0
 1041              		.loc 1 431 0
 1042 0008 FFF7FEFF 		bl	mc_interface_get_motor_thread
 1043              	.LVL133:
 1044 000c 8146     		mov	r9, r0
 1045              	.LVL134:
 1046              		.loc 1 433 0
 1047 000e 0120     		movs	r0, #1
 1048              	.LVL135:
 1049 0010 FFF7FEFF 		bl	mc_interface_select_motor_thread
 1050              	.LVL136:
 1051              		.loc 1 434 0
 1052 0014 FFF7FEFF 		bl	mc_interface_unlock
 1053              	.LVL137:
 1054              		.loc 1 435 0
 1055 0018 FFF7FEFF 		bl	mc_interface_release_motor
 1056              	.LVL138:
 1057              		.loc 1 436 0
 1058 001c FFF7FEFF 		bl	mc_interface_lock
 1059              	.LVL139:
 1060              		.loc 1 438 0
 1061 0020 B0EE000A 		vmov.f32	s0, #2.0e+0
 1062 0024 FFF7FEFF 		bl	mc_interface_wait_for_motor_release
 1063              	.LVL140:
 1064 0028 0028     		cmp	r0, #0
 1065 002a 5DD0     		beq	.L96
 1066              		.loc 1 444 0
 1067 002c 0220     		movs	r0, #2
 1068 002e FFF7FEFF 		bl	mc_interface_select_motor_thread
 1069              	.LVL141:
 1070              		.loc 1 445 0
 1071 0032 FFF7FEFF 		bl	mc_interface_unlock
 1072              	.LVL142:
 1073              		.loc 1 446 0
 1074 0036 FFF7FEFF 		bl	mc_interface_release_motor
 1075              	.LVL143:
 1076              		.loc 1 447 0
 1077 003a FFF7FEFF 		bl	mc_interface_lock
 1078              	.LVL144:
 1079              		.loc 1 449 0
 1080 003e B0EE000A 		vmov.f32	s0, #2.0e+0
 1081 0042 FFF7FEFF 		bl	mc_interface_wait_for_motor_release
 1082              	.LVL145:
 1083 0046 0746     		mov	r7, r0
ARM GAS  /tmp/cczU1kEP.s 			page 20


 1084 0048 0028     		cmp	r0, #0
 1085 004a 45D0     		beq	.L97
 1086              		.loc 1 455 0
 1087 004c FFF7FEFF 		bl	utils_sys_lock_cnt
 1088              	.LVL146:
 1089              		.loc 1 457 0
 1090 0050 FFF7FEFF 		bl	timeout_configure_IWDT_slowest
 1091              	.LVL147:
 1092              		.loc 1 461 0
 1093 0054 002C     		cmp	r4, #0
 1094              		.loc 1 463 0
 1095 0056 2146     		mov	r1, r4
 1096 0058 3046     		mov	r0, r6
 1097              		.loc 1 461 0
 1098 005a 41F28838 		movw	r8, #5000
 1099 005e 08BF     		it	eq
 1100 0060 4FF47A78 		moveq	r8, #1000
 1101              		.loc 1 463 0
 1102 0064 FFF7FEFF 		bl	mc_interface_calc_crc
 1103              	.LVL148:
 1104 0068 A6F88802 		strh	r0, [r6, #648]	@ movhi
 1105              		.loc 1 465 0
 1106 006c FFF7FEFF 		bl	FLASH_Unlock
 1107              	.LVL149:
 1108              		.loc 1 466 0
 1109 0070 F220     		movs	r0, #242
 1110 0072 FFF7FEFF 		bl	FLASH_ClearFlag
 1111              	.LVL150:
 1112 0076 3546     		mov	r5, r6
 1113              	.LBB26:
 1114              		.loc 1 469 0
 1115 0078 0024     		movs	r4, #0
 1116 007a 02E0     		b	.L91
 1117              	.LVL151:
 1118              	.L98:
 1119              		.loc 1 469 0 is_stmt 0 discriminator 2
 1120 007c B4F5A37F 		cmp	r4, #326
 1121 0080 10D0     		beq	.L90
 1122              	.LVL152:
 1123              	.L91:
 1124              	.LBB27:
 1125              		.loc 1 470 0 is_stmt 1
 1126 0082 16F81410 		ldrb	r1, [r6, r4, lsl #1]	@ zero_extendqisi2
 1127              	.LVL153:
 1128              		.loc 1 471 0
 1129 0086 6B78     		ldrb	r3, [r5, #1]	@ zero_extendqisi2
 1130              		.loc 1 473 0
 1131 0088 08EB0400 		add	r0, r8, r4
 1132 008c 43EA0121 		orr	r1, r3, r1, lsl #8
 1133              	.LVL154:
 1134 0090 80B2     		uxth	r0, r0
 1135 0092 FFF7FEFF 		bl	EE_WriteVariable
 1136              	.LVL155:
 1137 0096 0928     		cmp	r0, #9
 1138              	.LBE27:
 1139              		.loc 1 469 0
 1140 0098 04F10104 		add	r4, r4, #1
ARM GAS  /tmp/cczU1kEP.s 			page 21


 1141              	.LVL156:
 1142 009c 05F10205 		add	r5, r5, #2
 1143              	.LBB28:
 1144              		.loc 1 473 0
 1145 00a0 ECD0     		beq	.L98
 1146              		.loc 1 474 0
 1147 00a2 0027     		movs	r7, #0
 1148              	.L90:
 1149              	.LVL157:
 1150              	.LBE28:
 1151              	.LBE26:
 1152              		.loc 1 478 0
 1153 00a4 FFF7FEFF 		bl	FLASH_Lock
 1154              	.LVL158:
 1155              		.loc 1 480 0
 1156 00a8 FFF7FEFF 		bl	timeout_configure_IWDT
 1157              	.LVL159:
 1158              		.loc 1 482 0
 1159 00ac 4FF47A70 		mov	r0, #1000
 1160 00b0 FFF7FEFF 		bl	chThdSleep
 1161              	.LVL160:
 1162              		.loc 1 484 0
 1163 00b4 0120     		movs	r0, #1
 1164 00b6 FFF7FEFF 		bl	mc_interface_select_motor_thread
 1165              	.LVL161:
 1166              		.loc 1 485 0
 1167 00ba FFF7FEFF 		bl	mc_interface_unlock
 1168              	.LVL162:
 1169              		.loc 1 486 0
 1170 00be 0220     		movs	r0, #2
 1171 00c0 FFF7FEFF 		bl	mc_interface_select_motor_thread
 1172              	.LVL163:
 1173              		.loc 1 487 0
 1174 00c4 FFF7FEFF 		bl	mc_interface_unlock
 1175              	.LVL164:
 1176              		.loc 1 489 0
 1177 00c8 FFF7FEFF 		bl	utils_sys_unlock_cnt
 1178              	.LVL165:
 1179              		.loc 1 491 0
 1180 00cc 4846     		mov	r0, r9
 1181 00ce FFF7FEFF 		bl	mc_interface_select_motor_thread
 1182              	.LVL166:
 1183              		.loc 1 494 0
 1184 00d2 3846     		mov	r0, r7
 1185 00d4 BDE8F883 		pop	{r3, r4, r5, r6, r7, r8, r9, pc}
 1186              	.LVL167:
 1187              	.L97:
 1188              		.loc 1 450 0
 1189 00d8 FFF7FEFF 		bl	mc_interface_unlock
 1190              	.LVL168:
 1191              		.loc 1 451 0
 1192 00dc 4846     		mov	r0, r9
 1193 00de FFF7FEFF 		bl	mc_interface_select_motor_thread
 1194              	.LVL169:
 1195              		.loc 1 494 0
 1196 00e2 3846     		mov	r0, r7
 1197 00e4 BDE8F883 		pop	{r3, r4, r5, r6, r7, r8, r9, pc}
ARM GAS  /tmp/cczU1kEP.s 			page 22


 1198              	.LVL170:
 1199              	.L96:
 1200 00e8 0746     		mov	r7, r0
 1201              		.loc 1 439 0
 1202 00ea FFF7FEFF 		bl	mc_interface_unlock
 1203              	.LVL171:
 1204              		.loc 1 440 0
 1205 00ee 4846     		mov	r0, r9
 1206 00f0 FFF7FEFF 		bl	mc_interface_select_motor_thread
 1207              	.LVL172:
 1208              		.loc 1 494 0
 1209 00f4 3846     		mov	r0, r7
 1210 00f6 BDE8F883 		pop	{r3, r4, r5, r6, r7, r8, r9, pc}
 1211              		.cfi_endproc
 1212              	.LFE267:
 1213              		.size	conf_general_store_mc_configuration, .-conf_general_store_mc_configuration
 1214 00fa 00BF     		.section	.text.conf_general_detect_motor_param,"ax",%progbits
 1215              		.align	1
 1216              		.p2align 4,,15
 1217              		.global	conf_general_detect_motor_param
 1218              		.syntax unified
 1219              		.thumb
 1220              		.thumb_func
 1221              		.fpu fpv4-sp-d16
 1222              		.type	conf_general_detect_motor_param, %function
 1223              	conf_general_detect_motor_param:
 1224              	.LFB268:
 1225              		.loc 1 497 0
 1226              		.cfi_startproc
 1227              		@ args = 0, pretend = 0, frame = 16
 1228              		@ frame_needed = 0, uses_anonymous_args = 0
 1229              	.LVL173:
 1230 0000 2DE9F04F 		push	{r4, r5, r6, r7, r8, r9, r10, fp, lr}
 1231              		.cfi_def_cfa_offset 36
 1232              		.cfi_offset 4, -36
 1233              		.cfi_offset 5, -32
 1234              		.cfi_offset 6, -28
 1235              		.cfi_offset 7, -24
 1236              		.cfi_offset 8, -20
 1237              		.cfi_offset 9, -16
 1238              		.cfi_offset 10, -12
 1239              		.cfi_offset 11, -8
 1240              		.cfi_offset 14, -4
 1241 0004 2DED068B 		vpush.64	{d8, d9, d10}
 1242              		.cfi_def_cfa_offset 60
 1243              		.cfi_offset 80, -60
 1244              		.cfi_offset 81, -56
 1245              		.cfi_offset 82, -52
 1246              		.cfi_offset 83, -48
 1247              		.cfi_offset 84, -44
 1248              		.cfi_offset 85, -40
 1249 0008 85B0     		sub	sp, sp, #20
 1250              		.cfi_def_cfa_offset 80
 1251              		.loc 1 497 0
 1252 000a F0EE609A 		vmov.f32	s19, s1
 1253 000e B0EE40AA 		vmov.f32	s20, s0
 1254 0012 B0EE419A 		vmov.f32	s18, s2
ARM GAS  /tmp/cczU1kEP.s 			page 23


 1255 0016 0393     		str	r3, [sp, #12]
 1256 0018 CDE90112 		strd	r1, r2, [sp, #4]
 1257 001c 8046     		mov	r8, r0
 1258              		.loc 1 502 0
 1259 001e FFF7FEFF 		bl	mempools_alloc_mcconf
 1260              	.LVL174:
 1261 0022 0646     		mov	r6, r0
 1262              	.LVL175:
 1263              		.loc 1 503 0
 1264 0024 FFF7FEFF 		bl	mempools_alloc_mcconf
 1265              	.LVL176:
 1266 0028 0746     		mov	r7, r0
 1267              	.LVL177:
 1268              		.loc 1 505 0
 1269 002a FFF7FEFF 		bl	mc_interface_get_configuration
 1270              	.LVL178:
 1271 002e 4FF42372 		mov	r2, #652
 1272 0032 0146     		mov	r1, r0
 1273 0034 3046     		mov	r0, r6
 1274 0036 FFF7FEFF 		bl	memcpy
 1275              	.LVL179:
 1276              		.loc 1 506 0
 1277 003a 3146     		mov	r1, r6
 1278 003c 4FF42372 		mov	r2, #652
 1279 0040 3846     		mov	r0, r7
 1280 0042 FFF7FEFF 		bl	memcpy
 1281              	.LVL180:
 1282              		.loc 1 511 0
 1283 0046 4FF07E53 		mov	r3, #1065353216
 1284              		.loc 1 513 0
 1285 004a D148     		ldr	r0, .L160
 1286              		.loc 1 514 0
 1287 004c D149     		ldr	r1, .L160+4
 1288              		.loc 1 515 0
 1289 004e D24A     		ldr	r2, .L160+8
 1290              		.loc 1 511 0
 1291 0050 C6F89830 		str	r3, [r6, #152]	@ float
 1292              		.loc 1 508 0
 1293 0054 0023     		movs	r3, #0
 1294              		.loc 1 513 0
 1295 0056 C6F8A000 		str	r0, [r6, #160]	@ float
 1296              		.loc 1 512 0
 1297 005a C6ED229A 		vstr.32	s19, [r6, #136]
 1298              		.loc 1 514 0
 1299 005e C6F89410 		str	r1, [r6, #148]	@ float
 1300              		.loc 1 515 0
 1301 0062 C6F88C20 		str	r2, [r6, #140]	@ float
 1302              		.loc 1 508 0
 1303 0066 86F88630 		strb	r3, [r6, #134]
 1304              		.loc 1 509 0
 1305 006a 86F88730 		strb	r3, [r6, #135]
 1306              		.loc 1 510 0
 1307 006e 86F88530 		strb	r3, [r6, #133]
 1308              		.loc 1 516 0
 1309 0072 86F82932 		strb	r3, [r6, #553]
 1310              		.loc 1 517 0
 1311 0076 3046     		mov	r0, r6
ARM GAS  /tmp/cczU1kEP.s 			page 24


 1312 0078 FFF7FEFF 		bl	mc_interface_set_configuration
 1313              	.LVL181:
 1314 007c 4FF4FA74 		mov	r4, #500
 1315 0080 04E0     		b	.L101
 1316              	.LVL182:
 1317              	.L149:
 1318              	.LBB29:
 1319              		.loc 1 524 0 discriminator 2
 1320 0082 6420     		movs	r0, #100
 1321 0084 FFF7FEFF 		bl	chThdSleep
 1322              	.LVL183:
 1323              		.loc 1 520 0 discriminator 2
 1324 0088 013C     		subs	r4, r4, #1
 1325              	.LVL184:
 1326 008a 03D0     		beq	.L100
 1327              	.LVL185:
 1328              	.L101:
 1329              		.loc 1 521 0
 1330 008c FFF7FEFF 		bl	mc_interface_get_fault
 1331              	.LVL186:
 1332 0090 0028     		cmp	r0, #0
 1333 0092 F6D1     		bne	.L149
 1334              	.LVL187:
 1335              	.L100:
 1336              	.LBE29:
 1337              		.loc 1 529 0
 1338 0094 42F21070 		movw	r0, #10000
 1339 0098 FFF7FEFF 		bl	chThdSleep
 1340              	.LVL188:
 1341              		.loc 1 532 0
 1342 009c FFF7FEFF 		bl	timeout_get_timeout_msec
 1343              	.LVL189:
 1344 00a0 8146     		mov	r9, r0
 1345              	.LVL190:
 1346              		.loc 1 533 0
 1347 00a2 FFF7FEFF 		bl	timeout_get_brake_current
 1348              	.LVL191:
 1349 00a6 F0EE40AA 		vmov.f32	s21, s0
 1350              	.LVL192:
 1351              		.loc 1 534 0
 1352 00aa FFF7FEFF 		bl	timeout_get_kill_sw_mode
 1353              	.LVL193:
 1354 00ae 8246     		mov	r10, r0
 1355              	.LVL194:
 1356              		.loc 1 535 0
 1357 00b0 FFF7FEFF 		bl	timeout_reset
 1358              	.LVL195:
 1359              		.loc 1 536 0
 1360 00b4 0021     		movs	r1, #0
 1361 00b6 9FEDB90A 		vldr.32	s0, .L160+12
 1362 00ba 4EF66020 		movw	r0, #60000
 1363 00be FFF7FEFF 		bl	timeout_configure
 1364              	.LVL196:
 1365              		.loc 1 538 0
 1366 00c2 FFF7FEFF 		bl	mc_interface_lock
 1367              	.LVL197:
 1368              		.loc 1 540 0
ARM GAS  /tmp/cczU1kEP.s 			page 25


 1369 00c6 FFF7FEFF 		bl	mc_interface_lock_override_once
 1370              	.LVL198:
 1371              		.loc 1 541 0
 1372 00ca B0EE4A0A 		vmov.f32	s0, s20
 1373 00ce FFF7FEFF 		bl	mc_interface_set_current
 1374              	.LVL199:
 1375              	.LBB30:
 1376              		.loc 1 545 0
 1377 00d2 4FF0000B 		mov	fp, #0
 1378              	.LBB31:
 1379              		.loc 1 578 0
 1380 00d6 F5EE008A 		vmov.f32	s17, #2.5e-1
 1381              	.LVL200:
 1382              	.L114:
 1383              		.loc 1 546 0
 1384 00da BBF1010F 		cmp	fp, #1
 1385 00de 00F02581 		beq	.L150
 1386              		.loc 1 557 0
 1387 00e2 BBF1020F 		cmp	fp, #2
 1388 00e6 00F04081 		beq	.L151
 1389              	.L103:
 1390              	.LBE31:
 1391              		.loc 1 545 0
 1392 00ea 0025     		movs	r5, #0
 1393 00ec 2C46     		mov	r4, r5
 1394              	.LBB32:
 1395              		.loc 1 574 0
 1396 00ee B6EE008A 		vmov.f32	s16, #5.0e-1
 1397              	.L104:
 1398              	.LVL201:
 1399 00f2 FFF7FEFF 		bl	mc_interface_get_duty_cycle_now
 1400              	.LVL202:
 1401 00f6 B4EEC80A 		vcmpe.f32	s0, s16
 1402 00fa F1EE10FA 		vmrs	APSR_nzcv, FPSCR
 1403              		.loc 1 575 0
 1404 00fe 4FF00A00 		mov	r0, #10
 1405              		.loc 1 576 0
 1406 0102 04F10104 		add	r4, r4, #1
 1407              	.LVL203:
 1408              		.loc 1 574 0
 1409 0106 40F10281 		bpl	.L152
 1410              		.loc 1 575 0
 1411 010a FFF7FEFF 		bl	chThdSleep
 1412              	.LVL204:
 1413              		.loc 1 578 0
 1414 010e FFF7FEFF 		bl	mc_interface_get_duty_cycle_now
 1415              	.LVL205:
 1416 0112 B4EEE80A 		vcmpe.f32	s0, s17
 1417 0116 F1EE10FA 		vmrs	APSR_nzcv, FPSCR
 1418 011a 0CDB     		blt	.L144
 1419              	.LVL206:
 1420              		.loc 1 578 0 is_stmt 0 discriminator 1
 1421 011c 002D     		cmp	r5, #0
 1422 011e 00F0D380 		beq	.L153
 1423              		.loc 1 583 0 is_stmt 1
 1424 0122 B4F5FA6F 		cmp	r4, #2000
 1425 0126 04DD     		ble	.L128
ARM GAS  /tmp/cczU1kEP.s 			page 26


 1426              	.LVL207:
 1427              	.L108:
 1428              		.loc 1 588 0
 1429 0128 41F28833 		movw	r3, #5000
 1430 012c 9C42     		cmp	r4, r3
 1431 012e 00F0D380 		beq	.L111
 1432              	.L128:
 1433              	.LBE32:
 1434              		.loc 1 545 0
 1435 0132 0125     		movs	r5, #1
 1436 0134 DDE7     		b	.L104
 1437              	.LVL208:
 1438              	.L144:
 1439              	.LBB33:
 1440              		.loc 1 583 0
 1441 0136 B4F5FA6F 		cmp	r4, #2000
 1442 013a DADD     		ble	.L104
 1443              		.loc 1 583 0 is_stmt 0 discriminator 1
 1444 013c 002D     		cmp	r5, #0
 1445 013e F3D1     		bne	.L108
 1446              	.LVL209:
 1447              	.LBE33:
 1448              		.loc 1 545 0 is_stmt 1 discriminator 2
 1449 0140 0BF1010B 		add	fp, fp, #1
 1450              	.LVL210:
 1451 0144 BBF1030F 		cmp	fp, #3
 1452 0148 C7D1     		bne	.L114
 1453              	.LVL211:
 1454              	.L159:
 1455              	.LBE30:
 1456              		.loc 1 599 0
 1457 014a 002D     		cmp	r5, #0
 1458 014c 00F0C480 		beq	.L111
 1459              	.LVL212:
 1460              	.L113:
 1461              		.loc 1 612 0
 1462 0150 FFF7FEFF 		bl	mcpwm_reset_hall_detect_table
 1463              	.LVL213:
 1464              		.loc 1 615 0
 1465 0154 FFF7FEFF 		bl	mc_interface_lock_override_once
 1466              	.LVL214:
 1467              		.loc 1 616 0
 1468 0158 B6EE000A 		vmov.f32	s0, #5.0e-1
 1469 015c FFF7FEFF 		bl	mc_interface_set_duty
 1470              	.LVL215:
 1471              		.loc 1 617 0
 1472 0160 4FF47A60 		mov	r0, #4000
 1473 0164 FFF7FEFF 		bl	chThdSleep
 1474              	.LVL216:
 1475              		.loc 1 620 0
 1476 0168 FFF7FEFF 		bl	mc_interface_lock_override_once
 1477              	.LVL217:
 1478              		.loc 1 621 0
 1479 016c 9FED8B0A 		vldr.32	s0, .L160+12
 1480 0170 FFF7FEFF 		bl	mc_interface_set_current
 1481              	.LVL218:
 1482              		.loc 1 622 0
ARM GAS  /tmp/cczU1kEP.s 			page 27


 1483 0174 0020     		movs	r0, #0
 1484 0176 FFF7FEFF 		bl	mc_interface_get_tachometer_value
 1485              	.LVL219:
 1486 017a 4FF4FA64 		mov	r4, #2000
 1487 017e 0546     		mov	r5, r0
 1488              	.LVL220:
 1489 0180 04E0     		b	.L117
 1490              	.LVL221:
 1491              	.L155:
 1492              	.LBB38:
 1493              		.loc 1 625 0
 1494 0182 FFF7FEFF 		bl	chThdSleep
 1495              	.LVL222:
 1496              		.loc 1 623 0
 1497 0186 013C     		subs	r4, r4, #1
 1498              	.LVL223:
 1499 0188 00F0CD80 		beq	.L154
 1500              	.LVL224:
 1501              	.L117:
 1502              		.loc 1 624 0
 1503 018c 0020     		movs	r0, #0
 1504 018e FFF7FEFF 		bl	mc_interface_get_tachometer_value
 1505              	.LVL225:
 1506 0192 431B     		subs	r3, r0, r5
 1507 0194 022B     		cmp	r3, #2
 1508              		.loc 1 625 0
 1509 0196 4FF00A00 		mov	r0, #10
 1510              		.loc 1 624 0
 1511 019a F2DD     		ble	.L155
 1512              		.loc 1 627 0
 1513 019c 4FF0020B 		mov	fp, #2
 1514              	.LVL226:
 1515              	.L116:
 1516              	.LBE38:
 1517              		.loc 1 633 0
 1518 01a0 FFF7FEFF 		bl	mcpwm_read_reset_avg_cycle_integrator
 1519              	.LVL227:
 1520              		.loc 1 634 0
 1521 01a4 0020     		movs	r0, #0
 1522 01a6 FFF7FEFF 		bl	mc_interface_get_tachometer_value
 1523              	.LVL228:
 1524 01aa 40F6B834 		movw	r4, #3000
 1525 01ae 0546     		mov	r5, r0
 1526              	.LVL229:
 1527 01b0 03E0     		b	.L119
 1528              	.LVL230:
 1529              	.L156:
 1530              	.LBB39:
 1531              		.loc 1 637 0
 1532 01b2 FFF7FEFF 		bl	chThdSleep
 1533              	.LVL231:
 1534              		.loc 1 635 0
 1535 01b6 013C     		subs	r4, r4, #1
 1536              	.LVL232:
 1537 01b8 09D0     		beq	.L120
 1538              	.LVL233:
 1539              	.L119:
ARM GAS  /tmp/cczU1kEP.s 			page 28


 1540              		.loc 1 636 0
 1541 01ba 0020     		movs	r0, #0
 1542 01bc FFF7FEFF 		bl	mc_interface_get_tachometer_value
 1543              	.LVL234:
 1544 01c0 431B     		subs	r3, r0, r5
 1545 01c2 312B     		cmp	r3, #49
 1546              		.loc 1 637 0
 1547 01c4 4FF00A00 		mov	r0, #10
 1548              		.loc 1 636 0
 1549 01c8 F3DD     		ble	.L156
 1550              		.loc 1 639 0
 1551 01ca 0BF1010B 		add	fp, fp, #1
 1552              	.LVL235:
 1553              	.L120:
 1554              	.LBE39:
 1555              		.loc 1 645 0
 1556 01ce 0298     		ldr	r0, [sp, #8]
 1557 01d0 FFF7FEFF 		bl	mcpwm_get_hall_detect_result
 1558              	.LVL236:
 1559 01d4 039B     		ldr	r3, [sp, #12]
 1560 01d6 1860     		str	r0, [r3]
 1561              		.loc 1 647 0
 1562 01d8 FFF7FEFF 		bl	mcpwm_read_reset_avg_cycle_integrator
 1563              	.LVL237:
 1564 01dc 41F28834 		movw	r4, #5000
 1565 01e0 88ED000A 		vstr.32	s0, [r8]
 1566              	.LVL238:
 1567 01e4 03E0     		b	.L123
 1568              	.LVL239:
 1569              	.L157:
 1570              	.LBB40:
 1571              		.loc 1 652 0
 1572 01e6 FFF7FEFF 		bl	chThdSleep
 1573              	.LVL240:
 1574              		.loc 1 650 0
 1575 01ea 013C     		subs	r4, r4, #1
 1576              	.LVL241:
 1577 01ec 0AD0     		beq	.L124
 1578              	.LVL242:
 1579              	.L123:
 1580              		.loc 1 651 0
 1581 01ee FFF7FEFF 		bl	mc_interface_get_duty_cycle_now
 1582              	.LVL243:
 1583 01f2 B4EEC90A 		vcmpe.f32	s0, s18
 1584 01f6 F1EE10FA 		vmrs	APSR_nzcv, FPSCR
 1585              		.loc 1 652 0
 1586 01fa 4FF00A00 		mov	r0, #10
 1587              		.loc 1 651 0
 1588 01fe F2DC     		bgt	.L157
 1589              		.loc 1 654 0
 1590 0200 0BF1010B 		add	fp, fp, #1
 1591              	.LVL244:
 1592              	.L124:
 1593              	.LBE40:
 1594              		.loc 1 659 0
 1595 0204 FFF7FEFF 		bl	mc_interface_lock_override_once
 1596              	.LVL245:
ARM GAS  /tmp/cczU1kEP.s 			page 29


 1597              		.loc 1 660 0
 1598 0208 B0EE490A 		vmov.f32	s0, s18
 1599 020c FFF7FEFF 		bl	mc_interface_set_duty
 1600              	.LVL246:
 1601              		.loc 1 663 0
 1602 0210 FFF7FEFF 		bl	mcpwm_read_reset_avg_cycle_integrator
 1603              	.LVL247:
 1604              		.loc 1 664 0
 1605 0214 0020     		movs	r0, #0
 1606 0216 FFF7FEFF 		bl	mc_interface_get_tachometer_value
 1607              	.LVL248:
 1608              		.loc 1 666 0
 1609 021a 9FED608A 		vldr.32	s16, .L160+12
 1610              		.loc 1 664 0
 1611 021e 0546     		mov	r5, r0
 1612              	.LVL249:
 1613              		.loc 1 665 0
 1614 0220 F0EE488A 		vmov.f32	s17, s16
 1615              		.loc 1 664 0
 1616 0224 40F6B834 		movw	r4, #3000
 1617              	.LBB41:
 1618              		.loc 1 670 0
 1619 0228 B7EE009A 		vmov.f32	s18, #1.0e+0
 1620              	.LVL250:
 1621 022c 0AE0     		b	.L126
 1622              	.LVL251:
 1623              	.L158:
 1624              		.loc 1 669 0
 1625 022e FFF7FEFF 		bl	mc_interface_get_rpm
 1626              	.LVL252:
 1627              		.loc 1 671 0
 1628 0232 0A20     		movs	r0, #10
 1629              		.loc 1 669 0
 1630 0234 78EE808A 		vadd.f32	s17, s17, s0
 1631              	.LVL253:
 1632              		.loc 1 671 0
 1633 0238 FFF7FEFF 		bl	chThdSleep
 1634              	.LVL254:
 1635              		.loc 1 667 0
 1636 023c 013C     		subs	r4, r4, #1
 1637              	.LVL255:
 1638              		.loc 1 670 0
 1639 023e 38EE098A 		vadd.f32	s16, s16, s18
 1640              	.LVL256:
 1641              		.loc 1 667 0
 1642 0242 07D0     		beq	.L127
 1643              	.LVL257:
 1644              	.L126:
 1645              		.loc 1 668 0
 1646 0244 0020     		movs	r0, #0
 1647 0246 FFF7FEFF 		bl	mc_interface_get_tachometer_value
 1648              	.LVL258:
 1649 024a 401B     		subs	r0, r0, r5
 1650 024c 6328     		cmp	r0, #99
 1651 024e EEDD     		ble	.L158
 1652              		.loc 1 673 0
 1653 0250 0BF1010B 		add	fp, fp, #1
ARM GAS  /tmp/cczU1kEP.s 			page 30


 1654              	.LVL259:
 1655              	.L127:
 1656              	.LBE41:
 1657              		.loc 1 678 0
 1658 0254 FFF7FEFF 		bl	mcpwm_read_reset_avg_cycle_integrator
 1659              	.LVL260:
 1660 0258 B0EE409A 		vmov.f32	s18, s0
 1661              	.LVL261:
 1662              		.loc 1 681 0
 1663 025c FFF7FEFF 		bl	mc_interface_lock_override_once
 1664              	.LVL262:
 1665              		.loc 1 682 0
 1666 0260 FFF7FEFF 		bl	mc_interface_release_motor
 1667              	.LVL263:
 1668              		.loc 1 683 0
 1669 0264 B7EE000A 		vmov.f32	s0, #1.0e+0
 1670 0268 FFF7FEFF 		bl	mc_interface_wait_for_motor_release
 1671              	.LVL264:
 1672              		.loc 1 687 0
 1673 026c 4C4B     		ldr	r3, .L160+16
 1674              		.loc 1 686 0
 1675 026e D8ED007A 		vldr.32	s15, [r8]
 1676              		.loc 1 687 0
 1677 0272 DB8A     		ldrh	r3, [r3, #22]
 1678 0274 07EE103A 		vmov	s14, r3	@ int
 1679              		.loc 1 686 0
 1680 0278 39EE679A 		vsub.f32	s18, s18, s15
 1681              	.LVL265:
 1682              		.loc 1 687 0
 1683 027c B8EE477A 		vcvt.f32.u32	s14, s14
 1684              		.loc 1 679 0
 1685 0280 C8EE887A 		vdiv.f32	s15, s17, s16
 1686              	.LVL266:
 1687              		.loc 1 689 0
 1688 0284 019B     		ldr	r3, [sp, #4]
 1689              		.loc 1 692 0
 1690 0286 3846     		mov	r0, r7
 1691              		.loc 1 687 0
 1692 0288 C9EE076A 		vdiv.f32	s13, s18, s14
 1693              	.LVL267:
 1694              		.loc 1 688 0
 1695 028c 67EEA67A 		vmul.f32	s15, s15, s13
 1696              	.LVL268:
 1697              		.loc 1 689 0
 1698 0290 C3ED007A 		vstr.32	s15, [r3]
 1699              		.loc 1 692 0
 1700 0294 FFF7FEFF 		bl	mc_interface_set_configuration
 1701              	.LVL269:
 1702              		.loc 1 693 0
 1703 0298 5146     		mov	r1, r10
 1704 029a B0EE6A0A 		vmov.f32	s0, s21
 1705 029e 4846     		mov	r0, r9
 1706 02a0 FFF7FEFF 		bl	timeout_configure
 1707              	.LVL270:
 1708              		.loc 1 695 0
 1709 02a4 FFF7FEFF 		bl	mc_interface_unlock
 1710              	.LVL271:
ARM GAS  /tmp/cczU1kEP.s 			page 31


 1711              		.loc 1 697 0
 1712 02a8 3046     		mov	r0, r6
 1713 02aa FFF7FEFF 		bl	mempools_free_mcconf
 1714              	.LVL272:
 1715              		.loc 1 698 0
 1716 02ae 3846     		mov	r0, r7
 1717 02b0 FFF7FEFF 		bl	mempools_free_mcconf
 1718              	.LVL273:
 1719              		.loc 1 700 0
 1720 02b4 ABF10500 		sub	r0, fp, #5
 1721 02b8 B0FA80F0 		clz	r0, r0
 1722 02bc 4009     		lsrs	r0, r0, #5
 1723              		.loc 1 701 0
 1724 02be 05B0     		add	sp, sp, #20
 1725              		.cfi_remember_state
 1726              		.cfi_def_cfa_offset 60
 1727              		@ sp needed
 1728 02c0 BDEC068B 		vldm	sp!, {d8-d10}
 1729              		.cfi_restore 84
 1730              		.cfi_restore 85
 1731              		.cfi_restore 82
 1732              		.cfi_restore 83
 1733              		.cfi_restore 80
 1734              		.cfi_restore 81
 1735              		.cfi_def_cfa_offset 36
 1736              	.LVL274:
 1737 02c4 BDE8F08F 		pop	{r4, r5, r6, r7, r8, r9, r10, fp, pc}
 1738              	.LVL275:
 1739              	.L153:
 1740              		.cfi_restore_state
 1741              	.LBB42:
 1742              	.LBB34:
 1743              		.loc 1 579 0
 1744 02c8 0120     		movs	r0, #1
 1745 02ca FFF7FEFF 		bl	mcpwm_switch_comm_mode
 1746              	.LVL276:
 1747              		.loc 1 588 0
 1748 02ce 41F28833 		movw	r3, #5000
 1749 02d2 9C42     		cmp	r4, r3
 1750 02d4 7FF42DAF 		bne	.L128
 1751              	.LVL277:
 1752              	.L111:
 1753              	.LBE34:
 1754              	.LBE42:
 1755              		.loc 1 600 0
 1756 02d8 9FED300A 		vldr.32	s0, .L160+12
 1757 02dc FFF7FEFF 		bl	mc_interface_set_current
 1758              	.LVL278:
 1759              		.loc 1 601 0
 1760 02e0 5146     		mov	r1, r10
 1761 02e2 B0EE6A0A 		vmov.f32	s0, s21
 1762 02e6 4846     		mov	r0, r9
 1763 02e8 FFF7FEFF 		bl	timeout_configure
 1764              	.LVL279:
 1765              		.loc 1 602 0
 1766 02ec 3846     		mov	r0, r7
 1767 02ee FFF7FEFF 		bl	mc_interface_set_configuration
ARM GAS  /tmp/cczU1kEP.s 			page 32


 1768              	.LVL280:
 1769              		.loc 1 603 0
 1770 02f2 FFF7FEFF 		bl	mc_interface_unlock
 1771              	.LVL281:
 1772              		.loc 1 604 0
 1773 02f6 3046     		mov	r0, r6
 1774 02f8 FFF7FEFF 		bl	mempools_free_mcconf
 1775              	.LVL282:
 1776              		.loc 1 605 0
 1777 02fc 3846     		mov	r0, r7
 1778 02fe FFF7FEFF 		bl	mempools_free_mcconf
 1779              	.LVL283:
 1780              		.loc 1 606 0
 1781 0302 0020     		movs	r0, #0
 1782              		.loc 1 701 0
 1783 0304 05B0     		add	sp, sp, #20
 1784              		.cfi_remember_state
 1785              		.cfi_def_cfa_offset 60
 1786              		@ sp needed
 1787 0306 BDEC068B 		vldm	sp!, {d8-d10}
 1788              		.cfi_restore 84
 1789              		.cfi_restore 85
 1790              		.cfi_restore 82
 1791              		.cfi_restore 83
 1792              		.cfi_restore 80
 1793              		.cfi_restore 81
 1794              		.cfi_def_cfa_offset 36
 1795              	.LVL284:
 1796 030a BDE8F08F 		pop	{r4, r5, r6, r7, r8, r9, r10, fp, pc}
 1797              	.LVL285:
 1798              	.L152:
 1799              		.cfi_restore_state
 1800              	.LBB43:
 1801              	.LBB35:
 1802              		.loc 1 594 0
 1803 030e 002D     		cmp	r5, #0
 1804 0310 7FF41EAF 		bne	.L113
 1805              	.LBE35:
 1806              		.loc 1 545 0
 1807 0314 0BF1010B 		add	fp, fp, #1
 1808              	.LVL286:
 1809 0318 BBF1030F 		cmp	fp, #3
 1810              	.LBB36:
 1811              		.loc 1 572 0
 1812 031c 4FF00105 		mov	r5, #1
 1813              	.LVL287:
 1814              	.LBE36:
 1815              		.loc 1 545 0
 1816 0320 7FF4DBAE 		bne	.L114
 1817 0324 11E7     		b	.L159
 1818              	.LVL288:
 1819              	.L154:
 1820              	.LBE43:
 1821              		.loc 1 609 0
 1822 0326 4FF0010B 		mov	fp, #1
 1823              	.LVL289:
 1824              	.LBB44:
ARM GAS  /tmp/cczU1kEP.s 			page 33


 1825 032a 39E7     		b	.L116
 1826              	.LVL290:
 1827              	.L150:
 1828              	.LBE44:
 1829              	.LBB45:
 1830              	.LBB37:
 1831              		.loc 1 547 0
 1832 032c FFF7FEFF 		bl	mc_interface_lock_override_once
 1833              	.LVL291:
 1834              		.loc 1 548 0
 1835 0330 FFF7FEFF 		bl	mc_interface_release_motor
 1836              	.LVL292:
 1837              		.loc 1 549 0
 1838 0334 B7EE000A 		vmov.f32	s0, #1.0e+0
 1839 0338 FFF7FEFF 		bl	mc_interface_wait_for_motor_release
 1840              	.LVL293:
 1841              		.loc 1 550 0
 1842 033c 79EEA97A 		vadd.f32	s15, s19, s19
 1843              		.loc 1 551 0
 1844 0340 184B     		ldr	r3, .L160+20
 1845              		.loc 1 550 0
 1846 0342 C6ED227A 		vstr.32	s15, [r6, #136]
 1847              		.loc 1 551 0
 1848 0346 C6F89430 		str	r3, [r6, #148]	@ float
 1849              	.L148:
 1850              		.loc 1 563 0
 1851 034a FFF7FEFF 		bl	mc_interface_lock_override_once
 1852              	.LVL294:
 1853              		.loc 1 564 0
 1854 034e 3046     		mov	r0, r6
 1855 0350 FFF7FEFF 		bl	mc_interface_set_configuration
 1856              	.LVL295:
 1857              		.loc 1 565 0
 1858 0354 42F21070 		movw	r0, #10000
 1859 0358 FFF7FEFF 		bl	chThdSleep
 1860              	.LVL296:
 1861              		.loc 1 566 0
 1862 035c FFF7FEFF 		bl	mc_interface_lock_override_once
 1863              	.LVL297:
 1864              		.loc 1 567 0
 1865 0360 B0EE4A0A 		vmov.f32	s0, s20
 1866 0364 FFF7FEFF 		bl	mc_interface_set_current
 1867              	.LVL298:
 1868 0368 BFE6     		b	.L103
 1869              	.L151:
 1870              		.loc 1 558 0
 1871 036a FFF7FEFF 		bl	mc_interface_lock_override_once
 1872              	.LVL299:
 1873              		.loc 1 559 0
 1874 036e FFF7FEFF 		bl	mc_interface_release_motor
 1875              	.LVL300:
 1876              		.loc 1 560 0
 1877 0372 B7EE000A 		vmov.f32	s0, #1.0e+0
 1878 0376 FFF7FEFF 		bl	mc_interface_wait_for_motor_release
 1879              	.LVL301:
 1880              		.loc 1 561 0
 1881 037a F1EE007A 		vmov.f32	s15, #4.0e+0
ARM GAS  /tmp/cczU1kEP.s 			page 34


 1882 037e 69EEA77A 		vmul.f32	s15, s19, s15
 1883              		.loc 1 562 0
 1884 0382 0123     		movs	r3, #1
 1885              		.loc 1 561 0
 1886 0384 C6ED227A 		vstr.32	s15, [r6, #136]
 1887              		.loc 1 562 0
 1888 0388 86F88530 		strb	r3, [r6, #133]
 1889 038c DDE7     		b	.L148
 1890              	.L161:
 1891 038e 00BF     		.align	2
 1892              	.L160:
 1893 0390 00009643 		.word	1133903872
 1894 0394 00004842 		.word	1112014848
 1895 0398 00808944 		.word	1149861888
 1896 039c 00000000 		.word	0
 1897 03a0 00000000 		.word	ADC_Value
 1898 03a4 0000A041 		.word	1101004800
 1899              	.LBE37:
 1900              	.LBE45:
 1901              		.cfi_endproc
 1902              	.LFE268:
 1903              		.size	conf_general_detect_motor_param, .-conf_general_detect_motor_param
 1904              		.section	.text.conf_general_measure_flux_linkage,"ax",%progbits
 1905              		.align	1
 1906              		.p2align 4,,15
 1907              		.global	conf_general_measure_flux_linkage
 1908              		.syntax unified
 1909              		.thumb
 1910              		.thumb_func
 1911              		.fpu fpv4-sp-d16
 1912              		.type	conf_general_measure_flux_linkage, %function
 1913              	conf_general_measure_flux_linkage:
 1914              	.LFB269:
 1915              		.loc 1 725 0
 1916              		.cfi_startproc
 1917              		@ args = 0, pretend = 0, frame = 0
 1918              		@ frame_needed = 0, uses_anonymous_args = 0
 1919              	.LVL302:
 1920 0000 2DE9F84F 		push	{r3, r4, r5, r6, r7, r8, r9, r10, fp, lr}
 1921              		.cfi_def_cfa_offset 40
 1922              		.cfi_offset 3, -40
 1923              		.cfi_offset 4, -36
 1924              		.cfi_offset 5, -32
 1925              		.cfi_offset 6, -28
 1926              		.cfi_offset 7, -24
 1927              		.cfi_offset 8, -20
 1928              		.cfi_offset 9, -16
 1929              		.cfi_offset 10, -12
 1930              		.cfi_offset 11, -8
 1931              		.cfi_offset 14, -4
 1932 0004 2DED0A8B 		vpush.64	{d8, d9, d10, d11, d12}
 1933              		.cfi_def_cfa_offset 80
 1934              		.cfi_offset 80, -80
 1935              		.cfi_offset 81, -76
 1936              		.cfi_offset 82, -72
 1937              		.cfi_offset 83, -68
 1938              		.cfi_offset 84, -64
ARM GAS  /tmp/cczU1kEP.s 			page 35


 1939              		.cfi_offset 85, -60
 1940              		.cfi_offset 86, -56
 1941              		.cfi_offset 87, -52
 1942              		.cfi_offset 88, -48
 1943              		.cfi_offset 89, -44
 1944              		.loc 1 725 0
 1945 0008 8146     		mov	r9, r0
 1946 000a B0EE419A 		vmov.f32	s18, s2
 1947 000e F0EE409A 		vmov.f32	s19, s0
 1948 0012 B0EE608A 		vmov.f32	s16, s1
 1949 0016 F0EE61BA 		vmov.f32	s23, s3
 1950              		.loc 1 727 0
 1951 001a FFF7FEFF 		bl	mempools_alloc_mcconf
 1952              	.LVL303:
 1953 001e 0646     		mov	r6, r0
 1954              	.LVL304:
 1955              		.loc 1 728 0
 1956 0020 FFF7FEFF 		bl	mempools_alloc_mcconf
 1957              	.LVL305:
 1958 0024 8046     		mov	r8, r0
 1959              	.LVL306:
 1960              		.loc 1 730 0
 1961 0026 FFF7FEFF 		bl	mc_interface_get_configuration
 1962              	.LVL307:
 1963 002a 4FF42372 		mov	r2, #652
 1964 002e 0146     		mov	r1, r0
 1965 0030 3046     		mov	r0, r6
 1966 0032 FFF7FEFF 		bl	memcpy
 1967              	.LVL308:
 1968              		.loc 1 731 0
 1969 0036 3146     		mov	r1, r6
 1970 0038 4FF42372 		mov	r2, #652
 1971 003c 4046     		mov	r0, r8
 1972 003e FFF7FEFF 		bl	memcpy
 1973              	.LVL309:
 1974              		.loc 1 738 0
 1975 0042 AC4B     		ldr	r3, .L206
 1976              		.loc 1 739 0
 1977 0044 AC48     		ldr	r0, .L206+4
 1978              		.loc 1 740 0
 1979 0046 AD49     		ldr	r1, .L206+8
 1980              		.loc 1 741 0
 1981 0048 AD4A     		ldr	r2, .L206+12
 1982              		.loc 1 738 0
 1983 004a C6F83032 		str	r3, [r6, #560]	@ float
 1984              		.loc 1 736 0
 1985 004e 4FF07E54 		mov	r4, #1065353216
 1986              		.loc 1 733 0
 1987 0052 0023     		movs	r3, #0
 1988              		.loc 1 736 0
 1989 0054 C6F89840 		str	r4, [r6, #152]	@ float
 1990              		.loc 1 739 0
 1991 0058 C6F8A000 		str	r0, [r6, #160]	@ float
 1992              		.loc 1 737 0
 1993 005c 86ED229A 		vstr.32	s18, [r6, #136]
 1994              		.loc 1 740 0
 1995 0060 C6F89410 		str	r1, [r6, #148]	@ float
ARM GAS  /tmp/cczU1kEP.s 			page 36


 1996              		.loc 1 741 0
 1997 0064 C6F88C20 		str	r2, [r6, #140]	@ float
 1998              		.loc 1 733 0
 1999 0068 86F88630 		strb	r3, [r6, #134]
 2000              		.loc 1 734 0
 2001 006c 86F88730 		strb	r3, [r6, #135]
 2002              		.loc 1 735 0
 2003 0070 86F88530 		strb	r3, [r6, #133]
 2004              		.loc 1 742 0
 2005 0074 3046     		mov	r0, r6
 2006 0076 FFF7FEFF 		bl	mc_interface_set_configuration
 2007              	.LVL310:
 2008 007a 4FF4FA74 		mov	r4, #500
 2009 007e 04E0     		b	.L164
 2010              	.LVL311:
 2011              	.L198:
 2012              	.LBB46:
 2013              		.loc 1 749 0 discriminator 2
 2014 0080 6420     		movs	r0, #100
 2015 0082 FFF7FEFF 		bl	chThdSleep
 2016              	.LVL312:
 2017              		.loc 1 745 0 discriminator 2
 2018 0086 013C     		subs	r4, r4, #1
 2019              	.LVL313:
 2020 0088 03D0     		beq	.L163
 2021              	.LVL314:
 2022              	.L164:
 2023              		.loc 1 746 0
 2024 008a FFF7FEFF 		bl	mc_interface_get_fault
 2025              	.LVL315:
 2026 008e 0028     		cmp	r0, #0
 2027 0090 F6D1     		bne	.L198
 2028              	.LVL316:
 2029              	.L163:
 2030              	.LBE46:
 2031              		.loc 1 752 0
 2032 0092 FFF7FEFF 		bl	mc_interface_get_fault
 2033              	.LVL317:
 2034 0096 0746     		mov	r7, r0
 2035 0098 0028     		cmp	r0, #0
 2036 009a 40F0E080 		bne	.L199
 2037              		.loc 1 761 0
 2038 009e 42F21070 		movw	r0, #10000
 2039 00a2 FFF7FEFF 		bl	chThdSleep
 2040              	.LVL318:
 2041              		.loc 1 764 0
 2042 00a6 FFF7FEFF 		bl	timeout_get_timeout_msec
 2043              	.LVL319:
 2044 00aa 8246     		mov	r10, r0
 2045              	.LVL320:
 2046              		.loc 1 765 0
 2047 00ac FFF7FEFF 		bl	timeout_get_brake_current
 2048              	.LVL321:
 2049 00b0 B0EE40CA 		vmov.f32	s24, s0
 2050              	.LVL322:
 2051              		.loc 1 766 0
 2052 00b4 FFF7FEFF 		bl	timeout_get_kill_sw_mode
ARM GAS  /tmp/cczU1kEP.s 			page 37


 2053              	.LVL323:
 2054 00b8 8346     		mov	fp, r0
 2055              	.LVL324:
 2056              		.loc 1 767 0
 2057 00ba FFF7FEFF 		bl	timeout_reset
 2058              	.LVL325:
 2059              		.loc 1 768 0
 2060 00be 9FED910A 		vldr.32	s0, .L206+16
 2061              	.LBB47:
 2062              	.LBB48:
 2063              		.loc 1 782 0
 2064 00c2 9FED91AA 		vldr.32	s20, .L206+20
 2065              	.LBE48:
 2066              	.LBE47:
 2067              		.loc 1 768 0
 2068 00c6 3946     		mov	r1, r7
 2069 00c8 4EF66020 		movw	r0, #60000
 2070 00cc FFF7FEFF 		bl	timeout_configure
 2071              	.LVL326:
 2072              		.loc 1 770 0
 2073 00d0 FFF7FEFF 		bl	mc_interface_lock
 2074              	.LVL327:
 2075              		.loc 1 772 0
 2076 00d4 FFF7FEFF 		bl	mc_interface_lock_override_once
 2077              	.LVL328:
 2078              		.loc 1 773 0
 2079 00d8 B0EE690A 		vmov.f32	s0, s19
 2080 00dc FFF7FEFF 		bl	mc_interface_set_current
 2081              	.LVL329:
 2082              	.L180:
 2083              	.LBB56:
 2084              	.LBB49:
 2085              		.loc 1 778 0
 2086 00e0 012F     		cmp	r7, #1
 2087 00e2 00F0FC80 		beq	.L200
 2088              		.loc 1 788 0
 2089 00e6 022F     		cmp	r7, #2
 2090 00e8 00F0E980 		beq	.L201
 2091              		.loc 1 799 0
 2092 00ec 032F     		cmp	r7, #3
 2093 00ee 00F0C480 		beq	.L202
 2094              	.L168:
 2095              	.LBE49:
 2096              		.loc 1 777 0
 2097 00f2 0025     		movs	r5, #0
 2098 00f4 2C46     		mov	r4, r5
 2099              	.LBB50:
 2100              		.loc 1 820 0
 2101 00f6 F6EE008A 		vmov.f32	s17, #5.0e-1
 2102              	.L170:
 2103              	.LVL330:
 2104              		.loc 1 816 0
 2105 00fa FFF7FEFF 		bl	mc_interface_get_duty_cycle_now
 2106              	.LVL331:
 2107 00fe B4EEC80A 		vcmpe.f32	s0, s16
 2108 0102 F1EE10FA 		vmrs	APSR_nzcv, FPSCR
 2109              		.loc 1 817 0
ARM GAS  /tmp/cczU1kEP.s 			page 38


 2110 0106 4FF00A00 		mov	r0, #10
 2111              		.loc 1 818 0
 2112 010a 04F10104 		add	r4, r4, #1
 2113              	.LVL332:
 2114              		.loc 1 816 0
 2115 010e 40F19D80 		bpl	.L203
 2116              		.loc 1 817 0
 2117 0112 FFF7FEFF 		bl	chThdSleep
 2118              	.LVL333:
 2119              		.loc 1 820 0
 2120 0116 FFF7FEFF 		bl	mc_interface_get_duty_cycle_now
 2121              	.LVL334:
 2122 011a 68EE287A 		vmul.f32	s15, s16, s17
 2123 011e B4EEE70A 		vcmpe.f32	s0, s15
 2124 0122 F1EE10FA 		vmrs	APSR_nzcv, FPSCR
 2125 0126 0ADB     		blt	.L194
 2126              	.LVL335:
 2127              		.loc 1 820 0 is_stmt 0 discriminator 1
 2128 0128 002D     		cmp	r5, #0
 2129 012a 78D0     		beq	.L204
 2130              		.loc 1 825 0 is_stmt 1
 2131 012c B4F5FA6F 		cmp	r4, #2000
 2132 0130 03DD     		ble	.L182
 2133              	.LVL336:
 2134              	.L174:
 2135              		.loc 1 830 0
 2136 0132 41F28833 		movw	r3, #5000
 2137 0136 9C42     		cmp	r4, r3
 2138 0138 78D0     		beq	.L177
 2139              	.L182:
 2140              	.LBE50:
 2141              		.loc 1 777 0
 2142 013a 0125     		movs	r5, #1
 2143 013c DDE7     		b	.L170
 2144              	.LVL337:
 2145              	.L194:
 2146              	.LBB51:
 2147              		.loc 1 825 0
 2148 013e B4F5FA6F 		cmp	r4, #2000
 2149 0142 DADD     		ble	.L170
 2150              		.loc 1 825 0 is_stmt 0 discriminator 1
 2151 0144 002D     		cmp	r5, #0
 2152 0146 F4D1     		bne	.L174
 2153              	.LVL338:
 2154              	.LBE51:
 2155              		.loc 1 777 0 is_stmt 1 discriminator 2
 2156 0148 0137     		adds	r7, r7, #1
 2157              	.LVL339:
 2158 014a 042F     		cmp	r7, #4
 2159 014c C8D1     		bne	.L180
 2160              	.LVL340:
 2161              	.L205:
 2162              	.LBE56:
 2163              		.loc 1 841 0
 2164 014e 002D     		cmp	r5, #0
 2165 0150 6CD0     		beq	.L177
 2166              	.LVL341:
ARM GAS  /tmp/cczU1kEP.s 			page 39


 2167              	.L179:
 2168              		.loc 1 851 0
 2169 0152 FFF7FEFF 		bl	mc_interface_lock_override_once
 2170              	.LVL342:
 2171              		.loc 1 852 0
 2172 0156 B0EE480A 		vmov.f32	s0, s16
 2173 015a FFF7FEFF 		bl	mc_interface_set_duty
 2174              	.LVL343:
 2175              		.loc 1 857 0
 2176 015e 9FED698A 		vldr.32	s16, .L206+16
 2177              	.LVL344:
 2178 0162 6A4D     		ldr	r5, .L206+24
 2179              	.LBB57:
 2180              		.loc 1 859 0
 2181 0164 9FED6ABA 		vldr.32	s22, .L206+28
 2182 0168 DFED6AAA 		vldr.32	s21, .L206+32
 2183              	.LBE57:
 2184              		.loc 1 856 0
 2185 016c F0EE489A 		vmov.f32	s19, s16
 2186              	.LVL345:
 2187              		.loc 1 855 0
 2188 0170 B0EE489A 		vmov.f32	s18, s16
 2189              	.LVL346:
 2190              		.loc 1 854 0
 2191 0174 F0EE488A 		vmov.f32	s17, s16
 2192              		.loc 1 852 0
 2193 0178 4FF4FA67 		mov	r7, #2000
 2194              	.LVL347:
 2195              	.LBB58:
 2196              		.loc 1 862 0
 2197 017c B7EE00AA 		vmov.f32	s20, #1.0e+0
 2198              	.LVL348:
 2199              	.L181:
 2200              		.loc 1 859 0 discriminator 3
 2201 0180 EB8A     		ldrh	r3, [r5, #22]
 2202 0182 9CB2     		uxth	r4, r3
 2203 0184 FFF7FEFF 		bl	mc_interface_get_duty_cycle_now
 2204              	.LVL349:
 2205 0188 07EE904A 		vmov	s15, r4	@ int
 2206 018c F8EE677A 		vcvt.f32.u32	s15, s15
 2207 0190 67EE8B7A 		vmul.f32	s15, s15, s22
 2208 0194 67EEAA7A 		vmul.f32	s15, s15, s21
 2209 0198 E7EE808A 		vfma.f32	s17, s15, s0
 2210              	.LVL350:
 2211              		.loc 1 860 0 discriminator 3
 2212 019c FFF7FEFF 		bl	mc_interface_get_rpm
 2213              	.LVL351:
 2214 01a0 39EE009A 		vadd.f32	s18, s18, s0
 2215              	.LVL352:
 2216              		.loc 1 861 0 discriminator 3
 2217 01a4 FFF7FEFF 		bl	mc_interface_get_tot_current
 2218              	.LVL353:
 2219              		.loc 1 863 0 discriminator 3
 2220 01a8 0A20     		movs	r0, #10
 2221              		.loc 1 861 0 discriminator 3
 2222 01aa 79EE809A 		vadd.f32	s19, s19, s0
 2223              	.LVL354:
ARM GAS  /tmp/cczU1kEP.s 			page 40


 2224              		.loc 1 863 0 discriminator 3
 2225 01ae FFF7FEFF 		bl	chThdSleep
 2226              	.LVL355:
 2227              		.loc 1 858 0 discriminator 3
 2228 01b2 013F     		subs	r7, r7, #1
 2229              	.LVL356:
 2230              		.loc 1 862 0 discriminator 3
 2231 01b4 38EE0A8A 		vadd.f32	s16, s16, s20
 2232              	.LVL357:
 2233              		.loc 1 858 0 discriminator 3
 2234 01b8 E2D1     		bne	.L181
 2235              	.LBE58:
 2236              		.loc 1 866 0
 2237 01ba 5946     		mov	r1, fp
 2238 01bc B0EE4C0A 		vmov.f32	s0, s24
 2239 01c0 5046     		mov	r0, r10
 2240 01c2 FFF7FEFF 		bl	timeout_configure
 2241              	.LVL358:
 2242              		.loc 1 867 0
 2243 01c6 4046     		mov	r0, r8
 2244 01c8 FFF7FEFF 		bl	mc_interface_set_configuration
 2245              	.LVL359:
 2246              		.loc 1 868 0
 2247 01cc FFF7FEFF 		bl	mc_interface_unlock
 2248              	.LVL360:
 2249              		.loc 1 869 0
 2250 01d0 9FED4C0A 		vldr.32	s0, .L206+16
 2251 01d4 FFF7FEFF 		bl	mc_interface_set_current
 2252              	.LVL361:
 2253              		.loc 1 873 0
 2254 01d8 C9EE886A 		vdiv.f32	s13, s19, s16
 2255              		.loc 1 878 0
 2256 01dc 3046     		mov	r0, r6
 2257              		.loc 1 872 0
 2258 01de C9EE087A 		vdiv.f32	s15, s18, s16
 2259              		.loc 1 871 0
 2260 01e2 88EE887A 		vdiv.f32	s14, s17, s16
 2261              	.LVL362:
 2262              		.loc 1 874 0
 2263 01e6 6BEEE6BA 		vnmul.f32	s23, s23, s13
 2264              	.LVL363:
 2265              		.loc 1 876 0
 2266 01ea 9FED4B6A 		vldr.32	s12, .L206+36
 2267 01ee DFED4B6A 		vldr.32	s13, .L206+40
 2268              		.loc 1 874 0
 2269 01f2 F0EE005A 		vmov.f32	s11, #2.0e+0
 2270 01f6 ABEEA57A 		vfma.f32	s14, s23, s11
 2271              	.LVL364:
 2272              		.loc 1 876 0
 2273 01fa 67EE867A 		vmul.f32	s15, s15, s12
 2274 01fe 67EEA67A 		vmul.f32	s15, s15, s13
 2275 0202 C7EE276A 		vdiv.f32	s13, s14, s15
 2276 0206 C9ED006A 		vstr.32	s13, [r9]
 2277              		.loc 1 878 0
 2278 020a FFF7FEFF 		bl	mempools_free_mcconf
 2279              	.LVL365:
 2280              		.loc 1 879 0
ARM GAS  /tmp/cczU1kEP.s 			page 41


 2281 020e 4046     		mov	r0, r8
 2282 0210 FFF7FEFF 		bl	mempools_free_mcconf
 2283              	.LVL366:
 2284              		.loc 1 882 0
 2285 0214 BDEC0A8B 		vldm	sp!, {d8-d12}
 2286              		.cfi_remember_state
 2287              		.cfi_restore 88
 2288              		.cfi_restore 89
 2289              		.cfi_restore 86
 2290              		.cfi_restore 87
 2291              		.cfi_restore 84
 2292              		.cfi_restore 85
 2293              		.cfi_restore 82
 2294              		.cfi_restore 83
 2295              		.cfi_restore 80
 2296              		.cfi_restore 81
 2297              		.cfi_def_cfa_offset 40
 2298              	.LVL367:
 2299              		.loc 1 881 0
 2300 0218 0120     		movs	r0, #1
 2301              		.loc 1 882 0
 2302 021a BDE8F88F 		pop	{r3, r4, r5, r6, r7, r8, r9, r10, fp, pc}
 2303              	.LVL368:
 2304              	.L204:
 2305              		.cfi_restore_state
 2306              	.LBB59:
 2307              	.LBB52:
 2308              		.loc 1 821 0
 2309 021e 0120     		movs	r0, #1
 2310 0220 FFF7FEFF 		bl	mcpwm_switch_comm_mode
 2311              	.LVL369:
 2312              		.loc 1 830 0
 2313 0224 41F28833 		movw	r3, #5000
 2314 0228 9C42     		cmp	r4, r3
 2315 022a 86D1     		bne	.L182
 2316              	.LVL370:
 2317              	.L177:
 2318              	.LBE52:
 2319              	.LBE59:
 2320              		.loc 1 842 0
 2321 022c 9FED350A 		vldr.32	s0, .L206+16
 2322 0230 FFF7FEFF 		bl	mc_interface_set_current
 2323              	.LVL371:
 2324              		.loc 1 843 0
 2325 0234 5946     		mov	r1, fp
 2326 0236 B0EE4C0A 		vmov.f32	s0, s24
 2327 023a 5046     		mov	r0, r10
 2328 023c FFF7FEFF 		bl	timeout_configure
 2329              	.LVL372:
 2330              		.loc 1 844 0
 2331 0240 3046     		mov	r0, r6
 2332 0242 FFF7FEFF 		bl	mc_interface_set_configuration
 2333              	.LVL373:
 2334              		.loc 1 845 0
 2335 0246 FFF7FEFF 		bl	mc_interface_unlock
 2336              	.LVL374:
 2337 024a 0BE0     		b	.L197
ARM GAS  /tmp/cczU1kEP.s 			page 42


 2338              	.LVL375:
 2339              	.L203:
 2340              	.LBB60:
 2341              	.LBB53:
 2342              		.loc 1 836 0
 2343 024c 002D     		cmp	r5, #0
 2344 024e 80D1     		bne	.L179
 2345              	.LBE53:
 2346              		.loc 1 777 0
 2347 0250 0137     		adds	r7, r7, #1
 2348              	.LVL376:
 2349 0252 042F     		cmp	r7, #4
 2350              	.LBB54:
 2351              		.loc 1 814 0
 2352 0254 4FF00105 		mov	r5, #1
 2353              	.LVL377:
 2354              	.LBE54:
 2355              		.loc 1 777 0
 2356 0258 7FF442AF 		bne	.L180
 2357 025c 77E7     		b	.L205
 2358              	.LVL378:
 2359              	.L199:
 2360              	.LBE60:
 2361              		.loc 1 753 0
 2362 025e 4046     		mov	r0, r8
 2363 0260 FFF7FEFF 		bl	mc_interface_set_configuration
 2364              	.LVL379:
 2365              	.L197:
 2366              		.loc 1 846 0
 2367 0264 3046     		mov	r0, r6
 2368 0266 FFF7FEFF 		bl	mempools_free_mcconf
 2369              	.LVL380:
 2370              		.loc 1 847 0
 2371 026a 4046     		mov	r0, r8
 2372 026c FFF7FEFF 		bl	mempools_free_mcconf
 2373              	.LVL381:
 2374              		.loc 1 882 0
 2375 0270 BDEC0A8B 		vldm	sp!, {d8-d12}
 2376              		.cfi_remember_state
 2377              		.cfi_restore 88
 2378              		.cfi_restore 89
 2379              		.cfi_restore 86
 2380              		.cfi_restore 87
 2381              		.cfi_restore 84
 2382              		.cfi_restore 85
 2383              		.cfi_restore 82
 2384              		.cfi_restore 83
 2385              		.cfi_restore 80
 2386              		.cfi_restore 81
 2387              		.cfi_def_cfa_offset 40
 2388              	.LVL382:
 2389              		.loc 1 848 0
 2390 0274 0020     		movs	r0, #0
 2391              		.loc 1 882 0
 2392 0276 BDE8F88F 		pop	{r3, r4, r5, r6, r7, r8, r9, r10, fp, pc}
 2393              	.LVL383:
 2394              	.L202:
ARM GAS  /tmp/cczU1kEP.s 			page 43


 2395              		.cfi_restore_state
 2396              	.LBB61:
 2397              	.LBB55:
 2398              		.loc 1 800 0
 2399 027a FFF7FEFF 		bl	mc_interface_lock_override_once
 2400              	.LVL384:
 2401              		.loc 1 801 0
 2402 027e FFF7FEFF 		bl	mc_interface_release_motor
 2403              	.LVL385:
 2404              		.loc 1 802 0
 2405 0282 B7EE000A 		vmov.f32	s0, #1.0e+0
 2406 0286 FFF7FEFF 		bl	mc_interface_wait_for_motor_release
 2407              	.LVL386:
 2408              		.loc 1 803 0
 2409 028a F1EE007A 		vmov.f32	s15, #4.0e+0
 2410 028e 69EE277A 		vmul.f32	s15, s18, s15
 2411              		.loc 1 804 0
 2412 0292 4FF00103 		mov	r3, #1
 2413 0296 86F88530 		strb	r3, [r6, #133]
 2414              		.loc 1 803 0
 2415 029a C6ED227A 		vstr.32	s15, [r6, #136]
 2416              	.L196:
 2417              		.loc 1 805 0
 2418 029e FFF7FEFF 		bl	mc_interface_lock_override_once
 2419              	.LVL387:
 2420              		.loc 1 806 0
 2421 02a2 3046     		mov	r0, r6
 2422 02a4 FFF7FEFF 		bl	mc_interface_set_configuration
 2423              	.LVL388:
 2424              		.loc 1 807 0
 2425 02a8 42F21070 		movw	r0, #10000
 2426 02ac FFF7FEFF 		bl	chThdSleep
 2427              	.LVL389:
 2428              		.loc 1 808 0
 2429 02b0 FFF7FEFF 		bl	mc_interface_lock_override_once
 2430              	.LVL390:
 2431              		.loc 1 809 0
 2432 02b4 B0EE690A 		vmov.f32	s0, s19
 2433 02b8 FFF7FEFF 		bl	mc_interface_set_current
 2434              	.LVL391:
 2435 02bc 19E7     		b	.L168
 2436              	.L201:
 2437              		.loc 1 789 0
 2438 02be FFF7FEFF 		bl	mc_interface_lock_override_once
 2439              	.LVL392:
 2440              		.loc 1 790 0
 2441 02c2 FFF7FEFF 		bl	mc_interface_release_motor
 2442              	.LVL393:
 2443              		.loc 1 791 0
 2444 02c6 B7EE000A 		vmov.f32	s0, #1.0e+0
 2445 02ca FFF7FEFF 		bl	mc_interface_wait_for_motor_release
 2446              	.LVL394:
 2447              		.loc 1 792 0
 2448 02ce 79EE097A 		vadd.f32	s15, s18, s18
 2449              		.loc 1 793 0
 2450 02d2 134B     		ldr	r3, .L206+44
 2451              		.loc 1 792 0
ARM GAS  /tmp/cczU1kEP.s 			page 44


 2452 02d4 C6ED227A 		vstr.32	s15, [r6, #136]
 2453              		.loc 1 793 0
 2454 02d8 C6F89430 		str	r3, [r6, #148]	@ float
 2455 02dc DFE7     		b	.L196
 2456              	.L200:
 2457              		.loc 1 779 0
 2458 02de FFF7FEFF 		bl	mc_interface_lock_override_once
 2459              	.LVL395:
 2460              		.loc 1 780 0
 2461 02e2 FFF7FEFF 		bl	mc_interface_release_motor
 2462              	.LVL396:
 2463              		.loc 1 781 0
 2464 02e6 B7EE000A 		vmov.f32	s0, #1.0e+0
 2465 02ea FFF7FEFF 		bl	mc_interface_wait_for_motor_release
 2466              	.LVL397:
 2467              		.loc 1 782 0
 2468 02ee 86ED25AA 		vstr.32	s20, [r6, #148]
 2469 02f2 D4E7     		b	.L196
 2470              	.L207:
 2471              		.align	2
 2472              	.L206:
 2473 02f4 00401C46 		.word	1176256512
 2474 02f8 00009643 		.word	1133903872
 2475 02fc 00004842 		.word	1112014848
 2476 0300 00808944 		.word	1149861888
 2477 0304 00000000 		.word	0
 2478 0308 00007A43 		.word	1132068864
 2479 030c 00000000 		.word	ADC_Value
 2480 0310 6740533A 		.word	978534503
 2481 0314 ABAA5E42 		.word	1113500331
 2482 0318 5077D63D 		.word	1037465424
 2483 031c D7B3DD3F 		.word	1071494103
 2484 0320 0000A041 		.word	1101004800
 2485              	.LBE55:
 2486              	.LBE61:
 2487              		.cfi_endproc
 2488              	.LFE269:
 2489              		.size	conf_general_measure_flux_linkage, .-conf_general_measure_flux_linkage
 2490              		.section	.text.conf_general_calculate_deadtime,"ax",%progbits
 2491              		.align	1
 2492              		.p2align 4,,15
 2493              		.global	conf_general_calculate_deadtime
 2494              		.syntax unified
 2495              		.thumb
 2496              		.thumb_func
 2497              		.fpu fpv4-sp-d16
 2498              		.type	conf_general_calculate_deadtime, %function
 2499              	conf_general_calculate_deadtime:
 2500              	.LFB270:
 2501              		.loc 1 885 0
 2502              		.cfi_startproc
 2503              		@ args = 0, pretend = 0, frame = 8
 2504              		@ frame_needed = 0, uses_anonymous_args = 0
 2505              		@ link register save eliminated.
 2506              	.LVL398:
 2507              		.loc 1 887 0
 2508 0000 DFED387A 		vldr.32	s15, .L233
ARM GAS  /tmp/cczU1kEP.s 			page 45


 2509 0004 DFED386A 		vldr.32	s13, .L233+4
 2510              		.loc 1 889 0
 2511 0008 9FED387A 		vldr.32	s14, .L233+8
 2512              		.loc 1 887 0
 2513 000c C0EEA70A 		vdiv.f32	s1, s1, s15
 2514              	.LVL399:
 2515 0010 B7EE006A 		vmov.f32	s12, #1.0e+0
 2516 0014 C6EE207A 		vdiv.f32	s15, s12, s1
 2517 0018 67EEA67A 		vmul.f32	s15, s15, s13
 2518              	.LVL400:
 2519              		.loc 1 889 0
 2520 001c 27EE877A 		vmul.f32	s14, s15, s14
 2521 0020 B4EEC07A 		vcmpe.f32	s14, s0
 2522 0024 F1EE10FA 		vmrs	APSR_nzcv, FPSCR
 2523 0028 3CDA     		bge	.L230
 2524              		.loc 1 892 0
 2525 002a 9FED317A 		vldr.32	s14, .L233+12
 2526 002e 27EE877A 		vmul.f32	s14, s15, s14
 2527 0032 B4EEC07A 		vcmpe.f32	s14, s0
 2528 0036 F1EE10FA 		vmrs	APSR_nzcv, FPSCR
 2529 003a 23DA     		bge	.L231
 2530              		.loc 1 896 0
 2531 003c 9FED2D7A 		vldr.32	s14, .L233+16
 2532 0040 27EE877A 		vmul.f32	s14, s15, s14
 2533 0044 B4EEC07A 		vcmpe.f32	s14, s0
 2534 0048 F1EE10FA 		vmrs	APSR_nzcv, FPSCR
 2535 004c 35DA     		bge	.L232
 2536              		.loc 1 900 0
 2537 004e 9FED2A7A 		vldr.32	s14, .L233+20
 2538 0052 27EE877A 		vmul.f32	s14, s15, s14
 2539 0056 B4EEC07A 		vcmpe.f32	s14, s0
 2540 005a F1EE10FA 		vmrs	APSR_nzcv, FPSCR
 2541 005e 3EDB     		blt	.L225
 2542              		.loc 1 901 0
 2543 0060 B3EE007A 		vmov.f32	s14, #1.6e+1
 2544 0064 67EE877A 		vmul.f32	s15, s15, s14
 2545              	.LVL401:
 2546 0068 DFED246A 		vldr.32	s13, .L233+24
 2547              	.LVL402:
 2548 006c 80EE277A 		vdiv.f32	s14, s0, s15
 2549 0070 77EE667A 		vsub.f32	s15, s14, s13
 2550 0074 FCEEE77A 		vcvt.u32.f32	s15, s15
 2551 0078 17EE900A 		vmov	r0, s15	@ int
 2552              	.LVL403:
 2553              		.loc 1 902 0
 2554 007c 60F01F00 		orn	r0, r0, #31
 2555              	.LVL404:
 2556 0080 C0B2     		uxtb	r0, r0
 2557              	.LVL405:
 2558 0082 7047     		bx	lr
 2559              	.LVL406:
 2560              	.L231:
 2561              		.loc 1 893 0
 2562 0084 77EEA77A 		vadd.f32	s15, s15, s15
 2563              	.LVL407:
 2564 0088 DFED1D6A 		vldr.32	s13, .L233+28
 2565              	.LVL408:
ARM GAS  /tmp/cczU1kEP.s 			page 46


 2566 008c 80EE277A 		vdiv.f32	s14, s0, s15
 2567 0090 77EE667A 		vsub.f32	s15, s14, s13
 2568 0094 FCEEE77A 		vcvt.u32.f32	s15, s15
 2569 0098 17EE900A 		vmov	r0, s15	@ int
 2570              	.LVL409:
 2571              		.loc 1 894 0
 2572 009c 60F07F00 		orn	r0, r0, #127
 2573              	.LVL410:
 2574 00a0 C0B2     		uxtb	r0, r0
 2575              	.LVL411:
 2576 00a2 7047     		bx	lr
 2577              	.LVL412:
 2578              	.L230:
 2579              		.loc 1 890 0
 2580 00a4 80EE277A 		vdiv.f32	s14, s0, s15
 2581              		.loc 1 885 0
 2582 00a8 82B0     		sub	sp, sp, #8
 2583              		.cfi_def_cfa_offset 8
 2584              		.loc 1 890 0
 2585 00aa FCEEC77A 		vcvt.u32.f32	s15, s14
 2586              	.LVL413:
 2587 00ae CDED017A 		vstr.32	s15, [sp, #4]	@ int
 2588 00b2 9DF80400 		ldrb	r0, [sp, #4]	@ zero_extendqisi2
 2589              	.LVL414:
 2590              		.loc 1 914 0
 2591 00b6 02B0     		add	sp, sp, #8
 2592              		.cfi_def_cfa_offset 0
 2593              		@ sp needed
 2594 00b8 7047     		bx	lr
 2595              	.LVL415:
 2596              	.L232:
 2597              		.loc 1 897 0
 2598 00ba B2EE007A 		vmov.f32	s14, #8.0e+0
 2599 00be 67EE877A 		vmul.f32	s15, s15, s14
 2600              	.LVL416:
 2601 00c2 DFED0E6A 		vldr.32	s13, .L233+24
 2602              	.LVL417:
 2603 00c6 80EE277A 		vdiv.f32	s14, s0, s15
 2604 00ca 77EE667A 		vsub.f32	s15, s14, s13
 2605 00ce FCEEE77A 		vcvt.u32.f32	s15, s15
 2606 00d2 17EE900A 		vmov	r0, s15	@ int
 2607              	.LVL418:
 2608              		.loc 1 898 0
 2609 00d6 60F03F00 		orn	r0, r0, #63
 2610              	.LVL419:
 2611 00da C0B2     		uxtb	r0, r0
 2612              	.LVL420:
 2613 00dc 7047     		bx	lr
 2614              	.LVL421:
 2615              	.L225:
 2616              		.loc 1 906 0
 2617 00de FF20     		movs	r0, #255
 2618              	.LVL422:
 2619              		.loc 1 914 0
 2620 00e0 7047     		bx	lr
 2621              	.L234:
 2622 00e2 00BF     		.align	2
ARM GAS  /tmp/cczU1kEP.s 			page 47


 2623              	.L233:
 2624 00e4 00247449 		.word	1232348160
 2625 00e8 00007A44 		.word	1148846080
 2626 00ec 0000FE42 		.word	1123942400
 2627 00f0 00007E43 		.word	1132331008
 2628 00f4 0000FC43 		.word	1140588544
 2629 00f8 00007C44 		.word	1148977152
 2630 00fc 00000042 		.word	1107296256
 2631 0100 00008042 		.word	1115684864
 2632              		.cfi_endproc
 2633              	.LFE270:
 2634              		.size	conf_general_calculate_deadtime, .-conf_general_calculate_deadtime
 2635              		.section	.text.conf_general_measure_flux_linkage_openloop,"ax",%progbits
 2636              		.align	1
 2637              		.p2align 4,,15
 2638              		.global	conf_general_measure_flux_linkage_openloop
 2639              		.syntax unified
 2640              		.thumb
 2641              		.thumb_func
 2642              		.fpu fpv4-sp-d16
 2643              		.type	conf_general_measure_flux_linkage_openloop, %function
 2644              	conf_general_measure_flux_linkage_openloop:
 2645              	.LFB271:
 2646              		.loc 1 945 0
 2647              		.cfi_startproc
 2648              		@ args = 0, pretend = 0, frame = 8
 2649              		@ frame_needed = 0, uses_anonymous_args = 0
 2650              	.LVL423:
 2651 0000 2DE9F04F 		push	{r4, r5, r6, r7, r8, r9, r10, fp, lr}
 2652              		.cfi_def_cfa_offset 36
 2653              		.cfi_offset 4, -36
 2654              		.cfi_offset 5, -32
 2655              		.cfi_offset 6, -28
 2656              		.cfi_offset 7, -24
 2657              		.cfi_offset 8, -20
 2658              		.cfi_offset 9, -16
 2659              		.cfi_offset 10, -12
 2660              		.cfi_offset 11, -8
 2661              		.cfi_offset 14, -4
 2662 0004 2DED108B 		vpush.64	{d8, d9, d10, d11, d12, d13, d14, d15}
 2663              		.cfi_def_cfa_offset 100
 2664              		.cfi_offset 80, -100
 2665              		.cfi_offset 81, -96
 2666              		.cfi_offset 82, -92
 2667              		.cfi_offset 83, -88
 2668              		.cfi_offset 84, -84
 2669              		.cfi_offset 85, -80
 2670              		.cfi_offset 86, -76
 2671              		.cfi_offset 87, -72
 2672              		.cfi_offset 88, -68
 2673              		.cfi_offset 89, -64
 2674              		.cfi_offset 90, -60
 2675              		.cfi_offset 91, -56
 2676              		.cfi_offset 92, -52
 2677              		.cfi_offset 93, -48
 2678              		.cfi_offset 94, -44
 2679              		.cfi_offset 95, -40
ARM GAS  /tmp/cczU1kEP.s 			page 48


 2680 0008 83B0     		sub	sp, sp, #12
 2681              		.cfi_def_cfa_offset 112
 2682              		.loc 1 945 0
 2683 000a B0EE409A 		vmov.f32	s18, s0
 2684 000e B0EE60AA 		vmov.f32	s20, s1
 2685 0012 B0EE41CA 		vmov.f32	s24, s2
 2686 0016 F0EE61AA 		vmov.f32	s21, s3
 2687 001a B0EE42BA 		vmov.f32	s22, s4
 2688 001e 8946     		mov	r9, r1
 2689 0020 9046     		mov	r8, r2
 2690 0022 0746     		mov	r7, r0
 2691              		.loc 1 948 0
 2692 0024 FFF7FEFF 		bl	mempools_alloc_mcconf
 2693              	.LVL424:
 2694 0028 0546     		mov	r5, r0
 2695              	.LVL425:
 2696              		.loc 1 949 0
 2697 002a FFF7FEFF 		bl	mempools_alloc_mcconf
 2698              	.LVL426:
 2699 002e 0646     		mov	r6, r0
 2700              	.LVL427:
 2701              		.loc 1 951 0
 2702 0030 FFF7FEFF 		bl	mc_interface_get_configuration
 2703              	.LVL428:
 2704 0034 4FF42372 		mov	r2, #652
 2705 0038 0146     		mov	r1, r0
 2706 003a 2846     		mov	r0, r5
 2707 003c FFF7FEFF 		bl	memcpy
 2708              	.LVL429:
 2709              		.loc 1 952 0
 2710 0040 2946     		mov	r1, r5
 2711 0042 4FF42372 		mov	r2, #652
 2712 0046 3046     		mov	r0, r6
 2713 0048 FFF7FEFF 		bl	memcpy
 2714              	.LVL430:
 2715              		.loc 1 955 0
 2716 004c 0023     		movs	r3, #0
 2717              		.loc 1 956 0
 2718 004e DE49     		ldr	r1, .L287
 2719 0050 C5F8B010 		str	r1, [r5, #176]	@ float
 2720              		.loc 1 954 0
 2721 0054 0220     		movs	r0, #2
 2722              		.loc 1 957 0
 2723 0056 4FF07E52 		mov	r2, #1065353216
 2724              		.loc 1 954 0
 2725 005a 85F88600 		strb	r0, [r5, #134]
 2726              		.loc 1 957 0
 2727 005e C5F8B420 		str	r2, [r5, #180]	@ float
 2728              		.loc 1 955 0
 2729 0062 85F82C31 		strb	r3, [r5, #300]
 2730              		.loc 1 958 0
 2731 0066 85F85431 		strb	r3, [r5, #340]
 2732              		.loc 1 959 0
 2733 006a 2846     		mov	r0, r5
 2734 006c FFF7FEFF 		bl	mc_interface_set_configuration
 2735              	.LVL431:
 2736 0070 4FF4FA74 		mov	r4, #500
ARM GAS  /tmp/cczU1kEP.s 			page 49


 2737 0074 04E0     		b	.L237
 2738              	.LVL432:
 2739              	.L278:
 2740              	.LBB62:
 2741              		.loc 1 966 0 discriminator 2
 2742 0076 6420     		movs	r0, #100
 2743 0078 FFF7FEFF 		bl	chThdSleep
 2744              	.LVL433:
 2745              		.loc 1 962 0 discriminator 2
 2746 007c 013C     		subs	r4, r4, #1
 2747              	.LVL434:
 2748 007e 03D0     		beq	.L236
 2749              	.LVL435:
 2750              	.L237:
 2751              		.loc 1 963 0
 2752 0080 FFF7FEFF 		bl	mc_interface_get_fault
 2753              	.LVL436:
 2754 0084 0028     		cmp	r0, #0
 2755 0086 F6D1     		bne	.L278
 2756              	.LVL437:
 2757              	.L236:
 2758              	.LBE62:
 2759              		.loc 1 969 0
 2760 0088 FFF7FEFF 		bl	mc_interface_get_fault
 2761              	.LVL438:
 2762 008c 0446     		mov	r4, r0
 2763 008e 0028     		cmp	r0, #0
 2764 0090 40F09B80 		bne	.L279
 2765              		.loc 1 978 0
 2766 0094 42F21070 		movw	r0, #10000
 2767 0098 FFF7FEFF 		bl	chThdSleep
 2768              	.LVL439:
 2769              		.loc 1 981 0
 2770 009c FFF7FEFF 		bl	timeout_get_timeout_msec
 2771              	.LVL440:
 2772 00a0 0190     		str	r0, [sp, #4]
 2773              	.LVL441:
 2774              		.loc 1 982 0
 2775 00a2 FFF7FEFF 		bl	timeout_get_brake_current
 2776              	.LVL442:
 2777 00a6 F0EE40BA 		vmov.f32	s23, s0
 2778              	.LVL443:
 2779              		.loc 1 983 0
 2780 00aa FFF7FEFF 		bl	timeout_get_kill_sw_mode
 2781              	.LVL444:
 2782 00ae 8346     		mov	fp, r0
 2783              	.LVL445:
 2784              		.loc 1 984 0
 2785 00b0 FFF7FEFF 		bl	timeout_reset
 2786              	.LVL446:
 2787              		.loc 1 985 0
 2788 00b4 9FEDC50A 		vldr.32	s0, .L287+4
 2789              	.LBB63:
 2790              		.loc 1 994 0
 2791 00b8 DFEDC58A 		vldr.32	s17, .L287+8
 2792              	.LBE63:
 2793              		.loc 1 985 0
ARM GAS  /tmp/cczU1kEP.s 			page 50


 2794 00bc 2146     		mov	r1, r4
 2795 00be 4EF66020 		movw	r0, #60000
 2796              	.LBB64:
 2797              		.loc 1 994 0
 2798 00c2 B0EE408A 		vmov.f32	s16, s0
 2799              	.LBE64:
 2800              		.loc 1 985 0
 2801 00c6 FFF7FEFF 		bl	timeout_configure
 2802              	.LVL447:
 2803              		.loc 1 987 0
 2804 00ca FFF7FEFF 		bl	mc_interface_lock
 2805              	.LVL448:
 2806              	.L240:
 2807              	.LBB65:
 2808              		.loc 1 994 0 discriminator 3
 2809 00ce 07EE904A 		vmov	s15, r4	@ int
 2810 00d2 B8EEE70A 		vcvt.f32.s32	s0, s15
 2811 00d6 F0EE480A 		vmov.f32	s1, s16
 2812 00da 20EE090A 		vmul.f32	s0, s0, s18
 2813              		.loc 1 993 0 discriminator 3
 2814 00de 0134     		adds	r4, r4, #1
 2815              	.LVL449:
 2816              		.loc 1 994 0 discriminator 3
 2817 00e0 80EE280A 		vdiv.f32	s0, s0, s17
 2818 00e4 FFF7FEFF 		bl	mcpwm_foc_set_openloop
 2819              	.LVL450:
 2820              		.loc 1 995 0 discriminator 3
 2821 00e8 0A20     		movs	r0, #10
 2822 00ea FFF7FEFF 		bl	chThdSleep
 2823              	.LVL451:
 2824              		.loc 1 993 0 discriminator 3
 2825 00ee C82C     		cmp	r4, #200
 2826 00f0 EDD1     		bne	.L240
 2827              	.LBE65:
 2828              		.loc 1 999 0
 2829 00f2 9FEDB68A 		vldr.32	s16, .L287+4
 2830              	.LBB66:
 2831 00f6 4FF47A7A 		mov	r10, #1000
 2832              	.LBE66:
 2833              		.loc 1 998 0
 2834 00fa F0EE488A 		vmov.f32	s17, s16
 2835              	.LBB67:
 2836              		.loc 1 1002 0
 2837 00fe F7EE009A 		vmov.f32	s19, #1.0e+0
 2838              	.L241:
 2839              	.LVL452:
 2840              		.loc 1 1001 0 discriminator 3
 2841 0102 FFF7FEFF 		bl	mc_interface_get_duty_cycle_now
 2842              	.LVL453:
 2843              		.loc 1 1003 0 discriminator 3
 2844 0106 0A20     		movs	r0, #10
 2845              		.loc 1 1001 0 discriminator 3
 2846 0108 B0EEC00A 		vabs.f32	s0, s0
 2847 010c 78EE808A 		vadd.f32	s17, s17, s0
 2848              	.LVL454:
 2849              		.loc 1 1003 0 discriminator 3
 2850 0110 FFF7FEFF 		bl	chThdSleep
ARM GAS  /tmp/cczU1kEP.s 			page 51


 2851              	.LVL455:
 2852              		.loc 1 1000 0 discriminator 3
 2853 0114 BAF1010A 		subs	r10, r10, #1
 2854              	.LVL456:
 2855              		.loc 1 1002 0 discriminator 3
 2856 0118 38EE298A 		vadd.f32	s16, s16, s19
 2857              	.LVL457:
 2858              		.loc 1 1000 0 discriminator 3
 2859 011c F1D1     		bne	.L241
 2860              	.LBE67:
 2861              		.loc 1 1007 0
 2862 011e DFEDAB9A 		vldr.32	s19, .L287+4
 2863              	.LBB68:
 2864              		.loc 1 1011 0
 2865 0122 9FEDACDA 		vldr.32	s26, .L287+12
 2866              		.loc 1 1028 0
 2867 0126 9FEDACFA 		vldr.32	s30, .L287+16
 2868              		.loc 1 1034 0
 2869 012a DFEDACEA 		vldr.32	s29, .L287+20
 2870              		.loc 1 1040 0
 2871 012e DFEDACDA 		vldr.32	s27, .L287+24
 2872              	.LBE68:
 2873              		.loc 1 1006 0
 2874 0132 88EE88EA 		vdiv.f32	s28, s17, s16
 2875              	.LVL458:
 2876              	.LBB69:
 2877              		.loc 1 1023 0
 2878 0136 43F69824 		movw	r4, #15000
 2879              	.LVL459:
 2880              	.LBE69:
 2881              		.loc 1 990 0
 2882 013a F0EE69CA 		vmov.f32	s25, s19
 2883              		.loc 1 1010 0
 2884 013e 30E0     		b	.L242
 2885              	.LVL460:
 2886              	.L283:
 2887              	.LBB70:
 2888              		.loc 1 1012 0 discriminator 1
 2889 0140 F1EE6C0A 		vneg.f32	s1, s25
 2890              	.L243:
 2891              		.loc 1 1012 0 is_stmt 0 discriminator 4
 2892 0144 B0EE490A 		vmov.f32	s0, s18
 2893 0148 FFF7FEFF 		bl	mcpwm_foc_set_openloop
 2894              	.LVL461:
 2895              		.loc 1 1014 0 is_stmt 1 discriminator 4
 2896 014c 0A20     		movs	r0, #10
 2897 014e FFF7FEFF 		bl	chThdSleep
 2898              	.LVL462:
 2899              		.loc 1 1017 0 discriminator 4
 2900 0152 FFF7FEFF 		bl	mc_interface_get_duty_cycle_now
 2901              	.LVL463:
 2902 0156 B0EEC00A 		vabs.f32	s0, s0
 2903              		.loc 1 1020 0 discriminator 4
 2904 015a F4EE409A 		vcmp.f32	s19, s0
 2905 015e F1EE10FA 		vmrs	APSR_nzcv, FPSCR
 2906              		.loc 1 1015 0 discriminator 4
 2907 0162 0AF1010A 		add	r10, r10, #1
ARM GAS  /tmp/cczU1kEP.s 			page 52


 2908              	.LVL464:
 2909              		.loc 1 1020 0 discriminator 4
 2910 0166 48BF     		it	mi
 2911 0168 F0EE409A 		vmovmi.f32	s19, s0
 2912              	.LVL465:
 2913              		.loc 1 1023 0 discriminator 4
 2914 016c A245     		cmp	r10, r4
 2915 016e 00F01C81 		beq	.L280
 2916              		.loc 1 1028 0
 2917 0172 BAF57A6F 		cmp	r10, #4000
 2918 0176 0FDD     		ble	.L248
 2919              		.loc 1 1028 0 is_stmt 0 discriminator 1
 2920 0178 69EE8F7A 		vmul.f32	s15, s19, s30
 2921 017c F4EEC07A 		vcmpe.f32	s15, s0
 2922 0180 F1EE10FA 		vmrs	APSR_nzcv, FPSCR
 2923 0184 00F30881 		bgt	.L281
 2924              		.loc 1 1034 0 is_stmt 1 discriminator 1
 2925 0188 6EEE2E7A 		vmul.f32	s15, s28, s29
 2926 018c F4EECA7A 		vcmpe.f32	s15, s20
 2927 0190 F1EE10FA 		vmrs	APSR_nzcv, FPSCR
 2928 0194 00F3F880 		bgt	.L282
 2929              	.L248:
 2930              		.loc 1 1040 0
 2931 0198 F4EEEDCA 		vcmpe.f32	s25, s27
 2932 019c F1EE10FA 		vmrs	APSR_nzcv, FPSCR
 2933 01a0 23DA     		bge	.L252
 2934              	.LVL466:
 2935              	.L242:
 2936              	.LBE70:
 2937              		.loc 1 1010 0
 2938 01a2 FFF7FEFF 		bl	mc_interface_get_duty_cycle_now
 2939              	.LVL467:
 2940 01a6 B0EEC00A 		vabs.f32	s0, s0
 2941 01aa B4EECA0A 		vcmpe.f32	s0, s20
 2942 01ae F1EE10FA 		vmrs	APSR_nzcv, FPSCR
 2943 01b2 1AD5     		bpl	.L252
 2944              	.LBB71:
 2945              		.loc 1 1011 0
 2946 01b4 CCEE0D7A 		vdiv.f32	s15, s24, s26
 2947              		.loc 1 1012 0
 2948 01b8 95F82922 		ldrb	r2, [r5, #553]	@ zero_extendqisi2
 2949              		.loc 1 1011 0
 2950 01bc 7CEEA7CA 		vadd.f32	s25, s25, s15
 2951              		.loc 1 1012 0
 2952 01c0 002A     		cmp	r2, #0
 2953 01c2 BDD1     		bne	.L283
 2954              		.loc 1 1011 0
 2955 01c4 F0EE6C0A 		vmov.f32	s1, s25
 2956 01c8 BCE7     		b	.L243
 2957              	.LVL468:
 2958              	.L279:
 2959              	.LBE71:
 2960              		.loc 1 970 0
 2961 01ca 3046     		mov	r0, r6
 2962 01cc FFF7FEFF 		bl	mc_interface_set_configuration
 2963              	.LVL469:
 2964              		.loc 1 971 0
ARM GAS  /tmp/cczU1kEP.s 			page 53


 2965 01d0 2846     		mov	r0, r5
 2966 01d2 FFF7FEFF 		bl	mempools_free_mcconf
 2967              	.LVL470:
 2968              		.loc 1 972 0
 2969 01d6 3046     		mov	r0, r6
 2970 01d8 FFF7FEFF 		bl	mempools_free_mcconf
 2971              	.LVL471:
 2972              		.loc 1 973 0
 2973 01dc 0024     		movs	r4, #0
 2974              		.loc 1 1132 0
 2975 01de 2046     		mov	r0, r4
 2976 01e0 03B0     		add	sp, sp, #12
 2977              		.cfi_remember_state
 2978              		.cfi_def_cfa_offset 100
 2979              		@ sp needed
 2980 01e2 BDEC108B 		vldm	sp!, {d8-d15}
 2981              		.cfi_restore 94
 2982              		.cfi_restore 95
 2983              		.cfi_restore 92
 2984              		.cfi_restore 93
 2985              		.cfi_restore 90
 2986              		.cfi_restore 91
 2987              		.cfi_restore 88
 2988              		.cfi_restore 89
 2989              		.cfi_restore 86
 2990              		.cfi_restore 87
 2991              		.cfi_restore 84
 2992              		.cfi_restore 85
 2993              		.cfi_restore 82
 2994              		.cfi_restore 83
 2995              		.cfi_restore 80
 2996              		.cfi_restore 81
 2997              		.cfi_def_cfa_offset 36
 2998              	.LVL472:
 2999 01e6 BDE8F08F 		pop	{r4, r5, r6, r7, r8, r9, r10, fp, pc}
 3000              	.LVL473:
 3001              	.L252:
 3002              		.cfi_restore_state
 3003              		.loc 1 1045 0
 3004 01ea 42F21070 		movw	r0, #10000
 3005              	.LBB72:
 3006              		.loc 1 1052 0
 3007 01ee 9FED778A 		vldr.32	s16, .L287+4
 3008              	.LVL474:
 3009              	.LBE72:
 3010              		.loc 1 1045 0
 3011 01f2 FFF7FEFF 		bl	chThdSleep
 3012              	.LVL475:
 3013              	.LBB81:
 3014              		.loc 1 1051 0
 3015 01f6 B0EE48AA 		vmov.f32	s20, s16
 3016              	.LVL476:
 3017              		.loc 1 1050 0
 3018 01fa F0EE489A 		vmov.f32	s19, s16
 3019              	.LVL477:
 3020              		.loc 1 1049 0
 3021 01fe B0EE489A 		vmov.f32	s18, s16
ARM GAS  /tmp/cczU1kEP.s 			page 54


 3022              	.LVL478:
 3023              		.loc 1 1048 0
 3024 0202 F0EE488A 		vmov.f32	s17, s16
 3025              	.LBE81:
 3026              		.loc 1 1045 0
 3027 0206 42F21074 		movw	r4, #10000
 3028              	.LBB82:
 3029              	.LBB73:
 3030              		.loc 1 1059 0
 3031 020a B7EE00CA 		vmov.f32	s24, #1.0e+0
 3032              	.LVL479:
 3033              	.L254:
 3034              		.loc 1 1055 0 discriminator 3
 3035 020e FFF7FEFF 		bl	mcpwm_foc_get_vq
 3036              	.LVL480:
 3037 0212 78EE808A 		vadd.f32	s17, s17, s0
 3038              	.LVL481:
 3039              		.loc 1 1056 0 discriminator 3
 3040 0216 FFF7FEFF 		bl	mcpwm_foc_get_vd
 3041              	.LVL482:
 3042 021a 39EE009A 		vadd.f32	s18, s18, s0
 3043              	.LVL483:
 3044              		.loc 1 1057 0 discriminator 3
 3045 021e FFF7FEFF 		bl	mcpwm_foc_get_iq
 3046              	.LVL484:
 3047 0222 79EE809A 		vadd.f32	s19, s19, s0
 3048              	.LVL485:
 3049              		.loc 1 1058 0 discriminator 3
 3050 0226 FFF7FEFF 		bl	mcpwm_foc_get_id
 3051              	.LVL486:
 3052              		.loc 1 1060 0 discriminator 3
 3053 022a 0120     		movs	r0, #1
 3054              		.loc 1 1058 0 discriminator 3
 3055 022c 3AEE00AA 		vadd.f32	s20, s20, s0
 3056              	.LVL487:
 3057              		.loc 1 1060 0 discriminator 3
 3058 0230 FFF7FEFF 		bl	chThdSleep
 3059              	.LVL488:
 3060              		.loc 1 1054 0 discriminator 3
 3061 0234 013C     		subs	r4, r4, #1
 3062              	.LVL489:
 3063              		.loc 1 1059 0 discriminator 3
 3064 0236 38EE0C8A 		vadd.f32	s16, s16, s24
 3065              	.LVL490:
 3066              		.loc 1 1054 0 discriminator 3
 3067 023a E8D1     		bne	.L254
 3068              	.LBE73:
 3069              		.loc 1 1064 0
 3070 023c 89EE080A 		vdiv.f32	s0, s18, s16
 3071              		.loc 1 1063 0
 3072 0240 88EE887A 		vdiv.f32	s14, s17, s16
 3073              	.LVL491:
 3074              		.loc 1 1069 0
 3075 0244 20EE000A 		vmul.f32	s0, s0, s0
 3076              	.LVL492:
 3077              		.loc 1 1068 0
 3078 0248 DFED667A 		vldr.32	s15, .L287+28
ARM GAS  /tmp/cczU1kEP.s 			page 55


 3079              		.loc 1 1069 0
 3080 024c A7EE070A 		vfma.f32	s0, s14, s14
 3081              		.loc 1 1065 0
 3082 0250 89EE88CA 		vdiv.f32	s24, s19, s16
 3083              	.LVL493:
 3084 0254 B5EE400A 		vcmp.f32	s0, #0
 3085 0258 F1EE10FA 		vmrs	APSR_nzcv, FPSCR
 3086              		.loc 1 1066 0
 3087 025c CAEE088A 		vdiv.f32	s17, s20, s16
 3088              	.LVL494:
 3089              		.loc 1 1069 0
 3090 0260 B1EEC09A 		vsqrt.f32	s18, s0
 3091              	.LVL495:
 3092              		.loc 1 1068 0
 3093 0264 6CEEA7CA 		vmul.f32	s25, s25, s15
 3094              	.LVL496:
 3095 0268 00F1AA80 		bmi	.L284
 3096              	.LVL497:
 3097              	.L255:
 3098              		.loc 1 1070 0
 3099 026c 28EEA80A 		vmul.f32	s0, s17, s17
 3100 0270 ACEE0C0A 		vfma.f32	s0, s24, s24
 3101 0274 B5EE400A 		vcmp.f32	s0, #0
 3102 0278 F1EE10FA 		vmrs	APSR_nzcv, FPSCR
 3103 027c B1EEC08A 		vsqrt.f32	s16, s0
 3104              	.LVL498:
 3105 0280 00F19B80 		bmi	.L285
 3106              	.L256:
 3107              	.LVL499:
 3108              		.loc 1 1077 0
 3109 0284 2846     		mov	r0, r5
 3110              		.loc 1 1089 0
 3111 0286 4FF4FA64 		mov	r4, #2000
 3112              		.loc 1 1071 0
 3113 028a F1EE487A 		vneg.f32	s15, s16
 3114 028e A7EEAA9A 		vfma.f32	s18, s15, s21
 3115              	.LVL500:
 3116              		.loc 1 1076 0
 3117 0292 DFED556A 		vldr.32	s13, .L287+32
 3118              		.loc 1 1092 0
 3119 0296 9FED4D8A 		vldr.32	s16, .L287+4
 3120              	.LVL501:
 3121              	.LBB74:
 3122              	.LBB75:
 3123              		.loc 1 1094 0
 3124 029a 9FED52AA 		vldr.32	s20, .L287+28
 3125              		.loc 1 1095 0
 3126 029e DFED539A 		vldr.32	s19, .L287+36
 3127              	.LBE75:
 3128              	.LBE74:
 3129              		.loc 1 1071 0
 3130 02a2 89EE2C7A 		vdiv.f32	s14, s18, s25
 3131              		.loc 1 1091 0
 3132 02a6 F0EE488A 		vmov.f32	s17, s16
 3133              	.LVL502:
 3134              		.loc 1 1071 0
 3135 02aa A7EE8B7A 		vfma.f32	s14, s15, s22
ARM GAS  /tmp/cczU1kEP.s 			page 56


 3136              	.LBB79:
 3137              	.LBB76:
 3138              		.loc 1 1109 0
 3139 02ae B7EE00CA 		vmov.f32	s24, #1.0e+0
 3140              	.LVL503:
 3141              	.LBE76:
 3142              	.LBE79:
 3143              		.loc 1 1071 0
 3144 02b2 87ED007A 		vstr.32	s14, [r7]
 3145              		.loc 1 1073 0
 3146 02b6 C5ED3AAA 		vstr.32	s21, [r5, #232]
 3147              		.loc 1 1074 0
 3148 02ba 85ED38BA 		vstr.32	s22, [r5, #224]
 3149              		.loc 1 1075 0
 3150 02be 3B68     		ldr	r3, [r7]	@ float
 3151 02c0 C5F8EC30 		str	r3, [r5, #236]	@ float
 3152              		.loc 1 1076 0
 3153 02c4 D7ED007A 		vldr.32	s15, [r7]
 3154 02c8 67EEA77A 		vmul.f32	s15, s15, s15
 3155 02cc 86EEA77A 		vdiv.f32	s14, s13, s15
 3156 02d0 85ED3C7A 		vstr.32	s14, [r5, #240]
 3157              		.loc 1 1077 0
 3158 02d4 FFF7FEFF 		bl	mc_interface_set_configuration
 3159              	.LVL504:
 3160              		.loc 1 1080 0
 3161 02d8 41F28830 		movw	r0, #5000
 3162 02dc FFF7FEFF 		bl	chThdSleep
 3163              	.LVL505:
 3164              		.loc 1 1083 0
 3165 02e0 0020     		movs	r0, #0
 3166 02e2 FFF7FEFF 		bl	mcpwm_foc_stop_pwm
 3167              	.LVL506:
 3168              		.loc 1 1086 0
 3169 02e6 B0EE480A 		vmov.f32	s0, s16
 3170 02ea FFF7FEFF 		bl	mcpwm_foc_set_current
 3171              	.LVL507:
 3172              		.loc 1 1089 0
 3173 02ee 3220     		movs	r0, #50
 3174 02f0 FFF7FEFF 		bl	chThdSleep
 3175              	.LVL508:
 3176 02f4 0CE0     		b	.L258
 3177              	.LVL509:
 3178              	.L286:
 3179              	.LBB80:
 3180              	.LBB77:
 3181              		.loc 1 1099 0 discriminator 2
 3182 02f6 FFF7FEFF 		bl	mcpwm_foc_get_vq
 3183              	.LVL510:
 3184 02fa 80EE090A 		vdiv.f32	s0, s0, s18
 3185              		.loc 1 1110 0 discriminator 2
 3186 02fe 0120     		movs	r0, #1
 3187              		.loc 1 1109 0 discriminator 2
 3188 0300 38EE0C8A 		vadd.f32	s16, s16, s24
 3189              	.LVL511:
 3190              		.loc 1 1099 0 discriminator 2
 3191 0304 78EE808A 		vadd.f32	s17, s17, s0
 3192              	.LVL512:
ARM GAS  /tmp/cczU1kEP.s 			page 57


 3193              		.loc 1 1110 0 discriminator 2
 3194 0308 FFF7FEFF 		bl	chThdSleep
 3195              	.LVL513:
 3196              	.LBE77:
 3197              		.loc 1 1093 0 discriminator 2
 3198 030c 013C     		subs	r4, r4, #1
 3199              	.LVL514:
 3200 030e 0CD0     		beq	.L257
 3201              	.LVL515:
 3202              	.L258:
 3203              	.LBB78:
 3204              		.loc 1 1094 0
 3205 0310 FFF7FEFF 		bl	mcpwm_foc_get_rpm_faster
 3206              	.LVL516:
 3207 0314 20EE0A9A 		vmul.f32	s18, s0, s20
 3208              	.LVL517:
 3209              		.loc 1 1095 0
 3210 0318 FFF7FEFF 		bl	mcpwm_foc_get_duty_cycle_now
 3211              	.LVL518:
 3212 031c B0EEC00A 		vabs.f32	s0, s0
 3213 0320 B4EEE90A 		vcmpe.f32	s0, s19
 3214 0324 F1EE10FA 		vmrs	APSR_nzcv, FPSCR
 3215 0328 E5D5     		bpl	.L286
 3216              	.LVL519:
 3217              	.L257:
 3218              	.LBE78:
 3219              	.LBE80:
 3220              		.loc 1 1115 0
 3221 032a B5EEC08A 		vcmpe.f32	s16, #0
 3222 032e F1EE10FA 		vmrs	APSR_nzcv, FPSCR
 3223              		.loc 1 1113 0
 3224 0332 88ED008A 		vstr.32	s16, [r8]
 3225              		.loc 1 1115 0
 3226 0336 4FF00003 		mov	r3, #0
 3227 033a 21DD     		ble	.L276
 3228              		.loc 1 1116 0
 3229 033c C8EE887A 		vdiv.f32	s15, s17, s16
 3230              		.loc 1 1121 0
 3231 0340 0124     		movs	r4, #1
 3232              		.loc 1 1116 0
 3233 0342 C9ED007A 		vstr.32	s15, [r9]
 3234              	.LVL520:
 3235              	.L247:
 3236              	.LBE82:
 3237              		.loc 1 1124 0
 3238 0346 5946     		mov	r1, fp
 3239 0348 B0EE6B0A 		vmov.f32	s0, s23
 3240 034c 0198     		ldr	r0, [sp, #4]
 3241 034e FFF7FEFF 		bl	timeout_configure
 3242              	.LVL521:
 3243              		.loc 1 1125 0
 3244 0352 FFF7FEFF 		bl	mc_interface_unlock
 3245              	.LVL522:
 3246              		.loc 1 1126 0
 3247 0356 FFF7FEFF 		bl	mc_interface_release_motor
 3248              	.LVL523:
 3249              		.loc 1 1127 0
ARM GAS  /tmp/cczU1kEP.s 			page 58


 3250 035a B7EE000A 		vmov.f32	s0, #1.0e+0
 3251 035e FFF7FEFF 		bl	mc_interface_wait_for_motor_release
 3252              	.LVL524:
 3253              		.loc 1 1128 0
 3254 0362 3046     		mov	r0, r6
 3255 0364 FFF7FEFF 		bl	mc_interface_set_configuration
 3256              	.LVL525:
 3257              		.loc 1 1129 0
 3258 0368 2846     		mov	r0, r5
 3259 036a FFF7FEFF 		bl	mempools_free_mcconf
 3260              	.LVL526:
 3261              		.loc 1 1130 0
 3262 036e 3046     		mov	r0, r6
 3263 0370 FFF7FEFF 		bl	mempools_free_mcconf
 3264              	.LVL527:
 3265              		.loc 1 1132 0
 3266 0374 2046     		mov	r0, r4
 3267 0376 03B0     		add	sp, sp, #12
 3268              		.cfi_remember_state
 3269              		.cfi_def_cfa_offset 100
 3270              		@ sp needed
 3271 0378 BDEC108B 		vldm	sp!, {d8-d15}
 3272              		.cfi_restore 94
 3273              		.cfi_restore 95
 3274              		.cfi_restore 92
 3275              		.cfi_restore 93
 3276              		.cfi_restore 90
 3277              		.cfi_restore 91
 3278              		.cfi_restore 88
 3279              		.cfi_restore 89
 3280              		.cfi_restore 86
 3281              		.cfi_restore 87
 3282              		.cfi_restore 84
 3283              		.cfi_restore 85
 3284              		.cfi_restore 82
 3285              		.cfi_restore 83
 3286              		.cfi_restore 80
 3287              		.cfi_restore 81
 3288              		.cfi_def_cfa_offset 36
 3289              	.LVL528:
 3290 037c BDE8F08F 		pop	{r4, r5, r6, r7, r8, r9, r10, fp, pc}
 3291              	.LVL529:
 3292              	.L276:
 3293              		.cfi_restore_state
 3294              	.LBB83:
 3295              		.loc 1 1118 0
 3296 0380 C9F80030 		str	r3, [r9]	@ float
 3297              		.loc 1 1121 0
 3298 0384 0124     		movs	r4, #1
 3299 0386 DEE7     		b	.L247
 3300              	.LVL530:
 3301              	.L282:
 3302              	.LBE83:
 3303              	.LBB84:
 3304              		.loc 1 1036 0
 3305 0388 194B     		ldr	r3, .L287+40
 3306 038a 3B60     		str	r3, [r7]	@ float
ARM GAS  /tmp/cczU1kEP.s 			page 59


 3307              	.LBE84:
 3308              		.loc 1 1045 0
 3309 038c 42F21070 		movw	r0, #10000
 3310 0390 FFF7FEFF 		bl	chThdSleep
 3311              	.LVL531:
 3312              		.loc 1 946 0
 3313 0394 0024     		movs	r4, #0
 3314 0396 D6E7     		b	.L247
 3315              	.LVL532:
 3316              	.L281:
 3317              	.LBB85:
 3318              		.loc 1 1030 0
 3319 0398 4FF04043 		mov	r3, #-1073741824
 3320 039c 3B60     		str	r3, [r7]	@ float
 3321              	.LBE85:
 3322              		.loc 1 1045 0
 3323 039e 42F21070 		movw	r0, #10000
 3324 03a2 FFF7FEFF 		bl	chThdSleep
 3325              	.LVL533:
 3326              		.loc 1 946 0
 3327 03a6 0024     		movs	r4, #0
 3328 03a8 CDE7     		b	.L247
 3329              	.LVL534:
 3330              	.L280:
 3331              	.LBB86:
 3332              		.loc 1 1024 0
 3333 03aa 124B     		ldr	r3, .L287+44
 3334 03ac 3B60     		str	r3, [r7]	@ float
 3335              	.LVL535:
 3336              	.LBE86:
 3337              		.loc 1 1045 0
 3338 03ae 42F21070 		movw	r0, #10000
 3339 03b2 FFF7FEFF 		bl	chThdSleep
 3340              	.LVL536:
 3341              		.loc 1 946 0
 3342 03b6 0024     		movs	r4, #0
 3343 03b8 C5E7     		b	.L247
 3344              	.LVL537:
 3345              	.L285:
 3346              	.LBB87:
 3347              		.loc 1 1070 0
 3348 03ba FFF7FEFF 		bl	sqrtf
 3349              	.LVL538:
 3350 03be 61E7     		b	.L256
 3351              	.LVL539:
 3352              	.L284:
 3353              		.loc 1 1069 0
 3354 03c0 FFF7FEFF 		bl	sqrtf
 3355              	.LVL540:
 3356 03c4 52E7     		b	.L255
 3357              	.L288:
 3358 03c6 00BF     		.align	2
 3359              	.L287:
 3360 03c8 6F12033A 		.word	973279855
 3361 03cc 00000000 		.word	0
 3362 03d0 00004843 		.word	1128792064
 3363 03d4 00007A44 		.word	1148846080
ARM GAS  /tmp/cczU1kEP.s 			page 60


 3364 03d8 3333333F 		.word	1060320051
 3365 03dc CDCC8C3F 		.word	1066192077
 3366 03e0 00803B46 		.word	1178304512
 3367 03e4 5077D63D 		.word	1037465424
 3368 03e8 0000FA43 		.word	1140457472
 3369 03ec 0AD7A33C 		.word	1017370378
 3370 03f0 000040C0 		.word	-1069547520
 3371 03f4 000080BF 		.word	-1082130432
 3372              	.LBE87:
 3373              		.cfi_endproc
 3374              	.LFE271:
 3375              		.size	conf_general_measure_flux_linkage_openloop, .-conf_general_measure_flux_linkage_openloop
 3376              		.section	.text.conf_general_autodetect_apply_sensors_foc,"ax",%progbits
 3377              		.align	1
 3378              		.p2align 4,,15
 3379              		.global	conf_general_autodetect_apply_sensors_foc
 3380              		.syntax unified
 3381              		.thumb
 3382              		.thumb_func
 3383              		.fpu fpv4-sp-d16
 3384              		.type	conf_general_autodetect_apply_sensors_foc, %function
 3385              	conf_general_autodetect_apply_sensors_foc:
 3386              	.LFB272:
 3387              		.loc 1 1153 0
 3388              		.cfi_startproc
 3389              		@ args = 0, pretend = 0, frame = 24
 3390              		@ frame_needed = 0, uses_anonymous_args = 0
 3391              	.LVL541:
 3392 0000 2DE9F04F 		push	{r4, r5, r6, r7, r8, r9, r10, fp, lr}
 3393              		.cfi_def_cfa_offset 36
 3394              		.cfi_offset 4, -36
 3395              		.cfi_offset 5, -32
 3396              		.cfi_offset 6, -28
 3397              		.cfi_offset 7, -24
 3398              		.cfi_offset 8, -20
 3399              		.cfi_offset 9, -16
 3400              		.cfi_offset 10, -12
 3401              		.cfi_offset 11, -8
 3402              		.cfi_offset 14, -4
 3403 0004 2DED068B 		vpush.64	{d8, d9, d10}
 3404              		.cfi_def_cfa_offset 60
 3405              		.cfi_offset 80, -60
 3406              		.cfi_offset 81, -56
 3407              		.cfi_offset 82, -52
 3408              		.cfi_offset 83, -48
 3409              		.cfi_offset 84, -44
 3410              		.cfi_offset 85, -40
 3411 0008 87B0     		sub	sp, sp, #28
 3412              		.cfi_def_cfa_offset 88
 3413              		.loc 1 1153 0
 3414 000a B0EE408A 		vmov.f32	s16, s0
 3415 000e 8A46     		mov	r10, r1
 3416 0010 0746     		mov	r7, r0
 3417              		.loc 1 1156 0
 3418 0012 FFF7FEFF 		bl	mempools_alloc_mcconf
 3419              	.LVL542:
 3420 0016 0546     		mov	r5, r0
ARM GAS  /tmp/cczU1kEP.s 			page 61


 3421              	.LVL543:
 3422              		.loc 1 1157 0
 3423 0018 FFF7FEFF 		bl	mempools_alloc_mcconf
 3424              	.LVL544:
 3425 001c 0646     		mov	r6, r0
 3426              	.LVL545:
 3427              		.loc 1 1159 0
 3428 001e FFF7FEFF 		bl	mc_interface_get_configuration
 3429              	.LVL546:
 3430 0022 4FF42372 		mov	r2, #652
 3431 0026 0146     		mov	r1, r0
 3432 0028 2846     		mov	r0, r5
 3433 002a FFF7FEFF 		bl	memcpy
 3434              	.LVL547:
 3435              		.loc 1 1160 0
 3436 002e 2946     		mov	r1, r5
 3437 0030 4FF42372 		mov	r2, #652
 3438 0034 3046     		mov	r0, r6
 3439 0036 FFF7FEFF 		bl	memcpy
 3440              	.LVL548:
 3441              		.loc 1 1164 0
 3442 003a 934A     		ldr	r2, .L324
 3443 003c C5F8B020 		str	r2, [r5, #176]	@ float
 3444              		.loc 1 1162 0
 3445 0040 0220     		movs	r0, #2
 3446              		.loc 1 1163 0
 3447 0042 0021     		movs	r1, #0
 3448              		.loc 1 1165 0
 3449 0044 4FF07E53 		mov	r3, #1065353216
 3450              		.loc 1 1162 0
 3451 0048 85F88600 		strb	r0, [r5, #134]
 3452              		.loc 1 1163 0
 3453 004c 85F82C11 		strb	r1, [r5, #300]
 3454              		.loc 1 1165 0
 3455 0050 C5F8B430 		str	r3, [r5, #180]	@ float
 3456              		.loc 1 1166 0
 3457 0054 2846     		mov	r0, r5
 3458 0056 FFF7FEFF 		bl	mc_interface_set_configuration
 3459              	.LVL549:
 3460 005a 4FF4FA74 		mov	r4, #500
 3461 005e 04E0     		b	.L291
 3462              	.LVL550:
 3463              	.L319:
 3464              	.LBB88:
 3465              		.loc 1 1173 0 discriminator 2
 3466 0060 6420     		movs	r0, #100
 3467 0062 FFF7FEFF 		bl	chThdSleep
 3468              	.LVL551:
 3469              		.loc 1 1169 0 discriminator 2
 3470 0066 013C     		subs	r4, r4, #1
 3471              	.LVL552:
 3472 0068 03D0     		beq	.L290
 3473              	.LVL553:
 3474              	.L291:
 3475              		.loc 1 1170 0
 3476 006a FFF7FEFF 		bl	mc_interface_get_fault
 3477              	.LVL554:
ARM GAS  /tmp/cczU1kEP.s 			page 62


 3478 006e 0028     		cmp	r0, #0
 3479 0070 F6D1     		bne	.L319
 3480              	.LVL555:
 3481              	.L290:
 3482              	.LBE88:
 3483              		.loc 1 1176 0
 3484 0072 FFF7FEFF 		bl	mc_interface_get_fault
 3485              	.LVL556:
 3486 0076 8346     		mov	fp, r0
 3487 0078 0028     		cmp	r0, #0
 3488 007a 40F0F980 		bne	.L320
 3489              		.loc 1 1185 0
 3490 007e 42F21070 		movw	r0, #10000
 3491 0082 FFF7FEFF 		bl	chThdSleep
 3492              	.LVL557:
 3493              		.loc 1 1188 0
 3494 0086 FFF7FEFF 		bl	timeout_get_timeout_msec
 3495              	.LVL558:
 3496 008a 8046     		mov	r8, r0
 3497              	.LVL559:
 3498              		.loc 1 1189 0
 3499 008c FFF7FEFF 		bl	timeout_get_brake_current
 3500              	.LVL560:
 3501 0090 B0EE40AA 		vmov.f32	s20, s0
 3502              	.LVL561:
 3503              		.loc 1 1190 0
 3504 0094 FFF7FEFF 		bl	timeout_get_kill_sw_mode
 3505              	.LVL562:
 3506 0098 8146     		mov	r9, r0
 3507              	.LVL563:
 3508              		.loc 1 1191 0
 3509 009a FFF7FEFF 		bl	timeout_reset
 3510              	.LVL564:
 3511              		.loc 1 1192 0
 3512 009e 5946     		mov	r1, fp
 3513 00a0 9FED7A0A 		vldr.32	s0, .L324+4
 3514 00a4 4EF66020 		movw	r0, #60000
 3515 00a8 FFF7FEFF 		bl	timeout_configure
 3516              	.LVL565:
 3517              		.loc 1 1194 0
 3518 00ac FFF7FEFF 		bl	mc_interface_lock
 3519              	.LVL566:
 3520              		.loc 1 1198 0
 3521 00b0 2846     		mov	r0, r5
 3522              		.loc 1 1197 0
 3523 00b2 85F828B2 		strb	fp, [r5, #552]
 3524              		.loc 1 1198 0
 3525 00b6 FFF7FEFF 		bl	mc_interface_set_configuration
 3526              	.LVL567:
 3527              		.loc 1 1201 0
 3528 00ba B0EE480A 		vmov.f32	s0, s16
 3529 00be 04A8     		add	r0, sp, #16
 3530 00c0 FFF7FEFF 		bl	mcpwm_foc_hall_detect
 3531              	.LVL568:
 3532 00c4 0446     		mov	r4, r0
 3533              	.LVL569:
 3534              		.loc 1 1204 0
ARM GAS  /tmp/cczU1kEP.s 			page 63


 3535 00c6 FFF7FEFF 		bl	mc_interface_lock
 3536              	.LVL570:
 3537              		.loc 1 1208 0
 3538 00ca 0223     		movs	r3, #2
 3539              		.loc 1 1206 0
 3540 00cc A4B3     		cbz	r4, .L294
 3541              		.loc 1 1208 0
 3542 00ce 86F82C31 		strb	r3, [r6, #300]
 3543              	.LVL571:
 3544              		.loc 1 1207 0
 3545 00d2 86F828B2 		strb	fp, [r6, #552]
 3546 00d6 0DF10F02 		add	r2, sp, #15
 3547 00da 06F22D13 		addw	r3, r6, #301
 3548 00de 06F23510 		addw	r0, r6, #309
 3549              	.LVL572:
 3550              	.L295:
 3551              	.LBB89:
 3552              		.loc 1 1210 0 discriminator 3
 3553 00e2 12F8011F 		ldrb	r1, [r2, #1]!	@ zero_extendqisi2
 3554              	.LVL573:
 3555 00e6 03F8011B 		strb	r1, [r3], #1
 3556              	.LVL574:
 3557              		.loc 1 1209 0 discriminator 3
 3558 00ea 9842     		cmp	r0, r3
 3559 00ec F9D1     		bne	.L295
 3560              	.LBE89:
 3561              		.loc 1 1213 0
 3562 00ee 0124     		movs	r4, #1
 3563              	.LVL575:
 3564              	.L296:
 3565              		.loc 1 1267 0
 3566 00f0 4946     		mov	r1, r9
 3567 00f2 B0EE4A0A 		vmov.f32	s0, s20
 3568 00f6 4046     		mov	r0, r8
 3569 00f8 FFF7FEFF 		bl	timeout_configure
 3570              	.LVL576:
 3571              		.loc 1 1268 0
 3572 00fc FFF7FEFF 		bl	mc_interface_unlock
 3573              	.LVL577:
 3574              		.loc 1 1269 0
 3575 0100 FFF7FEFF 		bl	mc_interface_release_motor
 3576              	.LVL578:
 3577              		.loc 1 1270 0
 3578 0104 B7EE000A 		vmov.f32	s0, #1.0e+0
 3579 0108 FFF7FEFF 		bl	mc_interface_wait_for_motor_release
 3580              	.LVL579:
 3581              		.loc 1 1271 0
 3582 010c 3046     		mov	r0, r6
 3583 010e FFF7FEFF 		bl	mc_interface_set_configuration
 3584              	.LVL580:
 3585              		.loc 1 1275 0
 3586 0112 002F     		cmp	r7, #0
 3587 0114 40F09980 		bne	.L321
 3588              		.loc 1 1280 0
 3589 0118 BAF1000F 		cmp	r10, #0
 3590 011c 40F0A380 		bne	.L322
 3591              	.L304:
ARM GAS  /tmp/cczU1kEP.s 			page 64


 3592              		.loc 1 1285 0
 3593 0120 2846     		mov	r0, r5
 3594 0122 FFF7FEFF 		bl	mempools_free_mcconf
 3595              	.LVL581:
 3596              		.loc 1 1286 0
 3597 0126 3046     		mov	r0, r6
 3598 0128 FFF7FEFF 		bl	mempools_free_mcconf
 3599              	.LVL582:
 3600              	.L289:
 3601              		.loc 1 1289 0
 3602 012c 2046     		mov	r0, r4
 3603 012e 07B0     		add	sp, sp, #28
 3604              		.cfi_remember_state
 3605              		.cfi_def_cfa_offset 60
 3606              		@ sp needed
 3607 0130 BDEC068B 		vldm	sp!, {d8-d10}
 3608              		.cfi_restore 84
 3609              		.cfi_restore 85
 3610              		.cfi_restore 82
 3611              		.cfi_restore 83
 3612              		.cfi_restore 80
 3613              		.cfi_restore 81
 3614              		.cfi_def_cfa_offset 36
 3615              	.LVL583:
 3616 0134 BDE8F08F 		pop	{r4, r5, r6, r7, r8, r9, r10, fp, pc}
 3617              	.LVL584:
 3618              	.L294:
 3619              		.cfi_restore_state
 3620              	.LBB90:
 3621              		.loc 1 1219 0
 3622 0138 85F82832 		strb	r3, [r5, #552]
 3623              		.loc 1 1220 0
 3624 013c 2846     		mov	r0, r5
 3625 013e FFF7FEFF 		bl	mc_interface_set_configuration
 3626              	.LVL585:
 3627              	.LBB91:
 3628              		.loc 1 1223 0
 3629 0142 9FED539A 		vldr.32	s18, .L324+8
 3630 0146 DFED518A 		vldr.32	s17, .L324+4
 3631              	.LVL586:
 3632              	.L297:
 3633              		.loc 1 1223 0 is_stmt 0 discriminator 3
 3634 014a 07EE904A 		vmov	s15, r4	@ int
 3635 014e B8EEE70A 		vcvt.f32.s32	s0, s15
 3636 0152 F0EE680A 		vmov.f32	s1, s17
 3637 0156 20EE080A 		vmul.f32	s0, s0, s16
 3638              		.loc 1 1222 0 is_stmt 1 discriminator 3
 3639 015a 0134     		adds	r4, r4, #1
 3640              	.LVL587:
 3641              		.loc 1 1223 0 discriminator 3
 3642 015c 80EE090A 		vdiv.f32	s0, s0, s18
 3643 0160 FFF7FEFF 		bl	mcpwm_foc_set_openloop_phase
 3644              	.LVL588:
 3645              		.loc 1 1224 0 discriminator 3
 3646 0164 0A20     		movs	r0, #10
 3647 0166 FFF7FEFF 		bl	chThdSleep
 3648              	.LVL589:
ARM GAS  /tmp/cczU1kEP.s 			page 65


 3649              		.loc 1 1222 0 discriminator 3
 3650 016a B4F57A7F 		cmp	r4, #1000
 3651 016e ECD1     		bne	.L297
 3652              	.LBE91:
 3653              		.loc 1 1227 0
 3654 0170 FFF7FEFF 		bl	encoder_read_deg
 3655              	.LVL590:
 3656              		.loc 1 1228 0
 3657 0174 9FED459A 		vldr.32	s18, .L324+4
 3658              	.LBB92:
 3659              		.loc 1 1231 0
 3660 0178 DFED468A 		vldr.32	s17, .L324+12
 3661 017c DFED469A 		vldr.32	s19, .L324+16
 3662              	.LBE92:
 3663              		.loc 1 1227 0
 3664 0180 F0EE40AA 		vmov.f32	s21, s0
 3665              	.LVL591:
 3666              	.LBB93:
 3667              		.loc 1 1231 0
 3668 0184 F0EE490A 		vmov.f32	s1, s18
 3669 0188 0024     		movs	r4, #0
 3670              	.LVL592:
 3671              	.L298:
 3672              		.loc 1 1232 0
 3673 018a B0EE480A 		vmov.f32	s0, s16
 3674 018e FFF7FEFF 		bl	mcpwm_foc_set_openloop_phase
 3675              	.LVL593:
 3676 0192 0134     		adds	r4, r4, #1
 3677              	.LVL594:
 3678              		.loc 1 1233 0
 3679 0194 3220     		movs	r0, #50
 3680 0196 FFF7FEFF 		bl	chThdSleep
 3681              	.LVL595:
 3682              		.loc 1 1235 0
 3683 019a 5B2C     		cmp	r4, #91
 3684 019c 4ED0     		beq	.L323
 3685              		.loc 1 1231 0 discriminator 2
 3686 019e 07EE904A 		vmov	s15, r4	@ int
 3687 01a2 F8EEE70A 		vcvt.f32.s32	s1, s15
 3688 01a6 F4EEE80A 		vcmpe.f32	s1, s17
 3689 01aa F1EE10FA 		vmrs	APSR_nzcv, FPSCR
 3690 01ae ECD4     		bmi	.L298
 3691              	.LBE93:
 3692              		.loc 1 1240 0
 3693 01b0 FFF7FEFF 		bl	encoder_read_deg
 3694              	.LVL596:
 3695 01b4 F0EE408A 		vmov.f32	s17, s0
 3696              	.LVL597:
 3697              		.loc 1 1241 0
 3698 01b8 F0EE400A 		vmov.f32	s1, s0
 3699 01bc B0EE6A0A 		vmov.f32	s0, s21
 3700              	.LVL598:
 3701 01c0 FFF7FEFF 		bl	utils_angle_difference
 3702              	.LVL599:
 3703              		.loc 1 1242 0
 3704 01c4 F0EE680A 		vmov.f32	s1, s17
 3705              		.loc 1 1241 0
ARM GAS  /tmp/cczU1kEP.s 			page 66


 3706 01c8 F0EEC08A 		vabs.f32	s17, s0
 3707              	.LVL600:
 3708              		.loc 1 1242 0
 3709 01cc B0EE490A 		vmov.f32	s0, s18
 3710 01d0 FFF7FEFF 		bl	utils_angle_difference
 3711              	.LVL601:
 3712              		.loc 1 1244 0
 3713 01d4 F0EE007A 		vmov.f32	s15, #2.0e+0
 3714 01d8 F4EEE78A 		vcmpe.f32	s17, s15
 3715 01dc F1EE10FA 		vmrs	APSR_nzcv, FPSCR
 3716 01e0 28DD     		ble	.L301
 3717              		.loc 1 1244 0 is_stmt 0 discriminator 1
 3718 01e2 F6EE007A 		vmov.f32	s15, #5.0e-1
 3719              		.loc 1 1242 0 is_stmt 1 discriminator 1
 3720 01e6 B0EEC00A 		vabs.f32	s0, s0
 3721              	.LVL602:
 3722              		.loc 1 1244 0 discriminator 1
 3723 01ea A8EEE70A 		vfms.f32	s0, s17, s15
 3724              	.LVL603:
 3725 01ee F5EE007A 		vmov.f32	s15, #2.5e-1
 3726 01f2 68EEA78A 		vmul.f32	s17, s17, s15
 3727              	.LVL604:
 3728 01f6 B4EEE80A 		vcmpe.f32	s0, s17
 3729 01fa F1EE10FA 		vmrs	APSR_nzcv, FPSCR
 3730 01fe 19D5     		bpl	.L301
 3731              	.LBB94:
 3732              		.loc 1 1247 0
 3733 0200 0DF10703 		add	r3, sp, #7
 3734 0204 03AA     		add	r2, sp, #12
 3735 0206 02A9     		add	r1, sp, #8
 3736 0208 B0EE480A 		vmov.f32	s0, s16
 3737 020c 0020     		movs	r0, #0
 3738 020e FFF7FEFF 		bl	mcpwm_foc_encoder_detect
 3739              	.LVL605:
 3740              		.loc 1 1250 0
 3741 0212 029A     		ldr	r2, [sp, #8]	@ float
 3742              		.loc 1 1251 0
 3743 0214 0399     		ldr	r1, [sp, #12]	@ float
 3744              		.loc 1 1252 0
 3745 0216 9DF80730 		ldrb	r3, [sp, #7]	@ zero_extendqisi2
 3746              		.loc 1 1250 0
 3747 021a C6F8C020 		str	r2, [r6, #192]	@ float
 3748              		.loc 1 1248 0
 3749 021e 0224     		movs	r4, #2
 3750              	.LVL606:
 3751              		.loc 1 1249 0
 3752 0220 0122     		movs	r2, #1
 3753              		.loc 1 1251 0
 3754 0222 C6F8C810 		str	r1, [r6, #200]	@ float
 3755              		.loc 1 1248 0
 3756 0226 86F82842 		strb	r4, [r6, #552]
 3757              		.loc 1 1249 0
 3758 022a 86F82C21 		strb	r2, [r6, #300]
 3759              		.loc 1 1252 0
 3760 022e 86F8C430 		strb	r3, [r6, #196]
 3761              	.LVL607:
 3762 0232 5DE7     		b	.L296
ARM GAS  /tmp/cczU1kEP.s 			page 67


 3763              	.LVL608:
 3764              	.L301:
 3765              	.LBE94:
 3766              	.LBE90:
 3767              		.loc 1 1262 0
 3768 0234 0024     		movs	r4, #0
 3769              	.LVL609:
 3770 0236 86F82C41 		strb	r4, [r6, #300]
 3771              	.LVL610:
 3772 023a 59E7     		b	.L296
 3773              	.LVL611:
 3774              	.L323:
 3775              	.LBB96:
 3776              	.LBB95:
 3777              		.loc 1 1236 0
 3778 023c FFF7FEFF 		bl	encoder_read_deg
 3779              	.LVL612:
 3780              		.loc 1 1231 0
 3781 0240 F0EE690A 		vmov.f32	s1, s19
 3782              		.loc 1 1236 0
 3783 0244 B0EE409A 		vmov.f32	s18, s0
 3784              	.LVL613:
 3785 0248 9FE7     		b	.L298
 3786              	.LVL614:
 3787              	.L321:
 3788              	.LBE95:
 3789              	.LBE96:
 3790              		.loc 1 1277 0
 3791 024a FFF7FEFF 		bl	mc_interface_get_motor_thread
 3792              	.LVL615:
 3793              		.loc 1 1276 0
 3794 024e A0F10201 		sub	r1, r0, #2
 3795 0252 B1FA81F1 		clz	r1, r1
 3796 0256 4909     		lsrs	r1, r1, #5
 3797 0258 3046     		mov	r0, r6
 3798 025a FFF7FEFF 		bl	conf_general_store_mc_configuration
 3799              	.LVL616:
 3800              		.loc 1 1280 0
 3801 025e BAF1000F 		cmp	r10, #0
 3802 0262 3FF45DAF 		beq	.L304
 3803              	.L322:
 3804              		.loc 1 1281 0
 3805 0266 3146     		mov	r1, r6
 3806 0268 0E20     		movs	r0, #14
 3807 026a FFF7FEFF 		bl	commands_send_mcconf
 3808              	.LVL617:
 3809 026e 57E7     		b	.L304
 3810              	.LVL618:
 3811              	.L320:
 3812              		.loc 1 1177 0
 3813 0270 3046     		mov	r0, r6
 3814 0272 FFF7FEFF 		bl	mc_interface_set_configuration
 3815              	.LVL619:
 3816              		.loc 1 1178 0
 3817 0276 2846     		mov	r0, r5
 3818 0278 FFF7FEFF 		bl	mempools_free_mcconf
 3819              	.LVL620:
ARM GAS  /tmp/cczU1kEP.s 			page 68


 3820              		.loc 1 1179 0
 3821 027c 3046     		mov	r0, r6
 3822 027e FFF7FEFF 		bl	mempools_free_mcconf
 3823              	.LVL621:
 3824              		.loc 1 1180 0
 3825 0282 4FF0FF34 		mov	r4, #-1
 3826 0286 51E7     		b	.L289
 3827              	.L325:
 3828              		.align	2
 3829              	.L324:
 3830 0288 6F12033A 		.word	973279855
 3831 028c 00000000 		.word	0
 3832 0290 00007A44 		.word	1148846080
 3833 0294 00003443 		.word	1127481344
 3834 0298 0000B642 		.word	1119223808
 3835              		.cfi_endproc
 3836              	.LFE272:
 3837              		.size	conf_general_autodetect_apply_sensors_foc, .-conf_general_autodetect_apply_sensors_foc
 3838              		.section	.text.conf_general_calc_apply_foc_cc_kp_ki_gain,"ax",%progbits
 3839              		.align	1
 3840              		.p2align 4,,15
 3841              		.global	conf_general_calc_apply_foc_cc_kp_ki_gain
 3842              		.syntax unified
 3843              		.thumb
 3844              		.thumb_func
 3845              		.fpu fpv4-sp-d16
 3846              		.type	conf_general_calc_apply_foc_cc_kp_ki_gain, %function
 3847              	conf_general_calc_apply_foc_cc_kp_ki_gain:
 3848              	.LFB273:
 3849              		.loc 1 1291 0
 3850              		.cfi_startproc
 3851              		@ args = 0, pretend = 0, frame = 0
 3852              		@ frame_needed = 0, uses_anonymous_args = 0
 3853              		@ link register save eliminated.
 3854              	.LVL622:
 3855              		.loc 1 1296 0
 3856 0000 DFED116A 		vldr.32	s13, .L327
 3857              		.loc 1 1294 0
 3858 0004 90ED3B7A 		vldr.32	s14, [r0, #236]
 3859              	.LVL623:
 3860              		.loc 1 1299 0
 3861 0008 DFED104A 		vldr.32	s9, .L327+4
 3862              		.loc 1 1297 0
 3863 000c 90ED386A 		vldr.32	s12, [r0, #224]
 3864              		.loc 1 1298 0
 3865 0010 90ED3A5A 		vldr.32	s10, [r0, #232]
 3866              		.loc 1 1304 0
 3867 0014 DFED0E5A 		vldr.32	s11, .L327+8
 3868              		.loc 1 1296 0
 3869 0018 20EE260A 		vmul.f32	s0, s0, s13
 3870              	.LVL624:
 3871              		.loc 1 1299 0
 3872 001c 27EE077A 		vmul.f32	s14, s14, s14
 3873              	.LVL625:
 3874              		.loc 1 1296 0
 3875 0020 F7EE006A 		vmov.f32	s13, #1.0e+0
 3876 0024 C6EE807A 		vdiv.f32	s15, s13, s0
ARM GAS  /tmp/cczU1kEP.s 			page 69


 3877              	.LVL626:
 3878              		.loc 1 1299 0
 3879 0028 C4EE876A 		vdiv.f32	s13, s9, s14
 3880              		.loc 1 1297 0
 3881 002c 26EE276A 		vmul.f32	s12, s12, s15
 3882              	.LVL627:
 3883              		.loc 1 1304 0
 3884 0030 26EEA57A 		vmul.f32	s14, s13, s11
 3885              		.loc 1 1298 0
 3886 0034 67EE857A 		vmul.f32	s15, s15, s10
 3887              	.LVL628:
 3888              		.loc 1 1302 0
 3889 0038 80ED2C6A 		vstr.32	s12, [r0, #176]
 3890              		.loc 1 1303 0
 3891 003c C0ED2D7A 		vstr.32	s15, [r0, #180]
 3892              		.loc 1 1304 0
 3893 0040 80ED3C7A 		vstr.32	s14, [r0, #240]
 3894              		.loc 1 1305 0
 3895 0044 7047     		bx	lr
 3896              	.L328:
 3897 0046 00BF     		.align	2
 3898              	.L327:
 3899 0048 BD378635 		.word	897988541
 3900 004c 6F12833A 		.word	981668463
 3901 0050 00247449 		.word	1232348160
 3902              		.cfi_endproc
 3903              	.LFE273:
 3904              		.size	conf_general_calc_apply_foc_cc_kp_ki_gain, .-conf_general_calc_apply_foc_cc_kp_ki_gain
 3905              		.section	.text.conf_general_detect_apply_all_foc,"ax",%progbits
 3906              		.align	1
 3907              		.p2align 4,,15
 3908              		.global	conf_general_detect_apply_all_foc
 3909              		.syntax unified
 3910              		.thumb
 3911              		.thumb_func
 3912              		.fpu fpv4-sp-d16
 3913              		.type	conf_general_detect_apply_all_foc, %function
 3914              	conf_general_detect_apply_all_foc:
 3915              	.LFB277:
 3916              		.loc 1 1496 0
 3917              		.cfi_startproc
 3918              		@ args = 0, pretend = 0, frame = 32
 3919              		@ frame_needed = 0, uses_anonymous_args = 0
 3920              	.LVL629:
 3921 0000 2DE9F04F 		push	{r4, r5, r6, r7, r8, r9, r10, fp, lr}
 3922              		.cfi_def_cfa_offset 36
 3923              		.cfi_offset 4, -36
 3924              		.cfi_offset 5, -32
 3925              		.cfi_offset 6, -28
 3926              		.cfi_offset 7, -24
 3927              		.cfi_offset 8, -20
 3928              		.cfi_offset 9, -16
 3929              		.cfi_offset 10, -12
 3930              		.cfi_offset 11, -8
 3931              		.cfi_offset 14, -4
 3932 0004 2DED088B 		vpush.64	{d8, d9, d10, d11}
 3933              		.cfi_def_cfa_offset 68
ARM GAS  /tmp/cczU1kEP.s 			page 70


 3934              		.cfi_offset 80, -68
 3935              		.cfi_offset 81, -64
 3936              		.cfi_offset 82, -60
 3937              		.cfi_offset 83, -56
 3938              		.cfi_offset 84, -52
 3939              		.cfi_offset 85, -48
 3940              		.cfi_offset 86, -44
 3941              		.cfi_offset 87, -40
 3942 0008 89B0     		sub	sp, sp, #36
 3943              		.cfi_def_cfa_offset 104
 3944              		.loc 1 1496 0
 3945 000a B0EE40AA 		vmov.f32	s20, s0
 3946 000e 8B46     		mov	fp, r1
 3947 0010 8246     		mov	r10, r0
 3948              		.loc 1 1499 0
 3949 0012 FFF7FEFF 		bl	mc_interface_get_motor_thread
 3950              	.LVL630:
 3951 0016 0746     		mov	r7, r0
 3952              	.LVL631:
 3953              		.loc 1 1500 0
 3954 0018 0120     		movs	r0, #1
 3955              	.LVL632:
 3956 001a FFF7FEFF 		bl	mc_interface_select_motor_thread
 3957              	.LVL633:
 3958              		.loc 1 1502 0
 3959 001e FFF7FEFF 		bl	mempools_alloc_mcconf
 3960              	.LVL634:
 3961 0022 0446     		mov	r4, r0
 3962              	.LVL635:
 3963              		.loc 1 1503 0
 3964 0024 FFF7FEFF 		bl	mempools_alloc_mcconf
 3965              	.LVL636:
 3966 0028 0546     		mov	r5, r0
 3967              	.LVL637:
 3968              		.loc 1 1505 0
 3969 002a FFF7FEFF 		bl	mc_interface_get_configuration
 3970              	.LVL638:
 3971 002e 4FF42372 		mov	r2, #652
 3972 0032 0146     		mov	r1, r0
 3973 0034 2046     		mov	r0, r4
 3974 0036 FFF7FEFF 		bl	memcpy
 3975              	.LVL639:
 3976              		.loc 1 1506 0
 3977 003a 2146     		mov	r1, r4
 3978 003c 4FF42372 		mov	r2, #652
 3979 0040 2846     		mov	r0, r5
 3980 0042 FFF7FEFF 		bl	memcpy
 3981              	.LVL640:
 3982              		.loc 1 1519 0
 3983 0046 C04B     		ldr	r3, .L372
 3984 0048 C4F8B830 		str	r3, [r4, #184]	@ float
 3985              		.loc 1 1517 0
 3986 004c 0223     		movs	r3, #2
 3987 004e 84F88630 		strb	r3, [r4, #134]
 3988              		.loc 1 1518 0
 3989 0052 0023     		movs	r3, #0
 3990              		.loc 1 1520 0
ARM GAS  /tmp/cczU1kEP.s 			page 71


 3991 0054 BD48     		ldr	r0, .L372+4
 3992              		.loc 1 1522 0
 3993 0056 BE49     		ldr	r1, .L372+8
 3994              		.loc 1 1523 0
 3995 0058 BE4A     		ldr	r2, .L372+12
 3996              		.loc 1 1518 0
 3997 005a 84F82C31 		strb	r3, [r4, #300]
 3998              		.loc 1 1526 0
 3999 005e BE4B     		ldr	r3, .L372+16
 4000              		.loc 1 1520 0
 4001 0060 C4F8B000 		str	r0, [r4, #176]	@ float
 4002              		.loc 1 1522 0
 4003 0064 2160     		str	r1, [r4]	@ float
 4004              		.loc 1 1527 0
 4005 0066 BD48     		ldr	r0, .L372+20
 4006              		.loc 1 1528 0
 4007 0068 BD49     		ldr	r1, .L372+24
 4008              		.loc 1 1523 0
 4009 006a 6260     		str	r2, [r4, #4]	@ float
 4010              		.loc 1 1526 0
 4011 006c A365     		str	r3, [r4, #88]	@ float
 4012              		.loc 1 1529 0
 4013 006e BD4A     		ldr	r2, .L372+28
 4014              		.loc 1 1527 0
 4015 0070 E065     		str	r0, [r4, #92]	@ float
 4016              		.loc 1 1521 0
 4017 0072 4FF07E53 		mov	r3, #1065353216
 4018              		.loc 1 1528 0
 4019 0076 A161     		str	r1, [r4, #24]	@ float
 4020              		.loc 1 1529 0
 4021 0078 6261     		str	r2, [r4, #20]	@ float
 4022              		.loc 1 1521 0
 4023 007a C4F8B430 		str	r3, [r4, #180]	@ float
 4024              		.loc 1 1524 0
 4025 007e 2366     		str	r3, [r4, #96]	@ float
 4026              		.loc 1 1525 0
 4027 0080 6366     		str	r3, [r4, #100]	@ float
 4028              		.loc 1 1530 0
 4029 0082 2046     		mov	r0, r4
 4030 0084 FFF7FEFF 		bl	mc_interface_set_configuration
 4031              	.LVL641:
 4032              	.LBB112:
 4033              	.LBB113:
 4034              		.loc 1 1352 0
 4035 0088 FFF7FEFF 		bl	mc_interface_get_motor_thread
 4036              	.LVL642:
 4037 008c 4FF4FA76 		mov	r6, #500
 4038 0090 8046     		mov	r8, r0
 4039              	.LVL643:
 4040              	.L332:
 4041              	.LBB114:
 4042              	.LBB115:
 4043              		.loc 1 1355 0
 4044 0092 0120     		movs	r0, #1
 4045 0094 FFF7FEFF 		bl	mc_interface_select_motor_thread
 4046              	.LVL644:
 4047              		.loc 1 1356 0
ARM GAS  /tmp/cczU1kEP.s 			page 72


 4048 0098 FFF7FEFF 		bl	mc_interface_get_fault
 4049              	.LVL645:
 4050 009c 8146     		mov	r9, r0
 4051              	.LVL646:
 4052              		.loc 1 1357 0
 4053 009e 0220     		movs	r0, #2
 4054 00a0 FFF7FEFF 		bl	mc_interface_select_motor_thread
 4055              	.LVL647:
 4056              		.loc 1 1358 0
 4057 00a4 FFF7FEFF 		bl	mc_interface_get_fault
 4058              	.LVL648:
 4059 00a8 0346     		mov	r3, r0
 4060              	.LVL649:
 4061              		.loc 1 1364 0
 4062 00aa 6420     		movs	r0, #100
 4063              		.loc 1 1360 0
 4064 00ac B9F1000F 		cmp	r9, #0
 4065 00b0 00D1     		bne	.L330
 4066 00b2 1BB1     		cbz	r3, .L331
 4067              	.L330:
 4068              		.loc 1 1364 0
 4069 00b4 FFF7FEFF 		bl	chThdSleep
 4070              	.LVL650:
 4071              	.LBE115:
 4072              		.loc 1 1354 0
 4073 00b8 013E     		subs	r6, r6, #1
 4074              	.LVL651:
 4075 00ba EAD1     		bne	.L332
 4076              	.LVL652:
 4077              	.L331:
 4078              	.LBE114:
 4079              		.loc 1 1367 0
 4080 00bc 0120     		movs	r0, #1
 4081 00be FFF7FEFF 		bl	mc_interface_select_motor_thread
 4082              	.LVL653:
 4083              		.loc 1 1368 0
 4084 00c2 FFF7FEFF 		bl	mc_interface_get_fault
 4085              	.LVL654:
 4086 00c6 8146     		mov	r9, r0
 4087              	.LVL655:
 4088              		.loc 1 1369 0
 4089 00c8 0220     		movs	r0, #2
 4090 00ca FFF7FEFF 		bl	mc_interface_select_motor_thread
 4091              	.LVL656:
 4092              		.loc 1 1370 0
 4093 00ce FFF7FEFF 		bl	mc_interface_get_fault
 4094              	.LVL657:
 4095 00d2 0646     		mov	r6, r0
 4096              	.LVL658:
 4097              		.loc 1 1372 0
 4098 00d4 4046     		mov	r0, r8
 4099 00d6 FFF7FEFF 		bl	mc_interface_select_motor_thread
 4100              	.LVL659:
 4101              		.loc 1 1374 0
 4102 00da B9F1000F 		cmp	r9, #0
 4103 00de 00D1     		bne	.L333
 4104 00e0 9EB1     		cbz	r6, .L367
ARM GAS  /tmp/cczU1kEP.s 			page 73


 4105              	.L333:
 4106              	.LVL660:
 4107              	.LBE113:
 4108              	.LBE112:
 4109              		.loc 1 1554 0
 4110 00e2 2846     		mov	r0, r5
 4111 00e4 FFF7FEFF 		bl	mc_interface_set_configuration
 4112              	.LVL661:
 4113              		.loc 1 1555 0
 4114 00e8 2046     		mov	r0, r4
 4115 00ea FFF7FEFF 		bl	mempools_free_mcconf
 4116              	.LVL662:
 4117              		.loc 1 1556 0
 4118 00ee 2846     		mov	r0, r5
 4119 00f0 FFF7FEFF 		bl	mempools_free_mcconf
 4120              	.LVL663:
 4121              		.loc 1 1564 0
 4122 00f4 3846     		mov	r0, r7
 4123 00f6 FFF7FEFF 		bl	mc_interface_select_motor_thread
 4124              	.LVL664:
 4125              		.loc 1 1565 0
 4126 00fa 4FF0FF36 		mov	r6, #-1
 4127              		.loc 1 1768 0
 4128 00fe 3046     		mov	r0, r6
 4129 0100 09B0     		add	sp, sp, #36
 4130              		.cfi_remember_state
 4131              		.cfi_def_cfa_offset 68
 4132              		@ sp needed
 4133 0102 BDEC088B 		vldm	sp!, {d8-d11}
 4134              		.cfi_restore 86
 4135              		.cfi_restore 87
 4136              		.cfi_restore 84
 4137              		.cfi_restore 85
 4138              		.cfi_restore 82
 4139              		.cfi_restore 83
 4140              		.cfi_restore 80
 4141              		.cfi_restore 81
 4142              		.cfi_def_cfa_offset 36
 4143              	.LVL665:
 4144 0106 BDE8F08F 		pop	{r4, r5, r6, r7, r8, r9, r10, fp, pc}
 4145              	.LVL666:
 4146              	.L367:
 4147              		.cfi_restore_state
 4148              		.loc 1 1570 0
 4149 010a 42F21070 		movw	r0, #10000
 4150 010e FFF7FEFF 		bl	chThdSleep
 4151              	.LVL667:
 4152              		.loc 1 1573 0
 4153 0112 FFF7FEFF 		bl	timeout_get_timeout_msec
 4154              	.LVL668:
 4155 0116 8046     		mov	r8, r0
 4156              	.LVL669:
 4157              		.loc 1 1574 0
 4158 0118 FFF7FEFF 		bl	timeout_get_brake_current
 4159              	.LVL670:
 4160 011c F0EE40AA 		vmov.f32	s21, s0
 4161              	.LVL671:
ARM GAS  /tmp/cczU1kEP.s 			page 74


 4162              		.loc 1 1575 0
 4163 0120 FFF7FEFF 		bl	timeout_get_kill_sw_mode
 4164              	.LVL672:
 4165              		.loc 1 1577 0
 4166 0124 DFED908A 		vldr.32	s17, .L372+32
 4167              		.loc 1 1575 0
 4168 0128 8146     		mov	r9, r0
 4169              	.LVL673:
 4170              		.loc 1 1576 0
 4171 012a FFF7FEFF 		bl	timeout_reset
 4172              	.LVL674:
 4173              		.loc 1 1577 0
 4174 012e 3146     		mov	r1, r6
 4175 0130 B0EE680A 		vmov.f32	s0, s17
 4176 0134 4EF66020 		movw	r0, #60000
 4177 0138 FFF7FEFF 		bl	timeout_configure
 4178              	.LVL675:
 4179              		.loc 1 1579 0
 4180 013c FFF7FEFF 		bl	mc_interface_lock
 4181              	.LVL676:
 4182              		.loc 1 1600 0
 4183 0140 D4ED009A 		vldr.32	s19, [r4]
 4184              	.LVL677:
 4185              	.LBB116:
 4186              	.LBB117:
 4187              		.loc 1 1309 0
 4188 0144 DFED896A 		vldr.32	s13, .L372+36
 4189              		.loc 1 1310 0
 4190 0148 9FED897A 		vldr.32	s14, .L372+40
 4191 014c D4ED837A 		vldr.32	s15, [r4, #524]
 4192              	.LBE117:
 4193              	.LBE116:
 4194              		.loc 1 1599 0
 4195 0150 CDED048A 		vstr.32	s17, [sp, #16]
 4196              	.LBB126:
 4197              	.LBB123:
 4198              		.loc 1 1309 0
 4199 0154 89EEA68A 		vdiv.f32	s16, s19, s13
 4200              	.LVL678:
 4201              		.loc 1 1310 0
 4202 0158 67EE877A 		vmul.f32	s15, s15, s14
 4203              		.loc 1 1311 0
 4204 015c B4EE678A 		vcmp.f32	s16, s15
 4205 0160 F1EE10FA 		vmrs	APSR_nzcv, FPSCR
 4206 0164 48BF     		it	mi
 4207 0166 B0EE678A 		vmovmi.f32	s16, s15
 4208              	.LVL679:
 4209              		.loc 1 1314 0
 4210 016a FFF7FEFF 		bl	mempools_alloc_mcconf
 4211              	.LVL680:
 4212 016e 0646     		mov	r6, r0
 4213              	.LVL681:
 4214              		.loc 1 1315 0
 4215 0170 FFF7FEFF 		bl	mc_interface_get_configuration
 4216              	.LVL682:
 4217 0174 4FF42372 		mov	r2, #652
 4218 0178 0146     		mov	r1, r0
ARM GAS  /tmp/cczU1kEP.s 			page 75


 4219 017a 3046     		mov	r0, r6
 4220 017c FFF7FEFF 		bl	memcpy
 4221              	.LVL683:
 4222              	.LBB118:
 4223              		.loc 1 1320 0
 4224 0180 F4EEC89A 		vcmpe.f32	s19, s16
 4225 0184 F1EE10FA 		vmrs	APSR_nzcv, FPSCR
 4226              	.LBE118:
 4227              		.loc 1 1317 0
 4228 0188 96ED3ABA 		vldr.32	s22, [r6, #232]
 4229              	.LVL684:
 4230              	.LBB122:
 4231              	.LBB119:
 4232              		.loc 1 1329 0
 4233 018c C8BF     		it	gt
 4234 018e F7EE088A 		vmovgt.f32	s17, #1.5e+0
 4235              	.LBE119:
 4236              		.loc 1 1320 0
 4237 0192 16DC     		bgt	.L339
 4238 0194 48E0     		b	.L368
 4239              	.LVL685:
 4240              	.L337:
 4241              	.LBB120:
 4242              		.loc 1 1329 0
 4243 0196 8AEE277A 		vdiv.f32	s14, s20, s15
 4244 019a 68EE087A 		vmul.f32	s15, s16, s16
 4245 019e 27EE890A 		vmul.f32	s0, s15, s18
 4246 01a2 20EE280A 		vmul.f32	s0, s0, s17
 4247 01a6 B4EEC70A 		vcmpe.f32	s0, s14
 4248 01aa F1EE10FA 		vmrs	APSR_nzcv, FPSCR
 4249 01ae 3DDA     		bge	.L335
 4250              	.LBE120:
 4251              		.loc 1 1320 0
 4252 01b0 68EE287A 		vmul.f32	s15, s16, s17
 4253              	.LVL686:
 4254 01b4 F4EEE79A 		vcmpe.f32	s19, s15
 4255 01b8 F1EE10FA 		vmrs	APSR_nzcv, FPSCR
 4256 01bc 36DD     		ble	.L335
 4257 01be B0EE678A 		vmov.f32	s16, s15
 4258              	.LVL687:
 4259              	.L339:
 4260              	.LBB121:
 4261              		.loc 1 1321 0
 4262 01c2 0021     		movs	r1, #0
 4263 01c4 0520     		movs	r0, #5
 4264 01c6 B0EE480A 		vmov.f32	s0, s16
 4265 01ca FFF7FEFF 		bl	mcpwm_foc_measure_resistance
 4266              	.LVL688:
 4267 01ce B0EE409A 		vmov.f32	s18, s0
 4268              	.LVL689:
 4269              		.loc 1 1324 0
 4270 01d2 FFF7FEFF 		bl	mc_interface_get_fault
 4271              	.LVL690:
 4272              		.loc 1 1329 0
 4273 01d6 F1EE047A 		vmov.f32	s15, #5.0e+0
 4274              		.loc 1 1324 0
 4275 01da 0028     		cmp	r0, #0
ARM GAS  /tmp/cczU1kEP.s 			page 76


 4276 01dc DBD0     		beq	.L337
 4277              		.loc 1 1325 0
 4278 01de 3046     		mov	r0, r6
 4279 01e0 FFF7FEFF 		bl	mempools_free_mcconf
 4280              	.LVL691:
 4281              	.LBE121:
 4282              	.LBE122:
 4283              	.LBE123:
 4284              	.LBE126:
 4285              		.loc 1 1611 0
 4286 01e4 4946     		mov	r1, r9
 4287 01e6 B0EE6A0A 		vmov.f32	s0, s21
 4288 01ea 4046     		mov	r0, r8
 4289 01ec FFF7FEFF 		bl	timeout_configure
 4290              	.LVL692:
 4291              		.loc 1 1612 0
 4292 01f0 FFF7FEFF 		bl	mc_interface_unlock
 4293              	.LVL693:
 4294              		.loc 1 1613 0
 4295 01f4 FFF7FEFF 		bl	mc_interface_release_motor
 4296              	.LVL694:
 4297              		.loc 1 1614 0
 4298 01f8 B7EE000A 		vmov.f32	s0, #1.0e+0
 4299 01fc FFF7FEFF 		bl	mc_interface_wait_for_motor_release
 4300              	.LVL695:
 4301              		.loc 1 1615 0
 4302 0200 2846     		mov	r0, r5
 4303 0202 FFF7FEFF 		bl	mc_interface_set_configuration
 4304              	.LVL696:
 4305              		.loc 1 1616 0
 4306 0206 2046     		mov	r0, r4
 4307 0208 FFF7FEFF 		bl	mempools_free_mcconf
 4308              	.LVL697:
 4309              		.loc 1 1617 0
 4310 020c 2846     		mov	r0, r5
 4311 020e FFF7FEFF 		bl	mempools_free_mcconf
 4312              	.LVL698:
 4313              		.loc 1 1625 0
 4314 0212 3846     		mov	r0, r7
 4315 0214 FFF7FEFF 		bl	mc_interface_select_motor_thread
 4316              	.LVL699:
 4317              		.loc 1 1626 0
 4318 0218 6FF00A06 		mvn	r6, #10
 4319              		.loc 1 1768 0
 4320 021c 3046     		mov	r0, r6
 4321 021e 09B0     		add	sp, sp, #36
 4322              		.cfi_remember_state
 4323              		.cfi_def_cfa_offset 68
 4324              		@ sp needed
 4325 0220 BDEC088B 		vldm	sp!, {d8-d11}
 4326              		.cfi_restore 86
 4327              		.cfi_restore 87
 4328              		.cfi_restore 84
 4329              		.cfi_restore 85
 4330              		.cfi_restore 82
 4331              		.cfi_restore 83
 4332              		.cfi_restore 80
ARM GAS  /tmp/cczU1kEP.s 			page 77


 4333              		.cfi_restore 81
 4334              		.cfi_def_cfa_offset 36
 4335              	.LVL700:
 4336 0224 BDE8F08F 		pop	{r4, r5, r6, r7, r8, r9, r10, fp, pc}
 4337              	.LVL701:
 4338              	.L368:
 4339              		.cfi_restore_state
 4340              	.LBB127:
 4341              	.LBB124:
 4342              		.loc 1 1319 0
 4343 0228 B0EE688A 		vmov.f32	s16, s17
 4344              	.LVL702:
 4345              	.L335:
 4346              		.loc 1 1334 0
 4347 022c 0121     		movs	r1, #1
 4348 022e 6420     		movs	r0, #100
 4349 0230 B0EE480A 		vmov.f32	s0, s16
 4350 0234 FFF7FEFF 		bl	mcpwm_foc_measure_resistance
 4351              	.LVL703:
 4352              		.loc 1 1337 0
 4353 0238 3046     		mov	r0, r6
 4354              		.loc 1 1336 0
 4355 023a 86ED3A0A 		vstr.32	s0, [r6, #232]
 4356              		.loc 1 1334 0
 4357 023e F0EE408A 		vmov.f32	s17, s0
 4358              	.LVL704:
 4359              		.loc 1 1337 0
 4360 0242 FFF7FEFF 		bl	mc_interface_set_configuration
 4361              	.LVL705:
 4362              		.loc 1 1339 0
 4363 0246 B0EE480A 		vmov.f32	s0, s16
 4364 024a 03AA     		add	r2, sp, #12
 4365              	.LVL706:
 4366 024c 0021     		movs	r1, #0
 4367 024e 6420     		movs	r0, #100
 4368 0250 FFF7FEFF 		bl	mcpwm_foc_measure_inductance_current
 4369              	.LVL707:
 4370              		.loc 1 1341 0
 4371 0254 8AEE286A 		vdiv.f32	s12, s20, s17
 4372 0258 F7EE086A 		vmov.f32	s13, #1.5e+0
 4373 025c 86EE267A 		vdiv.f32	s14, s12, s13
 4374              		.loc 1 1340 0
 4375 0260 DDED037A 		vldr.32	s15, [sp, #12]
 4376              		.loc 1 1339 0
 4377 0264 9FED432A 		vldr.32	s4, .L372+44
 4378 0268 B5EE407A 		vcmp.f32	s14, #0
 4379              		.loc 1 1340 0
 4380 026c 67EE827A 		vmul.f32	s15, s15, s4
 4381 0270 F1EE10FA 		vmrs	APSR_nzcv, FPSCR
 4382              		.loc 1 1341 0
 4383 0274 B1EEC79A 		vsqrt.f32	s18, s14
 4384              		.loc 1 1340 0
 4385 0278 CDED037A 		vstr.32	s15, [sp, #12]
 4386              		.loc 1 1339 0
 4387 027c 20EE028A 		vmul.f32	s16, s0, s4
 4388              	.LVL708:
 4389 0280 00F12381 		bmi	.L369
ARM GAS  /tmp/cczU1kEP.s 			page 78


 4390              	.L340:
 4391              		.loc 1 1341 0
 4392 0284 19EE103A 		vmov	r3, s18
 4393 0288 08A8     		add	r0, sp, #32
 4394              		.loc 1 1342 0
 4395 028a DFED3B0A 		vldr.32	s1, .L372+48
 4396 028e 9FED3B0A 		vldr.32	s0, .L372+52
 4397              		.loc 1 1341 0
 4398 0292 40F8103D 		str	r3, [r0, #-16]!	@ float
 4399              		.loc 1 1342 0
 4400 0296 FFF7FEFF 		bl	utils_truncate_number
 4401              	.LVL709:
 4402              		.loc 1 1345 0
 4403 029a 3046     		mov	r0, r6
 4404              		.loc 1 1344 0
 4405 029c 86ED3ABA 		vstr.32	s22, [r6, #232]
 4406              		.loc 1 1345 0
 4407 02a0 FFF7FEFF 		bl	mc_interface_set_configuration
 4408              	.LVL710:
 4409              		.loc 1 1346 0
 4410 02a4 3046     		mov	r0, r6
 4411 02a6 FFF7FEFF 		bl	mempools_free_mcconf
 4412              	.LVL711:
 4413              	.LBE124:
 4414              	.LBE127:
 4415              		.loc 1 1632 0
 4416 02aa 354B     		ldr	r3, .L372+56
 4417 02ac C4F8B830 		str	r3, [r4, #184]	@ float
 4418              		.loc 1 1633 0
 4419 02b0 2046     		mov	r0, r4
 4420 02b2 FFF7FEFF 		bl	mc_interface_set_configuration
 4421              	.LVL712:
 4422              		.loc 1 1656 0
 4423 02b6 9DED040A 		vldr.32	s0, [sp, #16]
 4424 02ba 9FED321A 		vldr.32	s2, .L372+60
 4425 02be DFED320A 		vldr.32	s1, .L372+64
 4426              		.loc 1 1655 0
 4427 02c2 08AA     		add	r2, sp, #32
 4428              		.loc 1 1653 0
 4429 02c4 0023     		movs	r3, #0
 4430              		.loc 1 1656 0
 4431 02c6 F0EE047A 		vmov.f32	s15, #2.5e+0
 4432              		.loc 1 1655 0
 4433 02ca 42F8043D 		str	r3, [r2, #-4]!	@ float
 4434              		.loc 1 1656 0
 4435 02ce 80EE270A 		vdiv.f32	s0, s0, s15
 4436 02d2 06A9     		add	r1, sp, #24
 4437 02d4 05A8     		add	r0, sp, #20
 4438              		.loc 1 1653 0
 4439 02d6 0593     		str	r3, [sp, #20]	@ float
 4440              		.loc 1 1654 0
 4441 02d8 0693     		str	r3, [sp, #24]	@ float
 4442              		.loc 1 1656 0
 4443 02da B0EE482A 		vmov.f32	s4, s16
 4444 02de F0EE681A 		vmov.f32	s3, s17
 4445 02e2 FFF7FEFF 		bl	conf_general_measure_flux_linkage_openloop
 4446              	.LVL713:
ARM GAS  /tmp/cczU1kEP.s 			page 79


 4447              		.loc 1 1659 0
 4448 02e6 DFED297A 		vldr.32	s15, .L372+68
 4449 02ea 9DED077A 		vldr.32	s14, [sp, #28]
 4450 02ee B4EEE77A 		vcmpe.f32	s14, s15
 4451 02f2 F1EE10FA 		vmrs	APSR_nzcv, FPSCR
 4452              		.loc 1 1660 0
 4453 02f6 C4BF     		itt	gt
 4454 02f8 069B     		ldrgt	r3, [sp, #24]	@ float
 4455 02fa 0593     		strgt	r3, [sp, #20]	@ float
 4456              		.loc 1 1670 0
 4457 02fc 0028     		cmp	r0, #0
 4458 02fe 4FD1     		bne	.L370
 4459              	.LVL714:
 4460              		.loc 1 1740 0
 4461 0300 4946     		mov	r1, r9
 4462 0302 B0EE6A0A 		vmov.f32	s0, s21
 4463 0306 4046     		mov	r0, r8
 4464              	.LVL715:
 4465 0308 FFF7FEFF 		bl	timeout_configure
 4466              	.LVL716:
 4467              		.loc 1 1741 0
 4468 030c FFF7FEFF 		bl	mc_interface_lock_override_once
 4469              	.LVL717:
 4470              		.loc 1 1742 0
 4471 0310 FFF7FEFF 		bl	mc_interface_release_motor
 4472              	.LVL718:
 4473              		.loc 1 1743 0
 4474 0314 B7EE000A 		vmov.f32	s0, #1.0e+0
 4475 0318 FFF7FEFF 		bl	mc_interface_wait_for_motor_release
 4476              	.LVL719:
 4477              		.loc 1 1737 0
 4478 031c 6FF00906 		mvn	r6, #9
 4479              		.loc 1 1744 0
 4480 0320 FFF7FEFF 		bl	mc_interface_unlock
 4481              	.LVL720:
 4482              	.L353:
 4483              		.loc 1 1747 0
 4484 0324 2846     		mov	r0, r5
 4485 0326 FFF7FEFF 		bl	mc_interface_set_configuration
 4486              	.LVL721:
 4487              	.L350:
 4488              		.loc 1 1758 0
 4489 032a 2046     		mov	r0, r4
 4490 032c FFF7FEFF 		bl	mempools_free_mcconf
 4491              	.LVL722:
 4492              		.loc 1 1759 0
 4493 0330 2846     		mov	r0, r5
 4494 0332 FFF7FEFF 		bl	mempools_free_mcconf
 4495              	.LVL723:
 4496              		.loc 1 1765 0
 4497 0336 3846     		mov	r0, r7
 4498 0338 FFF7FEFF 		bl	mc_interface_select_motor_thread
 4499              	.LVL724:
 4500              		.loc 1 1768 0
 4501 033c 3046     		mov	r0, r6
 4502 033e 09B0     		add	sp, sp, #36
 4503              		.cfi_remember_state
ARM GAS  /tmp/cczU1kEP.s 			page 80


 4504              		.cfi_def_cfa_offset 68
 4505              		@ sp needed
 4506 0340 BDEC088B 		vldm	sp!, {d8-d11}
 4507              		.cfi_restore 86
 4508              		.cfi_restore 87
 4509              		.cfi_restore 84
 4510              		.cfi_restore 85
 4511              		.cfi_restore 82
 4512              		.cfi_restore 83
 4513              		.cfi_restore 80
 4514              		.cfi_restore 81
 4515              		.cfi_def_cfa_offset 36
 4516              	.LVL725:
 4517 0344 BDE8F08F 		pop	{r4, r5, r6, r7, r8, r9, r10, fp, pc}
 4518              	.LVL726:
 4519              	.L373:
 4520              		.align	2
 4521              	.L372:
 4522 0348 00401C46 		.word	1176256512
 4523 034c 6F12033A 		.word	973279855
 4524 0350 00007042 		.word	1114636288
 4525 0354 000070C2 		.word	-1032847360
 4526 0358 001BB749 		.word	1236736768
 4527 035c 001BB7C9 		.word	-910746880
 4528 0360 0050C347 		.word	1203982336
 4529 0364 0050C3C7 		.word	-943501312
 4530 0368 00000000 		.word	0
 4531 036c 00004842 		.word	1112014848
 4532 0370 CDCC8C3F 		.word	1066192077
 4533 0374 BD378635 		.word	897988541
 4534 0378 00009643 		.word	1133903872
 4535 037c 000096C3 		.word	3281387520
 4536 0380 00409C46 		.word	1184645120
 4537 0384 0000E144 		.word	1155596288
 4538 0388 9A99993E 		.word	1050253722
 4539 038c 00007042 		.word	1114636288
 4540 0390 6F12833A 		.word	981668463
 4541 0394 FFFF7944 		.word	1148846079
 4542 0398 00247449 		.word	1232348160
 4543 039c 0000C842 		.word	1120403456
 4544              	.LVL727:
 4545              	.L370:
 4546              		.cfi_restore_state
 4547              	.LBB128:
 4548              		.loc 1 1671 0
 4549 03a0 DDED047A 		vldr.32	s15, [sp, #16]
 4550              		.loc 1 1676 0
 4551 03a4 039B     		ldr	r3, [sp, #12]	@ float
 4552              		.loc 1 1677 0
 4553 03a6 059A     		ldr	r2, [sp, #20]	@ float
 4554              		.loc 1 1676 0
 4555 03a8 C5F8E430 		str	r3, [r5, #228]	@ float
 4556              		.loc 1 1672 0
 4557 03ac B1EE677A 		vneg.f32	s14, s15
 4558              		.loc 1 1673 0
 4559 03b0 0223     		movs	r3, #2
 4560              		.loc 1 1671 0
ARM GAS  /tmp/cczU1kEP.s 			page 81


 4561 03b2 C5ED007A 		vstr.32	s15, [r5]
 4562              		.loc 1 1674 0
 4563 03b6 C5ED3A8A 		vstr.32	s17, [r5, #232]
 4564              		.loc 1 1675 0
 4565 03ba 85ED388A 		vstr.32	s16, [r5, #224]
 4566              		.loc 1 1672 0
 4567 03be 85ED017A 		vstr.32	s14, [r5, #4]
 4568              		.loc 1 1677 0
 4569 03c2 C5F8EC20 		str	r2, [r5, #236]	@ float
 4570              		.loc 1 1673 0
 4571 03c6 85F88630 		strb	r3, [r5, #134]
 4572              		.loc 1 1679 0
 4573 03ca FFF7FEFF 		bl	mc_interface_temp_motor_filtered
 4574              	.LVL728:
 4575 03ce FAEE047A 		vmov.f32	s15, #-1.0e+1
 4576 03d2 B4EEE70A 		vcmpe.f32	s0, s15
 4577 03d6 F1EE10FA 		vmrs	APSR_nzcv, FPSCR
 4578 03da 71DC     		bgt	.L371
 4579              	.L344:
 4580              	.LVL729:
 4581              	.LBB129:
 4582              	.LBB130:
 4583              		.loc 1 1294 0
 4584 03dc D5ED3B7A 		vldr.32	s15, [r5, #236]
 4585              	.LVL730:
 4586              		.loc 1 1299 0
 4587 03e0 5FED154A 		vldr.32	s9, .L372+72
 4588              		.loc 1 1298 0
 4589 03e4 5FED155A 		vldr.32	s11, .L372+76
 4590              		.loc 1 1304 0
 4591 03e8 1FED155A 		vldr.32	s10, .L372+80
 4592              		.loc 1 1297 0
 4593 03ec 95ED387A 		vldr.32	s14, [r5, #224]
 4594              		.loc 1 1298 0
 4595 03f0 95ED3A6A 		vldr.32	s12, [r5, #232]
 4596              	.LBE130:
 4597              	.LBE129:
 4598              	.LBB133:
 4599              	.LBB134:
 4600              	.LBB135:
 4601              	.LBB136:
 4602              		.loc 1 1386 0
 4603 03f4 5FED178A 		vldr.32	s17, .L372+84
 4604              	.LVL731:
 4605              	.LBE136:
 4606              	.LBE135:
 4607              	.LBE134:
 4608              	.LBE133:
 4609              	.LBB141:
 4610              	.LBB131:
 4611              		.loc 1 1299 0
 4612 03f8 67EEA77A 		vmul.f32	s15, s15, s15
 4613              	.LVL732:
 4614              		.loc 1 1298 0
 4615 03fc 26EE256A 		vmul.f32	s12, s12, s11
 4616              	.LVL733:
 4617              		.loc 1 1299 0
ARM GAS  /tmp/cczU1kEP.s 			page 82


 4618 0400 C4EEA76A 		vdiv.f32	s13, s9, s15
 4619              	.LBE131:
 4620              	.LBE141:
 4621              		.loc 1 1687 0
 4622 0404 2846     		mov	r0, r5
 4623              	.LBB142:
 4624              	.LBB139:
 4625              		.loc 1 1378 0
 4626 0406 4FF47A76 		mov	r6, #1000
 4627              	.LBE139:
 4628              	.LBE142:
 4629              	.LBB143:
 4630              	.LBB132:
 4631              		.loc 1 1297 0
 4632 040a 67EE257A 		vmul.f32	s15, s14, s11
 4633              	.LVL734:
 4634              		.loc 1 1304 0
 4635 040e 26EE857A 		vmul.f32	s14, s13, s10
 4636              		.loc 1 1303 0
 4637 0412 85ED2D6A 		vstr.32	s12, [r5, #180]
 4638              		.loc 1 1304 0
 4639 0416 85ED3C7A 		vstr.32	s14, [r5, #240]
 4640              	.LVL735:
 4641              		.loc 1 1302 0
 4642 041a C5ED2C7A 		vstr.32	s15, [r5, #176]
 4643              	.LBE132:
 4644              	.LBE143:
 4645              		.loc 1 1687 0
 4646 041e FFF7FEFF 		bl	mc_interface_set_configuration
 4647              	.LVL736:
 4648              	.LBB144:
 4649              	.LBB140:
 4650              		.loc 1 1378 0
 4651 0422 FFF7FEFF 		bl	mc_interface_get_motor_thread
 4652              	.LVL737:
 4653 0426 0190     		str	r0, [sp, #4]
 4654              	.LVL738:
 4655              	.L349:
 4656              	.LBB138:
 4657              	.LBB137:
 4658              		.loc 1 1381 0
 4659 0428 0120     		movs	r0, #1
 4660 042a FFF7FEFF 		bl	mc_interface_select_motor_thread
 4661              	.LVL739:
 4662              		.loc 1 1382 0
 4663 042e FFF7FEFF 		bl	mc_interface_get_rpm
 4664              	.LVL740:
 4665              		.loc 1 1383 0
 4666 0432 0220     		movs	r0, #2
 4667              		.loc 1 1382 0
 4668 0434 B0EE408A 		vmov.f32	s16, s0
 4669              	.LVL741:
 4670              		.loc 1 1386 0
 4671 0438 B0EEC88A 		vabs.f32	s16, s16
 4672              		.loc 1 1383 0
 4673 043c FFF7FEFF 		bl	mc_interface_select_motor_thread
 4674              	.LVL742:
ARM GAS  /tmp/cczU1kEP.s 			page 83


 4675              		.loc 1 1384 0
 4676 0440 FFF7FEFF 		bl	mc_interface_get_rpm
 4677              	.LVL743:
 4678              		.loc 1 1386 0
 4679 0444 B4EEE88A 		vcmpe.f32	s16, s17
 4680 0448 F1EE10FA 		vmrs	APSR_nzcv, FPSCR
 4681 044c B0EEC00A 		vabs.f32	s0, s0
 4682              	.LVL744:
 4683              		.loc 1 1389 0
 4684 0450 4FF06400 		mov	r0, #100
 4685              		.loc 1 1386 0
 4686 0454 04D5     		bpl	.L346
 4687 0456 B4EEE80A 		vcmpe.f32	s0, s17
 4688 045a F1EE10FA 		vmrs	APSR_nzcv, FPSCR
 4689 045e 03D4     		bmi	.L348
 4690              	.L346:
 4691              		.loc 1 1389 0
 4692 0460 FFF7FEFF 		bl	chThdSleep
 4693              	.LVL745:
 4694              	.LBE137:
 4695              		.loc 1 1380 0
 4696 0464 013E     		subs	r6, r6, #1
 4697              	.LVL746:
 4698 0466 DFD1     		bne	.L349
 4699              	.LVL747:
 4700              	.L348:
 4701              	.LBE138:
 4702              		.loc 1 1392 0
 4703 0468 0120     		movs	r0, #1
 4704 046a FFF7FEFF 		bl	mc_interface_select_motor_thread
 4705              	.LVL748:
 4706              		.loc 1 1393 0
 4707 046e FFF7FEFF 		bl	mc_interface_get_rpm
 4708              	.LVL749:
 4709              		.loc 1 1394 0
 4710 0472 0220     		movs	r0, #2
 4711 0474 FFF7FEFF 		bl	mc_interface_select_motor_thread
 4712              	.LVL750:
 4713              		.loc 1 1395 0
 4714 0478 FFF7FEFF 		bl	mc_interface_get_rpm
 4715              	.LVL751:
 4716              		.loc 1 1397 0
 4717 047c 0198     		ldr	r0, [sp, #4]
 4718 047e FFF7FEFF 		bl	mc_interface_select_motor_thread
 4719              	.LVL752:
 4720              	.LBE140:
 4721              	.LBE144:
 4722              		.loc 1 1723 0
 4723 0482 9DED040A 		vldr.32	s0, [sp, #16]
 4724 0486 F0EE087A 		vmov.f32	s15, #3.0e+0
 4725 048a 80EE270A 		vdiv.f32	s0, s0, s15
 4726 048e 5946     		mov	r1, fp
 4727 0490 5046     		mov	r0, r10
 4728 0492 FFF7FEFF 		bl	conf_general_autodetect_apply_sensors_foc
 4729              	.LVL753:
 4730              	.LBE128:
 4731              		.loc 1 1740 0
ARM GAS  /tmp/cczU1kEP.s 			page 84


 4732 0496 4946     		mov	r1, r9
 4733              	.LBB145:
 4734              		.loc 1 1723 0
 4735 0498 0646     		mov	r6, r0
 4736              	.LVL754:
 4737              	.LBE145:
 4738              		.loc 1 1740 0
 4739 049a 4046     		mov	r0, r8
 4740              	.LVL755:
 4741 049c B0EE6A0A 		vmov.f32	s0, s21
 4742 04a0 FFF7FEFF 		bl	timeout_configure
 4743              	.LVL756:
 4744              		.loc 1 1741 0
 4745 04a4 FFF7FEFF 		bl	mc_interface_lock_override_once
 4746              	.LVL757:
 4747              		.loc 1 1742 0
 4748 04a8 FFF7FEFF 		bl	mc_interface_release_motor
 4749              	.LVL758:
 4750              		.loc 1 1743 0
 4751 04ac B7EE000A 		vmov.f32	s0, #1.0e+0
 4752 04b0 FFF7FEFF 		bl	mc_interface_wait_for_motor_release
 4753              	.LVL759:
 4754              		.loc 1 1744 0
 4755 04b4 FFF7FEFF 		bl	mc_interface_unlock
 4756              	.LVL760:
 4757              		.loc 1 1746 0
 4758 04b8 002E     		cmp	r6, #0
 4759 04ba BFF636AF 		bge	.L350
 4760 04be 31E7     		b	.L353
 4761              	.LVL761:
 4762              	.L371:
 4763              	.LBB146:
 4764              		.loc 1 1680 0
 4765 04c0 FFF7FEFF 		bl	mc_interface_temp_motor_filtered
 4766              	.LVL762:
 4767 04c4 85ED530A 		vstr.32	s0, [r5, #332]
 4768 04c8 88E7     		b	.L344
 4769              	.LVL763:
 4770              	.L369:
 4771              	.LBE146:
 4772              	.LBB147:
 4773              	.LBB125:
 4774              		.loc 1 1341 0
 4775 04ca B0EE470A 		vmov.f32	s0, s14
 4776 04ce FFF7FEFF 		bl	sqrtf
 4777              	.LVL764:
 4778 04d2 D7E6     		b	.L340
 4779              	.LBE125:
 4780              	.LBE147:
 4781              		.cfi_endproc
 4782              	.LFE277:
 4783              		.size	conf_general_detect_apply_all_foc, .-conf_general_detect_apply_all_foc
 4784              		.section	.text.conf_general_detect_apply_all_foc_can,"ax",%progbits
 4785              		.align	1
 4786              		.p2align 4,,15
 4787              		.global	conf_general_detect_apply_all_foc_can
 4788              		.syntax unified
ARM GAS  /tmp/cczU1kEP.s 			page 85


 4789              		.thumb
 4790              		.thumb_func
 4791              		.fpu fpv4-sp-d16
 4792              		.type	conf_general_detect_apply_all_foc_can, %function
 4793              	conf_general_detect_apply_all_foc_can:
 4794              	.LFB278:
 4795              		.loc 1 1799 0
 4796              		.cfi_startproc
 4797              		@ args = 0, pretend = 0, frame = 8
 4798              		@ frame_needed = 0, uses_anonymous_args = 0
 4799              	.LVL765:
 4800 0000 2DE9F04F 		push	{r4, r5, r6, r7, r8, r9, r10, fp, lr}
 4801              		.cfi_def_cfa_offset 36
 4802              		.cfi_offset 4, -36
 4803              		.cfi_offset 5, -32
 4804              		.cfi_offset 6, -28
 4805              		.cfi_offset 7, -24
 4806              		.cfi_offset 8, -20
 4807              		.cfi_offset 9, -16
 4808              		.cfi_offset 10, -12
 4809              		.cfi_offset 11, -8
 4810              		.cfi_offset 14, -4
 4811 0004 2DED068B 		vpush.64	{d8, d9, d10}
 4812              		.cfi_def_cfa_offset 60
 4813              		.cfi_offset 80, -60
 4814              		.cfi_offset 81, -56
 4815              		.cfi_offset 82, -52
 4816              		.cfi_offset 83, -48
 4817              		.cfi_offset 84, -44
 4818              		.cfi_offset 85, -40
 4819 0008 83B0     		sub	sp, sp, #12
 4820              		.cfi_def_cfa_offset 72
 4821              		.loc 1 1799 0
 4822 000a B0EE60AA 		vmov.f32	s20, s1
 4823 000e F0EE419A 		vmov.f32	s19, s2
 4824 0012 B0EE619A 		vmov.f32	s18, s3
 4825 0016 F0EE428A 		vmov.f32	s17, s4
 4826 001a B0EE408A 		vmov.f32	s16, s0
 4827 001e 0446     		mov	r4, r0
 4828              		.loc 1 1801 0
 4829 0020 FFF7FEFF 		bl	mc_interface_get_motor_thread
 4830              	.LVL766:
 4831 0024 8346     		mov	fp, r0
 4832              	.LVL767:
 4833              		.loc 1 1802 0
 4834 0026 0120     		movs	r0, #1
 4835              	.LVL768:
 4836 0028 FFF7FEFF 		bl	mc_interface_select_motor_thread
 4837              	.LVL769:
 4838              		.loc 1 1804 0
 4839 002c FFF7FEFF 		bl	mempools_alloc_appconf
 4840              	.LVL770:
 4841 0030 8246     		mov	r10, r0
 4842              	.LVL771:
 4843              		.loc 1 1805 0
 4844 0032 FFF7FEFF 		bl	app_get_configuration
 4845              	.LVL772:
ARM GAS  /tmp/cczU1kEP.s 			page 86


 4846 0036 4FF40E72 		mov	r2, #568
 4847 003a 0146     		mov	r1, r0
 4848 003c 5046     		mov	r0, r10
 4849 003e FFF7FEFF 		bl	memcpy
 4850              	.LVL773:
 4851              		.loc 1 1806 0
 4852 0042 FFF7FEFF 		bl	mempools_alloc_mcconf
 4853              	.LVL774:
 4854 0046 0746     		mov	r7, r0
 4855              	.LVL775:
 4856              		.loc 1 1807 0
 4857 0048 FFF7FEFF 		bl	mc_interface_get_configuration
 4858              	.LVL776:
 4859 004c 4FF42372 		mov	r2, #652
 4860 0050 0146     		mov	r1, r0
 4861 0052 3846     		mov	r0, r7
 4862 0054 FFF7FEFF 		bl	memcpy
 4863              	.LVL777:
 4864              		.loc 1 1811 0
 4865 0058 DFED777A 		vldr.32	s15, .L422
 4866              		.loc 1 1809 0
 4867 005c 9AF80090 		ldrb	r9, [r10]	@ zero_extendqisi2
 4868              	.LVL778:
 4869              		.loc 1 1811 0
 4870 0060 B0EECA7A 		vabs.f32	s14, s20
 4871 0064 B4EEE77A 		vcmpe.f32	s14, s15
 4872              		.loc 1 1817 0
 4873 0068 DFED737A 		vldr.32	s15, .L422
 4874              		.loc 1 1811 0
 4875 006c F1EE10FA 		vmrs	APSR_nzcv, FPSCR
 4876              		.loc 1 1817 0
 4877 0070 B0EEE97A 		vabs.f32	s14, s19
 4878              		.loc 1 1814 0
 4879 0074 D8BF     		it	le
 4880 0076 4FF00043 		movle	r3, #-2147483648
 4881              		.loc 1 1817 0
 4882 007a B4EEE77A 		vcmpe.f32	s14, s15
 4883              		.loc 1 1823 0
 4884 007e DFED6E7A 		vldr.32	s15, .L422
 4885              		.loc 1 1814 0
 4886 0082 D4BF     		ite	le
 4887 0084 FB60     		strle	r3, [r7, #12]	@ float
 4888              		.loc 1 1812 0
 4889 0086 87ED03AA 		vstrgt.32	s20, [r7, #12]
 4890              		.loc 1 1823 0
 4891 008a B0EEC97A 		vabs.f32	s14, s18
 4892              		.loc 1 1817 0
 4893 008e F1EE10FA 		vmrs	APSR_nzcv, FPSCR
 4894              		.loc 1 1820 0
 4895 0092 DCBF     		itt	le
 4896 0094 694B     		ldrle	r3, .L422+4
 4897 0096 BB60     		strle	r3, [r7, #8]	@ float
 4898              		.loc 1 1823 0
 4899 0098 B4EEE77A 		vcmpe.f32	s14, s15
 4900              		.loc 1 1829 0
 4901 009c DFED667A 		vldr.32	s15, .L422
 4902              		.loc 1 1818 0
ARM GAS  /tmp/cczU1kEP.s 			page 87


 4903 00a0 C8BF     		it	gt
 4904 00a2 C7ED029A 		vstrgt.32	s19, [r7, #8]
 4905              		.loc 1 1829 0
 4906 00a6 B0EEE87A 		vabs.f32	s14, s17
 4907              		.loc 1 1823 0
 4908 00aa F1EE10FA 		vmrs	APSR_nzcv, FPSCR
 4909              		.loc 1 1826 0
 4910 00ae DCBF     		itt	le
 4911 00b0 634B     		ldrle	r3, .L422+8
 4912 00b2 C7F80C31 		strle	r3, [r7, #268]	@ float
 4913              		.loc 1 1829 0
 4914 00b6 B4EEE77A 		vcmpe.f32	s14, s15
 4915              		.loc 1 1824 0
 4916 00ba C8BF     		it	gt
 4917 00bc 87ED439A 		vstrgt.32	s18, [r7, #268]
 4918              		.loc 1 1829 0
 4919 00c0 F1EE10FA 		vmrs	APSR_nzcv, FPSCR
 4920              		.loc 1 1832 0
 4921 00c4 D6BF     		itet	le
 4922 00c6 5F4B     		ldrle	r3, .L422+12
 4923              		.loc 1 1830 0
 4924 00c8 C7ED4F8A 		vstrgt.32	s17, [r7, #316]
 4925              		.loc 1 1832 0
 4926 00cc C7F83C31 		strle	r3, [r7, #316]	@ float
 4927              		.loc 1 1835 0
 4928 00d0 3846     		mov	r0, r7
 4929 00d2 FFF7FEFF 		bl	mc_interface_set_configuration
 4930              	.LVL779:
 4931              		.loc 1 1852 0
 4932 00d6 FFF7FEFF 		bl	comm_can_detect_all_foc_res_clear
 4933              	.LVL780:
 4934              		.loc 1 1854 0
 4935 00da 002C     		cmp	r4, #0
 4936 00dc 00F0A680 		beq	.L400
 4937              	.LBB148:
 4938              		.loc 1 1855 0
 4939 00e0 0024     		movs	r4, #0
 4940              	.LBE148:
 4941              		.loc 1 1851 0
 4942 00e2 A046     		mov	r8, r4
 4943 00e4 02E0     		b	.L391
 4944              	.LVL781:
 4945              	.L390:
 4946              	.LBB152:
 4947              		.loc 1 1855 0 discriminator 2
 4948 00e6 0134     		adds	r4, r4, #1
 4949              	.LVL782:
 4950 00e8 FF2C     		cmp	r4, #255
 4951 00ea 34D0     		beq	.L387
 4952              	.LVL783:
 4953              	.L391:
 4954              	.LBB149:
 4955              		.loc 1 1862 0
 4956 00ec E5B2     		uxtb	r5, r4
 4957 00ee 2846     		mov	r0, r5
 4958 00f0 0DF10701 		add	r1, sp, #7
 4959 00f4 FFF7FEFF 		bl	comm_can_ping
ARM GAS  /tmp/cczU1kEP.s 			page 88


 4960              	.LVL784:
 4961 00f8 0028     		cmp	r0, #0
 4962 00fa F4D0     		beq	.L390
 4963              		.loc 1 1863 0
 4964 00fc 9DF80760 		ldrb	r6, [sp, #7]	@ zero_extendqisi2
 4965              		.loc 1 1867 0
 4966 0100 2846     		mov	r0, r5
 4967 0102 3146     		mov	r1, r6
 4968              		.loc 1 1863 0
 4969 0104 002E     		cmp	r6, #0
 4970 0106 EED1     		bne	.L390
 4971              		.loc 1 1867 0
 4972 0108 D7ED020A 		vldr.32	s1, [r7, #8]
 4973 010c 97ED030A 		vldr.32	s0, [r7, #12]
 4974 0110 FFF7FEFF 		bl	comm_can_conf_current_limits_in
 4975              	.LVL785:
 4976              		.loc 1 1868 0
 4977 0114 3146     		mov	r1, r6
 4978 0116 D7ED4F0A 		vldr.32	s1, [r7, #316]
 4979 011a 97ED430A 		vldr.32	s0, [r7, #268]
 4980 011e 2846     		mov	r0, r5
 4981 0120 FFF7FEFF 		bl	comm_can_conf_foc_erpms
 4982              	.LVL786:
 4983              		.loc 1 1869 0
 4984 0124 0121     		movs	r1, #1
 4985 0126 B0EE480A 		vmov.f32	s0, s16
 4986 012a 2846     		mov	r0, r5
 4987              		.loc 1 1870 0
 4988 012c 8844     		add	r8, r8, r1
 4989              	.LVL787:
 4990              		.loc 1 1869 0
 4991 012e FFF7FEFF 		bl	comm_can_detect_apply_all_foc
 4992              	.LVL788:
 4993              		.loc 1 1873 0
 4994 0132 A145     		cmp	r9, r4
 4995 0134 D7D1     		bne	.L390
 4996              	.LVL789:
 4997              		.loc 1 1879 0
 4998 0136 09F10203 		add	r3, r9, #2
 4999              		.loc 1 1876 0
 5000 013a B9F1FE0F 		cmp	r9, #254
 5001              		.loc 1 1879 0
 5002 013e 5FFA83F9 		uxtb	r9, r3
 5003              	.LVL790:
 5004              		.loc 1 1876 0
 5005 0142 70D0     		beq	.L401
 5006              		.loc 1 1881 0
 5007 0144 B9F1FF0F 		cmp	r9, #255
 5008              	.LBE149:
 5009              		.loc 1 1855 0
 5010 0148 04F10104 		add	r4, r4, #1
 5011              	.LVL791:
 5012              	.LBB150:
 5013              		.loc 1 1881 0
 5014 014c 08BF     		it	eq
 5015 014e 4FF00009 		moveq	r9, #0
 5016              	.LVL792:
ARM GAS  /tmp/cczU1kEP.s 			page 89


 5017              	.LBE150:
 5018              		.loc 1 1855 0
 5019 0152 FF2C     		cmp	r4, #255
 5020 0154 CAD1     		bne	.L391
 5021              	.LVL793:
 5022              	.L387:
 5023              	.LBE152:
 5024              		.loc 1 1888 0
 5025 0156 0021     		movs	r1, #0
 5026 0158 B0EE480A 		vmov.f32	s0, s16
 5027 015c 0846     		mov	r0, r1
 5028 015e FFF7FEFF 		bl	conf_general_detect_apply_all_foc
 5029              	.LVL794:
 5030 0162 4FF47A64 		mov	r4, #4000
 5031 0166 0546     		mov	r5, r0
 5032              	.LVL795:
 5033 0168 03E0     		b	.L395
 5034              	.LVL796:
 5035              	.L392:
 5036              	.LBB153:
 5037              		.loc 1 1897 0 discriminator 2
 5038 016a FFF7FEFF 		bl	chThdSleep
 5039              	.LVL797:
 5040              		.loc 1 1892 0 discriminator 2
 5041 016e 013C     		subs	r4, r4, #1
 5042              	.LVL798:
 5043 0170 5ED0     		beq	.L421
 5044              	.LVL799:
 5045              	.L395:
 5046              		.loc 1 1893 0
 5047 0172 FFF7FEFF 		bl	comm_can_detect_all_foc_res_size
 5048              	.LVL800:
 5049 0176 4045     		cmp	r0, r8
 5050              		.loc 1 1897 0
 5051 0178 4FF06400 		mov	r0, #100
 5052              		.loc 1 1893 0
 5053 017c F5DB     		blt	.L392
 5054              	.LVL801:
 5055              	.LBE153:
 5056              	.LBB154:
 5057              		.loc 1 1903 0
 5058 017e B8F1000F 		cmp	r8, #0
 5059 0182 0ADD     		ble	.L394
 5060 0184 0024     		movs	r4, #0
 5061              	.LVL802:
 5062              	.L393:
 5063              		.loc 1 1904 0
 5064 0186 2046     		mov	r0, r4
 5065 0188 FFF7FEFF 		bl	comm_can_detect_all_foc_res
 5066              	.LVL803:
 5067              		.loc 1 1903 0
 5068 018c 0134     		adds	r4, r4, #1
 5069              	.LVL804:
 5070              		.loc 1 1905 0
 5071 018e 0028     		cmp	r0, #0
 5072 0190 B8BF     		it	lt
 5073 0192 6FF03205 		mvnlt	r5, #50
ARM GAS  /tmp/cczU1kEP.s 			page 90


 5074              	.LVL805:
 5075              		.loc 1 1903 0
 5076 0196 A045     		cmp	r8, r4
 5077 0198 F5D1     		bne	.L393
 5078              	.LVL806:
 5079              	.L394:
 5080              	.LBE154:
 5081              		.loc 1 1911 0
 5082 019a 002D     		cmp	r5, #0
 5083 019c 34DB     		blt	.L396
 5084              		.loc 1 1912 0
 5085 019e 9AF80030 		ldrb	r3, [r10]	@ zero_extendqisi2
 5086 01a2 4B45     		cmp	r3, r9
 5087 01a4 03D1     		bne	.L398
 5088              		.loc 1 1912 0 is_stmt 0 discriminator 1
 5089 01a6 9AF80C30 		ldrb	r3, [r10, #12]	@ zero_extendqisi2
 5090 01aa 042B     		cmp	r3, #4
 5091 01ac 12D0     		beq	.L399
 5092              	.L398:
 5093              		.loc 1 1914 0 is_stmt 1
 5094 01ae 0423     		movs	r3, #4
 5095 01b0 8AF80C30 		strb	r3, [r10, #12]
 5096              		.loc 1 1913 0
 5097 01b4 8AF80090 		strb	r9, [r10]
 5098              		.loc 1 1915 0
 5099 01b8 5046     		mov	r0, r10
 5100 01ba FFF7FEFF 		bl	conf_general_store_app_configuration
 5101              	.LVL807:
 5102              		.loc 1 1916 0
 5103 01be 5046     		mov	r0, r10
 5104 01c0 FFF7FEFF 		bl	app_set_configuration
 5105              	.LVL808:
 5106              		.loc 1 1917 0
 5107 01c4 1120     		movs	r0, #17
 5108 01c6 5146     		mov	r1, r10
 5109 01c8 FFF7FEFF 		bl	commands_send_appconf
 5110              	.LVL809:
 5111              		.loc 1 1918 0
 5112 01cc 42F21070 		movw	r0, #10000
 5113 01d0 FFF7FEFF 		bl	chThdSleep
 5114              	.LVL810:
 5115              	.L399:
 5116              		.loc 1 1921 0
 5117 01d4 FFF7FEFF 		bl	mc_interface_get_configuration
 5118              	.LVL811:
 5119 01d8 4FF42372 		mov	r2, #652
 5120 01dc 0146     		mov	r1, r0
 5121 01de 3846     		mov	r0, r7
 5122 01e0 FFF7FEFF 		bl	memcpy
 5123              	.LVL812:
 5124              		.loc 1 1922 0
 5125 01e4 FFF7FEFF 		bl	mc_interface_get_motor_thread
 5126              	.LVL813:
 5127 01e8 A0F10201 		sub	r1, r0, #2
 5128 01ec B1FA81F1 		clz	r1, r1
 5129 01f0 4909     		lsrs	r1, r1, #5
 5130 01f2 3846     		mov	r0, r7
ARM GAS  /tmp/cczU1kEP.s 			page 91


 5131 01f4 FFF7FEFF 		bl	conf_general_store_mc_configuration
 5132              	.LVL814:
 5133              		.loc 1 1930 0
 5134 01f8 0E20     		movs	r0, #14
 5135 01fa 3946     		mov	r1, r7
 5136 01fc FFF7FEFF 		bl	commands_send_mcconf
 5137              	.LVL815:
 5138              		.loc 1 1931 0
 5139 0200 42F21070 		movw	r0, #10000
 5140 0204 FFF7FEFF 		bl	chThdSleep
 5141              	.LVL816:
 5142              	.L396:
 5143              		.loc 1 1934 0
 5144 0208 3846     		mov	r0, r7
 5145 020a FFF7FEFF 		bl	mempools_free_mcconf
 5146              	.LVL817:
 5147              		.loc 1 1935 0
 5148 020e 5046     		mov	r0, r10
 5149 0210 FFF7FEFF 		bl	mempools_free_appconf
 5150              	.LVL818:
 5151              		.loc 1 1937 0
 5152 0214 5846     		mov	r0, fp
 5153 0216 FFF7FEFF 		bl	mc_interface_select_motor_thread
 5154              	.LVL819:
 5155              		.loc 1 1940 0
 5156 021a 2846     		mov	r0, r5
 5157 021c 03B0     		add	sp, sp, #12
 5158              		.cfi_remember_state
 5159              		.cfi_def_cfa_offset 60
 5160              		@ sp needed
 5161 021e BDEC068B 		vldm	sp!, {d8-d10}
 5162              		.cfi_restore 84
 5163              		.cfi_restore 85
 5164              		.cfi_restore 82
 5165              		.cfi_restore 83
 5166              		.cfi_restore 80
 5167              		.cfi_restore 81
 5168              		.cfi_def_cfa_offset 36
 5169              	.LVL820:
 5170 0222 BDE8F08F 		pop	{r4, r5, r6, r7, r8, r9, r10, fp, pc}
 5171              	.LVL821:
 5172              	.L401:
 5173              		.cfi_restore_state
 5174              	.LBB155:
 5175              	.LBB151:
 5176              		.loc 1 1879 0
 5177 0226 4FF00109 		mov	r9, #1
 5178              	.LVL822:
 5179 022a 5CE7     		b	.L390
 5180              	.LVL823:
 5181              	.L400:
 5182              	.LBE151:
 5183              	.LBE155:
 5184              		.loc 1 1851 0
 5185 022c A046     		mov	r8, r4
 5186 022e 92E7     		b	.L387
 5187              	.LVL824:
ARM GAS  /tmp/cczU1kEP.s 			page 92


 5188              	.L421:
 5189              		.loc 1 1901 0
 5190 0230 6FF03105 		mvn	r5, #49
 5191              	.LVL825:
 5192 0234 E8E7     		b	.L396
 5193              	.L423:
 5194 0236 00BF     		.align	2
 5195              	.L422:
 5196 0238 6F12833A 		.word	981668463
 5197 023c 00007A43 		.word	1132068864
 5198 0240 0080BB44 		.word	1153138688
 5199 0244 00401C45 		.word	1159479296
 5200              		.cfi_endproc
 5201              	.LFE278:
 5202              		.size	conf_general_detect_apply_all_foc_can, .-conf_general_detect_apply_all_foc_can
 5203              		.global	g_backup
 5204              		.global	conf_general_permanent_nrf_found
 5205              		.global	VirtAddVarTab
 5206              		.section	.bss.VirtAddVarTab,"aw",%nobits
 5207              		.align	2
 5208              		.set	.LANCHOR1,. + 0
 5209              		.type	VirtAddVarTab, %object
 5210              		.size	VirtAddVarTab, 2480
 5211              	VirtAddVarTab:
 5212 0000 00000000 		.space	2480
 5212      00000000 
 5212      00000000 
 5212      00000000 
 5212      00000000 
 5213              		.section	.bss.conf_general_permanent_nrf_found,"aw",%nobits
 5214              		.type	conf_general_permanent_nrf_found, %object
 5215              		.size	conf_general_permanent_nrf_found, 1
 5216              	conf_general_permanent_nrf_found:
 5217 0000 00       		.space	1
 5218              		.section	.ram4,"aw",%progbits
 5219              		.align	2
 5220              		.set	.LANCHOR0,. + 0
 5221              		.type	g_backup, %object
 5222              		.size	g_backup, 24
 5223              	g_backup:
 5224 0000 00000000 		.space	24
 5224      00000000 
 5224      00000000 
 5224      00000000 
 5224      00000000 
 5225              		.text
 5226              	.Letext0:
 5227              		.file 2 "/usr/arm-none-eabi/include/machine/_default_types.h"
 5228              		.file 3 "/usr/arm-none-eabi/include/sys/_stdint.h"
 5229              		.file 4 "/usr/lib/gcc/arm-none-eabi/7.3.1/include/stddef.h"
 5230              		.file 5 "ChibiOS_3.0.5/os/rt/ports/ARMCMx/compilers/GCC/chtypes.h"
 5231              		.file 6 "ChibiOS_3.0.5/os/rt/include/chsystypes.h"
 5232              		.file 7 "ChibiOS_3.0.5/os/rt/include/chschd.h"
 5233              		.file 8 "ChibiOS_3.0.5/os/ext/CMSIS/include/core_cm4.h"
 5234              		.file 9 "ChibiOS_3.0.5/os/ext/CMSIS/ST/system_stm32f4xx.h"
 5235              		.file 10 "ChibiOS_3.0.5/os/ext/CMSIS/ST/stm32f407xx.h"
 5236              		.file 11 "ChibiOS_3.0.5/os/rt/ports/ARMCMx/chcore.h"
ARM GAS  /tmp/cczU1kEP.s 			page 93


 5237              		.file 12 "ChibiOS_3.0.5/os/rt/ports/ARMCMx/chcore_v7m.h"
 5238              		.file 13 "ChibiOS_3.0.5/os/rt/include/chtm.h"
 5239              		.file 14 "ChibiOS_3.0.5/os/rt/include/chsem.h"
 5240              		.file 15 "ChibiOS_3.0.5/os/rt/include/chmtx.h"
 5241              		.file 16 "ChibiOS_3.0.5/os/rt/include/chregistry.h"
 5242              		.file 17 "ChibiOS_3.0.5/os/rt/include/chevents.h"
 5243              		.file 18 "ChibiOS_3.0.5/os/rt/include/chqueues.h"
 5244              		.file 19 "datatypes.h"
 5245              		.file 20 "ChibiOS_3.0.5/ext/stdperiph_stm32f4/inc/stm32f4xx_flash.h"
 5246              		.file 21 "conf_general.h"
 5247              		.file 22 "mcpwm.h"
 5248              		.file 23 "mc_interface.h"
 5249              		.file 24 "utils.h"
 5250              		.file 25 "commands.h"
 5251              		.file 26 "ChibiOS_3.0.5/os/hal/ports/STM32/STM32F4xx/stm32_dma.h"
 5252              		.file 27 "ChibiOS_3.0.5/os/hal/ports/STM32/LLD/GPIOv2/pal_lld.h"
 5253              		.file 28 "ChibiOS_3.0.5/os/hal/include/can.h"
 5254              		.file 29 "ChibiOS_3.0.5/os/hal/ports/STM32/LLD/can_lld.h"
 5255              		.file 30 "ChibiOS_3.0.5/os/hal/include/i2c.h"
 5256              		.file 31 "ChibiOS_3.0.5/os/hal/ports/STM32/LLD/I2Cv1/i2c_lld.h"
 5257              		.file 32 "ChibiOS_3.0.5/os/hal/include/icu.h"
 5258              		.file 33 "ChibiOS_3.0.5/os/hal/ports/STM32/LLD/TIMv1/icu_lld.h"
 5259              		.file 34 "ChibiOS_3.0.5/os/hal/ports/STM32/LLD/TIMv1/stm32_tim.h"
 5260              		.file 35 "ChibiOS_3.0.5/os/hal/include/serial.h"
 5261              		.file 36 "ChibiOS_3.0.5/os/hal/ports/STM32/LLD/USARTv1/serial_lld.h"
 5262              		.file 37 "ChibiOS_3.0.5/os/hal/include/spi.h"
 5263              		.file 38 "ChibiOS_3.0.5/os/hal/ports/STM32/LLD/SPIv1/spi_lld.h"
 5264              		.file 39 "ChibiOS_3.0.5/os/hal/include/usb.h"
 5265              		.file 40 "ChibiOS_3.0.5/os/hal/ports/STM32/LLD/OTGv1/usb_lld.h"
 5266              		.file 41 "ChibiOS_3.0.5/os/hal/ports/STM32/LLD/OTGv1/stm32_otg.h"
 5267              		.file 42 "/usr/arm-none-eabi/include/sys/lock.h"
 5268              		.file 43 "/usr/arm-none-eabi/include/sys/_types.h"
 5269              		.file 44 "/usr/arm-none-eabi/include/sys/reent.h"
 5270              		.file 45 "/usr/arm-none-eabi/include/math.h"
 5271              		.file 46 "comm_can.h"
 5272              		.file 47 "ChibiOS_3.0.5/os/rt/include/chthreads.h"
 5273              		.file 48 "mempools.h"
 5274              		.file 49 "applications/app.h"
 5275              		.file 50 "mcpwm_foc.h"
 5276              		.file 51 "timeout.h"
 5277              		.file 52 "encoder.h"
 5278              		.file 53 "eeprom.h"
 5279              		.file 54 "terminal.h"
 5280              		.file 55 "confgenerator.h"
 5281              		.file 56 "<built-in>"