ARM GAS  /tmp/cc4M9ACW.s 			page 1


   1              		.cpu cortex-m4
   2              		.eabi_attribute 27, 1
   3              		.eabi_attribute 28, 1
   4              		.eabi_attribute 20, 1
   5              		.eabi_attribute 21, 1
   6              		.eabi_attribute 23, 3
   7              		.eabi_attribute 24, 1
   8              		.eabi_attribute 25, 1
   9              		.eabi_attribute 26, 1
  10              		.eabi_attribute 30, 2
  11              		.eabi_attribute 34, 1
  12              		.eabi_attribute 18, 4
  13              		.file	"confgenerator.c"
  14              		.text
  15              	.Ltext0:
  16              		.cfi_sections	.debug_frame
  17              		.section	.text.confgenerator_serialize_mcconf,"ax",%progbits
  18              		.align	1
  19              		.p2align 4,,15
  20              		.global	confgenerator_serialize_mcconf
  21              		.syntax unified
  22              		.thumb
  23              		.thumb_func
  24              		.fpu fpv4-sp-d16
  25              		.type	confgenerator_serialize_mcconf, %function
  26              	confgenerator_serialize_mcconf:
  27              	.LFB219:
  28              		.file 1 "confgenerator.c"
  29              		.loc 1 7 0
  30              		.cfi_startproc
  31              		@ args = 0, pretend = 0, frame = 8
  32              		@ frame_needed = 0, uses_anonymous_args = 0
  33              	.LVL0:
  34 0000 70B5     		push	{r4, r5, r6, lr}
  35              		.cfi_def_cfa_offset 16
  36              		.cfi_offset 4, -16
  37              		.cfi_offset 5, -12
  38              		.cfi_offset 6, -8
  39              		.cfi_offset 14, -4
  40 0002 2DED048B 		vpush.64	{d8, d9}
  41              		.cfi_def_cfa_offset 32
  42              		.cfi_offset 80, -32
  43              		.cfi_offset 81, -28
  44              		.cfi_offset 82, -24
  45              		.cfi_offset 83, -20
  46 0006 82B0     		sub	sp, sp, #8
  47              		.cfi_def_cfa_offset 40
  48              		.loc 1 8 0
  49 0008 02AE     		add	r6, sp, #8
  50 000a 0023     		movs	r3, #0
  51 000c 46F8043D 		str	r3, [r6, #-4]!
  52              		.loc 1 7 0
  53 0010 0C46     		mov	r4, r1
  54              		.loc 1 10 0
  55 0012 3246     		mov	r2, r6
  56 0014 F749     		ldr	r1, .L4
  57              	.LVL1:
ARM GAS  /tmp/cc4M9ACW.s 			page 2


  58              		.loc 1 23 0
  59 0016 9FEDF88A 		vldr.32	s16, .L4+4
  60              		.loc 1 80 0
  61 001a 9FEDF89A 		vldr.32	s18, .L4+8
  62              		.loc 1 87 0
  63 001e DFEDF88A 		vldr.32	s17, .L4+12
  64              		.loc 1 7 0
  65 0022 0546     		mov	r5, r0
  66              		.loc 1 10 0
  67 0024 FFF7FEFF 		bl	buffer_append_uint32
  68              	.LVL2:
  69              		.loc 1 12 0
  70 0028 019B     		ldr	r3, [sp, #4]
  71 002a 94F88420 		ldrb	r2, [r4, #132]	@ zero_extendqisi2
  72 002e EA54     		strb	r2, [r5, r3]
  73              		.loc 1 13 0
  74 0030 EA18     		adds	r2, r5, r3
  75 0032 94F88510 		ldrb	r1, [r4, #133]	@ zero_extendqisi2
  76 0036 5170     		strb	r1, [r2, #1]
  77              		.loc 1 14 0
  78 0038 94F88610 		ldrb	r1, [r4, #134]	@ zero_extendqisi2
  79 003c 9170     		strb	r1, [r2, #2]
  80              		.loc 1 15 0
  81 003e 94F88710 		ldrb	r1, [r4, #135]	@ zero_extendqisi2
  82 0042 D170     		strb	r1, [r2, #3]
  83 0044 0433     		adds	r3, r3, #4
  84              		.loc 1 16 0
  85 0046 94ED000A 		vldr.32	s0, [r4]
  86              		.loc 1 15 0
  87 004a 0193     		str	r3, [sp, #4]
  88              		.loc 1 16 0
  89 004c 3146     		mov	r1, r6
  90 004e 2846     		mov	r0, r5
  91 0050 FFF7FEFF 		bl	buffer_append_float32_auto
  92              	.LVL3:
  93              		.loc 1 17 0
  94 0054 3146     		mov	r1, r6
  95 0056 94ED010A 		vldr.32	s0, [r4, #4]
  96 005a 2846     		mov	r0, r5
  97 005c FFF7FEFF 		bl	buffer_append_float32_auto
  98              	.LVL4:
  99              		.loc 1 18 0
 100 0060 3146     		mov	r1, r6
 101 0062 94ED020A 		vldr.32	s0, [r4, #8]
 102 0066 2846     		mov	r0, r5
 103 0068 FFF7FEFF 		bl	buffer_append_float32_auto
 104              	.LVL5:
 105              		.loc 1 19 0
 106 006c 3146     		mov	r1, r6
 107 006e 94ED030A 		vldr.32	s0, [r4, #12]
 108 0072 2846     		mov	r0, r5
 109 0074 FFF7FEFF 		bl	buffer_append_float32_auto
 110              	.LVL6:
 111              		.loc 1 20 0
 112 0078 3146     		mov	r1, r6
 113 007a 94ED040A 		vldr.32	s0, [r4, #16]
 114 007e 2846     		mov	r0, r5
ARM GAS  /tmp/cc4M9ACW.s 			page 3


 115 0080 FFF7FEFF 		bl	buffer_append_float32_auto
 116              	.LVL7:
 117              		.loc 1 21 0
 118 0084 3146     		mov	r1, r6
 119 0086 94ED050A 		vldr.32	s0, [r4, #20]
 120 008a 2846     		mov	r0, r5
 121 008c FFF7FEFF 		bl	buffer_append_float32_auto
 122              	.LVL8:
 123              		.loc 1 22 0
 124 0090 3146     		mov	r1, r6
 125 0092 94ED060A 		vldr.32	s0, [r4, #24]
 126 0096 2846     		mov	r0, r5
 127 0098 FFF7FEFF 		bl	buffer_append_float32_auto
 128              	.LVL9:
 129              		.loc 1 23 0
 130 009c F0EE480A 		vmov.f32	s1, s16
 131 00a0 3146     		mov	r1, r6
 132 00a2 94ED070A 		vldr.32	s0, [r4, #28]
 133 00a6 2846     		mov	r0, r5
 134 00a8 FFF7FEFF 		bl	buffer_append_float16
 135              	.LVL10:
 136              		.loc 1 24 0
 137 00ac 3146     		mov	r1, r6
 138 00ae 94ED080A 		vldr.32	s0, [r4, #32]
 139 00b2 2846     		mov	r0, r5
 140 00b4 FFF7FEFF 		bl	buffer_append_float32_auto
 141              	.LVL11:
 142              		.loc 1 25 0
 143 00b8 3146     		mov	r1, r6
 144 00ba 94ED090A 		vldr.32	s0, [r4, #36]
 145 00be 2846     		mov	r0, r5
 146 00c0 FFF7FEFF 		bl	buffer_append_float32_auto
 147              	.LVL12:
 148              		.loc 1 26 0
 149 00c4 3146     		mov	r1, r6
 150 00c6 94ED0A0A 		vldr.32	s0, [r4, #40]
 151 00ca 2846     		mov	r0, r5
 152 00cc FFF7FEFF 		bl	buffer_append_float32_auto
 153              	.LVL13:
 154              		.loc 1 27 0
 155 00d0 3146     		mov	r1, r6
 156 00d2 94ED0B0A 		vldr.32	s0, [r4, #44]
 157 00d6 2846     		mov	r0, r5
 158 00d8 FFF7FEFF 		bl	buffer_append_float32_auto
 159              	.LVL14:
 160              		.loc 1 28 0
 161 00dc 3146     		mov	r1, r6
 162 00de 94ED0C0A 		vldr.32	s0, [r4, #48]
 163 00e2 2846     		mov	r0, r5
 164 00e4 FFF7FEFF 		bl	buffer_append_float32_auto
 165              	.LVL15:
 166              		.loc 1 29 0
 167 00e8 3146     		mov	r1, r6
 168 00ea 94ED0D0A 		vldr.32	s0, [r4, #52]
 169 00ee 2846     		mov	r0, r5
 170 00f0 FFF7FEFF 		bl	buffer_append_float32_auto
 171              	.LVL16:
ARM GAS  /tmp/cc4M9ACW.s 			page 4


 172              		.loc 1 30 0
 173 00f4 019B     		ldr	r3, [sp, #4]
 174 00f6 94F83820 		ldrb	r2, [r4, #56]	@ zero_extendqisi2
 175 00fa EA54     		strb	r2, [r5, r3]
 176              		.loc 1 31 0
 177 00fc 3146     		mov	r1, r6
 178              		.loc 1 30 0
 179 00fe 0133     		adds	r3, r3, #1
 180              		.loc 1 31 0
 181 0100 94ED0F0A 		vldr.32	s0, [r4, #60]
 182              		.loc 1 30 0
 183 0104 0193     		str	r3, [sp, #4]
 184              		.loc 1 31 0
 185 0106 2846     		mov	r0, r5
 186 0108 F2EE040A 		vmov.f32	s1, #1.0e+1
 187 010c FFF7FEFF 		bl	buffer_append_float16
 188              	.LVL17:
 189              		.loc 1 32 0
 190 0110 3146     		mov	r1, r6
 191 0112 94ED100A 		vldr.32	s0, [r4, #64]
 192 0116 2846     		mov	r0, r5
 193 0118 F2EE040A 		vmov.f32	s1, #1.0e+1
 194 011c FFF7FEFF 		bl	buffer_append_float16
 195              	.LVL18:
 196              		.loc 1 33 0
 197 0120 3146     		mov	r1, r6
 198 0122 94ED110A 		vldr.32	s0, [r4, #68]
 199 0126 2846     		mov	r0, r5
 200 0128 F2EE040A 		vmov.f32	s1, #1.0e+1
 201 012c FFF7FEFF 		bl	buffer_append_float16
 202              	.LVL19:
 203              		.loc 1 34 0
 204 0130 3146     		mov	r1, r6
 205 0132 94ED120A 		vldr.32	s0, [r4, #72]
 206 0136 2846     		mov	r0, r5
 207 0138 F2EE040A 		vmov.f32	s1, #1.0e+1
 208 013c FFF7FEFF 		bl	buffer_append_float16
 209              	.LVL20:
 210              		.loc 1 35 0
 211 0140 3146     		mov	r1, r6
 212 0142 F0EE480A 		vmov.f32	s1, s16
 213 0146 94ED130A 		vldr.32	s0, [r4, #76]
 214 014a 2846     		mov	r0, r5
 215 014c FFF7FEFF 		bl	buffer_append_float16
 216              	.LVL21:
 217              		.loc 1 36 0
 218 0150 3146     		mov	r1, r6
 219 0152 F0EE480A 		vmov.f32	s1, s16
 220 0156 94ED140A 		vldr.32	s0, [r4, #80]
 221 015a 2846     		mov	r0, r5
 222 015c FFF7FEFF 		bl	buffer_append_float16
 223              	.LVL22:
 224              		.loc 1 37 0
 225 0160 F0EE480A 		vmov.f32	s1, s16
 226 0164 3146     		mov	r1, r6
 227 0166 94ED150A 		vldr.32	s0, [r4, #84]
 228 016a 2846     		mov	r0, r5
ARM GAS  /tmp/cc4M9ACW.s 			page 5


 229 016c FFF7FEFF 		bl	buffer_append_float16
 230              	.LVL23:
 231              		.loc 1 38 0
 232 0170 3146     		mov	r1, r6
 233 0172 94ED160A 		vldr.32	s0, [r4, #88]
 234 0176 2846     		mov	r0, r5
 235 0178 FFF7FEFF 		bl	buffer_append_float32_auto
 236              	.LVL24:
 237              		.loc 1 39 0
 238 017c 3146     		mov	r1, r6
 239 017e 94ED170A 		vldr.32	s0, [r4, #92]
 240 0182 2846     		mov	r0, r5
 241 0184 FFF7FEFF 		bl	buffer_append_float32_auto
 242              	.LVL25:
 243              		.loc 1 40 0
 244 0188 3146     		mov	r1, r6
 245 018a F0EE480A 		vmov.f32	s1, s16
 246 018e 94ED180A 		vldr.32	s0, [r4, #96]
 247 0192 2846     		mov	r0, r5
 248 0194 FFF7FEFF 		bl	buffer_append_float16
 249              	.LVL26:
 250              		.loc 1 41 0
 251 0198 3146     		mov	r1, r6
 252 019a F0EE480A 		vmov.f32	s1, s16
 253 019e 94ED190A 		vldr.32	s0, [r4, #100]
 254 01a2 2846     		mov	r0, r5
 255 01a4 FFF7FEFF 		bl	buffer_append_float16
 256              	.LVL27:
 257              		.loc 1 42 0
 258 01a8 F0EE480A 		vmov.f32	s1, s16
 259 01ac 3146     		mov	r1, r6
 260 01ae 94ED1A0A 		vldr.32	s0, [r4, #104]
 261 01b2 2846     		mov	r0, r5
 262 01b4 FFF7FEFF 		bl	buffer_append_float16
 263              	.LVL28:
 264              		.loc 1 43 0
 265 01b8 3146     		mov	r1, r6
 266 01ba 94ED220A 		vldr.32	s0, [r4, #136]
 267 01be 2846     		mov	r0, r5
 268 01c0 FFF7FEFF 		bl	buffer_append_float32_auto
 269              	.LVL29:
 270              		.loc 1 44 0
 271 01c4 3146     		mov	r1, r6
 272 01c6 94ED230A 		vldr.32	s0, [r4, #140]
 273 01ca 2846     		mov	r0, r5
 274 01cc FFF7FEFF 		bl	buffer_append_float32_auto
 275              	.LVL30:
 276              		.loc 1 45 0
 277 01d0 3146     		mov	r1, r6
 278 01d2 94ED240A 		vldr.32	s0, [r4, #144]
 279 01d6 2846     		mov	r0, r5
 280 01d8 FFF7FEFF 		bl	buffer_append_float32_auto
 281              	.LVL31:
 282              		.loc 1 46 0
 283 01dc 3146     		mov	r1, r6
 284 01de 94ED250A 		vldr.32	s0, [r4, #148]
 285 01e2 2846     		mov	r0, r5
ARM GAS  /tmp/cc4M9ACW.s 			page 6


 286 01e4 F2EE040A 		vmov.f32	s1, #1.0e+1
 287 01e8 FFF7FEFF 		bl	buffer_append_float16
 288              	.LVL32:
 289              		.loc 1 47 0
 290 01ec F0EE480A 		vmov.f32	s1, s16
 291 01f0 3146     		mov	r1, r6
 292 01f2 94ED260A 		vldr.32	s0, [r4, #152]
 293 01f6 2846     		mov	r0, r5
 294 01f8 FFF7FEFF 		bl	buffer_append_float16
 295              	.LVL33:
 296              		.loc 1 48 0
 297 01fc 3146     		mov	r1, r6
 298 01fe 94ED270A 		vldr.32	s0, [r4, #156]
 299 0202 2846     		mov	r0, r5
 300 0204 FFF7FEFF 		bl	buffer_append_float32_auto
 301              	.LVL34:
 302              		.loc 1 49 0
 303 0208 3146     		mov	r1, r6
 304 020a 94ED280A 		vldr.32	s0, [r4, #160]
 305 020e 2846     		mov	r0, r5
 306 0210 FFF7FEFF 		bl	buffer_append_float32_auto
 307              	.LVL35:
 308              		.loc 1 50 0
 309 0214 019A     		ldr	r2, [sp, #4]
 310 0216 94F8A430 		ldrb	r3, [r4, #164]	@ zero_extendqisi2
 311 021a AB54     		strb	r3, [r5, r2]
 312              		.loc 1 51 0
 313 021c AB18     		adds	r3, r5, r2
 314 021e 94F8A510 		ldrb	r1, [r4, #165]	@ zero_extendqisi2
 315 0222 5970     		strb	r1, [r3, #1]
 316              		.loc 1 52 0
 317 0224 94F8A610 		ldrb	r1, [r4, #166]	@ zero_extendqisi2
 318 0228 9970     		strb	r1, [r3, #2]
 319              		.loc 1 53 0
 320 022a 94F8A710 		ldrb	r1, [r4, #167]	@ zero_extendqisi2
 321 022e D970     		strb	r1, [r3, #3]
 322              		.loc 1 54 0
 323 0230 94F8A810 		ldrb	r1, [r4, #168]	@ zero_extendqisi2
 324 0234 1971     		strb	r1, [r3, #4]
 325              		.loc 1 55 0
 326 0236 94F8A910 		ldrb	r1, [r4, #169]	@ zero_extendqisi2
 327 023a 5971     		strb	r1, [r3, #5]
 328              		.loc 1 56 0
 329 023c 94F8AA10 		ldrb	r1, [r4, #170]	@ zero_extendqisi2
 330 0240 9971     		strb	r1, [r3, #6]
 331              		.loc 1 57 0
 332 0242 94F9AB10 		ldrsb	r1, [r4, #171]
 333 0246 D971     		strb	r1, [r3, #7]
 334 0248 0832     		adds	r2, r2, #8
 335              		.loc 1 58 0
 336 024a 94ED2B0A 		vldr.32	s0, [r4, #172]
 337              		.loc 1 57 0
 338 024e 0192     		str	r2, [sp, #4]
 339              		.loc 1 58 0
 340 0250 3146     		mov	r1, r6
 341 0252 2846     		mov	r0, r5
 342 0254 FFF7FEFF 		bl	buffer_append_float32_auto
ARM GAS  /tmp/cc4M9ACW.s 			page 7


 343              	.LVL36:
 344              		.loc 1 59 0
 345 0258 3146     		mov	r1, r6
 346 025a 94ED2C0A 		vldr.32	s0, [r4, #176]
 347 025e 2846     		mov	r0, r5
 348 0260 FFF7FEFF 		bl	buffer_append_float32_auto
 349              	.LVL37:
 350              		.loc 1 60 0
 351 0264 3146     		mov	r1, r6
 352 0266 94ED2D0A 		vldr.32	s0, [r4, #180]
 353 026a 2846     		mov	r0, r5
 354 026c FFF7FEFF 		bl	buffer_append_float32_auto
 355              	.LVL38:
 356              		.loc 1 61 0
 357 0270 3146     		mov	r1, r6
 358 0272 94ED2E0A 		vldr.32	s0, [r4, #184]
 359 0276 2846     		mov	r0, r5
 360 0278 FFF7FEFF 		bl	buffer_append_float32_auto
 361              	.LVL39:
 362              		.loc 1 62 0
 363 027c 3146     		mov	r1, r6
 364 027e 94ED2F0A 		vldr.32	s0, [r4, #188]
 365 0282 2846     		mov	r0, r5
 366 0284 FFF7FEFF 		bl	buffer_append_float32_auto
 367              	.LVL40:
 368              		.loc 1 63 0
 369 0288 019B     		ldr	r3, [sp, #4]
 370 028a 94F8C420 		ldrb	r2, [r4, #196]	@ zero_extendqisi2
 371 028e EA54     		strb	r2, [r5, r3]
 372              		.loc 1 64 0
 373 0290 3146     		mov	r1, r6
 374              		.loc 1 63 0
 375 0292 0133     		adds	r3, r3, #1
 376              		.loc 1 64 0
 377 0294 94ED300A 		vldr.32	s0, [r4, #192]
 378              		.loc 1 63 0
 379 0298 0193     		str	r3, [sp, #4]
 380              		.loc 1 64 0
 381 029a 2846     		mov	r0, r5
 382 029c FFF7FEFF 		bl	buffer_append_float32_auto
 383              	.LVL41:
 384              		.loc 1 65 0
 385 02a0 3146     		mov	r1, r6
 386 02a2 94ED320A 		vldr.32	s0, [r4, #200]
 387 02a6 2846     		mov	r0, r5
 388 02a8 FFF7FEFF 		bl	buffer_append_float32_auto
 389              	.LVL42:
 390              		.loc 1 66 0
 391 02ac 3146     		mov	r1, r6
 392 02ae 94ED340A 		vldr.32	s0, [r4, #208]
 393 02b2 2846     		mov	r0, r5
 394 02b4 FFF7FEFF 		bl	buffer_append_float32_auto
 395              	.LVL43:
 396              		.loc 1 67 0
 397 02b8 3146     		mov	r1, r6
 398 02ba 94ED360A 		vldr.32	s0, [r4, #216]
 399 02be 2846     		mov	r0, r5
ARM GAS  /tmp/cc4M9ACW.s 			page 8


 400 02c0 FFF7FEFF 		bl	buffer_append_float32_auto
 401              	.LVL44:
 402              		.loc 1 68 0
 403 02c4 3146     		mov	r1, r6
 404 02c6 94ED330A 		vldr.32	s0, [r4, #204]
 405 02ca 2846     		mov	r0, r5
 406 02cc FFF7FEFF 		bl	buffer_append_float32_auto
 407              	.LVL45:
 408              		.loc 1 69 0
 409 02d0 3146     		mov	r1, r6
 410 02d2 94ED350A 		vldr.32	s0, [r4, #212]
 411 02d6 2846     		mov	r0, r5
 412 02d8 FFF7FEFF 		bl	buffer_append_float32_auto
 413              	.LVL46:
 414              		.loc 1 70 0
 415 02dc 3146     		mov	r1, r6
 416 02de 94ED370A 		vldr.32	s0, [r4, #220]
 417 02e2 2846     		mov	r0, r5
 418 02e4 FFF7FEFF 		bl	buffer_append_float32_auto
 419              	.LVL47:
 420              		.loc 1 71 0
 421 02e8 019B     		ldr	r3, [sp, #4]
 422 02ea 94F82C21 		ldrb	r2, [r4, #300]	@ zero_extendqisi2
 423 02ee EA54     		strb	r2, [r5, r3]
 424              		.loc 1 72 0
 425 02f0 3146     		mov	r1, r6
 426              		.loc 1 71 0
 427 02f2 0133     		adds	r3, r3, #1
 428              		.loc 1 72 0
 429 02f4 94ED3F0A 		vldr.32	s0, [r4, #252]
 430              		.loc 1 71 0
 431 02f8 0193     		str	r3, [sp, #4]
 432              		.loc 1 72 0
 433 02fa 2846     		mov	r0, r5
 434 02fc FFF7FEFF 		bl	buffer_append_float32_auto
 435              	.LVL48:
 436              		.loc 1 73 0
 437 0300 3146     		mov	r1, r6
 438 0302 94ED400A 		vldr.32	s0, [r4, #256]
 439 0306 2846     		mov	r0, r5
 440 0308 FFF7FEFF 		bl	buffer_append_float32_auto
 441              	.LVL49:
 442              		.loc 1 74 0
 443 030c 3146     		mov	r1, r6
 444 030e 94ED380A 		vldr.32	s0, [r4, #224]
 445 0312 2846     		mov	r0, r5
 446 0314 FFF7FEFF 		bl	buffer_append_float32_auto
 447              	.LVL50:
 448              		.loc 1 75 0
 449 0318 3146     		mov	r1, r6
 450 031a 94ED390A 		vldr.32	s0, [r4, #228]
 451 031e 2846     		mov	r0, r5
 452 0320 FFF7FEFF 		bl	buffer_append_float32_auto
 453              	.LVL51:
 454              		.loc 1 76 0
 455 0324 3146     		mov	r1, r6
 456 0326 94ED3A0A 		vldr.32	s0, [r4, #232]
ARM GAS  /tmp/cc4M9ACW.s 			page 9


 457 032a 2846     		mov	r0, r5
 458 032c FFF7FEFF 		bl	buffer_append_float32_auto
 459              	.LVL52:
 460              		.loc 1 77 0
 461 0330 3146     		mov	r1, r6
 462 0332 94ED3B0A 		vldr.32	s0, [r4, #236]
 463 0336 2846     		mov	r0, r5
 464 0338 FFF7FEFF 		bl	buffer_append_float32_auto
 465              	.LVL53:
 466              		.loc 1 78 0
 467 033c 3146     		mov	r1, r6
 468 033e 94ED3C0A 		vldr.32	s0, [r4, #240]
 469 0342 2846     		mov	r0, r5
 470 0344 FFF7FEFF 		bl	buffer_append_float32_auto
 471              	.LVL54:
 472              		.loc 1 79 0
 473 0348 3146     		mov	r1, r6
 474 034a 94ED3D0A 		vldr.32	s0, [r4, #244]
 475 034e 2846     		mov	r0, r5
 476 0350 FFF7FEFF 		bl	buffer_append_float32_auto
 477              	.LVL55:
 478              		.loc 1 80 0
 479 0354 F0EE490A 		vmov.f32	s1, s18
 480 0358 3146     		mov	r1, r6
 481 035a 94ED3E0A 		vldr.32	s0, [r4, #248]
 482 035e 2846     		mov	r0, r5
 483 0360 FFF7FEFF 		bl	buffer_append_float16
 484              	.LVL56:
 485              		.loc 1 81 0
 486 0364 3146     		mov	r1, r6
 487 0366 94ED410A 		vldr.32	s0, [r4, #260]
 488 036a 2846     		mov	r0, r5
 489 036c FFF7FEFF 		bl	buffer_append_float32_auto
 490              	.LVL57:
 491              		.loc 1 82 0
 492 0370 3146     		mov	r1, r6
 493 0372 94ED420A 		vldr.32	s0, [r4, #264]
 494 0376 2846     		mov	r0, r5
 495 0378 FFF7FEFF 		bl	buffer_append_float32_auto
 496              	.LVL58:
 497              		.loc 1 83 0
 498 037c 3146     		mov	r1, r6
 499 037e 94ED430A 		vldr.32	s0, [r4, #268]
 500 0382 2846     		mov	r0, r5
 501 0384 FFF7FEFF 		bl	buffer_append_float32_auto
 502              	.LVL59:
 503              		.loc 1 84 0
 504 0388 F0EE490A 		vmov.f32	s1, s18
 505 038c 3146     		mov	r1, r6
 506 038e 94ED440A 		vldr.32	s0, [r4, #272]
 507 0392 2846     		mov	r0, r5
 508 0394 FFF7FEFF 		bl	buffer_append_float16
 509              	.LVL60:
 510              		.loc 1 85 0
 511 0398 3146     		mov	r1, r6
 512 039a 94ED450A 		vldr.32	s0, [r4, #276]
 513 039e 2846     		mov	r0, r5
ARM GAS  /tmp/cc4M9ACW.s 			page 10


 514 03a0 FFF7FEFF 		bl	buffer_append_float32_auto
 515              	.LVL61:
 516              		.loc 1 86 0
 517 03a4 3146     		mov	r1, r6
 518 03a6 94ED460A 		vldr.32	s0, [r4, #280]
 519 03aa 2846     		mov	r0, r5
 520 03ac FFF7FEFF 		bl	buffer_append_float32_auto
 521              	.LVL62:
 522              		.loc 1 87 0
 523 03b0 3146     		mov	r1, r6
 524 03b2 94ED470A 		vldr.32	s0, [r4, #284]
 525 03b6 2846     		mov	r0, r5
 526 03b8 F0EE680A 		vmov.f32	s1, s17
 527 03bc FFF7FEFF 		bl	buffer_append_float16
 528              	.LVL63:
 529              		.loc 1 88 0
 530 03c0 3146     		mov	r1, r6
 531 03c2 F0EE680A 		vmov.f32	s1, s17
 532 03c6 94ED490A 		vldr.32	s0, [r4, #292]
 533 03ca 2846     		mov	r0, r5
 534 03cc FFF7FEFF 		bl	buffer_append_float16
 535              	.LVL64:
 536              		.loc 1 89 0
 537 03d0 3146     		mov	r1, r6
 538 03d2 F0EE680A 		vmov.f32	s1, s17
 539 03d6 94ED4A0A 		vldr.32	s0, [r4, #296]
 540 03da 2846     		mov	r0, r5
 541 03dc FFF7FEFF 		bl	buffer_append_float16
 542              	.LVL65:
 543              		.loc 1 90 0
 544 03e0 F0EE680A 		vmov.f32	s1, s17
 545 03e4 3146     		mov	r1, r6
 546 03e6 94ED480A 		vldr.32	s0, [r4, #288]
 547 03ea 2846     		mov	r0, r5
 548 03ec FFF7FEFF 		bl	buffer_append_float16
 549              	.LVL66:
 550              		.loc 1 91 0
 551 03f0 019A     		ldr	r2, [sp, #4]
 552 03f2 07E0     		b	.L5
 553              	.L6:
 554              		.align	2
 555              	.L4:
 556 03f4 116BB23C 		.word	1018325777
 557 03f8 00401C46 		.word	1176256512
 558 03fc 00007A44 		.word	1148846080
 559 0400 0000C842 		.word	1120403456
 560              	.L5:
 561 0404 94F82D31 		ldrb	r3, [r4, #301]	@ zero_extendqisi2
 562 0408 AB54     		strb	r3, [r5, r2]
 563              		.loc 1 92 0
 564 040a AB18     		adds	r3, r5, r2
 565 040c 94F82E11 		ldrb	r1, [r4, #302]	@ zero_extendqisi2
 566 0410 5970     		strb	r1, [r3, #1]
 567              		.loc 1 93 0
 568 0412 94F82F11 		ldrb	r1, [r4, #303]	@ zero_extendqisi2
 569 0416 9970     		strb	r1, [r3, #2]
 570              		.loc 1 94 0
ARM GAS  /tmp/cc4M9ACW.s 			page 11


 571 0418 94F83011 		ldrb	r1, [r4, #304]	@ zero_extendqisi2
 572 041c D970     		strb	r1, [r3, #3]
 573              		.loc 1 95 0
 574 041e 94F83111 		ldrb	r1, [r4, #305]	@ zero_extendqisi2
 575 0422 1971     		strb	r1, [r3, #4]
 576              		.loc 1 96 0
 577 0424 94F83211 		ldrb	r1, [r4, #306]	@ zero_extendqisi2
 578 0428 5971     		strb	r1, [r3, #5]
 579              		.loc 1 97 0
 580 042a 94F83311 		ldrb	r1, [r4, #307]	@ zero_extendqisi2
 581 042e 9971     		strb	r1, [r3, #6]
 582              		.loc 1 98 0
 583 0430 94F83411 		ldrb	r1, [r4, #308]	@ zero_extendqisi2
 584 0434 D971     		strb	r1, [r3, #7]
 585 0436 0832     		adds	r2, r2, #8
 586              		.loc 1 99 0
 587 0438 94ED4E0A 		vldr.32	s0, [r4, #312]
 588              		.loc 1 98 0
 589 043c 0192     		str	r2, [sp, #4]
 590              		.loc 1 99 0
 591 043e 3146     		mov	r1, r6
 592 0440 2846     		mov	r0, r5
 593 0442 FFF7FEFF 		bl	buffer_append_float32_auto
 594              	.LVL67:
 595              		.loc 1 100 0
 596 0446 3146     		mov	r1, r6
 597 0448 94ED4F0A 		vldr.32	s0, [r4, #316]
 598 044c 2846     		mov	r0, r5
 599 044e FFF7FEFF 		bl	buffer_append_float32_auto
 600              	.LVL68:
 601              		.loc 1 101 0
 602 0452 019B     		ldr	r3, [sp, #4]
 603 0454 94F84021 		ldrb	r2, [r4, #320]	@ zero_extendqisi2
 604 0458 EA54     		strb	r2, [r5, r3]
 605              		.loc 1 102 0
 606 045a EA18     		adds	r2, r5, r3
 607 045c 94F84111 		ldrb	r1, [r4, #321]	@ zero_extendqisi2
 608 0460 5170     		strb	r1, [r2, #1]
 609 0462 0233     		adds	r3, r3, #2
 610              		.loc 1 103 0
 611 0464 94ED510A 		vldr.32	s0, [r4, #324]
 612              		.loc 1 102 0
 613 0468 0193     		str	r3, [sp, #4]
 614              		.loc 1 103 0
 615 046a 3146     		mov	r1, r6
 616 046c F0EE490A 		vmov.f32	s1, s18
 617 0470 2846     		mov	r0, r5
 618 0472 FFF7FEFF 		bl	buffer_append_float16
 619              	.LVL69:
 620              		.loc 1 104 0
 621 0476 019B     		ldr	r3, [sp, #4]
 622 0478 94F84821 		ldrb	r2, [r4, #328]	@ zero_extendqisi2
 623 047c EA54     		strb	r2, [r5, r3]
 624              		.loc 1 105 0
 625 047e 3146     		mov	r1, r6
 626              		.loc 1 104 0
 627 0480 0133     		adds	r3, r3, #1
ARM GAS  /tmp/cc4M9ACW.s 			page 12


 628              		.loc 1 105 0
 629 0482 94ED530A 		vldr.32	s0, [r4, #332]
 630              		.loc 1 104 0
 631 0486 0193     		str	r3, [sp, #4]
 632              		.loc 1 105 0
 633 0488 F0EE680A 		vmov.f32	s1, s17
 634 048c 2846     		mov	r0, r5
 635 048e FFF7FEFF 		bl	buffer_append_float16
 636              	.LVL70:
 637              		.loc 1 106 0
 638 0492 F0EE480A 		vmov.f32	s1, s16
 639 0496 3146     		mov	r1, r6
 640 0498 94ED540A 		vldr.32	s0, [r4, #336]
 641 049c 2846     		mov	r0, r5
 642 049e FFF7FEFF 		bl	buffer_append_float16
 643              	.LVL71:
 644              		.loc 1 107 0
 645 04a2 019B     		ldr	r3, [sp, #4]
 646 04a4 94F85421 		ldrb	r2, [r4, #340]	@ zero_extendqisi2
 647 04a8 EA54     		strb	r2, [r5, r3]
 648              		.loc 1 108 0
 649 04aa EA18     		adds	r2, r5, r3
 650 04ac 94F85511 		ldrb	r1, [r4, #341]	@ zero_extendqisi2
 651 04b0 5170     		strb	r1, [r2, #1]
 652 04b2 0233     		adds	r3, r3, #2
 653              		.loc 1 109 0
 654 04b4 94ED560A 		vldr.32	s0, [r4, #344]
 655              		.loc 1 108 0
 656 04b8 0193     		str	r3, [sp, #4]
 657              		.loc 1 109 0
 658 04ba 3146     		mov	r1, r6
 659 04bc 2846     		mov	r0, r5
 660 04be FFF7FEFF 		bl	buffer_append_float32_auto
 661              	.LVL72:
 662              		.loc 1 110 0
 663 04c2 3146     		mov	r1, r6
 664 04c4 94ED570A 		vldr.32	s0, [r4, #348]
 665 04c8 2846     		mov	r0, r5
 666 04ca FFF7FEFF 		bl	buffer_append_float32_auto
 667              	.LVL73:
 668              		.loc 1 111 0
 669 04ce 3146     		mov	r1, r6
 670 04d0 94ED580A 		vldr.32	s0, [r4, #352]
 671 04d4 2846     		mov	r0, r5
 672 04d6 FFF7FEFF 		bl	buffer_append_float32_auto
 673              	.LVL74:
 674              		.loc 1 112 0
 675 04da 94ED590A 		vldr.32	s0, [r4, #356]
 676 04de 3146     		mov	r1, r6
 677 04e0 2846     		mov	r0, r5
 678 04e2 FFF7FEFF 		bl	buffer_append_float32_auto
 679              	.LVL75:
 680              		.loc 1 113 0
 681 04e6 3246     		mov	r2, r6
 682 04e8 B4F86811 		ldrh	r1, [r4, #360]
 683 04ec 2846     		mov	r0, r5
 684 04ee FFF7FEFF 		bl	buffer_append_uint16
ARM GAS  /tmp/cc4M9ACW.s 			page 13


 685              	.LVL76:
 686              		.loc 1 114 0
 687 04f2 3146     		mov	r1, r6
 688 04f4 94ED5B0A 		vldr.32	s0, [r4, #364]
 689 04f8 2846     		mov	r0, r5
 690 04fa FFF7FEFF 		bl	buffer_append_float32_auto
 691              	.LVL77:
 692              		.loc 1 115 0
 693 04fe 019B     		ldr	r3, [sp, #4]
 694 0500 94F87021 		ldrb	r2, [r4, #368]	@ zero_extendqisi2
 695 0504 EA54     		strb	r2, [r5, r3]
 696              		.loc 1 116 0
 697 0506 EA18     		adds	r2, r5, r3
 698 0508 94F87111 		ldrb	r1, [r4, #369]	@ zero_extendqisi2
 699 050c 5170     		strb	r1, [r2, #1]
 700 050e 0233     		adds	r3, r3, #2
 701              		.loc 1 117 0
 702 0510 94ED5D0A 		vldr.32	s0, [r4, #372]
 703              		.loc 1 116 0
 704 0514 0193     		str	r3, [sp, #4]
 705              		.loc 1 117 0
 706 0516 3146     		mov	r1, r6
 707 0518 2846     		mov	r0, r5
 708 051a FFF7FEFF 		bl	buffer_append_float32_auto
 709              	.LVL78:
 710              		.loc 1 118 0
 711 051e 3146     		mov	r1, r6
 712 0520 94ED5E0A 		vldr.32	s0, [r4, #376]
 713 0524 2846     		mov	r0, r5
 714 0526 FFF7FEFF 		bl	buffer_append_float32_auto
 715              	.LVL79:
 716              		.loc 1 119 0
 717 052a 3146     		mov	r1, r6
 718 052c 94ED5F0A 		vldr.32	s0, [r4, #380]
 719 0530 2846     		mov	r0, r5
 720 0532 FFF7FEFF 		bl	buffer_append_float32_auto
 721              	.LVL80:
 722              		.loc 1 120 0
 723 0536 3146     		mov	r1, r6
 724 0538 F0EE480A 		vmov.f32	s1, s16
 725 053c 94ED600A 		vldr.32	s0, [r4, #384]
 726 0540 2846     		mov	r0, r5
 727 0542 FFF7FEFF 		bl	buffer_append_float16
 728              	.LVL81:
 729              		.loc 1 121 0
 730 0546 3146     		mov	r1, r6
 731 0548 F0EE480A 		vmov.f32	s1, s16
 732 054c 94ED610A 		vldr.32	s0, [r4, #388]
 733 0550 2846     		mov	r0, r5
 734 0552 FFF7FEFF 		bl	buffer_append_float16
 735              	.LVL82:
 736              		.loc 1 122 0
 737 0556 3146     		mov	r1, r6
 738 0558 F0EE480A 		vmov.f32	s1, s16
 739 055c 94ED620A 		vldr.32	s0, [r4, #392]
 740 0560 2846     		mov	r0, r5
 741 0562 FFF7FEFF 		bl	buffer_append_float16
ARM GAS  /tmp/cc4M9ACW.s 			page 14


 742              	.LVL83:
 743              		.loc 1 123 0
 744 0566 3146     		mov	r1, r6
 745 0568 F0EE480A 		vmov.f32	s1, s16
 746 056c 94ED630A 		vldr.32	s0, [r4, #396]
 747 0570 2846     		mov	r0, r5
 748 0572 FFF7FEFF 		bl	buffer_append_float16
 749              	.LVL84:
 750              		.loc 1 124 0
 751 0576 3146     		mov	r1, r6
 752 0578 F0EE480A 		vmov.f32	s1, s16
 753 057c 94ED640A 		vldr.32	s0, [r4, #400]
 754 0580 2846     		mov	r0, r5
 755 0582 FFF7FEFF 		bl	buffer_append_float16
 756              	.LVL85:
 757              		.loc 1 125 0
 758 0586 F0EE480A 		vmov.f32	s1, s16
 759 058a 3146     		mov	r1, r6
 760 058c 94ED650A 		vldr.32	s0, [r4, #404]
 761 0590 2846     		mov	r0, r5
 762 0592 FFF7FEFF 		bl	buffer_append_float16
 763              	.LVL86:
 764              		.loc 1 126 0
 765 0596 019B     		ldr	r3, [sp, #4]
 766 0598 94F89821 		ldrb	r2, [r4, #408]	@ zero_extendqisi2
 767 059c EA54     		strb	r2, [r5, r3]
 768              		.loc 1 127 0
 769 059e 3146     		mov	r1, r6
 770              		.loc 1 126 0
 771 05a0 0133     		adds	r3, r3, #1
 772              		.loc 1 127 0
 773 05a2 94ED670A 		vldr.32	s0, [r4, #412]
 774              		.loc 1 126 0
 775 05a6 0193     		str	r3, [sp, #4]
 776              		.loc 1 127 0
 777 05a8 2846     		mov	r0, r5
 778 05aa FFF7FEFF 		bl	buffer_append_float32_auto
 779              	.LVL87:
 780              		.loc 1 128 0
 781 05ae 019B     		ldr	r3, [sp, #4]
 782 05b0 94F8A021 		ldrb	r2, [r4, #416]	@ zero_extendqisi2
 783 05b4 EA54     		strb	r2, [r5, r3]
 784              		.loc 1 129 0
 785 05b6 3146     		mov	r1, r6
 786              		.loc 1 128 0
 787 05b8 0133     		adds	r3, r3, #1
 788              		.loc 1 129 0
 789 05ba 94ED690A 		vldr.32	s0, [r4, #420]
 790              		.loc 1 128 0
 791 05be 0193     		str	r3, [sp, #4]
 792              		.loc 1 129 0
 793 05c0 2846     		mov	r0, r5
 794 05c2 FFF7FEFF 		bl	buffer_append_float32_auto
 795              	.LVL88:
 796              		.loc 1 130 0
 797 05c6 3146     		mov	r1, r6
 798 05c8 F0EE480A 		vmov.f32	s1, s16
ARM GAS  /tmp/cc4M9ACW.s 			page 15


 799 05cc 94ED6A0A 		vldr.32	s0, [r4, #424]
 800 05d0 2846     		mov	r0, r5
 801 05d2 FFF7FEFF 		bl	buffer_append_float16
 802              	.LVL89:
 803              		.loc 1 131 0
 804 05d6 3146     		mov	r1, r6
 805 05d8 F0EE490A 		vmov.f32	s1, s18
 806 05dc 94ED6B0A 		vldr.32	s0, [r4, #428]
 807 05e0 2846     		mov	r0, r5
 808 05e2 FFF7FEFF 		bl	buffer_append_float16
 809              	.LVL90:
 810              		.loc 1 132 0
 811 05e6 F0EE480A 		vmov.f32	s1, s16
 812 05ea 94ED6C0A 		vldr.32	s0, [r4, #432]
 813 05ee 3146     		mov	r1, r6
 814 05f0 2846     		mov	r0, r5
 815 05f2 FFF7FEFF 		bl	buffer_append_float16
 816              	.LVL91:
 817              		.loc 1 133 0
 818 05f6 3246     		mov	r2, r6
 819 05f8 B4F9B411 		ldrsh	r1, [r4, #436]
 820 05fc 2846     		mov	r0, r5
 821 05fe FFF7FEFF 		bl	buffer_append_int16
 822              	.LVL92:
 823              		.loc 1 134 0
 824 0602 3246     		mov	r2, r6
 825 0604 B4F9B811 		ldrsh	r1, [r4, #440]
 826 0608 2846     		mov	r0, r5
 827 060a FFF7FEFF 		bl	buffer_append_int16
 828              	.LVL93:
 829              		.loc 1 135 0
 830 060e F0EE480A 		vmov.f32	s1, s16
 831 0612 3146     		mov	r1, r6
 832 0614 94ED6F0A 		vldr.32	s0, [r4, #444]
 833 0618 2846     		mov	r0, r5
 834 061a FFF7FEFF 		bl	buffer_append_float16
 835              	.LVL94:
 836              		.loc 1 136 0
 837 061e 3146     		mov	r1, r6
 838 0620 94ED700A 		vldr.32	s0, [r4, #448]
 839 0624 2846     		mov	r0, r5
 840 0626 FFF7FEFF 		bl	buffer_append_float32_auto
 841              	.LVL95:
 842              		.loc 1 137 0
 843 062a 3146     		mov	r1, r6
 844 062c 94ED710A 		vldr.32	s0, [r4, #452]
 845 0630 2846     		mov	r0, r5
 846 0632 FFF7FEFF 		bl	buffer_append_float32_auto
 847              	.LVL96:
 848              		.loc 1 138 0
 849 0636 019B     		ldr	r3, [sp, #4]
 850 0638 94F8C821 		ldrb	r2, [r4, #456]	@ zero_extendqisi2
 851 063c EA54     		strb	r2, [r5, r3]
 852              		.loc 1 139 0
 853 063e 3146     		mov	r1, r6
 854              		.loc 1 138 0
 855 0640 0133     		adds	r3, r3, #1
ARM GAS  /tmp/cc4M9ACW.s 			page 16


 856              		.loc 1 139 0
 857 0642 94ED730A 		vldr.32	s0, [r4, #460]
 858              		.loc 1 138 0
 859 0646 0193     		str	r3, [sp, #4]
 860              		.loc 1 139 0
 861 0648 2846     		mov	r0, r5
 862 064a FFF7FEFF 		bl	buffer_append_float32_auto
 863              	.LVL97:
 864              		.loc 1 140 0
 865 064e 3146     		mov	r1, r6
 866 0650 94ED740A 		vldr.32	s0, [r4, #464]
 867 0654 2846     		mov	r0, r5
 868 0656 FFF7FEFF 		bl	buffer_append_float32_auto
 869              	.LVL98:
 870              		.loc 1 141 0
 871 065a 3146     		mov	r1, r6
 872 065c 94ED750A 		vldr.32	s0, [r4, #468]
 873 0660 2846     		mov	r0, r5
 874 0662 FFF7FEFF 		bl	buffer_append_float32_auto
 875              	.LVL99:
 876              		.loc 1 142 0
 877 0666 F0EE480A 		vmov.f32	s1, s16
 878 066a 3146     		mov	r1, r6
 879 066c 94ED760A 		vldr.32	s0, [r4, #472]
 880 0670 2846     		mov	r0, r5
 881 0672 FFF7FEFF 		bl	buffer_append_float16
 882              	.LVL100:
 883              		.loc 1 143 0
 884 0676 3146     		mov	r1, r6
 885 0678 94ED770A 		vldr.32	s0, [r4, #476]
 886 067c 2846     		mov	r0, r5
 887 067e FFF7FEFF 		bl	buffer_append_float32_auto
 888              	.LVL101:
 889              		.loc 1 144 0
 890 0682 019B     		ldr	r3, [sp, #4]
 891 0684 94F8E021 		ldrb	r2, [r4, #480]	@ zero_extendqisi2
 892 0688 EA54     		strb	r2, [r5, r3]
 893              		.loc 1 145 0
 894 068a 3146     		mov	r1, r6
 895              		.loc 1 144 0
 896 068c 0133     		adds	r3, r3, #1
 897              		.loc 1 145 0
 898 068e 94ED790A 		vldr.32	s0, [r4, #484]
 899              		.loc 1 144 0
 900 0692 0193     		str	r3, [sp, #4]
 901              		.loc 1 145 0
 902 0694 2846     		mov	r0, r5
 903 0696 FFF7FEFF 		bl	buffer_append_float32_auto
 904              	.LVL102:
 905              		.loc 1 146 0
 906 069a 3146     		mov	r1, r6
 907 069c 94ED7A0A 		vldr.32	s0, [r4, #488]
 908 06a0 2846     		mov	r0, r5
 909 06a2 FFF7FEFF 		bl	buffer_append_float32_auto
 910              	.LVL103:
 911              		.loc 1 147 0
 912 06a6 3146     		mov	r1, r6
ARM GAS  /tmp/cc4M9ACW.s 			page 17


 913 06a8 94ED7B0A 		vldr.32	s0, [r4, #492]
 914 06ac 2846     		mov	r0, r5
 915 06ae FFF7FEFF 		bl	buffer_append_float32_auto
 916              	.LVL104:
 917              		.loc 1 148 0
 918 06b2 3146     		mov	r1, r6
 919 06b4 94ED7C0A 		vldr.32	s0, [r4, #496]
 920 06b8 2846     		mov	r0, r5
 921 06ba FFF7FEFF 		bl	buffer_append_float32_auto
 922              	.LVL105:
 923              		.loc 1 149 0
 924 06be 3146     		mov	r1, r6
 925 06c0 94ED7D0A 		vldr.32	s0, [r4, #500]
 926 06c4 2846     		mov	r0, r5
 927 06c6 FFF7FEFF 		bl	buffer_append_float32_auto
 928              	.LVL106:
 929              		.loc 1 150 0
 930 06ca 3146     		mov	r1, r6
 931 06cc 94ED7E0A 		vldr.32	s0, [r4, #504]
 932 06d0 2846     		mov	r0, r5
 933 06d2 FFF7FEFF 		bl	buffer_append_float32_auto
 934              	.LVL107:
 935              		.loc 1 151 0
 936 06d6 3146     		mov	r1, r6
 937 06d8 94ED7F0A 		vldr.32	s0, [r4, #508]
 938 06dc 2846     		mov	r0, r5
 939 06de FFF7FEFF 		bl	buffer_append_float32_auto
 940              	.LVL108:
 941              		.loc 1 152 0
 942 06e2 F2EE040A 		vmov.f32	s1, #1.0e+1
 943 06e6 3146     		mov	r1, r6
 944 06e8 94ED800A 		vldr.32	s0, [r4, #512]
 945 06ec 2846     		mov	r0, r5
 946 06ee FFF7FEFF 		bl	buffer_append_float16
 947              	.LVL109:
 948              		.loc 1 153 0
 949 06f2 3146     		mov	r1, r6
 950 06f4 94ED810A 		vldr.32	s0, [r4, #516]
 951 06f8 2846     		mov	r0, r5
 952 06fa FFF7FEFF 		bl	buffer_append_float32_auto
 953              	.LVL110:
 954              		.loc 1 154 0
 955 06fe 3146     		mov	r1, r6
 956 0700 94ED820A 		vldr.32	s0, [r4, #520]
 957 0704 2846     		mov	r0, r5
 958 0706 FFF7FEFF 		bl	buffer_append_float32_auto
 959              	.LVL111:
 960              		.loc 1 155 0
 961 070a 3146     		mov	r1, r6
 962 070c 94ED830A 		vldr.32	s0, [r4, #524]
 963 0710 2846     		mov	r0, r5
 964 0712 FFF7FEFF 		bl	buffer_append_float32_auto
 965              	.LVL112:
 966              		.loc 1 156 0
 967 0716 3146     		mov	r1, r6
 968 0718 94ED840A 		vldr.32	s0, [r4, #528]
 969 071c 2846     		mov	r0, r5
ARM GAS  /tmp/cc4M9ACW.s 			page 18


 970 071e FFF7FEFF 		bl	buffer_append_float32_auto
 971              	.LVL113:
 972              		.loc 1 157 0
 973 0722 94ED850A 		vldr.32	s0, [r4, #532]
 974 0726 3146     		mov	r1, r6
 975 0728 2846     		mov	r0, r5
 976 072a FFF7FEFF 		bl	buffer_append_float32_auto
 977              	.LVL114:
 978              		.loc 1 158 0
 979 072e 3246     		mov	r2, r6
 980 0730 D4F81812 		ldr	r1, [r4, #536]
 981 0734 2846     		mov	r0, r5
 982 0736 FFF7FEFF 		bl	buffer_append_int32
 983              	.LVL115:
 984              		.loc 1 159 0
 985 073a 3146     		mov	r1, r6
 986 073c 94ED870A 		vldr.32	s0, [r4, #540]
 987 0740 2846     		mov	r0, r5
 988 0742 FFF7FEFF 		bl	buffer_append_float32_auto
 989              	.LVL116:
 990              		.loc 1 160 0
 991 0746 94ED880A 		vldr.32	s0, [r4, #544]
 992 074a 3146     		mov	r1, r6
 993 074c 2846     		mov	r0, r5
 994 074e FFF7FEFF 		bl	buffer_append_float32_auto
 995              	.LVL117:
 996              		.loc 1 161 0
 997 0752 3246     		mov	r2, r6
 998 0754 D4F82412 		ldr	r1, [r4, #548]
 999 0758 2846     		mov	r0, r5
 1000 075a FFF7FEFF 		bl	buffer_append_uint32
 1001              	.LVL118:
 1002              		.loc 1 162 0
 1003 075e 019B     		ldr	r3, [sp, #4]
 1004 0760 94F82822 		ldrb	r2, [r4, #552]	@ zero_extendqisi2
 1005 0764 EA54     		strb	r2, [r5, r3]
 1006              		.loc 1 163 0
 1007 0766 EA18     		adds	r2, r5, r3
 1008 0768 94F82912 		ldrb	r1, [r4, #553]	@ zero_extendqisi2
 1009 076c 5170     		strb	r1, [r2, #1]
 1010              		.loc 1 164 0
 1011 076e 94F82A12 		ldrb	r1, [r4, #554]	@ zero_extendqisi2
 1012 0772 9170     		strb	r1, [r2, #2]
 1013              		.loc 1 165 0
 1014 0774 D4F82C12 		ldr	r1, [r4, #556]
 1015 0778 D170     		strb	r1, [r2, #3]
 1016 077a 0433     		adds	r3, r3, #4
 1017              		.loc 1 166 0
 1018 077c 94ED8C0A 		vldr.32	s0, [r4, #560]
 1019              		.loc 1 165 0
 1020 0780 0193     		str	r3, [sp, #4]
 1021              		.loc 1 166 0
 1022 0782 3146     		mov	r1, r6
 1023 0784 2846     		mov	r0, r5
 1024 0786 FFF7FEFF 		bl	buffer_append_float32_auto
 1025              	.LVL119:
 1026              		.loc 1 167 0
ARM GAS  /tmp/cc4M9ACW.s 			page 19


 1027 078a 3146     		mov	r1, r6
 1028 078c 94ED8D0A 		vldr.32	s0, [r4, #564]
 1029 0790 2846     		mov	r0, r5
 1030 0792 FFF7FEFF 		bl	buffer_append_float32_auto
 1031              	.LVL120:
 1032              		.loc 1 168 0
 1033 0796 3146     		mov	r1, r6
 1034 0798 94ED8E0A 		vldr.32	s0, [r4, #568]
 1035 079c 2846     		mov	r0, r5
 1036 079e FFF7FEFF 		bl	buffer_append_float32_auto
 1037              	.LVL121:
 1038              		.loc 1 169 0
 1039 07a2 3146     		mov	r1, r6
 1040 07a4 94ED8F0A 		vldr.32	s0, [r4, #572]
 1041 07a8 2846     		mov	r0, r5
 1042 07aa FFF7FEFF 		bl	buffer_append_float32_auto
 1043              	.LVL122:
 1044              		.loc 1 170 0
 1045 07ae 019B     		ldr	r3, [sp, #4]
 1046 07b0 94F84022 		ldrb	r2, [r4, #576]	@ zero_extendqisi2
 1047 07b4 EA54     		strb	r2, [r5, r3]
 1048              		.loc 1 171 0
 1049 07b6 EA18     		adds	r2, r5, r3
 1050 07b8 94F84112 		ldrb	r1, [r4, #577]	@ zero_extendqisi2
 1051 07bc 5170     		strb	r1, [r2, #1]
 1052 07be 0233     		adds	r3, r3, #2
 1053              		.loc 1 172 0
 1054 07c0 94ED910A 		vldr.32	s0, [r4, #580]
 1055              		.loc 1 171 0
 1056 07c4 0193     		str	r3, [sp, #4]
 1057              		.loc 1 172 0
 1058 07c6 3146     		mov	r1, r6
 1059 07c8 2846     		mov	r0, r5
 1060 07ca FFF7FEFF 		bl	buffer_append_float32_auto
 1061              	.LVL123:
 1062              		.loc 1 173 0
 1063 07ce 3146     		mov	r1, r6
 1064 07d0 94ED940A 		vldr.32	s0, [r4, #592]
 1065 07d4 DFED330A 		vldr.32	s1, .L7
 1066 07d8 2846     		mov	r0, r5
 1067 07da FFF7FEFF 		bl	buffer_append_float16
 1068              	.LVL124:
 1069              		.loc 1 174 0
 1070 07de F2EE040A 		vmov.f32	s1, #1.0e+1
 1071 07e2 3146     		mov	r1, r6
 1072 07e4 94ED930A 		vldr.32	s0, [r4, #588]
 1073 07e8 2846     		mov	r0, r5
 1074 07ea FFF7FEFF 		bl	buffer_append_float16
 1075              	.LVL125:
 1076              		.loc 1 175 0
 1077 07ee 019B     		ldr	r3, [sp, #4]
 1078 07f0 D4F84822 		ldr	r2, [r4, #584]
 1079 07f4 EA54     		strb	r2, [r5, r3]
 1080              		.loc 1 176 0
 1081 07f6 EA18     		adds	r2, r5, r3
 1082 07f8 94F85412 		ldrb	r1, [r4, #596]	@ zero_extendqisi2
 1083 07fc 5170     		strb	r1, [r2, #1]
ARM GAS  /tmp/cc4M9ACW.s 			page 20


 1084 07fe 0233     		adds	r3, r3, #2
 1085              		.loc 1 177 0
 1086 0800 94ED960A 		vldr.32	s0, [r4, #600]
 1087              		.loc 1 176 0
 1088 0804 0193     		str	r3, [sp, #4]
 1089              		.loc 1 177 0
 1090 0806 3146     		mov	r1, r6
 1091 0808 2846     		mov	r0, r5
 1092 080a FFF7FEFF 		bl	buffer_append_float32_auto
 1093              	.LVL126:
 1094              		.loc 1 178 0
 1095 080e 3146     		mov	r1, r6
 1096 0810 94ED970A 		vldr.32	s0, [r4, #604]
 1097 0814 2846     		mov	r0, r5
 1098 0816 FFF7FEFF 		bl	buffer_append_float32_auto
 1099              	.LVL127:
 1100              		.loc 1 179 0
 1101 081a 019B     		ldr	r3, [sp, #4]
 1102 081c 94F86022 		ldrb	r2, [r4, #608]	@ zero_extendqisi2
 1103 0820 EA54     		strb	r2, [r5, r3]
 1104              		.loc 1 180 0
 1105 0822 EA18     		adds	r2, r5, r3
 1106 0824 D4F86412 		ldr	r1, [r4, #612]
 1107 0828 5170     		strb	r1, [r2, #1]
 1108 082a 0233     		adds	r3, r3, #2
 1109              		.loc 1 181 0
 1110 082c 94ED9A0A 		vldr.32	s0, [r4, #616]
 1111              		.loc 1 180 0
 1112 0830 0193     		str	r3, [sp, #4]
 1113              		.loc 1 181 0
 1114 0832 3146     		mov	r1, r6
 1115 0834 2846     		mov	r0, r5
 1116 0836 FFF7FEFF 		bl	buffer_append_float32_auto
 1117              	.LVL128:
 1118              		.loc 1 182 0
 1119 083a 3146     		mov	r1, r6
 1120 083c 94ED9B0A 		vldr.32	s0, [r4, #620]
 1121 0840 2846     		mov	r0, r5
 1122 0842 FFF7FEFF 		bl	buffer_append_float32_auto
 1123              	.LVL129:
 1124              		.loc 1 183 0
 1125 0846 019B     		ldr	r3, [sp, #4]
 1126 0848 94F87022 		ldrb	r2, [r4, #624]	@ zero_extendqisi2
 1127 084c EA54     		strb	r2, [r5, r3]
 1128              		.loc 1 184 0
 1129 084e 3146     		mov	r1, r6
 1130              		.loc 1 183 0
 1131 0850 0133     		adds	r3, r3, #1
 1132              		.loc 1 184 0
 1133 0852 94ED9D0A 		vldr.32	s0, [r4, #628]
 1134              		.loc 1 183 0
 1135 0856 0193     		str	r3, [sp, #4]
 1136              		.loc 1 184 0
 1137 0858 F0EE680A 		vmov.f32	s1, s17
 1138 085c 2846     		mov	r0, r5
 1139 085e FFF7FEFF 		bl	buffer_append_float16
 1140              	.LVL130:
ARM GAS  /tmp/cc4M9ACW.s 			page 21


 1141              		.loc 1 185 0
 1142 0862 3146     		mov	r1, r6
 1143 0864 F0EE680A 		vmov.f32	s1, s17
 1144 0868 94ED9E0A 		vldr.32	s0, [r4, #632]
 1145 086c 2846     		mov	r0, r5
 1146 086e FFF7FEFF 		bl	buffer_append_float16
 1147              	.LVL131:
 1148              		.loc 1 186 0
 1149 0872 3146     		mov	r1, r6
 1150 0874 F0EE490A 		vmov.f32	s1, s18
 1151 0878 94ED9F0A 		vldr.32	s0, [r4, #636]
 1152 087c 2846     		mov	r0, r5
 1153 087e FFF7FEFF 		bl	buffer_append_float16
 1154              	.LVL132:
 1155              		.loc 1 187 0
 1156 0882 2846     		mov	r0, r5
 1157 0884 3146     		mov	r1, r6
 1158 0886 F0EE490A 		vmov.f32	s1, s18
 1159 088a 94EDA00A 		vldr.32	s0, [r4, #640]
 1160 088e FFF7FEFF 		bl	buffer_append_float16
 1161              	.LVL133:
 1162              		.loc 1 188 0
 1163 0892 0198     		ldr	r0, [sp, #4]
 1164 0894 94F88432 		ldrb	r3, [r4, #644]	@ zero_extendqisi2
 1165 0898 2B54     		strb	r3, [r5, r0]
 1166              		.loc 1 191 0
 1167 089a 0130     		adds	r0, r0, #1
 1168 089c 02B0     		add	sp, sp, #8
 1169              		.cfi_def_cfa_offset 32
 1170              		@ sp needed
 1171 089e BDEC048B 		vldm	sp!, {d8-d9}
 1172              		.cfi_restore 82
 1173              		.cfi_restore 83
 1174              		.cfi_restore 80
 1175              		.cfi_restore 81
 1176              		.cfi_def_cfa_offset 16
 1177 08a2 70BD     		pop	{r4, r5, r6, pc}
 1178              	.LVL134:
 1179              	.L8:
 1180              		.align	2
 1181              	.L7:
 1182 08a4 CDCCCC3D 		.word	1036831949
 1183              		.cfi_endproc
 1184              	.LFE219:
 1185              		.size	confgenerator_serialize_mcconf, .-confgenerator_serialize_mcconf
 1186              		.section	.text.confgenerator_serialize_appconf,"ax",%progbits
 1187              		.align	1
 1188              		.p2align 4,,15
 1189              		.global	confgenerator_serialize_appconf
 1190              		.syntax unified
 1191              		.thumb
 1192              		.thumb_func
 1193              		.fpu fpv4-sp-d16
 1194              		.type	confgenerator_serialize_appconf, %function
 1195              	confgenerator_serialize_appconf:
 1196              	.LFB220:
 1197              		.loc 1 193 0
ARM GAS  /tmp/cc4M9ACW.s 			page 22


 1198              		.cfi_startproc
 1199              		@ args = 0, pretend = 0, frame = 8
 1200              		@ frame_needed = 0, uses_anonymous_args = 0
 1201              	.LVL135:
 1202 0000 70B5     		push	{r4, r5, r6, lr}
 1203              		.cfi_def_cfa_offset 16
 1204              		.cfi_offset 4, -16
 1205              		.cfi_offset 5, -12
 1206              		.cfi_offset 6, -8
 1207              		.cfi_offset 14, -4
 1208 0002 2DED028B 		vpush.64	{d8}
 1209              		.cfi_def_cfa_offset 24
 1210              		.cfi_offset 80, -24
 1211              		.cfi_offset 81, -20
 1212 0006 82B0     		sub	sp, sp, #8
 1213              		.cfi_def_cfa_offset 32
 1214              		.loc 1 194 0
 1215 0008 02AE     		add	r6, sp, #8
 1216 000a 0023     		movs	r3, #0
 1217 000c 46F8043D 		str	r3, [r6, #-4]!
 1218              		.loc 1 193 0
 1219 0010 0C46     		mov	r4, r1
 1220              		.loc 1 196 0
 1221 0012 3246     		mov	r2, r6
 1222 0014 E849     		ldr	r1, .L11
 1223              	.LVL136:
 1224              		.loc 1 296 0
 1225 0016 9FEDE98A 		vldr.32	s16, .L11+4
 1226              		.loc 1 298 0
 1227 001a DFEDE98A 		vldr.32	s17, .L11+8
 1228              		.loc 1 193 0
 1229 001e 0546     		mov	r5, r0
 1230              		.loc 1 196 0
 1231 0020 FFF7FEFF 		bl	buffer_append_uint32
 1232              	.LVL137:
 1233              		.loc 1 198 0
 1234 0024 019B     		ldr	r3, [sp, #4]
 1235 0026 2278     		ldrb	r2, [r4]	@ zero_extendqisi2
 1236 0028 EA54     		strb	r2, [r5, r3]
 1237              		.loc 1 199 0
 1238 002a 2846     		mov	r0, r5
 1239              		.loc 1 198 0
 1240 002c 0133     		adds	r3, r3, #1
 1241              		.loc 1 199 0
 1242 002e 3246     		mov	r2, r6
 1243 0030 6168     		ldr	r1, [r4, #4]
 1244              		.loc 1 198 0
 1245 0032 0193     		str	r3, [sp, #4]
 1246              		.loc 1 199 0
 1247 0034 FFF7FEFF 		bl	buffer_append_uint32
 1248              	.LVL138:
 1249              		.loc 1 200 0
 1250 0038 94ED020A 		vldr.32	s0, [r4, #8]
 1251 003c 3146     		mov	r1, r6
 1252 003e 2846     		mov	r0, r5
 1253 0040 FFF7FEFF 		bl	buffer_append_float32_auto
 1254              	.LVL139:
ARM GAS  /tmp/cc4M9ACW.s 			page 23


 1255              		.loc 1 201 0
 1256 0044 019B     		ldr	r3, [sp, #4]
 1257 0046 227B     		ldrb	r2, [r4, #12]	@ zero_extendqisi2
 1258 0048 EA54     		strb	r2, [r5, r3]
 1259              		.loc 1 202 0
 1260 004a 2846     		mov	r0, r5
 1261              		.loc 1 201 0
 1262 004c 0133     		adds	r3, r3, #1
 1263              		.loc 1 202 0
 1264 004e 218A     		ldrh	r1, [r4, #16]
 1265              		.loc 1 201 0
 1266 0050 0193     		str	r3, [sp, #4]
 1267              		.loc 1 202 0
 1268 0052 3246     		mov	r2, r6
 1269 0054 FFF7FEFF 		bl	buffer_append_uint16
 1270              	.LVL140:
 1271              		.loc 1 203 0
 1272 0058 019A     		ldr	r2, [sp, #4]
 1273 005a 237D     		ldrb	r3, [r4, #20]	@ zero_extendqisi2
 1274 005c AB54     		strb	r3, [r5, r2]
 1275              		.loc 1 204 0
 1276 005e AB18     		adds	r3, r5, r2
 1277 0060 617D     		ldrb	r1, [r4, #21]	@ zero_extendqisi2
 1278 0062 5970     		strb	r1, [r3, #1]
 1279              		.loc 1 205 0
 1280 0064 A17D     		ldrb	r1, [r4, #22]	@ zero_extendqisi2
 1281 0066 9970     		strb	r1, [r3, #2]
 1282              		.loc 1 206 0
 1283 0068 E17D     		ldrb	r1, [r4, #23]	@ zero_extendqisi2
 1284 006a D970     		strb	r1, [r3, #3]
 1285              		.loc 1 207 0
 1286 006c A17E     		ldrb	r1, [r4, #26]	@ zero_extendqisi2
 1287 006e 1971     		strb	r1, [r3, #4]
 1288              		.loc 1 208 0
 1289 0070 E17E     		ldrb	r1, [r4, #27]	@ zero_extendqisi2
 1290 0072 5971     		strb	r1, [r3, #5]
 1291              		.loc 1 209 0
 1292 0074 217F     		ldrb	r1, [r4, #28]	@ zero_extendqisi2
 1293 0076 9971     		strb	r1, [r3, #6]
 1294 0078 0732     		adds	r2, r2, #7
 1295              		.loc 1 210 0
 1296 007a 94ED080A 		vldr.32	s0, [r4, #32]
 1297              		.loc 1 209 0
 1298 007e 0192     		str	r2, [sp, #4]
 1299              		.loc 1 210 0
 1300 0080 3146     		mov	r1, r6
 1301 0082 2846     		mov	r0, r5
 1302 0084 FFF7FEFF 		bl	buffer_append_float32_auto
 1303              	.LVL141:
 1304              		.loc 1 211 0
 1305 0088 019B     		ldr	r3, [sp, #4]
 1306 008a 227E     		ldrb	r2, [r4, #24]	@ zero_extendqisi2
 1307 008c EA54     		strb	r2, [r5, r3]
 1308              		.loc 1 212 0
 1309 008e EA18     		adds	r2, r5, r3
 1310 0090 617E     		ldrb	r1, [r4, #25]	@ zero_extendqisi2
 1311 0092 5170     		strb	r1, [r2, #1]
ARM GAS  /tmp/cc4M9ACW.s 			page 24


 1312              		.loc 1 213 0
 1313 0094 94F82410 		ldrb	r1, [r4, #36]	@ zero_extendqisi2
 1314 0098 9170     		strb	r1, [r2, #2]
 1315              		.loc 1 214 0
 1316 009a 94F82810 		ldrb	r1, [r4, #40]	@ zero_extendqisi2
 1317 009e D170     		strb	r1, [r2, #3]
 1318 00a0 0433     		adds	r3, r3, #4
 1319              		.loc 1 215 0
 1320 00a2 94ED0B0A 		vldr.32	s0, [r4, #44]
 1321              		.loc 1 214 0
 1322 00a6 0193     		str	r3, [sp, #4]
 1323              		.loc 1 215 0
 1324 00a8 3146     		mov	r1, r6
 1325 00aa 2846     		mov	r0, r5
 1326 00ac FFF7FEFF 		bl	buffer_append_float32_auto
 1327              	.LVL142:
 1328              		.loc 1 216 0
 1329 00b0 3146     		mov	r1, r6
 1330 00b2 94ED0C0A 		vldr.32	s0, [r4, #48]
 1331 00b6 2846     		mov	r0, r5
 1332 00b8 FFF7FEFF 		bl	buffer_append_float32_auto
 1333              	.LVL143:
 1334              		.loc 1 217 0
 1335 00bc 3146     		mov	r1, r6
 1336 00be 94ED0D0A 		vldr.32	s0, [r4, #52]
 1337 00c2 2846     		mov	r0, r5
 1338 00c4 FFF7FEFF 		bl	buffer_append_float32_auto
 1339              	.LVL144:
 1340              		.loc 1 218 0
 1341 00c8 3146     		mov	r1, r6
 1342 00ca 94ED0E0A 		vldr.32	s0, [r4, #56]
 1343 00ce 2846     		mov	r0, r5
 1344 00d0 FFF7FEFF 		bl	buffer_append_float32_auto
 1345              	.LVL145:
 1346              		.loc 1 219 0
 1347 00d4 3146     		mov	r1, r6
 1348 00d6 94ED0F0A 		vldr.32	s0, [r4, #60]
 1349 00da 2846     		mov	r0, r5
 1350 00dc FFF7FEFF 		bl	buffer_append_float32_auto
 1351              	.LVL146:
 1352              		.loc 1 220 0
 1353 00e0 019B     		ldr	r3, [sp, #4]
 1354 00e2 94F84020 		ldrb	r2, [r4, #64]	@ zero_extendqisi2
 1355 00e6 EA54     		strb	r2, [r5, r3]
 1356              		.loc 1 221 0
 1357 00e8 EA18     		adds	r2, r5, r3
 1358 00ea 94F84110 		ldrb	r1, [r4, #65]	@ zero_extendqisi2
 1359 00ee 5170     		strb	r1, [r2, #1]
 1360 00f0 0233     		adds	r3, r3, #2
 1361              		.loc 1 222 0
 1362 00f2 94ED110A 		vldr.32	s0, [r4, #68]
 1363              		.loc 1 221 0
 1364 00f6 0193     		str	r3, [sp, #4]
 1365              		.loc 1 222 0
 1366 00f8 3146     		mov	r1, r6
 1367 00fa 2846     		mov	r0, r5
 1368 00fc FFF7FEFF 		bl	buffer_append_float32_auto
ARM GAS  /tmp/cc4M9ACW.s 			page 25


 1369              	.LVL147:
 1370              		.loc 1 223 0
 1371 0100 3146     		mov	r1, r6
 1372 0102 94ED120A 		vldr.32	s0, [r4, #72]
 1373 0106 2846     		mov	r0, r5
 1374 0108 FFF7FEFF 		bl	buffer_append_float32_auto
 1375              	.LVL148:
 1376              		.loc 1 224 0
 1377 010c 019B     		ldr	r3, [sp, #4]
 1378 010e 94F84C20 		ldrb	r2, [r4, #76]	@ zero_extendqisi2
 1379 0112 EA54     		strb	r2, [r5, r3]
 1380              		.loc 1 225 0
 1381 0114 3146     		mov	r1, r6
 1382              		.loc 1 224 0
 1383 0116 0133     		adds	r3, r3, #1
 1384              		.loc 1 225 0
 1385 0118 94ED140A 		vldr.32	s0, [r4, #80]
 1386              		.loc 1 224 0
 1387 011c 0193     		str	r3, [sp, #4]
 1388              		.loc 1 225 0
 1389 011e 2846     		mov	r0, r5
 1390 0120 FFF7FEFF 		bl	buffer_append_float32_auto
 1391              	.LVL149:
 1392              		.loc 1 226 0
 1393 0124 3146     		mov	r1, r6
 1394 0126 94ED150A 		vldr.32	s0, [r4, #84]
 1395 012a 2846     		mov	r0, r5
 1396 012c FFF7FEFF 		bl	buffer_append_float32_auto
 1397              	.LVL150:
 1398              		.loc 1 227 0
 1399 0130 019B     		ldr	r3, [sp, #4]
 1400 0132 94F85820 		ldrb	r2, [r4, #88]	@ zero_extendqisi2
 1401 0136 EA54     		strb	r2, [r5, r3]
 1402              		.loc 1 228 0
 1403 0138 EA18     		adds	r2, r5, r3
 1404 013a 94F85910 		ldrb	r1, [r4, #89]	@ zero_extendqisi2
 1405 013e 5170     		strb	r1, [r2, #1]
 1406 0140 0233     		adds	r3, r3, #2
 1407              		.loc 1 229 0
 1408 0142 94ED170A 		vldr.32	s0, [r4, #92]
 1409              		.loc 1 228 0
 1410 0146 0193     		str	r3, [sp, #4]
 1411              		.loc 1 229 0
 1412 0148 3146     		mov	r1, r6
 1413 014a 2846     		mov	r0, r5
 1414 014c FFF7FEFF 		bl	buffer_append_float32_auto
 1415              	.LVL151:
 1416              		.loc 1 230 0
 1417 0150 F7EE000A 		vmov.f32	s1, #1.0e+0
 1418 0154 3146     		mov	r1, r6
 1419 0156 94ED180A 		vldr.32	s0, [r4, #96]
 1420 015a 2846     		mov	r0, r5
 1421 015c FFF7FEFF 		bl	buffer_append_float16
 1422              	.LVL152:
 1423              		.loc 1 231 0
 1424 0160 3146     		mov	r1, r6
 1425 0162 94ED190A 		vldr.32	s0, [r4, #100]
ARM GAS  /tmp/cc4M9ACW.s 			page 26


 1426 0166 2846     		mov	r0, r5
 1427 0168 FFF7FEFF 		bl	buffer_append_float32_auto
 1428              	.LVL153:
 1429              		.loc 1 232 0
 1430 016c 3146     		mov	r1, r6
 1431 016e 94ED1A0A 		vldr.32	s0, [r4, #104]
 1432 0172 2846     		mov	r0, r5
 1433 0174 FFF7FEFF 		bl	buffer_append_float32_auto
 1434              	.LVL154:
 1435              		.loc 1 233 0
 1436 0178 019B     		ldr	r3, [sp, #4]
 1437 017a 94F86C20 		ldrb	r2, [r4, #108]	@ zero_extendqisi2
 1438 017e EA54     		strb	r2, [r5, r3]
 1439              		.loc 1 234 0
 1440 0180 3146     		mov	r1, r6
 1441              		.loc 1 233 0
 1442 0182 0133     		adds	r3, r3, #1
 1443              		.loc 1 234 0
 1444 0184 94ED1C0A 		vldr.32	s0, [r4, #112]
 1445              		.loc 1 233 0
 1446 0188 0193     		str	r3, [sp, #4]
 1447              		.loc 1 234 0
 1448 018a 2846     		mov	r0, r5
 1449 018c FFF7FEFF 		bl	buffer_append_float32_auto
 1450              	.LVL155:
 1451              		.loc 1 235 0
 1452 0190 3146     		mov	r1, r6
 1453 0192 94ED1D0A 		vldr.32	s0, [r4, #116]
 1454 0196 2846     		mov	r0, r5
 1455 0198 FFF7FEFF 		bl	buffer_append_float32_auto
 1456              	.LVL156:
 1457              		.loc 1 236 0
 1458 019c 3146     		mov	r1, r6
 1459 019e 94ED1E0A 		vldr.32	s0, [r4, #120]
 1460 01a2 2846     		mov	r0, r5
 1461 01a4 FFF7FEFF 		bl	buffer_append_float32_auto
 1462              	.LVL157:
 1463              		.loc 1 237 0
 1464 01a8 3146     		mov	r1, r6
 1465 01aa 94ED1F0A 		vldr.32	s0, [r4, #124]
 1466 01ae 2846     		mov	r0, r5
 1467 01b0 FFF7FEFF 		bl	buffer_append_float32_auto
 1468              	.LVL158:
 1469              		.loc 1 238 0
 1470 01b4 3146     		mov	r1, r6
 1471 01b6 94ED200A 		vldr.32	s0, [r4, #128]
 1472 01ba 2846     		mov	r0, r5
 1473 01bc FFF7FEFF 		bl	buffer_append_float32_auto
 1474              	.LVL159:
 1475              		.loc 1 239 0
 1476 01c0 3146     		mov	r1, r6
 1477 01c2 94ED210A 		vldr.32	s0, [r4, #132]
 1478 01c6 2846     		mov	r0, r5
 1479 01c8 FFF7FEFF 		bl	buffer_append_float32_auto
 1480              	.LVL160:
 1481              		.loc 1 240 0
 1482 01cc 019B     		ldr	r3, [sp, #4]
ARM GAS  /tmp/cc4M9ACW.s 			page 27


 1483 01ce 94F88820 		ldrb	r2, [r4, #136]	@ zero_extendqisi2
 1484 01d2 EA54     		strb	r2, [r5, r3]
 1485              		.loc 1 241 0
 1486 01d4 EA18     		adds	r2, r5, r3
 1487 01d6 94F88910 		ldrb	r1, [r4, #137]	@ zero_extendqisi2
 1488 01da 5170     		strb	r1, [r2, #1]
 1489              		.loc 1 242 0
 1490 01dc 94F88A10 		ldrb	r1, [r4, #138]	@ zero_extendqisi2
 1491 01e0 9170     		strb	r1, [r2, #2]
 1492              		.loc 1 243 0
 1493 01e2 94F88B10 		ldrb	r1, [r4, #139]	@ zero_extendqisi2
 1494 01e6 D170     		strb	r1, [r2, #3]
 1495              		.loc 1 244 0
 1496 01e8 94F88C10 		ldrb	r1, [r4, #140]	@ zero_extendqisi2
 1497 01ec 1171     		strb	r1, [r2, #4]
 1498              		.loc 1 245 0
 1499 01ee 94F88D10 		ldrb	r1, [r4, #141]	@ zero_extendqisi2
 1500 01f2 5171     		strb	r1, [r2, #5]
 1501 01f4 0633     		adds	r3, r3, #6
 1502              		.loc 1 246 0
 1503 01f6 94ED240A 		vldr.32	s0, [r4, #144]
 1504              		.loc 1 245 0
 1505 01fa 0193     		str	r3, [sp, #4]
 1506              		.loc 1 246 0
 1507 01fc 3146     		mov	r1, r6
 1508 01fe 2846     		mov	r0, r5
 1509 0200 FFF7FEFF 		bl	buffer_append_float32_auto
 1510              	.LVL161:
 1511              		.loc 1 247 0
 1512 0204 3146     		mov	r1, r6
 1513 0206 94ED250A 		vldr.32	s0, [r4, #148]
 1514 020a 2846     		mov	r0, r5
 1515 020c FFF7FEFF 		bl	buffer_append_float32_auto
 1516              	.LVL162:
 1517              		.loc 1 248 0
 1518 0210 019B     		ldr	r3, [sp, #4]
 1519 0212 94F89820 		ldrb	r2, [r4, #152]	@ zero_extendqisi2
 1520 0216 EA54     		strb	r2, [r5, r3]
 1521              		.loc 1 249 0
 1522 0218 3146     		mov	r1, r6
 1523              		.loc 1 248 0
 1524 021a 0133     		adds	r3, r3, #1
 1525              		.loc 1 249 0
 1526 021c 94ED270A 		vldr.32	s0, [r4, #156]
 1527              		.loc 1 248 0
 1528 0220 0193     		str	r3, [sp, #4]
 1529              		.loc 1 249 0
 1530 0222 2846     		mov	r0, r5
 1531 0224 FFF7FEFF 		bl	buffer_append_float32_auto
 1532              	.LVL163:
 1533              		.loc 1 250 0
 1534 0228 3146     		mov	r1, r6
 1535 022a 94ED280A 		vldr.32	s0, [r4, #160]
 1536 022e 2846     		mov	r0, r5
 1537 0230 FFF7FEFF 		bl	buffer_append_float32_auto
 1538              	.LVL164:
 1539              		.loc 1 251 0
ARM GAS  /tmp/cc4M9ACW.s 			page 28


 1540 0234 019B     		ldr	r3, [sp, #4]
 1541 0236 94F8A420 		ldrb	r2, [r4, #164]	@ zero_extendqisi2
 1542 023a EA54     		strb	r2, [r5, r3]
 1543              		.loc 1 252 0
 1544 023c EA18     		adds	r2, r5, r3
 1545 023e 94F8A510 		ldrb	r1, [r4, #165]	@ zero_extendqisi2
 1546 0242 5170     		strb	r1, [r2, #1]
 1547 0244 0233     		adds	r3, r3, #2
 1548              		.loc 1 253 0
 1549 0246 94ED2A0A 		vldr.32	s0, [r4, #168]
 1550              		.loc 1 252 0
 1551 024a 0193     		str	r3, [sp, #4]
 1552              		.loc 1 253 0
 1553 024c 3146     		mov	r1, r6
 1554 024e 2846     		mov	r0, r5
 1555 0250 FFF7FEFF 		bl	buffer_append_float32_auto
 1556              	.LVL165:
 1557              		.loc 1 254 0
 1558 0254 3246     		mov	r2, r6
 1559 0256 B4F8AC10 		ldrh	r1, [r4, #172]
 1560 025a 2846     		mov	r0, r5
 1561 025c FFF7FEFF 		bl	buffer_append_uint16
 1562              	.LVL166:
 1563              		.loc 1 255 0
 1564 0260 3246     		mov	r2, r6
 1565 0262 D4F8B010 		ldr	r1, [r4, #176]
 1566 0266 2846     		mov	r0, r5
 1567 0268 FFF7FEFF 		bl	buffer_append_uint32
 1568              	.LVL167:
 1569              		.loc 1 256 0
 1570 026c 019B     		ldr	r3, [sp, #4]
 1571 026e 94F8B420 		ldrb	r2, [r4, #180]	@ zero_extendqisi2
 1572 0272 EA54     		strb	r2, [r5, r3]
 1573              		.loc 1 257 0
 1574 0274 3146     		mov	r1, r6
 1575              		.loc 1 256 0
 1576 0276 0133     		adds	r3, r3, #1
 1577              		.loc 1 257 0
 1578 0278 94ED2E0A 		vldr.32	s0, [r4, #184]
 1579              		.loc 1 256 0
 1580 027c 0193     		str	r3, [sp, #4]
 1581              		.loc 1 257 0
 1582 027e 2846     		mov	r0, r5
 1583 0280 FFF7FEFF 		bl	buffer_append_float32_auto
 1584              	.LVL168:
 1585              		.loc 1 258 0
 1586 0284 3146     		mov	r1, r6
 1587 0286 94ED2F0A 		vldr.32	s0, [r4, #188]
 1588 028a 2846     		mov	r0, r5
 1589 028c FFF7FEFF 		bl	buffer_append_float32_auto
 1590              	.LVL169:
 1591              		.loc 1 259 0
 1592 0290 3146     		mov	r1, r6
 1593 0292 94ED300A 		vldr.32	s0, [r4, #192]
 1594 0296 2846     		mov	r0, r5
 1595 0298 FFF7FEFF 		bl	buffer_append_float32_auto
 1596              	.LVL170:
ARM GAS  /tmp/cc4M9ACW.s 			page 29


 1597              		.loc 1 260 0
 1598 029c 3146     		mov	r1, r6
 1599 029e 94ED310A 		vldr.32	s0, [r4, #196]
 1600 02a2 2846     		mov	r0, r5
 1601 02a4 FFF7FEFF 		bl	buffer_append_float32_auto
 1602              	.LVL171:
 1603              		.loc 1 261 0
 1604 02a8 3146     		mov	r1, r6
 1605 02aa 94ED320A 		vldr.32	s0, [r4, #200]
 1606 02ae 2846     		mov	r0, r5
 1607 02b0 FFF7FEFF 		bl	buffer_append_float32_auto
 1608              	.LVL172:
 1609              		.loc 1 262 0
 1610 02b4 3146     		mov	r1, r6
 1611 02b6 94ED330A 		vldr.32	s0, [r4, #204]
 1612 02ba 2846     		mov	r0, r5
 1613 02bc FFF7FEFF 		bl	buffer_append_float32_auto
 1614              	.LVL173:
 1615              		.loc 1 263 0
 1616 02c0 019B     		ldr	r3, [sp, #4]
 1617 02c2 94F8D020 		ldrb	r2, [r4, #208]	@ zero_extendqisi2
 1618 02c6 EA54     		strb	r2, [r5, r3]
 1619              		.loc 1 264 0
 1620 02c8 EA18     		adds	r2, r5, r3
 1621 02ca 94F8D110 		ldrb	r1, [r4, #209]	@ zero_extendqisi2
 1622 02ce 5170     		strb	r1, [r2, #1]
 1623              		.loc 1 265 0
 1624 02d0 94F8D210 		ldrb	r1, [r4, #210]	@ zero_extendqisi2
 1625 02d4 9170     		strb	r1, [r2, #2]
 1626 02d6 0333     		adds	r3, r3, #3
 1627              		.loc 1 266 0
 1628 02d8 94ED350A 		vldr.32	s0, [r4, #212]
 1629              		.loc 1 265 0
 1630 02dc 0193     		str	r3, [sp, #4]
 1631              		.loc 1 266 0
 1632 02de 3146     		mov	r1, r6
 1633 02e0 2846     		mov	r0, r5
 1634 02e2 FFF7FEFF 		bl	buffer_append_float32_auto
 1635              	.LVL174:
 1636              		.loc 1 267 0
 1637 02e6 019B     		ldr	r3, [sp, #4]
 1638 02e8 94F8D820 		ldrb	r2, [r4, #216]	@ zero_extendqisi2
 1639 02ec EA54     		strb	r2, [r5, r3]
 1640              		.loc 1 268 0
 1641 02ee 3146     		mov	r1, r6
 1642              		.loc 1 267 0
 1643 02f0 0133     		adds	r3, r3, #1
 1644              		.loc 1 268 0
 1645 02f2 94ED370A 		vldr.32	s0, [r4, #220]
 1646              		.loc 1 267 0
 1647 02f6 0193     		str	r3, [sp, #4]
 1648              		.loc 1 268 0
 1649 02f8 2846     		mov	r0, r5
 1650 02fa FFF7FEFF 		bl	buffer_append_float32_auto
 1651              	.LVL175:
 1652              		.loc 1 269 0
 1653 02fe 3146     		mov	r1, r6
ARM GAS  /tmp/cc4M9ACW.s 			page 30


 1654 0300 94ED380A 		vldr.32	s0, [r4, #224]
 1655 0304 2846     		mov	r0, r5
 1656 0306 FFF7FEFF 		bl	buffer_append_float32_auto
 1657              	.LVL176:
 1658              		.loc 1 270 0
 1659 030a 019A     		ldr	r2, [sp, #4]
 1660 030c 94F8E430 		ldrb	r3, [r4, #228]	@ zero_extendqisi2
 1661 0310 AB54     		strb	r3, [r5, r2]
 1662              		.loc 1 271 0
 1663 0312 AB18     		adds	r3, r5, r2
 1664 0314 94F8E510 		ldrb	r1, [r4, #229]	@ zero_extendqisi2
 1665 0318 5970     		strb	r1, [r3, #1]
 1666              		.loc 1 272 0
 1667 031a 94F8E610 		ldrb	r1, [r4, #230]	@ zero_extendqisi2
 1668 031e 9970     		strb	r1, [r3, #2]
 1669              		.loc 1 273 0
 1670 0320 94F8E710 		ldrb	r1, [r4, #231]	@ zero_extendqisi2
 1671 0324 D970     		strb	r1, [r3, #3]
 1672              		.loc 1 274 0
 1673 0326 94F8E810 		ldrb	r1, [r4, #232]	@ zero_extendqisi2
 1674 032a 1971     		strb	r1, [r3, #4]
 1675              		.loc 1 275 0
 1676 032c 94F8E910 		ldrb	r1, [r4, #233]	@ zero_extendqisi2
 1677 0330 5971     		strb	r1, [r3, #5]
 1678              		.loc 1 276 0
 1679 0332 94F8EA10 		ldrb	r1, [r4, #234]	@ zero_extendqisi2
 1680 0336 9971     		strb	r1, [r3, #6]
 1681              		.loc 1 277 0
 1682 0338 94F8EB10 		ldrb	r1, [r4, #235]	@ zero_extendqisi2
 1683 033c D971     		strb	r1, [r3, #7]
 1684              		.loc 1 278 0
 1685 033e 94F8EC10 		ldrb	r1, [r4, #236]	@ zero_extendqisi2
 1686 0342 1972     		strb	r1, [r3, #8]
 1687              		.loc 1 279 0
 1688 0344 94F8ED10 		ldrb	r1, [r4, #237]	@ zero_extendqisi2
 1689 0348 5972     		strb	r1, [r3, #9]
 1690 034a 0A32     		adds	r2, r2, #10
 1691              		.loc 1 280 0
 1692 034c 94ED3C0A 		vldr.32	s0, [r4, #240]
 1693              		.loc 1 279 0
 1694 0350 0192     		str	r2, [sp, #4]
 1695              		.loc 1 280 0
 1696 0352 3146     		mov	r1, r6
 1697 0354 2846     		mov	r0, r5
 1698 0356 FFF7FEFF 		bl	buffer_append_float32_auto
 1699              	.LVL177:
 1700              		.loc 1 281 0
 1701 035a 3146     		mov	r1, r6
 1702 035c 94ED3D0A 		vldr.32	s0, [r4, #244]
 1703 0360 2846     		mov	r0, r5
 1704 0362 FFF7FEFF 		bl	buffer_append_float32_auto
 1705              	.LVL178:
 1706              		.loc 1 282 0
 1707 0366 94ED3E0A 		vldr.32	s0, [r4, #248]
 1708 036a 3146     		mov	r1, r6
 1709 036c 2846     		mov	r0, r5
 1710 036e FFF7FEFF 		bl	buffer_append_float32_auto
ARM GAS  /tmp/cc4M9ACW.s 			page 31


 1711              	.LVL179:
 1712              		.loc 1 283 0
 1713 0372 3246     		mov	r2, r6
 1714 0374 B4F8FC10 		ldrh	r1, [r4, #252]
 1715 0378 2846     		mov	r0, r5
 1716 037a FFF7FEFF 		bl	buffer_append_uint16
 1717              	.LVL180:
 1718              		.loc 1 284 0
 1719 037e 3246     		mov	r2, r6
 1720 0380 B4F8FE10 		ldrh	r1, [r4, #254]
 1721 0384 2846     		mov	r0, r5
 1722 0386 FFF7FEFF 		bl	buffer_append_uint16
 1723              	.LVL181:
 1724              		.loc 1 285 0
 1725 038a 3146     		mov	r1, r6
 1726 038c 94ED400A 		vldr.32	s0, [r4, #256]
 1727 0390 2846     		mov	r0, r5
 1728 0392 FFF7FEFF 		bl	buffer_append_float32_auto
 1729              	.LVL182:
 1730              		.loc 1 286 0
 1731 0396 3146     		mov	r1, r6
 1732 0398 94ED410A 		vldr.32	s0, [r4, #260]
 1733 039c 2846     		mov	r0, r5
 1734 039e FFF7FEFF 		bl	buffer_append_float32_auto
 1735              	.LVL183:
 1736              		.loc 1 287 0
 1737 03a2 3146     		mov	r1, r6
 1738 03a4 94ED420A 		vldr.32	s0, [r4, #264]
 1739 03a8 2846     		mov	r0, r5
 1740 03aa FFF7FEFF 		bl	buffer_append_float32_auto
 1741              	.LVL184:
 1742              		.loc 1 288 0
 1743 03ae 3146     		mov	r1, r6
 1744 03b0 94ED430A 		vldr.32	s0, [r4, #268]
 1745 03b4 06E0     		b	.L12
 1746              	.L13:
 1747 03b6 00BF     		.align	2
 1748              	.L11:
 1749 03b8 57E088DE 		.word	-561455017
 1750 03bc 0000C842 		.word	1120403456
 1751 03c0 00007A44 		.word	1148846080
 1752              	.L12:
 1753 03c4 2846     		mov	r0, r5
 1754 03c6 FFF7FEFF 		bl	buffer_append_float32_auto
 1755              	.LVL185:
 1756              		.loc 1 289 0
 1757 03ca 94ED440A 		vldr.32	s0, [r4, #272]
 1758 03ce 3146     		mov	r1, r6
 1759 03d0 2846     		mov	r0, r5
 1760 03d2 FFF7FEFF 		bl	buffer_append_float32_auto
 1761              	.LVL186:
 1762              		.loc 1 290 0
 1763 03d6 3246     		mov	r2, r6
 1764 03d8 B4F81411 		ldrh	r1, [r4, #276]
 1765 03dc 2846     		mov	r0, r5
 1766 03de FFF7FEFF 		bl	buffer_append_uint16
 1767              	.LVL187:
ARM GAS  /tmp/cc4M9ACW.s 			page 32


 1768              		.loc 1 291 0
 1769 03e2 3246     		mov	r2, r6
 1770 03e4 B4F81611 		ldrh	r1, [r4, #278]
 1771 03e8 2846     		mov	r0, r5
 1772 03ea FFF7FEFF 		bl	buffer_append_uint16
 1773              	.LVL188:
 1774              		.loc 1 292 0
 1775 03ee 3246     		mov	r2, r6
 1776 03f0 B4F81811 		ldrh	r1, [r4, #280]
 1777 03f4 2846     		mov	r0, r5
 1778 03f6 FFF7FEFF 		bl	buffer_append_uint16
 1779              	.LVL189:
 1780              		.loc 1 293 0
 1781 03fa 3246     		mov	r2, r6
 1782 03fc B4F81A11 		ldrh	r1, [r4, #282]
 1783 0400 2846     		mov	r0, r5
 1784 0402 FFF7FEFF 		bl	buffer_append_uint16
 1785              	.LVL190:
 1786              		.loc 1 294 0
 1787 0406 3246     		mov	r2, r6
 1788 0408 B4F81C11 		ldrh	r1, [r4, #284]
 1789 040c 2846     		mov	r0, r5
 1790 040e FFF7FEFF 		bl	buffer_append_uint16
 1791              	.LVL191:
 1792              		.loc 1 295 0
 1793 0412 3246     		mov	r2, r6
 1794 0414 B4F81E11 		ldrh	r1, [r4, #286]
 1795 0418 2846     		mov	r0, r5
 1796 041a FFF7FEFF 		bl	buffer_append_uint16
 1797              	.LVL192:
 1798              		.loc 1 296 0
 1799 041e 3146     		mov	r1, r6
 1800 0420 94ED480A 		vldr.32	s0, [r4, #288]
 1801 0424 2846     		mov	r0, r5
 1802 0426 F0EE480A 		vmov.f32	s1, s16
 1803 042a FFF7FEFF 		bl	buffer_append_float16
 1804              	.LVL193:
 1805              		.loc 1 297 0
 1806 042e 3146     		mov	r1, r6
 1807 0430 F0EE480A 		vmov.f32	s1, s16
 1808 0434 94ED490A 		vldr.32	s0, [r4, #292]
 1809 0438 2846     		mov	r0, r5
 1810 043a FFF7FEFF 		bl	buffer_append_float16
 1811              	.LVL194:
 1812              		.loc 1 298 0
 1813 043e 3146     		mov	r1, r6
 1814 0440 94ED4A0A 		vldr.32	s0, [r4, #296]
 1815 0444 2846     		mov	r0, r5
 1816 0446 F0EE680A 		vmov.f32	s1, s17
 1817 044a FFF7FEFF 		bl	buffer_append_float16
 1818              	.LVL195:
 1819              		.loc 1 299 0
 1820 044e 3146     		mov	r1, r6
 1821 0450 F0EE480A 		vmov.f32	s1, s16
 1822 0454 94ED4B0A 		vldr.32	s0, [r4, #300]
 1823 0458 2846     		mov	r0, r5
 1824 045a FFF7FEFF 		bl	buffer_append_float16
ARM GAS  /tmp/cc4M9ACW.s 			page 33


 1825              	.LVL196:
 1826              		.loc 1 300 0
 1827 045e F0EE480A 		vmov.f32	s1, s16
 1828 0462 3146     		mov	r1, r6
 1829 0464 94ED4C0A 		vldr.32	s0, [r4, #304]
 1830 0468 2846     		mov	r0, r5
 1831 046a FFF7FEFF 		bl	buffer_append_float16
 1832              	.LVL197:
 1833              		.loc 1 301 0
 1834 046e 3146     		mov	r1, r6
 1835 0470 94ED4D0A 		vldr.32	s0, [r4, #308]
 1836 0474 2846     		mov	r0, r5
 1837 0476 FFF7FEFF 		bl	buffer_append_float32_auto
 1838              	.LVL198:
 1839              		.loc 1 302 0
 1840 047a 3146     		mov	r1, r6
 1841 047c F0EE480A 		vmov.f32	s1, s16
 1842 0480 94ED4E0A 		vldr.32	s0, [r4, #312]
 1843 0484 2846     		mov	r0, r5
 1844 0486 FFF7FEFF 		bl	buffer_append_float16
 1845              	.LVL199:
 1846              		.loc 1 303 0
 1847 048a F0EE480A 		vmov.f32	s1, s16
 1848 048e 3146     		mov	r1, r6
 1849 0490 94ED4F0A 		vldr.32	s0, [r4, #316]
 1850 0494 2846     		mov	r0, r5
 1851 0496 FFF7FEFF 		bl	buffer_append_float16
 1852              	.LVL200:
 1853              		.loc 1 304 0
 1854 049a 3146     		mov	r1, r6
 1855 049c 94ED500A 		vldr.32	s0, [r4, #320]
 1856 04a0 2846     		mov	r0, r5
 1857 04a2 FFF7FEFF 		bl	buffer_append_float32_auto
 1858              	.LVL201:
 1859              		.loc 1 305 0
 1860 04a6 F0EE480A 		vmov.f32	s1, s16
 1861 04aa 3146     		mov	r1, r6
 1862 04ac 94ED510A 		vldr.32	s0, [r4, #324]
 1863 04b0 2846     		mov	r0, r5
 1864 04b2 FFF7FEFF 		bl	buffer_append_float16
 1865              	.LVL202:
 1866              		.loc 1 306 0
 1867 04b6 94ED520A 		vldr.32	s0, [r4, #328]
 1868 04ba 3146     		mov	r1, r6
 1869 04bc 2846     		mov	r0, r5
 1870 04be FFF7FEFF 		bl	buffer_append_float32_auto
 1871              	.LVL203:
 1872              		.loc 1 307 0
 1873 04c2 3246     		mov	r2, r6
 1874 04c4 B4F84C11 		ldrh	r1, [r4, #332]
 1875 04c8 2846     		mov	r0, r5
 1876 04ca FFF7FEFF 		bl	buffer_append_uint16
 1877              	.LVL204:
 1878              		.loc 1 308 0
 1879 04ce 3146     		mov	r1, r6
 1880 04d0 94ED540A 		vldr.32	s0, [r4, #336]
 1881 04d4 2846     		mov	r0, r5
ARM GAS  /tmp/cc4M9ACW.s 			page 34


 1882 04d6 FFF7FEFF 		bl	buffer_append_float32_auto
 1883              	.LVL205:
 1884              		.loc 1 309 0
 1885 04da 3146     		mov	r1, r6
 1886 04dc 94ED550A 		vldr.32	s0, [r4, #340]
 1887 04e0 2846     		mov	r0, r5
 1888 04e2 FFF7FEFF 		bl	buffer_append_float32_auto
 1889              	.LVL206:
 1890              		.loc 1 310 0
 1891 04e6 F0EE480A 		vmov.f32	s1, s16
 1892 04ea 3146     		mov	r1, r6
 1893 04ec 94ED560A 		vldr.32	s0, [r4, #344]
 1894 04f0 2846     		mov	r0, r5
 1895 04f2 FFF7FEFF 		bl	buffer_append_float16
 1896              	.LVL207:
 1897              		.loc 1 311 0
 1898 04f6 3146     		mov	r1, r6
 1899 04f8 94ED570A 		vldr.32	s0, [r4, #348]
 1900 04fc 2846     		mov	r0, r5
 1901 04fe FFF7FEFF 		bl	buffer_append_float32_auto
 1902              	.LVL208:
 1903              		.loc 1 312 0
 1904 0502 3146     		mov	r1, r6
 1905 0504 94ED580A 		vldr.32	s0, [r4, #352]
 1906 0508 2846     		mov	r0, r5
 1907 050a FFF7FEFF 		bl	buffer_append_float32_auto
 1908              	.LVL209:
 1909              		.loc 1 313 0
 1910 050e 3146     		mov	r1, r6
 1911 0510 94ED590A 		vldr.32	s0, [r4, #356]
 1912 0514 2846     		mov	r0, r5
 1913 0516 FFF7FEFF 		bl	buffer_append_float32_auto
 1914              	.LVL210:
 1915              		.loc 1 314 0
 1916 051a 3146     		mov	r1, r6
 1917 051c 94ED5A0A 		vldr.32	s0, [r4, #360]
 1918 0520 2846     		mov	r0, r5
 1919 0522 FFF7FEFF 		bl	buffer_append_float32_auto
 1920              	.LVL211:
 1921              		.loc 1 315 0
 1922 0526 019B     		ldr	r3, [sp, #4]
 1923 0528 94F86C21 		ldrb	r2, [r4, #364]	@ zero_extendqisi2
 1924 052c EA54     		strb	r2, [r5, r3]
 1925              		.loc 1 316 0
 1926 052e 3146     		mov	r1, r6
 1927              		.loc 1 315 0
 1928 0530 0133     		adds	r3, r3, #1
 1929              		.loc 1 316 0
 1930 0532 94ED5C0A 		vldr.32	s0, [r4, #368]
 1931              		.loc 1 315 0
 1932 0536 0193     		str	r3, [sp, #4]
 1933              		.loc 1 316 0
 1934 0538 2846     		mov	r0, r5
 1935 053a FFF7FEFF 		bl	buffer_append_float32_auto
 1936              	.LVL212:
 1937              		.loc 1 317 0
 1938 053e 3146     		mov	r1, r6
ARM GAS  /tmp/cc4M9ACW.s 			page 35


 1939 0540 94ED5D0A 		vldr.32	s0, [r4, #372]
 1940 0544 2846     		mov	r0, r5
 1941 0546 FFF7FEFF 		bl	buffer_append_float32_auto
 1942              	.LVL213:
 1943              		.loc 1 318 0
 1944 054a 3146     		mov	r1, r6
 1945 054c 94ED5E0A 		vldr.32	s0, [r4, #376]
 1946 0550 2846     		mov	r0, r5
 1947 0552 FFF7FEFF 		bl	buffer_append_float32_auto
 1948              	.LVL214:
 1949              		.loc 1 319 0
 1950 0556 3146     		mov	r1, r6
 1951 0558 94ED5F0A 		vldr.32	s0, [r4, #380]
 1952 055c 2846     		mov	r0, r5
 1953 055e FFF7FEFF 		bl	buffer_append_float32_auto
 1954              	.LVL215:
 1955              		.loc 1 320 0
 1956 0562 3146     		mov	r1, r6
 1957 0564 94ED600A 		vldr.32	s0, [r4, #384]
 1958 0568 2846     		mov	r0, r5
 1959 056a FFF7FEFF 		bl	buffer_append_float32_auto
 1960              	.LVL216:
 1961              		.loc 1 321 0
 1962 056e 94ED610A 		vldr.32	s0, [r4, #388]
 1963 0572 3146     		mov	r1, r6
 1964 0574 2846     		mov	r0, r5
 1965 0576 FFF7FEFF 		bl	buffer_append_float32_auto
 1966              	.LVL217:
 1967              		.loc 1 322 0
 1968 057a 3246     		mov	r2, r6
 1969 057c B4F88811 		ldrh	r1, [r4, #392]
 1970 0580 2846     		mov	r0, r5
 1971 0582 FFF7FEFF 		bl	buffer_append_uint16
 1972              	.LVL218:
 1973              		.loc 1 323 0
 1974 0586 94ED630A 		vldr.32	s0, [r4, #396]
 1975 058a 3146     		mov	r1, r6
 1976 058c 2846     		mov	r0, r5
 1977 058e FFF7FEFF 		bl	buffer_append_float32_auto
 1978              	.LVL219:
 1979              		.loc 1 324 0
 1980 0592 3246     		mov	r2, r6
 1981 0594 B4F89011 		ldrh	r1, [r4, #400]
 1982 0598 2846     		mov	r0, r5
 1983 059a FFF7FEFF 		bl	buffer_append_uint16
 1984              	.LVL220:
 1985              		.loc 1 325 0
 1986 059e 3246     		mov	r2, r6
 1987 05a0 B4F89211 		ldrh	r1, [r4, #402]
 1988 05a4 2846     		mov	r0, r5
 1989 05a6 FFF7FEFF 		bl	buffer_append_uint16
 1990              	.LVL221:
 1991              		.loc 1 326 0
 1992 05aa 3146     		mov	r1, r6
 1993 05ac 94ED650A 		vldr.32	s0, [r4, #404]
 1994 05b0 2846     		mov	r0, r5
 1995 05b2 FFF7FEFF 		bl	buffer_append_float32_auto
ARM GAS  /tmp/cc4M9ACW.s 			page 36


 1996              	.LVL222:
 1997              		.loc 1 327 0
 1998 05b6 3146     		mov	r1, r6
 1999 05b8 94ED660A 		vldr.32	s0, [r4, #408]
 2000 05bc 2846     		mov	r0, r5
 2001 05be FFF7FEFF 		bl	buffer_append_float32_auto
 2002              	.LVL223:
 2003              		.loc 1 328 0
 2004 05c2 3146     		mov	r1, r6
 2005 05c4 94ED670A 		vldr.32	s0, [r4, #412]
 2006 05c8 2846     		mov	r0, r5
 2007 05ca FFF7FEFF 		bl	buffer_append_float32_auto
 2008              	.LVL224:
 2009              		.loc 1 329 0
 2010 05ce 3146     		mov	r1, r6
 2011 05d0 94ED680A 		vldr.32	s0, [r4, #416]
 2012 05d4 2846     		mov	r0, r5
 2013 05d6 FFF7FEFF 		bl	buffer_append_float32_auto
 2014              	.LVL225:
 2015              		.loc 1 330 0
 2016 05da 3146     		mov	r1, r6
 2017 05dc 94ED690A 		vldr.32	s0, [r4, #420]
 2018 05e0 2846     		mov	r0, r5
 2019 05e2 FFF7FEFF 		bl	buffer_append_float32_auto
 2020              	.LVL226:
 2021              		.loc 1 331 0
 2022 05e6 3146     		mov	r1, r6
 2023 05e8 94ED6A0A 		vldr.32	s0, [r4, #424]
 2024 05ec 2846     		mov	r0, r5
 2025 05ee FFF7FEFF 		bl	buffer_append_float32_auto
 2026              	.LVL227:
 2027              		.loc 1 332 0
 2028 05f2 3146     		mov	r1, r6
 2029 05f4 94ED6B0A 		vldr.32	s0, [r4, #428]
 2030 05f8 2846     		mov	r0, r5
 2031 05fa FFF7FEFF 		bl	buffer_append_float32_auto
 2032              	.LVL228:
 2033              		.loc 1 333 0
 2034 05fe 3146     		mov	r1, r6
 2035 0600 94ED6C0A 		vldr.32	s0, [r4, #432]
 2036 0604 2846     		mov	r0, r5
 2037 0606 FFF7FEFF 		bl	buffer_append_float32_auto
 2038              	.LVL229:
 2039              		.loc 1 334 0
 2040 060a 3146     		mov	r1, r6
 2041 060c 94ED6D0A 		vldr.32	s0, [r4, #436]
 2042 0610 2846     		mov	r0, r5
 2043 0612 FFF7FEFF 		bl	buffer_append_float32_auto
 2044              	.LVL230:
 2045              		.loc 1 335 0
 2046 0616 3146     		mov	r1, r6
 2047 0618 94ED6E0A 		vldr.32	s0, [r4, #440]
 2048 061c 2846     		mov	r0, r5
 2049 061e FFF7FEFF 		bl	buffer_append_float32_auto
 2050              	.LVL231:
 2051              		.loc 1 336 0
 2052 0622 3146     		mov	r1, r6
ARM GAS  /tmp/cc4M9ACW.s 			page 37


 2053 0624 94ED6F0A 		vldr.32	s0, [r4, #444]
 2054 0628 2846     		mov	r0, r5
 2055 062a FFF7FEFF 		bl	buffer_append_float32_auto
 2056              	.LVL232:
 2057              		.loc 1 337 0
 2058 062e 3146     		mov	r1, r6
 2059 0630 94ED700A 		vldr.32	s0, [r4, #448]
 2060 0634 2846     		mov	r0, r5
 2061 0636 FFF7FEFF 		bl	buffer_append_float32_auto
 2062              	.LVL233:
 2063              		.loc 1 338 0
 2064 063a 3146     		mov	r1, r6
 2065 063c 94ED710A 		vldr.32	s0, [r4, #452]
 2066 0640 2846     		mov	r0, r5
 2067 0642 FFF7FEFF 		bl	buffer_append_float32_auto
 2068              	.LVL234:
 2069              		.loc 1 339 0
 2070 0646 94ED720A 		vldr.32	s0, [r4, #456]
 2071 064a 3146     		mov	r1, r6
 2072 064c 2846     		mov	r0, r5
 2073 064e FFF7FEFF 		bl	buffer_append_float32_auto
 2074              	.LVL235:
 2075              		.loc 1 340 0
 2076 0652 3246     		mov	r2, r6
 2077 0654 B4F8CC11 		ldrh	r1, [r4, #460]
 2078 0658 2846     		mov	r0, r5
 2079 065a FFF7FEFF 		bl	buffer_append_uint16
 2080              	.LVL236:
 2081              		.loc 1 341 0
 2082 065e 94ED740A 		vldr.32	s0, [r4, #464]
 2083 0662 3146     		mov	r1, r6
 2084 0664 2846     		mov	r0, r5
 2085 0666 FFF7FEFF 		bl	buffer_append_float32_auto
 2086              	.LVL237:
 2087              		.loc 1 342 0
 2088 066a 3246     		mov	r2, r6
 2089 066c B4F8D411 		ldrh	r1, [r4, #468]
 2090 0670 2846     		mov	r0, r5
 2091 0672 FFF7FEFF 		bl	buffer_append_uint16
 2092              	.LVL238:
 2093              		.loc 1 343 0
 2094 0676 3246     		mov	r2, r6
 2095 0678 B4F8D611 		ldrh	r1, [r4, #470]
 2096 067c 2846     		mov	r0, r5
 2097 067e FFF7FEFF 		bl	buffer_append_uint16
 2098              	.LVL239:
 2099              		.loc 1 344 0
 2100 0682 019B     		ldr	r3, [sp, #4]
 2101 0684 94F8D821 		ldrb	r2, [r4, #472]	@ zero_extendqisi2
 2102 0688 EA54     		strb	r2, [r5, r3]
 2103              		.loc 1 345 0
 2104 068a EA18     		adds	r2, r5, r3
 2105 068c 94F8D911 		ldrb	r1, [r4, #473]	@ zero_extendqisi2
 2106 0690 5170     		strb	r1, [r2, #1]
 2107 0692 0233     		adds	r3, r3, #2
 2108              		.loc 1 346 0
 2109 0694 F0EE680A 		vmov.f32	s1, s17
ARM GAS  /tmp/cc4M9ACW.s 			page 38


 2110 0698 94ED770A 		vldr.32	s0, [r4, #476]
 2111              		.loc 1 345 0
 2112 069c 0193     		str	r3, [sp, #4]
 2113              		.loc 1 346 0
 2114 069e 3146     		mov	r1, r6
 2115 06a0 2846     		mov	r0, r5
 2116 06a2 FFF7FEFF 		bl	buffer_append_float16
 2117              	.LVL240:
 2118              		.loc 1 347 0
 2119 06a6 3146     		mov	r1, r6
 2120 06a8 94ED780A 		vldr.32	s0, [r4, #480]
 2121 06ac 2846     		mov	r0, r5
 2122 06ae F2EE040A 		vmov.f32	s1, #1.0e+1
 2123 06b2 FFF7FEFF 		bl	buffer_append_float16
 2124              	.LVL241:
 2125              		.loc 1 348 0
 2126 06b6 94ED790A 		vldr.32	s0, [r4, #484]
 2127 06ba 3146     		mov	r1, r6
 2128 06bc 2846     		mov	r0, r5
 2129 06be F2EE040A 		vmov.f32	s1, #1.0e+1
 2130 06c2 FFF7FEFF 		bl	buffer_append_float16
 2131              	.LVL242:
 2132              		.loc 1 349 0
 2133 06c6 019B     		ldr	r3, [sp, #4]
 2134 06c8 94F8E821 		ldrb	r2, [r4, #488]	@ zero_extendqisi2
 2135 06cc EA54     		strb	r2, [r5, r3]
 2136              		.loc 1 350 0
 2137 06ce 2846     		mov	r0, r5
 2138              		.loc 1 349 0
 2139 06d0 0133     		adds	r3, r3, #1
 2140              		.loc 1 350 0
 2141 06d2 94F8E911 		ldrb	r1, [r4, #489]	@ zero_extendqisi2
 2142              		.loc 1 349 0
 2143 06d6 0193     		str	r3, [sp, #4]
 2144              		.loc 1 350 0
 2145 06d8 3246     		mov	r2, r6
 2146 06da FFF7FEFF 		bl	buffer_append_uint16
 2147              	.LVL243:
 2148              		.loc 1 351 0
 2149 06de 019B     		ldr	r3, [sp, #4]
 2150 06e0 94F8EA21 		ldrb	r2, [r4, #490]	@ zero_extendqisi2
 2151 06e4 EA54     		strb	r2, [r5, r3]
 2152              		.loc 1 352 0
 2153 06e6 3146     		mov	r1, r6
 2154              		.loc 1 351 0
 2155 06e8 0133     		adds	r3, r3, #1
 2156              		.loc 1 352 0
 2157 06ea 94ED7B0A 		vldr.32	s0, [r4, #492]
 2158              		.loc 1 351 0
 2159 06ee 0193     		str	r3, [sp, #4]
 2160              		.loc 1 352 0
 2161 06f0 F0EE480A 		vmov.f32	s1, s16
 2162 06f4 2846     		mov	r0, r5
 2163 06f6 FFF7FEFF 		bl	buffer_append_float16
 2164              	.LVL244:
 2165              		.loc 1 353 0
 2166 06fa F0EE480A 		vmov.f32	s1, s16
ARM GAS  /tmp/cc4M9ACW.s 			page 39


 2167 06fe 94ED7C0A 		vldr.32	s0, [r4, #496]
 2168 0702 3146     		mov	r1, r6
 2169 0704 2846     		mov	r0, r5
 2170 0706 FFF7FEFF 		bl	buffer_append_float16
 2171              	.LVL245:
 2172              		.loc 1 354 0
 2173 070a 3246     		mov	r2, r6
 2174 070c B4F8F411 		ldrh	r1, [r4, #500]
 2175 0710 2846     		mov	r0, r5
 2176 0712 FFF7FEFF 		bl	buffer_append_uint16
 2177              	.LVL246:
 2178              		.loc 1 355 0
 2179 0716 019B     		ldr	r3, [sp, #4]
 2180 0718 94F8F821 		ldrb	r2, [r4, #504]	@ zero_extendqisi2
 2181 071c EA54     		strb	r2, [r5, r3]
 2182              		.loc 1 356 0
 2183 071e EA18     		adds	r2, r5, r3
 2184 0720 94F8F911 		ldrb	r1, [r4, #505]	@ zero_extendqisi2
 2185 0724 5170     		strb	r1, [r2, #1]
 2186 0726 0233     		adds	r3, r3, #2
 2187              		.loc 1 357 0
 2188 0728 3246     		mov	r2, r6
 2189 072a B4F8FC11 		ldrh	r1, [r4, #508]
 2190              		.loc 1 356 0
 2191 072e 0193     		str	r3, [sp, #4]
 2192              		.loc 1 357 0
 2193 0730 2846     		mov	r0, r5
 2194 0732 FFF7FEFF 		bl	buffer_append_uint16
 2195              	.LVL247:
 2196              		.loc 1 358 0
 2197 0736 3146     		mov	r1, r6
 2198 0738 94ED800A 		vldr.32	s0, [r4, #512]
 2199 073c 2846     		mov	r0, r5
 2200 073e FFF7FEFF 		bl	buffer_append_float32_auto
 2201              	.LVL248:
 2202              		.loc 1 359 0
 2203 0742 3146     		mov	r1, r6
 2204 0744 94ED810A 		vldr.32	s0, [r4, #516]
 2205 0748 2846     		mov	r0, r5
 2206 074a FFF7FEFF 		bl	buffer_append_float32_auto
 2207              	.LVL249:
 2208              		.loc 1 360 0
 2209 074e 3146     		mov	r1, r6
 2210 0750 94ED820A 		vldr.32	s0, [r4, #520]
 2211 0754 2846     		mov	r0, r5
 2212 0756 FFF7FEFF 		bl	buffer_append_float32_auto
 2213              	.LVL250:
 2214              		.loc 1 361 0
 2215 075a 3146     		mov	r1, r6
 2216 075c 94ED830A 		vldr.32	s0, [r4, #524]
 2217 0760 2846     		mov	r0, r5
 2218 0762 FFF7FEFF 		bl	buffer_append_float32_auto
 2219              	.LVL251:
 2220              		.loc 1 362 0
 2221 0766 3146     		mov	r1, r6
 2222 0768 94ED840A 		vldr.32	s0, [r4, #528]
 2223 076c 2846     		mov	r0, r5
ARM GAS  /tmp/cc4M9ACW.s 			page 40


 2224 076e FFF7FEFF 		bl	buffer_append_float32_auto
 2225              	.LVL252:
 2226              		.loc 1 363 0
 2227 0772 3146     		mov	r1, r6
 2228 0774 94ED850A 		vldr.32	s0, [r4, #532]
 2229 0778 2846     		mov	r0, r5
 2230 077a FFF7FEFF 		bl	buffer_append_float32_auto
 2231              	.LVL253:
 2232              		.loc 1 364 0
 2233 077e 3146     		mov	r1, r6
 2234 0780 94ED860A 		vldr.32	s0, [r4, #536]
 2235 0784 2846     		mov	r0, r5
 2236 0786 FFF7FEFF 		bl	buffer_append_float32_auto
 2237              	.LVL254:
 2238              		.loc 1 365 0
 2239 078a 3146     		mov	r1, r6
 2240 078c 94ED870A 		vldr.32	s0, [r4, #540]
 2241 0790 2846     		mov	r0, r5
 2242 0792 FFF7FEFF 		bl	buffer_append_float32_auto
 2243              	.LVL255:
 2244              		.loc 1 366 0
 2245 0796 3146     		mov	r1, r6
 2246 0798 94ED880A 		vldr.32	s0, [r4, #544]
 2247 079c 2846     		mov	r0, r5
 2248 079e FFF7FEFF 		bl	buffer_append_float32_auto
 2249              	.LVL256:
 2250              		.loc 1 367 0
 2251 07a2 3146     		mov	r1, r6
 2252 07a4 94ED890A 		vldr.32	s0, [r4, #548]
 2253 07a8 2846     		mov	r0, r5
 2254 07aa FFF7FEFF 		bl	buffer_append_float32_auto
 2255              	.LVL257:
 2256              		.loc 1 368 0
 2257 07ae 3146     		mov	r1, r6
 2258 07b0 94ED8A0A 		vldr.32	s0, [r4, #552]
 2259 07b4 2846     		mov	r0, r5
 2260 07b6 FFF7FEFF 		bl	buffer_append_float32_auto
 2261              	.LVL258:
 2262              		.loc 1 369 0
 2263 07ba 3146     		mov	r1, r6
 2264 07bc 94ED8B0A 		vldr.32	s0, [r4, #556]
 2265 07c0 2846     		mov	r0, r5
 2266 07c2 FFF7FEFF 		bl	buffer_append_float32_auto
 2267              	.LVL259:
 2268              		.loc 1 370 0
 2269 07c6 2846     		mov	r0, r5
 2270 07c8 3146     		mov	r1, r6
 2271 07ca 94ED8C0A 		vldr.32	s0, [r4, #560]
 2272 07ce FFF7FEFF 		bl	buffer_append_float32_auto
 2273              	.LVL260:
 2274              		.loc 1 373 0
 2275 07d2 0198     		ldr	r0, [sp, #4]
 2276 07d4 02B0     		add	sp, sp, #8
 2277              		.cfi_def_cfa_offset 24
 2278              		@ sp needed
 2279 07d6 BDEC028B 		vldm	sp!, {d8}
 2280              		.cfi_restore 80
ARM GAS  /tmp/cc4M9ACW.s 			page 41


 2281              		.cfi_restore 81
 2282              		.cfi_def_cfa_offset 16
 2283 07da 70BD     		pop	{r4, r5, r6, pc}
 2284              		.cfi_endproc
 2285              	.LFE220:
 2286              		.size	confgenerator_serialize_appconf, .-confgenerator_serialize_appconf
 2287              		.section	.text.confgenerator_deserialize_mcconf,"ax",%progbits
 2288              		.align	1
 2289              		.p2align 4,,15
 2290              		.global	confgenerator_deserialize_mcconf
 2291              		.syntax unified
 2292              		.thumb
 2293              		.thumb_func
 2294              		.fpu fpv4-sp-d16
 2295              		.type	confgenerator_deserialize_mcconf, %function
 2296              	confgenerator_deserialize_mcconf:
 2297              	.LFB221:
 2298              		.loc 1 375 0
 2299              		.cfi_startproc
 2300              		@ args = 0, pretend = 0, frame = 8
 2301              		@ frame_needed = 0, uses_anonymous_args = 0
 2302              	.LVL261:
 2303 0000 F0B5     		push	{r4, r5, r6, r7, lr}
 2304              		.cfi_def_cfa_offset 20
 2305              		.cfi_offset 4, -20
 2306              		.cfi_offset 5, -16
 2307              		.cfi_offset 6, -12
 2308              		.cfi_offset 7, -8
 2309              		.cfi_offset 14, -4
 2310 0002 83B0     		sub	sp, sp, #12
 2311              		.cfi_def_cfa_offset 32
 2312              		.loc 1 376 0
 2313 0004 02AE     		add	r6, sp, #8
 2314 0006 0027     		movs	r7, #0
 2315 0008 46F8047D 		str	r7, [r6, #-4]!
 2316              		.loc 1 375 0
 2317 000c 0C46     		mov	r4, r1
 2318              		.loc 1 378 0
 2319 000e 3146     		mov	r1, r6
 2320              	.LVL262:
 2321              		.loc 1 375 0
 2322 0010 0546     		mov	r5, r0
 2323              		.loc 1 378 0
 2324 0012 FFF7FEFF 		bl	buffer_get_uint32
 2325              	.LVL263:
 2326              		.loc 1 379 0
 2327 0016 034B     		ldr	r3, .L19
 2328 0018 9842     		cmp	r0, r3
 2329 001a 0BD0     		beq	.L18
 2330              		.loc 1 380 0
 2331 001c 3846     		mov	r0, r7
 2332              	.LVL264:
 2333              		.loc 1 562 0
 2334 001e 03B0     		add	sp, sp, #12
 2335              		.cfi_remember_state
 2336              		.cfi_def_cfa_offset 20
 2337              		@ sp needed
ARM GAS  /tmp/cc4M9ACW.s 			page 42


 2338 0020 F0BD     		pop	{r4, r5, r6, r7, pc}
 2339              	.LVL265:
 2340              	.L20:
 2341 0022 00BF     		.align	2
 2342              	.L19:
 2343 0024 116BB23C 		.word	1018325777
 2344 0028 00401C46 		.word	1176256512
 2345 002c 00007A44 		.word	1148846080
 2346 0030 0000C842 		.word	1120403456
 2347              	.LVL266:
 2348              	.L18:
 2349              		.cfi_restore_state
 2350              		.loc 1 383 0
 2351 0034 019B     		ldr	r3, [sp, #4]
 2352 0036 EA5C     		ldrb	r2, [r5, r3]	@ zero_extendqisi2
 2353 0038 84F88420 		strb	r2, [r4, #132]
 2354              		.loc 1 384 0
 2355 003c EA18     		adds	r2, r5, r3
 2356              		.loc 1 387 0
 2357 003e 2846     		mov	r0, r5
 2358              	.LVL267:
 2359              		.loc 1 384 0
 2360 0040 5178     		ldrb	r1, [r2, #1]	@ zero_extendqisi2
 2361 0042 84F88510 		strb	r1, [r4, #133]
 2362              		.loc 1 385 0
 2363 0046 9178     		ldrb	r1, [r2, #2]	@ zero_extendqisi2
 2364 0048 84F88610 		strb	r1, [r4, #134]
 2365              		.loc 1 386 0
 2366 004c D278     		ldrb	r2, [r2, #3]	@ zero_extendqisi2
 2367 004e 84F88720 		strb	r2, [r4, #135]
 2368 0052 0433     		adds	r3, r3, #4
 2369              		.loc 1 387 0
 2370 0054 3146     		mov	r1, r6
 2371              		.loc 1 386 0
 2372 0056 0193     		str	r3, [sp, #4]
 2373              		.loc 1 387 0
 2374 0058 FFF7FEFF 		bl	buffer_get_float32_auto
 2375              	.LVL268:
 2376              		.loc 1 388 0
 2377 005c 3146     		mov	r1, r6
 2378 005e 2846     		mov	r0, r5
 2379              		.loc 1 387 0
 2380 0060 84ED000A 		vstr.32	s0, [r4]
 2381              		.loc 1 388 0
 2382 0064 FFF7FEFF 		bl	buffer_get_float32_auto
 2383              	.LVL269:
 2384              		.loc 1 389 0
 2385 0068 3146     		mov	r1, r6
 2386 006a 2846     		mov	r0, r5
 2387              		.loc 1 388 0
 2388 006c 84ED010A 		vstr.32	s0, [r4, #4]
 2389              		.loc 1 389 0
 2390 0070 FFF7FEFF 		bl	buffer_get_float32_auto
 2391              	.LVL270:
 2392              		.loc 1 390 0
 2393 0074 3146     		mov	r1, r6
 2394 0076 2846     		mov	r0, r5
ARM GAS  /tmp/cc4M9ACW.s 			page 43


 2395              		.loc 1 389 0
 2396 0078 84ED020A 		vstr.32	s0, [r4, #8]
 2397              		.loc 1 390 0
 2398 007c FFF7FEFF 		bl	buffer_get_float32_auto
 2399              	.LVL271:
 2400              		.loc 1 391 0
 2401 0080 3146     		mov	r1, r6
 2402 0082 2846     		mov	r0, r5
 2403              		.loc 1 390 0
 2404 0084 84ED030A 		vstr.32	s0, [r4, #12]
 2405              		.loc 1 391 0
 2406 0088 FFF7FEFF 		bl	buffer_get_float32_auto
 2407              	.LVL272:
 2408              		.loc 1 392 0
 2409 008c 3146     		mov	r1, r6
 2410 008e 2846     		mov	r0, r5
 2411              		.loc 1 391 0
 2412 0090 84ED040A 		vstr.32	s0, [r4, #16]
 2413              		.loc 1 392 0
 2414 0094 FFF7FEFF 		bl	buffer_get_float32_auto
 2415              	.LVL273:
 2416              		.loc 1 393 0
 2417 0098 3146     		mov	r1, r6
 2418 009a 2846     		mov	r0, r5
 2419              		.loc 1 392 0
 2420 009c 84ED050A 		vstr.32	s0, [r4, #20]
 2421              		.loc 1 393 0
 2422 00a0 FFF7FEFF 		bl	buffer_get_float32_auto
 2423              	.LVL274:
 2424              		.loc 1 394 0
 2425 00a4 3146     		mov	r1, r6
 2426              		.loc 1 393 0
 2427 00a6 84ED060A 		vstr.32	s0, [r4, #24]
 2428              		.loc 1 394 0
 2429 00aa 2846     		mov	r0, r5
 2430 00ac 1FED220A 		vldr.32	s0, .L19+4
 2431 00b0 FFF7FEFF 		bl	buffer_get_float16
 2432              	.LVL275:
 2433              		.loc 1 395 0
 2434 00b4 3146     		mov	r1, r6
 2435 00b6 2846     		mov	r0, r5
 2436              		.loc 1 394 0
 2437 00b8 84ED070A 		vstr.32	s0, [r4, #28]
 2438              		.loc 1 395 0
 2439 00bc FFF7FEFF 		bl	buffer_get_float32_auto
 2440              	.LVL276:
 2441              		.loc 1 396 0
 2442 00c0 3146     		mov	r1, r6
 2443 00c2 2846     		mov	r0, r5
 2444              		.loc 1 395 0
 2445 00c4 84ED080A 		vstr.32	s0, [r4, #32]
 2446              		.loc 1 396 0
 2447 00c8 FFF7FEFF 		bl	buffer_get_float32_auto
 2448              	.LVL277:
 2449              		.loc 1 397 0
 2450 00cc 3146     		mov	r1, r6
 2451 00ce 2846     		mov	r0, r5
ARM GAS  /tmp/cc4M9ACW.s 			page 44


 2452              		.loc 1 396 0
 2453 00d0 84ED090A 		vstr.32	s0, [r4, #36]
 2454              		.loc 1 397 0
 2455 00d4 FFF7FEFF 		bl	buffer_get_float32_auto
 2456              	.LVL278:
 2457              		.loc 1 398 0
 2458 00d8 3146     		mov	r1, r6
 2459 00da 2846     		mov	r0, r5
 2460              		.loc 1 397 0
 2461 00dc 84ED0A0A 		vstr.32	s0, [r4, #40]
 2462              		.loc 1 398 0
 2463 00e0 FFF7FEFF 		bl	buffer_get_float32_auto
 2464              	.LVL279:
 2465              		.loc 1 399 0
 2466 00e4 3146     		mov	r1, r6
 2467 00e6 2846     		mov	r0, r5
 2468              		.loc 1 398 0
 2469 00e8 84ED0B0A 		vstr.32	s0, [r4, #44]
 2470              		.loc 1 399 0
 2471 00ec FFF7FEFF 		bl	buffer_get_float32_auto
 2472              	.LVL280:
 2473              		.loc 1 400 0
 2474 00f0 3146     		mov	r1, r6
 2475 00f2 2846     		mov	r0, r5
 2476              		.loc 1 399 0
 2477 00f4 84ED0C0A 		vstr.32	s0, [r4, #48]
 2478              		.loc 1 400 0
 2479 00f8 FFF7FEFF 		bl	buffer_get_float32_auto
 2480              	.LVL281:
 2481              		.loc 1 401 0
 2482 00fc 019B     		ldr	r3, [sp, #4]
 2483              		.loc 1 400 0
 2484 00fe 84ED0D0A 		vstr.32	s0, [r4, #52]
 2485              		.loc 1 401 0
 2486 0102 EA5C     		ldrb	r2, [r5, r3]	@ zero_extendqisi2
 2487 0104 D21B     		subs	r2, r2, r7
 2488 0106 18BF     		it	ne
 2489 0108 0122     		movne	r2, #1
 2490 010a 84F83820 		strb	r2, [r4, #56]
 2491 010e 0133     		adds	r3, r3, #1
 2492              		.loc 1 402 0
 2493 0110 3146     		mov	r1, r6
 2494 0112 2846     		mov	r0, r5
 2495 0114 B2EE040A 		vmov.f32	s0, #1.0e+1
 2496              		.loc 1 401 0
 2497 0118 0193     		str	r3, [sp, #4]
 2498              		.loc 1 402 0
 2499 011a FFF7FEFF 		bl	buffer_get_float16
 2500              	.LVL282:
 2501              		.loc 1 403 0
 2502 011e 3146     		mov	r1, r6
 2503              		.loc 1 402 0
 2504 0120 84ED0F0A 		vstr.32	s0, [r4, #60]
 2505              		.loc 1 403 0
 2506 0124 2846     		mov	r0, r5
 2507 0126 B2EE040A 		vmov.f32	s0, #1.0e+1
 2508 012a FFF7FEFF 		bl	buffer_get_float16
ARM GAS  /tmp/cc4M9ACW.s 			page 45


 2509              	.LVL283:
 2510              		.loc 1 404 0
 2511 012e 3146     		mov	r1, r6
 2512              		.loc 1 403 0
 2513 0130 84ED100A 		vstr.32	s0, [r4, #64]
 2514              		.loc 1 404 0
 2515 0134 2846     		mov	r0, r5
 2516 0136 B2EE040A 		vmov.f32	s0, #1.0e+1
 2517 013a FFF7FEFF 		bl	buffer_get_float16
 2518              	.LVL284:
 2519              		.loc 1 405 0
 2520 013e 3146     		mov	r1, r6
 2521              		.loc 1 404 0
 2522 0140 84ED110A 		vstr.32	s0, [r4, #68]
 2523              		.loc 1 405 0
 2524 0144 2846     		mov	r0, r5
 2525 0146 B2EE040A 		vmov.f32	s0, #1.0e+1
 2526 014a FFF7FEFF 		bl	buffer_get_float16
 2527              	.LVL285:
 2528              		.loc 1 406 0
 2529 014e 3146     		mov	r1, r6
 2530              		.loc 1 405 0
 2531 0150 84ED120A 		vstr.32	s0, [r4, #72]
 2532              		.loc 1 406 0
 2533 0154 2846     		mov	r0, r5
 2534 0156 1FED4C0A 		vldr.32	s0, .L19+4
 2535 015a FFF7FEFF 		bl	buffer_get_float16
 2536              	.LVL286:
 2537              		.loc 1 407 0
 2538 015e 3146     		mov	r1, r6
 2539              		.loc 1 406 0
 2540 0160 84ED130A 		vstr.32	s0, [r4, #76]
 2541              		.loc 1 407 0
 2542 0164 2846     		mov	r0, r5
 2543 0166 1FED500A 		vldr.32	s0, .L19+4
 2544 016a FFF7FEFF 		bl	buffer_get_float16
 2545              	.LVL287:
 2546              		.loc 1 408 0
 2547 016e 3146     		mov	r1, r6
 2548              		.loc 1 407 0
 2549 0170 84ED140A 		vstr.32	s0, [r4, #80]
 2550              		.loc 1 408 0
 2551 0174 2846     		mov	r0, r5
 2552 0176 1FED540A 		vldr.32	s0, .L19+4
 2553 017a FFF7FEFF 		bl	buffer_get_float16
 2554              	.LVL288:
 2555              		.loc 1 409 0
 2556 017e 3146     		mov	r1, r6
 2557 0180 2846     		mov	r0, r5
 2558              		.loc 1 408 0
 2559 0182 84ED150A 		vstr.32	s0, [r4, #84]
 2560              		.loc 1 409 0
 2561 0186 FFF7FEFF 		bl	buffer_get_float32_auto
 2562              	.LVL289:
 2563              		.loc 1 410 0
 2564 018a 3146     		mov	r1, r6
 2565 018c 2846     		mov	r0, r5
ARM GAS  /tmp/cc4M9ACW.s 			page 46


 2566              		.loc 1 409 0
 2567 018e 84ED160A 		vstr.32	s0, [r4, #88]
 2568              		.loc 1 410 0
 2569 0192 FFF7FEFF 		bl	buffer_get_float32_auto
 2570              	.LVL290:
 2571              		.loc 1 411 0
 2572 0196 3146     		mov	r1, r6
 2573              		.loc 1 410 0
 2574 0198 84ED170A 		vstr.32	s0, [r4, #92]
 2575              		.loc 1 411 0
 2576 019c 2846     		mov	r0, r5
 2577 019e 1FED5E0A 		vldr.32	s0, .L19+4
 2578 01a2 FFF7FEFF 		bl	buffer_get_float16
 2579              	.LVL291:
 2580              		.loc 1 412 0
 2581 01a6 3146     		mov	r1, r6
 2582              		.loc 1 411 0
 2583 01a8 84ED180A 		vstr.32	s0, [r4, #96]
 2584              		.loc 1 412 0
 2585 01ac 2846     		mov	r0, r5
 2586 01ae 1FED620A 		vldr.32	s0, .L19+4
 2587 01b2 FFF7FEFF 		bl	buffer_get_float16
 2588              	.LVL292:
 2589              		.loc 1 413 0
 2590 01b6 3146     		mov	r1, r6
 2591              		.loc 1 412 0
 2592 01b8 84ED190A 		vstr.32	s0, [r4, #100]
 2593              		.loc 1 413 0
 2594 01bc 2846     		mov	r0, r5
 2595 01be 1FED660A 		vldr.32	s0, .L19+4
 2596 01c2 FFF7FEFF 		bl	buffer_get_float16
 2597              	.LVL293:
 2598              		.loc 1 414 0
 2599 01c6 3146     		mov	r1, r6
 2600 01c8 2846     		mov	r0, r5
 2601              		.loc 1 413 0
 2602 01ca 84ED1A0A 		vstr.32	s0, [r4, #104]
 2603              		.loc 1 414 0
 2604 01ce FFF7FEFF 		bl	buffer_get_float32_auto
 2605              	.LVL294:
 2606              		.loc 1 415 0
 2607 01d2 3146     		mov	r1, r6
 2608 01d4 2846     		mov	r0, r5
 2609              		.loc 1 414 0
 2610 01d6 84ED220A 		vstr.32	s0, [r4, #136]
 2611              		.loc 1 415 0
 2612 01da FFF7FEFF 		bl	buffer_get_float32_auto
 2613              	.LVL295:
 2614              		.loc 1 416 0
 2615 01de 3146     		mov	r1, r6
 2616 01e0 2846     		mov	r0, r5
 2617              		.loc 1 415 0
 2618 01e2 84ED230A 		vstr.32	s0, [r4, #140]
 2619              		.loc 1 416 0
 2620 01e6 FFF7FEFF 		bl	buffer_get_float32_auto
 2621              	.LVL296:
 2622              		.loc 1 417 0
ARM GAS  /tmp/cc4M9ACW.s 			page 47


 2623 01ea 3146     		mov	r1, r6
 2624              		.loc 1 416 0
 2625 01ec 84ED240A 		vstr.32	s0, [r4, #144]
 2626              		.loc 1 417 0
 2627 01f0 2846     		mov	r0, r5
 2628 01f2 B2EE040A 		vmov.f32	s0, #1.0e+1
 2629 01f6 FFF7FEFF 		bl	buffer_get_float16
 2630              	.LVL297:
 2631              		.loc 1 418 0
 2632 01fa 3146     		mov	r1, r6
 2633              		.loc 1 417 0
 2634 01fc 84ED250A 		vstr.32	s0, [r4, #148]
 2635              		.loc 1 418 0
 2636 0200 2846     		mov	r0, r5
 2637 0202 1FED770A 		vldr.32	s0, .L19+4
 2638 0206 FFF7FEFF 		bl	buffer_get_float16
 2639              	.LVL298:
 2640              		.loc 1 419 0
 2641 020a 3146     		mov	r1, r6
 2642 020c 2846     		mov	r0, r5
 2643              		.loc 1 418 0
 2644 020e 84ED260A 		vstr.32	s0, [r4, #152]
 2645              		.loc 1 419 0
 2646 0212 FFF7FEFF 		bl	buffer_get_float32_auto
 2647              	.LVL299:
 2648              		.loc 1 420 0
 2649 0216 3146     		mov	r1, r6
 2650 0218 2846     		mov	r0, r5
 2651              		.loc 1 419 0
 2652 021a 84ED270A 		vstr.32	s0, [r4, #156]
 2653              		.loc 1 420 0
 2654 021e FFF7FEFF 		bl	buffer_get_float32_auto
 2655              	.LVL300:
 2656              		.loc 1 421 0
 2657 0222 019A     		ldr	r2, [sp, #4]
 2658              		.loc 1 420 0
 2659 0224 84ED280A 		vstr.32	s0, [r4, #160]
 2660              		.loc 1 421 0
 2661 0228 AB5C     		ldrb	r3, [r5, r2]	@ zero_extendqisi2
 2662 022a 84F8A430 		strb	r3, [r4, #164]
 2663              		.loc 1 422 0
 2664 022e AB18     		adds	r3, r5, r2
 2665              		.loc 1 429 0
 2666 0230 2846     		mov	r0, r5
 2667              		.loc 1 422 0
 2668 0232 5978     		ldrb	r1, [r3, #1]	@ zero_extendqisi2
 2669 0234 84F8A510 		strb	r1, [r4, #165]
 2670              		.loc 1 423 0
 2671 0238 9978     		ldrb	r1, [r3, #2]	@ zero_extendqisi2
 2672 023a 84F8A610 		strb	r1, [r4, #166]
 2673              		.loc 1 424 0
 2674 023e D978     		ldrb	r1, [r3, #3]	@ zero_extendqisi2
 2675 0240 84F8A710 		strb	r1, [r4, #167]
 2676              		.loc 1 425 0
 2677 0244 1979     		ldrb	r1, [r3, #4]	@ zero_extendqisi2
 2678 0246 84F8A810 		strb	r1, [r4, #168]
 2679              		.loc 1 426 0
ARM GAS  /tmp/cc4M9ACW.s 			page 48


 2680 024a 5979     		ldrb	r1, [r3, #5]	@ zero_extendqisi2
 2681 024c 84F8A910 		strb	r1, [r4, #169]
 2682              		.loc 1 427 0
 2683 0250 9979     		ldrb	r1, [r3, #6]	@ zero_extendqisi2
 2684 0252 84F8AA10 		strb	r1, [r4, #170]
 2685              		.loc 1 428 0
 2686 0256 DB79     		ldrb	r3, [r3, #7]	@ zero_extendqisi2
 2687 0258 84F8AB30 		strb	r3, [r4, #171]
 2688 025c 0832     		adds	r2, r2, #8
 2689              		.loc 1 429 0
 2690 025e 3146     		mov	r1, r6
 2691              		.loc 1 428 0
 2692 0260 0192     		str	r2, [sp, #4]
 2693              		.loc 1 429 0
 2694 0262 FFF7FEFF 		bl	buffer_get_float32_auto
 2695              	.LVL301:
 2696              		.loc 1 430 0
 2697 0266 3146     		mov	r1, r6
 2698 0268 2846     		mov	r0, r5
 2699              		.loc 1 429 0
 2700 026a 84ED2B0A 		vstr.32	s0, [r4, #172]
 2701              		.loc 1 430 0
 2702 026e FFF7FEFF 		bl	buffer_get_float32_auto
 2703              	.LVL302:
 2704              		.loc 1 431 0
 2705 0272 3146     		mov	r1, r6
 2706 0274 2846     		mov	r0, r5
 2707              		.loc 1 430 0
 2708 0276 84ED2C0A 		vstr.32	s0, [r4, #176]
 2709              		.loc 1 431 0
 2710 027a FFF7FEFF 		bl	buffer_get_float32_auto
 2711              	.LVL303:
 2712              		.loc 1 432 0
 2713 027e 3146     		mov	r1, r6
 2714 0280 2846     		mov	r0, r5
 2715              		.loc 1 431 0
 2716 0282 84ED2D0A 		vstr.32	s0, [r4, #180]
 2717              		.loc 1 432 0
 2718 0286 FFF7FEFF 		bl	buffer_get_float32_auto
 2719              	.LVL304:
 2720              		.loc 1 433 0
 2721 028a 3146     		mov	r1, r6
 2722 028c 2846     		mov	r0, r5
 2723              		.loc 1 432 0
 2724 028e 84ED2E0A 		vstr.32	s0, [r4, #184]
 2725              		.loc 1 433 0
 2726 0292 FFF7FEFF 		bl	buffer_get_float32_auto
 2727              	.LVL305:
 2728              		.loc 1 434 0
 2729 0296 019B     		ldr	r3, [sp, #4]
 2730              		.loc 1 433 0
 2731 0298 84ED2F0A 		vstr.32	s0, [r4, #188]
 2732              		.loc 1 434 0
 2733 029c EA5C     		ldrb	r2, [r5, r3]	@ zero_extendqisi2
 2734 029e D21B     		subs	r2, r2, r7
 2735 02a0 18BF     		it	ne
 2736 02a2 0122     		movne	r2, #1
ARM GAS  /tmp/cc4M9ACW.s 			page 49


 2737 02a4 84F8C420 		strb	r2, [r4, #196]
 2738 02a8 0133     		adds	r3, r3, #1
 2739              		.loc 1 435 0
 2740 02aa 3146     		mov	r1, r6
 2741 02ac 2846     		mov	r0, r5
 2742              		.loc 1 434 0
 2743 02ae 0193     		str	r3, [sp, #4]
 2744              		.loc 1 435 0
 2745 02b0 FFF7FEFF 		bl	buffer_get_float32_auto
 2746              	.LVL306:
 2747              		.loc 1 436 0
 2748 02b4 3146     		mov	r1, r6
 2749 02b6 2846     		mov	r0, r5
 2750              		.loc 1 435 0
 2751 02b8 84ED300A 		vstr.32	s0, [r4, #192]
 2752              		.loc 1 436 0
 2753 02bc FFF7FEFF 		bl	buffer_get_float32_auto
 2754              	.LVL307:
 2755              		.loc 1 437 0
 2756 02c0 3146     		mov	r1, r6
 2757 02c2 2846     		mov	r0, r5
 2758              		.loc 1 436 0
 2759 02c4 84ED320A 		vstr.32	s0, [r4, #200]
 2760              		.loc 1 437 0
 2761 02c8 FFF7FEFF 		bl	buffer_get_float32_auto
 2762              	.LVL308:
 2763              		.loc 1 438 0
 2764 02cc 3146     		mov	r1, r6
 2765 02ce 2846     		mov	r0, r5
 2766              		.loc 1 437 0
 2767 02d0 84ED340A 		vstr.32	s0, [r4, #208]
 2768              		.loc 1 438 0
 2769 02d4 FFF7FEFF 		bl	buffer_get_float32_auto
 2770              	.LVL309:
 2771              		.loc 1 439 0
 2772 02d8 3146     		mov	r1, r6
 2773 02da 2846     		mov	r0, r5
 2774              		.loc 1 438 0
 2775 02dc 84ED360A 		vstr.32	s0, [r4, #216]
 2776              		.loc 1 439 0
 2777 02e0 FFF7FEFF 		bl	buffer_get_float32_auto
 2778              	.LVL310:
 2779              		.loc 1 440 0
 2780 02e4 3146     		mov	r1, r6
 2781 02e6 2846     		mov	r0, r5
 2782              		.loc 1 439 0
 2783 02e8 84ED330A 		vstr.32	s0, [r4, #204]
 2784              		.loc 1 440 0
 2785 02ec FFF7FEFF 		bl	buffer_get_float32_auto
 2786              	.LVL311:
 2787              		.loc 1 441 0
 2788 02f0 3146     		mov	r1, r6
 2789 02f2 2846     		mov	r0, r5
 2790              		.loc 1 440 0
 2791 02f4 84ED350A 		vstr.32	s0, [r4, #212]
 2792              		.loc 1 441 0
 2793 02f8 FFF7FEFF 		bl	buffer_get_float32_auto
ARM GAS  /tmp/cc4M9ACW.s 			page 50


 2794              	.LVL312:
 2795              		.loc 1 442 0
 2796 02fc 019B     		ldr	r3, [sp, #4]
 2797              		.loc 1 441 0
 2798 02fe 84ED370A 		vstr.32	s0, [r4, #220]
 2799              		.loc 1 442 0
 2800 0302 EA5C     		ldrb	r2, [r5, r3]	@ zero_extendqisi2
 2801 0304 84F82C21 		strb	r2, [r4, #300]
 2802 0308 0133     		adds	r3, r3, #1
 2803              		.loc 1 443 0
 2804 030a 3146     		mov	r1, r6
 2805 030c 2846     		mov	r0, r5
 2806              		.loc 1 442 0
 2807 030e 0193     		str	r3, [sp, #4]
 2808              		.loc 1 443 0
 2809 0310 FFF7FEFF 		bl	buffer_get_float32_auto
 2810              	.LVL313:
 2811              		.loc 1 444 0
 2812 0314 3146     		mov	r1, r6
 2813 0316 2846     		mov	r0, r5
 2814              		.loc 1 443 0
 2815 0318 84ED3F0A 		vstr.32	s0, [r4, #252]
 2816              		.loc 1 444 0
 2817 031c FFF7FEFF 		bl	buffer_get_float32_auto
 2818              	.LVL314:
 2819              		.loc 1 445 0
 2820 0320 3146     		mov	r1, r6
 2821 0322 2846     		mov	r0, r5
 2822              		.loc 1 444 0
 2823 0324 84ED400A 		vstr.32	s0, [r4, #256]
 2824              		.loc 1 445 0
 2825 0328 FFF7FEFF 		bl	buffer_get_float32_auto
 2826              	.LVL315:
 2827              		.loc 1 446 0
 2828 032c 3146     		mov	r1, r6
 2829 032e 2846     		mov	r0, r5
 2830              		.loc 1 445 0
 2831 0330 84ED380A 		vstr.32	s0, [r4, #224]
 2832              		.loc 1 446 0
 2833 0334 FFF7FEFF 		bl	buffer_get_float32_auto
 2834              	.LVL316:
 2835              		.loc 1 447 0
 2836 0338 3146     		mov	r1, r6
 2837 033a 2846     		mov	r0, r5
 2838              		.loc 1 446 0
 2839 033c 84ED390A 		vstr.32	s0, [r4, #228]
 2840              		.loc 1 447 0
 2841 0340 FFF7FEFF 		bl	buffer_get_float32_auto
 2842              	.LVL317:
 2843              		.loc 1 448 0
 2844 0344 3146     		mov	r1, r6
 2845 0346 2846     		mov	r0, r5
 2846              		.loc 1 447 0
 2847 0348 84ED3A0A 		vstr.32	s0, [r4, #232]
 2848              		.loc 1 448 0
 2849 034c FFF7FEFF 		bl	buffer_get_float32_auto
 2850              	.LVL318:
ARM GAS  /tmp/cc4M9ACW.s 			page 51


 2851              		.loc 1 449 0
 2852 0350 3146     		mov	r1, r6
 2853 0352 2846     		mov	r0, r5
 2854              		.loc 1 448 0
 2855 0354 84ED3B0A 		vstr.32	s0, [r4, #236]
 2856              		.loc 1 449 0
 2857 0358 FFF7FEFF 		bl	buffer_get_float32_auto
 2858              	.LVL319:
 2859              		.loc 1 450 0
 2860 035c 3146     		mov	r1, r6
 2861 035e 2846     		mov	r0, r5
 2862              		.loc 1 449 0
 2863 0360 84ED3C0A 		vstr.32	s0, [r4, #240]
 2864              		.loc 1 450 0
 2865 0364 FFF7FEFF 		bl	buffer_get_float32_auto
 2866              	.LVL320:
 2867              		.loc 1 451 0
 2868 0368 3146     		mov	r1, r6
 2869              		.loc 1 450 0
 2870 036a 84ED3D0A 		vstr.32	s0, [r4, #244]
 2871              		.loc 1 451 0
 2872 036e 2846     		mov	r0, r5
 2873 0370 1FEDD20A 		vldr.32	s0, .L19+8
 2874 0374 FFF7FEFF 		bl	buffer_get_float16
 2875              	.LVL321:
 2876              		.loc 1 452 0
 2877 0378 3146     		mov	r1, r6
 2878 037a 2846     		mov	r0, r5
 2879              		.loc 1 451 0
 2880 037c 84ED3E0A 		vstr.32	s0, [r4, #248]
 2881              		.loc 1 452 0
 2882 0380 FFF7FEFF 		bl	buffer_get_float32_auto
 2883              	.LVL322:
 2884              		.loc 1 453 0
 2885 0384 3146     		mov	r1, r6
 2886 0386 2846     		mov	r0, r5
 2887              		.loc 1 452 0
 2888 0388 84ED410A 		vstr.32	s0, [r4, #260]
 2889              		.loc 1 453 0
 2890 038c FFF7FEFF 		bl	buffer_get_float32_auto
 2891              	.LVL323:
 2892              		.loc 1 454 0
 2893 0390 3146     		mov	r1, r6
 2894 0392 2846     		mov	r0, r5
 2895              		.loc 1 453 0
 2896 0394 84ED420A 		vstr.32	s0, [r4, #264]
 2897              		.loc 1 454 0
 2898 0398 FFF7FEFF 		bl	buffer_get_float32_auto
 2899              	.LVL324:
 2900              		.loc 1 455 0
 2901 039c 3146     		mov	r1, r6
 2902              		.loc 1 454 0
 2903 039e 84ED430A 		vstr.32	s0, [r4, #268]
 2904              		.loc 1 455 0
 2905 03a2 2846     		mov	r0, r5
 2906 03a4 1FEDDF0A 		vldr.32	s0, .L19+8
 2907 03a8 FFF7FEFF 		bl	buffer_get_float16
ARM GAS  /tmp/cc4M9ACW.s 			page 52


 2908              	.LVL325:
 2909              		.loc 1 456 0
 2910 03ac 3146     		mov	r1, r6
 2911 03ae 2846     		mov	r0, r5
 2912              		.loc 1 455 0
 2913 03b0 84ED440A 		vstr.32	s0, [r4, #272]
 2914              		.loc 1 456 0
 2915 03b4 FFF7FEFF 		bl	buffer_get_float32_auto
 2916              	.LVL326:
 2917              		.loc 1 457 0
 2918 03b8 3146     		mov	r1, r6
 2919 03ba 2846     		mov	r0, r5
 2920              		.loc 1 456 0
 2921 03bc 84ED450A 		vstr.32	s0, [r4, #276]
 2922              		.loc 1 457 0
 2923 03c0 FFF7FEFF 		bl	buffer_get_float32_auto
 2924              	.LVL327:
 2925              		.loc 1 458 0
 2926 03c4 3146     		mov	r1, r6
 2927              		.loc 1 457 0
 2928 03c6 84ED460A 		vstr.32	s0, [r4, #280]
 2929              		.loc 1 458 0
 2930 03ca 2846     		mov	r0, r5
 2931 03cc 1FEDE80A 		vldr.32	s0, .L19+12
 2932 03d0 FFF7FEFF 		bl	buffer_get_float16
 2933              	.LVL328:
 2934              		.loc 1 459 0
 2935 03d4 3146     		mov	r1, r6
 2936              		.loc 1 458 0
 2937 03d6 84ED470A 		vstr.32	s0, [r4, #284]
 2938              		.loc 1 459 0
 2939 03da 2846     		mov	r0, r5
 2940 03dc 1FEDEC0A 		vldr.32	s0, .L19+12
 2941 03e0 FFF7FEFF 		bl	buffer_get_float16
 2942              	.LVL329:
 2943              		.loc 1 460 0
 2944 03e4 3146     		mov	r1, r6
 2945              		.loc 1 459 0
 2946 03e6 84ED490A 		vstr.32	s0, [r4, #292]
 2947              		.loc 1 460 0
 2948 03ea 2846     		mov	r0, r5
 2949 03ec 9FEDE50A 		vldr.32	s0, .L21
 2950 03f0 FFF7FEFF 		bl	buffer_get_float16
 2951              	.LVL330:
 2952              		.loc 1 461 0
 2953 03f4 3146     		mov	r1, r6
 2954              		.loc 1 460 0
 2955 03f6 84ED4A0A 		vstr.32	s0, [r4, #296]
 2956              		.loc 1 461 0
 2957 03fa 2846     		mov	r0, r5
 2958 03fc 9FEDE10A 		vldr.32	s0, .L21
 2959 0400 FFF7FEFF 		bl	buffer_get_float16
 2960              	.LVL331:
 2961              		.loc 1 462 0
 2962 0404 019A     		ldr	r2, [sp, #4]
 2963              		.loc 1 461 0
 2964 0406 84ED480A 		vstr.32	s0, [r4, #288]
ARM GAS  /tmp/cc4M9ACW.s 			page 53


 2965              		.loc 1 462 0
 2966 040a AB5C     		ldrb	r3, [r5, r2]	@ zero_extendqisi2
 2967 040c 84F82D31 		strb	r3, [r4, #301]
 2968              		.loc 1 463 0
 2969 0410 AB18     		adds	r3, r5, r2
 2970              		.loc 1 470 0
 2971 0412 2846     		mov	r0, r5
 2972              		.loc 1 463 0
 2973 0414 5978     		ldrb	r1, [r3, #1]	@ zero_extendqisi2
 2974 0416 84F82E11 		strb	r1, [r4, #302]
 2975              		.loc 1 464 0
 2976 041a 9978     		ldrb	r1, [r3, #2]	@ zero_extendqisi2
 2977 041c 84F82F11 		strb	r1, [r4, #303]
 2978              		.loc 1 465 0
 2979 0420 D978     		ldrb	r1, [r3, #3]	@ zero_extendqisi2
 2980 0422 84F83011 		strb	r1, [r4, #304]
 2981              		.loc 1 466 0
 2982 0426 1979     		ldrb	r1, [r3, #4]	@ zero_extendqisi2
 2983 0428 84F83111 		strb	r1, [r4, #305]
 2984              		.loc 1 467 0
 2985 042c 5979     		ldrb	r1, [r3, #5]	@ zero_extendqisi2
 2986 042e 84F83211 		strb	r1, [r4, #306]
 2987              		.loc 1 468 0
 2988 0432 9979     		ldrb	r1, [r3, #6]	@ zero_extendqisi2
 2989 0434 84F83311 		strb	r1, [r4, #307]
 2990              		.loc 1 469 0
 2991 0438 DB79     		ldrb	r3, [r3, #7]	@ zero_extendqisi2
 2992 043a 84F83431 		strb	r3, [r4, #308]
 2993 043e 0832     		adds	r2, r2, #8
 2994              		.loc 1 470 0
 2995 0440 3146     		mov	r1, r6
 2996              		.loc 1 469 0
 2997 0442 0192     		str	r2, [sp, #4]
 2998              		.loc 1 470 0
 2999 0444 FFF7FEFF 		bl	buffer_get_float32_auto
 3000              	.LVL332:
 3001              		.loc 1 471 0
 3002 0448 3146     		mov	r1, r6
 3003 044a 2846     		mov	r0, r5
 3004              		.loc 1 470 0
 3005 044c 84ED4E0A 		vstr.32	s0, [r4, #312]
 3006              		.loc 1 471 0
 3007 0450 FFF7FEFF 		bl	buffer_get_float32_auto
 3008              	.LVL333:
 3009              		.loc 1 472 0
 3010 0454 019B     		ldr	r3, [sp, #4]
 3011              		.loc 1 471 0
 3012 0456 84ED4F0A 		vstr.32	s0, [r4, #316]
 3013              		.loc 1 472 0
 3014 045a EA5C     		ldrb	r2, [r5, r3]	@ zero_extendqisi2
 3015              		.loc 1 474 0
 3016 045c 9FEDCD0A 		vldr.32	s0, .L21+16
 3017              		.loc 1 472 0
 3018 0460 D21B     		subs	r2, r2, r7
 3019              		.loc 1 473 0
 3020 0462 05EB0301 		add	r1, r5, r3
 3021              		.loc 1 472 0
ARM GAS  /tmp/cc4M9ACW.s 			page 54


 3022 0466 18BF     		it	ne
 3023 0468 0122     		movne	r2, #1
 3024 046a 84F84021 		strb	r2, [r4, #320]
 3025              		.loc 1 473 0
 3026 046e 4A78     		ldrb	r2, [r1, #1]	@ zero_extendqisi2
 3027 0470 D21B     		subs	r2, r2, r7
 3028 0472 18BF     		it	ne
 3029 0474 0122     		movne	r2, #1
 3030 0476 84F84121 		strb	r2, [r4, #321]
 3031 047a 0233     		adds	r3, r3, #2
 3032              		.loc 1 474 0
 3033 047c 3146     		mov	r1, r6
 3034 047e 2846     		mov	r0, r5
 3035              		.loc 1 473 0
 3036 0480 0193     		str	r3, [sp, #4]
 3037              		.loc 1 474 0
 3038 0482 FFF7FEFF 		bl	buffer_get_float16
 3039              	.LVL334:
 3040              		.loc 1 475 0
 3041 0486 019B     		ldr	r3, [sp, #4]
 3042              		.loc 1 474 0
 3043 0488 84ED510A 		vstr.32	s0, [r4, #324]
 3044              		.loc 1 475 0
 3045 048c EA5C     		ldrb	r2, [r5, r3]	@ zero_extendqisi2
 3046              		.loc 1 476 0
 3047 048e 9FEDBD0A 		vldr.32	s0, .L21
 3048              		.loc 1 475 0
 3049 0492 D21B     		subs	r2, r2, r7
 3050 0494 18BF     		it	ne
 3051 0496 0122     		movne	r2, #1
 3052 0498 84F84821 		strb	r2, [r4, #328]
 3053 049c 0133     		adds	r3, r3, #1
 3054              		.loc 1 476 0
 3055 049e 3146     		mov	r1, r6
 3056 04a0 2846     		mov	r0, r5
 3057              		.loc 1 475 0
 3058 04a2 0193     		str	r3, [sp, #4]
 3059              		.loc 1 476 0
 3060 04a4 FFF7FEFF 		bl	buffer_get_float16
 3061              	.LVL335:
 3062              		.loc 1 477 0
 3063 04a8 3146     		mov	r1, r6
 3064              		.loc 1 476 0
 3065 04aa 84ED530A 		vstr.32	s0, [r4, #332]
 3066              		.loc 1 477 0
 3067 04ae 2846     		mov	r0, r5
 3068 04b0 9FEDB50A 		vldr.32	s0, .L21+4
 3069 04b4 FFF7FEFF 		bl	buffer_get_float16
 3070              	.LVL336:
 3071              		.loc 1 478 0
 3072 04b8 019B     		ldr	r3, [sp, #4]
 3073              		.loc 1 477 0
 3074 04ba 84ED540A 		vstr.32	s0, [r4, #336]
 3075              		.loc 1 478 0
 3076 04be EA5C     		ldrb	r2, [r5, r3]	@ zero_extendqisi2
 3077 04c0 84F85421 		strb	r2, [r4, #340]
 3078              		.loc 1 479 0
ARM GAS  /tmp/cc4M9ACW.s 			page 55


 3079 04c4 EA18     		adds	r2, r5, r3
 3080              		.loc 1 480 0
 3081 04c6 3146     		mov	r1, r6
 3082              		.loc 1 479 0
 3083 04c8 5278     		ldrb	r2, [r2, #1]	@ zero_extendqisi2
 3084 04ca 84F85521 		strb	r2, [r4, #341]
 3085 04ce 0233     		adds	r3, r3, #2
 3086              		.loc 1 480 0
 3087 04d0 2846     		mov	r0, r5
 3088              		.loc 1 479 0
 3089 04d2 0193     		str	r3, [sp, #4]
 3090              		.loc 1 480 0
 3091 04d4 FFF7FEFF 		bl	buffer_get_float32_auto
 3092              	.LVL337:
 3093              		.loc 1 481 0
 3094 04d8 3146     		mov	r1, r6
 3095 04da 2846     		mov	r0, r5
 3096              		.loc 1 480 0
 3097 04dc 84ED560A 		vstr.32	s0, [r4, #344]
 3098              		.loc 1 481 0
 3099 04e0 FFF7FEFF 		bl	buffer_get_float32_auto
 3100              	.LVL338:
 3101              		.loc 1 482 0
 3102 04e4 3146     		mov	r1, r6
 3103 04e6 2846     		mov	r0, r5
 3104              		.loc 1 481 0
 3105 04e8 84ED570A 		vstr.32	s0, [r4, #348]
 3106              		.loc 1 482 0
 3107 04ec FFF7FEFF 		bl	buffer_get_float32_auto
 3108              	.LVL339:
 3109              		.loc 1 483 0
 3110 04f0 3146     		mov	r1, r6
 3111 04f2 2846     		mov	r0, r5
 3112              		.loc 1 482 0
 3113 04f4 84ED580A 		vstr.32	s0, [r4, #352]
 3114              		.loc 1 483 0
 3115 04f8 FFF7FEFF 		bl	buffer_get_float32_auto
 3116              	.LVL340:
 3117              		.loc 1 484 0
 3118 04fc 3146     		mov	r1, r6
 3119              		.loc 1 483 0
 3120 04fe 84ED590A 		vstr.32	s0, [r4, #356]
 3121              		.loc 1 484 0
 3122 0502 2846     		mov	r0, r5
 3123 0504 FFF7FEFF 		bl	buffer_get_uint16
 3124              	.LVL341:
 3125              		.loc 1 485 0
 3126 0508 3146     		mov	r1, r6
 3127              		.loc 1 484 0
 3128 050a A4F86801 		strh	r0, [r4, #360]	@ movhi
 3129              		.loc 1 485 0
 3130 050e 2846     		mov	r0, r5
 3131 0510 FFF7FEFF 		bl	buffer_get_float32_auto
 3132              	.LVL342:
 3133              		.loc 1 486 0
 3134 0514 019B     		ldr	r3, [sp, #4]
 3135              		.loc 1 485 0
ARM GAS  /tmp/cc4M9ACW.s 			page 56


 3136 0516 84ED5B0A 		vstr.32	s0, [r4, #364]
 3137              		.loc 1 486 0
 3138 051a EA5C     		ldrb	r2, [r5, r3]	@ zero_extendqisi2
 3139 051c 84F87021 		strb	r2, [r4, #368]
 3140              		.loc 1 487 0
 3141 0520 EA18     		adds	r2, r5, r3
 3142 0522 0233     		adds	r3, r3, #2
 3143 0524 5278     		ldrb	r2, [r2, #1]	@ zero_extendqisi2
 3144 0526 0193     		str	r3, [sp, #4]
 3145 0528 D31B     		subs	r3, r2, r7
 3146 052a 18BF     		it	ne
 3147 052c 0123     		movne	r3, #1
 3148 052e 84F87131 		strb	r3, [r4, #369]
 3149              		.loc 1 488 0
 3150 0532 3146     		mov	r1, r6
 3151 0534 2846     		mov	r0, r5
 3152 0536 FFF7FEFF 		bl	buffer_get_float32_auto
 3153              	.LVL343:
 3154              		.loc 1 489 0
 3155 053a 3146     		mov	r1, r6
 3156 053c 2846     		mov	r0, r5
 3157              		.loc 1 488 0
 3158 053e 84ED5D0A 		vstr.32	s0, [r4, #372]
 3159              		.loc 1 489 0
 3160 0542 FFF7FEFF 		bl	buffer_get_float32_auto
 3161              	.LVL344:
 3162              		.loc 1 490 0
 3163 0546 3146     		mov	r1, r6
 3164 0548 2846     		mov	r0, r5
 3165              		.loc 1 489 0
 3166 054a 84ED5E0A 		vstr.32	s0, [r4, #376]
 3167              		.loc 1 490 0
 3168 054e FFF7FEFF 		bl	buffer_get_float32_auto
 3169              	.LVL345:
 3170              		.loc 1 491 0
 3171 0552 3146     		mov	r1, r6
 3172              		.loc 1 490 0
 3173 0554 84ED5F0A 		vstr.32	s0, [r4, #380]
 3174              		.loc 1 491 0
 3175 0558 2846     		mov	r0, r5
 3176 055a 9FED8B0A 		vldr.32	s0, .L21+4
 3177 055e FFF7FEFF 		bl	buffer_get_float16
 3178              	.LVL346:
 3179              		.loc 1 492 0
 3180 0562 3146     		mov	r1, r6
 3181              		.loc 1 491 0
 3182 0564 84ED600A 		vstr.32	s0, [r4, #384]
 3183              		.loc 1 492 0
 3184 0568 2846     		mov	r0, r5
 3185 056a 9FED870A 		vldr.32	s0, .L21+4
 3186 056e FFF7FEFF 		bl	buffer_get_float16
 3187              	.LVL347:
 3188              		.loc 1 493 0
 3189 0572 3146     		mov	r1, r6
 3190              		.loc 1 492 0
 3191 0574 84ED610A 		vstr.32	s0, [r4, #388]
 3192              		.loc 1 493 0
ARM GAS  /tmp/cc4M9ACW.s 			page 57


 3193 0578 2846     		mov	r0, r5
 3194 057a 9FED830A 		vldr.32	s0, .L21+4
 3195 057e FFF7FEFF 		bl	buffer_get_float16
 3196              	.LVL348:
 3197              		.loc 1 494 0
 3198 0582 3146     		mov	r1, r6
 3199              		.loc 1 493 0
 3200 0584 84ED620A 		vstr.32	s0, [r4, #392]
 3201              		.loc 1 494 0
 3202 0588 2846     		mov	r0, r5
 3203 058a 9FED7F0A 		vldr.32	s0, .L21+4
 3204 058e FFF7FEFF 		bl	buffer_get_float16
 3205              	.LVL349:
 3206              		.loc 1 495 0
 3207 0592 3146     		mov	r1, r6
 3208              		.loc 1 494 0
 3209 0594 84ED630A 		vstr.32	s0, [r4, #396]
 3210              		.loc 1 495 0
 3211 0598 2846     		mov	r0, r5
 3212 059a 9FED7B0A 		vldr.32	s0, .L21+4
 3213 059e FFF7FEFF 		bl	buffer_get_float16
 3214              	.LVL350:
 3215              		.loc 1 496 0
 3216 05a2 3146     		mov	r1, r6
 3217              		.loc 1 495 0
 3218 05a4 84ED640A 		vstr.32	s0, [r4, #400]
 3219              		.loc 1 496 0
 3220 05a8 2846     		mov	r0, r5
 3221 05aa 9FED770A 		vldr.32	s0, .L21+4
 3222 05ae FFF7FEFF 		bl	buffer_get_float16
 3223              	.LVL351:
 3224              		.loc 1 497 0
 3225 05b2 019B     		ldr	r3, [sp, #4]
 3226              		.loc 1 496 0
 3227 05b4 84ED650A 		vstr.32	s0, [r4, #404]
 3228              		.loc 1 497 0
 3229 05b8 EA5C     		ldrb	r2, [r5, r3]	@ zero_extendqisi2
 3230 05ba D21B     		subs	r2, r2, r7
 3231 05bc 18BF     		it	ne
 3232 05be 0122     		movne	r2, #1
 3233 05c0 84F89821 		strb	r2, [r4, #408]
 3234 05c4 0133     		adds	r3, r3, #1
 3235              		.loc 1 498 0
 3236 05c6 3146     		mov	r1, r6
 3237 05c8 2846     		mov	r0, r5
 3238              		.loc 1 497 0
 3239 05ca 0193     		str	r3, [sp, #4]
 3240              		.loc 1 498 0
 3241 05cc FFF7FEFF 		bl	buffer_get_float32_auto
 3242              	.LVL352:
 3243              		.loc 1 499 0
 3244 05d0 019B     		ldr	r3, [sp, #4]
 3245              		.loc 1 498 0
 3246 05d2 84ED670A 		vstr.32	s0, [r4, #412]
 3247              		.loc 1 499 0
 3248 05d6 EA5C     		ldrb	r2, [r5, r3]	@ zero_extendqisi2
 3249 05d8 84F8A021 		strb	r2, [r4, #416]
ARM GAS  /tmp/cc4M9ACW.s 			page 58


 3250 05dc 0133     		adds	r3, r3, #1
 3251              		.loc 1 500 0
 3252 05de 3146     		mov	r1, r6
 3253 05e0 2846     		mov	r0, r5
 3254              		.loc 1 499 0
 3255 05e2 0193     		str	r3, [sp, #4]
 3256              		.loc 1 500 0
 3257 05e4 FFF7FEFF 		bl	buffer_get_float32_auto
 3258              	.LVL353:
 3259              		.loc 1 501 0
 3260 05e8 3146     		mov	r1, r6
 3261              		.loc 1 500 0
 3262 05ea 84ED690A 		vstr.32	s0, [r4, #420]
 3263              		.loc 1 501 0
 3264 05ee 2846     		mov	r0, r5
 3265 05f0 9FED650A 		vldr.32	s0, .L21+4
 3266 05f4 FFF7FEFF 		bl	buffer_get_float16
 3267              	.LVL354:
 3268              		.loc 1 502 0
 3269 05f8 3146     		mov	r1, r6
 3270              		.loc 1 501 0
 3271 05fa 84ED6A0A 		vstr.32	s0, [r4, #424]
 3272              		.loc 1 502 0
 3273 05fe 2846     		mov	r0, r5
 3274 0600 9FED640A 		vldr.32	s0, .L21+16
 3275 0604 FFF7FEFF 		bl	buffer_get_float16
 3276              	.LVL355:
 3277              		.loc 1 503 0
 3278 0608 3146     		mov	r1, r6
 3279              		.loc 1 502 0
 3280 060a 84ED6B0A 		vstr.32	s0, [r4, #428]
 3281              		.loc 1 503 0
 3282 060e 2846     		mov	r0, r5
 3283 0610 9FED5D0A 		vldr.32	s0, .L21+4
 3284 0614 FFF7FEFF 		bl	buffer_get_float16
 3285              	.LVL356:
 3286              		.loc 1 504 0
 3287 0618 3146     		mov	r1, r6
 3288              		.loc 1 503 0
 3289 061a 84ED6C0A 		vstr.32	s0, [r4, #432]
 3290              		.loc 1 504 0
 3291 061e 2846     		mov	r0, r5
 3292 0620 FFF7FEFF 		bl	buffer_get_int16
 3293              	.LVL357:
 3294              		.loc 1 505 0
 3295 0624 3146     		mov	r1, r6
 3296              		.loc 1 504 0
 3297 0626 C4F8B401 		str	r0, [r4, #436]
 3298              		.loc 1 505 0
 3299 062a 2846     		mov	r0, r5
 3300 062c FFF7FEFF 		bl	buffer_get_int16
 3301              	.LVL358:
 3302              		.loc 1 506 0
 3303 0630 3146     		mov	r1, r6
 3304              		.loc 1 505 0
 3305 0632 C4F8B801 		str	r0, [r4, #440]
 3306              		.loc 1 506 0
ARM GAS  /tmp/cc4M9ACW.s 			page 59


 3307 0636 9FED540A 		vldr.32	s0, .L21+4
 3308 063a 2846     		mov	r0, r5
 3309 063c FFF7FEFF 		bl	buffer_get_float16
 3310              	.LVL359:
 3311              		.loc 1 507 0
 3312 0640 3146     		mov	r1, r6
 3313 0642 2846     		mov	r0, r5
 3314              		.loc 1 506 0
 3315 0644 84ED6F0A 		vstr.32	s0, [r4, #444]
 3316              		.loc 1 507 0
 3317 0648 FFF7FEFF 		bl	buffer_get_float32_auto
 3318              	.LVL360:
 3319              		.loc 1 508 0
 3320 064c 3146     		mov	r1, r6
 3321 064e 2846     		mov	r0, r5
 3322              		.loc 1 507 0
 3323 0650 84ED700A 		vstr.32	s0, [r4, #448]
 3324              		.loc 1 508 0
 3325 0654 FFF7FEFF 		bl	buffer_get_float32_auto
 3326              	.LVL361:
 3327              		.loc 1 509 0
 3328 0658 019B     		ldr	r3, [sp, #4]
 3329              		.loc 1 508 0
 3330 065a 84ED710A 		vstr.32	s0, [r4, #452]
 3331              		.loc 1 509 0
 3332 065e EA5C     		ldrb	r2, [r5, r3]	@ zero_extendqisi2
 3333 0660 84F8C821 		strb	r2, [r4, #456]
 3334 0664 0133     		adds	r3, r3, #1
 3335              		.loc 1 510 0
 3336 0666 3146     		mov	r1, r6
 3337 0668 2846     		mov	r0, r5
 3338              		.loc 1 509 0
 3339 066a 0193     		str	r3, [sp, #4]
 3340              		.loc 1 510 0
 3341 066c FFF7FEFF 		bl	buffer_get_float32_auto
 3342              	.LVL362:
 3343              		.loc 1 511 0
 3344 0670 3146     		mov	r1, r6
 3345 0672 2846     		mov	r0, r5
 3346              		.loc 1 510 0
 3347 0674 84ED730A 		vstr.32	s0, [r4, #460]
 3348              		.loc 1 511 0
 3349 0678 FFF7FEFF 		bl	buffer_get_float32_auto
 3350              	.LVL363:
 3351              		.loc 1 512 0
 3352 067c 3146     		mov	r1, r6
 3353 067e 2846     		mov	r0, r5
 3354              		.loc 1 511 0
 3355 0680 84ED740A 		vstr.32	s0, [r4, #464]
 3356              		.loc 1 512 0
 3357 0684 FFF7FEFF 		bl	buffer_get_float32_auto
 3358              	.LVL364:
 3359              		.loc 1 513 0
 3360 0688 3146     		mov	r1, r6
 3361              		.loc 1 512 0
 3362 068a 84ED750A 		vstr.32	s0, [r4, #468]
 3363              		.loc 1 513 0
ARM GAS  /tmp/cc4M9ACW.s 			page 60


 3364 068e 2846     		mov	r0, r5
 3365 0690 9FED3D0A 		vldr.32	s0, .L21+4
 3366 0694 FFF7FEFF 		bl	buffer_get_float16
 3367              	.LVL365:
 3368              		.loc 1 514 0
 3369 0698 3146     		mov	r1, r6
 3370 069a 2846     		mov	r0, r5
 3371              		.loc 1 513 0
 3372 069c 84ED760A 		vstr.32	s0, [r4, #472]
 3373              		.loc 1 514 0
 3374 06a0 FFF7FEFF 		bl	buffer_get_float32_auto
 3375              	.LVL366:
 3376              		.loc 1 515 0
 3377 06a4 019B     		ldr	r3, [sp, #4]
 3378              		.loc 1 514 0
 3379 06a6 84ED770A 		vstr.32	s0, [r4, #476]
 3380              		.loc 1 515 0
 3381 06aa EA5C     		ldrb	r2, [r5, r3]	@ zero_extendqisi2
 3382 06ac D21B     		subs	r2, r2, r7
 3383 06ae 18BF     		it	ne
 3384 06b0 0122     		movne	r2, #1
 3385 06b2 84F8E021 		strb	r2, [r4, #480]
 3386 06b6 0133     		adds	r3, r3, #1
 3387              		.loc 1 516 0
 3388 06b8 3146     		mov	r1, r6
 3389 06ba 2846     		mov	r0, r5
 3390              		.loc 1 515 0
 3391 06bc 0193     		str	r3, [sp, #4]
 3392              		.loc 1 516 0
 3393 06be FFF7FEFF 		bl	buffer_get_float32_auto
 3394              	.LVL367:
 3395              		.loc 1 517 0
 3396 06c2 3146     		mov	r1, r6
 3397 06c4 2846     		mov	r0, r5
 3398              		.loc 1 516 0
 3399 06c6 84ED790A 		vstr.32	s0, [r4, #484]
 3400              		.loc 1 517 0
 3401 06ca FFF7FEFF 		bl	buffer_get_float32_auto
 3402              	.LVL368:
 3403              		.loc 1 518 0
 3404 06ce 3146     		mov	r1, r6
 3405 06d0 2846     		mov	r0, r5
 3406              		.loc 1 517 0
 3407 06d2 84ED7A0A 		vstr.32	s0, [r4, #488]
 3408              		.loc 1 518 0
 3409 06d6 FFF7FEFF 		bl	buffer_get_float32_auto
 3410              	.LVL369:
 3411              		.loc 1 519 0
 3412 06da 3146     		mov	r1, r6
 3413 06dc 2846     		mov	r0, r5
 3414              		.loc 1 518 0
 3415 06de 84ED7B0A 		vstr.32	s0, [r4, #492]
 3416              		.loc 1 519 0
 3417 06e2 FFF7FEFF 		bl	buffer_get_float32_auto
 3418              	.LVL370:
 3419              		.loc 1 520 0
 3420 06e6 3146     		mov	r1, r6
ARM GAS  /tmp/cc4M9ACW.s 			page 61


 3421 06e8 2846     		mov	r0, r5
 3422              		.loc 1 519 0
 3423 06ea 84ED7C0A 		vstr.32	s0, [r4, #496]
 3424              		.loc 1 520 0
 3425 06ee FFF7FEFF 		bl	buffer_get_float32_auto
 3426              	.LVL371:
 3427              		.loc 1 521 0
 3428 06f2 3146     		mov	r1, r6
 3429 06f4 2846     		mov	r0, r5
 3430              		.loc 1 520 0
 3431 06f6 84ED7D0A 		vstr.32	s0, [r4, #500]
 3432              		.loc 1 521 0
 3433 06fa FFF7FEFF 		bl	buffer_get_float32_auto
 3434              	.LVL372:
 3435              		.loc 1 522 0
 3436 06fe 3146     		mov	r1, r6
 3437 0700 2846     		mov	r0, r5
 3438              		.loc 1 521 0
 3439 0702 84ED7E0A 		vstr.32	s0, [r4, #504]
 3440              		.loc 1 522 0
 3441 0706 FFF7FEFF 		bl	buffer_get_float32_auto
 3442              	.LVL373:
 3443              		.loc 1 523 0
 3444 070a 3146     		mov	r1, r6
 3445              		.loc 1 522 0
 3446 070c 84ED7F0A 		vstr.32	s0, [r4, #508]
 3447              		.loc 1 523 0
 3448 0710 2846     		mov	r0, r5
 3449 0712 B2EE040A 		vmov.f32	s0, #1.0e+1
 3450 0716 FFF7FEFF 		bl	buffer_get_float16
 3451              	.LVL374:
 3452              		.loc 1 524 0
 3453 071a 3146     		mov	r1, r6
 3454 071c 2846     		mov	r0, r5
 3455              		.loc 1 523 0
 3456 071e 84ED800A 		vstr.32	s0, [r4, #512]
 3457              		.loc 1 524 0
 3458 0722 FFF7FEFF 		bl	buffer_get_float32_auto
 3459              	.LVL375:
 3460              		.loc 1 525 0
 3461 0726 3146     		mov	r1, r6
 3462 0728 2846     		mov	r0, r5
 3463              		.loc 1 524 0
 3464 072a 84ED810A 		vstr.32	s0, [r4, #516]
 3465              		.loc 1 525 0
 3466 072e FFF7FEFF 		bl	buffer_get_float32_auto
 3467              	.LVL376:
 3468              		.loc 1 526 0
 3469 0732 3146     		mov	r1, r6
 3470 0734 2846     		mov	r0, r5
 3471              		.loc 1 525 0
 3472 0736 84ED820A 		vstr.32	s0, [r4, #520]
 3473              		.loc 1 526 0
 3474 073a FFF7FEFF 		bl	buffer_get_float32_auto
 3475              	.LVL377:
 3476              		.loc 1 527 0
 3477 073e 3146     		mov	r1, r6
ARM GAS  /tmp/cc4M9ACW.s 			page 62


 3478 0740 2846     		mov	r0, r5
 3479              		.loc 1 526 0
 3480 0742 84ED830A 		vstr.32	s0, [r4, #524]
 3481              		.loc 1 527 0
 3482 0746 FFF7FEFF 		bl	buffer_get_float32_auto
 3483              	.LVL378:
 3484              		.loc 1 528 0
 3485 074a 3146     		mov	r1, r6
 3486 074c 2846     		mov	r0, r5
 3487              		.loc 1 527 0
 3488 074e 84ED840A 		vstr.32	s0, [r4, #528]
 3489              		.loc 1 528 0
 3490 0752 FFF7FEFF 		bl	buffer_get_float32_auto
 3491              	.LVL379:
 3492              		.loc 1 529 0
 3493 0756 3146     		mov	r1, r6
 3494              		.loc 1 528 0
 3495 0758 84ED850A 		vstr.32	s0, [r4, #532]
 3496              		.loc 1 529 0
 3497 075c 2846     		mov	r0, r5
 3498 075e FFF7FEFF 		bl	buffer_get_int32
 3499              	.LVL380:
 3500              		.loc 1 530 0
 3501 0762 3146     		mov	r1, r6
 3502              		.loc 1 529 0
 3503 0764 C4F81802 		str	r0, [r4, #536]
 3504              		.loc 1 530 0
 3505 0768 2846     		mov	r0, r5
 3506 076a FFF7FEFF 		bl	buffer_get_float32_auto
 3507              	.LVL381:
 3508              		.loc 1 531 0
 3509 076e 3146     		mov	r1, r6
 3510 0770 2846     		mov	r0, r5
 3511              		.loc 1 530 0
 3512 0772 84ED870A 		vstr.32	s0, [r4, #540]
 3513              		.loc 1 531 0
 3514 0776 FFF7FEFF 		bl	buffer_get_float32_auto
 3515              	.LVL382:
 3516              		.loc 1 532 0
 3517 077a 3146     		mov	r1, r6
 3518              		.loc 1 531 0
 3519 077c 84ED880A 		vstr.32	s0, [r4, #544]
 3520              		.loc 1 532 0
 3521 0780 2846     		mov	r0, r5
 3522 0782 09E0     		b	.L22
 3523              	.L23:
 3524              		.align	2
 3525              	.L21:
 3526 0784 0000C842 		.word	1120403456
 3527 0788 00401C46 		.word	1176256512
 3528 078c CDCCCC3D 		.word	1036831949
 3529 0790 0000C842 		.word	1120403456
 3530 0794 00007A44 		.word	1148846080
 3531              	.L22:
 3532 0798 FFF7FEFF 		bl	buffer_get_uint32
 3533              	.LVL383:
 3534              		.loc 1 533 0
ARM GAS  /tmp/cc4M9ACW.s 			page 63


 3535 079c 019B     		ldr	r3, [sp, #4]
 3536              		.loc 1 532 0
 3537 079e C4F82402 		str	r0, [r4, #548]
 3538              		.loc 1 533 0
 3539 07a2 EA5C     		ldrb	r2, [r5, r3]	@ zero_extendqisi2
 3540 07a4 84F82822 		strb	r2, [r4, #552]
 3541              		.loc 1 534 0
 3542 07a8 EA18     		adds	r2, r5, r3
 3543              		.loc 1 536 0
 3544 07aa 0433     		adds	r3, r3, #4
 3545              		.loc 1 534 0
 3546 07ac 5178     		ldrb	r1, [r2, #1]	@ zero_extendqisi2
 3547              		.loc 1 536 0
 3548 07ae 0193     		str	r3, [sp, #4]
 3549              		.loc 1 534 0
 3550 07b0 CB1B     		subs	r3, r1, r7
 3551 07b2 18BF     		it	ne
 3552 07b4 0123     		movne	r3, #1
 3553 07b6 84F82932 		strb	r3, [r4, #553]
 3554              		.loc 1 535 0
 3555 07ba 9378     		ldrb	r3, [r2, #2]	@ zero_extendqisi2
 3556 07bc 84F82A32 		strb	r3, [r4, #554]
 3557              		.loc 1 536 0
 3558 07c0 D378     		ldrb	r3, [r2, #3]	@ zero_extendqisi2
 3559 07c2 C4F82C32 		str	r3, [r4, #556]
 3560              		.loc 1 537 0
 3561 07c6 3146     		mov	r1, r6
 3562 07c8 2846     		mov	r0, r5
 3563 07ca FFF7FEFF 		bl	buffer_get_float32_auto
 3564              	.LVL384:
 3565              		.loc 1 538 0
 3566 07ce 3146     		mov	r1, r6
 3567 07d0 2846     		mov	r0, r5
 3568              		.loc 1 537 0
 3569 07d2 84ED8C0A 		vstr.32	s0, [r4, #560]
 3570              		.loc 1 538 0
 3571 07d6 FFF7FEFF 		bl	buffer_get_float32_auto
 3572              	.LVL385:
 3573              		.loc 1 539 0
 3574 07da 3146     		mov	r1, r6
 3575 07dc 2846     		mov	r0, r5
 3576              		.loc 1 538 0
 3577 07de 84ED8D0A 		vstr.32	s0, [r4, #564]
 3578              		.loc 1 539 0
 3579 07e2 FFF7FEFF 		bl	buffer_get_float32_auto
 3580              	.LVL386:
 3581              		.loc 1 540 0
 3582 07e6 3146     		mov	r1, r6
 3583 07e8 2846     		mov	r0, r5
 3584              		.loc 1 539 0
 3585 07ea 84ED8E0A 		vstr.32	s0, [r4, #568]
 3586              		.loc 1 540 0
 3587 07ee FFF7FEFF 		bl	buffer_get_float32_auto
 3588              	.LVL387:
 3589              		.loc 1 541 0
 3590 07f2 019B     		ldr	r3, [sp, #4]
 3591              		.loc 1 540 0
ARM GAS  /tmp/cc4M9ACW.s 			page 64


 3592 07f4 84ED8F0A 		vstr.32	s0, [r4, #572]
 3593              		.loc 1 541 0
 3594 07f8 EA5C     		ldrb	r2, [r5, r3]	@ zero_extendqisi2
 3595 07fa 84F84022 		strb	r2, [r4, #576]
 3596              		.loc 1 542 0
 3597 07fe EA18     		adds	r2, r5, r3
 3598              		.loc 1 543 0
 3599 0800 3146     		mov	r1, r6
 3600              		.loc 1 542 0
 3601 0802 5278     		ldrb	r2, [r2, #1]	@ zero_extendqisi2
 3602 0804 84F84122 		strb	r2, [r4, #577]
 3603 0808 0233     		adds	r3, r3, #2
 3604              		.loc 1 543 0
 3605 080a 2846     		mov	r0, r5
 3606              		.loc 1 542 0
 3607 080c 0193     		str	r3, [sp, #4]
 3608              		.loc 1 543 0
 3609 080e FFF7FEFF 		bl	buffer_get_float32_auto
 3610              	.LVL388:
 3611              		.loc 1 544 0
 3612 0812 3146     		mov	r1, r6
 3613              		.loc 1 543 0
 3614 0814 84ED910A 		vstr.32	s0, [r4, #580]
 3615              		.loc 1 544 0
 3616 0818 2846     		mov	r0, r5
 3617 081a 1FED240A 		vldr.32	s0, .L21+8
 3618 081e FFF7FEFF 		bl	buffer_get_float16
 3619              	.LVL389:
 3620              		.loc 1 545 0
 3621 0822 3146     		mov	r1, r6
 3622              		.loc 1 544 0
 3623 0824 84ED940A 		vstr.32	s0, [r4, #592]
 3624              		.loc 1 545 0
 3625 0828 2846     		mov	r0, r5
 3626 082a B2EE040A 		vmov.f32	s0, #1.0e+1
 3627 082e FFF7FEFF 		bl	buffer_get_float16
 3628              	.LVL390:
 3629              		.loc 1 546 0
 3630 0832 019B     		ldr	r3, [sp, #4]
 3631              		.loc 1 545 0
 3632 0834 84ED930A 		vstr.32	s0, [r4, #588]
 3633              		.loc 1 546 0
 3634 0838 EA5C     		ldrb	r2, [r5, r3]	@ zero_extendqisi2
 3635 083a C4F84822 		str	r2, [r4, #584]
 3636              		.loc 1 547 0
 3637 083e EA18     		adds	r2, r5, r3
 3638              		.loc 1 548 0
 3639 0840 3146     		mov	r1, r6
 3640              		.loc 1 547 0
 3641 0842 5278     		ldrb	r2, [r2, #1]	@ zero_extendqisi2
 3642 0844 84F85422 		strb	r2, [r4, #596]
 3643 0848 0233     		adds	r3, r3, #2
 3644              		.loc 1 548 0
 3645 084a 2846     		mov	r0, r5
 3646              		.loc 1 547 0
 3647 084c 0193     		str	r3, [sp, #4]
 3648              		.loc 1 548 0
ARM GAS  /tmp/cc4M9ACW.s 			page 65


 3649 084e FFF7FEFF 		bl	buffer_get_float32_auto
 3650              	.LVL391:
 3651              		.loc 1 549 0
 3652 0852 3146     		mov	r1, r6
 3653 0854 2846     		mov	r0, r5
 3654              		.loc 1 548 0
 3655 0856 84ED960A 		vstr.32	s0, [r4, #600]
 3656              		.loc 1 549 0
 3657 085a FFF7FEFF 		bl	buffer_get_float32_auto
 3658              	.LVL392:
 3659              		.loc 1 550 0
 3660 085e 019B     		ldr	r3, [sp, #4]
 3661              		.loc 1 549 0
 3662 0860 84ED970A 		vstr.32	s0, [r4, #604]
 3663              		.loc 1 550 0
 3664 0864 EA5C     		ldrb	r2, [r5, r3]	@ zero_extendqisi2
 3665 0866 84F86022 		strb	r2, [r4, #608]
 3666              		.loc 1 551 0
 3667 086a EA18     		adds	r2, r5, r3
 3668              		.loc 1 552 0
 3669 086c 3146     		mov	r1, r6
 3670              		.loc 1 551 0
 3671 086e 5278     		ldrb	r2, [r2, #1]	@ zero_extendqisi2
 3672 0870 C4F86422 		str	r2, [r4, #612]
 3673 0874 0233     		adds	r3, r3, #2
 3674              		.loc 1 552 0
 3675 0876 2846     		mov	r0, r5
 3676              		.loc 1 551 0
 3677 0878 0193     		str	r3, [sp, #4]
 3678              		.loc 1 552 0
 3679 087a FFF7FEFF 		bl	buffer_get_float32_auto
 3680              	.LVL393:
 3681              		.loc 1 553 0
 3682 087e 3146     		mov	r1, r6
 3683 0880 2846     		mov	r0, r5
 3684              		.loc 1 552 0
 3685 0882 84ED9A0A 		vstr.32	s0, [r4, #616]
 3686              		.loc 1 553 0
 3687 0886 FFF7FEFF 		bl	buffer_get_float32_auto
 3688              	.LVL394:
 3689              		.loc 1 554 0
 3690 088a 019B     		ldr	r3, [sp, #4]
 3691              		.loc 1 553 0
 3692 088c 84ED9B0A 		vstr.32	s0, [r4, #620]
 3693              		.loc 1 554 0
 3694 0890 EA5C     		ldrb	r2, [r5, r3]	@ zero_extendqisi2
 3695 0892 84F87022 		strb	r2, [r4, #624]
 3696 0896 0133     		adds	r3, r3, #1
 3697              		.loc 1 555 0
 3698 0898 3146     		mov	r1, r6
 3699 089a 2846     		mov	r0, r5
 3700 089c 1FED440A 		vldr.32	s0, .L21+12
 3701              		.loc 1 554 0
 3702 08a0 0193     		str	r3, [sp, #4]
 3703              		.loc 1 555 0
 3704 08a2 FFF7FEFF 		bl	buffer_get_float16
 3705              	.LVL395:
ARM GAS  /tmp/cc4M9ACW.s 			page 66


 3706              		.loc 1 556 0
 3707 08a6 3146     		mov	r1, r6
 3708              		.loc 1 555 0
 3709 08a8 84ED9D0A 		vstr.32	s0, [r4, #628]
 3710              		.loc 1 556 0
 3711 08ac 2846     		mov	r0, r5
 3712 08ae 1FED480A 		vldr.32	s0, .L21+12
 3713 08b2 FFF7FEFF 		bl	buffer_get_float16
 3714              	.LVL396:
 3715              		.loc 1 557 0
 3716 08b6 3146     		mov	r1, r6
 3717              		.loc 1 556 0
 3718 08b8 84ED9E0A 		vstr.32	s0, [r4, #632]
 3719              		.loc 1 557 0
 3720 08bc 2846     		mov	r0, r5
 3721 08be 1FED4B0A 		vldr.32	s0, .L21+16
 3722 08c2 FFF7FEFF 		bl	buffer_get_float16
 3723              	.LVL397:
 3724              		.loc 1 558 0
 3725 08c6 2846     		mov	r0, r5
 3726              		.loc 1 557 0
 3727 08c8 84ED9F0A 		vstr.32	s0, [r4, #636]
 3728              		.loc 1 558 0
 3729 08cc 3146     		mov	r1, r6
 3730 08ce 1FED4F0A 		vldr.32	s0, .L21+16
 3731 08d2 FFF7FEFF 		bl	buffer_get_float16
 3732              	.LVL398:
 3733              		.loc 1 559 0
 3734 08d6 019B     		ldr	r3, [sp, #4]
 3735              		.loc 1 558 0
 3736 08d8 84EDA00A 		vstr.32	s0, [r4, #640]
 3737              		.loc 1 559 0
 3738 08dc EB5C     		ldrb	r3, [r5, r3]	@ zero_extendqisi2
 3739 08de 84F88432 		strb	r3, [r4, #644]
 3740              		.loc 1 561 0
 3741 08e2 0120     		movs	r0, #1
 3742              		.loc 1 562 0
 3743 08e4 03B0     		add	sp, sp, #12
 3744              		.cfi_def_cfa_offset 20
 3745              		@ sp needed
 3746 08e6 F0BD     		pop	{r4, r5, r6, r7, pc}
 3747              		.cfi_endproc
 3748              	.LFE221:
 3749              		.size	confgenerator_deserialize_mcconf, .-confgenerator_deserialize_mcconf
 3750              		.section	.text.confgenerator_deserialize_appconf,"ax",%progbits
 3751              		.align	1
 3752              		.p2align 4,,15
 3753              		.global	confgenerator_deserialize_appconf
 3754              		.syntax unified
 3755              		.thumb
 3756              		.thumb_func
 3757              		.fpu fpv4-sp-d16
 3758              		.type	confgenerator_deserialize_appconf, %function
 3759              	confgenerator_deserialize_appconf:
 3760              	.LFB222:
 3761              		.loc 1 564 0
 3762              		.cfi_startproc
ARM GAS  /tmp/cc4M9ACW.s 			page 67


 3763              		@ args = 0, pretend = 0, frame = 8
 3764              		@ frame_needed = 0, uses_anonymous_args = 0
 3765              	.LVL399:
 3766 0000 F0B5     		push	{r4, r5, r6, r7, lr}
 3767              		.cfi_def_cfa_offset 20
 3768              		.cfi_offset 4, -20
 3769              		.cfi_offset 5, -16
 3770              		.cfi_offset 6, -12
 3771              		.cfi_offset 7, -8
 3772              		.cfi_offset 14, -4
 3773 0002 83B0     		sub	sp, sp, #12
 3774              		.cfi_def_cfa_offset 32
 3775              		.loc 1 565 0
 3776 0004 02AE     		add	r6, sp, #8
 3777 0006 0027     		movs	r7, #0
 3778 0008 46F8047D 		str	r7, [r6, #-4]!
 3779              		.loc 1 564 0
 3780 000c 0C46     		mov	r4, r1
 3781              		.loc 1 567 0
 3782 000e 3146     		mov	r1, r6
 3783              	.LVL400:
 3784              		.loc 1 564 0
 3785 0010 0546     		mov	r5, r0
 3786              		.loc 1 567 0
 3787 0012 FFF7FEFF 		bl	buffer_get_uint32
 3788              	.LVL401:
 3789              		.loc 1 568 0
 3790 0016 034B     		ldr	r3, .L29
 3791 0018 9842     		cmp	r0, r3
 3792 001a 05D0     		beq	.L28
 3793              		.loc 1 569 0
 3794 001c 3846     		mov	r0, r7
 3795              	.LVL402:
 3796              		.loc 1 747 0
 3797 001e 03B0     		add	sp, sp, #12
 3798              		.cfi_remember_state
 3799              		.cfi_def_cfa_offset 20
 3800              		@ sp needed
 3801 0020 F0BD     		pop	{r4, r5, r6, r7, pc}
 3802              	.LVL403:
 3803              	.L30:
 3804 0022 00BF     		.align	2
 3805              	.L29:
 3806 0024 57E088DE 		.word	-561455017
 3807              	.LVL404:
 3808              	.L28:
 3809              		.cfi_restore_state
 3810              		.loc 1 572 0
 3811 0028 019B     		ldr	r3, [sp, #4]
 3812 002a EA5C     		ldrb	r2, [r5, r3]	@ zero_extendqisi2
 3813 002c 2270     		strb	r2, [r4]
 3814 002e 0133     		adds	r3, r3, #1
 3815              		.loc 1 573 0
 3816 0030 3146     		mov	r1, r6
 3817 0032 2846     		mov	r0, r5
 3818              	.LVL405:
 3819              		.loc 1 572 0
ARM GAS  /tmp/cc4M9ACW.s 			page 68


 3820 0034 0193     		str	r3, [sp, #4]
 3821              		.loc 1 573 0
 3822 0036 FFF7FEFF 		bl	buffer_get_uint32
 3823              	.LVL406:
 3824              		.loc 1 574 0
 3825 003a 3146     		mov	r1, r6
 3826              		.loc 1 573 0
 3827 003c 6060     		str	r0, [r4, #4]
 3828              		.loc 1 574 0
 3829 003e 2846     		mov	r0, r5
 3830 0040 FFF7FEFF 		bl	buffer_get_float32_auto
 3831              	.LVL407:
 3832              		.loc 1 575 0
 3833 0044 019B     		ldr	r3, [sp, #4]
 3834              		.loc 1 574 0
 3835 0046 84ED020A 		vstr.32	s0, [r4, #8]
 3836              		.loc 1 575 0
 3837 004a EA5C     		ldrb	r2, [r5, r3]	@ zero_extendqisi2
 3838 004c 2273     		strb	r2, [r4, #12]
 3839 004e 0133     		adds	r3, r3, #1
 3840              		.loc 1 576 0
 3841 0050 3146     		mov	r1, r6
 3842 0052 2846     		mov	r0, r5
 3843              		.loc 1 575 0
 3844 0054 0193     		str	r3, [sp, #4]
 3845              		.loc 1 576 0
 3846 0056 FFF7FEFF 		bl	buffer_get_uint16
 3847              	.LVL408:
 3848              		.loc 1 577 0
 3849 005a 019A     		ldr	r2, [sp, #4]
 3850              		.loc 1 576 0
 3851 005c 2061     		str	r0, [r4, #16]
 3852              		.loc 1 577 0
 3853 005e AB5C     		ldrb	r3, [r5, r2]	@ zero_extendqisi2
 3854 0060 2375     		strb	r3, [r4, #20]
 3855              		.loc 1 578 0
 3856 0062 AB18     		adds	r3, r5, r2
 3857              		.loc 1 583 0
 3858 0064 0732     		adds	r2, r2, #7
 3859              		.loc 1 578 0
 3860 0066 5978     		ldrb	r1, [r3, #1]	@ zero_extendqisi2
 3861              		.loc 1 583 0
 3862 0068 0192     		str	r2, [sp, #4]
 3863              		.loc 1 578 0
 3864 006a CA1B     		subs	r2, r1, r7
 3865 006c 18BF     		it	ne
 3866 006e 0122     		movne	r2, #1
 3867 0070 6275     		strb	r2, [r4, #21]
 3868              		.loc 1 579 0
 3869 0072 9A78     		ldrb	r2, [r3, #2]	@ zero_extendqisi2
 3870 0074 D21B     		subs	r2, r2, r7
 3871 0076 18BF     		it	ne
 3872 0078 0122     		movne	r2, #1
 3873 007a A275     		strb	r2, [r4, #22]
 3874              		.loc 1 580 0
 3875 007c DA78     		ldrb	r2, [r3, #3]	@ zero_extendqisi2
 3876 007e E275     		strb	r2, [r4, #23]
ARM GAS  /tmp/cc4M9ACW.s 			page 69


 3877              		.loc 1 581 0
 3878 0080 1A79     		ldrb	r2, [r3, #4]	@ zero_extendqisi2
 3879 0082 A276     		strb	r2, [r4, #26]
 3880              		.loc 1 582 0
 3881 0084 5A79     		ldrb	r2, [r3, #5]	@ zero_extendqisi2
 3882 0086 E276     		strb	r2, [r4, #27]
 3883              		.loc 1 583 0
 3884 0088 9B79     		ldrb	r3, [r3, #6]	@ zero_extendqisi2
 3885 008a 2377     		strb	r3, [r4, #28]
 3886              		.loc 1 584 0
 3887 008c 3146     		mov	r1, r6
 3888 008e 2846     		mov	r0, r5
 3889 0090 FFF7FEFF 		bl	buffer_get_float32_auto
 3890              	.LVL409:
 3891              		.loc 1 585 0
 3892 0094 019B     		ldr	r3, [sp, #4]
 3893              		.loc 1 584 0
 3894 0096 84ED080A 		vstr.32	s0, [r4, #32]
 3895              		.loc 1 585 0
 3896 009a E95C     		ldrb	r1, [r5, r3]	@ zero_extendqisi2
 3897 009c C91B     		subs	r1, r1, r7
 3898 009e 18BF     		it	ne
 3899 00a0 0121     		movne	r1, #1
 3900              		.loc 1 586 0
 3901 00a2 EA18     		adds	r2, r5, r3
 3902              		.loc 1 585 0
 3903 00a4 2176     		strb	r1, [r4, #24]
 3904              		.loc 1 586 0
 3905 00a6 5178     		ldrb	r1, [r2, #1]	@ zero_extendqisi2
 3906 00a8 6176     		strb	r1, [r4, #25]
 3907              		.loc 1 587 0
 3908 00aa 9178     		ldrb	r1, [r2, #2]	@ zero_extendqisi2
 3909 00ac 84F82410 		strb	r1, [r4, #36]
 3910              		.loc 1 588 0
 3911 00b0 D278     		ldrb	r2, [r2, #3]	@ zero_extendqisi2
 3912 00b2 84F82820 		strb	r2, [r4, #40]
 3913 00b6 0433     		adds	r3, r3, #4
 3914              		.loc 1 589 0
 3915 00b8 3146     		mov	r1, r6
 3916 00ba 2846     		mov	r0, r5
 3917              		.loc 1 588 0
 3918 00bc 0193     		str	r3, [sp, #4]
 3919              		.loc 1 589 0
 3920 00be FFF7FEFF 		bl	buffer_get_float32_auto
 3921              	.LVL410:
 3922              		.loc 1 590 0
 3923 00c2 3146     		mov	r1, r6
 3924 00c4 2846     		mov	r0, r5
 3925              		.loc 1 589 0
 3926 00c6 84ED0B0A 		vstr.32	s0, [r4, #44]
 3927              		.loc 1 590 0
 3928 00ca FFF7FEFF 		bl	buffer_get_float32_auto
 3929              	.LVL411:
 3930              		.loc 1 591 0
 3931 00ce 3146     		mov	r1, r6
 3932 00d0 2846     		mov	r0, r5
 3933              		.loc 1 590 0
ARM GAS  /tmp/cc4M9ACW.s 			page 70


 3934 00d2 84ED0C0A 		vstr.32	s0, [r4, #48]
 3935              		.loc 1 591 0
 3936 00d6 FFF7FEFF 		bl	buffer_get_float32_auto
 3937              	.LVL412:
 3938              		.loc 1 592 0
 3939 00da 3146     		mov	r1, r6
 3940 00dc 2846     		mov	r0, r5
 3941              		.loc 1 591 0
 3942 00de 84ED0D0A 		vstr.32	s0, [r4, #52]
 3943              		.loc 1 592 0
 3944 00e2 FFF7FEFF 		bl	buffer_get_float32_auto
 3945              	.LVL413:
 3946              		.loc 1 593 0
 3947 00e6 3146     		mov	r1, r6
 3948 00e8 2846     		mov	r0, r5
 3949              		.loc 1 592 0
 3950 00ea 84ED0E0A 		vstr.32	s0, [r4, #56]
 3951              		.loc 1 593 0
 3952 00ee FFF7FEFF 		bl	buffer_get_float32_auto
 3953              	.LVL414:
 3954              		.loc 1 594 0
 3955 00f2 019B     		ldr	r3, [sp, #4]
 3956              		.loc 1 593 0
 3957 00f4 84ED0F0A 		vstr.32	s0, [r4, #60]
 3958              		.loc 1 594 0
 3959 00f8 EA5C     		ldrb	r2, [r5, r3]	@ zero_extendqisi2
 3960 00fa D21B     		subs	r2, r2, r7
 3961 00fc 18BF     		it	ne
 3962 00fe 0122     		movne	r2, #1
 3963              		.loc 1 595 0
 3964 0100 E918     		adds	r1, r5, r3
 3965              		.loc 1 594 0
 3966 0102 84F84020 		strb	r2, [r4, #64]
 3967              		.loc 1 595 0
 3968 0106 4A78     		ldrb	r2, [r1, #1]	@ zero_extendqisi2
 3969 0108 84F84120 		strb	r2, [r4, #65]
 3970 010c 0233     		adds	r3, r3, #2
 3971              		.loc 1 596 0
 3972 010e 3146     		mov	r1, r6
 3973 0110 2846     		mov	r0, r5
 3974              		.loc 1 595 0
 3975 0112 0193     		str	r3, [sp, #4]
 3976              		.loc 1 596 0
 3977 0114 FFF7FEFF 		bl	buffer_get_float32_auto
 3978              	.LVL415:
 3979              		.loc 1 597 0
 3980 0118 3146     		mov	r1, r6
 3981 011a 2846     		mov	r0, r5
 3982              		.loc 1 596 0
 3983 011c 84ED110A 		vstr.32	s0, [r4, #68]
 3984              		.loc 1 597 0
 3985 0120 FFF7FEFF 		bl	buffer_get_float32_auto
 3986              	.LVL416:
 3987              		.loc 1 598 0
 3988 0124 019B     		ldr	r3, [sp, #4]
 3989              		.loc 1 597 0
 3990 0126 84ED120A 		vstr.32	s0, [r4, #72]
ARM GAS  /tmp/cc4M9ACW.s 			page 71


 3991              		.loc 1 598 0
 3992 012a EA5C     		ldrb	r2, [r5, r3]	@ zero_extendqisi2
 3993 012c 84F84C20 		strb	r2, [r4, #76]
 3994 0130 0133     		adds	r3, r3, #1
 3995              		.loc 1 599 0
 3996 0132 3146     		mov	r1, r6
 3997 0134 2846     		mov	r0, r5
 3998              		.loc 1 598 0
 3999 0136 0193     		str	r3, [sp, #4]
 4000              		.loc 1 599 0
 4001 0138 FFF7FEFF 		bl	buffer_get_float32_auto
 4002              	.LVL417:
 4003              		.loc 1 600 0
 4004 013c 3146     		mov	r1, r6
 4005 013e 2846     		mov	r0, r5
 4006              		.loc 1 599 0
 4007 0140 84ED140A 		vstr.32	s0, [r4, #80]
 4008              		.loc 1 600 0
 4009 0144 FFF7FEFF 		bl	buffer_get_float32_auto
 4010              	.LVL418:
 4011              		.loc 1 601 0
 4012 0148 019B     		ldr	r3, [sp, #4]
 4013              		.loc 1 600 0
 4014 014a 84ED150A 		vstr.32	s0, [r4, #84]
 4015              		.loc 1 601 0
 4016 014e EA5C     		ldrb	r2, [r5, r3]	@ zero_extendqisi2
 4017 0150 D21B     		subs	r2, r2, r7
 4018              		.loc 1 602 0
 4019 0152 05EB0301 		add	r1, r5, r3
 4020              		.loc 1 601 0
 4021 0156 18BF     		it	ne
 4022 0158 0122     		movne	r2, #1
 4023 015a 84F85820 		strb	r2, [r4, #88]
 4024              		.loc 1 602 0
 4025 015e 4A78     		ldrb	r2, [r1, #1]	@ zero_extendqisi2
 4026 0160 D21B     		subs	r2, r2, r7
 4027 0162 18BF     		it	ne
 4028 0164 0122     		movne	r2, #1
 4029 0166 84F85920 		strb	r2, [r4, #89]
 4030 016a 0233     		adds	r3, r3, #2
 4031              		.loc 1 603 0
 4032 016c 3146     		mov	r1, r6
 4033 016e 2846     		mov	r0, r5
 4034              		.loc 1 602 0
 4035 0170 0193     		str	r3, [sp, #4]
 4036              		.loc 1 603 0
 4037 0172 FFF7FEFF 		bl	buffer_get_float32_auto
 4038              	.LVL419:
 4039              		.loc 1 604 0
 4040 0176 3146     		mov	r1, r6
 4041              		.loc 1 603 0
 4042 0178 84ED170A 		vstr.32	s0, [r4, #92]
 4043              		.loc 1 604 0
 4044 017c 2846     		mov	r0, r5
 4045 017e B7EE000A 		vmov.f32	s0, #1.0e+0
 4046 0182 FFF7FEFF 		bl	buffer_get_float16
 4047              	.LVL420:
ARM GAS  /tmp/cc4M9ACW.s 			page 72


 4048              		.loc 1 605 0
 4049 0186 3146     		mov	r1, r6
 4050 0188 2846     		mov	r0, r5
 4051              		.loc 1 604 0
 4052 018a 84ED180A 		vstr.32	s0, [r4, #96]
 4053              		.loc 1 605 0
 4054 018e FFF7FEFF 		bl	buffer_get_float32_auto
 4055              	.LVL421:
 4056              		.loc 1 606 0
 4057 0192 3146     		mov	r1, r6
 4058 0194 2846     		mov	r0, r5
 4059              		.loc 1 605 0
 4060 0196 84ED190A 		vstr.32	s0, [r4, #100]
 4061              		.loc 1 606 0
 4062 019a FFF7FEFF 		bl	buffer_get_float32_auto
 4063              	.LVL422:
 4064              		.loc 1 607 0
 4065 019e 019B     		ldr	r3, [sp, #4]
 4066              		.loc 1 606 0
 4067 01a0 84ED1A0A 		vstr.32	s0, [r4, #104]
 4068              		.loc 1 607 0
 4069 01a4 EA5C     		ldrb	r2, [r5, r3]	@ zero_extendqisi2
 4070 01a6 84F86C20 		strb	r2, [r4, #108]
 4071 01aa 0133     		adds	r3, r3, #1
 4072              		.loc 1 608 0
 4073 01ac 3146     		mov	r1, r6
 4074 01ae 2846     		mov	r0, r5
 4075              		.loc 1 607 0
 4076 01b0 0193     		str	r3, [sp, #4]
 4077              		.loc 1 608 0
 4078 01b2 FFF7FEFF 		bl	buffer_get_float32_auto
 4079              	.LVL423:
 4080              		.loc 1 609 0
 4081 01b6 3146     		mov	r1, r6
 4082 01b8 2846     		mov	r0, r5
 4083              		.loc 1 608 0
 4084 01ba 84ED1C0A 		vstr.32	s0, [r4, #112]
 4085              		.loc 1 609 0
 4086 01be FFF7FEFF 		bl	buffer_get_float32_auto
 4087              	.LVL424:
 4088              		.loc 1 610 0
 4089 01c2 3146     		mov	r1, r6
 4090 01c4 2846     		mov	r0, r5
 4091              		.loc 1 609 0
 4092 01c6 84ED1D0A 		vstr.32	s0, [r4, #116]
 4093              		.loc 1 610 0
 4094 01ca FFF7FEFF 		bl	buffer_get_float32_auto
 4095              	.LVL425:
 4096              		.loc 1 611 0
 4097 01ce 3146     		mov	r1, r6
 4098 01d0 2846     		mov	r0, r5
 4099              		.loc 1 610 0
 4100 01d2 84ED1E0A 		vstr.32	s0, [r4, #120]
 4101              		.loc 1 611 0
 4102 01d6 FFF7FEFF 		bl	buffer_get_float32_auto
 4103              	.LVL426:
 4104              		.loc 1 612 0
ARM GAS  /tmp/cc4M9ACW.s 			page 73


 4105 01da 3146     		mov	r1, r6
 4106 01dc 2846     		mov	r0, r5
 4107              		.loc 1 611 0
 4108 01de 84ED1F0A 		vstr.32	s0, [r4, #124]
 4109              		.loc 1 612 0
 4110 01e2 FFF7FEFF 		bl	buffer_get_float32_auto
 4111              	.LVL427:
 4112              		.loc 1 613 0
 4113 01e6 3146     		mov	r1, r6
 4114 01e8 2846     		mov	r0, r5
 4115              		.loc 1 612 0
 4116 01ea 84ED200A 		vstr.32	s0, [r4, #128]
 4117              		.loc 1 613 0
 4118 01ee FFF7FEFF 		bl	buffer_get_float32_auto
 4119              	.LVL428:
 4120              		.loc 1 614 0
 4121 01f2 019B     		ldr	r3, [sp, #4]
 4122              		.loc 1 613 0
 4123 01f4 84ED210A 		vstr.32	s0, [r4, #132]
 4124              		.loc 1 614 0
 4125 01f8 E95C     		ldrb	r1, [r5, r3]	@ zero_extendqisi2
 4126 01fa C91B     		subs	r1, r1, r7
 4127              		.loc 1 615 0
 4128 01fc 05EB0302 		add	r2, r5, r3
 4129              		.loc 1 614 0
 4130 0200 18BF     		it	ne
 4131 0202 0121     		movne	r1, #1
 4132 0204 84F88810 		strb	r1, [r4, #136]
 4133              		.loc 1 615 0
 4134 0208 5178     		ldrb	r1, [r2, #1]	@ zero_extendqisi2
 4135 020a 84F88910 		strb	r1, [r4, #137]
 4136              		.loc 1 616 0
 4137 020e 9178     		ldrb	r1, [r2, #2]	@ zero_extendqisi2
 4138 0210 C91B     		subs	r1, r1, r7
 4139 0212 18BF     		it	ne
 4140 0214 0121     		movne	r1, #1
 4141 0216 84F88A10 		strb	r1, [r4, #138]
 4142              		.loc 1 617 0
 4143 021a D178     		ldrb	r1, [r2, #3]	@ zero_extendqisi2
 4144 021c C91B     		subs	r1, r1, r7
 4145 021e 18BF     		it	ne
 4146 0220 0121     		movne	r1, #1
 4147 0222 84F88B10 		strb	r1, [r4, #139]
 4148              		.loc 1 618 0
 4149 0226 1179     		ldrb	r1, [r2, #4]	@ zero_extendqisi2
 4150 0228 C91B     		subs	r1, r1, r7
 4151 022a 18BF     		it	ne
 4152 022c 0121     		movne	r1, #1
 4153 022e 84F88C10 		strb	r1, [r4, #140]
 4154              		.loc 1 619 0
 4155 0232 5279     		ldrb	r2, [r2, #5]	@ zero_extendqisi2
 4156 0234 D21B     		subs	r2, r2, r7
 4157 0236 18BF     		it	ne
 4158 0238 0122     		movne	r2, #1
 4159 023a 0633     		adds	r3, r3, #6
 4160 023c 84F88D20 		strb	r2, [r4, #141]
 4161              		.loc 1 620 0
ARM GAS  /tmp/cc4M9ACW.s 			page 74


 4162 0240 3146     		mov	r1, r6
 4163 0242 2846     		mov	r0, r5
 4164              		.loc 1 619 0
 4165 0244 0193     		str	r3, [sp, #4]
 4166              		.loc 1 620 0
 4167 0246 FFF7FEFF 		bl	buffer_get_float32_auto
 4168              	.LVL429:
 4169              		.loc 1 621 0
 4170 024a 3146     		mov	r1, r6
 4171 024c 2846     		mov	r0, r5
 4172              		.loc 1 620 0
 4173 024e 84ED240A 		vstr.32	s0, [r4, #144]
 4174              		.loc 1 621 0
 4175 0252 FFF7FEFF 		bl	buffer_get_float32_auto
 4176              	.LVL430:
 4177              		.loc 1 622 0
 4178 0256 019B     		ldr	r3, [sp, #4]
 4179              		.loc 1 621 0
 4180 0258 84ED250A 		vstr.32	s0, [r4, #148]
 4181              		.loc 1 622 0
 4182 025c EA5C     		ldrb	r2, [r5, r3]	@ zero_extendqisi2
 4183 025e 84F89820 		strb	r2, [r4, #152]
 4184 0262 0133     		adds	r3, r3, #1
 4185              		.loc 1 623 0
 4186 0264 3146     		mov	r1, r6
 4187 0266 2846     		mov	r0, r5
 4188              		.loc 1 622 0
 4189 0268 0193     		str	r3, [sp, #4]
 4190              		.loc 1 623 0
 4191 026a FFF7FEFF 		bl	buffer_get_float32_auto
 4192              	.LVL431:
 4193              		.loc 1 624 0
 4194 026e 3146     		mov	r1, r6
 4195 0270 2846     		mov	r0, r5
 4196              		.loc 1 623 0
 4197 0272 84ED270A 		vstr.32	s0, [r4, #156]
 4198              		.loc 1 624 0
 4199 0276 FFF7FEFF 		bl	buffer_get_float32_auto
 4200              	.LVL432:
 4201              		.loc 1 625 0
 4202 027a 019B     		ldr	r3, [sp, #4]
 4203              		.loc 1 624 0
 4204 027c 84ED280A 		vstr.32	s0, [r4, #160]
 4205              		.loc 1 625 0
 4206 0280 EA5C     		ldrb	r2, [r5, r3]	@ zero_extendqisi2
 4207 0282 D21B     		subs	r2, r2, r7
 4208              		.loc 1 626 0
 4209 0284 05EB0301 		add	r1, r5, r3
 4210              		.loc 1 625 0
 4211 0288 18BF     		it	ne
 4212 028a 0122     		movne	r2, #1
 4213 028c 84F8A420 		strb	r2, [r4, #164]
 4214              		.loc 1 626 0
 4215 0290 4A78     		ldrb	r2, [r1, #1]	@ zero_extendqisi2
 4216 0292 D21B     		subs	r2, r2, r7
 4217 0294 18BF     		it	ne
 4218 0296 0122     		movne	r2, #1
ARM GAS  /tmp/cc4M9ACW.s 			page 75


 4219 0298 84F8A520 		strb	r2, [r4, #165]
 4220 029c 0233     		adds	r3, r3, #2
 4221              		.loc 1 627 0
 4222 029e 3146     		mov	r1, r6
 4223 02a0 2846     		mov	r0, r5
 4224              		.loc 1 626 0
 4225 02a2 0193     		str	r3, [sp, #4]
 4226              		.loc 1 627 0
 4227 02a4 FFF7FEFF 		bl	buffer_get_float32_auto
 4228              	.LVL433:
 4229              		.loc 1 628 0
 4230 02a8 3146     		mov	r1, r6
 4231              		.loc 1 627 0
 4232 02aa 84ED2A0A 		vstr.32	s0, [r4, #168]
 4233              		.loc 1 628 0
 4234 02ae 2846     		mov	r0, r5
 4235 02b0 FFF7FEFF 		bl	buffer_get_uint16
 4236              	.LVL434:
 4237              		.loc 1 629 0
 4238 02b4 3146     		mov	r1, r6
 4239              		.loc 1 628 0
 4240 02b6 C4F8AC00 		str	r0, [r4, #172]
 4241              		.loc 1 629 0
 4242 02ba 2846     		mov	r0, r5
 4243 02bc FFF7FEFF 		bl	buffer_get_uint32
 4244              	.LVL435:
 4245              		.loc 1 630 0
 4246 02c0 019B     		ldr	r3, [sp, #4]
 4247              		.loc 1 629 0
 4248 02c2 C4F8B000 		str	r0, [r4, #176]
 4249              		.loc 1 630 0
 4250 02c6 EA5C     		ldrb	r2, [r5, r3]	@ zero_extendqisi2
 4251 02c8 84F8B420 		strb	r2, [r4, #180]
 4252 02cc 0133     		adds	r3, r3, #1
 4253              		.loc 1 631 0
 4254 02ce 3146     		mov	r1, r6
 4255 02d0 2846     		mov	r0, r5
 4256              		.loc 1 630 0
 4257 02d2 0193     		str	r3, [sp, #4]
 4258              		.loc 1 631 0
 4259 02d4 FFF7FEFF 		bl	buffer_get_float32_auto
 4260              	.LVL436:
 4261              		.loc 1 632 0
 4262 02d8 3146     		mov	r1, r6
 4263 02da 2846     		mov	r0, r5
 4264              		.loc 1 631 0
 4265 02dc 84ED2E0A 		vstr.32	s0, [r4, #184]
 4266              		.loc 1 632 0
 4267 02e0 FFF7FEFF 		bl	buffer_get_float32_auto
 4268              	.LVL437:
 4269              		.loc 1 633 0
 4270 02e4 3146     		mov	r1, r6
 4271 02e6 2846     		mov	r0, r5
 4272              		.loc 1 632 0
 4273 02e8 84ED2F0A 		vstr.32	s0, [r4, #188]
 4274              		.loc 1 633 0
 4275 02ec FFF7FEFF 		bl	buffer_get_float32_auto
ARM GAS  /tmp/cc4M9ACW.s 			page 76


 4276              	.LVL438:
 4277              		.loc 1 634 0
 4278 02f0 3146     		mov	r1, r6
 4279 02f2 2846     		mov	r0, r5
 4280              		.loc 1 633 0
 4281 02f4 84ED300A 		vstr.32	s0, [r4, #192]
 4282              		.loc 1 634 0
 4283 02f8 FFF7FEFF 		bl	buffer_get_float32_auto
 4284              	.LVL439:
 4285              		.loc 1 635 0
 4286 02fc 3146     		mov	r1, r6
 4287 02fe 2846     		mov	r0, r5
 4288              		.loc 1 634 0
 4289 0300 84ED310A 		vstr.32	s0, [r4, #196]
 4290              		.loc 1 635 0
 4291 0304 FFF7FEFF 		bl	buffer_get_float32_auto
 4292              	.LVL440:
 4293              		.loc 1 636 0
 4294 0308 3146     		mov	r1, r6
 4295 030a 2846     		mov	r0, r5
 4296              		.loc 1 635 0
 4297 030c 84ED320A 		vstr.32	s0, [r4, #200]
 4298              		.loc 1 636 0
 4299 0310 FFF7FEFF 		bl	buffer_get_float32_auto
 4300              	.LVL441:
 4301              		.loc 1 637 0
 4302 0314 019B     		ldr	r3, [sp, #4]
 4303              		.loc 1 636 0
 4304 0316 84ED330A 		vstr.32	s0, [r4, #204]
 4305              		.loc 1 637 0
 4306 031a EA5C     		ldrb	r2, [r5, r3]	@ zero_extendqisi2
 4307 031c 84F8D020 		strb	r2, [r4, #208]
 4308              		.loc 1 638 0
 4309 0320 E918     		adds	r1, r5, r3
 4310              		.loc 1 639 0
 4311 0322 0333     		adds	r3, r3, #3
 4312              		.loc 1 638 0
 4313 0324 4A78     		ldrb	r2, [r1, #1]	@ zero_extendqisi2
 4314              		.loc 1 639 0
 4315 0326 0193     		str	r3, [sp, #4]
 4316              		.loc 1 638 0
 4317 0328 D31B     		subs	r3, r2, r7
 4318 032a 18BF     		it	ne
 4319 032c 0123     		movne	r3, #1
 4320 032e 84F8D130 		strb	r3, [r4, #209]
 4321              		.loc 1 639 0
 4322 0332 8B78     		ldrb	r3, [r1, #2]	@ zero_extendqisi2
 4323 0334 DB1B     		subs	r3, r3, r7
 4324 0336 18BF     		it	ne
 4325 0338 0123     		movne	r3, #1
 4326 033a 84F8D230 		strb	r3, [r4, #210]
 4327              		.loc 1 640 0
 4328 033e 3146     		mov	r1, r6
 4329 0340 2846     		mov	r0, r5
 4330 0342 FFF7FEFF 		bl	buffer_get_float32_auto
 4331              	.LVL442:
 4332              		.loc 1 641 0
ARM GAS  /tmp/cc4M9ACW.s 			page 77


 4333 0346 019B     		ldr	r3, [sp, #4]
 4334              		.loc 1 640 0
 4335 0348 84ED350A 		vstr.32	s0, [r4, #212]
 4336              		.loc 1 641 0
 4337 034c EA5C     		ldrb	r2, [r5, r3]	@ zero_extendqisi2
 4338 034e D21B     		subs	r2, r2, r7
 4339 0350 18BF     		it	ne
 4340 0352 0122     		movne	r2, #1
 4341 0354 84F8D820 		strb	r2, [r4, #216]
 4342 0358 0133     		adds	r3, r3, #1
 4343              		.loc 1 642 0
 4344 035a 3146     		mov	r1, r6
 4345 035c 2846     		mov	r0, r5
 4346              		.loc 1 641 0
 4347 035e 0193     		str	r3, [sp, #4]
 4348              		.loc 1 642 0
 4349 0360 FFF7FEFF 		bl	buffer_get_float32_auto
 4350              	.LVL443:
 4351              		.loc 1 643 0
 4352 0364 3146     		mov	r1, r6
 4353 0366 2846     		mov	r0, r5
 4354              		.loc 1 642 0
 4355 0368 84ED370A 		vstr.32	s0, [r4, #220]
 4356              		.loc 1 643 0
 4357 036c FFF7FEFF 		bl	buffer_get_float32_auto
 4358              	.LVL444:
 4359              		.loc 1 644 0
 4360 0370 019A     		ldr	r2, [sp, #4]
 4361              		.loc 1 643 0
 4362 0372 84ED380A 		vstr.32	s0, [r4, #224]
 4363              		.loc 1 644 0
 4364 0376 AB5C     		ldrb	r3, [r5, r2]	@ zero_extendqisi2
 4365 0378 84F8E430 		strb	r3, [r4, #228]
 4366              		.loc 1 645 0
 4367 037c AB18     		adds	r3, r5, r2
 4368              		.loc 1 654 0
 4369 037e 2846     		mov	r0, r5
 4370              		.loc 1 645 0
 4371 0380 5978     		ldrb	r1, [r3, #1]	@ zero_extendqisi2
 4372 0382 84F8E510 		strb	r1, [r4, #229]
 4373              		.loc 1 646 0
 4374 0386 9978     		ldrb	r1, [r3, #2]	@ zero_extendqisi2
 4375 0388 84F8E610 		strb	r1, [r4, #230]
 4376              		.loc 1 647 0
 4377 038c D978     		ldrb	r1, [r3, #3]	@ zero_extendqisi2
 4378 038e 84F8E710 		strb	r1, [r4, #231]
 4379              		.loc 1 648 0
 4380 0392 1979     		ldrb	r1, [r3, #4]	@ zero_extendqisi2
 4381 0394 84F8E810 		strb	r1, [r4, #232]
 4382              		.loc 1 649 0
 4383 0398 5979     		ldrb	r1, [r3, #5]	@ zero_extendqisi2
 4384 039a 84F8E910 		strb	r1, [r4, #233]
 4385              		.loc 1 650 0
 4386 039e 9979     		ldrb	r1, [r3, #6]	@ zero_extendqisi2
 4387 03a0 84F8EA10 		strb	r1, [r4, #234]
 4388              		.loc 1 651 0
 4389 03a4 D979     		ldrb	r1, [r3, #7]	@ zero_extendqisi2
ARM GAS  /tmp/cc4M9ACW.s 			page 78


 4390 03a6 84F8EB10 		strb	r1, [r4, #235]
 4391              		.loc 1 652 0
 4392 03aa 197A     		ldrb	r1, [r3, #8]	@ zero_extendqisi2
 4393 03ac 84F8EC10 		strb	r1, [r4, #236]
 4394              		.loc 1 653 0
 4395 03b0 5B7A     		ldrb	r3, [r3, #9]	@ zero_extendqisi2
 4396 03b2 DB1B     		subs	r3, r3, r7
 4397 03b4 18BF     		it	ne
 4398 03b6 0123     		movne	r3, #1
 4399 03b8 0A32     		adds	r2, r2, #10
 4400 03ba 84F8ED30 		strb	r3, [r4, #237]
 4401              		.loc 1 654 0
 4402 03be 3146     		mov	r1, r6
 4403              		.loc 1 653 0
 4404 03c0 0192     		str	r2, [sp, #4]
 4405              		.loc 1 654 0
 4406 03c2 FFF7FEFF 		bl	buffer_get_float32_auto
 4407              	.LVL445:
 4408              		.loc 1 655 0
 4409 03c6 3146     		mov	r1, r6
 4410 03c8 2846     		mov	r0, r5
 4411              		.loc 1 654 0
 4412 03ca 84ED3C0A 		vstr.32	s0, [r4, #240]
 4413              		.loc 1 655 0
 4414 03ce FFF7FEFF 		bl	buffer_get_float32_auto
 4415              	.LVL446:
 4416              		.loc 1 656 0
 4417 03d2 3146     		mov	r1, r6
 4418 03d4 2846     		mov	r0, r5
 4419              		.loc 1 655 0
 4420 03d6 84ED3D0A 		vstr.32	s0, [r4, #244]
 4421              		.loc 1 656 0
 4422 03da FFF7FEFF 		bl	buffer_get_float32_auto
 4423              	.LVL447:
 4424              		.loc 1 657 0
 4425 03de 3146     		mov	r1, r6
 4426              		.loc 1 656 0
 4427 03e0 84ED3E0A 		vstr.32	s0, [r4, #248]
 4428              		.loc 1 657 0
 4429 03e4 2846     		mov	r0, r5
 4430 03e6 FFF7FEFF 		bl	buffer_get_uint16
 4431              	.LVL448:
 4432              		.loc 1 658 0
 4433 03ea 3146     		mov	r1, r6
 4434              		.loc 1 657 0
 4435 03ec A4F8FC00 		strh	r0, [r4, #252]	@ movhi
 4436              		.loc 1 658 0
 4437 03f0 2846     		mov	r0, r5
 4438 03f2 FFF7FEFF 		bl	buffer_get_uint16
 4439              	.LVL449:
 4440              		.loc 1 659 0
 4441 03f6 3146     		mov	r1, r6
 4442              		.loc 1 658 0
 4443 03f8 A4F8FE00 		strh	r0, [r4, #254]	@ movhi
 4444              		.loc 1 659 0
 4445 03fc 2846     		mov	r0, r5
 4446 03fe FFF7FEFF 		bl	buffer_get_float32_auto
ARM GAS  /tmp/cc4M9ACW.s 			page 79


 4447              	.LVL450:
 4448              		.loc 1 660 0
 4449 0402 3146     		mov	r1, r6
 4450 0404 2846     		mov	r0, r5
 4451              		.loc 1 659 0
 4452 0406 84ED400A 		vstr.32	s0, [r4, #256]
 4453              		.loc 1 660 0
 4454 040a FFF7FEFF 		bl	buffer_get_float32_auto
 4455              	.LVL451:
 4456              		.loc 1 661 0
 4457 040e 3146     		mov	r1, r6
 4458 0410 2846     		mov	r0, r5
 4459              		.loc 1 660 0
 4460 0412 84ED410A 		vstr.32	s0, [r4, #260]
 4461              		.loc 1 661 0
 4462 0416 FFF7FEFF 		bl	buffer_get_float32_auto
 4463              	.LVL452:
 4464              		.loc 1 662 0
 4465 041a 3146     		mov	r1, r6
 4466 041c 2846     		mov	r0, r5
 4467              		.loc 1 661 0
 4468 041e 84ED420A 		vstr.32	s0, [r4, #264]
 4469              		.loc 1 662 0
 4470 0422 FFF7FEFF 		bl	buffer_get_float32_auto
 4471              	.LVL453:
 4472              		.loc 1 663 0
 4473 0426 3146     		mov	r1, r6
 4474 0428 2846     		mov	r0, r5
 4475              		.loc 1 662 0
 4476 042a 84ED430A 		vstr.32	s0, [r4, #268]
 4477              		.loc 1 663 0
 4478 042e FFF7FEFF 		bl	buffer_get_float32_auto
 4479              	.LVL454:
 4480              		.loc 1 664 0
 4481 0432 3146     		mov	r1, r6
 4482              		.loc 1 663 0
 4483 0434 84ED440A 		vstr.32	s0, [r4, #272]
 4484              		.loc 1 664 0
 4485 0438 2846     		mov	r0, r5
 4486 043a FFF7FEFF 		bl	buffer_get_uint16
 4487              	.LVL455:
 4488              		.loc 1 665 0
 4489 043e 3146     		mov	r1, r6
 4490              		.loc 1 664 0
 4491 0440 A4F81401 		strh	r0, [r4, #276]	@ movhi
 4492              		.loc 1 665 0
 4493 0444 2846     		mov	r0, r5
 4494 0446 FFF7FEFF 		bl	buffer_get_uint16
 4495              	.LVL456:
 4496              		.loc 1 666 0
 4497 044a 3146     		mov	r1, r6
 4498              		.loc 1 665 0
 4499 044c A4F81601 		strh	r0, [r4, #278]	@ movhi
 4500              		.loc 1 666 0
 4501 0450 2846     		mov	r0, r5
 4502 0452 FFF7FEFF 		bl	buffer_get_uint16
 4503              	.LVL457:
ARM GAS  /tmp/cc4M9ACW.s 			page 80


 4504              		.loc 1 667 0
 4505 0456 3146     		mov	r1, r6
 4506              		.loc 1 666 0
 4507 0458 A4F81801 		strh	r0, [r4, #280]	@ movhi
 4508              		.loc 1 667 0
 4509 045c 2846     		mov	r0, r5
 4510 045e FFF7FEFF 		bl	buffer_get_uint16
 4511              	.LVL458:
 4512              		.loc 1 668 0
 4513 0462 3146     		mov	r1, r6
 4514              		.loc 1 667 0
 4515 0464 A4F81A01 		strh	r0, [r4, #282]	@ movhi
 4516              		.loc 1 668 0
 4517 0468 2846     		mov	r0, r5
 4518 046a FFF7FEFF 		bl	buffer_get_uint16
 4519              	.LVL459:
 4520              		.loc 1 669 0
 4521 046e 3146     		mov	r1, r6
 4522              		.loc 1 668 0
 4523 0470 A4F81C01 		strh	r0, [r4, #284]	@ movhi
 4524              		.loc 1 669 0
 4525 0474 2846     		mov	r0, r5
 4526 0476 FFF7FEFF 		bl	buffer_get_uint16
 4527              	.LVL460:
 4528              		.loc 1 670 0
 4529 047a 3146     		mov	r1, r6
 4530              		.loc 1 669 0
 4531 047c A4F81E01 		strh	r0, [r4, #286]	@ movhi
 4532              		.loc 1 670 0
 4533 0480 9FEDF20A 		vldr.32	s0, .L31
 4534 0484 2846     		mov	r0, r5
 4535 0486 FFF7FEFF 		bl	buffer_get_float16
 4536              	.LVL461:
 4537              		.loc 1 671 0
 4538 048a 3146     		mov	r1, r6
 4539              		.loc 1 670 0
 4540 048c 84ED480A 		vstr.32	s0, [r4, #288]
 4541              		.loc 1 671 0
 4542 0490 2846     		mov	r0, r5
 4543 0492 9FEDEE0A 		vldr.32	s0, .L31
 4544 0496 FFF7FEFF 		bl	buffer_get_float16
 4545              	.LVL462:
 4546              		.loc 1 672 0
 4547 049a 3146     		mov	r1, r6
 4548              		.loc 1 671 0
 4549 049c 84ED490A 		vstr.32	s0, [r4, #292]
 4550              		.loc 1 672 0
 4551 04a0 2846     		mov	r0, r5
 4552 04a2 9FEDEB0A 		vldr.32	s0, .L31+4
 4553 04a6 FFF7FEFF 		bl	buffer_get_float16
 4554              	.LVL463:
 4555              		.loc 1 673 0
 4556 04aa 3146     		mov	r1, r6
 4557              		.loc 1 672 0
 4558 04ac 84ED4A0A 		vstr.32	s0, [r4, #296]
 4559              		.loc 1 673 0
 4560 04b0 2846     		mov	r0, r5
ARM GAS  /tmp/cc4M9ACW.s 			page 81


 4561 04b2 9FEDE60A 		vldr.32	s0, .L31
 4562 04b6 FFF7FEFF 		bl	buffer_get_float16
 4563              	.LVL464:
 4564              		.loc 1 674 0
 4565 04ba 3146     		mov	r1, r6
 4566              		.loc 1 673 0
 4567 04bc 84ED4B0A 		vstr.32	s0, [r4, #300]
 4568              		.loc 1 674 0
 4569 04c0 2846     		mov	r0, r5
 4570 04c2 9FEDE20A 		vldr.32	s0, .L31
 4571 04c6 FFF7FEFF 		bl	buffer_get_float16
 4572              	.LVL465:
 4573              		.loc 1 675 0
 4574 04ca 3146     		mov	r1, r6
 4575 04cc 2846     		mov	r0, r5
 4576              		.loc 1 674 0
 4577 04ce 84ED4C0A 		vstr.32	s0, [r4, #304]
 4578              		.loc 1 675 0
 4579 04d2 FFF7FEFF 		bl	buffer_get_float32_auto
 4580              	.LVL466:
 4581              		.loc 1 676 0
 4582 04d6 3146     		mov	r1, r6
 4583              		.loc 1 675 0
 4584 04d8 84ED4D0A 		vstr.32	s0, [r4, #308]
 4585              		.loc 1 676 0
 4586 04dc 2846     		mov	r0, r5
 4587 04de 9FEDDB0A 		vldr.32	s0, .L31
 4588 04e2 FFF7FEFF 		bl	buffer_get_float16
 4589              	.LVL467:
 4590              		.loc 1 677 0
 4591 04e6 3146     		mov	r1, r6
 4592              		.loc 1 676 0
 4593 04e8 84ED4E0A 		vstr.32	s0, [r4, #312]
 4594              		.loc 1 677 0
 4595 04ec 2846     		mov	r0, r5
 4596 04ee 9FEDD70A 		vldr.32	s0, .L31
 4597 04f2 FFF7FEFF 		bl	buffer_get_float16
 4598              	.LVL468:
 4599              		.loc 1 678 0
 4600 04f6 3146     		mov	r1, r6
 4601 04f8 2846     		mov	r0, r5
 4602              		.loc 1 677 0
 4603 04fa 84ED4F0A 		vstr.32	s0, [r4, #316]
 4604              		.loc 1 678 0
 4605 04fe FFF7FEFF 		bl	buffer_get_float32_auto
 4606              	.LVL469:
 4607              		.loc 1 679 0
 4608 0502 3146     		mov	r1, r6
 4609              		.loc 1 678 0
 4610 0504 84ED500A 		vstr.32	s0, [r4, #320]
 4611              		.loc 1 679 0
 4612 0508 2846     		mov	r0, r5
 4613 050a 9FEDD00A 		vldr.32	s0, .L31
 4614 050e FFF7FEFF 		bl	buffer_get_float16
 4615              	.LVL470:
 4616              		.loc 1 680 0
 4617 0512 3146     		mov	r1, r6
ARM GAS  /tmp/cc4M9ACW.s 			page 82


 4618 0514 2846     		mov	r0, r5
 4619              		.loc 1 679 0
 4620 0516 84ED510A 		vstr.32	s0, [r4, #324]
 4621              		.loc 1 680 0
 4622 051a FFF7FEFF 		bl	buffer_get_float32_auto
 4623              	.LVL471:
 4624              		.loc 1 681 0
 4625 051e 3146     		mov	r1, r6
 4626              		.loc 1 680 0
 4627 0520 84ED520A 		vstr.32	s0, [r4, #328]
 4628              		.loc 1 681 0
 4629 0524 2846     		mov	r0, r5
 4630 0526 FFF7FEFF 		bl	buffer_get_uint16
 4631              	.LVL472:
 4632              		.loc 1 682 0
 4633 052a 3146     		mov	r1, r6
 4634              		.loc 1 681 0
 4635 052c A4F84C01 		strh	r0, [r4, #332]	@ movhi
 4636              		.loc 1 682 0
 4637 0530 2846     		mov	r0, r5
 4638 0532 FFF7FEFF 		bl	buffer_get_float32_auto
 4639              	.LVL473:
 4640              		.loc 1 683 0
 4641 0536 3146     		mov	r1, r6
 4642 0538 2846     		mov	r0, r5
 4643              		.loc 1 682 0
 4644 053a 84ED540A 		vstr.32	s0, [r4, #336]
 4645              		.loc 1 683 0
 4646 053e FFF7FEFF 		bl	buffer_get_float32_auto
 4647              	.LVL474:
 4648              		.loc 1 684 0
 4649 0542 3146     		mov	r1, r6
 4650              		.loc 1 683 0
 4651 0544 84ED550A 		vstr.32	s0, [r4, #340]
 4652              		.loc 1 684 0
 4653 0548 2846     		mov	r0, r5
 4654 054a 9FEDC00A 		vldr.32	s0, .L31
 4655 054e FFF7FEFF 		bl	buffer_get_float16
 4656              	.LVL475:
 4657              		.loc 1 685 0
 4658 0552 3146     		mov	r1, r6
 4659 0554 2846     		mov	r0, r5
 4660              		.loc 1 684 0
 4661 0556 84ED560A 		vstr.32	s0, [r4, #344]
 4662              		.loc 1 685 0
 4663 055a FFF7FEFF 		bl	buffer_get_float32_auto
 4664              	.LVL476:
 4665              		.loc 1 686 0
 4666 055e 3146     		mov	r1, r6
 4667 0560 2846     		mov	r0, r5
 4668              		.loc 1 685 0
 4669 0562 84ED570A 		vstr.32	s0, [r4, #348]
 4670              		.loc 1 686 0
 4671 0566 FFF7FEFF 		bl	buffer_get_float32_auto
 4672              	.LVL477:
 4673              		.loc 1 687 0
 4674 056a 3146     		mov	r1, r6
ARM GAS  /tmp/cc4M9ACW.s 			page 83


 4675 056c 2846     		mov	r0, r5
 4676              		.loc 1 686 0
 4677 056e 84ED580A 		vstr.32	s0, [r4, #352]
 4678              		.loc 1 687 0
 4679 0572 FFF7FEFF 		bl	buffer_get_float32_auto
 4680              	.LVL478:
 4681              		.loc 1 688 0
 4682 0576 3146     		mov	r1, r6
 4683 0578 2846     		mov	r0, r5
 4684              		.loc 1 687 0
 4685 057a 84ED590A 		vstr.32	s0, [r4, #356]
 4686              		.loc 1 688 0
 4687 057e FFF7FEFF 		bl	buffer_get_float32_auto
 4688              	.LVL479:
 4689              		.loc 1 689 0
 4690 0582 019B     		ldr	r3, [sp, #4]
 4691              		.loc 1 688 0
 4692 0584 84ED5A0A 		vstr.32	s0, [r4, #360]
 4693              		.loc 1 689 0
 4694 0588 EA5C     		ldrb	r2, [r5, r3]	@ zero_extendqisi2
 4695 058a D21B     		subs	r2, r2, r7
 4696 058c 18BF     		it	ne
 4697 058e 0122     		movne	r2, #1
 4698 0590 84F86C21 		strb	r2, [r4, #364]
 4699 0594 0133     		adds	r3, r3, #1
 4700              		.loc 1 690 0
 4701 0596 3146     		mov	r1, r6
 4702 0598 2846     		mov	r0, r5
 4703              		.loc 1 689 0
 4704 059a 0193     		str	r3, [sp, #4]
 4705              		.loc 1 690 0
 4706 059c FFF7FEFF 		bl	buffer_get_float32_auto
 4707              	.LVL480:
 4708              		.loc 1 691 0
 4709 05a0 3146     		mov	r1, r6
 4710 05a2 2846     		mov	r0, r5
 4711              		.loc 1 690 0
 4712 05a4 84ED5C0A 		vstr.32	s0, [r4, #368]
 4713              		.loc 1 691 0
 4714 05a8 FFF7FEFF 		bl	buffer_get_float32_auto
 4715              	.LVL481:
 4716              		.loc 1 692 0
 4717 05ac 3146     		mov	r1, r6
 4718 05ae 2846     		mov	r0, r5
 4719              		.loc 1 691 0
 4720 05b0 84ED5D0A 		vstr.32	s0, [r4, #372]
 4721              		.loc 1 692 0
 4722 05b4 FFF7FEFF 		bl	buffer_get_float32_auto
 4723              	.LVL482:
 4724              		.loc 1 693 0
 4725 05b8 3146     		mov	r1, r6
 4726 05ba 2846     		mov	r0, r5
 4727              		.loc 1 692 0
 4728 05bc 84ED5E0A 		vstr.32	s0, [r4, #376]
 4729              		.loc 1 693 0
 4730 05c0 FFF7FEFF 		bl	buffer_get_float32_auto
 4731              	.LVL483:
ARM GAS  /tmp/cc4M9ACW.s 			page 84


 4732              		.loc 1 694 0
 4733 05c4 3146     		mov	r1, r6
 4734 05c6 2846     		mov	r0, r5
 4735              		.loc 1 693 0
 4736 05c8 84ED5F0A 		vstr.32	s0, [r4, #380]
 4737              		.loc 1 694 0
 4738 05cc FFF7FEFF 		bl	buffer_get_float32_auto
 4739              	.LVL484:
 4740              		.loc 1 695 0
 4741 05d0 3146     		mov	r1, r6
 4742 05d2 2846     		mov	r0, r5
 4743              		.loc 1 694 0
 4744 05d4 84ED600A 		vstr.32	s0, [r4, #384]
 4745              		.loc 1 695 0
 4746 05d8 FFF7FEFF 		bl	buffer_get_float32_auto
 4747              	.LVL485:
 4748              		.loc 1 696 0
 4749 05dc 3146     		mov	r1, r6
 4750              		.loc 1 695 0
 4751 05de 84ED610A 		vstr.32	s0, [r4, #388]
 4752              		.loc 1 696 0
 4753 05e2 2846     		mov	r0, r5
 4754 05e4 FFF7FEFF 		bl	buffer_get_uint16
 4755              	.LVL486:
 4756              		.loc 1 697 0
 4757 05e8 3146     		mov	r1, r6
 4758              		.loc 1 696 0
 4759 05ea A4F88801 		strh	r0, [r4, #392]	@ movhi
 4760              		.loc 1 697 0
 4761 05ee 2846     		mov	r0, r5
 4762 05f0 FFF7FEFF 		bl	buffer_get_float32_auto
 4763              	.LVL487:
 4764              		.loc 1 698 0
 4765 05f4 3146     		mov	r1, r6
 4766              		.loc 1 697 0
 4767 05f6 84ED630A 		vstr.32	s0, [r4, #396]
 4768              		.loc 1 698 0
 4769 05fa 2846     		mov	r0, r5
 4770 05fc FFF7FEFF 		bl	buffer_get_uint16
 4771              	.LVL488:
 4772              		.loc 1 699 0
 4773 0600 3146     		mov	r1, r6
 4774              		.loc 1 698 0
 4775 0602 A4F89001 		strh	r0, [r4, #400]	@ movhi
 4776              		.loc 1 699 0
 4777 0606 2846     		mov	r0, r5
 4778 0608 FFF7FEFF 		bl	buffer_get_uint16
 4779              	.LVL489:
 4780              		.loc 1 700 0
 4781 060c 3146     		mov	r1, r6
 4782              		.loc 1 699 0
 4783 060e A4F89201 		strh	r0, [r4, #402]	@ movhi
 4784              		.loc 1 700 0
 4785 0612 2846     		mov	r0, r5
 4786 0614 FFF7FEFF 		bl	buffer_get_float32_auto
 4787              	.LVL490:
 4788              		.loc 1 701 0
ARM GAS  /tmp/cc4M9ACW.s 			page 85


 4789 0618 3146     		mov	r1, r6
 4790 061a 2846     		mov	r0, r5
 4791              		.loc 1 700 0
 4792 061c 84ED650A 		vstr.32	s0, [r4, #404]
 4793              		.loc 1 701 0
 4794 0620 FFF7FEFF 		bl	buffer_get_float32_auto
 4795              	.LVL491:
 4796              		.loc 1 702 0
 4797 0624 3146     		mov	r1, r6
 4798 0626 2846     		mov	r0, r5
 4799              		.loc 1 701 0
 4800 0628 84ED660A 		vstr.32	s0, [r4, #408]
 4801              		.loc 1 702 0
 4802 062c FFF7FEFF 		bl	buffer_get_float32_auto
 4803              	.LVL492:
 4804              		.loc 1 703 0
 4805 0630 3146     		mov	r1, r6
 4806 0632 2846     		mov	r0, r5
 4807              		.loc 1 702 0
 4808 0634 84ED670A 		vstr.32	s0, [r4, #412]
 4809              		.loc 1 703 0
 4810 0638 FFF7FEFF 		bl	buffer_get_float32_auto
 4811              	.LVL493:
 4812              		.loc 1 704 0
 4813 063c 3146     		mov	r1, r6
 4814 063e 2846     		mov	r0, r5
 4815              		.loc 1 703 0
 4816 0640 84ED680A 		vstr.32	s0, [r4, #416]
 4817              		.loc 1 704 0
 4818 0644 FFF7FEFF 		bl	buffer_get_float32_auto
 4819              	.LVL494:
 4820              		.loc 1 705 0
 4821 0648 3146     		mov	r1, r6
 4822 064a 2846     		mov	r0, r5
 4823              		.loc 1 704 0
 4824 064c 84ED690A 		vstr.32	s0, [r4, #420]
 4825              		.loc 1 705 0
 4826 0650 FFF7FEFF 		bl	buffer_get_float32_auto
 4827              	.LVL495:
 4828              		.loc 1 706 0
 4829 0654 3146     		mov	r1, r6
 4830 0656 2846     		mov	r0, r5
 4831              		.loc 1 705 0
 4832 0658 84ED6A0A 		vstr.32	s0, [r4, #424]
 4833              		.loc 1 706 0
 4834 065c FFF7FEFF 		bl	buffer_get_float32_auto
 4835              	.LVL496:
 4836              		.loc 1 707 0
 4837 0660 3146     		mov	r1, r6
 4838 0662 2846     		mov	r0, r5
 4839              		.loc 1 706 0
 4840 0664 84ED6B0A 		vstr.32	s0, [r4, #428]
 4841              		.loc 1 707 0
 4842 0668 FFF7FEFF 		bl	buffer_get_float32_auto
 4843              	.LVL497:
 4844              		.loc 1 708 0
 4845 066c 3146     		mov	r1, r6
ARM GAS  /tmp/cc4M9ACW.s 			page 86


 4846 066e 2846     		mov	r0, r5
 4847              		.loc 1 707 0
 4848 0670 84ED6C0A 		vstr.32	s0, [r4, #432]
 4849              		.loc 1 708 0
 4850 0674 FFF7FEFF 		bl	buffer_get_float32_auto
 4851              	.LVL498:
 4852              		.loc 1 709 0
 4853 0678 3146     		mov	r1, r6
 4854 067a 2846     		mov	r0, r5
 4855              		.loc 1 708 0
 4856 067c 84ED6D0A 		vstr.32	s0, [r4, #436]
 4857              		.loc 1 709 0
 4858 0680 FFF7FEFF 		bl	buffer_get_float32_auto
 4859              	.LVL499:
 4860              		.loc 1 710 0
 4861 0684 3146     		mov	r1, r6
 4862 0686 2846     		mov	r0, r5
 4863              		.loc 1 709 0
 4864 0688 84ED6E0A 		vstr.32	s0, [r4, #440]
 4865              		.loc 1 710 0
 4866 068c FFF7FEFF 		bl	buffer_get_float32_auto
 4867              	.LVL500:
 4868              		.loc 1 711 0
 4869 0690 3146     		mov	r1, r6
 4870 0692 2846     		mov	r0, r5
 4871              		.loc 1 710 0
 4872 0694 84ED6F0A 		vstr.32	s0, [r4, #444]
 4873              		.loc 1 711 0
 4874 0698 FFF7FEFF 		bl	buffer_get_float32_auto
 4875              	.LVL501:
 4876              		.loc 1 712 0
 4877 069c 3146     		mov	r1, r6
 4878 069e 2846     		mov	r0, r5
 4879              		.loc 1 711 0
 4880 06a0 84ED700A 		vstr.32	s0, [r4, #448]
 4881              		.loc 1 712 0
 4882 06a4 FFF7FEFF 		bl	buffer_get_float32_auto
 4883              	.LVL502:
 4884              		.loc 1 713 0
 4885 06a8 3146     		mov	r1, r6
 4886 06aa 2846     		mov	r0, r5
 4887              		.loc 1 712 0
 4888 06ac 84ED710A 		vstr.32	s0, [r4, #452]
 4889              		.loc 1 713 0
 4890 06b0 FFF7FEFF 		bl	buffer_get_float32_auto
 4891              	.LVL503:
 4892              		.loc 1 714 0
 4893 06b4 3146     		mov	r1, r6
 4894              		.loc 1 713 0
 4895 06b6 84ED720A 		vstr.32	s0, [r4, #456]
 4896              		.loc 1 714 0
 4897 06ba 2846     		mov	r0, r5
 4898 06bc FFF7FEFF 		bl	buffer_get_uint16
 4899              	.LVL504:
 4900              		.loc 1 715 0
 4901 06c0 3146     		mov	r1, r6
 4902              		.loc 1 714 0
ARM GAS  /tmp/cc4M9ACW.s 			page 87


 4903 06c2 A4F8CC01 		strh	r0, [r4, #460]	@ movhi
 4904              		.loc 1 715 0
 4905 06c6 2846     		mov	r0, r5
 4906 06c8 FFF7FEFF 		bl	buffer_get_float32_auto
 4907              	.LVL505:
 4908              		.loc 1 716 0
 4909 06cc 3146     		mov	r1, r6
 4910              		.loc 1 715 0
 4911 06ce 84ED740A 		vstr.32	s0, [r4, #464]
 4912              		.loc 1 716 0
 4913 06d2 2846     		mov	r0, r5
 4914 06d4 FFF7FEFF 		bl	buffer_get_uint16
 4915              	.LVL506:
 4916              		.loc 1 717 0
 4917 06d8 3146     		mov	r1, r6
 4918              		.loc 1 716 0
 4919 06da A4F8D401 		strh	r0, [r4, #468]	@ movhi
 4920              		.loc 1 717 0
 4921 06de 2846     		mov	r0, r5
 4922 06e0 FFF7FEFF 		bl	buffer_get_uint16
 4923              	.LVL507:
 4924              		.loc 1 718 0
 4925 06e4 019B     		ldr	r3, [sp, #4]
 4926              		.loc 1 717 0
 4927 06e6 A4F8D601 		strh	r0, [r4, #470]	@ movhi
 4928              		.loc 1 718 0
 4929 06ea EA5C     		ldrb	r2, [r5, r3]	@ zero_extendqisi2
 4930 06ec 84F8D821 		strb	r2, [r4, #472]
 4931              		.loc 1 719 0
 4932 06f0 EA18     		adds	r2, r5, r3
 4933              		.loc 1 720 0
 4934 06f2 3146     		mov	r1, r6
 4935              		.loc 1 719 0
 4936 06f4 5278     		ldrb	r2, [r2, #1]	@ zero_extendqisi2
 4937 06f6 84F8D921 		strb	r2, [r4, #473]
 4938 06fa 0233     		adds	r3, r3, #2
 4939              		.loc 1 720 0
 4940 06fc 2846     		mov	r0, r5
 4941 06fe 9FED540A 		vldr.32	s0, .L31+4
 4942              		.loc 1 719 0
 4943 0702 0193     		str	r3, [sp, #4]
 4944              		.loc 1 720 0
 4945 0704 FFF7FEFF 		bl	buffer_get_float16
 4946              	.LVL508:
 4947              		.loc 1 721 0
 4948 0708 3146     		mov	r1, r6
 4949              		.loc 1 720 0
 4950 070a 84ED770A 		vstr.32	s0, [r4, #476]
 4951              		.loc 1 721 0
 4952 070e 2846     		mov	r0, r5
 4953 0710 B2EE040A 		vmov.f32	s0, #1.0e+1
 4954 0714 FFF7FEFF 		bl	buffer_get_float16
 4955              	.LVL509:
 4956              		.loc 1 722 0
 4957 0718 3146     		mov	r1, r6
 4958              		.loc 1 721 0
 4959 071a 84ED780A 		vstr.32	s0, [r4, #480]
ARM GAS  /tmp/cc4M9ACW.s 			page 88


 4960              		.loc 1 722 0
 4961 071e 2846     		mov	r0, r5
 4962 0720 B2EE040A 		vmov.f32	s0, #1.0e+1
 4963 0724 FFF7FEFF 		bl	buffer_get_float16
 4964              	.LVL510:
 4965              		.loc 1 723 0
 4966 0728 019B     		ldr	r3, [sp, #4]
 4967              		.loc 1 722 0
 4968 072a 84ED790A 		vstr.32	s0, [r4, #484]
 4969              		.loc 1 723 0
 4970 072e EA5C     		ldrb	r2, [r5, r3]	@ zero_extendqisi2
 4971 0730 D21B     		subs	r2, r2, r7
 4972 0732 18BF     		it	ne
 4973 0734 0122     		movne	r2, #1
 4974 0736 84F8E821 		strb	r2, [r4, #488]
 4975 073a 0133     		adds	r3, r3, #1
 4976              		.loc 1 724 0
 4977 073c 3146     		mov	r1, r6
 4978 073e 2846     		mov	r0, r5
 4979              		.loc 1 723 0
 4980 0740 0193     		str	r3, [sp, #4]
 4981              		.loc 1 724 0
 4982 0742 FFF7FEFF 		bl	buffer_get_uint16
 4983              	.LVL511:
 4984              		.loc 1 725 0
 4985 0746 019B     		ldr	r3, [sp, #4]
 4986              		.loc 1 724 0
 4987 0748 84F8E901 		strb	r0, [r4, #489]
 4988              		.loc 1 725 0
 4989 074c EA5C     		ldrb	r2, [r5, r3]	@ zero_extendqisi2
 4990              		.loc 1 726 0
 4991 074e 9FED3F0A 		vldr.32	s0, .L31
 4992              		.loc 1 725 0
 4993 0752 D21B     		subs	r2, r2, r7
 4994 0754 18BF     		it	ne
 4995 0756 0122     		movne	r2, #1
 4996 0758 84F8EA21 		strb	r2, [r4, #490]
 4997 075c 0133     		adds	r3, r3, #1
 4998              		.loc 1 726 0
 4999 075e 3146     		mov	r1, r6
 5000 0760 2846     		mov	r0, r5
 5001              		.loc 1 725 0
 5002 0762 0193     		str	r3, [sp, #4]
 5003              		.loc 1 726 0
 5004 0764 FFF7FEFF 		bl	buffer_get_float16
 5005              	.LVL512:
 5006              		.loc 1 727 0
 5007 0768 3146     		mov	r1, r6
 5008              		.loc 1 726 0
 5009 076a 84ED7B0A 		vstr.32	s0, [r4, #492]
 5010              		.loc 1 727 0
 5011 076e 2846     		mov	r0, r5
 5012 0770 9FED360A 		vldr.32	s0, .L31
 5013 0774 FFF7FEFF 		bl	buffer_get_float16
 5014              	.LVL513:
 5015              		.loc 1 728 0
 5016 0778 3146     		mov	r1, r6
ARM GAS  /tmp/cc4M9ACW.s 			page 89


 5017              		.loc 1 727 0
 5018 077a 84ED7C0A 		vstr.32	s0, [r4, #496]
 5019              		.loc 1 728 0
 5020 077e 2846     		mov	r0, r5
 5021 0780 FFF7FEFF 		bl	buffer_get_uint16
 5022              	.LVL514:
 5023              		.loc 1 729 0
 5024 0784 019B     		ldr	r3, [sp, #4]
 5025              		.loc 1 728 0
 5026 0786 C4F8F401 		str	r0, [r4, #500]
 5027              		.loc 1 729 0
 5028 078a EA5C     		ldrb	r2, [r5, r3]	@ zero_extendqisi2
 5029 078c 84F8F821 		strb	r2, [r4, #504]
 5030              		.loc 1 730 0
 5031 0790 EA18     		adds	r2, r5, r3
 5032              		.loc 1 731 0
 5033 0792 3146     		mov	r1, r6
 5034              		.loc 1 730 0
 5035 0794 5278     		ldrb	r2, [r2, #1]	@ zero_extendqisi2
 5036 0796 84F8F921 		strb	r2, [r4, #505]
 5037 079a 0233     		adds	r3, r3, #2
 5038              		.loc 1 731 0
 5039 079c 2846     		mov	r0, r5
 5040              		.loc 1 730 0
 5041 079e 0193     		str	r3, [sp, #4]
 5042              		.loc 1 731 0
 5043 07a0 FFF7FEFF 		bl	buffer_get_uint16
 5044              	.LVL515:
 5045              		.loc 1 732 0
 5046 07a4 3146     		mov	r1, r6
 5047              		.loc 1 731 0
 5048 07a6 C4F8FC01 		str	r0, [r4, #508]
 5049              		.loc 1 732 0
 5050 07aa 2846     		mov	r0, r5
 5051 07ac FFF7FEFF 		bl	buffer_get_float32_auto
 5052              	.LVL516:
 5053              		.loc 1 733 0
 5054 07b0 3146     		mov	r1, r6
 5055 07b2 2846     		mov	r0, r5
 5056              		.loc 1 732 0
 5057 07b4 84ED800A 		vstr.32	s0, [r4, #512]
 5058              		.loc 1 733 0
 5059 07b8 FFF7FEFF 		bl	buffer_get_float32_auto
 5060              	.LVL517:
 5061              		.loc 1 734 0
 5062 07bc 3146     		mov	r1, r6
 5063 07be 2846     		mov	r0, r5
 5064              		.loc 1 733 0
 5065 07c0 84ED810A 		vstr.32	s0, [r4, #516]
 5066              		.loc 1 734 0
 5067 07c4 FFF7FEFF 		bl	buffer_get_float32_auto
 5068              	.LVL518:
 5069              		.loc 1 735 0
 5070 07c8 3146     		mov	r1, r6
 5071 07ca 2846     		mov	r0, r5
 5072              		.loc 1 734 0
 5073 07cc 84ED820A 		vstr.32	s0, [r4, #520]
ARM GAS  /tmp/cc4M9ACW.s 			page 90


 5074              		.loc 1 735 0
 5075 07d0 FFF7FEFF 		bl	buffer_get_float32_auto
 5076              	.LVL519:
 5077              		.loc 1 736 0
 5078 07d4 3146     		mov	r1, r6
 5079 07d6 2846     		mov	r0, r5
 5080              		.loc 1 735 0
 5081 07d8 84ED830A 		vstr.32	s0, [r4, #524]
 5082              		.loc 1 736 0
 5083 07dc FFF7FEFF 		bl	buffer_get_float32_auto
 5084              	.LVL520:
 5085              		.loc 1 737 0
 5086 07e0 3146     		mov	r1, r6
 5087 07e2 2846     		mov	r0, r5
 5088              		.loc 1 736 0
 5089 07e4 84ED840A 		vstr.32	s0, [r4, #528]
 5090              		.loc 1 737 0
 5091 07e8 FFF7FEFF 		bl	buffer_get_float32_auto
 5092              	.LVL521:
 5093              		.loc 1 738 0
 5094 07ec 3146     		mov	r1, r6
 5095 07ee 2846     		mov	r0, r5
 5096              		.loc 1 737 0
 5097 07f0 84ED850A 		vstr.32	s0, [r4, #532]
 5098              		.loc 1 738 0
 5099 07f4 FFF7FEFF 		bl	buffer_get_float32_auto
 5100              	.LVL522:
 5101              		.loc 1 739 0
 5102 07f8 3146     		mov	r1, r6
 5103 07fa 2846     		mov	r0, r5
 5104              		.loc 1 738 0
 5105 07fc 84ED860A 		vstr.32	s0, [r4, #536]
 5106              		.loc 1 739 0
 5107 0800 FFF7FEFF 		bl	buffer_get_float32_auto
 5108              	.LVL523:
 5109              		.loc 1 740 0
 5110 0804 3146     		mov	r1, r6
 5111 0806 2846     		mov	r0, r5
 5112              		.loc 1 739 0
 5113 0808 84ED870A 		vstr.32	s0, [r4, #540]
 5114              		.loc 1 740 0
 5115 080c FFF7FEFF 		bl	buffer_get_float32_auto
 5116              	.LVL524:
 5117              		.loc 1 741 0
 5118 0810 3146     		mov	r1, r6
 5119 0812 2846     		mov	r0, r5
 5120              		.loc 1 740 0
 5121 0814 84ED880A 		vstr.32	s0, [r4, #544]
 5122              		.loc 1 741 0
 5123 0818 FFF7FEFF 		bl	buffer_get_float32_auto
 5124              	.LVL525:
 5125              		.loc 1 742 0
 5126 081c 3146     		mov	r1, r6
 5127 081e 2846     		mov	r0, r5
 5128              		.loc 1 741 0
 5129 0820 84ED890A 		vstr.32	s0, [r4, #548]
 5130              		.loc 1 742 0
ARM GAS  /tmp/cc4M9ACW.s 			page 91


 5131 0824 FFF7FEFF 		bl	buffer_get_float32_auto
 5132              	.LVL526:
 5133              		.loc 1 743 0
 5134 0828 3146     		mov	r1, r6
 5135 082a 2846     		mov	r0, r5
 5136              		.loc 1 742 0
 5137 082c 84ED8A0A 		vstr.32	s0, [r4, #552]
 5138              		.loc 1 743 0
 5139 0830 FFF7FEFF 		bl	buffer_get_float32_auto
 5140              	.LVL527:
 5141              		.loc 1 744 0
 5142 0834 2846     		mov	r0, r5
 5143 0836 3146     		mov	r1, r6
 5144              		.loc 1 743 0
 5145 0838 84ED8B0A 		vstr.32	s0, [r4, #556]
 5146              		.loc 1 744 0
 5147 083c FFF7FEFF 		bl	buffer_get_float32_auto
 5148              	.LVL528:
 5149              		.loc 1 746 0
 5150 0840 0120     		movs	r0, #1
 5151              		.loc 1 744 0
 5152 0842 84ED8C0A 		vstr.32	s0, [r4, #560]
 5153              		.loc 1 747 0
 5154 0846 03B0     		add	sp, sp, #12
 5155              		.cfi_def_cfa_offset 20
 5156              		@ sp needed
 5157 0848 04E0     		b	.L32
 5158              	.L33:
 5159 084a 00BF     		.align	2
 5160              	.L31:
 5161 084c 0000C842 		.word	1120403456
 5162 0850 00007A44 		.word	1148846080
 5163              	.L32:
 5164 0854 F0BD     		pop	{r4, r5, r6, r7, pc}
 5165              		.cfi_endproc
 5166              	.LFE222:
 5167              		.size	confgenerator_deserialize_appconf, .-confgenerator_deserialize_appconf
 5168 0856 00BF     		.section	.text.confgenerator_set_defaults_mcconf,"ax",%progbits
 5169              		.align	1
 5170              		.p2align 4,,15
 5171              		.global	confgenerator_set_defaults_mcconf
 5172              		.syntax unified
 5173              		.thumb
 5174              		.thumb_func
 5175              		.fpu fpv4-sp-d16
 5176              		.type	confgenerator_set_defaults_mcconf, %function
 5177              	confgenerator_set_defaults_mcconf:
 5178              	.LFB223:
 5179              		.loc 1 749 0
 5180              		.cfi_startproc
 5181              		@ args = 0, pretend = 0, frame = 0
 5182              		@ frame_needed = 0, uses_anonymous_args = 0
 5183              	.LVL529:
 5184 0000 2DE9F04F 		push	{r4, r5, r6, r7, r8, r9, r10, fp, lr}
 5185              		.cfi_def_cfa_offset 36
 5186              		.cfi_offset 4, -36
 5187              		.cfi_offset 5, -32
ARM GAS  /tmp/cc4M9ACW.s 			page 92


 5188              		.cfi_offset 6, -28
 5189              		.cfi_offset 7, -24
 5190              		.cfi_offset 8, -20
 5191              		.cfi_offset 9, -16
 5192              		.cfi_offset 10, -12
 5193              		.cfi_offset 11, -8
 5194              		.cfi_offset 14, -4
 5195              		.loc 1 754 0
 5196 0004 E14C     		ldr	r4, .L36
 5197              		.loc 1 755 0
 5198 0006 E24B     		ldr	r3, .L36+4
 5199              		.loc 1 756 0
 5200 0008 E249     		ldr	r1, .L36+8
 5201              		.loc 1 758 0
 5202 000a E34D     		ldr	r5, .L36+12
 5203              		.loc 1 759 0
 5204 000c E34A     		ldr	r2, .L36+16
 5205              		.loc 1 754 0
 5206 000e 0460     		str	r4, [r0]	@ float
 5207              		.loc 1 752 0
 5208 0010 0224     		movs	r4, #2
 5209              		.loc 1 757 0
 5210 0012 4FF00047 		mov	r7, #-2147483648
 5211              		.loc 1 762 0
 5212 0016 E24E     		ldr	r6, .L36+20
 5213              		.loc 1 765 0
 5214 0018 DFF81094 		ldr	r9, .L36+160
 5215              		.loc 1 752 0
 5216 001c 80F88640 		strb	r4, [r0, #134]
 5217              		.loc 1 755 0
 5218 0020 4360     		str	r3, [r0, #4]	@ float
 5219              		.loc 1 775 0
 5220 0022 E04C     		ldr	r4, .L36+24
 5221              		.loc 1 776 0
 5222 0024 E04B     		ldr	r3, .L36+28
 5223              		.loc 1 756 0
 5224 0026 8160     		str	r1, [r0, #8]	@ float
 5225              		.loc 1 758 0
 5226 0028 0561     		str	r5, [r0, #16]	@ float
 5227              		.loc 1 777 0
 5228 002a E049     		ldr	r1, .L36+32
 5229              		.loc 1 769 0
 5230 002c E04D     		ldr	r5, .L36+36
 5231              		.loc 1 759 0
 5232 002e 4261     		str	r2, [r0, #20]	@ float
 5233              		.loc 1 770 0
 5234 0030 E04A     		ldr	r2, .L36+40
 5235              		.loc 1 760 0
 5236 0032 DFF8FCC3 		ldr	ip, .L36+164
 5237              		.loc 1 761 0
 5238 0036 DFF894A3 		ldr	r10, .L36+64
 5239              		.loc 1 773 0
 5240 003a DFF8F883 		ldr	r8, .L36+168
 5241              		.loc 1 774 0
 5242 003e DFF8F8E3 		ldr	lr, .L36+172
 5243              		.loc 1 757 0
 5244 0042 C760     		str	r7, [r0, #12]	@ float
ARM GAS  /tmp/cc4M9ACW.s 			page 93


 5245              		.loc 1 762 0
 5246 0044 0662     		str	r6, [r0, #32]	@ float
 5247              		.loc 1 763 0
 5248 0046 DC4F     		ldr	r7, .L36+44
 5249              		.loc 1 764 0
 5250 0048 DC4E     		ldr	r6, .L36+48
 5251              		.loc 1 765 0
 5252 004a C0F82C90 		str	r9, [r0, #44]	@ float
 5253              		.loc 1 775 0
 5254 004e 4465     		str	r4, [r0, #84]	@ float
 5255              		.loc 1 767 0
 5256 0050 4FF08249 		mov	r9, #1090519040
 5257              		.loc 1 750 0
 5258 0054 0124     		movs	r4, #1
 5259              		.loc 1 776 0
 5260 0056 8365     		str	r3, [r0, #88]	@ float
 5261              		.loc 1 777 0
 5262 0058 C165     		str	r1, [r0, #92]	@ float
 5263              		.loc 1 751 0
 5264 005a 0023     		movs	r3, #0
 5265              		.loc 1 766 0
 5266 005c D849     		ldr	r1, .L36+52
 5267              		.loc 1 769 0
 5268 005e C563     		str	r5, [r0, #60]	@ float
 5269              		.loc 1 771 0
 5270 0060 4564     		str	r5, [r0, #68]	@ float
 5271              		.loc 1 770 0
 5272 0062 0264     		str	r2, [r0, #64]	@ float
 5273              		.loc 1 778 0
 5274 0064 4FF07E55 		mov	r5, #1065353216
 5275              		.loc 1 772 0
 5276 0068 8264     		str	r2, [r0, #72]	@ float
 5277              		.loc 1 781 0
 5278 006a D64A     		ldr	r2, .L36+56
 5279              		.loc 1 760 0
 5280 006c C0F818C0 		str	ip, [r0, #24]	@ float
 5281              		.loc 1 761 0
 5282 0070 C0F81CA0 		str	r10, [r0, #28]	@ float
 5283              		.loc 1 764 0
 5284 0074 8662     		str	r6, [r0, #40]	@ float
 5285              		.loc 1 767 0
 5286 0076 C0F83490 		str	r9, [r0, #52]	@ float
 5287              		.loc 1 773 0
 5288 007a C0F84C80 		str	r8, [r0, #76]	@ float
 5289              		.loc 1 774 0
 5290 007e C0F850E0 		str	lr, [r0, #80]	@ float
 5291              		.loc 1 763 0
 5292 0082 4762     		str	r7, [r0, #36]	@ float
 5293              		.loc 1 766 0
 5294 0084 0163     		str	r1, [r0, #48]	@ float
 5295              		.loc 1 750 0
 5296 0086 80F88440 		strb	r4, [r0, #132]
 5297              		.loc 1 751 0
 5298 008a 80F88530 		strb	r3, [r0, #133]
 5299              		.loc 1 753 0
 5300 008e 80F88730 		strb	r3, [r0, #135]
 5301              		.loc 1 768 0
ARM GAS  /tmp/cc4M9ACW.s 			page 94


 5302 0092 80F83830 		strb	r3, [r0, #56]
 5303              		.loc 1 801 0
 5304 0096 80F8C430 		strb	r3, [r0, #196]
 5305              		.loc 1 778 0
 5306 009a 0566     		str	r5, [r0, #96]	@ float
 5307              		.loc 1 779 0
 5308 009c 4566     		str	r5, [r0, #100]	@ float
 5309              		.loc 1 780 0
 5310 009e 8566     		str	r5, [r0, #104]	@ float
 5311              		.loc 1 781 0
 5312 00a0 C0F88820 		str	r2, [r0, #136]
 5313 00a4 C84A     		ldr	r2, .L36+60
 5314 00a6 C0F88C20 		str	r2, [r0, #140]
 5315              		.loc 1 782 0
 5316 00aa C54A     		ldr	r2, .L36+52
 5317 00ac C0F89020 		str	r2, [r0, #144]
 5318              		.loc 1 783 0
 5319 00b0 02F1AC72 		add	r2, r2, #22544384
 5320 00b4 C0F89420 		str	r2, [r0, #148]
 5321              		.loc 1 784 0
 5322 00b8 C44A     		ldr	r2, .L36+64
 5323 00ba C0F89820 		str	r2, [r0, #152]
 5324              		.loc 1 785 0
 5325 00be C44A     		ldr	r2, .L36+68
 5326 00c0 C0F89C20 		str	r2, [r0, #156]
 5327              		.loc 1 786 0
 5328 00c4 C34A     		ldr	r2, .L36+72
 5329 00c6 C0F8A020 		str	r2, [r0, #160]
 5330              		.loc 1 787 0
 5331 00ca C34A     		ldr	r2, .L36+76
 5332 00cc C0F8A420 		str	r2, [r0, #164]
 5333              		.loc 1 791 0
 5334 00d0 C24A     		ldr	r2, .L36+80
 5335 00d2 C0F8A820 		str	r2, [r0, #168]
 5336              		.loc 1 795 0
 5337 00d6 C24A     		ldr	r2, .L36+84
 5338 00d8 C0F8AC20 		str	r2, [r0, #172]
 5339              		.loc 1 796 0
 5340 00dc C14A     		ldr	r2, .L36+88
 5341 00de C0F8B020 		str	r2, [r0, #176]
 5342              		.loc 1 797 0
 5343 00e2 C14A     		ldr	r2, .L36+92
 5344 00e4 C0F8B420 		str	r2, [r0, #180]
 5345              		.loc 1 798 0
 5346 00e8 C04A     		ldr	r2, .L36+96
 5347 00ea C0F8B820 		str	r2, [r0, #184]
 5348              		.loc 1 799 0
 5349 00ee C04A     		ldr	r2, .L36+100
 5350 00f0 C0F8BC20 		str	r2, [r0, #188]
 5351              		.loc 1 800 0
 5352 00f4 BF4A     		ldr	r2, .L36+104
 5353              		.loc 1 811 0
 5354 00f6 DFF8F4C2 		ldr	ip, .L36+96
 5355              		.loc 1 814 0
 5356 00fa BF4E     		ldr	r6, .L36+108
 5357              		.loc 1 816 0
 5358 00fc DFF83C93 		ldr	r9, .L36+176
ARM GAS  /tmp/cc4M9ACW.s 			page 95


 5359              		.loc 1 820 0
 5360 0100 DFF83C83 		ldr	r8, .L36+180
 5361              		.loc 1 800 0
 5362 0104 C0F8C020 		str	r2, [r0, #192]
 5363              		.loc 1 803 0
 5364 0108 BC4A     		ldr	r2, .L36+112
 5365              		.loc 1 806 0
 5366 010a DFF838E3 		ldr	lr, .L36+184
 5367              		.loc 1 812 0
 5368 010e DFF838B3 		ldr	fp, .L36+188
 5369              		.loc 1 815 0
 5370 0112 DFF838A3 		ldr	r10, .L36+192
 5371              		.loc 1 803 0
 5372 0116 C0F8C820 		str	r2, [r0, #200]	@ float
 5373              		.loc 1 811 0
 5374 011a C0F800C1 		str	ip, [r0, #256]	@ float
 5375              		.loc 1 813 0
 5376 011e 0022     		movs	r2, #0
 5377              		.loc 1 810 0
 5378 0120 DFF8BCC2 		ldr	ip, .L36+84
 5379              		.loc 1 814 0
 5380 0124 C0F8E860 		str	r6, [r0, #232]	@ float
 5381              		.loc 1 816 0
 5382 0128 C0F8F090 		str	r9, [r0, #240]	@ float
 5383              		.loc 1 817 0
 5384 012c B44E     		ldr	r6, .L36+116
 5385              		.loc 1 818 0
 5386 012e DFF82093 		ldr	r9, .L36+196
 5387              		.loc 1 820 0
 5388 0132 C0F80881 		str	r8, [r0, #264]	@ float
 5389              		.loc 1 808 0
 5390 0136 4FF07C58 		mov	r8, #1056964608
 5391              		.loc 1 819 0
 5392 013a C0F80411 		str	r1, [r0, #260]	@ float
 5393              		.loc 1 812 0
 5394 013e C0F8E0B0 		str	fp, [r0, #224]	@ float
 5395              		.loc 1 815 0
 5396 0142 C0F8ECA0 		str	r10, [r0, #236]	@ float
 5397              		.loc 1 818 0
 5398 0146 C0F8F890 		str	r9, [r0, #248]	@ float
 5399              		.loc 1 806 0
 5400 014a C0F8CCE0 		str	lr, [r0, #204]	@ float
 5401              		.loc 1 807 0
 5402 014e C0F8D4E0 		str	lr, [r0, #212]	@ float
 5403              		.loc 1 808 0
 5404 0152 C0F8DC80 		str	r8, [r0, #220]	@ float
 5405              		.loc 1 810 0
 5406 0156 C0F8FCC0 		str	ip, [r0, #252]	@ float
 5407              		.loc 1 804 0
 5408 015a C0F8D050 		str	r5, [r0, #208]	@ float
 5409              		.loc 1 805 0
 5410 015e C0F8D850 		str	r5, [r0, #216]	@ float
 5411              		.loc 1 809 0
 5412 0162 80F82C31 		strb	r3, [r0, #300]
 5413              		.loc 1 813 0
 5414 0166 C0F8E420 		str	r2, [r0, #228]	@ float
 5415              		.loc 1 817 0
ARM GAS  /tmp/cc4M9ACW.s 			page 96


 5416 016a C0F8F460 		str	r6, [r0, #244]	@ float
 5417              		.loc 1 849 0
 5418 016e C0F86011 		str	r1, [r0, #352]	@ float
 5419              		.loc 1 847 0
 5420 0172 A449     		ldr	r1, .L36+120
 5421 0174 C0F85811 		str	r1, [r0, #344]	@ float
 5422              		.loc 1 848 0
 5423 0178 4FF08141 		mov	r1, #1082130432
 5424 017c C0F85C11 		str	r1, [r0, #348]	@ float
 5425              		.loc 1 851 0
 5426 0180 0F21     		movs	r1, #15
 5427              		.loc 1 837 0
 5428 0182 DFF8D0A2 		ldr	r10, .L36+200
 5429              		.loc 1 838 0
 5430 0186 DFEDA07A 		vldr.32	s15, .L36+124
 5431              		.loc 1 851 0
 5432 018a A0F86811 		strh	r1, [r0, #360]	@ movhi
 5433              		.loc 1 829 0
 5434 018e FF21     		movs	r1, #255
 5435              		.loc 1 823 0
 5436 0190 DFF8C492 		ldr	r9, .L36+204
 5437              		.loc 1 843 0
 5438 0194 DFF8C4E2 		ldr	lr, .L36+208
 5439              		.loc 1 852 0
 5440 0198 DFF8C4B2 		ldr	fp, .L36+212
 5441              		.loc 1 821 0
 5442 019c C0F80C71 		str	r7, [r0, #268]	@ float
 5443              		.loc 1 850 0
 5444 01a0 C0F864C1 		str	ip, [r0, #356]	@ float
 5445              		.loc 1 824 0
 5446 01a4 994F     		ldr	r7, .L36+128
 5447              		.loc 1 825 0
 5448 01a6 DFF8BCC2 		ldr	ip, .L36+216
 5449              		.loc 1 837 0
 5450 01aa C0F838A1 		str	r10, [r0, #312]	@ float
 5451              		.loc 1 829 0
 5452 01ae 80F82D11 		strb	r1, [r0, #301]
 5453              		.loc 1 865 0
 5454 01b2 DFF8B4A2 		ldr	r10, .L36+220
 5455              		.loc 1 830 0
 5456 01b6 80F82E11 		strb	r1, [r0, #302]
 5457              		.loc 1 831 0
 5458 01ba 80F82F11 		strb	r1, [r0, #303]
 5459              		.loc 1 832 0
 5460 01be 80F83011 		strb	r1, [r0, #304]
 5461              		.loc 1 833 0
 5462 01c2 80F83111 		strb	r1, [r0, #305]
 5463              		.loc 1 834 0
 5464 01c6 80F83211 		strb	r1, [r0, #306]
 5465              		.loc 1 835 0
 5466 01ca 80F83311 		strb	r1, [r0, #307]
 5467              		.loc 1 836 0
 5468 01ce 80F83411 		strb	r1, [r0, #308]
 5469              		.loc 1 871 0
 5470 01d2 C821     		movs	r1, #200
 5471              		.loc 1 838 0
 5472 01d4 C0ED4F7A 		vstr.32	s15, [r0, #316]
ARM GAS  /tmp/cc4M9ACW.s 			page 97


 5473              		.loc 1 852 0
 5474 01d8 C0F86CB1 		str	fp, [r0, #364]	@ float
 5475              		.loc 1 874 0
 5476 01dc DFED8C7A 		vldr.32	s15, .L36+132
 5477              		.loc 1 823 0
 5478 01e0 C0F81491 		str	r9, [r0, #276]	@ float
 5479              		.loc 1 824 0
 5480 01e4 C0F81871 		str	r7, [r0, #280]	@ float
 5481              		.loc 1 825 0
 5482 01e8 C0F81CC1 		str	ip, [r0, #284]	@ float
 5483              		.loc 1 827 0
 5484 01ec C0F828C1 		str	ip, [r0, #296]	@ float
 5485              		.loc 1 844 0
 5486 01f0 C0F850C1 		str	ip, [r0, #336]	@ float
 5487              		.loc 1 822 0
 5488 01f4 C0F81021 		str	r2, [r0, #272]	@ float
 5489              		.loc 1 826 0
 5490 01f8 C0F82421 		str	r2, [r0, #292]	@ float
 5491              		.loc 1 828 0
 5492 01fc C0F82061 		str	r6, [r0, #288]	@ float
 5493              		.loc 1 839 0
 5494 0200 80F84031 		strb	r3, [r0, #320]
 5495              		.loc 1 840 0
 5496 0204 80F84131 		strb	r3, [r0, #321]
 5497              		.loc 1 841 0
 5498 0208 C0F84421 		str	r2, [r0, #324]	@ float
 5499              		.loc 1 842 0
 5500 020c 80F84831 		strb	r3, [r0, #328]
 5501              		.loc 1 845 0
 5502 0210 80F85431 		strb	r3, [r0, #340]
 5503              		.loc 1 846 0
 5504 0214 80F85531 		strb	r3, [r0, #341]
 5505              		.loc 1 853 0
 5506 0218 80F87041 		strb	r4, [r0, #368]
 5507              		.loc 1 843 0
 5508 021c C0F84CE1 		str	lr, [r0, #332]	@ float
 5509              		.loc 1 868 0
 5510 0220 C0F8A891 		str	r9, [r0, #424]	@ float
 5511              		.loc 1 873 0
 5512 0224 C0F8BCC1 		str	ip, [r0, #444]	@ float
 5513              		.loc 1 879 0
 5514 0228 DFF84092 		ldr	r9, .L36+224
 5515              		.loc 1 865 0
 5516 022c C0F89CA1 		str	r10, [r0, #412]	@ float
 5517              		.loc 1 871 0
 5518 0230 C0F8B411 		str	r1, [r0, #436]
 5519              		.loc 1 881 0
 5520 0234 DFF838A2 		ldr	r10, .L36+228
 5521              		.loc 1 884 0
 5522 0238 DFF838C2 		ldr	ip, .L36+232
 5523              		.loc 1 875 0
 5524 023c DFF8A8B1 		ldr	fp, .L36+92
 5525              		.loc 1 879 0
 5526 0240 C0F8D491 		str	r9, [r0, #468]	@ float
 5527              		.loc 1 876 0
 5528 0244 0521     		movs	r1, #5
 5529              		.loc 1 870 0
ARM GAS  /tmp/cc4M9ACW.s 			page 98


 5530 0246 DFF83092 		ldr	r9, .L36+236
 5531              		.loc 1 876 0
 5532 024a 80F8C811 		strb	r1, [r0, #456]
 5533              		.loc 1 881 0
 5534 024e C0F8DCA1 		str	r10, [r0, #476]	@ float
 5535              		.loc 1 855 0
 5536 0252 4FF08A41 		mov	r1, #1157627904
 5537              		.loc 1 877 0
 5538 0256 DFF824A2 		ldr	r10, .L36+240
 5539              		.loc 1 884 0
 5540 025a C0F8E8C1 		str	ip, [r0, #488]	@ float
 5541              		.loc 1 883 0
 5542 025e DFF820C2 		ldr	ip, .L36+244
 5543              		.loc 1 869 0
 5544 0262 C0F8AC71 		str	r7, [r0, #428]	@ float
 5545              		.loc 1 880 0
 5546 0266 C0F8D871 		str	r7, [r0, #472]	@ float
 5547              		.loc 1 874 0
 5548 026a C0ED707A 		vstr.32	s15, [r0, #448]
 5549              		.loc 1 875 0
 5550 026e C0F8C4B1 		str	fp, [r0, #452]	@ float
 5551              		.loc 1 855 0
 5552 0272 C0F87411 		str	r1, [r0, #372]	@ float
 5553              		.loc 1 856 0
 5554 0276 C0F87811 		str	r1, [r0, #376]	@ float
 5555              		.loc 1 857 0
 5556 027a C0F87C11 		str	r1, [r0, #380]	@ float
 5557              		.loc 1 870 0
 5558 027e C0F8B091 		str	r9, [r0, #432]	@ float
 5559              		.loc 1 877 0
 5560 0282 C0F8CCA1 		str	r10, [r0, #460]	@ float
 5561              		.loc 1 878 0
 5562 0286 C0F8D0A1 		str	r10, [r0, #464]	@ float
 5563              		.loc 1 854 0
 5564 028a 80F87141 		strb	r4, [r0, #369]
 5565              		.loc 1 858 0
 5566 028e C0F88021 		str	r2, [r0, #384]	@ float
 5567              		.loc 1 859 0
 5568 0292 C0F88421 		str	r2, [r0, #388]	@ float
 5569              		.loc 1 860 0
 5570 0296 C0F88821 		str	r2, [r0, #392]	@ float
 5571              		.loc 1 861 0
 5572 029a C0F88C21 		str	r2, [r0, #396]	@ float
 5573              		.loc 1 862 0
 5574 029e C0F89021 		str	r2, [r0, #400]	@ float
 5575              		.loc 1 863 0
 5576 02a2 C0F89421 		str	r2, [r0, #404]	@ float
 5577              		.loc 1 864 0
 5578 02a6 80F89841 		strb	r4, [r0, #408]
 5579              		.loc 1 866 0
 5580 02aa 80F8A031 		strb	r3, [r0, #416]
 5581              		.loc 1 867 0
 5582 02ae C0F8A421 		str	r2, [r0, #420]	@ float
 5583              		.loc 1 872 0
 5584 02b2 C0F8B831 		str	r3, [r0, #440]
 5585              		.loc 1 882 0
 5586 02b6 80F8E041 		strb	r4, [r0, #480]
ARM GAS  /tmp/cc4M9ACW.s 			page 99


 5587              		.loc 1 885 0
 5588 02ba C0F8EC21 		str	r2, [r0, #492]	@ float
 5589              		.loc 1 886 0
 5590 02be C0F8F021 		str	r2, [r0, #496]	@ float
 5591              		.loc 1 883 0
 5592 02c2 C0F8E4C1 		str	ip, [r0, #484]	@ float
 5593              		.loc 1 888 0
 5594 02c6 C0F8F871 		str	r7, [r0, #504]	@ float
 5595              		.loc 1 895 0
 5596 02ca 524F     		ldr	r7, .L36+136
 5597 02cc C0F81472 		str	r7, [r0, #532]	@ float
 5598              		.loc 1 896 0
 5599 02d0 4FF4FA77 		mov	r7, #500
 5600 02d4 C0F81872 		str	r7, [r0, #536]
 5601              		.loc 1 899 0
 5602 02d8 4FF40057 		mov	r7, #8192
 5603              		.loc 1 897 0
 5604 02dc C0F81C92 		str	r9, [r0, #540]	@ float
 5605              		.loc 1 904 0
 5606 02e0 4D49     		ldr	r1, .L36+140
 5607              		.loc 1 905 0
 5608 02e2 DFF8A0A1 		ldr	r10, .L36+248
 5609              		.loc 1 906 0
 5610 02e6 C0F838C2 		str	ip, [r0, #568]	@ float
 5611              		.loc 1 907 0
 5612 02ea DFF89C91 		ldr	r9, .L36+252
 5613              		.loc 1 912 0
 5614 02ee C0F84CE2 		str	lr, [r0, #588]	@ float
 5615              		.loc 1 911 0
 5616 02f2 DFF898C1 		ldr	ip, .L36+256
 5617              		.loc 1 910 0
 5618 02f6 DFF898E1 		ldr	lr, .L36+260
 5619              		.loc 1 899 0
 5620 02fa C0F82472 		str	r7, [r0, #548]
 5621              		.loc 1 887 0
 5622 02fe 9FED477A 		vldr.32	s14, .L36+144
 5623              		.loc 1 892 0
 5624 0302 DFED477A 		vldr.32	s15, .L36+148
 5625              		.loc 1 898 0
 5626 0306 C0F82082 		str	r8, [r0, #544]	@ float
 5627              		.loc 1 903 0
 5628 030a 1027     		movs	r7, #16
 5629 030c C0F82C72 		str	r7, [r0, #556]
 5630              		.loc 1 904 0
 5631 0310 C0F83012 		str	r1, [r0, #560]	@ float
 5632              		.loc 1 905 0
 5633 0314 C0F834A2 		str	r10, [r0, #564]	@ float
 5634              		.loc 1 907 0
 5635 0318 C0F83C92 		str	r9, [r0, #572]	@ float
 5636              		.loc 1 910 0
 5637 031c C0F844E2 		str	lr, [r0, #580]	@ float
 5638              		.loc 1 911 0
 5639 0320 C0F850C2 		str	ip, [r0, #592]	@ float
 5640              		.loc 1 894 0
 5641 0324 DFF86CB1 		ldr	fp, .L36+264
 5642              		.loc 1 916 0
 5643 0328 DFF86C81 		ldr	r8, .L36+268
ARM GAS  /tmp/cc4M9ACW.s 			page 100


 5644              		.loc 1 922 0
 5645 032c 3D4F     		ldr	r7, .L36+152
 5646              		.loc 1 923 0
 5647 032e 3E49     		ldr	r1, .L36+156
 5648              		.loc 1 915 0
 5649 0330 DFF86891 		ldr	r9, .L36+272
 5650              		.loc 1 919 0
 5651 0334 DFF868C1 		ldr	ip, .L36+276
 5652              		.loc 1 887 0
 5653 0338 80ED7D7A 		vstr.32	s14, [r0, #500]
 5654              		.loc 1 914 0
 5655 033c 4FF00E0A 		mov	r10, #14
 5656              		.loc 1 918 0
 5657 0340 4FF0030E 		mov	lr, #3
 5658              		.loc 1 889 0
 5659 0344 C0F8FC51 		str	r5, [r0, #508]	@ float
 5660              		.loc 1 890 0
 5661 0348 C0F80022 		str	r2, [r0, #512]	@ float
 5662              		.loc 1 891 0
 5663 034c C0F80422 		str	r2, [r0, #516]	@ float
 5664              		.loc 1 893 0
 5665 0350 C0F80C62 		str	r6, [r0, #524]	@ float
 5666              		.loc 1 900 0
 5667 0354 80F82832 		strb	r3, [r0, #552]
 5668              		.loc 1 901 0
 5669 0358 80F82932 		strb	r3, [r0, #553]
 5670              		.loc 1 902 0
 5671 035c 80F82A32 		strb	r3, [r0, #554]
 5672              		.loc 1 908 0
 5673 0360 80F84032 		strb	r3, [r0, #576]
 5674              		.loc 1 909 0
 5675 0364 80F84132 		strb	r3, [r0, #577]
 5676              		.loc 1 913 0
 5677 0368 C0F84842 		str	r4, [r0, #584]
 5678              		.loc 1 917 0
 5679 036c 80F86032 		strb	r3, [r0, #608]
 5680              		.loc 1 892 0
 5681 0370 C0ED827A 		vstr.32	s15, [r0, #520]
 5682              		.loc 1 894 0
 5683 0374 C0F810B2 		str	fp, [r0, #528]	@ float
 5684              		.loc 1 914 0
 5685 0378 80F854A2 		strb	r10, [r0, #596]
 5686              		.loc 1 915 0
 5687 037c C0F85892 		str	r9, [r0, #600]	@ float
 5688              		.loc 1 916 0
 5689 0380 C0F85C82 		str	r8, [r0, #604]	@ float
 5690              		.loc 1 918 0
 5691 0384 C0F864E2 		str	lr, [r0, #612]
 5692 0388 8CE0     		b	.L37
 5693              	.L38:
 5694 038a 00BF     		.align	2
 5695              	.L36:
 5696 038c 00007042 		.word	1114636288
 5697 0390 000070C2 		.word	-1032847360
 5698 0394 00007A43 		.word	1132068864
 5699 0398 0000E143 		.word	1138819072
 5700 039c 0050C3C7 		.word	-943501312
ARM GAS  /tmp/cc4M9ACW.s 			page 101


 5701 03a0 00009643 		.word	1133903872
 5702 03a4 3333733F 		.word	1064514355
 5703 03a8 001BB749 		.word	1236736768
 5704 03ac 001BB7C9 		.word	-910746880
 5705 03b0 0000AA42 		.word	1118437376
 5706 03b4 0000C842 		.word	1120403456
 5707 03b8 0080BB44 		.word	1153138688
 5708 03bc 00004041 		.word	1094713344
 5709 03c0 00002041 		.word	1092616192
 5710 03c4 00001643 		.word	1125515264
 5711 03c8 00808944 		.word	1149861888
 5712 03cc CDCC4C3F 		.word	1061997773
 5713 03d0 00409C47 		.word	1201422336
 5714 03d4 00001644 		.word	1142292480
 5715 03d8 FF010302 		.word	33751551
 5716 03dc 050604FF 		.word	-16513531
 5717 03e0 0000FA44 		.word	1157234688
 5718 03e4 8FC2F53C 		.word	1022739087
 5719 03e8 00004842 		.word	1112014848
 5720 03ec 0060EA46 		.word	1189765120
 5721 03f0 8FC2F53D 		.word	1039516303
 5722 03f4 00003443 		.word	1127481344
 5723 03f8 8FC2753C 		.word	1014350479
 5724 03fc 0000E040 		.word	1088421888
 5725 0400 CDCC4C3D 		.word	1028443341
 5726 0404 0000A041 		.word	1101004800
 5727 0408 00401C45 		.word	1159479296
 5728 040c CDCC4C3E 		.word	1045220557
 5729 0410 8FC2F53C 		.word	1022739087
 5730 0414 0AD7233D 		.word	1025758986
 5731 0418 00803B45 		.word	1161527296
 5732 041c 3480B739 		.word	968327220
 5733 0420 0AD7233C 		.word	1008981770
 5734 0424 00003442 		.word	1110704128
 5735 0428 00008242 		.word	1115815936
 5736 042c 0000B442 		.word	1119092736
 5737 0430 0050C347 		.word	1203982336
 5738 0434 9A99193E 		.word	1041865114
 5739 0438 0AD7A33B 		.word	1000593162
 5740 043c 50A9AB4C 		.word	1286318416
 5741 0440 00004843 		.word	1128792064
 5742 0444 3333D33F 		.word	1070805811
 5743 0448 8BE1EA36 		.word	921362827
 5744 044c 2E90203B 		.word	991989806
 5745 0450 000080BF 		.word	-1082130432
 5746 0454 0000FA43 		.word	1140457472
 5747 0458 6666663F 		.word	1063675494
 5748 045c 0000C841 		.word	1103626240
 5749 0460 6F12833A 		.word	981668463
 5750 0464 CDCCCC3D 		.word	1036831949
 5751 0468 00007A45 		.word	1165623296
 5752 046c 17B7D138 		.word	953267991
 5753 0470 00006144 		.word	1147207680
 5754 0474 CDCCCC3C 		.word	1020054733
 5755 0478 0AD7A33C 		.word	1017370378
 5756 047c 6F12833B 		.word	998445679
 5757 0480 0050C346 		.word	1187205120
ARM GAS  /tmp/cc4M9ACW.s 			page 102


 5758 0484 00B80847 		.word	1191753728
 5759 0488 00405345 		.word	1163083776
 5760 048c 00401C46 		.word	1176256512
 5761 0490 F6281C3F 		.word	1058810102
 5762 0494 99BB963B 		.word	999734169
 5763 0498 E7FBA93D 		.word	1034550247
 5764 049c 00004040 		.word	1077936128
 5765 04a0 0000C040 		.word	1086324736
 5766              	.L37:
 5767              		.loc 1 919 0
 5768 04a4 C0F868C2 		str	ip, [r0, #616]	@ float
 5769              		.loc 1 920 0
 5770 04a8 C0F86C52 		str	r5, [r0, #620]	@ float
 5771              		.loc 1 921 0
 5772 04ac 80F87042 		strb	r4, [r0, #624]
 5773              		.loc 1 924 0
 5774 04b0 C0F87C62 		str	r6, [r0, #636]	@ float
 5775              		.loc 1 925 0
 5776 04b4 C0F88022 		str	r2, [r0, #640]	@ float
 5777              		.loc 1 926 0
 5778 04b8 80F88432 		strb	r3, [r0, #644]
 5779              		.loc 1 922 0
 5780 04bc C0F87472 		str	r7, [r0, #628]	@ float
 5781              		.loc 1 923 0
 5782 04c0 C0F87812 		str	r1, [r0, #632]	@ float
 5783              		.loc 1 927 0
 5784 04c4 BDE8F08F 		pop	{r4, r5, r6, r7, r8, r9, r10, fp, pc}
 5785              		.cfi_endproc
 5786              	.LFE223:
 5787              		.size	confgenerator_set_defaults_mcconf, .-confgenerator_set_defaults_mcconf
 5788              		.section	.text.confgenerator_set_defaults_appconf,"ax",%progbits
 5789              		.align	1
 5790              		.p2align 4,,15
 5791              		.global	confgenerator_set_defaults_appconf
 5792              		.syntax unified
 5793              		.thumb
 5794              		.thumb_func
 5795              		.fpu fpv4-sp-d16
 5796              		.type	confgenerator_set_defaults_appconf, %function
 5797              	confgenerator_set_defaults_appconf:
 5798              	.LFB224:
 5799              		.loc 1 929 0
 5800              		.cfi_startproc
 5801              		@ args = 0, pretend = 0, frame = 0
 5802              		@ frame_needed = 0, uses_anonymous_args = 0
 5803              	.LVL530:
 5804 0000 2DE9F84F 		push	{r3, r4, r5, r6, r7, r8, r9, r10, fp, lr}
 5805              		.cfi_def_cfa_offset 40
 5806              		.cfi_offset 3, -40
 5807              		.cfi_offset 4, -36
 5808              		.cfi_offset 5, -32
 5809              		.cfi_offset 6, -28
 5810              		.cfi_offset 7, -24
 5811              		.cfi_offset 8, -20
 5812              		.cfi_offset 9, -16
 5813              		.cfi_offset 10, -12
 5814              		.cfi_offset 11, -8
ARM GAS  /tmp/cc4M9ACW.s 			page 103


 5815              		.cfi_offset 14, -4
 5816              		.loc 1 929 0
 5817 0004 0446     		mov	r4, r0
 5818              		.loc 1 930 0
 5819 0006 FFF7FEFF 		bl	hw_id_from_uuid
 5820              	.LVL531:
 5821              		.loc 1 942 0
 5822 000a DFF84CA3 		ldr	r10, .L41+64
 5823              		.loc 1 957 0
 5824 000e DFEDC26A 		vldr.32	s13, .L41
 5825              		.loc 1 958 0
 5826 0012 9FEDC27A 		vldr.32	s14, .L41+4
 5827              		.loc 1 947 0
 5828 0016 DFF844B3 		ldr	fp, .L41+68
 5829              		.loc 1 962 0
 5830 001a 9FEDC16A 		vldr.32	s12, .L41+8
 5831              		.loc 1 930 0
 5832 001e 2070     		strb	r0, [r4]
 5833              		.loc 1 938 0
 5834 0020 0721     		movs	r1, #7
 5835              		.loc 1 934 0
 5836 0022 3220     		movs	r0, #50
 5837              		.loc 1 951 0
 5838 0024 4FF07F58 		mov	r8, #1069547520
 5839              		.loc 1 933 0
 5840 0028 0023     		movs	r3, #0
 5841              		.loc 1 932 0
 5842 002a 0022     		movs	r2, #0
 5843              		.loc 1 961 0
 5844 002c BD4D     		ldr	r5, .L41+12
 5845              		.loc 1 948 0
 5846 002e BE4F     		ldr	r7, .L41+16
 5847              		.loc 1 963 0
 5848 0030 DFEDBE7A 		vldr.32	s15, .L41+20
 5849              		.loc 1 967 0
 5850 0034 DFF828E3 		ldr	lr, .L41+72
 5851              		.loc 1 934 0
 5852 0038 2061     		str	r0, [r4, #16]
 5853              		.loc 1 935 0
 5854 003a 0226     		movs	r6, #2
 5855              		.loc 1 931 0
 5856 003c 4FF47A79 		mov	r9, #1000
 5857              		.loc 1 938 0
 5858 0040 E175     		strb	r1, [r4, #23]
 5859              		.loc 1 942 0
 5860 0042 C4F820A0 		str	r10, [r4, #32]	@ float
 5861              		.loc 1 937 0
 5862 0046 0121     		movs	r1, #1
 5863              		.loc 1 945 0
 5864 0048 4FF0030A 		mov	r10, #3
 5865              		.loc 1 947 0
 5866 004c C4F82CB0 		str	fp, [r4, #44]	@ float
 5867              		.loc 1 951 0
 5868 0050 C4F83C80 		str	r8, [r4, #60]	@ float
 5869              		.loc 1 949 0
 5870 0054 4FF07E5B 		mov	fp, #1065353216
 5871              		.loc 1 950 0
ARM GAS  /tmp/cc4M9ACW.s 			page 104


 5872 0058 4FF08048 		mov	r8, #1073741824
 5873              		.loc 1 987 0
 5874 005c 4FF4E130 		mov	r0, #115200
 5875              		.loc 1 981 0
 5876 0060 DFF800C3 		ldr	ip, .L41+76
 5877              		.loc 1 931 0
 5878 0064 C4F80490 		str	r9, [r4, #4]
 5879              		.loc 1 935 0
 5880 0068 2675     		strb	r6, [r4, #20]
 5881              		.loc 1 956 0
 5882 006a 84F84C60 		strb	r6, [r4, #76]
 5883              		.loc 1 945 0
 5884 006e 84F824A0 		strb	r10, [r4, #36]
 5885              		.loc 1 948 0
 5886 0072 2763     		str	r7, [r4, #48]	@ float
 5887              		.loc 1 950 0
 5888 0074 C4F83880 		str	r8, [r4, #56]	@ float
 5889              		.loc 1 957 0
 5890 0078 C4ED146A 		vstr.32	s13, [r4, #80]
 5891              		.loc 1 958 0
 5892 007c 84ED157A 		vstr.32	s14, [r4, #84]
 5893              		.loc 1 961 0
 5894 0080 E565     		str	r5, [r4, #92]	@ float
 5895              		.loc 1 932 0
 5896 0082 A260     		str	r2, [r4, #8]	@ float
 5897              		.loc 1 954 0
 5898 0084 6264     		str	r2, [r4, #68]	@ float
 5899              		.loc 1 955 0
 5900 0086 A264     		str	r2, [r4, #72]	@ float
 5901              		.loc 1 933 0
 5902 0088 2373     		strb	r3, [r4, #12]
 5903              		.loc 1 936 0
 5904 008a 6375     		strb	r3, [r4, #21]
 5905              		.loc 1 939 0
 5906 008c A376     		strb	r3, [r4, #26]
 5907              		.loc 1 940 0
 5908 008e E376     		strb	r3, [r4, #27]
 5909              		.loc 1 941 0
 5910 0090 2377     		strb	r3, [r4, #28]
 5911              		.loc 1 943 0
 5912 0092 2376     		strb	r3, [r4, #24]
 5913              		.loc 1 944 0
 5914 0094 6376     		strb	r3, [r4, #25]
 5915              		.loc 1 946 0
 5916 0096 84F82830 		strb	r3, [r4, #40]
 5917              		.loc 1 960 0
 5918 009a 84F85930 		strb	r3, [r4, #89]
 5919              		.loc 1 937 0
 5920 009e A175     		strb	r1, [r4, #22]
 5921              		.loc 1 952 0
 5922 00a0 84F84010 		strb	r1, [r4, #64]
 5923              		.loc 1 953 0
 5924 00a4 84F84110 		strb	r1, [r4, #65]
 5925              		.loc 1 959 0
 5926 00a8 84F85810 		strb	r1, [r4, #88]
 5927              		.loc 1 949 0
 5928 00ac C4F834B0 		str	fp, [r4, #52]	@ float
ARM GAS  /tmp/cc4M9ACW.s 			page 105


 5929              		.loc 1 962 0
 5930 00b0 84ED186A 		vstr.32	s12, [r4, #96]
 5931              		.loc 1 966 0
 5932 00b4 2767     		str	r7, [r4, #112]	@ float
 5933              		.loc 1 989 0
 5934 00b6 C4F8B870 		str	r7, [r4, #184]	@ float
 5935              		.loc 1 987 0
 5936 00ba C4F8B000 		str	r0, [r4, #176]
 5937              		.loc 1 982 0
 5938 00be 9C4F     		ldr	r7, .L41+24
 5939              		.loc 1 964 0
 5940 00c0 9C48     		ldr	r0, .L41+28
 5941              		.loc 1 967 0
 5942 00c2 C4F874E0 		str	lr, [r4, #116]	@ float
 5943              		.loc 1 970 0
 5944 00c6 C4F880E0 		str	lr, [r4, #128]	@ float
 5945              		.loc 1 986 0
 5946 00ca 4FF4FA7E 		mov	lr, #500
 5947              		.loc 1 969 0
 5948 00ce C4F87C80 		str	r8, [r4, #124]	@ float
 5949              		.loc 1 980 0
 5950 00d2 84F89860 		strb	r6, [r4, #152]
 5951              		.loc 1 985 0
 5952 00d6 C4F8A850 		str	r5, [r4, #168]	@ float
 5953              		.loc 1 990 0
 5954 00da C4ED2F6A 		vstr.32	s13, [r4, #188]
 5955              		.loc 1 991 0
 5956 00de 84ED307A 		vstr.32	s14, [r4, #192]
 5957              		.loc 1 992 0
 5958 00e2 C4F8C450 		str	r5, [r4, #196]	@ float
 5959              		.loc 1 963 0
 5960 00e6 C4ED197A 		vstr.32	s15, [r4, #100]
 5961              		.loc 1 964 0
 5962 00ea A066     		str	r0, [r4, #104]	@ float
 5963              		.loc 1 968 0
 5964 00ec A067     		str	r0, [r4, #120]	@ float
 5965              		.loc 1 971 0
 5966 00ee C4F88400 		str	r0, [r4, #132]	@ float
 5967              		.loc 1 965 0
 5968 00f2 84F86C30 		strb	r3, [r4, #108]
 5969              		.loc 1 972 0
 5970 00f6 84F88810 		strb	r1, [r4, #136]
 5971              		.loc 1 973 0
 5972 00fa 84F88910 		strb	r1, [r4, #137]
 5973              		.loc 1 974 0
 5974 00fe 84F88A30 		strb	r3, [r4, #138]
 5975              		.loc 1 975 0
 5976 0102 84F88B30 		strb	r3, [r4, #139]
 5977              		.loc 1 976 0
 5978 0106 84F88C30 		strb	r3, [r4, #140]
 5979              		.loc 1 977 0
 5980 010a 84F88D30 		strb	r3, [r4, #141]
 5981              		.loc 1 978 0
 5982 010e C4F89020 		str	r2, [r4, #144]	@ float
 5983              		.loc 1 979 0
 5984 0112 C4F89420 		str	r2, [r4, #148]	@ float
 5985              		.loc 1 983 0
ARM GAS  /tmp/cc4M9ACW.s 			page 106


 5986 0116 84F8A410 		strb	r1, [r4, #164]
 5987              		.loc 1 984 0
 5988 011a 84F8A530 		strb	r3, [r4, #165]
 5989              		.loc 1 988 0
 5990 011e 84F8B430 		strb	r3, [r4, #180]
 5991              		.loc 1 993 0
 5992 0122 C4F8C820 		str	r2, [r4, #200]	@ float
 5993              		.loc 1 994 0
 5994 0126 C4F8CC20 		str	r2, [r4, #204]	@ float
 5995              		.loc 1 981 0
 5996 012a C4F89CC0 		str	ip, [r4, #156]	@ float
 5997              		.loc 1 982 0
 5998 012e C4F8A070 		str	r7, [r4, #160]	@ float
 5999              		.loc 1 986 0
 6000 0132 C4F8ACE0 		str	lr, [r4, #172]
 6001              		.loc 1 995 0
 6002 0136 84F8D060 		strb	r6, [r4, #208]
 6003              		.loc 1 998 0
 6004 013a C4F8D450 		str	r5, [r4, #212]	@ float
 6005              		.loc 1 1017 0
 6006 013e 7E4E     		ldr	r6, .L41+32
 6007              		.loc 1 1006 0
 6008 0140 7E4D     		ldr	r5, .L41+36
 6009              		.loc 1 1033 0
 6010 0142 9FED7F6A 		vldr.32	s12, .L41+40
 6011              		.loc 1 1003 0
 6012 0146 84F8E5A0 		strb	r10, [r4, #229]
 6013              		.loc 1 1014 0
 6014 014a C4E93E39 		strd	r3, r9, [r4, #248]
 6015              		.loc 1 1016 0
 6016 014e DFF818A2 		ldr	r10, .L41+80
 6017              		.loc 1 1006 0
 6018 0152 C4F8E850 		str	r5, [r4, #232]
 6019              		.loc 1 1018 0
 6020 0156 DFF80892 		ldr	r9, .L41+72
 6021              		.loc 1 1016 0
 6022 015a C4F800A1 		str	r10, [r4, #256]
 6023              		.loc 1 1025 0
 6024 015e 4FF07A75 		mov	r5, #65536000
 6025              		.loc 1 1017 0
 6026 0162 C4F80461 		str	r6, [r4, #260]
 6027              		.loc 1 1029 0
 6028 0166 4FF07D5A 		mov	r10, #1061158912
 6029              		.loc 1 1027 0
 6030 016a A6F18A76 		sub	r6, r6, #18087936
 6031              		.loc 1 1018 0
 6032 016e C4F80891 		str	r9, [r4, #264]
 6033              		.loc 1 1025 0
 6034 0172 C4F81C51 		str	r5, [r4, #284]
 6035              		.loc 1 1028 0
 6036 0176 DFF8BC91 		ldr	r9, .L41+28
 6037              		.loc 1 1031 0
 6038 017a 724D     		ldr	r5, .L41+44
 6039              		.loc 1 1000 0
 6040 017c C4ED377A 		vstr.32	s15, [r4, #220]
 6041              		.loc 1 1001 0
 6042 0180 C4F8E000 		str	r0, [r4, #224]	@ float
ARM GAS  /tmp/cc4M9ACW.s 			page 107


 6043              		.loc 1 1032 0
 6044 0184 C4F83001 		str	r0, [r4, #304]	@ float
 6045              		.loc 1 1029 0
 6046 0188 C4F828A1 		str	r10, [r4, #296]
 6047              		.loc 1 1033 0
 6048 018c 84ED4D6A 		vstr.32	s12, [r4, #308]
 6049              		.loc 1 1027 0
 6050 0190 C4F82061 		str	r6, [r4, #288]
 6051              		.loc 1 1028 0
 6052 0194 C4F82491 		str	r9, [r4, #292]
 6053              		.loc 1 996 0
 6054 0198 84F8D110 		strb	r1, [r4, #209]
 6055              		.loc 1 997 0
 6056 019c 84F8D230 		strb	r3, [r4, #210]
 6057              		.loc 1 999 0
 6058 01a0 84F8D810 		strb	r1, [r4, #216]
 6059              		.loc 1 1002 0
 6060 01a4 84F8E410 		strb	r1, [r4, #228]
 6061              		.loc 1 1004 0
 6062 01a8 84F8E610 		strb	r1, [r4, #230]
 6063              		.loc 1 1005 0
 6064 01ac 84F8E730 		strb	r3, [r4, #231]
 6065              		.loc 1 1009 0
 6066 01b0 84F8EC30 		strb	r3, [r4, #236]
 6067              		.loc 1 1011 0
 6068 01b4 84F8ED10 		strb	r1, [r4, #237]
 6069              		.loc 1 1012 0
 6070 01b8 C4E93C33 		strd	r3, r3, [r4, #240]
 6071              		.loc 1 1019 0
 6072 01bc C4F80C31 		str	r3, [r4, #268]
 6073              		.loc 1 1020 0
 6074 01c0 C4F81031 		str	r3, [r4, #272]
 6075              		.loc 1 1021 0
 6076 01c4 C4F81431 		str	r3, [r4, #276]
 6077              		.loc 1 1023 0
 6078 01c8 C4F81831 		str	r3, [r4, #280]
 6079              		.loc 1 1031 0
 6080 01cc C4F82C51 		str	r5, [r4, #300]	@ float
 6081              		.loc 1 1034 0
 6082 01d0 C4F83851 		str	r5, [r4, #312]	@ float
 6083              		.loc 1 1035 0
 6084 01d4 C4F83C01 		str	r0, [r4, #316]	@ float
 6085              		.loc 1 1065 0
 6086 01d8 C4F8B491 		str	r9, [r4, #436]
 6087              		.loc 1 1059 0
 6088 01dc 4FF08249 		mov	r9, #1090519040
 6089              		.loc 1 1037 0
 6090 01e0 C4F84481 		str	r8, [r4, #324]	@ float
 6091              		.loc 1 1042 0
 6092 01e4 C4F85801 		str	r0, [r4, #344]	@ float
 6093              		.loc 1 1054 0
 6094 01e8 4FF00A0A 		mov	r10, #10
 6095              		.loc 1 1045 0
 6096 01ec 5648     		ldr	r0, .L41+48
 6097              		.loc 1 1059 0
 6098 01ee C4F89C91 		str	r9, [r4, #412]
 6099              		.loc 1 1067 0
ARM GAS  /tmp/cc4M9ACW.s 			page 108


 6100 01f2 4FF08048 		mov	r8, #1073741824
 6101              		.loc 1 1073 0
 6102 01f6 09F15269 		add	r9, r9, #220200960
 6103              		.loc 1 1062 0
 6104 01fa C4F8A861 		str	r6, [r4, #424]
 6105              		.loc 1 1045 0
 6106 01fe C4F86401 		str	r0, [r4, #356]	@ float
 6107              		.loc 1 1060 0
 6108 0202 4FF07E56 		mov	r6, #1065353216
 6109              		.loc 1 1063 0
 6110 0206 5148     		ldr	r0, .L41+52
 6111              		.loc 1 1054 0
 6112 0208 A4F888A1 		strh	r10, [r4, #392]	@ movhi
 6113              		.loc 1 1067 0
 6114 020c C4F8BC81 		str	r8, [r4, #444]
 6115              		.loc 1 1080 0
 6116 0210 DFED4F6A 		vldr.32	s13, .L41+56
 6117              		.loc 1 1084 0
 6118 0214 9FED4F7A 		vldr.32	s14, .L41+60
 6119              		.loc 1 1060 0
 6120 0218 C4F8A061 		str	r6, [r4, #416]
 6121              		.loc 1 1043 0
 6122 021c B3EE046A 		vmov.f32	s12, #2.0e+1
 6123              		.loc 1 1044 0
 6124 0220 F2EE007A 		vmov.f32	s15, #8.0e+0
 6125              		.loc 1 1071 0
 6126 0224 4FF0640A 		mov	r10, #100
 6127              		.loc 1 1073 0
 6128 0228 09F11409 		add	r9, r9, #20
 6129              		.loc 1 1082 0
 6130 022c 4FF01808 		mov	r8, #24
 6131              		.loc 1 1036 0
 6132 0230 C4F84021 		str	r2, [r4, #320]	@ float
 6133              		.loc 1 1038 0
 6134 0234 C4F84821 		str	r2, [r4, #328]	@ float
 6135              		.loc 1 1039 0
 6136 0238 A4F84CE1 		strh	lr, [r4, #332]	@ movhi
 6137              		.loc 1 1040 0
 6138 023c C4F85021 		str	r2, [r4, #336]	@ float
 6139              		.loc 1 1041 0
 6140 0240 C4F85421 		str	r2, [r4, #340]	@ float
 6141              		.loc 1 1046 0
 6142 0244 C4F86821 		str	r2, [r4, #360]	@ float
 6143              		.loc 1 1047 0
 6144 0248 84F86C31 		strb	r3, [r4, #364]
 6145              		.loc 1 1048 0
 6146 024c C4F87021 		str	r2, [r4, #368]	@ float
 6147              		.loc 1 1049 0
 6148 0250 C4F87421 		str	r2, [r4, #372]	@ float
 6149              		.loc 1 1050 0
 6150 0254 C4F87821 		str	r2, [r4, #376]	@ float
 6151              		.loc 1 1051 0
 6152 0258 C4F87C21 		str	r2, [r4, #380]	@ float
 6153              		.loc 1 1052 0
 6154 025c C4F88021 		str	r2, [r4, #384]	@ float
 6155              		.loc 1 1053 0
 6156 0260 C4F88421 		str	r2, [r4, #388]	@ float
ARM GAS  /tmp/cc4M9ACW.s 			page 109


 6157              		.loc 1 1055 0
 6158 0264 C4F88C31 		str	r3, [r4, #396]
 6159 0268 C4F89031 		str	r3, [r4, #400]
 6160              		.loc 1 1057 0
 6161 026c C4F89431 		str	r3, [r4, #404]
 6162              		.loc 1 1058 0
 6163 0270 C4F89831 		str	r3, [r4, #408]
 6164              		.loc 1 1061 0
 6165 0274 C4F8A431 		str	r3, [r4, #420]
 6166              		.loc 1 1066 0
 6167 0278 C4F8B831 		str	r3, [r4, #440]
 6168              		.loc 1 1043 0
 6169 027c 84ED576A 		vstr.32	s12, [r4, #348]
 6170              		.loc 1 1044 0
 6171 0280 C4ED587A 		vstr.32	s15, [r4, #352]
 6172              		.loc 1 1063 0
 6173 0284 C4F8AC01 		str	r0, [r4, #428]
 6174              		.loc 1 1064 0
 6175 0288 C4F8B001 		str	r0, [r4, #432]
 6176              		.loc 1 1068 0
 6177 028c C4F8C031 		str	r3, [r4, #448]
 6178              		.loc 1 1070 0
 6179 0290 C4F8C861 		str	r6, [r4, #456]
 6180              		.loc 1 1073 0
 6181 0294 C4F8D001 		str	r0, [r4, #464]
 6182              		.loc 1 1089 0
 6183 0298 C826     		movs	r6, #200
 6184              		.loc 1 1071 0
 6185 029a A4F8CCA1 		strh	r10, [r4, #460]	@ movhi
 6186              		.loc 1 1073 0
 6187 029e C4F8D491 		str	r9, [r4, #468]
 6188              		.loc 1 1082 0
 6189 02a2 84F8E981 		strb	r8, [r4, #489]
 6190              		.loc 1 1069 0
 6191 02a6 C4F8C401 		str	r0, [r4, #452]
 6192              		.loc 1 1076 0
 6193 02aa 84F8D831 		strb	r3, [r4, #472]
 6194              		.loc 1 1077 0
 6195 02ae 84F8D931 		strb	r3, [r4, #473]
 6196              		.loc 1 1078 0
 6197 02b2 C4F8DC71 		str	r7, [r4, #476]	@ float
 6198              		.loc 1 1079 0
 6199 02b6 C4F8E051 		str	r5, [r4, #480]	@ float
 6200              		.loc 1 1081 0
 6201 02ba 84F8E831 		strb	r3, [r4, #488]
 6202              		.loc 1 1083 0
 6203 02be 84F8EA11 		strb	r1, [r4, #490]
 6204              		.loc 1 1085 0
 6205 02c2 C4F8F0C1 		str	ip, [r4, #496]	@ float
 6206              		.loc 1 1086 0
 6207 02c6 C4F8F4E1 		str	lr, [r4, #500]
 6208              		.loc 1 1087 0
 6209 02ca 84F8F811 		strb	r1, [r4, #504]
 6210              		.loc 1 1088 0
 6211 02ce 84F8F931 		strb	r3, [r4, #505]
 6212              		.loc 1 1090 0
 6213 02d2 C4F800B2 		str	fp, [r4, #512]	@ float
ARM GAS  /tmp/cc4M9ACW.s 			page 110


 6214              		.loc 1 1091 0
 6215 02d6 C4F804C2 		str	ip, [r4, #516]	@ float
 6216              		.loc 1 1092 0
 6217 02da C4F80822 		str	r2, [r4, #520]	@ float
 6218              		.loc 1 1093 0
 6219 02de C4F80C72 		str	r7, [r4, #524]	@ float
 6220              		.loc 1 1094 0
 6221 02e2 C4F81022 		str	r2, [r4, #528]	@ float
 6222              		.loc 1 1095 0
 6223 02e6 C4F81422 		str	r2, [r4, #532]	@ float
 6224              		.loc 1 1096 0
 6225 02ea C4F81822 		str	r2, [r4, #536]	@ float
 6226              		.loc 1 1097 0
 6227 02ee C4F81C22 		str	r2, [r4, #540]	@ float
 6228              		.loc 1 1098 0
 6229 02f2 C4F82022 		str	r2, [r4, #544]	@ float
 6230              		.loc 1 1099 0
 6231 02f6 C4F82422 		str	r2, [r4, #548]	@ float
 6232              		.loc 1 1100 0
 6233 02fa C4F82822 		str	r2, [r4, #552]	@ float
 6234              		.loc 1 1101 0
 6235 02fe C4F82C22 		str	r2, [r4, #556]	@ float
 6236              		.loc 1 1102 0
 6237 0302 C4F83022 		str	r2, [r4, #560]	@ float
 6238              		.loc 1 1080 0
 6239 0306 C4ED796A 		vstr.32	s13, [r4, #484]
 6240              		.loc 1 1084 0
 6241 030a 84ED7B7A 		vstr.32	s14, [r4, #492]
 6242              		.loc 1 1089 0
 6243 030e C4F8FC61 		str	r6, [r4, #508]
 6244              		.loc 1 1103 0
 6245 0312 BDE8F88F 		pop	{r3, r4, r5, r6, r7, r8, r9, r10, fp, pc}
 6246              	.LVL532:
 6247              	.L42:
 6248 0316 00BF     		.align	2
 6249              	.L41:
 6250 0318 CDCCCC3E 		.word	1053609165
 6251 031c CDCC4C3E 		.word	1045220557
 6252 0320 00007A45 		.word	1165623296
 6253 0324 00803B45 		.word	1161527296
 6254 0328 9A99193E 		.word	1041865114
 6255 032c 295C8F3D 		.word	1032805417
 6256 0330 CDCCCC3D 		.word	1036831949
 6257 0334 00004040 		.word	1077936128
 6258 0338 00003442 		.word	1110704128
 6259 033c 034CC6C7 		.word	-943305725
 6260 0340 00004843 		.word	1128792064
 6261 0344 00002041 		.word	1092616192
 6262 0348 0000F041 		.word	1106247680
 6263 034c 0000A040 		.word	1084227584
 6264 0350 00003443 		.word	1127481344
 6265 0354 9A99193F 		.word	1058642330
 6266 0358 00504347 		.word	1195593728
 6267 035c 00606A46 		.word	1181376512
 6268 0360 6666663F 		.word	1063675494
 6269 0364 9A99993E 		.word	1050253722
 6270 0368 0000A041 		.word	1101004800
ARM GAS  /tmp/cc4M9ACW.s 			page 111


 6271              		.cfi_endproc
 6272              	.LFE224:
 6273              		.size	confgenerator_set_defaults_appconf, .-confgenerator_set_defaults_appconf
 6274              		.text
 6275              	.Letext0:
 6276              		.file 2 "/usr/arm-none-eabi/include/machine/_default_types.h"
 6277              		.file 3 "/usr/arm-none-eabi/include/sys/_stdint.h"
 6278              		.file 4 "ChibiOS_3.0.5/os/rt/ports/ARMCMx/compilers/GCC/chtypes.h"
 6279              		.file 5 "ChibiOS_3.0.5/os/rt/include/chsystypes.h"
 6280              		.file 6 "ChibiOS_3.0.5/os/rt/include/chschd.h"
 6281              		.file 7 "ChibiOS_3.0.5/os/ext/CMSIS/include/core_cm4.h"
 6282              		.file 8 "ChibiOS_3.0.5/os/ext/CMSIS/ST/system_stm32f4xx.h"
 6283              		.file 9 "ChibiOS_3.0.5/os/rt/ports/ARMCMx/chcore.h"
 6284              		.file 10 "ChibiOS_3.0.5/os/rt/ports/ARMCMx/chcore_v7m.h"
 6285              		.file 11 "ChibiOS_3.0.5/os/rt/include/chtm.h"
 6286              		.file 12 "ChibiOS_3.0.5/os/rt/include/chsem.h"
 6287              		.file 13 "ChibiOS_3.0.5/os/rt/include/chmtx.h"
 6288              		.file 14 "ChibiOS_3.0.5/os/rt/include/chregistry.h"
 6289              		.file 15 "datatypes.h"
 6290              		.file 16 "conf_general.h"
 6291              		.file 17 "hwconf/hw.h"
 6292              		.file 18 "buffer.h"