ARM GAS  /tmp/cc4M9ACW.s 			page 1


   1              		.cpu cortex-m4
   2              		.eabi_attribute 27, 1
   3              		.eabi_attribute 28, 1
   4              		.eabi_attribute 20, 1
   5              		.eabi_attribute 21, 1
   6              		.eabi_attribute 23, 3
   7              		.eabi_attribute 24, 1
   8              		.eabi_attribute 25, 1
   9              		.eabi_attribute 26, 1
  10              		.eabi_attribute 30, 2
  11              		.eabi_attribute 34, 1
  12              		.eabi_attribute 18, 4
  13              		.file	"confgenerator.c"
  14              		.text
  15              	.Ltext0:
  16              		.cfi_sections	.debug_frame
  17              		.section	.text.confgenerator_serialize_mcconf,"ax",%progbits
  18              		.align	1
  19              		.p2align 4,,15
  20              		.global	confgenerator_serialize_mcconf
  21              		.syntax unified
  22              		.thumb
  23              		.thumb_func
  24              		.fpu fpv4-sp-d16
  25              		.type	confgenerator_serialize_mcconf, %function
  26              	confgenerator_serialize_mcconf:
  27              	.LFB219:
  28              		.file 1 "confgenerator.c"
  29              		.loc 1 7 0
  30              		.cfi_startproc
  31              		@ args = 0, pretend = 0, frame = 8
  32              		@ frame_needed = 0, uses_anonymous_args = 0
  33              	.LVL0:
  34 0000 70B5     		push	{r4, r5, r6, lr}
  35              		.cfi_def_cfa_offset 16
  36              		.cfi_offset 4, -16
  37              		.cfi_offset 5, -12
  38              		.cfi_offset 6, -8
  39              		.cfi_offset 14, -4
  40 0002 2DED048B 		vpush.64	{d8, d9}
  41              		.cfi_def_cfa_offset 32
  42              		.cfi_offset 80, -32
  43              		.cfi_offset 81, -28
  44              		.cfi_offset 82, -24
  45              		.cfi_offset 83, -20
  46 0006 82B0     		sub	sp, sp, #8
  47              		.cfi_def_cfa_offset 40
  48              		.loc 1 8 0
  49 0008 02AE     		add	r6, sp, #8
  50 000a 0023     		movs	r3, #0
  51 000c 46F8043D 		str	r3, [r6, #-4]!
  52              		.loc 1 7 0
  53 0010 0C46     		mov	r4, r1
  54              		.loc 1 10 0
  55 0012 3246     		mov	r2, r6
  56 0014 F749     		ldr	r1, .L4
  57              	.LVL1:
ARM GAS  /tmp/cc4M9ACW.s 			page 2


  58              		.loc 1 23 0
  59 0016 9FEDF88A 		vldr.32	s16, .L4+4
  60              		.loc 1 80 0
  61 001a 9FEDF89A 		vldr.32	s18, .L4+8
  62              		.loc 1 87 0
  63 001e DFEDF88A 		vldr.32	s17, .L4+12
  64              		.loc 1 7 0
  65 0022 0546     		mov	r5, r0
  66              		.loc 1 10 0
  67 0024 FFF7FEFF 		bl	buffer_append_uint32
  68              	.LVL2:
  69              		.loc 1 12 0
  70 0028 019B     		ldr	r3, [sp, #4]
  71 002a 94F88420 		ldrb	r2, [r4, #132]	@ zero_extendqisi2
  72 002e EA54     		strb	r2, [r5, r3]
  73              		.loc 1 13 0
  74 0030 EA18     		adds	r2, r5, r3
  75 0032 94F88510 		ldrb	r1, [r4, #133]	@ zero_extendqisi2
  76 0036 5170     		strb	r1, [r2, #1]
  77              		.loc 1 14 0
  78 0038 94F88610 		ldrb	r1, [r4, #134]	@ zero_extendqisi2
  79 003c 9170     		strb	r1, [r2, #2]
  80              		.loc 1 15 0
  81 003e 94F88710 		ldrb	r1, [r4, #135]	@ zero_extendqisi2
  82 0042 D170     		strb	r1, [r2, #3]
  83 0044 0433     		adds	r3, r3, #4
  84              		.loc 1 16 0
  85 0046 94ED000A 		vldr.32	s0, [r4]
  86              		.loc 1 15 0
  87 004a 0193     		str	r3, [sp, #4]
  88              		.loc 1 16 0
  89 004c 3146     		mov	r1, r6
  90 004e 2846     		mov	r0, r5
  91 0050 FFF7FEFF 		bl	buffer_append_float32_auto
  92              	.LVL3:
  93              		.loc 1 17 0
  94 0054 3146     		mov	r1, r6
  95 0056 94ED010A 		vldr.32	s0, [r4, #4]
  96 005a 2846     		mov	r0, r5
  97 005c FFF7FEFF 		bl	buffer_append_float32_auto
  98              	.LVL4:
  99              		.loc 1 18 0
 100 0060 3146     		mov	r1, r6
 101 0062 94ED020A 		vldr.32	s0, [r4, #8]
 102 0066 2846     		mov	r0, r5
 103 0068 FFF7FEFF 		bl	buffer_append_float32_auto
 104              	.LVL5:
 105              		.loc 1 19 0
 106 006c 3146     		mov	r1, r6
 107 006e 94ED030A 		vldr.32	s0, [r4, #12]
 108 0072 2846     		mov	r0, r5
 109 0074 FFF7FEFF 		bl	buffer_append_float32_auto
 110              	.LVL6:
 111              		.loc 1 20 0
 112 0078 3146     		mov	r1, r6
 113 007a 94ED040A 		vldr.32	s0, [r4, #16]
 114 007e 2846     		mov	r0, r5
ARM GAS  /tmp/cc4M9ACW.s 			page 3


 115 0080 FFF7FEFF 		bl	buffer_append_float32_auto
 116              	.LVL7:
 117              		.loc 1 21 0
 118 0084 3146     		mov	r1, r6
 119 0086 94ED050A 		vldr.32	s0, [r4, #20]
 120 008a 2846     		mov	r0, r5
 121 008c FFF7FEFF 		bl	buffer_append_float32_auto
 122              	.LVL8:
 123              		.loc 1 22 0
 124 0090 3146     		mov	r1, r6
 125 0092 94ED060A 		vldr.32	s0, [r4, #24]
 126 0096 2846     		mov	r0, r5
 127 0098 FFF7FEFF 		bl	buffer_append_float32_auto
 128              	.LVL9:
 129              		.loc 1 23 0
 130 009c F0EE480A 		vmov.f32	s1, s16
 131 00a0 3146     		mov	r1, r6
 132 00a2 94ED070A 		vldr.32	s0, [r4, #28]
 133 00a6 2846     		mov	r0, r5
 134 00a8 FFF7FEFF 		bl	buffer_append_float16
 135              	.LVL10:
 136              		.loc 1 24 0
 137 00ac 3146     		mov	r1, r6
 138 00ae 94ED080A 		vldr.32	s0, [r4, #32]
 139 00b2 2846     		mov	r0, r5
 140 00b4 FFF7FEFF 		bl	buffer_append_float32_auto
 141              	.LVL11:
 142              		.loc 1 25 0
 143 00b8 3146     		mov	r1, r6
 144 00ba 94ED090A 		vldr.32	s0, [r4, #36]
 145 00be 2846     		mov	r0, r5
 146 00c0 FFF7FEFF 		bl	buffer_append_float32_auto
 147              	.LVL12:
 148              		.loc 1 26 0
 149 00c4 3146     		mov	r1, r6
 150 00c6 94ED0A0A 		vldr.32	s0, [r4, #40]
 151 00ca 2846     		mov	r0, r5
 152 00cc FFF7FEFF 		bl	buffer_append_float32_auto
 153              	.LVL13:
 154              		.loc 1 27 0
 155 00d0 3146     		mov	r1, r6
 156 00d2 94ED0B0A 		vldr.32	s0, [r4, #44]
 157 00d6 2846     		mov	r0, r5
 158 00d8 FFF7FEFF 		bl	buffer_append_float32_auto
 159              	.LVL14:
 160              		.loc 1 28 0
 161 00dc 3146     		mov	r1, r6
 162 00de 94ED0C0A 		vldr.32	s0, [r4, #48]
 163 00e2 2846     		mov	r0, r5
 164 00e4 FFF7FEFF 		bl	buffer_append_float32_auto
 165              	.LVL15:
 166              		.loc 1 29 0
 167 00e8 3146     		mov	r1, r6
 168 00ea 94ED0D0A 		vldr.32	s0, [r4, #52]
 169 00ee 2846     		mov	r0, r5
 170 00f0 FFF7FEFF 		bl	buffer_append_float32_auto
 171              	.LVL16:
ARM GAS  /tmp/cc4M9ACW.s 			page 4


 172              		.loc 1 30 0
 173 00f4 019B     		ldr	r3, [sp, #4]
 174 00f6 94F83820 		ldrb	r2, [r4, #56]	@ zero_extendqisi2
 175 00fa EA54     		strb	r2, [r5, r3]
 176              		.loc 1 31 0
 177 00fc 3146     		mov	r1, r6
 178              		.loc 1 30 0
 179 00fe 0133     		adds	r3, r3, #1
 180              		.loc 1 31 0
 181 0100 94ED0F0A 		vldr.32	s0, [r4, #60]
 182              		.loc 1 30 0
 183 0104 0193     		str	r3, [sp, #4]
 184              		.loc 1 31 0
 185 0106 2846     		mov	r0, r5
 186 0108 F2EE040A 		vmov.f32	s1, #1.0e+1
 187 010c FFF7FEFF 		bl	buffer_append_float16
 188              	.LVL17:
 189              		.loc 1 32 0
 190 0110 3146     		mov	r1, r6
 191 0112 94ED100A 		vldr.32	s0, [r4, #64]
 192 0116 2846     		mov	r0, r5
 193 0118 F2EE040A 		vmov.f32	s1, #1.0e+1
 194 011c FFF7FEFF 		bl	buffer_append_float16
 195              	.LVL18:
 196              		.loc 1 33 0
 197 0120 3146     		mov	r1, r6
 198 0122 94ED110A 		vldr.32	s0, [r4, #68]
 199 0126 2846     		mov	r0, r5
 200 0128 F2EE040A 		vmov.f32	s1, #1.0e+1
 201 012c FFF7FEFF 		bl	buffer_append_float16
 202              	.LVL19:
 203              		.loc 1 34 0
 204 0130 3146     		mov	r1, r6
 205 0132 94ED120A 		vldr.32	s0, [r4, #72]
 206 0136 2846     		mov	r0, r5
 207 0138 F2EE040A 		vmov.f32	s1, #1.0e+1
 208 013c FFF7FEFF 		bl	buffer_append_float16
 209              	.LVL20:
 210              		.loc 1 35 0
 211 0140 3146     		mov	r1, r6
 212 0142 F0EE480A 		vmov.f32	s1, s16
 213 0146 94ED130A 		vldr.32	s0, [r4, #76]
 214 014a 2846     		mov	r0, r5
 215 014c FFF7FEFF 		bl	buffer_append_float16
 216              	.LVL21:
 217              		.loc 1 36 0
 218 0150 3146     		mov	r1, r6
 219 0152 F0EE480A 		vmov.f32	s1, s16
 220 0156 94ED140A 		vldr.32	s0, [r4, #80]
 221 015a 2846     		mov	r0, r5
 222 015c FFF7FEFF 		bl	buffer_append_float16
 223              	.LVL22:
 224              		.loc 1 37 0
 225 0160 F0EE480A 		vmov.f32	s1, s16
 226 0164 3146     		mov	r1, r6
 227 0166 94ED150A 		vldr.32	s0, [r4, #84]
 228 016a 2846     		mov	r0, r5
ARM GAS  /tmp/cc4M9ACW.s 			page 5


 229 016c FFF7FEFF 		bl	buffer_append_float16
 230              	.LVL23:
 231              		.loc 1 38 0
 232 0170 3146     		mov	r1, r6
 233 0172 94ED160A 		vldr.32	s0, [r4, #88]
 234 0176 2846     		mov	r0, r5
 235 0178 FFF7FEFF 		bl	buffer_append_float32_auto
 236              	.LVL24:
 237              		.loc 1 39 0
 238 017c 3146     		mov	r1, r6
 239 017e 94ED170A 		vldr.32	s0, [r4, #92]
 240 0182 2846     		mov	r0, r5
 241 0184 FFF7FEFF 		bl	buffer_append_float32_auto
 242              	.LVL25:
 243              		.loc 1 40 0
 244 0188 3146     		mov	r1, r6
 245 018a F0EE480A 		vmov.f32	s1, s16
 246 018e 94ED180A 		vldr.32	s0, [r4, #96]
 247 0192 2846     		mov	r0, r5
 248 0194 FFF7FEFF 		bl	buffer_append_float16
 249              	.LVL26:
 250              		.loc 1 41 0
 251 0198 3146     		mov	r1, r6
 252 019a F0EE480A 		vmov.f32	s1, s16
 253 019e 94ED190A 		vldr.32	s0, [r4, #100]
 254 01a2 2846     		mov	r0, r5
 255 01a4 FFF7FEFF 		bl	buffer_append_float16
 256              	.LVL27:
 257              		.loc 1 42 0
 258 01a8 F0EE480A 		vmov.f32	s1, s16
 259 01ac 3146     		mov	r1, r6
 260 01ae 94ED1A0A 		vldr.32	s0, [r4, #104]
 261 01b2 2846     		mov	r0, r5
 262 01b4 FFF7FEFF 		bl	buffer_append_float16
 263              	.LVL28:
 264              		.loc 1 43 0
 265 01b8 3146     		mov	r1, r6
 266 01ba 94ED220A 		vldr.32	s0, [r4, #136]
 267 01be 2846     		mov	r0, r5
 268 01c0 FFF7FEFF 		bl	buffer_append_float32_auto
 269              	.LVL29:
 270              		.loc 1 44 0
 271 01c4 3146     		mov	r1, r6
 272 01c6 94ED230A 		vldr.32	s0, [r4, #140]
 273 01ca 2846     		mov	r0, r5
 274 01cc FFF7FEFF 		bl	buffer_append_float32_auto
 275              	.LVL30:
 276              		.loc 1 45 0
 277 01d0 3146     		mov	r1, r6
 278 01d2 94ED240A 		vldr.32	s0, [r4, #144]
 279 01d6 2846     		mov	r0, r5
 280 01d8 FFF7FEFF 		bl	buffer_append_float32_auto
 281              	.LVL31:
 282              		.loc 1 46 0
 283 01dc 3146     		mov	r1, r6
 284 01de 94ED250A 		vldr.32	s0, [r4, #148]
 285 01e2 2846     		mov	r0, r5
ARM GAS  /tmp/cc4M9ACW.s 			page 6


 286 01e4 F2EE040A 		vmov.f32	s1, #1.0e+1
 287 01e8 FFF7FEFF 		bl	buffer_append_float16
 288              	.LVL32:
 289              		.loc 1 47 0
 290 01ec F0EE480A 		vmov.f32	s1, s16
 291 01f0 3146     		mov	r1, r6
 292 01f2 94ED260A 		vldr.32	s0, [r4, #152]
 293 01f6 2846     		mov	r0, r5
 294 01f8 FFF7FEFF 		bl	buffer_append_float16
 295              	.LVL33:
 296              		.loc 1 48 0
 297 01fc 3146     		mov	r1, r6
 298 01fe 94ED270A 		vldr.32	s0, [r4, #156]
 299 0202 2846     		mov	r0, r5
 300 0204 FFF7FEFF 		bl	buffer_append_float32_auto
 301              	.LVL34:
 302              		.loc 1 49 0
 303 0208 3146     		mov	r1, r6
 304 020a 94ED280A 		vldr.32	s0, [r4, #160]
 305 020e 2846     		mov	r0, r5
 306 0210 FFF7FEFF 		bl	buffer_append_float32_auto
 307              	.LVL35:
 308              		.loc 1 50 0
 309 0214 019A     		ldr	r2, [sp, #4]
 310 0216 94F8A430 		ldrb	r3, [r4, #164]	@ zero_extendqisi2
 311 021a AB54     		strb	r3, [r5, r2]
 312              		.loc 1 51 0
 313 021c AB18     		adds	r3, r5, r2
 314 021e 94F8A510 		ldrb	r1, [r4, #165]	@ zero_extendqisi2
 315 0222 5970     		strb	r1, [r3, #1]
 316              		.loc 1 52 0
 317 0224 94F8A610 		ldrb	r1, [r4, #166]	@ zero_extendqisi2
 318 0228 9970     		strb	r1, [r3, #2]
 319              		.loc 1 53 0
 320 022a 94F8A710 		ldrb	r1, [r4, #167]	@ zero_extendqisi2
 321 022e D970     		strb	r1, [r3, #3]
 322              		.loc 1 54 0
 323 0230 94F8A810 		ldrb	r1, [r4, #168]	@ zero_extendqisi2
 324 0234 1971     		strb	r1, [r3, #4]
 325              		.loc 1 55 0
 326 0236 94F8A910 		ldrb	r1, [r4, #169]	@ zero_extendqisi2
 327 023a 5971     		strb	r1, [r3, #5]
 328              		.loc 1 56 0
 329 023c 94F8AA10 		ldrb	r1, [r4, #170]	@ zero_extendqisi2
 330 0240 9971     		strb	r1, [r3, #6]
 331              		.loc 1 57 0
 332 0242 94F9AB10 		ldrsb	r1, [r4, #171]
 333 0246 D971     		strb	r1, [r3, #7]
 334 0248 0832     		adds	r2, r2, #8
 335              		.loc 1 58 0
 336 024a 94ED2B0A 		vldr.32	s0, [r4, #172]
 337              		.loc 1 57 0
 338 024e 0192     		str	r2, [sp, #4]
 339              		.loc 1 58 0
 340 0250 3146     		mov	r1, r6
 341 0252 2846     		mov	r0, r5
 342 0254 FFF7FEFF 		bl	buffer_append_float32_auto
ARM GAS  /tmp/cc4M9ACW.s 			page 7


 343              	.LVL36:
 344              		.loc 1 59 0
 345 0258 3146     		mov	r1, r6
 346 025a 94ED2C0A 		vldr.32	s0, [r4, #176]
 347 025e 2846     		mov	r0, r5
 348 0260 FFF7FEFF 		bl	buffer_append_float32_auto
 349              	.LVL37:
 350              		.loc 1 60 0
 351 0264 3146     		mov	r1, r6
 352 0266 94ED2D0A 		vldr.32	s0, [r4, #180]
 353 026a 2846     		mov	r0, r5
 354 026c FFF7FEFF 		bl	buffer_append_float32_auto
 355              	.LVL38:
 356              		.loc 1 61 0
 357 0270 3146     		mov	r1, r6
 358 0272 94ED2E0A 		vldr.32	s0, [r4, #184]
 359 0276 2846     		mov	r0, r5
 360 0278 FFF7FEFF 		bl	buffer_append_float32_auto
 361              	.LVL39:
 362              		.loc 1 62 0
 363 027c 3146     		mov	r1, r6
 364 027e 94ED2F0A 		vldr.32	s0, [r4, #188]
 365 0282 2846     		mov	r0, r5
 366 0284 FFF7FEFF 		bl	buffer_append_float32_auto
 367              	.LVL40:
 368              		.loc 1 63 0
 369 0288 019B     		ldr	r3, [sp, #4]
 370 028a 94F8C420 		ldrb	r2, [r4, #196]	@ zero_extendqisi2
 371 028e EA54     		strb	r2, [r5, r3]
 372              		.loc 1 64 0
 373 0290 3146     		mov	r1, r6
 374              		.loc 1 63 0
 375 0292 0133     		adds	r3, r3, #1
 376              		.loc 1 64 0
 377 0294 94ED300A 		vldr.32	s0, [r4, #192]
 378              		.loc 1 63 0
 379 0298 0193     		str	r3, [sp, #4]
 380              		.loc 1 64 0
 381 029a 2846     		mov	r0, r5
 382 029c FFF7FEFF 		bl	buffer_append_float32_auto
 383              	.LVL41:
 384              		.loc 1 65 0
 385 02a0 3146     		mov	r1, r6
 386 02a2 94ED320A 		vldr.32	s0, [r4, #200]
 387 02a6 2846     		mov	r0, r5
 388 02a8 FFF7FEFF 		bl	buffer_append_float32_auto
 389              	.LVL42:
 390              		.loc 1 66 0
 391 02ac 3146     		mov	r1, r6
 392 02ae 94ED340A 		vldr.32	s0, [r4, #208]
 393 02b2 2846     		mov	r0, r5
 394 02b4 FFF7FEFF 		bl	buffer_append_float32_auto
 395              	.LVL43:
 396              		.loc 1 67 0
 397 02b8 3146     		mov	r1, r6
 398 02ba 94ED360A 		vldr.32	s0, [r4, #216]
 399 02be 2846     		mov	r0, r5
ARM GAS  /tmp/cc4M9ACW.s 			page 8


 400 02c0 FFF7FEFF 		bl	buffer_append_float32_auto
 401              	.LVL44:
 402              		.loc 1 68 0
 403 02c4 3146     		mov	r1, r6
 404 02c6 94ED330A 		vldr.32	s0, [r4, #204]
 405 02ca 2846     		mov	r0, r5
 406 02cc FFF7FEFF 		bl	buffer_append_float32_auto
 407              	.LVL45:
 408              		.loc 1 69 0
 409 02d0 3146     		mov	r1, r6
 410 02d2 94ED350A 		vldr.32	s0, [r4, #212]
 411 02d6 2846     		mov	r0, r5
 412 02d8 FFF7FEFF 		bl	buffer_append_float32_auto
 413              	.LVL46:
 414              		.loc 1 70 0
 415 02dc 3146     		mov	r1, r6
 416 02de 94ED370A 		vldr.32	s0, [r4, #220]
 417 02e2 2846     		mov	r0, r5
 418 02e4 FFF7FEFF 		bl	buffer_append_float32_auto
 419              	.LVL47:
 420              		.loc 1 71 0
 421 02e8 019B     		ldr	r3, [sp, #4]
 422 02ea 94F82C21 		ldrb	r2, [r4, #300]	@ zero_extendqisi2
 423 02ee EA54     		strb	r2, [r5, r3]
 424              		.loc 1 72 0
 425 02f0 3146     		mov	r1, r6
 426              		.loc 1 71 0
 427 02f2 0133     		adds	r3, r3, #1
 428              		.loc 1 72 0
 429 02f4 94ED3F0A 		vldr.32	s0, [r4, #252]
 430              		.loc 1 71 0
 431 02f8 0193     		str	r3, [sp, #4]
 432              		.loc 1 72 0
 433 02fa 2846     		mov	r0, r5
 434 02fc FFF7FEFF 		bl	buffer_append_float32_auto
 435              	.LVL48:
 436              		.loc 1 73 0
 437 0300 3146     		mov	r1, r6
 438 0302 94ED400A 		vldr.32	s0, [r4, #256]
 439 0306 2846     		mov	r0, r5
 440 0308 FFF7FEFF 		bl	buffer_append_float32_auto
 441              	.LVL49:
 442              		.loc 1 74 0
 443 030c 3146     		mov	r1, r6
 444 030e 94ED380A 		vldr.32	s0, [r4, #224]
 445 0312 2846     		mov	r0, r5
 446 0314 FFF7FEFF 		bl	buffer_append_float32_auto
 447              	.LVL50:
 448              		.loc 1 75 0
 449 0318 3146     		mov	r1, r6
 450 031a 94ED390A 		vldr.32	s0, [r4, #228]
 451 031e 2846     		mov	r0, r5
 452 0320 FFF7FEFF 		bl	buffer_append_float32_auto
 453              	.LVL51:
 454              		.loc 1 76 0
 455 0324 3146     		mov	r1, r6
 456 0326 94ED3A0A 		vldr.32	s0, [r4, #232]
ARM GAS  /tmp/cc4M9ACW.s 			page 9


 457 032a 2846     		mov	r0, r5
 458 032c FFF7FEFF 		bl	buffer_append_float32_auto
 459              	.LVL52:
 460              		.loc 1 77 0
 461 0330 3146     		mov	r1, r6
 462 0332 94ED3B0A 		vldr.32	s0, [r4, #236]
 463 0336 2846     		mov	r0, r5
 464 0338 FFF7FEFF 		bl	buffer_append_float32_auto
 465              	.LVL53:
 466              		.loc 1 78 0
 467 033c 3146     		mov	r1, r6
 468 033e 94ED3C0A 		vldr.32	s0, [r4, #240]
 469 0342 2846     		mov	r0, r5
 470 0344 FFF7FEFF 		bl	buffer_append_float32_auto
 471              	.LVL54:
 472              		.loc 1 79 0
 473 0348 3146     		mov	r1, r6
 474 034a 94ED3D0A 		vldr.32	s0, [r4, #244]
 475 034e 2846     		mov	r0, r5
 476 0350 FFF7FEFF 		bl	buffer_append_float32_auto
 477              	.LVL55:
 478              		.loc 1 80 0
 479 0354 F0EE490A 		vmov.f32	s1, s18
 480 0358 3146     		mov	r1, r6
 481 035a 94ED3E0A 		vldr.32	s0, [r4, #248]
 482 035e 2846     		mov	r0, r5
 483 0360 FFF7FEFF 		bl	buffer_append_float16
 484              	.LVL56:
 485              		.loc 1 81 0
 486 0364 3146     		mov	r1, r6
 487 0366 94ED410A 		vldr.32	s0, [r4, #260]
 488 036a 2846     		mov	r0, r5
 489 036c FFF7FEFF 		bl	buffer_append_float32_auto
 490              	.LVL57:
 491              		.loc 1 82 0
 492 0370 3146     		mov	r1, r6
 493 0372 94ED420A 		vldr.32	s0, [r4, #264]
 494 0376 2846     		mov	r0, r5
 495 0378 FFF7FEFF 		bl	buffer_append_float32_auto
 496              	.LVL58:
 497              		.loc 1 83 0
 498 037c 3146     		mov	r1, r6
 499 037e 94ED430A 		vldr.32	s0, [r4, #268]
 500 0382 2846     		mov	r0, r5
 501 0384 FFF7FEFF 		bl	buffer_append_float32_auto
 502              	.LVL59:
 503              		.loc 1 84 0
 504 0388 F0EE490A 		vmov.f32	s1, s18
 505 038c 3146     		mov	r1, r6
 506 038e 94ED440A 		vldr.32	s0, [r4, #272]
 507 0392 2846     		mov	r0, r5
 508 0394 FFF7FEFF 		bl	buffer_append_float16
 509              	.LVL60:
 510              		.loc 1 85 0
 511 0398 3146     		mov	r1, r6
 512 039a 94ED450A 		vldr.32	s0, [r4, #276]
 513 039e 2846     		mov	r0, r5
ARM GAS  /tmp/cc4M9ACW.s 			page 10


 514 03a0 FFF7FEFF 		bl	buffer_append_float32_auto
 515              	.LVL61:
 516              		.loc 1 86 0
 517 03a4 3146     		mov	r1, r6
 518 03a6 94ED460A 		vldr.32	s0, [r4, #280]
 519 03aa 2846     		mov	r0, r5
 520 03ac FFF7FEFF 		bl	buffer_append_float32_auto
 521              	.LVL62:
 522              		.loc 1 87 0
 523 03b0 3146     		mov	r1, r6
 524 03b2 94ED470A 		vldr.32	s0, [r4, #284]
 525 03b6 2846     		mov	r0, r5
 526 03b8 F0EE680A 		vmov.f32	s1, s17
 527 03bc FFF7FEFF 		bl	buffer_append_float16
 528              	.LVL63:
 529              		.loc 1 88 0
 530 03c0 3146     		mov	r1, r6
 531 03c2 F0EE680A 		vmov.f32	s1, s17
 532 03c6 94ED490A 		vldr.32	s0, [r4, #292]
 533 03ca 2846     		mov	r0, r5
 534 03cc FFF7FEFF 		bl	buffer_append_float16
 535              	.LVL64:
 536              		.loc 1 89 0
 537 03d0 3146     		mov	r1, r6
 538 03d2 F0EE680A 		vmov.f32	s1, s17
 539 03d6 94ED4A0A 		vldr.32	s0, [r4, #296]
 540 03da 2846     		mov	r0, r5
 541 03dc FFF7FEFF 		bl	buffer_append_float16
 542              	.LVL65:
 543              		.loc 1 90 0
 544 03e0 F0EE680A 		vmov.f32	s1, s17
 545 03e4 3146     		mov	r1, r6
 546 03e6 94ED480A 		vldr.32	s0, [r4, #288]
 547 03ea 2846     		mov	r0, r5
 548 03ec FFF7FEFF 		bl	buffer_append_float16
 549              	.LVL66:
 550              		.loc 1 91 0
 551 03f0 019A     		ldr	r2, [sp, #4]
 552 03f2 07E0     		b	.L5
 553              	.L6:
 554              		.align	2
 555              	.L4:
 556 03f4 116BB23C 		.word	1018325777
 557 03f8 00401C46 		.word	1176256512
 558 03fc 00007A44 		.word	1148846080
 559 0400 0000C842 		.word	1120403456
 560              	.L5:
 561 0404 94F82D31 		ldrb	r3, [r4, #301]	@ zero_extendqisi2
 562 0408 AB54     		strb	r3, [r5, r2]
 563              		.loc 1 92 0
 564 040a AB18     		adds	r3, r5, r2
 565 040c 94F82E11 		ldrb	r1, [r4, #302]	@ zero_extendqisi2
 566 0410 5970     		strb	r1, [r3, #1]
 567              		.loc 1 93 0
 568 0412 94F82F11 		ldrb	r1, [r4, #303]	@ zero_extendqisi2
 569 0416 9970     		strb	r1, [r3, #2]
 570              		.loc 1 94 0
ARM GAS  /tmp/cc4M9ACW.s 			page 11


 571 0418 94F83011 		ldrb	r1, [r4, #304]	@ zero_extendqisi2
 572 041c D970     		strb	r1, [r3, #3]
 573              		.loc 1 95 0
 574 041e 94F83111 		ldrb	r1, [r4, #305]	@ zero_extendqisi2
 575 0422 1971     		strb	r1, [r3, #4]
 576              		.loc 1 96 0
 577 0424 94F83211 		ldrb	r1, [r4, #306]	@ zero_extendqisi2
 578 0428 5971     		strb	r1, [r3, #5]
 579              		.loc 1 97 0
 580 042a 94F83311 		ldrb	r1, [r4, #307]	@ zero_extendqisi2
 581 042e 9971     		strb	r1, [r3, #6]
 582              		.loc 1 98 0
 583 0430 94F83411 		ldrb	r1, [r4, #308]	@ zero_extendqisi2
 584 0434 D971     		strb	r1, [r3, #7]
 585 0436 0832     		adds	r2, r2, #8
 586              		.loc 1 99 0
 587 0438 94ED4E0A 		vldr.32	s0, [r4, #312]
 588              		.loc 1 98 0
 589 043c 0192     		str	r2, [sp, #4]
 590              		.loc 1 99 0
 591 043e 3146     		mov	r1, r6
 592 0440 2846     		mov	r0, r5
 593 0442 FFF7FEFF 		bl	buffer_append_float32_auto
 594              	.LVL67:
 595              		.loc 1 100 0
 596 0446 3146     		mov	r1, r6
 597 0448 94ED4F0A 		vldr.32	s0, [r4, #316]
 598 044c 2846     		mov	r0, r5
 599 044e FFF7FEFF 		bl	buffer_append_float32_auto
 600              	.LVL68:
 601              		.loc 1 101 0
 602 0452 019B     		ldr	r3, [sp, #4]
 603 0454 94F84021 		ldrb	r2, [r4, #320]	@ zero_extendqisi2
 604 0458 EA54     		strb	r2, [r5, r3]
 605              		.loc 1 102 0
 606 045a EA18     		adds	r2, r5, r3
 607 045c 94F84111 		ldrb	r1, [r4, #321]	@ zero_extendqisi2
 608 0460 5170     		strb	r1, [r2, #1]
 609 0462 0233     		adds	r3, r3, #2
 610              		.loc 1 103 0
 611 0464 94ED510A 		vldr.32	s0, [r4, #324]
 612              		.loc 1 102 0
 613 0468 0193     		str	r3, [sp, #4]
 614              		.loc 1 103 0
 615 046a 3146     		mov	r1, r6
 616 046c F0EE490A 		vmov.f32	s1, s18
 617 0470 2846     		mov	r0, r5
 618 0472 FFF7FEFF 		bl	buffer_append_float16
 619              	.LVL69:
 620              		.loc 1 104 0
 621 0476 019B     		ldr	r3, [sp, #4]
 622 0478 94F84821 		ldrb	r2, [r4, #328]	@ zero_extendqisi2
 623 047c EA54     		strb	r2, [r5, r3]
 624              		.loc 1 105 0
 625 047e 3146     		mov	r1, r6
 626              		.loc 1 104 0
 627 0480 0133     		adds	r3, r3, #1
ARM GAS  /tmp/cc4M9ACW.s 			page 12


 628              		.loc 1 105 0
 629 0482 94ED530A 		vldr.32	s0, [r4, #332]
 630              		.loc 1 104 0
 631 0486 0193     		str	r3, [sp, #4]
 632              		.loc 1 105 0
 633 0488 F0EE680A 		vmov.f32	s1, s17
 634 048c 2846     		mov	r0, r5
 635 048e FFF7FEFF 		bl	buffer_append_float16
 636              	.LVL70:
 637              		.loc 1 106 0
 638 0492 F0EE480A 		vmov.f32	s1, s16
 639 0496 3146     		mov	r1, r6
 640 0498 94ED540A 		vldr.32	s0, [r4, #336]
 641 049c 2846     		mov	r0, r5
 642 049e FFF7FEFF 		bl	buffer_append_float16
 643              	.LVL71:
 644              		.loc 1 107 0
 645 04a2 019B     		ldr	r3, [sp, #4]
 646 04a4 94F85421 		ldrb	r2, [r4, #340]	@ zero_extendqisi2
 647 04a8 EA54     		strb	r2, [r5, r3]
 648              		.loc 1 108 0
 649 04aa EA18     		adds	r2, r5, r3
 650 04ac 94F85511 		ldrb	r1, [r4, #341]	@ zero_extendqisi2
 651 04b0 5170     		strb	r1, [r2, #1]
 652 04b2 0233     		adds	r3, r3, #2
 653              		.loc 1 109 0
 654 04b4 94ED560A 		vldr.32	s0, [r4, #344]
 655              		.loc 1 108 0
 656 04b8 0193     		str	r3, [sp, #4]
 657              		.loc 1 109 0
 658 04ba 3146     		mov	r1, r6
 659 04bc 2846     		mov	r0, r5
 660 04be FFF7FEFF 		bl	buffer_append_float32_auto
 661              	.LVL72:
 662              		.loc 1 110 0
 663 04c2 3146     		mov	r1, r6
 664 04c4 94ED570A 		vldr.32	s0, [r4, #348]
 665 04c8 2846     		mov	r0, r5
 666 04ca FFF7FEFF 		bl	buffer_append_float32_auto
 667              	.LVL73:
 668              		.loc 1 111 0
 669 04ce 3146     		mov	r1, r6
 670 04d0 94ED580A 		vldr.32	s0, [r4, #352]
 671 04d4 2846     		mov	r0, r5
 672 04d6 FFF7FEFF 		bl	buffer_append_float32_auto
 673              	.LVL74:
 674              		.loc 1 112 0
 675 04da 94ED590A 		vldr.32	s0, [r4, #356]
 676 04de 3146     		mov	r1, r6
 677 04e0 2846     		mov	r0, r5
 678 04e2 FFF7FEFF 		bl	buffer_append_float32_auto
 679              	.LVL75:
 680              		.loc 1 113 0
 681 04e6 3246     		mov	r2, r6
 682 04e8 B4F86811 		ldrh	r1, [r4, #360]
 683 04ec 2846     		mov	r0, r5
 684 04ee FFF7FEFF 		bl	buffer_append_uint16
ARM GAS  /tmp/cc4M9ACW.s 			page 13


 685              	.LVL76:
 686              		.loc 1 114 0
 687 04f2 3146     		mov	r1, r6
 688 04f4 94ED5B0A 		vldr.32	s0, [r4, #364]
 689 04f8 2846     		mov	r0, r5
 690 04fa FFF7FEFF 		bl	buffer_append_float32_auto
 691              	.LVL77:
 692              		.loc 1 115 0
 693 04fe 019B     		ldr	r3, [sp, #4]
 694 0500 94F87021 		ldrb	r2, [r4, #368]	@ zero_extendqisi2
 695 0504 EA54     		strb	r2, [r5, r3]
 696              		.loc 1 116 0
 697 0506 EA18     		adds	r2, r5, r3
 698 0508 94F87111 		ldrb	r1, [r4, #369]	@ zero_extendqisi2
 699 050c 5170     		strb	r1, [r2, #1]
 700 050e 0233     		adds	r3, r3, #2
 701              		.loc 1 117 0
 702 0510 94ED5D0A 		vldr.32	s0, [r4, #372]
 703              		.loc 1 116 0
 704 0514 0193     		str	r3, [sp, #4]
 705              		.loc 1 117 0
 706 0516 3146     		mov	r1, r6
 707 0518 2846     		mov	r0, r5
 708 051a FFF7FEFF 		bl	buffer_append_float32_auto
 709              	.LVL78:
 710              		.loc 1 118 0
 711 051e 3146     		mov	r1, r6
 712 0520 94ED5E0A 		vldr.32	s0, [r4, #376]
 713 0524 2846     		mov	r0, r5
 714 0526 FFF7FEFF 		bl	buffer_append_float32_auto
 715              	.LVL79:
 716              		.loc 1 119 0
 717 052a 3146     		mov	r1, r6
 718 052c 94ED5F0A 		vldr.32	s0, [r4, #380]
 719 0530 2846     		mov	r0, r5
 720 0532 FFF7FEFF 		bl	buffer_append_float32_auto
 721              	.LVL80:
 722              		.loc 1 120 0
 723 0536 3146     		mov	r1, r6
 724 0538 F0EE480A 		vmov.f32	s1, s16
 725 053c 94ED600A 		vldr.32	s0, [r4, #384]
 726 0540 2846     		mov	r0, r5
 727 0542 FFF7FEFF 		bl	buffer_append_float16
 728              	.LVL81:
 729              		.loc 1 121 0
 730 0546 3146     		mov	r1, r6
 731 0548 F0EE480A 		vmov.f32	s1, s16
 732 054c 94ED610A 		vldr.32	s0, [r4, #388]
 733 0550 2846     		mov	r0, r5
 734 0552 FFF7FEFF 		bl	buffer_append_float16
 735              	.LVL82:
 736              		.loc 1 122 0
 737 0556 3146     		mov	r1, r6
 738 0558 F0EE480A 		vmov.f32	s1, s16
 739 055c 94ED620A 		vldr.32	s0, [r4, #392]
 740 0560 2846     		mov	r0, r5
 741 0562 FFF7FEFF 		bl	buffer_append_float16
ARM GAS  /tmp/cc4M9ACW.s 			page 14


 742              	.LVL83:
 743              		.loc 1 123 0
 744 0566 3146     		mov	r1, r6
 745 0568 F0EE480A 		vmov.f32	s1, s16
 746 056c 94ED630A 		vldr.32	s0, [r4, #396]
 747 0570 2846     		mov	r0, r5
 748 0572 FFF7FEFF 		bl	buffer_append_float16
 749              	.LVL84:
 750              		.loc 1 124 0
 751 0576 3146     		mov	r1, r6
 752 0578 F0EE480A 		vmov.f32	s1, s16
 753 057c 94ED640A 		vldr.32	s0, [r4, #400]
 754 0580 2846     		mov	r0, r5
 755 0582 FFF7FEFF 		bl	buffer_append_float16
 756              	.LVL85:
 757              		.loc 1 125 0
 758 0586 F0EE480A 		vmov.f32	s1, s16
 759 058a 3146     		mov	r1, r6
 760 058c 94ED650A 		vldr.32	s0, [r4, #404]
 761 0590 2846     		mov	r0, r5
 762 0592 FFF7FEFF 		bl	buffer_append_float16
 763              	.LVL86:
 764              		.loc 1 126 0
 765 0596 019B     		ldr	r3, [sp, #4]
 766 0598 94F89821 		ldrb	r2, [r4, #408]	@ zero_extendqisi2
 767 059c EA54     		strb	r2, [r5, r3]
 768              		.loc 1 127 0
 769 059e 3146     		mov	r1, r6
 770              		.loc 1 126 0
 771 05a0 0133     		adds	r3, r3, #1
 772              		.loc 1 127 0
 773 05a2 94ED670A 		vldr.32	s0, [r4, #412]
 774              		.loc 1 126 0
 775 05a6 0193     		str	r3, [sp, #4]
 776              		.loc 1 127 0
 777 05a8 2846     		mov	r0, r5
 778 05aa FFF7FEFF 		bl	buffer_append_float32_auto
 779              	.LVL87:
 780              		.loc 1 128 0
 781 05ae 019B     		ldr	r3, [sp, #4]
 782 05b0 94F8A021 		ldrb	r2, [r4, #416]	@ zero_extendqisi2
 783 05b4 EA54     		strb	r2, [r5, r3]
 784              		.loc 1 129 0
 785 05b6 3146     		mov	r1, r6
 786              		.loc 1 128 0
 787 05b8 0133     		adds	r3, r3, #1
 788              		.loc 1 129 0
 789 05ba 94ED690A 		vldr.32	s0, [r4, #420]
 790              		.loc 1 128 0
 791 05be 0193     		str	r3, [sp, #4]
 792              		.loc 1 129 0
 793 05c0 2846     		mov	r0, r5
 794 05c2 FFF7FEFF 		bl	buffer_append_float32_auto
 795              	.LVL88:
 796              		.loc 1 130 0
 797 05c6 3146     		mov	r1, r6
 798 05c8 F0EE480A 		vmov.f32	s1, s16
ARM GAS  /tmp/cc4M9ACW.s 			page 15


 799 05cc 94ED6A0A 		vldr.32	s0, [r4, #424]
 800 05d0 2846     		mov	r0, r5
 801 05d2 FFF7FEFF 		bl	buffer_append_float16
 802              	.LVL89:
 803              		.loc 1 131 0
 804 05d6 3146     		mov	r1, r6
 805 05d8 F0EE490A 		vmov.f32	s1, s18
 806 05dc 94ED6B0A 		vldr.32	s0, [r4, #428]
 807 05e0 2846     		mov	r0, r5
 808 05e2 FFF7FEFF 		bl	buffer_append_float16
 809              	.LVL90:
 810              		.loc 1 132 0
 811 05e6 F0EE480A 		vmov.f32	s1, s16
 812 05ea 94ED6C0A 		vldr.32	s0, [r4, #432]
 813 05ee 3146     		mov	r1, r6
 814 05f0 2846     		mov	r0, r5
 815 05f2 FFF7FEFF 		bl	buffer_append_float16
 816              	.LVL91:
 817              		.loc 1 133 0
 818 05f6 3246     		mov	r2, r6
 819 05f8 B4F9B411 		ldrsh	r1, [r4, #436]
 820 05fc 2846     		mov	r0, r5
 821 05fe FFF7FEFF 		bl	buffer_append_int16
 822              	.LVL92:
 823              		.loc 1 134 0
 824 0602 3246     		mov	r2, r6
 825 0604 B4F9B811 		ldrsh	r1, [r4, #440]
 826 0608 2846     		mov	r0, r5
 827 060a FFF7FEFF 		bl	buffer_append_int16
 828              	.LVL93:
 829              		.loc 1 135 0
 830 060e F0EE480A 		vmov.f32	s1, s16
 831 0612 3146     		mov	r1, r6
 832 0614 94ED6F0A 		vldr.32	s0, [r4, #444]
 833 0618 2846     		mov	r0, r5
 834 061a FFF7FEFF 		bl	buffer_append_float16
 835              	.LVL94:
 836              		.loc 1 136 0
 837 061e 3146     		mov	r1, r6
 838 0620 94ED700A 		vldr.32	s0, [r4, #448]
 839 0624 2846     		mov	r0, r5
 840 0626 FFF7FEFF 		bl	buffer_append_float32_auto
 841              	.LVL95:
 842              		.loc 1 137 0
 843 062a 3146     		mov	r1, r6
 844 062c 94ED710A 		vldr.32	s0, [r4, #452]
 845 0630 2846     		mov	r0, r5
 846 0632 FFF7FEFF 		bl	buffer_append_float32_auto
 847              	.LVL96:
 848              		.loc 1 138 0
 849 0636 019B     		ldr	r3, [sp, #4]
 850 0638 94F8C821 		ldrb	r2, [r4, #456]	@ zero_extendqisi2
 851 063c EA54     		strb	r2, [r5, r3]
 852              		.loc 1 139 0
 853 063e 3146     		mov	r1, r6
 854              		.loc 1 138 0
 855 0640 0133     		adds	r3, r3, #1
ARM GAS  /tmp/cc4M9ACW.s 			page 16


 856              		.loc 1 139 0
 857 0642 94ED730A 		vldr.32	s0, [r4, #460]
 858              		.loc 1 138 0
 859 0646 0193     		str	r3, [sp, #4]
 860              		.loc 1 139 0
 861 0648 2846     		mov	r0, r5
 862 064a FFF7FEFF 		bl	buffer_append_float32_auto
 863              	.LVL97:
 864              		.loc 1 140 0
 865 064e 3146     		mov	r1, r6
 866 0650 94ED740A 		vldr.32	s0, [r4, #464]
 867 0654 2846     		mov	r0, r5
 868 0656 FFF7FEFF 		bl	buffer_append_float32_auto
 869              	.LVL98:
 870              		.loc 1 141 0
 871 065a 3146     		mov	r1, r6
 872 065c 94ED750A 		vldr.32	s0, [r4, #468]
 873 0660 2846     		mov	r0, r5
 874 0662 FFF7FEFF 		bl	buffer_append_float32_auto
 875              	.LVL99:
 876              		.loc 1 142 0
 877 0666 F0EE480A 		vmov.f32	s1, s16
 878 066a 3146     		mov	r1, r6
 879 066c 94ED760A 		vldr.32	s0, [r4, #472]
 880 0670 2846     		mov	r0, r5
 881 0672 FFF7FEFF 		bl	buffer_append_float16
 882              	.LVL100:
 883              		.loc 1 143 0
 884 0676 3146     		mov	r1, r6
 885 0678 94ED770A 		vldr.32	s0, [r4, #476]
 886 067c 2846     		mov	r0, r5
 887 067e FFF7FEFF 		bl	buffer_append_float32_auto
 888              	.LVL101:
 889              		.loc 1 144 0
 890 0682 019B     		ldr	r3, [sp, #4]
 891 0684 94F8E021 		ldrb	r2, [r4, #480]	@ zero_extendqisi2
 892 0688 EA54     		strb	r2, [r5, r3]
 893              		.loc 1 145 0
 894 068a 3146     		mov	r1, r6
 895              		.loc 1 144 0
 896 068c 0133     		adds	r3, r3, #1
 897              		.loc 1 145 0
 898 068e 94ED790A 		vldr.32	s0, [r4, #484]
 899              		.loc 1 144 0
 900 0692 0193     		str	r3, [sp, #4]
 901              		.loc 1 145 0
 902 0694 2846     		mov	r0, r5
 903 0696 FFF7FEFF 		bl	buffer_append_float32_auto
 904              	.LVL102:
 905              		.loc 1 146 0
 906 069a 3146     		mov	r1, r6
 907 069c 94ED7A0A 		vldr.32	s0, [r4, #488]
 908 06a0 2846     		mov	r0, r5
 909 06a2 FFF7FEFF 		bl	buffer_append_float32_auto
 910              	.LVL103:
 911              		.loc 1 147 0
 912 06a6 3146     		mov	r1, r6
ARM GAS  /tmp/cc4M9ACW.s 			page 17


 913 06a8 94ED7B0A 		vldr.32	s0, [r4, #492]
 914 06ac 2846     		mov	r0, r5
 915 06ae FFF7FEFF 		bl	buffer_append_float32_auto
 916              	.LVL104:
 917              		.loc 1 148 0
 918 06b2 3146     		mov	r1, r6
 919 06b4 94ED7C0A 		vldr.32	s0, [r4, #496]
 920 06b8 2846     		mov	r0, r5
 921 06ba FFF7FEFF 		bl	buffer_append_float32_auto
 922              	.LVL105:
 923              		.loc 1 149 0
 924 06be 3146     		mov	r1, r6
 925 06c0 94ED7D0A 		vldr.32	s0, [r4, #500]
 926 06c4 2846     		mov	r0, r5
 927 06c6 FFF7FEFF 		bl	buffer_append_float32_auto
 928              	.LVL106:
 929              		.loc 1 150 0
 930 06ca 3146     		mov	r1, r6
 931 06cc 94ED7E0A 		vldr.32	s0, [r4, #504]
 932 06d0 2846     		mov	r0, r5
 933 06d2 FFF7FEFF 		bl	buffer_append_float32_auto
 934              	.LVL107:
 935              		.loc 1 151 0
 936 06d6 3146     		mov	r1, r6
 937 06d8 94ED7F0A 		vldr.32	s0, [r4, #508]
 938 06dc 2846     		mov	r0, r5
 939 06de FFF7FEFF 		bl	buffer_append_float32_auto
 940              	.LVL108:
 941              		.loc 1 152 0
 942 06e2 F2EE040A 		vmov.f32	s1, #1.0e+1
 943 06e6 3146     		mov	r1, r6
 944 06e8 94ED800A 		vldr.32	s0, [r4, #512]
 945 06ec 2846     		mov	r0, r5
 946 06ee FFF7FEFF 		bl	buffer_append_float16
 947              	.LVL109:
 948              		.loc 1 153 0
 949 06f2 3146     		mov	r1, r6
 950 06f4 94ED810A 		vldr.32	s0, [r4, #516]
 951 06f8 2846     		mov	r0, r5
 952 06fa FFF7FEFF 		bl	buffer_append_float32_auto
 953              	.LVL110:
 954              		.loc 1 154 0
 955 06fe 3146     		mov	r1, r6
 956 0700 94ED820A 		vldr.32	s0, [r4, #520]
 957 0704 2846     		mov	r0, r5
 958 0706 FFF7FEFF 		bl	buffer_append_float32_auto
 959              	.LVL111:
 960              		.loc 1 155 0
 961 070a 3146     		mov	r1, r6
 962 070c 94ED830A 		vldr.32	s0, [r4, #524]
 963 0710 2846     		mov	r0, r5
 964 0712 FFF7FEFF 		bl	buffer_append_float32_auto
 965              	.LVL112:
 966              		.loc 1 156 0
 967 0716 3146     		mov	r1, r6
 968 0718 94ED840A 		vldr.32	s0, [r4, #528]
 969 071c 2846     		mov	r0, r5
ARM GAS  /tmp/cc4M9ACW.s 			page 18


 970 071e FFF7FEFF 		bl	buffer_append_float32_auto
 971              	.LVL113:
 972              		.loc 1 157 0
 973 0722 94ED850A 		vldr.32	s0, [r4, #532]
 974 0726 3146     		mov	r1, r6
 975 0728 2846     		mov	r0, r5
 976 072a FFF7FEFF 		bl	buffer_append_float32_auto
 977              	.LVL114:
 978              		.loc 1 158 0
 979 072e 3246     		mov	r2, r6
 980 0730 D4F81812 		ldr	r1, [r4, #536]
 981 0734 2846     		mov	r0, r5
 982 0736 FFF7FEFF 		bl	buffer_append_int32
 983              	.LVL115:
 984              		.loc 1 159 0
 985 073a 3146     		mov	r1, r6
 986 073c 94ED870A 		vldr.32	s0, [r4, #540]
 987 0740 2846     		mov	r0, r5
 988 0742 FFF7FEFF 		bl	buffer_append_float32_auto
 989              	.LVL116:
 990              		.loc 1 160 0
 991 0746 94ED880A 		vldr.32	s0, [r4, #544]
 992 074a 3146     		mov	r1, r6
 993 074c 2846     		mov	r0, r5
 994 074e FFF7FEFF 		bl	buffer_append_float32_auto
 995              	.LVL117:
 996              		.loc 1 161 0
 997 0752 3246     		mov	r2, r6
 998 0754 D4F82412 		ldr	r1, [r4, #548]
 999 0758 2846     		mov	r0, r5
 1000 075a FFF7FEFF 		bl	buffer_append_uint32
 1001              	.LVL118:
 1002              		.loc 1 162 0
 1003 075e 019B     		ldr	r3, [sp, #4]
 1004 0760 94F82822 		ldrb	r2, [r4, #552]	@ zero_extendqisi2
 1005 0764 EA54     		strb	r2, [r5, r3]
 1006              		.loc 1 163 0
 1007 0766 EA18     		adds	r2, r5, r3
 1008 0768 94F82912 		ldrb	r1, [r4, #553]	@ zero_extendqisi2
 1009 076c 5170     		strb	r1, [r2, #1]
 1010              		.loc 1 164 0
 1011 076e 94F82A12 		ldrb	r1, [r4, #554]	@ zero_extendqisi2
 1012 0772 9170     		strb	r1, [r2, #2]
 1013              		.loc 1 165 0
 1014 0774 D4F82C12 		ldr	r1, [r4, #556]
 1015 0778 D170     		strb	r1, [r2, #3]
 1016 077a 0433     		adds	r3, r3, #4
 1017              		.loc 1 166 0
 1018 077c 94ED8C0A 		vldr.32	s0, [r4, #560]
 1019              		.loc 1 165 0
 1020 0780 0193     		str	r3, [sp, #4]
 1021              		.loc 1 166 0
 1022 0782 3146     		mov	r1, r6
 1023 0784 2846     		mov	r0, r5
 1024 0786 FFF7FEFF 		bl	buffer_append_float32_auto
 1025              	.LVL119:
 1026              		.loc 1 167 0
ARM GAS  /tmp/cc4M9ACW.s 			page 19


 1027 078a 3146     		mov	r1, r6
 1028 078c 94ED8D0A 		vldr.32	s0, [r4, #564]
 1029 0790 2846     		mov	r0, r5
 1030 0792 FFF7FEFF 		bl	buffer_append_float32_auto
 1031              	.LVL120:
 1032              		.loc 1 168 0
 1033 0796 3146     		mov	r1, r6
 1034 0798 94ED8E0A 		vldr.32	s0, [r4, #568]
 1035 079c 2846     		mov	r0, r5
 1036 079e FFF7FEFF 		bl	buffer_append_float32_auto
 1037              	.LVL121:
 1038              		.loc 1 169 0
 1039 07a2 3146     		mov	r1, r6
 1040 07a4 94ED8F0A 		vldr.32	s0, [r4, #572]
 1041 07a8 2846     		mov	r0, r5
 1042 07aa FFF7FEFF 		bl	buffer_append_float32_auto
 1043              	.LVL122:
 1044              		.loc 1 170 0
 1045 07ae 019B     		ldr	r3, [sp, #4]
 1046 07b0 94F84022 		ldrb	r2, [r4, #576]	@ zero_extendqisi2
 1047 07b4 EA54     		strb	r2, [r5, r3]
 1048              		.loc 1 171 0
 1049 07b6 EA18     		adds	r2, r5, r3
 1050 07b8 94F84112 		ldrb	r1, [r4, #577]	@ zero_extendqisi2
 1051 07bc 5170     		strb	r1, [r2, #1]
 1052 07be 0233     		adds	r3, r3, #2
 1053              		.loc 1 172 0
 1054 07c0 94ED910A 		vldr.32	s0, [r4, #580]
 1055              		.loc 1 171 0
 1056 07c4 0193     		str	r3, [sp, #4]
 1057              		.loc 1 172 0
 1058 07c6 3146     		mov	r1, r6
 1059 07c8 2846     		mov	r0, r5
 1060 07ca FFF7FEFF 		bl	buffer_append_float32_auto
 1061              	.LVL123:
 1062              		.loc 1 173 0
 1063 07ce 3146     		mov	r1, r6
 1064 07d0 94ED940A 		vldr.32	s0, [r4, #592]
 1065 07d4 DFED330A 		vldr.32	s1, .L7
 1066 07d8 2846     		mov	r0, r5
 1067 07da FFF7FEFF 		bl	buffer_append_float16
 1068              	.LVL124:
 1069              		.loc 1 174 0
 1070 07de F2EE040A 		vmov.f32	s1, #1.0e+1
 1071 07e2 3146     		mov	r1, r6
 1072 07e4 94ED930A 		vldr.32	s0, [r4, #588]
 1073 07e8 2846     		mov	r0, r5
 1074 07ea FFF7FEFF 		bl	buffer_append_float16
 1075              	.LVL125:
 1076              		.loc 1 175 0
 1077 07ee 019B     		ldr	r3, [sp, #4]
 1078 07f0 D4F84822 		ldr	r2, [r4, #584]
 1079 07f4 EA54     		strb	r2, [r5, r3]
 1080              		.loc 1 176 0
 1081 07f6 EA18     		adds	r2, r5, r3
 1082 07f8 94F85412 		ldrb	r1, [r4, #596]	@ zero_extendqisi2
 1083 07fc 5170     		strb	r1, [r2, #1]
ARM GAS  /tmp/cc4M9ACW.s 			page 20


 1084 07fe 0233     		adds	r3, r3, #2
 1085              		.loc 1 177 0
 1086 0800 94ED960A 		vldr.32	s0, [r4, #600]
 1087              		.loc 1 176 0
 1088 0804 0193     		str	r3, [sp, #4]
 1089              		.loc 1 177 0
 1090 0806 3146     		mov	r1, r6
 1091 0808 2846     		mov	r0, r5
 1092 080a FFF7FEFF 		bl	buffer_append_float32_auto
 1093              	.LVL126:
 1094              		.loc 1 178 0
 1095 080e 3146     		mov	r1, r6
 1096 0810 94ED970A 		vldr.32	s0, [r4, #604]
 1097 0814 2846     		mov	r0, r5
 1098 0816 FFF7FEFF 		bl	buffer_append_float32_auto
 1099              	.LVL127:
 1100              		.loc 1 179 0
 1101 081a 019B     		ldr	r3, [sp, #4]
 1102 081c 94F86022 		ldrb	r2, [r4, #608]	@ zero_extendqisi2
 1103 0820 EA54     		strb	r2, [r5, r3]
 1104              		.loc 1 180 0
 1105 0822 EA18     		adds	r2, r5, r3
 1106 0824 D4F86412 		ldr	r1, [r4, #612]
 1107 0828 5170     		strb	r1, [r2, #1]
 1108 082a 0233     		adds	r3, r3, #2
 1109              		.loc 1 181 0
 1110 082c 94ED9A0A 		vldr.32	s0, [r4, #616]
 1111              		.loc 1 180 0
 1112 0830 0193     		str	r3, [sp, #4]
 1113              		.loc 1 181 0
 1114 0832 3146     		mov	r1, r6
 1115 0834 2846     		mov	r0, r5
 1116 0836 FFF7FEFF 		bl	buffer_append_float32_auto
 1117              	.LVL128:
 1118              		.loc 1 182 0
 1119 083a 3146     		mov	r1, r6
 1120 083c 94ED9B0A 		vldr.32	s0, [r4, #620]
 1121 0840 2846     		mov	r0, r5
 1122 0842 FFF7FEFF 		bl	buffer_append_float32_auto
 1123              	.LVL129:
 1124              		.loc 1 183 0
 1125 0846 019B     		ldr	r3, [sp, #4]
 1126 0848 94F87022 		ldrb	r2, [r4, #624]	@ zero_extendqisi2
 1127 084c EA54     		strb	r2, [r5, r3]
 1128              		.loc 1 184 0
 1129 084e 3146     		mov	r1, r6
 1130              		.loc 1 183 0
 1131 0850 0133     		adds	r3, r3, #1
 1132              		.loc 1 184 0
 1133 0852 94ED9D0A 		vldr.32	s0, [r4, #628]
 1134              		.loc 1 183 0
 1135 0856 0193     		str	r3, [sp, #4]
 1136              		.loc 1 184 0
 1137 0858 F0EE680A 		vmov.f32	s1, s17
 1138 085c 2846     		mov	r0, r5
 1139 085e FFF7FEFF 		bl	buffer_append_float16
 1140              	.LVL130:
ARM GAS  /tmp/cc4M9ACW.s 			page 21


 1141              		.loc 1 185 0
 1142 0862 3146     		mov	r1, r6
 1143 0864 F0EE680A 		vmov.f32	s1, s17
 1144 0868 94ED9E0A 		vldr.32	s0, [r4, #632]
 1145 086c 2846     		mov	r0, r5
 1146 086e FFF7FEFF 		bl	buffer_append_float16
 1147              	.LVL131:
 1148              		.loc 1 186 0
 1149 0872 3146     		mov	r1, r6
 1150 0874 F0EE490A 		vmov.f32	s1, s18
 1151 0878 94ED9F0A 		vldr.32	s0, [r4, #636]
 1152 087c 2846     		mov	r0, r5
 1153 087e FFF7FEFF 		bl	buffer_append_float16
 1154              	.LVL132:
 1155              		.loc 1 187 0
 1156 0882 2846     		mov	r0, r5
 1157 0884 3146     		mov	r1, r6
 1158 0886 F0EE490A 		vmov.f32	s1, s18
 1159 088a 94EDA00A 		vldr.32	s0, [r4, #640]
 1160 088e FFF7FEFF 		bl	buffer_append_float16
 1161              	.LVL133:
 1162              		.loc 1 188 0
 1163 0892 0198     		ldr	r0, [sp, #4]
 1164 0894 94F88432 		ldrb	r3, [r4, #644]	@ zero_extendqisi2
 1165 0898 2B54     		strb	r3, [r5, r0]
 1166              		.loc 1 191 0
 1167 089a 0130     		adds	r0, r0, #1
 1168 089c 02B0     		add	sp, sp, #8
 1169              		.cfi_def_cfa_offset 32
 1170              		@ sp needed
 1171 089e BDEC048B 		vldm	sp!, {d8-d9}
 1172              		.cfi_restore 82
 1173              		.cfi_restore 83
 1174              		.cfi_restore 80
 1175              		.cfi_restore 81
 1176              		.cfi_def_cfa_offset 16
 1177 08a2 70BD     		pop	{r4, r5, r6, pc}
 1178              	.LVL134:
 1179              	.L8:
 1180              		.align	2
 1181              	.L7:
 1182 08a4 CDCCCC3D 		.word	1036831949
 1183              		.cfi_endproc
 1184              	.LFE219:
 1185              		.size	confgenerator_serialize_mcconf, .-confgenerator_serialize_mcconf
 1186              		.section	.text.confgenerator_serialize_appconf,"ax",%progbits
 1187              		.align	1
 1188              		.p2align 4,,15
 1189              		.global	confgenerator_serialize_appconf
 1190              		.syntax unified
 1191              		.thumb
 1192              		.thumb_func
 1193              		.fpu fpv4-sp-d16
 1194              		.type	confgenerator_serialize_appconf, %function
 1195              	confgenerator_serialize_appconf:
 1196              	.LFB220:
 1197              		.loc 1 193 0
ARM GAS  /tmp/cc4M9ACW.s 			page 22


 1198              		.cfi_startproc
 1199              		@ args = 0, pretend = 0, frame = 8
 1200              		@ frame_needed = 0, uses_anonymous_args = 0
 1201              	.LVL135:
 1202 0000 70B5     		push	{r4, r5, r6, lr}
 1203              		.cfi_def_cfa_offset 16
 1204              		.cfi_offset 4, -16
 1205              		.cfi_offset 5, -12
 1206              		.cfi_offset 6, -8
 1207              		.cfi_offset 14, -4
 1208 0002 2DED028B 		vpush.64	{d8}
 1209              		.cfi_def_cfa_offset 24
 1210              		.cfi_offset 80, -24
 1211              		.cfi_offset 81, -20
 1212 0006 82B0     		sub	sp, sp, #8
 1213              		.cfi_def_cfa_offset 32
 1214              		.loc 1 194 0
 1215 0008 02AE     		add	r6, sp, #8
 1216 000a 0023     		movs	r3, #0
 1217 000c 46F8043D 		str	r3, [r6, #-4]!
 1218              		.loc 1 193 0
 1219 0010 0C46     		mov	r4, r1
 1220              		.loc 1 196 0
 1221 0012 3246     		mov	r2, r6
 1222 0014 E849     		ldr	r1, .L11
 1223              	.LVL136:
 1224              		.loc 1 296 0
 1225 0016 9FEDE98A 		vldr.32	s16, .L11+4
 1226              		.loc 1 298 0
 1227 001a DFEDE98A 		vldr.32	s17, .L11+8
 1228              		.loc 1 193 0
 1229 001e 0546     		mov	r5, r0
 1230              		.loc 1 196 0
 1231 0020 FFF7FEFF 		bl	buffer_append_uint32
 1232              	.LVL137:
 1233              		.loc 1 198 0
 1234 0024 019B     		ldr	r3, [sp, #4]
 1235 0026 2278     		ldrb	r2, [r4]	@ zero_extendqisi2
 1236 0028 EA54     		strb	r2, [r5, r3]
 1237              		.loc 1 199 0
 1238 002a 2846     		mov	r0, r5
 1239              		.loc 1 198 0
 1240 002c 0133     		adds	r3, r3, #1
 1241              		.loc 1 199 0
 1242 002e 3246     		mov	r2, r6
 1243 0030 6168     		ldr	r1, [r4, #4]
 1244              		.loc 1 198 0
 1245 0032 0193     		str	r3, [sp, #4]
 1246              		.loc 1 199 0
 1247 0034 FFF7FEFF 		bl	buffer_append_uint32
 1248              	.LVL138:
 1249              		.loc 1 200 0
 1250 0038 94ED020A 		vldr.32	s0, [r4, #8]
 1251 003c 3146     		mov	r1, r6
 1252 003e 2846     		mov	r0, r5
 1253 0040 FFF7FEFF 		bl	buffer_append_float32_auto
 1254              	.LVL139:
ARM GAS  /tmp/cc4M9ACW.s 			page 23


 1255              		.loc 1 201 0
 1256 0044 019B     		ldr	r3, [sp, #4]
 1257 0046 227B     		ldrb	r2, [r4, #12]	@ zero_extendqisi2
 1258 0048 EA54     		strb	r2, [r5, r3]
 1259              		.loc 1 202 0
 1260 004a 2846     		mov	r0, r5
 1261              		.loc 1 201 0
 1262 004c 0133     		adds	r3, r3, #1
 1263              		.loc 1 202 0
 1264 004e 218A     		ldrh	r1, [r4, #16]
 1265              		.loc 1 201 0
 1266 0050 0193     		str	r3, [sp, #4]
 1267              		.loc 1 202 0
 1268 0052 3246     		mov	r2, r6
 1269 0054 FFF7FEFF 		bl	buffer_append_uint16
 1270              	.LVL140:
 1271              		.loc 1 203 0
 1272 0058 019A     		ldr	r2, [sp, #4]
 1273 005a 237D     		ldrb	r3, [r4, #20]	@ zero_extendqisi2
 1274 005c AB54     		strb	r3, [r5, r2]
 1275              		.loc 1 204 0
 1276 005e AB18     		adds	r3, r5, r2
 1277 0060 617D     		ldrb	r1, [r4, #21]	@ zero_extendqisi2
 1278 0062 5970     		strb	r1, [r3, #1]
 1279              		.loc 1 205 0
 1280 0064 A17D     		ldrb	r1, [r4, #22]	@ zero_extendqisi2
 1281 0066 9970     		strb	r1, [r3, #2]
 1282              		.loc 1 206 0
 1283 0068 E17D     		ldrb	r1, [r4, #23]	@ zero_extendqisi2
 1284 006a D970     		strb	r1, [r3, #3]
 1285              		.loc 1 207 0
 1286 006c A17E     		ldrb	r1, [r4, #26]	@ zero_extendqisi2
 1287 006e 1971     		strb	r1, [r3, #4]
 1288              		.loc 1 208 0
 1289 0070 E17E     		ldrb	r1, [r4, #27]	@ zero_extendqisi2
 1290 0072 5971     		strb	r1, [r3, #5]
 1291              		.loc 1 209 0
 1292 0074 217F     		ldrb	r1, [r4, #28]	@ zero_extendqisi2
 1293 0076 9971     		strb	r1, [r3, #6]
 1294 0078 0732     		adds	r2, r2, #7
 1295              		.loc 1 210 0
 1296 007a 94ED080A 		vldr.32	s0, [r4, #32]
 1297              		.loc 1 209 0
 1298 007e 0192     		str	r2, [sp, #4]
 1299              		.loc 1 210 0
 1300 0080 3146     		mov	r1, r6
 1301 0082 2846     		mov	r0, r5
 1302 0084 FFF7FEFF 		bl	buffer_append_float32_auto
 1303              	.LVL141:
 1304              		.loc 1 211 0
 1305 0088 019B     		ldr	r3, [sp, #4]
 1306 008a 227E     		ldrb	r2, [r4, #24]	@ zero_extendqisi2
 1307 008c EA54     		strb	r2, [r5, r3]
 1308              		.loc 1 212 0
 1309 008e EA18     		adds	r2, r5, r3
 1310 0090 617E     		ldrb	r1, [r4, #25]	@ zero_extendqisi2
 1311 0092 5170     		strb	r1, [r2, #1]
ARM GAS  /tmp/cc4M9ACW.s 			page 24


 1312              		.loc 1 213 0
 1313 0094 94F82410 		ldrb	r1, [r4, #36]	@ zero_extendqisi2
 1314 0098 9170     		strb	r1, [r2, #2]
 1315              		.loc 1 214 0
 1316 009a 94F82810 		ldrb	r1, [r4, #40]	@ zero_extendqisi2
 1317 009e D170     		strb	r1, [r2, #3]
 1318 00a0 0433     		adds	r3, r3, #4
 1319              		.loc 1 215 0
 1320 00a2 94ED0B0A 		vldr.32	s0, [r4, #44]
 1321              		.loc 1 214 0
 1322 00a6 0193     		str	r3, [sp, #4]
 1323              		.loc 1 215 0
 1324 00a8 3146     		mov	r1, r6
 1325 00aa 2846     		mov	r0, r5
 1326 00ac FFF7FEFF 		bl	buffer_append_float32_auto
 1327              	.LVL142:
 1328              		.loc 1 216 0
 1329 00b0 3146     		mov	r1, r6
 1330 00b2 94ED0C0A 		vldr.32	s0, [r4, #48]
 1331 00b6 2846     		mov	r0, r5
 1332 00b8 FFF7FEFF 		bl	buffer_append_float32_auto
 1333              	.LVL143:
 1334              		.loc 1 217 0
 1335 00bc 3146     		mov	r1, r6
 1336 00be 94ED0D0A 		vldr.32	s0, [r4, #52]
 1337 00c2 2846     		mov	r0, r5
 1338 00c4 FFF7FEFF 		bl	buffer_append_float32_auto
 1339              	.LVL144:
 1340              		.loc 1 218 0
 1341 00c8 3146     		mov	r1, r6
 1342 00ca 94ED0E0A 		vldr.32	s0, [r4, #56]
 1343 00ce 2846     		mov	r0, r5
 1344 00d0 FFF7FEFF 		bl	buffer_append_float32_auto
 1345              	.LVL145:
 1346              		.loc 1 219 0
 1347 00d4 3146     		mov	r1, r6
 1348 00d6 94ED0F0A 		vldr.32	s0, [r4, #60]
 1349 00da 2846     		mov	r0, r5
 1350 00dc FFF7FEFF 		bl	buffer_append_float32_auto
 1351              	.LVL146:
 1352              		.loc 1 220 0
 1353 00e0 019B     		ldr	r3, [sp, #4]
 1354 00e2 94F84020 		ldrb	r2, [r4, #64]	@ zero_extendqisi2
 1355 00e6 EA54     		strb	r2, [r5, r3]
 1356              		.loc 1 221 0
 1357 00e8 EA18     		adds	r2, r5, r3
 1358 00ea 94F84110 		ldrb	r1, [r4, #65]	@ zero_extendqisi2
 1359 00ee 5170     		strb	r1, [r2, #1]
 1360 00f0 0233     		adds	r3, r3, #2
 1361              		.loc 1 222 0
 1362 00f2 94ED110A 		vldr.32	s0, [r4, #68]
 1363              		.loc 1 221 0
 1364 00f6 0193     		str	r3, [sp, #4]
 1365              		.loc 1 222 0
 1366 00f8 3146     		mov	r1, r6
 1367 00fa 2846     		mov	r0, r5
 1368 00fc FFF7FEFF 		bl	buffer_append_float32_auto
ARM GAS  /tmp/cc4M9ACW.s 			page 25


 1369              	.LVL147:
 1370              		.loc 1 223 0
 1371 0100 3146     		mov	r1, r6
 1372 0102 94ED120A 		vldr.32	s0, [r4, #72]
 1373 0106 2846     		mov	r0, r5
 1374 0108 FFF7FEFF 		bl	buffer_append_float32_auto
 1375              	.LVL148:
 1376              		.loc 1 224 0
 1377 010c 019B     		ldr	r3, [sp, #4]
 1378 010e 94F84C20 		ldrb	r2, [r4, #76]	@ zero_extendqisi2
 1379 0112 EA54     		strb	r2, [r5, r3]
 1380              		.loc 1 225 0
 1381 0114 3146     		mov	r1, r6
 1382              		.loc 1 224 0
 1383 0116 0133     		adds	r3, r3, #1
 1384              		.loc 1 225 0
 1385 0118 94ED140A 		vldr.32	s0, [r4, #80]
 1386              		.loc 1 224 0
 1387 011c 0193     		str	r3, [sp, #4]
 1388              		.loc 1 225 0
 1389 011e 2846     		mov	r0, r5
 1390 0120 FFF7FEFF 		bl	buffer_append_float32_auto
 1391              	.LVL149:
 1392              		.loc 1 226 0
 1393 0124 3146     		mov	r1, r6
 1394 0126 94ED150A 		vldr.32	s0, [r4, #84]
 1395 012a 2846     		mov	r0, r5
 1396 012c FFF7FEFF 		bl	buffer_append_float32_auto
 1397              	.LVL150:
 1398              		.loc 1 227 0
 1399 0130 019B     		ldr	r3, [sp, #4]
 1400 0132 94F85820 		ldrb	r2, [r4, #88]	@ zero_extendqisi2
 1401 0136 EA54     		strb	r2, [r5, r3]
 1402              		.loc 1 228 0
 1403 0138 EA18     		adds	r2, r5, r3
 1404 013a 94F85910 		ldrb	r1, [r4, #89]	@ zero_extendqisi2
 1405 013e 5170     		strb	r1, [r2, #1]
 1406 0140 0233     		adds	r3, r3, #2
 1407              		.loc 1 229 0
 1408 0142 94ED170A 		vldr.32	s0, [r4, #92]
 1409              		.loc 1 228 0
 1410 0146 0193     		str	r3, [sp, #4]
 1411              		.loc 1 229 0
 1412 0148 3146     		mov	r1, r6
 1413 014a 2846     		mov	r0, r5
 1414 014c FFF7FEFF 		bl	buffer_append_float32_auto
 1415              	.LVL151:
 1416              		.loc 1 230 0
 1417 0150 F7EE000A 		vmov.f32	s1, #1.0e+0
 1418 0154 3146     		mov	r1, r6
 1419 0156 94ED180A 		vldr.32	s0, [r4, #96]
 1420 015a 2846     		mov	r0, r5
 1421 015c FFF7FEFF 		bl	buffer_append_float16
 1422              	.LVL152:
 1423              		.loc 1 231 0
 1424 0160 3146     		mov	r1, r6
 1425 0162 94ED190A 		vldr.32	s0, [r4, #100]
ARM GAS  /tmp/cc4M9ACW.s 			page 26


 1426 0166 2846     		mov	r0, r5
 1427 0168 FFF7FEFF 		bl	buffer_append_float32_auto
 1428              	.LVL153:
 1429              		.loc 1 232 0
 1430 016c 3146     		mov	r1, r6
 1431 016e 94ED1A0A 		vldr.32	s0, [r4, #104]
 1432 0172 2846     		mov	r0, r5
 1433 0174 FFF7FEFF 		bl	buffer_append_float32_auto
 1434              	.LVL154:
 1435              		.loc 1 233 0
 1436 0178 019B     		ldr	r3, [sp, #4]
 1437 017a 94F86C20 		ldrb	r2, [r4, #108]	@ zero_extendqisi2
 1438 017e EA54     		strb	r2, [r5, r3]
 1439              		.loc 1 234 0
 1440 0180 3146     		mov	r1, r6
 1441              		.loc 1 233 0
 1442 0182 0133     		adds	r3, r3, #1
 1443              		.loc 1 234 0
 1444 0184 94ED1C0A 		vldr.32	s0, [r4, #112]
 1445              		.loc 1 233 0
 1446 0188 0193     		str	r3, [sp, #4]
 1447              		.loc 1 234 0
 1448 018a 2846     		mov	r0, r5
 1449 018c FFF7FEFF 		bl	buffer_append_float32_auto
 1450              	.LVL155:
 1451              		.loc 1 235 0
 1452 0190 3146     		mov	r1, r6
 1453 0192 94ED1D0A 		vldr.32	s0, [r4, #116]
 1454 0196 2846     		mov	r0, r5
 1455 0198 FFF7FEFF 		bl	buffer_append_float32_auto
 1456              	.LVL156:
 1457              		.loc 1 236 0
 1458 019c 3146     		mov	r1, r6
 1459 019e 94ED1E0A 		vldr.32	s0, [r4, #120]
 1460 01a2 2846     		mov	r0, r5
 1461 01a4 FFF7FEFF 		bl	buffer_append_float32_auto
 1462              	.LVL157:
 1463              		.loc 1 237 0
 1464 01a8 3146     		mov	r1, r6
 1465 01aa 94ED1F0A 		vldr.32	s0, [r4, #124]
 1466 01ae 2846     		mov	r0, r5
 1467 01b0 FFF7FEFF 		bl	buffer_append_float32_auto
 1468              	.LVL158:
 1469              		.loc 1 238 0
 1470 01b4 3146     		mov	r1, r6
 1471 01b6 94ED200A 		vldr.32	s0, [r4, #128]
 1472 01ba 2846     		mov	r0, r5
 1473 01bc FFF7FEFF 		bl	buffer_append_float32_auto
 1474              	.LVL159:
 1475              		.loc 1 239 0
 1476 01c0 3146     		mov	r1, r6
 1477 01c2 94ED210A 		vldr.32	s0, [r4, #132]
 1478 01c6 2846     		mov	r0, r5
 1479 01c8 FFF7FEFF 		bl	buffer_append_float32_auto
 1480              	.LVL160:
 1481              		.loc 1 240 0
 1482 01cc 019B     		ldr	r3, [sp, #4]
ARM GAS  /tmp/cc4M9ACW.s 			page 27


 1483 01ce 94F88820 		ldrb	r2, [r4, #136]	@ zero_extendqisi2
 1484 01d2 EA54     		strb	r2, [r5, r3]
 1485              		.loc 1 241 0
 1486 01d4 EA18     		adds	r2, r5, r3
 1487 01d6 94F88910 		ldrb	r1, [r4, #137]	@ zero_extendqisi2
 1488 01da 5170     		strb	r1, [r2, #1]
 1489              		.loc 1 242 0
 1490 01dc 94F88A10 		ldrb	r1, [r4, #138]	@ zero_extendqisi2
 1491 01e0 9170     		strb	r1, [r2, #2]
 1492              		.loc 1 243 0
 1493 01e2 94F88B10 		ldrb	r1, [r4, #139]	@ zero_extendqisi2
 1494 01e6 D170     		strb	r1, [r2, #3]
 1495              		.loc 1 244 0
 1496 01e8 94F88C10 		ldrb	r1, [r4, #140]	@ zero_extendqisi2
 1497 01ec 1171     		strb	r1, [r2, #4]
 1498              		.loc 1 245 0
 1499 01ee 94F88D10 		ldrb	r1, [r4, #141]	@ zero_extendqisi2
 1500 01f2 5171     		strb	r1, [r2, #5]
 1501 01f4 0633     		adds	r3, r3, #6
 1502              		.loc 1 246 0
 1503 01f6 94ED240A 		vldr.32	s0, [r4, #144]
 1504              		.loc 1 245 0
 1505 01fa 0193     		str	r3, [sp, #4]
 1506              		.loc 1 246 0
 1507 01fc 3146     		mov	r1, r6
 1508 01fe 2846     		mov	r0, r5
 1509 0200 FFF7FEFF 		bl	buffer_append_float32_auto
 1510              	.LVL161:
 1511              		.loc 1 247 0
 1512 0204 3146     		mov	r1, r6
 1513 0206 94ED250A 		vldr.32	s0, [r4, #148]
 1514 020a 2846     		mov	r0, r5
 1515 020c FFF7FEFF 		bl	buffer_append_float32_auto
 1516              	.LVL162:
 1517              		.loc 1 248 0
 1518 0210 019B     		ldr	r3, [sp, #4]
 1519 0212 94F89820 		ldrb	r2, [r4, #152]	@ zero_extendqisi2
 1520 0216 EA54     		strb	r2, [r5, r3]
 1521              		.loc 1 249 0
 1522 0218 3146     		mov	r1, r6
 1523              		.loc 1 248 0
 1524 021a 0133     		adds	r3, r3, #1
 1525              		.loc 1 249 0
 1526 021c 94ED270A 		vldr.32	s0, [r4, #156]
 1527              		.loc 1 248 0
 1528 0220 0193     		str	r3, [sp, #4]
 1529              		.loc 1 249 0
 1530 0222 2846     		mov	r0, r5
 1531 0224 FFF7FEFF 		bl	buffer_append_float32_auto
 1532              	.LVL163:
 1533              		.loc 1 250 0
 1534 0228 3146     		mov	r1, r6
 1535 022a 94ED280A 		vldr.32	s0, [r4, #160]
 1536 022e 2846     		mov	r0, r5
 1537 0230 FFF7FEFF 		bl	buffer_append_float32_auto
 1538              	.LVL164:
 1539              		.loc 1 251 0
ARM GAS  /tmp/cc4M9ACW.s 			page 28


 1540 0234 019B     		ldr	r3, [sp, #4]
 1541 0236 94F8A420 		ldrb	r2, [r4, #164]	@ zero_extendqisi2
 1542 023a EA54     		strb	r2, [r5, r3]
 1543              		.loc 1 252 0
 1544 023c EA18     		adds	r2, r5, r3
 1545 023e 94F8A510 		ldrb	r1, [r4, #165]	@ zero_extendqisi2
 1546 0242 5170     		strb	r1, [r2, #1]
 1547 0244 0233     		adds	r3, r3, #2
 1548              		.loc 1 253 0
 1549 0246 94ED2A0A 		vldr.32	s0, [r4, #168]
 1550              		.loc 1 252 0
 1551 024a 0193     		str	r3, [sp, #4]
 1552              		.loc 1 253 0
 1553 024c 3146     		mov	r1, r6
 1554 024e 2846     		mov	r0, r5
 1555 0250 FFF7FEFF 		bl	buffer_append_float32_auto
 1556              	.LVL165:
 1557              		.loc 1 254 0
 1558 0254 3246     		mov	r2, r6
 1559 0256 B4F8AC10 		ldrh	r1, [r4, #172]
 1560 025a 2846     		mov	r0, r5
 1561 025c FFF7FEFF 		bl	buffer_append_uint16
 1562              	.LVL166:
 1563              		.loc 1 255 0
 1564 0260 3246     		mov	r2, r6
 1565 0262 D4F8B010 		ldr	r1, [r4, #176]
 1566 0266 2846     		mov	r0, r5
 1567 0268 FFF7FEFF 		bl	buffer_append_uint32
 1568              	.LVL167:
 1569              		.loc 1 256 0
 1570 026c 019B     		ldr	r3, [sp, #4]
 1571 026e 94F8B420 		ldrb	r2, [r4, #180]	@ zero_extendqisi2
 1572 0272 EA54     		strb	r2, [r5, r3]
 1573              		.loc 1 257 0
 1574 0274 3146     		mov	r1, r6
 1575              		.loc 1 256 0
 1576 0276 0133     		adds	r3, r3, #1
 1577              		.loc 1 257 0
 1578 0278 94ED2E0A 		vldr.32	s0, [r4, #184]
 1579              		.loc 1 256 0
 1580 027c 0193     		str	r3, [sp, #4]
 1581              		.loc 1 257 0
 1582 027e 2846     		mov	r0, r5
 1583 0280 FFF7FEFF 		bl	buffer_append_float32_auto
 1584              	.LVL168:
 1585              		.loc 1 258 0
 1586 0284 3146     		mov	r1, r6
 1587 0286 94ED2F0A 		vldr.32	s0, [r4, #188]
 1588 028a 2846     		mov	r0, r5
 1589 028c FFF7FEFF 		bl	buffer_append_float32_auto
 1590              	.LVL169:
 1591              		.loc 1 259 0
 1592 0290 3146     		mov	r1, r6
 1593 0292 94ED300A 		vldr.32	s0, [r4, #192]
 1594 0296 2846     		mov	r0, r5
 1595 0298 FFF7FEFF 		bl	buffer_append_float32_auto
 1596              	.LVL170:
ARM GAS  /tmp/cc4M9ACW.s 			page 29


 1597              		.loc 1 260 0
 1598 029c 3146     		mov	r1, r6
 1599 029e 94ED310A 		vldr.32	s0, [r4, #196]
 1600 02a2 2846     		mov	r0, r5
 1601 02a4 FFF7FEFF 		bl	buffer_append_float32_auto
 1602              	.LVL171:
 1603              		.loc 1 261 0
 1604 02a8 3146     		mov	r1, r6
 1605 02aa 94ED320A 		vldr.32	s0, [r4, #200]
 1606 02ae 2846     		mov	r0, r5
 1607 02b0 FFF7FEFF 		bl	buffer_append_float32_auto
 1608              	.LVL172:
 1609              		.loc 1 262 0
 1610 02b4 3146     		mov	r1, r6
 1611 02b6 94ED330A 		vldr.32	s0, [r4, #204]
 1612 02ba 2846     		mov	r0, r5
 1613 02bc FFF7FEFF 		bl	buffer_append_float32_auto
 1614              	.LVL173:
 1615              		.loc 1 263 0
 1616 02c0 019B     		ldr	r3, [sp, #4]
 1617 02c2 94F8D020 		ldrb	r2, [r4, #208]	@ zero_extendqisi2
 1618 02c6 EA54     		strb	r2, [r5, r3]
 1619              		.loc 1 264 0
 1620 02c8 EA18     		adds	r2, r5, r3
 1621 02ca 94F8D110 		ldrb	r1, [r4, #209]	@ zero_extendqisi2
 1622 02ce 5170     		strb	r1, [r2, #1]
 1623              		.loc 1 265 0
 1624 02d0 94F8D210 		ldrb	r1, [r4, #210]	@ zero_extendqisi2
 1625 02d4 9170     		strb	r1, [r2, #2]
 1626 02d6 0333     		adds	r3, r3, #3
 1627              		.loc 1 266 0
 1628 02d8 94ED350A 		vldr.32	s0, [r4, #212]
 1629              		.loc 1 265 0
 1630 02dc 0193     		str	r3, [sp, #4]
 1631              		.loc 1 266 0
 1632 02de 3146     		mov	r1, r6
 1633 02e0 2846     		mov	r0, r5
 1634 02e2 FFF7FEFF 		bl	buffer_append_float32_auto
 1635              	.LVL174:
 1636              		.loc 1 267 0
 1637 02e6 019B     		ldr	r3, [sp, #4]
 1638 02e8 94F8D820 		ldrb	r2, [r4, #216]	@ zero_extendqisi2
 1639 02ec EA54     		strb	r2, [r5, r3]
 1640              		.loc 1 268 0
 1641 02ee 3146     		mov	r1, r6
 1642              		.loc 1 267 0
 1643 02f0 0133     		adds	r3, r3, #1
 1644              		.loc 1 268 0
 1645 02f2 94ED370A 		vldr.32	s0, [r4, #220]
 1646              		.loc 1 267 0
 1647 02f6 0193     		str	r3, [sp, #4]
 1648              		.loc 1 268 0
 1649 02f8 2846     		mov	r0, r5
 1650 02fa FFF7FEFF 		bl	buffer_append_float32_auto
 1651              	.LVL175:
 1652              		.loc 1 269 0
 1653 02fe 3146     		mov	r1, r6
ARM GAS  /tmp/cc4M9ACW.s 			page 30


 1654 0300 94ED380A 		vldr.32	s0, [r4, #224]
 1655 0304 2846     		mov	r0, r5
 1656 0306 FFF7FEFF 		bl	buffer_append_float32_auto
 1657              	.LVL176:
 1658              		.loc 1 270 0
 1659 030a 019A     		ldr	r2, [sp, #4]
 1660 030c 94F8E430 		ldrb	r3, [r4, #228]	@ zero_extendqisi2
 1661 0310 AB54     		strb	r3, [r5, r2]
 1662              		.loc 1 271 0
 1663 0312 AB18     		adds	r3, r5, r2
 1664 0314 94F8E510 		ldrb	r1, [r4, #229]	@ zero_extendqisi2
 1665 0318 5970     		strb	r1, [r3, #1]
 1666              		.loc 1 272 0
 1667 031a 94F8E610 		ldrb	r1, [r4, #230]	@ zero_extendqisi2
 1668 031e 9970     		strb	r1, [r3, #2]
 1669              		.loc 1 273 0
 1670 0320 94F8E710 		ldrb	r1, [r4, #231]	@ zero_extendqisi2
 1671 0324 D970     		strb	r1, [r3, #3]
 1672              		.loc 1 274 0
 1673 0326 94F8E810 		ldrb	r1, [r4, #232]	@ zero_extendqisi2
 1674 032a 1971     		strb	r1, [r3, #4]
 1675              		.loc 1 275 0
 1676 032c 94F8E910 		ldrb	r1, [r4, #233]	@ zero_extendqisi2
 1677 0330 5971     		strb	r1, [r3, #5]
 1678              		.loc 1 276 0
 1679 0332 94F8EA10 		ldrb	r1, [r4, #234]	@ zero_extendqisi2
 1680 0336 9971     		strb	r1, [r3, #6]
 1681              		.loc 1 277 0
 1682 0338 94F8EB10 		ldrb	r1, [r4, #235]	@ zero_extendqisi2
 1683 033c D971     		strb	r1, [r3, #7]
 1684              		.loc 1 278 0
 1685 033e 94F8EC10 		ldrb	r1, [r4, #236]	@ zero_extendqisi2
 1686 0342 1972     		strb	r1, [r3, #8]
 1687              		.loc 1 279 0
 1688 0344 94F8ED10 		ldrb	r1, [r4, #237]	@ zero_extendqisi2
 1689 0348 5972     		strb	r1, [r3, #9]
 1690 034a 0A32     		adds	r2, r2, #10
 1691              		.loc 1 280 0
 1692 034c 94ED3C0A 		vldr.32	s0, [r4, #240]
 1693              		.loc 1 279 0
 1694 0350 0192     		str	r2, [sp, #4]
 1695              		.loc 1 280 0
 1696 0352 3146     		mov	r1, r6
 1697 0354 2846     		mov	r0, r5
 1698 0356 FFF7FEFF 		bl	buffer_append_float32_auto
 1699              	.LVL177:
 1700              		.loc 1 281 0
 1701 035a 3146     		mov	r1, r6
 1702 035c 94ED3D0A 		vldr.32	s0, [r4, #244]
 1703 0360 2846     		mov	r0, r5
 1704 0362 FFF7FEFF 		bl	buffer_append_float32_auto
 1705              	.LVL178:
 1706              		.loc 1 282 0
 1707 0366 94ED3E0A 		vldr.32	s0, [r4, #248]
 1708 036a 3146     		mov	r1, r6
 1709 036c 2846     		mov	r0, r5
 1710 036e FFF7FEFF 		bl	buffer_append_float32_auto
ARM GAS  /tmp/cc4M9ACW.s 			page 31


 1711              	.LVL179:
 1712              		.loc 1 283 0
 1713 0372 3246     		mov	r2, r6
 1714 0374 B4F8FC10 		ldrh	r1, [r4, #252]
 1715 0378 2846     		mov	r0, r5
 1716 037a FFF7FEFF 		bl	buffer_append_uint16
 1717              	.LVL180:
 1718              		.loc 1 284 0
 1719 037e 3246     		mov	r2, r6
 1720 0380 B4F8FE10 		ldrh	r1, [r4, #254]
 1721 0384 2846     		mov	r0, r5
 1722 0386 FFF7FEFF 		bl	buffer_append_uint16
 1723              	.LVL181:
 1724              		.loc 1 285 0
 1725 038a 3146     		mov	r1, r6
 1726 038c 94ED400A 		vldr.32	s0, [r4, #256]
 1727 0390 2846     		mov	r0, r5
 1728 0392 FFF7FEFF 		bl	buffer_append_float32_auto
 1729              	.LVL182:
 1730              		.loc 1 286 0
 1731 0396 3146     		mov	r1, r6
 1732 0398 94ED410A 		vldr.32	s0, [r4, #260]
 1733 039c 2846     		mov	r0, r5
 1734 039e FFF7FEFF 		bl	buffer_append_float32_auto
 1735              	.LVL183:
 1736              		.loc 1 287 0
 1737 03a2 3146     		mov	r1, r6
 1738 03a4 94ED420A 		vldr.32	s0, [r4, #264]
 1739 03a8 2846     		mov	r0, r5
 1740 03aa FFF7FEFF 		bl	buffer_append_float32_auto
 1741              	.LVL184:
 1742              		.loc 1 288 0
 1743 03ae 3146     		mov	r1, r6
 1744 03b0 94ED430A 		vldr.32	s0, [r4, #268]
 1745 03b4 06E0     		b	.L12
 1746              	.L13:
 1747 03b6 00BF     		.align	2
 1748              	.L11:
 1749 03b8 57E088DE 		.word	-561455017
 1750 03bc 0000C842 		.word	1120403456
 1751 03c0 00007A44 		.word	1148846080
 1752              	.L12:
 1753 03c4 2846     		mov	r0, r5
 1754 03c6 FFF7FEFF 		bl	buffer_append_float32_auto
 1755              	.LVL185:
 1756              		.loc 1 289 0
 1757 03ca 94ED440A 		vldr.32	s0, [r4, #272]
 1758 03ce 3146     		mov	r1, r6
 1759 03d0 2846     		mov	r0, r5
 1760 03d2 FFF7FEFF 		bl	buffer_append_float32_auto
 1761              	.LVL186:
 1762              		.loc 1 290 0
 1763 03d6 3246     		mov	r2, r6
 1764 03d8 B4F81411 		ldrh	r1, [r4, #276]
 1765 03dc 2846     		mov	r0, r5
 1766 03de FFF7FEFF 		bl	buffer_append_uint16
 1767              	.LVL187:
ARM GAS  /tmp/cc4M9ACW.s 			page 32


 1768              		.loc 1 291 0
 1769 03e2 3246     		mov	r2, r6
 1770 03e4 B4F81611 		ldrh	r1, [r4, #278]
 1771 03e8 2846     		mov	r0, r5
 1772 03ea FFF7FEFF 		bl	buffer_append_uint16
 1773              	.LVL188:
 1774              		.loc 1 292 0
 1775 03ee 3246     		mov	r2, r6
 1776 03f0 B4F81811 		ldrh	r1, [r4, #280]
 1777 03f4 2846     		mov	r0, r5
 1778 03f6 FFF7FEFF 		bl	buffer_append_uint16
 1779              	.LVL189:
 1780              		.loc 1 293 0
 1781 03fa 3246     		mov	r2, r6
 1782 03fc B4F81A11 		ldrh	r1, [r4, #282]
 1783 0400 2846     		mov	r0, r5
 1784 0402 FFF7FEFF 		bl	buffer_append_uint16
 1785              	.LVL190:
 1786              		.loc 1 294 0
 1787 0406 3246     		mov	r2, r6
 1788 0408 B4F81C11 		ldrh	r1, [r4, #284]
 1789 040c 2846     		mov	r0, r5
 1790 040e FFF7FEFF 		bl	buffer_append_uint16
 1791              	.LVL191:
 1792              		.loc 1 295 0
 1793 0412 3246     		mov	r2, r6
 1794 0414 B4F81E11 		ldrh	r1, [r4, #286]
 1795 0418 2846     		mov	r0, r5
 1796 041a FFF7FEFF 		bl	buffer_append_uint16
 1797              	.LVL192:
 1798              		.loc 1 296 0
 1799 041e 3146     		mov	r1, r6
 1800 0420 94ED480A 		vldr.32	s0, [r4, #288]
 1801 0424 2846     		mov	r0, r5
 1802 0426 F0EE480A 		vmov.f32	s1, s16
 1803 042a FFF7FEFF 		bl	buffer_append_float16
 1804              	.LVL193:
 1805              		.loc 1 297 0
 1806 042e 3146     		mov	r1, r6
 1807 0430 F0EE480A 		vmov.f32	s1, s16
 1808 0434 94ED490A 		vldr.32	s0, [r4, #292]
 1809 0438 2846     		mov	r0, r5
 1810 043a FFF7FEFF 		bl	buffer_append_float16
 1811              	.LVL194:
 1812              		.loc 1 298 0
 1813 043e 3146     		mov	r1, r6
 1814 0440 94ED4A0A 		vldr.32	s0, [r4, #296]
 1815 0444 2846     		mov	r0, r5
 1816 0446 F0EE680A 		vmov.f32	s1, s17
 1817 044a FFF7FEFF 		bl	buffer_append_float16
 1818              	.LVL195:
 1819              		.loc 1 299 0
 1820 044e 3146     		mov	r1, r6
 1821 0450 F0EE480A 		vmov.f32	s1, s16
 1822 0454 94ED4B0A 		vldr.32	s0, [r4, #300]
 1823 0458 2846     		mov	r0, r5
 1824 045a FFF7FEFF 		bl	buffer_append_float16
ARM GAS  /tmp/cc4M9ACW.s 			page 33


 1825              	.LVL196:
 1826              		.loc 1 300 0
 1827 045e F0EE480A 		vmov.f32	s1, s16
 1828 0462 3146     		mov	r1, r6
 1829 0464 94ED4C0A 		vldr.32	s0, [r4, #304]
 1830 0468 2846     		mov	r0, r5
 1831 046a FFF7FEFF 		bl	buffer_append_float16
 1832              	.LVL197:
 1833              		.loc 1 301 0
 1834 046e 3146     		mov	r1, r6
 1835 0470 94ED4D0A 		vldr.32	s0, [r4, #308]
 1836 0474 2846     		mov	r0, r5
 1837 0476 FFF7FEFF 		bl	buffer_append_float32_auto
 1838              	.LVL198:
 1839              		.loc 1 302 0
 1840 047a 3146     		mov	r1, r6
 1841 047c F0EE480A 		vmov.f32	s1, s16
 1842 0480 94ED4E0A 		vldr.32	s0, [r4, #312]
 1843 0484 2846     		mov	r0, r5
 1844 0486 FFF7FEFF 		bl	buffer_append_float16
 1845              	.LVL199:
 1846              		.loc 1 303 0
 1847 048a F0EE480A 		vmov.f32	s1, s16
 1848 048e 3146     		mov	r1, r6
 1849 0490 94ED4F0A 		vldr.32	s0, [r4, #316]
 1850 0494 2846     		mov	r0, r5
 1851 0496 FFF7FEFF 		bl	buffer_append_float16
 1852              	.LVL200:
 1853              		.loc 1 304 0
 1854 049a 3146     		mov	r1, r6
 1855 049c 94ED500A 		vldr.32	s0, [r4, #320]
 1856 04a0 2846     		mov	r0, r5
 1857 04a2 FFF7FEFF 		bl	buffer_append_float32_auto
 1858              	.LVL201:
 1859              		.loc 1 305 0
 1860 04a6 F0EE480A 		vmov.f32	s1, s16
 1861 04aa 3146     		mov	r1, r6
 1862 04ac 94ED510A 		vldr.32	s0, [r4, #324]
 1863 04b0 2846     		mov	r0, r5
 1864 04b2 FFF7FEFF 		bl	buffer_append_float16
 1865              	.LVL202:
 1866              		.loc 1 306 0
 1867 04b6 94ED520A 		vldr.32	s0, [r4, #328]
 1868 04ba 3146     		mov	r1, r6
 1869 04bc 2846     		mov	r0, r5
 1870 04be FFF7FEFF 		bl	buffer_append_float32_auto
 1871              	.LVL203:
 1872              		.loc 1 307 0
 1873 04c2 3246     		mov	r2, r6
 1874 04c4 B4F84C11 		ldrh	r1, [r4, #332]
 1875 04c8 2846     		mov	r0, r5
 1876 04ca FFF7FEFF 		bl	buffer_append_uint16
 1877              	.LVL204:
 1878              		.loc 1 308 0
 1879 04ce 3146     		mov	r1, r6
 1880 04d0 94ED540A 		vldr.32	s0, [r4, #336]
 1881 04d4 2846     		mov	r0, r5
ARM GAS  /tmp/cc4M9ACW.s 			page 34


 1882 04d6 FFF7FEFF 		bl	buffer_append_float32_auto
 1883              	.LVL205:
 1884              		.loc 1 309 0
 1885 04da 3146     		mov	r1, r6
 1886 04dc 94ED550A 		vldr.32	s0, [r4, #340]
 1887 04e0 2846     		mov	r0, r5
 1888 04e2 FFF7FEFF 		bl	buffer_append_float32_auto
 1889              	.LVL206:
 1890              		.loc 1 310 0
 1891 04e6 F0EE480A 		vmov.f32	s1, s16
 1892 04ea 3146     		mov	r1, r6
 1893 04ec 94ED560A 		vldr.32	s0, [r4, #344]
 1894 04f0 2846     		mov	r0, r5
 1895 04f2 FFF7FEFF 		bl	buffer_append_float16
 1896              	.LVL207:
 1897              		.loc 1 311 0
 1898 04f6 3146     		mov	r1, r6
 1899 04f8 94ED570A 		vldr.32	s0, [r4, #348]
 1900 04fc 2846     		mov	r0, r5
 1901 04fe FFF7FEFF 		bl	buffer_append_float32_auto
 1902              	.LVL208:
 1903              		.loc 1 312 0
 1904 0502 3146     		mov	r1, r6
 1905 0504 94ED580A 		vldr.32	s0, [r4, #352]
 1906 0508 2846     		mov	r0, r5
 1907 050a FFF7FEFF 		bl	buffer_append_float32_auto
 1908              	.LVL209:
 1909              		.loc 1 313 0
 1910 050e 3146     		mov	r1, r6
 1911 0510 94ED590A 		vldr.32	s0, [r4, #356]
 1912 0514 2846     		mov	r0, r5
 1913 0516 FFF7FEFF 		bl	buffer_append_float32_auto
 1914              	.LVL210:
 1915              		.loc 1 314 0
 1916 051a 3146     		mov	r1, r6
 1917 051c 94ED5A0A 		vldr.32	s0, [r4, #360]
 1918 0520 2846     		mov	r0, r5
 1919 0522 FFF7FEFF 		bl	buffer_append_float32_auto
 1920              	.LVL211:
 1921              		.loc 1 315 0
 1922 0526 019B     		ldr	r3, [sp, #4]
 1923 0528 94F86C21 		ldrb	r2, [r4, #364]	@ zero_extendqisi2
 1924 052c EA54     		strb	r2, [r5, r3]
 1925              		.loc 1 316 0
 1926 052e 3146     		mov	r1, r6
 1927              		.loc 1 315 0
 1928 0530 0133     		adds	r3, r3, #1
 1929              		.loc 1 316 0
 1930 0532 94ED5C0A 		vldr.32	s0, [r4, #368]
 1931              		.loc 1 315 0
 1932 0536 0193     		str	r3, [sp, #4]
 1933              		.loc 1 316 0
 1934 0538 2846     		mov	r0, r5
 1935 053a FFF7FEFF 		bl	buffer_append_float32_auto
 1936              	.LVL212:
 1937              		.loc 1 317 0
 1938 053e 3146     		mov	r1, r6
ARM GAS  /tmp/cc4M9ACW.s 			page 35


 1939 0540 94ED5D0A 		vldr.32	s0, [r4, #372]
 1940 0544 2846     		mov	r0, r5
 1941 0546 FFF7FEFF 		bl	buffer_append_float32_auto
 1942              	.LVL213:
 1943              		.loc 1 318 0
 1944 054a 3146     		mov	r1, r6
 1945 054c 94ED5E0A 		vldr.32	s0, [r4, #376]
 1946 0550 2846     		mov	r0, r5
 1947 0552 FFF7FEFF 		bl	buffer_append_float32_auto
 1948              	.LVL214:
 1949              		.loc 1 319 0
 1950 0556 3146     		mov	r1, r6
 1951 0558 94ED5F0A 		vldr.32	s0, [r4, #380]
 1952 055c 2846     		mov	r0, r5
 1953 055e FFF7FEFF 		bl	buffer_append_float32_auto
 1954              	.LVL215:
 1955              		.loc 1 320 0
 1956 0562 3146     		mov	r1, r6
 1957 0564 94ED600A 		vldr.32	s0, [r4, #384]
 1958 0568 2846     		mov	r0, r5
 1959 056a FFF7FEFF 		bl	buffer_append_float32_auto
 1960              	.LVL216:
 1961              		.loc 1 321 0
 1962 056e 94ED610A 		vldr.32	s0, [r4, #388]
 1963 0572 3146     		mov	r1, r6
 1964 0574 2846     		mov	r0, r5
 1965 0576 FFF7FEFF 		bl	buffer_append_float32_auto
 1966              	.LVL217:
 1967              		.loc 1 322 0
 1968 057a 3246     		mov	r2, r6
 1969 057c B4F88811 		ldrh	r1, [r4, #392]
 1970 0580 2846     		mov	r0, r5
 1971 0582 FFF7FEFF 		bl	buffer_append_uint16
 1972              	.LVL218:
 1973              		.loc 1 323 0
 1974 0586 94ED630A 		vldr.32	s0, [r4, #396]
 1975 058a 3146     		mov	r1, r6
 1976 058c 2846     		mov	r0, r5
 1977 058e FFF7FEFF 		bl	buffer_append_float32_auto
 1978              	.LVL219:
 1979              		.loc 1 324 0
 1980 0592 3246     		mov	r2, r6
 1981 0594 B4F89011 		ldrh	r1, [r4, #400]
 1982 0598 2846     		mov	r0, r5
 1983 059a FFF7FEFF 		bl	buffer_append_uint16
 1984              	.LVL220:
 1985              		.loc 1 325 0
 1986 059e 3246     		mov	r2, r6
 1987 05a0 B4F89211 		ldrh	r1, [r4, #402]
 1988 05a4 2846     		mov	r0, r5
 1989 05a6 FFF7FEFF 		bl	buffer_append_uint16
 1990              	.LVL221:
 1991              		.loc 1 326 0
 1992 05aa 3146     		mov	r1, r6
 1993 05ac 94ED650A 		vldr.32	s0, [r4, #404]
 1994 05b0 2846     		mov	r0, r5
 1995 05b2 FFF7FEFF 		bl	buffer_append_float32_auto
ARM GAS  /tmp/cc4M9ACW.s 			page 36


 1996              	.LVL222:
 1997              		.loc 1 327 0
 1998 05b6 3146     		mov	r1, r6
 1999 05b8 94ED660A 		vldr.32	s0, [r4, #408]
 2000 05bc 2846     		mov	r0, r5
 2001 05be FFF7FEFF 		bl	buffer_append_float32_auto
 2002              	.LVL223:
 2003              		.loc 1 328 0
 2004 05c2 3146     		mov	r1, r6
 2005 05c4 94ED670A 		vldr.32	s0, [r4, #412]
 2006 05c8 2846     		mov	r0, r5
 2007 05ca FFF7FEFF 		bl	buffer_append_float32_auto
 2008              	.LVL224:
 2009              		.loc 1 329 0
 2010 05ce 3146     		mov	r1, r6
 2011 05d0 94ED680A 		vldr.32	s0, [r4, #416]
 2012 05d4 2846     		mov	r0, r5
 2013 05d6 FFF7FEFF 		bl	buffer_append_float32_auto
 2014              	.LVL225:
 2015              		.loc 1 330 0
 2016 05da 3146     		mov	r1, r6
 2017 05dc 94ED690A 		vldr.32	s0, [r4, #420]
 2018 05e0 2846     		mov	r0, r5
 2019 05e2 FFF7FEFF 		bl	buffer_append_float32_auto
 2020              	.LVL226:
 2021              		.loc 1 331 0
 2022 05e6 3146     		mov	r1, r6
 2023 05e8 94ED6A0A 		vldr.32	s0, [r4, #424]
 2024 05ec 2846     		mov	r0, r5
 2025 05ee FFF7FEFF 		bl	buffer_append_float32_auto
 2026              	.LVL227:
 2027              		.loc 1 332 0
 2028 05f2 3146     		mov	r1, r6
 2029 05f4 94ED6B0A 		vldr.32	s0, [r4, #428]
 2030 05f8 2846     		mov	r0, r5
 2031 05fa FFF7FEFF 		bl	buffer_append_float32_auto
 2032              	.LVL228:
 2033              		.loc 1 333 0
 2034 05fe 3146     		mov	r1, r6
 2035 0600 94ED6C0A 		vldr.32	s0, [r4, #432]
 2036 0604 2846     		mov	r0, r5
 2037 0606 FFF7FEFF 		bl	buffer_append_float32_auto
 2038              	.LVL229:
 2039              		.loc 1 334 0
 2040 060a 3146     		mov	r1, r6
 2041 060c 94ED6D0A 		vldr.32	s0, [r4, #436]
 2042 0610 2846     		mov	r0, r5
 2043 0612 FFF7FEFF 		bl	buffer_append_float32_auto
 2044              	.LVL230:
 2045              		.loc 1 335 0
 2046 0616 3146     		mov	r1, r6
 2047 0618 94ED6E0A 		vldr.32	s0, [r4, #440]
 2048 061c 2846     		mov	r0, r5
 2049 061e FFF7FEFF 		bl	buffer_append_float32_auto
 2050              	.LVL231:
 2051              		.loc 1 336 0
 2052 0622 3146     		mov	r1, r6
ARM GAS  /tmp/cc4M9ACW.s 			page 37


 2053 0624 94ED6F0A 		vldr.32	s0, [r4, #444]
 2054 0628 2846     		mov	r0, r5
 2055 062a FFF7FEFF 		bl	buffer_append_float32_auto
 2056              	.LVL232:
 2057              		.loc 1 337 0
 2058 062e 3146     		mov	r1, r6
 2059 0630 94ED700A 		vldr.32	s0, [r4, #448]
 2060 0634 2846     		mov	r0, r5
 2061 0636 FFF7FEFF 		bl	buffer_append_float32_auto
 2062              	.LVL233:
 2063              		.loc 1 338 0
 2064 063a 3146     		mov	r1, r6
 2065 063c 94ED710A 		vldr.32	s0, [r4, #452]
 2066 0640 2846     		mov	r0, r5
 2067 0642 FFF7FEFF 		bl	buffer_append_float32_auto
 2068              	.LVL234:
 2069              		.loc 1 339 0
 2070 0646 94ED720A 		vldr.32	s0, [r4, #456]
 2071 064a 3146     		mov	r1, r6
 2072 064c 2846     		mov	r0, r5
 2073 064e FFF7FEFF 		bl	buffer_append_float32_auto
 2074              	.LVL235:
 2075              		.loc 1 340 0
 2076 0652 3246     		mov	r2, r6
 2077 0654 B4F8CC11 		ldrh	r1, [r4, #460]
 2078 0658 2846     		mov	r0, r5
 2079 065a FFF7FEFF 		bl	buffer_append_uint16
 2080              	.LVL236:
 2081              		.loc 1 341 0
 2082 065e 94ED740A 		vldr.32	s0, [r4, #464]
 2083 0662 3146     		mov	r1, r6
 2084 0664 2846     		mov	r0, r5
 2085 0666 FFF7FEFF 		bl	buffer_append_float32_auto
 2086              	.LVL237:
 2087              		.loc 1 342 0
 2088 066a 3246     		mov	r2, r6
 2089 066c B4F8D411 		ldrh	r1, [r4, #468]
 2090 0670 2846     		mov	r0, r5
 2091 0672 FFF7FEFF 		bl	buffer_append_uint16
 2092              	.LVL238:
 2093              		.loc 1 343 0
 2094 0676 3246     		mov	r2, r6
 2095 0678 B4F8D611 		ldrh	r1, [r4, #470]
 2096 067c 2846     		mov	r0, r5
 2097 067e FFF7FEFF 		bl	buffer_append_uint16
 2098              	.LVL239:
 2099              		.loc 1 344 0
 2100 0682 019B     		ldr	r3, [sp, #4]
 2101 0684 94F8D821 		ldrb	r2, [r4, #472]	@ zero_extendqisi2
 2102 0688 EA54     		strb	r2, [r5, r3]
 2103              		.loc 1 345 0
 2104 068a EA18     		adds	r2, r5, r3
 2105 068c 94F8D911 		ldrb	r1, [r4, #473]	@ zero_extendqisi2
 2106 0690 5170     		strb	r1, [r2, #1]
 2107 0692 0233     		adds	r3, r3, #2
 2108              		.loc 1 346 0
 2109 0694 F0EE680A 		vmov.f32	s1, s17
ARM GAS  /tmp/cc4M9ACW.s 			page 38


 2110 0698 94ED770A 		vldr.32	s0, [r4, #476]
 2111              		.loc 1 345 0
 2112 069c 0193     		str	r3, [sp, #4]
 2113              		.loc 1 346 0
 2114 069e 3146     		mov	r1, r6
 2115 06a0 2846     		mov	r0, r5
 2116 06a2 FFF7FEFF 		bl	buffer_append_float16
 2117              	.LVL240:
 2118              		.loc 1 347 0
 2119 06a6 3146     		mov	r1, r6
 2120 06a8 94ED780A 		vldr.32	s0, [r4, #480]
 2121 06ac 2846     		mov	r0, r5
 2122 06ae F2EE040A 		vmov.f32	s1, #1.0e+1
 2123 06b2 FFF7FEFF 		bl	buffer_append_float16
 2124              	.LVL241:
 2125              		.loc 1 348 0
 2126 06b6 94ED790A 		vldr.32	s0, [r4, #484]
 2127 06ba 3146     		mov	r1, r6
 2128 06bc 2846     		mov	r0, r5
 2129 06be F2EE040A 		vmov.f32	s1, #1.0e+1
 2130 06c2 FFF7FEFF 		bl	buffer_append_float16
 2131              	.LVL242:
 2132              		.loc 1 349 0
 2133 06c6 019B     		ldr	r3, [sp, #4]
 2134 06c8 94F8E821 		ldrb	r2, [r4, #488]	@ zero_extendqisi2
 2135 06cc EA54     		strb	r2, [r5, r3]
 2136              		.loc 1 350 0
 2137 06ce 2846     		mov	r0, r5
 2138              		.loc 1 349 0
 2139 06d0 0133     		adds	r3, r3, #1
 2140              		.loc 1 350 0
 2141 06d2 94F8E911 		ldrb	r1, [r4, #489]	@ zero_extendqisi2
 2142              		.loc 1 349 0
 2143 06d6 0193     		str	r3, [sp, #4]
 2144              		.loc 1 350 0
 2145 06d8 3246     		mov	r2, r6
 2146 06da FFF7FEFF 		bl	buffer_append_uint16
 2147              	.LVL243:
 2148              		.loc 1 351 0
 2149 06de 019B     		ldr	r3, [sp, #4]
 2150 06e0 94F8EA21 		ldrb	r2, [r4, #490]	@ zero_extendqisi2
 2151 06e4 EA54     		strb	r2, [r5, r3]
 2152              		.loc 1 352 0
 2153 06e6 3146     		mov	r1, r6
 2154              		.loc 1 351 0
 2155 06e8 0133     		adds	r3, r3, #1
 2156              		.loc 1 352 0
 2157 06ea 94ED7B0A 		vldr.32	s0, [r4, #492]
 2158              		.loc 1 351 0
 2159 06ee 0193     		str	r3, [sp, #4]
 2160              		.loc 1 352 0
 2161 06f0 F0EE480A 		vmov.f32	s1, s16
 2162 06f4 2846     		mov	r0, r5
 2163 06f6 FFF7FEFF 		bl	buffer_append_float16
 2164              	.LVL244:
 2165              		.loc 1 353 0
 2166 06fa F0EE480A 		vmov.f32	s1, s16
ARM GAS  /tmp/cc4M9ACW.s 			page 39


 2167 06fe 94ED7C0A 		vldr.32	s0, [r4, #496]
 2168 0702 3146     		mov	r1, r6
 2169 0704 2846     		mov	r0, r5
 2170 0706 FFF7FEFF 		bl	buffer_append_float16
 2171              	.LVL245:
 2172              		.loc 1 354 0
 2173 070a 3246     		mov	r2, r6
 2174 070c B4F8F411 		ldrh	r1, [r4, #500]
 2175 0710 2846     		mov	r0, r5
 2176 0712 FFF7FEFF 		bl	buffer_append_uint16
 2177              	.LVL246:
 2178              		.loc 1 355 0
 2179 0716 019B     		ldr	r3, [sp, #4]
 2180 0718 94F8F821 		ldrb	r2, [r4, #504]	@ zero_extendqisi2
 2181 071c EA54     		strb	r2, [r5, r3]
 2182              		.loc 1 356 0
 2183 071e EA18     		adds	r2, r5, r3
 2184 0720 94F8F911 		ldrb	r1, [r4, #505]	@ zero_extendqisi2
 2185 0724 5170     		strb	r1, [r2, #1]
 2186 0726 0233     		adds	r3, r3, #2
 2187              		.loc 1 357 0
 2188 0728 3246     		mov	r2, r6
 2189 072a B4F8FC11 		ldrh	r1, [r4, #508]
 2190              		.loc 1 356 0
 2191 072e 0193     		str	r3, [sp, #4]
 2192              		.loc 1 357 0
 2193 0730 2846     		mov	r0, r5
 2194 0732 FFF7FEFF 		bl	buffer_append_uint16
 2195              	.LVL247:
 2196              		.loc 1 358 0
 2197 0736 3146     		mov	r1, r6
 2198 0738 94ED800A 		vldr.32	s0, [r4, #512]
 2199 073c 2846     		mov	r0, r5
 2200 073e FFF7FEFF 		bl	buffer_append_float32_auto
 2201              	.LVL248:
 2202              		.loc 1 359 0
 2203 0742 3146     		mov	r1, r6
 2204 0744 94ED810A 		vldr.32	s0, [r4, #516]
 2205 0748 2846     		mov	r0, r5
 2206 074a FFF7FEFF 		bl	buffer_append_float32_auto
 2207              	.LVL249:
 2208              		.loc 1 360 0
 2209 074e 3146     		mov	r1, r6
 2210 0750 94ED820A 		vldr.32	s0, [r4, #520]
 2211 0754 2846     		mov	r0, r5
 2212 0756 FFF7FEFF 		bl	buffer_append_float32_auto
 2213              	.LVL250:
 2214              		.loc 1 361 0
 2215 075a 3146     		mov	r1, r6
 2216 075c 94ED830A 		vldr.32	s0, [r4, #524]
 2217 0760 2846     		mov	r0, r5
 2218 0762 FFF7FEFF 		bl	buffer_append_float32_auto
 2219              	.LVL251:
 2220              		.loc 1 362 0
 2221 0766 3146     		mov	r1, r6
 2222 0768 94ED840A 		vldr.32	s0, [r4, #528]
 2223 076c 2846     		mov	r0, r5
ARM GAS  /tmp/cc4M9ACW.s 			page 40


 2224 076e FFF7FEFF 		bl	buffer_append_float32_auto
 2225              	.LVL252:
 2226              		.loc 1 363 0
 2227 0772 3146     		mov	r1, r6
 2228 0774 94ED850A 		vldr.32	s0, [r4, #532]
 2229 0778 2846     		mov	r0, r5
 2230 077a FFF7FEFF 		bl	buffer_append_float32_auto
 2231              	.LVL253:
 2232              		.loc 1 364 0
 2233 077e 3146     		mov	r1, r6
 2234 0780 94ED860A 		vldr.32	s0, [r4, #536]
 2235 0784 2846     		mov	r0, r5
 2236 0786 FFF7FEFF 		bl	buffer_append_float32_auto
 2237              	.LVL254:
 2238              		.loc 1 365 0
 2239 078a 3146     		mov	r1, r6
 2240 078c 94ED870A 		vldr.32	s0, [r4, #540]
 2241 0790 2846     		mov	r0, r5
 2242 0792 FFF7FEFF 		bl	buffer_append_float32_auto
 2243              	.LVL255:
 2244              		.loc 1 366 0
 2245 0796 3146     		mov	r1, r6
 2246 0798 94ED880A 		vldr.32	s0, [r4, #544]
 2247 079c 2846     		mov	r0, r5
 2248 079e FFF7FEFF 		bl	buffer_append_float32_auto
 2249              	.LVL256:
 2250              		.loc 1 367 0
 2251 07a2 3146     		mov	r1, r6
 2252 07a4 94ED890A 		vldr.32	s0, [r4, #548]
 2253 07a8 2846     		mov	r0, r5
 2254 07aa FFF7FEFF 		bl	buffer_append_float32_auto
 2255              	.LVL257:
 2256              		.loc 1 368 0
 2257 07ae 3146     		mov	r1, r6
 2258 07b0 94ED8A0A 		vldr.32	s0, [r4, #552]
 2259 07b4 2846     		mov	r0, r5
 2260 07b6 FFF7FEFF 		bl	buffer_append_float32_auto
 2261              	.LVL258:
 2262              		.loc 1 369 0
 2263 07ba 3146     		mov	r1, r6
 2264 07bc 94ED8B0A 		vldr.32	s0, [r4, #556]
 2265 07c0 2846     		mov	r0, r5
 2266 07c2 FFF7FEFF 		bl	buffer_append_float32_auto
 2267              	.LVL259:
 2268              		.loc 1 370 0
 2269 07c6 2846     		mov	r0, r5
 2270 07c8 3146     		mov	r1, r6
 2271 07ca 94ED8C0A 		vldr.32	s0, [r4, #560]
 2272 07ce FFF7FEFF 		bl	buffer_append_float32_auto
 2273              	.LVL260:
 2274              		.loc 1 373 0
 2275 07d2 0198     		ldr	r0, [sp, #4]
 2276 07d4 02B0     		add	sp, sp, #8
 2277              		.cfi_def_cfa_offset 24
 2278              		@ sp needed
 2279 07d6 BDEC028B 		vldm	sp!, {d8}
 2280              		.cfi_restore 80
ARM GAS  /tmp/cc4M9ACW.s 			page 41


 2281              		.cfi_restore 81
 2282              		.cfi_def_cfa_offset 16
 2283 07da 70BD     		pop	{r4, r5, r6, pc}
 2284              		.cfi_endproc
 2285              	.LFE220:
 2286              		.size	confgenerator_serialize_appconf, .-confgenerator_serialize_appconf
 2287              		.section	.text.confgenerator_deserialize_mcconf,"ax",%progbits
 2288              		.align	1
 2289              		.p2align 4,,15
 2290              		.global	confgenerator_deserialize_mcconf
 2291              		.syntax unified
 2292              		.thumb
 2293              		.thumb_func
 2294              		.fpu fpv4-sp-d16
 2295              		.type	confgenerator_deserialize_mcconf, %function
 2296              	confgenerator_deserialize_mcconf:
 2297              	.LFB221:
 2298              		.loc 1 375 0
 2299              		.cfi_startproc
 2300              		@ args = 0, pretend = 0, frame = 8
 2301              		@ frame_needed = 0, uses_anonymous_args = 0
 2302              	.LVL261:
 2303 0000 F0B5     		push	{r4, r5, r6, r7, lr}
 2304              		.cfi_def_cfa_offset 20
 2305              		.cfi_offset 4, -20
 2306              		.cfi_offset 5, -16
 2307              		.cfi_offset 6, -12
 2308              		.cfi_offset 7, -8
 2309              		.cfi_offset 14, -4
 2310 0002 83B0     		sub	sp, sp, #12
 2311              		.cfi_def_cfa_offset 32
 2312              		.loc 1 376 0
 2313 0004 02AE     		add	r6, sp, #8
 2314 0006 0027     		movs	r7, #0
 2315 0008 46F8047D 		str	r7, [r6, #-4]!
 2316              		.loc 1 375 0
 2317 000c 0C46     		mov	r4, r1
 2318              		.loc 1 378 0
 2319 000e 3146     		mov	r1, r6
 2320              	.LVL262:
 2321              		.loc 1 375 0
 2322 0010 0546     		mov	r5, r0
 2323              		.loc 1 378 0
 2324 0012 FFF7FEFF 		bl	buffer_get_uint32
 2325              	.LVL263:
 2326              		.loc 1 379 0
 2327 0016 034B     		ldr	r3, .L19
 2328 0018 9842     		cmp	r0, r3
 2329 001a 0BD0     		beq	.L18
 2330              		.loc 1 380 0
 2331 001c 3846     		mov	r0, r7
 2332              	.LVL264:
 2333              		.loc 1 562 0
 2334 001e 03B0     		add	sp, sp, #12
 2335              		.cfi_remember_state
 2336              		.cfi_def_cfa_offset 20
 2337              		@ sp needed
ARM GAS  /tmp/cc4M9ACW.s 			page 42


 2338 0020 F0BD     		pop	{r4, r5, r6, r7, pc}
 2339              	.LVL265:
 2340              	.L20:
 2341 0022 00BF     		.align	2
 2342              	.L19:
 2343 0024 116BB23C 		.word	1018325777
 2344 0028 00401C46 		.word	1176256512
 2345 002c 00007A44 		.word	1148846080
 2346 0030 0000C842 		.word	1120403456
 2347              	.LVL266:
 2348              	.L18:
 2349              		.cfi_restore_state
 2350              		.loc 1 383 0
 2351 0034 019B     		ldr	r3, [sp, #4]
 2352 0036 EA5C     		ldrb	r2, [r5, r3]	@ zero_extendqisi2
 2353 0038 84F88420 		strb	r2, [r4, #132]
 2354              		.loc 1 384 0
 2355 003c EA18     		adds	r2, r5, r3
 2356              		.loc 1 387 0
 2357 003e 2846     		mov	r0, r5
 2358              	.LVL267:
 2359              		.loc 1 384 0
 2360 0040 5178     		ldrb	r1, [r2, #1]	@ zero_extendqisi2
 2361 0042 84F88510 		strb	r1, [r4, #133]
 2362              		.loc 1 385 0
 2363 0046 9178     		ldrb	r1, [r2, #2]	@ zero_extendqisi2
 2364 0048 84F88610 		strb	r1, [r4, #134]
 2365              		.loc 1 386 0
 2366 004c D278     		ldrb	r2, [r2, #3]	@ zero_extendqisi2
 2367 004e 84F88720 		strb	r2, [r4, #135]
 2368 0052 0433     		adds	r3, r3, #4
 2369              		.loc 1 387 0
 2370 0054 3146     		mov	r1, r6
 2371              		.loc 1 386 0
 2372 0056 0193     		str	r3, [sp, #4]
 2373              		.loc 1 387 0
 2374 0058 FFF7FEFF 		bl	buffer_get_float32_auto
 2375              	.LVL268:
 2376              		.loc 1 388 0
 2377 005c 3146     		mov	r1, r6
 2378 005e 2846     		mov	r0, r5
 2379              		.loc 1 387 0
 2380 0060 84ED000A 		vstr.32	s0, [r4]
 2381              		.loc 1 388 0
 2382 0064 FFF7FEFF 		bl	buffer_get_float32_auto
 2383              	.LVL269:
 2384              		.loc 1 389 0
 2385 0068 3146     		mov	r1, r6
 2386 006a 2846     		mov	r0, r5
 2387              		.loc 1 388 0
 2388 006c 84ED010A 		vstr.32	s0, [r4, #4]
 2389              		.loc 1 389 0
 2390 0070 FFF7FEFF 		bl	buffer_get_float32_auto
 2391              	.LVL270:
 2392              		.loc 1 390 0
 2393 0074 3146     		mov	r1, r6
 2394 0076 2846     		mov	r0, r5
ARM GAS  /tmp/cc4M9ACW.s 			page 43


 2395              		.loc 1 389 0
 2396 0078 84ED020A 		vstr.32	s0, [r4, #8]
 2397              		.loc 1 390 0
 2398 007c FFF7FEFF 		bl	buffer_get_float32_auto
 2399              	.LVL271:
 2400              		.loc 1 391 0
 2401 0080 3146     		mov	r1, r6
 2402 0082 2846     		mov	r0, r5
 2403              		.loc 1 390 0
 2404 0084 84ED030A 		vstr.32	s0, [r4, #12]
 2405              		.loc 1 391 0
 2406 0088 FFF7FEFF 		bl	buffer_get_float32_auto
 2407              	.LVL272:
 2408              		.loc 1 392 0
 2409 008c 3146     		mov	r1, r6
 2410 008e 2846     		mov	r0, r5
 2411              		.loc 1 391 0
 2412 0090 84ED040A 		vstr.32	s0, [r4, #16]
 2413              		.loc 1 392 0
 2414 0094 FFF7FEFF 		bl	buffer_get_float32_auto
 2415              	.LVL273:
 2416              		.loc 1 393 0
 2417 0098 3146     		mov	r1, r6
 2418 009a 2846     		mov	r0, r5
 2419              		.loc 1 392 0
 2420 009c 84ED050A 		vstr.32	s0, [r4, #20]
 2421              		.loc 1 393 0
 2422 00a0 FFF7FEFF 		bl	buffer_get_float32_auto
 2423              	.LVL274:
 2424              		.loc 1 394 0
 2425 00a4 3146     		mov	r1, r6
 2426              		.loc 1 393 0
 2427 00a6 84ED060A 		vstr.32	s0, [r4, #24]
 2428              		.loc 1 394 0
 2429 00aa 2846     		mov	r0, r5
 2430 00ac 1FED220A 		vldr.32	s0, .L19+4
 2431 00b0 FFF7FEFF 		bl	buffer_get_float16
 2432              	.LVL275:
 2433              		.loc 1 395 0
 2434 00b4 3146     		mov	r1, r6
 2435 00b6 2846     		mov	r0, r5
 2436              		.loc 1 394 0
 2437 00b8 84ED070A 		vstr.32	s0, [r4, #28]
 2438              		.loc 1 395 0
 2439 00bc FFF7FEFF 		bl	buffer_get_float32_auto
 2440              	.LVL276:
 2441              		.loc 1 396 0
 2442 00c0 3146     		mov	r1, r6
 2443 00c2 2846     		mov	r0, r5
 2444              		.loc 1 395 0
 2445 00c4 84ED080A 		vstr.32	s0, [r4, #32]
 2446              		.loc 1 396 0
 2447 00c8 FFF7FEFF 		bl	buffer_get_float32_auto
 2448              	.LVL277:
 2449              		.loc 1 397 0
 2450 00cc 3146     		mov	r1, r6
 2451 00ce 2846     		mov	r0, r5
ARM GAS  /tmp/cc4M9ACW.s 			page 44


 2452              		.loc 1 396 0
 2453 00d0 84ED090A 		vstr.32	s0, [r4, #36]
 2454              		.loc 1 397 0
 2455 00d4 FFF7FEFF 		bl	buffer_get_float32_auto
 2456              	.LVL278:
 2457              		.loc 1 398 0
 2458 00d8 3146     		mov	r1, r6
 2459 00da 2846     		mov	r0, r5
 2460              		.loc 1 397 0
 2461 00dc 84ED0A0A 		vstr.32	s0, [r4, #40]
 2462              		.loc 1 398 0
 2463 00e0 FFF7FEFF 		bl	buffer_get_float32_auto
 2464              	.LVL279:
 2465              		.loc 1 399 0
 2466 00e4 3146     		mov	r1, r6
 2467 00e6 2846     		mov	r0, r5
 2468              		.loc 1 398 0
 2469 00e8 84ED0B0A 		vstr.32	s0, [r4, #44]
 2470              		.loc 1 399 0
 2471 00ec FFF7FEFF 		bl	buffer_get_float32_auto
 2472              	.LVL280:
 2473              		.loc 1 400 0
 2474 00f0 3146     		mov	r1, r6
 2475 00f2 2846     		mov	r0, r5
 2476              		.loc 1 399 0
 2477 00f4 84ED0C0A 		vstr.32	s0, [r4, #48]
 2478              		.loc 1 400 0
 2479 00f8 FFF7FEFF 		bl	buffer_get_float32_auto
 2480              	.LVL281:
 2481              		.loc 1 401 0
 2482 00fc 019B     		ldr	r3, [sp, #4]
 2483              		.loc 1 400 0
 2484 00fe 84ED0D0A 		vstr.32	s0, [r4, #52]
 2485              		.loc 1 401 0
 2486 0102 EA5C     		ldrb	r2, [r5, r3]	@ zero_extendqisi2
 2487 0104 D21B     		subs	r2, r2, r7
 2488 0106 18BF     		it	ne
 2489 0108 0122     		movne	r2, #1
 2490 010a 84F83820 		strb	r2, [r4, #56]
 2491 010e 0133     		adds	r3, r3, #1
 2492              		.loc 1 402 0
 2493 0110 3146     		mov	r1, r6
 2494 0112 2846     		mov	r0, r5
 2495 0114 B2EE040A 		vmov.f32	s0, #1.0e+1
 2496              		.loc 1 401 0
 2497 0118 0193     		str	r3, [sp, #4]
 2498              		.loc 1 402 0
 2499 011a FFF7FEFF 		bl	buffer_get_float16
 2500              	.LVL282:
 2501              		.loc 1 403 0
 2502 011e 3146     		mov	r1, r6
 2503              		.loc 1 402 0
 2504 0120 84ED0F0A 		vstr.32	s0, [r4, #60]
 2505              		.loc 1 403 0
 2506 0124 2846     		mov	r0, r5
 2507 0126 B2EE040A 		vmov.f32	s0, #1.0e+1
 2508 012a FFF7FEFF 		bl	buffer_get_float16
ARM GAS  /tmp/cc4M9ACW.s 			page 45


 2509              	.LVL283:
 2510              		.loc 1 404 0
 2511 012e 3146     		mov	r1, r6
 2512              		.loc 1 403 0
 2513 0130 84ED100A 		vstr.32	s0, [r4, #64]
 2514              		.loc 1 404 0
 2515 0134 2846     		mov	r0, r5
 2516 0136 B2EE040A 		vmov.f32	s0, #1.0e+1
 2517 013a FFF7FEFF 		bl	buffer_get_float16
 2518              	.LVL284:
 2519              		.loc 1 405 0
 2520 013e 3146     		mov	r1, r6
 2521              		.loc 1 404 0
 2522 0140 84ED110A 		vstr.32	s0, [r4, #68]
 2523              		.loc 1 405 0
 2524 0144 2846     		mov	r0, r5
 2525 0146 B2EE040A 		vmov.f32	s0, #1.0e+1
 2526 014a FFF7FEFF 		bl	buffer_get_float16
 2527              	.LVL285:
 2528              		.loc 1 406 0
 2529 014e 3146     		mov	r1, r6
 2530              		.loc 1 405 0
 2531 0150 84ED120A 		vstr.32	s0, [r4, #72]
 2532              		.loc 1 406 0
 2533 0154 2846     		mov	r0, r5
 2534 0156 1FED4C0A 		vldr.32	s0, .L19+4
 2535 015a FFF7FEFF 		bl	buffer_get_float16
 2536              	.LVL286:
 2537              		.loc 1 407 0
 2538 015e 3146     		mov	r1, r6
 2539              		.loc 1 406 0
 2540 0160 84ED130A 		vstr.32	s0, [r4, #76]
 2541              		.loc 1 407 0
 2542 0164 2846     		mov	r0, r5
 2543 0166 1FED500A 		vldr.32	s0, .L19+4
 2544 016a FFF7FEFF 		bl	buffer_get_float16
 2545              	.LVL287:
 2546              		.loc 1 408 0
 2547 016e 3146     		mov	r1, r6
 2548              		.loc 1 407 0
 2549 0170 84ED140A 		vstr.32	s0, [r4, #80]
 2550              		.loc 1 408 0
 2551 0174 2846     		mov	r0, r5
 2552 0176 1FED540A 		vldr.32	s0, .L19+4
 2553 017a FFF7FEFF 		bl	buffer_get_float16
 2554              	.LVL288:
 2555              		.loc 1 409 0
 2556 017e 3146     		mov	r1, r6
 2557 0180 2846     		mov	r0, r5
 2558              		.loc 1 408 0
 2559 0182 84ED150A 		vstr.32	s0, [r4, #84]
 2560              		.loc 1 409 0
 2561 0186 FFF7FEFF 		bl	buffer_get_float32_auto
 2562              	.LVL289:
 2563              		.loc 1 410 0
 2564 018a 3146     		mov	r1, r6
 2565 018c 2846     		mov	r0, r5
ARM GAS  /tmp/cc4M9ACW.s 			page 46


 2566              		.loc 1 409 0
 2567 018e 84ED160A 		vstr.32	s0, [r4, #88]
 2568              		.loc 1 410 0
 2569 0192 FFF7FEFF 		bl	buffer_get_float32_auto
 2570              	.LVL290:
 2571              		.loc 1 411 0
 2572 0196 3146     		mov	r1, r6
 2573              		.loc 1 410 0
 2574 0198 84ED170A 		vstr.32	s0, [r4, #92]
 2575              		.loc 1 411 0
 2576 019c 2846     		mov	r0, r5
 2577 019e 1FED5E0A 		vldr.32	s0, .L19+4
 2578 01a2 FFF7FEFF 		bl	buffer_get_float16
 2579              	.LVL291:
 2580              		.loc 1 412 0
 2581 01a6 3146     		mov	r1, r6
 2582              		.loc 1 411 0
 2583 01a8 84ED180A 		vstr.32	s0, [r4, #96]
 2584              		.loc 1 412 0
 2585 01ac 2846     		mov	r0, r5
 2586 01ae 1FED620A 		vldr.32	s0, .L19+4
 2587 01b2 FFF7FEFF 		bl	buffer_get_float16
 2588              	.LVL292:
 2589              		.loc 1 413 0
 2590 01b6 3146     		mov	r1, r6
 2591              		.loc 1 412 0
 2592 01b8 84ED190A 		vstr.32	s0, [r4, #100]
 2593              		.loc 1 413 0
 2594 01bc 2846     		mov	r0, r5
 2595 01be 1FED660A 		vldr.32	s0, .L19+4
 2596 01c2 FFF7FEFF 		bl	buffer_get_float16
 2597              	.LVL293:
 2598              		.loc 1 414 0
 2599 01c6 3146     		mov	r1, r6
 2600 01c8 2846     		mov	r0, r5
 2601              		.loc 1 413 0
 2602 01ca 84ED1A0A 		vstr.32	s0, [r4, #104]
 2603              		.loc 1 414 0
 2604 01ce FFF7FEFF 		bl	buffer_get_float32_auto
 2605              	.LVL294:
 2606              		.loc 1 415 0
 2607 01d2 3146     		mov	r1, r6
 2608 01d4 2846     		mov	r0, r5
 2609              		.loc 1 414 0
 2610 01d6 84ED220A 		vstr.32	s0, [r4, #136]
 2611              		.loc 1 415 0
 2612 01da FFF7FEFF 		bl	buffer_get_float32_auto
 2613              	.LVL295:
 2614              		.loc 1 416 0
 2615 01de 3146     		mov	r1, r6
 2616 01e0 2846     		mov	r0, r5
 2617              		.loc 1 415 0
 2618 01e2 84ED230A 		vstr.32	s0, [r4, #140]
 2619              		.loc 1 416 0
 2620 01e6 FFF7FEFF 		bl	buffer_get_float32_auto
 2621              	.LVL296:
 2622              		.loc 1 417 0
ARM GAS  /tmp/cc4M9ACW.s 			page 47


 2623 01ea 3146     		mov	r1, r6
 2624              		.loc 1 416 0
 2625 01ec 84ED240A 		vstr.32	s0, [r4, #144]
 2626              		.loc 1 417 0
 2627 01f0 2846     		mov	r0, r5
 2628 01f2 B2EE040A 		vmov.f32	s0, #1.0e+1
 2629 01f6 FFF7FEFF 		bl	buffer_get_float16
 2630              	.LVL297:
 2631              		.loc 1 418 0
 2632 01fa 3146     		mov	r1, r6
 2633              		.loc 1 417 0
 2634 01fc 84ED250A 		vstr.32	s0, [r4, #148]
 2635              		.loc 1 418 0
 2636 0200 2846     		mov	r0, r5
 2637 0202 1FED770A 		vldr.32	s0, .L19+4
 2638 0206 FFF7FEFF 		bl	buffer_get_float16
 2639              	.LVL298:
 2640              		.loc 1 419 0
 2641 020a 3146     		mov	r1, r6
 2642 020c 2846     		mov	r0, r5
 2643              		.loc 1 418 0
 2644 020e 84ED260A 		vstr.32	s0, [r4, #152]
 2645              		.loc 1 419 0
 2646 0212 FFF7FEFF 		bl	buffer_get_float32_auto
 2647              	.LVL299:
 2648              		.loc 1 420 0
 2649 0216 3146     		mov	r1, r6
 2650 0218 2846     		mov	r0, r5
 2651              		.loc 1 419 0
 2652 021a 84ED270A 		vstr.32	s0, [r4, #156]
 2653              		.loc 1 420 0
 2654 021e FFF7FEFF 		bl	buffer_get_float32_auto
 2655              	.LVL300:
 2656              		.loc 1 421 0
 2657 0222 019A     		ldr	r2, [sp, #4]
 2658              		.loc 1 420 0
 2659 0224 84ED280A 		vstr.32	s0, [r4, #160]
 2660              		.loc 1 421 0
 2661 0228 AB5C     		ldrb	r3, [r5, r2]	@ zero_extendqisi2
 2662 022a 84F8A430 		strb	r3, [r4, #164]
 2663              		.loc 1 422 0
 2664 022e AB18     		adds	r3, r5, r2
 2665              		.loc 1 429 0
 2666 0230 2846     		mov	r0, r5
 2667              		.loc 1 422 0
 2668 0232 5978     		ldrb	r1, [r3, #1]	@ zero_extendqisi2
 2669 0234 84F8A510 		strb	r1, [r4, #165]
 2670              		.loc 1 423 0
 2671 0238 9978     		ldrb	r1, [r3, #2]	@ zero_extendqisi2
 2672 023a 84F8A610 		strb	r1, [r4, #166]
 2673              		.loc 1 424 0
 2674 023e D978     		ldrb	r1, [r3, #3]	@ zero_extendqisi2
 2675 0240 84F8A710 		strb	r1, [r4, #167]
 2676              		.loc 1 425 0
 2677 0244 1979     		ldrb	r1, [r3, #4]	@ zero_extendqisi2
 2678 0246 84F8A810 		strb	r1, [r4, #168]
 2679              		.loc 1 426 0
ARM GAS  /tmp/cc4M9ACW.s 			page 48


 2680 024a 5979     		ldrb	r1, [r3, #5]	@ zero_extendqisi2
 2681 024c 84F8A910 		strb	r1, [r4, #169]
 2682              		.loc 1 427 0
 2683 0250 9979     		ldrb	r1, [r3, #6]	@ zero_extendqisi2
 2684 0252 84F8AA10 		strb	r1, [r4, #170]
 2685              		.loc 1 428 0
 2686 0256 DB79     		ldrb	r3, [r3, #7]	@ zero_extendqisi2
 2687 0258 84F8AB30 		strb	r3, [r4, #171]
 2688 025c 0832     		adds	r2, r2, #8
 2689              		.loc 1 429 0
 2690 025e 3146     		mov	r1, r6
 2691              		.loc 1 428 0
 2692 0260 0192     		str	r2, [sp, #4]
 2693              		.loc 1 429 0
 2694 0262 FFF7FEFF 		bl	buffer_get_float32_auto
 2695              	.LVL301:
 2696              		.loc 1 430 0
 2697 0266 3146     		mov	r1, r6
 2698 0268 2846     		mov	r0, r5
 2699              		.loc 1 429 0
 2700 026a 84ED2B0A 		vstr.32	s0, [r4, #172]
 2701              		.loc 1 430 0
 2702 026e FFF7FEFF 		bl	buffer_get_float32_auto
 2703              	.LVL302:
 2704              		.loc 1 431 0
 2705 0272 3146     		mov	r1, r6
 2706 0274 2846     		mov	r0, r5
 2707              		.loc 1 430 0
 2708 0276 84ED2C0A 		vstr.32	s0, [r4, #176]
 2709              		.loc 1 431 0
 2710 027a FFF7FEFF 		bl	buffer_get_float32_auto
 2711              	.LVL303:
 2712              		.loc 1 432 0
 2713 027e 3146     		mov	r1, r6
 2714 0280 2846     		mov	r0, r5
 2715              		.loc 1 431 0
 2716 0282 84ED2D0A 		vstr.32	s0, [r4, #180]
 2717              		.loc 1 432 0
 2718 0286 FFF7FEFF 		bl	buffer_get_float32_auto
 2719              	.LVL304:
 2720              		.loc 1 433 0
 2721 028a 3146     		mov	r1, r6
 2722 028c 2846     		mov	r0, r5
 2723              		.loc 1 432 0
 2724 028e 84ED2E0A 		vstr.32	s0, [r4, #184]
 2725              		.loc 1 433 0
 2726 0292 FFF7FEFF 		bl	buffer_get_float32_auto
 2727              	.LVL305:
 2728              		.loc 1 434 0
 2729 0296 019B     		ldr	r3, [sp, #4]
 2730              		.loc 1 433 0
 2731 0298 84ED2F0A 		vstr.32	s0, [r4, #188]
 2732              		.loc 1 434 0
 2733 029c EA5C     		ldrb	r2, [r5, r3]	@ zero_extendqisi2
 2734 029e D21B     		subs	r2, r2, r7
 2735 02a0 18BF     		it	ne
 2736 02a2 0122     		movne	r2, #1
ARM GAS  /tmp/cc4M9ACW.s 			page 49


 2737 02a4 84F8C420 		strb	r2, [r4, #196]
 2738 02a8 0133     		adds	r3, r3, #1
 2739              		.loc 1 435 0
 2740 02aa 3146     		mov	r1, r6
 2741 02ac 2846     		mov	r0, r5
 2742              		.loc 1 434 0
 2743 02ae 0193     		str	r3, [sp, #4]
 2744              		.loc 1 435 0
 2745 02b0 FFF7FEFF 		bl	buffer_get_float32_auto
 2746              	.LVL306:
 2747              		.loc 1 436 0
 2748 02b4 3146     		mov	r1, r6
 2749 02b6 2846     		mov	r0, r5
 2750              		.loc 1 435 0
 2751 02b8 84ED300A 		vstr.32	s0, [r4, #192]
 2752              		.loc 1 436 0
 2753 02bc FFF7FEFF 		bl	buffer_get_float32_auto
 2754              	.LVL307:
 2755              		.loc 1 437 0
 2756 02c0 3146     		mov	r1, r6
 2757 02c2 2846     		mov	r0, r5
 2758              		.loc 1 436 0
 2759 02c4 84ED320A 		vstr.32	s0, [r4, #200]
 2760              		.loc 1 437 0
 2761 02c8 FFF7FEFF 		bl	buffer_get_float32_auto
 2762              	.LVL308:
 2763              		.loc 1 438 0
 2764 02cc 3146     		mov	r1, r6
 2765 02ce 2846     		mov	r0, r5
 2766              		.loc 1 437 0
 2767 02d0 84ED340A 		vstr.32	s0, [r4, #208]
 2768              		.loc 1 438 0
 2769 02d4 FFF7FEFF 		bl	buffer_get_float32_auto
 2770              	.LVL309:
 2771              		.loc 1 439 0
 2772 02d8 3146     		mov	r1, r6
 2773 02da 2846     		mov	r0, r5
 2774              		.loc 1 438 0
 2775 02dc 84ED360A 		vstr.32	s0, [r4, #216]
 2776              		.loc 1 439 0
 2777 02e0 FFF7FEFF 		bl	buffer_get_float32_auto
 2778              	.LVL310:
 2779              		.loc 1 440 0
 2780 02e4 3146     		mov	r1, r6
 2781 02e6 2846     		mov	r0, r5
 2782              		.loc 1 439 0
 2783 02e8 84ED330A 		vstr.32	s0, [r4, #204]
 2784              		.loc 1 440 0
 2785 02ec FFF7FEFF 		bl	buffer_get_float32_auto
 2786              	.LVL311:
 2787              		.loc 1 441 0
 2788 02f0 3146     		mov	r1, r6
 2789 02f2 2846     		mov	r0, r5
 2790              		.loc 1 440 0
 2791 02f4 84ED350A 		vstr.32	s0, [r4, #212]
 2792              		.loc 1 441 0
 2793 02f8 FFF7FEFF 		bl	buffer_get_float32_auto
ARM GAS  /tmp/cc4M9ACW.s 			page 50


 2794              	.LVL312:
 2795              		.loc 1 442 0
 2796 02fc 019B     		ldr	r3, [sp, #4]
 2797              		.loc 1 441 0
 2798 02fe 84ED370A 		vstr.32	s0, [r4, #220]
 2799              		.loc 1 442 0
 2800 0302 EA5C     		ldrb	r2, [r5, r3]	@ zero_extendqisi2
 2801 0304 84F82C21 		strb	r2, [r4, #300]
 2802 0308 0133     		adds	r3, r3, #1
 2803              		.loc 1 443 0
 2804 030a 3146     		mov	r1, r6
 2805 030c 2846     		mov	r0, r5
 2806              		.loc 1 442 0
 2807 030e 0193     		str	r3, [sp, #4]
 2808              		.loc 1 443 0
 2809 0310 FFF7FEFF 		bl	buffer_get_float32_auto
 2810              	.LVL313:
 2811              		.loc 1 444 0
 2812 0314 3146     		mov	r1, r6
 2813 0316 2846     		mov	r0, r5
 2814              		.loc 1 443 0
 2815 0318 84ED3F0A 		vstr.32	s0, [r4, #252]
 2816              		.loc 1 444 0
 2817 031c FFF7FEFF 		bl	buffer_get_float32_auto
 2818              	.LVL314:
 2819              		.loc 1 445 0
 2820 0320 3146     		mov	r1, r6
 2821 0322 2846     		mov	r0, r5
 2822              		.loc 1 444 0
 2823 0324 84ED400A 		vstr.32	s0, [r4, #256]
 2824              		.loc 1 445 0
 2825 0328 FFF7FEFF 		bl	buffer_get_float32_auto
 2826              	.LVL315:
 2827              		.loc 1 446 0
 2828 032c 3146     		mov	r1, r6
 2829 032e 2846     		mov	r0, r5
 2830              		.loc 1 445 0
 2831 0330 84ED380A 		vstr.32	s0, [r4, #224]
 2832              		.loc 1 446 0
 2833 0334 FFF7FEFF 		bl	buffer_get_float32_auto
 2834              	.LVL316:
 2835              		.loc 1 447 0
 2836 0338 3146     		mov	r1, r6
 2837 033a 2846     		mov	r0, r5
 2838              		.loc 1 446 0
 2839 033c 84ED390A 		vstr.32	s0, [r4, #228]
 2840              		.loc 1 447 0
 2841 0340 FFF7FEFF 		bl	buffer_get_float32_auto
 2842              	.LVL317:
 2843              		.loc 1 448 0
 2844 0344 3146     		mov	r1, r6
 2845 0346 2846     		mov	r0, r5
 2846              		.loc 1 447 0
 2847 0348 84ED3A0A 		vstr.32	s0, [r4, #232]
 2848              		.loc 1 448 0
 2849 034c FFF7FEFF 		bl	buffer_get_float32_auto
 2850              	.LVL318:
ARM GAS  /tmp/cc4M9ACW.s 			page 51


 2851              		.loc 1 449 0
 2852 0350 3146     		mov	r1, r6
 2853 0352 2846     		mov	r0, r5
 2854              		.loc 1 448 0
 2855 0354 84ED3B0A 		vstr.32	s0, [r4, #236]
 2856              		.loc 1 449 0
 2857 0358 FFF7FEFF 		bl	buffer_get_float32_auto
 2858              	.LVL319:
 2859              		.loc 1 450 0
 2860 035c 3146     		mov	r1, r6
 2861 035e 2846     		mov	r0, r5
 2862              		.loc 1 449 0
 2863 0360 84ED3C0A 		vstr.32	s0, [r4, #240]
 2864              		.loc 1 450 0
 2865 0364 FFF7FEFF 		bl	buffer_get_float32_auto
 2866              	.LVL320:
 2867              		.loc 1 451 0
 2868 0368 3146     		mov	r1, r6
 2869              		.loc 1 450 0
 2870 036a 84ED3D0A 		vstr.32	s0, [r4, #244]
 2871              		.loc 1 451 0
 2872 036e 2846     		mov	r0, r5
 2873 0370 1FEDD20A 		vldr.32	s0, .L19+8
 2874 0374 FFF7FEFF 		bl	buffer_get_float16
 2875              	.LVL321:
 2876              		.loc 1 452 0
 2877 0378 3146     		mov	r1, r6
 2878 037a 2846     		mov	r0, r5
 2879              		.loc 1 451 0
 2880 037c 84ED3E0A 		vstr.32	s0, [r4, #248]
 2881              		.loc 1 452 0
 2882 0380 FFF7FEFF 		bl	buffer_get_float32_auto
 2883              	.LVL322:
 2884              		.loc 1 453 0
 2885 0384 3146     		mov	r1, r6
 2886 0386 2846     		mov	r0, r5
 2887              		.loc 1 452 0
 2888 0388 84ED410A 		vstr.32	s0, [r4, #260]
 2889              		.loc 1 453 0
 2890 038c FFF7FEFF 		bl	buffer_get_float32_auto
 2891              	.LVL323:
 2892              		.loc 1 454 0
 2893 0390 3146     		mov	r1, r6
 2894 0392 2846     		mov	r0, r5
 2895              		.loc 1 453 0
 2896 0394 84ED420A 		vstr.32	s0, [r4, #264]
 2897              		.loc 1 454 0
 2898 0398 FFF7FEFF 		bl	buffer_get_float32_auto
 2899              	.LVL324:
 2900              		.loc 1 455 0
 2901 039c 3146     		mov	r1, r6
 2902              		.loc 1 454 0
 2903 039e 84ED430A 		vstr.32	s0, [r4, #268]
 2904              		.loc 1 455 0
 2905 03a2 2846     		mov	r0, r5
 2906 03a4 1FEDDF0A 		vldr.32	s0, .L19+8
 2907 03a8 FFF7FEFF 		bl	buffer_get_float16
ARM GAS  /tmp/cc4M9ACW.s 			page 52


 2908              	.LVL325:
 2909              		.loc 1 456 0
 2910 03ac 3146     		mov	r1, r6
 2911 03ae 2846     		mov	r0, r5
 2912              		.loc 1 455 0
 2913 03b0 84ED440A 		vstr.32	s0, [r4, #272]
 2914              		.loc 1 456 0
 2915 03b4 FFF7FEFF 		bl	buffer_get_float32_auto
 2916              	.LVL326:
 2917              		.loc 1 457 0
 2918 03b8 3146     		mov	r1, r6
 2919 03ba 2846     		mov	r0, r5
 2920              		.loc 1 456 0
 2921 03bc 84ED450A 		vstr.32	s0, [r4, #276]
 2922              		.loc 1 457 0
 2923 03c0 FFF7FEFF 		bl	buffer_get_float32_auto
 2924              	.LVL327:
 2925              		.loc 1 458 0
 2926 03c4 3146     		mov	r1, r6
 2927              		.loc 1 457 0
 2928 03c6 84ED460A 		vstr.32	s0, [r4, #280]
 2929              		.loc 1 458 0
 2930 03ca 2846     		mov	r0, r5
 2931 03cc 1FEDE80A 		vldr.32	s0, .L19+12
 2932 03d0 FFF7FEFF 		bl	buffer_get_float16
 2933              	.LVL328:
 2934              		.loc 1 459 0
 2935 03d4 3146     		mov	r1, r6
 2936              		.loc 1 458 0
 2937 03d6 84ED470A 		vstr.32	s0, [r4, #284]
 2938              		.loc 1 459 0
 2939 03da 2846     		mov	r0, r5
 2940 03dc 1FEDEC0A 		vldr.32	s0, .L19+12
 2941 03e0 FFF7FEFF 		bl	buffer_get_float16
 2942              	.LVL329:
 2943              		.loc 1 460 0
 2944 03e4 3146     		mov	r1, r6
 2945              		.loc 1 459 0
 2946 03e6 84ED490A 		vstr.32	s0, [r4, #292]
 2947              		.loc 1 460 0
 2948 03ea 2846     		mov	r0, r5
 2949 03ec 9FEDE50A 		vldr.32	s0, .L21
 2950 03f0 FFF7FEFF 		bl	buffer_get_float16
 2951              	.LVL330:
 2952              		.loc 1 461 0
 2953 03f4 3146     		mov	r1, r6
 2954              		.loc 1 460 0
 2955 03f6 84ED4A0A 		vstr.32	s0, [r4, #296]
 2956              		.loc 1 461 0
 2957 03fa 2846     		mov	r0, r5
 2958 03fc 9FEDE10A 		vldr.32	s0, .L21
 2959 0400 FFF7FEFF 		bl	buffer_get_float16
 2960              	.LVL331:
 2961              		.loc 1 462 0
 2962 0404 019A     		ldr	r2, [sp, #4]
 2963              		.loc 1 461 0
 2964 0406 84ED480A 		vstr.32	s0, [r4, #288]
ARM GAS  /tmp/cc4M9ACW.s 			page 53


 2965              		.loc 1 462 0
 2966 040a AB5C     		ldrb	r3, [r5, r2]	@ zero_extendqisi2
 2967 040c 84F82D31 		strb	r3, [r4, #301]
 2968              		.loc 1 463 0
 2969 0410 AB18     		adds	r3, r5, r2
 2970              		.loc 1 470 0
 2971 0412 2846     		mov	r0, r5
 2972              		.loc 1 463 0
 2973 0414 5978     		ldrb	r1, [r3, #1]	@ zero_extendqisi2
 2974 0416 84F82E11 		strb	r1, [r4, #302]
 2975              		.loc 1 464 0
 2976 041a 9978     		ldrb	r1, [r3, #2]	@ zero_extendqisi2
 2977 041c 84F82F11 		strb	r1, [r4, #303]
 2978              		.loc 1 465 0
 2979 0420 D978     		ldrb	r1, [r3, #3]	@ zero_extendqisi2
 2980 0422 84F83011 		strb	r1, [r4, #304]
 2981              		.loc 1 466 0
 2982 0426 1979     		ldrb	r1, [r3, #4]	@ zero_extendqisi2
 2983 0428 84F83111 		strb	r1, [r4, #305]
 2984              		.loc 1 467 0
 2985 042c 5979     		ldrb	r1, [r3, #5]	@ zero_extendqisi2
 2986 042e 84F83211 		strb	r1, [r4, #306]
 2987              		.loc 1 468 0
 2988 0432 9979     		ldrb	r1, [r3, #6]	@ zero_extendqisi2
 2989 0434 84F83311 		strb	r1, [r4, #307]
 2990              		.loc 1 469 0
 2991 0438 DB79     		ldrb	r3, [r3, #7]	@ zero_extendqisi2
 2992 043a 84F83431 		strb	r3, [r4, #308]
 2993 043e 0832     		adds	r2, r2, #8
 2994              		.loc 1 470 0
 2995 0440 3146     		mov	r1, r6
 2996              		.loc 1 469 0
 2997 0442 0192     		str	r2, [sp, #4]
 2998              		.loc 1 470 0
 2999 0444 FFF7FEFF 		bl	buffer_get_float32_auto
 3000              	.LVL332:
 3001              		.loc 1 471 0
 3002 0448 3146     		mov	r1, r6
 3003 044a 2846     		mov	r0, r5
 3004              		.loc 1 470 0
 3005 044c 84ED4E0A 		vstr.32	s0, [r4, #312]
 3006              		.loc 1 471 0
 3007 0450 FFF7FEFF 		bl	buffer_get_float32_auto
 3008              	.LVL333:
 3009              		.loc 1 472 0
 3010 0454 019B     		ldr	r3, [sp, #4]
 3011              		.loc 1 471 0
 3012 0456 84ED4F0A 		vstr.32	s0, [r4, #316]
 3013              		.loc 1 472 0
 3014 045a EA5C     		ldrb	r2, [r5, r3]	@ zero_extendqisi2
 3015              		.loc 1 474 0
 3016 045c 9FEDCD0A 		vldr.32	s0, .L21+16
 3017              		.loc 1 472 0
 3018 0460 D21B     		subs	r2, r2, r7
 3019              		.loc 1 473 0
 3020 0462 05EB0301 		add	r1, r5, r3
 3021              		.loc 1 472 0
ARM GAS  /tmp/cc4M9ACW.s 			page 54


 3022 0466 18BF     		it	ne
 3023 0468 0122     		movne	r2, #1
 3024 046a 84F84021 		strb	r2, [r4, #320]
 3025              		.loc 1 473 0
 3026 046e 4A78     		ldrb	r2, [r1, #1]	@ zero_extendqisi2
 3027 0470 D21B     		subs	r2, r2, r7
 3028 0472 18BF     		it	ne
 3029 0474 0122     		movne	r2, #1
 3030 0476 84F84121 		strb	r2, [r4, #321]
 3031 047a 0233     		adds	r3, r3, #2
 3032              		.loc 1 474 0
 3033 047c 3146     		mov	r1, r6
 3034 047e 2846     		mov	r0, r5
 3035              		.loc 1 473 0
 3036 0480 0193     		str	r3, [sp, #4]
 3037              		.loc 1 474 0
 3038 0482 FFF7FEFF 		bl	buffer_get_float16
 3039              	.LVL334:
 3040              		.loc 1 475 0
 3041 0486 019B     		ldr	r3, [sp, #4]
 3042              		.loc 1 474 0
 3043 0488 84ED510A 		vstr.32	s0, [r4, #324]
 3044              		.loc 1 475 0
 3045 048c EA5C     		ldrb	r2, [r5, r3]	@ zero_extendqisi2
 3046              		.loc 1 476 0
 3047 048e 9FEDBD0A 		vldr.32	s0, .L21
 3048              		.loc 1 475 0
 3049 0492 D21B     		subs	r2, r2, r7
 3050 0494 18BF     		it	ne
 3051 0496 0122     		movne	r2, #1
 3052 0498 84F84821 		strb	r2, [r4, #328]
 3053 049c 0133     		adds	r3, r3, #1
 3054              		.loc 1 476 0
 3055 049e 3146     		mov	r1, r6
 3056 04a0 2846     		mov	r0, r5
 3057              		.loc 1 475 0
 3058 04a2 0193     		str	r3, [sp, #4]
 3059              		.loc 1 476 0
 3060 04a4 FFF7FEFF 		bl	buffer_get_float16
 3061              	.LVL335:
 3062              		.loc 1 477 0
 3063 04a8 3146     		mov	r1, r6
 3064              		.loc 1 476 0
 3065 04aa 84ED530A 		vstr.32	s0, [r4, #332]
 3066              		.loc 1 477 0
 3067 04ae 2846     		mov	r0, r5
 3068 04b0 9FEDB50A 		vldr.32	s0, .L21+4
 3069 04b4 FFF7FEFF 		bl	buffer_get_float16
 3070              	.LVL336:
 3071              		.loc 1 478 0
 3072 04b8 019B     		ldr	r3, [sp, #4]
 3073              		.loc 1 477 0
 3074 04ba 84ED540A 		vstr.32	s0, [r4, #336]
 3075              		.loc 1 478 0
 3076 04be EA5C     		ldrb	r2, [r5, r3]	@ zero_extendqisi2
 3077 04c0 84F85421 		strb	r2, [r4, #340]
 3078              		.loc 1 479 0
ARM GAS  /tmp/cc4M9ACW.s 			page 55


 3079 04c4 EA18     		adds	r2, r5, r3
 3080              		.loc 1 480 0
 3081 04c6 3146     		mov	r1, r6
 3082              		.loc 1 479 0
 3083 04c8 5278     		ldrb	r2, [r2, #1]	@ zero_extendqisi2
 3084 04ca 84F85521 		strb	r2, [r4, #341]
 3085 04ce 0233     		adds	r3, r3, #2
 3086              		.loc 1 480 0
 3087 04d0 2846     		mov	r0, r5
 3088              		.loc 1 479 0
 3089 04d2 0193     		str	r3, [sp, #4]
 3090              		.loc 1 480 0
 3091 04d4 FFF7FEFF 		bl	buffer_get_float32_auto
 3092              	.LVL337:
 3093              		.loc 1 481 0
 3094 04d8 3146     		mov	r1, r6
 3095 04da 2846     		mov	r0, r5
 3096              		.loc 1 480 0
 3097 04dc 84ED560A 		vstr.32	s0, [r4, #344]
 3098              		.loc 1 481 0
 3099 04e0 FFF7FEFF 		bl	buffer_get_float32_auto
 3100              	.LVL338:
 3101              		.loc 1 482 0
 3102 04e4 3146     		mov	r1, r6
 3103 04e6 2846     		mov	r0, r5
 3104              		.loc 1 481 0
 3105 04e8 84ED570A 		vstr.32	s0, [r4, #348]
 3106              		.loc 1 482 0
 3107 04ec FFF7FEFF 		bl	buffer_get_float32_auto
 3108              	.LVL339:
 3109              		.loc 1 483 0
 3110 04f0 3146     		mov	r1, r6
 3111 04f2 2846     		mov	r0, r5
 3112              		.loc 1 482 0
 3113 04f4 84ED580A 		vstr.32	s0, [r4, #352]
 3114              		.loc 1 483 0
 3115 04f8 FFF7FEFF 		bl	buffer_get_float32_auto
 3116              	.LVL340:
 3117              		.loc 1 484 0
 3118 04fc 3146     		mov	r1, r6
 3119              		.loc 1 483 0
 3120 04fe 84ED590A 		vstr.32	s0, [r4, #356]
 3121              		.loc 1 484 0
 3122 0502 2846     		mov	r0, r5
 3123 0504 FFF7FEFF 		bl	buffer_get_uint16
 3124              	.LVL341:
 3125              		.loc 1 485 0
 3126 0508 3146     		mov	r1, r6
 3127              		.loc 1 484 0
 3128 050a A4F86801 		strh	r0, [r4, #360]	@ movhi
 3129              		.loc 1 485 0
 3130 050e 2846     		mov	r0, r5
 3131 0510 FFF7FEFF 		bl	buffer_get_float32_auto
 3132              	.LVL342:
 3133              		.loc 1 486 0
 3134 0514 019B     		ldr	r3, [sp, #4]
 3135              		.loc 1 485 0
ARM GAS  /tmp/cc4M9ACW.s 			page 56


 3136 0516 84ED5B0A 		vstr.32	s0, [r4, #364]
 3137              		.loc 1 486 0
 3138 051a EA5C     		ldrb	r2, [r5, r3]	@ zero_extendqisi2
 3139 051c 84F87021 		strb	r2, [r4, #368]
 3140              		.loc 1 487 0
 3141 0520 EA18     		adds	r2, r5, r3
 3142 0522 0233     		adds	r3, r3, #2
 3143 0524 5278     		ldrb	r2, [r2, #1]	@ zero_extendqisi2
 3144 0526 0193     		str	r3, [sp, #4]
 3145 0528 D31B     		subs	r3, r2, r7
 3146 052a 18BF     		it	ne
 3147 052c 0123     		movne	r3, #1
 3148 052e 84F87131 		strb	r3, [r4, #369]
 3149              		.loc 1 488 0
 3150 0532 3146     		mov	r1, r6
 3151 0534 2846     		mov	r0, r5
 3152 0536 FFF7FEFF 		bl	buffer_get_float32_auto
 3153              	.LVL343:
 3154              		.loc 1 489 0
 3155 053a 3146     		mov	r1, r6
 3156 053c 2846     		mov	r0, r5
 3157              		.loc 1 488 0
 3158 053e 84ED5D0A 		vstr.32	s0, [r4, #372]
 3159              		.loc 1 489 0
 3160 0542 FFF7FEFF 		bl	buffer_get_float32_auto
 3161              	.LVL344:
 3162              		.loc 1 490 0
 3163 0546 3146     		mov	r1, r6
 3164 0548 2846     		mov	r0, r5
 3165              		.loc 1 489 0
 3166 054a 84ED5E0A 		vstr.32	s0, [r4, #376]
 3167              		.loc 1 490 0
 3168 054e FFF7FEFF 		bl	buffer_get_float32_auto
 3169              	.LVL345:
 3170              		.loc 1 491 0
 3171 0552 3146     		mov	r1, r6
 3172              		.loc 1 490 0
 3173 0554 84ED5F0A 		vstr.32	s0, [r4, #380]
 3174              		.loc 1 491 0
 3175 0558 2846     		mov	r0, r5
 3176 055a 9FED8B0A 		vldr.32	s0, .L21+4
 3177 055e FFF7FEFF 		bl	buffer_get_float16
 3178              	.LVL346:
 3179              		.loc 1 492 0
 3180 0562 3146     		mov	r1, r6
 3181              		.loc 1 491 0
 3182 0564 84ED600A 		vstr.32	s0, [r4, #384]
 3183              		.loc 1 492 0
 3184 0568 2846     		mov	r0, r5
 3185 056a 9FED870A 		vldr.32	s0, .L21+4
 3186 056e FFF7FEFF 		bl	buffer_get_float16
 3187              	.LVL347:
 3188              		.loc 1 493 0
 3189 0572 3146     		mov	r1, r6
 3190              		.loc 1 492 0
 3191 0574 84ED610A 		vstr.32	s0, [r4, #388]
 3192              		.loc 1 493 0
ARM GAS  /tmp/cc4M9ACW.s 			page 57


 3193 0578 2846     		mov	r0, r5
 3194 057a 9FED830A 		vldr.32	s0, .L21+4
 3195 057e FFF7FEFF 		bl	buffer_get_float16
 3196              	.LVL348:
 3197              		.loc 1 494 0
 3198 0582 3146     		mov	r1, r6
 3199              		.loc 1 493 0
 3200 0584 84ED620A 		vstr.32	s0, [r4, #392]
 3201              		.loc 1 494 0
 3202 0588 2846     		mov	r0, r5
 3203 058a 9FED7F0A 		vldr.32	s0, .L21+4
 3204 058e FFF7FEFF 		bl	buffer_get_float16
 3205              	.LVL349:
 3206              		.loc 1 495 0
 3207 0592 3146     		mov	r1, r6
 3208              		.loc 1 494 0
 3209 0594 84ED630A 		vstr.32	s0, [r4, #396]
 3210              		.loc 1 495 0
 3211 0598 2846     		mov	r0, r5
 3212 059a 9FED7B0A 		vldr.32	s0, .L21+4
 3213 059e FFF7FEFF 		bl	buffer_get_float16
 3214              	.LVL350:
 3215              		.loc 1 496 0
 3216 05a2 3146     		mov	r1, r6
 3217              		.loc 1 495 0
 3218 05a4 84ED640A 		vstr.32	s0, [r4, #400]
 3219              		.loc 1 496 0
 3220 05a8 2846     		mov	r0, r5
 3221 05aa 9FED770A 		vldr.32	s0, .L21+4
 3222 05ae FFF7FEFF 		bl	buffer_get_float16
 3223              	.LVL351:
 3224              		.loc 1 497 0
 3225 05b2 019B     		ldr	r3, [sp, #4]
 3226              		.loc 1 496 0
 3227 05b4 84ED650A 		vstr.32	s0, [r4, #404]
 3228              		.loc 1 497 0
 3229 05b8 EA5C     		ldrb	r2, [r5, r3]	@ zero_extendqisi2
 3230 05ba D21B     		subs	r2, r2, r7
 3231 05bc 18BF     		it	ne
 3232 05be 0122     		movne	r2, #1
 3233 05c0 84F89821 		strb	r2, [r4, #408]
 3234 05c4 0133     		adds	r3, r3, #1
 3235              		.loc 1 498 0
 3236 05c6 3146     		mov	r1, r6
 3237 05c8 2846     		mov	r0, r5
 3238              		.loc 1 497 0
 3239 05ca 0193     		str	r3, [sp, #4]
 3240              		.loc 1 498 0
 3241 05cc FFF7FEFF 		bl	buffer_get_float32_auto
 3242              	.LVL352:
 3243              		.loc 1 499 0
 3244 05d0 019B     		ldr	r3, [sp, #4]
 3245              		.loc 1 498 0
 3246 05d2 84ED670A 		vstr.32	s0, [r4, #412]
 3247              		.loc 1 499 0
 3248 05d6 EA5C     		ldrb	r2, [r5, r3]	@ zero_extendqisi2
 3249 05d8 84F8A021 		strb	r2, [r4, #416]
ARM GAS  /tmp/cc4M9ACW.s 			page 58


 3250 05dc 0133     		adds	r3, r3, #1
 3251              		.loc 1 500 0
 3252 05de 3146     		mov	r1, r6
 3253 05e0 2846     		mov	r0, r5
 3254              		.loc 1 499 0
 3255 05e2 0193     		str	r3, [sp, #4]
 3256              		.loc 1 500 0
 3257 05e4 FFF7FEFF 		bl	buffer_get_float32_auto
 3258              	.LVL353:
 3259              		.loc 1 501 0
 3260 05e8 3146     		mov	r1, r6
 3261              		.loc 1 500 0
 3262 05ea 84ED690A 		vstr.32	s0, [r4, #420]
 3263              		.loc 1 501 0
 3264 05ee 2846     		mov	r0, r5
 3265 05f0 9FED650A 		vldr.32	s0, .L21+4
 3266 05f4 FFF7FEFF 		bl	buffer_get_float16
 3267              	.LVL354:
 3268              		.loc 1 502 0
 3269 05f8 3146     		mov	r1, r6
 3270              		.loc 1 501 0
 3271 05fa 84ED6A0A 		vstr.32	s0, [r4, #424]
 3272              		.loc 1 502 0
 3273 05fe 2846     		mov	r0, r5
 3274 0600 9FED640A 		vldr.32	s0, .L21+16
 3275 0604 FFF7FEFF 		bl	buffer_get_float16
 3276              	.LVL355:
 3277              		.loc 1 503 0
 3278 0608 3146     		mov	r1, r6
 3279              		.loc 1 502 0
 3280 060a 84ED6B0A 		vstr.32	s0, [r4, #428]
 3281              		.loc 1 503 0
 3282 060e 2846     		mov	r0, r5
 3283 0610 9FED5D0A 		vldr.32	s0, .L21+4
 3284 0614 FFF7FEFF 		bl	buffer_get_float16
 3285              	.LVL356:
 3286              		.loc 1 504 0
 3287 0618 3146     		mov	r1, r6
 3288              		.loc 1 503 0
 3289 061a 84ED6C0A 		vstr.32	s0, [r4, #432]
 3290              		.loc 1 504 0
 3291 061e 2846     		mov	r0, r5
 3292 0620 FFF7FEFF 		bl	buffer_get_int16
 3293              	.LVL357:
 3294              		.loc 1 505 0
 3295 0624 3146     		mov	r1, r6
 3296              		.loc 1 504 0
 3297 0626 C4F8B401 		str	r0, [r4, #436]
 3298              		.loc 1 505 0
 3299 062a 2846     		mov	r0, r5
 3300 062c FFF7FEFF 		bl	buffer_get_int16
 3301              	.LVL358:
 3302              		.loc 1 506 0
 3303 0630 3146     		mov	r1, r6
 3304              		.loc 1 505 0
 3305 0632 C4F8B801 		str	r0, [r4, #440]
 3306              		.loc 1 506 0
ARM GAS  /tmp/cc4M9ACW.s 			page 59


 3307 0636 9FED540A 		vldr.32	s0, .L21+4
 3308 063a 2846     		mov	r0, r5
 3309 063c FFF7FEFF 		bl	buffer_get_float16
 3310              	.LVL359:
 3311              		.loc 1 507 0
 3312 0640 3146     		mov	r1, r6
 3313 0642 2846     		mov	r0, r5
 3314              		.loc 1 506 0
 3315 0644 84ED6F0A 		vstr.32	s0, [r4, #444]
 3316              		.loc 1 507 0
 3317 0648 FFF7FEFF 		bl	buffer_get_float32_auto
 3318              	.LVL360:
 3319              		.loc 1 508 0
 3320 064c 3146     		mov	r1, r6
 3321 064e 2846     		mov	r0, r5
 3322              		.loc 1 507 0
 3323 0650 84ED700A 		vstr.32	s0, [r4, #448]
 3324              		.loc 1 508 0
 3325 0654 FFF7FEFF 		bl	buffer_get_float32_auto
 3326              	.LVL361:
 3327              		.loc 1 509 0
 3328 0658 019B     		ldr	r3, [sp, #4]
 3329              		.loc 1 508 0
 3330 065a 84ED710A 		vstr.32	s0, [r4, #452]
 3331              		.loc 1 509 0
 3332 065e EA5C     		ldrb	r2, [r5, r3]	@ zero_extendqisi2
 3333 0660 84F8C821 		strb	r2, [r4, #456]
 3334 0664 0133     		adds	r3, r3, #1
 3335              		.loc 1 510 0
 3336 0666 3146     		mov	r1, r6
 3337 0668 2846     		mov	r0, r5
 3338              		.loc 1 509 0
 3339 066a 0193     		str	r3, [sp, #4]
 3340              		.loc 1 510 0
 3341 066c FFF7FEFF 		bl	buffer_get_float32_auto
 3342              	.LVL362:
 3343              		.loc 1 511 0
 3344 0670 3146     		mov	r1, r6
 3345 0672 2846     		mov	r0, r5
 3346              		.loc 1 510 0
 3347 0674 84ED730A 		vstr.32	s0, [r4, #460]
 3348              		.loc 1 511 0
 3349 0678 FFF7FEFF 		bl	buffer_get_float32_auto
 3350              	.LVL363:
 3351              		.loc 1 512 0
 3352 067c 3146     		mov	r1, r6
 3353 067e 2846     		mov	r0, r5
 3354              		.loc 1 511 0
 3355 0680 84ED740A 		vstr.32	s0, [r4, #464]
 3356              		.loc 1 512 0
 3357 0684 FFF7FEFF 		bl	buffer_get_float32_auto
 3358              	.LVL364:
 3359              		.loc 1 513 0
 3360 0688 3146     		mov	r1, r6
 3361              		.loc 1 512 0
 3362 068a 84ED750A 		vstr.32	s0, [r4, #468]
 3363              		.loc 1 513 0
ARM GAS  /tmp/cc4M9ACW.s 			page 60


 3364 068e 2846     		mov	r0, r5
 3365 0690 9FED3D0A 		vldr.32	s0, .L21+4
 3366 0694 FFF7FEFF 		bl	buffer_get_float16
 3367              	.LVL365:
 3368              		.loc 1 514 0
 3369 0698 3146     		mov	r1, r6
 3370 069a 2846     		mov	r0, r5
 3371              		.loc 1 513 0
 3372 069c 84ED760A 		vstr.32	s0, [r4, #472]
 3373              		.loc 1 514 0
 3374 06a0 FFF7FEFF 		bl	buffer_get_float32_auto
 3375              	.LVL366:
 3376              		.loc 1 515 0
 3377 06a4 019B     		ldr	r3, [sp, #4]
 3378              		.loc 1 514 0
 3379 06a6 84ED770A 		vstr.32	s0, [r4, #476]
 3380              		.loc 1 515 0
 3381 06aa EA5C     		ldrb	r2, [r5, r3]	@ zero_extendqisi2
 3382 06ac D21B     		subs	r2, r2, r7
 3383 06ae 18BF     		it	ne
 3384 06b0 0122     		movne	r2, #1
 3385 06b2 84F8E021 		strb	r2, [r4, #480]
 3386 06b6 0133     		adds	r3, r3, #1
 3387              		.loc 1 516 0
 3388 06b8 3146     		mov	r1, r6
 3389 06ba 2846     		mov	r0, r5
 3390              		.loc 1 515 0
 3391 06bc 0193     		str	r3, [sp, #4]
 3392              		.loc 1 516 0
 3393 06be FFF7FEFF 		bl	buffer_get_float32_auto
 3394              	.LVL367:
 3395              		.loc 1 517 0
 3396 06c2 3146     		mov	r1, r6
 3397 06c4 2846     		mov	r0, r5
 3398              		.loc 1 516 0
 3399 06c6 84ED790A 		vstr.32	s0, [r4, #484]
 3400              		.loc 1 517 0
 3401 06ca FFF7FEFF 		bl	buffer_get_float32_auto
 3402              	.LVL368:
 3403              		.loc 1 518 0
 3404 06ce 3146     		mov	r1, r6
 3405 06d0 2846     		mov	r0, r5
 3406              		.loc 1 517 0
 3407 06d2 84ED7A0A 		vstr.32	s0, [r4, #488]
 3408              		.loc 1 518 0
 3409 06d6 FFF7FEFF 		bl	buffer_get_float32_auto
 3410              	.LVL369:
 3411              		.loc 1 519 0
 3412 06da 3146     		mov	r1, r6
 3413 06dc 2846     		mov	r0, r5
 3414              		.loc 1 518 0
 3415 06de 84ED7B0A 		vstr.32	s0, [r4, #492]
 3416              		.loc 1 519 0
 3417 06e2 FFF7FEFF 		bl	buffer_get_float32_auto
 3418              	.LVL370:
 3419              		.loc 1 520 0
 3420 06e6 3146     		mov	r1, r6
ARM GAS  /tmp/cc4M9ACW.s 			page 61


 3421 06e8 2846     		mov	r0, r5
 3422              		.loc 1 519 0
 3423 06ea 84ED7C0A 		vstr.32	s0, [r4, #496]
 3424              		.loc 1 520 0
 3425 06ee FFF7FEFF 		bl	buffer_get_float32_auto
 3426              	.LVL371:
 3427              		.loc 1 521 0
 3428 06f2 3146     		mov	r1, r6
 3429 06f4 2846     		mov	r0, r5
 3430              		.loc 1 520 0
 3431 06f6 84ED7D0A 		vstr.32	s0, [r4, #500]
 3432              		.loc 1 521 0
 3433 06fa FFF7FEFF 		bl	buffer_get_float32_auto
 3434              	.LVL372:
 3435              		.loc 1 522 0
 3436 06fe 3146     		mov	r1, r6
 3437 0700 2846     		mov	r0, r5
 3438              		.loc 1 521 0
 3439 0702 84ED7E0A 		vstr.32	s0, [r4, #504]
 3440              		.loc 1 522 0
 3441 0706 FFF7FEFF 		bl	buffer_get_float32_auto
 3442              	.LVL373:
 3443              		.loc 1 523 0
 3444 070a 3146     		mov	r1, r6
 3445              		.loc 1 522 0
 3446 070c 84ED7F0A 		vstr.32	s0, [r4, #508]
 3447              		.loc 1 523 0
 3448 0710 2846     		mov	r0, r5
 3449 0712 B2EE040A 		vmov.f32	s0, #1.0e+1
 3450 0716 FFF7FEFF 		bl	buffer_get_float16
 3451              	.LVL374:
 3452              		.loc 1 524 0
 3453 071a 3146     		mov	r1, r6
 3454 071c 2846     		mov	r0, r5
 3455              		.loc 1 523 0
 3456 071e 84ED800A 		vstr.32	s0, [r4, #512]
 3457              		.loc 1 524 0
 3458 0722 FFF7FEFF 		bl	buffer_get_float32_auto
 3459              	.LVL375:
 3460              		.loc 1 525 0
 3461 0726 3146     		mov	r1, r6
 3462 0728 2846     		mov	r0, r5
 3463              		.loc 1 524 0
 3464 072a 84ED810A 		vstr.32	s0, [r4, #516]
 3465              		.loc 1 525 0
 3466 072e FFF7FEFF 		bl	buffer_get_float32_auto
 3467              	.LVL376:
 3468              		.loc 1 526 0
 3469 0732 3146     		mov	r1, r6
 3470 0734 2846     		mov	r0, r5
 3471              		.loc 1 525 0
 3472 0736 84ED820A 		vstr.32	s0, [r4, #520]
 3473              		.loc 1 526 0
 3474 073a FFF7FEFF 		bl	buffer_get_float32_auto
 3475              	.LVL377:
 3476              		.loc 1 527 0
 3477 073e 3146     		mov	r1, r6
ARM GAS  /tmp/cc4M9ACW.s 			page 62


 3478 0740 2846     		mov	r0, r5
 3479              		.loc 1 526 0
 3480 0742 84ED830A 		vstr.32	s0, [r4, #524]
 3481              		.loc 1 527 0
 3482 0746 FFF7FEFF 		bl	buffer_get_float32_auto
 3483              	.LVL378:
 3484              		.loc 1 528 0
 3485 074a 3146     		mov	r1, r6
 3486 074c 2846     		mov	r0, r5
 3487              		.loc 1 527 0
 3488 074e 84ED840A 		vstr.32	s0, [r4, #528]
 3489              		.loc 1 528 0
 3490 0752 FFF7FEFF 		bl	buffer_get_float32_auto
 3491              	.LVL379:
 3492              		.loc 1 529 0
 3493 0756 3146     		mov	r1, r6
 3494              		.loc 1 528 0
 3495 0758 84ED850A 		vstr.32	s0, [r4, #532]
 3496              		.loc 1 529 0
 3497 075c 2846     		mov	r0, r5
 3498 075e FFF7FEFF 		bl	buffer_get_int32
 3499              	.LVL380:
 3500              		.loc 1 530 0
 3501 0762 3146     		mov	r1, r6
 3502              		.loc 1 529 0
 3503 0764 C4F81802 		str	r0, [r4, #536]
 3504              		.loc 1 530 0
 3505 0768 2846     		mov	r0, r5
 3506 076a FFF7FEFF 		bl	buffer_get_float32_auto
 3507              	.LVL381:
 3508              		.loc 1 531 0
 3509 076e 3146     		mov	r1, r6
 3510 0770 2846     		mov	r0, r5
 3511              		.loc 1 530 0
 3512 0772 84ED870A 		vstr.32	s0, [r4, #540]
 3513              		.loc 1 531 0
 3514 0776 FFF7FEFF 		bl	buffer_get_float32_auto
 3515              	.LVL382:
 3516              		.loc 1 532 0
 3517 077a 3146     		mov	r1, r6
 3518              		.loc 1 531 0
 3519 077c 84ED880A 		vstr.32	s0, [r4, #544]
 3520              		.loc 1 532 0
 3521 0780 2846     		mov	r0, r5
 3522 0782 09E0     		b	.L22
 3523              	.L23:
 3524              		.align	2
 3525              	.L21:
 3526 0784 0000C842 		.word	1120403456
 3527 0788 00401C46 		.word	1176256512
 3528 078c CDCCCC3D 		.word	1036831949
 3529 0790 0000C842 		.word	1120403456
 3530 0794 00007A44 		.word	1148846080
 3531              	.L22:
 3532 0798 FFF7FEFF 		bl	buffer_get_uint32
 3533              	.LVL383:
 3534              		.loc 1 533 0
ARM GAS  /tmp/cc4M9ACW.s 			page 63


 3535 079c 019B     		ldr	r3, [sp, #4]
 3536              		.loc 1 532 0
 3537 079e C4F82402 		str	r0, [r4, #548]
 3538              		.loc 1 533 0
 3539 07a2 EA5C     		ldrb	r2, [r5, r3]	@ zero_extendqisi2
 3540 07a4 84F82822 		strb	r2, [r4, #552]
 3541              		.loc 1 534 0
 3542 07a8 EA18     		adds	r2, r5, r3
 3543              		.loc 1 536 0
 3544 07aa 0433     		adds	r3, r3, #4
 3545              		.loc 1 534 0
 3546 07ac 5178     		ldrb	r1, [r2, #1]	@ zero_extendqisi2
 3547              		.loc 1 536 0
 3548 07ae 0193     		str	r3, [sp, #4]
 3549              		.loc 1 534 0
 3550 07b0 CB1B     		subs	r3, r1, r7
 3551 07b2 18BF     		it	ne
 3552 07b4 0123     		movne	r3, #1
 3553 07b6 84F82932 		strb	r3, [r4, #553]
 3554              		.loc 1 535 0
 3555 07ba 9378     		ldrb	r3, [r2, #2]	@ zero_extendqisi2
 3556 07bc 84F82A32 		strb	r3, [r4, #554]
 3557              		.loc 1 536 0
 3558 07c0 D378     		ldrb	r3, [r2, #3]	@ zero_extendqisi2
 3559 07c2 C4F82C32 		str	r3, [r4, #556]
 3560              		.loc 1 537 0
 3561 07c6 3146     		mov	r1, r6
 3562 07c8 2846     		mov	r0, r5
 3563 07ca FFF7FEFF 		bl	buffer_get_float32_auto
 3564              	.LVL384:
 3565              		.loc 1 538 0
 3566 07ce 3146     		mov	r1, r6
 3567 07d0 2846     		mov	r0, r5
 3568              		.loc 1 537 0
 3569 07d2 84ED8C0A 		vstr.32	s0, [r4, #560]
 3570              		.loc 1 538 0
 3571 07d6 FFF7FEFF 		bl	buffer_get_float32_auto
 3572              	.LVL385:
 3573              		.loc 1 539 0
 3574 07da 3146     		mov	r1, r6
 3575 07dc 2846     		mov	r0, r5
 3576              		.loc 1 538 0
 3577 07de 84ED8D0A 		vstr.32	s0, [r4, #564]
 3578              		.loc 1 539 0
 3579 07e2 FFF7FEFF 		bl	buffer_get_float32_auto
 3580              	.LVL386:
 3581              		.loc 1 540 0
 3582 07e6 3146     		mov	r1, r6
 3583 07e8 2846     		mov	r0, r5
 3584              		.loc 1 539 0
 3585 07ea 84ED8E0A 		vstr.32	s0, [r4, #568]
 3586              		.loc 1 540 0
 3587 07ee FFF7FEFF 		bl	buffer_get_float32_auto
 3588              	.LVL387:
 3589              		.loc 1 541 0
 3590 07f2 019B     		ldr	r3, [sp, #4]
 3591              		.loc 1 540 0
ARM GAS  /tmp/cc4M9ACW.s 			page 64


 3592 07f4 84ED8F0A 		vstr.32	s0, [r4, #572]
 3593              		.loc 1 541 0
 3594 07f8 EA5C     		ldrb	r2, [r5, r3]	@ zero_extendqisi2
 3595 07fa 84F84022 		strb	r2, [r4, #576]
 3596              		.loc 1 542 0
 3597 07fe EA18     		adds	r2, r5, r3
 3598              		.loc 1 543 0
 3599 0800 3146     		mov	r1, r6
 3600              		.loc 1 542 0
 3601 0802 5278     		ldrb	r2, [r2, #1]	@ zero_extendqisi2
 3602 0804 84F84122 		strb	r2, [r4, #577]
 3603 0808 0233     		adds	r3, r3, #2
 3604              		.loc 1 543 0
 3605 080a 2846     		mov	r0, r5
 3606              		.loc 1 542 0
 3607 080c 0193     		str	r3, [sp, #4]
 3608              		.loc 1 543 0
 3609 080e FFF7FEFF 		bl	buffer_get_float32_auto
 3610              	.LVL388:
 3611              		.loc 1 544 0
 3612 0812 3146     		mov	r1, r6
 3613              		.loc 1 543 0
 3614 0814 84ED910A 		vstr.32	s0, [r4, #580]
 3615              		.loc 1 544 0
 3616 0818 2846     		mov	r0, r5
 3617 081a 1FED240A 		vldr.32	s0, .L21+8
 3618 081e FFF7FEFF 		bl	buffer_get_float16
 3619              	.LVL389:
 3620              		.loc 1 545 0
 3621 0822 3146     		mov	r1, r6
 3622              		.loc 1 544 0
 3623 0824 84ED940A 		vstr.32	s0, [r4, #592]
 3624              		.loc 1 545 0
 3625 0828 2846     		mov	r0, r5
 3626 082a B2EE040A 		vmov.f32	s0, #1.0e+1
 3627 082e FFF7FEFF 		bl	buffer_get_float16
 3628              	.LVL390:
 3629              		.loc 1 546 0
 3630 0832 019B     		ldr	r3, [sp, #4]
 3631              		.loc 1 545 0
 3632 0834 84ED930A 		vstr.32	s0, [r4, #588]
 3633              		.loc 1 546 0
 3634 0838 EA5C     		ldrb	r2, [r5, r3]	@ zero_extendqisi2
 3635 083a C4F84822 		str	r2, [r4, #584]
 3636              		.loc 1 547 0
 3637 083e EA18     		adds	r2, r5, r3
 3638              		.loc 1 548 0
 3639 0840 3146     		mov	r1, r6
 3640              		.loc 1 547 0
 3641 0842 5278     		ldrb	r2, [r2, #1]	@ zero_extendqisi2
 3642 0844 84F85422 		strb	r2, [r4, #596]
 3643 0848 0233     		adds	r3, r3, #2
 3644              		.loc 1 548 0
 3645 084a 2846     		mov	r0, r5
 3646              		.loc 1 547 0
 3647 084c 0193     		str	r3, [sp, #4]
 3648              		.loc 1 548 0
ARM GAS  /tmp/cc4M9ACW.s 			page 65


 3649 084e FFF7FEFF 		bl	buffer_get_float32_auto
 3650              	.LVL391:
 3651              		.loc 1 549 0
 3652 0852 3146     		mov	r1, r6
 3653 0854 2846     		mov	r0, r5
 3654              		.loc 1 548 0
 3655 0856 84ED960A 		vstr.32	s0, [r4, #600]
 3656              		.loc 1 549 0
 3657 085a FFF7FEFF 		bl	buffer_get_float32_auto
 3658              	.LVL392:
 3659              		.loc 1 550 0
 3660 085e 019B     		ldr	r3, [sp, #4]
 3661              		.loc 1 549 0
 3662 0860 84ED970A 		vstr.32	s0, [r4, #604]
 3663              		.loc 1 550 0
 3664 0864 EA5C     		ldrb	r2, [r5, r3]	@ zero_extendqisi2
 3665 0866 84F86022 		strb	r2, [r4, #608]
 3666              		.loc 1 551 0
 3667 086a EA18     		adds	r2, r5, r3
 3668              		.loc 1 552 0
 3669 086c 3146     		mov	r1, r6
 3670              		.loc 1 551 0
 3671 086e 5278     		ldrb	r2, [r2, #1]	@ zero_extendqisi2
 3672 0870 C4F86422 		str	r2, [r4, #612]
 3673 0874 0233     		adds	r3, r3, #2
 3674              		.loc 1 552 0
 3675 0876 2846     		mov	r0, r5
 3676              		.loc 1 551 0
 3677 0878 0193     		str	r3, [sp, #4]
 3678              		.loc 1 552 0
 3679 087a FFF7FEFF 		bl	buffer_get_float32_auto
 3680              	.LVL393:
 3681              		.loc 1 553 0
 3682 087e 3146     		mov	r1, r6
 3683 0880 2846     		mov	r0, r5
 3684              		.loc 1 552 0
 3685 0882 84ED9A0A 		vstr.32	s0, [r4, #616]
 3686              		.loc 1 553 0
 3687 0886 FFF7FEFF 		bl	buffer_get_float32_auto
 3688              	.LVL394:
 3689              		.loc 1 554 0
 3690 088a 019B     		ldr	r3, [sp, #4]
 3691              		.loc 1 553 0
 3692 088c 84ED9B0A 		vstr.32	s0, [r4, #620]
 3693              		.loc 1 554 0
 3694 0890 EA5C     		ldrb	r2, [r5, r3]	@ zero_extendqisi2
 3695 0892 84F87022 		strb	r2, [r4, #624]
 3696 0896 0133     		adds	r3, r3, #1
 3697              		.loc 1 555 0
 3698 0898 3146     		mov	r1, r6
 3699 089a 2846     		mov	r0, r5
 3700 089c 1FED440A 		vldr.32	s0, .L21+12
 3701              		.loc 1 554 0
 3702 08a0 0193     		str	r3, [sp, #4]
 3703              		.loc 1 555 0
 3704 08a2 FFF7FEFF 		bl	buffer_get_float16
 3705              	.LVL395:
ARM GAS  /tmp/cc4M9ACW.s 			page 66


 3706              		.loc 1 556 0
 3707 08a6 3146     		mov	r1, r6
 3708              		.loc 1 555 0
 3709 08a8 84ED9D0A 		vstr.32	s0, [r4, #628]
 3710              		.loc 1 556 0
 3711 08ac 2846     		mov	r0, r5
 3712 08ae 1FED480A 		vldr.32	s0, .L21+12
 3713 08b2 FFF7FEFF 		bl	buffer_get_float16
 3714              	.LVL396:
 3715              		.loc 1 557 0
 3716 08b6 3146     		mov	r1, r6
 3717              		.loc 1 556 0
 3718 08b8 84ED9E0A 		vstr.32	s0, [r4, #632]
 3719              		.loc 1 557 0
 3720 08bc 2846     		mov	r0, r5
 3721 08be 1FED4B0A 		vldr.32	s0, .L21+16
 3722 08c2 FFF7FEFF 		bl	buffer_get_float16
 3723              	.LVL397:
 3724              		.loc 1 558 0
 3725 08c6 2846     		mov	r0, r5
 3726              		.loc 1 557 0
 3727 08c8 84ED9F0A 		vstr.32	s0, [r4, #636]
 3728              		.loc 1 558 0
 3729 08cc 3146     		mov	r1, r6
 3730 08ce 1FED4F0A 		vldr.32	s0, .L21+16
 3731 08d2 FFF7FEFF 		bl	buffer_get_float16
 3732              	.LVL398:
 3733              		.loc 1 559 0
 3734 08d6 019B     		ldr	r3, [sp, #4]
 3735              		.loc 1 558 0
 3736 08d8 84EDA00A 		vstr.32	s0, [r4, #640]
 3737              		.loc 1 559 0
 3738 08dc EB5C     		ldrb	r3, [r5, r3]	@ zero_extendqisi2
 3739 08de 84F88432 		strb	r3, [r4, #644]
 3740              		.loc 1 561 0
 3741 08e2 0120     		movs	r0, #1
 3742              		.loc 1 562 0
 3743 08e4 03B0     		add	sp, sp, #12
 3744              		.cfi_def_cfa_offset 20
 3745              		@ sp needed
 3746 08e6 F0BD     		pop	{r4, r5, r6, r7, pc}
 3747              		.cfi_endproc
 3748              	.LFE221:
 3749              		.size	confgenerator_deserialize_mcconf, .-confgenerator_deserialize_mcconf
 3750              		.section	.text.confgenerator_deserialize_appconf,"ax",%progbits
 3751              		.align	1
 3752              		.p2align 4,,15
 3753              		.global	confgenerator_deserialize_appconf
 3754              		.syntax unified
 3755              		.thumb
 3756              		.thumb_func
 3757              		.fpu fpv4-sp-d16
 3758              		.type	confgenerator_deserialize_appconf, %function
 3759              	confgenerator_deserialize_appconf:
 3760              	.LFB222:
 3761              		.loc 1 564 0
 3762              		.cfi_startproc
ARM GAS  /tmp/cc4M9ACW.s 			page 67


 3763              		@ args = 0, pretend = 0, frame = 8
 3764              		@ frame_needed = 0, uses_anonymous_args = 0
 3765              	.LVL399:
 3766 0000 F0B5     		push	{r4, r5, r6, r7, lr}
 3767              		.cfi_def_cfa_offset 20
 3768              		.cfi_offset 4, -20
 3769              		.cfi_offset 5, -16
 3770              		.cfi_offset 6, -12
 3771              		.cfi_offset 7, -8
 3772              		.cfi_offset 14, -4
 3773 0002 83B0     		sub	sp, sp, #12
 3774              		.cfi_def_cfa_offset 32
 3775              		.loc 1 565 0
 3776 0004 02AE     		add	r6, sp, #8
 3777 0006 0027     		movs	r7, #0
 3778 0008 46F8047D 		str	r7, [r6, #-4]!
 3779              		.loc 1 564 0
 3780 000c 0C46     		mov	r4, r1
 3781              		.loc 1 567 0
 3782 000e 3146     		mov	r1, r6
 3783              	.LVL400:
 3784              		.loc 1 564 0
 3785 0010 0546     		mov	r5, r0
 3786              		.loc 1 567 0
 3787 0012 FFF7FEFF 		bl	buffer_get_uint32
 3788              	.LVL401:
 3789              		.loc 1 568 0
 3790 0016 034B     		ldr	r3, .L29
 3791 0018 9842     		cmp	r0, r3
 3792 001a 05D0     		beq	.L28
 3793              		.loc 1 569 0
 3794 001c 3846     		mov	r0, r7
 3795              	.LVL402:
 3796              		.loc 1 747 0
 3797 001e 03B0     		add	sp, sp, #12
 3798              		.cfi_remember_state
 3799              		.cfi_def_cfa_offset 20
 3800              		@ sp needed
 3801 0020 F0BD     		pop	{r4, r5, r6, r7, pc}
 3802              	.LVL403:
 3803              	.L30:
 3804 0022 00BF     		.align	2
 3805              	.L29:
 3806 0024 57E088DE 		.word	-561455017
 3807              	.LVL404:
 3808              	.L28:
 3809              		.cfi_restore_state
 3810              		.loc 1 572 0
 3811 0028 019B     		ldr	r3, [sp, #4]
 3812 002a EA5C     		ldrb	r2, [r5, r3]	@ zero_extendqisi2
 3813 002c 2270     		strb	r2, [r4]
 3814 002e 0133     		adds	r3, r3, #1
 3815              		.loc 1 573 0
 3816 0030 3146     		mov	r1, r6
 3817 0032 2846     		mov	r0, r5
 3818              	.LVL405:
 3819              		.loc 1 572 0
ARM GAS  /tmp/cc4M9ACW.s 			page 68


 3820 0034 0193     		str	r3, [sp, #4]
 3821              		.loc 1 573 0
 3822 0036 FFF7FEFF 		bl	buffer_get_uint32
 3823              	.LVL406:
 3824              		.loc 1 574 0
 3825 003a 3146     		mov	r1, r6
 3826              		.loc 1 573 0
 3827 003c 6060     		str	r0, [r4, #4]
 3828              		.loc 1 574 0
 3829 003e 2846     		mov	r0, r5
 3830 0040 FFF7FEFF 		bl	buffer_get_float32_auto
 3831              	.LVL407:
 3832              		.loc 1 575 0
 3833 0044 019B     		ldr	r3, [sp, #4]
 3834              		.loc 1 574 0
 3835 0046 84ED020A 		vstr.32	s0, [r4, #8]
 3836              		.loc 1 575 0
 3837 004a EA5C     		ldrb	r2, [r5, r3]	@ zero_extendqisi2
 3838 004c 2273     		strb	r2, [r4, #12]
 3839 004e 0133     		adds	r3, r3, #1
 3840              		.loc 1 576 0
 3841 0050 3146     		mov	r1, r6
 3842 0052 2846     		mov	r0, r5
 3843              		.loc 1 575 0
 3844 0054 0193     		str	r3, [sp, #4]
 3845              		.loc 1 576 0
 3846 0056 FFF7FEFF 		bl	buffer_get_uint16
 3847              	.LVL408:
 3848              		.loc 1 577 0
 3849 005a 019A     		ldr	r2, [sp, #4]
 3850              		.loc 1 576 0
 3851 005c 2061     		str	r0, [r4, #16]
 3852              		.loc 1 577 0
 3853 005e AB5C     		ldrb	r3, [r5, r2]	@ zero_extendqisi2
 3854 0060 2375     		strb	r3, [r4, #20]
 3855              		.loc 1 578 0
 3856 0062 AB18     		adds	r3, r5, r2
 3857              		.loc 1 583 0
 3858 0064 0732     		adds	r2, r2, #7
 3859              		.loc 1 578 0
 3860 0066 5978     		ldrb	r1, [r3, #1]	@ zero_extendqisi2
 3861              		.loc 1 583 0
 3862 0068 0192     		str	r2, [sp, #4]
 3863              		.loc 1 578 0
 3864 006a CA1B     		subs	r2, r1, r7
 3865 006c 18BF     		it	ne
 3866 006e 0122     		movne	r2, #1
 3867 0070 6275     		strb	r2, [r4, #21]
 3868              		.loc 1 579 0
 3869 0072 9A78     		ldrb	r2, [r3, #2]	@ zero_extendqisi2
 3870 0074 D21B     		subs	r2, r2, r7
 3871 0076 18BF     		it	ne
 3872 0078 0122     		movne	r2, #1
 3873 007a A275     		strb	r2, [r4, #22]
 3874              		.loc 1 580 0
 3875 007c DA78     		ldrb	r2, [r3, #3]	@ zero_extendqisi2
 3876 007e E275     		strb	r2, [r4, #23]
ARM GAS  /tmp/cc4M9ACW.s 			page 69


 3877              		.loc 1 581 0
 3878 0080 1A79     		ldrb	r2, [r3, #4]	@ zero_extendqisi2
 3879 0082 A276     		strb	r2, [r4, #26]
 3880              		.loc 1 582 0
 3881 0084 5A79     		ldrb	r2, [r3, #5]	@ zero_extendqisi2
 3882 0086 E276     		strb	r2, [r4, #27]
 3883              		.loc 1 583 0
 3884 0088 9B79     		ldrb	r3, [r3, #6]	@ zero_extendqisi2
 3885 008a 2377     		strb	r3, [r4, #28]
 3886              		.loc 1 584 0
 3887 008c 3146     		mov	r1, r6
 3888 008e 2846     		mov	r0, r5
 3889 0090 FFF7FEFF 		bl	buffer_get_float32_auto
 3890              	.LVL409:
 3891              		.loc 1 585 0
 3892 0094 019B     		ldr	r3, [sp, #4]
 3893              		.loc 1 584 0
 3894 0096 84ED080A 		vstr.32	s0, [r4, #32]
 3895              		.loc 1 585 0
 3896 009a E95C     		ldrb	r1, [r5, r3]	@ zero_extendqisi2
 3897 009c C91B     		subs	r1, r1, r7
 3898 009e 18BF     		it	ne
 3899 00a0 0121     		movne	r1, #1
 3900              		.loc 1 586 0
 3901 00a2 EA18     		adds	r2, r5, r3
 3902              		.loc 1 585 0
 3903 00a4 2176     		strb	r1, [r4, #24]
 3904              		.loc 1 586 0
 3905 00a6 5178     		ldrb	r1, [r2, #1]	@ zero_extendqisi2
 3906 00a8 6176     		strb	r1, [r4, #25]
 3907              		.loc 1 587 0
 3908 00aa 9178     		ldrb	r1, [r2, #2]	@ zero_extendqisi2
 3909 00ac 84F82410 		strb	r1, [r4, #36]
 3910              		.loc 1 588 0
 3911 00b0 D278     		ldrb	r2, [r2, #3]	@ zero_extendqisi2
 3912 00b2 84F82820 		strb	r2, [r4, #40]
 3913 00b6 0433     		adds	r3, r3, #4
 3914              		.loc 1 589 0
 3915 00b8 3146     		mov	r1, r6
 3916 00ba 2846     		mov	r0, r5
 3917              		.loc 1 588 0
 3918 00bc 0193     		str	r3, [sp, #4]
 3919              		.loc 1 589 0
 3920 00be FFF7FEFF 		bl	buffer_get_float32_auto
 3921              	.LVL410:
 3922              		.loc 1 590 0
 3923 00c2 3146     		mov	r1, r6
 3924 00c4 2846     		mov	r0, r5
 3925              		.loc 1 589 0
 3926 00c6 84ED0B0A 		vstr.32	s0, [r4, #44]
 3927              		.loc 1 590 0
 3928 00ca FFF7FEFF 		bl	buffer_get_float32_auto
 3929              	.LVL411:
 3930              		.loc 1 591 0
 3931 00ce 3146     		mov	r1, r6
 3932 00d0 2846     		mov	r0, r5
 3933              		.loc 1 590 0
ARM GAS  /tmp/cc4M9ACW.s 			page 70


 3934 00d2 84ED0C0A 		vstr.32	s0, [r4, #48]
 3935              		.loc 1 591 0
 3936 00d6 FFF7FEFF 		bl	buffer_get_float32_auto
 3937              	.LVL412:
 3938              		.loc 1 592 0
 3939 00da 3146     		mov	r1, r6
 3940 00dc 2846     		mov	r0, r5
 3941              		.loc 1 591 0
 3942 00de 84ED0D0A 		vstr.32	s0, [r4, #52]
 3943              		.loc 1 592 0
 3944 00e2 FFF7FEFF 		bl	buffer_get_float32_auto
 3945              	.LVL413:
 3946              		.loc 1 593 0
 3947 00e6 3146     		mov	r1, r6
 3948 00e8 2846     		mov	r0, r5
 3949              		.loc 1 592 0
 3950 00ea 84ED0E0A 		vstr.32	s0, [r4, #56]
 3951              		.loc 1 593 0
 3952 00ee FFF7FEFF 		bl	buffer_get_float32_auto
 3953              	.LVL414:
 3954              		.loc 1 594 0
 3955 00f2 019B     		ldr	r3, [sp, #4]
 3956              		.loc 1 593 0
 3957 00f4 84ED0F0A 		vstr.32	s0, [r4, #60]
 3958              		.loc 1 594 0
 3959 00f8 EA5C     		ldrb	r2, [r5, r3]	@ zero_extendqisi2
 3960 00fa D21B     		subs	r2, r2, r7
 3961 00fc 18BF     		it	ne
 3962 00fe 0122     		movne	r2, #1
 3963              		.loc 1 595 0
 3964 0100 E918     		adds	r1, r5, r3
 3965              		.loc 1 594 0
 3966 0102 84F84020 		strb	r2, [r4, #64]
 3967              		.loc 1 595 0
 3968 0106 4A78     		ldrb	r2, [r1, #1]	@ zero_extendqisi2
 3969 0108 84F84120 		strb	r2, [r4, #65]
 3970 010c 0233     		adds	r3, r3, #2
 3971              		.loc 1 596 0
 3972 010e 3146     		mov	r1, r6
 3973 0110 2846     		mov	r0, r5
 3974              		.loc 1 595 0
 3975 0112 0193     		str	r3, [sp, #4]
 3976              		.loc 1 596 0
 3977 0114 FFF7FEFF 		bl	buffer_get_float32_auto
 3978              	.LVL415:
 3979              		.loc 1 597 0
 3980 0118 3146     		mov	r1, r6
 3981 011a 2846     		mov	r0, r5
 3982              		.loc 1 596 0
 3983 011c 84ED110A 		vstr.32	s0, [r4, #68]
 3984              		.loc 1 597 0
 3985 0120 FFF7FEFF 		bl	buffer_get_float32_auto
 3986              	.LVL416:
 3987              		.loc 1 598 0
 3988 0124 019B     		ldr	r3, [sp, #4]
 3989              		.loc 1 597 0
 3990 0126 84ED120A 		vstr.32	s0, [r4, #72]
ARM GAS  /tmp/cc4M9ACW.s 			page 71


 3991              		.loc 1 598 0
 3992 012a EA5C     		ldrb	r2, [r5, r3]	@ zero_extendqisi2
 3993 012c 84F84C20 		strb	r2, [r4, #76]
 3994 0130 0133     		adds	r3, r3, #1
 3995              		.loc 1 599 0
 3996 0132 3146     		mov	r1, r6
 3997 0134 2846     		mov	r0, r5
 3998              		.loc 1 598 0
 3999 0136 0193     		str	r3, [sp, #4]
 4000              		.loc 1 599 0
 4001 0138 FFF7FEFF 		bl	buffer_get_float32_auto
 4002              	.LVL417:
 4003              		.loc 1 600 0
 4004 013c 3146     		mov	r1, r6
 4005 013e 2846     		mov	r0, r5
 4006              		.loc 1 599 0
 4007 0140 84ED140A 		vstr.32	s0, [r4, #80]
 4008              		.loc 1 600 0
 4009 0144 FFF7FEFF 		bl	buffer_get_float32_auto
 4010              	.LVL418:
 4011              		.loc 1 601 0
 4012 0148 019B     		ldr	r3, [sp, #4]
 4013              		.loc 1 600 0
 4014 014a 84ED150A 		vstr.32	s0, [r4, #84]
 4015              		.loc 1 601 0
 4016 014e EA5C     		ldrb	r2, [r5, r3]	@ zero_extendqisi2
 4017 0150 D21B     		subs	r2, r2, r7
 4018              		.loc 1 602 0
 4019 0152 05EB0301 		add	r1, r5, r3
 4020              		.loc 1 601 0
 4021 0156 18BF     		it	ne
 4022 0158 0122     		movne	r2, #1
 4023 015a 84F85820 		strb	r2, [r4, #88]
 4024              		.loc 1 602 0
 4025 015e 4A78     		ldrb	r2, [r1, #1]	@ zero_extendqisi2
 4026 0160 D21B     		subs	r2, r2, r7
 4027 0162 18BF     		it	ne
 4028 0164 0122     		movne	r2, #1
 4029 0166 84F85920 		strb	r2, [r4, #89]
 4030 016a 0233     		adds	r3, r3, #2
 4031              		.loc 1 603 0
 4032 016c 3146     		mov	r1, r6
 4033 016e 2846     		mov	r0, r5
 4034              		.loc 1 602 0
 4035 0170 0193     		str	r3, [sp, #4]
 4036              		.loc 1 603 0
 4037 0172 FFF7FEFF 		bl	buffer_get_float32_auto
 4038              	.LVL419:
 4039              		.loc 1 604 0
 4040 0176 3146     		mov	r1, r6
 4041              		.loc 1 603 0
 4042 0178 84ED170A 		vstr.32	s0, [r4, #92]
 4043              		.loc 1 604 0
 4044 017c 2846     		mov	r0, r5
 4045 017e B7EE000A 		vmov.f32	s0, #1.0e+0
 4046 0182 FFF7FEFF 		bl	buffer_get_float16
 4047              	.LVL420:
ARM GAS  /tmp/cc4M9ACW.s 			page 72


 4048              		.loc 1 605 0
 4049 0186 3146     		mov	r1, r6
 4050 0188 2846     		mov	r0, r5
 4051              		.loc 1 604 0
 4052 018a 84ED180A 		vstr.32	s0, [r4, #96]
 4053              		.loc 1 605 0
 4054 018e FFF7FEFF 		bl	buffer_get_float32_auto
 4055              	.LVL421:
 4056              		.loc 1 606 0
 4057 0192 3146     		mov	r1, r6
 4058 0194 2846     		mov	r0, r5
 4059              		.loc 1 605 0
 4060 0196 84ED190A 		vstr.32	s0, [r4, #100]
 4061              		.loc 1 606 0
 4062 019a FFF7FEFF 		bl	buffer_get_float32_auto
 4063              	.LVL422:
 4064              		.loc 1 607 0
 4065 019e 019B     		ldr	r3, [sp, #4]
 4066              		.loc 1 606 0
 4067 01a0 84ED1A0A 		vstr.32	s0, [r4, #104]
 4068              		.loc 1 607 0
 4069 01a4 EA5C     		ldrb	r2, [r5, r3]	@ zero_extendqisi2
 4070 01a6 84F86C20 		strb	r2, [r4, #108]
 4071 01aa 0133     		adds	r3, r3, #1
 4072              		.loc 1 608 0
 4073 01ac 3146     		mov	r1, r6
 4074 01ae 2846     		mov	r0, r5
 4075              		.loc 1 607 0
 4076 01b0 0193     		str	r3, [sp, #4]
 4077              		.loc 1 608 0
 4078 01b2 FFF7FEFF 		bl	buffer_get_float32_auto
 4079              	.LVL423:
 4080              		.loc 1 609 0
 4081 01b6 3146     		mov	r1, r6
 4082 01b8 2846     		mov	r0, r5
 4083              		.loc 1 608 0
 4084 01ba 84ED1C0A 		vstr.32	s0, [r4, #112]
 4085              		.loc 1 609 0
 4086 01be FFF7FEFF 		bl	buffer_get_float32_auto
 4087              	.LVL424:
 4088              		.loc 1 610 0
 4089 01c2 3146     		mov	r1, r6
 4090 01c4 2846     		mov	r0, r5
 4091              		.loc 1 609 0
 4092 01c6 84ED1D0A 		vstr.32	s0, [r4, #116]
 4093              		.loc 1 610 0
 4094 01ca FFF7FEFF 		bl	buffer_get_float32_auto
 4095              	.LVL425:
 4096              		.loc 1 611 0
 4097 01ce 3146     		mov	r1, r6
 4098 01d0 2846     		mov	r0, r5
 4099              		.loc 1 610 0
 4100 01d2 84ED1E0A 		vstr.32	s0, [r4, #120]
 4101              		.loc 1 611 0
 4102 01d6 FFF7FEFF 		bl	buffer_get_float32_auto
 4103              	.LVL426:
 4104              		.loc 1 612 0
ARM GAS  /tmp/cc4M9ACW.s 			page 73


 4105 01da 3146     		mov	r1, r6
 4106 01dc 2846     		mov	r0, r5
 4107              		.loc 1 611 0
 4108 01de 84ED1F0A 		vstr.32	s0, [r4, #124]
 4109              		.loc 1 612 0
 4110 01e2 FFF7FEFF 		bl	buffer_get_float32_auto
 4111              	.LVL427:
 4112              		.loc 1 613 0
 4113 01e6 3146     		mov	r1, r6
 4114 01e8 2846     		mov	r0, r5
 4115              		.loc 1 612 0
 4116 01ea 84ED200A 		vstr.32	s0, [r4, #128]
 4117              		.loc 1 613 0
 4118 01ee FFF7FEFF 		bl	buffer_get_float32_auto
 4119              	.LVL428:
 4120              		.loc 1 614 0
 4121 01f2 019B     		ldr	r3, [sp, #4]
 4122              		.loc 1 613 0
 4123 01f4 84ED210A 		vstr.32	s0, [r4, #132]
 4124              		.loc 1 614 0
 4125 01f8 E95C     		ldrb	r1, [r5, r3]	@ zero_extendqisi2
 4126 01fa C91B     		subs	r1, r1, r7
 4127              		.loc 1 615 0
 4128 01fc 05EB0302 		add	r2, r5, r3
 4129              		.loc 1 614 0
 4130 0200 18BF     		it	ne
 4131 0202 0121     		movne	r1, #1
 4132 0204 84F88810 		strb	r1, [r4, #136]
 4133              		.loc 1 615 0
 4134 0208 5178     		ldrb	r1, [r2, #1]	@ zero_extendqisi2
 4135 020a 84F88910 		strb	r1, [r4, #137]
 4136              		.loc 1 616 0
 4137 020e 9178     		ldrb	r1, [r2, #2]	@ zero_extendqisi2
 4138 0210 C91B     		subs	r1, r1, r7
 4139 0212 18BF     		it	ne
 4140 0214 0121     		movne	r1, #1
 4141 0216 84F88A10 		strb	r1, [r4, #138]
 4142              		.loc 1 617 0
 4143 021a D178     		ldrb	r1, [r2, #3]	@ zero_extendqisi2
 4144 021c C91B     		subs	r1, r1, r7
 4145 021e 18BF     		it	ne
 4146 0220 0121     		movne	r1, #1
 4147 0222 84F88B10 		strb	r1, [r4, #139]
 4148              		.loc 1 618 0
 4149 0226 1179     		ldrb	r1, [r2, #4]	@ zero_extendqisi2
 4150 0228 C91B     		subs	r1, r1, r7
 4151 022a 18BF     		it	ne
 4152 022c 0121     		movne	r1, #1
 4153 022e 84F88C10 		strb	r1, [r4, #140]
 4154              		.loc 1 619 0
 4155 0232 5279     		ldrb	r2, [r2, #5]	@ zero_extendqisi2
 4156 0234 D21B     		subs	r2, r2, r7
 4157 0236 18BF     		it	ne
 4158 0238 0122     		movne	r2, #1
 4159 023a 0633     		adds	r3, r3, #6
 4160 023c 84F88D20 		strb	r2, [r4, #141]
 4161              		.loc 1 620 0
ARM GAS  /tmp/cc4M9ACW.s 			page 74


 4162 0240 3146     		mov	r1, r6
 4163 0242 2846     		mov	r0, r5
 4164              		.loc 1 619 0
 4165 0244 0193     		str	r3, [sp, #4]
 4166              		.loc 1 620 0
 4167 0246 FFF7FEFF 		bl	buffer_get_float32_auto
 4168              	.LVL429:
 4169              		.loc 1 621 0
 4170 024a 3146     		mov	r1, r6
 4171 024c 2846     		mov	r0, r5
 4172              		.loc 1 620 0
 4173 024e 84ED240A 		vstr.32	s0, [r4, #144]
 4174              		.loc 1 621 0
 4175 0252 FFF7FEFF 		bl	buffer_get_float32_auto
 4176              	.LVL430:
 4177              		.loc 1 622 0
 4178 0256 019B     		ldr	r3, [sp, #4]
 4179              		.loc 1 621 0
 4180 0258 84ED250A 		vstr.32	s0, [r4, #148]
 4181              		.loc 1 622 0
 4182 025c EA5C     		ldrb	r2, [r5, r3]	@ zero_extendqisi2
 4183 025e 84F89820 		strb	r2, [r4, #152]
 4184 0262 0133     		adds	r3, r3, #1
 4185              		.loc 1 623 0
 4186 0264 3146     		mov	r1, r6
 4187 0266 2846     		mov	r0, r5
 4188              		.loc 1 622 0
 4189 0268 0193     		str	r3, [sp, #4]
 4190              		.loc 1 623 0
 4191 026a FFF7FEFF 		bl	buffer_get_float32_auto
 4192              	.LVL431:
 4193              		.loc 1 624 0
 4194 026e 3146     		mov	r1, r6
 4195 0270 2846     		mov	r0, r5
 4196              		.loc 1 623 0
 4197 0272 84ED270A 		vstr.32	s0, [r4, #156]
 4198              		.loc 1 624 0
 4199 0276 FFF7FEFF 		bl	buffer_get_float32_auto
 4200              	.LVL432:
 4201              		.loc 1 625 0
 4202 027a 019B     		ldr	r3, [sp, #4]
 4203              		.loc 1 624 0
 4204 027c 84ED280A 		vstr.32	s0, [r4, #160]
 4205              		.loc 1 625 0
 4206 0280 EA5C     		ldrb	r2, [r5, r3]	@ zero_extendqisi2
 4207 0282 D21B     		subs	r2, r2, r7
 4208              		.loc 1 626 0
 4209 0284 05EB0301 		add	r1, r5, r3
 4210              		.loc 1 625 0
 4211 0288 18BF     		it	ne
 4212 028a 0122     		movne	r2, #1
 4213 028c 84F8A420 		strb	r2, [r4, #164]
 4214              		.loc 1 626 0
 4215 0290 4A78     		ldrb	r2, [r1, #1]	@ zero_extendqisi2
 4216 0292 D21B     		subs	r2, r2, r7
 4217 0294 18BF     		it	ne
 4218 0296 0122     		movne	r2, #1
ARM GAS  /tmp/cc4M9ACW.s 			page 75


 4219 0298 84F8A520 		strb	r2, [r4, #165]
 4220 029c 0233     		adds	r3, r3, #2
 4221              		.loc 1 627 0
 4222 029e 3146     		mov	r1, r6
 4223 02a0 2846     		mov	r0, r5
 4224              		.loc 1 626 0
 4225 02a2 0193     		str	r3, [sp, #4]
 4226              		.loc 1 627 0
 4227 02a4 FFF7FEFF 		bl	buffer_get_float32_auto
 4228              	.LVL433:
 4229              		.loc 1 628 0
 4230 02a8 3146     		mov	r1, r6
 4231              		.loc 1 627 0
 4232 02aa 84ED2A0A 		vstr.32	s0, [r4, #168]
 4233              		.loc 1 628 0
 4234 02ae 2846     		mov	r0, r5
 4235 02b0 FFF7FEFF 		bl	buffer_get_uint16
 4236              	.LVL434:
 4237              		.loc 1 629 0
 4238 02b4 3146     		mov	r1, r6
 4239              		.loc 1 628 0
 4240 02b6 C4F8AC00 		str	r0, [r4, #172]
 4241              		.loc 1 629 0
 4242 02ba 2846     		mov	r0, r5
 4243 02bc FFF7FEFF 		bl	buffer_get_uint32
 4244              	.LVL435:
 4245              		.loc 1 630 0
 4246 02c0 019B     		ldr	r3, [sp, #4]
 4247              		.loc 1 629 0
 4248 02c2 C4F8B000 		str	r0, [r4, #176]
 4249              		.loc 1 630 0
 4250 02c6 EA5C     		ldrb	r2, [r5, r3]	@ zero_extendqisi2
 4251 02c8 84F8B420 		strb	r2, [r4, #180]
 4252 02cc 0133     		adds	r3, r3, #1
 4253              		.loc 1 631 0
 4254 02ce 3146     		mov	r1, r6
 4255 02d0 2846     		mov	r0, r5
 4256              		.loc 1 630 0
 4257 02d2 0193     		str	r3, [sp, #4]
 4258              		.loc 1 631 0
 4259 02d4 FFF7FEFF 		bl	buffer_get_float32_auto
 4260              	.LVL436:
 4261              		.loc 1 632 0
 4262 02d8 3146     		mov	r1, r6
 4263 02da 2846     		mov	r0, r5
 4264              		.loc 1 631 0
 4265 02dc 84ED2E0A 		vstr.32	s0, [r4, #184]
 4266              		.loc 1 632 0
 4267 02e0 FFF7FEFF 		bl	buffer_get_float32_auto
 4268              	.LVL437:
 4269              		.loc 1 633 0
 4270 02e4 3146     		mov	r1, r6
 4271 02e6 2846     		mov	r0, r5
 4272              		.loc 1 632 0
 4273 02e8 84ED2F0A 		vstr.32	s0, [r4, #188]
 4274              		.loc 1 633 0
 4275 02ec FFF7FEFF 		bl	buffer_get_float32_auto
ARM GAS  /tmp/cc4M9ACW.s 			page 76


 4276              	.LVL438:
 4277              		.loc 1 634 0
 4278 02f0 3146     		mov	r1, r6
 4279 02f2 2846     		mov	r0, r5
 4280              		.loc 1 633 0
 4281 02f4 84ED300A 		vstr.32	s0, [r4, #192]
 4282              		.loc 1 634 0
 4283 02f8 FFF7FEFF 		bl	buffer_get_float32_auto
 4284              	.LVL439:
 4285              		.loc 1 635 0
 4286 02fc 3146     		mov	r1, r6
 4287 02fe 2846     		mov	r0, r5
 4288              		.loc 1 634 0
 4289 0300 84ED310A 		vstr.32	s0, [r4, #196]
 4290              		.loc 1 635 0
 4291 0304 FFF7FEFF 		bl	buffer_get_float32_auto
 4292              	.LVL440:
 4293              		.loc 1 636 0
 4294 0308 3146     		mov	r1, r6
 4295 030a 2846     		mov	r0, r5
 4296              		.loc 1 635 0
 4297 030c 84ED320A 		vstr.32	s0, [r4, #200]
 4298              		.loc 1 636 0
 4299 0310 FFF7FEFF 		bl	buffer_get_float32_auto
 4300              	.LVL441:
 4301              		.loc 1 637 0
 4302 0314 019B     		ldr	r3, [sp, #4]
 4303              		.loc 1 636 0
 4304 0316 84ED330A 		vstr.32	s0, [r4, #204]
 4305              		.loc 1 637 0
 4306 031a EA5C     		ldrb	r2, [r5, r3]	@ zero_extendqisi2
 4307 031c 84F8D020 		strb	r2, [r4, #208]
 4308              		.loc 1 638 0
 4309 0320 E918     		adds	r1, r5, r3
 4310              		.loc 1 639 0
 4311 0322 0333     		adds	r3, r3, #3
 4312              		.loc 1 638 0
 4313 0324 4A78     		ldrb	r2, [r1, #1]	@ zero_extendqisi2
 4314              		.loc 1 639 0
 4315 0326 0193     		str	r3, [sp, #4]
 4316              		.loc 1 638 0
 4317 0328 D31B     		subs	r3, r2, r7
 4318 032a 18BF     		it	ne
 4319 032c 0123     		movne	r3, #1
 4320 032e 84F8D130 		strb	r3, [r4, #209]
 4321              		.loc 1 639 0
 4322 0332 8B78     		ldrb	r3, [r1, #2]	@ zero_extendqisi2
 4323 0334 DB1B     		subs	r3, r3, r7
 4324 0336 18BF     		it	ne
 4325 0338 0123     		movne	r3, #1
 4326 033a 84F8D230 		strb	r3, [r4, #210]
 4327              		.loc 1 640 0
 4328 033e 3146     		mov	r1, r6
 4329 0340 2846     		mov	r0, r5
 4330 0342 FFF7FEFF 		bl	buffer_get_float32_auto
 4331              	.LVL442:
 4332              		.loc 1 641 0
ARM GAS  /tmp/cc4M9ACW.s 			page 77


 4333 0346 019B     		ldr	r3, [sp, #4]
 4334              		.loc 1 640 0
 4335 0348 84ED350A 		vstr.32	s0, [r4, #212]
 4336              		.loc 1 641 0
 4337 034c EA5C     		ldrb	r2, [r5, r3]	@ zero_extendqisi2
 4338 034e D21B     		subs	r2, r2, r7
 4339 0350 18BF     		it	ne
 4340 0352 0122     		movne	r2, #1
 4341 0354 84F8D820 		strb	r2, [r4, #216]
 4342 0358 0133     		adds	r3, r3, #1
 4343              		.loc 1 642 0
 4344 035a 3146     		mov	r1, r6
 4345 035c 2846     		mov	r0, r5
 4346              		.loc 1 641 0
 4347 035e 0193     		str	r3, [sp, #4]
 4348              		.loc 1 642 0
 4349 0360 FFF7FEFF 		bl	buffer_get_float32_auto
 4350              	.LVL443:
 4351              		.loc 1 643 0
 4352 0364 3146     		mov	r1, r6
 4353 0366 2846     		mov	r0, r5
 4354              		.loc 1 642 0
 4355 0368 84ED370A 		vstr.32	s0, [r4, #220]
 4356              		.loc 1 643 0
 4357 036c FFF7FEFF 		bl	buffer_get_float32_auto
 4358              	.LVL444:
 4359              		.loc 1 644 0
 4360 0370 019A     		ldr	r2, [sp, #4]
 4361              		.loc 1 643 0
 4362 0372 84ED380A 		vstr.32	s0, [r4, #224]
 4363              		.loc 1 644 0
 4364 0376 AB5C     		ldrb	r3, [r5, r2]	@ zero_extendqisi2
 4365 0378 84F8E430 		strb	r3, [r4, #228]
 4366              		.loc 1 645 0
 4367 037c AB18     		adds	r3, r5, r2
 4368              		.loc 1 654 0
 4369 037e 2846     		mov	r0, r5
 4370              		.loc 1 645 0
 4371 0380 5978     		ldrb	r1, [r3, #1]	@ zero_extendqisi2
 4372 0382 84F8E510 		strb	r1, [r4, #229]
 4373              		.loc 1 646 0
 4374 0386 9978     		ldrb	r1, [r3, #2]	@ zero_extendqisi2
 4375 0388 84F8E610 		strb	r1, [r4, #230]
 4376              		.loc 1 647 0
 4377 038c D978     		ldrb	r1, [r3, #3]	@ zero_extendqisi2
 4378 038e 84F8E710 		strb	r1, [r4, #231]
 4379              		.loc 1 648 0
 4380 0392 1979     		ldrb	r1, [r3, #4]	@ zero_extendqisi2
 4381 0394 84F8E810 		strb	r1, [r4, #232]
 4382              		.loc 1 649 0
 4383 0398 5979     		ldrb	r1, [r3, #5]	@ zero_extendqisi2
 4384 039a 84F8E910 		strb	r1, [r4, #233]
 4385              		.loc 1 650 0
 4386 039e 9979     		ldrb	r1, [r3, #6]	@ zero_extendqisi2
 4387 03a0 84F8EA10 		strb	r1, [r4, #234]
 4388              		.loc 1 651 0
 4389 03a4 D979     		ldrb	r1, [r3, #7]	@ zero_extendqisi2
ARM GAS  /tmp/cc4M9ACW.s 			page 78


 4390 03a6 84F8EB10 		strb	r1, [r4, #235]
 4391              		.loc 1 652 0
 4392 03aa 197A     		ldrb	r1, [r3, #8]	@ zero_extendqisi2
 4393 03ac 84F8EC10 		strb	r1, [r4, #236]
 4394              		.loc 1 653 0
 4395 03b0 5B7A     		ldrb	r3, [r3, #9]	@ zero_extendqisi2
 4396 03b2 DB1B     		subs	r3, r3, r7
 4397 03b4 18BF     		it	ne
 4398 03b6 0123     		movne	r3, #1
 4399 03b8 0A32     		adds	r2, r2, #10
 4400 03ba 84F8ED30 		strb	r3, [r4, #237]
 4401              		.loc 1 654 0
 4402 03be 3146     		mov	r1, r6
 4403              		.loc 1 653 0
 4404 03c0 0192     		str	r2, [sp, #4]
 4405              		.loc 1 654 0
 4406 03c2 FFF7FEFF 		bl	buffer_get_float32_auto
 4407              	.LVL445:
 4408              		.loc 1 655 0
 4409 03c6 3146     		mov	r1, r6
 4410 03c8 2846     		mov	r0, r5
 4411              		.loc 1 654 0
 4412 03ca 84ED3C0A 		vstr.32	s0, [r4, #240]
 4413              		.loc 1 655 0
 4414 03ce FFF7FEFF 		bl	buffer_get_float32_auto
 4415              	.LVL446:
 4416              		.loc 1 656 0
 4417 03d2 3146     		mov	r1, r6
 4418 03d4 2846     		mov	r0, r5
 4419              		.loc 1 655 0
 4420 03d6 84ED3D0A 		vstr.32	s0, [r4, #244]
 4421              		.loc 1 656 0
 4422 03da FFF7FEFF 		bl	buffer_get_float32_auto
 4423              	.LVL447:
 4424              		.loc 1 657 0
 4425 03de 3146     		mov	r1, r6
 4426              		.loc 1 656 0
 4427 03e0 84ED3E0A 		vstr.32	s0, [r4, #248]
 4428              		.loc 1 657 0
 4429 03e4 2846     		mov	r0, r5
 4430 03e6 FFF7FEFF 		bl	buffer_get_uint16
 4431              	.LVL448:
 4432              		.loc 1 658 0
 4433 03ea 3146     		mov	r1, r6
 4434              		.loc 1 657 0
 4435 03ec A4F8FC00 		strh	r0, [r4, #252]	@ movhi
 4436              		.loc 1 658 0
 4437 03f0 2846     		mov	r0, r5
 4438 03f2 FFF7FEFF 		bl	buffer_get_uint16
 4439              	.LVL449:
 4440              		.loc 1 659 0
 4441 03f6 3146     		mov	r1, r6
 4442              		.loc 1 658 0
 4443 03f8 A4F8FE00 		strh	r0, [r4, #254]	@ movhi
 4444              		.loc 1 659 0
 4445 03fc 2846     		mov	r0, r5
 4446 03fe FFF7FEFF 		bl	buffer_get_float32_auto
ARM GAS  /tmp/cc4M9ACW.s 			page 79


 4447              	.LVL450:
 4448              		.loc 1 660 0
 4449 0402 3146     		mov	r1, r6
 4450 0404 2846     		mov	r0, r5
 4451              		.loc 1 659 0
 4452 0406 84ED400A 		vstr.32	s0, [r4, #256]
 4453              		.loc 1 660 0
 4454 040a FFF7FEFF 		bl	buffer_get_float32_auto
 4455              	.LVL451:
 4456              		.loc 1 661 0
 4457 040e 3146     		mov	r1, r6
 4458 0410 2846     		mov	r0, r5
 4459              		.loc 1 660 0
 4460 0412 84ED410A 		vstr.32	s0, [r4, #260]
 4461              		.loc 1 661 0
 4462 0416 FFF7FEFF 		bl	buffer_get_float32_auto
 4463              	.LVL452:
 4464              		.loc 1 662 0
 4465 041a 3146     		mov	r1, r6
 4466 041c 2846     		mov	r0, r5
 4467              		.loc 1 661 0
 4468 041e 84ED420A 		vstr.32	s0, [r4, #264]
 4469              		.loc 1 662 0
 4470 0422 FFF7FEFF 		bl	buffer_get_float32_auto
 4471              	.LVL453:
 4472              		.loc 1 663 0
 4473 0426 3146     		mov	r1, r6
 4474 0428 2846     		mov	r0, r5
 4475              		.loc 1 662 0
 4476 042a 84ED430A 		vstr.32	s0, [r4, #268]
 4477              		.loc 1 663 0
 4478 042e FFF7FEFF 		bl	buffer_get_float32_auto
 4479              	.LVL454:
 4480              		.loc 1 664 0
 4481 0432 3146     		mov	r1, r6
 4482              		.loc 1 663 0
 4483 0434 84ED440A 		vstr.32	s0, [r4, #272]
 4484              		.loc 1 664 0
 4485 0438 2846     		mov	r0, r5
 4486 043a FFF7FEFF 		bl	buffer_get_uint16
 4487              	.LVL455:
 4488              		.loc 1 665 0
 4489 043e 3146     		mov	r1, r6
 4490              		.loc 1 664 0
 4491 0440 A4F81401 		strh	r0, [r4, #276]	@ movhi
 4492              		.loc 1 665 0
 4493 0444 2846     		mov	r0, r5
 4494 0446 FFF7FEFF 		bl	buffer_get_uint16
 4495              	.LVL456:
 4496              		.loc 1 666 0
 4497 044a 3146     		mov	r1, r6
 4498              		.loc 1 665 0
 4499 044c A4F81601 		strh	r0, [r4, #278]	@ movhi
 4500              		.loc 1 666 0
 4501 0450 2846     		mov	r0, r5
 4502 0452 FFF7FEFF 		bl	buffer_get_uint16
 4503              	.LVL457:
ARM GAS  /tmp/cc4M9ACW.s 			page 80


 4504              		.loc 1 667 0
 4505 0456 3146     		mov	r1, r6
 4506              		.loc 1 666 0
 4507 0458 A4F81801 		strh	r0, [r4, #280]	@ movhi
 4508              		.loc 1 667 0
 4509 045c 2846     		mov	r0, r5
 4510 045e FFF7FEFF 		bl	buffer_get_uint16
 4511              	.LVL458:
 4512              		.loc 1 668 0
 4513 0462 3146     		mov	r1, r6
 4514              		.loc 1 667 0
 4515 0464 A4F81A01 		strh	r0, [r4, #282]	@ movhi
 4516              		.loc 1 668 0
 4517 0468 2846     		mov	r0, r5
 4518 046a FFF7FEFF 		bl	buffer_get_uint16
 4519              	.LVL459:
 4520              		.loc 1 669 0
 4521 046e 3146     		mov	r1, r6
 4522              		.loc 1 668 0
 4523 0470 A4F81C01 		strh	r0, [r4, #284]	@ movhi
 4524              		.loc 1 669 0
 4525 0474 2846     		mov	r0, r5
 4526 0476 FFF7FEFF 		bl	buffer_get_uint16
 4527              	.LVL460:
 4528              		.loc 1 670 0
 4529 047a 3146     		mov	r1, r6
 4530              		.loc 1 669 0
 4531 047c A4F81E01 		strh	r0, [r4, #286]	@ movhi
 4532              		.loc 1 670 0
 4533 0480 9FEDF20A 		vldr.32	s0, .L31
 4534 0484 2846     		mov	r0, r5
 4535 0486 FFF7FEFF 		bl	buffer_get_float16
 4536              	.LVL461:
 4537              		.loc 1 671 0
 4538 048a 3146     		mov	r1, r6
 4539              		.loc 1 670 0
 4540 048c 84ED480A 		vstr.32	s0, [r4, #288]
 4541              		.loc 1 671 0
 4542 0490 2846     		mov	r0, r5
 4543 0492 9FEDEE0A 		vldr.32	s0, .L31
 4544 0496 FFF7FEFF 		bl	buffer_get_float16
 4545              	.LVL462:
 4546              		.loc 1 672 0
 4547 049a 3146     		mov	r1, r6
 4548              		.loc 1 671 0
 4549 049c 84ED490A 		vstr.32	s0, [r4, #292]
 4550              		.loc 1 672 0
 4551 04a0 2846     		mov	r0, r5
 4552 04a2 9FEDEB0A 		vldr.32	s0, .L31+4
 4553 04a6 FFF7FEFF 		bl	buffer_get_float16
 4554              	.LVL463:
 4555              		.loc 1 673 0
 4556 04aa 3146     		mov	r1, r6
 4557              		.loc 1 672 0
 4558 04ac 84ED4A0A 		vstr.32	s0, [r4, #296]
 4559              		.loc 1 673 0
 4560 04b0 2846     		mov	r0, r5
ARM GAS  /tmp/cc4M9ACW.s 			page 81


 4561 04b2 9FEDE60A 		vldr.32	s0, .L31
 4562 04b6 FFF7FEFF 		bl	buffer_get_float16
 4563              	.LVL464:
 4564              		.loc 1 674 0
 4565 04ba 3146     		mov	r1, r6
 4566              		.loc 1 673 0
 4567 04bc 84ED4B0A 		vstr.32	s0, [r4, #300]
 4568              		.loc 1 674 0
 4569 04c0 2846     		mov	r0, r5
 4570 04c2 9FEDE20A 		vldr.32	s0, .L31
 4571 04c6 FFF7FEFF 		bl	buffer_get_float16
 4572              	.LVL465:
 4573              		.loc 1 675 0
 4574 04ca 3146     		mov	r1, r6
 4575 04cc 2846     		mov	r0, r5
 4576              		.loc 1 674 0
 4577 04ce 84ED4C0A 		vstr.32	s0, [r4, #304]
 4578              		.loc 1 675 0
 4579 04d2 FFF7FEFF 		bl	buffer_get_float32_auto
 4580              	.LVL466:
 4581              		.loc 1 676 0
 4582 04d6 3146     		mov	r1, r6
 4583              		.loc 1 675 0
 4584 04d8 84ED4D0A 		vstr.32	s0, [r4, #308]
 4585              		.loc 1 676 0
 4586 04dc 2846     		mov	r0, r5
 4587 04de 9FEDDB0A 		vldr.32	s0, .L31
 4588 04e2 FFF7FEFF 		bl	buffer_get_float16
 4589              	.LVL467:
 4590              		.loc 1 677 0
 4591 04e6 3146     		mov	r1, r6
 4592              		.loc 1 676 0
 4593 04e8 84ED4E0A 		vstr.32	s0, [r4, #312]
 4594              		.loc 1 677 0
 4595 04ec 2846     		mov	r0, r5
 4596 04ee 9FEDD70A 		vldr.32	s0, .L31
 4597 04f2 FFF7FEFF 		bl	buffer_get_float16
 4598              	.LVL468:
 4599              		.loc 1 678 0
 4600 04f6 3146     		mov	r1, r6
 4601 04f8 2846     		mov	r0, r5
 4602              		.loc 1 677 0
 4603 04fa 84ED4F0A 		vstr.32	s0, [r4, #316]
 4604              		.loc 1 678 0
 4605 04fe FFF7FEFF 		bl	buffer_get_float32_auto
 4606              	.LVL469:
 4607              		.loc 1 679 0
 4608 0502 3146     		mov	r1, r6
 4609              		.loc 1 678 0
 4610 0504 84ED500A 		vstr.32	s0, [r4, #320]
 4611              		.loc 1 679 0
 4612 0508 2846     		mov	r0, r5
 4613 050a 9FEDD00A 		vldr.32	s0, .L31
 4614 050e FFF7FEFF 		bl	buffer_get_float16
 4615              	.LVL470:
 4616              		.loc 1 680 0
 4617 0512 3146     		mov	r1, r6
ARM GAS  /tmp/cc4M9ACW.s 			page 82


 4618 0514 2846     		mov	r0, r5
 4619              		.loc 1 679 0
 4620 0516 84ED510A 		vstr.32	s0, [r4, #324]
 4621              		.loc 1 680 0
 4622 051a FFF7FEFF 		bl	buffer_get_float32_auto
 4623              	.LVL471:
 4624              		.loc 1 681 0
 4625 051e 3146     		mov	r1, r6
 4626              		.loc 1 680 0
 4627 0520 84ED520A 		vstr.32	s0, [r4, #328]
 4628              		.loc 1 681 0
 4629 0524 2846     		mov	r0, r5
 4630 0526 FFF7FEFF 		bl	buffer_get_uint16
 4631              	.LVL472:
 4632              		.loc 1 682 0
 4633 052a 3146     		mov	r1, r6
 4634              		.loc 1 681 0
 4635 052c A4F84C01 		strh	r0, [r4, #332]	@ movhi
 4636              		.loc 1 682 0
 4637 0530 2846     		mov	r0, r5
 4638 0532 FFF7FEFF 		bl	buffer_get_float32_auto
 4639              	.LVL473:
 4640              		.loc 1 683 0
 4641 0536 3146     		mov	r1, r6
 4642 0538 2846     		mov	r0, r5
 4643              		.loc 1 682 0
 4644 053a 84ED540A 		vstr.32	s0, [r4, #336]
 4645              		.loc 1 683 0
 4646 053e FFF7FEFF 		bl	buffer_get_float32_auto
 4647              	.LVL474:
 4648              		.loc 1 684 0
 4649 0542 3146     		mov	r1, r6
 4650              		.loc 1 683 0
 4651 0544 84ED550A 		vstr.32	s0, [r4, #340]
 4652              		.loc 1 684 0
 4653 0548 2846     		mov	r0, r5
 4654 054a 9FEDC00A 		vldr.32	s0, .L31
 4655 054e FFF7FEFF 		bl	buffer_get_float16
 4656              	.LVL475:
 4657              		.loc 1 685 0
 4658 0552 3146     		mov	r1, r6
 4659 0554 2846     		mov	r0, r5
 4660              		.loc 1 684 0
 4661 0556 84ED560A 		vstr.32	s0, [r4, #344]
 4662              		.loc 1 685 0
 4663 055a FFF7FEFF 		bl	buffer_get_float32_auto
 4664              	.LVL476:
 4665              		.loc 1 686 0
 4666 055e 3146     		mov	r1, r6
 4667 0560 2846     		mov	r0, r5
 4668              		.loc 1 685 0
 4669 0562 84ED570A 		vstr.32	s0, [r4, #348]
 4670              		.loc 1 686 0
 4671 0566 FFF7FEFF 		bl	buffer_get_float32_auto
 4672              	.LVL477:
 4673              		.loc 1 687 0
 4674 056a 3146     		mov	r1, r6
ARM GAS  /tmp/cc4M9ACW.s 			page 83


 4675 056c 2846     		mov	r0, r5
 4676              		.loc 1 686 0
 4677 056e 84ED580A 		vstr.32	s0, [r4, #352]
 4678              		.loc 1 687 0
 4679 0572 FFF7FEFF 		bl	buffer_get_float32_auto
 4680              	.LVL478:
 4681              		.loc 1 688 0
 4682 0576 3146     		mov	r1, r6
 4683 0578 2846     		mov	r0, r5
 4684              		.loc 1 687 0
 4685 057a 84ED590A 		vstr.32	s0, [r4, #356]
 4686              		.loc 1 688 0
 4687 057e FFF7FEFF 		bl	buffer_get_float32_auto
 4688              	.LVL479:
 4689              		.loc 1 689 0
 4690 0582 019B     		ldr	r3, [sp, #4]
 4691              		.loc 1 688 0
 4692 0584 84ED5A0A 		vstr.32	s0, [r4, #360]
 4693              		.loc 1 689 0
 4694 0588 EA5C     		ldrb	r2, [r5, r3]	@ zero_extendqisi2
 4695 058a D21B     		subs	r2, r2, r7
 4696 058c 18BF     		it	ne
 4697 058e 0122     		movne	r2, #1
 4698 0590 84F86C21 		strb	r2, [r4, #364]
 4699 0594 0133     		adds	r3, r3, #1
 4700              		.loc 1 690 0
 4701 0596 3146     		mov	r1, r6
 4702 0598 2846     		mov	r0, r5
 4703              		.loc 1 689 0
 4704 059a 0193     		str	r3, [sp, #4]
 4705              		.loc 1 690 0
 4706 059c FFF7FEFF 		bl	buffer_get_float32_auto
 4707              	.LVL480:
 4708              		.loc 1 691 0
 4709 05a0 3146     		mov	r1, r6
 4710 05a2 2846     		mov	r0, r5
 4711              		.loc 1 690 0
 4712 05a4 84ED5C0A 		vstr.32	s0, [r4, #368]
 4713              		.loc 1 691 0
 4714 05a8 FFF7FEFF 		bl	buffer_get_float32_auto
 4715              	.LVL481:
 4716              		.loc 1 692 0
 4717 05ac 3146     		mov	r1, r6
 4718 05ae 2846     		mov	r0, r5
 4719              		.loc 1 691 0
 4720 05b0 84ED5D0A 		vstr.32	s0, [r4, #372]
 4721              		.loc 1 692 0
 4722 05b4 FFF7FEFF 		bl	buffer_get_float32_auto
 4723              	.LVL482:
 4724              		.loc 1 693 0
 4725 05b8 3146     		mov	r1, r6
 4726 05ba 2846     		mov	r0, r5
 4727              		.loc 1 692 0
 4728 05bc 84ED5E0A 		vstr.32	s0, [r4, #376]
 4729              		.loc 1 693 0
 4730 05c0 FFF7FEFF 		bl	buffer_get_float32_auto
 4731              	.LVL483:
ARM GAS  /tmp/cc4M9ACW.s 			page 84


 4732              		.loc 1 694 0
 4733 05c4 3146     		mov	r1, r6
 4734 05c6 2846     		mov	r0, r5
 4735              		.loc 1 693 0
 4736 05c8 84ED5F0A 		vstr.32	s0, [r4, #380]
 4737              		.loc 1 694 0
 4738 05cc FFF7FEFF 		bl	buffer_get_float32_auto
 4739              	.LVL484:
 4740              		.loc 1 695 0
 4741 05d0 3146     		mov	r1, r6
 4742 05d2 2846     		mov	r0, r5
 4743              		.loc 1 694 0
 4744 05d4 84ED600A 		vstr.32	s0, [r4, #384]
 4745              		.loc 1 695 0
 4746 05d8 FFF7FEFF 		bl	buffer_get_float32_auto
 4747              	.LVL485:
 4748              		.loc 1 696 0
 4749 05dc 3146     		mov	r1, r6
 4750              		.loc 1 695 0
 4751 05de 84ED610A 		vstr.32	s0, [r4, #388]
 4752              		.loc 1 696 0
 4753 05e2 2846     		mov	r0, r5
 4754 05e4 FFF7FEFF 		bl	buffer_get_uint16
 4755              	.LVL486:
 4756              		.loc 1 697 0
 4757 05e8 3146     		mov	r1, r6
 4758              		.loc 1 696 0
 4759 05ea A4F88801 		strh	r0, [r4, #392]	@ movhi
 4760              		.loc 1 697 0
 4761 05ee 2846     		mov	r0, r5
 4762 05f0 FFF7FEFF 		bl	buffer_get_float32_auto
 4763              	.LVL487:
 4764              		.loc 1 698 0
 4765 05f4 3146     		mov	r1, r6
 4766              		.loc 1 697 0
 4767 05f6 84ED630A 		vstr.32	s0, [r4, #396]
 4768              		.loc 1 698 0
 4769 05fa 2846     		mov	r0, r5
 4770 05fc FFF7FEFF 		bl	buffer_get_uint16
 4771              	.LVL488:
 4772              		.loc 1 699 0
 4773 0600 3146     		mov	r1, r6
 4774              		.loc 1 698 0
 4775 0602 A4F89001 		strh	r0, [r4, #400]	@ movhi
 4776              		.loc 1 699 0
 4777 0606 2846     		mov	r0, r5
 4778 0608 FFF7FEFF 		bl	buffer_get_uint16
 4779              	.LVL489:
 4780              		.loc 1 700 0
 4781 060c 3146     		mov	r1, r6
 4782              		.loc 1 699 0
 4783 060e A4F89201 		strh	r0, [r4, #402]	@ movhi
 4784              		.loc 1 700 0
 4785 0612 2846     		mov	r0, r5
 4786 0614 FFF7FEFF 		bl	buffer_get_float32_auto
 4787              	.LVL490:
 4788              		.loc 1 701 0
ARM GAS  /tmp/cc4M9ACW.s 			page 85


 4789 0618 3146     		mov	r1, r6
 4790 061a 2846     		mov	r0, r5
 4791              		.loc 1 700 0
 4792 061c 84ED650A 		vstr.32	s0, [r4, #404]
 4793              		.loc 1 701 0
 4794 0620 FFF7FEFF 		bl	buffer_get_float32_auto
 4795              	.LVL491:
 4796              		.loc 1 702 0
 4797 0624 3146     		mov	r1, r6
 4798 0626 2846     		mov	r0, r5
 4799              		.loc 1 701 0
 4800 0628 84ED660A 		vstr.32	s0, [r4, #408]
 4801              		.loc 1 702 0
 4802 062c FFF7FEFF 		bl	buffer_get_float32_auto
 4803              	.LVL492:
 4804              		.loc 1 703 0
 4805 0630 3146     		mov	r1, r6
 4806 0632 2846     		mov	r0, r5
 4807              		.loc 1 702 0
 4808 0634 84ED670A 		vstr.32	s0, [r4, #412]
 4809              		.loc 1 703 0
 4810 0638 FFF7FEFF 		bl	buffer_get_float32_auto
 4811              	.LVL493:
 4812              		.loc 1 704 0
 4813 063c 3146     		mov	r1, r6
 4814 063e 2846     		mov	r0, r5
 4815              		.loc 1 703 0
 4816 0640 84ED680A 		vstr.32	s0, [r4, #416]
 4817              		.loc 1 704 0
 4818 0644 FFF7FEFF 		bl	buffer_get_float32_auto
 4819              	.LVL494:
 4820              		.loc 1 705 0
 4821 0648 3146     		mov	r1, r6
 4822 064a 2846     		mov	r0, r5
 4823              		.loc 1 704 0
 4824 064c 84ED690A 		vstr.32	s0, [r4, #420]
 4825              		.loc 1 705 0
 4826 0650 FFF7FEFF 		bl	buffer_get_float32_auto
 4827              	.LVL495:
 4828              		.loc 1 706 0
 4829 0654 3146     		mov	r1, r6
 4830 0656 2846     		mov	r0, r5
 4831              		.loc 1 705 0
 4832 0658 84ED6A0A 		vstr.32	s0, [r4, #424]
 4833              		.loc 1 706 0
 4834 065c FFF7FEFF 		bl	buffer_get_float32_auto
 4835              	.LVL496:
 4836              		.loc 1 707 0
 4837 0660 3146     		mov	r1, r6
 4838 0662 2846     		mov	r0, r5
 4839              		.loc 1 706 0
 4840 0664 84ED6B0A 		vstr.32	s0, [r4, #428]
 4841              		.loc 1 707 0
 4842 0668 FFF7FEFF 		bl	buffer_get_float32_auto
 4843              	.LVL497:
 4844              		.loc 1 708 0
 4845 066c 3146     		mov	r1, r6
ARM GAS  /tmp/cc4M9ACW.s 			page 86


 4846 066e 2846     		mov	r0, r5
 4847              		.loc 1 707 0
 4848 0670 84ED6C0A 		vstr.32	s0, [r4, #432]
 4849              		.loc 1 708 0
 4850 0674 FFF7FEFF 		bl	buffer_get_float32_auto
 4851              	.LVL498:
 4852              		.loc 1 709 0
 4853 0678 3146     		mov	r1, r6
 4854 067a 2846     		mov	r0, r5
 4855              		.loc 1 708 0
 4856 067c 84ED6D0A 		vstr.32	s0, [r4, #436]
 4857              		.loc 1 709 0
 4858 0680 FFF7FEFF 		bl	buffer_get_float32_auto
 4859              	.LVL499:
 4860              		.loc 1 710 0
 4861 0684 3146     		mov	r1, r6
 4862 0686 2846     		mov	r0, r5
 4863              		.loc 1 709 0
 4864 0688 84ED6E0A 		vstr.32	s0, [r4, #440]
 4865              		.loc 1 710 0
 4866 068c FFF7FEFF 		bl	buffer_get_float32_auto
 4867              	.LVL500:
 4868              		.loc 1 711 0
 4869 0690 3146     		mov	r1, r6
 4870 0692 2846     		mov	r0, r5
 4871              		.loc 1 710 0
 4872 0694 84ED6F0A 		vstr.32	s0, [r4, #444]
 4873              		.loc 1 711 0
 4874 0698 FFF7FEFF 		bl	buffer_get_float32_auto
 4875              	.LVL501:
 4876              		.loc 1 712 0
 4877 069c 3146     		mov	r1, r6
 4878 069e 2846     		mov	r0, r5
 4879              		.loc 1 711 0
 4880 06a0 84ED700A 		vstr.32	s0, [r4, #448]
 4881              		.loc 1 712 0
 4882 06a4 FFF7FEFF 		bl	buffer_get_float32_auto
 4883              	.LVL502:
 4884              		.loc 1 713 0
 4885 06a8 3146     		mov	r1, r6
 4886 06aa 2846     		mov	r0, r5
 4887              		.loc 1 712 0
 4888 06ac 84ED710A 		vstr.32	s0, [r4, #452]
 4889              		.loc 1 713 0
 4890 06b0 FFF7FEFF 		bl	buffer_get_float32_auto
 4891              	.LVL503:
 4892              		.loc 1 714 0
 4893 06b4 3146     		mov	r1, r6
 4894              		.loc 1 713 0
 4895 06b6 84ED720A 		vstr.32	s0, [r4, #456]
 4896              		.loc 1 714 0
 4897 06ba 2846     		mov	r0, r5
 4898 06bc FFF7FEFF 		bl	buffer_get_uint16
 4899              	.LVL504:
 4900              		.loc 1 715 0
 4901 06c0 3146     		mov	r1, r6
 4902              		.loc 1 714 0
ARM GAS  /tmp/cc4M9ACW.s 			page 87


 4903 06c2 A4F8CC01 		strh	r0, [r4, #460]	@ movhi
 4904              		.loc 1 715 0
 4905 06c6 2846     		mov	r0, r5
 4906 06c8 FFF7FEFF 		bl	buffer_get_float32_auto
 4907              	.LVL505:
 4908              		.loc 1 716 0
 4909 06cc 3146     		mov	r1, r6
 4910              		.loc 1 715 0
 4911 06ce 84ED740A 		vstr.32	s0, [r4, #464]
 4912              		.loc 1 716 0
 4913 06d2 2846     		mov	r0, r5
 4914 06d4 FFF7FEFF 		bl	buffer_get_uint16
 4915              	.LVL506:
 4916              		.loc 1 717 0
 4917 06d8 3146     		mov	r1, r6
 4918              		.loc 1 716 0
 4919 06da A4F8D401 		strh	r0, [r4, #468]	@ movhi
 4920              		.loc 1 717 0
 4921 06de 2846     		mov	r0, r5
 4922 06e0 FFF7FEFF 		bl	buffer_get_uint16
 4923              	.LVL507:
 4924              		.loc 1 718 0
 4925 06e4 019B     		ldr	r3, [sp, #4]
 4926              		.loc 1 717 0
 4927 06e6 A4F8D601 		strh	r0, [r4, #470]	@ movhi
 4928              		.loc 1 718 0
 4929 06ea EA5C     		ldrb	r2, [r5, r3]	@ zero_extendqisi2
 4930 06ec 84F8D821 		strb	r2, [r4, #472]
 4931              		.loc 1 719 0
 4932 06f0 EA18     		adds	r2, r5, r3
 4933              		.loc 1 720 0
 4934 06f2 3146     		mov	r1, r6
 4935              		.loc 1 719 0
 4936 06f4 5278     		ldrb	r2, [r2, #1]	@ zero_extendqisi2
 4937 06f6 84F8D921 		strb	r2, [r4, #473]
 4938 06fa 0233     		adds	r3, r3, #2
 4939              		.loc 1 720 0
 4940 06fc 2846     		mov	r0, r5
 4941 06fe 9FED540A 		vldr.32	s0, .L31+4
 4942              		.loc 1 719 0
 4943 0702 0193     		str	r3, [sp, #4]
 4944              		.loc 1 720 0
 4945 0704 FFF7FEFF 		bl	buffer_get_float16
 4946              	.LVL508:
 4947              		.loc 1 721 0
 4948 0708 3146     		mov	r1, r6
 4949              		.loc 1 720 0
 4950 070a 84ED770A 		vstr.32	s0, [r4, #476]
 4951              		.loc 1 721 0
 4952 070e 2846     		mov	r0, r5
 4953 0710 B2EE040A 		vmov.f32	s0, #1.0e+1
 4954 0714 FFF7FEFF 		bl	buffer_get_float16
 4955              	.LVL509:
 4956              		.loc 1 722 0
 4957 0718 3146     		mov	r1, r6
 4958              		.loc 1 721 0
 4959 071a 84ED780A 		vstr.32	s0, [r4, #480]
ARM GAS  /tmp/cc4M9ACW.s 			page 88


 4960              		.loc 1 722 0
 4961 071e 2846     		mov	r0, r5
 4962 0720 B2EE040A 		vmov.f32	s0, #1.0e+1
 4963 0724 FFF7FEFF 		bl	buffer_get_float16
 4964              	.LVL510:
 4965              		.loc 1 723 0
 4966 0728 019B     		ldr	r3, [sp, #4]
 4967              		.loc 1 722 0
 4968 072a 84ED790A 		vstr.32	s0, [r4, #484]
 4969              		.loc 1 723 0
 4970 072e EA5C     		ldrb	r2, [r5, r3]	@ zero_extendqisi2
 4971 0730 D21B     		subs	r2, r2, r7
 4972 0732 18BF     		it	ne
 4973 0734 0122     		movne	r2, #1
 4974 0736 84F8E821 		strb	r2, [r4, #488]
 4975 073a 0133     		adds	r3, r3, #1
 4976              		.loc 1 724 0
 4977 073c 3146     		mov	r1, r6
 4978 073e 2846     		mov	r0, r5
 4979              		.loc 1 723 0
 4980 0740 0193     		str	r3, [sp, #4]
 4981              		.loc 1 724 0
 4982 0742 FFF7FEFF 		bl	buffer_get_uint16
 4983              	.LVL511:
 4984              		.loc 1 725 0
 4985 0746 019B     		ldr	r3, [sp, #4]
 4986              		.loc 1 724 0
 4987 0748 84F8E901 		strb	r0, [r4, #489]
 4988              		.loc 1 725 0
 4989 074c EA5C     		ldrb	r2, [r5, r3]	@ zero_extendqisi2
 4990              		.loc 1 726 0
 4991 074e 9FED3F0A 		vldr.32	s0, .L31
 4992              		.loc 1 725 0
 4993 0752 D21B     		subs	r2, r2, r7
 4994 0754 18BF     		it	ne
 4995 0756 0122     		movne	r2, #1
 4996 0758 84F8EA21 		strb	r2, [r4, #490]
 4997 075c 0133     		adds	r3, r3, #1
 4998              		.loc 1 726 0
 4999 075e 3146     		mov	r1, r6
 5000 0760 2846     		mov	r0, r5
 5001              		.loc 1 725 0
 5002 0762 0193     		str	r3, [sp, #4]
 5003              		.loc 1 726 0
 5004 0764 FFF7FEFF 		bl	buffer_get_float16
 5005              	.LVL512:
 5006              		.loc 1 727 0
 5007 0768 3146     		mov	r1, r6
 5008              		.loc 1 726 0
 5009 076a 84ED7B0A 		vstr.32	s0, [r4, #492]
 5010              		.loc 1 727 0
 5011 076e 2846     		mov	r0, r5
 5012 0770 9FED360A 		vldr.32	s0, .L31
 5013 0774 FFF7FEFF 		bl	buffer_get_float16
 5014              	.LVL513:
 5015              		.loc 1 728 0
 5016 0778 3146     		mov	r1, r6
ARM GAS  /tmp/cc4M9ACW.s 			page 89


 5017              		.loc 1 727 0
 5018 077a 84ED7C0A 		vstr.32	s0, [r4, #496]
 5019              		.loc 1 728 0
 5020 077e 2846     		mov	r0, r5
 5021 0780 FFF7FEFF 		bl	buffer_get_uint16
 5022              	.LVL514:
 5023              		.loc 1 729 0
 5024 0784 019B     		ldr	r3, [sp, #4]
 5025              		.loc 1 728 0
 5026 0786 C4F8F401 		str	r0, [r4, #500]
 5027              		.loc 1 729 0
 5028 078a EA5C     		ldrb	r2, [r5, r3]	@ zero_extendqisi2
 5029 078c 84F8F821 		strb	r2, [r4, #504]
 5030              		.loc 1 730 0
 5031 0790 EA18     		adds	r2, r5, r3
 5032              		.loc 1 731 0
 5033 0792 3146     		mov	r1, r6
 5034              		.loc 1 730 0
 5035 0794 5278     		ldrb	r2, [r2, #1]	@ zero_extendqisi2
 5036 0796 84F8F921 		strb	r2, [r4, #505]
 5037 079a 0233     		adds	r3, r3, #2
 5038              		.loc 1 731 0
 5039 079c 2846     		mov	r0, r5
 5040              		.loc 1 730 0
 5041 079e 0193     		str	r3, [sp, #4]
 5042              		.loc 1 731 0
 5043 07a0 FFF7FEFF 		bl	buffer_get_uint16
 5044              	.LVL515:
 5045              		.loc 1 732 0
 5046 07a4 3146     		mov	r1, r6
 5047              		.loc 1 731 0
 5048 07a6 C4F8FC01 		str	r0, [r4, #508]
 5049              		.loc 1 732 0
 5050 07aa 2846     		mov	r0, r5
 5051 07ac FFF7FEFF 		bl	buffer_get_float32_auto
 5052              	.LVL516:
 5053              		.loc 1 733 0
 5054 07b0 3146     		mov	r1, r6
 5055 07b2 2846     		mov	r0, r5
 5056              		.loc 1 732 0
 5057 07b4 84ED800A 		vstr.32	s0, [r4, #512]
 5058              		.loc 1 733 0
 5059 07b8 FFF7FEFF 		bl	buffer_get_float32_auto
 5060              	.LVL517:
 5061              		.loc 1 734 0
 5062 07bc 3146     		mov	r1, r6
 5063 07be 2846     		mov	r0, r5
 5064              		.loc 1 733 0
 5065 07c0 84ED810A 		vstr.32	s0, [r4, #516]
 5066              		.loc 1 734 0
 5067 07c4 FFF7FEFF 		bl	buffer_get_float32_auto
 5068              	.LVL518:
 5069              		.loc 1 735 0
 5070 07c8 3146     		mov	r1, r6
 5071 07ca 2846     		mov	r0, r5
 5072              		.loc 1 734 0
 5073 07cc 84ED820A 		vstr.32	s0, [r4, #520]
ARM GAS  /tmp/cc4M9ACW.s 			page 90


 5074              		.loc 1 735 0
 5075 07d0 FFF7FEFF 		bl	buffer_get_float32_auto
 5076              	.LVL519:
 5077              		.loc 1 736 0
 5078 07d4 3146     		mov	r1, r6
 5079 07d6 2846     		mov	r0, r5
 5080              		.loc 1 735 0
 5081 07d8 84ED830A 		vstr.32	s0, [r4, #524]
 5082              		.loc 1 736 0
 5083 07dc FFF7FEFF 		bl	buffer_get_float32_auto
 5084              	.LVL520:
 5085              		.loc 1 737 0
 5086 07e0 3146     		mov	r1, r6
 5087 07e2 2846     		mov	r0, r5
 5088              		.loc 1 736 0
 5089 07e4 84ED840A 		vstr.32	s0, [r4, #528]
 5090              		.loc 1 737 0
 5091 07e8 FFF7FEFF 		bl	buffer_get_float32_auto
 5092              	.LVL521:
 5093              		.loc 1 738 0
 5094 07ec 3146     		mov	r1, r6
 5095 07ee 2846     		mov	r0, r5
 5096              		.loc 1 737 0
 5097 07f0 84ED850A 		vstr.32	s0, [r4, #532]
 5098              		.loc 1 738 0
 5099 07f4 FFF7FEFF 		bl	buffer_get_float32_auto
 5100              	.LVL522:
 5101              		.loc 1 739 0
 5102 07f8 3146     		mov	r1, r6
 5103 07fa 2846     		mov	r0, r5
 5104              		.loc 1 738 0
 5105 07fc 84ED860A 		vstr.32	s0, [r4, #536]
 5106              		.loc 1 739 0
 5107 0800 FFF7FEFF 		bl	buffer_get_float32_auto
 5108              	.LVL523:
 5109              		.loc 1 740 0
 5110 0804 3146     		mov	r1, r6
 5111 0806 2846     		mov	r0, r5
 5112              		.loc 1 739 0
 5113 0808 84ED870A 		vstr.32	s0, [r4, #540]
 5114              		.loc 1 740 0
 5115 080c FFF7FEFF 		bl	buffer_get_float32_auto
 5116              	.LVL524:
 5117              		.loc 1 741 0
 5118 0810 3146     		mov	r1, r6
 5119 0812 2846     		mov	r0, r5
 5120              		.loc 1 740 0
 5121 0814 84ED880A 		vstr.32	s0, [r4, #544]
 5122              		.loc 1 741 0
 5123 0818 FFF7FEFF 		bl	buffer_get_float32_auto
 5124              	.LVL525:
 5125              		.loc 1 742 0
 5126 081c 3146     		mov	r1, r6
 5127 081e 2846     		mov	r0, r5
 5128              		.loc 1 741 0
 5129 0820 84ED890A 		vstr.32	s0, [r4, #548]
 5130              		.loc 1 742 0
ARM GAS  /tmp/cc4M9ACW.s 			page 91


 5131 0824 FFF7FEFF 		bl	buffer_get_float32_auto
 5132              	.LVL526:
 5133              		.loc 1 743 0
 5134 0828 3146     		mov	r1, r6
 5135 082a 2846     		mov	r0, r5
 5136              		.loc 1 742 0
 5137 082c 84ED8A0A 		vstr.32	s0, [r4, #552]
 5138              		.loc 1 743 0
 5139 0830 FFF7FEFF 		bl	buffer_get_float32_auto
 5140              	.LVL527:
 5141              		.loc 1 744 0
 5142 0834 2846     		mov	r0, r5
 5143 0836 3146     		mov	r1, r6
 5144              		.loc 1 743 0
 5145 0838 84ED8B0A 		vstr.32	s0, [r4, #556]
 5146              		.loc 1 744 0
 5147 083c FFF7FEFF 		bl	buffer_get_float32_auto
 5148              	.LVL528:
 5149              		.loc 1 746 0
 5150 0840 0120     		movs	r0, #1
 5151              		.loc 1 744 0
 5152 0842 84ED8C0A 		vstr.32	s0, [r4, #560]
 5153              		.loc 1 747 0
 5154 0846 03B0     		add	sp, sp, #12
 5155              		.cfi_def_cfa_offset 20
 5156              		@ sp needed
 5157 0848 04E0     		b	.L32
 5158              	.L33:
 5159 084a 00BF     		.align	2
 5160              	.L31:
 5161 084c 0000C842 		.word	1120403456
 5162 0850 00007A44 		.word	1148846080
 5163              	.L32:
 5164 0854 F0BD     		pop	{r4, r5, r6, r7, pc}
 5165              		.cfi_endproc
 5166              	.LFE222:
 5167              		.size	confgenerator_deserialize_appconf, .-confgenerator_deserialize_appconf
 5168 0856 00BF     		.section	.text.confgenerator_set_defaults_mcconf,"ax",%progbits
 5169              		.align	1
 5170              		.p2align 4,,15
 5171              		.global	confgenerator_set_defaults_mcconf
 5172              		.syntax unified
 5173              		.thumb
 5174              		.thumb_func
 5175              		.fpu fpv4-sp-d16
 5176              		.type	confgenerator_set_defaults_mcconf, %function
 5177              	confgenerator_set_defaults_mcconf:
 5178              	.LFB223:
 5179              		.loc 1 749 0
 5180              		.cfi_startproc
 5181              		@ args = 0, pretend = 0, frame = 0
 5182              		@ frame_needed = 0, uses_anonymous_args = 0
 5183              	.LVL529:
 5184 0000 2DE9F04F 		push	{r4, r5, r6, r7, r8, r9, r10, fp, lr}
 5185              		.cfi_def_cfa_offset 36
 5186              		.cfi_offset 4, -36
 5187              		.cfi_offset 5, -32
ARM GAS  /tmp/cc4M9ACW.s 			page 92


 5188              		.cfi_offset 6, -28
 5189              		.cfi_offset 7, -24
 5190              		.cfi_offset 8, -20
 5191              		.cfi_offset 9, -16
 5192              		.cfi_offset 10, -12
 5193              		.cfi_offset 11, -8
 5194              		.cfi_offset 14, -4
 5195              		.loc 1 754 0
 5196 0004 E14C     		ldr	r4, .L36
 5197              		.loc 1 755 0
 5198 0006 E24B     		ldr	r3, .L36+4
 5199              		.loc 1 756 0
 5200 0008 E249     		ldr	r1, .L36+8
 5201              		.loc 1 758 0
 5202 000a E34D     		ldr	r5, .L36+12
 5203              		.loc 1 759 0
 5204 000c E34A     		ldr	r2, .L36+16
 5205              		.loc 1 754 0
 5206 000e 0460     		str	r4, [r0]	@ float
 5207              		.loc 1 752 0
 5208 0010 0224     		movs	r4, #2
 5209              		.loc 1 757 0
 5210 0012 4FF00047 		mov	r7, #-2147483648
 5211              		.loc 1 762 0
 5212 0016 E24E     		ldr	r6, .L36+20
 5213              		.loc 1 765 0
 5214 0018 DFF81094 		ldr	r9, .L36+160
 5215              		.loc 1 752 0
 5216 001c 80F88640 		strb	r4, [r0, #134]
 5217              		.loc 1 755 0
 5218 0020 4360     		str	r3, [r0, #4]	@ float
 5219              		.loc 1 775 0
 5220 0022 E04C     		ldr	r4, .L36+24
 5221              		.loc 1 776 0
 5222 0024 E04B     		ldr	r3, .L36+28
 5223              		.loc 1 756 0
 5224 0026 8160     		str	r1, [r0, #8]	@ float
 5225              		.loc 1 758 0
 5226 0028 0561     		str	r5, [r0, #16]	@ float
 5227              		.loc 1 777 0
 5228 002a E049     		ldr	r1, .L36+32
 5229              		.loc 1 769 0
 5230 002c E04D     		ldr	r5, .L36+36
 5231              		.loc 1 759 0
 5232 002e 4261     		str	r2, [r0, #20]	@ float
 5233              		.loc 1 770 0
 5234 0030 E04A     		ldr	r2, .L36+40
 5235              		.loc 1 760 0
 5236 0032 DFF8FCC3 		ldr	ip, .L36+164
 5237              		.loc 1 761 0
 5238 0036 DFF894A3 		ldr	r10, .L36+64
 5239              		.loc 1 773 0
 5240 003a DFF8F883 		ldr	r8, .L36+168
 5241              		.loc 1 774 0
 5242 003e DFF8F8E3 		ldr	lr, .L36+172
 5243              		.loc 1 757 0
 5244 0042 C760     		str	r7, [r0, #12]	@ float
ARM GAS  /tmp/cc4M9ACW.s 			page 93


 5245              		.loc 1 762 0
 5246 0044 0662     		str	r6, [r0, #32]	@ float
 5247              		.loc 1 763 0
 5248 0046 DC4F     		ldr	r7, .L36+44
 5249              		.loc 1 764 0
 5250 0048 DC4E     		ldr	r6, .L36+48
 5251              		.loc 1 765 0
 5252 004a C0F82C90 		str	r9, [r0, #44]	@ float
 5253              		.loc 1 775 0
 5254 004e 4465     		str	r4, [r0, #84]	@ float
 5255              		.loc 1 767 0
 5256 0050 4FF08249 		mov	r9, #1090519040
 5257              		.loc 1 750 0
 5258 0054 0124     		movs	r4, #1
 5259              		.loc 1 776 0
 5260 0056 8365     		str	r3, [r0, #88]	@ float
 5261              		.loc 1 777 0
 5262 0058 C165     		str	r1, [r0, #92]	@ float
 5263              		.loc 1 751 0
 5264 005a 0023     		movs	r3, #0
 5265              		.loc 1 766 0
 5266 005c D849     		ldr	r1, .L36+52
 5267              		.loc 1 769 0
 5268 005e C563     		str	r5, [r0, #60]	@ float
 5269              		.loc 1 771 0
 5270 0060 4564     		str	r5, [r0, #68]	@ float
 5271              		.loc 1 770 0
 5272 0062 0264     		str	r2, [r0, #64]	@ float
 5273              		.loc 1 778 0
 5274 0064 4FF07E55 		mov	r5, #1065353216
 5275              		.loc 1 772 0
 5276 0068 8264     		str	r2, [r0, #72]	@ float
 5277              		.loc 1 781 0
 5278 006a D64A     		ldr	r2, .L36+56
 5279              		.loc 1 760 0
 5280 006c C0F818C0 		str	ip, [r0, #24]	@ float
 5281              		.loc 1 761 0
 5282 0070 C0F81CA0 		str	r10, [r0, #28]	@ float
 5283              		.loc 1 764 0
 5284 0074 8662     		str	r6, [r0, #40]	@ float
 5285              		.loc 1 767 0
 5286 0076 C0F83490 		str	r9, [r0, #52]	@ float
 5287              		.loc 1 773 0
 5288 007a C0F84C80 		str	r8, [r0, #76]	@ float
 5289              		.loc 1 774 0
 5290 007e C0F850E0 		str	lr, [r0, #80]	@ float
 5291              		.loc 1 763 0
 5292 0082 4762     		str	r7, [r0, #36]	@ float
 5293              		.loc 1 766 0
 5294 0084 0163     		str	r1, [r0, #48]	@ float
 5295              		.loc 1 750 0
 5296 0086 80F88440 		strb	r4, [r0, #132]
 5297              		.loc 1 751 0
 5298 008a 80F88530 		strb	r3, [r0, #133]
 5299              		.loc 1 753 0
 5300 008e 80F88730 		strb	r3, [r0, #135]
 5301              		.loc 1 768 0
ARM GAS  /tmp/cc4M9ACW.s 			page 94


 5302 0092 80F83830 		strb	r3, [r0, #56]
 5303              		.loc 1 801 0
 5304 0096 80F8C430 		strb	r3, [r0, #196]
 5305              		.loc 1 778 0
 5306 009a 0566     		str	r5, [r0, #96]	@ float
 5307              		.loc 1 779 0
 5308 009c 4566     		str	r5, [r0, #100]	@ float
 5309              		.loc 1 780 0
 5310 009e 8566     		str	r5, [r0, #104]	@ float
 5311              		.loc 1 781 0
 5312 00a0 C0F88820 		str	r2, [r0, #136]
 5313 00a4 C84A     		ldr	r2, .L36+60
 5314 00a6 C0F88C20 		str	r2, [r0, #140]
 5315              		.loc 1 782 0
 5316 00aa C54A     		ldr	r2, .L36+52
 5317 00ac C0F89020 		str	r2, [r0, #144]
 5318              		.loc 1 783 0
 5319 00b0 02F1AC72 		add	r2, r2, #22544384
 5320 00b4 C0F89420 		str	r2, [r0, #148]
 5321              		.loc 1 784 0
 5322 00b8 C44A     		ldr	r2, .L36+64
 5323 00ba C0F89820 		str	r2, [r0, #152]
 5324              		.loc 1 785 0
 5325 00be C44A     		ldr	r2, .L36+68
 5326 00c0 C0F89C20 		str	r2, [r0, #156]
 5327              		.loc 1 786 0
 5328 00c4 C34A     		ldr	r2, .L36+72
 5329 00c6 C0F8A020 		str	r2, [r0, #160]
 5330              		.loc 1 787 0
 5331 00ca C34A     		ldr	r2, .L36+76
 5332 00cc C0F8A420 		str	r2, [r0, #164]
 5333              		.loc 1 791 0
 5334 00d0 C24A     		ldr	r2, .L36+80
 5335 00d2 C0F8A820 		str	r2, [r0, #168]
 5336              		.loc 1 795 0
 5337 00d6 C24A     		ldr	r2, .L36+84
 5338 00d8 C0F8AC20 		str	r2, [r0, #172]
 5339              		.loc 1 796 0
 5340 00dc C14A     		ldr	r2, .L36+88
 5341 00de C0F8B020 		str	r2, [r0, #176]
 5342              		.loc 1 797 0
 5343 00e2 C14A     		ldr	r2, .L36+92
 5344 00e4 C0F8B420 		str	r2, [r0, #180]
 5345              		.loc 1 798 0
 5346 00e8 C04A     		ldr	r2, .L36+96
 5347 00ea C0F8B820 		str	r2, [r0, #184]
 5348              		.loc 1 799 0
 5349 00ee C04A     		ldr	r2, .L36+100
 5350 00f0 C0F8BC20 		str	r2, [r0, #188]
 5351              		.loc 1 800 0
 5352 00f4 BF4A     		ldr	r2, .L36+104
 5353              		.loc 1 811 0
 5354 00f6 DFF8F4C2 		ldr	ip, .L36+96
 5355              		.loc 1 814 0
 5356 00fa BF4E     		ldr	r6, .L36+108
 5357              		.loc 1 816 0
 5358 00fc DFF83C93 		ldr	r9, .L36+176
ARM GAS  /tmp/cc4M9ACW.s 			page 95


 5359              		.loc 1 820 0
 5360 0100 DFF83C83 		ldr	r8, .L36+180
 5361              		.loc 1 800 0
 5362 0104 C0F8C020 		str	r2, [r0, #192]
 5363              		.loc 1 803 0
 5364 0108 BC4A     		ldr	r2, .L36+112
 5365              		.loc 1 806 0
 5366 010a DFF838E3 		ldr	lr, .L36+184
 5367              		.loc 1 812 0
 5368 010e DFF838B3 		ldr	fp, .L36+188
 5369              		.loc 1 815 0
 5370 0112 DFF838A3 		ldr	r10, .L36+192
 5371              		.loc 1 803 0
 5372 0116 C0F8C820 		str	r2, [r0, #200]	@ float
 5373              		.loc 1 811 0
 5374 011a C0F800C1 		str	ip, [r0, #256]	@ float
 5375              		.loc 1 813 0
 5376 011e 0022     		movs	r2, #0
 5377              		.loc 1 810 0
 5378 0120 DFF8BCC2 		ldr	ip, .L36+84
 5379              		.loc 1 814 0
 5380 0124 C0F8E860 		str	r6, [r0, #232]	@ float
 5381              		.loc 1 816 0
 5382 0128 C0F8F090 		str	r9, [r0, #240]	@ float
 5383              		.loc 1 817 0
 5384 012c B44E     		ldr	r6, .L36+116
 5385              		.loc 1 818 0
 5386 012e DFF82093 		ldr	r9, .L36+196
 5387              		.loc 1 820 0
 5388 0132 C0F80881 		str	r8, [r0, #264]	@ float
 5389              		.loc 1 808 0
 5390 0136 4FF07C58 		mov	r8, #1056964608
 5391              		.loc 1 819 0
 5392 013a C0F80411 		str	r1, [r0, #260]	@ float
 5393              		.loc 1 812 0
 5394 013e C0F8E0B0 		str	fp, [r0, #224]	@ float
 5395              		.loc 1 815 0
 5396 0142 C0F8ECA0 		str	r10, [r0, #236]	@ float
 5397              		.loc 1 818 0
 5398 0146 C0F8F890 		str	r9, [r0, #248]	@ float
 5399              		.loc 1 806 0
 5400 014a C0F8CCE0 		str	lr, [r0, #204]	@ float
 5401              		.loc 1 807 0
 5402 014e C0F8D4E0 		str	lr, [r0, #212]	@ float
 5403              		.loc 1 808 0
 5404 0152 C0F8DC80 		str	r8, [r0, #220]	@ float
 5405              		.loc 1 810 0
 5406 0156 C0F8FCC0 		str	ip, [r0, #252]	@ float
 5407              		.loc 1 804 0
 5408 015a C0F8D050 		str	r5, [r0, #208]	@ float
 5409              		.loc 1 805 0
 5410 015e C0F8D850 		str	r5, [r0, #216]	@ float
 5411              		.loc 1 809 0
 5412 0162 80F82C31 		strb	r3, [r0, #300]
 5413              		.loc 1 813 0
 5414 0166 C0F8E420 		str	r2, [r0, #228]	@ float
 5415              		.loc 1 817 0
ARM GAS  /tmp/cc4M9ACW.s 			page 96


 5416 016a C0F8F460 		str	r6, [r0, #244]	@ float
 5417              		.loc 1 849 0
 5418 016e C0F86011 		str	r1, [r0, #352]	@ float
 5419              		.loc 1 847 0
 5420 0172 A449     		ldr	r1, .L36+120
 5421 0174 C0F85811 		str	r1, [r0, #344]	@ float
 5422              		.loc 1 848 0
 5423 0178 4FF08141 		mov	r1, #1082130432
 5424 017c C0F85C11 		str	r1, [r0, #348]	@ float
 5425              		.loc 1 851 0
 5426 0180 0F21     		movs	r1, #15
 5427              		.loc 1 837 0
 5428 0182 DFF8D0A2 		ldr	r10, .L36+200
 5429              		.loc 1 838 0
 5430 0186 DFEDA07A 		vldr.32	s15, .L36+124
 5431              		.loc 1 851 0
 5432 018a A0F86811 		strh	r1, [r0, #360]	@ movhi
 5433              		.loc 1 829 0
 5434 018e FF21     		movs	r1, #255
 5435              		.loc 1 823 0
 5436 0190 DFF8C492 		ldr	r9, .L36+204
 5437              		.loc 1 843 0
 5438 0194 DFF8C4E2 		ldr	lr, .L36+208
 5439              		.loc 1 852 0
 5440 0198 DFF8C4B2 		ldr	fp, .L36+212
 5441              		.loc 1 821 0
 5442 019c C0F80C71 		str	r7, [r0, #268]	@ float
 5443              		.loc 1 850 0
 5444 01a0 C0F864C1 		str	ip, [r0, #356]	@ float
 5445              		.loc 1 824 0
 5446 01a4 994F     		ldr	r7, .L36+128
 5447              		.loc 1 825 0
 5448 01a6 DFF8BCC2 		ldr	ip, .L36+216
 5449              		.loc 1 837 0
 5450 01aa C0F838A1 		str	r10, [r0, #312]	@ float
 5451              		.loc 1 829 0
 5452 01ae 80F82D11 		strb	r1, [r0, #301]
 5453              		.loc 1 865 0
 5454 01b2 DFF8B4A2 		ldr	r10, .L36+220
 5455              		.loc 1 830 0
 5456 01b6 80F82E11 		strb	r1, [r0, #302]
 5457              		.loc 1 831 0
 5458 01ba 80F82F11 		strb	r1, [r0, #303]
 5459              		.loc 1 832 0
 5460 01be 80F83011 		strb	r1, [r0, #304]
 5461              		.loc 1 833 0
 5462 01c2 80F83111 		strb	r1, [r0, #305]
 5463              		.loc 1 834 0
 5464 01c6 80F83211 		strb	r1, [r0, #306]
 5465              		.loc 1 835 0
 5466 01ca 80F83311 		strb	r1, [r0, #307]
 5467              		.loc 1 836 0
 5468 01ce 80F83411 		strb	r1, [r0, #308]
 5469              		.loc 1 871 0
 5470 01d2 C821     		movs	r1, #200
 5471              		.loc 1 838 0
 5472 01d4 C0ED4F7A 		vstr.32	s15, [r0, #316]
ARM GAS  /tmp/cc4M9ACW.s 			page 97


 5473              		.loc 1 852 0
 5474 01d8 C0F86CB1 		str	fp, [r0, #364]	@ float
 5475              		.loc 1 874 0
 5476 01dc DFED8C7A 		vldr.32	s15, .L36+132
 5477              		.loc 1 823 0
 5478 01e0 C0F81491 		str	r9, [r0, #276]	@ float
 5479              		.loc 1 824 0
 5480 01e4 C0F81871 		str	r7, [r0, #280]	@ float
 5481              		.loc 1 825 0
 5482 01e8 C0F81CC1 		str	ip, [r0, #284]	@ float
 5483              		.loc 1 827 0
 5484 01ec C0F828C1 		str	ip, [r0, #296]	@ float
 5485              		.loc 1 844 0
 5486 01f0 C0F850C1 		str	ip, [r0, #336]	@ float
 5487              		.loc 1 822 0
 5488 01f4 C0F81021 		str	r2, [r0, #272]	@ float
 5489              		.loc 1 826 0
 5490 01f8 C0F82421 		str	r2, [r0, #292]	@ float
 5491              		.loc 1 828 0
 5492 01fc C0F82061 		str	r6, [r0, #288]	@ float
 5493              		.loc 1 839 0
 5494 0200 80F84031 		strb	r3, [r0, #320]
 5495              		.loc 1 840 0
 5496 0204 80F84131 		strb	r3, [r0, #321]
 5497              		.loc 1 841 0
 5498 0208 C0F84421 		str	r2, [r0, #324]	@ float
 5499              		.loc 1 842 0
 5500 020c 80F84831 		strb	r3, [r0, #328]
 5501              		.loc 1 845 0
 5502 0210 80F85431 		strb	r3, [r0, #340]
 5503              		.loc 1 846 0
 5504 0214 80F85531 		strb	r3, [r0, #341]
 5505              		.loc 1 853 0
 5506 0218 80F87041 		strb	r4, [r0, #368]
 5507              		.loc 1 843 0
 5508 021c C0F84CE1 		str	lr, [r0, #332]	@ float
 5509              		.loc 1 868 0
 5510 0220 C0F8A891 		str	r9, [r0, #424]	@ float
 5511              		.loc 1 873 0
 5512 0224 C0F8BCC1 		str	ip, [r0, #444]	@ float
 5513              		.loc 1 879 0
 5514 0228 DFF84092 		ldr	r9, .L36+224
 5515              		.loc 1 865 0
 5516 022c C0F89CA1 		str	r10, [r0, #412]	@ float
 5517              		.loc 1 871 0
 5518 0230 C0F8B411 		str	r1, [r0, #436]
 5519              		.loc 1 881 0
 5520 0234 DFF838A2 		ldr	r10, .L36+228
 5521              		.loc 1 884 0
 5522 0238 DFF838C2 		ldr	ip, .L36+232
 5523              		.loc 1 875 0
 5524 023c DFF8A8B1 		ldr	fp, .L36+92
 5525              		.loc 1 879 0
 5526 0240 C0F8D491 		str	r9, [r0, #468]	@ float
 5527              		.loc 1 876 0
 5528 0244 0521     		movs	r1, #5
 5529              		.loc 1 870 0
ARM GAS  /tmp/cc4M9ACW.s 			page 98


 5530 0246 DFF83092 		ldr	r9, .L36+236
 5531              		.loc 1 876 0
 5532 024a 80F8C811 		strb	r1, [r0, #456]
 5533              		.loc 1 881 0
 5534 024e C0F8DCA1 		str	r10, [r0, #476]	@ float
 5535              		.loc 1 855 0
 5536 0252 4FF08A41 		mov	r1, #1157627904
 5537              		.loc 1 877 0
 5538 0256 DFF824A2 		ldr	r10, .L36+240
 5539              		.loc 1 884 0
 5540 025a C0F8E8C1 		str	ip, [r0, #488]	@ float
 5541              		.loc 1 883 0
 5542 025e DFF820C2 		ldr	ip, .L36+244
 5543              		.loc 1 869 0
 5544 0262 C0F8AC71 		str	r7, [r0, #428]	@ float
 5545              		.loc 1 880 0
 5546 0266 C0F8D871 		str	r7, [r0, #472]	@ float
 5547              		.loc 1 874 0
 5548 026a C0ED707A 		vstr.32	s15, [r0, #448]
 5549              		.loc 1 875 0
 5550 026e C0F8C4B1 		str	fp, [r0, #452]	@ float
 5551              		.loc 1 855 0
 5552 0272 C0F87411 		str	r1, [r0, #372]	@ float
 5553              		.loc 1 856 0
 5554 0276 C0F87811 		str	r1, [r0, #376]	@ float
 5555              		.loc 1 857 0
 5556 027a C0F87C11 		str	r1, [r0, #380]	@ float
 5557              		.loc 1 870 0
 5558 027e C0F8B091 		str	r9, [r0, #432]	@ float
 5559              		.loc 1 877 0
 5560 0282 C0F8CCA1 		str	r10, [r0, #460]	@ float
 5561              		.loc 1 878 0
 5562 0286 C0F8D0A1 		str	r10, [r0, #464]	@ float
 5563              		.loc 1 854 0
 5564 028a 80F87141 		strb	r4, [r0, #369]
 5565              		.loc 1 858 0
 5566 028e C0F88021 		str	r2, [r0, #384]	@ float
 5567              		.loc 1 859 0
 5568 0292 C0F88421 		str	r2, [r0, #388]	@ float
 5569              		.loc 1 860 0
 5570 0296 C0F88821 		str	r2, [r0, #392]	@ float
 5571              		.loc 1 861 0
 5572 029a C0F88C21 		str	r2, [r0, #396]	@ float
 5573              		.loc 1 862 0
 5574 029e C0F89021 		str	r2, [r0, #400]	@ float
 5575              		.loc 1 863 0
 5576 02a2 C0F89421 		str	r2, [r0, #404]	@ float
 5577              		.loc 1 864 0
 5578 02a6 80F89841 		strb	r4, [r0, #408]
 5579              		.loc 1 866 0
 5580 02aa 80F8A031 		strb	r3, [r0, #416]
 5581              		.loc 1 867 0
 5582 02ae C0F8A421 		str	r2, [r0, #420]	@ float
 5583              		.loc 1 872 0
 5584 02b2 C0F8B831 		str	r3, [r0, #440]
 5585              		.loc 1 882 0
 5586 02b6 80F8E041 		strb	r4, [r0, #480]
ARM GAS  /tmp/cc4M9ACW.s 			page 99


 5587              		.loc 1 885 0
 5588 02ba C0F8EC21 		str	r2, [r0, #492]	@ float
 5589              		.loc 1 886 0
 5590 02be C0F8F021 		str	r2, [r0, #496]	@ float
 5591              		.loc 1 883 0
 5592 02c2 C0F8E4C1 		str	ip, [r0, #484]	@ float
 5593              		.loc 1 888 0
 5594 02c6 C0F8F871 		str	r7, [r0, #504]	@ float
 5595              		.loc 1 895 0
 5596 02ca 524F     		ldr	r7, .L36+136
 5597 02cc C0F81472 		str	r7, [r0, #532]	@ float
 5598              		.loc 1 896 0
 5599 02d0 4FF4FA77 		mov	r7, #500
 5600 02d4 C0F81872 		str	r7, [r0, #536]
 5601              		.loc 1 899 0
 5602 02d8 4FF40057 		mov	r7, #8192
 5603              		.loc 1 897 0
 5604 02dc C0F81C92 		str	r9, [r0, #540]	@ float
 5605              		.loc 1 904 0
 5606 02e0 4D49     		ldr	r1, .L36+140
 5607              		.loc 1 905 0
 5608 02e2 DFF8A0A1 		ldr	r10, .L36+248
 5609              		.loc 1 906 0
 5610 02e6 C0F838C2 		str	ip, [r0, #568]	@ float
 5611              		.loc 1 907 0
 5612 02ea DFF89C91 		ldr	r9, .L36+252
 5613              		.loc 1 912 0
 5614 02ee C0F84CE2 		str	lr, [r0, #588]	@ float
 5615              		.loc 1 911 0
 5616 02f2 DFF898C1 		ldr	ip, .L36+256
 5617              		.loc 1 910 0
 5618 02f6 DFF898E1 		ldr	lr, .L36+260
 5619              		.loc 1 899 0
 5620 02fa C0F82472 		str	r7, [r0, #548]
 5621              		.loc 1 887 0
 5622 02fe 9FED477A 		vldr.32	s14, .L36+144
 5623              		.loc 1 892 0
 5624 0302 DFED477A 		vldr.32	s15, .L36+148
 5625              		.loc 1 898 0
 5626 0306 C0F82082 		str	r8, [r0, #544]	@ float
 5627              		.loc 1 903 0
 5628 030a 1027     		movs	r7, #16
 5629 030c C0F82C72 		str	r7, [r0, #556]
 5630              		.loc 1 904 0
 5631 0310 C0F83012 		str	r1, [r0, #560]	@ float
 5632              		.loc 1 905 0
 5633 0314 C0F834A2 		str	r10, [r0, #564]	@ float
 5634              		.loc 1 907 0
 5635 0318 C0F83C92 		str	r9, [r0, #572]	@ float
 5636              		.loc 1 910 0
 5637 031c C0F844E2 		str	lr, [r0, #580]	@ float
 5638              		.loc 1 911 0
 5639 0320 C0F850C2 		str	ip, [r0, #592]	@ float
 5640              		.loc 1 894 0
 5641 0324 DFF86CB1 		ldr	fp, .L36+264
 5642              		.loc 1 916 0
 5643 0328 DFF86C81 		ldr	r8, .L36+268
ARM GAS  /tmp/cc4M9ACW.s 			page 100


 5644              		.loc 1 922 0
 5645 032c 3D4F     		ldr	r7, .L36+152
 5646              		.loc 1 923 0
 5647 032e 3E49     		ldr	r1, .L36+156
 5648              		.loc 1 915 0
 5649 0330 DFF86891 		ldr	r9, .L36+272
 5650              		.loc 1 919 0
 5651 0334 DFF868C1 		ldr	ip, .L36+276
 5652              		.loc 1 887 0
 5653 0338 80ED7D7A 		vstr.32	s14, [r0, #500]
 5654              		.loc 1 914 0
 5655 033c 4FF00E0A 		mov	r10, #14
 5656              		.loc 1 918 0
 5657 0340 4FF0030E 		mov	lr, #3
 5658              		.loc 1 889 0
 5659 0344 C0F8FC51 		str	r5, [r0, #508]	@ float
 5660              		.loc 1 890 0
 5661 0348 C0F80022 		str	r2, [r0, #512]	@ float
 5662              		.loc 1 891 0
 5663 034c C0F80422 		str	r2, [r0, #516]	@ float
 5664              		.loc 1 893 0
 5665 0350 C0F80C62 		str	r6, [r0, #524]	@ float
 5666              		.loc 1 900 0
 5667 0354 80F82832 		strb	r3, [r0, #552]
 5668              		.loc 1 901 0
 5669 0358 80F82932 		strb	r3, [r0, #553]
 5670              		.loc 1 902 0
 5671 035c 80F82A32 		strb	r3, [r0, #554]
 5672              		.loc 1 908 0
 5673 0360 80F84032 		strb	r3, [r0, #576]
 5674              		.loc 1 909 0
 5675 0364 80F84132 		strb	r3, [r0, #577]
 5676              		.loc 1 913 0
 5677 0368 C0F84842 		str	r4, [r0, #584]
 5678              		.loc 1 917 0
 5679 036c 80F86032 		strb	r3, [r0, #608]
 5680              		.loc 1 892 0
 5681 0370 C0ED827A 		vstr.32	s15, [r0, #520]
 5682              		.loc 1 894 0
 5683 0374 C0F810B2 		str	fp, [r0, #528]	@ float
 5684              		.loc 1 914 0
 5685 0378 80F854A2 		strb	r10, [r0, #596]
 5686              		.loc 1 915 0
 5687 037c C0F85892 		str	r9, [r0, #600]	@ float
 5688              		.loc 1 916 0
 5689 0380 C0F85C82 		str	r8, [r0, #604]	@ float
 5690              		.loc 1 918 0
 5691 0384 C0F864E2 		str	lr, [r0, #612]
 5692 0388 8CE0     		b	.L37
 5693              	.L38:
 5694 038a 00BF     		.align	2
 5695              	.L36:
 5696 038c 00007042 		.word	1114636288
 5697 0390 000070C2 		.word	-1032847360
 5698 0394 00007A43 		.word	1132068864
 5699 0398 0000E143 		.word	1138819072
 5700 039c 0050C3C7 		.word	-943501312
ARM GAS  /tmp/cc4M9ACW.s 			page 101


 5701 03a0 00009643 		.word	1133903872
 5702 03a4 3333733F 		.word	1064514355
 5703 03a8 001BB749 		.word	1236736768
 5704 03ac 001BB7C9 		.word	-910746880
 5705 03b0 0000AA42 		.word	1118437376
 5706 03b4 0000C842 		.word	1120403456
 5707 03b8 0080BB44 		.word	1153138688
 5708 03bc 00004041 		.word	1094713344
 5709 03c0 00002041 		.word	1092616192
 5710 03c4 00001643 		.word	1125515264
 5711 03c8 00808944 		.word	1149861888
 5712 03cc CDCC4C3F 		.word	1061997773
 5713 03d0 00409C47 		.word	1201422336
 5714 03d4 00001644 		.word	1142292480
 5715 03d8 FF010302 		.word	33751551
 5716 03dc 050604FF 		.word	-16513531
 5717 03e0 0000FA44 		.word	1157234688
 5718 03e4 8FC2F53C 		.word	1022739087
 5719 03e8 00004842 		.word	1112014848
 5720 03ec 0060EA46 		.word	1189765120
 5721 03f0 8FC2F53D 		.word	1039516303
 5722 03f4 00003443 		.word	1127481344
 5723 03f8 8FC2753C 		.word	1014350479
 5724 03fc 0000E040 		.word	1088421888
 5725 0400 CDCC4C3D 		.word	1028443341
 5726 0404 0000A041 		.word	1101004800
 5727 0408 00401C45 		.word	1159479296
 5728 040c CDCC4C3E 		.word	1045220557
 5729 0410 8FC2F53C 		.word	1022739087
 5730 0414 0AD7233D 		.word	1025758986
 5731 0418 00803B45 		.word	1161527296
 5732 041c 3480B739 		.word	968327220
 5733 0420 0AD7233C 		.word	1008981770
 5734 0424 00003442 		.word	1110704128
 5735 0428 00008242 		.word	1115815936
 5736 042c 0000B442 		.word	1119092736
 5737 0430 0050C347 		.word	1203982336
 5738 0434 9A99193E 		.word	1041865114
 5739 0438 0AD7A33B 		.word	1000593162
 5740 043c 50A9AB4C 		.word	1286318416
 5741 0440 00004843 		.word	1128792064
 5742 0444 3333D33F 		.word	1070805811
 5743 0448 8BE1EA36 		.word	921362827
 5744 044c 2E90203B 		.word	991989806
 5745 0450 000080BF 		.word	-1082130432
 5746 0454 0000FA43 		.word	1140457472
 5747 0458 6666663F 		.word	1063675494
 5748 045c 0000C841 		.word	1103626240
 5749 0460 6F12833A 		.word	981668463
 5750 0464 CDCCCC3D 		.word	1036831949
 5751 0468 00007A45 		.word	1165623296
 5752 046c 17B7D138 		.word	953267991
 5753 0470 00006144 		.word	1147207680
 5754 0474 CDCCCC3C 		.word	1020054733
 5755 0478 0AD7A33C 		.word	1017370378
 5756 047c 6F12833B 		.word	998445679
 5757 0480 0050C346 		.word	1187205120
ARM GAS  /tmp/cc4M9ACW.s 			page 102


 5758 0484 00B80847 		.word	1191753728
 5759 0488 00405345 		.word	1163083776
 5760 048c 00401C46 		.word	1176256512
 5761 0490 F6281C3F 		.word	1058810102
 5762 0494 99BB963B 		.word	999734169
 5763 0498 E7FBA93D 		.word	1034550247
 5764 049c 00004040 		.word	1077936128
 5765 04a0 0000C040 		.word	1086324736
 5766              	.L37:
 5767              		.loc 1 919 0
 5768 04a4 C0F868C2 		str	ip, [r0, #616]	@ float
 5769              		.loc 1 920 0
 5770 04a8 C0F86C52 		str	r5, [r0, #620]	@ float
 5771              		.loc 1 921 0
 5772 04ac 80F87042 		strb	r4, [r0, #624]
 5773              		.loc 1 924 0
 5774 04b0 C0F87C62 		str	r6, [r0, #636]	@ float
 5775              		.loc 1 925 0
 5776 04b4 C0F88022 		str	r2, [r0, #640]	@ float
 5777              		.loc 1 926 0
 5778 04b8 80F88432 		strb	r3, [r0, #644]
 5779              		.loc 1 922 0
 5780 04bc C0F87472 		str	r7, [r0, #628]	@ float
 5781              		.loc 1 923 0
 5782 04c0 C0F87812 		str	r1, [r0, #632]	@ float
 5783              		.loc 1 927 0
 5784 04c4 BDE8F08F 		pop	{r4, r5, r6, r7, r8, r9, r10, fp, pc}
 5785              		.cfi_endproc
 5786              	.LFE223:
 5787              		.size	confgenerator_set_defaults_mcconf, .-confgenerator_set_defaults_mcconf
 5788              		.section	.text.confgenerator_set_defaults_appconf,"ax",%progbits
 5789              		.align	1
 5790              		.p2align 4,,15
 5791              		.global	confgenerator_set_defaults_appconf
 5792              		.syntax unified
 5793              		.thumb
 5794              		.thumb_func
 5795              		.fpu fpv4-sp-d16
 5796              		.type	confgenerator_set_defaults_appconf, %function
 5797              	confgenerator_set_defaults_appconf:
 5798              	.LFB224:
 5799              		.loc 1 929 0
 5800              		.cfi_startproc
 5801              		@ args = 0, pretend = 0, frame = 0
 5802              		@ frame_needed = 0, uses_anonymous_args = 0
 5803              	.LVL530:
 5804 0000 2DE9F84F 		push	{r3, r4, r5, r6, r7, r8, r9, r10, fp, lr}
 5805              		.cfi_def_cfa_offset 40
 5806              		.cfi_offset 3, -40
 5807              		.cfi_offset 4, -36
 5808              		.cfi_offset 5, -32
 5809              		.cfi_offset 6, -28
 5810              		.cfi_offset 7, -24
 5811              		.cfi_offset 8, -20
 5812              		.cfi_offset 9, -16
 5813              		.cfi_offset 10, -12
 5814              		.cfi_offset 11, -8
ARM GAS  /tmp/cc4M9ACW.s 			page 103


 5815              		.cfi_offset 14, -4
 5816              		.loc 1 929 0
 5817 0004 0446     		mov	r4, r0
 5818              		.loc 1 930 0
 5819 0006 FFF7FEFF 		bl	hw_id_from_uuid
 5820              	.LVL531:
 5821              		.loc 1 942 0
 5822 000a DFF84CA3 		ldr	r10, .L41+64
 5823              		.loc 1 957 0
 5824 000e DFEDC26A 		vldr.32	s13, .L41
 5825              		.loc 1 958 0
 5826 0012 9FEDC27A 		vldr.32	s14, .L41+4
 5827              		.loc 1 947 0
 5828 0016 DFF844B3 		ldr	fp, .L41+68
 5829              		.loc 1 962 0
 5830 001a 9FEDC16A 		vldr.32	s12, .L41+8
 5831              		.loc 1 930 0
 5832 001e 2070     		strb	r0, [r4]
 5833              		.loc 1 938 0
 5834 0020 0721     		movs	r1, #7
 5835              		.loc 1 934 0
 5836 0022 3220     		movs	r0, #50
 5837              		.loc 1 951 0
 5838 0024 4FF07F58 		mov	r8, #1069547520
 5839              		.loc 1 933 0
 5840 0028 0023     		movs	r3, #0
 5841              		.loc 1 932 0
 5842 002a 0022     		movs	r2, #0
 5843              		.loc 1 961 0
 5844 002c BD4D     		ldr	r5, .L41+12
 5845              		.loc 1 948 0
 5846 002e BE4F     		ldr	r7, .L41+16
 5847              		.loc 1 963 0
 5848 0030 DFEDBE7A 		vldr.32	s15, .L41+20
 5849              		.loc 1 967 0
 5850 0034 DFF828E3 		ldr	lr, .L41+72
 5851              		.loc 1 934 0
 5852 0038 2061     		str	r0, [r4, #16]
 5853              		.loc 1 935 0
 5854 003a 0226     		movs	r6, #2
 5855              		.loc 1 931 0
 5856 003c 4FF47A79 		mov	r9, #1000
 5857              		.loc 1 938 0
 5858 0040 E175     		strb	r1, [r4, #23]
 5859              		.loc 1 942 0
 5860 0042 C4F820A0 		str	r10, [r4, #32]	@ float
 5861              		.loc 1 937 0
 5862 0046 0121     		movs	r1, #1
 5863              		.loc 1 945 0
 5864 0048 4FF0030A 		mov	r10, #3
 5865              		.loc 1 947 0
 5866 004c C4F82CB0 		str	fp, [r4, #44]	@ float
 5867              		.loc 1 951 0
 5868 0050 C4F83C80 		str	r8, [r4, #60]	@ float
 5869              		.loc 1 949 0
 5870 0054 4FF07E5B 		mov	fp, #1065353216
 5871              		.loc 1 950 0
ARM GAS  /tmp/cc4M9ACW.s 			page 104


 5872 0058 4FF08048 		mov	r8, #1073741824
 5873              		.loc 1 987 0
 5874 005c 4FF4E130 		mov	r0, #115200
 5875              		.loc 1 981 0
 5876 0060 DFF800C3 		ldr	ip, .L41+76
 5877              		.loc 1 931 0
 5878 0064 C4F80490 		str	r9, [r4, #4]
 5879              		.loc 1 935 0
 5880 0068 2675     		strb	r6, [r4, #20]
 5881              		.loc 1 956 0
 5882 006a 84F84C60 		strb	r6, [r4, #76]
 5883              		.loc 1 945 0
 5884 006e 84F824A0 		strb	r10, [r4, #36]
 5885              		.loc 1 948 0
 5886 0072 2763     		str	r7, [r4, #48]	@ float
 5887              		.loc 1 950 0
 5888 0074 C4F83880 		str	r8, [r4, #56]	@ float
 5889              		.loc 1 957 0
 5890 0078 C4ED146A 		vstr.32	s13, [r4, #80]
 5891              		.loc 1 958 0
 5892 007c 84ED157A 		vstr.32	s14, [r4, #84]
 5893              		.loc 1 961 0
 5894 0080 E565     		str	r5, [r4, #92]	@ float
 5895              		.loc 1 932 0
 5896 0082 A260     		str	r2, [r4, #8]	@ float
 5897              		.loc 1 954 0
 5898 0084 6264     		str	r2, [r4, #68]	@ float
 5899              		.loc 1 955 0
 5900 0086 A264     		str	r2, [r4, #72]	@ float
 5901              		.loc 1 933 0
 5902 0088 2373     		strb	r3, [r4, #12]
 5903              		.loc 1 936 0
 5904 008a 6375     		strb	r3, [r4, #21]
 5905              		.loc 1 939 0
 5906 008c A376     		strb	r3, [r4, #26]
 5907              		.loc 1 940 0
 5908 008e E376     		strb	r3, [r4, #27]
 5909              		.loc 1 941 0
 5910 0090 2377     		strb	r3, [r4, #28]
 5911              		.loc 1 943 0
 5912 0092 2376     		strb	r3, [r4, #24]
 5913              		.loc 1 944 0
 5914 0094 6376     		strb	r3, [r4, #25]
 5915              		.loc 1 946 0
 5916 0096 84F82830 		strb	r3, [r4, #40]
 5917              		.loc 1 960 0
 5918 009a 84F85930 		strb	r3, [r4, #89]
 5919              		.loc 1 937 0
 5920 009e A175     		strb	r1, [r4, #22]
 5921              		.loc 1 952 0
 5922 00a0 84F84010 		strb	r1, [r4, #64]
 5923              		.loc 1 953 0
 5924 00a4 84F84110 		strb	r1, [r4, #65]
 5925              		.loc 1 959 0
 5926 00a8 84F85810 		strb	r1, [r4, #88]
 5927              		.loc 1 949 0
 5928 00ac C4F834B0 		str	fp, [r4, #52]	@ float
ARM GAS  /tmp/cc4M9ACW.s 			page 105


 5929              		.loc 1 962 0
 5930 00b0 84ED186A 		vstr.32	s12, [r4, #96]
 5931              		.loc 1 966 0
 5932 00b4 2767     		str	r7, [r4, #112]	@ float
 5933              		.loc 1 989 0
 5934 00b6 C4F8B870 		str	r7, [r4, #184]	@ float
 5935              		.loc 1 987 0
 5936 00ba C4F8B000 		str	r0, [r4, #176]
 5937              		.loc 1 982 0
 5938 00be 9C4F     		ldr	r7, .L41+24
 5939              		.loc 1 964 0
 5940 00c0 9C48     		ldr	r0, .L41+28
 5941              		.loc 1 967 0
 5942 00c2 C4F874E0 		str	lr, [r4, #116]	@ float
 5943              		.loc 1 970 0
 5944 00c6 C4F880E0 		str	lr, [r4, #128]	@ float
 5945              		.loc 1 986 0
 5946 00ca 4FF4FA7E 		mov	lr, #500
 5947              		.loc 1 969 0
 5948 00ce C4F87C80 		str	r8, [r4, #124]	@ float
 5949              		.loc 1 980 0
 5950 00d2 84F89860 		strb	r6, [r4, #152]
 5951              		.loc 1 985 0
 5952 00d6 C4F8A850 		str	r5, [r4, #168]	@ float
 5953              		.loc 1 990 0
 5954 00da C4ED2F6A 		vstr.32	s13, [r4, #188]
 5955              		.loc 1 991 0
 5956 00de 84ED307A 		vstr.32	s14, [r4, #192]
 5957              		.loc 1 992 0
 5958 00e2 C4F8C450 		str	r5, [r4, #196]	@ float
 5959              		.loc 1 963 0
 5960 00e6 C4ED197A 		vstr.32	s15, [r4, #100]
 5961              		.loc 1 964 0
 5962 00ea A066     		str	r0, [r4, #104]	@ float
 5963              		.loc 1 968 0
 5964 00ec A067     		str	r0, [r4, #120]	@ float
 5965              		.loc 1 971 0
 5966 00ee C4F88400 		str	r0, [r4, #132]	@ float
 5967              		.loc 1 965 0
 5968 00f2 84F86C30 		strb	r3, [r4, #108]
 5969              		.loc 1 972 0
 5970 00f6 84F88810 		strb	r1, [r4, #136]
 5971              		.loc 1 973 0
 5972 00fa 84F88910 		strb	r1, [r4, #137]
 5973              		.loc 1 974 0
 5974 00fe 84F88A30 		strb	r3, [r4, #138]
 5975              		.loc 1 975 0
 5976 0102 84F88B30 		strb	r3, [r4, #139]
 5977              		.loc 1 976 0
 5978 0106 84F88C30 		strb	r3, [r4, #140]
 5979              		.loc 1 977 0
 5980 010a 84F88D30 		strb	r3, [r4, #141]
 5981              		.loc 1 978 0
 5982 010e C4F89020 		str	r2, [r4, #144]	@ float
 5983              		.loc 1 979 0
 5984 0112 C4F89420 		str	r2, [r4, #148]	@ float
 5985              		.loc 1 983 0
ARM GAS  /tmp/cc4M9ACW.s 			page 106


 5986 0116 84F8A410 		strb	r1, [r4, #164]
 5987              		.loc 1 984 0
 5988 011a 84F8A530 		strb	r3, [r4, #165]
 5989              		.loc 1 988 0
 5990 011e 84F8B430 		strb	r3, [r4, #180]
 5991              		.loc 1 993 0
 5992 0122 C4F8C820 		str	r2, [r4, #200]	@ float
 5993              		.loc 1 994 0
 5994 0126 C4F8CC20 		str	r2, [r4, #204]	@ float
 5995              		.loc 1 981 0
 5996 012a C4F89CC0 		str	ip, [r4, #156]	@ float
 5997              		.loc 1 982 0
 5998 012e C4F8A070 		str	r7, [r4, #160]	@ float
 5999              		.loc 1 986 0
 6000 0132 C4F8ACE0 		str	lr, [r4, #172]
 6001              		.loc 1 995 0
 6002 0136 84F8D060 		strb	r6, [r4, #208]
 6003              		.loc 1 998 0
 6004 013a C4F8D450 		str	r5, [r4, #212]	@ float
 6005              		.loc 1 1017 0
 6006 013e 7E4E     		ldr	r6, .L41+32
 6007              		.loc 1 1006 0
 6008 0140 7E4D     		ldr	r5, .L41+36
 6009              		.loc 1 1033 0
 6010 0142 9FED7F6A 		vldr.32	s12, .L41+40
 6011              		.loc 1 1003 0
 6012 0146 84F8E5A0 		strb	r10, [r4, #229]
 6013              		.loc 1 1014 0
 6014 014a C4E93E39 		strd	r3, r9, [r4, #248]
 6015              		.loc 1 1016 0
 6016 014e DFF818A2 		ldr	r10, .L41+80
 6017              		.loc 1 1006 0
 6018 0152 C4F8E850 		str	r5, [r4, #232]
 6019              		.loc 1 1018 0
 6020 0156 DFF80892 		ldr	r9, .L41+72
 6021              		.loc 1 1016 0
 6022 015a C4F800A1 		str	r10, [r4, #256]
 6023              		.loc 1 1025 0
 6024 015e 4FF07A75 		mov	r5, #65536000
 6025              		.loc 1 1017 0
 6026 0162 C4F80461 		str	r6, [r4, #260]
 6027              		.loc 1 1029 0
 6028 0166 4FF07D5A 		mov	r10, #1061158912
 6029              		.loc 1 1027 0
 6030 016a A6F18A76 		sub	r6, r6, #18087936
 6031              		.loc 1 1018 0
 6032 016e C4F80891 		str	r9, [r4, #264]
 6033              		.loc 1 1025 0
 6034 0172 C4F81C51 		str	r5, [r4, #284]
 6035              		.loc 1 1028 0
 6036 0176 DFF8BC91 		ldr	r9, .L41+28
 6037              		.loc 1 1031 0
 6038 017a 724D     		ldr	r5, .L41+44
 6039              		.loc 1 1000 0
 6040 017c C4ED377A 		vstr.32	s15, [r4, #220]
 6041              		.loc 1 1001 0
 6042 0180 C4F8E000 		str	r0, [r4, #224]	@ float
ARM GAS  /tmp/cc4M9ACW.s 			page 107


 6043              		.loc 1 1032 0
 6044 0184 C4F83001 		str	r0, [r4, #304]	@ float
 6045              		.loc 1 1029 0
 6046 0188 C4F828A1 		str	r10, [r4, #296]
 6047              		.loc 1 1033 0
 6048 018c 84ED4D6A 		vstr.32	s12, [r4, #308]
 6049              		.loc 1 1027 0
 6050 0190 C4F82061 		str	r6, [r4, #288]
 6051              		.loc 1 1028 0
 6052 0194 C4F82491 		str	r9, [r4, #292]
 6053              		.loc 1 996 0
 6054 0198 84F8D110 		strb	r1, [r4, #209]
 6055              		.loc 1 997 0
 6056 019c 84F8D230 		strb	r3, [r4, #210]
 6057              		.loc 1 999 0
 6058 01a0 84F8D810 		strb	r1, [r4, #216]
 6059              		.loc 1 1002 0
 6060 01a4 84F8E410 		strb	r1, [r4, #228]
 6061              		.loc 1 1004 0
 6062 01a8 84F8E610 		strb	r1, [r4, #230]
 6063              		.loc 1 1005 0
 6064 01ac 84F8E730 		strb	r3, [r4, #231]
 6065              		.loc 1 1009 0
 6066 01b0 84F8EC30 		strb	r3, [r4, #236]
 6067              		.loc 1 1011 0
 6068 01b4 84F8ED10 		strb	r1, [r4, #237]
 6069              		.loc 1 1012 0
 6070 01b8 C4E93C33 		strd	r3, r3, [r4, #240]
 6071              		.loc 1 1019 0
 6072 01bc C4F80C31 		str	r3, [r4, #268]
 6073              		.loc 1 1020 0
 6074 01c0 C4F81031 		str	r3, [r4, #272]
 6075              		.loc 1 1021 0
 6076 01c4 C4F81431 		str	r3, [r4, #276]
 6077              		.loc 1 1023 0
 6078 01c8 C4F81831 		str	r3, [r4, #280]
 6079              		.loc 1 1031 0
 6080 01cc C4F82C51 		str	r5, [r4, #300]	@ float
 6081              		.loc 1 1034 0
 6082 01d0 C4F83851 		str	r5, [r4, #312]	@ float
 6083              		.loc 1 1035 0
 6084 01d4 C4F83C01 		str	r0, [r4, #316]	@ float
 6085              		.loc 1 1065 0
 6086 01d8 C4F8B491 		str	r9, [r4, #436]
 6087              		.loc 1 1059 0
 6088 01dc 4FF08249 		mov	r9, #1090519040
 6089              		.loc 1 1037 0
 6090 01e0 C4F84481 		str	r8, [r4, #324]	@ float
 6091              		.loc 1 1042 0
 6092 01e4 C4F85801 		str	r0, [r4, #344]	@ float
 6093              		.loc 1 1054 0
 6094 01e8 4FF00A0A 		mov	r10, #10
 6095              		.loc 1 1045 0
 6096 01ec 5648     		ldr	r0, .L41+48
 6097              		.loc 1 1059 0
 6098 01ee C4F89C91 		str	r9, [r4, #412]
 6099              		.loc 1 1067 0
ARM GAS  /tmp/cc4M9ACW.s 			page 108


 6100 01f2 4FF08048 		mov	r8, #1073741824
 6101              		.loc 1 1073 0
 6102 01f6 09F15269 		add	r9, r9, #220200960
 6103              		.loc 1 1062 0
 6104 01fa C4F8A861 		str	r6, [r4, #424]
 6105              		.loc 1 1045 0
 6106 01fe C4F86401 		str	r0, [r4, #356]	@ float
 6107              		.loc 1 1060 0
 6108 0202 4FF07E56 		mov	r6, #1065353216
 6109              		.loc 1 1063 0
 6110 0206 5148     		ldr	r0, .L41+52
 6111              		.loc 1 1054 0
 6112 0208 A4F888A1 		strh	r10, [r4, #392]	@ movhi
 6113              		.loc 1 1067 0
 6114 020c C4F8BC81 		str	r8, [r4, #444]
 6115              		.loc 1 1080 0
 6116 0210 DFED4F6A 		vldr.32	s13, .L41+56
 6117              		.loc 1 1084 0
 6118 0214 9FED4F7A 		vldr.32	s14, .L41+60
 6119              		.loc 1 1060 0
 6120 0218 C4F8A061 		str	r6, [r4, #416]
 6121              		.loc 1 1043 0
 6122 021c B3EE046A 		vmov.f32	s12, #2.0e+1
 6123              		.loc 1 1044 0
 6124 0220 F2EE007A 		vmov.f32	s15, #8.0e+0
 6125              		.loc 1 1071 0
 6126 0224 4FF0640A 		mov	r10, #100
 6127              		.loc 1 1073 0
 6128 0228 09F11409 		add	r9, r9, #20
 6129              		.loc 1 1082 0
 6130 022c 4FF01808 		mov	r8, #24
 6131              		.loc 1 1036 0
 6132 0230 C4F84021 		str	r2, [r4, #320]	@ float
 6133              		.loc 1 1038 0
 6134 0234 C4F84821 		str	r2, [r4, #328]	@ float
 6135              		.loc 1 1039 0
 6136 0238 A4F84CE1 		strh	lr, [r4, #332]	@ movhi
 6137              		.loc 1 1040 0
 6138 023c C4F85021 		str	r2, [r4, #336]	@ float
 6139              		.loc 1 1041 0
 6140 0240 C4F85421 		str	r2, [r4, #340]	@ float
 6141              		.loc 1 1046 0
 6142 0244 C4F86821 		str	r2, [r4, #360]	@ float
 6143              		.loc 1 1047 0
 6144 0248 84F86C31 		strb	r3, [r4, #364]
 6145              		.loc 1 1048 0
 6146 024c C4F87021 		str	r2, [r4, #368]	@ float
 6147              		.loc 1 1049 0
 6148 0250 C4F87421 		str	r2, [r4, #372]	@ float
 6149              		.loc 1 1050 0
 6150 0254 C4F87821 		str	r2, [r4, #376]	@ float
 6151              		.loc 1 1051 0
 6152 0258 C4F87C21 		str	r2, [r4, #380]	@ float
 6153              		.loc 1 1052 0
 6154 025c C4F88021 		str	r2, [r4, #384]	@ float
 6155              		.loc 1 1053 0
 6156 0260 C4F88421 		str	r2, [r4, #388]	@ float
ARM GAS  /tmp/cc4M9ACW.s 			page 109


 6157              		.loc 1 1055 0
 6158 0264 C4F88C31 		str	r3, [r4, #396]
 6159 0268 C4F89031 		str	r3, [r4, #400]
 6160              		.loc 1 1057 0
 6161 026c C4F89431 		str	r3, [r4, #404]
 6162              		.loc 1 1058 0
 6163 0270 C4F89831 		str	r3, [r4, #408]
 6164              		.loc 1 1061 0
 6165 0274 C4F8A431 		str	r3, [r4, #420]
 6166              		.loc 1 1066 0
 6167 0278 C4F8B831 		str	r3, [r4, #440]
 6168              		.loc 1 1043 0
 6169 027c 84ED576A 		vstr.32	s12, [r4, #348]
 6170              		.loc 1 1044 0
 6171 0280 C4ED587A 		vstr.32	s15, [r4, #352]
 6172              		.loc 1 1063 0
 6173 0284 C4F8AC01 		str	r0, [r4, #428]
 6174              		.loc 1 1064 0
 6175 0288 C4F8B001 		str	r0, [r4, #432]
 6176              		.loc 1 1068 0
 6177 028c C4F8C031 		str	r3, [r4, #448]
 6178              		.loc 1 1070 0
 6179 0290 C4F8C861 		str	r6, [r4, #456]
 6180              		.loc 1 1073 0
 6181 0294 C4F8D001 		str	r0, [r4, #464]
 6182              		.loc 1 1089 0
 6183 0298 C826     		movs	r6, #200
 6184              		.loc 1 1071 0
 6185 029a A4F8CCA1 		strh	r10, [r4, #460]	@ movhi
 6186              		.loc 1 1073 0
 6187 029e C4F8D491 		str	r9, [r4, #468]
 6188              		.loc 1 1082 0
 6189 02a2 84F8E981 		strb	r8, [r4, #489]
 6190              		.loc 1 1069 0
 6191 02a6 C4F8C401 		str	r0, [r4, #452]
 6192              		.loc 1 1076 0
 6193 02aa 84F8D831 		strb	r3, [r4, #472]
 6194              		.loc 1 1077 0
 6195 02ae 84F8D931 		strb	r3, [r4, #473]
 6196              		.loc 1 1078 0
 6197 02b2 C4F8DC71 		str	r7, [r4, #476]	@ float
 6198              		.loc 1 1079 0
 6199 02b6 C4F8E051 		str	r5, [r4, #480]	@ float
 6200              		.loc 1 1081 0
 6201 02ba 84F8E831 		strb	r3, [r4, #488]
 6202              		.loc 1 1083 0
 6203 02be 84F8EA11 		strb	r1, [r4, #490]
 6204              		.loc 1 1085 0
 6205 02c2 C4F8F0C1 		str	ip, [r4, #496]	@ float
 6206              		.loc 1 1086 0
 6207 02c6 C4F8F4E1 		str	lr, [r4, #500]
 6208              		.loc 1 1087 0
 6209 02ca 84F8F811 		strb	r1, [r4, #504]
 6210              		.loc 1 1088 0
 6211 02ce 84F8F931 		strb	r3, [r4, #505]
 6212              		.loc 1 1090 0
 6213 02d2 C4F800B2 		str	fp, [r4, #512]	@ float
ARM GAS  /tmp/cc4M9ACW.s 			page 110


 6214              		.loc 1 1091 0
 6215 02d6 C4F804C2 		str	ip, [r4, #516]	@ float
 6216              		.loc 1 1092 0
 6217 02da C4F80822 		str	r2, [r4, #520]	@ float
 6218              		.loc 1 1093 0
 6219 02de C4F80C72 		str	r7, [r4, #524]	@ float
 6220              		.loc 1 1094 0
 6221 02e2 C4F81022 		str	r2, [r4, #528]	@ float
 6222              		.loc 1 1095 0
 6223 02e6 C4F81422 		str	r2, [r4, #532]	@ float
 6224              		.loc 1 1096 0
 6225 02ea C4F81822 		str	r2, [r4, #536]	@ float
 6226              		.loc 1 1097 0
 6227 02ee C4F81C22 		str	r2, [r4, #540]	@ float
 6228              		.loc 1 1098 0
 6229 02f2 C4F82022 		str	r2, [r4, #544]	@ float
 6230              		.loc 1 1099 0
 6231 02f6 C4F82422 		str	r2, [r4, #548]	@ float
 6232              		.loc 1 1100 0
 6233 02fa C4F82822 		str	r2, [r4, #552]	@ float
 6234              		.loc 1 1101 0
 6235 02fe C4F82C22 		str	r2, [r4, #556]	@ float
 6236              		.loc 1 1102 0
 6237 0302 C4F83022 		str	r2, [r4, #560]	@ float
 6238              		.loc 1 1080 0
 6239 0306 C4ED796A 		vstr.32	s13, [r4, #484]
 6240              		.loc 1 1084 0
 6241 030a 84ED7B7A 		vstr.32	s14, [r4, #492]
 6242              		.loc 1 1089 0
 6243 030e C4F8FC61 		str	r6, [r4, #508]
 6244              		.loc 1 1103 0
 6245 0312 BDE8F88F 		pop	{r3, r4, r5, r6, r7, r8, r9, r10, fp, pc}
 6246              	.LVL532:
 6247              	.L42:
 6248 0316 00BF     		.align	2
 6249              	.L41:
 6250 0318 CDCCCC3E 		.word	1053609165
 6251 031c CDCC4C3E 		.word	1045220557
 6252 0320 00007A45 		.word	1165623296
 6253 0324 00803B45 		.word	1161527296
 6254 0328 9A99193E 		.word	1041865114
 6255 032c 295C8F3D 		.word	1032805417
 6256 0330 CDCCCC3D 		.word	1036831949
 6257 0334 00004040 		.word	1077936128
 6258 0338 00003442 		.word	1110704128
 6259 033c 034CC6C7 		.word	-943305725
 6260 0340 00004843 		.word	1128792064
 6261 0344 00002041 		.word	1092616192
 6262 0348 0000F041 		.word	1106247680
 6263 034c 0000A040 		.word	1084227584
 6264 0350 00003443 		.word	1127481344
 6265 0354 9A99193F 		.word	1058642330
 6266 0358 00504347 		.word	1195593728
 6267 035c 00606A46 		.word	1181376512
 6268 0360 6666663F 		.word	1063675494
 6269 0364 9A99993E 		.word	1050253722
 6270 0368 0000A041 		.word	1101004800
ARM GAS  /tmp/cc4M9ACW.s 			page 111


 6271              		.cfi_endproc
 6272              	.LFE224:
 6273              		.size	confgenerator_set_defaults_appconf, .-confgenerator_set_defaults_appconf
 6274              		.text
 6275              	.Letext0:
 6276              		.file 2 "/usr/arm-none-eabi/include/machine/_default_types.h"
 6277              		.file 3 "/usr/arm-none-eabi/include/sys/_stdint.h"
 6278              		.file 4 "ChibiOS_3.0.5/os/rt/ports/ARMCMx/compilers/GCC/chtypes.h"
 6279              		.file 5 "ChibiOS_3.0.5/os/rt/include/chsystypes.h"
 6280              		.file 6 "ChibiOS_3.0.5/os/rt/include/chschd.h"
 6281              		.file 7 "ChibiOS_3.0.5/os/ext/CMSIS/include/core_cm4.h"
 6282              		.file 8 "ChibiOS_3.0.5/os/ext/CMSIS/ST/system_stm32f4xx.h"
 6283              		.file 9 "ChibiOS_3.0.5/os/rt/ports/ARMCMx/chcore.h"
 6284              		.file 10 "ChibiOS_3.0.5/os/rt/ports/ARMCMx/chcore_v7m.h"
 6285              		.file 11 "ChibiOS_3.0.5/os/rt/include/chtm.h"
 6286              		.file 12 "ChibiOS_3.0.5/os/rt/include/chsem.h"
 6287              		.file 13 "ChibiOS_3.0.5/os/rt/include/chmtx.h"
 6288              		.file 14 "ChibiOS_3.0.5/os/rt/include/chregistry.h"
 6289              		.file 15 "datatypes.h"
 6290              		.file 16 "conf_general.h"
 6291              		.file 17 "hwconf/hw.h"
 6292              		.file 18 "buffer.h"
 6293              		.section	.debug_info,"",%progbits
 6294              	.Ldebug_info0:
 6295 0000 FF5E0000 		.4byte	0x5eff
 6296 0004 0400     		.2byte	0x4
 6297 0006 00000000 		.4byte	.Ldebug_abbrev0
 6298 000a 04       		.byte	0x4
 6299 000b 01       		.uleb128 0x1
 6300 000c 5B0D0000 		.4byte	.LASF714
 6301 0010 0C       		.byte	0xc
 6302 0011 4E210000 		.4byte	.LASF715
 6303 0015 582D0000 		.4byte	.LASF716
 6304 0019 00000000 		.4byte	.Ldebug_ranges0+0
 6305 001d 00000000 		.4byte	0
 6306 0021 00000000 		.4byte	.Ldebug_line0
 6307 0025 02       		.uleb128 0x2
 6308 0026 04       		.byte	0x4
 6309 0027 04       		.byte	0x4
 6310 0028 0F0B0000 		.4byte	.LASF0
 6311 002c 03       		.uleb128 0x3
 6312 002d 1B2D0000 		.4byte	.LASF2
 6313 0031 02       		.byte	0x2
 6314 0032 29       		.byte	0x29
 6315 0033 37000000 		.4byte	0x37
 6316 0037 02       		.uleb128 0x2
 6317 0038 01       		.byte	0x1
 6318 0039 06       		.byte	0x6
 6319 003a BF190000 		.4byte	.LASF1
 6320 003e 03       		.uleb128 0x3
 6321 003f 4C010000 		.4byte	.LASF3
 6322 0043 02       		.byte	0x2
 6323 0044 2B       		.byte	0x2b
 6324 0045 49000000 		.4byte	0x49
 6325 0049 02       		.uleb128 0x2
 6326 004a 01       		.byte	0x1
 6327 004b 08       		.byte	0x8
ARM GAS  /tmp/cc4M9ACW.s 			page 112


 6328 004c 960A0000 		.4byte	.LASF4
 6329 0050 02       		.uleb128 0x2
 6330 0051 02       		.byte	0x2
 6331 0052 05       		.byte	0x5
 6332 0053 8B2E0000 		.4byte	.LASF5
 6333 0057 03       		.uleb128 0x3
 6334 0058 CD090000 		.4byte	.LASF6
 6335 005c 02       		.byte	0x2
 6336 005d 39       		.byte	0x39
 6337 005e 62000000 		.4byte	0x62
 6338 0062 02       		.uleb128 0x2
 6339 0063 02       		.byte	0x2
 6340 0064 07       		.byte	0x7
 6341 0065 A1190000 		.4byte	.LASF7
 6342 0069 03       		.uleb128 0x3
 6343 006a 36250000 		.4byte	.LASF8
 6344 006e 02       		.byte	0x2
 6345 006f 4D       		.byte	0x4d
 6346 0070 74000000 		.4byte	0x74
 6347 0074 02       		.uleb128 0x2
 6348 0075 04       		.byte	0x4
 6349 0076 05       		.byte	0x5
 6350 0077 541D0000 		.4byte	.LASF9
 6351 007b 03       		.uleb128 0x3
 6352 007c 4E250000 		.4byte	.LASF10
 6353 0080 02       		.byte	0x2
 6354 0081 4F       		.byte	0x4f
 6355 0082 86000000 		.4byte	0x86
 6356 0086 02       		.uleb128 0x2
 6357 0087 04       		.byte	0x4
 6358 0088 07       		.byte	0x7
 6359 0089 0B1F0000 		.4byte	.LASF11
 6360 008d 02       		.uleb128 0x2
 6361 008e 08       		.byte	0x8
 6362 008f 05       		.byte	0x5
 6363 0090 D72A0000 		.4byte	.LASF12
 6364 0094 03       		.uleb128 0x3
 6365 0095 EE140000 		.4byte	.LASF13
 6366 0099 02       		.byte	0x2
 6367 009a 69       		.byte	0x69
 6368 009b 9F000000 		.4byte	0x9f
 6369 009f 02       		.uleb128 0x2
 6370 00a0 08       		.byte	0x8
 6371 00a1 07       		.byte	0x7
 6372 00a2 43270000 		.4byte	.LASF14
 6373 00a6 04       		.uleb128 0x4
 6374 00a7 04       		.byte	0x4
 6375 00a8 05       		.byte	0x5
 6376 00a9 696E7400 		.ascii	"int\000"
 6377 00ad 02       		.uleb128 0x2
 6378 00ae 04       		.byte	0x4
 6379 00af 07       		.byte	0x7
 6380 00b0 222E0000 		.4byte	.LASF15
 6381 00b4 03       		.uleb128 0x3
 6382 00b5 2B180000 		.4byte	.LASF16
 6383 00b9 03       		.byte	0x3
 6384 00ba 14       		.byte	0x14
ARM GAS  /tmp/cc4M9ACW.s 			page 113


 6385 00bb 2C000000 		.4byte	0x2c
 6386 00bf 03       		.uleb128 0x3
 6387 00c0 56110000 		.4byte	.LASF17
 6388 00c4 03       		.byte	0x3
 6389 00c5 18       		.byte	0x18
 6390 00c6 3E000000 		.4byte	0x3e
 6391 00ca 05       		.uleb128 0x5
 6392 00cb BF000000 		.4byte	0xbf
 6393 00cf 03       		.uleb128 0x3
 6394 00d0 4F020000 		.4byte	.LASF18
 6395 00d4 03       		.byte	0x3
 6396 00d5 24       		.byte	0x24
 6397 00d6 57000000 		.4byte	0x57
 6398 00da 03       		.uleb128 0x3
 6399 00db 01050000 		.4byte	.LASF19
 6400 00df 03       		.byte	0x3
 6401 00e0 2C       		.byte	0x2c
 6402 00e1 69000000 		.4byte	0x69
 6403 00e5 06       		.uleb128 0x6
 6404 00e6 DA000000 		.4byte	0xda
 6405 00ea 03       		.uleb128 0x3
 6406 00eb 8D1E0000 		.4byte	.LASF20
 6407 00ef 03       		.byte	0x3
 6408 00f0 30       		.byte	0x30
 6409 00f1 7B000000 		.4byte	0x7b
 6410 00f5 03       		.uleb128 0x3
 6411 00f6 5C0C0000 		.4byte	.LASF21
 6412 00fa 03       		.byte	0x3
 6413 00fb 3C       		.byte	0x3c
 6414 00fc 94000000 		.4byte	0x94
 6415 0100 03       		.uleb128 0x3
 6416 0101 F30F0000 		.4byte	.LASF22
 6417 0105 04       		.byte	0x4
 6418 0106 45       		.byte	0x45
 6419 0107 EA000000 		.4byte	0xea
 6420 010b 03       		.uleb128 0x3
 6421 010c F5160000 		.4byte	.LASF23
 6422 0110 04       		.byte	0x4
 6423 0111 48       		.byte	0x48
 6424 0112 BF000000 		.4byte	0xbf
 6425 0116 03       		.uleb128 0x3
 6426 0117 FA280000 		.4byte	.LASF24
 6427 011b 04       		.byte	0x4
 6428 011c 49       		.byte	0x49
 6429 011d BF000000 		.4byte	0xbf
 6430 0121 03       		.uleb128 0x3
 6431 0122 56160000 		.4byte	.LASF25
 6432 0126 04       		.byte	0x4
 6433 0127 4A       		.byte	0x4a
 6434 0128 BF000000 		.4byte	0xbf
 6435 012c 03       		.uleb128 0x3
 6436 012d E4180000 		.4byte	.LASF26
 6437 0131 04       		.byte	0x4
 6438 0132 4B       		.byte	0x4b
 6439 0133 BF000000 		.4byte	0xbf
 6440 0137 03       		.uleb128 0x3
 6441 0138 49080000 		.4byte	.LASF27
ARM GAS  /tmp/cc4M9ACW.s 			page 114


 6442 013c 04       		.byte	0x4
 6443 013d 4C       		.byte	0x4c
 6444 013e EA000000 		.4byte	0xea
 6445 0142 03       		.uleb128 0x3
 6446 0143 A9000000 		.4byte	.LASF28
 6447 0147 04       		.byte	0x4
 6448 0148 4D       		.byte	0x4d
 6449 0149 DA000000 		.4byte	0xda
 6450 014d 03       		.uleb128 0x3
 6451 014e CA1E0000 		.4byte	.LASF29
 6452 0152 04       		.byte	0x4
 6453 0153 4F       		.byte	0x4f
 6454 0154 EA000000 		.4byte	0xea
 6455 0158 03       		.uleb128 0x3
 6456 0159 60220000 		.4byte	.LASF30
 6457 015d 04       		.byte	0x4
 6458 015e 51       		.byte	0x51
 6459 015f DA000000 		.4byte	0xda
 6460 0163 03       		.uleb128 0x3
 6461 0164 1D050000 		.4byte	.LASF31
 6462 0168 05       		.byte	0x5
 6463 0169 33       		.byte	0x33
 6464 016a EA000000 		.4byte	0xea
 6465 016e 06       		.uleb128 0x6
 6466 016f 63010000 		.4byte	0x163
 6467 0173 03       		.uleb128 0x3
 6468 0174 D2040000 		.4byte	.LASF32
 6469 0178 05       		.byte	0x5
 6470 0179 3F       		.byte	0x3f
 6471 017a 7E010000 		.4byte	0x17e
 6472 017e 07       		.uleb128 0x7
 6473 017f EB0A0000 		.4byte	.LASF56
 6474 0183 50       		.byte	0x50
 6475 0184 06       		.byte	0x6
 6476 0185 C2       		.byte	0xc2
 6477 0186 9C020000 		.4byte	0x29c
 6478 018a 08       		.uleb128 0x8
 6479 018b D6150000 		.4byte	.LASF33
 6480 018f 06       		.byte	0x6
 6481 0190 C3       		.byte	0xc3
 6482 0191 A7020000 		.4byte	0x2a7
 6483 0195 00       		.byte	0
 6484 0196 08       		.uleb128 0x8
 6485 0197 C0110000 		.4byte	.LASF34
 6486 019b 06       		.byte	0x6
 6487 019c C5       		.byte	0xc5
 6488 019d A7020000 		.4byte	0x2a7
 6489 01a1 04       		.byte	0x4
 6490 01a2 08       		.uleb128 0x8
 6491 01a3 D1140000 		.4byte	.LASF35
 6492 01a7 06       		.byte	0x6
 6493 01a8 C7       		.byte	0xc7
 6494 01a9 37010000 		.4byte	0x137
 6495 01ad 08       		.byte	0x8
 6496 01ae 08       		.uleb128 0x8
 6497 01af C30B0000 		.4byte	.LASF36
 6498 01b3 06       		.byte	0x6
ARM GAS  /tmp/cc4M9ACW.s 			page 115


 6499 01b4 C8       		.byte	0xc8
 6500 01b5 E7040000 		.4byte	0x4e7
 6501 01b9 0C       		.byte	0xc
 6502 01ba 08       		.uleb128 0x8
 6503 01bb 2D030000 		.4byte	.LASF37
 6504 01bf 06       		.byte	0x6
 6505 01c0 CA       		.byte	0xca
 6506 01c1 A7020000 		.4byte	0x2a7
 6507 01c5 10       		.byte	0x10
 6508 01c6 08       		.uleb128 0x8
 6509 01c7 142C0000 		.4byte	.LASF38
 6510 01cb 06       		.byte	0x6
 6511 01cc CB       		.byte	0xcb
 6512 01cd A7020000 		.4byte	0x2a7
 6513 01d1 14       		.byte	0x14
 6514 01d2 08       		.uleb128 0x8
 6515 01d3 45290000 		.4byte	.LASF39
 6516 01d7 06       		.byte	0x6
 6517 01d8 D2       		.byte	0xd2
 6518 01d9 2C070000 		.4byte	0x72c
 6519 01dd 18       		.byte	0x18
 6520 01de 08       		.uleb128 0x8
 6521 01df 55220000 		.4byte	.LASF40
 6522 01e3 06       		.byte	0x6
 6523 01e4 D8       		.byte	0xd8
 6524 01e5 43070000 		.4byte	0x743
 6525 01e9 1C       		.byte	0x1c
 6526 01ea 08       		.uleb128 0x8
 6527 01eb 382F0000 		.4byte	.LASF41
 6528 01ef 06       		.byte	0x6
 6529 01f0 DD       		.byte	0xdd
 6530 01f1 16010000 		.4byte	0x116
 6531 01f5 20       		.byte	0x20
 6532 01f6 08       		.uleb128 0x8
 6533 01f7 3E280000 		.4byte	.LASF42
 6534 01fb 06       		.byte	0x6
 6535 01fc E1       		.byte	0xe1
 6536 01fd 0B010000 		.4byte	0x10b
 6537 0201 21       		.byte	0x21
 6538 0202 08       		.uleb128 0x8
 6539 0203 2C1D0000 		.4byte	.LASF43
 6540 0207 06       		.byte	0x6
 6541 0208 E6       		.byte	0xe6
 6542 0209 21010000 		.4byte	0x121
 6543 020d 22       		.byte	0x22
 6544 020e 08       		.uleb128 0x8
 6545 020f FA190000 		.4byte	.LASF44
 6546 0213 06       		.byte	0x6
 6547 0214 EC       		.byte	0xec
 6548 0215 2C010000 		.4byte	0x12c
 6549 0219 23       		.byte	0x23
 6550 021a 08       		.uleb128 0x8
 6551 021b 0F1A0000 		.4byte	.LASF45
 6552 021f 06       		.byte	0x6
 6553 0220 F3       		.byte	0xf3
 6554 0221 6E010000 		.4byte	0x16e
 6555 0225 24       		.byte	0x24
ARM GAS  /tmp/cc4M9ACW.s 			page 116


 6556 0226 09       		.uleb128 0x9
 6557 0227 705F7500 		.ascii	"p_u\000"
 6558 022b 06       		.byte	0x6
 6559 022c 3101     		.2byte	0x131
 6560 022e 67060000 		.4byte	0x667
 6561 0232 28       		.byte	0x28
 6562 0233 0A       		.uleb128 0xa
 6563 0234 F9060000 		.4byte	.LASF46
 6564 0238 06       		.byte	0x6
 6565 0239 3601     		.2byte	0x136
 6566 023b AD020000 		.4byte	0x2ad
 6567 023f 2C       		.byte	0x2c
 6568 0240 0A       		.uleb128 0xa
 6569 0241 CA1A0000 		.4byte	.LASF47
 6570 0245 06       		.byte	0x6
 6571 0246 3C01     		.2byte	0x13c
 6572 0248 D1020000 		.4byte	0x2d1
 6573 024c 30       		.byte	0x30
 6574 024d 0A       		.uleb128 0xa
 6575 024e E3090000 		.4byte	.LASF48
 6576 0252 06       		.byte	0x6
 6577 0253 4001     		.2byte	0x140
 6578 0255 42010000 		.4byte	0x142
 6579 0259 38       		.byte	0x38
 6580 025a 0A       		.uleb128 0xa
 6581 025b 06260000 		.4byte	.LASF49
 6582 025f 06       		.byte	0x6
 6583 0260 4601     		.2byte	0x146
 6584 0262 4D010000 		.4byte	0x14d
 6585 0266 3C       		.byte	0x3c
 6586 0267 0A       		.uleb128 0xa
 6587 0268 8D280000 		.4byte	.LASF50
 6588 026c 06       		.byte	0x6
 6589 026d 4D01     		.2byte	0x14d
 6590 026f 26070000 		.4byte	0x726
 6591 0273 40       		.byte	0x40
 6592 0274 0A       		.uleb128 0xa
 6593 0275 06240000 		.4byte	.LASF51
 6594 0279 06       		.byte	0x6
 6595 027a 5101     		.2byte	0x151
 6596 027c 37010000 		.4byte	0x137
 6597 0280 44       		.byte	0x44
 6598 0281 0A       		.uleb128 0xa
 6599 0282 5E160000 		.4byte	.LASF52
 6600 0286 06       		.byte	0x6
 6601 0287 5801     		.2byte	0x158
 6602 0289 84030000 		.4byte	0x384
 6603 028d 48       		.byte	0x48
 6604 028e 0A       		.uleb128 0xa
 6605 028f D3080000 		.4byte	.LASF53
 6606 0293 06       		.byte	0x6
 6607 0294 6201     		.2byte	0x162
 6608 0296 A6000000 		.4byte	0xa6
 6609 029a 4C       		.byte	0x4c
 6610 029b 00       		.byte	0
 6611 029c 03       		.uleb128 0x3
 6612 029d 772C0000 		.4byte	.LASF54
ARM GAS  /tmp/cc4M9ACW.s 			page 117


 6613 02a1 05       		.byte	0x5
 6614 02a2 44       		.byte	0x44
 6615 02a3 A7020000 		.4byte	0x2a7
 6616 02a7 0B       		.uleb128 0xb
 6617 02a8 04       		.byte	0x4
 6618 02a9 73010000 		.4byte	0x173
 6619 02ad 03       		.uleb128 0x3
 6620 02ae 2E070000 		.4byte	.LASF55
 6621 02b2 05       		.byte	0x5
 6622 02b3 49       		.byte	0x49
 6623 02b4 B8020000 		.4byte	0x2b8
 6624 02b8 07       		.uleb128 0x7
 6625 02b9 532F0000 		.4byte	.LASF57
 6626 02bd 04       		.byte	0x4
 6627 02be 06       		.byte	0x6
 6628 02bf B0       		.byte	0xb0
 6629 02c0 D1020000 		.4byte	0x2d1
 6630 02c4 08       		.uleb128 0x8
 6631 02c5 D6150000 		.4byte	.LASF33
 6632 02c9 06       		.byte	0x6
 6633 02ca B1       		.byte	0xb1
 6634 02cb A7020000 		.4byte	0x2a7
 6635 02cf 00       		.byte	0
 6636 02d0 00       		.byte	0
 6637 02d1 03       		.uleb128 0x3
 6638 02d2 E21C0000 		.4byte	.LASF58
 6639 02d6 05       		.byte	0x5
 6640 02d7 50       		.byte	0x50
 6641 02d8 DC020000 		.4byte	0x2dc
 6642 02dc 07       		.uleb128 0x7
 6643 02dd 11030000 		.4byte	.LASF59
 6644 02e1 08       		.byte	0x8
 6645 02e2 06       		.byte	0x6
 6646 02e3 B7       		.byte	0xb7
 6647 02e4 01030000 		.4byte	0x301
 6648 02e8 08       		.uleb128 0x8
 6649 02e9 D6150000 		.4byte	.LASF33
 6650 02ed 06       		.byte	0x6
 6651 02ee B8       		.byte	0xb8
 6652 02ef A7020000 		.4byte	0x2a7
 6653 02f3 00       		.byte	0
 6654 02f4 08       		.uleb128 0x8
 6655 02f5 C0110000 		.4byte	.LASF34
 6656 02f9 06       		.byte	0x6
 6657 02fa B9       		.byte	0xb9
 6658 02fb A7020000 		.4byte	0x2a7
 6659 02ff 04       		.byte	0x4
 6660 0300 00       		.byte	0
 6661 0301 03       		.uleb128 0x3
 6662 0302 DE0A0000 		.4byte	.LASF60
 6663 0306 05       		.byte	0x5
 6664 0307 57       		.byte	0x57
 6665 0308 0C030000 		.4byte	0x30c
 6666 030c 0C       		.uleb128 0xc
 6667 030d 28250000 		.4byte	.LASF61
 6668 0311 1C       		.byte	0x1c
 6669 0312 06       		.byte	0x6
ARM GAS  /tmp/cc4M9ACW.s 			page 118


 6670 0313 9001     		.2byte	0x190
 6671 0315 68030000 		.4byte	0x368
 6672 0319 0A       		.uleb128 0xa
 6673 031a 5B200000 		.4byte	.LASF62
 6674 031e 06       		.byte	0x6
 6675 031f 9101     		.2byte	0x191
 6676 0321 D1020000 		.4byte	0x2d1
 6677 0325 00       		.byte	0
 6678 0326 0A       		.uleb128 0xa
 6679 0327 F2260000 		.4byte	.LASF63
 6680 032b 06       		.byte	0x6
 6681 032c 9201     		.2byte	0x192
 6682 032e 37010000 		.4byte	0x137
 6683 0332 08       		.byte	0x8
 6684 0333 0A       		.uleb128 0xa
 6685 0334 AD0F0000 		.4byte	.LASF64
 6686 0338 06       		.byte	0x6
 6687 0339 9401     		.2byte	0x194
 6688 033b E7040000 		.4byte	0x4e7
 6689 033f 0C       		.byte	0xc
 6690 0340 0A       		.uleb128 0xa
 6691 0341 A1180000 		.4byte	.LASF65
 6692 0345 06       		.byte	0x6
 6693 0346 9701     		.2byte	0x197
 6694 0348 A7020000 		.4byte	0x2a7
 6695 034c 10       		.byte	0x10
 6696 034d 0A       		.uleb128 0xa
 6697 034e B8110000 		.4byte	.LASF66
 6698 0352 06       		.byte	0x6
 6699 0353 9801     		.2byte	0x198
 6700 0355 A7020000 		.4byte	0x2a7
 6701 0359 14       		.byte	0x14
 6702 035a 0A       		.uleb128 0xa
 6703 035b DF0B0000 		.4byte	.LASF67
 6704 035f 06       		.byte	0x6
 6705 0360 9B01     		.2byte	0x19b
 6706 0362 A7020000 		.4byte	0x2a7
 6707 0366 18       		.byte	0x18
 6708 0367 00       		.byte	0
 6709 0368 03       		.uleb128 0x3
 6710 0369 B4230000 		.4byte	.LASF68
 6711 036d 05       		.byte	0x5
 6712 036e 5C       		.byte	0x5c
 6713 036f 73030000 		.4byte	0x373
 6714 0373 0B       		.uleb128 0xb
 6715 0374 04       		.byte	0x4
 6716 0375 79030000 		.4byte	0x379
 6717 0379 0D       		.uleb128 0xd
 6718 037a 84030000 		.4byte	0x384
 6719 037e 0E       		.uleb128 0xe
 6720 037f 84030000 		.4byte	0x384
 6721 0383 00       		.byte	0
 6722 0384 0F       		.uleb128 0xf
 6723 0385 04       		.byte	0x4
 6724 0386 03       		.uleb128 0x3
 6725 0387 9D0F0000 		.4byte	.LASF69
 6726 038b 05       		.byte	0x5
ARM GAS  /tmp/cc4M9ACW.s 			page 119


 6727 038c 61       		.byte	0x61
 6728 038d 91030000 		.4byte	0x391
 6729 0391 0C       		.uleb128 0xc
 6730 0392 2D280000 		.4byte	.LASF70
 6731 0396 14       		.byte	0x14
 6732 0397 06       		.byte	0x6
 6733 0398 6B01     		.2byte	0x16b
 6734 039a E0030000 		.4byte	0x3e0
 6735 039e 0A       		.uleb128 0xa
 6736 039f B30F0000 		.4byte	.LASF71
 6737 03a3 06       		.byte	0x6
 6738 03a4 6C01     		.2byte	0x16c
 6739 03a6 49070000 		.4byte	0x749
 6740 03aa 00       		.byte	0
 6741 03ab 0A       		.uleb128 0xa
 6742 03ac 8E0A0000 		.4byte	.LASF72
 6743 03b0 06       		.byte	0x6
 6744 03b1 6D01     		.2byte	0x16d
 6745 03b3 49070000 		.4byte	0x749
 6746 03b7 04       		.byte	0x4
 6747 03b8 0A       		.uleb128 0xa
 6748 03b9 40190000 		.4byte	.LASF73
 6749 03bd 06       		.byte	0x6
 6750 03be 6E01     		.2byte	0x16e
 6751 03c0 63010000 		.4byte	0x163
 6752 03c4 08       		.byte	0x8
 6753 03c5 0A       		.uleb128 0xa
 6754 03c6 25280000 		.4byte	.LASF74
 6755 03ca 06       		.byte	0x6
 6756 03cb 6F01     		.2byte	0x16f
 6757 03cd 68030000 		.4byte	0x368
 6758 03d1 0C       		.byte	0xc
 6759 03d2 0A       		.uleb128 0xa
 6760 03d3 C90B0000 		.4byte	.LASF75
 6761 03d7 06       		.byte	0x6
 6762 03d8 7101     		.2byte	0x171
 6763 03da 84030000 		.4byte	0x384
 6764 03de 10       		.byte	0x10
 6765 03df 00       		.byte	0
 6766 03e0 03       		.uleb128 0x3
 6767 03e1 B4290000 		.4byte	.LASF76
 6768 03e5 05       		.byte	0x5
 6769 03e6 66       		.byte	0x66
 6770 03e7 EB030000 		.4byte	0x3eb
 6771 03eb 0C       		.uleb128 0xc
 6772 03ec EA040000 		.4byte	.LASF77
 6773 03f0 10       		.byte	0x10
 6774 03f1 06       		.byte	0x6
 6775 03f2 7B01     		.2byte	0x17b
 6776 03f4 2D040000 		.4byte	0x42d
 6777 03f8 0A       		.uleb128 0xa
 6778 03f9 B30F0000 		.4byte	.LASF71
 6779 03fd 06       		.byte	0x6
 6780 03fe 7C01     		.2byte	0x17c
 6781 0400 49070000 		.4byte	0x749
 6782 0404 00       		.byte	0
 6783 0405 0A       		.uleb128 0xa
ARM GAS  /tmp/cc4M9ACW.s 			page 120


 6784 0406 8E0A0000 		.4byte	.LASF72
 6785 040a 06       		.byte	0x6
 6786 040b 7E01     		.2byte	0x17e
 6787 040d 49070000 		.4byte	0x749
 6788 0411 04       		.byte	0x4
 6789 0412 0A       		.uleb128 0xa
 6790 0413 40190000 		.4byte	.LASF73
 6791 0417 06       		.byte	0x6
 6792 0418 8001     		.2byte	0x180
 6793 041a 63010000 		.4byte	0x163
 6794 041e 08       		.byte	0x8
 6795 041f 0A       		.uleb128 0xa
 6796 0420 E9010000 		.4byte	.LASF78
 6797 0424 06       		.byte	0x6
 6798 0425 8201     		.2byte	0x182
 6799 0427 6E010000 		.4byte	0x16e
 6800 042b 0C       		.byte	0xc
 6801 042c 00       		.byte	0
 6802 042d 03       		.uleb128 0x3
 6803 042e 6E0B0000 		.4byte	.LASF79
 6804 0432 05       		.byte	0x5
 6805 0433 6B       		.byte	0x6b
 6806 0434 38040000 		.4byte	0x438
 6807 0438 0C       		.uleb128 0xc
 6808 0439 59250000 		.4byte	.LASF80
 6809 043d 04       		.byte	0x4
 6810 043e 06       		.byte	0x6
 6811 043f A201     		.2byte	0x1a2
 6812 0441 53040000 		.4byte	0x453
 6813 0445 0A       		.uleb128 0xa
 6814 0446 6D180000 		.4byte	.LASF81
 6815 044a 06       		.byte	0x6
 6816 044b AA01     		.2byte	0x1aa
 6817 044d 32070000 		.4byte	0x732
 6818 0451 00       		.byte	0
 6819 0452 00       		.byte	0
 6820 0453 03       		.uleb128 0x3
 6821 0454 40010000 		.4byte	.LASF82
 6822 0458 05       		.byte	0x5
 6823 0459 70       		.byte	0x70
 6824 045a 5E040000 		.4byte	0x45e
 6825 045e 10       		.uleb128 0x10
 6826 045f FB1B0000 		.4byte	.LASF83
 6827 0463 6802     		.2byte	0x268
 6828 0465 06       		.byte	0x6
 6829 0466 C201     		.2byte	0x1c2
 6830 0468 BA040000 		.4byte	0x4ba
 6831 046c 0A       		.uleb128 0xa
 6832 046d 28070000 		.4byte	.LASF84
 6833 0471 06       		.byte	0x6
 6834 0472 C601     		.2byte	0x1c6
 6835 0474 01030000 		.4byte	0x301
 6836 0478 00       		.byte	0
 6837 0479 0A       		.uleb128 0xa
 6838 047a D9060000 		.4byte	.LASF85
 6839 047e 06       		.byte	0x6
 6840 047f CA01     		.2byte	0x1ca
ARM GAS  /tmp/cc4M9ACW.s 			page 121


 6841 0481 E0030000 		.4byte	0x3e0
 6842 0485 1C       		.byte	0x1c
 6843 0486 09       		.uleb128 0x9
 6844 0487 64626700 		.ascii	"dbg\000"
 6845 048b 06       		.byte	0x6
 6846 048c CE01     		.2byte	0x1ce
 6847 048e 2D040000 		.4byte	0x42d
 6848 0492 2C       		.byte	0x2c
 6849 0493 0A       		.uleb128 0xa
 6850 0494 741D0000 		.4byte	.LASF86
 6851 0498 06       		.byte	0x6
 6852 0499 D201     		.2byte	0x1d2
 6853 049b 73010000 		.4byte	0x173
 6854 049f 30       		.byte	0x30
 6855 04a0 09       		.uleb128 0x9
 6856 04a1 746D00   		.ascii	"tm\000"
 6857 04a4 06       		.byte	0x6
 6858 04a5 D701     		.2byte	0x1d7
 6859 04a7 5C060000 		.4byte	0x65c
 6860 04ab 80       		.byte	0x80
 6861 04ac 0A       		.uleb128 0xa
 6862 04ad E9270000 		.4byte	.LASF87
 6863 04b1 06       		.byte	0x6
 6864 04b2 E301     		.2byte	0x1e3
 6865 04b4 4F070000 		.4byte	0x74f
 6866 04b8 88       		.byte	0x88
 6867 04b9 00       		.byte	0
 6868 04ba 11       		.uleb128 0x11
 6869 04bb 21270000 		.4byte	.LASF88
 6870 04bf 07       		.byte	0x7
 6871 04c0 A706     		.2byte	0x6a7
 6872 04c2 E5000000 		.4byte	0xe5
 6873 04c6 12       		.uleb128 0x12
 6874 04c7 3B1B0000 		.4byte	.LASF89
 6875 04cb 08       		.byte	0x8
 6876 04cc 4C       		.byte	0x4c
 6877 04cd EA000000 		.4byte	0xea
 6878 04d1 03       		.uleb128 0x3
 6879 04d2 C11E0000 		.4byte	.LASF90
 6880 04d6 09       		.byte	0x9
 6881 04d7 65       		.byte	0x65
 6882 04d8 84030000 		.4byte	0x384
 6883 04dc 03       		.uleb128 0x3
 6884 04dd 750A0000 		.4byte	.LASF91
 6885 04e1 09       		.byte	0x9
 6886 04e2 6D       		.byte	0x6d
 6887 04e3 F5000000 		.4byte	0xf5
 6888 04e7 07       		.uleb128 0x7
 6889 04e8 1C1E0000 		.4byte	.LASF92
 6890 04ec 04       		.byte	0x4
 6891 04ed 09       		.byte	0x9
 6892 04ee 89       		.byte	0x89
 6893 04ef 00050000 		.4byte	0x500
 6894 04f3 13       		.uleb128 0x13
 6895 04f4 72313300 		.ascii	"r13\000"
 6896 04f8 09       		.byte	0x9
 6897 04f9 8A       		.byte	0x8a
ARM GAS  /tmp/cc4M9ACW.s 			page 122


 6898 04fa 41060000 		.4byte	0x641
 6899 04fe 00       		.byte	0
 6900 04ff 00       		.byte	0
 6901 0500 07       		.uleb128 0x7
 6902 0501 17000000 		.4byte	.LASF93
 6903 0505 64       		.byte	0x64
 6904 0506 0A       		.byte	0xa
 6905 0507 F4       		.byte	0xf4
 6906 0508 41060000 		.4byte	0x641
 6907 050c 13       		.uleb128 0x13
 6908 050d 73313600 		.ascii	"s16\000"
 6909 0511 0A       		.byte	0xa
 6910 0512 F6       		.byte	0xf6
 6911 0513 D1040000 		.4byte	0x4d1
 6912 0517 00       		.byte	0
 6913 0518 13       		.uleb128 0x13
 6914 0519 73313700 		.ascii	"s17\000"
 6915 051d 0A       		.byte	0xa
 6916 051e F7       		.byte	0xf7
 6917 051f D1040000 		.4byte	0x4d1
 6918 0523 04       		.byte	0x4
 6919 0524 13       		.uleb128 0x13
 6920 0525 73313800 		.ascii	"s18\000"
 6921 0529 0A       		.byte	0xa
 6922 052a F8       		.byte	0xf8
 6923 052b D1040000 		.4byte	0x4d1
 6924 052f 08       		.byte	0x8
 6925 0530 13       		.uleb128 0x13
 6926 0531 73313900 		.ascii	"s19\000"
 6927 0535 0A       		.byte	0xa
 6928 0536 F9       		.byte	0xf9
 6929 0537 D1040000 		.4byte	0x4d1
 6930 053b 0C       		.byte	0xc
 6931 053c 13       		.uleb128 0x13
 6932 053d 73323000 		.ascii	"s20\000"
 6933 0541 0A       		.byte	0xa
 6934 0542 FA       		.byte	0xfa
 6935 0543 D1040000 		.4byte	0x4d1
 6936 0547 10       		.byte	0x10
 6937 0548 13       		.uleb128 0x13
 6938 0549 73323100 		.ascii	"s21\000"
 6939 054d 0A       		.byte	0xa
 6940 054e FB       		.byte	0xfb
 6941 054f D1040000 		.4byte	0x4d1
 6942 0553 14       		.byte	0x14
 6943 0554 13       		.uleb128 0x13
 6944 0555 73323200 		.ascii	"s22\000"
 6945 0559 0A       		.byte	0xa
 6946 055a FC       		.byte	0xfc
 6947 055b D1040000 		.4byte	0x4d1
 6948 055f 18       		.byte	0x18
 6949 0560 13       		.uleb128 0x13
 6950 0561 73323300 		.ascii	"s23\000"
 6951 0565 0A       		.byte	0xa
 6952 0566 FD       		.byte	0xfd
 6953 0567 D1040000 		.4byte	0x4d1
 6954 056b 1C       		.byte	0x1c
ARM GAS  /tmp/cc4M9ACW.s 			page 123


 6955 056c 13       		.uleb128 0x13
 6956 056d 73323400 		.ascii	"s24\000"
 6957 0571 0A       		.byte	0xa
 6958 0572 FE       		.byte	0xfe
 6959 0573 D1040000 		.4byte	0x4d1
 6960 0577 20       		.byte	0x20
 6961 0578 13       		.uleb128 0x13
 6962 0579 73323500 		.ascii	"s25\000"
 6963 057d 0A       		.byte	0xa
 6964 057e FF       		.byte	0xff
 6965 057f D1040000 		.4byte	0x4d1
 6966 0583 24       		.byte	0x24
 6967 0584 09       		.uleb128 0x9
 6968 0585 73323600 		.ascii	"s26\000"
 6969 0589 0A       		.byte	0xa
 6970 058a 0001     		.2byte	0x100
 6971 058c D1040000 		.4byte	0x4d1
 6972 0590 28       		.byte	0x28
 6973 0591 09       		.uleb128 0x9
 6974 0592 73323700 		.ascii	"s27\000"
 6975 0596 0A       		.byte	0xa
 6976 0597 0101     		.2byte	0x101
 6977 0599 D1040000 		.4byte	0x4d1
 6978 059d 2C       		.byte	0x2c
 6979 059e 09       		.uleb128 0x9
 6980 059f 73323800 		.ascii	"s28\000"
 6981 05a3 0A       		.byte	0xa
 6982 05a4 0201     		.2byte	0x102
 6983 05a6 D1040000 		.4byte	0x4d1
 6984 05aa 30       		.byte	0x30
 6985 05ab 09       		.uleb128 0x9
 6986 05ac 73323900 		.ascii	"s29\000"
 6987 05b0 0A       		.byte	0xa
 6988 05b1 0301     		.2byte	0x103
 6989 05b3 D1040000 		.4byte	0x4d1
 6990 05b7 34       		.byte	0x34
 6991 05b8 09       		.uleb128 0x9
 6992 05b9 73333000 		.ascii	"s30\000"
 6993 05bd 0A       		.byte	0xa
 6994 05be 0401     		.2byte	0x104
 6995 05c0 D1040000 		.4byte	0x4d1
 6996 05c4 38       		.byte	0x38
 6997 05c5 09       		.uleb128 0x9
 6998 05c6 73333100 		.ascii	"s31\000"
 6999 05ca 0A       		.byte	0xa
 7000 05cb 0501     		.2byte	0x105
 7001 05cd D1040000 		.4byte	0x4d1
 7002 05d1 3C       		.byte	0x3c
 7003 05d2 09       		.uleb128 0x9
 7004 05d3 723400   		.ascii	"r4\000"
 7005 05d6 0A       		.byte	0xa
 7006 05d7 0701     		.2byte	0x107
 7007 05d9 D1040000 		.4byte	0x4d1
 7008 05dd 40       		.byte	0x40
 7009 05de 09       		.uleb128 0x9
 7010 05df 723500   		.ascii	"r5\000"
 7011 05e2 0A       		.byte	0xa
ARM GAS  /tmp/cc4M9ACW.s 			page 124


 7012 05e3 0801     		.2byte	0x108
 7013 05e5 D1040000 		.4byte	0x4d1
 7014 05e9 44       		.byte	0x44
 7015 05ea 09       		.uleb128 0x9
 7016 05eb 723600   		.ascii	"r6\000"
 7017 05ee 0A       		.byte	0xa
 7018 05ef 0901     		.2byte	0x109
 7019 05f1 D1040000 		.4byte	0x4d1
 7020 05f5 48       		.byte	0x48
 7021 05f6 09       		.uleb128 0x9
 7022 05f7 723700   		.ascii	"r7\000"
 7023 05fa 0A       		.byte	0xa
 7024 05fb 0A01     		.2byte	0x10a
 7025 05fd D1040000 		.4byte	0x4d1
 7026 0601 4C       		.byte	0x4c
 7027 0602 09       		.uleb128 0x9
 7028 0603 723800   		.ascii	"r8\000"
 7029 0606 0A       		.byte	0xa
 7030 0607 0B01     		.2byte	0x10b
 7031 0609 D1040000 		.4byte	0x4d1
 7032 060d 50       		.byte	0x50
 7033 060e 09       		.uleb128 0x9
 7034 060f 723900   		.ascii	"r9\000"
 7035 0612 0A       		.byte	0xa
 7036 0613 0C01     		.2byte	0x10c
 7037 0615 D1040000 		.4byte	0x4d1
 7038 0619 54       		.byte	0x54
 7039 061a 09       		.uleb128 0x9
 7040 061b 72313000 		.ascii	"r10\000"
 7041 061f 0A       		.byte	0xa
 7042 0620 0D01     		.2byte	0x10d
 7043 0622 D1040000 		.4byte	0x4d1
 7044 0626 58       		.byte	0x58
 7045 0627 09       		.uleb128 0x9
 7046 0628 72313100 		.ascii	"r11\000"
 7047 062c 0A       		.byte	0xa
 7048 062d 0E01     		.2byte	0x10e
 7049 062f D1040000 		.4byte	0x4d1
 7050 0633 5C       		.byte	0x5c
 7051 0634 09       		.uleb128 0x9
 7052 0635 6C7200   		.ascii	"lr\000"
 7053 0638 0A       		.byte	0xa
 7054 0639 0F01     		.2byte	0x10f
 7055 063b D1040000 		.4byte	0x4d1
 7056 063f 60       		.byte	0x60
 7057 0640 00       		.byte	0
 7058 0641 0B       		.uleb128 0xb
 7059 0642 04       		.byte	0x4
 7060 0643 00050000 		.4byte	0x500
 7061 0647 14       		.uleb128 0x14
 7062 0648 04       		.byte	0x4
 7063 0649 0B       		.byte	0xb
 7064 064a 38       		.byte	0x38
 7065 064b 5C060000 		.4byte	0x65c
 7066 064f 08       		.uleb128 0x8
 7067 0650 5A270000 		.4byte	.LASF94
 7068 0654 0B       		.byte	0xb
ARM GAS  /tmp/cc4M9ACW.s 			page 125


 7069 0655 3C       		.byte	0x3c
 7070 0656 00010000 		.4byte	0x100
 7071 065a 00       		.byte	0
 7072 065b 00       		.byte	0
 7073 065c 03       		.uleb128 0x3
 7074 065d 0A2D0000 		.4byte	.LASF95
 7075 0661 0B       		.byte	0xb
 7076 0662 3D       		.byte	0x3d
 7077 0663 47060000 		.4byte	0x647
 7078 0667 15       		.uleb128 0x15
 7079 0668 04       		.byte	0x4
 7080 0669 06       		.byte	0x6
 7081 066a FA       		.byte	0xfa
 7082 066b C4060000 		.4byte	0x6c4
 7083 066f 16       		.uleb128 0x16
 7084 0670 BF140000 		.4byte	.LASF96
 7085 0674 06       		.byte	0x6
 7086 0675 0101     		.2byte	0x101
 7087 0677 42010000 		.4byte	0x142
 7088 067b 16       		.uleb128 0x16
 7089 067c 1F120000 		.4byte	.LASF97
 7090 0680 06       		.byte	0x6
 7091 0681 0801     		.2byte	0x108
 7092 0683 42010000 		.4byte	0x142
 7093 0687 16       		.uleb128 0x16
 7094 0688 DC230000 		.4byte	.LASF98
 7095 068c 06       		.byte	0x6
 7096 068d 0F01     		.2byte	0x10f
 7097 068f 84030000 		.4byte	0x384
 7098 0693 16       		.uleb128 0x16
 7099 0694 F31D0000 		.4byte	.LASF99
 7100 0698 06       		.byte	0x6
 7101 0699 1601     		.2byte	0x116
 7102 069b C4060000 		.4byte	0x6c4
 7103 069f 16       		.uleb128 0x16
 7104 06a0 56010000 		.4byte	.LASF100
 7105 06a4 06       		.byte	0x6
 7106 06a5 1E01     		.2byte	0x11e
 7107 06a7 EF060000 		.4byte	0x6ef
 7108 06ab 16       		.uleb128 0x16
 7109 06ac 4A240000 		.4byte	.LASF101
 7110 06b0 06       		.byte	0x6
 7111 06b1 2701     		.2byte	0x127
 7112 06b3 26070000 		.4byte	0x726
 7113 06b7 16       		.uleb128 0x16
 7114 06b8 54280000 		.4byte	.LASF102
 7115 06bc 06       		.byte	0x6
 7116 06bd 2F01     		.2byte	0x12f
 7117 06bf 4D010000 		.4byte	0x14d
 7118 06c3 00       		.byte	0
 7119 06c4 0B       		.uleb128 0xb
 7120 06c5 04       		.byte	0x4
 7121 06c6 9C020000 		.4byte	0x29c
 7122 06ca 07       		.uleb128 0x7
 7123 06cb 521C0000 		.4byte	.LASF103
 7124 06cf 0C       		.byte	0xc
 7125 06d0 0C       		.byte	0xc
ARM GAS  /tmp/cc4M9ACW.s 			page 126


 7126 06d1 34       		.byte	0x34
 7127 06d2 EF060000 		.4byte	0x6ef
 7128 06d6 08       		.uleb128 0x8
 7129 06d7 2A2A0000 		.4byte	.LASF104
 7130 06db 0C       		.byte	0xc
 7131 06dc 35       		.byte	0x35
 7132 06dd D1020000 		.4byte	0x2d1
 7133 06e1 00       		.byte	0
 7134 06e2 08       		.uleb128 0x8
 7135 06e3 D80A0000 		.4byte	.LASF105
 7136 06e7 0C       		.byte	0xc
 7137 06e8 37       		.byte	0x37
 7138 06e9 58010000 		.4byte	0x158
 7139 06ed 08       		.byte	0x8
 7140 06ee 00       		.byte	0
 7141 06ef 0B       		.uleb128 0xb
 7142 06f0 04       		.byte	0x4
 7143 06f1 CA060000 		.4byte	0x6ca
 7144 06f5 07       		.uleb128 0x7
 7145 06f6 1E0D0000 		.4byte	.LASF106
 7146 06fa 10       		.byte	0x10
 7147 06fb 0D       		.byte	0xd
 7148 06fc 39       		.byte	0x39
 7149 06fd 26070000 		.4byte	0x726
 7150 0701 08       		.uleb128 0x8
 7151 0702 7F1D0000 		.4byte	.LASF107
 7152 0706 0D       		.byte	0xd
 7153 0707 3A       		.byte	0x3a
 7154 0708 D1020000 		.4byte	0x2d1
 7155 070c 00       		.byte	0
 7156 070d 08       		.uleb128 0x8
 7157 070e 1E1B0000 		.4byte	.LASF108
 7158 0712 0D       		.byte	0xd
 7159 0713 3C       		.byte	0x3c
 7160 0714 A7020000 		.4byte	0x2a7
 7161 0718 08       		.byte	0x8
 7162 0719 08       		.uleb128 0x8
 7163 071a 24020000 		.4byte	.LASF109
 7164 071e 0D       		.byte	0xd
 7165 071f 3E       		.byte	0x3e
 7166 0720 81080000 		.4byte	0x881
 7167 0724 0C       		.byte	0xc
 7168 0725 00       		.byte	0
 7169 0726 0B       		.uleb128 0xb
 7170 0727 04       		.byte	0x4
 7171 0728 F5060000 		.4byte	0x6f5
 7172 072c 0B       		.uleb128 0xb
 7173 072d 04       		.byte	0x4
 7174 072e 3E070000 		.4byte	0x73e
 7175 0732 06       		.uleb128 0x6
 7176 0733 2C070000 		.4byte	0x72c
 7177 0737 02       		.uleb128 0x2
 7178 0738 01       		.byte	0x1
 7179 0739 08       		.byte	0x8
 7180 073a 48200000 		.4byte	.LASF110
 7181 073e 05       		.uleb128 0x5
 7182 073f 37070000 		.4byte	0x737
ARM GAS  /tmp/cc4M9ACW.s 			page 127


 7183 0743 0B       		.uleb128 0xb
 7184 0744 04       		.byte	0x4
 7185 0745 DC040000 		.4byte	0x4dc
 7186 0749 0B       		.uleb128 0xb
 7187 074a 04       		.byte	0x4
 7188 074b 86030000 		.4byte	0x386
 7189 074f 17       		.uleb128 0x17
 7190 0750 DC040000 		.4byte	0x4dc
 7191 0754 5F070000 		.4byte	0x75f
 7192 0758 18       		.uleb128 0x18
 7193 0759 AD000000 		.4byte	0xad
 7194 075d 3B       		.byte	0x3b
 7195 075e 00       		.byte	0
 7196 075f 19       		.uleb128 0x19
 7197 0760 636800   		.ascii	"ch\000"
 7198 0763 06       		.byte	0x6
 7199 0764 0902     		.2byte	0x209
 7200 0766 53040000 		.4byte	0x453
 7201 076a 14       		.uleb128 0x14
 7202 076b 16       		.byte	0x16
 7203 076c 0E       		.byte	0xe
 7204 076d 34       		.byte	0x34
 7205 076e 4B080000 		.4byte	0x84b
 7206 0772 08       		.uleb128 0x8
 7207 0773 992A0000 		.4byte	.LASF111
 7208 0777 0E       		.byte	0xe
 7209 0778 35       		.byte	0x35
 7210 0779 4B080000 		.4byte	0x84b
 7211 077d 00       		.byte	0
 7212 077e 08       		.uleb128 0x8
 7213 077f 832E0000 		.4byte	.LASF112
 7214 0783 0E       		.byte	0xe
 7215 0784 36       		.byte	0x36
 7216 0785 BF000000 		.4byte	0xbf
 7217 0789 04       		.byte	0x4
 7218 078a 08       		.uleb128 0x8
 7219 078b 38040000 		.4byte	.LASF113
 7220 078f 0E       		.byte	0xe
 7221 0790 37       		.byte	0x37
 7222 0791 BF000000 		.4byte	0xbf
 7223 0795 05       		.byte	0x5
 7224 0796 08       		.uleb128 0x8
 7225 0797 581B0000 		.4byte	.LASF114
 7226 079b 0E       		.byte	0xe
 7227 079c 38       		.byte	0x38
 7228 079d CF000000 		.4byte	0xcf
 7229 07a1 06       		.byte	0x6
 7230 07a2 08       		.uleb128 0x8
 7231 07a3 3F000000 		.4byte	.LASF115
 7232 07a7 0E       		.byte	0xe
 7233 07a8 39       		.byte	0x39
 7234 07a9 BF000000 		.4byte	0xbf
 7235 07ad 08       		.byte	0x8
 7236 07ae 08       		.uleb128 0x8
 7237 07af FB180000 		.4byte	.LASF116
 7238 07b3 0E       		.byte	0xe
 7239 07b4 3A       		.byte	0x3a
ARM GAS  /tmp/cc4M9ACW.s 			page 128


 7240 07b5 BF000000 		.4byte	0xbf
 7241 07b9 09       		.byte	0x9
 7242 07ba 08       		.uleb128 0x8
 7243 07bb CB2D0000 		.4byte	.LASF117
 7244 07bf 0E       		.byte	0xe
 7245 07c0 3B       		.byte	0x3b
 7246 07c1 BF000000 		.4byte	0xbf
 7247 07c5 0A       		.byte	0xa
 7248 07c6 08       		.uleb128 0x8
 7249 07c7 F62A0000 		.4byte	.LASF118
 7250 07cb 0E       		.byte	0xe
 7251 07cc 3C       		.byte	0x3c
 7252 07cd BF000000 		.4byte	0xbf
 7253 07d1 0B       		.byte	0xb
 7254 07d2 08       		.uleb128 0x8
 7255 07d3 3D070000 		.4byte	.LASF119
 7256 07d7 0E       		.byte	0xe
 7257 07d8 3D       		.byte	0x3d
 7258 07d9 BF000000 		.4byte	0xbf
 7259 07dd 0C       		.byte	0xc
 7260 07de 08       		.uleb128 0x8
 7261 07df C10E0000 		.4byte	.LASF120
 7262 07e3 0E       		.byte	0xe
 7263 07e4 3E       		.byte	0x3e
 7264 07e5 BF000000 		.4byte	0xbf
 7265 07e9 0D       		.byte	0xd
 7266 07ea 08       		.uleb128 0x8
 7267 07eb 64070000 		.4byte	.LASF121
 7268 07ef 0E       		.byte	0xe
 7269 07f0 3F       		.byte	0x3f
 7270 07f1 BF000000 		.4byte	0xbf
 7271 07f5 0E       		.byte	0xe
 7272 07f6 08       		.uleb128 0x8
 7273 07f7 C7110000 		.4byte	.LASF122
 7274 07fb 0E       		.byte	0xe
 7275 07fc 40       		.byte	0x40
 7276 07fd BF000000 		.4byte	0xbf
 7277 0801 0F       		.byte	0xf
 7278 0802 08       		.uleb128 0x8
 7279 0803 27050000 		.4byte	.LASF123
 7280 0807 0E       		.byte	0xe
 7281 0808 41       		.byte	0x41
 7282 0809 BF000000 		.4byte	0xbf
 7283 080d 10       		.byte	0x10
 7284 080e 08       		.uleb128 0x8
 7285 080f 270A0000 		.4byte	.LASF124
 7286 0813 0E       		.byte	0xe
 7287 0814 43       		.byte	0x43
 7288 0815 BF000000 		.4byte	0xbf
 7289 0819 11       		.byte	0x11
 7290 081a 08       		.uleb128 0x8
 7291 081b 78030000 		.4byte	.LASF125
 7292 081f 0E       		.byte	0xe
 7293 0820 44       		.byte	0x44
 7294 0821 BF000000 		.4byte	0xbf
 7295 0825 12       		.byte	0x12
 7296 0826 08       		.uleb128 0x8
ARM GAS  /tmp/cc4M9ACW.s 			page 129


 7297 0827 E81A0000 		.4byte	.LASF126
 7298 082b 0E       		.byte	0xe
 7299 082c 45       		.byte	0x45
 7300 082d BF000000 		.4byte	0xbf
 7301 0831 13       		.byte	0x13
 7302 0832 08       		.uleb128 0x8
 7303 0833 49230000 		.4byte	.LASF127
 7304 0837 0E       		.byte	0xe
 7305 0838 46       		.byte	0x46
 7306 0839 BF000000 		.4byte	0xbf
 7307 083d 14       		.byte	0x14
 7308 083e 08       		.uleb128 0x8
 7309 083f 34010000 		.4byte	.LASF128
 7310 0843 0E       		.byte	0xe
 7311 0844 48       		.byte	0x48
 7312 0845 BF000000 		.4byte	0xbf
 7313 0849 15       		.byte	0x15
 7314 084a 00       		.byte	0
 7315 084b 17       		.uleb128 0x17
 7316 084c 37070000 		.4byte	0x737
 7317 0850 5B080000 		.4byte	0x85b
 7318 0854 18       		.uleb128 0x18
 7319 0855 AD000000 		.4byte	0xad
 7320 0859 03       		.byte	0x3
 7321 085a 00       		.byte	0
 7322 085b 03       		.uleb128 0x3
 7323 085c C0180000 		.4byte	.LASF129
 7324 0860 0E       		.byte	0xe
 7325 0861 49       		.byte	0x49
 7326 0862 6A070000 		.4byte	0x76a
 7327 0866 05       		.uleb128 0x5
 7328 0867 5B080000 		.4byte	0x85b
 7329 086b 12       		.uleb128 0x12
 7330 086c 7B0C0000 		.4byte	.LASF130
 7331 0870 0E       		.byte	0xe
 7332 0871 6E       		.byte	0x6e
 7333 0872 66080000 		.4byte	0x866
 7334 0876 03       		.uleb128 0x3
 7335 0877 D0250000 		.4byte	.LASF131
 7336 087b 0D       		.byte	0xd
 7337 087c 34       		.byte	0x34
 7338 087d F5060000 		.4byte	0x6f5
 7339 0881 0B       		.uleb128 0xb
 7340 0882 04       		.byte	0x4
 7341 0883 76080000 		.4byte	0x876
 7342 0887 0B       		.uleb128 0xb
 7343 0888 04       		.byte	0x4
 7344 0889 BF000000 		.4byte	0xbf
 7345 088d 0B       		.uleb128 0xb
 7346 088e 04       		.byte	0x4
 7347 088f CA000000 		.4byte	0xca
 7348 0893 1A       		.uleb128 0x1a
 7349 0894 07       		.byte	0x7
 7350 0895 01       		.byte	0x1
 7351 0896 49000000 		.4byte	0x49
 7352 089a 0F       		.byte	0xf
 7353 089b 29       		.byte	0x29
ARM GAS  /tmp/cc4M9ACW.s 			page 130


 7354 089c B3080000 		.4byte	0x8b3
 7355 08a0 1B       		.uleb128 0x1b
 7356 08a1 CA290000 		.4byte	.LASF132
 7357 08a5 00       		.byte	0
 7358 08a6 1B       		.uleb128 0x1b
 7359 08a7 B61F0000 		.4byte	.LASF133
 7360 08ab 01       		.byte	0x1
 7361 08ac 1B       		.uleb128 0x1b
 7362 08ad B0050000 		.4byte	.LASF134
 7363 08b1 02       		.byte	0x2
 7364 08b2 00       		.byte	0
 7365 08b3 03       		.uleb128 0x3
 7366 08b4 D8050000 		.4byte	.LASF135
 7367 08b8 0F       		.byte	0xf
 7368 08b9 2D       		.byte	0x2d
 7369 08ba 93080000 		.4byte	0x893
 7370 08be 1A       		.uleb128 0x1a
 7371 08bf 07       		.byte	0x7
 7372 08c0 01       		.byte	0x1
 7373 08c1 49000000 		.4byte	0x49
 7374 08c5 0F       		.byte	0xf
 7375 08c6 2F       		.byte	0x2f
 7376 08c7 D8080000 		.4byte	0x8d8
 7377 08cb 1B       		.uleb128 0x1b
 7378 08cc A51D0000 		.4byte	.LASF136
 7379 08d0 00       		.byte	0
 7380 08d1 1B       		.uleb128 0x1b
 7381 08d2 632F0000 		.4byte	.LASF137
 7382 08d6 01       		.byte	0x1
 7383 08d7 00       		.byte	0
 7384 08d8 03       		.uleb128 0x3
 7385 08d9 38290000 		.4byte	.LASF138
 7386 08dd 0F       		.byte	0xf
 7387 08de 32       		.byte	0x32
 7388 08df BE080000 		.4byte	0x8be
 7389 08e3 1A       		.uleb128 0x1a
 7390 08e4 07       		.byte	0x7
 7391 08e5 01       		.byte	0x1
 7392 08e6 49000000 		.4byte	0x49
 7393 08ea 0F       		.byte	0xf
 7394 08eb 34       		.byte	0x34
 7395 08ec 03090000 		.4byte	0x903
 7396 08f0 1B       		.uleb128 0x1b
 7397 08f1 0B250000 		.4byte	.LASF139
 7398 08f5 00       		.byte	0
 7399 08f6 1B       		.uleb128 0x1b
 7400 08f7 AC0E0000 		.4byte	.LASF140
 7401 08fb 01       		.byte	0x1
 7402 08fc 1B       		.uleb128 0x1b
 7403 08fd FB0F0000 		.4byte	.LASF141
 7404 0901 02       		.byte	0x2
 7405 0902 00       		.byte	0
 7406 0903 03       		.uleb128 0x3
 7407 0904 451D0000 		.4byte	.LASF142
 7408 0908 0F       		.byte	0xf
 7409 0909 38       		.byte	0x38
 7410 090a E3080000 		.4byte	0x8e3
ARM GAS  /tmp/cc4M9ACW.s 			page 131


 7411 090e 1A       		.uleb128 0x1a
 7412 090f 07       		.byte	0x7
 7413 0910 01       		.byte	0x1
 7414 0911 49000000 		.4byte	0x49
 7415 0915 0F       		.byte	0xf
 7416 0916 3A       		.byte	0x3a
 7417 0917 3A090000 		.4byte	0x93a
 7418 091b 1B       		.uleb128 0x1b
 7419 091c 111D0000 		.4byte	.LASF143
 7420 0920 00       		.byte	0
 7421 0921 1B       		.uleb128 0x1b
 7422 0922 33090000 		.4byte	.LASF144
 7423 0926 01       		.byte	0x1
 7424 0927 1B       		.uleb128 0x1b
 7425 0928 2E270000 		.4byte	.LASF145
 7426 092c 02       		.byte	0x2
 7427 092d 1B       		.uleb128 0x1b
 7428 092e 8D180000 		.4byte	.LASF146
 7429 0932 03       		.byte	0x3
 7430 0933 1B       		.uleb128 0x1b
 7431 0934 AC1B0000 		.4byte	.LASF147
 7432 0938 04       		.byte	0x4
 7433 0939 00       		.byte	0
 7434 093a 03       		.uleb128 0x3
 7435 093b 0F2E0000 		.4byte	.LASF148
 7436 093f 0F       		.byte	0xf
 7437 0940 40       		.byte	0x40
 7438 0941 0E090000 		.4byte	0x90e
 7439 0945 1A       		.uleb128 0x1a
 7440 0946 07       		.byte	0x7
 7441 0947 01       		.byte	0x1
 7442 0948 49000000 		.4byte	0x49
 7443 094c 0F       		.byte	0xf
 7444 094d 43       		.byte	0x43
 7445 094e A1090000 		.4byte	0x9a1
 7446 0952 1B       		.uleb128 0x1b
 7447 0953 A3060000 		.4byte	.LASF149
 7448 0957 00       		.byte	0
 7449 0958 1B       		.uleb128 0x1b
 7450 0959 112A0000 		.4byte	.LASF150
 7451 095d 01       		.byte	0x1
 7452 095e 1B       		.uleb128 0x1b
 7453 095f 982C0000 		.4byte	.LASF151
 7454 0963 02       		.byte	0x2
 7455 0964 1B       		.uleb128 0x1b
 7456 0965 65080000 		.4byte	.LASF152
 7457 0969 03       		.byte	0x3
 7458 096a 1B       		.uleb128 0x1b
 7459 096b A1030000 		.4byte	.LASF153
 7460 096f 04       		.byte	0x4
 7461 0970 1B       		.uleb128 0x1b
 7462 0971 8F1B0000 		.4byte	.LASF154
 7463 0975 05       		.byte	0x5
 7464 0976 1B       		.uleb128 0x1b
 7465 0977 D4160000 		.4byte	.LASF155
 7466 097b 06       		.byte	0x6
 7467 097c 1B       		.uleb128 0x1b
ARM GAS  /tmp/cc4M9ACW.s 			page 132


 7468 097d 03160000 		.4byte	.LASF156
 7469 0981 07       		.byte	0x7
 7470 0982 1B       		.uleb128 0x1b
 7471 0983 C1050000 		.4byte	.LASF157
 7472 0987 08       		.byte	0x8
 7473 0988 1B       		.uleb128 0x1b
 7474 0989 34170000 		.4byte	.LASF158
 7475 098d 09       		.byte	0x9
 7476 098e 1B       		.uleb128 0x1b
 7477 098f 11070000 		.4byte	.LASF159
 7478 0993 0A       		.byte	0xa
 7479 0994 1B       		.uleb128 0x1b
 7480 0995 D3110000 		.4byte	.LASF160
 7481 0999 0B       		.byte	0xb
 7482 099a 1B       		.uleb128 0x1b
 7483 099b AC130000 		.4byte	.LASF161
 7484 099f 0C       		.byte	0xc
 7485 09a0 00       		.byte	0
 7486 09a1 03       		.uleb128 0x3
 7487 09a2 BD1A0000 		.4byte	.LASF162
 7488 09a6 0F       		.byte	0xf
 7489 09a7 51       		.byte	0x51
 7490 09a8 45090000 		.4byte	0x945
 7491 09ac 1A       		.uleb128 0x1a
 7492 09ad 07       		.byte	0x7
 7493 09ae 01       		.byte	0x1
 7494 09af 49000000 		.4byte	0x49
 7495 09b3 0F       		.byte	0xf
 7496 09b4 54       		.byte	0x54
 7497 09b5 E4090000 		.4byte	0x9e4
 7498 09b9 1B       		.uleb128 0x1b
 7499 09ba 1B090000 		.4byte	.LASF163
 7500 09be 00       		.byte	0
 7501 09bf 1B       		.uleb128 0x1b
 7502 09c0 33150000 		.4byte	.LASF164
 7503 09c4 01       		.byte	0x1
 7504 09c5 1B       		.uleb128 0x1b
 7505 09c6 D8030000 		.4byte	.LASF165
 7506 09ca 02       		.byte	0x2
 7507 09cb 1B       		.uleb128 0x1b
 7508 09cc 54180000 		.4byte	.LASF166
 7509 09d0 03       		.byte	0x3
 7510 09d1 1B       		.uleb128 0x1b
 7511 09d2 D8140000 		.4byte	.LASF167
 7512 09d6 04       		.byte	0x4
 7513 09d7 1B       		.uleb128 0x1b
 7514 09d8 9A100000 		.4byte	.LASF168
 7515 09dc 05       		.byte	0x5
 7516 09dd 1B       		.uleb128 0x1b
 7517 09de 890E0000 		.4byte	.LASF169
 7518 09e2 06       		.byte	0x6
 7519 09e3 00       		.byte	0
 7520 09e4 03       		.uleb128 0x3
 7521 09e5 9A020000 		.4byte	.LASF170
 7522 09e9 0F       		.byte	0xf
 7523 09ea 5C       		.byte	0x5c
 7524 09eb AC090000 		.4byte	0x9ac
ARM GAS  /tmp/cc4M9ACW.s 			page 133


 7525 09ef 1A       		.uleb128 0x1a
 7526 09f0 07       		.byte	0x7
 7527 09f1 01       		.byte	0x1
 7528 09f2 49000000 		.4byte	0x49
 7529 09f6 0F       		.byte	0xf
 7530 09f7 66       		.byte	0x66
 7531 09f8 150A0000 		.4byte	0xa15
 7532 09fc 1B       		.uleb128 0x1b
 7533 09fd DE2E0000 		.4byte	.LASF171
 7534 0a01 00       		.byte	0
 7535 0a02 1B       		.uleb128 0x1b
 7536 0a03 82170000 		.4byte	.LASF172
 7537 0a07 01       		.byte	0x1
 7538 0a08 1B       		.uleb128 0x1b
 7539 0a09 35140000 		.4byte	.LASF173
 7540 0a0d 02       		.byte	0x2
 7541 0a0e 1B       		.uleb128 0x1b
 7542 0a0f C02C0000 		.4byte	.LASF174
 7543 0a13 03       		.byte	0x3
 7544 0a14 00       		.byte	0
 7545 0a15 03       		.uleb128 0x3
 7546 0a16 51240000 		.4byte	.LASF175
 7547 0a1a 0F       		.byte	0xf
 7548 0a1b 6B       		.byte	0x6b
 7549 0a1c EF090000 		.4byte	0x9ef
 7550 0a20 1A       		.uleb128 0x1a
 7551 0a21 07       		.byte	0x7
 7552 0a22 01       		.byte	0x1
 7553 0a23 49000000 		.4byte	0x49
 7554 0a27 0F       		.byte	0xf
 7555 0a28 6E       		.byte	0x6e
 7556 0a29 460A0000 		.4byte	0xa46
 7557 0a2d 1B       		.uleb128 0x1b
 7558 0a2e 45130000 		.4byte	.LASF176
 7559 0a32 00       		.byte	0
 7560 0a33 1B       		.uleb128 0x1b
 7561 0a34 CF2C0000 		.4byte	.LASF177
 7562 0a38 01       		.byte	0x1
 7563 0a39 1B       		.uleb128 0x1b
 7564 0a3a 942F0000 		.4byte	.LASF178
 7565 0a3e 02       		.byte	0x2
 7566 0a3f 1B       		.uleb128 0x1b
 7567 0a40 3C1E0000 		.4byte	.LASF179
 7568 0a44 03       		.byte	0x3
 7569 0a45 00       		.byte	0
 7570 0a46 03       		.uleb128 0x3
 7571 0a47 BD2A0000 		.4byte	.LASF180
 7572 0a4b 0F       		.byte	0xf
 7573 0a4c 73       		.byte	0x73
 7574 0a4d 200A0000 		.4byte	0xa20
 7575 0a51 1A       		.uleb128 0x1a
 7576 0a52 07       		.byte	0x7
 7577 0a53 01       		.byte	0x1
 7578 0a54 49000000 		.4byte	0x49
 7579 0a58 0F       		.byte	0xf
 7580 0a59 75       		.byte	0x75
 7581 0a5a 650A0000 		.4byte	0xa65
ARM GAS  /tmp/cc4M9ACW.s 			page 134


 7582 0a5e 1B       		.uleb128 0x1b
 7583 0a5f 78050000 		.4byte	.LASF181
 7584 0a63 00       		.byte	0
 7585 0a64 00       		.byte	0
 7586 0a65 03       		.uleb128 0x3
 7587 0a66 AA140000 		.4byte	.LASF182
 7588 0a6a 0F       		.byte	0xf
 7589 0a6b 77       		.byte	0x77
 7590 0a6c 510A0000 		.4byte	0xa51
 7591 0a70 1A       		.uleb128 0x1a
 7592 0a71 07       		.byte	0x7
 7593 0a72 01       		.byte	0x1
 7594 0a73 49000000 		.4byte	0x49
 7595 0a77 0F       		.byte	0xf
 7596 0a78 AF       		.byte	0xaf
 7597 0a79 AE0A0000 		.4byte	0xaae
 7598 0a7d 1B       		.uleb128 0x1b
 7599 0a7e F21C0000 		.4byte	.LASF183
 7600 0a82 00       		.byte	0
 7601 0a83 1B       		.uleb128 0x1b
 7602 0a84 7C100000 		.4byte	.LASF184
 7603 0a88 01       		.byte	0x1
 7604 0a89 1B       		.uleb128 0x1b
 7605 0a8a 2D110000 		.4byte	.LASF185
 7606 0a8e 02       		.byte	0x2
 7607 0a8f 1B       		.uleb128 0x1b
 7608 0a90 D92D0000 		.4byte	.LASF186
 7609 0a94 03       		.byte	0x3
 7610 0a95 1B       		.uleb128 0x1b
 7611 0a96 FF210000 		.4byte	.LASF187
 7612 0a9a 04       		.byte	0x4
 7613 0a9b 1B       		.uleb128 0x1b
 7614 0a9c AF000000 		.4byte	.LASF188
 7615 0aa0 05       		.byte	0x5
 7616 0aa1 1B       		.uleb128 0x1b
 7617 0aa2 861F0000 		.4byte	.LASF189
 7618 0aa6 06       		.byte	0x6
 7619 0aa7 1B       		.uleb128 0x1b
 7620 0aa8 4D040000 		.4byte	.LASF190
 7621 0aac 07       		.byte	0x7
 7622 0aad 00       		.byte	0
 7623 0aae 03       		.uleb128 0x3
 7624 0aaf FE2D0000 		.4byte	.LASF191
 7625 0ab3 0F       		.byte	0xf
 7626 0ab4 B8       		.byte	0xb8
 7627 0ab5 700A0000 		.4byte	0xa70
 7628 0ab9 1A       		.uleb128 0x1a
 7629 0aba 07       		.byte	0x7
 7630 0abb 01       		.byte	0x1
 7631 0abc 49000000 		.4byte	0x49
 7632 0ac0 0F       		.byte	0xf
 7633 0ac1 C4       		.byte	0xc4
 7634 0ac2 DF0A0000 		.4byte	0xadf
 7635 0ac6 1B       		.uleb128 0x1b
 7636 0ac7 37050000 		.4byte	.LASF192
 7637 0acb 00       		.byte	0
 7638 0acc 1B       		.uleb128 0x1b
ARM GAS  /tmp/cc4M9ACW.s 			page 135


 7639 0acd EC230000 		.4byte	.LASF193
 7640 0ad1 01       		.byte	0x1
 7641 0ad2 1B       		.uleb128 0x1b
 7642 0ad3 AE090000 		.4byte	.LASF194
 7643 0ad7 02       		.byte	0x2
 7644 0ad8 1B       		.uleb128 0x1b
 7645 0ad9 E7290000 		.4byte	.LASF195
 7646 0add 03       		.byte	0x3
 7647 0ade 00       		.byte	0
 7648 0adf 03       		.uleb128 0x3
 7649 0ae0 ED1F0000 		.4byte	.LASF196
 7650 0ae4 0F       		.byte	0xf
 7651 0ae5 C9       		.byte	0xc9
 7652 0ae6 B90A0000 		.4byte	0xab9
 7653 0aea 1A       		.uleb128 0x1a
 7654 0aeb 07       		.byte	0x7
 7655 0aec 01       		.byte	0x1
 7656 0aed 49000000 		.4byte	0x49
 7657 0af1 0F       		.byte	0xf
 7658 0af2 D6       		.byte	0xd6
 7659 0af3 2E0B0000 		.4byte	0xb2e
 7660 0af7 1B       		.uleb128 0x1b
 7661 0af8 1C060000 		.4byte	.LASF197
 7662 0afc 00       		.byte	0
 7663 0afd 1B       		.uleb128 0x1b
 7664 0afe B2260000 		.4byte	.LASF198
 7665 0b02 01       		.byte	0x1
 7666 0b03 1B       		.uleb128 0x1b
 7667 0b04 40250000 		.4byte	.LASF199
 7668 0b08 02       		.byte	0x2
 7669 0b09 1B       		.uleb128 0x1b
 7670 0b0a EC130000 		.4byte	.LASF200
 7671 0b0e 03       		.byte	0x3
 7672 0b0f 1B       		.uleb128 0x1b
 7673 0b10 7E210000 		.4byte	.LASF201
 7674 0b14 04       		.byte	0x4
 7675 0b15 1B       		.uleb128 0x1b
 7676 0b16 26260000 		.4byte	.LASF202
 7677 0b1a 05       		.byte	0x5
 7678 0b1b 1B       		.uleb128 0x1b
 7679 0b1c 40040000 		.4byte	.LASF203
 7680 0b20 06       		.byte	0x6
 7681 0b21 1B       		.uleb128 0x1b
 7682 0b22 70120000 		.4byte	.LASF204
 7683 0b26 07       		.byte	0x7
 7684 0b27 1B       		.uleb128 0x1b
 7685 0b28 46280000 		.4byte	.LASF205
 7686 0b2c 08       		.byte	0x8
 7687 0b2d 00       		.byte	0
 7688 0b2e 03       		.uleb128 0x3
 7689 0b2f 35030000 		.4byte	.LASF206
 7690 0b33 0F       		.byte	0xf
 7691 0b34 E0       		.byte	0xe0
 7692 0b35 EA0A0000 		.4byte	0xaea
 7693 0b39 1A       		.uleb128 0x1a
 7694 0b3a 07       		.byte	0x7
 7695 0b3b 01       		.byte	0x1
ARM GAS  /tmp/cc4M9ACW.s 			page 136


 7696 0b3c 49000000 		.4byte	0x49
 7697 0b40 0F       		.byte	0xf
 7698 0b41 E2       		.byte	0xe2
 7699 0b42 590B0000 		.4byte	0xb59
 7700 0b46 1B       		.uleb128 0x1b
 7701 0b47 5B280000 		.4byte	.LASF207
 7702 0b4b 00       		.byte	0
 7703 0b4c 1B       		.uleb128 0x1b
 7704 0b4d 84190000 		.4byte	.LASF208
 7705 0b51 01       		.byte	0x1
 7706 0b52 1B       		.uleb128 0x1b
 7707 0b53 49190000 		.4byte	.LASF209
 7708 0b57 02       		.byte	0x2
 7709 0b58 00       		.byte	0
 7710 0b59 03       		.uleb128 0x3
 7711 0b5a FD160000 		.4byte	.LASF210
 7712 0b5e 0F       		.byte	0xf
 7713 0b5f E6       		.byte	0xe6
 7714 0b60 390B0000 		.4byte	0xb39
 7715 0b64 1A       		.uleb128 0x1a
 7716 0b65 07       		.byte	0x7
 7717 0b66 01       		.byte	0x1
 7718 0b67 49000000 		.4byte	0x49
 7719 0b6b 0F       		.byte	0xf
 7720 0b6c E8       		.byte	0xe8
 7721 0b6d 840B0000 		.4byte	0xb84
 7722 0b71 1B       		.uleb128 0x1b
 7723 0b72 1F110000 		.4byte	.LASF211
 7724 0b76 00       		.byte	0
 7725 0b77 1B       		.uleb128 0x1b
 7726 0b78 590F0000 		.4byte	.LASF212
 7727 0b7c 01       		.byte	0x1
 7728 0b7d 1B       		.uleb128 0x1b
 7729 0b7e 8C110000 		.4byte	.LASF213
 7730 0b82 02       		.byte	0x2
 7731 0b83 00       		.byte	0
 7732 0b84 03       		.uleb128 0x3
 7733 0b85 EA190000 		.4byte	.LASF214
 7734 0b89 0F       		.byte	0xf
 7735 0b8a EC       		.byte	0xec
 7736 0b8b 640B0000 		.4byte	0xb64
 7737 0b8f 1A       		.uleb128 0x1a
 7738 0b90 07       		.byte	0x7
 7739 0b91 01       		.byte	0x1
 7740 0b92 49000000 		.4byte	0x49
 7741 0b96 0F       		.byte	0xf
 7742 0b97 EE       		.byte	0xee
 7743 0b98 A90B0000 		.4byte	0xba9
 7744 0b9c 1B       		.uleb128 0x1b
 7745 0b9d 4B150000 		.4byte	.LASF215
 7746 0ba1 00       		.byte	0
 7747 0ba2 1B       		.uleb128 0x1b
 7748 0ba3 50140000 		.4byte	.LASF216
 7749 0ba7 01       		.byte	0x1
 7750 0ba8 00       		.byte	0
 7751 0ba9 03       		.uleb128 0x3
 7752 0baa 73100000 		.4byte	.LASF217
ARM GAS  /tmp/cc4M9ACW.s 			page 137


 7753 0bae 0F       		.byte	0xf
 7754 0baf F1       		.byte	0xf1
 7755 0bb0 8F0B0000 		.4byte	0xb8f
 7756 0bb4 1A       		.uleb128 0x1a
 7757 0bb5 07       		.byte	0x7
 7758 0bb6 01       		.byte	0x1
 7759 0bb7 49000000 		.4byte	0x49
 7760 0bbb 0F       		.byte	0xf
 7761 0bbc F3       		.byte	0xf3
 7762 0bbd D40B0000 		.4byte	0xbd4
 7763 0bc1 1B       		.uleb128 0x1b
 7764 0bc2 E3070000 		.4byte	.LASF218
 7765 0bc6 00       		.byte	0
 7766 0bc7 1B       		.uleb128 0x1b
 7767 0bc8 A8010000 		.4byte	.LASF219
 7768 0bcc 01       		.byte	0x1
 7769 0bcd 1B       		.uleb128 0x1b
 7770 0bce BD200000 		.4byte	.LASF220
 7771 0bd2 02       		.byte	0x2
 7772 0bd3 00       		.byte	0
 7773 0bd4 03       		.uleb128 0x3
 7774 0bd5 BA2F0000 		.4byte	.LASF221
 7775 0bd9 0F       		.byte	0xf
 7776 0bda F7       		.byte	0xf7
 7777 0bdb B40B0000 		.4byte	0xbb4
 7778 0bdf 14       		.uleb128 0x14
 7779 0be0 18       		.byte	0x18
 7780 0be1 0F       		.byte	0xf
 7781 0be2 F9       		.byte	0xf9
 7782 0be3 300C0000 		.4byte	0xc30
 7783 0be7 08       		.uleb128 0x8
 7784 0be8 56090000 		.4byte	.LASF222
 7785 0bec 0F       		.byte	0xf
 7786 0bed FA       		.byte	0xfa
 7787 0bee A90B0000 		.4byte	0xba9
 7788 0bf2 00       		.byte	0
 7789 0bf3 08       		.uleb128 0x8
 7790 0bf4 5E140000 		.4byte	.LASF223
 7791 0bf8 0F       		.byte	0xf
 7792 0bf9 FB       		.byte	0xfb
 7793 0bfa 25000000 		.4byte	0x25
 7794 0bfe 04       		.byte	0x4
 7795 0bff 08       		.uleb128 0x8
 7796 0c00 790F0000 		.4byte	.LASF224
 7797 0c04 0F       		.byte	0xf
 7798 0c05 FC       		.byte	0xfc
 7799 0c06 25000000 		.4byte	0x25
 7800 0c0a 08       		.byte	0x8
 7801 0c0b 08       		.uleb128 0x8
 7802 0c0c 0B090000 		.4byte	.LASF225
 7803 0c10 0F       		.byte	0xf
 7804 0c11 FD       		.byte	0xfd
 7805 0c12 25000000 		.4byte	0x25
 7806 0c16 0C       		.byte	0xc
 7807 0c17 08       		.uleb128 0x8
 7808 0c18 EE030000 		.4byte	.LASF226
 7809 0c1c 0F       		.byte	0xf
ARM GAS  /tmp/cc4M9ACW.s 			page 138


 7810 0c1d FE       		.byte	0xfe
 7811 0c1e 25000000 		.4byte	0x25
 7812 0c22 10       		.byte	0x10
 7813 0c23 08       		.uleb128 0x8
 7814 0c24 EE180000 		.4byte	.LASF227
 7815 0c28 0F       		.byte	0xf
 7816 0c29 FF       		.byte	0xff
 7817 0c2a D40B0000 		.4byte	0xbd4
 7818 0c2e 14       		.byte	0x14
 7819 0c2f 00       		.byte	0
 7820 0c30 1C       		.uleb128 0x1c
 7821 0c31 63200000 		.4byte	.LASF228
 7822 0c35 0F       		.byte	0xf
 7823 0c36 0001     		.2byte	0x100
 7824 0c38 DF0B0000 		.4byte	0xbdf
 7825 0c3c 02       		.uleb128 0x2
 7826 0c3d 01       		.byte	0x1
 7827 0c3e 02       		.byte	0x2
 7828 0c3f 74010000 		.4byte	.LASF229
 7829 0c43 1D       		.uleb128 0x1d
 7830 0c44 07       		.byte	0x7
 7831 0c45 01       		.byte	0x1
 7832 0c46 49000000 		.4byte	0x49
 7833 0c4a 0F       		.byte	0xf
 7834 0c4b 2901     		.2byte	0x129
 7835 0c4d 880C0000 		.4byte	0xc88
 7836 0c51 1B       		.uleb128 0x1b
 7837 0c52 B4060000 		.4byte	.LASF230
 7838 0c56 00       		.byte	0
 7839 0c57 1B       		.uleb128 0x1b
 7840 0c58 17200000 		.4byte	.LASF231
 7841 0c5c 01       		.byte	0x1
 7842 0c5d 1B       		.uleb128 0x1b
 7843 0c5e 1E130000 		.4byte	.LASF232
 7844 0c62 02       		.byte	0x2
 7845 0c63 1B       		.uleb128 0x1b
 7846 0c64 60120000 		.4byte	.LASF233
 7847 0c68 03       		.byte	0x3
 7848 0c69 1B       		.uleb128 0x1b
 7849 0c6a FB080000 		.4byte	.LASF234
 7850 0c6e 04       		.byte	0x4
 7851 0c6f 1B       		.uleb128 0x1b
 7852 0c70 270D0000 		.4byte	.LASF235
 7853 0c74 05       		.byte	0x5
 7854 0c75 1B       		.uleb128 0x1b
 7855 0c76 F00E0000 		.4byte	.LASF236
 7856 0c7a 06       		.byte	0x6
 7857 0c7b 1B       		.uleb128 0x1b
 7858 0c7c E8060000 		.4byte	.LASF237
 7859 0c80 07       		.byte	0x7
 7860 0c81 1B       		.uleb128 0x1b
 7861 0c82 5D010000 		.4byte	.LASF238
 7862 0c86 08       		.byte	0x8
 7863 0c87 00       		.byte	0
 7864 0c88 1C       		.uleb128 0x1c
 7865 0c89 79170000 		.4byte	.LASF239
 7866 0c8d 0F       		.byte	0xf
ARM GAS  /tmp/cc4M9ACW.s 			page 139


 7867 0c8e 3301     		.2byte	0x133
 7868 0c90 430C0000 		.4byte	0xc43
 7869 0c94 1D       		.uleb128 0x1d
 7870 0c95 07       		.byte	0x7
 7871 0c96 01       		.byte	0x1
 7872 0c97 49000000 		.4byte	0x49
 7873 0c9b 0F       		.byte	0xf
 7874 0c9c 3501     		.2byte	0x135
 7875 0c9e B50C0000 		.4byte	0xcb5
 7876 0ca2 1B       		.uleb128 0x1b
 7877 0ca3 03070000 		.4byte	.LASF240
 7878 0ca7 00       		.byte	0
 7879 0ca8 1B       		.uleb128 0x1b
 7880 0ca9 6C140000 		.4byte	.LASF241
 7881 0cad 01       		.byte	0x1
 7882 0cae 1B       		.uleb128 0x1b
 7883 0caf 422D0000 		.4byte	.LASF242
 7884 0cb3 02       		.byte	0x2
 7885 0cb4 00       		.byte	0
 7886 0cb5 1C       		.uleb128 0x1c
 7887 0cb6 E8200000 		.4byte	.LASF243
 7888 0cba 0F       		.byte	0xf
 7889 0cbb 3901     		.2byte	0x139
 7890 0cbd 940C0000 		.4byte	0xc94
 7891 0cc1 1E       		.uleb128 0x1e
 7892 0cc2 8C02     		.2byte	0x28c
 7893 0cc4 0F       		.byte	0xf
 7894 0cc5 3B01     		.2byte	0x13b
 7895 0cc7 3C150000 		.4byte	0x153c
 7896 0ccb 0A       		.uleb128 0xa
 7897 0ccc 051C0000 		.4byte	.LASF244
 7898 0cd0 0F       		.byte	0xf
 7899 0cd1 3D01     		.2byte	0x13d
 7900 0cd3 25000000 		.4byte	0x25
 7901 0cd7 00       		.byte	0
 7902 0cd8 0A       		.uleb128 0xa
 7903 0cd9 17220000 		.4byte	.LASF245
 7904 0cdd 0F       		.byte	0xf
 7905 0cde 3E01     		.2byte	0x13e
 7906 0ce0 25000000 		.4byte	0x25
 7907 0ce4 04       		.byte	0x4
 7908 0ce5 0A       		.uleb128 0xa
 7909 0ce6 032C0000 		.4byte	.LASF246
 7910 0cea 0F       		.byte	0xf
 7911 0ceb 3F01     		.2byte	0x13f
 7912 0ced 25000000 		.4byte	0x25
 7913 0cf1 08       		.byte	0x8
 7914 0cf2 0A       		.uleb128 0xa
 7915 0cf3 3E020000 		.4byte	.LASF247
 7916 0cf7 0F       		.byte	0xf
 7917 0cf8 4001     		.2byte	0x140
 7918 0cfa 25000000 		.4byte	0x25
 7919 0cfe 0C       		.byte	0xc
 7920 0cff 0A       		.uleb128 0xa
 7921 0d00 4A000000 		.4byte	.LASF248
 7922 0d04 0F       		.byte	0xf
 7923 0d05 4101     		.2byte	0x141
ARM GAS  /tmp/cc4M9ACW.s 			page 140


 7924 0d07 25000000 		.4byte	0x25
 7925 0d0b 10       		.byte	0x10
 7926 0d0c 0A       		.uleb128 0xa
 7927 0d0d 22030000 		.4byte	.LASF249
 7928 0d11 0F       		.byte	0xf
 7929 0d12 4201     		.2byte	0x142
 7930 0d14 25000000 		.4byte	0x25
 7931 0d18 14       		.byte	0x14
 7932 0d19 0A       		.uleb128 0xa
 7933 0d1a 041A0000 		.4byte	.LASF250
 7934 0d1e 0F       		.byte	0xf
 7935 0d1f 4301     		.2byte	0x143
 7936 0d21 25000000 		.4byte	0x25
 7937 0d25 18       		.byte	0x18
 7938 0d26 0A       		.uleb128 0xa
 7939 0d27 3B0B0000 		.4byte	.LASF251
 7940 0d2b 0F       		.byte	0xf
 7941 0d2c 4401     		.2byte	0x144
 7942 0d2e 25000000 		.4byte	0x25
 7943 0d32 1C       		.byte	0x1c
 7944 0d33 0A       		.uleb128 0xa
 7945 0d34 2D000000 		.4byte	.LASF252
 7946 0d38 0F       		.byte	0xf
 7947 0d39 4501     		.2byte	0x145
 7948 0d3b 25000000 		.4byte	0x25
 7949 0d3f 20       		.byte	0x20
 7950 0d40 0A       		.uleb128 0xa
 7951 0d41 492B0000 		.4byte	.LASF253
 7952 0d45 0F       		.byte	0xf
 7953 0d46 4601     		.2byte	0x146
 7954 0d48 25000000 		.4byte	0x25
 7955 0d4c 24       		.byte	0x24
 7956 0d4d 0A       		.uleb128 0xa
 7957 0d4e 86130000 		.4byte	.LASF254
 7958 0d52 0F       		.byte	0xf
 7959 0d53 4701     		.2byte	0x147
 7960 0d55 25000000 		.4byte	0x25
 7961 0d59 28       		.byte	0x28
 7962 0d5a 0A       		.uleb128 0xa
 7963 0d5b 15120000 		.4byte	.LASF255
 7964 0d5f 0F       		.byte	0xf
 7965 0d60 4801     		.2byte	0x148
 7966 0d62 25000000 		.4byte	0x25
 7967 0d66 2C       		.byte	0x2c
 7968 0d67 0A       		.uleb128 0xa
 7969 0d68 60130000 		.4byte	.LASF256
 7970 0d6c 0F       		.byte	0xf
 7971 0d6d 4901     		.2byte	0x149
 7972 0d6f 25000000 		.4byte	0x25
 7973 0d73 30       		.byte	0x30
 7974 0d74 0A       		.uleb128 0xa
 7975 0d75 74130000 		.4byte	.LASF257
 7976 0d79 0F       		.byte	0xf
 7977 0d7a 4A01     		.2byte	0x14a
 7978 0d7c 25000000 		.4byte	0x25
 7979 0d80 34       		.byte	0x34
 7980 0d81 0A       		.uleb128 0xa
ARM GAS  /tmp/cc4M9ACW.s 			page 141


 7981 0d82 2B020000 		.4byte	.LASF258
 7982 0d86 0F       		.byte	0xf
 7983 0d87 4B01     		.2byte	0x14b
 7984 0d89 3C0C0000 		.4byte	0xc3c
 7985 0d8d 38       		.byte	0x38
 7986 0d8e 0A       		.uleb128 0xa
 7987 0d8f 7D0B0000 		.4byte	.LASF259
 7988 0d93 0F       		.byte	0xf
 7989 0d94 4C01     		.2byte	0x14c
 7990 0d96 25000000 		.4byte	0x25
 7991 0d9a 3C       		.byte	0x3c
 7992 0d9b 0A       		.uleb128 0xa
 7993 0d9c 9A040000 		.4byte	.LASF260
 7994 0da0 0F       		.byte	0xf
 7995 0da1 4D01     		.2byte	0x14d
 7996 0da3 25000000 		.4byte	0x25
 7997 0da7 40       		.byte	0x40
 7998 0da8 0A       		.uleb128 0xa
 7999 0da9 12210000 		.4byte	.LASF261
 8000 0dad 0F       		.byte	0xf
 8001 0dae 4E01     		.2byte	0x14e
 8002 0db0 25000000 		.4byte	0x25
 8003 0db4 44       		.byte	0x44
 8004 0db5 0A       		.uleb128 0xa
 8005 0db6 87240000 		.4byte	.LASF262
 8006 0dba 0F       		.byte	0xf
 8007 0dbb 4F01     		.2byte	0x14f
 8008 0dbd 25000000 		.4byte	0x25
 8009 0dc1 48       		.byte	0x48
 8010 0dc2 0A       		.uleb128 0xa
 8011 0dc3 81200000 		.4byte	.LASF263
 8012 0dc7 0F       		.byte	0xf
 8013 0dc8 5001     		.2byte	0x150
 8014 0dca 25000000 		.4byte	0x25
 8015 0dce 4C       		.byte	0x4c
 8016 0dcf 0A       		.uleb128 0xa
 8017 0dd0 5E2D0000 		.4byte	.LASF264
 8018 0dd4 0F       		.byte	0xf
 8019 0dd5 5101     		.2byte	0x151
 8020 0dd7 25000000 		.4byte	0x25
 8021 0ddb 50       		.byte	0x50
 8022 0ddc 0A       		.uleb128 0xa
 8023 0ddd C6140000 		.4byte	.LASF265
 8024 0de1 0F       		.byte	0xf
 8025 0de2 5201     		.2byte	0x152
 8026 0de4 25000000 		.4byte	0x25
 8027 0de8 54       		.byte	0x54
 8028 0de9 0A       		.uleb128 0xa
 8029 0dea 300B0000 		.4byte	.LASF266
 8030 0dee 0F       		.byte	0xf
 8031 0def 5301     		.2byte	0x153
 8032 0df1 25000000 		.4byte	0x25
 8033 0df5 58       		.byte	0x58
 8034 0df6 0A       		.uleb128 0xa
 8035 0df7 332B0000 		.4byte	.LASF267
 8036 0dfb 0F       		.byte	0xf
 8037 0dfc 5401     		.2byte	0x154
ARM GAS  /tmp/cc4M9ACW.s 			page 142


 8038 0dfe 25000000 		.4byte	0x25
 8039 0e02 5C       		.byte	0x5c
 8040 0e03 0A       		.uleb128 0xa
 8041 0e04 D6190000 		.4byte	.LASF268
 8042 0e08 0F       		.byte	0xf
 8043 0e09 5501     		.2byte	0x155
 8044 0e0b 25000000 		.4byte	0x25
 8045 0e0f 60       		.byte	0x60
 8046 0e10 0A       		.uleb128 0xa
 8047 0e11 231C0000 		.4byte	.LASF269
 8048 0e15 0F       		.byte	0xf
 8049 0e16 5601     		.2byte	0x156
 8050 0e18 25000000 		.4byte	0x25
 8051 0e1c 64       		.byte	0x64
 8052 0e1d 0A       		.uleb128 0xa
 8053 0e1e 58170000 		.4byte	.LASF270
 8054 0e22 0F       		.byte	0xf
 8055 0e23 5701     		.2byte	0x157
 8056 0e25 25000000 		.4byte	0x25
 8057 0e29 68       		.byte	0x68
 8058 0e2a 0A       		.uleb128 0xa
 8059 0e2b 20100000 		.4byte	.LASF271
 8060 0e2f 0F       		.byte	0xf
 8061 0e30 5901     		.2byte	0x159
 8062 0e32 25000000 		.4byte	0x25
 8063 0e36 6C       		.byte	0x6c
 8064 0e37 0A       		.uleb128 0xa
 8065 0e38 A1160000 		.4byte	.LASF272
 8066 0e3c 0F       		.byte	0xf
 8067 0e3d 5A01     		.2byte	0x15a
 8068 0e3f 25000000 		.4byte	0x25
 8069 0e43 70       		.byte	0x70
 8070 0e44 0A       		.uleb128 0xa
 8071 0e45 C0260000 		.4byte	.LASF273
 8072 0e49 0F       		.byte	0xf
 8073 0e4a 5B01     		.2byte	0x15b
 8074 0e4c 25000000 		.4byte	0x25
 8075 0e50 74       		.byte	0x74
 8076 0e51 0A       		.uleb128 0xa
 8077 0e52 242D0000 		.4byte	.LASF274
 8078 0e56 0F       		.byte	0xf
 8079 0e57 5C01     		.2byte	0x15c
 8080 0e59 25000000 		.4byte	0x25
 8081 0e5d 78       		.byte	0x78
 8082 0e5e 0A       		.uleb128 0xa
 8083 0e5f 1D230000 		.4byte	.LASF275
 8084 0e63 0F       		.byte	0xf
 8085 0e64 5D01     		.2byte	0x15d
 8086 0e66 25000000 		.4byte	0x25
 8087 0e6a 7C       		.byte	0x7c
 8088 0e6b 0A       		.uleb128 0xa
 8089 0e6c FC110000 		.4byte	.LASF276
 8090 0e70 0F       		.byte	0xf
 8091 0e71 5E01     		.2byte	0x15e
 8092 0e73 25000000 		.4byte	0x25
 8093 0e77 80       		.byte	0x80
 8094 0e78 0A       		.uleb128 0xa
ARM GAS  /tmp/cc4M9ACW.s 			page 143


 8095 0e79 66160000 		.4byte	.LASF277
 8096 0e7d 0F       		.byte	0xf
 8097 0e7e 6101     		.2byte	0x161
 8098 0e80 B3080000 		.4byte	0x8b3
 8099 0e84 84       		.byte	0x84
 8100 0e85 0A       		.uleb128 0xa
 8101 0e86 FE0B0000 		.4byte	.LASF278
 8102 0e8a 0F       		.byte	0xf
 8103 0e8b 6201     		.2byte	0x162
 8104 0e8d D8080000 		.4byte	0x8d8
 8105 0e91 85       		.byte	0x85
 8106 0e92 0A       		.uleb128 0xa
 8107 0e93 8D160000 		.4byte	.LASF279
 8108 0e97 0F       		.byte	0xf
 8109 0e98 6301     		.2byte	0x163
 8110 0e9a 150A0000 		.4byte	0xa15
 8111 0e9e 86       		.byte	0x86
 8112 0e9f 0A       		.uleb128 0xa
 8113 0ea0 F6240000 		.4byte	.LASF280
 8114 0ea4 0F       		.byte	0xf
 8115 0ea5 6401     		.2byte	0x164
 8116 0ea7 03090000 		.4byte	0x903
 8117 0eab 87       		.byte	0x87
 8118 0eac 0A       		.uleb128 0xa
 8119 0ead 44140000 		.4byte	.LASF281
 8120 0eb1 0F       		.byte	0xf
 8121 0eb2 6701     		.2byte	0x167
 8122 0eb4 25000000 		.4byte	0x25
 8123 0eb8 88       		.byte	0x88
 8124 0eb9 0A       		.uleb128 0xa
 8125 0eba 48070000 		.4byte	.LASF282
 8126 0ebe 0F       		.byte	0xf
 8127 0ebf 6801     		.2byte	0x168
 8128 0ec1 25000000 		.4byte	0x25
 8129 0ec5 8C       		.byte	0x8c
 8130 0ec6 0A       		.uleb128 0xa
 8131 0ec7 B0160000 		.4byte	.LASF283
 8132 0ecb 0F       		.byte	0xf
 8133 0ecc 6901     		.2byte	0x169
 8134 0ece 25000000 		.4byte	0x25
 8135 0ed2 90       		.byte	0x90
 8136 0ed3 0A       		.uleb128 0xa
 8137 0ed4 18180000 		.4byte	.LASF284
 8138 0ed8 0F       		.byte	0xf
 8139 0ed9 6A01     		.2byte	0x16a
 8140 0edb 25000000 		.4byte	0x25
 8141 0edf 94       		.byte	0x94
 8142 0ee0 0A       		.uleb128 0xa
 8143 0ee1 96150000 		.4byte	.LASF285
 8144 0ee5 0F       		.byte	0xf
 8145 0ee6 6B01     		.2byte	0x16b
 8146 0ee8 25000000 		.4byte	0x25
 8147 0eec 98       		.byte	0x98
 8148 0eed 0A       		.uleb128 0xa
 8149 0eee 97280000 		.4byte	.LASF286
 8150 0ef2 0F       		.byte	0xf
 8151 0ef3 6C01     		.2byte	0x16c
ARM GAS  /tmp/cc4M9ACW.s 			page 144


 8152 0ef5 25000000 		.4byte	0x25
 8153 0ef9 9C       		.byte	0x9c
 8154 0efa 0A       		.uleb128 0xa
 8155 0efb 6E200000 		.4byte	.LASF287
 8156 0eff 0F       		.byte	0xf
 8157 0f00 6D01     		.2byte	0x16d
 8158 0f02 25000000 		.4byte	0x25
 8159 0f06 A0       		.byte	0xa0
 8160 0f07 0A       		.uleb128 0xa
 8161 0f08 8B150000 		.4byte	.LASF288
 8162 0f0c 0F       		.byte	0xf
 8163 0f0d 6F01     		.2byte	0x16f
 8164 0f0f 3C150000 		.4byte	0x153c
 8165 0f13 A4       		.byte	0xa4
 8166 0f14 0A       		.uleb128 0xa
 8167 0f15 F5220000 		.4byte	.LASF289
 8168 0f19 0F       		.byte	0xf
 8169 0f1a 7001     		.2byte	0x170
 8170 0f1c 25000000 		.4byte	0x25
 8171 0f20 AC       		.byte	0xac
 8172 0f21 0A       		.uleb128 0xa
 8173 0f22 99070000 		.4byte	.LASF290
 8174 0f26 0F       		.byte	0xf
 8175 0f27 7301     		.2byte	0x173
 8176 0f29 25000000 		.4byte	0x25
 8177 0f2d B0       		.byte	0xb0
 8178 0f2e 0A       		.uleb128 0xa
 8179 0f2f 71070000 		.4byte	.LASF291
 8180 0f33 0F       		.byte	0xf
 8181 0f34 7401     		.2byte	0x174
 8182 0f36 25000000 		.4byte	0x25
 8183 0f3a B4       		.byte	0xb4
 8184 0f3b 0A       		.uleb128 0xa
 8185 0f3c 4F120000 		.4byte	.LASF292
 8186 0f40 0F       		.byte	0xf
 8187 0f41 7501     		.2byte	0x175
 8188 0f43 25000000 		.4byte	0x25
 8189 0f47 B8       		.byte	0xb8
 8190 0f48 0A       		.uleb128 0xa
 8191 0f49 9C270000 		.4byte	.LASF293
 8192 0f4d 0F       		.byte	0xf
 8193 0f4e 7601     		.2byte	0x176
 8194 0f50 25000000 		.4byte	0x25
 8195 0f54 BC       		.byte	0xbc
 8196 0f55 0A       		.uleb128 0xa
 8197 0f56 D8250000 		.4byte	.LASF294
 8198 0f5a 0F       		.byte	0xf
 8199 0f5b 7701     		.2byte	0x177
 8200 0f5d 25000000 		.4byte	0x25
 8201 0f61 C0       		.byte	0xc0
 8202 0f62 0A       		.uleb128 0xa
 8203 0f63 2F100000 		.4byte	.LASF295
 8204 0f67 0F       		.byte	0xf
 8205 0f68 7801     		.2byte	0x178
 8206 0f6a 3C0C0000 		.4byte	0xc3c
 8207 0f6e C4       		.byte	0xc4
 8208 0f6f 0A       		.uleb128 0xa
ARM GAS  /tmp/cc4M9ACW.s 			page 145


 8209 0f70 7B1E0000 		.4byte	.LASF296
 8210 0f74 0F       		.byte	0xf
 8211 0f75 7901     		.2byte	0x179
 8212 0f77 25000000 		.4byte	0x25
 8213 0f7b C8       		.byte	0xc8
 8214 0f7c 0A       		.uleb128 0xa
 8215 0f7d 450C0000 		.4byte	.LASF297
 8216 0f81 0F       		.byte	0xf
 8217 0f82 7A01     		.2byte	0x17a
 8218 0f84 25000000 		.4byte	0x25
 8219 0f88 CC       		.byte	0xcc
 8220 0f89 0A       		.uleb128 0xa
 8221 0f8a FE090000 		.4byte	.LASF298
 8222 0f8e 0F       		.byte	0xf
 8223 0f8f 7B01     		.2byte	0x17b
 8224 0f91 25000000 		.4byte	0x25
 8225 0f95 D0       		.byte	0xd0
 8226 0f96 0A       		.uleb128 0xa
 8227 0f97 1E140000 		.4byte	.LASF299
 8228 0f9b 0F       		.byte	0xf
 8229 0f9c 7C01     		.2byte	0x17c
 8230 0f9e 25000000 		.4byte	0x25
 8231 0fa2 D4       		.byte	0xd4
 8232 0fa3 0A       		.uleb128 0xa
 8233 0fa4 85020000 		.4byte	.LASF300
 8234 0fa8 0F       		.byte	0xf
 8235 0fa9 7D01     		.2byte	0x17d
 8236 0fab 25000000 		.4byte	0x25
 8237 0faf D8       		.byte	0xd8
 8238 0fb0 0A       		.uleb128 0xa
 8239 0fb1 C9130000 		.4byte	.LASF301
 8240 0fb5 0F       		.byte	0xf
 8241 0fb6 7E01     		.2byte	0x17e
 8242 0fb8 25000000 		.4byte	0x25
 8243 0fbc DC       		.byte	0xdc
 8244 0fbd 0A       		.uleb128 0xa
 8245 0fbe 460A0000 		.4byte	.LASF302
 8246 0fc2 0F       		.byte	0xf
 8247 0fc3 7F01     		.2byte	0x17f
 8248 0fc5 25000000 		.4byte	0x25
 8249 0fc9 E0       		.byte	0xe0
 8250 0fca 0A       		.uleb128 0xa
 8251 0fcb F5170000 		.4byte	.LASF303
 8252 0fcf 0F       		.byte	0xf
 8253 0fd0 8001     		.2byte	0x180
 8254 0fd2 25000000 		.4byte	0x25
 8255 0fd6 E4       		.byte	0xe4
 8256 0fd7 0A       		.uleb128 0xa
 8257 0fd8 690A0000 		.4byte	.LASF304
 8258 0fdc 0F       		.byte	0xf
 8259 0fdd 8101     		.2byte	0x181
 8260 0fdf 25000000 		.4byte	0x25
 8261 0fe3 E8       		.byte	0xe8
 8262 0fe4 0A       		.uleb128 0xa
 8263 0fe5 CA170000 		.4byte	.LASF305
 8264 0fe9 0F       		.byte	0xf
 8265 0fea 8201     		.2byte	0x182
ARM GAS  /tmp/cc4M9ACW.s 			page 146


 8266 0fec 25000000 		.4byte	0x25
 8267 0ff0 EC       		.byte	0xec
 8268 0ff1 0A       		.uleb128 0xa
 8269 0ff2 1C0C0000 		.4byte	.LASF306
 8270 0ff6 0F       		.byte	0xf
 8271 0ff7 8301     		.2byte	0x183
 8272 0ff9 25000000 		.4byte	0x25
 8273 0ffd F0       		.byte	0xf0
 8274 0ffe 0A       		.uleb128 0xa
 8275 0fff E2000000 		.4byte	.LASF307
 8276 1003 0F       		.byte	0xf
 8277 1004 8401     		.2byte	0x184
 8278 1006 25000000 		.4byte	0x25
 8279 100a F4       		.byte	0xf4
 8280 100b 0A       		.uleb128 0xa
 8281 100c 09050000 		.4byte	.LASF308
 8282 1010 0F       		.byte	0xf
 8283 1011 8501     		.2byte	0x185
 8284 1013 25000000 		.4byte	0x25
 8285 1017 F8       		.byte	0xf8
 8286 1018 0A       		.uleb128 0xa
 8287 1019 9E230000 		.4byte	.LASF309
 8288 101d 0F       		.byte	0xf
 8289 101e 8601     		.2byte	0x186
 8290 1020 25000000 		.4byte	0x25
 8291 1024 FC       		.byte	0xfc
 8292 1025 1F       		.uleb128 0x1f
 8293 1026 83230000 		.4byte	.LASF310
 8294 102a 0F       		.byte	0xf
 8295 102b 8701     		.2byte	0x187
 8296 102d 25000000 		.4byte	0x25
 8297 1031 0001     		.2byte	0x100
 8298 1033 1F       		.uleb128 0x1f
 8299 1034 261B0000 		.4byte	.LASF311
 8300 1038 0F       		.byte	0xf
 8301 1039 8801     		.2byte	0x188
 8302 103b 25000000 		.4byte	0x25
 8303 103f 0401     		.2byte	0x104
 8304 1041 1F       		.uleb128 0x1f
 8305 1042 F41A0000 		.4byte	.LASF312
 8306 1046 0F       		.byte	0xf
 8307 1047 8901     		.2byte	0x189
 8308 1049 25000000 		.4byte	0x25
 8309 104d 0801     		.2byte	0x108
 8310 104f 1F       		.uleb128 0x1f
 8311 1050 72230000 		.4byte	.LASF313
 8312 1054 0F       		.byte	0xf
 8313 1055 8A01     		.2byte	0x18a
 8314 1057 25000000 		.4byte	0x25
 8315 105b 0C01     		.2byte	0x10c
 8316 105d 1F       		.uleb128 0x1f
 8317 105e D61E0000 		.4byte	.LASF314
 8318 1062 0F       		.byte	0xf
 8319 1063 8B01     		.2byte	0x18b
 8320 1065 25000000 		.4byte	0x25
 8321 1069 1001     		.2byte	0x110
 8322 106b 1F       		.uleb128 0x1f
ARM GAS  /tmp/cc4M9ACW.s 			page 147


 8323 106c 520A0000 		.4byte	.LASF315
 8324 1070 0F       		.byte	0xf
 8325 1071 8C01     		.2byte	0x18c
 8326 1073 25000000 		.4byte	0x25
 8327 1077 1401     		.2byte	0x114
 8328 1079 1F       		.uleb128 0x1f
 8329 107a 002F0000 		.4byte	.LASF316
 8330 107e 0F       		.byte	0xf
 8331 107f 8D01     		.2byte	0x18d
 8332 1081 25000000 		.4byte	0x25
 8333 1085 1801     		.2byte	0x118
 8334 1087 1F       		.uleb128 0x1f
 8335 1088 5D260000 		.4byte	.LASF317
 8336 108c 0F       		.byte	0xf
 8337 108d 8E01     		.2byte	0x18e
 8338 108f 25000000 		.4byte	0x25
 8339 1093 1C01     		.2byte	0x11c
 8340 1095 1F       		.uleb128 0x1f
 8341 1096 F52C0000 		.4byte	.LASF318
 8342 109a 0F       		.byte	0xf
 8343 109b 8F01     		.2byte	0x18f
 8344 109d 25000000 		.4byte	0x25
 8345 10a1 2001     		.2byte	0x120
 8346 10a3 1F       		.uleb128 0x1f
 8347 10a4 43260000 		.4byte	.LASF319
 8348 10a8 0F       		.byte	0xf
 8349 10a9 9001     		.2byte	0x190
 8350 10ab 25000000 		.4byte	0x25
 8351 10af 2401     		.2byte	0x124
 8352 10b1 1F       		.uleb128 0x1f
 8353 10b2 CA180000 		.4byte	.LASF320
 8354 10b6 0F       		.byte	0xf
 8355 10b7 9101     		.2byte	0x191
 8356 10b9 25000000 		.4byte	0x25
 8357 10bd 2801     		.2byte	0x128
 8358 10bf 1F       		.uleb128 0x1f
 8359 10c0 11270000 		.4byte	.LASF321
 8360 10c4 0F       		.byte	0xf
 8361 10c5 9201     		.2byte	0x192
 8362 10c7 3A090000 		.4byte	0x93a
 8363 10cb 2C01     		.2byte	0x12c
 8364 10cd 1F       		.uleb128 0x1f
 8365 10ce B12C0000 		.4byte	.LASF322
 8366 10d2 0F       		.byte	0xf
 8367 10d3 9301     		.2byte	0x193
 8368 10d5 4C150000 		.4byte	0x154c
 8369 10d9 2D01     		.2byte	0x12d
 8370 10db 1F       		.uleb128 0x1f
 8371 10dc D6100000 		.4byte	.LASF323
 8372 10e0 0F       		.byte	0xf
 8373 10e1 9401     		.2byte	0x194
 8374 10e3 25000000 		.4byte	0x25
 8375 10e7 3801     		.2byte	0x138
 8376 10e9 1F       		.uleb128 0x1f
 8377 10ea 27150000 		.4byte	.LASF324
 8378 10ee 0F       		.byte	0xf
 8379 10ef 9501     		.2byte	0x195
ARM GAS  /tmp/cc4M9ACW.s 			page 148


 8380 10f1 25000000 		.4byte	0x25
 8381 10f5 3C01     		.2byte	0x13c
 8382 10f7 1F       		.uleb128 0x1f
 8383 10f8 952E0000 		.4byte	.LASF325
 8384 10fc 0F       		.byte	0xf
 8385 10fd 9601     		.2byte	0x196
 8386 10ff 3C0C0000 		.4byte	0xc3c
 8387 1103 4001     		.2byte	0x140
 8388 1105 1F       		.uleb128 0x1f
 8389 1106 20290000 		.4byte	.LASF326
 8390 110a 0F       		.byte	0xf
 8391 110b 9701     		.2byte	0x197
 8392 110d 3C0C0000 		.4byte	0xc3c
 8393 1111 4101     		.2byte	0x141
 8394 1113 1F       		.uleb128 0x1f
 8395 1114 A6270000 		.4byte	.LASF327
 8396 1118 0F       		.byte	0xf
 8397 1119 9801     		.2byte	0x198
 8398 111b 25000000 		.4byte	0x25
 8399 111f 4401     		.2byte	0x144
 8400 1121 1F       		.uleb128 0x1f
 8401 1122 FD1F0000 		.4byte	.LASF328
 8402 1126 0F       		.byte	0xf
 8403 1127 9901     		.2byte	0x199
 8404 1129 3C0C0000 		.4byte	0xc3c
 8405 112d 4801     		.2byte	0x148
 8406 112f 1F       		.uleb128 0x1f
 8407 1130 C3240000 		.4byte	.LASF329
 8408 1134 0F       		.byte	0xf
 8409 1135 9A01     		.2byte	0x19a
 8410 1137 25000000 		.4byte	0x25
 8411 113b 4C01     		.2byte	0x14c
 8412 113d 1F       		.uleb128 0x1f
 8413 113e 462C0000 		.4byte	.LASF330
 8414 1142 0F       		.byte	0xf
 8415 1143 9B01     		.2byte	0x19b
 8416 1145 25000000 		.4byte	0x25
 8417 1149 5001     		.2byte	0x150
 8418 114b 1F       		.uleb128 0x1f
 8419 114c EE2E0000 		.4byte	.LASF331
 8420 1150 0F       		.byte	0xf
 8421 1151 9C01     		.2byte	0x19c
 8422 1153 460A0000 		.4byte	0xa46
 8423 1157 5401     		.2byte	0x154
 8424 1159 1F       		.uleb128 0x1f
 8425 115a A62E0000 		.4byte	.LASF332
 8426 115e 0F       		.byte	0xf
 8427 115f 9D01     		.2byte	0x19d
 8428 1161 650A0000 		.4byte	0xa65
 8429 1165 5501     		.2byte	0x155
 8430 1167 1F       		.uleb128 0x1f
 8431 1168 B91D0000 		.4byte	.LASF333
 8432 116c 0F       		.byte	0xf
 8433 116d 9E01     		.2byte	0x19e
 8434 116f 25000000 		.4byte	0x25
 8435 1173 5801     		.2byte	0x158
 8436 1175 1F       		.uleb128 0x1f
ARM GAS  /tmp/cc4M9ACW.s 			page 149


 8437 1176 65170000 		.4byte	.LASF334
 8438 117a 0F       		.byte	0xf
 8439 117b 9F01     		.2byte	0x19f
 8440 117d 25000000 		.4byte	0x25
 8441 1181 5C01     		.2byte	0x15c
 8442 1183 1F       		.uleb128 0x1f
 8443 1184 4E030000 		.4byte	.LASF335
 8444 1188 0F       		.byte	0xf
 8445 1189 A001     		.2byte	0x1a0
 8446 118b 25000000 		.4byte	0x25
 8447 118f 6001     		.2byte	0x160
 8448 1191 1F       		.uleb128 0x1f
 8449 1192 3E030000 		.4byte	.LASF336
 8450 1196 0F       		.byte	0xf
 8451 1197 A101     		.2byte	0x1a1
 8452 1199 25000000 		.4byte	0x25
 8453 119d 6401     		.2byte	0x164
 8454 119f 1F       		.uleb128 0x1f
 8455 11a0 681C0000 		.4byte	.LASF337
 8456 11a4 0F       		.byte	0xf
 8457 11a5 A201     		.2byte	0x1a2
 8458 11a7 CF000000 		.4byte	0xcf
 8459 11ab 6801     		.2byte	0x168
 8460 11ad 1F       		.uleb128 0x1f
 8461 11ae 541A0000 		.4byte	.LASF338
 8462 11b2 0F       		.byte	0xf
 8463 11b3 A301     		.2byte	0x1a3
 8464 11b5 25000000 		.4byte	0x25
 8465 11b9 6C01     		.2byte	0x16c
 8466 11bb 1F       		.uleb128 0x1f
 8467 11bc EA190000 		.4byte	.LASF214
 8468 11c0 0F       		.byte	0xf
 8469 11c1 A401     		.2byte	0x1a4
 8470 11c3 840B0000 		.4byte	0xb84
 8471 11c7 7001     		.2byte	0x170
 8472 11c9 1F       		.uleb128 0x1f
 8473 11ca 06140000 		.4byte	.LASF339
 8474 11ce 0F       		.byte	0xf
 8475 11cf A501     		.2byte	0x1a5
 8476 11d1 3C0C0000 		.4byte	0xc3c
 8477 11d5 7101     		.2byte	0x171
 8478 11d7 1F       		.uleb128 0x1f
 8479 11d8 080C0000 		.4byte	.LASF340
 8480 11dc 0F       		.byte	0xf
 8481 11dd A601     		.2byte	0x1a6
 8482 11df 5C150000 		.4byte	0x155c
 8483 11e3 7401     		.2byte	0x174
 8484 11e5 1F       		.uleb128 0x1f
 8485 11e6 211A0000 		.4byte	.LASF341
 8486 11ea 0F       		.byte	0xf
 8487 11eb A701     		.2byte	0x1a7
 8488 11ed 5C150000 		.4byte	0x155c
 8489 11f1 8001     		.2byte	0x180
 8490 11f3 1F       		.uleb128 0x1f
 8491 11f4 E2210000 		.4byte	.LASF342
 8492 11f8 0F       		.byte	0xf
 8493 11f9 A801     		.2byte	0x1a8
ARM GAS  /tmp/cc4M9ACW.s 			page 150


 8494 11fb 5C150000 		.4byte	0x155c
 8495 11ff 8C01     		.2byte	0x18c
 8496 1201 1F       		.uleb128 0x1f
 8497 1202 0F150000 		.4byte	.LASF343
 8498 1206 0F       		.byte	0xf
 8499 1207 A901     		.2byte	0x1a9
 8500 1209 3C0C0000 		.4byte	0xc3c
 8501 120d 9801     		.2byte	0x198
 8502 120f 1F       		.uleb128 0x1f
 8503 1210 35120000 		.4byte	.LASF344
 8504 1214 0F       		.byte	0xf
 8505 1215 AA01     		.2byte	0x1aa
 8506 1217 25000000 		.4byte	0x25
 8507 121b 9C01     		.2byte	0x19c
 8508 121d 1F       		.uleb128 0x1f
 8509 121e A0090000 		.4byte	.LASF345
 8510 1222 0F       		.byte	0xf
 8511 1223 AB01     		.2byte	0x1ab
 8512 1225 B50C0000 		.4byte	0xcb5
 8513 1229 A001     		.2byte	0x1a0
 8514 122b 1F       		.uleb128 0x1f
 8515 122c 90130000 		.4byte	.LASF346
 8516 1230 0F       		.byte	0xf
 8517 1231 AD01     		.2byte	0x1ad
 8518 1233 25000000 		.4byte	0x25
 8519 1237 A401     		.2byte	0x1a4
 8520 1239 1F       		.uleb128 0x1f
 8521 123a 9A0E0000 		.4byte	.LASF347
 8522 123e 0F       		.byte	0xf
 8523 123f AE01     		.2byte	0x1ae
 8524 1241 25000000 		.4byte	0x25
 8525 1245 A801     		.2byte	0x1a8
 8526 1247 1F       		.uleb128 0x1f
 8527 1248 0D0D0000 		.4byte	.LASF348
 8528 124c 0F       		.byte	0xf
 8529 124d AF01     		.2byte	0x1af
 8530 124f 25000000 		.4byte	0x25
 8531 1253 AC01     		.2byte	0x1ac
 8532 1255 1F       		.uleb128 0x1f
 8533 1256 74110000 		.4byte	.LASF349
 8534 125a 0F       		.byte	0xf
 8535 125b B001     		.2byte	0x1b0
 8536 125d 25000000 		.4byte	0x25
 8537 1261 B001     		.2byte	0x1b0
 8538 1263 1F       		.uleb128 0x1f
 8539 1264 FD070000 		.4byte	.LASF350
 8540 1268 0F       		.byte	0xf
 8541 1269 B301     		.2byte	0x1b3
 8542 126b A6000000 		.4byte	0xa6
 8543 126f B401     		.2byte	0x1b4
 8544 1271 1F       		.uleb128 0x1f
 8545 1272 E1170000 		.4byte	.LASF351
 8546 1276 0F       		.byte	0xf
 8547 1277 B401     		.2byte	0x1b4
 8548 1279 A6000000 		.4byte	0xa6
 8549 127d B801     		.2byte	0x1b8
 8550 127f 1F       		.uleb128 0x1f
ARM GAS  /tmp/cc4M9ACW.s 			page 151


 8551 1280 400F0000 		.4byte	.LASF352
 8552 1284 0F       		.byte	0xf
 8553 1285 B501     		.2byte	0x1b5
 8554 1287 25000000 		.4byte	0x25
 8555 128b BC01     		.2byte	0x1bc
 8556 128d 1F       		.uleb128 0x1f
 8557 128e 130A0000 		.4byte	.LASF353
 8558 1292 0F       		.byte	0xf
 8559 1293 B601     		.2byte	0x1b6
 8560 1295 25000000 		.4byte	0x25
 8561 1299 C001     		.2byte	0x1c0
 8562 129b 1F       		.uleb128 0x1f
 8563 129c 25010000 		.4byte	.LASF354
 8564 12a0 0F       		.byte	0xf
 8565 12a1 B701     		.2byte	0x1b7
 8566 12a3 25000000 		.4byte	0x25
 8567 12a7 C401     		.2byte	0x1c4
 8568 12a9 1F       		.uleb128 0x1f
 8569 12aa AC200000 		.4byte	.LASF355
 8570 12ae 0F       		.byte	0xf
 8571 12af B901     		.2byte	0x1b9
 8572 12b1 880C0000 		.4byte	0xc88
 8573 12b5 C801     		.2byte	0x1c8
 8574 12b7 1F       		.uleb128 0x1f
 8575 12b8 02230000 		.4byte	.LASF356
 8576 12bc 0F       		.byte	0xf
 8577 12bd BC01     		.2byte	0x1bc
 8578 12bf 25000000 		.4byte	0x25
 8579 12c3 CC01     		.2byte	0x1cc
 8580 12c5 1F       		.uleb128 0x1f
 8581 12c6 EC220000 		.4byte	.LASF357
 8582 12ca 0F       		.byte	0xf
 8583 12cb BD01     		.2byte	0x1bd
 8584 12cd 25000000 		.4byte	0x25
 8585 12d1 D001     		.2byte	0x1d0
 8586 12d3 1F       		.uleb128 0x1f
 8587 12d4 CE220000 		.4byte	.LASF358
 8588 12d8 0F       		.byte	0xf
 8589 12d9 BE01     		.2byte	0x1be
 8590 12db 25000000 		.4byte	0x25
 8591 12df D401     		.2byte	0x1d4
 8592 12e1 1F       		.uleb128 0x1f
 8593 12e2 CE0E0000 		.4byte	.LASF359
 8594 12e6 0F       		.byte	0xf
 8595 12e7 BF01     		.2byte	0x1bf
 8596 12e9 25000000 		.4byte	0x25
 8597 12ed D801     		.2byte	0x1d8
 8598 12ef 1F       		.uleb128 0x1f
 8599 12f0 A40A0000 		.4byte	.LASF360
 8600 12f4 0F       		.byte	0xf
 8601 12f5 C001     		.2byte	0x1c0
 8602 12f7 25000000 		.4byte	0x25
 8603 12fb DC01     		.2byte	0x1dc
 8604 12fd 1F       		.uleb128 0x1f
 8605 12fe 380D0000 		.4byte	.LASF361
 8606 1302 0F       		.byte	0xf
 8607 1303 C101     		.2byte	0x1c1
ARM GAS  /tmp/cc4M9ACW.s 			page 152


 8608 1305 3C0C0000 		.4byte	0xc3c
 8609 1309 E001     		.2byte	0x1e0
 8610 130b 1F       		.uleb128 0x1f
 8611 130c DC120000 		.4byte	.LASF362
 8612 1310 0F       		.byte	0xf
 8613 1311 C201     		.2byte	0x1c2
 8614 1313 25000000 		.4byte	0x25
 8615 1317 E401     		.2byte	0x1e4
 8616 1319 1F       		.uleb128 0x1f
 8617 131a 691F0000 		.4byte	.LASF363
 8618 131e 0F       		.byte	0xf
 8619 131f C501     		.2byte	0x1c5
 8620 1321 25000000 		.4byte	0x25
 8621 1325 E801     		.2byte	0x1e8
 8622 1327 1F       		.uleb128 0x1f
 8623 1328 4F1F0000 		.4byte	.LASF364
 8624 132c 0F       		.byte	0xf
 8625 132d C601     		.2byte	0x1c6
 8626 132f 25000000 		.4byte	0x25
 8627 1333 EC01     		.2byte	0x1ec
 8628 1335 1F       		.uleb128 0x1f
 8629 1336 461F0000 		.4byte	.LASF365
 8630 133a 0F       		.byte	0xf
 8631 133b C701     		.2byte	0x1c7
 8632 133d 25000000 		.4byte	0x25
 8633 1341 F001     		.2byte	0x1f0
 8634 1343 1F       		.uleb128 0x1f
 8635 1344 4A170000 		.4byte	.LASF366
 8636 1348 0F       		.byte	0xf
 8637 1349 C801     		.2byte	0x1c8
 8638 134b 25000000 		.4byte	0x25
 8639 134f F401     		.2byte	0x1f4
 8640 1351 1F       		.uleb128 0x1f
 8641 1352 8C270000 		.4byte	.LASF367
 8642 1356 0F       		.byte	0xf
 8643 1357 C901     		.2byte	0x1c9
 8644 1359 25000000 		.4byte	0x25
 8645 135d F801     		.2byte	0x1f8
 8646 135f 1F       		.uleb128 0x1f
 8647 1360 8A2C0000 		.4byte	.LASF368
 8648 1364 0F       		.byte	0xf
 8649 1365 CA01     		.2byte	0x1ca
 8650 1367 25000000 		.4byte	0x25
 8651 136b FC01     		.2byte	0x1fc
 8652 136d 1F       		.uleb128 0x1f
 8653 136e 59150000 		.4byte	.LASF369
 8654 1372 0F       		.byte	0xf
 8655 1373 CB01     		.2byte	0x1cb
 8656 1375 25000000 		.4byte	0x25
 8657 1379 0002     		.2byte	0x200
 8658 137b 1F       		.uleb128 0x1f
 8659 137c AE0C0000 		.4byte	.LASF370
 8660 1380 0F       		.byte	0xf
 8661 1381 CC01     		.2byte	0x1cc
 8662 1383 25000000 		.4byte	0x25
 8663 1387 0402     		.2byte	0x204
 8664 1389 1F       		.uleb128 0x1f
ARM GAS  /tmp/cc4M9ACW.s 			page 153


 8665 138a E0020000 		.4byte	.LASF371
 8666 138e 0F       		.byte	0xf
 8667 138f CF01     		.2byte	0x1cf
 8668 1391 25000000 		.4byte	0x25
 8669 1395 0802     		.2byte	0x208
 8670 1397 1F       		.uleb128 0x1f
 8671 1398 5A100000 		.4byte	.LASF372
 8672 139c 0F       		.byte	0xf
 8673 139d D001     		.2byte	0x1d0
 8674 139f 25000000 		.4byte	0x25
 8675 13a3 0C02     		.2byte	0x20c
 8676 13a5 1F       		.uleb128 0x1f
 8677 13a6 31160000 		.4byte	.LASF373
 8678 13aa 0F       		.byte	0xf
 8679 13ab D101     		.2byte	0x1d1
 8680 13ad 25000000 		.4byte	0x25
 8681 13b1 1002     		.2byte	0x210
 8682 13b3 1F       		.uleb128 0x1f
 8683 13b4 1D1F0000 		.4byte	.LASF374
 8684 13b8 0F       		.byte	0xf
 8685 13b9 D201     		.2byte	0x1d2
 8686 13bb 25000000 		.4byte	0x25
 8687 13bf 1402     		.2byte	0x214
 8688 13c1 1F       		.uleb128 0x1f
 8689 13c2 E9090000 		.4byte	.LASF375
 8690 13c6 0F       		.byte	0xf
 8691 13c7 D501     		.2byte	0x1d5
 8692 13c9 DA000000 		.4byte	0xda
 8693 13cd 1802     		.2byte	0x218
 8694 13cf 1F       		.uleb128 0x1f
 8695 13d0 772A0000 		.4byte	.LASF376
 8696 13d4 0F       		.byte	0xf
 8697 13d5 D601     		.2byte	0x1d6
 8698 13d7 25000000 		.4byte	0x25
 8699 13db 1C02     		.2byte	0x21c
 8700 13dd 1F       		.uleb128 0x1f
 8701 13de 80140000 		.4byte	.LASF377
 8702 13e2 0F       		.byte	0xf
 8703 13e3 D701     		.2byte	0x1d7
 8704 13e5 25000000 		.4byte	0x25
 8705 13e9 2002     		.2byte	0x220
 8706 13eb 1F       		.uleb128 0x1f
 8707 13ec CB2F0000 		.4byte	.LASF378
 8708 13f0 0F       		.byte	0xf
 8709 13f1 D801     		.2byte	0x1d8
 8710 13f3 EA000000 		.4byte	0xea
 8711 13f7 2402     		.2byte	0x224
 8712 13f9 1F       		.uleb128 0x1f
 8713 13fa 8E0B0000 		.4byte	.LASF379
 8714 13fe 0F       		.byte	0xf
 8715 13ff D901     		.2byte	0x1d9
 8716 1401 AE0A0000 		.4byte	0xaae
 8717 1405 2802     		.2byte	0x228
 8718 1407 1F       		.uleb128 0x1f
 8719 1408 97140000 		.4byte	.LASF380
 8720 140c 0F       		.byte	0xf
 8721 140d DA01     		.2byte	0x1da
ARM GAS  /tmp/cc4M9ACW.s 			page 154


 8722 140f 3C0C0000 		.4byte	0xc3c
 8723 1413 2902     		.2byte	0x229
 8724 1415 1F       		.uleb128 0x1f
 8725 1416 0E100000 		.4byte	.LASF381
 8726 141a 0F       		.byte	0xf
 8727 141b DB01     		.2byte	0x1db
 8728 141d DF0A0000 		.4byte	0xadf
 8729 1421 2A02     		.2byte	0x22a
 8730 1423 1F       		.uleb128 0x1f
 8731 1424 F4010000 		.4byte	.LASF382
 8732 1428 0F       		.byte	0xf
 8733 1429 DC01     		.2byte	0x1dc
 8734 142b A6000000 		.4byte	0xa6
 8735 142f 2C02     		.2byte	0x22c
 8736 1431 1F       		.uleb128 0x1f
 8737 1432 B9250000 		.4byte	.LASF383
 8738 1436 0F       		.byte	0xf
 8739 1437 DD01     		.2byte	0x1dd
 8740 1439 25000000 		.4byte	0x25
 8741 143d 3002     		.2byte	0x230
 8742 143f 1F       		.uleb128 0x1f
 8743 1440 CB1F0000 		.4byte	.LASF384
 8744 1444 0F       		.byte	0xf
 8745 1445 DE01     		.2byte	0x1de
 8746 1447 25000000 		.4byte	0x25
 8747 144b 3402     		.2byte	0x234
 8748 144d 1F       		.uleb128 0x1f
 8749 144e 16290000 		.4byte	.LASF385
 8750 1452 0F       		.byte	0xf
 8751 1453 DF01     		.2byte	0x1df
 8752 1455 25000000 		.4byte	0x25
 8753 1459 3802     		.2byte	0x238
 8754 145b 1F       		.uleb128 0x1f
 8755 145c 14080000 		.4byte	.LASF386
 8756 1460 0F       		.byte	0xf
 8757 1461 E001     		.2byte	0x1e0
 8758 1463 25000000 		.4byte	0x25
 8759 1467 3C02     		.2byte	0x23c
 8760 1469 1F       		.uleb128 0x1f
 8761 146a AB2F0000 		.4byte	.LASF387
 8762 146e 0F       		.byte	0xf
 8763 146f E101     		.2byte	0x1e1
 8764 1471 A1090000 		.4byte	0x9a1
 8765 1475 4002     		.2byte	0x240
 8766 1477 1F       		.uleb128 0x1f
 8767 1478 5D1D0000 		.4byte	.LASF388
 8768 147c 0F       		.byte	0xf
 8769 147d E201     		.2byte	0x1e2
 8770 147f E4090000 		.4byte	0x9e4
 8771 1483 4102     		.2byte	0x241
 8772 1485 1F       		.uleb128 0x1f
 8773 1486 DE0E0000 		.4byte	.LASF389
 8774 148a 0F       		.byte	0xf
 8775 148b E301     		.2byte	0x1e3
 8776 148d 25000000 		.4byte	0x25
 8777 1491 4402     		.2byte	0x244
 8778 1493 1F       		.uleb128 0x1f
ARM GAS  /tmp/cc4M9ACW.s 			page 155


 8779 1494 2C220000 		.4byte	.LASF390
 8780 1498 0F       		.byte	0xf
 8781 1499 E401     		.2byte	0x1e4
 8782 149b A6000000 		.4byte	0xa6
 8783 149f 4802     		.2byte	0x248
 8784 14a1 1F       		.uleb128 0x1f
 8785 14a2 5E110000 		.4byte	.LASF391
 8786 14a6 0F       		.byte	0xf
 8787 14a7 E501     		.2byte	0x1e5
 8788 14a9 25000000 		.4byte	0x25
 8789 14ad 4C02     		.2byte	0x24c
 8790 14af 1F       		.uleb128 0x1f
 8791 14b0 C61B0000 		.4byte	.LASF392
 8792 14b4 0F       		.byte	0xf
 8793 14b5 E601     		.2byte	0x1e6
 8794 14b7 25000000 		.4byte	0x25
 8795 14bb 5002     		.2byte	0x250
 8796 14bd 1F       		.uleb128 0x1f
 8797 14be 591E0000 		.4byte	.LASF393
 8798 14c2 0F       		.byte	0xf
 8799 14c3 E801     		.2byte	0x1e8
 8800 14c5 BF000000 		.4byte	0xbf
 8801 14c9 5402     		.2byte	0x254
 8802 14cb 1F       		.uleb128 0x1f
 8803 14cc B5030000 		.4byte	.LASF394
 8804 14d0 0F       		.byte	0xf
 8805 14d1 E901     		.2byte	0x1e9
 8806 14d3 25000000 		.4byte	0x25
 8807 14d7 5802     		.2byte	0x258
 8808 14d9 1F       		.uleb128 0x1f
 8809 14da BB0F0000 		.4byte	.LASF395
 8810 14de 0F       		.byte	0xf
 8811 14df EA01     		.2byte	0x1ea
 8812 14e1 25000000 		.4byte	0x25
 8813 14e5 5C02     		.2byte	0x25c
 8814 14e7 1F       		.uleb128 0x1f
 8815 14e8 9B220000 		.4byte	.LASF396
 8816 14ec 0F       		.byte	0xf
 8817 14ed EB01     		.2byte	0x1eb
 8818 14ef 590B0000 		.4byte	0xb59
 8819 14f3 6002     		.2byte	0x260
 8820 14f5 1F       		.uleb128 0x1f
 8821 14f6 3D210000 		.4byte	.LASF397
 8822 14fa 0F       		.byte	0xf
 8823 14fb EC01     		.2byte	0x1ec
 8824 14fd A6000000 		.4byte	0xa6
 8825 1501 6402     		.2byte	0x264
 8826 1503 1F       		.uleb128 0x1f
 8827 1504 AF040000 		.4byte	.LASF398
 8828 1508 0F       		.byte	0xf
 8829 1509 ED01     		.2byte	0x1ed
 8830 150b 25000000 		.4byte	0x25
 8831 150f 6802     		.2byte	0x268
 8832 1511 1F       		.uleb128 0x1f
 8833 1512 9A0C0000 		.4byte	.LASF399
 8834 1516 0F       		.byte	0xf
 8835 1517 EE01     		.2byte	0x1ee
ARM GAS  /tmp/cc4M9ACW.s 			page 156


 8836 1519 25000000 		.4byte	0x25
 8837 151d 6C02     		.2byte	0x26c
 8838 151f 20       		.uleb128 0x20
 8839 1520 626D7300 		.ascii	"bms\000"
 8840 1524 0F       		.byte	0xf
 8841 1525 F101     		.2byte	0x1f1
 8842 1527 300C0000 		.4byte	0xc30
 8843 152b 7002     		.2byte	0x270
 8844 152d 20       		.uleb128 0x20
 8845 152e 63726300 		.ascii	"crc\000"
 8846 1532 0F       		.byte	0xf
 8847 1533 F401     		.2byte	0x1f4
 8848 1535 CF000000 		.4byte	0xcf
 8849 1539 8802     		.2byte	0x288
 8850 153b 00       		.byte	0
 8851 153c 17       		.uleb128 0x17
 8852 153d B4000000 		.4byte	0xb4
 8853 1541 4C150000 		.4byte	0x154c
 8854 1545 18       		.uleb128 0x18
 8855 1546 AD000000 		.4byte	0xad
 8856 154a 07       		.byte	0x7
 8857 154b 00       		.byte	0
 8858 154c 17       		.uleb128 0x17
 8859 154d BF000000 		.4byte	0xbf
 8860 1551 5C150000 		.4byte	0x155c
 8861 1555 18       		.uleb128 0x18
 8862 1556 AD000000 		.4byte	0xad
 8863 155a 07       		.byte	0x7
 8864 155b 00       		.byte	0
 8865 155c 17       		.uleb128 0x17
 8866 155d 25000000 		.4byte	0x25
 8867 1561 6C150000 		.4byte	0x156c
 8868 1565 18       		.uleb128 0x18
 8869 1566 AD000000 		.4byte	0xad
 8870 156a 02       		.byte	0x2
 8871 156b 00       		.byte	0
 8872 156c 1C       		.uleb128 0x1c
 8873 156d 882A0000 		.4byte	.LASF400
 8874 1571 0F       		.byte	0xf
 8875 1572 F501     		.2byte	0x1f5
 8876 1574 C10C0000 		.4byte	0xcc1
 8877 1578 05       		.uleb128 0x5
 8878 1579 6C150000 		.4byte	0x156c
 8879 157d 1D       		.uleb128 0x1d
 8880 157e 07       		.byte	0x7
 8881 157f 01       		.byte	0x1
 8882 1580 49000000 		.4byte	0x49
 8883 1584 0F       		.byte	0xf
 8884 1585 F801     		.2byte	0x1f8
 8885 1587 D4150000 		.4byte	0x15d4
 8886 158b 1B       		.uleb128 0x1b
 8887 158c AD1F0000 		.4byte	.LASF401
 8888 1590 00       		.byte	0
 8889 1591 1B       		.uleb128 0x1b
 8890 1592 58120000 		.4byte	.LASF402
 8891 1596 01       		.byte	0x1
 8892 1597 1B       		.uleb128 0x1b
ARM GAS  /tmp/cc4M9ACW.s 			page 157


 8893 1598 41220000 		.4byte	.LASF403
 8894 159c 02       		.byte	0x2
 8895 159d 1B       		.uleb128 0x1b
 8896 159e E3230000 		.4byte	.LASF404
 8897 15a2 03       		.byte	0x3
 8898 15a3 1B       		.uleb128 0x1b
 8899 15a4 05210000 		.4byte	.LASF405
 8900 15a8 04       		.byte	0x4
 8901 15a9 1B       		.uleb128 0x1b
 8902 15aa 11240000 		.4byte	.LASF406
 8903 15ae 05       		.byte	0x5
 8904 15af 1B       		.uleb128 0x1b
 8905 15b0 F0110000 		.4byte	.LASF407
 8906 15b4 06       		.byte	0x6
 8907 15b5 1B       		.uleb128 0x1b
 8908 15b6 C5090000 		.4byte	.LASF408
 8909 15ba 07       		.byte	0x7
 8910 15bb 1B       		.uleb128 0x1b
 8911 15bc A9230000 		.4byte	.LASF409
 8912 15c0 08       		.byte	0x8
 8913 15c1 1B       		.uleb128 0x1b
 8914 15c2 66220000 		.4byte	.LASF410
 8915 15c6 09       		.byte	0x9
 8916 15c7 1B       		.uleb128 0x1b
 8917 15c8 E4050000 		.4byte	.LASF411
 8918 15cc 0A       		.byte	0xa
 8919 15cd 1B       		.uleb128 0x1b
 8920 15ce 49220000 		.4byte	.LASF412
 8921 15d2 0B       		.byte	0xb
 8922 15d3 00       		.byte	0
 8923 15d4 1C       		.uleb128 0x1c
 8924 15d5 E0060000 		.4byte	.LASF413
 8925 15d9 0F       		.byte	0xf
 8926 15da 0502     		.2byte	0x205
 8927 15dc 7D150000 		.4byte	0x157d
 8928 15e0 1D       		.uleb128 0x1d
 8929 15e1 07       		.byte	0x7
 8930 15e2 01       		.byte	0x1
 8931 15e3 49000000 		.4byte	0x49
 8932 15e7 0F       		.byte	0xf
 8933 15e8 0802     		.2byte	0x208
 8934 15ea 01160000 		.4byte	0x1601
 8935 15ee 1B       		.uleb128 0x1b
 8936 15ef B3180000 		.4byte	.LASF414
 8937 15f3 00       		.byte	0
 8938 15f4 1B       		.uleb128 0x1b
 8939 15f5 500B0000 		.4byte	.LASF415
 8940 15f9 01       		.byte	0x1
 8941 15fa 1B       		.uleb128 0x1b
 8942 15fb 96290000 		.4byte	.LASF416
 8943 15ff 02       		.byte	0x2
 8944 1600 00       		.byte	0
 8945 1601 1C       		.uleb128 0x1c
 8946 1602 681A0000 		.4byte	.LASF417
 8947 1606 0F       		.byte	0xf
 8948 1607 0C02     		.2byte	0x20c
 8949 1609 E0150000 		.4byte	0x15e0
ARM GAS  /tmp/cc4M9ACW.s 			page 158


 8950 160d 1D       		.uleb128 0x1d
 8951 160e 07       		.byte	0x7
 8952 160f 01       		.byte	0x1
 8953 1610 49000000 		.4byte	0x49
 8954 1614 0F       		.byte	0xf
 8955 1615 0E02     		.2byte	0x20e
 8956 1617 2E160000 		.4byte	0x162e
 8957 161b 1B       		.uleb128 0x1b
 8958 161c 60190000 		.4byte	.LASF418
 8959 1620 00       		.byte	0
 8960 1621 1B       		.uleb128 0x1b
 8961 1622 B5020000 		.4byte	.LASF419
 8962 1626 01       		.byte	0x1
 8963 1627 1B       		.uleb128 0x1b
 8964 1628 A91A0000 		.4byte	.LASF420
 8965 162c 02       		.byte	0x2
 8966 162d 00       		.byte	0
 8967 162e 1C       		.uleb128 0x1c
 8968 162f A10B0000 		.4byte	.LASF421
 8969 1633 0F       		.byte	0xf
 8970 1634 1202     		.2byte	0x212
 8971 1636 0D160000 		.4byte	0x160d
 8972 163a 1D       		.uleb128 0x1d
 8973 163b 07       		.byte	0x7
 8974 163c 01       		.byte	0x1
 8975 163d 49000000 		.4byte	0x49
 8976 1641 0F       		.byte	0xf
 8977 1642 1502     		.2byte	0x215
 8978 1644 85160000 		.4byte	0x1685
 8979 1648 1B       		.uleb128 0x1b
 8980 1649 5C000000 		.4byte	.LASF422
 8981 164d 00       		.byte	0
 8982 164e 1B       		.uleb128 0x1b
 8983 164f A6170000 		.4byte	.LASF423
 8984 1653 01       		.byte	0x1
 8985 1654 1B       		.uleb128 0x1b
 8986 1655 692D0000 		.4byte	.LASF424
 8987 1659 02       		.byte	0x2
 8988 165a 1B       		.uleb128 0x1b
 8989 165b 7E1C0000 		.4byte	.LASF425
 8990 165f 03       		.byte	0x3
 8991 1660 1B       		.uleb128 0x1b
 8992 1661 03290000 		.4byte	.LASF426
 8993 1665 04       		.byte	0x4
 8994 1666 1B       		.uleb128 0x1b
 8995 1667 8C260000 		.4byte	.LASF427
 8996 166b 05       		.byte	0x5
 8997 166c 1B       		.uleb128 0x1b
 8998 166d E11D0000 		.4byte	.LASF428
 8999 1671 06       		.byte	0x6
 9000 1672 1B       		.uleb128 0x1b
 9001 1673 5B090000 		.4byte	.LASF429
 9002 1677 07       		.byte	0x7
 9003 1678 1B       		.uleb128 0x1b
 9004 1679 472A0000 		.4byte	.LASF430
 9005 167d 08       		.byte	0x8
 9006 167e 1B       		.uleb128 0x1b
ARM GAS  /tmp/cc4M9ACW.s 			page 159


 9007 167f D2260000 		.4byte	.LASF431
 9008 1683 09       		.byte	0x9
 9009 1684 00       		.byte	0
 9010 1685 1C       		.uleb128 0x1c
 9011 1686 0D130000 		.4byte	.LASF432
 9012 168a 0F       		.byte	0xf
 9013 168b 2002     		.2byte	0x220
 9014 168d 3A160000 		.4byte	0x163a
 9015 1691 21       		.uleb128 0x21
 9016 1692 44       		.byte	0x44
 9017 1693 0F       		.byte	0xf
 9018 1694 2202     		.2byte	0x222
 9019 1696 91170000 		.4byte	0x1791
 9020 169a 0A       		.uleb128 0xa
 9021 169b 23000000 		.4byte	.LASF433
 9022 169f 0F       		.byte	0xf
 9023 16a0 2302     		.2byte	0x223
 9024 16a2 85160000 		.4byte	0x1685
 9025 16a6 00       		.byte	0
 9026 16a7 0A       		.uleb128 0xa
 9027 16a8 742B0000 		.4byte	.LASF434
 9028 16ac 0F       		.byte	0xf
 9029 16ad 2402     		.2byte	0x224
 9030 16af 25000000 		.4byte	0x25
 9031 16b3 04       		.byte	0x4
 9032 16b4 0A       		.uleb128 0xa
 9033 16b5 6F010000 		.4byte	.LASF435
 9034 16b9 0F       		.byte	0xf
 9035 16ba 2502     		.2byte	0x225
 9036 16bc 25000000 		.4byte	0x25
 9037 16c0 08       		.byte	0x8
 9038 16c1 0A       		.uleb128 0xa
 9039 16c2 362D0000 		.4byte	.LASF436
 9040 16c6 0F       		.byte	0xf
 9041 16c7 2602     		.2byte	0x226
 9042 16c9 25000000 		.4byte	0x25
 9043 16cd 0C       		.byte	0xc
 9044 16ce 0A       		.uleb128 0xa
 9045 16cf 69100000 		.4byte	.LASF437
 9046 16d3 0F       		.byte	0xf
 9047 16d4 2702     		.2byte	0x227
 9048 16d6 25000000 		.4byte	0x25
 9049 16da 10       		.byte	0x10
 9050 16db 0A       		.uleb128 0xa
 9051 16dc 07190000 		.4byte	.LASF438
 9052 16e0 0F       		.byte	0xf
 9053 16e1 2802     		.2byte	0x228
 9054 16e3 25000000 		.4byte	0x25
 9055 16e7 14       		.byte	0x14
 9056 16e8 0A       		.uleb128 0xa
 9057 16e9 600B0000 		.4byte	.LASF439
 9058 16ed 0F       		.byte	0xf
 9059 16ee 2902     		.2byte	0x229
 9060 16f0 3C0C0000 		.4byte	0xc3c
 9061 16f4 18       		.byte	0x18
 9062 16f5 0A       		.uleb128 0xa
 9063 16f6 72260000 		.4byte	.LASF440
ARM GAS  /tmp/cc4M9ACW.s 			page 160


 9064 16fa 0F       		.byte	0xf
 9065 16fb 2A02     		.2byte	0x22a
 9066 16fd 2E160000 		.4byte	0x162e
 9067 1701 19       		.byte	0x19
 9068 1702 0A       		.uleb128 0xa
 9069 1703 D41D0000 		.4byte	.LASF441
 9070 1707 0F       		.byte	0xf
 9071 1708 2B02     		.2byte	0x22b
 9072 170a 25000000 		.4byte	0x25
 9073 170e 1C       		.byte	0x1c
 9074 170f 0A       		.uleb128 0xa
 9075 1710 36230000 		.4byte	.LASF442
 9076 1714 0F       		.byte	0xf
 9077 1715 2C02     		.2byte	0x22c
 9078 1717 25000000 		.4byte	0x25
 9079 171b 20       		.byte	0x20
 9080 171c 0A       		.uleb128 0xa
 9081 171d 37080000 		.4byte	.LASF443
 9082 1721 0F       		.byte	0xf
 9083 1722 2D02     		.2byte	0x22d
 9084 1724 01160000 		.4byte	0x1601
 9085 1728 24       		.byte	0x24
 9086 1729 0A       		.uleb128 0xa
 9087 172a 92200000 		.4byte	.LASF444
 9088 172e 0F       		.byte	0xf
 9089 172f 2E02     		.2byte	0x22e
 9090 1731 25000000 		.4byte	0x25
 9091 1735 28       		.byte	0x28
 9092 1736 0A       		.uleb128 0xa
 9093 1737 8F0F0000 		.4byte	.LASF445
 9094 173b 0F       		.byte	0xf
 9095 173c 2F02     		.2byte	0x22f
 9096 173e 25000000 		.4byte	0x25
 9097 1742 2C       		.byte	0x2c
 9098 1743 0A       		.uleb128 0xa
 9099 1744 D82B0000 		.4byte	.LASF446
 9100 1748 0F       		.byte	0xf
 9101 1749 3002     		.2byte	0x230
 9102 174b 3C0C0000 		.4byte	0xc3c
 9103 174f 30       		.byte	0x30
 9104 1750 09       		.uleb128 0x9
 9105 1751 746300   		.ascii	"tc\000"
 9106 1754 0F       		.byte	0xf
 9107 1755 3102     		.2byte	0x231
 9108 1757 3C0C0000 		.4byte	0xc3c
 9109 175b 31       		.byte	0x31
 9110 175c 0A       		.uleb128 0xa
 9111 175d 8D070000 		.4byte	.LASF447
 9112 1761 0F       		.byte	0xf
 9113 1762 3202     		.2byte	0x232
 9114 1764 25000000 		.4byte	0x25
 9115 1768 34       		.byte	0x34
 9116 1769 0A       		.uleb128 0xa
 9117 176a 761B0000 		.4byte	.LASF448
 9118 176e 0F       		.byte	0xf
 9119 176f 3302     		.2byte	0x233
 9120 1771 25000000 		.4byte	0x25
ARM GAS  /tmp/cc4M9ACW.s 			page 161


 9121 1775 38       		.byte	0x38
 9122 1776 0A       		.uleb128 0xa
 9123 1777 D51A0000 		.4byte	.LASF449
 9124 177b 0F       		.byte	0xf
 9125 177c 3402     		.2byte	0x234
 9126 177e 25000000 		.4byte	0x25
 9127 1782 3C       		.byte	0x3c
 9128 1783 0A       		.uleb128 0xa
 9129 1784 0A170000 		.4byte	.LASF450
 9130 1788 0F       		.byte	0xf
 9131 1789 3502     		.2byte	0x235
 9132 178b 25000000 		.4byte	0x25
 9133 178f 40       		.byte	0x40
 9134 1790 00       		.byte	0
 9135 1791 1C       		.uleb128 0x1c
 9136 1792 4B090000 		.4byte	.LASF451
 9137 1796 0F       		.byte	0xf
 9138 1797 3602     		.2byte	0x236
 9139 1799 91160000 		.4byte	0x1691
 9140 179d 1D       		.uleb128 0x1d
 9141 179e 07       		.byte	0x7
 9142 179f 01       		.byte	0x1
 9143 17a0 49000000 		.4byte	0x49
 9144 17a4 0F       		.byte	0xf
 9145 17a5 3902     		.2byte	0x239
 9146 17a7 06180000 		.4byte	0x1806
 9147 17ab 1B       		.uleb128 0x1b
 9148 17ac 87250000 		.4byte	.LASF452
 9149 17b0 00       		.byte	0
 9150 17b1 1B       		.uleb128 0x1b
 9151 17b2 1D2B0000 		.4byte	.LASF453
 9152 17b6 01       		.byte	0x1
 9153 17b7 1B       		.uleb128 0x1b
 9154 17b8 EB100000 		.4byte	.LASF454
 9155 17bc 02       		.byte	0x2
 9156 17bd 1B       		.uleb128 0x1b
 9157 17be 010F0000 		.4byte	.LASF455
 9158 17c2 03       		.byte	0x3
 9159 17c3 1B       		.uleb128 0x1b
 9160 17c4 AB100000 		.4byte	.LASF456
 9161 17c8 04       		.byte	0x4
 9162 17c9 1B       		.uleb128 0x1b
 9163 17ca 7D120000 		.4byte	.LASF457
 9164 17ce 05       		.byte	0x5
 9165 17cf 1B       		.uleb128 0x1b
 9166 17d0 AD150000 		.4byte	.LASF458
 9167 17d4 06       		.byte	0x6
 9168 17d5 1B       		.uleb128 0x1b
 9169 17d6 72220000 		.4byte	.LASF459
 9170 17da 07       		.byte	0x7
 9171 17db 1B       		.uleb128 0x1b
 9172 17dc 452E0000 		.4byte	.LASF460
 9173 17e0 08       		.byte	0x8
 9174 17e1 1B       		.uleb128 0x1b
 9175 17e2 F81E0000 		.4byte	.LASF461
 9176 17e6 09       		.byte	0x9
 9177 17e7 1B       		.uleb128 0x1b
ARM GAS  /tmp/cc4M9ACW.s 			page 162


 9178 17e8 EF120000 		.4byte	.LASF462
 9179 17ec 0A       		.byte	0xa
 9180 17ed 1B       		.uleb128 0x1b
 9181 17ee 6F160000 		.4byte	.LASF463
 9182 17f2 0B       		.byte	0xb
 9183 17f3 1B       		.uleb128 0x1b
 9184 17f4 A12B0000 		.4byte	.LASF464
 9185 17f8 0C       		.byte	0xc
 9186 17f9 1B       		.uleb128 0x1b
 9187 17fa 79290000 		.4byte	.LASF465
 9188 17fe 0D       		.byte	0xd
 9189 17ff 1B       		.uleb128 0x1b
 9190 1800 23190000 		.4byte	.LASF466
 9191 1804 0E       		.byte	0xe
 9192 1805 00       		.byte	0
 9193 1806 1C       		.uleb128 0x1c
 9194 1807 BD220000 		.4byte	.LASF467
 9195 180b 0F       		.byte	0xf
 9196 180c 4902     		.2byte	0x249
 9197 180e 9D170000 		.4byte	0x179d
 9198 1812 1D       		.uleb128 0x1d
 9199 1813 07       		.byte	0x7
 9200 1814 01       		.byte	0x1
 9201 1815 49000000 		.4byte	0x49
 9202 1819 0F       		.byte	0xf
 9203 181a 4C02     		.2byte	0x24c
 9204 181c 39180000 		.4byte	0x1839
 9205 1820 1B       		.uleb128 0x1b
 9206 1821 402F0000 		.4byte	.LASF468
 9207 1825 00       		.byte	0
 9208 1826 1B       		.uleb128 0x1b
 9209 1827 650C0000 		.4byte	.LASF469
 9210 182b 01       		.byte	0x1
 9211 182c 1B       		.uleb128 0x1b
 9212 182d 6F000000 		.4byte	.LASF470
 9213 1831 02       		.byte	0x2
 9214 1832 1B       		.uleb128 0x1b
 9215 1833 B9070000 		.4byte	.LASF471
 9216 1837 03       		.byte	0x3
 9217 1838 00       		.byte	0
 9218 1839 1C       		.uleb128 0x1c
 9219 183a A3290000 		.4byte	.LASF472
 9220 183e 0F       		.byte	0xf
 9221 183f 5102     		.2byte	0x251
 9222 1841 12180000 		.4byte	0x1812
 9223 1845 1D       		.uleb128 0x1d
 9224 1846 07       		.byte	0x7
 9225 1847 01       		.byte	0x1
 9226 1848 49000000 		.4byte	0x49
 9227 184c 0F       		.byte	0xf
 9228 184d 5402     		.2byte	0x254
 9229 184f 5A180000 		.4byte	0x185a
 9230 1853 1B       		.uleb128 0x1b
 9231 1854 95050000 		.4byte	.LASF473
 9232 1858 00       		.byte	0
 9233 1859 00       		.byte	0
 9234 185a 1C       		.uleb128 0x1c
ARM GAS  /tmp/cc4M9ACW.s 			page 163


 9235 185b D9270000 		.4byte	.LASF474
 9236 185f 0F       		.byte	0xf
 9237 1860 5602     		.2byte	0x256
 9238 1862 45180000 		.4byte	0x1845
 9239 1866 21       		.uleb128 0x21
 9240 1867 44       		.byte	0x44
 9241 1868 0F       		.byte	0xf
 9242 1869 5802     		.2byte	0x258
 9243 186b 8D190000 		.4byte	0x198d
 9244 186f 0A       		.uleb128 0xa
 9245 1870 23000000 		.4byte	.LASF433
 9246 1874 0F       		.byte	0xf
 9247 1875 5902     		.2byte	0x259
 9248 1877 06180000 		.4byte	0x1806
 9249 187b 00       		.byte	0
 9250 187c 0A       		.uleb128 0xa
 9251 187d 6F010000 		.4byte	.LASF435
 9252 1881 0F       		.byte	0xf
 9253 1882 5A02     		.2byte	0x25a
 9254 1884 25000000 		.4byte	0x25
 9255 1888 04       		.byte	0x4
 9256 1889 0A       		.uleb128 0xa
 9257 188a 73090000 		.4byte	.LASF475
 9258 188e 0F       		.byte	0xf
 9259 188f 5B02     		.2byte	0x25b
 9260 1891 25000000 		.4byte	0x25
 9261 1895 08       		.byte	0x8
 9262 1896 0A       		.uleb128 0xa
 9263 1897 0B200000 		.4byte	.LASF476
 9264 189b 0F       		.byte	0xf
 9265 189c 5C02     		.2byte	0x25c
 9266 189e 25000000 		.4byte	0x25
 9267 18a2 0C       		.byte	0xc
 9268 18a3 0A       		.uleb128 0xa
 9269 18a4 7D260000 		.4byte	.LASF477
 9270 18a8 0F       		.byte	0xf
 9271 18a9 5D02     		.2byte	0x25d
 9272 18ab 25000000 		.4byte	0x25
 9273 18af 10       		.byte	0x10
 9274 18b0 0A       		.uleb128 0xa
 9275 18b1 C4080000 		.4byte	.LASF478
 9276 18b5 0F       		.byte	0xf
 9277 18b6 5E02     		.2byte	0x25e
 9278 18b8 25000000 		.4byte	0x25
 9279 18bc 14       		.byte	0x14
 9280 18bd 0A       		.uleb128 0xa
 9281 18be EB1E0000 		.4byte	.LASF479
 9282 18c2 0F       		.byte	0xf
 9283 18c3 5F02     		.2byte	0x25f
 9284 18c5 25000000 		.4byte	0x25
 9285 18c9 18       		.byte	0x18
 9286 18ca 0A       		.uleb128 0xa
 9287 18cb 6C2A0000 		.4byte	.LASF480
 9288 18cf 0F       		.byte	0xf
 9289 18d0 6002     		.2byte	0x260
 9290 18d2 3C0C0000 		.4byte	0xc3c
 9291 18d6 1C       		.byte	0x1c
ARM GAS  /tmp/cc4M9ACW.s 			page 164


 9292 18d7 0A       		.uleb128 0xa
 9293 18d8 72260000 		.4byte	.LASF440
 9294 18dc 0F       		.byte	0xf
 9295 18dd 6102     		.2byte	0x261
 9296 18df 2E160000 		.4byte	0x162e
 9297 18e3 1D       		.byte	0x1d
 9298 18e4 0A       		.uleb128 0xa
 9299 18e5 C2010000 		.4byte	.LASF481
 9300 18e9 0F       		.byte	0xf
 9301 18ea 6202     		.2byte	0x262
 9302 18ec 3C0C0000 		.4byte	0xc3c
 9303 18f0 1E       		.byte	0x1e
 9304 18f1 0A       		.uleb128 0xa
 9305 18f2 5F240000 		.4byte	.LASF482
 9306 18f6 0F       		.byte	0xf
 9307 18f7 6302     		.2byte	0x263
 9308 18f9 3C0C0000 		.4byte	0xc3c
 9309 18fd 1F       		.byte	0x1f
 9310 18fe 0A       		.uleb128 0xa
 9311 18ff 13020000 		.4byte	.LASF483
 9312 1903 0F       		.byte	0xf
 9313 1904 6402     		.2byte	0x264
 9314 1906 3C0C0000 		.4byte	0xc3c
 9315 190a 20       		.byte	0x20
 9316 190b 0A       		.uleb128 0xa
 9317 190c B10B0000 		.4byte	.LASF484
 9318 1910 0F       		.byte	0xf
 9319 1911 6502     		.2byte	0x265
 9320 1913 3C0C0000 		.4byte	0xc3c
 9321 1917 21       		.byte	0x21
 9322 1918 0A       		.uleb128 0xa
 9323 1919 D41D0000 		.4byte	.LASF441
 9324 191d 0F       		.byte	0xf
 9325 191e 6602     		.2byte	0x266
 9326 1920 25000000 		.4byte	0x25
 9327 1924 24       		.byte	0x24
 9328 1925 0A       		.uleb128 0xa
 9329 1926 36230000 		.4byte	.LASF442
 9330 192a 0F       		.byte	0xf
 9331 192b 6702     		.2byte	0x267
 9332 192d 25000000 		.4byte	0x25
 9333 1931 28       		.byte	0x28
 9334 1932 0A       		.uleb128 0xa
 9335 1933 37080000 		.4byte	.LASF443
 9336 1937 0F       		.byte	0xf
 9337 1938 6802     		.2byte	0x268
 9338 193a 01160000 		.4byte	0x1601
 9339 193e 2C       		.byte	0x2c
 9340 193f 0A       		.uleb128 0xa
 9341 1940 92200000 		.4byte	.LASF444
 9342 1944 0F       		.byte	0xf
 9343 1945 6902     		.2byte	0x269
 9344 1947 25000000 		.4byte	0x25
 9345 194b 30       		.byte	0x30
 9346 194c 0A       		.uleb128 0xa
 9347 194d 8F0F0000 		.4byte	.LASF445
 9348 1951 0F       		.byte	0xf
ARM GAS  /tmp/cc4M9ACW.s 			page 165


 9349 1952 6A02     		.2byte	0x26a
 9350 1954 25000000 		.4byte	0x25
 9351 1958 34       		.byte	0x34
 9352 1959 0A       		.uleb128 0xa
 9353 195a D82B0000 		.4byte	.LASF446
 9354 195e 0F       		.byte	0xf
 9355 195f 6B02     		.2byte	0x26b
 9356 1961 3C0C0000 		.4byte	0xc3c
 9357 1965 38       		.byte	0x38
 9358 1966 09       		.uleb128 0x9
 9359 1967 746300   		.ascii	"tc\000"
 9360 196a 0F       		.byte	0xf
 9361 196b 6C02     		.2byte	0x26c
 9362 196d 3C0C0000 		.4byte	0xc3c
 9363 1971 39       		.byte	0x39
 9364 1972 0A       		.uleb128 0xa
 9365 1973 8D070000 		.4byte	.LASF447
 9366 1977 0F       		.byte	0xf
 9367 1978 6D02     		.2byte	0x26d
 9368 197a 25000000 		.4byte	0x25
 9369 197e 3C       		.byte	0x3c
 9370 197f 0A       		.uleb128 0xa
 9371 1980 D00B0000 		.4byte	.LASF485
 9372 1984 0F       		.byte	0xf
 9373 1985 6E02     		.2byte	0x26e
 9374 1987 EA000000 		.4byte	0xea
 9375 198b 40       		.byte	0x40
 9376 198c 00       		.byte	0
 9377 198d 1C       		.uleb128 0x1c
 9378 198e D8090000 		.4byte	.LASF486
 9379 1992 0F       		.byte	0xf
 9380 1993 6F02     		.2byte	0x26f
 9381 1995 66180000 		.4byte	0x1866
 9382 1999 1D       		.uleb128 0x1d
 9383 199a 07       		.byte	0x7
 9384 199b 01       		.byte	0x1
 9385 199c 49000000 		.4byte	0x49
 9386 19a0 0F       		.byte	0xf
 9387 19a1 7202     		.2byte	0x272
 9388 19a3 C0190000 		.4byte	0x19c0
 9389 19a7 1B       		.uleb128 0x1b
 9390 19a8 CE1C0000 		.4byte	.LASF487
 9391 19ac 00       		.byte	0
 9392 19ad 1B       		.uleb128 0x1b
 9393 19ae 00000000 		.4byte	.LASF488
 9394 19b2 01       		.byte	0x1
 9395 19b3 1B       		.uleb128 0x1b
 9396 19b4 B11C0000 		.4byte	.LASF489
 9397 19b8 02       		.byte	0x2
 9398 19b9 1B       		.uleb128 0x1b
 9399 19ba D61B0000 		.4byte	.LASF490
 9400 19be 03       		.byte	0x3
 9401 19bf 00       		.byte	0
 9402 19c0 1C       		.uleb128 0x1c
 9403 19c1 331D0000 		.4byte	.LASF491
 9404 19c5 0F       		.byte	0xf
 9405 19c6 7702     		.2byte	0x277
ARM GAS  /tmp/cc4M9ACW.s 			page 166


 9406 19c8 99190000 		.4byte	0x1999
 9407 19cc 21       		.uleb128 0x21
 9408 19cd 30       		.byte	0x30
 9409 19ce 0F       		.byte	0xf
 9410 19cf 7902     		.2byte	0x279
 9411 19d1 8B1A0000 		.4byte	0x1a8b
 9412 19d5 0A       		.uleb128 0xa
 9413 19d6 23000000 		.4byte	.LASF433
 9414 19da 0F       		.byte	0xf
 9415 19db 7A02     		.2byte	0x27a
 9416 19dd C0190000 		.4byte	0x19c0
 9417 19e1 00       		.byte	0
 9418 19e2 0A       		.uleb128 0xa
 9419 19e3 6F010000 		.4byte	.LASF435
 9420 19e7 0F       		.byte	0xf
 9421 19e8 7B02     		.2byte	0x27b
 9422 19ea 25000000 		.4byte	0x25
 9423 19ee 04       		.byte	0x4
 9424 19ef 0A       		.uleb128 0xa
 9425 19f0 92200000 		.4byte	.LASF444
 9426 19f4 0F       		.byte	0xf
 9427 19f5 7C02     		.2byte	0x27c
 9428 19f7 25000000 		.4byte	0x25
 9429 19fb 08       		.byte	0x8
 9430 19fc 0A       		.uleb128 0xa
 9431 19fd 8F0F0000 		.4byte	.LASF445
 9432 1a01 0F       		.byte	0xf
 9433 1a02 7D02     		.2byte	0x27d
 9434 1a04 25000000 		.4byte	0x25
 9435 1a08 0C       		.byte	0xc
 9436 1a09 0A       		.uleb128 0xa
 9437 1a0a 2E0C0000 		.4byte	.LASF492
 9438 1a0e 0F       		.byte	0xf
 9439 1a0f 7E02     		.2byte	0x27e
 9440 1a11 25000000 		.4byte	0x25
 9441 1a15 10       		.byte	0x10
 9442 1a16 0A       		.uleb128 0xa
 9443 1a17 D41D0000 		.4byte	.LASF441
 9444 1a1b 0F       		.byte	0xf
 9445 1a1c 7F02     		.2byte	0x27f
 9446 1a1e 25000000 		.4byte	0x25
 9447 1a22 14       		.byte	0x14
 9448 1a23 0A       		.uleb128 0xa
 9449 1a24 36230000 		.4byte	.LASF442
 9450 1a28 0F       		.byte	0xf
 9451 1a29 8002     		.2byte	0x280
 9452 1a2b 25000000 		.4byte	0x25
 9453 1a2f 18       		.byte	0x18
 9454 1a30 0A       		.uleb128 0xa
 9455 1a31 37080000 		.4byte	.LASF443
 9456 1a35 0F       		.byte	0xf
 9457 1a36 8102     		.2byte	0x281
 9458 1a38 01160000 		.4byte	0x1601
 9459 1a3c 1C       		.byte	0x1c
 9460 1a3d 0A       		.uleb128 0xa
 9461 1a3e D82B0000 		.4byte	.LASF446
 9462 1a42 0F       		.byte	0xf
ARM GAS  /tmp/cc4M9ACW.s 			page 167


 9463 1a43 8202     		.2byte	0x282
 9464 1a45 3C0C0000 		.4byte	0xc3c
 9465 1a49 1D       		.byte	0x1d
 9466 1a4a 09       		.uleb128 0x9
 9467 1a4b 746300   		.ascii	"tc\000"
 9468 1a4e 0F       		.byte	0xf
 9469 1a4f 8302     		.2byte	0x283
 9470 1a51 3C0C0000 		.4byte	0xc3c
 9471 1a55 1E       		.byte	0x1e
 9472 1a56 0A       		.uleb128 0xa
 9473 1a57 8D070000 		.4byte	.LASF447
 9474 1a5b 0F       		.byte	0xf
 9475 1a5c 8402     		.2byte	0x284
 9476 1a5e 25000000 		.4byte	0x25
 9477 1a62 20       		.byte	0x20
 9478 1a63 0A       		.uleb128 0xa
 9479 1a64 0A180000 		.4byte	.LASF493
 9480 1a68 0F       		.byte	0xf
 9481 1a69 8502     		.2byte	0x285
 9482 1a6b 3C0C0000 		.4byte	0xc3c
 9483 1a6f 24       		.byte	0x24
 9484 1a70 0A       		.uleb128 0xa
 9485 1a71 D51A0000 		.4byte	.LASF449
 9486 1a75 0F       		.byte	0xf
 9487 1a76 8602     		.2byte	0x286
 9488 1a78 25000000 		.4byte	0x25
 9489 1a7c 28       		.byte	0x28
 9490 1a7d 0A       		.uleb128 0xa
 9491 1a7e 0A170000 		.4byte	.LASF450
 9492 1a82 0F       		.byte	0xf
 9493 1a83 8702     		.2byte	0x287
 9494 1a85 25000000 		.4byte	0x25
 9495 1a89 2C       		.byte	0x2c
 9496 1a8a 00       		.byte	0
 9497 1a8b 1C       		.uleb128 0x1c
 9498 1a8c 7B250000 		.4byte	.LASF494
 9499 1a90 0F       		.byte	0xf
 9500 1a91 8802     		.2byte	0x288
 9501 1a93 CC190000 		.4byte	0x19cc
 9502 1a97 21       		.uleb128 0x21
 9503 1a98 20       		.byte	0x20
 9504 1a99 0F       		.byte	0xf
 9505 1a9a 8A02     		.2byte	0x28a
 9506 1a9c 301B0000 		.4byte	0x1b30
 9507 1aa0 0A       		.uleb128 0xa
 9508 1aa1 23000000 		.4byte	.LASF433
 9509 1aa5 0F       		.byte	0xf
 9510 1aa6 8B02     		.2byte	0x28b
 9511 1aa8 39180000 		.4byte	0x1839
 9512 1aac 00       		.byte	0
 9513 1aad 0A       		.uleb128 0xa
 9514 1aae 220F0000 		.4byte	.LASF495
 9515 1ab2 0F       		.byte	0xf
 9516 1ab3 8C02     		.2byte	0x28c
 9517 1ab5 5A180000 		.4byte	0x185a
 9518 1ab9 01       		.byte	0x1
 9519 1aba 0A       		.uleb128 0xa
ARM GAS  /tmp/cc4M9ACW.s 			page 168


 9520 1abb 98240000 		.4byte	.LASF496
 9521 1abf 0F       		.byte	0xf
 9522 1ac0 8D02     		.2byte	0x28d
 9523 1ac2 25000000 		.4byte	0x25
 9524 1ac6 04       		.byte	0x4
 9525 1ac7 0A       		.uleb128 0xa
 9526 1ac8 33260000 		.4byte	.LASF497
 9527 1acc 0F       		.byte	0xf
 9528 1acd 8E02     		.2byte	0x28e
 9529 1acf 25000000 		.4byte	0x25
 9530 1ad3 08       		.byte	0x8
 9531 1ad4 0A       		.uleb128 0xa
 9532 1ad5 81090000 		.4byte	.LASF498
 9533 1ad9 0F       		.byte	0xf
 9534 1ada 8F02     		.2byte	0x28f
 9535 1adc 25000000 		.4byte	0x25
 9536 1ae0 0C       		.byte	0xc
 9537 1ae1 0A       		.uleb128 0xa
 9538 1ae2 2E130000 		.4byte	.LASF499
 9539 1ae6 0F       		.byte	0xf
 9540 1ae7 9002     		.2byte	0x290
 9541 1ae9 3C0C0000 		.4byte	0xc3c
 9542 1aed 10       		.byte	0x10
 9543 1aee 0A       		.uleb128 0xa
 9544 1aef 69020000 		.4byte	.LASF500
 9545 1af3 0F       		.byte	0xf
 9546 1af4 9102     		.2byte	0x291
 9547 1af6 BF000000 		.4byte	0xbf
 9548 1afa 11       		.byte	0x11
 9549 1afb 0A       		.uleb128 0xa
 9550 1afc 6C2A0000 		.4byte	.LASF480
 9551 1b00 0F       		.byte	0xf
 9552 1b01 9202     		.2byte	0x292
 9553 1b03 3C0C0000 		.4byte	0xc3c
 9554 1b07 12       		.byte	0x12
 9555 1b08 0A       		.uleb128 0xa
 9556 1b09 92200000 		.4byte	.LASF444
 9557 1b0d 0F       		.byte	0xf
 9558 1b0e 9302     		.2byte	0x293
 9559 1b10 25000000 		.4byte	0x25
 9560 1b14 14       		.byte	0x14
 9561 1b15 0A       		.uleb128 0xa
 9562 1b16 8F0F0000 		.4byte	.LASF445
 9563 1b1a 0F       		.byte	0xf
 9564 1b1b 9402     		.2byte	0x294
 9565 1b1d 25000000 		.4byte	0x25
 9566 1b21 18       		.byte	0x18
 9567 1b22 0A       		.uleb128 0xa
 9568 1b23 D00B0000 		.4byte	.LASF485
 9569 1b27 0F       		.byte	0xf
 9570 1b28 9502     		.2byte	0x295
 9571 1b2a EA000000 		.4byte	0xea
 9572 1b2e 1C       		.byte	0x1c
 9573 1b2f 00       		.byte	0
 9574 1b30 1C       		.uleb128 0x1c
 9575 1b31 DA0C0000 		.4byte	.LASF501
 9576 1b35 0F       		.byte	0xf
ARM GAS  /tmp/cc4M9ACW.s 			page 169


 9577 1b36 9602     		.2byte	0x296
 9578 1b38 971A0000 		.4byte	0x1a97
 9579 1b3c 1D       		.uleb128 0x1d
 9580 1b3d 07       		.byte	0x7
 9581 1b3e 01       		.byte	0x1
 9582 1b3f 49000000 		.4byte	0x49
 9583 1b43 0F       		.byte	0xf
 9584 1b44 9902     		.2byte	0x299
 9585 1b46 5D1B0000 		.4byte	0x1b5d
 9586 1b4a 1B       		.uleb128 0x1b
 9587 1b4b 431C0000 		.4byte	.LASF502
 9588 1b4f 00       		.byte	0
 9589 1b50 1B       		.uleb128 0x1b
 9590 1b51 58230000 		.4byte	.LASF503
 9591 1b55 01       		.byte	0x1
 9592 1b56 1B       		.uleb128 0x1b
 9593 1b57 BD230000 		.4byte	.LASF504
 9594 1b5b 02       		.byte	0x2
 9595 1b5c 00       		.byte	0
 9596 1b5d 1C       		.uleb128 0x1c
 9597 1b5e 850F0000 		.4byte	.LASF505
 9598 1b62 0F       		.byte	0xf
 9599 1b63 9D02     		.2byte	0x29d
 9600 1b65 3C1B0000 		.4byte	0x1b3c
 9601 1b69 1D       		.uleb128 0x1d
 9602 1b6a 07       		.byte	0x7
 9603 1b6b 01       		.byte	0x1
 9604 1b6c 49000000 		.4byte	0x49
 9605 1b70 0F       		.byte	0xf
 9606 1b71 9F02     		.2byte	0x29f
 9607 1b73 961B0000 		.4byte	0x1b96
 9608 1b77 1B       		.uleb128 0x1b
 9609 1b78 58020000 		.4byte	.LASF506
 9610 1b7c 00       		.byte	0
 9611 1b7d 1B       		.uleb128 0x1b
 9612 1b7e A8070000 		.4byte	.LASF507
 9613 1b82 01       		.byte	0x1
 9614 1b83 1B       		.uleb128 0x1b
 9615 1b84 200B0000 		.4byte	.LASF508
 9616 1b88 02       		.byte	0x2
 9617 1b89 1B       		.uleb128 0x1b
 9618 1b8a 12040000 		.4byte	.LASF509
 9619 1b8e 03       		.byte	0x3
 9620 1b8f 1B       		.uleb128 0x1b
 9621 1b90 70210000 		.4byte	.LASF510
 9622 1b94 04       		.byte	0x4
 9623 1b95 00       		.byte	0
 9624 1b96 1C       		.uleb128 0x1c
 9625 1b97 B71E0000 		.4byte	.LASF511
 9626 1b9b 0F       		.byte	0xf
 9627 1b9c A502     		.2byte	0x2a5
 9628 1b9e 691B0000 		.4byte	0x1b69
 9629 1ba2 1D       		.uleb128 0x1d
 9630 1ba3 07       		.byte	0x7
 9631 1ba4 01       		.byte	0x1
 9632 1ba5 49000000 		.4byte	0x49
 9633 1ba9 0F       		.byte	0xf
ARM GAS  /tmp/cc4M9ACW.s 			page 170


 9634 1baa AD02     		.2byte	0x2ad
 9635 1bac C31B0000 		.4byte	0x1bc3
 9636 1bb0 1B       		.uleb128 0x1b
 9637 1bb1 581F0000 		.4byte	.LASF512
 9638 1bb5 00       		.byte	0
 9639 1bb6 1B       		.uleb128 0x1b
 9640 1bb7 3E2B0000 		.4byte	.LASF513
 9641 1bbb 01       		.byte	0x1
 9642 1bbc 1B       		.uleb128 0x1b
 9643 1bbd E22B0000 		.4byte	.LASF514
 9644 1bc1 02       		.byte	0x2
 9645 1bc2 00       		.byte	0
 9646 1bc3 1C       		.uleb128 0x1c
 9647 1bc4 96080000 		.4byte	.LASF515
 9648 1bc8 0F       		.byte	0xf
 9649 1bc9 B102     		.2byte	0x2b1
 9650 1bcb A21B0000 		.4byte	0x1ba2
 9651 1bcf 1D       		.uleb128 0x1d
 9652 1bd0 07       		.byte	0x7
 9653 1bd1 01       		.byte	0x1
 9654 1bd2 49000000 		.4byte	0x49
 9655 1bd6 0F       		.byte	0xf
 9656 1bd7 B302     		.2byte	0x2b3
 9657 1bd9 3E1C0000 		.4byte	0x1c3e
 9658 1bdd 1B       		.uleb128 0x1b
 9659 1bde 091B0000 		.4byte	.LASF516
 9660 1be2 00       		.byte	0
 9661 1be3 1B       		.uleb128 0x1b
 9662 1be4 C3030000 		.4byte	.LASF517
 9663 1be8 01       		.byte	0x1
 9664 1be9 1B       		.uleb128 0x1b
 9665 1bea F9000000 		.4byte	.LASF518
 9666 1bee 02       		.byte	0x2
 9667 1bef 1B       		.uleb128 0x1b
 9668 1bf0 FB290000 		.4byte	.LASF519
 9669 1bf4 03       		.byte	0x3
 9670 1bf5 1B       		.uleb128 0x1b
 9671 1bf6 ED2B0000 		.4byte	.LASF520
 9672 1bfa 04       		.byte	0x4
 9673 1bfb 1B       		.uleb128 0x1b
 9674 1bfc 40160000 		.4byte	.LASF521
 9675 1c00 05       		.byte	0x5
 9676 1c01 1B       		.uleb128 0x1b
 9677 1c02 90170000 		.4byte	.LASF522
 9678 1c06 06       		.byte	0x6
 9679 1c07 1B       		.uleb128 0x1b
 9680 1c08 4C290000 		.4byte	.LASF523
 9681 1c0c 07       		.byte	0x7
 9682 1c0d 1B       		.uleb128 0x1b
 9683 1c0e 5E2B0000 		.4byte	.LASF524
 9684 1c12 08       		.byte	0x8
 9685 1c13 1B       		.uleb128 0x1b
 9686 1c14 44100000 		.4byte	.LASF525
 9687 1c18 09       		.byte	0x9
 9688 1c19 1B       		.uleb128 0x1b
 9689 1c1a 1E170000 		.4byte	.LASF526
 9690 1c1e 0A       		.byte	0xa
ARM GAS  /tmp/cc4M9ACW.s 			page 171


 9691 1c1f 1B       		.uleb128 0x1b
 9692 1c20 77280000 		.4byte	.LASF527
 9693 1c24 0B       		.byte	0xb
 9694 1c25 1B       		.uleb128 0x1b
 9695 1c26 A72A0000 		.4byte	.LASF528
 9696 1c2a 0C       		.byte	0xc
 9697 1c2b 1B       		.uleb128 0x1b
 9698 1c2c F9140000 		.4byte	.LASF529
 9699 1c30 0D       		.byte	0xd
 9700 1c31 1B       		.uleb128 0x1b
 9701 1c32 D2200000 		.4byte	.LASF530
 9702 1c36 0E       		.byte	0xe
 9703 1c37 1B       		.uleb128 0x1b
 9704 1c38 840C0000 		.4byte	.LASF531
 9705 1c3c 0F       		.byte	0xf
 9706 1c3d 00       		.byte	0
 9707 1c3e 1C       		.uleb128 0x1c
 9708 1c3f 69050000 		.4byte	.LASF532
 9709 1c43 0F       		.byte	0xf
 9710 1c44 C402     		.2byte	0x2c4
 9711 1c46 CF1B0000 		.4byte	0x1bcf
 9712 1c4a 21       		.uleb128 0x21
 9713 1c4b 0A       		.byte	0xa
 9714 1c4c 0F       		.byte	0xf
 9715 1c4d C602     		.2byte	0x2c6
 9716 1c4f BC1C0000 		.4byte	0x1cbc
 9717 1c53 0A       		.uleb128 0xa
 9718 1c54 22250000 		.4byte	.LASF533
 9719 1c58 0F       		.byte	0xf
 9720 1c59 C702     		.2byte	0x2c7
 9721 1c5b 5D1B0000 		.4byte	0x1b5d
 9722 1c5f 00       		.byte	0
 9723 1c60 0A       		.uleb128 0xa
 9724 1c61 801F0000 		.4byte	.LASF534
 9725 1c65 0F       		.byte	0xf
 9726 1c66 C802     		.2byte	0x2c8
 9727 1c68 961B0000 		.4byte	0x1b96
 9728 1c6c 01       		.byte	0x1
 9729 1c6d 0A       		.uleb128 0xa
 9730 1c6e 081D0000 		.4byte	.LASF535
 9731 1c72 0F       		.byte	0xf
 9732 1c73 C902     		.2byte	0x2c9
 9733 1c75 C31B0000 		.4byte	0x1bc3
 9734 1c79 02       		.byte	0x2
 9735 1c7a 0A       		.uleb128 0xa
 9736 1c7b B32B0000 		.4byte	.LASF536
 9737 1c7f 0F       		.byte	0xf
 9738 1c80 CA02     		.2byte	0x2ca
 9739 1c82 3E1C0000 		.4byte	0x1c3e
 9740 1c86 03       		.byte	0x3
 9741 1c87 0A       		.uleb128 0xa
 9742 1c88 99030000 		.4byte	.LASF537
 9743 1c8c 0F       		.byte	0xf
 9744 1c8d CB02     		.2byte	0x2cb
 9745 1c8f 49000000 		.4byte	0x49
 9746 1c93 04       		.byte	0x4
 9747 1c94 0A       		.uleb128 0xa
ARM GAS  /tmp/cc4M9ACW.s 			page 172


 9748 1c95 29160000 		.4byte	.LASF538
 9749 1c99 0F       		.byte	0xf
 9750 1c9a CC02     		.2byte	0x2cc
 9751 1c9c 49000000 		.4byte	0x49
 9752 1ca0 05       		.byte	0x5
 9753 1ca1 0A       		.uleb128 0xa
 9754 1ca2 83150000 		.4byte	.LASF539
 9755 1ca6 0F       		.byte	0xf
 9756 1ca7 CD02     		.2byte	0x2cd
 9757 1ca9 BC1C0000 		.4byte	0x1cbc
 9758 1cad 06       		.byte	0x6
 9759 1cae 0A       		.uleb128 0xa
 9760 1caf 28120000 		.4byte	.LASF540
 9761 1cb3 0F       		.byte	0xf
 9762 1cb4 CE02     		.2byte	0x2ce
 9763 1cb6 3C0C0000 		.4byte	0xc3c
 9764 1cba 09       		.byte	0x9
 9765 1cbb 00       		.byte	0
 9766 1cbc 17       		.uleb128 0x17
 9767 1cbd 49000000 		.4byte	0x49
 9768 1cc1 CC1C0000 		.4byte	0x1ccc
 9769 1cc5 18       		.uleb128 0x18
 9770 1cc6 AD000000 		.4byte	0xad
 9771 1cca 02       		.byte	0x2
 9772 1ccb 00       		.byte	0
 9773 1ccc 1C       		.uleb128 0x1c
 9774 1ccd 150B0000 		.4byte	.LASF541
 9775 1cd1 0F       		.byte	0xf
 9776 1cd2 CF02     		.2byte	0x2cf
 9777 1cd4 4A1C0000 		.4byte	0x1c4a
 9778 1cd8 21       		.uleb128 0x21
 9779 1cd9 E8       		.byte	0xe8
 9780 1cda 0F       		.byte	0xf
 9781 1cdb D102     		.2byte	0x2d1
 9782 1cdd 1F200000 		.4byte	0x201f
 9783 1ce1 09       		.uleb128 0x9
 9784 1ce2 6B7000   		.ascii	"kp\000"
 9785 1ce5 0F       		.byte	0xf
 9786 1ce6 D202     		.2byte	0x2d2
 9787 1ce8 25000000 		.4byte	0x25
 9788 1cec 00       		.byte	0
 9789 1ced 09       		.uleb128 0x9
 9790 1cee 6B6900   		.ascii	"ki\000"
 9791 1cf1 0F       		.byte	0xf
 9792 1cf2 D302     		.2byte	0x2d3
 9793 1cf4 25000000 		.4byte	0x25
 9794 1cf8 04       		.byte	0x4
 9795 1cf9 09       		.uleb128 0x9
 9796 1cfa 6B6400   		.ascii	"kd\000"
 9797 1cfd 0F       		.byte	0xf
 9798 1cfe D402     		.2byte	0x2d4
 9799 1d00 25000000 		.4byte	0x25
 9800 1d04 08       		.byte	0x8
 9801 1d05 0A       		.uleb128 0xa
 9802 1d06 A9040000 		.4byte	.LASF542
 9803 1d0a 0F       		.byte	0xf
 9804 1d0b D502     		.2byte	0x2d5
ARM GAS  /tmp/cc4M9ACW.s 			page 173


 9805 1d0d CF000000 		.4byte	0xcf
 9806 1d11 0C       		.byte	0xc
 9807 1d12 0A       		.uleb128 0xa
 9808 1d13 A01C0000 		.4byte	.LASF543
 9809 1d17 0F       		.byte	0xf
 9810 1d18 D602     		.2byte	0x2d6
 9811 1d1a CF000000 		.4byte	0xcf
 9812 1d1e 0E       		.byte	0xe
 9813 1d1f 0A       		.uleb128 0xa
 9814 1d20 84000000 		.4byte	.LASF544
 9815 1d24 0F       		.byte	0xf
 9816 1d25 D702     		.2byte	0x2d7
 9817 1d27 25000000 		.4byte	0x25
 9818 1d2b 10       		.byte	0x10
 9819 1d2c 0A       		.uleb128 0xa
 9820 1d2d F32D0000 		.4byte	.LASF545
 9821 1d31 0F       		.byte	0xf
 9822 1d32 D802     		.2byte	0x2d8
 9823 1d34 25000000 		.4byte	0x25
 9824 1d38 14       		.byte	0x14
 9825 1d39 0A       		.uleb128 0xa
 9826 1d3a BF2B0000 		.4byte	.LASF546
 9827 1d3e 0F       		.byte	0xf
 9828 1d3f D902     		.2byte	0x2d9
 9829 1d41 25000000 		.4byte	0x25
 9830 1d45 18       		.byte	0x18
 9831 1d46 0A       		.uleb128 0xa
 9832 1d47 06270000 		.4byte	.LASF547
 9833 1d4b 0F       		.byte	0xf
 9834 1d4c DA02     		.2byte	0x2da
 9835 1d4e 25000000 		.4byte	0x25
 9836 1d52 1C       		.byte	0x1c
 9837 1d53 0A       		.uleb128 0xa
 9838 1d54 B4190000 		.4byte	.LASF548
 9839 1d58 0F       		.byte	0xf
 9840 1d59 DB02     		.2byte	0x2db
 9841 1d5b 25000000 		.4byte	0x25
 9842 1d5f 20       		.byte	0x20
 9843 1d60 0A       		.uleb128 0xa
 9844 1d61 022B0000 		.4byte	.LASF549
 9845 1d65 0F       		.byte	0xf
 9846 1d66 DC02     		.2byte	0x2dc
 9847 1d68 CF000000 		.4byte	0xcf
 9848 1d6c 24       		.byte	0x24
 9849 1d6d 0A       		.uleb128 0xa
 9850 1d6e C70A0000 		.4byte	.LASF550
 9851 1d72 0F       		.byte	0xf
 9852 1d73 DD02     		.2byte	0x2dd
 9853 1d75 CF000000 		.4byte	0xcf
 9854 1d79 26       		.byte	0x26
 9855 1d7a 0A       		.uleb128 0xa
 9856 1d7b 8F090000 		.4byte	.LASF551
 9857 1d7f 0F       		.byte	0xf
 9858 1d80 DE02     		.2byte	0x2de
 9859 1d82 CF000000 		.4byte	0xcf
 9860 1d86 28       		.byte	0x28
 9861 1d87 0A       		.uleb128 0xa
ARM GAS  /tmp/cc4M9ACW.s 			page 174


 9862 1d88 2E1F0000 		.4byte	.LASF552
 9863 1d8c 0F       		.byte	0xf
 9864 1d8d DF02     		.2byte	0x2df
 9865 1d8f CF000000 		.4byte	0xcf
 9866 1d93 2A       		.byte	0x2a
 9867 1d94 0A       		.uleb128 0xa
 9868 1d95 241E0000 		.4byte	.LASF553
 9869 1d99 0F       		.byte	0xf
 9870 1d9a E002     		.2byte	0x2e0
 9871 1d9c CF000000 		.4byte	0xcf
 9872 1da0 2C       		.byte	0x2c
 9873 1da1 0A       		.uleb128 0xa
 9874 1da2 51080000 		.4byte	.LASF554
 9875 1da6 0F       		.byte	0xf
 9876 1da7 E102     		.2byte	0x2e1
 9877 1da9 CF000000 		.4byte	0xcf
 9878 1dad 2E       		.byte	0x2e
 9879 1dae 0A       		.uleb128 0xa
 9880 1daf 94010000 		.4byte	.LASF555
 9881 1db3 0F       		.byte	0xf
 9882 1db4 E202     		.2byte	0x2e2
 9883 1db6 25000000 		.4byte	0x25
 9884 1dba 30       		.byte	0x30
 9885 1dbb 0A       		.uleb128 0xa
 9886 1dbc CD0F0000 		.4byte	.LASF556
 9887 1dc0 0F       		.byte	0xf
 9888 1dc1 E302     		.2byte	0x2e3
 9889 1dc3 25000000 		.4byte	0x25
 9890 1dc7 34       		.byte	0x34
 9891 1dc8 0A       		.uleb128 0xa
 9892 1dc9 B82E0000 		.4byte	.LASF557
 9893 1dcd 0F       		.byte	0xf
 9894 1dce E402     		.2byte	0x2e4
 9895 1dd0 25000000 		.4byte	0x25
 9896 1dd4 38       		.byte	0x38
 9897 1dd5 0A       		.uleb128 0xa
 9898 1dd6 B3270000 		.4byte	.LASF558
 9899 1dda 0F       		.byte	0xf
 9900 1ddb E502     		.2byte	0x2e5
 9901 1ddd 25000000 		.4byte	0x25
 9902 1de1 3C       		.byte	0x3c
 9903 1de2 0A       		.uleb128 0xa
 9904 1de3 91060000 		.4byte	.LASF559
 9905 1de7 0F       		.byte	0xf
 9906 1de8 E602     		.2byte	0x2e6
 9907 1dea 25000000 		.4byte	0x25
 9908 1dee 40       		.byte	0x40
 9909 1def 0A       		.uleb128 0xa
 9910 1df0 991D0000 		.4byte	.LASF560
 9911 1df4 0F       		.byte	0xf
 9912 1df5 E702     		.2byte	0x2e7
 9913 1df7 25000000 		.4byte	0x25
 9914 1dfb 44       		.byte	0x44
 9915 1dfc 0A       		.uleb128 0xa
 9916 1dfd 1C2C0000 		.4byte	.LASF561
 9917 1e01 0F       		.byte	0xf
 9918 1e02 E802     		.2byte	0x2e8
ARM GAS  /tmp/cc4M9ACW.s 			page 175


 9919 1e04 25000000 		.4byte	0x25
 9920 1e08 48       		.byte	0x48
 9921 1e09 0A       		.uleb128 0xa
 9922 1e0a 340A0000 		.4byte	.LASF562
 9923 1e0e 0F       		.byte	0xf
 9924 1e0f E902     		.2byte	0x2e9
 9925 1e11 25000000 		.4byte	0x25
 9926 1e15 4C       		.byte	0x4c
 9927 1e16 0A       		.uleb128 0xa
 9928 1e17 A0200000 		.4byte	.LASF563
 9929 1e1b 0F       		.byte	0xf
 9930 1e1c EA02     		.2byte	0x2ea
 9931 1e1e 25000000 		.4byte	0x25
 9932 1e22 50       		.byte	0x50
 9933 1e23 0A       		.uleb128 0xa
 9934 1e24 C3060000 		.4byte	.LASF564
 9935 1e28 0F       		.byte	0xf
 9936 1e29 EB02     		.2byte	0x2eb
 9937 1e2b 25000000 		.4byte	0x25
 9938 1e2f 54       		.byte	0x54
 9939 1e30 0A       		.uleb128 0xa
 9940 1e31 2E0F0000 		.4byte	.LASF565
 9941 1e35 0F       		.byte	0xf
 9942 1e36 EC02     		.2byte	0x2ec
 9943 1e38 25000000 		.4byte	0x25
 9944 1e3c 58       		.byte	0x58
 9945 1e3d 0A       		.uleb128 0xa
 9946 1e3e 0E010000 		.4byte	.LASF566
 9947 1e42 0F       		.byte	0xf
 9948 1e43 ED02     		.2byte	0x2ed
 9949 1e45 CF000000 		.4byte	0xcf
 9950 1e49 5C       		.byte	0x5c
 9951 1e4a 0A       		.uleb128 0xa
 9952 1e4b AB220000 		.4byte	.LASF567
 9953 1e4f 0F       		.byte	0xf
 9954 1e50 EE02     		.2byte	0x2ee
 9955 1e52 25000000 		.4byte	0x25
 9956 1e56 60       		.byte	0x60
 9957 1e57 0A       		.uleb128 0xa
 9958 1e58 FC030000 		.4byte	.LASF568
 9959 1e5c 0F       		.byte	0xf
 9960 1e5d EF02     		.2byte	0x2ef
 9961 1e5f 25000000 		.4byte	0x25
 9962 1e63 64       		.byte	0x64
 9963 1e64 0A       		.uleb128 0xa
 9964 1e65 351A0000 		.4byte	.LASF569
 9965 1e69 0F       		.byte	0xf
 9966 1e6a F002     		.2byte	0x2f0
 9967 1e6c 25000000 		.4byte	0x25
 9968 1e70 68       		.byte	0x68
 9969 1e71 0A       		.uleb128 0xa
 9970 1e72 6B2E0000 		.4byte	.LASF570
 9971 1e76 0F       		.byte	0xf
 9972 1e77 F102     		.2byte	0x2f1
 9973 1e79 25000000 		.4byte	0x25
 9974 1e7d 6C       		.byte	0x6c
 9975 1e7e 0A       		.uleb128 0xa
ARM GAS  /tmp/cc4M9ACW.s 			page 176


 9976 1e7f EC050000 		.4byte	.LASF571
 9977 1e83 0F       		.byte	0xf
 9978 1e84 F202     		.2byte	0x2f2
 9979 1e86 25000000 		.4byte	0x25
 9980 1e8a 70       		.byte	0x70
 9981 1e8b 0A       		.uleb128 0xa
 9982 1e8c 2A060000 		.4byte	.LASF572
 9983 1e90 0F       		.byte	0xf
 9984 1e91 F302     		.2byte	0x2f3
 9985 1e93 25000000 		.4byte	0x25
 9986 1e97 74       		.byte	0x74
 9987 1e98 0A       		.uleb128 0xa
 9988 1e99 142B0000 		.4byte	.LASF573
 9989 1e9d 0F       		.byte	0xf
 9990 1e9e F402     		.2byte	0x2f4
 9991 1ea0 25000000 		.4byte	0x25
 9992 1ea4 78       		.byte	0x78
 9993 1ea5 0A       		.uleb128 0xa
 9994 1ea6 D82B0000 		.4byte	.LASF446
 9995 1eaa 0F       		.byte	0xf
 9996 1eab F502     		.2byte	0x2f5
 9997 1ead 3C0C0000 		.4byte	0xc3c
 9998 1eb1 7C       		.byte	0x7c
 9999 1eb2 0A       		.uleb128 0xa
 10000 1eb3 C9250000 		.4byte	.LASF574
 10001 1eb7 0F       		.byte	0xf
 10002 1eb8 F602     		.2byte	0x2f6
 10003 1eba 25000000 		.4byte	0x25
 10004 1ebe 80       		.byte	0x80
 10005 1ebf 0A       		.uleb128 0xa
 10006 1ec0 B2250000 		.4byte	.LASF575
 10007 1ec4 0F       		.byte	0xf
 10008 1ec5 F702     		.2byte	0x2f7
 10009 1ec7 25000000 		.4byte	0x25
 10010 1ecb 84       		.byte	0x84
 10011 1ecc 0A       		.uleb128 0xa
 10012 1ecd 9A250000 		.4byte	.LASF576
 10013 1ed1 0F       		.byte	0xf
 10014 1ed2 F802     		.2byte	0x2f8
 10015 1ed4 25000000 		.4byte	0x25
 10016 1ed8 88       		.byte	0x88
 10017 1ed9 0A       		.uleb128 0xa
 10018 1eda D2020000 		.4byte	.LASF577
 10019 1ede 0F       		.byte	0xf
 10020 1edf F902     		.2byte	0x2f9
 10021 1ee1 25000000 		.4byte	0x25
 10022 1ee5 8C       		.byte	0x8c
 10023 1ee6 0A       		.uleb128 0xa
 10024 1ee7 FA0C0000 		.4byte	.LASF578
 10025 1eeb 0F       		.byte	0xf
 10026 1eec FA02     		.2byte	0x2fa
 10027 1eee 25000000 		.4byte	0x25
 10028 1ef2 90       		.byte	0x90
 10029 1ef3 0A       		.uleb128 0xa
 10030 1ef4 721F0000 		.4byte	.LASF579
 10031 1ef8 0F       		.byte	0xf
 10032 1ef9 FB02     		.2byte	0x2fb
ARM GAS  /tmp/cc4M9ACW.s 			page 177


 10033 1efb 25000000 		.4byte	0x25
 10034 1eff 94       		.byte	0x94
 10035 1f00 0A       		.uleb128 0xa
 10036 1f01 F8130000 		.4byte	.LASF580
 10037 1f05 0F       		.byte	0xf
 10038 1f06 FC02     		.2byte	0x2fc
 10039 1f08 CF000000 		.4byte	0xcf
 10040 1f0c 98       		.byte	0x98
 10041 1f0d 0A       		.uleb128 0xa
 10042 1f0e 25080000 		.4byte	.LASF581
 10043 1f12 0F       		.byte	0xf
 10044 1f13 FD02     		.2byte	0x2fd
 10045 1f15 25000000 		.4byte	0x25
 10046 1f19 9C       		.byte	0x9c
 10047 1f1a 0A       		.uleb128 0xa
 10048 1f1b E2080000 		.4byte	.LASF582
 10049 1f1f 0F       		.byte	0xf
 10050 1f20 FE02     		.2byte	0x2fe
 10051 1f22 CF000000 		.4byte	0xcf
 10052 1f26 A0       		.byte	0xa0
 10053 1f27 0A       		.uleb128 0xa
 10054 1f28 F8270000 		.4byte	.LASF583
 10055 1f2c 0F       		.byte	0xf
 10056 1f2d FF02     		.2byte	0x2ff
 10057 1f2f CF000000 		.4byte	0xcf
 10058 1f33 A2       		.byte	0xa2
 10059 1f34 0A       		.uleb128 0xa
 10060 1f35 871D0000 		.4byte	.LASF584
 10061 1f39 0F       		.byte	0xf
 10062 1f3a 0003     		.2byte	0x300
 10063 1f3c 25000000 		.4byte	0x25
 10064 1f40 A4       		.byte	0xa4
 10065 1f41 0A       		.uleb128 0xa
 10066 1f42 F2200000 		.4byte	.LASF585
 10067 1f46 0F       		.byte	0xf
 10068 1f47 0103     		.2byte	0x301
 10069 1f49 25000000 		.4byte	0x25
 10070 1f4d A8       		.byte	0xa8
 10071 1f4e 0A       		.uleb128 0xa
 10072 1f4f 5B050000 		.4byte	.LASF586
 10073 1f53 0F       		.byte	0xf
 10074 1f54 0203     		.2byte	0x302
 10075 1f56 25000000 		.4byte	0x25
 10076 1f5a AC       		.byte	0xac
 10077 1f5b 0A       		.uleb128 0xa
 10078 1f5c 65230000 		.4byte	.LASF587
 10079 1f60 0F       		.byte	0xf
 10080 1f61 0303     		.2byte	0x303
 10081 1f63 25000000 		.4byte	0x25
 10082 1f67 B0       		.byte	0xb0
 10083 1f68 0A       		.uleb128 0xa
 10084 1f69 69040000 		.4byte	.LASF588
 10085 1f6d 0F       		.byte	0xf
 10086 1f6e 0403     		.2byte	0x304
 10087 1f70 25000000 		.4byte	0x25
 10088 1f74 B4       		.byte	0xb4
 10089 1f75 0A       		.uleb128 0xa
ARM GAS  /tmp/cc4M9ACW.s 			page 178


 10090 1f76 90000000 		.4byte	.LASF589
 10091 1f7a 0F       		.byte	0xf
 10092 1f7b 0503     		.2byte	0x305
 10093 1f7d 25000000 		.4byte	0x25
 10094 1f81 B8       		.byte	0xb8
 10095 1f82 0A       		.uleb128 0xa
 10096 1f83 21040000 		.4byte	.LASF590
 10097 1f87 0F       		.byte	0xf
 10098 1f88 0603     		.2byte	0x306
 10099 1f8a 25000000 		.4byte	0x25
 10100 1f8e BC       		.byte	0xbc
 10101 1f8f 0A       		.uleb128 0xa
 10102 1f90 C5270000 		.4byte	.LASF591
 10103 1f94 0F       		.byte	0xf
 10104 1f95 0703     		.2byte	0x307
 10105 1f97 25000000 		.4byte	0x25
 10106 1f9b C0       		.byte	0xc0
 10107 1f9c 0A       		.uleb128 0xa
 10108 1f9d 11260000 		.4byte	.LASF592
 10109 1fa1 0F       		.byte	0xf
 10110 1fa2 0803     		.2byte	0x308
 10111 1fa4 25000000 		.4byte	0x25
 10112 1fa8 C4       		.byte	0xc4
 10113 1fa9 0A       		.uleb128 0xa
 10114 1faa 85030000 		.4byte	.LASF593
 10115 1fae 0F       		.byte	0xf
 10116 1faf 0903     		.2byte	0x309
 10117 1fb1 25000000 		.4byte	0x25
 10118 1fb5 C8       		.byte	0xc8
 10119 1fb6 0A       		.uleb128 0xa
 10120 1fb7 262F0000 		.4byte	.LASF594
 10121 1fbb 0F       		.byte	0xf
 10122 1fbc 0A03     		.2byte	0x30a
 10123 1fbe 25000000 		.4byte	0x25
 10124 1fc2 CC       		.byte	0xcc
 10125 1fc3 0A       		.uleb128 0xa
 10126 1fc4 5E210000 		.4byte	.LASF595
 10127 1fc8 0F       		.byte	0xf
 10128 1fc9 0B03     		.2byte	0x30b
 10129 1fcb 25000000 		.4byte	0x25
 10130 1fcf D0       		.byte	0xd0
 10131 1fd0 0A       		.uleb128 0xa
 10132 1fd1 6E150000 		.4byte	.LASF596
 10133 1fd5 0F       		.byte	0xf
 10134 1fd6 0C03     		.2byte	0x30c
 10135 1fd8 25000000 		.4byte	0x25
 10136 1fdc D4       		.byte	0xd4
 10137 1fdd 0A       		.uleb128 0xa
 10138 1fde E90B0000 		.4byte	.LASF597
 10139 1fe2 0F       		.byte	0xf
 10140 1fe3 0D03     		.2byte	0x30d
 10141 1fe5 25000000 		.4byte	0x25
 10142 1fe9 D8       		.byte	0xd8
 10143 1fea 0A       		.uleb128 0xa
 10144 1feb B30A0000 		.4byte	.LASF598
 10145 1fef 0F       		.byte	0xf
 10146 1ff0 0E03     		.2byte	0x30e
ARM GAS  /tmp/cc4M9ACW.s 			page 179


 10147 1ff2 CF000000 		.4byte	0xcf
 10148 1ff6 DC       		.byte	0xdc
 10149 1ff7 0A       		.uleb128 0xa
 10150 1ff8 14190000 		.4byte	.LASF599
 10151 1ffc 0F       		.byte	0xf
 10152 1ffd 0F03     		.2byte	0x30f
 10153 1fff 25000000 		.4byte	0x25
 10154 2003 E0       		.byte	0xe0
 10155 2004 0A       		.uleb128 0xa
 10156 2005 71020000 		.4byte	.LASF600
 10157 2009 0F       		.byte	0xf
 10158 200a 1003     		.2byte	0x310
 10159 200c CF000000 		.4byte	0xcf
 10160 2010 E4       		.byte	0xe4
 10161 2011 0A       		.uleb128 0xa
 10162 2012 C62E0000 		.4byte	.LASF601
 10163 2016 0F       		.byte	0xf
 10164 2017 1103     		.2byte	0x311
 10165 2019 CF000000 		.4byte	0xcf
 10166 201d E6       		.byte	0xe6
 10167 201e 00       		.byte	0
 10168 201f 1C       		.uleb128 0x1c
 10169 2020 DB040000 		.4byte	.LASF602
 10170 2024 0F       		.byte	0xf
 10171 2025 1203     		.2byte	0x312
 10172 2027 D81C0000 		.4byte	0x1cd8
 10173 202b 1D       		.uleb128 0x1d
 10174 202c 07       		.byte	0x7
 10175 202d 01       		.byte	0x1
 10176 202e 49000000 		.4byte	0x49
 10177 2032 0F       		.byte	0xf
 10178 2033 1503     		.2byte	0x315
 10179 2035 5E200000 		.4byte	0x205e
 10180 2039 1B       		.uleb128 0x1b
 10181 203a D5010000 		.4byte	.LASF603
 10182 203e 00       		.byte	0
 10183 203f 1B       		.uleb128 0x1b
 10184 2040 AB110000 		.4byte	.LASF604
 10185 2044 01       		.byte	0x1
 10186 2045 1B       		.uleb128 0x1b
 10187 2046 4C0D0000 		.4byte	.LASF605
 10188 204a 02       		.byte	0x2
 10189 204b 1B       		.uleb128 0x1b
 10190 204c 9E080000 		.4byte	.LASF606
 10191 2050 03       		.byte	0x3
 10192 2051 1B       		.uleb128 0x1b
 10193 2052 AB120000 		.4byte	.LASF607
 10194 2056 04       		.byte	0x4
 10195 2057 1B       		.uleb128 0x1b
 10196 2058 BD040000 		.4byte	.LASF608
 10197 205c 05       		.byte	0x5
 10198 205d 00       		.byte	0
 10199 205e 1C       		.uleb128 0x1c
 10200 205f 19160000 		.4byte	.LASF609
 10201 2063 0F       		.byte	0xf
 10202 2064 1C03     		.2byte	0x31c
 10203 2066 2B200000 		.4byte	0x202b
ARM GAS  /tmp/cc4M9ACW.s 			page 180


 10204 206a 1D       		.uleb128 0x1d
 10205 206b 07       		.byte	0x7
 10206 206c 01       		.byte	0x1
 10207 206d 49000000 		.4byte	0x49
 10208 2071 0F       		.byte	0xf
 10209 2072 1E03     		.2byte	0x31e
 10210 2074 B5200000 		.4byte	0x20b5
 10211 2078 1B       		.uleb128 0x1b
 10212 2079 03060000 		.4byte	.LASF610
 10213 207d 00       		.byte	0
 10214 207e 1B       		.uleb128 0x1b
 10215 207f 25210000 		.4byte	.LASF611
 10216 2083 01       		.byte	0x1
 10217 2084 1B       		.uleb128 0x1b
 10218 2085 79040000 		.4byte	.LASF612
 10219 2089 02       		.byte	0x2
 10220 208a 1B       		.uleb128 0x1b
 10221 208b 75060000 		.4byte	.LASF613
 10222 208f 03       		.byte	0x3
 10223 2090 1B       		.uleb128 0x1b
 10224 2091 BA210000 		.4byte	.LASF614
 10225 2095 04       		.byte	0x4
 10226 2096 1B       		.uleb128 0x1b
 10227 2097 DB240000 		.4byte	.LASF615
 10228 209b 05       		.byte	0x5
 10229 209c 1B       		.uleb128 0x1b
 10230 209d 47060000 		.4byte	.LASF616
 10231 20a1 06       		.byte	0x6
 10232 20a2 1B       		.uleb128 0x1b
 10233 20a3 1E240000 		.4byte	.LASF617
 10234 20a7 07       		.byte	0x7
 10235 20a8 1B       		.uleb128 0x1b
 10236 20a9 8B210000 		.4byte	.LASF618
 10237 20ad 08       		.byte	0x8
 10238 20ae 1B       		.uleb128 0x1b
 10239 20af A8240000 		.4byte	.LASF619
 10240 20b3 09       		.byte	0x9
 10241 20b4 00       		.byte	0
 10242 20b5 1C       		.uleb128 0x1c
 10243 20b6 4D200000 		.4byte	.LASF620
 10244 20ba 0F       		.byte	0xf
 10245 20bb 2903     		.2byte	0x329
 10246 20bd 6A200000 		.4byte	0x206a
 10247 20c1 1D       		.uleb128 0x1d
 10248 20c2 07       		.byte	0x7
 10249 20c3 01       		.byte	0x1
 10250 20c4 49000000 		.4byte	0x49
 10251 20c8 0F       		.byte	0xf
 10252 20c9 2B03     		.2byte	0x32b
 10253 20cb F4200000 		.4byte	0x20f4
 10254 20cf 1B       		.uleb128 0x1b
 10255 20d0 F9260000 		.4byte	.LASF621
 10256 20d4 00       		.byte	0
 10257 20d5 1B       		.uleb128 0x1b
 10258 20d6 E10F0000 		.4byte	.LASF622
 10259 20da 01       		.byte	0x1
 10260 20db 1B       		.uleb128 0x1b
ARM GAS  /tmp/cc4M9ACW.s 			page 181


 10261 20dc F50A0000 		.4byte	.LASF623
 10262 20e0 02       		.byte	0x2
 10263 20e1 1B       		.uleb128 0x1b
 10264 20e2 F6020000 		.4byte	.LASF624
 10265 20e6 03       		.byte	0x3
 10266 20e7 1B       		.uleb128 0x1b
 10267 20e8 E1280000 		.4byte	.LASF625
 10268 20ec 04       		.byte	0x4
 10269 20ed 1B       		.uleb128 0x1b
 10270 20ee 7A010000 		.4byte	.LASF626
 10271 20f2 05       		.byte	0x5
 10272 20f3 00       		.byte	0
 10273 20f4 1C       		.uleb128 0x1c
 10274 20f5 91100000 		.4byte	.LASF627
 10275 20f9 0F       		.byte	0xf
 10276 20fa 3203     		.2byte	0x332
 10277 20fc C1200000 		.4byte	0x20c1
 10278 2100 1D       		.uleb128 0x1d
 10279 2101 07       		.byte	0x7
 10280 2102 01       		.byte	0x1
 10281 2103 49000000 		.4byte	0x49
 10282 2107 0F       		.byte	0xf
 10283 2108 3403     		.2byte	0x334
 10284 210a 21210000 		.4byte	0x2121
 10285 210e 1B       		.uleb128 0x1b
 10286 210f 0C110000 		.4byte	.LASF628
 10287 2113 00       		.byte	0
 10288 2114 1B       		.uleb128 0x1b
 10289 2115 D0280000 		.4byte	.LASF629
 10290 2119 01       		.byte	0x1
 10291 211a 1B       		.uleb128 0x1b
 10292 211b 61270000 		.4byte	.LASF630
 10293 211f 02       		.byte	0x2
 10294 2120 00       		.byte	0
 10295 2121 1C       		.uleb128 0x1c
 10296 2122 7F0E0000 		.4byte	.LASF631
 10297 2126 0F       		.byte	0xf
 10298 2127 3803     		.2byte	0x338
 10299 2129 00210000 		.4byte	0x2100
 10300 212d 21       		.uleb128 0x21
 10301 212e 3C       		.byte	0x3c
 10302 212f 0F       		.byte	0xf
 10303 2130 3A03     		.2byte	0x33a
 10304 2132 D3210000 		.4byte	0x21d3
 10305 2136 0A       		.uleb128 0xa
 10306 2137 56090000 		.4byte	.LASF222
 10307 213b 0F       		.byte	0xf
 10308 213c 3B03     		.2byte	0x33b
 10309 213e F4200000 		.4byte	0x20f4
 10310 2142 00       		.byte	0
 10311 2143 0A       		.uleb128 0xa
 10312 2144 220A0000 		.4byte	.LASF632
 10313 2148 0F       		.byte	0xf
 10314 2149 3C03     		.2byte	0x33c
 10315 214b 21210000 		.4byte	0x2121
 10316 214f 01       		.byte	0x1
 10317 2150 0A       		.uleb128 0xa
ARM GAS  /tmp/cc4M9ACW.s 			page 182


 10318 2151 38060000 		.4byte	.LASF633
 10319 2155 0F       		.byte	0xf
 10320 2156 3D03     		.2byte	0x33d
 10321 2158 A6000000 		.4byte	0xa6
 10322 215c 04       		.byte	0x4
 10323 215d 0A       		.uleb128 0xa
 10324 215e B42D0000 		.4byte	.LASF634
 10325 2162 0F       		.byte	0xf
 10326 2163 3E03     		.2byte	0x33e
 10327 2165 25000000 		.4byte	0x25
 10328 2169 08       		.byte	0x8
 10329 216a 0A       		.uleb128 0xa
 10330 216b C8020000 		.4byte	.LASF635
 10331 216f 0F       		.byte	0xf
 10332 2170 3F03     		.2byte	0x33f
 10333 2172 25000000 		.4byte	0x25
 10334 2176 0C       		.byte	0xc
 10335 2177 0A       		.uleb128 0xa
 10336 2178 AB020000 		.4byte	.LASF636
 10337 217c 0F       		.byte	0xf
 10338 217d 4003     		.2byte	0x340
 10339 217f 25000000 		.4byte	0x25
 10340 2183 10       		.byte	0x10
 10341 2184 0A       		.uleb128 0xa
 10342 2185 800A0000 		.4byte	.LASF637
 10343 2189 0F       		.byte	0xf
 10344 218a 4103     		.2byte	0x341
 10345 218c 25000000 		.4byte	0x25
 10346 2190 14       		.byte	0x14
 10347 2191 0A       		.uleb128 0xa
 10348 2192 48050000 		.4byte	.LASF638
 10349 2196 0F       		.byte	0xf
 10350 2197 4203     		.2byte	0x342
 10351 2199 25000000 		.4byte	0x25
 10352 219d 18       		.byte	0x18
 10353 219e 0A       		.uleb128 0xa
 10354 219f 51050000 		.4byte	.LASF639
 10355 21a3 0F       		.byte	0xf
 10356 21a4 4303     		.2byte	0x343
 10357 21a6 25000000 		.4byte	0x25
 10358 21aa 1C       		.byte	0x1c
 10359 21ab 0A       		.uleb128 0xa
 10360 21ac 871B0000 		.4byte	.LASF640
 10361 21b0 0F       		.byte	0xf
 10362 21b1 4403     		.2byte	0x344
 10363 21b3 25000000 		.4byte	0x25
 10364 21b7 20       		.byte	0x20
 10365 21b8 0A       		.uleb128 0xa
 10366 21b9 26200000 		.4byte	.LASF641
 10367 21bd 0F       		.byte	0xf
 10368 21be 4503     		.2byte	0x345
 10369 21c0 5C150000 		.4byte	0x155c
 10370 21c4 24       		.byte	0x24
 10371 21c5 0A       		.uleb128 0xa
 10372 21c6 A5260000 		.4byte	.LASF642
 10373 21ca 0F       		.byte	0xf
 10374 21cb 4603     		.2byte	0x346
ARM GAS  /tmp/cc4M9ACW.s 			page 183


 10375 21cd 5C150000 		.4byte	0x155c
 10376 21d1 30       		.byte	0x30
 10377 21d2 00       		.byte	0
 10378 21d3 1C       		.uleb128 0x1c
 10379 21d4 161A0000 		.4byte	.LASF643
 10380 21d8 0F       		.byte	0xf
 10381 21d9 4703     		.2byte	0x347
 10382 21db 2D210000 		.4byte	0x212d
 10383 21df 1D       		.uleb128 0x1d
 10384 21e0 07       		.byte	0x7
 10385 21e1 01       		.byte	0x1
 10386 21e2 49000000 		.4byte	0x49
 10387 21e6 0F       		.byte	0xf
 10388 21e7 5603     		.2byte	0x356
 10389 21e9 00220000 		.4byte	0x2200
 10390 21ed 1B       		.uleb128 0x1b
 10391 21ee F5150000 		.4byte	.LASF644
 10392 21f2 00       		.byte	0
 10393 21f3 1B       		.uleb128 0x1b
 10394 21f4 74190000 		.4byte	.LASF645
 10395 21f8 01       		.byte	0x1
 10396 21f9 1B       		.uleb128 0x1b
 10397 21fa E50C0000 		.4byte	.LASF646
 10398 21fe 02       		.byte	0x2
 10399 21ff 00       		.byte	0
 10400 2200 1C       		.uleb128 0x1c
 10401 2201 98160000 		.4byte	.LASF647
 10402 2205 0F       		.byte	0xf
 10403 2206 5A03     		.2byte	0x35a
 10404 2208 DF210000 		.4byte	0x21df
 10405 220c 1D       		.uleb128 0x1d
 10406 220d 07       		.byte	0x7
 10407 220e 01       		.byte	0x1
 10408 220f 49000000 		.4byte	0x49
 10409 2213 0F       		.byte	0xf
 10410 2214 5C03     		.2byte	0x35c
 10411 2216 33220000 		.4byte	0x2233
 10412 221a 1B       		.uleb128 0x1b
 10413 221b 5F2C0000 		.4byte	.LASF648
 10414 221f 00       		.byte	0
 10415 2220 1B       		.uleb128 0x1b
 10416 2221 AB280000 		.4byte	.LASF649
 10417 2225 01       		.byte	0x1
 10418 2226 1B       		.uleb128 0x1b
 10419 2227 322A0000 		.4byte	.LASF650
 10420 222b 02       		.byte	0x2
 10421 222c 1B       		.uleb128 0x1b
 10422 222d 73240000 		.4byte	.LASF651
 10423 2231 03       		.byte	0x3
 10424 2232 00       		.byte	0
 10425 2233 1C       		.uleb128 0x1c
 10426 2234 131C0000 		.4byte	.LASF652
 10427 2238 0F       		.byte	0xf
 10428 2239 6103     		.2byte	0x361
 10429 223b 0C220000 		.4byte	0x220c
 10430 223f 1D       		.uleb128 0x1d
 10431 2240 07       		.byte	0x7
ARM GAS  /tmp/cc4M9ACW.s 			page 184


 10432 2241 01       		.byte	0x1
 10433 2242 49000000 		.4byte	0x49
 10434 2246 0F       		.byte	0xf
 10435 2247 6303     		.2byte	0x363
 10436 2249 6C220000 		.4byte	0x226c
 10437 224d 1B       		.uleb128 0x1b
 10438 224e 62030000 		.4byte	.LASF653
 10439 2252 00       		.byte	0
 10440 2253 1B       		.uleb128 0x1b
 10441 2254 AF080000 		.4byte	.LASF654
 10442 2258 01       		.byte	0x1
 10443 2259 1B       		.uleb128 0x1b
 10444 225a 2F2E0000 		.4byte	.LASF655
 10445 225e 02       		.byte	0x2
 10446 225f 1B       		.uleb128 0x1b
 10447 2260 CC000000 		.4byte	.LASF656
 10448 2264 03       		.byte	0x3
 10449 2265 1B       		.uleb128 0x1b
 10450 2266 62290000 		.4byte	.LASF657
 10451 226a 04       		.byte	0x4
 10452 226b 00       		.byte	0
 10453 226c 1C       		.uleb128 0x1c
 10454 226d 471A0000 		.4byte	.LASF658
 10455 2271 0F       		.byte	0xf
 10456 2272 6903     		.2byte	0x369
 10457 2274 3F220000 		.4byte	0x223f
 10458 2278 1E       		.uleb128 0x1e
 10459 2279 3802     		.2byte	0x238
 10460 227b 0F       		.byte	0xf
 10461 227c 6B03     		.2byte	0x36b
 10462 227e CB230000 		.4byte	0x23cb
 10463 2282 0A       		.uleb128 0xa
 10464 2283 E72C0000 		.4byte	.LASF659
 10465 2287 0F       		.byte	0xf
 10466 2288 6D03     		.2byte	0x36d
 10467 228a BF000000 		.4byte	0xbf
 10468 228e 00       		.byte	0
 10469 228f 0A       		.uleb128 0xa
 10470 2290 49110000 		.4byte	.LASF660
 10471 2294 0F       		.byte	0xf
 10472 2295 6E03     		.2byte	0x36e
 10473 2297 EA000000 		.4byte	0xea
 10474 229b 04       		.byte	0x4
 10475 229c 0A       		.uleb128 0xa
 10476 229d 77180000 		.4byte	.LASF661
 10477 22a1 0F       		.byte	0xf
 10478 22a2 6F03     		.2byte	0x36f
 10479 22a4 25000000 		.4byte	0x25
 10480 22a8 08       		.byte	0x8
 10481 22a9 0A       		.uleb128 0xa
 10482 22aa 9B110000 		.4byte	.LASF662
 10483 22ae 0F       		.byte	0xf
 10484 22af 7003     		.2byte	0x370
 10485 22b1 5E200000 		.4byte	0x205e
 10486 22b5 0C       		.byte	0xc
 10487 22b6 0A       		.uleb128 0xa
 10488 22b7 2E2C0000 		.4byte	.LASF663
ARM GAS  /tmp/cc4M9ACW.s 			page 185


 10489 22bb 0F       		.byte	0xf
 10490 22bc 7103     		.2byte	0x371
 10491 22be EA000000 		.4byte	0xea
 10492 22c2 10       		.byte	0x10
 10493 22c3 0A       		.uleb128 0xa
 10494 22c4 CA2B0000 		.4byte	.LASF664
 10495 22c8 0F       		.byte	0xf
 10496 22c9 7203     		.2byte	0x372
 10497 22cb 2E0B0000 		.4byte	0xb2e
 10498 22cf 14       		.byte	0x14
 10499 22d0 0A       		.uleb128 0xa
 10500 22d1 852D0000 		.4byte	.LASF665
 10501 22d5 0F       		.byte	0xf
 10502 22d6 7303     		.2byte	0x373
 10503 22d8 3C0C0000 		.4byte	0xc3c
 10504 22dc 15       		.byte	0x15
 10505 22dd 0A       		.uleb128 0xa
 10506 22de 7F080000 		.4byte	.LASF666
 10507 22e2 0F       		.byte	0xf
 10508 22e3 7403     		.2byte	0x374
 10509 22e5 3C0C0000 		.4byte	0xc3c
 10510 22e9 16       		.byte	0x16
 10511 22ea 0A       		.uleb128 0xa
 10512 22eb 05020000 		.4byte	.LASF667
 10513 22ef 0F       		.byte	0xf
 10514 22f0 7503     		.2byte	0x375
 10515 22f2 B5200000 		.4byte	0x20b5
 10516 22f6 17       		.byte	0x17
 10517 22f7 0A       		.uleb128 0xa
 10518 22f8 7B270000 		.4byte	.LASF668
 10519 22fc 0F       		.byte	0xf
 10520 22fd 7603     		.2byte	0x376
 10521 22ff 3C0C0000 		.4byte	0xc3c
 10522 2303 18       		.byte	0x18
 10523 2304 0A       		.uleb128 0xa
 10524 2305 192F0000 		.4byte	.LASF669
 10525 2309 0F       		.byte	0xf
 10526 230a 7703     		.2byte	0x377
 10527 230c 6C220000 		.4byte	0x226c
 10528 2310 19       		.byte	0x19
 10529 2311 0A       		.uleb128 0xa
 10530 2312 5F1C0000 		.4byte	.LASF670
 10531 2316 0F       		.byte	0xf
 10532 2317 7A03     		.2byte	0x37a
 10533 2319 00220000 		.4byte	0x2200
 10534 231d 1A       		.byte	0x1a
 10535 231e 0A       		.uleb128 0xa
 10536 231f E52A0000 		.4byte	.LASF671
 10537 2323 0F       		.byte	0xf
 10538 2324 7B03     		.2byte	0x37b
 10539 2326 BF000000 		.4byte	0xbf
 10540 232a 1B       		.byte	0x1b
 10541 232b 0A       		.uleb128 0xa
 10542 232c 8E230000 		.4byte	.LASF672
 10543 2330 0F       		.byte	0xf
 10544 2331 7C03     		.2byte	0x37c
 10545 2333 33220000 		.4byte	0x2233
ARM GAS  /tmp/cc4M9ACW.s 			page 186


 10546 2337 1C       		.byte	0x1c
 10547 2338 0A       		.uleb128 0xa
 10548 2339 12280000 		.4byte	.LASF673
 10549 233d 0F       		.byte	0xf
 10550 233e 7D03     		.2byte	0x37d
 10551 2340 25000000 		.4byte	0x25
 10552 2344 20       		.byte	0x20
 10553 2345 0A       		.uleb128 0xa
 10554 2346 CB190000 		.4byte	.LASF674
 10555 234a 0F       		.byte	0xf
 10556 234b 8003     		.2byte	0x380
 10557 234d D4150000 		.4byte	0x15d4
 10558 2351 24       		.byte	0x24
 10559 2352 0A       		.uleb128 0xa
 10560 2353 9C1A0000 		.4byte	.LASF675
 10561 2357 0F       		.byte	0xf
 10562 2358 8303     		.2byte	0x383
 10563 235a 91170000 		.4byte	0x1791
 10564 235e 28       		.byte	0x28
 10565 235f 0A       		.uleb128 0xa
 10566 2360 4B1B0000 		.4byte	.LASF676
 10567 2364 0F       		.byte	0xf
 10568 2365 8603     		.2byte	0x386
 10569 2367 8D190000 		.4byte	0x198d
 10570 236b 6C       		.byte	0x6c
 10571 236c 0A       		.uleb128 0xa
 10572 236d 63060000 		.4byte	.LASF677
 10573 2371 0F       		.byte	0xf
 10574 2372 8903     		.2byte	0x389
 10575 2374 EA000000 		.4byte	0xea
 10576 2378 B0       		.byte	0xb0
 10577 2379 0A       		.uleb128 0xa
 10578 237a BC170000 		.4byte	.LASF678
 10579 237e 0F       		.byte	0xf
 10580 237f 8C03     		.2byte	0x38c
 10581 2381 8B1A0000 		.4byte	0x1a8b
 10582 2385 B4       		.byte	0xb4
 10583 2386 0A       		.uleb128 0xa
 10584 2387 80070000 		.4byte	.LASF679
 10585 238b 0F       		.byte	0xf
 10586 238c 8F03     		.2byte	0x38f
 10587 238e CC1C0000 		.4byte	0x1ccc
 10588 2392 E4       		.byte	0xe4
 10589 2393 0A       		.uleb128 0xa
 10590 2394 680F0000 		.4byte	.LASF680
 10591 2398 0F       		.byte	0xf
 10592 2399 9203     		.2byte	0x392
 10593 239b 1F200000 		.4byte	0x201f
 10594 239f F0       		.byte	0xf0
 10595 23a0 1F       		.uleb128 0x1f
 10596 23a1 D5210000 		.4byte	.LASF681
 10597 23a5 0F       		.byte	0xf
 10598 23a6 9503     		.2byte	0x395
 10599 23a8 301B0000 		.4byte	0x1b30
 10600 23ac D801     		.2byte	0x1d8
 10601 23ae 1F       		.uleb128 0x1f
 10602 23af 02250000 		.4byte	.LASF682
ARM GAS  /tmp/cc4M9ACW.s 			page 187


 10603 23b3 0F       		.byte	0xf
 10604 23b4 9803     		.2byte	0x398
 10605 23b6 D3210000 		.4byte	0x21d3
 10606 23ba F801     		.2byte	0x1f8
 10607 23bc 20       		.uleb128 0x20
 10608 23bd 63726300 		.ascii	"crc\000"
 10609 23c1 0F       		.byte	0xf
 10610 23c2 9B03     		.2byte	0x39b
 10611 23c4 CF000000 		.4byte	0xcf
 10612 23c8 3402     		.2byte	0x234
 10613 23ca 00       		.byte	0
 10614 23cb 1C       		.uleb128 0x1c
 10615 23cc 0B230000 		.4byte	.LASF683
 10616 23d0 0F       		.byte	0xf
 10617 23d1 9C03     		.2byte	0x39c
 10618 23d3 78220000 		.4byte	0x2278
 10619 23d7 05       		.uleb128 0x5
 10620 23d8 CB230000 		.4byte	0x23cb
 10621 23dc 02       		.uleb128 0x2
 10622 23dd 08       		.byte	0x8
 10623 23de 04       		.byte	0x4
 10624 23df 39160000 		.4byte	.LASF684
 10625 23e3 21       		.uleb128 0x21
 10626 23e4 18       		.byte	0x18
 10627 23e5 0F       		.byte	0xf
 10628 23e6 3D05     		.2byte	0x53d
 10629 23e8 21240000 		.4byte	0x2421
 10630 23ec 0A       		.uleb128 0xa
 10631 23ed 631B0000 		.4byte	.LASF685
 10632 23f1 0F       		.byte	0xf
 10633 23f2 3E05     		.2byte	0x53e
 10634 23f4 EA000000 		.4byte	0xea
 10635 23f8 00       		.byte	0
 10636 23f9 0A       		.uleb128 0xa
 10637 23fa A3130000 		.4byte	.LASF686
 10638 23fe 0F       		.byte	0xf
 10639 23ff 3F05     		.2byte	0x53f
 10640 2401 F5000000 		.4byte	0xf5
 10641 2405 04       		.byte	0x4
 10642 2406 0A       		.uleb128 0xa
 10643 2407 DB1F0000 		.4byte	.LASF687
 10644 240b 0F       		.byte	0xf
 10645 240c 4105     		.2byte	0x541
 10646 240e EA000000 		.4byte	0xea
 10647 2412 0C       		.byte	0xc
 10648 2413 0A       		.uleb128 0xa
 10649 2414 480B0000 		.4byte	.LASF688
 10650 2418 0F       		.byte	0xf
 10651 2419 4205     		.2byte	0x542
 10652 241b F5000000 		.4byte	0xf5
 10653 241f 10       		.byte	0x10
 10654 2420 00       		.byte	0
 10655 2421 1C       		.uleb128 0x1c
 10656 2422 371C0000 		.4byte	.LASF689
 10657 2426 0F       		.byte	0xf
 10658 2427 4305     		.2byte	0x543
 10659 2429 E3230000 		.4byte	0x23e3
ARM GAS  /tmp/cc4M9ACW.s 			page 188


 10660 242d 06       		.uleb128 0x6
 10661 242e 21240000 		.4byte	0x2421
 10662 2432 11       		.uleb128 0x11
 10663 2433 961E0000 		.4byte	.LASF690
 10664 2437 10       		.byte	0x10
 10665 2438 6201     		.2byte	0x162
 10666 243a 3C0C0000 		.4byte	0xc3c
 10667 243e 11       		.uleb128 0x11
 10668 243f D3120000 		.4byte	.LASF691
 10669 2443 10       		.byte	0x10
 10670 2444 6301     		.2byte	0x163
 10671 2446 2D240000 		.4byte	0x242d
 10672 244a 22       		.uleb128 0x22
 10673 244b F91D0000 		.4byte	.LASF692
 10674 244f 01       		.byte	0x1
 10675 2450 A103     		.2byte	0x3a1
 10676 2452 00000000 		.4byte	.LFB224
 10677 2456 6C030000 		.4byte	.LFE224-.LFB224
 10678 245a 01       		.uleb128 0x1
 10679 245b 9C       		.byte	0x9c
 10680 245c 7A240000 		.4byte	0x247a
 10681 2460 23       		.uleb128 0x23
 10682 2461 CF1D0000 		.4byte	.LASF694
 10683 2465 01       		.byte	0x1
 10684 2466 A103     		.2byte	0x3a1
 10685 2468 7A240000 		.4byte	0x247a
 10686 246c 00000000 		.4byte	.LLST10
 10687 2470 24       		.uleb128 0x24
 10688 2471 0A000000 		.4byte	.LVL531
 10689 2475 725E0000 		.4byte	0x5e72
 10690 2479 00       		.byte	0
 10691 247a 0B       		.uleb128 0xb
 10692 247b 04       		.byte	0x4
 10693 247c CB230000 		.4byte	0x23cb
 10694 2480 22       		.uleb128 0x22
 10695 2481 922D0000 		.4byte	.LASF693
 10696 2485 01       		.byte	0x1
 10697 2486 ED02     		.2byte	0x2ed
 10698 2488 00000000 		.4byte	.LFB223
 10699 248c C8040000 		.4byte	.LFE223-.LFB223
 10700 2490 01       		.uleb128 0x1
 10701 2491 9C       		.byte	0x9c
 10702 2492 A5240000 		.4byte	0x24a5
 10703 2496 25       		.uleb128 0x25
 10704 2497 CF1D0000 		.4byte	.LASF694
 10705 249b 01       		.byte	0x1
 10706 249c ED02     		.2byte	0x2ed
 10707 249e A5240000 		.4byte	0x24a5
 10708 24a2 01       		.uleb128 0x1
 10709 24a3 50       		.byte	0x50
 10710 24a4 00       		.byte	0
 10711 24a5 0B       		.uleb128 0xb
 10712 24a6 04       		.byte	0x4
 10713 24a7 6C150000 		.4byte	0x156c
 10714 24ab 26       		.uleb128 0x26
 10715 24ac 32180000 		.4byte	.LASF697
 10716 24b0 01       		.byte	0x1
ARM GAS  /tmp/cc4M9ACW.s 			page 189


 10717 24b1 3402     		.2byte	0x234
 10718 24b3 3C0C0000 		.4byte	0xc3c
 10719 24b7 00000000 		.4byte	.LFB222
 10720 24bb 56080000 		.4byte	.LFE222-.LFB222
 10721 24bf 01       		.uleb128 0x1
 10722 24c0 9C       		.byte	0x9c
 10723 24c1 4D320000 		.4byte	0x324d
 10724 24c5 23       		.uleb128 0x23
 10725 24c6 25220000 		.4byte	.LASF695
 10726 24ca 01       		.byte	0x1
 10727 24cb 3402     		.2byte	0x234
 10728 24cd 8D080000 		.4byte	0x88d
 10729 24d1 2C000000 		.4byte	.LLST7
 10730 24d5 23       		.uleb128 0x23
 10731 24d6 CF1D0000 		.4byte	.LASF694
 10732 24da 01       		.byte	0x1
 10733 24db 3402     		.2byte	0x234
 10734 24dd 7A240000 		.4byte	0x247a
 10735 24e1 63000000 		.4byte	.LLST8
 10736 24e5 27       		.uleb128 0x27
 10737 24e6 696E6400 		.ascii	"ind\000"
 10738 24ea 01       		.byte	0x1
 10739 24eb 3502     		.2byte	0x235
 10740 24ed DA000000 		.4byte	0xda
 10741 24f1 02       		.uleb128 0x2
 10742 24f2 91       		.byte	0x91
 10743 24f3 64       		.sleb128 -28
 10744 24f4 28       		.uleb128 0x28
 10745 24f5 A9180000 		.4byte	.LASF696
 10746 24f9 01       		.byte	0x1
 10747 24fa 3702     		.2byte	0x237
 10748 24fc EA000000 		.4byte	0xea
 10749 2500 9A000000 		.4byte	.LLST9
 10750 2504 29       		.uleb128 0x29
 10751 2505 16000000 		.4byte	.LVL401
 10752 2509 7E5E0000 		.4byte	0x5e7e
 10753 250d 1E250000 		.4byte	0x251e
 10754 2511 2A       		.uleb128 0x2a
 10755 2512 01       		.uleb128 0x1
 10756 2513 50       		.byte	0x50
 10757 2514 02       		.uleb128 0x2
 10758 2515 75       		.byte	0x75
 10759 2516 00       		.sleb128 0
 10760 2517 2A       		.uleb128 0x2a
 10761 2518 01       		.uleb128 0x1
 10762 2519 51       		.byte	0x51
 10763 251a 02       		.uleb128 0x2
 10764 251b 76       		.byte	0x76
 10765 251c 00       		.sleb128 0
 10766 251d 00       		.byte	0
 10767 251e 29       		.uleb128 0x29
 10768 251f 3A000000 		.4byte	.LVL406
 10769 2523 7E5E0000 		.4byte	0x5e7e
 10770 2527 38250000 		.4byte	0x2538
 10771 252b 2A       		.uleb128 0x2a
 10772 252c 01       		.uleb128 0x1
 10773 252d 50       		.byte	0x50
ARM GAS  /tmp/cc4M9ACW.s 			page 190


 10774 252e 02       		.uleb128 0x2
 10775 252f 75       		.byte	0x75
 10776 2530 00       		.sleb128 0
 10777 2531 2A       		.uleb128 0x2a
 10778 2532 01       		.uleb128 0x1
 10779 2533 51       		.byte	0x51
 10780 2534 02       		.uleb128 0x2
 10781 2535 76       		.byte	0x76
 10782 2536 00       		.sleb128 0
 10783 2537 00       		.byte	0
 10784 2538 29       		.uleb128 0x29
 10785 2539 44000000 		.4byte	.LVL407
 10786 253d 895E0000 		.4byte	0x5e89
 10787 2541 52250000 		.4byte	0x2552
 10788 2545 2A       		.uleb128 0x2a
 10789 2546 01       		.uleb128 0x1
 10790 2547 50       		.byte	0x50
 10791 2548 02       		.uleb128 0x2
 10792 2549 75       		.byte	0x75
 10793 254a 00       		.sleb128 0
 10794 254b 2A       		.uleb128 0x2a
 10795 254c 01       		.uleb128 0x1
 10796 254d 51       		.byte	0x51
 10797 254e 02       		.uleb128 0x2
 10798 254f 76       		.byte	0x76
 10799 2550 00       		.sleb128 0
 10800 2551 00       		.byte	0
 10801 2552 29       		.uleb128 0x29
 10802 2553 5A000000 		.4byte	.LVL408
 10803 2557 945E0000 		.4byte	0x5e94
 10804 255b 6C250000 		.4byte	0x256c
 10805 255f 2A       		.uleb128 0x2a
 10806 2560 01       		.uleb128 0x1
 10807 2561 50       		.byte	0x50
 10808 2562 02       		.uleb128 0x2
 10809 2563 75       		.byte	0x75
 10810 2564 00       		.sleb128 0
 10811 2565 2A       		.uleb128 0x2a
 10812 2566 01       		.uleb128 0x1
 10813 2567 51       		.byte	0x51
 10814 2568 02       		.uleb128 0x2
 10815 2569 76       		.byte	0x76
 10816 256a 00       		.sleb128 0
 10817 256b 00       		.byte	0
 10818 256c 29       		.uleb128 0x29
 10819 256d 94000000 		.4byte	.LVL409
 10820 2571 895E0000 		.4byte	0x5e89
 10821 2575 86250000 		.4byte	0x2586
 10822 2579 2A       		.uleb128 0x2a
 10823 257a 01       		.uleb128 0x1
 10824 257b 50       		.byte	0x50
 10825 257c 02       		.uleb128 0x2
 10826 257d 75       		.byte	0x75
 10827 257e 00       		.sleb128 0
 10828 257f 2A       		.uleb128 0x2a
 10829 2580 01       		.uleb128 0x1
 10830 2581 51       		.byte	0x51
ARM GAS  /tmp/cc4M9ACW.s 			page 191


 10831 2582 02       		.uleb128 0x2
 10832 2583 76       		.byte	0x76
 10833 2584 00       		.sleb128 0
 10834 2585 00       		.byte	0
 10835 2586 29       		.uleb128 0x29
 10836 2587 C2000000 		.4byte	.LVL410
 10837 258b 895E0000 		.4byte	0x5e89
 10838 258f A0250000 		.4byte	0x25a0
 10839 2593 2A       		.uleb128 0x2a
 10840 2594 01       		.uleb128 0x1
 10841 2595 50       		.byte	0x50
 10842 2596 02       		.uleb128 0x2
 10843 2597 75       		.byte	0x75
 10844 2598 00       		.sleb128 0
 10845 2599 2A       		.uleb128 0x2a
 10846 259a 01       		.uleb128 0x1
 10847 259b 51       		.byte	0x51
 10848 259c 02       		.uleb128 0x2
 10849 259d 76       		.byte	0x76
 10850 259e 00       		.sleb128 0
 10851 259f 00       		.byte	0
 10852 25a0 29       		.uleb128 0x29
 10853 25a1 CE000000 		.4byte	.LVL411
 10854 25a5 895E0000 		.4byte	0x5e89
 10855 25a9 BA250000 		.4byte	0x25ba
 10856 25ad 2A       		.uleb128 0x2a
 10857 25ae 01       		.uleb128 0x1
 10858 25af 50       		.byte	0x50
 10859 25b0 02       		.uleb128 0x2
 10860 25b1 75       		.byte	0x75
 10861 25b2 00       		.sleb128 0
 10862 25b3 2A       		.uleb128 0x2a
 10863 25b4 01       		.uleb128 0x1
 10864 25b5 51       		.byte	0x51
 10865 25b6 02       		.uleb128 0x2
 10866 25b7 76       		.byte	0x76
 10867 25b8 00       		.sleb128 0
 10868 25b9 00       		.byte	0
 10869 25ba 29       		.uleb128 0x29
 10870 25bb DA000000 		.4byte	.LVL412
 10871 25bf 895E0000 		.4byte	0x5e89
 10872 25c3 D4250000 		.4byte	0x25d4
 10873 25c7 2A       		.uleb128 0x2a
 10874 25c8 01       		.uleb128 0x1
 10875 25c9 50       		.byte	0x50
 10876 25ca 02       		.uleb128 0x2
 10877 25cb 75       		.byte	0x75
 10878 25cc 00       		.sleb128 0
 10879 25cd 2A       		.uleb128 0x2a
 10880 25ce 01       		.uleb128 0x1
 10881 25cf 51       		.byte	0x51
 10882 25d0 02       		.uleb128 0x2
 10883 25d1 76       		.byte	0x76
 10884 25d2 00       		.sleb128 0
 10885 25d3 00       		.byte	0
 10886 25d4 29       		.uleb128 0x29
 10887 25d5 E6000000 		.4byte	.LVL413
ARM GAS  /tmp/cc4M9ACW.s 			page 192


 10888 25d9 895E0000 		.4byte	0x5e89
 10889 25dd EE250000 		.4byte	0x25ee
 10890 25e1 2A       		.uleb128 0x2a
 10891 25e2 01       		.uleb128 0x1
 10892 25e3 50       		.byte	0x50
 10893 25e4 02       		.uleb128 0x2
 10894 25e5 75       		.byte	0x75
 10895 25e6 00       		.sleb128 0
 10896 25e7 2A       		.uleb128 0x2a
 10897 25e8 01       		.uleb128 0x1
 10898 25e9 51       		.byte	0x51
 10899 25ea 02       		.uleb128 0x2
 10900 25eb 76       		.byte	0x76
 10901 25ec 00       		.sleb128 0
 10902 25ed 00       		.byte	0
 10903 25ee 29       		.uleb128 0x29
 10904 25ef F2000000 		.4byte	.LVL414
 10905 25f3 895E0000 		.4byte	0x5e89
 10906 25f7 08260000 		.4byte	0x2608
 10907 25fb 2A       		.uleb128 0x2a
 10908 25fc 01       		.uleb128 0x1
 10909 25fd 50       		.byte	0x50
 10910 25fe 02       		.uleb128 0x2
 10911 25ff 75       		.byte	0x75
 10912 2600 00       		.sleb128 0
 10913 2601 2A       		.uleb128 0x2a
 10914 2602 01       		.uleb128 0x1
 10915 2603 51       		.byte	0x51
 10916 2604 02       		.uleb128 0x2
 10917 2605 76       		.byte	0x76
 10918 2606 00       		.sleb128 0
 10919 2607 00       		.byte	0
 10920 2608 29       		.uleb128 0x29
 10921 2609 18010000 		.4byte	.LVL415
 10922 260d 895E0000 		.4byte	0x5e89
 10923 2611 22260000 		.4byte	0x2622
 10924 2615 2A       		.uleb128 0x2a
 10925 2616 01       		.uleb128 0x1
 10926 2617 50       		.byte	0x50
 10927 2618 02       		.uleb128 0x2
 10928 2619 75       		.byte	0x75
 10929 261a 00       		.sleb128 0
 10930 261b 2A       		.uleb128 0x2a
 10931 261c 01       		.uleb128 0x1
 10932 261d 51       		.byte	0x51
 10933 261e 02       		.uleb128 0x2
 10934 261f 76       		.byte	0x76
 10935 2620 00       		.sleb128 0
 10936 2621 00       		.byte	0
 10937 2622 29       		.uleb128 0x29
 10938 2623 24010000 		.4byte	.LVL416
 10939 2627 895E0000 		.4byte	0x5e89
 10940 262b 3C260000 		.4byte	0x263c
 10941 262f 2A       		.uleb128 0x2a
 10942 2630 01       		.uleb128 0x1
 10943 2631 50       		.byte	0x50
 10944 2632 02       		.uleb128 0x2
ARM GAS  /tmp/cc4M9ACW.s 			page 193


 10945 2633 75       		.byte	0x75
 10946 2634 00       		.sleb128 0
 10947 2635 2A       		.uleb128 0x2a
 10948 2636 01       		.uleb128 0x1
 10949 2637 51       		.byte	0x51
 10950 2638 02       		.uleb128 0x2
 10951 2639 76       		.byte	0x76
 10952 263a 00       		.sleb128 0
 10953 263b 00       		.byte	0
 10954 263c 29       		.uleb128 0x29
 10955 263d 3C010000 		.4byte	.LVL417
 10956 2641 895E0000 		.4byte	0x5e89
 10957 2645 56260000 		.4byte	0x2656
 10958 2649 2A       		.uleb128 0x2a
 10959 264a 01       		.uleb128 0x1
 10960 264b 50       		.byte	0x50
 10961 264c 02       		.uleb128 0x2
 10962 264d 75       		.byte	0x75
 10963 264e 00       		.sleb128 0
 10964 264f 2A       		.uleb128 0x2a
 10965 2650 01       		.uleb128 0x1
 10966 2651 51       		.byte	0x51
 10967 2652 02       		.uleb128 0x2
 10968 2653 76       		.byte	0x76
 10969 2654 00       		.sleb128 0
 10970 2655 00       		.byte	0
 10971 2656 29       		.uleb128 0x29
 10972 2657 48010000 		.4byte	.LVL418
 10973 265b 895E0000 		.4byte	0x5e89
 10974 265f 70260000 		.4byte	0x2670
 10975 2663 2A       		.uleb128 0x2a
 10976 2664 01       		.uleb128 0x1
 10977 2665 50       		.byte	0x50
 10978 2666 02       		.uleb128 0x2
 10979 2667 75       		.byte	0x75
 10980 2668 00       		.sleb128 0
 10981 2669 2A       		.uleb128 0x2a
 10982 266a 01       		.uleb128 0x1
 10983 266b 51       		.byte	0x51
 10984 266c 02       		.uleb128 0x2
 10985 266d 76       		.byte	0x76
 10986 266e 00       		.sleb128 0
 10987 266f 00       		.byte	0
 10988 2670 29       		.uleb128 0x29
 10989 2671 76010000 		.4byte	.LVL419
 10990 2675 895E0000 		.4byte	0x5e89
 10991 2679 8A260000 		.4byte	0x268a
 10992 267d 2A       		.uleb128 0x2a
 10993 267e 01       		.uleb128 0x1
 10994 267f 50       		.byte	0x50
 10995 2680 02       		.uleb128 0x2
 10996 2681 75       		.byte	0x75
 10997 2682 00       		.sleb128 0
 10998 2683 2A       		.uleb128 0x2a
 10999 2684 01       		.uleb128 0x1
 11000 2685 51       		.byte	0x51
 11001 2686 02       		.uleb128 0x2
ARM GAS  /tmp/cc4M9ACW.s 			page 194


 11002 2687 76       		.byte	0x76
 11003 2688 00       		.sleb128 0
 11004 2689 00       		.byte	0
 11005 268a 29       		.uleb128 0x29
 11006 268b 86010000 		.4byte	.LVL420
 11007 268f 9F5E0000 		.4byte	0x5e9f
 11008 2693 B0260000 		.4byte	0x26b0
 11009 2697 2A       		.uleb128 0x2a
 11010 2698 01       		.uleb128 0x1
 11011 2699 50       		.byte	0x50
 11012 269a 02       		.uleb128 0x2
 11013 269b 75       		.byte	0x75
 11014 269c 00       		.sleb128 0
 11015 269d 2A       		.uleb128 0x2a
 11016 269e 02       		.uleb128 0x2
 11017 269f 90       		.byte	0x90
 11018 26a0 40       		.uleb128 0x40
 11019 26a1 07       		.uleb128 0x7
 11020 26a2 F4       		.byte	0xf4
 11021 26a3 25       		.uleb128 0x25
 11022 26a4 04       		.byte	0x4
 11023 26a5 0000803F 		.4byte	0x3f800000
 11024 26a9 2A       		.uleb128 0x2a
 11025 26aa 01       		.uleb128 0x1
 11026 26ab 51       		.byte	0x51
 11027 26ac 02       		.uleb128 0x2
 11028 26ad 76       		.byte	0x76
 11029 26ae 00       		.sleb128 0
 11030 26af 00       		.byte	0
 11031 26b0 29       		.uleb128 0x29
 11032 26b1 92010000 		.4byte	.LVL421
 11033 26b5 895E0000 		.4byte	0x5e89
 11034 26b9 CA260000 		.4byte	0x26ca
 11035 26bd 2A       		.uleb128 0x2a
 11036 26be 01       		.uleb128 0x1
 11037 26bf 50       		.byte	0x50
 11038 26c0 02       		.uleb128 0x2
 11039 26c1 75       		.byte	0x75
 11040 26c2 00       		.sleb128 0
 11041 26c3 2A       		.uleb128 0x2a
 11042 26c4 01       		.uleb128 0x1
 11043 26c5 51       		.byte	0x51
 11044 26c6 02       		.uleb128 0x2
 11045 26c7 76       		.byte	0x76
 11046 26c8 00       		.sleb128 0
 11047 26c9 00       		.byte	0
 11048 26ca 29       		.uleb128 0x29
 11049 26cb 9E010000 		.4byte	.LVL422
 11050 26cf 895E0000 		.4byte	0x5e89
 11051 26d3 E4260000 		.4byte	0x26e4
 11052 26d7 2A       		.uleb128 0x2a
 11053 26d8 01       		.uleb128 0x1
 11054 26d9 50       		.byte	0x50
 11055 26da 02       		.uleb128 0x2
 11056 26db 75       		.byte	0x75
 11057 26dc 00       		.sleb128 0
 11058 26dd 2A       		.uleb128 0x2a
ARM GAS  /tmp/cc4M9ACW.s 			page 195


 11059 26de 01       		.uleb128 0x1
 11060 26df 51       		.byte	0x51
 11061 26e0 02       		.uleb128 0x2
 11062 26e1 76       		.byte	0x76
 11063 26e2 00       		.sleb128 0
 11064 26e3 00       		.byte	0
 11065 26e4 29       		.uleb128 0x29
 11066 26e5 B6010000 		.4byte	.LVL423
 11067 26e9 895E0000 		.4byte	0x5e89
 11068 26ed FE260000 		.4byte	0x26fe
 11069 26f1 2A       		.uleb128 0x2a
 11070 26f2 01       		.uleb128 0x1
 11071 26f3 50       		.byte	0x50
 11072 26f4 02       		.uleb128 0x2
 11073 26f5 75       		.byte	0x75
 11074 26f6 00       		.sleb128 0
 11075 26f7 2A       		.uleb128 0x2a
 11076 26f8 01       		.uleb128 0x1
 11077 26f9 51       		.byte	0x51
 11078 26fa 02       		.uleb128 0x2
 11079 26fb 76       		.byte	0x76
 11080 26fc 00       		.sleb128 0
 11081 26fd 00       		.byte	0
 11082 26fe 29       		.uleb128 0x29
 11083 26ff C2010000 		.4byte	.LVL424
 11084 2703 895E0000 		.4byte	0x5e89
 11085 2707 18270000 		.4byte	0x2718
 11086 270b 2A       		.uleb128 0x2a
 11087 270c 01       		.uleb128 0x1
 11088 270d 50       		.byte	0x50
 11089 270e 02       		.uleb128 0x2
 11090 270f 75       		.byte	0x75
 11091 2710 00       		.sleb128 0
 11092 2711 2A       		.uleb128 0x2a
 11093 2712 01       		.uleb128 0x1
 11094 2713 51       		.byte	0x51
 11095 2714 02       		.uleb128 0x2
 11096 2715 76       		.byte	0x76
 11097 2716 00       		.sleb128 0
 11098 2717 00       		.byte	0
 11099 2718 29       		.uleb128 0x29
 11100 2719 CE010000 		.4byte	.LVL425
 11101 271d 895E0000 		.4byte	0x5e89
 11102 2721 32270000 		.4byte	0x2732
 11103 2725 2A       		.uleb128 0x2a
 11104 2726 01       		.uleb128 0x1
 11105 2727 50       		.byte	0x50
 11106 2728 02       		.uleb128 0x2
 11107 2729 75       		.byte	0x75
 11108 272a 00       		.sleb128 0
 11109 272b 2A       		.uleb128 0x2a
 11110 272c 01       		.uleb128 0x1
 11111 272d 51       		.byte	0x51
 11112 272e 02       		.uleb128 0x2
 11113 272f 76       		.byte	0x76
 11114 2730 00       		.sleb128 0
 11115 2731 00       		.byte	0
ARM GAS  /tmp/cc4M9ACW.s 			page 196


 11116 2732 29       		.uleb128 0x29
 11117 2733 DA010000 		.4byte	.LVL426
 11118 2737 895E0000 		.4byte	0x5e89
 11119 273b 4C270000 		.4byte	0x274c
 11120 273f 2A       		.uleb128 0x2a
 11121 2740 01       		.uleb128 0x1
 11122 2741 50       		.byte	0x50
 11123 2742 02       		.uleb128 0x2
 11124 2743 75       		.byte	0x75
 11125 2744 00       		.sleb128 0
 11126 2745 2A       		.uleb128 0x2a
 11127 2746 01       		.uleb128 0x1
 11128 2747 51       		.byte	0x51
 11129 2748 02       		.uleb128 0x2
 11130 2749 76       		.byte	0x76
 11131 274a 00       		.sleb128 0
 11132 274b 00       		.byte	0
 11133 274c 29       		.uleb128 0x29
 11134 274d E6010000 		.4byte	.LVL427
 11135 2751 895E0000 		.4byte	0x5e89
 11136 2755 66270000 		.4byte	0x2766
 11137 2759 2A       		.uleb128 0x2a
 11138 275a 01       		.uleb128 0x1
 11139 275b 50       		.byte	0x50
 11140 275c 02       		.uleb128 0x2
 11141 275d 75       		.byte	0x75
 11142 275e 00       		.sleb128 0
 11143 275f 2A       		.uleb128 0x2a
 11144 2760 01       		.uleb128 0x1
 11145 2761 51       		.byte	0x51
 11146 2762 02       		.uleb128 0x2
 11147 2763 76       		.byte	0x76
 11148 2764 00       		.sleb128 0
 11149 2765 00       		.byte	0
 11150 2766 29       		.uleb128 0x29
 11151 2767 F2010000 		.4byte	.LVL428
 11152 276b 895E0000 		.4byte	0x5e89
 11153 276f 80270000 		.4byte	0x2780
 11154 2773 2A       		.uleb128 0x2a
 11155 2774 01       		.uleb128 0x1
 11156 2775 50       		.byte	0x50
 11157 2776 02       		.uleb128 0x2
 11158 2777 75       		.byte	0x75
 11159 2778 00       		.sleb128 0
 11160 2779 2A       		.uleb128 0x2a
 11161 277a 01       		.uleb128 0x1
 11162 277b 51       		.byte	0x51
 11163 277c 02       		.uleb128 0x2
 11164 277d 76       		.byte	0x76
 11165 277e 00       		.sleb128 0
 11166 277f 00       		.byte	0
 11167 2780 29       		.uleb128 0x29
 11168 2781 4A020000 		.4byte	.LVL429
 11169 2785 895E0000 		.4byte	0x5e89
 11170 2789 9A270000 		.4byte	0x279a
 11171 278d 2A       		.uleb128 0x2a
 11172 278e 01       		.uleb128 0x1
ARM GAS  /tmp/cc4M9ACW.s 			page 197


 11173 278f 50       		.byte	0x50
 11174 2790 02       		.uleb128 0x2
 11175 2791 75       		.byte	0x75
 11176 2792 00       		.sleb128 0
 11177 2793 2A       		.uleb128 0x2a
 11178 2794 01       		.uleb128 0x1
 11179 2795 51       		.byte	0x51
 11180 2796 02       		.uleb128 0x2
 11181 2797 76       		.byte	0x76
 11182 2798 00       		.sleb128 0
 11183 2799 00       		.byte	0
 11184 279a 29       		.uleb128 0x29
 11185 279b 56020000 		.4byte	.LVL430
 11186 279f 895E0000 		.4byte	0x5e89
 11187 27a3 B4270000 		.4byte	0x27b4
 11188 27a7 2A       		.uleb128 0x2a
 11189 27a8 01       		.uleb128 0x1
 11190 27a9 50       		.byte	0x50
 11191 27aa 02       		.uleb128 0x2
 11192 27ab 75       		.byte	0x75
 11193 27ac 00       		.sleb128 0
 11194 27ad 2A       		.uleb128 0x2a
 11195 27ae 01       		.uleb128 0x1
 11196 27af 51       		.byte	0x51
 11197 27b0 02       		.uleb128 0x2
 11198 27b1 76       		.byte	0x76
 11199 27b2 00       		.sleb128 0
 11200 27b3 00       		.byte	0
 11201 27b4 29       		.uleb128 0x29
 11202 27b5 6E020000 		.4byte	.LVL431
 11203 27b9 895E0000 		.4byte	0x5e89
 11204 27bd CE270000 		.4byte	0x27ce
 11205 27c1 2A       		.uleb128 0x2a
 11206 27c2 01       		.uleb128 0x1
 11207 27c3 50       		.byte	0x50
 11208 27c4 02       		.uleb128 0x2
 11209 27c5 75       		.byte	0x75
 11210 27c6 00       		.sleb128 0
 11211 27c7 2A       		.uleb128 0x2a
 11212 27c8 01       		.uleb128 0x1
 11213 27c9 51       		.byte	0x51
 11214 27ca 02       		.uleb128 0x2
 11215 27cb 76       		.byte	0x76
 11216 27cc 00       		.sleb128 0
 11217 27cd 00       		.byte	0
 11218 27ce 29       		.uleb128 0x29
 11219 27cf 7A020000 		.4byte	.LVL432
 11220 27d3 895E0000 		.4byte	0x5e89
 11221 27d7 E8270000 		.4byte	0x27e8
 11222 27db 2A       		.uleb128 0x2a
 11223 27dc 01       		.uleb128 0x1
 11224 27dd 50       		.byte	0x50
 11225 27de 02       		.uleb128 0x2
 11226 27df 75       		.byte	0x75
 11227 27e0 00       		.sleb128 0
 11228 27e1 2A       		.uleb128 0x2a
 11229 27e2 01       		.uleb128 0x1
ARM GAS  /tmp/cc4M9ACW.s 			page 198


 11230 27e3 51       		.byte	0x51
 11231 27e4 02       		.uleb128 0x2
 11232 27e5 76       		.byte	0x76
 11233 27e6 00       		.sleb128 0
 11234 27e7 00       		.byte	0
 11235 27e8 29       		.uleb128 0x29
 11236 27e9 A8020000 		.4byte	.LVL433
 11237 27ed 895E0000 		.4byte	0x5e89
 11238 27f1 02280000 		.4byte	0x2802
 11239 27f5 2A       		.uleb128 0x2a
 11240 27f6 01       		.uleb128 0x1
 11241 27f7 50       		.byte	0x50
 11242 27f8 02       		.uleb128 0x2
 11243 27f9 75       		.byte	0x75
 11244 27fa 00       		.sleb128 0
 11245 27fb 2A       		.uleb128 0x2a
 11246 27fc 01       		.uleb128 0x1
 11247 27fd 51       		.byte	0x51
 11248 27fe 02       		.uleb128 0x2
 11249 27ff 76       		.byte	0x76
 11250 2800 00       		.sleb128 0
 11251 2801 00       		.byte	0
 11252 2802 29       		.uleb128 0x29
 11253 2803 B4020000 		.4byte	.LVL434
 11254 2807 945E0000 		.4byte	0x5e94
 11255 280b 1C280000 		.4byte	0x281c
 11256 280f 2A       		.uleb128 0x2a
 11257 2810 01       		.uleb128 0x1
 11258 2811 50       		.byte	0x50
 11259 2812 02       		.uleb128 0x2
 11260 2813 75       		.byte	0x75
 11261 2814 00       		.sleb128 0
 11262 2815 2A       		.uleb128 0x2a
 11263 2816 01       		.uleb128 0x1
 11264 2817 51       		.byte	0x51
 11265 2818 02       		.uleb128 0x2
 11266 2819 76       		.byte	0x76
 11267 281a 00       		.sleb128 0
 11268 281b 00       		.byte	0
 11269 281c 29       		.uleb128 0x29
 11270 281d C0020000 		.4byte	.LVL435
 11271 2821 7E5E0000 		.4byte	0x5e7e
 11272 2825 36280000 		.4byte	0x2836
 11273 2829 2A       		.uleb128 0x2a
 11274 282a 01       		.uleb128 0x1
 11275 282b 50       		.byte	0x50
 11276 282c 02       		.uleb128 0x2
 11277 282d 75       		.byte	0x75
 11278 282e 00       		.sleb128 0
 11279 282f 2A       		.uleb128 0x2a
 11280 2830 01       		.uleb128 0x1
 11281 2831 51       		.byte	0x51
 11282 2832 02       		.uleb128 0x2
 11283 2833 76       		.byte	0x76
 11284 2834 00       		.sleb128 0
 11285 2835 00       		.byte	0
 11286 2836 29       		.uleb128 0x29
ARM GAS  /tmp/cc4M9ACW.s 			page 199


 11287 2837 D8020000 		.4byte	.LVL436
 11288 283b 895E0000 		.4byte	0x5e89
 11289 283f 50280000 		.4byte	0x2850
 11290 2843 2A       		.uleb128 0x2a
 11291 2844 01       		.uleb128 0x1
 11292 2845 50       		.byte	0x50
 11293 2846 02       		.uleb128 0x2
 11294 2847 75       		.byte	0x75
 11295 2848 00       		.sleb128 0
 11296 2849 2A       		.uleb128 0x2a
 11297 284a 01       		.uleb128 0x1
 11298 284b 51       		.byte	0x51
 11299 284c 02       		.uleb128 0x2
 11300 284d 76       		.byte	0x76
 11301 284e 00       		.sleb128 0
 11302 284f 00       		.byte	0
 11303 2850 29       		.uleb128 0x29
 11304 2851 E4020000 		.4byte	.LVL437
 11305 2855 895E0000 		.4byte	0x5e89
 11306 2859 6A280000 		.4byte	0x286a
 11307 285d 2A       		.uleb128 0x2a
 11308 285e 01       		.uleb128 0x1
 11309 285f 50       		.byte	0x50
 11310 2860 02       		.uleb128 0x2
 11311 2861 75       		.byte	0x75
 11312 2862 00       		.sleb128 0
 11313 2863 2A       		.uleb128 0x2a
 11314 2864 01       		.uleb128 0x1
 11315 2865 51       		.byte	0x51
 11316 2866 02       		.uleb128 0x2
 11317 2867 76       		.byte	0x76
 11318 2868 00       		.sleb128 0
 11319 2869 00       		.byte	0
 11320 286a 29       		.uleb128 0x29
 11321 286b F0020000 		.4byte	.LVL438
 11322 286f 895E0000 		.4byte	0x5e89
 11323 2873 84280000 		.4byte	0x2884
 11324 2877 2A       		.uleb128 0x2a
 11325 2878 01       		.uleb128 0x1
 11326 2879 50       		.byte	0x50
 11327 287a 02       		.uleb128 0x2
 11328 287b 75       		.byte	0x75
 11329 287c 00       		.sleb128 0
 11330 287d 2A       		.uleb128 0x2a
 11331 287e 01       		.uleb128 0x1
 11332 287f 51       		.byte	0x51
 11333 2880 02       		.uleb128 0x2
 11334 2881 76       		.byte	0x76
 11335 2882 00       		.sleb128 0
 11336 2883 00       		.byte	0
 11337 2884 29       		.uleb128 0x29
 11338 2885 FC020000 		.4byte	.LVL439
 11339 2889 895E0000 		.4byte	0x5e89
 11340 288d 9E280000 		.4byte	0x289e
 11341 2891 2A       		.uleb128 0x2a
 11342 2892 01       		.uleb128 0x1
 11343 2893 50       		.byte	0x50
ARM GAS  /tmp/cc4M9ACW.s 			page 200


 11344 2894 02       		.uleb128 0x2
 11345 2895 75       		.byte	0x75
 11346 2896 00       		.sleb128 0
 11347 2897 2A       		.uleb128 0x2a
 11348 2898 01       		.uleb128 0x1
 11349 2899 51       		.byte	0x51
 11350 289a 02       		.uleb128 0x2
 11351 289b 76       		.byte	0x76
 11352 289c 00       		.sleb128 0
 11353 289d 00       		.byte	0
 11354 289e 29       		.uleb128 0x29
 11355 289f 08030000 		.4byte	.LVL440
 11356 28a3 895E0000 		.4byte	0x5e89
 11357 28a7 B8280000 		.4byte	0x28b8
 11358 28ab 2A       		.uleb128 0x2a
 11359 28ac 01       		.uleb128 0x1
 11360 28ad 50       		.byte	0x50
 11361 28ae 02       		.uleb128 0x2
 11362 28af 75       		.byte	0x75
 11363 28b0 00       		.sleb128 0
 11364 28b1 2A       		.uleb128 0x2a
 11365 28b2 01       		.uleb128 0x1
 11366 28b3 51       		.byte	0x51
 11367 28b4 02       		.uleb128 0x2
 11368 28b5 76       		.byte	0x76
 11369 28b6 00       		.sleb128 0
 11370 28b7 00       		.byte	0
 11371 28b8 29       		.uleb128 0x29
 11372 28b9 14030000 		.4byte	.LVL441
 11373 28bd 895E0000 		.4byte	0x5e89
 11374 28c1 D2280000 		.4byte	0x28d2
 11375 28c5 2A       		.uleb128 0x2a
 11376 28c6 01       		.uleb128 0x1
 11377 28c7 50       		.byte	0x50
 11378 28c8 02       		.uleb128 0x2
 11379 28c9 75       		.byte	0x75
 11380 28ca 00       		.sleb128 0
 11381 28cb 2A       		.uleb128 0x2a
 11382 28cc 01       		.uleb128 0x1
 11383 28cd 51       		.byte	0x51
 11384 28ce 02       		.uleb128 0x2
 11385 28cf 76       		.byte	0x76
 11386 28d0 00       		.sleb128 0
 11387 28d1 00       		.byte	0
 11388 28d2 29       		.uleb128 0x29
 11389 28d3 46030000 		.4byte	.LVL442
 11390 28d7 895E0000 		.4byte	0x5e89
 11391 28db EC280000 		.4byte	0x28ec
 11392 28df 2A       		.uleb128 0x2a
 11393 28e0 01       		.uleb128 0x1
 11394 28e1 50       		.byte	0x50
 11395 28e2 02       		.uleb128 0x2
 11396 28e3 75       		.byte	0x75
 11397 28e4 00       		.sleb128 0
 11398 28e5 2A       		.uleb128 0x2a
 11399 28e6 01       		.uleb128 0x1
 11400 28e7 51       		.byte	0x51
ARM GAS  /tmp/cc4M9ACW.s 			page 201


 11401 28e8 02       		.uleb128 0x2
 11402 28e9 76       		.byte	0x76
 11403 28ea 00       		.sleb128 0
 11404 28eb 00       		.byte	0
 11405 28ec 29       		.uleb128 0x29
 11406 28ed 64030000 		.4byte	.LVL443
 11407 28f1 895E0000 		.4byte	0x5e89
 11408 28f5 06290000 		.4byte	0x2906
 11409 28f9 2A       		.uleb128 0x2a
 11410 28fa 01       		.uleb128 0x1
 11411 28fb 50       		.byte	0x50
 11412 28fc 02       		.uleb128 0x2
 11413 28fd 75       		.byte	0x75
 11414 28fe 00       		.sleb128 0
 11415 28ff 2A       		.uleb128 0x2a
 11416 2900 01       		.uleb128 0x1
 11417 2901 51       		.byte	0x51
 11418 2902 02       		.uleb128 0x2
 11419 2903 76       		.byte	0x76
 11420 2904 00       		.sleb128 0
 11421 2905 00       		.byte	0
 11422 2906 29       		.uleb128 0x29
 11423 2907 70030000 		.4byte	.LVL444
 11424 290b 895E0000 		.4byte	0x5e89
 11425 290f 20290000 		.4byte	0x2920
 11426 2913 2A       		.uleb128 0x2a
 11427 2914 01       		.uleb128 0x1
 11428 2915 50       		.byte	0x50
 11429 2916 02       		.uleb128 0x2
 11430 2917 75       		.byte	0x75
 11431 2918 00       		.sleb128 0
 11432 2919 2A       		.uleb128 0x2a
 11433 291a 01       		.uleb128 0x1
 11434 291b 51       		.byte	0x51
 11435 291c 02       		.uleb128 0x2
 11436 291d 76       		.byte	0x76
 11437 291e 00       		.sleb128 0
 11438 291f 00       		.byte	0
 11439 2920 29       		.uleb128 0x29
 11440 2921 C6030000 		.4byte	.LVL445
 11441 2925 895E0000 		.4byte	0x5e89
 11442 2929 3A290000 		.4byte	0x293a
 11443 292d 2A       		.uleb128 0x2a
 11444 292e 01       		.uleb128 0x1
 11445 292f 50       		.byte	0x50
 11446 2930 02       		.uleb128 0x2
 11447 2931 75       		.byte	0x75
 11448 2932 00       		.sleb128 0
 11449 2933 2A       		.uleb128 0x2a
 11450 2934 01       		.uleb128 0x1
 11451 2935 51       		.byte	0x51
 11452 2936 02       		.uleb128 0x2
 11453 2937 76       		.byte	0x76
 11454 2938 00       		.sleb128 0
 11455 2939 00       		.byte	0
 11456 293a 29       		.uleb128 0x29
 11457 293b D2030000 		.4byte	.LVL446
ARM GAS  /tmp/cc4M9ACW.s 			page 202


 11458 293f 895E0000 		.4byte	0x5e89
 11459 2943 54290000 		.4byte	0x2954
 11460 2947 2A       		.uleb128 0x2a
 11461 2948 01       		.uleb128 0x1
 11462 2949 50       		.byte	0x50
 11463 294a 02       		.uleb128 0x2
 11464 294b 75       		.byte	0x75
 11465 294c 00       		.sleb128 0
 11466 294d 2A       		.uleb128 0x2a
 11467 294e 01       		.uleb128 0x1
 11468 294f 51       		.byte	0x51
 11469 2950 02       		.uleb128 0x2
 11470 2951 76       		.byte	0x76
 11471 2952 00       		.sleb128 0
 11472 2953 00       		.byte	0
 11473 2954 29       		.uleb128 0x29
 11474 2955 DE030000 		.4byte	.LVL447
 11475 2959 895E0000 		.4byte	0x5e89
 11476 295d 6E290000 		.4byte	0x296e
 11477 2961 2A       		.uleb128 0x2a
 11478 2962 01       		.uleb128 0x1
 11479 2963 50       		.byte	0x50
 11480 2964 02       		.uleb128 0x2
 11481 2965 75       		.byte	0x75
 11482 2966 00       		.sleb128 0
 11483 2967 2A       		.uleb128 0x2a
 11484 2968 01       		.uleb128 0x1
 11485 2969 51       		.byte	0x51
 11486 296a 02       		.uleb128 0x2
 11487 296b 76       		.byte	0x76
 11488 296c 00       		.sleb128 0
 11489 296d 00       		.byte	0
 11490 296e 29       		.uleb128 0x29
 11491 296f EA030000 		.4byte	.LVL448
 11492 2973 945E0000 		.4byte	0x5e94
 11493 2977 88290000 		.4byte	0x2988
 11494 297b 2A       		.uleb128 0x2a
 11495 297c 01       		.uleb128 0x1
 11496 297d 50       		.byte	0x50
 11497 297e 02       		.uleb128 0x2
 11498 297f 75       		.byte	0x75
 11499 2980 00       		.sleb128 0
 11500 2981 2A       		.uleb128 0x2a
 11501 2982 01       		.uleb128 0x1
 11502 2983 51       		.byte	0x51
 11503 2984 02       		.uleb128 0x2
 11504 2985 76       		.byte	0x76
 11505 2986 00       		.sleb128 0
 11506 2987 00       		.byte	0
 11507 2988 29       		.uleb128 0x29
 11508 2989 F6030000 		.4byte	.LVL449
 11509 298d 945E0000 		.4byte	0x5e94
 11510 2991 A2290000 		.4byte	0x29a2
 11511 2995 2A       		.uleb128 0x2a
 11512 2996 01       		.uleb128 0x1
 11513 2997 50       		.byte	0x50
 11514 2998 02       		.uleb128 0x2
ARM GAS  /tmp/cc4M9ACW.s 			page 203


 11515 2999 75       		.byte	0x75
 11516 299a 00       		.sleb128 0
 11517 299b 2A       		.uleb128 0x2a
 11518 299c 01       		.uleb128 0x1
 11519 299d 51       		.byte	0x51
 11520 299e 02       		.uleb128 0x2
 11521 299f 76       		.byte	0x76
 11522 29a0 00       		.sleb128 0
 11523 29a1 00       		.byte	0
 11524 29a2 29       		.uleb128 0x29
 11525 29a3 02040000 		.4byte	.LVL450
 11526 29a7 895E0000 		.4byte	0x5e89
 11527 29ab BC290000 		.4byte	0x29bc
 11528 29af 2A       		.uleb128 0x2a
 11529 29b0 01       		.uleb128 0x1
 11530 29b1 50       		.byte	0x50
 11531 29b2 02       		.uleb128 0x2
 11532 29b3 75       		.byte	0x75
 11533 29b4 00       		.sleb128 0
 11534 29b5 2A       		.uleb128 0x2a
 11535 29b6 01       		.uleb128 0x1
 11536 29b7 51       		.byte	0x51
 11537 29b8 02       		.uleb128 0x2
 11538 29b9 76       		.byte	0x76
 11539 29ba 00       		.sleb128 0
 11540 29bb 00       		.byte	0
 11541 29bc 29       		.uleb128 0x29
 11542 29bd 0E040000 		.4byte	.LVL451
 11543 29c1 895E0000 		.4byte	0x5e89
 11544 29c5 D6290000 		.4byte	0x29d6
 11545 29c9 2A       		.uleb128 0x2a
 11546 29ca 01       		.uleb128 0x1
 11547 29cb 50       		.byte	0x50
 11548 29cc 02       		.uleb128 0x2
 11549 29cd 75       		.byte	0x75
 11550 29ce 00       		.sleb128 0
 11551 29cf 2A       		.uleb128 0x2a
 11552 29d0 01       		.uleb128 0x1
 11553 29d1 51       		.byte	0x51
 11554 29d2 02       		.uleb128 0x2
 11555 29d3 76       		.byte	0x76
 11556 29d4 00       		.sleb128 0
 11557 29d5 00       		.byte	0
 11558 29d6 29       		.uleb128 0x29
 11559 29d7 1A040000 		.4byte	.LVL452
 11560 29db 895E0000 		.4byte	0x5e89
 11561 29df F0290000 		.4byte	0x29f0
 11562 29e3 2A       		.uleb128 0x2a
 11563 29e4 01       		.uleb128 0x1
 11564 29e5 50       		.byte	0x50
 11565 29e6 02       		.uleb128 0x2
 11566 29e7 75       		.byte	0x75
 11567 29e8 00       		.sleb128 0
 11568 29e9 2A       		.uleb128 0x2a
 11569 29ea 01       		.uleb128 0x1
 11570 29eb 51       		.byte	0x51
 11571 29ec 02       		.uleb128 0x2
ARM GAS  /tmp/cc4M9ACW.s 			page 204


 11572 29ed 76       		.byte	0x76
 11573 29ee 00       		.sleb128 0
 11574 29ef 00       		.byte	0
 11575 29f0 29       		.uleb128 0x29
 11576 29f1 26040000 		.4byte	.LVL453
 11577 29f5 895E0000 		.4byte	0x5e89
 11578 29f9 0A2A0000 		.4byte	0x2a0a
 11579 29fd 2A       		.uleb128 0x2a
 11580 29fe 01       		.uleb128 0x1
 11581 29ff 50       		.byte	0x50
 11582 2a00 02       		.uleb128 0x2
 11583 2a01 75       		.byte	0x75
 11584 2a02 00       		.sleb128 0
 11585 2a03 2A       		.uleb128 0x2a
 11586 2a04 01       		.uleb128 0x1
 11587 2a05 51       		.byte	0x51
 11588 2a06 02       		.uleb128 0x2
 11589 2a07 76       		.byte	0x76
 11590 2a08 00       		.sleb128 0
 11591 2a09 00       		.byte	0
 11592 2a0a 29       		.uleb128 0x29
 11593 2a0b 32040000 		.4byte	.LVL454
 11594 2a0f 895E0000 		.4byte	0x5e89
 11595 2a13 242A0000 		.4byte	0x2a24
 11596 2a17 2A       		.uleb128 0x2a
 11597 2a18 01       		.uleb128 0x1
 11598 2a19 50       		.byte	0x50
 11599 2a1a 02       		.uleb128 0x2
 11600 2a1b 75       		.byte	0x75
 11601 2a1c 00       		.sleb128 0
 11602 2a1d 2A       		.uleb128 0x2a
 11603 2a1e 01       		.uleb128 0x1
 11604 2a1f 51       		.byte	0x51
 11605 2a20 02       		.uleb128 0x2
 11606 2a21 76       		.byte	0x76
 11607 2a22 00       		.sleb128 0
 11608 2a23 00       		.byte	0
 11609 2a24 29       		.uleb128 0x29
 11610 2a25 3E040000 		.4byte	.LVL455
 11611 2a29 945E0000 		.4byte	0x5e94
 11612 2a2d 3E2A0000 		.4byte	0x2a3e
 11613 2a31 2A       		.uleb128 0x2a
 11614 2a32 01       		.uleb128 0x1
 11615 2a33 50       		.byte	0x50
 11616 2a34 02       		.uleb128 0x2
 11617 2a35 75       		.byte	0x75
 11618 2a36 00       		.sleb128 0
 11619 2a37 2A       		.uleb128 0x2a
 11620 2a38 01       		.uleb128 0x1
 11621 2a39 51       		.byte	0x51
 11622 2a3a 02       		.uleb128 0x2
 11623 2a3b 76       		.byte	0x76
 11624 2a3c 00       		.sleb128 0
 11625 2a3d 00       		.byte	0
 11626 2a3e 29       		.uleb128 0x29
 11627 2a3f 4A040000 		.4byte	.LVL456
 11628 2a43 945E0000 		.4byte	0x5e94
ARM GAS  /tmp/cc4M9ACW.s 			page 205


 11629 2a47 582A0000 		.4byte	0x2a58
 11630 2a4b 2A       		.uleb128 0x2a
 11631 2a4c 01       		.uleb128 0x1
 11632 2a4d 50       		.byte	0x50
 11633 2a4e 02       		.uleb128 0x2
 11634 2a4f 75       		.byte	0x75
 11635 2a50 00       		.sleb128 0
 11636 2a51 2A       		.uleb128 0x2a
 11637 2a52 01       		.uleb128 0x1
 11638 2a53 51       		.byte	0x51
 11639 2a54 02       		.uleb128 0x2
 11640 2a55 76       		.byte	0x76
 11641 2a56 00       		.sleb128 0
 11642 2a57 00       		.byte	0
 11643 2a58 29       		.uleb128 0x29
 11644 2a59 56040000 		.4byte	.LVL457
 11645 2a5d 945E0000 		.4byte	0x5e94
 11646 2a61 722A0000 		.4byte	0x2a72
 11647 2a65 2A       		.uleb128 0x2a
 11648 2a66 01       		.uleb128 0x1
 11649 2a67 50       		.byte	0x50
 11650 2a68 02       		.uleb128 0x2
 11651 2a69 75       		.byte	0x75
 11652 2a6a 00       		.sleb128 0
 11653 2a6b 2A       		.uleb128 0x2a
 11654 2a6c 01       		.uleb128 0x1
 11655 2a6d 51       		.byte	0x51
 11656 2a6e 02       		.uleb128 0x2
 11657 2a6f 76       		.byte	0x76
 11658 2a70 00       		.sleb128 0
 11659 2a71 00       		.byte	0
 11660 2a72 29       		.uleb128 0x29
 11661 2a73 62040000 		.4byte	.LVL458
 11662 2a77 945E0000 		.4byte	0x5e94
 11663 2a7b 8C2A0000 		.4byte	0x2a8c
 11664 2a7f 2A       		.uleb128 0x2a
 11665 2a80 01       		.uleb128 0x1
 11666 2a81 50       		.byte	0x50
 11667 2a82 02       		.uleb128 0x2
 11668 2a83 75       		.byte	0x75
 11669 2a84 00       		.sleb128 0
 11670 2a85 2A       		.uleb128 0x2a
 11671 2a86 01       		.uleb128 0x1
 11672 2a87 51       		.byte	0x51
 11673 2a88 02       		.uleb128 0x2
 11674 2a89 76       		.byte	0x76
 11675 2a8a 00       		.sleb128 0
 11676 2a8b 00       		.byte	0
 11677 2a8c 29       		.uleb128 0x29
 11678 2a8d 6E040000 		.4byte	.LVL459
 11679 2a91 945E0000 		.4byte	0x5e94
 11680 2a95 A62A0000 		.4byte	0x2aa6
 11681 2a99 2A       		.uleb128 0x2a
 11682 2a9a 01       		.uleb128 0x1
 11683 2a9b 50       		.byte	0x50
 11684 2a9c 02       		.uleb128 0x2
 11685 2a9d 75       		.byte	0x75
ARM GAS  /tmp/cc4M9ACW.s 			page 206


 11686 2a9e 00       		.sleb128 0
 11687 2a9f 2A       		.uleb128 0x2a
 11688 2aa0 01       		.uleb128 0x1
 11689 2aa1 51       		.byte	0x51
 11690 2aa2 02       		.uleb128 0x2
 11691 2aa3 76       		.byte	0x76
 11692 2aa4 00       		.sleb128 0
 11693 2aa5 00       		.byte	0
 11694 2aa6 29       		.uleb128 0x29
 11695 2aa7 7A040000 		.4byte	.LVL460
 11696 2aab 945E0000 		.4byte	0x5e94
 11697 2aaf C02A0000 		.4byte	0x2ac0
 11698 2ab3 2A       		.uleb128 0x2a
 11699 2ab4 01       		.uleb128 0x1
 11700 2ab5 50       		.byte	0x50
 11701 2ab6 02       		.uleb128 0x2
 11702 2ab7 75       		.byte	0x75
 11703 2ab8 00       		.sleb128 0
 11704 2ab9 2A       		.uleb128 0x2a
 11705 2aba 01       		.uleb128 0x1
 11706 2abb 51       		.byte	0x51
 11707 2abc 02       		.uleb128 0x2
 11708 2abd 76       		.byte	0x76
 11709 2abe 00       		.sleb128 0
 11710 2abf 00       		.byte	0
 11711 2ac0 29       		.uleb128 0x29
 11712 2ac1 8A040000 		.4byte	.LVL461
 11713 2ac5 9F5E0000 		.4byte	0x5e9f
 11714 2ac9 E62A0000 		.4byte	0x2ae6
 11715 2acd 2A       		.uleb128 0x2a
 11716 2ace 01       		.uleb128 0x1
 11717 2acf 50       		.byte	0x50
 11718 2ad0 02       		.uleb128 0x2
 11719 2ad1 75       		.byte	0x75
 11720 2ad2 00       		.sleb128 0
 11721 2ad3 2A       		.uleb128 0x2a
 11722 2ad4 02       		.uleb128 0x2
 11723 2ad5 90       		.byte	0x90
 11724 2ad6 40       		.uleb128 0x40
 11725 2ad7 07       		.uleb128 0x7
 11726 2ad8 F4       		.byte	0xf4
 11727 2ad9 25       		.uleb128 0x25
 11728 2ada 04       		.byte	0x4
 11729 2adb 0000C842 		.4byte	0x42c80000
 11730 2adf 2A       		.uleb128 0x2a
 11731 2ae0 01       		.uleb128 0x1
 11732 2ae1 51       		.byte	0x51
 11733 2ae2 02       		.uleb128 0x2
 11734 2ae3 76       		.byte	0x76
 11735 2ae4 00       		.sleb128 0
 11736 2ae5 00       		.byte	0
 11737 2ae6 29       		.uleb128 0x29
 11738 2ae7 9A040000 		.4byte	.LVL462
 11739 2aeb 9F5E0000 		.4byte	0x5e9f
 11740 2aef 0C2B0000 		.4byte	0x2b0c
 11741 2af3 2A       		.uleb128 0x2a
 11742 2af4 01       		.uleb128 0x1
ARM GAS  /tmp/cc4M9ACW.s 			page 207


 11743 2af5 50       		.byte	0x50
 11744 2af6 02       		.uleb128 0x2
 11745 2af7 75       		.byte	0x75
 11746 2af8 00       		.sleb128 0
 11747 2af9 2A       		.uleb128 0x2a
 11748 2afa 02       		.uleb128 0x2
 11749 2afb 90       		.byte	0x90
 11750 2afc 40       		.uleb128 0x40
 11751 2afd 07       		.uleb128 0x7
 11752 2afe F4       		.byte	0xf4
 11753 2aff 25       		.uleb128 0x25
 11754 2b00 04       		.byte	0x4
 11755 2b01 0000C842 		.4byte	0x42c80000
 11756 2b05 2A       		.uleb128 0x2a
 11757 2b06 01       		.uleb128 0x1
 11758 2b07 51       		.byte	0x51
 11759 2b08 02       		.uleb128 0x2
 11760 2b09 76       		.byte	0x76
 11761 2b0a 00       		.sleb128 0
 11762 2b0b 00       		.byte	0
 11763 2b0c 29       		.uleb128 0x29
 11764 2b0d AA040000 		.4byte	.LVL463
 11765 2b11 9F5E0000 		.4byte	0x5e9f
 11766 2b15 322B0000 		.4byte	0x2b32
 11767 2b19 2A       		.uleb128 0x2a
 11768 2b1a 01       		.uleb128 0x1
 11769 2b1b 50       		.byte	0x50
 11770 2b1c 02       		.uleb128 0x2
 11771 2b1d 75       		.byte	0x75
 11772 2b1e 00       		.sleb128 0
 11773 2b1f 2A       		.uleb128 0x2a
 11774 2b20 02       		.uleb128 0x2
 11775 2b21 90       		.byte	0x90
 11776 2b22 40       		.uleb128 0x40
 11777 2b23 07       		.uleb128 0x7
 11778 2b24 F4       		.byte	0xf4
 11779 2b25 25       		.uleb128 0x25
 11780 2b26 04       		.byte	0x4
 11781 2b27 00007A44 		.4byte	0x447a0000
 11782 2b2b 2A       		.uleb128 0x2a
 11783 2b2c 01       		.uleb128 0x1
 11784 2b2d 51       		.byte	0x51
 11785 2b2e 02       		.uleb128 0x2
 11786 2b2f 76       		.byte	0x76
 11787 2b30 00       		.sleb128 0
 11788 2b31 00       		.byte	0
 11789 2b32 29       		.uleb128 0x29
 11790 2b33 BA040000 		.4byte	.LVL464
 11791 2b37 9F5E0000 		.4byte	0x5e9f
 11792 2b3b 582B0000 		.4byte	0x2b58
 11793 2b3f 2A       		.uleb128 0x2a
 11794 2b40 01       		.uleb128 0x1
 11795 2b41 50       		.byte	0x50
 11796 2b42 02       		.uleb128 0x2
 11797 2b43 75       		.byte	0x75
 11798 2b44 00       		.sleb128 0
 11799 2b45 2A       		.uleb128 0x2a
ARM GAS  /tmp/cc4M9ACW.s 			page 208


 11800 2b46 02       		.uleb128 0x2
 11801 2b47 90       		.byte	0x90
 11802 2b48 40       		.uleb128 0x40
 11803 2b49 07       		.uleb128 0x7
 11804 2b4a F4       		.byte	0xf4
 11805 2b4b 25       		.uleb128 0x25
 11806 2b4c 04       		.byte	0x4
 11807 2b4d 0000C842 		.4byte	0x42c80000
 11808 2b51 2A       		.uleb128 0x2a
 11809 2b52 01       		.uleb128 0x1
 11810 2b53 51       		.byte	0x51
 11811 2b54 02       		.uleb128 0x2
 11812 2b55 76       		.byte	0x76
 11813 2b56 00       		.sleb128 0
 11814 2b57 00       		.byte	0
 11815 2b58 29       		.uleb128 0x29
 11816 2b59 CA040000 		.4byte	.LVL465
 11817 2b5d 9F5E0000 		.4byte	0x5e9f
 11818 2b61 7E2B0000 		.4byte	0x2b7e
 11819 2b65 2A       		.uleb128 0x2a
 11820 2b66 01       		.uleb128 0x1
 11821 2b67 50       		.byte	0x50
 11822 2b68 02       		.uleb128 0x2
 11823 2b69 75       		.byte	0x75
 11824 2b6a 00       		.sleb128 0
 11825 2b6b 2A       		.uleb128 0x2a
 11826 2b6c 02       		.uleb128 0x2
 11827 2b6d 90       		.byte	0x90
 11828 2b6e 40       		.uleb128 0x40
 11829 2b6f 07       		.uleb128 0x7
 11830 2b70 F4       		.byte	0xf4
 11831 2b71 25       		.uleb128 0x25
 11832 2b72 04       		.byte	0x4
 11833 2b73 0000C842 		.4byte	0x42c80000
 11834 2b77 2A       		.uleb128 0x2a
 11835 2b78 01       		.uleb128 0x1
 11836 2b79 51       		.byte	0x51
 11837 2b7a 02       		.uleb128 0x2
 11838 2b7b 76       		.byte	0x76
 11839 2b7c 00       		.sleb128 0
 11840 2b7d 00       		.byte	0
 11841 2b7e 29       		.uleb128 0x29
 11842 2b7f D6040000 		.4byte	.LVL466
 11843 2b83 895E0000 		.4byte	0x5e89
 11844 2b87 982B0000 		.4byte	0x2b98
 11845 2b8b 2A       		.uleb128 0x2a
 11846 2b8c 01       		.uleb128 0x1
 11847 2b8d 50       		.byte	0x50
 11848 2b8e 02       		.uleb128 0x2
 11849 2b8f 75       		.byte	0x75
 11850 2b90 00       		.sleb128 0
 11851 2b91 2A       		.uleb128 0x2a
 11852 2b92 01       		.uleb128 0x1
 11853 2b93 51       		.byte	0x51
 11854 2b94 02       		.uleb128 0x2
 11855 2b95 76       		.byte	0x76
 11856 2b96 00       		.sleb128 0
ARM GAS  /tmp/cc4M9ACW.s 			page 209


 11857 2b97 00       		.byte	0
 11858 2b98 29       		.uleb128 0x29
 11859 2b99 E6040000 		.4byte	.LVL467
 11860 2b9d 9F5E0000 		.4byte	0x5e9f
 11861 2ba1 BE2B0000 		.4byte	0x2bbe
 11862 2ba5 2A       		.uleb128 0x2a
 11863 2ba6 01       		.uleb128 0x1
 11864 2ba7 50       		.byte	0x50
 11865 2ba8 02       		.uleb128 0x2
 11866 2ba9 75       		.byte	0x75
 11867 2baa 00       		.sleb128 0
 11868 2bab 2A       		.uleb128 0x2a
 11869 2bac 02       		.uleb128 0x2
 11870 2bad 90       		.byte	0x90
 11871 2bae 40       		.uleb128 0x40
 11872 2baf 07       		.uleb128 0x7
 11873 2bb0 F4       		.byte	0xf4
 11874 2bb1 25       		.uleb128 0x25
 11875 2bb2 04       		.byte	0x4
 11876 2bb3 0000C842 		.4byte	0x42c80000
 11877 2bb7 2A       		.uleb128 0x2a
 11878 2bb8 01       		.uleb128 0x1
 11879 2bb9 51       		.byte	0x51
 11880 2bba 02       		.uleb128 0x2
 11881 2bbb 76       		.byte	0x76
 11882 2bbc 00       		.sleb128 0
 11883 2bbd 00       		.byte	0
 11884 2bbe 29       		.uleb128 0x29
 11885 2bbf F6040000 		.4byte	.LVL468
 11886 2bc3 9F5E0000 		.4byte	0x5e9f
 11887 2bc7 E42B0000 		.4byte	0x2be4
 11888 2bcb 2A       		.uleb128 0x2a
 11889 2bcc 01       		.uleb128 0x1
 11890 2bcd 50       		.byte	0x50
 11891 2bce 02       		.uleb128 0x2
 11892 2bcf 75       		.byte	0x75
 11893 2bd0 00       		.sleb128 0
 11894 2bd1 2A       		.uleb128 0x2a
 11895 2bd2 02       		.uleb128 0x2
 11896 2bd3 90       		.byte	0x90
 11897 2bd4 40       		.uleb128 0x40
 11898 2bd5 07       		.uleb128 0x7
 11899 2bd6 F4       		.byte	0xf4
 11900 2bd7 25       		.uleb128 0x25
 11901 2bd8 04       		.byte	0x4
 11902 2bd9 0000C842 		.4byte	0x42c80000
 11903 2bdd 2A       		.uleb128 0x2a
 11904 2bde 01       		.uleb128 0x1
 11905 2bdf 51       		.byte	0x51
 11906 2be0 02       		.uleb128 0x2
 11907 2be1 76       		.byte	0x76
 11908 2be2 00       		.sleb128 0
 11909 2be3 00       		.byte	0
 11910 2be4 29       		.uleb128 0x29
 11911 2be5 02050000 		.4byte	.LVL469
 11912 2be9 895E0000 		.4byte	0x5e89
 11913 2bed FE2B0000 		.4byte	0x2bfe
ARM GAS  /tmp/cc4M9ACW.s 			page 210


 11914 2bf1 2A       		.uleb128 0x2a
 11915 2bf2 01       		.uleb128 0x1
 11916 2bf3 50       		.byte	0x50
 11917 2bf4 02       		.uleb128 0x2
 11918 2bf5 75       		.byte	0x75
 11919 2bf6 00       		.sleb128 0
 11920 2bf7 2A       		.uleb128 0x2a
 11921 2bf8 01       		.uleb128 0x1
 11922 2bf9 51       		.byte	0x51
 11923 2bfa 02       		.uleb128 0x2
 11924 2bfb 76       		.byte	0x76
 11925 2bfc 00       		.sleb128 0
 11926 2bfd 00       		.byte	0
 11927 2bfe 29       		.uleb128 0x29
 11928 2bff 12050000 		.4byte	.LVL470
 11929 2c03 9F5E0000 		.4byte	0x5e9f
 11930 2c07 242C0000 		.4byte	0x2c24
 11931 2c0b 2A       		.uleb128 0x2a
 11932 2c0c 01       		.uleb128 0x1
 11933 2c0d 50       		.byte	0x50
 11934 2c0e 02       		.uleb128 0x2
 11935 2c0f 75       		.byte	0x75
 11936 2c10 00       		.sleb128 0
 11937 2c11 2A       		.uleb128 0x2a
 11938 2c12 02       		.uleb128 0x2
 11939 2c13 90       		.byte	0x90
 11940 2c14 40       		.uleb128 0x40
 11941 2c15 07       		.uleb128 0x7
 11942 2c16 F4       		.byte	0xf4
 11943 2c17 25       		.uleb128 0x25
 11944 2c18 04       		.byte	0x4
 11945 2c19 0000C842 		.4byte	0x42c80000
 11946 2c1d 2A       		.uleb128 0x2a
 11947 2c1e 01       		.uleb128 0x1
 11948 2c1f 51       		.byte	0x51
 11949 2c20 02       		.uleb128 0x2
 11950 2c21 76       		.byte	0x76
 11951 2c22 00       		.sleb128 0
 11952 2c23 00       		.byte	0
 11953 2c24 29       		.uleb128 0x29
 11954 2c25 1E050000 		.4byte	.LVL471
 11955 2c29 895E0000 		.4byte	0x5e89
 11956 2c2d 3E2C0000 		.4byte	0x2c3e
 11957 2c31 2A       		.uleb128 0x2a
 11958 2c32 01       		.uleb128 0x1
 11959 2c33 50       		.byte	0x50
 11960 2c34 02       		.uleb128 0x2
 11961 2c35 75       		.byte	0x75
 11962 2c36 00       		.sleb128 0
 11963 2c37 2A       		.uleb128 0x2a
 11964 2c38 01       		.uleb128 0x1
 11965 2c39 51       		.byte	0x51
 11966 2c3a 02       		.uleb128 0x2
 11967 2c3b 76       		.byte	0x76
 11968 2c3c 00       		.sleb128 0
 11969 2c3d 00       		.byte	0
 11970 2c3e 29       		.uleb128 0x29
ARM GAS  /tmp/cc4M9ACW.s 			page 211


 11971 2c3f 2A050000 		.4byte	.LVL472
 11972 2c43 945E0000 		.4byte	0x5e94
 11973 2c47 582C0000 		.4byte	0x2c58
 11974 2c4b 2A       		.uleb128 0x2a
 11975 2c4c 01       		.uleb128 0x1
 11976 2c4d 50       		.byte	0x50
 11977 2c4e 02       		.uleb128 0x2
 11978 2c4f 75       		.byte	0x75
 11979 2c50 00       		.sleb128 0
 11980 2c51 2A       		.uleb128 0x2a
 11981 2c52 01       		.uleb128 0x1
 11982 2c53 51       		.byte	0x51
 11983 2c54 02       		.uleb128 0x2
 11984 2c55 76       		.byte	0x76
 11985 2c56 00       		.sleb128 0
 11986 2c57 00       		.byte	0
 11987 2c58 29       		.uleb128 0x29
 11988 2c59 36050000 		.4byte	.LVL473
 11989 2c5d 895E0000 		.4byte	0x5e89
 11990 2c61 722C0000 		.4byte	0x2c72
 11991 2c65 2A       		.uleb128 0x2a
 11992 2c66 01       		.uleb128 0x1
 11993 2c67 50       		.byte	0x50
 11994 2c68 02       		.uleb128 0x2
 11995 2c69 75       		.byte	0x75
 11996 2c6a 00       		.sleb128 0
 11997 2c6b 2A       		.uleb128 0x2a
 11998 2c6c 01       		.uleb128 0x1
 11999 2c6d 51       		.byte	0x51
 12000 2c6e 02       		.uleb128 0x2
 12001 2c6f 76       		.byte	0x76
 12002 2c70 00       		.sleb128 0
 12003 2c71 00       		.byte	0
 12004 2c72 29       		.uleb128 0x29
 12005 2c73 42050000 		.4byte	.LVL474
 12006 2c77 895E0000 		.4byte	0x5e89
 12007 2c7b 8C2C0000 		.4byte	0x2c8c
 12008 2c7f 2A       		.uleb128 0x2a
 12009 2c80 01       		.uleb128 0x1
 12010 2c81 50       		.byte	0x50
 12011 2c82 02       		.uleb128 0x2
 12012 2c83 75       		.byte	0x75
 12013 2c84 00       		.sleb128 0
 12014 2c85 2A       		.uleb128 0x2a
 12015 2c86 01       		.uleb128 0x1
 12016 2c87 51       		.byte	0x51
 12017 2c88 02       		.uleb128 0x2
 12018 2c89 76       		.byte	0x76
 12019 2c8a 00       		.sleb128 0
 12020 2c8b 00       		.byte	0
 12021 2c8c 29       		.uleb128 0x29
 12022 2c8d 52050000 		.4byte	.LVL475
 12023 2c91 9F5E0000 		.4byte	0x5e9f
 12024 2c95 B22C0000 		.4byte	0x2cb2
 12025 2c99 2A       		.uleb128 0x2a
 12026 2c9a 01       		.uleb128 0x1
 12027 2c9b 50       		.byte	0x50
ARM GAS  /tmp/cc4M9ACW.s 			page 212


 12028 2c9c 02       		.uleb128 0x2
 12029 2c9d 75       		.byte	0x75
 12030 2c9e 00       		.sleb128 0
 12031 2c9f 2A       		.uleb128 0x2a
 12032 2ca0 02       		.uleb128 0x2
 12033 2ca1 90       		.byte	0x90
 12034 2ca2 40       		.uleb128 0x40
 12035 2ca3 07       		.uleb128 0x7
 12036 2ca4 F4       		.byte	0xf4
 12037 2ca5 25       		.uleb128 0x25
 12038 2ca6 04       		.byte	0x4
 12039 2ca7 0000C842 		.4byte	0x42c80000
 12040 2cab 2A       		.uleb128 0x2a
 12041 2cac 01       		.uleb128 0x1
 12042 2cad 51       		.byte	0x51
 12043 2cae 02       		.uleb128 0x2
 12044 2caf 76       		.byte	0x76
 12045 2cb0 00       		.sleb128 0
 12046 2cb1 00       		.byte	0
 12047 2cb2 29       		.uleb128 0x29
 12048 2cb3 5E050000 		.4byte	.LVL476
 12049 2cb7 895E0000 		.4byte	0x5e89
 12050 2cbb CC2C0000 		.4byte	0x2ccc
 12051 2cbf 2A       		.uleb128 0x2a
 12052 2cc0 01       		.uleb128 0x1
 12053 2cc1 50       		.byte	0x50
 12054 2cc2 02       		.uleb128 0x2
 12055 2cc3 75       		.byte	0x75
 12056 2cc4 00       		.sleb128 0
 12057 2cc5 2A       		.uleb128 0x2a
 12058 2cc6 01       		.uleb128 0x1
 12059 2cc7 51       		.byte	0x51
 12060 2cc8 02       		.uleb128 0x2
 12061 2cc9 76       		.byte	0x76
 12062 2cca 00       		.sleb128 0
 12063 2ccb 00       		.byte	0
 12064 2ccc 29       		.uleb128 0x29
 12065 2ccd 6A050000 		.4byte	.LVL477
 12066 2cd1 895E0000 		.4byte	0x5e89
 12067 2cd5 E62C0000 		.4byte	0x2ce6
 12068 2cd9 2A       		.uleb128 0x2a
 12069 2cda 01       		.uleb128 0x1
 12070 2cdb 50       		.byte	0x50
 12071 2cdc 02       		.uleb128 0x2
 12072 2cdd 75       		.byte	0x75
 12073 2cde 00       		.sleb128 0
 12074 2cdf 2A       		.uleb128 0x2a
 12075 2ce0 01       		.uleb128 0x1
 12076 2ce1 51       		.byte	0x51
 12077 2ce2 02       		.uleb128 0x2
 12078 2ce3 76       		.byte	0x76
 12079 2ce4 00       		.sleb128 0
 12080 2ce5 00       		.byte	0
 12081 2ce6 29       		.uleb128 0x29
 12082 2ce7 76050000 		.4byte	.LVL478
 12083 2ceb 895E0000 		.4byte	0x5e89
 12084 2cef 002D0000 		.4byte	0x2d00
ARM GAS  /tmp/cc4M9ACW.s 			page 213


 12085 2cf3 2A       		.uleb128 0x2a
 12086 2cf4 01       		.uleb128 0x1
 12087 2cf5 50       		.byte	0x50
 12088 2cf6 02       		.uleb128 0x2
 12089 2cf7 75       		.byte	0x75
 12090 2cf8 00       		.sleb128 0
 12091 2cf9 2A       		.uleb128 0x2a
 12092 2cfa 01       		.uleb128 0x1
 12093 2cfb 51       		.byte	0x51
 12094 2cfc 02       		.uleb128 0x2
 12095 2cfd 76       		.byte	0x76
 12096 2cfe 00       		.sleb128 0
 12097 2cff 00       		.byte	0
 12098 2d00 29       		.uleb128 0x29
 12099 2d01 82050000 		.4byte	.LVL479
 12100 2d05 895E0000 		.4byte	0x5e89
 12101 2d09 1A2D0000 		.4byte	0x2d1a
 12102 2d0d 2A       		.uleb128 0x2a
 12103 2d0e 01       		.uleb128 0x1
 12104 2d0f 50       		.byte	0x50
 12105 2d10 02       		.uleb128 0x2
 12106 2d11 75       		.byte	0x75
 12107 2d12 00       		.sleb128 0
 12108 2d13 2A       		.uleb128 0x2a
 12109 2d14 01       		.uleb128 0x1
 12110 2d15 51       		.byte	0x51
 12111 2d16 02       		.uleb128 0x2
 12112 2d17 76       		.byte	0x76
 12113 2d18 00       		.sleb128 0
 12114 2d19 00       		.byte	0
 12115 2d1a 29       		.uleb128 0x29
 12116 2d1b A0050000 		.4byte	.LVL480
 12117 2d1f 895E0000 		.4byte	0x5e89
 12118 2d23 342D0000 		.4byte	0x2d34
 12119 2d27 2A       		.uleb128 0x2a
 12120 2d28 01       		.uleb128 0x1
 12121 2d29 50       		.byte	0x50
 12122 2d2a 02       		.uleb128 0x2
 12123 2d2b 75       		.byte	0x75
 12124 2d2c 00       		.sleb128 0
 12125 2d2d 2A       		.uleb128 0x2a
 12126 2d2e 01       		.uleb128 0x1
 12127 2d2f 51       		.byte	0x51
 12128 2d30 02       		.uleb128 0x2
 12129 2d31 76       		.byte	0x76
 12130 2d32 00       		.sleb128 0
 12131 2d33 00       		.byte	0
 12132 2d34 29       		.uleb128 0x29
 12133 2d35 AC050000 		.4byte	.LVL481
 12134 2d39 895E0000 		.4byte	0x5e89
 12135 2d3d 4E2D0000 		.4byte	0x2d4e
 12136 2d41 2A       		.uleb128 0x2a
 12137 2d42 01       		.uleb128 0x1
 12138 2d43 50       		.byte	0x50
 12139 2d44 02       		.uleb128 0x2
 12140 2d45 75       		.byte	0x75
 12141 2d46 00       		.sleb128 0
ARM GAS  /tmp/cc4M9ACW.s 			page 214


 12142 2d47 2A       		.uleb128 0x2a
 12143 2d48 01       		.uleb128 0x1
 12144 2d49 51       		.byte	0x51
 12145 2d4a 02       		.uleb128 0x2
 12146 2d4b 76       		.byte	0x76
 12147 2d4c 00       		.sleb128 0
 12148 2d4d 00       		.byte	0
 12149 2d4e 29       		.uleb128 0x29
 12150 2d4f B8050000 		.4byte	.LVL482
 12151 2d53 895E0000 		.4byte	0x5e89
 12152 2d57 682D0000 		.4byte	0x2d68
 12153 2d5b 2A       		.uleb128 0x2a
 12154 2d5c 01       		.uleb128 0x1
 12155 2d5d 50       		.byte	0x50
 12156 2d5e 02       		.uleb128 0x2
 12157 2d5f 75       		.byte	0x75
 12158 2d60 00       		.sleb128 0
 12159 2d61 2A       		.uleb128 0x2a
 12160 2d62 01       		.uleb128 0x1
 12161 2d63 51       		.byte	0x51
 12162 2d64 02       		.uleb128 0x2
 12163 2d65 76       		.byte	0x76
 12164 2d66 00       		.sleb128 0
 12165 2d67 00       		.byte	0
 12166 2d68 29       		.uleb128 0x29
 12167 2d69 C4050000 		.4byte	.LVL483
 12168 2d6d 895E0000 		.4byte	0x5e89
 12169 2d71 822D0000 		.4byte	0x2d82
 12170 2d75 2A       		.uleb128 0x2a
 12171 2d76 01       		.uleb128 0x1
 12172 2d77 50       		.byte	0x50
 12173 2d78 02       		.uleb128 0x2
 12174 2d79 75       		.byte	0x75
 12175 2d7a 00       		.sleb128 0
 12176 2d7b 2A       		.uleb128 0x2a
 12177 2d7c 01       		.uleb128 0x1
 12178 2d7d 51       		.byte	0x51
 12179 2d7e 02       		.uleb128 0x2
 12180 2d7f 76       		.byte	0x76
 12181 2d80 00       		.sleb128 0
 12182 2d81 00       		.byte	0
 12183 2d82 29       		.uleb128 0x29
 12184 2d83 D0050000 		.4byte	.LVL484
 12185 2d87 895E0000 		.4byte	0x5e89
 12186 2d8b 9C2D0000 		.4byte	0x2d9c
 12187 2d8f 2A       		.uleb128 0x2a
 12188 2d90 01       		.uleb128 0x1
 12189 2d91 50       		.byte	0x50
 12190 2d92 02       		.uleb128 0x2
 12191 2d93 75       		.byte	0x75
 12192 2d94 00       		.sleb128 0
 12193 2d95 2A       		.uleb128 0x2a
 12194 2d96 01       		.uleb128 0x1
 12195 2d97 51       		.byte	0x51
 12196 2d98 02       		.uleb128 0x2
 12197 2d99 76       		.byte	0x76
 12198 2d9a 00       		.sleb128 0
ARM GAS  /tmp/cc4M9ACW.s 			page 215


 12199 2d9b 00       		.byte	0
 12200 2d9c 29       		.uleb128 0x29
 12201 2d9d DC050000 		.4byte	.LVL485
 12202 2da1 895E0000 		.4byte	0x5e89
 12203 2da5 B62D0000 		.4byte	0x2db6
 12204 2da9 2A       		.uleb128 0x2a
 12205 2daa 01       		.uleb128 0x1
 12206 2dab 50       		.byte	0x50
 12207 2dac 02       		.uleb128 0x2
 12208 2dad 75       		.byte	0x75
 12209 2dae 00       		.sleb128 0
 12210 2daf 2A       		.uleb128 0x2a
 12211 2db0 01       		.uleb128 0x1
 12212 2db1 51       		.byte	0x51
 12213 2db2 02       		.uleb128 0x2
 12214 2db3 76       		.byte	0x76
 12215 2db4 00       		.sleb128 0
 12216 2db5 00       		.byte	0
 12217 2db6 29       		.uleb128 0x29
 12218 2db7 E8050000 		.4byte	.LVL486
 12219 2dbb 945E0000 		.4byte	0x5e94
 12220 2dbf D02D0000 		.4byte	0x2dd0
 12221 2dc3 2A       		.uleb128 0x2a
 12222 2dc4 01       		.uleb128 0x1
 12223 2dc5 50       		.byte	0x50
 12224 2dc6 02       		.uleb128 0x2
 12225 2dc7 75       		.byte	0x75
 12226 2dc8 00       		.sleb128 0
 12227 2dc9 2A       		.uleb128 0x2a
 12228 2dca 01       		.uleb128 0x1
 12229 2dcb 51       		.byte	0x51
 12230 2dcc 02       		.uleb128 0x2
 12231 2dcd 76       		.byte	0x76
 12232 2dce 00       		.sleb128 0
 12233 2dcf 00       		.byte	0
 12234 2dd0 29       		.uleb128 0x29
 12235 2dd1 F4050000 		.4byte	.LVL487
 12236 2dd5 895E0000 		.4byte	0x5e89
 12237 2dd9 EA2D0000 		.4byte	0x2dea
 12238 2ddd 2A       		.uleb128 0x2a
 12239 2dde 01       		.uleb128 0x1
 12240 2ddf 50       		.byte	0x50
 12241 2de0 02       		.uleb128 0x2
 12242 2de1 75       		.byte	0x75
 12243 2de2 00       		.sleb128 0
 12244 2de3 2A       		.uleb128 0x2a
 12245 2de4 01       		.uleb128 0x1
 12246 2de5 51       		.byte	0x51
 12247 2de6 02       		.uleb128 0x2
 12248 2de7 76       		.byte	0x76
 12249 2de8 00       		.sleb128 0
 12250 2de9 00       		.byte	0
 12251 2dea 29       		.uleb128 0x29
 12252 2deb 00060000 		.4byte	.LVL488
 12253 2def 945E0000 		.4byte	0x5e94
 12254 2df3 042E0000 		.4byte	0x2e04
 12255 2df7 2A       		.uleb128 0x2a
ARM GAS  /tmp/cc4M9ACW.s 			page 216


 12256 2df8 01       		.uleb128 0x1
 12257 2df9 50       		.byte	0x50
 12258 2dfa 02       		.uleb128 0x2
 12259 2dfb 75       		.byte	0x75
 12260 2dfc 00       		.sleb128 0
 12261 2dfd 2A       		.uleb128 0x2a
 12262 2dfe 01       		.uleb128 0x1
 12263 2dff 51       		.byte	0x51
 12264 2e00 02       		.uleb128 0x2
 12265 2e01 76       		.byte	0x76
 12266 2e02 00       		.sleb128 0
 12267 2e03 00       		.byte	0
 12268 2e04 29       		.uleb128 0x29
 12269 2e05 0C060000 		.4byte	.LVL489
 12270 2e09 945E0000 		.4byte	0x5e94
 12271 2e0d 1E2E0000 		.4byte	0x2e1e
 12272 2e11 2A       		.uleb128 0x2a
 12273 2e12 01       		.uleb128 0x1
 12274 2e13 50       		.byte	0x50
 12275 2e14 02       		.uleb128 0x2
 12276 2e15 75       		.byte	0x75
 12277 2e16 00       		.sleb128 0
 12278 2e17 2A       		.uleb128 0x2a
 12279 2e18 01       		.uleb128 0x1
 12280 2e19 51       		.byte	0x51
 12281 2e1a 02       		.uleb128 0x2
 12282 2e1b 76       		.byte	0x76
 12283 2e1c 00       		.sleb128 0
 12284 2e1d 00       		.byte	0
 12285 2e1e 29       		.uleb128 0x29
 12286 2e1f 18060000 		.4byte	.LVL490
 12287 2e23 895E0000 		.4byte	0x5e89
 12288 2e27 382E0000 		.4byte	0x2e38
 12289 2e2b 2A       		.uleb128 0x2a
 12290 2e2c 01       		.uleb128 0x1
 12291 2e2d 50       		.byte	0x50
 12292 2e2e 02       		.uleb128 0x2
 12293 2e2f 75       		.byte	0x75
 12294 2e30 00       		.sleb128 0
 12295 2e31 2A       		.uleb128 0x2a
 12296 2e32 01       		.uleb128 0x1
 12297 2e33 51       		.byte	0x51
 12298 2e34 02       		.uleb128 0x2
 12299 2e35 76       		.byte	0x76
 12300 2e36 00       		.sleb128 0
 12301 2e37 00       		.byte	0
 12302 2e38 29       		.uleb128 0x29
 12303 2e39 24060000 		.4byte	.LVL491
 12304 2e3d 895E0000 		.4byte	0x5e89
 12305 2e41 522E0000 		.4byte	0x2e52
 12306 2e45 2A       		.uleb128 0x2a
 12307 2e46 01       		.uleb128 0x1
 12308 2e47 50       		.byte	0x50
 12309 2e48 02       		.uleb128 0x2
 12310 2e49 75       		.byte	0x75
 12311 2e4a 00       		.sleb128 0
 12312 2e4b 2A       		.uleb128 0x2a
ARM GAS  /tmp/cc4M9ACW.s 			page 217


 12313 2e4c 01       		.uleb128 0x1
 12314 2e4d 51       		.byte	0x51
 12315 2e4e 02       		.uleb128 0x2
 12316 2e4f 76       		.byte	0x76
 12317 2e50 00       		.sleb128 0
 12318 2e51 00       		.byte	0
 12319 2e52 29       		.uleb128 0x29
 12320 2e53 30060000 		.4byte	.LVL492
 12321 2e57 895E0000 		.4byte	0x5e89
 12322 2e5b 6C2E0000 		.4byte	0x2e6c
 12323 2e5f 2A       		.uleb128 0x2a
 12324 2e60 01       		.uleb128 0x1
 12325 2e61 50       		.byte	0x50
 12326 2e62 02       		.uleb128 0x2
 12327 2e63 75       		.byte	0x75
 12328 2e64 00       		.sleb128 0
 12329 2e65 2A       		.uleb128 0x2a
 12330 2e66 01       		.uleb128 0x1
 12331 2e67 51       		.byte	0x51
 12332 2e68 02       		.uleb128 0x2
 12333 2e69 76       		.byte	0x76
 12334 2e6a 00       		.sleb128 0
 12335 2e6b 00       		.byte	0
 12336 2e6c 29       		.uleb128 0x29
 12337 2e6d 3C060000 		.4byte	.LVL493
 12338 2e71 895E0000 		.4byte	0x5e89
 12339 2e75 862E0000 		.4byte	0x2e86
 12340 2e79 2A       		.uleb128 0x2a
 12341 2e7a 01       		.uleb128 0x1
 12342 2e7b 50       		.byte	0x50
 12343 2e7c 02       		.uleb128 0x2
 12344 2e7d 75       		.byte	0x75
 12345 2e7e 00       		.sleb128 0
 12346 2e7f 2A       		.uleb128 0x2a
 12347 2e80 01       		.uleb128 0x1
 12348 2e81 51       		.byte	0x51
 12349 2e82 02       		.uleb128 0x2
 12350 2e83 76       		.byte	0x76
 12351 2e84 00       		.sleb128 0
 12352 2e85 00       		.byte	0
 12353 2e86 29       		.uleb128 0x29
 12354 2e87 48060000 		.4byte	.LVL494
 12355 2e8b 895E0000 		.4byte	0x5e89
 12356 2e8f A02E0000 		.4byte	0x2ea0
 12357 2e93 2A       		.uleb128 0x2a
 12358 2e94 01       		.uleb128 0x1
 12359 2e95 50       		.byte	0x50
 12360 2e96 02       		.uleb128 0x2
 12361 2e97 75       		.byte	0x75
 12362 2e98 00       		.sleb128 0
 12363 2e99 2A       		.uleb128 0x2a
 12364 2e9a 01       		.uleb128 0x1
 12365 2e9b 51       		.byte	0x51
 12366 2e9c 02       		.uleb128 0x2
 12367 2e9d 76       		.byte	0x76
 12368 2e9e 00       		.sleb128 0
 12369 2e9f 00       		.byte	0
ARM GAS  /tmp/cc4M9ACW.s 			page 218


 12370 2ea0 29       		.uleb128 0x29
 12371 2ea1 54060000 		.4byte	.LVL495
 12372 2ea5 895E0000 		.4byte	0x5e89
 12373 2ea9 BA2E0000 		.4byte	0x2eba
 12374 2ead 2A       		.uleb128 0x2a
 12375 2eae 01       		.uleb128 0x1
 12376 2eaf 50       		.byte	0x50
 12377 2eb0 02       		.uleb128 0x2
 12378 2eb1 75       		.byte	0x75
 12379 2eb2 00       		.sleb128 0
 12380 2eb3 2A       		.uleb128 0x2a
 12381 2eb4 01       		.uleb128 0x1
 12382 2eb5 51       		.byte	0x51
 12383 2eb6 02       		.uleb128 0x2
 12384 2eb7 76       		.byte	0x76
 12385 2eb8 00       		.sleb128 0
 12386 2eb9 00       		.byte	0
 12387 2eba 29       		.uleb128 0x29
 12388 2ebb 60060000 		.4byte	.LVL496
 12389 2ebf 895E0000 		.4byte	0x5e89
 12390 2ec3 D42E0000 		.4byte	0x2ed4
 12391 2ec7 2A       		.uleb128 0x2a
 12392 2ec8 01       		.uleb128 0x1
 12393 2ec9 50       		.byte	0x50
 12394 2eca 02       		.uleb128 0x2
 12395 2ecb 75       		.byte	0x75
 12396 2ecc 00       		.sleb128 0
 12397 2ecd 2A       		.uleb128 0x2a
 12398 2ece 01       		.uleb128 0x1
 12399 2ecf 51       		.byte	0x51
 12400 2ed0 02       		.uleb128 0x2
 12401 2ed1 76       		.byte	0x76
 12402 2ed2 00       		.sleb128 0
 12403 2ed3 00       		.byte	0
 12404 2ed4 29       		.uleb128 0x29
 12405 2ed5 6C060000 		.4byte	.LVL497
 12406 2ed9 895E0000 		.4byte	0x5e89
 12407 2edd EE2E0000 		.4byte	0x2eee
 12408 2ee1 2A       		.uleb128 0x2a
 12409 2ee2 01       		.uleb128 0x1
 12410 2ee3 50       		.byte	0x50
 12411 2ee4 02       		.uleb128 0x2
 12412 2ee5 75       		.byte	0x75
 12413 2ee6 00       		.sleb128 0
 12414 2ee7 2A       		.uleb128 0x2a
 12415 2ee8 01       		.uleb128 0x1
 12416 2ee9 51       		.byte	0x51
 12417 2eea 02       		.uleb128 0x2
 12418 2eeb 76       		.byte	0x76
 12419 2eec 00       		.sleb128 0
 12420 2eed 00       		.byte	0
 12421 2eee 29       		.uleb128 0x29
 12422 2eef 78060000 		.4byte	.LVL498
 12423 2ef3 895E0000 		.4byte	0x5e89
 12424 2ef7 082F0000 		.4byte	0x2f08
 12425 2efb 2A       		.uleb128 0x2a
 12426 2efc 01       		.uleb128 0x1
ARM GAS  /tmp/cc4M9ACW.s 			page 219


 12427 2efd 50       		.byte	0x50
 12428 2efe 02       		.uleb128 0x2
 12429 2eff 75       		.byte	0x75
 12430 2f00 00       		.sleb128 0
 12431 2f01 2A       		.uleb128 0x2a
 12432 2f02 01       		.uleb128 0x1
 12433 2f03 51       		.byte	0x51
 12434 2f04 02       		.uleb128 0x2
 12435 2f05 76       		.byte	0x76
 12436 2f06 00       		.sleb128 0
 12437 2f07 00       		.byte	0
 12438 2f08 29       		.uleb128 0x29
 12439 2f09 84060000 		.4byte	.LVL499
 12440 2f0d 895E0000 		.4byte	0x5e89
 12441 2f11 222F0000 		.4byte	0x2f22
 12442 2f15 2A       		.uleb128 0x2a
 12443 2f16 01       		.uleb128 0x1
 12444 2f17 50       		.byte	0x50
 12445 2f18 02       		.uleb128 0x2
 12446 2f19 75       		.byte	0x75
 12447 2f1a 00       		.sleb128 0
 12448 2f1b 2A       		.uleb128 0x2a
 12449 2f1c 01       		.uleb128 0x1
 12450 2f1d 51       		.byte	0x51
 12451 2f1e 02       		.uleb128 0x2
 12452 2f1f 76       		.byte	0x76
 12453 2f20 00       		.sleb128 0
 12454 2f21 00       		.byte	0
 12455 2f22 29       		.uleb128 0x29
 12456 2f23 90060000 		.4byte	.LVL500
 12457 2f27 895E0000 		.4byte	0x5e89
 12458 2f2b 3C2F0000 		.4byte	0x2f3c
 12459 2f2f 2A       		.uleb128 0x2a
 12460 2f30 01       		.uleb128 0x1
 12461 2f31 50       		.byte	0x50
 12462 2f32 02       		.uleb128 0x2
 12463 2f33 75       		.byte	0x75
 12464 2f34 00       		.sleb128 0
 12465 2f35 2A       		.uleb128 0x2a
 12466 2f36 01       		.uleb128 0x1
 12467 2f37 51       		.byte	0x51
 12468 2f38 02       		.uleb128 0x2
 12469 2f39 76       		.byte	0x76
 12470 2f3a 00       		.sleb128 0
 12471 2f3b 00       		.byte	0
 12472 2f3c 29       		.uleb128 0x29
 12473 2f3d 9C060000 		.4byte	.LVL501
 12474 2f41 895E0000 		.4byte	0x5e89
 12475 2f45 562F0000 		.4byte	0x2f56
 12476 2f49 2A       		.uleb128 0x2a
 12477 2f4a 01       		.uleb128 0x1
 12478 2f4b 50       		.byte	0x50
 12479 2f4c 02       		.uleb128 0x2
 12480 2f4d 75       		.byte	0x75
 12481 2f4e 00       		.sleb128 0
 12482 2f4f 2A       		.uleb128 0x2a
 12483 2f50 01       		.uleb128 0x1
ARM GAS  /tmp/cc4M9ACW.s 			page 220


 12484 2f51 51       		.byte	0x51
 12485 2f52 02       		.uleb128 0x2
 12486 2f53 76       		.byte	0x76
 12487 2f54 00       		.sleb128 0
 12488 2f55 00       		.byte	0
 12489 2f56 29       		.uleb128 0x29
 12490 2f57 A8060000 		.4byte	.LVL502
 12491 2f5b 895E0000 		.4byte	0x5e89
 12492 2f5f 702F0000 		.4byte	0x2f70
 12493 2f63 2A       		.uleb128 0x2a
 12494 2f64 01       		.uleb128 0x1
 12495 2f65 50       		.byte	0x50
 12496 2f66 02       		.uleb128 0x2
 12497 2f67 75       		.byte	0x75
 12498 2f68 00       		.sleb128 0
 12499 2f69 2A       		.uleb128 0x2a
 12500 2f6a 01       		.uleb128 0x1
 12501 2f6b 51       		.byte	0x51
 12502 2f6c 02       		.uleb128 0x2
 12503 2f6d 76       		.byte	0x76
 12504 2f6e 00       		.sleb128 0
 12505 2f6f 00       		.byte	0
 12506 2f70 29       		.uleb128 0x29
 12507 2f71 B4060000 		.4byte	.LVL503
 12508 2f75 895E0000 		.4byte	0x5e89
 12509 2f79 8A2F0000 		.4byte	0x2f8a
 12510 2f7d 2A       		.uleb128 0x2a
 12511 2f7e 01       		.uleb128 0x1
 12512 2f7f 50       		.byte	0x50
 12513 2f80 02       		.uleb128 0x2
 12514 2f81 75       		.byte	0x75
 12515 2f82 00       		.sleb128 0
 12516 2f83 2A       		.uleb128 0x2a
 12517 2f84 01       		.uleb128 0x1
 12518 2f85 51       		.byte	0x51
 12519 2f86 02       		.uleb128 0x2
 12520 2f87 76       		.byte	0x76
 12521 2f88 00       		.sleb128 0
 12522 2f89 00       		.byte	0
 12523 2f8a 29       		.uleb128 0x29
 12524 2f8b C0060000 		.4byte	.LVL504
 12525 2f8f 945E0000 		.4byte	0x5e94
 12526 2f93 A42F0000 		.4byte	0x2fa4
 12527 2f97 2A       		.uleb128 0x2a
 12528 2f98 01       		.uleb128 0x1
 12529 2f99 50       		.byte	0x50
 12530 2f9a 02       		.uleb128 0x2
 12531 2f9b 75       		.byte	0x75
 12532 2f9c 00       		.sleb128 0
 12533 2f9d 2A       		.uleb128 0x2a
 12534 2f9e 01       		.uleb128 0x1
 12535 2f9f 51       		.byte	0x51
 12536 2fa0 02       		.uleb128 0x2
 12537 2fa1 76       		.byte	0x76
 12538 2fa2 00       		.sleb128 0
 12539 2fa3 00       		.byte	0
 12540 2fa4 29       		.uleb128 0x29
ARM GAS  /tmp/cc4M9ACW.s 			page 221


 12541 2fa5 CC060000 		.4byte	.LVL505
 12542 2fa9 895E0000 		.4byte	0x5e89
 12543 2fad BE2F0000 		.4byte	0x2fbe
 12544 2fb1 2A       		.uleb128 0x2a
 12545 2fb2 01       		.uleb128 0x1
 12546 2fb3 50       		.byte	0x50
 12547 2fb4 02       		.uleb128 0x2
 12548 2fb5 75       		.byte	0x75
 12549 2fb6 00       		.sleb128 0
 12550 2fb7 2A       		.uleb128 0x2a
 12551 2fb8 01       		.uleb128 0x1
 12552 2fb9 51       		.byte	0x51
 12553 2fba 02       		.uleb128 0x2
 12554 2fbb 76       		.byte	0x76
 12555 2fbc 00       		.sleb128 0
 12556 2fbd 00       		.byte	0
 12557 2fbe 29       		.uleb128 0x29
 12558 2fbf D8060000 		.4byte	.LVL506
 12559 2fc3 945E0000 		.4byte	0x5e94
 12560 2fc7 D82F0000 		.4byte	0x2fd8
 12561 2fcb 2A       		.uleb128 0x2a
 12562 2fcc 01       		.uleb128 0x1
 12563 2fcd 50       		.byte	0x50
 12564 2fce 02       		.uleb128 0x2
 12565 2fcf 75       		.byte	0x75
 12566 2fd0 00       		.sleb128 0
 12567 2fd1 2A       		.uleb128 0x2a
 12568 2fd2 01       		.uleb128 0x1
 12569 2fd3 51       		.byte	0x51
 12570 2fd4 02       		.uleb128 0x2
 12571 2fd5 76       		.byte	0x76
 12572 2fd6 00       		.sleb128 0
 12573 2fd7 00       		.byte	0
 12574 2fd8 29       		.uleb128 0x29
 12575 2fd9 E4060000 		.4byte	.LVL507
 12576 2fdd 945E0000 		.4byte	0x5e94
 12577 2fe1 F22F0000 		.4byte	0x2ff2
 12578 2fe5 2A       		.uleb128 0x2a
 12579 2fe6 01       		.uleb128 0x1
 12580 2fe7 50       		.byte	0x50
 12581 2fe8 02       		.uleb128 0x2
 12582 2fe9 75       		.byte	0x75
 12583 2fea 00       		.sleb128 0
 12584 2feb 2A       		.uleb128 0x2a
 12585 2fec 01       		.uleb128 0x1
 12586 2fed 51       		.byte	0x51
 12587 2fee 02       		.uleb128 0x2
 12588 2fef 76       		.byte	0x76
 12589 2ff0 00       		.sleb128 0
 12590 2ff1 00       		.byte	0
 12591 2ff2 29       		.uleb128 0x29
 12592 2ff3 08070000 		.4byte	.LVL508
 12593 2ff7 9F5E0000 		.4byte	0x5e9f
 12594 2ffb 18300000 		.4byte	0x3018
 12595 2fff 2A       		.uleb128 0x2a
 12596 3000 01       		.uleb128 0x1
 12597 3001 50       		.byte	0x50
ARM GAS  /tmp/cc4M9ACW.s 			page 222


 12598 3002 02       		.uleb128 0x2
 12599 3003 75       		.byte	0x75
 12600 3004 00       		.sleb128 0
 12601 3005 2A       		.uleb128 0x2a
 12602 3006 02       		.uleb128 0x2
 12603 3007 90       		.byte	0x90
 12604 3008 40       		.uleb128 0x40
 12605 3009 07       		.uleb128 0x7
 12606 300a F4       		.byte	0xf4
 12607 300b 25       		.uleb128 0x25
 12608 300c 04       		.byte	0x4
 12609 300d 00007A44 		.4byte	0x447a0000
 12610 3011 2A       		.uleb128 0x2a
 12611 3012 01       		.uleb128 0x1
 12612 3013 51       		.byte	0x51
 12613 3014 02       		.uleb128 0x2
 12614 3015 76       		.byte	0x76
 12615 3016 00       		.sleb128 0
 12616 3017 00       		.byte	0
 12617 3018 29       		.uleb128 0x29
 12618 3019 18070000 		.4byte	.LVL509
 12619 301d 9F5E0000 		.4byte	0x5e9f
 12620 3021 3E300000 		.4byte	0x303e
 12621 3025 2A       		.uleb128 0x2a
 12622 3026 01       		.uleb128 0x1
 12623 3027 50       		.byte	0x50
 12624 3028 02       		.uleb128 0x2
 12625 3029 75       		.byte	0x75
 12626 302a 00       		.sleb128 0
 12627 302b 2A       		.uleb128 0x2a
 12628 302c 02       		.uleb128 0x2
 12629 302d 90       		.byte	0x90
 12630 302e 40       		.uleb128 0x40
 12631 302f 07       		.uleb128 0x7
 12632 3030 F4       		.byte	0xf4
 12633 3031 25       		.uleb128 0x25
 12634 3032 04       		.byte	0x4
 12635 3033 00002041 		.4byte	0x41200000
 12636 3037 2A       		.uleb128 0x2a
 12637 3038 01       		.uleb128 0x1
 12638 3039 51       		.byte	0x51
 12639 303a 02       		.uleb128 0x2
 12640 303b 76       		.byte	0x76
 12641 303c 00       		.sleb128 0
 12642 303d 00       		.byte	0
 12643 303e 29       		.uleb128 0x29
 12644 303f 28070000 		.4byte	.LVL510
 12645 3043 9F5E0000 		.4byte	0x5e9f
 12646 3047 64300000 		.4byte	0x3064
 12647 304b 2A       		.uleb128 0x2a
 12648 304c 01       		.uleb128 0x1
 12649 304d 50       		.byte	0x50
 12650 304e 02       		.uleb128 0x2
 12651 304f 75       		.byte	0x75
 12652 3050 00       		.sleb128 0
 12653 3051 2A       		.uleb128 0x2a
 12654 3052 02       		.uleb128 0x2
ARM GAS  /tmp/cc4M9ACW.s 			page 223


 12655 3053 90       		.byte	0x90
 12656 3054 40       		.uleb128 0x40
 12657 3055 07       		.uleb128 0x7
 12658 3056 F4       		.byte	0xf4
 12659 3057 25       		.uleb128 0x25
 12660 3058 04       		.byte	0x4
 12661 3059 00002041 		.4byte	0x41200000
 12662 305d 2A       		.uleb128 0x2a
 12663 305e 01       		.uleb128 0x1
 12664 305f 51       		.byte	0x51
 12665 3060 02       		.uleb128 0x2
 12666 3061 76       		.byte	0x76
 12667 3062 00       		.sleb128 0
 12668 3063 00       		.byte	0
 12669 3064 29       		.uleb128 0x29
 12670 3065 46070000 		.4byte	.LVL511
 12671 3069 945E0000 		.4byte	0x5e94
 12672 306d 7E300000 		.4byte	0x307e
 12673 3071 2A       		.uleb128 0x2a
 12674 3072 01       		.uleb128 0x1
 12675 3073 50       		.byte	0x50
 12676 3074 02       		.uleb128 0x2
 12677 3075 75       		.byte	0x75
 12678 3076 00       		.sleb128 0
 12679 3077 2A       		.uleb128 0x2a
 12680 3078 01       		.uleb128 0x1
 12681 3079 51       		.byte	0x51
 12682 307a 02       		.uleb128 0x2
 12683 307b 76       		.byte	0x76
 12684 307c 00       		.sleb128 0
 12685 307d 00       		.byte	0
 12686 307e 29       		.uleb128 0x29
 12687 307f 68070000 		.4byte	.LVL512
 12688 3083 9F5E0000 		.4byte	0x5e9f
 12689 3087 A4300000 		.4byte	0x30a4
 12690 308b 2A       		.uleb128 0x2a
 12691 308c 01       		.uleb128 0x1
 12692 308d 50       		.byte	0x50
 12693 308e 02       		.uleb128 0x2
 12694 308f 75       		.byte	0x75
 12695 3090 00       		.sleb128 0
 12696 3091 2A       		.uleb128 0x2a
 12697 3092 02       		.uleb128 0x2
 12698 3093 90       		.byte	0x90
 12699 3094 40       		.uleb128 0x40
 12700 3095 07       		.uleb128 0x7
 12701 3096 F4       		.byte	0xf4
 12702 3097 25       		.uleb128 0x25
 12703 3098 04       		.byte	0x4
 12704 3099 0000C842 		.4byte	0x42c80000
 12705 309d 2A       		.uleb128 0x2a
 12706 309e 01       		.uleb128 0x1
 12707 309f 51       		.byte	0x51
 12708 30a0 02       		.uleb128 0x2
 12709 30a1 76       		.byte	0x76
 12710 30a2 00       		.sleb128 0
 12711 30a3 00       		.byte	0
ARM GAS  /tmp/cc4M9ACW.s 			page 224


 12712 30a4 29       		.uleb128 0x29
 12713 30a5 78070000 		.4byte	.LVL513
 12714 30a9 9F5E0000 		.4byte	0x5e9f
 12715 30ad CA300000 		.4byte	0x30ca
 12716 30b1 2A       		.uleb128 0x2a
 12717 30b2 01       		.uleb128 0x1
 12718 30b3 50       		.byte	0x50
 12719 30b4 02       		.uleb128 0x2
 12720 30b5 75       		.byte	0x75
 12721 30b6 00       		.sleb128 0
 12722 30b7 2A       		.uleb128 0x2a
 12723 30b8 02       		.uleb128 0x2
 12724 30b9 90       		.byte	0x90
 12725 30ba 40       		.uleb128 0x40
 12726 30bb 07       		.uleb128 0x7
 12727 30bc F4       		.byte	0xf4
 12728 30bd 25       		.uleb128 0x25
 12729 30be 04       		.byte	0x4
 12730 30bf 0000C842 		.4byte	0x42c80000
 12731 30c3 2A       		.uleb128 0x2a
 12732 30c4 01       		.uleb128 0x1
 12733 30c5 51       		.byte	0x51
 12734 30c6 02       		.uleb128 0x2
 12735 30c7 76       		.byte	0x76
 12736 30c8 00       		.sleb128 0
 12737 30c9 00       		.byte	0
 12738 30ca 29       		.uleb128 0x29
 12739 30cb 84070000 		.4byte	.LVL514
 12740 30cf 945E0000 		.4byte	0x5e94
 12741 30d3 E4300000 		.4byte	0x30e4
 12742 30d7 2A       		.uleb128 0x2a
 12743 30d8 01       		.uleb128 0x1
 12744 30d9 50       		.byte	0x50
 12745 30da 02       		.uleb128 0x2
 12746 30db 75       		.byte	0x75
 12747 30dc 00       		.sleb128 0
 12748 30dd 2A       		.uleb128 0x2a
 12749 30de 01       		.uleb128 0x1
 12750 30df 51       		.byte	0x51
 12751 30e0 02       		.uleb128 0x2
 12752 30e1 76       		.byte	0x76
 12753 30e2 00       		.sleb128 0
 12754 30e3 00       		.byte	0
 12755 30e4 29       		.uleb128 0x29
 12756 30e5 A4070000 		.4byte	.LVL515
 12757 30e9 945E0000 		.4byte	0x5e94
 12758 30ed FE300000 		.4byte	0x30fe
 12759 30f1 2A       		.uleb128 0x2a
 12760 30f2 01       		.uleb128 0x1
 12761 30f3 50       		.byte	0x50
 12762 30f4 02       		.uleb128 0x2
 12763 30f5 75       		.byte	0x75
 12764 30f6 00       		.sleb128 0
 12765 30f7 2A       		.uleb128 0x2a
 12766 30f8 01       		.uleb128 0x1
 12767 30f9 51       		.byte	0x51
 12768 30fa 02       		.uleb128 0x2
ARM GAS  /tmp/cc4M9ACW.s 			page 225


 12769 30fb 76       		.byte	0x76
 12770 30fc 00       		.sleb128 0
 12771 30fd 00       		.byte	0
 12772 30fe 29       		.uleb128 0x29
 12773 30ff B0070000 		.4byte	.LVL516
 12774 3103 895E0000 		.4byte	0x5e89
 12775 3107 18310000 		.4byte	0x3118
 12776 310b 2A       		.uleb128 0x2a
 12777 310c 01       		.uleb128 0x1
 12778 310d 50       		.byte	0x50
 12779 310e 02       		.uleb128 0x2
 12780 310f 75       		.byte	0x75
 12781 3110 00       		.sleb128 0
 12782 3111 2A       		.uleb128 0x2a
 12783 3112 01       		.uleb128 0x1
 12784 3113 51       		.byte	0x51
 12785 3114 02       		.uleb128 0x2
 12786 3115 76       		.byte	0x76
 12787 3116 00       		.sleb128 0
 12788 3117 00       		.byte	0
 12789 3118 29       		.uleb128 0x29
 12790 3119 BC070000 		.4byte	.LVL517
 12791 311d 895E0000 		.4byte	0x5e89
 12792 3121 32310000 		.4byte	0x3132
 12793 3125 2A       		.uleb128 0x2a
 12794 3126 01       		.uleb128 0x1
 12795 3127 50       		.byte	0x50
 12796 3128 02       		.uleb128 0x2
 12797 3129 75       		.byte	0x75
 12798 312a 00       		.sleb128 0
 12799 312b 2A       		.uleb128 0x2a
 12800 312c 01       		.uleb128 0x1
 12801 312d 51       		.byte	0x51
 12802 312e 02       		.uleb128 0x2
 12803 312f 76       		.byte	0x76
 12804 3130 00       		.sleb128 0
 12805 3131 00       		.byte	0
 12806 3132 29       		.uleb128 0x29
 12807 3133 C8070000 		.4byte	.LVL518
 12808 3137 895E0000 		.4byte	0x5e89
 12809 313b 4C310000 		.4byte	0x314c
 12810 313f 2A       		.uleb128 0x2a
 12811 3140 01       		.uleb128 0x1
 12812 3141 50       		.byte	0x50
 12813 3142 02       		.uleb128 0x2
 12814 3143 75       		.byte	0x75
 12815 3144 00       		.sleb128 0
 12816 3145 2A       		.uleb128 0x2a
 12817 3146 01       		.uleb128 0x1
 12818 3147 51       		.byte	0x51
 12819 3148 02       		.uleb128 0x2
 12820 3149 76       		.byte	0x76
 12821 314a 00       		.sleb128 0
 12822 314b 00       		.byte	0
 12823 314c 29       		.uleb128 0x29
 12824 314d D4070000 		.4byte	.LVL519
 12825 3151 895E0000 		.4byte	0x5e89
ARM GAS  /tmp/cc4M9ACW.s 			page 226


 12826 3155 66310000 		.4byte	0x3166
 12827 3159 2A       		.uleb128 0x2a
 12828 315a 01       		.uleb128 0x1
 12829 315b 50       		.byte	0x50
 12830 315c 02       		.uleb128 0x2
 12831 315d 75       		.byte	0x75
 12832 315e 00       		.sleb128 0
 12833 315f 2A       		.uleb128 0x2a
 12834 3160 01       		.uleb128 0x1
 12835 3161 51       		.byte	0x51
 12836 3162 02       		.uleb128 0x2
 12837 3163 76       		.byte	0x76
 12838 3164 00       		.sleb128 0
 12839 3165 00       		.byte	0
 12840 3166 29       		.uleb128 0x29
 12841 3167 E0070000 		.4byte	.LVL520
 12842 316b 895E0000 		.4byte	0x5e89
 12843 316f 80310000 		.4byte	0x3180
 12844 3173 2A       		.uleb128 0x2a
 12845 3174 01       		.uleb128 0x1
 12846 3175 50       		.byte	0x50
 12847 3176 02       		.uleb128 0x2
 12848 3177 75       		.byte	0x75
 12849 3178 00       		.sleb128 0
 12850 3179 2A       		.uleb128 0x2a
 12851 317a 01       		.uleb128 0x1
 12852 317b 51       		.byte	0x51
 12853 317c 02       		.uleb128 0x2
 12854 317d 76       		.byte	0x76
 12855 317e 00       		.sleb128 0
 12856 317f 00       		.byte	0
 12857 3180 29       		.uleb128 0x29
 12858 3181 EC070000 		.4byte	.LVL521
 12859 3185 895E0000 		.4byte	0x5e89
 12860 3189 9A310000 		.4byte	0x319a
 12861 318d 2A       		.uleb128 0x2a
 12862 318e 01       		.uleb128 0x1
 12863 318f 50       		.byte	0x50
 12864 3190 02       		.uleb128 0x2
 12865 3191 75       		.byte	0x75
 12866 3192 00       		.sleb128 0
 12867 3193 2A       		.uleb128 0x2a
 12868 3194 01       		.uleb128 0x1
 12869 3195 51       		.byte	0x51
 12870 3196 02       		.uleb128 0x2
 12871 3197 76       		.byte	0x76
 12872 3198 00       		.sleb128 0
 12873 3199 00       		.byte	0
 12874 319a 29       		.uleb128 0x29
 12875 319b F8070000 		.4byte	.LVL522
 12876 319f 895E0000 		.4byte	0x5e89
 12877 31a3 B4310000 		.4byte	0x31b4
 12878 31a7 2A       		.uleb128 0x2a
 12879 31a8 01       		.uleb128 0x1
 12880 31a9 50       		.byte	0x50
 12881 31aa 02       		.uleb128 0x2
 12882 31ab 75       		.byte	0x75
ARM GAS  /tmp/cc4M9ACW.s 			page 227


 12883 31ac 00       		.sleb128 0
 12884 31ad 2A       		.uleb128 0x2a
 12885 31ae 01       		.uleb128 0x1
 12886 31af 51       		.byte	0x51
 12887 31b0 02       		.uleb128 0x2
 12888 31b1 76       		.byte	0x76
 12889 31b2 00       		.sleb128 0
 12890 31b3 00       		.byte	0
 12891 31b4 29       		.uleb128 0x29
 12892 31b5 04080000 		.4byte	.LVL523
 12893 31b9 895E0000 		.4byte	0x5e89
 12894 31bd CE310000 		.4byte	0x31ce
 12895 31c1 2A       		.uleb128 0x2a
 12896 31c2 01       		.uleb128 0x1
 12897 31c3 50       		.byte	0x50
 12898 31c4 02       		.uleb128 0x2
 12899 31c5 75       		.byte	0x75
 12900 31c6 00       		.sleb128 0
 12901 31c7 2A       		.uleb128 0x2a
 12902 31c8 01       		.uleb128 0x1
 12903 31c9 51       		.byte	0x51
 12904 31ca 02       		.uleb128 0x2
 12905 31cb 76       		.byte	0x76
 12906 31cc 00       		.sleb128 0
 12907 31cd 00       		.byte	0
 12908 31ce 29       		.uleb128 0x29
 12909 31cf 10080000 		.4byte	.LVL524
 12910 31d3 895E0000 		.4byte	0x5e89
 12911 31d7 E8310000 		.4byte	0x31e8
 12912 31db 2A       		.uleb128 0x2a
 12913 31dc 01       		.uleb128 0x1
 12914 31dd 50       		.byte	0x50
 12915 31de 02       		.uleb128 0x2
 12916 31df 75       		.byte	0x75
 12917 31e0 00       		.sleb128 0
 12918 31e1 2A       		.uleb128 0x2a
 12919 31e2 01       		.uleb128 0x1
 12920 31e3 51       		.byte	0x51
 12921 31e4 02       		.uleb128 0x2
 12922 31e5 76       		.byte	0x76
 12923 31e6 00       		.sleb128 0
 12924 31e7 00       		.byte	0
 12925 31e8 29       		.uleb128 0x29
 12926 31e9 1C080000 		.4byte	.LVL525
 12927 31ed 895E0000 		.4byte	0x5e89
 12928 31f1 02320000 		.4byte	0x3202
 12929 31f5 2A       		.uleb128 0x2a
 12930 31f6 01       		.uleb128 0x1
 12931 31f7 50       		.byte	0x50
 12932 31f8 02       		.uleb128 0x2
 12933 31f9 75       		.byte	0x75
 12934 31fa 00       		.sleb128 0
 12935 31fb 2A       		.uleb128 0x2a
 12936 31fc 01       		.uleb128 0x1
 12937 31fd 51       		.byte	0x51
 12938 31fe 02       		.uleb128 0x2
 12939 31ff 76       		.byte	0x76
ARM GAS  /tmp/cc4M9ACW.s 			page 228


 12940 3200 00       		.sleb128 0
 12941 3201 00       		.byte	0
 12942 3202 29       		.uleb128 0x29
 12943 3203 28080000 		.4byte	.LVL526
 12944 3207 895E0000 		.4byte	0x5e89
 12945 320b 1C320000 		.4byte	0x321c
 12946 320f 2A       		.uleb128 0x2a
 12947 3210 01       		.uleb128 0x1
 12948 3211 50       		.byte	0x50
 12949 3212 02       		.uleb128 0x2
 12950 3213 75       		.byte	0x75
 12951 3214 00       		.sleb128 0
 12952 3215 2A       		.uleb128 0x2a
 12953 3216 01       		.uleb128 0x1
 12954 3217 51       		.byte	0x51
 12955 3218 02       		.uleb128 0x2
 12956 3219 76       		.byte	0x76
 12957 321a 00       		.sleb128 0
 12958 321b 00       		.byte	0
 12959 321c 29       		.uleb128 0x29
 12960 321d 34080000 		.4byte	.LVL527
 12961 3221 895E0000 		.4byte	0x5e89
 12962 3225 36320000 		.4byte	0x3236
 12963 3229 2A       		.uleb128 0x2a
 12964 322a 01       		.uleb128 0x1
 12965 322b 50       		.byte	0x50
 12966 322c 02       		.uleb128 0x2
 12967 322d 75       		.byte	0x75
 12968 322e 00       		.sleb128 0
 12969 322f 2A       		.uleb128 0x2a
 12970 3230 01       		.uleb128 0x1
 12971 3231 51       		.byte	0x51
 12972 3232 02       		.uleb128 0x2
 12973 3233 76       		.byte	0x76
 12974 3234 00       		.sleb128 0
 12975 3235 00       		.byte	0
 12976 3236 2B       		.uleb128 0x2b
 12977 3237 40080000 		.4byte	.LVL528
 12978 323b 895E0000 		.4byte	0x5e89
 12979 323f 2A       		.uleb128 0x2a
 12980 3240 01       		.uleb128 0x1
 12981 3241 50       		.byte	0x50
 12982 3242 02       		.uleb128 0x2
 12983 3243 75       		.byte	0x75
 12984 3244 00       		.sleb128 0
 12985 3245 2A       		.uleb128 0x2a
 12986 3246 01       		.uleb128 0x1
 12987 3247 51       		.byte	0x51
 12988 3248 02       		.uleb128 0x2
 12989 3249 76       		.byte	0x76
 12990 324a 00       		.sleb128 0
 12991 324b 00       		.byte	0
 12992 324c 00       		.byte	0
 12993 324d 26       		.uleb128 0x26
 12994 324e 732F0000 		.4byte	.LASF698
 12995 3252 01       		.byte	0x1
 12996 3253 7701     		.2byte	0x177
ARM GAS  /tmp/cc4M9ACW.s 			page 229


 12997 3255 3C0C0000 		.4byte	0xc3c
 12998 3259 00000000 		.4byte	.LFB221
 12999 325d E8080000 		.4byte	.LFE221-.LFB221
 13000 3261 01       		.uleb128 0x1
 13001 3262 9C       		.byte	0x9c
 13002 3263 EB410000 		.4byte	0x41eb
 13003 3267 23       		.uleb128 0x23
 13004 3268 25220000 		.4byte	.LASF695
 13005 326c 01       		.byte	0x1
 13006 326d 7701     		.2byte	0x177
 13007 326f 8D080000 		.4byte	0x88d
 13008 3273 B8000000 		.4byte	.LLST4
 13009 3277 23       		.uleb128 0x23
 13010 3278 CF1D0000 		.4byte	.LASF694
 13011 327c 01       		.byte	0x1
 13012 327d 7701     		.2byte	0x177
 13013 327f A5240000 		.4byte	0x24a5
 13014 3283 EF000000 		.4byte	.LLST5
 13015 3287 27       		.uleb128 0x27
 13016 3288 696E6400 		.ascii	"ind\000"
 13017 328c 01       		.byte	0x1
 13018 328d 7801     		.2byte	0x178
 13019 328f DA000000 		.4byte	0xda
 13020 3293 02       		.uleb128 0x2
 13021 3294 91       		.byte	0x91
 13022 3295 64       		.sleb128 -28
 13023 3296 28       		.uleb128 0x28
 13024 3297 A9180000 		.4byte	.LASF696
 13025 329b 01       		.byte	0x1
 13026 329c 7A01     		.2byte	0x17a
 13027 329e EA000000 		.4byte	0xea
 13028 32a2 26010000 		.4byte	.LLST6
 13029 32a6 29       		.uleb128 0x29
 13030 32a7 16000000 		.4byte	.LVL263
 13031 32ab 7E5E0000 		.4byte	0x5e7e
 13032 32af C0320000 		.4byte	0x32c0
 13033 32b3 2A       		.uleb128 0x2a
 13034 32b4 01       		.uleb128 0x1
 13035 32b5 50       		.byte	0x50
 13036 32b6 02       		.uleb128 0x2
 13037 32b7 75       		.byte	0x75
 13038 32b8 00       		.sleb128 0
 13039 32b9 2A       		.uleb128 0x2a
 13040 32ba 01       		.uleb128 0x1
 13041 32bb 51       		.byte	0x51
 13042 32bc 02       		.uleb128 0x2
 13043 32bd 76       		.byte	0x76
 13044 32be 00       		.sleb128 0
 13045 32bf 00       		.byte	0
 13046 32c0 29       		.uleb128 0x29
 13047 32c1 5C000000 		.4byte	.LVL268
 13048 32c5 895E0000 		.4byte	0x5e89
 13049 32c9 DA320000 		.4byte	0x32da
 13050 32cd 2A       		.uleb128 0x2a
 13051 32ce 01       		.uleb128 0x1
 13052 32cf 50       		.byte	0x50
 13053 32d0 02       		.uleb128 0x2
ARM GAS  /tmp/cc4M9ACW.s 			page 230


 13054 32d1 75       		.byte	0x75
 13055 32d2 00       		.sleb128 0
 13056 32d3 2A       		.uleb128 0x2a
 13057 32d4 01       		.uleb128 0x1
 13058 32d5 51       		.byte	0x51
 13059 32d6 02       		.uleb128 0x2
 13060 32d7 76       		.byte	0x76
 13061 32d8 00       		.sleb128 0
 13062 32d9 00       		.byte	0
 13063 32da 29       		.uleb128 0x29
 13064 32db 68000000 		.4byte	.LVL269
 13065 32df 895E0000 		.4byte	0x5e89
 13066 32e3 F4320000 		.4byte	0x32f4
 13067 32e7 2A       		.uleb128 0x2a
 13068 32e8 01       		.uleb128 0x1
 13069 32e9 50       		.byte	0x50
 13070 32ea 02       		.uleb128 0x2
 13071 32eb 75       		.byte	0x75
 13072 32ec 00       		.sleb128 0
 13073 32ed 2A       		.uleb128 0x2a
 13074 32ee 01       		.uleb128 0x1
 13075 32ef 51       		.byte	0x51
 13076 32f0 02       		.uleb128 0x2
 13077 32f1 76       		.byte	0x76
 13078 32f2 00       		.sleb128 0
 13079 32f3 00       		.byte	0
 13080 32f4 29       		.uleb128 0x29
 13081 32f5 74000000 		.4byte	.LVL270
 13082 32f9 895E0000 		.4byte	0x5e89
 13083 32fd 0E330000 		.4byte	0x330e
 13084 3301 2A       		.uleb128 0x2a
 13085 3302 01       		.uleb128 0x1
 13086 3303 50       		.byte	0x50
 13087 3304 02       		.uleb128 0x2
 13088 3305 75       		.byte	0x75
 13089 3306 00       		.sleb128 0
 13090 3307 2A       		.uleb128 0x2a
 13091 3308 01       		.uleb128 0x1
 13092 3309 51       		.byte	0x51
 13093 330a 02       		.uleb128 0x2
 13094 330b 76       		.byte	0x76
 13095 330c 00       		.sleb128 0
 13096 330d 00       		.byte	0
 13097 330e 29       		.uleb128 0x29
 13098 330f 80000000 		.4byte	.LVL271
 13099 3313 895E0000 		.4byte	0x5e89
 13100 3317 28330000 		.4byte	0x3328
 13101 331b 2A       		.uleb128 0x2a
 13102 331c 01       		.uleb128 0x1
 13103 331d 50       		.byte	0x50
 13104 331e 02       		.uleb128 0x2
 13105 331f 75       		.byte	0x75
 13106 3320 00       		.sleb128 0
 13107 3321 2A       		.uleb128 0x2a
 13108 3322 01       		.uleb128 0x1
 13109 3323 51       		.byte	0x51
 13110 3324 02       		.uleb128 0x2
ARM GAS  /tmp/cc4M9ACW.s 			page 231


 13111 3325 76       		.byte	0x76
 13112 3326 00       		.sleb128 0
 13113 3327 00       		.byte	0
 13114 3328 29       		.uleb128 0x29
 13115 3329 8C000000 		.4byte	.LVL272
 13116 332d 895E0000 		.4byte	0x5e89
 13117 3331 42330000 		.4byte	0x3342
 13118 3335 2A       		.uleb128 0x2a
 13119 3336 01       		.uleb128 0x1
 13120 3337 50       		.byte	0x50
 13121 3338 02       		.uleb128 0x2
 13122 3339 75       		.byte	0x75
 13123 333a 00       		.sleb128 0
 13124 333b 2A       		.uleb128 0x2a
 13125 333c 01       		.uleb128 0x1
 13126 333d 51       		.byte	0x51
 13127 333e 02       		.uleb128 0x2
 13128 333f 76       		.byte	0x76
 13129 3340 00       		.sleb128 0
 13130 3341 00       		.byte	0
 13131 3342 29       		.uleb128 0x29
 13132 3343 98000000 		.4byte	.LVL273
 13133 3347 895E0000 		.4byte	0x5e89
 13134 334b 5C330000 		.4byte	0x335c
 13135 334f 2A       		.uleb128 0x2a
 13136 3350 01       		.uleb128 0x1
 13137 3351 50       		.byte	0x50
 13138 3352 02       		.uleb128 0x2
 13139 3353 75       		.byte	0x75
 13140 3354 00       		.sleb128 0
 13141 3355 2A       		.uleb128 0x2a
 13142 3356 01       		.uleb128 0x1
 13143 3357 51       		.byte	0x51
 13144 3358 02       		.uleb128 0x2
 13145 3359 76       		.byte	0x76
 13146 335a 00       		.sleb128 0
 13147 335b 00       		.byte	0
 13148 335c 29       		.uleb128 0x29
 13149 335d A4000000 		.4byte	.LVL274
 13150 3361 895E0000 		.4byte	0x5e89
 13151 3365 76330000 		.4byte	0x3376
 13152 3369 2A       		.uleb128 0x2a
 13153 336a 01       		.uleb128 0x1
 13154 336b 50       		.byte	0x50
 13155 336c 02       		.uleb128 0x2
 13156 336d 75       		.byte	0x75
 13157 336e 00       		.sleb128 0
 13158 336f 2A       		.uleb128 0x2a
 13159 3370 01       		.uleb128 0x1
 13160 3371 51       		.byte	0x51
 13161 3372 02       		.uleb128 0x2
 13162 3373 76       		.byte	0x76
 13163 3374 00       		.sleb128 0
 13164 3375 00       		.byte	0
 13165 3376 29       		.uleb128 0x29
 13166 3377 B4000000 		.4byte	.LVL275
 13167 337b 9F5E0000 		.4byte	0x5e9f
ARM GAS  /tmp/cc4M9ACW.s 			page 232


 13168 337f 9C330000 		.4byte	0x339c
 13169 3383 2A       		.uleb128 0x2a
 13170 3384 01       		.uleb128 0x1
 13171 3385 50       		.byte	0x50
 13172 3386 02       		.uleb128 0x2
 13173 3387 75       		.byte	0x75
 13174 3388 00       		.sleb128 0
 13175 3389 2A       		.uleb128 0x2a
 13176 338a 02       		.uleb128 0x2
 13177 338b 90       		.byte	0x90
 13178 338c 40       		.uleb128 0x40
 13179 338d 07       		.uleb128 0x7
 13180 338e F4       		.byte	0xf4
 13181 338f 25       		.uleb128 0x25
 13182 3390 04       		.byte	0x4
 13183 3391 00401C46 		.4byte	0x461c4000
 13184 3395 2A       		.uleb128 0x2a
 13185 3396 01       		.uleb128 0x1
 13186 3397 51       		.byte	0x51
 13187 3398 02       		.uleb128 0x2
 13188 3399 76       		.byte	0x76
 13189 339a 00       		.sleb128 0
 13190 339b 00       		.byte	0
 13191 339c 29       		.uleb128 0x29
 13192 339d C0000000 		.4byte	.LVL276
 13193 33a1 895E0000 		.4byte	0x5e89
 13194 33a5 B6330000 		.4byte	0x33b6
 13195 33a9 2A       		.uleb128 0x2a
 13196 33aa 01       		.uleb128 0x1
 13197 33ab 50       		.byte	0x50
 13198 33ac 02       		.uleb128 0x2
 13199 33ad 75       		.byte	0x75
 13200 33ae 00       		.sleb128 0
 13201 33af 2A       		.uleb128 0x2a
 13202 33b0 01       		.uleb128 0x1
 13203 33b1 51       		.byte	0x51
 13204 33b2 02       		.uleb128 0x2
 13205 33b3 76       		.byte	0x76
 13206 33b4 00       		.sleb128 0
 13207 33b5 00       		.byte	0
 13208 33b6 29       		.uleb128 0x29
 13209 33b7 CC000000 		.4byte	.LVL277
 13210 33bb 895E0000 		.4byte	0x5e89
 13211 33bf D0330000 		.4byte	0x33d0
 13212 33c3 2A       		.uleb128 0x2a
 13213 33c4 01       		.uleb128 0x1
 13214 33c5 50       		.byte	0x50
 13215 33c6 02       		.uleb128 0x2
 13216 33c7 75       		.byte	0x75
 13217 33c8 00       		.sleb128 0
 13218 33c9 2A       		.uleb128 0x2a
 13219 33ca 01       		.uleb128 0x1
 13220 33cb 51       		.byte	0x51
 13221 33cc 02       		.uleb128 0x2
 13222 33cd 76       		.byte	0x76
 13223 33ce 00       		.sleb128 0
 13224 33cf 00       		.byte	0
ARM GAS  /tmp/cc4M9ACW.s 			page 233


 13225 33d0 29       		.uleb128 0x29
 13226 33d1 D8000000 		.4byte	.LVL278
 13227 33d5 895E0000 		.4byte	0x5e89
 13228 33d9 EA330000 		.4byte	0x33ea
 13229 33dd 2A       		.uleb128 0x2a
 13230 33de 01       		.uleb128 0x1
 13231 33df 50       		.byte	0x50
 13232 33e0 02       		.uleb128 0x2
 13233 33e1 75       		.byte	0x75
 13234 33e2 00       		.sleb128 0
 13235 33e3 2A       		.uleb128 0x2a
 13236 33e4 01       		.uleb128 0x1
 13237 33e5 51       		.byte	0x51
 13238 33e6 02       		.uleb128 0x2
 13239 33e7 76       		.byte	0x76
 13240 33e8 00       		.sleb128 0
 13241 33e9 00       		.byte	0
 13242 33ea 29       		.uleb128 0x29
 13243 33eb E4000000 		.4byte	.LVL279
 13244 33ef 895E0000 		.4byte	0x5e89
 13245 33f3 04340000 		.4byte	0x3404
 13246 33f7 2A       		.uleb128 0x2a
 13247 33f8 01       		.uleb128 0x1
 13248 33f9 50       		.byte	0x50
 13249 33fa 02       		.uleb128 0x2
 13250 33fb 75       		.byte	0x75
 13251 33fc 00       		.sleb128 0
 13252 33fd 2A       		.uleb128 0x2a
 13253 33fe 01       		.uleb128 0x1
 13254 33ff 51       		.byte	0x51
 13255 3400 02       		.uleb128 0x2
 13256 3401 76       		.byte	0x76
 13257 3402 00       		.sleb128 0
 13258 3403 00       		.byte	0
 13259 3404 29       		.uleb128 0x29
 13260 3405 F0000000 		.4byte	.LVL280
 13261 3409 895E0000 		.4byte	0x5e89
 13262 340d 1E340000 		.4byte	0x341e
 13263 3411 2A       		.uleb128 0x2a
 13264 3412 01       		.uleb128 0x1
 13265 3413 50       		.byte	0x50
 13266 3414 02       		.uleb128 0x2
 13267 3415 75       		.byte	0x75
 13268 3416 00       		.sleb128 0
 13269 3417 2A       		.uleb128 0x2a
 13270 3418 01       		.uleb128 0x1
 13271 3419 51       		.byte	0x51
 13272 341a 02       		.uleb128 0x2
 13273 341b 76       		.byte	0x76
 13274 341c 00       		.sleb128 0
 13275 341d 00       		.byte	0
 13276 341e 29       		.uleb128 0x29
 13277 341f FC000000 		.4byte	.LVL281
 13278 3423 895E0000 		.4byte	0x5e89
 13279 3427 38340000 		.4byte	0x3438
 13280 342b 2A       		.uleb128 0x2a
 13281 342c 01       		.uleb128 0x1
ARM GAS  /tmp/cc4M9ACW.s 			page 234


 13282 342d 50       		.byte	0x50
 13283 342e 02       		.uleb128 0x2
 13284 342f 75       		.byte	0x75
 13285 3430 00       		.sleb128 0
 13286 3431 2A       		.uleb128 0x2a
 13287 3432 01       		.uleb128 0x1
 13288 3433 51       		.byte	0x51
 13289 3434 02       		.uleb128 0x2
 13290 3435 76       		.byte	0x76
 13291 3436 00       		.sleb128 0
 13292 3437 00       		.byte	0
 13293 3438 29       		.uleb128 0x29
 13294 3439 1E010000 		.4byte	.LVL282
 13295 343d 9F5E0000 		.4byte	0x5e9f
 13296 3441 5E340000 		.4byte	0x345e
 13297 3445 2A       		.uleb128 0x2a
 13298 3446 01       		.uleb128 0x1
 13299 3447 50       		.byte	0x50
 13300 3448 02       		.uleb128 0x2
 13301 3449 75       		.byte	0x75
 13302 344a 00       		.sleb128 0
 13303 344b 2A       		.uleb128 0x2a
 13304 344c 02       		.uleb128 0x2
 13305 344d 90       		.byte	0x90
 13306 344e 40       		.uleb128 0x40
 13307 344f 07       		.uleb128 0x7
 13308 3450 F4       		.byte	0xf4
 13309 3451 25       		.uleb128 0x25
 13310 3452 04       		.byte	0x4
 13311 3453 00002041 		.4byte	0x41200000
 13312 3457 2A       		.uleb128 0x2a
 13313 3458 01       		.uleb128 0x1
 13314 3459 51       		.byte	0x51
 13315 345a 02       		.uleb128 0x2
 13316 345b 76       		.byte	0x76
 13317 345c 00       		.sleb128 0
 13318 345d 00       		.byte	0
 13319 345e 29       		.uleb128 0x29
 13320 345f 2E010000 		.4byte	.LVL283
 13321 3463 9F5E0000 		.4byte	0x5e9f
 13322 3467 84340000 		.4byte	0x3484
 13323 346b 2A       		.uleb128 0x2a
 13324 346c 01       		.uleb128 0x1
 13325 346d 50       		.byte	0x50
 13326 346e 02       		.uleb128 0x2
 13327 346f 75       		.byte	0x75
 13328 3470 00       		.sleb128 0
 13329 3471 2A       		.uleb128 0x2a
 13330 3472 02       		.uleb128 0x2
 13331 3473 90       		.byte	0x90
 13332 3474 40       		.uleb128 0x40
 13333 3475 07       		.uleb128 0x7
 13334 3476 F4       		.byte	0xf4
 13335 3477 25       		.uleb128 0x25
 13336 3478 04       		.byte	0x4
 13337 3479 00002041 		.4byte	0x41200000
 13338 347d 2A       		.uleb128 0x2a
ARM GAS  /tmp/cc4M9ACW.s 			page 235


 13339 347e 01       		.uleb128 0x1
 13340 347f 51       		.byte	0x51
 13341 3480 02       		.uleb128 0x2
 13342 3481 76       		.byte	0x76
 13343 3482 00       		.sleb128 0
 13344 3483 00       		.byte	0
 13345 3484 29       		.uleb128 0x29
 13346 3485 3E010000 		.4byte	.LVL284
 13347 3489 9F5E0000 		.4byte	0x5e9f
 13348 348d AA340000 		.4byte	0x34aa
 13349 3491 2A       		.uleb128 0x2a
 13350 3492 01       		.uleb128 0x1
 13351 3493 50       		.byte	0x50
 13352 3494 02       		.uleb128 0x2
 13353 3495 75       		.byte	0x75
 13354 3496 00       		.sleb128 0
 13355 3497 2A       		.uleb128 0x2a
 13356 3498 02       		.uleb128 0x2
 13357 3499 90       		.byte	0x90
 13358 349a 40       		.uleb128 0x40
 13359 349b 07       		.uleb128 0x7
 13360 349c F4       		.byte	0xf4
 13361 349d 25       		.uleb128 0x25
 13362 349e 04       		.byte	0x4
 13363 349f 00002041 		.4byte	0x41200000
 13364 34a3 2A       		.uleb128 0x2a
 13365 34a4 01       		.uleb128 0x1
 13366 34a5 51       		.byte	0x51
 13367 34a6 02       		.uleb128 0x2
 13368 34a7 76       		.byte	0x76
 13369 34a8 00       		.sleb128 0
 13370 34a9 00       		.byte	0
 13371 34aa 29       		.uleb128 0x29
 13372 34ab 4E010000 		.4byte	.LVL285
 13373 34af 9F5E0000 		.4byte	0x5e9f
 13374 34b3 D0340000 		.4byte	0x34d0
 13375 34b7 2A       		.uleb128 0x2a
 13376 34b8 01       		.uleb128 0x1
 13377 34b9 50       		.byte	0x50
 13378 34ba 02       		.uleb128 0x2
 13379 34bb 75       		.byte	0x75
 13380 34bc 00       		.sleb128 0
 13381 34bd 2A       		.uleb128 0x2a
 13382 34be 02       		.uleb128 0x2
 13383 34bf 90       		.byte	0x90
 13384 34c0 40       		.uleb128 0x40
 13385 34c1 07       		.uleb128 0x7
 13386 34c2 F4       		.byte	0xf4
 13387 34c3 25       		.uleb128 0x25
 13388 34c4 04       		.byte	0x4
 13389 34c5 00002041 		.4byte	0x41200000
 13390 34c9 2A       		.uleb128 0x2a
 13391 34ca 01       		.uleb128 0x1
 13392 34cb 51       		.byte	0x51
 13393 34cc 02       		.uleb128 0x2
 13394 34cd 76       		.byte	0x76
 13395 34ce 00       		.sleb128 0
ARM GAS  /tmp/cc4M9ACW.s 			page 236


 13396 34cf 00       		.byte	0
 13397 34d0 29       		.uleb128 0x29
 13398 34d1 5E010000 		.4byte	.LVL286
 13399 34d5 9F5E0000 		.4byte	0x5e9f
 13400 34d9 F6340000 		.4byte	0x34f6
 13401 34dd 2A       		.uleb128 0x2a
 13402 34de 01       		.uleb128 0x1
 13403 34df 50       		.byte	0x50
 13404 34e0 02       		.uleb128 0x2
 13405 34e1 75       		.byte	0x75
 13406 34e2 00       		.sleb128 0
 13407 34e3 2A       		.uleb128 0x2a
 13408 34e4 02       		.uleb128 0x2
 13409 34e5 90       		.byte	0x90
 13410 34e6 40       		.uleb128 0x40
 13411 34e7 07       		.uleb128 0x7
 13412 34e8 F4       		.byte	0xf4
 13413 34e9 25       		.uleb128 0x25
 13414 34ea 04       		.byte	0x4
 13415 34eb 00401C46 		.4byte	0x461c4000
 13416 34ef 2A       		.uleb128 0x2a
 13417 34f0 01       		.uleb128 0x1
 13418 34f1 51       		.byte	0x51
 13419 34f2 02       		.uleb128 0x2
 13420 34f3 76       		.byte	0x76
 13421 34f4 00       		.sleb128 0
 13422 34f5 00       		.byte	0
 13423 34f6 29       		.uleb128 0x29
 13424 34f7 6E010000 		.4byte	.LVL287
 13425 34fb 9F5E0000 		.4byte	0x5e9f
 13426 34ff 1C350000 		.4byte	0x351c
 13427 3503 2A       		.uleb128 0x2a
 13428 3504 01       		.uleb128 0x1
 13429 3505 50       		.byte	0x50
 13430 3506 02       		.uleb128 0x2
 13431 3507 75       		.byte	0x75
 13432 3508 00       		.sleb128 0
 13433 3509 2A       		.uleb128 0x2a
 13434 350a 02       		.uleb128 0x2
 13435 350b 90       		.byte	0x90
 13436 350c 40       		.uleb128 0x40
 13437 350d 07       		.uleb128 0x7
 13438 350e F4       		.byte	0xf4
 13439 350f 25       		.uleb128 0x25
 13440 3510 04       		.byte	0x4
 13441 3511 00401C46 		.4byte	0x461c4000
 13442 3515 2A       		.uleb128 0x2a
 13443 3516 01       		.uleb128 0x1
 13444 3517 51       		.byte	0x51
 13445 3518 02       		.uleb128 0x2
 13446 3519 76       		.byte	0x76
 13447 351a 00       		.sleb128 0
 13448 351b 00       		.byte	0
 13449 351c 29       		.uleb128 0x29
 13450 351d 7E010000 		.4byte	.LVL288
 13451 3521 9F5E0000 		.4byte	0x5e9f
 13452 3525 42350000 		.4byte	0x3542
ARM GAS  /tmp/cc4M9ACW.s 			page 237


 13453 3529 2A       		.uleb128 0x2a
 13454 352a 01       		.uleb128 0x1
 13455 352b 50       		.byte	0x50
 13456 352c 02       		.uleb128 0x2
 13457 352d 75       		.byte	0x75
 13458 352e 00       		.sleb128 0
 13459 352f 2A       		.uleb128 0x2a
 13460 3530 02       		.uleb128 0x2
 13461 3531 90       		.byte	0x90
 13462 3532 40       		.uleb128 0x40
 13463 3533 07       		.uleb128 0x7
 13464 3534 F4       		.byte	0xf4
 13465 3535 25       		.uleb128 0x25
 13466 3536 04       		.byte	0x4
 13467 3537 00401C46 		.4byte	0x461c4000
 13468 353b 2A       		.uleb128 0x2a
 13469 353c 01       		.uleb128 0x1
 13470 353d 51       		.byte	0x51
 13471 353e 02       		.uleb128 0x2
 13472 353f 76       		.byte	0x76
 13473 3540 00       		.sleb128 0
 13474 3541 00       		.byte	0
 13475 3542 29       		.uleb128 0x29
 13476 3543 8A010000 		.4byte	.LVL289
 13477 3547 895E0000 		.4byte	0x5e89
 13478 354b 5C350000 		.4byte	0x355c
 13479 354f 2A       		.uleb128 0x2a
 13480 3550 01       		.uleb128 0x1
 13481 3551 50       		.byte	0x50
 13482 3552 02       		.uleb128 0x2
 13483 3553 75       		.byte	0x75
 13484 3554 00       		.sleb128 0
 13485 3555 2A       		.uleb128 0x2a
 13486 3556 01       		.uleb128 0x1
 13487 3557 51       		.byte	0x51
 13488 3558 02       		.uleb128 0x2
 13489 3559 76       		.byte	0x76
 13490 355a 00       		.sleb128 0
 13491 355b 00       		.byte	0
 13492 355c 29       		.uleb128 0x29
 13493 355d 96010000 		.4byte	.LVL290
 13494 3561 895E0000 		.4byte	0x5e89
 13495 3565 76350000 		.4byte	0x3576
 13496 3569 2A       		.uleb128 0x2a
 13497 356a 01       		.uleb128 0x1
 13498 356b 50       		.byte	0x50
 13499 356c 02       		.uleb128 0x2
 13500 356d 75       		.byte	0x75
 13501 356e 00       		.sleb128 0
 13502 356f 2A       		.uleb128 0x2a
 13503 3570 01       		.uleb128 0x1
 13504 3571 51       		.byte	0x51
 13505 3572 02       		.uleb128 0x2
 13506 3573 76       		.byte	0x76
 13507 3574 00       		.sleb128 0
 13508 3575 00       		.byte	0
 13509 3576 29       		.uleb128 0x29
ARM GAS  /tmp/cc4M9ACW.s 			page 238


 13510 3577 A6010000 		.4byte	.LVL291
 13511 357b 9F5E0000 		.4byte	0x5e9f
 13512 357f 9C350000 		.4byte	0x359c
 13513 3583 2A       		.uleb128 0x2a
 13514 3584 01       		.uleb128 0x1
 13515 3585 50       		.byte	0x50
 13516 3586 02       		.uleb128 0x2
 13517 3587 75       		.byte	0x75
 13518 3588 00       		.sleb128 0
 13519 3589 2A       		.uleb128 0x2a
 13520 358a 02       		.uleb128 0x2
 13521 358b 90       		.byte	0x90
 13522 358c 40       		.uleb128 0x40
 13523 358d 07       		.uleb128 0x7
 13524 358e F4       		.byte	0xf4
 13525 358f 25       		.uleb128 0x25
 13526 3590 04       		.byte	0x4
 13527 3591 00401C46 		.4byte	0x461c4000
 13528 3595 2A       		.uleb128 0x2a
 13529 3596 01       		.uleb128 0x1
 13530 3597 51       		.byte	0x51
 13531 3598 02       		.uleb128 0x2
 13532 3599 76       		.byte	0x76
 13533 359a 00       		.sleb128 0
 13534 359b 00       		.byte	0
 13535 359c 29       		.uleb128 0x29
 13536 359d B6010000 		.4byte	.LVL292
 13537 35a1 9F5E0000 		.4byte	0x5e9f
 13538 35a5 C2350000 		.4byte	0x35c2
 13539 35a9 2A       		.uleb128 0x2a
 13540 35aa 01       		.uleb128 0x1
 13541 35ab 50       		.byte	0x50
 13542 35ac 02       		.uleb128 0x2
 13543 35ad 75       		.byte	0x75
 13544 35ae 00       		.sleb128 0
 13545 35af 2A       		.uleb128 0x2a
 13546 35b0 02       		.uleb128 0x2
 13547 35b1 90       		.byte	0x90
 13548 35b2 40       		.uleb128 0x40
 13549 35b3 07       		.uleb128 0x7
 13550 35b4 F4       		.byte	0xf4
 13551 35b5 25       		.uleb128 0x25
 13552 35b6 04       		.byte	0x4
 13553 35b7 00401C46 		.4byte	0x461c4000
 13554 35bb 2A       		.uleb128 0x2a
 13555 35bc 01       		.uleb128 0x1
 13556 35bd 51       		.byte	0x51
 13557 35be 02       		.uleb128 0x2
 13558 35bf 76       		.byte	0x76
 13559 35c0 00       		.sleb128 0
 13560 35c1 00       		.byte	0
 13561 35c2 29       		.uleb128 0x29
 13562 35c3 C6010000 		.4byte	.LVL293
 13563 35c7 9F5E0000 		.4byte	0x5e9f
 13564 35cb E8350000 		.4byte	0x35e8
 13565 35cf 2A       		.uleb128 0x2a
 13566 35d0 01       		.uleb128 0x1
ARM GAS  /tmp/cc4M9ACW.s 			page 239


 13567 35d1 50       		.byte	0x50
 13568 35d2 02       		.uleb128 0x2
 13569 35d3 75       		.byte	0x75
 13570 35d4 00       		.sleb128 0
 13571 35d5 2A       		.uleb128 0x2a
 13572 35d6 02       		.uleb128 0x2
 13573 35d7 90       		.byte	0x90
 13574 35d8 40       		.uleb128 0x40
 13575 35d9 07       		.uleb128 0x7
 13576 35da F4       		.byte	0xf4
 13577 35db 25       		.uleb128 0x25
 13578 35dc 04       		.byte	0x4
 13579 35dd 00401C46 		.4byte	0x461c4000
 13580 35e1 2A       		.uleb128 0x2a
 13581 35e2 01       		.uleb128 0x1
 13582 35e3 51       		.byte	0x51
 13583 35e4 02       		.uleb128 0x2
 13584 35e5 76       		.byte	0x76
 13585 35e6 00       		.sleb128 0
 13586 35e7 00       		.byte	0
 13587 35e8 29       		.uleb128 0x29
 13588 35e9 D2010000 		.4byte	.LVL294
 13589 35ed 895E0000 		.4byte	0x5e89
 13590 35f1 02360000 		.4byte	0x3602
 13591 35f5 2A       		.uleb128 0x2a
 13592 35f6 01       		.uleb128 0x1
 13593 35f7 50       		.byte	0x50
 13594 35f8 02       		.uleb128 0x2
 13595 35f9 75       		.byte	0x75
 13596 35fa 00       		.sleb128 0
 13597 35fb 2A       		.uleb128 0x2a
 13598 35fc 01       		.uleb128 0x1
 13599 35fd 51       		.byte	0x51
 13600 35fe 02       		.uleb128 0x2
 13601 35ff 76       		.byte	0x76
 13602 3600 00       		.sleb128 0
 13603 3601 00       		.byte	0
 13604 3602 29       		.uleb128 0x29
 13605 3603 DE010000 		.4byte	.LVL295
 13606 3607 895E0000 		.4byte	0x5e89
 13607 360b 1C360000 		.4byte	0x361c
 13608 360f 2A       		.uleb128 0x2a
 13609 3610 01       		.uleb128 0x1
 13610 3611 50       		.byte	0x50
 13611 3612 02       		.uleb128 0x2
 13612 3613 75       		.byte	0x75
 13613 3614 00       		.sleb128 0
 13614 3615 2A       		.uleb128 0x2a
 13615 3616 01       		.uleb128 0x1
 13616 3617 51       		.byte	0x51
 13617 3618 02       		.uleb128 0x2
 13618 3619 76       		.byte	0x76
 13619 361a 00       		.sleb128 0
 13620 361b 00       		.byte	0
 13621 361c 29       		.uleb128 0x29
 13622 361d EA010000 		.4byte	.LVL296
 13623 3621 895E0000 		.4byte	0x5e89
ARM GAS  /tmp/cc4M9ACW.s 			page 240


 13624 3625 36360000 		.4byte	0x3636
 13625 3629 2A       		.uleb128 0x2a
 13626 362a 01       		.uleb128 0x1
 13627 362b 50       		.byte	0x50
 13628 362c 02       		.uleb128 0x2
 13629 362d 75       		.byte	0x75
 13630 362e 00       		.sleb128 0
 13631 362f 2A       		.uleb128 0x2a
 13632 3630 01       		.uleb128 0x1
 13633 3631 51       		.byte	0x51
 13634 3632 02       		.uleb128 0x2
 13635 3633 76       		.byte	0x76
 13636 3634 00       		.sleb128 0
 13637 3635 00       		.byte	0
 13638 3636 29       		.uleb128 0x29
 13639 3637 FA010000 		.4byte	.LVL297
 13640 363b 9F5E0000 		.4byte	0x5e9f
 13641 363f 5C360000 		.4byte	0x365c
 13642 3643 2A       		.uleb128 0x2a
 13643 3644 01       		.uleb128 0x1
 13644 3645 50       		.byte	0x50
 13645 3646 02       		.uleb128 0x2
 13646 3647 75       		.byte	0x75
 13647 3648 00       		.sleb128 0
 13648 3649 2A       		.uleb128 0x2a
 13649 364a 02       		.uleb128 0x2
 13650 364b 90       		.byte	0x90
 13651 364c 40       		.uleb128 0x40
 13652 364d 07       		.uleb128 0x7
 13653 364e F4       		.byte	0xf4
 13654 364f 25       		.uleb128 0x25
 13655 3650 04       		.byte	0x4
 13656 3651 00002041 		.4byte	0x41200000
 13657 3655 2A       		.uleb128 0x2a
 13658 3656 01       		.uleb128 0x1
 13659 3657 51       		.byte	0x51
 13660 3658 02       		.uleb128 0x2
 13661 3659 76       		.byte	0x76
 13662 365a 00       		.sleb128 0
 13663 365b 00       		.byte	0
 13664 365c 29       		.uleb128 0x29
 13665 365d 0A020000 		.4byte	.LVL298
 13666 3661 9F5E0000 		.4byte	0x5e9f
 13667 3665 82360000 		.4byte	0x3682
 13668 3669 2A       		.uleb128 0x2a
 13669 366a 01       		.uleb128 0x1
 13670 366b 50       		.byte	0x50
 13671 366c 02       		.uleb128 0x2
 13672 366d 75       		.byte	0x75
 13673 366e 00       		.sleb128 0
 13674 366f 2A       		.uleb128 0x2a
 13675 3670 02       		.uleb128 0x2
 13676 3671 90       		.byte	0x90
 13677 3672 40       		.uleb128 0x40
 13678 3673 07       		.uleb128 0x7
 13679 3674 F4       		.byte	0xf4
 13680 3675 25       		.uleb128 0x25
ARM GAS  /tmp/cc4M9ACW.s 			page 241


 13681 3676 04       		.byte	0x4
 13682 3677 00401C46 		.4byte	0x461c4000
 13683 367b 2A       		.uleb128 0x2a
 13684 367c 01       		.uleb128 0x1
 13685 367d 51       		.byte	0x51
 13686 367e 02       		.uleb128 0x2
 13687 367f 76       		.byte	0x76
 13688 3680 00       		.sleb128 0
 13689 3681 00       		.byte	0
 13690 3682 29       		.uleb128 0x29
 13691 3683 16020000 		.4byte	.LVL299
 13692 3687 895E0000 		.4byte	0x5e89
 13693 368b 9C360000 		.4byte	0x369c
 13694 368f 2A       		.uleb128 0x2a
 13695 3690 01       		.uleb128 0x1
 13696 3691 50       		.byte	0x50
 13697 3692 02       		.uleb128 0x2
 13698 3693 75       		.byte	0x75
 13699 3694 00       		.sleb128 0
 13700 3695 2A       		.uleb128 0x2a
 13701 3696 01       		.uleb128 0x1
 13702 3697 51       		.byte	0x51
 13703 3698 02       		.uleb128 0x2
 13704 3699 76       		.byte	0x76
 13705 369a 00       		.sleb128 0
 13706 369b 00       		.byte	0
 13707 369c 29       		.uleb128 0x29
 13708 369d 22020000 		.4byte	.LVL300
 13709 36a1 895E0000 		.4byte	0x5e89
 13710 36a5 B6360000 		.4byte	0x36b6
 13711 36a9 2A       		.uleb128 0x2a
 13712 36aa 01       		.uleb128 0x1
 13713 36ab 50       		.byte	0x50
 13714 36ac 02       		.uleb128 0x2
 13715 36ad 75       		.byte	0x75
 13716 36ae 00       		.sleb128 0
 13717 36af 2A       		.uleb128 0x2a
 13718 36b0 01       		.uleb128 0x1
 13719 36b1 51       		.byte	0x51
 13720 36b2 02       		.uleb128 0x2
 13721 36b3 76       		.byte	0x76
 13722 36b4 00       		.sleb128 0
 13723 36b5 00       		.byte	0
 13724 36b6 29       		.uleb128 0x29
 13725 36b7 66020000 		.4byte	.LVL301
 13726 36bb 895E0000 		.4byte	0x5e89
 13727 36bf D0360000 		.4byte	0x36d0
 13728 36c3 2A       		.uleb128 0x2a
 13729 36c4 01       		.uleb128 0x1
 13730 36c5 50       		.byte	0x50
 13731 36c6 02       		.uleb128 0x2
 13732 36c7 75       		.byte	0x75
 13733 36c8 00       		.sleb128 0
 13734 36c9 2A       		.uleb128 0x2a
 13735 36ca 01       		.uleb128 0x1
 13736 36cb 51       		.byte	0x51
 13737 36cc 02       		.uleb128 0x2
ARM GAS  /tmp/cc4M9ACW.s 			page 242


 13738 36cd 76       		.byte	0x76
 13739 36ce 00       		.sleb128 0
 13740 36cf 00       		.byte	0
 13741 36d0 29       		.uleb128 0x29
 13742 36d1 72020000 		.4byte	.LVL302
 13743 36d5 895E0000 		.4byte	0x5e89
 13744 36d9 EA360000 		.4byte	0x36ea
 13745 36dd 2A       		.uleb128 0x2a
 13746 36de 01       		.uleb128 0x1
 13747 36df 50       		.byte	0x50
 13748 36e0 02       		.uleb128 0x2
 13749 36e1 75       		.byte	0x75
 13750 36e2 00       		.sleb128 0
 13751 36e3 2A       		.uleb128 0x2a
 13752 36e4 01       		.uleb128 0x1
 13753 36e5 51       		.byte	0x51
 13754 36e6 02       		.uleb128 0x2
 13755 36e7 76       		.byte	0x76
 13756 36e8 00       		.sleb128 0
 13757 36e9 00       		.byte	0
 13758 36ea 29       		.uleb128 0x29
 13759 36eb 7E020000 		.4byte	.LVL303
 13760 36ef 895E0000 		.4byte	0x5e89
 13761 36f3 04370000 		.4byte	0x3704
 13762 36f7 2A       		.uleb128 0x2a
 13763 36f8 01       		.uleb128 0x1
 13764 36f9 50       		.byte	0x50
 13765 36fa 02       		.uleb128 0x2
 13766 36fb 75       		.byte	0x75
 13767 36fc 00       		.sleb128 0
 13768 36fd 2A       		.uleb128 0x2a
 13769 36fe 01       		.uleb128 0x1
 13770 36ff 51       		.byte	0x51
 13771 3700 02       		.uleb128 0x2
 13772 3701 76       		.byte	0x76
 13773 3702 00       		.sleb128 0
 13774 3703 00       		.byte	0
 13775 3704 29       		.uleb128 0x29
 13776 3705 8A020000 		.4byte	.LVL304
 13777 3709 895E0000 		.4byte	0x5e89
 13778 370d 1E370000 		.4byte	0x371e
 13779 3711 2A       		.uleb128 0x2a
 13780 3712 01       		.uleb128 0x1
 13781 3713 50       		.byte	0x50
 13782 3714 02       		.uleb128 0x2
 13783 3715 75       		.byte	0x75
 13784 3716 00       		.sleb128 0
 13785 3717 2A       		.uleb128 0x2a
 13786 3718 01       		.uleb128 0x1
 13787 3719 51       		.byte	0x51
 13788 371a 02       		.uleb128 0x2
 13789 371b 76       		.byte	0x76
 13790 371c 00       		.sleb128 0
 13791 371d 00       		.byte	0
 13792 371e 29       		.uleb128 0x29
 13793 371f 96020000 		.4byte	.LVL305
 13794 3723 895E0000 		.4byte	0x5e89
ARM GAS  /tmp/cc4M9ACW.s 			page 243


 13795 3727 38370000 		.4byte	0x3738
 13796 372b 2A       		.uleb128 0x2a
 13797 372c 01       		.uleb128 0x1
 13798 372d 50       		.byte	0x50
 13799 372e 02       		.uleb128 0x2
 13800 372f 75       		.byte	0x75
 13801 3730 00       		.sleb128 0
 13802 3731 2A       		.uleb128 0x2a
 13803 3732 01       		.uleb128 0x1
 13804 3733 51       		.byte	0x51
 13805 3734 02       		.uleb128 0x2
 13806 3735 76       		.byte	0x76
 13807 3736 00       		.sleb128 0
 13808 3737 00       		.byte	0
 13809 3738 29       		.uleb128 0x29
 13810 3739 B4020000 		.4byte	.LVL306
 13811 373d 895E0000 		.4byte	0x5e89
 13812 3741 52370000 		.4byte	0x3752
 13813 3745 2A       		.uleb128 0x2a
 13814 3746 01       		.uleb128 0x1
 13815 3747 50       		.byte	0x50
 13816 3748 02       		.uleb128 0x2
 13817 3749 75       		.byte	0x75
 13818 374a 00       		.sleb128 0
 13819 374b 2A       		.uleb128 0x2a
 13820 374c 01       		.uleb128 0x1
 13821 374d 51       		.byte	0x51
 13822 374e 02       		.uleb128 0x2
 13823 374f 76       		.byte	0x76
 13824 3750 00       		.sleb128 0
 13825 3751 00       		.byte	0
 13826 3752 29       		.uleb128 0x29
 13827 3753 C0020000 		.4byte	.LVL307
 13828 3757 895E0000 		.4byte	0x5e89
 13829 375b 6C370000 		.4byte	0x376c
 13830 375f 2A       		.uleb128 0x2a
 13831 3760 01       		.uleb128 0x1
 13832 3761 50       		.byte	0x50
 13833 3762 02       		.uleb128 0x2
 13834 3763 75       		.byte	0x75
 13835 3764 00       		.sleb128 0
 13836 3765 2A       		.uleb128 0x2a
 13837 3766 01       		.uleb128 0x1
 13838 3767 51       		.byte	0x51
 13839 3768 02       		.uleb128 0x2
 13840 3769 76       		.byte	0x76
 13841 376a 00       		.sleb128 0
 13842 376b 00       		.byte	0
 13843 376c 29       		.uleb128 0x29
 13844 376d CC020000 		.4byte	.LVL308
 13845 3771 895E0000 		.4byte	0x5e89
 13846 3775 86370000 		.4byte	0x3786
 13847 3779 2A       		.uleb128 0x2a
 13848 377a 01       		.uleb128 0x1
 13849 377b 50       		.byte	0x50
 13850 377c 02       		.uleb128 0x2
 13851 377d 75       		.byte	0x75
ARM GAS  /tmp/cc4M9ACW.s 			page 244


 13852 377e 00       		.sleb128 0
 13853 377f 2A       		.uleb128 0x2a
 13854 3780 01       		.uleb128 0x1
 13855 3781 51       		.byte	0x51
 13856 3782 02       		.uleb128 0x2
 13857 3783 76       		.byte	0x76
 13858 3784 00       		.sleb128 0
 13859 3785 00       		.byte	0
 13860 3786 29       		.uleb128 0x29
 13861 3787 D8020000 		.4byte	.LVL309
 13862 378b 895E0000 		.4byte	0x5e89
 13863 378f A0370000 		.4byte	0x37a0
 13864 3793 2A       		.uleb128 0x2a
 13865 3794 01       		.uleb128 0x1
 13866 3795 50       		.byte	0x50
 13867 3796 02       		.uleb128 0x2
 13868 3797 75       		.byte	0x75
 13869 3798 00       		.sleb128 0
 13870 3799 2A       		.uleb128 0x2a
 13871 379a 01       		.uleb128 0x1
 13872 379b 51       		.byte	0x51
 13873 379c 02       		.uleb128 0x2
 13874 379d 76       		.byte	0x76
 13875 379e 00       		.sleb128 0
 13876 379f 00       		.byte	0
 13877 37a0 29       		.uleb128 0x29
 13878 37a1 E4020000 		.4byte	.LVL310
 13879 37a5 895E0000 		.4byte	0x5e89
 13880 37a9 BA370000 		.4byte	0x37ba
 13881 37ad 2A       		.uleb128 0x2a
 13882 37ae 01       		.uleb128 0x1
 13883 37af 50       		.byte	0x50
 13884 37b0 02       		.uleb128 0x2
 13885 37b1 75       		.byte	0x75
 13886 37b2 00       		.sleb128 0
 13887 37b3 2A       		.uleb128 0x2a
 13888 37b4 01       		.uleb128 0x1
 13889 37b5 51       		.byte	0x51
 13890 37b6 02       		.uleb128 0x2
 13891 37b7 76       		.byte	0x76
 13892 37b8 00       		.sleb128 0
 13893 37b9 00       		.byte	0
 13894 37ba 29       		.uleb128 0x29
 13895 37bb F0020000 		.4byte	.LVL311
 13896 37bf 895E0000 		.4byte	0x5e89
 13897 37c3 D4370000 		.4byte	0x37d4
 13898 37c7 2A       		.uleb128 0x2a
 13899 37c8 01       		.uleb128 0x1
 13900 37c9 50       		.byte	0x50
 13901 37ca 02       		.uleb128 0x2
 13902 37cb 75       		.byte	0x75
 13903 37cc 00       		.sleb128 0
 13904 37cd 2A       		.uleb128 0x2a
 13905 37ce 01       		.uleb128 0x1
 13906 37cf 51       		.byte	0x51
 13907 37d0 02       		.uleb128 0x2
 13908 37d1 76       		.byte	0x76
ARM GAS  /tmp/cc4M9ACW.s 			page 245


 13909 37d2 00       		.sleb128 0
 13910 37d3 00       		.byte	0
 13911 37d4 29       		.uleb128 0x29
 13912 37d5 FC020000 		.4byte	.LVL312
 13913 37d9 895E0000 		.4byte	0x5e89
 13914 37dd EE370000 		.4byte	0x37ee
 13915 37e1 2A       		.uleb128 0x2a
 13916 37e2 01       		.uleb128 0x1
 13917 37e3 50       		.byte	0x50
 13918 37e4 02       		.uleb128 0x2
 13919 37e5 75       		.byte	0x75
 13920 37e6 00       		.sleb128 0
 13921 37e7 2A       		.uleb128 0x2a
 13922 37e8 01       		.uleb128 0x1
 13923 37e9 51       		.byte	0x51
 13924 37ea 02       		.uleb128 0x2
 13925 37eb 76       		.byte	0x76
 13926 37ec 00       		.sleb128 0
 13927 37ed 00       		.byte	0
 13928 37ee 29       		.uleb128 0x29
 13929 37ef 14030000 		.4byte	.LVL313
 13930 37f3 895E0000 		.4byte	0x5e89
 13931 37f7 08380000 		.4byte	0x3808
 13932 37fb 2A       		.uleb128 0x2a
 13933 37fc 01       		.uleb128 0x1
 13934 37fd 50       		.byte	0x50
 13935 37fe 02       		.uleb128 0x2
 13936 37ff 75       		.byte	0x75
 13937 3800 00       		.sleb128 0
 13938 3801 2A       		.uleb128 0x2a
 13939 3802 01       		.uleb128 0x1
 13940 3803 51       		.byte	0x51
 13941 3804 02       		.uleb128 0x2
 13942 3805 76       		.byte	0x76
 13943 3806 00       		.sleb128 0
 13944 3807 00       		.byte	0
 13945 3808 29       		.uleb128 0x29
 13946 3809 20030000 		.4byte	.LVL314
 13947 380d 895E0000 		.4byte	0x5e89
 13948 3811 22380000 		.4byte	0x3822
 13949 3815 2A       		.uleb128 0x2a
 13950 3816 01       		.uleb128 0x1
 13951 3817 50       		.byte	0x50
 13952 3818 02       		.uleb128 0x2
 13953 3819 75       		.byte	0x75
 13954 381a 00       		.sleb128 0
 13955 381b 2A       		.uleb128 0x2a
 13956 381c 01       		.uleb128 0x1
 13957 381d 51       		.byte	0x51
 13958 381e 02       		.uleb128 0x2
 13959 381f 76       		.byte	0x76
 13960 3820 00       		.sleb128 0
 13961 3821 00       		.byte	0
 13962 3822 29       		.uleb128 0x29
 13963 3823 2C030000 		.4byte	.LVL315
 13964 3827 895E0000 		.4byte	0x5e89
 13965 382b 3C380000 		.4byte	0x383c
ARM GAS  /tmp/cc4M9ACW.s 			page 246


 13966 382f 2A       		.uleb128 0x2a
 13967 3830 01       		.uleb128 0x1
 13968 3831 50       		.byte	0x50
 13969 3832 02       		.uleb128 0x2
 13970 3833 75       		.byte	0x75
 13971 3834 00       		.sleb128 0
 13972 3835 2A       		.uleb128 0x2a
 13973 3836 01       		.uleb128 0x1
 13974 3837 51       		.byte	0x51
 13975 3838 02       		.uleb128 0x2
 13976 3839 76       		.byte	0x76
 13977 383a 00       		.sleb128 0
 13978 383b 00       		.byte	0
 13979 383c 29       		.uleb128 0x29
 13980 383d 38030000 		.4byte	.LVL316
 13981 3841 895E0000 		.4byte	0x5e89
 13982 3845 56380000 		.4byte	0x3856
 13983 3849 2A       		.uleb128 0x2a
 13984 384a 01       		.uleb128 0x1
 13985 384b 50       		.byte	0x50
 13986 384c 02       		.uleb128 0x2
 13987 384d 75       		.byte	0x75
 13988 384e 00       		.sleb128 0
 13989 384f 2A       		.uleb128 0x2a
 13990 3850 01       		.uleb128 0x1
 13991 3851 51       		.byte	0x51
 13992 3852 02       		.uleb128 0x2
 13993 3853 76       		.byte	0x76
 13994 3854 00       		.sleb128 0
 13995 3855 00       		.byte	0
 13996 3856 29       		.uleb128 0x29
 13997 3857 44030000 		.4byte	.LVL317
 13998 385b 895E0000 		.4byte	0x5e89
 13999 385f 70380000 		.4byte	0x3870
 14000 3863 2A       		.uleb128 0x2a
 14001 3864 01       		.uleb128 0x1
 14002 3865 50       		.byte	0x50
 14003 3866 02       		.uleb128 0x2
 14004 3867 75       		.byte	0x75
 14005 3868 00       		.sleb128 0
 14006 3869 2A       		.uleb128 0x2a
 14007 386a 01       		.uleb128 0x1
 14008 386b 51       		.byte	0x51
 14009 386c 02       		.uleb128 0x2
 14010 386d 76       		.byte	0x76
 14011 386e 00       		.sleb128 0
 14012 386f 00       		.byte	0
 14013 3870 29       		.uleb128 0x29
 14014 3871 50030000 		.4byte	.LVL318
 14015 3875 895E0000 		.4byte	0x5e89
 14016 3879 8A380000 		.4byte	0x388a
 14017 387d 2A       		.uleb128 0x2a
 14018 387e 01       		.uleb128 0x1
 14019 387f 50       		.byte	0x50
 14020 3880 02       		.uleb128 0x2
 14021 3881 75       		.byte	0x75
 14022 3882 00       		.sleb128 0
ARM GAS  /tmp/cc4M9ACW.s 			page 247


 14023 3883 2A       		.uleb128 0x2a
 14024 3884 01       		.uleb128 0x1
 14025 3885 51       		.byte	0x51
 14026 3886 02       		.uleb128 0x2
 14027 3887 76       		.byte	0x76
 14028 3888 00       		.sleb128 0
 14029 3889 00       		.byte	0
 14030 388a 29       		.uleb128 0x29
 14031 388b 5C030000 		.4byte	.LVL319
 14032 388f 895E0000 		.4byte	0x5e89
 14033 3893 A4380000 		.4byte	0x38a4
 14034 3897 2A       		.uleb128 0x2a
 14035 3898 01       		.uleb128 0x1
 14036 3899 50       		.byte	0x50
 14037 389a 02       		.uleb128 0x2
 14038 389b 75       		.byte	0x75
 14039 389c 00       		.sleb128 0
 14040 389d 2A       		.uleb128 0x2a
 14041 389e 01       		.uleb128 0x1
 14042 389f 51       		.byte	0x51
 14043 38a0 02       		.uleb128 0x2
 14044 38a1 76       		.byte	0x76
 14045 38a2 00       		.sleb128 0
 14046 38a3 00       		.byte	0
 14047 38a4 29       		.uleb128 0x29
 14048 38a5 68030000 		.4byte	.LVL320
 14049 38a9 895E0000 		.4byte	0x5e89
 14050 38ad BE380000 		.4byte	0x38be
 14051 38b1 2A       		.uleb128 0x2a
 14052 38b2 01       		.uleb128 0x1
 14053 38b3 50       		.byte	0x50
 14054 38b4 02       		.uleb128 0x2
 14055 38b5 75       		.byte	0x75
 14056 38b6 00       		.sleb128 0
 14057 38b7 2A       		.uleb128 0x2a
 14058 38b8 01       		.uleb128 0x1
 14059 38b9 51       		.byte	0x51
 14060 38ba 02       		.uleb128 0x2
 14061 38bb 76       		.byte	0x76
 14062 38bc 00       		.sleb128 0
 14063 38bd 00       		.byte	0
 14064 38be 29       		.uleb128 0x29
 14065 38bf 78030000 		.4byte	.LVL321
 14066 38c3 9F5E0000 		.4byte	0x5e9f
 14067 38c7 E4380000 		.4byte	0x38e4
 14068 38cb 2A       		.uleb128 0x2a
 14069 38cc 01       		.uleb128 0x1
 14070 38cd 50       		.byte	0x50
 14071 38ce 02       		.uleb128 0x2
 14072 38cf 75       		.byte	0x75
 14073 38d0 00       		.sleb128 0
 14074 38d1 2A       		.uleb128 0x2a
 14075 38d2 02       		.uleb128 0x2
 14076 38d3 90       		.byte	0x90
 14077 38d4 40       		.uleb128 0x40
 14078 38d5 07       		.uleb128 0x7
 14079 38d6 F4       		.byte	0xf4
ARM GAS  /tmp/cc4M9ACW.s 			page 248


 14080 38d7 25       		.uleb128 0x25
 14081 38d8 04       		.byte	0x4
 14082 38d9 00007A44 		.4byte	0x447a0000
 14083 38dd 2A       		.uleb128 0x2a
 14084 38de 01       		.uleb128 0x1
 14085 38df 51       		.byte	0x51
 14086 38e0 02       		.uleb128 0x2
 14087 38e1 76       		.byte	0x76
 14088 38e2 00       		.sleb128 0
 14089 38e3 00       		.byte	0
 14090 38e4 29       		.uleb128 0x29
 14091 38e5 84030000 		.4byte	.LVL322
 14092 38e9 895E0000 		.4byte	0x5e89
 14093 38ed FE380000 		.4byte	0x38fe
 14094 38f1 2A       		.uleb128 0x2a
 14095 38f2 01       		.uleb128 0x1
 14096 38f3 50       		.byte	0x50
 14097 38f4 02       		.uleb128 0x2
 14098 38f5 75       		.byte	0x75
 14099 38f6 00       		.sleb128 0
 14100 38f7 2A       		.uleb128 0x2a
 14101 38f8 01       		.uleb128 0x1
 14102 38f9 51       		.byte	0x51
 14103 38fa 02       		.uleb128 0x2
 14104 38fb 76       		.byte	0x76
 14105 38fc 00       		.sleb128 0
 14106 38fd 00       		.byte	0
 14107 38fe 29       		.uleb128 0x29
 14108 38ff 90030000 		.4byte	.LVL323
 14109 3903 895E0000 		.4byte	0x5e89
 14110 3907 18390000 		.4byte	0x3918
 14111 390b 2A       		.uleb128 0x2a
 14112 390c 01       		.uleb128 0x1
 14113 390d 50       		.byte	0x50
 14114 390e 02       		.uleb128 0x2
 14115 390f 75       		.byte	0x75
 14116 3910 00       		.sleb128 0
 14117 3911 2A       		.uleb128 0x2a
 14118 3912 01       		.uleb128 0x1
 14119 3913 51       		.byte	0x51
 14120 3914 02       		.uleb128 0x2
 14121 3915 76       		.byte	0x76
 14122 3916 00       		.sleb128 0
 14123 3917 00       		.byte	0
 14124 3918 29       		.uleb128 0x29
 14125 3919 9C030000 		.4byte	.LVL324
 14126 391d 895E0000 		.4byte	0x5e89
 14127 3921 32390000 		.4byte	0x3932
 14128 3925 2A       		.uleb128 0x2a
 14129 3926 01       		.uleb128 0x1
 14130 3927 50       		.byte	0x50
 14131 3928 02       		.uleb128 0x2
 14132 3929 75       		.byte	0x75
 14133 392a 00       		.sleb128 0
 14134 392b 2A       		.uleb128 0x2a
 14135 392c 01       		.uleb128 0x1
 14136 392d 51       		.byte	0x51
ARM GAS  /tmp/cc4M9ACW.s 			page 249


 14137 392e 02       		.uleb128 0x2
 14138 392f 76       		.byte	0x76
 14139 3930 00       		.sleb128 0
 14140 3931 00       		.byte	0
 14141 3932 29       		.uleb128 0x29
 14142 3933 AC030000 		.4byte	.LVL325
 14143 3937 9F5E0000 		.4byte	0x5e9f
 14144 393b 58390000 		.4byte	0x3958
 14145 393f 2A       		.uleb128 0x2a
 14146 3940 01       		.uleb128 0x1
 14147 3941 50       		.byte	0x50
 14148 3942 02       		.uleb128 0x2
 14149 3943 75       		.byte	0x75
 14150 3944 00       		.sleb128 0
 14151 3945 2A       		.uleb128 0x2a
 14152 3946 02       		.uleb128 0x2
 14153 3947 90       		.byte	0x90
 14154 3948 40       		.uleb128 0x40
 14155 3949 07       		.uleb128 0x7
 14156 394a F4       		.byte	0xf4
 14157 394b 25       		.uleb128 0x25
 14158 394c 04       		.byte	0x4
 14159 394d 00007A44 		.4byte	0x447a0000
 14160 3951 2A       		.uleb128 0x2a
 14161 3952 01       		.uleb128 0x1
 14162 3953 51       		.byte	0x51
 14163 3954 02       		.uleb128 0x2
 14164 3955 76       		.byte	0x76
 14165 3956 00       		.sleb128 0
 14166 3957 00       		.byte	0
 14167 3958 29       		.uleb128 0x29
 14168 3959 B8030000 		.4byte	.LVL326
 14169 395d 895E0000 		.4byte	0x5e89
 14170 3961 72390000 		.4byte	0x3972
 14171 3965 2A       		.uleb128 0x2a
 14172 3966 01       		.uleb128 0x1
 14173 3967 50       		.byte	0x50
 14174 3968 02       		.uleb128 0x2
 14175 3969 75       		.byte	0x75
 14176 396a 00       		.sleb128 0
 14177 396b 2A       		.uleb128 0x2a
 14178 396c 01       		.uleb128 0x1
 14179 396d 51       		.byte	0x51
 14180 396e 02       		.uleb128 0x2
 14181 396f 76       		.byte	0x76
 14182 3970 00       		.sleb128 0
 14183 3971 00       		.byte	0
 14184 3972 29       		.uleb128 0x29
 14185 3973 C4030000 		.4byte	.LVL327
 14186 3977 895E0000 		.4byte	0x5e89
 14187 397b 8C390000 		.4byte	0x398c
 14188 397f 2A       		.uleb128 0x2a
 14189 3980 01       		.uleb128 0x1
 14190 3981 50       		.byte	0x50
 14191 3982 02       		.uleb128 0x2
 14192 3983 75       		.byte	0x75
 14193 3984 00       		.sleb128 0
ARM GAS  /tmp/cc4M9ACW.s 			page 250


 14194 3985 2A       		.uleb128 0x2a
 14195 3986 01       		.uleb128 0x1
 14196 3987 51       		.byte	0x51
 14197 3988 02       		.uleb128 0x2
 14198 3989 76       		.byte	0x76
 14199 398a 00       		.sleb128 0
 14200 398b 00       		.byte	0
 14201 398c 29       		.uleb128 0x29
 14202 398d D4030000 		.4byte	.LVL328
 14203 3991 9F5E0000 		.4byte	0x5e9f
 14204 3995 B2390000 		.4byte	0x39b2
 14205 3999 2A       		.uleb128 0x2a
 14206 399a 01       		.uleb128 0x1
 14207 399b 50       		.byte	0x50
 14208 399c 02       		.uleb128 0x2
 14209 399d 75       		.byte	0x75
 14210 399e 00       		.sleb128 0
 14211 399f 2A       		.uleb128 0x2a
 14212 39a0 02       		.uleb128 0x2
 14213 39a1 90       		.byte	0x90
 14214 39a2 40       		.uleb128 0x40
 14215 39a3 07       		.uleb128 0x7
 14216 39a4 F4       		.byte	0xf4
 14217 39a5 25       		.uleb128 0x25
 14218 39a6 04       		.byte	0x4
 14219 39a7 0000C842 		.4byte	0x42c80000
 14220 39ab 2A       		.uleb128 0x2a
 14221 39ac 01       		.uleb128 0x1
 14222 39ad 51       		.byte	0x51
 14223 39ae 02       		.uleb128 0x2
 14224 39af 76       		.byte	0x76
 14225 39b0 00       		.sleb128 0
 14226 39b1 00       		.byte	0
 14227 39b2 29       		.uleb128 0x29
 14228 39b3 E4030000 		.4byte	.LVL329
 14229 39b7 9F5E0000 		.4byte	0x5e9f
 14230 39bb D8390000 		.4byte	0x39d8
 14231 39bf 2A       		.uleb128 0x2a
 14232 39c0 01       		.uleb128 0x1
 14233 39c1 50       		.byte	0x50
 14234 39c2 02       		.uleb128 0x2
 14235 39c3 75       		.byte	0x75
 14236 39c4 00       		.sleb128 0
 14237 39c5 2A       		.uleb128 0x2a
 14238 39c6 02       		.uleb128 0x2
 14239 39c7 90       		.byte	0x90
 14240 39c8 40       		.uleb128 0x40
 14241 39c9 07       		.uleb128 0x7
 14242 39ca F4       		.byte	0xf4
 14243 39cb 25       		.uleb128 0x25
 14244 39cc 04       		.byte	0x4
 14245 39cd 0000C842 		.4byte	0x42c80000
 14246 39d1 2A       		.uleb128 0x2a
 14247 39d2 01       		.uleb128 0x1
 14248 39d3 51       		.byte	0x51
 14249 39d4 02       		.uleb128 0x2
 14250 39d5 76       		.byte	0x76
ARM GAS  /tmp/cc4M9ACW.s 			page 251


 14251 39d6 00       		.sleb128 0
 14252 39d7 00       		.byte	0
 14253 39d8 29       		.uleb128 0x29
 14254 39d9 F4030000 		.4byte	.LVL330
 14255 39dd 9F5E0000 		.4byte	0x5e9f
 14256 39e1 FE390000 		.4byte	0x39fe
 14257 39e5 2A       		.uleb128 0x2a
 14258 39e6 01       		.uleb128 0x1
 14259 39e7 50       		.byte	0x50
 14260 39e8 02       		.uleb128 0x2
 14261 39e9 75       		.byte	0x75
 14262 39ea 00       		.sleb128 0
 14263 39eb 2A       		.uleb128 0x2a
 14264 39ec 02       		.uleb128 0x2
 14265 39ed 90       		.byte	0x90
 14266 39ee 40       		.uleb128 0x40
 14267 39ef 07       		.uleb128 0x7
 14268 39f0 F4       		.byte	0xf4
 14269 39f1 25       		.uleb128 0x25
 14270 39f2 04       		.byte	0x4
 14271 39f3 0000C842 		.4byte	0x42c80000
 14272 39f7 2A       		.uleb128 0x2a
 14273 39f8 01       		.uleb128 0x1
 14274 39f9 51       		.byte	0x51
 14275 39fa 02       		.uleb128 0x2
 14276 39fb 76       		.byte	0x76
 14277 39fc 00       		.sleb128 0
 14278 39fd 00       		.byte	0
 14279 39fe 29       		.uleb128 0x29
 14280 39ff 04040000 		.4byte	.LVL331
 14281 3a03 9F5E0000 		.4byte	0x5e9f
 14282 3a07 243A0000 		.4byte	0x3a24
 14283 3a0b 2A       		.uleb128 0x2a
 14284 3a0c 01       		.uleb128 0x1
 14285 3a0d 50       		.byte	0x50
 14286 3a0e 02       		.uleb128 0x2
 14287 3a0f 75       		.byte	0x75
 14288 3a10 00       		.sleb128 0
 14289 3a11 2A       		.uleb128 0x2a
 14290 3a12 02       		.uleb128 0x2
 14291 3a13 90       		.byte	0x90
 14292 3a14 40       		.uleb128 0x40
 14293 3a15 07       		.uleb128 0x7
 14294 3a16 F4       		.byte	0xf4
 14295 3a17 25       		.uleb128 0x25
 14296 3a18 04       		.byte	0x4
 14297 3a19 0000C842 		.4byte	0x42c80000
 14298 3a1d 2A       		.uleb128 0x2a
 14299 3a1e 01       		.uleb128 0x1
 14300 3a1f 51       		.byte	0x51
 14301 3a20 02       		.uleb128 0x2
 14302 3a21 76       		.byte	0x76
 14303 3a22 00       		.sleb128 0
 14304 3a23 00       		.byte	0
 14305 3a24 29       		.uleb128 0x29
 14306 3a25 48040000 		.4byte	.LVL332
 14307 3a29 895E0000 		.4byte	0x5e89
ARM GAS  /tmp/cc4M9ACW.s 			page 252


 14308 3a2d 3E3A0000 		.4byte	0x3a3e
 14309 3a31 2A       		.uleb128 0x2a
 14310 3a32 01       		.uleb128 0x1
 14311 3a33 50       		.byte	0x50
 14312 3a34 02       		.uleb128 0x2
 14313 3a35 75       		.byte	0x75
 14314 3a36 00       		.sleb128 0
 14315 3a37 2A       		.uleb128 0x2a
 14316 3a38 01       		.uleb128 0x1
 14317 3a39 51       		.byte	0x51
 14318 3a3a 02       		.uleb128 0x2
 14319 3a3b 76       		.byte	0x76
 14320 3a3c 00       		.sleb128 0
 14321 3a3d 00       		.byte	0
 14322 3a3e 29       		.uleb128 0x29
 14323 3a3f 54040000 		.4byte	.LVL333
 14324 3a43 895E0000 		.4byte	0x5e89
 14325 3a47 583A0000 		.4byte	0x3a58
 14326 3a4b 2A       		.uleb128 0x2a
 14327 3a4c 01       		.uleb128 0x1
 14328 3a4d 50       		.byte	0x50
 14329 3a4e 02       		.uleb128 0x2
 14330 3a4f 75       		.byte	0x75
 14331 3a50 00       		.sleb128 0
 14332 3a51 2A       		.uleb128 0x2a
 14333 3a52 01       		.uleb128 0x1
 14334 3a53 51       		.byte	0x51
 14335 3a54 02       		.uleb128 0x2
 14336 3a55 76       		.byte	0x76
 14337 3a56 00       		.sleb128 0
 14338 3a57 00       		.byte	0
 14339 3a58 29       		.uleb128 0x29
 14340 3a59 86040000 		.4byte	.LVL334
 14341 3a5d 9F5E0000 		.4byte	0x5e9f
 14342 3a61 7E3A0000 		.4byte	0x3a7e
 14343 3a65 2A       		.uleb128 0x2a
 14344 3a66 01       		.uleb128 0x1
 14345 3a67 50       		.byte	0x50
 14346 3a68 02       		.uleb128 0x2
 14347 3a69 75       		.byte	0x75
 14348 3a6a 00       		.sleb128 0
 14349 3a6b 2A       		.uleb128 0x2a
 14350 3a6c 02       		.uleb128 0x2
 14351 3a6d 90       		.byte	0x90
 14352 3a6e 40       		.uleb128 0x40
 14353 3a6f 07       		.uleb128 0x7
 14354 3a70 F4       		.byte	0xf4
 14355 3a71 25       		.uleb128 0x25
 14356 3a72 04       		.byte	0x4
 14357 3a73 00007A44 		.4byte	0x447a0000
 14358 3a77 2A       		.uleb128 0x2a
 14359 3a78 01       		.uleb128 0x1
 14360 3a79 51       		.byte	0x51
 14361 3a7a 02       		.uleb128 0x2
 14362 3a7b 76       		.byte	0x76
 14363 3a7c 00       		.sleb128 0
 14364 3a7d 00       		.byte	0
ARM GAS  /tmp/cc4M9ACW.s 			page 253


 14365 3a7e 29       		.uleb128 0x29
 14366 3a7f A8040000 		.4byte	.LVL335
 14367 3a83 9F5E0000 		.4byte	0x5e9f
 14368 3a87 A43A0000 		.4byte	0x3aa4
 14369 3a8b 2A       		.uleb128 0x2a
 14370 3a8c 01       		.uleb128 0x1
 14371 3a8d 50       		.byte	0x50
 14372 3a8e 02       		.uleb128 0x2
 14373 3a8f 75       		.byte	0x75
 14374 3a90 00       		.sleb128 0
 14375 3a91 2A       		.uleb128 0x2a
 14376 3a92 02       		.uleb128 0x2
 14377 3a93 90       		.byte	0x90
 14378 3a94 40       		.uleb128 0x40
 14379 3a95 07       		.uleb128 0x7
 14380 3a96 F4       		.byte	0xf4
 14381 3a97 25       		.uleb128 0x25
 14382 3a98 04       		.byte	0x4
 14383 3a99 0000C842 		.4byte	0x42c80000
 14384 3a9d 2A       		.uleb128 0x2a
 14385 3a9e 01       		.uleb128 0x1
 14386 3a9f 51       		.byte	0x51
 14387 3aa0 02       		.uleb128 0x2
 14388 3aa1 76       		.byte	0x76
 14389 3aa2 00       		.sleb128 0
 14390 3aa3 00       		.byte	0
 14391 3aa4 29       		.uleb128 0x29
 14392 3aa5 B8040000 		.4byte	.LVL336
 14393 3aa9 9F5E0000 		.4byte	0x5e9f
 14394 3aad CA3A0000 		.4byte	0x3aca
 14395 3ab1 2A       		.uleb128 0x2a
 14396 3ab2 01       		.uleb128 0x1
 14397 3ab3 50       		.byte	0x50
 14398 3ab4 02       		.uleb128 0x2
 14399 3ab5 75       		.byte	0x75
 14400 3ab6 00       		.sleb128 0
 14401 3ab7 2A       		.uleb128 0x2a
 14402 3ab8 02       		.uleb128 0x2
 14403 3ab9 90       		.byte	0x90
 14404 3aba 40       		.uleb128 0x40
 14405 3abb 07       		.uleb128 0x7
 14406 3abc F4       		.byte	0xf4
 14407 3abd 25       		.uleb128 0x25
 14408 3abe 04       		.byte	0x4
 14409 3abf 00401C46 		.4byte	0x461c4000
 14410 3ac3 2A       		.uleb128 0x2a
 14411 3ac4 01       		.uleb128 0x1
 14412 3ac5 51       		.byte	0x51
 14413 3ac6 02       		.uleb128 0x2
 14414 3ac7 76       		.byte	0x76
 14415 3ac8 00       		.sleb128 0
 14416 3ac9 00       		.byte	0
 14417 3aca 29       		.uleb128 0x29
 14418 3acb D8040000 		.4byte	.LVL337
 14419 3acf 895E0000 		.4byte	0x5e89
 14420 3ad3 E43A0000 		.4byte	0x3ae4
 14421 3ad7 2A       		.uleb128 0x2a
ARM GAS  /tmp/cc4M9ACW.s 			page 254


 14422 3ad8 01       		.uleb128 0x1
 14423 3ad9 50       		.byte	0x50
 14424 3ada 02       		.uleb128 0x2
 14425 3adb 75       		.byte	0x75
 14426 3adc 00       		.sleb128 0
 14427 3add 2A       		.uleb128 0x2a
 14428 3ade 01       		.uleb128 0x1
 14429 3adf 51       		.byte	0x51
 14430 3ae0 02       		.uleb128 0x2
 14431 3ae1 76       		.byte	0x76
 14432 3ae2 00       		.sleb128 0
 14433 3ae3 00       		.byte	0
 14434 3ae4 29       		.uleb128 0x29
 14435 3ae5 E4040000 		.4byte	.LVL338
 14436 3ae9 895E0000 		.4byte	0x5e89
 14437 3aed FE3A0000 		.4byte	0x3afe
 14438 3af1 2A       		.uleb128 0x2a
 14439 3af2 01       		.uleb128 0x1
 14440 3af3 50       		.byte	0x50
 14441 3af4 02       		.uleb128 0x2
 14442 3af5 75       		.byte	0x75
 14443 3af6 00       		.sleb128 0
 14444 3af7 2A       		.uleb128 0x2a
 14445 3af8 01       		.uleb128 0x1
 14446 3af9 51       		.byte	0x51
 14447 3afa 02       		.uleb128 0x2
 14448 3afb 76       		.byte	0x76
 14449 3afc 00       		.sleb128 0
 14450 3afd 00       		.byte	0
 14451 3afe 29       		.uleb128 0x29
 14452 3aff F0040000 		.4byte	.LVL339
 14453 3b03 895E0000 		.4byte	0x5e89
 14454 3b07 183B0000 		.4byte	0x3b18
 14455 3b0b 2A       		.uleb128 0x2a
 14456 3b0c 01       		.uleb128 0x1
 14457 3b0d 50       		.byte	0x50
 14458 3b0e 02       		.uleb128 0x2
 14459 3b0f 75       		.byte	0x75
 14460 3b10 00       		.sleb128 0
 14461 3b11 2A       		.uleb128 0x2a
 14462 3b12 01       		.uleb128 0x1
 14463 3b13 51       		.byte	0x51
 14464 3b14 02       		.uleb128 0x2
 14465 3b15 76       		.byte	0x76
 14466 3b16 00       		.sleb128 0
 14467 3b17 00       		.byte	0
 14468 3b18 29       		.uleb128 0x29
 14469 3b19 FC040000 		.4byte	.LVL340
 14470 3b1d 895E0000 		.4byte	0x5e89
 14471 3b21 323B0000 		.4byte	0x3b32
 14472 3b25 2A       		.uleb128 0x2a
 14473 3b26 01       		.uleb128 0x1
 14474 3b27 50       		.byte	0x50
 14475 3b28 02       		.uleb128 0x2
 14476 3b29 75       		.byte	0x75
 14477 3b2a 00       		.sleb128 0
 14478 3b2b 2A       		.uleb128 0x2a
ARM GAS  /tmp/cc4M9ACW.s 			page 255


 14479 3b2c 01       		.uleb128 0x1
 14480 3b2d 51       		.byte	0x51
 14481 3b2e 02       		.uleb128 0x2
 14482 3b2f 76       		.byte	0x76
 14483 3b30 00       		.sleb128 0
 14484 3b31 00       		.byte	0
 14485 3b32 29       		.uleb128 0x29
 14486 3b33 08050000 		.4byte	.LVL341
 14487 3b37 945E0000 		.4byte	0x5e94
 14488 3b3b 4C3B0000 		.4byte	0x3b4c
 14489 3b3f 2A       		.uleb128 0x2a
 14490 3b40 01       		.uleb128 0x1
 14491 3b41 50       		.byte	0x50
 14492 3b42 02       		.uleb128 0x2
 14493 3b43 75       		.byte	0x75
 14494 3b44 00       		.sleb128 0
 14495 3b45 2A       		.uleb128 0x2a
 14496 3b46 01       		.uleb128 0x1
 14497 3b47 51       		.byte	0x51
 14498 3b48 02       		.uleb128 0x2
 14499 3b49 76       		.byte	0x76
 14500 3b4a 00       		.sleb128 0
 14501 3b4b 00       		.byte	0
 14502 3b4c 29       		.uleb128 0x29
 14503 3b4d 14050000 		.4byte	.LVL342
 14504 3b51 895E0000 		.4byte	0x5e89
 14505 3b55 663B0000 		.4byte	0x3b66
 14506 3b59 2A       		.uleb128 0x2a
 14507 3b5a 01       		.uleb128 0x1
 14508 3b5b 50       		.byte	0x50
 14509 3b5c 02       		.uleb128 0x2
 14510 3b5d 75       		.byte	0x75
 14511 3b5e 00       		.sleb128 0
 14512 3b5f 2A       		.uleb128 0x2a
 14513 3b60 01       		.uleb128 0x1
 14514 3b61 51       		.byte	0x51
 14515 3b62 02       		.uleb128 0x2
 14516 3b63 76       		.byte	0x76
 14517 3b64 00       		.sleb128 0
 14518 3b65 00       		.byte	0
 14519 3b66 29       		.uleb128 0x29
 14520 3b67 3A050000 		.4byte	.LVL343
 14521 3b6b 895E0000 		.4byte	0x5e89
 14522 3b6f 803B0000 		.4byte	0x3b80
 14523 3b73 2A       		.uleb128 0x2a
 14524 3b74 01       		.uleb128 0x1
 14525 3b75 50       		.byte	0x50
 14526 3b76 02       		.uleb128 0x2
 14527 3b77 75       		.byte	0x75
 14528 3b78 00       		.sleb128 0
 14529 3b79 2A       		.uleb128 0x2a
 14530 3b7a 01       		.uleb128 0x1
 14531 3b7b 51       		.byte	0x51
 14532 3b7c 02       		.uleb128 0x2
 14533 3b7d 76       		.byte	0x76
 14534 3b7e 00       		.sleb128 0
 14535 3b7f 00       		.byte	0
ARM GAS  /tmp/cc4M9ACW.s 			page 256


 14536 3b80 29       		.uleb128 0x29
 14537 3b81 46050000 		.4byte	.LVL344
 14538 3b85 895E0000 		.4byte	0x5e89
 14539 3b89 9A3B0000 		.4byte	0x3b9a
 14540 3b8d 2A       		.uleb128 0x2a
 14541 3b8e 01       		.uleb128 0x1
 14542 3b8f 50       		.byte	0x50
 14543 3b90 02       		.uleb128 0x2
 14544 3b91 75       		.byte	0x75
 14545 3b92 00       		.sleb128 0
 14546 3b93 2A       		.uleb128 0x2a
 14547 3b94 01       		.uleb128 0x1
 14548 3b95 51       		.byte	0x51
 14549 3b96 02       		.uleb128 0x2
 14550 3b97 76       		.byte	0x76
 14551 3b98 00       		.sleb128 0
 14552 3b99 00       		.byte	0
 14553 3b9a 29       		.uleb128 0x29
 14554 3b9b 52050000 		.4byte	.LVL345
 14555 3b9f 895E0000 		.4byte	0x5e89
 14556 3ba3 B43B0000 		.4byte	0x3bb4
 14557 3ba7 2A       		.uleb128 0x2a
 14558 3ba8 01       		.uleb128 0x1
 14559 3ba9 50       		.byte	0x50
 14560 3baa 02       		.uleb128 0x2
 14561 3bab 75       		.byte	0x75
 14562 3bac 00       		.sleb128 0
 14563 3bad 2A       		.uleb128 0x2a
 14564 3bae 01       		.uleb128 0x1
 14565 3baf 51       		.byte	0x51
 14566 3bb0 02       		.uleb128 0x2
 14567 3bb1 76       		.byte	0x76
 14568 3bb2 00       		.sleb128 0
 14569 3bb3 00       		.byte	0
 14570 3bb4 29       		.uleb128 0x29
 14571 3bb5 62050000 		.4byte	.LVL346
 14572 3bb9 9F5E0000 		.4byte	0x5e9f
 14573 3bbd DA3B0000 		.4byte	0x3bda
 14574 3bc1 2A       		.uleb128 0x2a
 14575 3bc2 01       		.uleb128 0x1
 14576 3bc3 50       		.byte	0x50
 14577 3bc4 02       		.uleb128 0x2
 14578 3bc5 75       		.byte	0x75
 14579 3bc6 00       		.sleb128 0
 14580 3bc7 2A       		.uleb128 0x2a
 14581 3bc8 02       		.uleb128 0x2
 14582 3bc9 90       		.byte	0x90
 14583 3bca 40       		.uleb128 0x40
 14584 3bcb 07       		.uleb128 0x7
 14585 3bcc F4       		.byte	0xf4
 14586 3bcd 25       		.uleb128 0x25
 14587 3bce 04       		.byte	0x4
 14588 3bcf 00401C46 		.4byte	0x461c4000
 14589 3bd3 2A       		.uleb128 0x2a
 14590 3bd4 01       		.uleb128 0x1
 14591 3bd5 51       		.byte	0x51
 14592 3bd6 02       		.uleb128 0x2
ARM GAS  /tmp/cc4M9ACW.s 			page 257


 14593 3bd7 76       		.byte	0x76
 14594 3bd8 00       		.sleb128 0
 14595 3bd9 00       		.byte	0
 14596 3bda 29       		.uleb128 0x29
 14597 3bdb 72050000 		.4byte	.LVL347
 14598 3bdf 9F5E0000 		.4byte	0x5e9f
 14599 3be3 003C0000 		.4byte	0x3c00
 14600 3be7 2A       		.uleb128 0x2a
 14601 3be8 01       		.uleb128 0x1
 14602 3be9 50       		.byte	0x50
 14603 3bea 02       		.uleb128 0x2
 14604 3beb 75       		.byte	0x75
 14605 3bec 00       		.sleb128 0
 14606 3bed 2A       		.uleb128 0x2a
 14607 3bee 02       		.uleb128 0x2
 14608 3bef 90       		.byte	0x90
 14609 3bf0 40       		.uleb128 0x40
 14610 3bf1 07       		.uleb128 0x7
 14611 3bf2 F4       		.byte	0xf4
 14612 3bf3 25       		.uleb128 0x25
 14613 3bf4 04       		.byte	0x4
 14614 3bf5 00401C46 		.4byte	0x461c4000
 14615 3bf9 2A       		.uleb128 0x2a
 14616 3bfa 01       		.uleb128 0x1
 14617 3bfb 51       		.byte	0x51
 14618 3bfc 02       		.uleb128 0x2
 14619 3bfd 76       		.byte	0x76
 14620 3bfe 00       		.sleb128 0
 14621 3bff 00       		.byte	0
 14622 3c00 29       		.uleb128 0x29
 14623 3c01 82050000 		.4byte	.LVL348
 14624 3c05 9F5E0000 		.4byte	0x5e9f
 14625 3c09 263C0000 		.4byte	0x3c26
 14626 3c0d 2A       		.uleb128 0x2a
 14627 3c0e 01       		.uleb128 0x1
 14628 3c0f 50       		.byte	0x50
 14629 3c10 02       		.uleb128 0x2
 14630 3c11 75       		.byte	0x75
 14631 3c12 00       		.sleb128 0
 14632 3c13 2A       		.uleb128 0x2a
 14633 3c14 02       		.uleb128 0x2
 14634 3c15 90       		.byte	0x90
 14635 3c16 40       		.uleb128 0x40
 14636 3c17 07       		.uleb128 0x7
 14637 3c18 F4       		.byte	0xf4
 14638 3c19 25       		.uleb128 0x25
 14639 3c1a 04       		.byte	0x4
 14640 3c1b 00401C46 		.4byte	0x461c4000
 14641 3c1f 2A       		.uleb128 0x2a
 14642 3c20 01       		.uleb128 0x1
 14643 3c21 51       		.byte	0x51
 14644 3c22 02       		.uleb128 0x2
 14645 3c23 76       		.byte	0x76
 14646 3c24 00       		.sleb128 0
 14647 3c25 00       		.byte	0
 14648 3c26 29       		.uleb128 0x29
 14649 3c27 92050000 		.4byte	.LVL349
ARM GAS  /tmp/cc4M9ACW.s 			page 258


 14650 3c2b 9F5E0000 		.4byte	0x5e9f
 14651 3c2f 4C3C0000 		.4byte	0x3c4c
 14652 3c33 2A       		.uleb128 0x2a
 14653 3c34 01       		.uleb128 0x1
 14654 3c35 50       		.byte	0x50
 14655 3c36 02       		.uleb128 0x2
 14656 3c37 75       		.byte	0x75
 14657 3c38 00       		.sleb128 0
 14658 3c39 2A       		.uleb128 0x2a
 14659 3c3a 02       		.uleb128 0x2
 14660 3c3b 90       		.byte	0x90
 14661 3c3c 40       		.uleb128 0x40
 14662 3c3d 07       		.uleb128 0x7
 14663 3c3e F4       		.byte	0xf4
 14664 3c3f 25       		.uleb128 0x25
 14665 3c40 04       		.byte	0x4
 14666 3c41 00401C46 		.4byte	0x461c4000
 14667 3c45 2A       		.uleb128 0x2a
 14668 3c46 01       		.uleb128 0x1
 14669 3c47 51       		.byte	0x51
 14670 3c48 02       		.uleb128 0x2
 14671 3c49 76       		.byte	0x76
 14672 3c4a 00       		.sleb128 0
 14673 3c4b 00       		.byte	0
 14674 3c4c 29       		.uleb128 0x29
 14675 3c4d A2050000 		.4byte	.LVL350
 14676 3c51 9F5E0000 		.4byte	0x5e9f
 14677 3c55 723C0000 		.4byte	0x3c72
 14678 3c59 2A       		.uleb128 0x2a
 14679 3c5a 01       		.uleb128 0x1
 14680 3c5b 50       		.byte	0x50
 14681 3c5c 02       		.uleb128 0x2
 14682 3c5d 75       		.byte	0x75
 14683 3c5e 00       		.sleb128 0
 14684 3c5f 2A       		.uleb128 0x2a
 14685 3c60 02       		.uleb128 0x2
 14686 3c61 90       		.byte	0x90
 14687 3c62 40       		.uleb128 0x40
 14688 3c63 07       		.uleb128 0x7
 14689 3c64 F4       		.byte	0xf4
 14690 3c65 25       		.uleb128 0x25
 14691 3c66 04       		.byte	0x4
 14692 3c67 00401C46 		.4byte	0x461c4000
 14693 3c6b 2A       		.uleb128 0x2a
 14694 3c6c 01       		.uleb128 0x1
 14695 3c6d 51       		.byte	0x51
 14696 3c6e 02       		.uleb128 0x2
 14697 3c6f 76       		.byte	0x76
 14698 3c70 00       		.sleb128 0
 14699 3c71 00       		.byte	0
 14700 3c72 29       		.uleb128 0x29
 14701 3c73 B2050000 		.4byte	.LVL351
 14702 3c77 9F5E0000 		.4byte	0x5e9f
 14703 3c7b 983C0000 		.4byte	0x3c98
 14704 3c7f 2A       		.uleb128 0x2a
 14705 3c80 01       		.uleb128 0x1
 14706 3c81 50       		.byte	0x50
ARM GAS  /tmp/cc4M9ACW.s 			page 259


 14707 3c82 02       		.uleb128 0x2
 14708 3c83 75       		.byte	0x75
 14709 3c84 00       		.sleb128 0
 14710 3c85 2A       		.uleb128 0x2a
 14711 3c86 02       		.uleb128 0x2
 14712 3c87 90       		.byte	0x90
 14713 3c88 40       		.uleb128 0x40
 14714 3c89 07       		.uleb128 0x7
 14715 3c8a F4       		.byte	0xf4
 14716 3c8b 25       		.uleb128 0x25
 14717 3c8c 04       		.byte	0x4
 14718 3c8d 00401C46 		.4byte	0x461c4000
 14719 3c91 2A       		.uleb128 0x2a
 14720 3c92 01       		.uleb128 0x1
 14721 3c93 51       		.byte	0x51
 14722 3c94 02       		.uleb128 0x2
 14723 3c95 76       		.byte	0x76
 14724 3c96 00       		.sleb128 0
 14725 3c97 00       		.byte	0
 14726 3c98 29       		.uleb128 0x29
 14727 3c99 D0050000 		.4byte	.LVL352
 14728 3c9d 895E0000 		.4byte	0x5e89
 14729 3ca1 B23C0000 		.4byte	0x3cb2
 14730 3ca5 2A       		.uleb128 0x2a
 14731 3ca6 01       		.uleb128 0x1
 14732 3ca7 50       		.byte	0x50
 14733 3ca8 02       		.uleb128 0x2
 14734 3ca9 75       		.byte	0x75
 14735 3caa 00       		.sleb128 0
 14736 3cab 2A       		.uleb128 0x2a
 14737 3cac 01       		.uleb128 0x1
 14738 3cad 51       		.byte	0x51
 14739 3cae 02       		.uleb128 0x2
 14740 3caf 76       		.byte	0x76
 14741 3cb0 00       		.sleb128 0
 14742 3cb1 00       		.byte	0
 14743 3cb2 29       		.uleb128 0x29
 14744 3cb3 E8050000 		.4byte	.LVL353
 14745 3cb7 895E0000 		.4byte	0x5e89
 14746 3cbb CC3C0000 		.4byte	0x3ccc
 14747 3cbf 2A       		.uleb128 0x2a
 14748 3cc0 01       		.uleb128 0x1
 14749 3cc1 50       		.byte	0x50
 14750 3cc2 02       		.uleb128 0x2
 14751 3cc3 75       		.byte	0x75
 14752 3cc4 00       		.sleb128 0
 14753 3cc5 2A       		.uleb128 0x2a
 14754 3cc6 01       		.uleb128 0x1
 14755 3cc7 51       		.byte	0x51
 14756 3cc8 02       		.uleb128 0x2
 14757 3cc9 76       		.byte	0x76
 14758 3cca 00       		.sleb128 0
 14759 3ccb 00       		.byte	0
 14760 3ccc 29       		.uleb128 0x29
 14761 3ccd F8050000 		.4byte	.LVL354
 14762 3cd1 9F5E0000 		.4byte	0x5e9f
 14763 3cd5 F23C0000 		.4byte	0x3cf2
ARM GAS  /tmp/cc4M9ACW.s 			page 260


 14764 3cd9 2A       		.uleb128 0x2a
 14765 3cda 01       		.uleb128 0x1
 14766 3cdb 50       		.byte	0x50
 14767 3cdc 02       		.uleb128 0x2
 14768 3cdd 75       		.byte	0x75
 14769 3cde 00       		.sleb128 0
 14770 3cdf 2A       		.uleb128 0x2a
 14771 3ce0 02       		.uleb128 0x2
 14772 3ce1 90       		.byte	0x90
 14773 3ce2 40       		.uleb128 0x40
 14774 3ce3 07       		.uleb128 0x7
 14775 3ce4 F4       		.byte	0xf4
 14776 3ce5 25       		.uleb128 0x25
 14777 3ce6 04       		.byte	0x4
 14778 3ce7 00401C46 		.4byte	0x461c4000
 14779 3ceb 2A       		.uleb128 0x2a
 14780 3cec 01       		.uleb128 0x1
 14781 3ced 51       		.byte	0x51
 14782 3cee 02       		.uleb128 0x2
 14783 3cef 76       		.byte	0x76
 14784 3cf0 00       		.sleb128 0
 14785 3cf1 00       		.byte	0
 14786 3cf2 29       		.uleb128 0x29
 14787 3cf3 08060000 		.4byte	.LVL355
 14788 3cf7 9F5E0000 		.4byte	0x5e9f
 14789 3cfb 183D0000 		.4byte	0x3d18
 14790 3cff 2A       		.uleb128 0x2a
 14791 3d00 01       		.uleb128 0x1
 14792 3d01 50       		.byte	0x50
 14793 3d02 02       		.uleb128 0x2
 14794 3d03 75       		.byte	0x75
 14795 3d04 00       		.sleb128 0
 14796 3d05 2A       		.uleb128 0x2a
 14797 3d06 02       		.uleb128 0x2
 14798 3d07 90       		.byte	0x90
 14799 3d08 40       		.uleb128 0x40
 14800 3d09 07       		.uleb128 0x7
 14801 3d0a F4       		.byte	0xf4
 14802 3d0b 25       		.uleb128 0x25
 14803 3d0c 04       		.byte	0x4
 14804 3d0d 00007A44 		.4byte	0x447a0000
 14805 3d11 2A       		.uleb128 0x2a
 14806 3d12 01       		.uleb128 0x1
 14807 3d13 51       		.byte	0x51
 14808 3d14 02       		.uleb128 0x2
 14809 3d15 76       		.byte	0x76
 14810 3d16 00       		.sleb128 0
 14811 3d17 00       		.byte	0
 14812 3d18 29       		.uleb128 0x29
 14813 3d19 18060000 		.4byte	.LVL356
 14814 3d1d 9F5E0000 		.4byte	0x5e9f
 14815 3d21 3E3D0000 		.4byte	0x3d3e
 14816 3d25 2A       		.uleb128 0x2a
 14817 3d26 01       		.uleb128 0x1
 14818 3d27 50       		.byte	0x50
 14819 3d28 02       		.uleb128 0x2
 14820 3d29 75       		.byte	0x75
ARM GAS  /tmp/cc4M9ACW.s 			page 261


 14821 3d2a 00       		.sleb128 0
 14822 3d2b 2A       		.uleb128 0x2a
 14823 3d2c 02       		.uleb128 0x2
 14824 3d2d 90       		.byte	0x90
 14825 3d2e 40       		.uleb128 0x40
 14826 3d2f 07       		.uleb128 0x7
 14827 3d30 F4       		.byte	0xf4
 14828 3d31 25       		.uleb128 0x25
 14829 3d32 04       		.byte	0x4
 14830 3d33 00401C46 		.4byte	0x461c4000
 14831 3d37 2A       		.uleb128 0x2a
 14832 3d38 01       		.uleb128 0x1
 14833 3d39 51       		.byte	0x51
 14834 3d3a 02       		.uleb128 0x2
 14835 3d3b 76       		.byte	0x76
 14836 3d3c 00       		.sleb128 0
 14837 3d3d 00       		.byte	0
 14838 3d3e 29       		.uleb128 0x29
 14839 3d3f 24060000 		.4byte	.LVL357
 14840 3d43 AA5E0000 		.4byte	0x5eaa
 14841 3d47 583D0000 		.4byte	0x3d58
 14842 3d4b 2A       		.uleb128 0x2a
 14843 3d4c 01       		.uleb128 0x1
 14844 3d4d 50       		.byte	0x50
 14845 3d4e 02       		.uleb128 0x2
 14846 3d4f 75       		.byte	0x75
 14847 3d50 00       		.sleb128 0
 14848 3d51 2A       		.uleb128 0x2a
 14849 3d52 01       		.uleb128 0x1
 14850 3d53 51       		.byte	0x51
 14851 3d54 02       		.uleb128 0x2
 14852 3d55 76       		.byte	0x76
 14853 3d56 00       		.sleb128 0
 14854 3d57 00       		.byte	0
 14855 3d58 29       		.uleb128 0x29
 14856 3d59 30060000 		.4byte	.LVL358
 14857 3d5d AA5E0000 		.4byte	0x5eaa
 14858 3d61 723D0000 		.4byte	0x3d72
 14859 3d65 2A       		.uleb128 0x2a
 14860 3d66 01       		.uleb128 0x1
 14861 3d67 50       		.byte	0x50
 14862 3d68 02       		.uleb128 0x2
 14863 3d69 75       		.byte	0x75
 14864 3d6a 00       		.sleb128 0
 14865 3d6b 2A       		.uleb128 0x2a
 14866 3d6c 01       		.uleb128 0x1
 14867 3d6d 51       		.byte	0x51
 14868 3d6e 02       		.uleb128 0x2
 14869 3d6f 76       		.byte	0x76
 14870 3d70 00       		.sleb128 0
 14871 3d71 00       		.byte	0
 14872 3d72 29       		.uleb128 0x29
 14873 3d73 40060000 		.4byte	.LVL359
 14874 3d77 9F5E0000 		.4byte	0x5e9f
 14875 3d7b 983D0000 		.4byte	0x3d98
 14876 3d7f 2A       		.uleb128 0x2a
 14877 3d80 01       		.uleb128 0x1
ARM GAS  /tmp/cc4M9ACW.s 			page 262


 14878 3d81 50       		.byte	0x50
 14879 3d82 02       		.uleb128 0x2
 14880 3d83 75       		.byte	0x75
 14881 3d84 00       		.sleb128 0
 14882 3d85 2A       		.uleb128 0x2a
 14883 3d86 02       		.uleb128 0x2
 14884 3d87 90       		.byte	0x90
 14885 3d88 40       		.uleb128 0x40
 14886 3d89 07       		.uleb128 0x7
 14887 3d8a F4       		.byte	0xf4
 14888 3d8b 25       		.uleb128 0x25
 14889 3d8c 04       		.byte	0x4
 14890 3d8d 00401C46 		.4byte	0x461c4000
 14891 3d91 2A       		.uleb128 0x2a
 14892 3d92 01       		.uleb128 0x1
 14893 3d93 51       		.byte	0x51
 14894 3d94 02       		.uleb128 0x2
 14895 3d95 76       		.byte	0x76
 14896 3d96 00       		.sleb128 0
 14897 3d97 00       		.byte	0
 14898 3d98 29       		.uleb128 0x29
 14899 3d99 4C060000 		.4byte	.LVL360
 14900 3d9d 895E0000 		.4byte	0x5e89
 14901 3da1 B23D0000 		.4byte	0x3db2
 14902 3da5 2A       		.uleb128 0x2a
 14903 3da6 01       		.uleb128 0x1
 14904 3da7 50       		.byte	0x50
 14905 3da8 02       		.uleb128 0x2
 14906 3da9 75       		.byte	0x75
 14907 3daa 00       		.sleb128 0
 14908 3dab 2A       		.uleb128 0x2a
 14909 3dac 01       		.uleb128 0x1
 14910 3dad 51       		.byte	0x51
 14911 3dae 02       		.uleb128 0x2
 14912 3daf 76       		.byte	0x76
 14913 3db0 00       		.sleb128 0
 14914 3db1 00       		.byte	0
 14915 3db2 29       		.uleb128 0x29
 14916 3db3 58060000 		.4byte	.LVL361
 14917 3db7 895E0000 		.4byte	0x5e89
 14918 3dbb CC3D0000 		.4byte	0x3dcc
 14919 3dbf 2A       		.uleb128 0x2a
 14920 3dc0 01       		.uleb128 0x1
 14921 3dc1 50       		.byte	0x50
 14922 3dc2 02       		.uleb128 0x2
 14923 3dc3 75       		.byte	0x75
 14924 3dc4 00       		.sleb128 0
 14925 3dc5 2A       		.uleb128 0x2a
 14926 3dc6 01       		.uleb128 0x1
 14927 3dc7 51       		.byte	0x51
 14928 3dc8 02       		.uleb128 0x2
 14929 3dc9 76       		.byte	0x76
 14930 3dca 00       		.sleb128 0
 14931 3dcb 00       		.byte	0
 14932 3dcc 29       		.uleb128 0x29
 14933 3dcd 70060000 		.4byte	.LVL362
 14934 3dd1 895E0000 		.4byte	0x5e89
ARM GAS  /tmp/cc4M9ACW.s 			page 263


 14935 3dd5 E63D0000 		.4byte	0x3de6
 14936 3dd9 2A       		.uleb128 0x2a
 14937 3dda 01       		.uleb128 0x1
 14938 3ddb 50       		.byte	0x50
 14939 3ddc 02       		.uleb128 0x2
 14940 3ddd 75       		.byte	0x75
 14941 3dde 00       		.sleb128 0
 14942 3ddf 2A       		.uleb128 0x2a
 14943 3de0 01       		.uleb128 0x1
 14944 3de1 51       		.byte	0x51
 14945 3de2 02       		.uleb128 0x2
 14946 3de3 76       		.byte	0x76
 14947 3de4 00       		.sleb128 0
 14948 3de5 00       		.byte	0
 14949 3de6 29       		.uleb128 0x29
 14950 3de7 7C060000 		.4byte	.LVL363
 14951 3deb 895E0000 		.4byte	0x5e89
 14952 3def 003E0000 		.4byte	0x3e00
 14953 3df3 2A       		.uleb128 0x2a
 14954 3df4 01       		.uleb128 0x1
 14955 3df5 50       		.byte	0x50
 14956 3df6 02       		.uleb128 0x2
 14957 3df7 75       		.byte	0x75
 14958 3df8 00       		.sleb128 0
 14959 3df9 2A       		.uleb128 0x2a
 14960 3dfa 01       		.uleb128 0x1
 14961 3dfb 51       		.byte	0x51
 14962 3dfc 02       		.uleb128 0x2
 14963 3dfd 76       		.byte	0x76
 14964 3dfe 00       		.sleb128 0
 14965 3dff 00       		.byte	0
 14966 3e00 29       		.uleb128 0x29
 14967 3e01 88060000 		.4byte	.LVL364
 14968 3e05 895E0000 		.4byte	0x5e89
 14969 3e09 1A3E0000 		.4byte	0x3e1a
 14970 3e0d 2A       		.uleb128 0x2a
 14971 3e0e 01       		.uleb128 0x1
 14972 3e0f 50       		.byte	0x50
 14973 3e10 02       		.uleb128 0x2
 14974 3e11 75       		.byte	0x75
 14975 3e12 00       		.sleb128 0
 14976 3e13 2A       		.uleb128 0x2a
 14977 3e14 01       		.uleb128 0x1
 14978 3e15 51       		.byte	0x51
 14979 3e16 02       		.uleb128 0x2
 14980 3e17 76       		.byte	0x76
 14981 3e18 00       		.sleb128 0
 14982 3e19 00       		.byte	0
 14983 3e1a 29       		.uleb128 0x29
 14984 3e1b 98060000 		.4byte	.LVL365
 14985 3e1f 9F5E0000 		.4byte	0x5e9f
 14986 3e23 403E0000 		.4byte	0x3e40
 14987 3e27 2A       		.uleb128 0x2a
 14988 3e28 01       		.uleb128 0x1
 14989 3e29 50       		.byte	0x50
 14990 3e2a 02       		.uleb128 0x2
 14991 3e2b 75       		.byte	0x75
ARM GAS  /tmp/cc4M9ACW.s 			page 264


 14992 3e2c 00       		.sleb128 0
 14993 3e2d 2A       		.uleb128 0x2a
 14994 3e2e 02       		.uleb128 0x2
 14995 3e2f 90       		.byte	0x90
 14996 3e30 40       		.uleb128 0x40
 14997 3e31 07       		.uleb128 0x7
 14998 3e32 F4       		.byte	0xf4
 14999 3e33 25       		.uleb128 0x25
 15000 3e34 04       		.byte	0x4
 15001 3e35 00401C46 		.4byte	0x461c4000
 15002 3e39 2A       		.uleb128 0x2a
 15003 3e3a 01       		.uleb128 0x1
 15004 3e3b 51       		.byte	0x51
 15005 3e3c 02       		.uleb128 0x2
 15006 3e3d 76       		.byte	0x76
 15007 3e3e 00       		.sleb128 0
 15008 3e3f 00       		.byte	0
 15009 3e40 29       		.uleb128 0x29
 15010 3e41 A4060000 		.4byte	.LVL366
 15011 3e45 895E0000 		.4byte	0x5e89
 15012 3e49 5A3E0000 		.4byte	0x3e5a
 15013 3e4d 2A       		.uleb128 0x2a
 15014 3e4e 01       		.uleb128 0x1
 15015 3e4f 50       		.byte	0x50
 15016 3e50 02       		.uleb128 0x2
 15017 3e51 75       		.byte	0x75
 15018 3e52 00       		.sleb128 0
 15019 3e53 2A       		.uleb128 0x2a
 15020 3e54 01       		.uleb128 0x1
 15021 3e55 51       		.byte	0x51
 15022 3e56 02       		.uleb128 0x2
 15023 3e57 76       		.byte	0x76
 15024 3e58 00       		.sleb128 0
 15025 3e59 00       		.byte	0
 15026 3e5a 29       		.uleb128 0x29
 15027 3e5b C2060000 		.4byte	.LVL367
 15028 3e5f 895E0000 		.4byte	0x5e89
 15029 3e63 743E0000 		.4byte	0x3e74
 15030 3e67 2A       		.uleb128 0x2a
 15031 3e68 01       		.uleb128 0x1
 15032 3e69 50       		.byte	0x50
 15033 3e6a 02       		.uleb128 0x2
 15034 3e6b 75       		.byte	0x75
 15035 3e6c 00       		.sleb128 0
 15036 3e6d 2A       		.uleb128 0x2a
 15037 3e6e 01       		.uleb128 0x1
 15038 3e6f 51       		.byte	0x51
 15039 3e70 02       		.uleb128 0x2
 15040 3e71 76       		.byte	0x76
 15041 3e72 00       		.sleb128 0
 15042 3e73 00       		.byte	0
 15043 3e74 29       		.uleb128 0x29
 15044 3e75 CE060000 		.4byte	.LVL368
 15045 3e79 895E0000 		.4byte	0x5e89
 15046 3e7d 8E3E0000 		.4byte	0x3e8e
 15047 3e81 2A       		.uleb128 0x2a
 15048 3e82 01       		.uleb128 0x1
ARM GAS  /tmp/cc4M9ACW.s 			page 265


 15049 3e83 50       		.byte	0x50
 15050 3e84 02       		.uleb128 0x2
 15051 3e85 75       		.byte	0x75
 15052 3e86 00       		.sleb128 0
 15053 3e87 2A       		.uleb128 0x2a
 15054 3e88 01       		.uleb128 0x1
 15055 3e89 51       		.byte	0x51
 15056 3e8a 02       		.uleb128 0x2
 15057 3e8b 76       		.byte	0x76
 15058 3e8c 00       		.sleb128 0
 15059 3e8d 00       		.byte	0
 15060 3e8e 29       		.uleb128 0x29
 15061 3e8f DA060000 		.4byte	.LVL369
 15062 3e93 895E0000 		.4byte	0x5e89
 15063 3e97 A83E0000 		.4byte	0x3ea8
 15064 3e9b 2A       		.uleb128 0x2a
 15065 3e9c 01       		.uleb128 0x1
 15066 3e9d 50       		.byte	0x50
 15067 3e9e 02       		.uleb128 0x2
 15068 3e9f 75       		.byte	0x75
 15069 3ea0 00       		.sleb128 0
 15070 3ea1 2A       		.uleb128 0x2a
 15071 3ea2 01       		.uleb128 0x1
 15072 3ea3 51       		.byte	0x51
 15073 3ea4 02       		.uleb128 0x2
 15074 3ea5 76       		.byte	0x76
 15075 3ea6 00       		.sleb128 0
 15076 3ea7 00       		.byte	0
 15077 3ea8 29       		.uleb128 0x29
 15078 3ea9 E6060000 		.4byte	.LVL370
 15079 3ead 895E0000 		.4byte	0x5e89
 15080 3eb1 C23E0000 		.4byte	0x3ec2
 15081 3eb5 2A       		.uleb128 0x2a
 15082 3eb6 01       		.uleb128 0x1
 15083 3eb7 50       		.byte	0x50
 15084 3eb8 02       		.uleb128 0x2
 15085 3eb9 75       		.byte	0x75
 15086 3eba 00       		.sleb128 0
 15087 3ebb 2A       		.uleb128 0x2a
 15088 3ebc 01       		.uleb128 0x1
 15089 3ebd 51       		.byte	0x51
 15090 3ebe 02       		.uleb128 0x2
 15091 3ebf 76       		.byte	0x76
 15092 3ec0 00       		.sleb128 0
 15093 3ec1 00       		.byte	0
 15094 3ec2 29       		.uleb128 0x29
 15095 3ec3 F2060000 		.4byte	.LVL371
 15096 3ec7 895E0000 		.4byte	0x5e89
 15097 3ecb DC3E0000 		.4byte	0x3edc
 15098 3ecf 2A       		.uleb128 0x2a
 15099 3ed0 01       		.uleb128 0x1
 15100 3ed1 50       		.byte	0x50
 15101 3ed2 02       		.uleb128 0x2
 15102 3ed3 75       		.byte	0x75
 15103 3ed4 00       		.sleb128 0
 15104 3ed5 2A       		.uleb128 0x2a
 15105 3ed6 01       		.uleb128 0x1
ARM GAS  /tmp/cc4M9ACW.s 			page 266


 15106 3ed7 51       		.byte	0x51
 15107 3ed8 02       		.uleb128 0x2
 15108 3ed9 76       		.byte	0x76
 15109 3eda 00       		.sleb128 0
 15110 3edb 00       		.byte	0
 15111 3edc 29       		.uleb128 0x29
 15112 3edd FE060000 		.4byte	.LVL372
 15113 3ee1 895E0000 		.4byte	0x5e89
 15114 3ee5 F63E0000 		.4byte	0x3ef6
 15115 3ee9 2A       		.uleb128 0x2a
 15116 3eea 01       		.uleb128 0x1
 15117 3eeb 50       		.byte	0x50
 15118 3eec 02       		.uleb128 0x2
 15119 3eed 75       		.byte	0x75
 15120 3eee 00       		.sleb128 0
 15121 3eef 2A       		.uleb128 0x2a
 15122 3ef0 01       		.uleb128 0x1
 15123 3ef1 51       		.byte	0x51
 15124 3ef2 02       		.uleb128 0x2
 15125 3ef3 76       		.byte	0x76
 15126 3ef4 00       		.sleb128 0
 15127 3ef5 00       		.byte	0
 15128 3ef6 29       		.uleb128 0x29
 15129 3ef7 0A070000 		.4byte	.LVL373
 15130 3efb 895E0000 		.4byte	0x5e89
 15131 3eff 103F0000 		.4byte	0x3f10
 15132 3f03 2A       		.uleb128 0x2a
 15133 3f04 01       		.uleb128 0x1
 15134 3f05 50       		.byte	0x50
 15135 3f06 02       		.uleb128 0x2
 15136 3f07 75       		.byte	0x75
 15137 3f08 00       		.sleb128 0
 15138 3f09 2A       		.uleb128 0x2a
 15139 3f0a 01       		.uleb128 0x1
 15140 3f0b 51       		.byte	0x51
 15141 3f0c 02       		.uleb128 0x2
 15142 3f0d 76       		.byte	0x76
 15143 3f0e 00       		.sleb128 0
 15144 3f0f 00       		.byte	0
 15145 3f10 29       		.uleb128 0x29
 15146 3f11 1A070000 		.4byte	.LVL374
 15147 3f15 9F5E0000 		.4byte	0x5e9f
 15148 3f19 363F0000 		.4byte	0x3f36
 15149 3f1d 2A       		.uleb128 0x2a
 15150 3f1e 01       		.uleb128 0x1
 15151 3f1f 50       		.byte	0x50
 15152 3f20 02       		.uleb128 0x2
 15153 3f21 75       		.byte	0x75
 15154 3f22 00       		.sleb128 0
 15155 3f23 2A       		.uleb128 0x2a
 15156 3f24 02       		.uleb128 0x2
 15157 3f25 90       		.byte	0x90
 15158 3f26 40       		.uleb128 0x40
 15159 3f27 07       		.uleb128 0x7
 15160 3f28 F4       		.byte	0xf4
 15161 3f29 25       		.uleb128 0x25
 15162 3f2a 04       		.byte	0x4
ARM GAS  /tmp/cc4M9ACW.s 			page 267


 15163 3f2b 00002041 		.4byte	0x41200000
 15164 3f2f 2A       		.uleb128 0x2a
 15165 3f30 01       		.uleb128 0x1
 15166 3f31 51       		.byte	0x51
 15167 3f32 02       		.uleb128 0x2
 15168 3f33 76       		.byte	0x76
 15169 3f34 00       		.sleb128 0
 15170 3f35 00       		.byte	0
 15171 3f36 29       		.uleb128 0x29
 15172 3f37 26070000 		.4byte	.LVL375
 15173 3f3b 895E0000 		.4byte	0x5e89
 15174 3f3f 503F0000 		.4byte	0x3f50
 15175 3f43 2A       		.uleb128 0x2a
 15176 3f44 01       		.uleb128 0x1
 15177 3f45 50       		.byte	0x50
 15178 3f46 02       		.uleb128 0x2
 15179 3f47 75       		.byte	0x75
 15180 3f48 00       		.sleb128 0
 15181 3f49 2A       		.uleb128 0x2a
 15182 3f4a 01       		.uleb128 0x1
 15183 3f4b 51       		.byte	0x51
 15184 3f4c 02       		.uleb128 0x2
 15185 3f4d 76       		.byte	0x76
 15186 3f4e 00       		.sleb128 0
 15187 3f4f 00       		.byte	0
 15188 3f50 29       		.uleb128 0x29
 15189 3f51 32070000 		.4byte	.LVL376
 15190 3f55 895E0000 		.4byte	0x5e89
 15191 3f59 6A3F0000 		.4byte	0x3f6a
 15192 3f5d 2A       		.uleb128 0x2a
 15193 3f5e 01       		.uleb128 0x1
 15194 3f5f 50       		.byte	0x50
 15195 3f60 02       		.uleb128 0x2
 15196 3f61 75       		.byte	0x75
 15197 3f62 00       		.sleb128 0
 15198 3f63 2A       		.uleb128 0x2a
 15199 3f64 01       		.uleb128 0x1
 15200 3f65 51       		.byte	0x51
 15201 3f66 02       		.uleb128 0x2
 15202 3f67 76       		.byte	0x76
 15203 3f68 00       		.sleb128 0
 15204 3f69 00       		.byte	0
 15205 3f6a 29       		.uleb128 0x29
 15206 3f6b 3E070000 		.4byte	.LVL377
 15207 3f6f 895E0000 		.4byte	0x5e89
 15208 3f73 843F0000 		.4byte	0x3f84
 15209 3f77 2A       		.uleb128 0x2a
 15210 3f78 01       		.uleb128 0x1
 15211 3f79 50       		.byte	0x50
 15212 3f7a 02       		.uleb128 0x2
 15213 3f7b 75       		.byte	0x75
 15214 3f7c 00       		.sleb128 0
 15215 3f7d 2A       		.uleb128 0x2a
 15216 3f7e 01       		.uleb128 0x1
 15217 3f7f 51       		.byte	0x51
 15218 3f80 02       		.uleb128 0x2
 15219 3f81 76       		.byte	0x76
ARM GAS  /tmp/cc4M9ACW.s 			page 268


 15220 3f82 00       		.sleb128 0
 15221 3f83 00       		.byte	0
 15222 3f84 29       		.uleb128 0x29
 15223 3f85 4A070000 		.4byte	.LVL378
 15224 3f89 895E0000 		.4byte	0x5e89
 15225 3f8d 9E3F0000 		.4byte	0x3f9e
 15226 3f91 2A       		.uleb128 0x2a
 15227 3f92 01       		.uleb128 0x1
 15228 3f93 50       		.byte	0x50
 15229 3f94 02       		.uleb128 0x2
 15230 3f95 75       		.byte	0x75
 15231 3f96 00       		.sleb128 0
 15232 3f97 2A       		.uleb128 0x2a
 15233 3f98 01       		.uleb128 0x1
 15234 3f99 51       		.byte	0x51
 15235 3f9a 02       		.uleb128 0x2
 15236 3f9b 76       		.byte	0x76
 15237 3f9c 00       		.sleb128 0
 15238 3f9d 00       		.byte	0
 15239 3f9e 29       		.uleb128 0x29
 15240 3f9f 56070000 		.4byte	.LVL379
 15241 3fa3 895E0000 		.4byte	0x5e89
 15242 3fa7 B83F0000 		.4byte	0x3fb8
 15243 3fab 2A       		.uleb128 0x2a
 15244 3fac 01       		.uleb128 0x1
 15245 3fad 50       		.byte	0x50
 15246 3fae 02       		.uleb128 0x2
 15247 3faf 75       		.byte	0x75
 15248 3fb0 00       		.sleb128 0
 15249 3fb1 2A       		.uleb128 0x2a
 15250 3fb2 01       		.uleb128 0x1
 15251 3fb3 51       		.byte	0x51
 15252 3fb4 02       		.uleb128 0x2
 15253 3fb5 76       		.byte	0x76
 15254 3fb6 00       		.sleb128 0
 15255 3fb7 00       		.byte	0
 15256 3fb8 29       		.uleb128 0x29
 15257 3fb9 62070000 		.4byte	.LVL380
 15258 3fbd B55E0000 		.4byte	0x5eb5
 15259 3fc1 D23F0000 		.4byte	0x3fd2
 15260 3fc5 2A       		.uleb128 0x2a
 15261 3fc6 01       		.uleb128 0x1
 15262 3fc7 50       		.byte	0x50
 15263 3fc8 02       		.uleb128 0x2
 15264 3fc9 75       		.byte	0x75
 15265 3fca 00       		.sleb128 0
 15266 3fcb 2A       		.uleb128 0x2a
 15267 3fcc 01       		.uleb128 0x1
 15268 3fcd 51       		.byte	0x51
 15269 3fce 02       		.uleb128 0x2
 15270 3fcf 76       		.byte	0x76
 15271 3fd0 00       		.sleb128 0
 15272 3fd1 00       		.byte	0
 15273 3fd2 29       		.uleb128 0x29
 15274 3fd3 6E070000 		.4byte	.LVL381
 15275 3fd7 895E0000 		.4byte	0x5e89
 15276 3fdb EC3F0000 		.4byte	0x3fec
ARM GAS  /tmp/cc4M9ACW.s 			page 269


 15277 3fdf 2A       		.uleb128 0x2a
 15278 3fe0 01       		.uleb128 0x1
 15279 3fe1 50       		.byte	0x50
 15280 3fe2 02       		.uleb128 0x2
 15281 3fe3 75       		.byte	0x75
 15282 3fe4 00       		.sleb128 0
 15283 3fe5 2A       		.uleb128 0x2a
 15284 3fe6 01       		.uleb128 0x1
 15285 3fe7 51       		.byte	0x51
 15286 3fe8 02       		.uleb128 0x2
 15287 3fe9 76       		.byte	0x76
 15288 3fea 00       		.sleb128 0
 15289 3feb 00       		.byte	0
 15290 3fec 29       		.uleb128 0x29
 15291 3fed 7A070000 		.4byte	.LVL382
 15292 3ff1 895E0000 		.4byte	0x5e89
 15293 3ff5 06400000 		.4byte	0x4006
 15294 3ff9 2A       		.uleb128 0x2a
 15295 3ffa 01       		.uleb128 0x1
 15296 3ffb 50       		.byte	0x50
 15297 3ffc 02       		.uleb128 0x2
 15298 3ffd 75       		.byte	0x75
 15299 3ffe 00       		.sleb128 0
 15300 3fff 2A       		.uleb128 0x2a
 15301 4000 01       		.uleb128 0x1
 15302 4001 51       		.byte	0x51
 15303 4002 02       		.uleb128 0x2
 15304 4003 76       		.byte	0x76
 15305 4004 00       		.sleb128 0
 15306 4005 00       		.byte	0
 15307 4006 29       		.uleb128 0x29
 15308 4007 9C070000 		.4byte	.LVL383
 15309 400b 7E5E0000 		.4byte	0x5e7e
 15310 400f 20400000 		.4byte	0x4020
 15311 4013 2A       		.uleb128 0x2a
 15312 4014 01       		.uleb128 0x1
 15313 4015 50       		.byte	0x50
 15314 4016 02       		.uleb128 0x2
 15315 4017 75       		.byte	0x75
 15316 4018 00       		.sleb128 0
 15317 4019 2A       		.uleb128 0x2a
 15318 401a 01       		.uleb128 0x1
 15319 401b 51       		.byte	0x51
 15320 401c 02       		.uleb128 0x2
 15321 401d 76       		.byte	0x76
 15322 401e 00       		.sleb128 0
 15323 401f 00       		.byte	0
 15324 4020 29       		.uleb128 0x29
 15325 4021 CE070000 		.4byte	.LVL384
 15326 4025 895E0000 		.4byte	0x5e89
 15327 4029 3A400000 		.4byte	0x403a
 15328 402d 2A       		.uleb128 0x2a
 15329 402e 01       		.uleb128 0x1
 15330 402f 50       		.byte	0x50
 15331 4030 02       		.uleb128 0x2
 15332 4031 75       		.byte	0x75
 15333 4032 00       		.sleb128 0
ARM GAS  /tmp/cc4M9ACW.s 			page 270


 15334 4033 2A       		.uleb128 0x2a
 15335 4034 01       		.uleb128 0x1
 15336 4035 51       		.byte	0x51
 15337 4036 02       		.uleb128 0x2
 15338 4037 76       		.byte	0x76
 15339 4038 00       		.sleb128 0
 15340 4039 00       		.byte	0
 15341 403a 29       		.uleb128 0x29
 15342 403b DA070000 		.4byte	.LVL385
 15343 403f 895E0000 		.4byte	0x5e89
 15344 4043 54400000 		.4byte	0x4054
 15345 4047 2A       		.uleb128 0x2a
 15346 4048 01       		.uleb128 0x1
 15347 4049 50       		.byte	0x50
 15348 404a 02       		.uleb128 0x2
 15349 404b 75       		.byte	0x75
 15350 404c 00       		.sleb128 0
 15351 404d 2A       		.uleb128 0x2a
 15352 404e 01       		.uleb128 0x1
 15353 404f 51       		.byte	0x51
 15354 4050 02       		.uleb128 0x2
 15355 4051 76       		.byte	0x76
 15356 4052 00       		.sleb128 0
 15357 4053 00       		.byte	0
 15358 4054 29       		.uleb128 0x29
 15359 4055 E6070000 		.4byte	.LVL386
 15360 4059 895E0000 		.4byte	0x5e89
 15361 405d 6E400000 		.4byte	0x406e
 15362 4061 2A       		.uleb128 0x2a
 15363 4062 01       		.uleb128 0x1
 15364 4063 50       		.byte	0x50
 15365 4064 02       		.uleb128 0x2
 15366 4065 75       		.byte	0x75
 15367 4066 00       		.sleb128 0
 15368 4067 2A       		.uleb128 0x2a
 15369 4068 01       		.uleb128 0x1
 15370 4069 51       		.byte	0x51
 15371 406a 02       		.uleb128 0x2
 15372 406b 76       		.byte	0x76
 15373 406c 00       		.sleb128 0
 15374 406d 00       		.byte	0
 15375 406e 29       		.uleb128 0x29
 15376 406f F2070000 		.4byte	.LVL387
 15377 4073 895E0000 		.4byte	0x5e89
 15378 4077 88400000 		.4byte	0x4088
 15379 407b 2A       		.uleb128 0x2a
 15380 407c 01       		.uleb128 0x1
 15381 407d 50       		.byte	0x50
 15382 407e 02       		.uleb128 0x2
 15383 407f 75       		.byte	0x75
 15384 4080 00       		.sleb128 0
 15385 4081 2A       		.uleb128 0x2a
 15386 4082 01       		.uleb128 0x1
 15387 4083 51       		.byte	0x51
 15388 4084 02       		.uleb128 0x2
 15389 4085 76       		.byte	0x76
 15390 4086 00       		.sleb128 0
ARM GAS  /tmp/cc4M9ACW.s 			page 271


 15391 4087 00       		.byte	0
 15392 4088 29       		.uleb128 0x29
 15393 4089 12080000 		.4byte	.LVL388
 15394 408d 895E0000 		.4byte	0x5e89
 15395 4091 A2400000 		.4byte	0x40a2
 15396 4095 2A       		.uleb128 0x2a
 15397 4096 01       		.uleb128 0x1
 15398 4097 50       		.byte	0x50
 15399 4098 02       		.uleb128 0x2
 15400 4099 75       		.byte	0x75
 15401 409a 00       		.sleb128 0
 15402 409b 2A       		.uleb128 0x2a
 15403 409c 01       		.uleb128 0x1
 15404 409d 51       		.byte	0x51
 15405 409e 02       		.uleb128 0x2
 15406 409f 76       		.byte	0x76
 15407 40a0 00       		.sleb128 0
 15408 40a1 00       		.byte	0
 15409 40a2 29       		.uleb128 0x29
 15410 40a3 22080000 		.4byte	.LVL389
 15411 40a7 9F5E0000 		.4byte	0x5e9f
 15412 40ab C8400000 		.4byte	0x40c8
 15413 40af 2A       		.uleb128 0x2a
 15414 40b0 01       		.uleb128 0x1
 15415 40b1 50       		.byte	0x50
 15416 40b2 02       		.uleb128 0x2
 15417 40b3 75       		.byte	0x75
 15418 40b4 00       		.sleb128 0
 15419 40b5 2A       		.uleb128 0x2a
 15420 40b6 02       		.uleb128 0x2
 15421 40b7 90       		.byte	0x90
 15422 40b8 40       		.uleb128 0x40
 15423 40b9 07       		.uleb128 0x7
 15424 40ba F4       		.byte	0xf4
 15425 40bb 25       		.uleb128 0x25
 15426 40bc 04       		.byte	0x4
 15427 40bd CDCCCC3D 		.4byte	0x3dcccccd
 15428 40c1 2A       		.uleb128 0x2a
 15429 40c2 01       		.uleb128 0x1
 15430 40c3 51       		.byte	0x51
 15431 40c4 02       		.uleb128 0x2
 15432 40c5 76       		.byte	0x76
 15433 40c6 00       		.sleb128 0
 15434 40c7 00       		.byte	0
 15435 40c8 29       		.uleb128 0x29
 15436 40c9 32080000 		.4byte	.LVL390
 15437 40cd 9F5E0000 		.4byte	0x5e9f
 15438 40d1 EE400000 		.4byte	0x40ee
 15439 40d5 2A       		.uleb128 0x2a
 15440 40d6 01       		.uleb128 0x1
 15441 40d7 50       		.byte	0x50
 15442 40d8 02       		.uleb128 0x2
 15443 40d9 75       		.byte	0x75
 15444 40da 00       		.sleb128 0
 15445 40db 2A       		.uleb128 0x2a
 15446 40dc 02       		.uleb128 0x2
 15447 40dd 90       		.byte	0x90
ARM GAS  /tmp/cc4M9ACW.s 			page 272


 15448 40de 40       		.uleb128 0x40
 15449 40df 07       		.uleb128 0x7
 15450 40e0 F4       		.byte	0xf4
 15451 40e1 25       		.uleb128 0x25
 15452 40e2 04       		.byte	0x4
 15453 40e3 00002041 		.4byte	0x41200000
 15454 40e7 2A       		.uleb128 0x2a
 15455 40e8 01       		.uleb128 0x1
 15456 40e9 51       		.byte	0x51
 15457 40ea 02       		.uleb128 0x2
 15458 40eb 76       		.byte	0x76
 15459 40ec 00       		.sleb128 0
 15460 40ed 00       		.byte	0
 15461 40ee 29       		.uleb128 0x29
 15462 40ef 52080000 		.4byte	.LVL391
 15463 40f3 895E0000 		.4byte	0x5e89
 15464 40f7 08410000 		.4byte	0x4108
 15465 40fb 2A       		.uleb128 0x2a
 15466 40fc 01       		.uleb128 0x1
 15467 40fd 50       		.byte	0x50
 15468 40fe 02       		.uleb128 0x2
 15469 40ff 75       		.byte	0x75
 15470 4100 00       		.sleb128 0
 15471 4101 2A       		.uleb128 0x2a
 15472 4102 01       		.uleb128 0x1
 15473 4103 51       		.byte	0x51
 15474 4104 02       		.uleb128 0x2
 15475 4105 76       		.byte	0x76
 15476 4106 00       		.sleb128 0
 15477 4107 00       		.byte	0
 15478 4108 29       		.uleb128 0x29
 15479 4109 5E080000 		.4byte	.LVL392
 15480 410d 895E0000 		.4byte	0x5e89
 15481 4111 22410000 		.4byte	0x4122
 15482 4115 2A       		.uleb128 0x2a
 15483 4116 01       		.uleb128 0x1
 15484 4117 50       		.byte	0x50
 15485 4118 02       		.uleb128 0x2
 15486 4119 75       		.byte	0x75
 15487 411a 00       		.sleb128 0
 15488 411b 2A       		.uleb128 0x2a
 15489 411c 01       		.uleb128 0x1
 15490 411d 51       		.byte	0x51
 15491 411e 02       		.uleb128 0x2
 15492 411f 76       		.byte	0x76
 15493 4120 00       		.sleb128 0
 15494 4121 00       		.byte	0
 15495 4122 29       		.uleb128 0x29
 15496 4123 7E080000 		.4byte	.LVL393
 15497 4127 895E0000 		.4byte	0x5e89
 15498 412b 3C410000 		.4byte	0x413c
 15499 412f 2A       		.uleb128 0x2a
 15500 4130 01       		.uleb128 0x1
 15501 4131 50       		.byte	0x50
 15502 4132 02       		.uleb128 0x2
 15503 4133 75       		.byte	0x75
 15504 4134 00       		.sleb128 0
ARM GAS  /tmp/cc4M9ACW.s 			page 273


 15505 4135 2A       		.uleb128 0x2a
 15506 4136 01       		.uleb128 0x1
 15507 4137 51       		.byte	0x51
 15508 4138 02       		.uleb128 0x2
 15509 4139 76       		.byte	0x76
 15510 413a 00       		.sleb128 0
 15511 413b 00       		.byte	0
 15512 413c 29       		.uleb128 0x29
 15513 413d 8A080000 		.4byte	.LVL394
 15514 4141 895E0000 		.4byte	0x5e89
 15515 4145 56410000 		.4byte	0x4156
 15516 4149 2A       		.uleb128 0x2a
 15517 414a 01       		.uleb128 0x1
 15518 414b 50       		.byte	0x50
 15519 414c 02       		.uleb128 0x2
 15520 414d 75       		.byte	0x75
 15521 414e 00       		.sleb128 0
 15522 414f 2A       		.uleb128 0x2a
 15523 4150 01       		.uleb128 0x1
 15524 4151 51       		.byte	0x51
 15525 4152 02       		.uleb128 0x2
 15526 4153 76       		.byte	0x76
 15527 4154 00       		.sleb128 0
 15528 4155 00       		.byte	0
 15529 4156 29       		.uleb128 0x29
 15530 4157 A6080000 		.4byte	.LVL395
 15531 415b 9F5E0000 		.4byte	0x5e9f
 15532 415f 7C410000 		.4byte	0x417c
 15533 4163 2A       		.uleb128 0x2a
 15534 4164 01       		.uleb128 0x1
 15535 4165 50       		.byte	0x50
 15536 4166 02       		.uleb128 0x2
 15537 4167 75       		.byte	0x75
 15538 4168 00       		.sleb128 0
 15539 4169 2A       		.uleb128 0x2a
 15540 416a 02       		.uleb128 0x2
 15541 416b 90       		.byte	0x90
 15542 416c 40       		.uleb128 0x40
 15543 416d 07       		.uleb128 0x7
 15544 416e F4       		.byte	0xf4
 15545 416f 25       		.uleb128 0x25
 15546 4170 04       		.byte	0x4
 15547 4171 0000C842 		.4byte	0x42c80000
 15548 4175 2A       		.uleb128 0x2a
 15549 4176 01       		.uleb128 0x1
 15550 4177 51       		.byte	0x51
 15551 4178 02       		.uleb128 0x2
 15552 4179 76       		.byte	0x76
 15553 417a 00       		.sleb128 0
 15554 417b 00       		.byte	0
 15555 417c 29       		.uleb128 0x29
 15556 417d B6080000 		.4byte	.LVL396
 15557 4181 9F5E0000 		.4byte	0x5e9f
 15558 4185 A2410000 		.4byte	0x41a2
 15559 4189 2A       		.uleb128 0x2a
 15560 418a 01       		.uleb128 0x1
 15561 418b 50       		.byte	0x50
ARM GAS  /tmp/cc4M9ACW.s 			page 274


 15562 418c 02       		.uleb128 0x2
 15563 418d 75       		.byte	0x75
 15564 418e 00       		.sleb128 0
 15565 418f 2A       		.uleb128 0x2a
 15566 4190 02       		.uleb128 0x2
 15567 4191 90       		.byte	0x90
 15568 4192 40       		.uleb128 0x40
 15569 4193 07       		.uleb128 0x7
 15570 4194 F4       		.byte	0xf4
 15571 4195 25       		.uleb128 0x25
 15572 4196 04       		.byte	0x4
 15573 4197 0000C842 		.4byte	0x42c80000
 15574 419b 2A       		.uleb128 0x2a
 15575 419c 01       		.uleb128 0x1
 15576 419d 51       		.byte	0x51
 15577 419e 02       		.uleb128 0x2
 15578 419f 76       		.byte	0x76
 15579 41a0 00       		.sleb128 0
 15580 41a1 00       		.byte	0
 15581 41a2 29       		.uleb128 0x29
 15582 41a3 C6080000 		.4byte	.LVL397
 15583 41a7 9F5E0000 		.4byte	0x5e9f
 15584 41ab C8410000 		.4byte	0x41c8
 15585 41af 2A       		.uleb128 0x2a
 15586 41b0 01       		.uleb128 0x1
 15587 41b1 50       		.byte	0x50
 15588 41b2 02       		.uleb128 0x2
 15589 41b3 75       		.byte	0x75
 15590 41b4 00       		.sleb128 0
 15591 41b5 2A       		.uleb128 0x2a
 15592 41b6 02       		.uleb128 0x2
 15593 41b7 90       		.byte	0x90
 15594 41b8 40       		.uleb128 0x40
 15595 41b9 07       		.uleb128 0x7
 15596 41ba F4       		.byte	0xf4
 15597 41bb 25       		.uleb128 0x25
 15598 41bc 04       		.byte	0x4
 15599 41bd 00007A44 		.4byte	0x447a0000
 15600 41c1 2A       		.uleb128 0x2a
 15601 41c2 01       		.uleb128 0x1
 15602 41c3 51       		.byte	0x51
 15603 41c4 02       		.uleb128 0x2
 15604 41c5 76       		.byte	0x76
 15605 41c6 00       		.sleb128 0
 15606 41c7 00       		.byte	0
 15607 41c8 2B       		.uleb128 0x2b
 15608 41c9 D6080000 		.4byte	.LVL398
 15609 41cd 9F5E0000 		.4byte	0x5e9f
 15610 41d1 2A       		.uleb128 0x2a
 15611 41d2 01       		.uleb128 0x1
 15612 41d3 50       		.byte	0x50
 15613 41d4 02       		.uleb128 0x2
 15614 41d5 75       		.byte	0x75
 15615 41d6 00       		.sleb128 0
 15616 41d7 2A       		.uleb128 0x2a
 15617 41d8 02       		.uleb128 0x2
 15618 41d9 90       		.byte	0x90
ARM GAS  /tmp/cc4M9ACW.s 			page 275


 15619 41da 40       		.uleb128 0x40
 15620 41db 07       		.uleb128 0x7
 15621 41dc F4       		.byte	0xf4
 15622 41dd 25       		.uleb128 0x25
 15623 41de 04       		.byte	0x4
 15624 41df 00007A44 		.4byte	0x447a0000
 15625 41e3 2A       		.uleb128 0x2a
 15626 41e4 01       		.uleb128 0x1
 15627 41e5 51       		.byte	0x51
 15628 41e6 02       		.uleb128 0x2
 15629 41e7 76       		.byte	0x76
 15630 41e8 00       		.sleb128 0
 15631 41e9 00       		.byte	0
 15632 41ea 00       		.byte	0
 15633 41eb 2C       		.uleb128 0x2c
 15634 41ec 812B0000 		.4byte	.LASF699
 15635 41f0 01       		.byte	0x1
 15636 41f1 C1       		.byte	0xc1
 15637 41f2 DA000000 		.4byte	0xda
 15638 41f6 00000000 		.4byte	.LFB220
 15639 41fa DC070000 		.4byte	.LFE220-.LFB220
 15640 41fe 01       		.uleb128 0x1
 15641 41ff 9C       		.byte	0x9c
 15642 4200 534F0000 		.4byte	0x4f53
 15643 4204 2D       		.uleb128 0x2d
 15644 4205 25220000 		.4byte	.LASF695
 15645 4209 01       		.byte	0x1
 15646 420a C1       		.byte	0xc1
 15647 420b 87080000 		.4byte	0x887
 15648 420f 44010000 		.4byte	.LLST2
 15649 4213 2D       		.uleb128 0x2d
 15650 4214 CF1D0000 		.4byte	.LASF694
 15651 4218 01       		.byte	0x1
 15652 4219 C1       		.byte	0xc1
 15653 421a 534F0000 		.4byte	0x4f53
 15654 421e 62010000 		.4byte	.LLST3
 15655 4222 2E       		.uleb128 0x2e
 15656 4223 696E6400 		.ascii	"ind\000"
 15657 4227 01       		.byte	0x1
 15658 4228 C2       		.byte	0xc2
 15659 4229 DA000000 		.4byte	0xda
 15660 422d 02       		.uleb128 0x2
 15661 422e 91       		.byte	0x91
 15662 422f 64       		.sleb128 -28
 15663 4230 29       		.uleb128 0x29
 15664 4231 24000000 		.4byte	.LVL137
 15665 4235 C05E0000 		.4byte	0x5ec0
 15666 4239 54420000 		.4byte	0x4254
 15667 423d 2A       		.uleb128 0x2a
 15668 423e 01       		.uleb128 0x1
 15669 423f 50       		.byte	0x50
 15670 4240 02       		.uleb128 0x2
 15671 4241 75       		.byte	0x75
 15672 4242 00       		.sleb128 0
 15673 4243 2A       		.uleb128 0x2a
 15674 4244 01       		.uleb128 0x1
 15675 4245 51       		.byte	0x51
ARM GAS  /tmp/cc4M9ACW.s 			page 276


 15676 4246 06       		.uleb128 0x6
 15677 4247 11       		.byte	0x11
 15678 4248 D7C0A3F4 		.sleb128 -561455017
 15678      7D
 15679 424d 2A       		.uleb128 0x2a
 15680 424e 01       		.uleb128 0x1
 15681 424f 52       		.byte	0x52
 15682 4250 02       		.uleb128 0x2
 15683 4251 76       		.byte	0x76
 15684 4252 00       		.sleb128 0
 15685 4253 00       		.byte	0
 15686 4254 29       		.uleb128 0x29
 15687 4255 38000000 		.4byte	.LVL138
 15688 4259 C05E0000 		.4byte	0x5ec0
 15689 425d 6E420000 		.4byte	0x426e
 15690 4261 2A       		.uleb128 0x2a
 15691 4262 01       		.uleb128 0x1
 15692 4263 50       		.byte	0x50
 15693 4264 02       		.uleb128 0x2
 15694 4265 75       		.byte	0x75
 15695 4266 00       		.sleb128 0
 15696 4267 2A       		.uleb128 0x2a
 15697 4268 01       		.uleb128 0x1
 15698 4269 52       		.byte	0x52
 15699 426a 02       		.uleb128 0x2
 15700 426b 76       		.byte	0x76
 15701 426c 00       		.sleb128 0
 15702 426d 00       		.byte	0
 15703 426e 29       		.uleb128 0x29
 15704 426f 44000000 		.4byte	.LVL139
 15705 4273 CB5E0000 		.4byte	0x5ecb
 15706 4277 88420000 		.4byte	0x4288
 15707 427b 2A       		.uleb128 0x2a
 15708 427c 01       		.uleb128 0x1
 15709 427d 50       		.byte	0x50
 15710 427e 02       		.uleb128 0x2
 15711 427f 75       		.byte	0x75
 15712 4280 00       		.sleb128 0
 15713 4281 2A       		.uleb128 0x2a
 15714 4282 01       		.uleb128 0x1
 15715 4283 51       		.byte	0x51
 15716 4284 02       		.uleb128 0x2
 15717 4285 76       		.byte	0x76
 15718 4286 00       		.sleb128 0
 15719 4287 00       		.byte	0
 15720 4288 29       		.uleb128 0x29
 15721 4289 58000000 		.4byte	.LVL140
 15722 428d D65E0000 		.4byte	0x5ed6
 15723 4291 A2420000 		.4byte	0x42a2
 15724 4295 2A       		.uleb128 0x2a
 15725 4296 01       		.uleb128 0x1
 15726 4297 50       		.byte	0x50
 15727 4298 02       		.uleb128 0x2
 15728 4299 75       		.byte	0x75
 15729 429a 00       		.sleb128 0
 15730 429b 2A       		.uleb128 0x2a
 15731 429c 01       		.uleb128 0x1
ARM GAS  /tmp/cc4M9ACW.s 			page 277


 15732 429d 52       		.byte	0x52
 15733 429e 02       		.uleb128 0x2
 15734 429f 76       		.byte	0x76
 15735 42a0 00       		.sleb128 0
 15736 42a1 00       		.byte	0
 15737 42a2 29       		.uleb128 0x29
 15738 42a3 88000000 		.4byte	.LVL141
 15739 42a7 CB5E0000 		.4byte	0x5ecb
 15740 42ab BC420000 		.4byte	0x42bc
 15741 42af 2A       		.uleb128 0x2a
 15742 42b0 01       		.uleb128 0x1
 15743 42b1 50       		.byte	0x50
 15744 42b2 02       		.uleb128 0x2
 15745 42b3 75       		.byte	0x75
 15746 42b4 00       		.sleb128 0
 15747 42b5 2A       		.uleb128 0x2a
 15748 42b6 01       		.uleb128 0x1
 15749 42b7 51       		.byte	0x51
 15750 42b8 02       		.uleb128 0x2
 15751 42b9 76       		.byte	0x76
 15752 42ba 00       		.sleb128 0
 15753 42bb 00       		.byte	0
 15754 42bc 29       		.uleb128 0x29
 15755 42bd B0000000 		.4byte	.LVL142
 15756 42c1 CB5E0000 		.4byte	0x5ecb
 15757 42c5 D6420000 		.4byte	0x42d6
 15758 42c9 2A       		.uleb128 0x2a
 15759 42ca 01       		.uleb128 0x1
 15760 42cb 50       		.byte	0x50
 15761 42cc 02       		.uleb128 0x2
 15762 42cd 75       		.byte	0x75
 15763 42ce 00       		.sleb128 0
 15764 42cf 2A       		.uleb128 0x2a
 15765 42d0 01       		.uleb128 0x1
 15766 42d1 51       		.byte	0x51
 15767 42d2 02       		.uleb128 0x2
 15768 42d3 76       		.byte	0x76
 15769 42d4 00       		.sleb128 0
 15770 42d5 00       		.byte	0
 15771 42d6 29       		.uleb128 0x29
 15772 42d7 BC000000 		.4byte	.LVL143
 15773 42db CB5E0000 		.4byte	0x5ecb
 15774 42df F0420000 		.4byte	0x42f0
 15775 42e3 2A       		.uleb128 0x2a
 15776 42e4 01       		.uleb128 0x1
 15777 42e5 50       		.byte	0x50
 15778 42e6 02       		.uleb128 0x2
 15779 42e7 75       		.byte	0x75
 15780 42e8 00       		.sleb128 0
 15781 42e9 2A       		.uleb128 0x2a
 15782 42ea 01       		.uleb128 0x1
 15783 42eb 51       		.byte	0x51
 15784 42ec 02       		.uleb128 0x2
 15785 42ed 76       		.byte	0x76
 15786 42ee 00       		.sleb128 0
 15787 42ef 00       		.byte	0
 15788 42f0 29       		.uleb128 0x29
ARM GAS  /tmp/cc4M9ACW.s 			page 278


 15789 42f1 C8000000 		.4byte	.LVL144
 15790 42f5 CB5E0000 		.4byte	0x5ecb
 15791 42f9 0A430000 		.4byte	0x430a
 15792 42fd 2A       		.uleb128 0x2a
 15793 42fe 01       		.uleb128 0x1
 15794 42ff 50       		.byte	0x50
 15795 4300 02       		.uleb128 0x2
 15796 4301 75       		.byte	0x75
 15797 4302 00       		.sleb128 0
 15798 4303 2A       		.uleb128 0x2a
 15799 4304 01       		.uleb128 0x1
 15800 4305 51       		.byte	0x51
 15801 4306 02       		.uleb128 0x2
 15802 4307 76       		.byte	0x76
 15803 4308 00       		.sleb128 0
 15804 4309 00       		.byte	0
 15805 430a 29       		.uleb128 0x29
 15806 430b D4000000 		.4byte	.LVL145
 15807 430f CB5E0000 		.4byte	0x5ecb
 15808 4313 24430000 		.4byte	0x4324
 15809 4317 2A       		.uleb128 0x2a
 15810 4318 01       		.uleb128 0x1
 15811 4319 50       		.byte	0x50
 15812 431a 02       		.uleb128 0x2
 15813 431b 75       		.byte	0x75
 15814 431c 00       		.sleb128 0
 15815 431d 2A       		.uleb128 0x2a
 15816 431e 01       		.uleb128 0x1
 15817 431f 51       		.byte	0x51
 15818 4320 02       		.uleb128 0x2
 15819 4321 76       		.byte	0x76
 15820 4322 00       		.sleb128 0
 15821 4323 00       		.byte	0
 15822 4324 29       		.uleb128 0x29
 15823 4325 E0000000 		.4byte	.LVL146
 15824 4329 CB5E0000 		.4byte	0x5ecb
 15825 432d 3E430000 		.4byte	0x433e
 15826 4331 2A       		.uleb128 0x2a
 15827 4332 01       		.uleb128 0x1
 15828 4333 50       		.byte	0x50
 15829 4334 02       		.uleb128 0x2
 15830 4335 75       		.byte	0x75
 15831 4336 00       		.sleb128 0
 15832 4337 2A       		.uleb128 0x2a
 15833 4338 01       		.uleb128 0x1
 15834 4339 51       		.byte	0x51
 15835 433a 02       		.uleb128 0x2
 15836 433b 76       		.byte	0x76
 15837 433c 00       		.sleb128 0
 15838 433d 00       		.byte	0
 15839 433e 29       		.uleb128 0x29
 15840 433f 00010000 		.4byte	.LVL147
 15841 4343 CB5E0000 		.4byte	0x5ecb
 15842 4347 58430000 		.4byte	0x4358
 15843 434b 2A       		.uleb128 0x2a
 15844 434c 01       		.uleb128 0x1
 15845 434d 50       		.byte	0x50
ARM GAS  /tmp/cc4M9ACW.s 			page 279


 15846 434e 02       		.uleb128 0x2
 15847 434f 75       		.byte	0x75
 15848 4350 00       		.sleb128 0
 15849 4351 2A       		.uleb128 0x2a
 15850 4352 01       		.uleb128 0x1
 15851 4353 51       		.byte	0x51
 15852 4354 02       		.uleb128 0x2
 15853 4355 76       		.byte	0x76
 15854 4356 00       		.sleb128 0
 15855 4357 00       		.byte	0
 15856 4358 29       		.uleb128 0x29
 15857 4359 0C010000 		.4byte	.LVL148
 15858 435d CB5E0000 		.4byte	0x5ecb
 15859 4361 72430000 		.4byte	0x4372
 15860 4365 2A       		.uleb128 0x2a
 15861 4366 01       		.uleb128 0x1
 15862 4367 50       		.byte	0x50
 15863 4368 02       		.uleb128 0x2
 15864 4369 75       		.byte	0x75
 15865 436a 00       		.sleb128 0
 15866 436b 2A       		.uleb128 0x2a
 15867 436c 01       		.uleb128 0x1
 15868 436d 51       		.byte	0x51
 15869 436e 02       		.uleb128 0x2
 15870 436f 76       		.byte	0x76
 15871 4370 00       		.sleb128 0
 15872 4371 00       		.byte	0
 15873 4372 29       		.uleb128 0x29
 15874 4373 24010000 		.4byte	.LVL149
 15875 4377 CB5E0000 		.4byte	0x5ecb
 15876 437b 8C430000 		.4byte	0x438c
 15877 437f 2A       		.uleb128 0x2a
 15878 4380 01       		.uleb128 0x1
 15879 4381 50       		.byte	0x50
 15880 4382 02       		.uleb128 0x2
 15881 4383 75       		.byte	0x75
 15882 4384 00       		.sleb128 0
 15883 4385 2A       		.uleb128 0x2a
 15884 4386 01       		.uleb128 0x1
 15885 4387 51       		.byte	0x51
 15886 4388 02       		.uleb128 0x2
 15887 4389 76       		.byte	0x76
 15888 438a 00       		.sleb128 0
 15889 438b 00       		.byte	0
 15890 438c 29       		.uleb128 0x29
 15891 438d 30010000 		.4byte	.LVL150
 15892 4391 CB5E0000 		.4byte	0x5ecb
 15893 4395 A6430000 		.4byte	0x43a6
 15894 4399 2A       		.uleb128 0x2a
 15895 439a 01       		.uleb128 0x1
 15896 439b 50       		.byte	0x50
 15897 439c 02       		.uleb128 0x2
 15898 439d 75       		.byte	0x75
 15899 439e 00       		.sleb128 0
 15900 439f 2A       		.uleb128 0x2a
 15901 43a0 01       		.uleb128 0x1
 15902 43a1 51       		.byte	0x51
ARM GAS  /tmp/cc4M9ACW.s 			page 280


 15903 43a2 02       		.uleb128 0x2
 15904 43a3 76       		.byte	0x76
 15905 43a4 00       		.sleb128 0
 15906 43a5 00       		.byte	0
 15907 43a6 29       		.uleb128 0x29
 15908 43a7 50010000 		.4byte	.LVL151
 15909 43ab CB5E0000 		.4byte	0x5ecb
 15910 43af C0430000 		.4byte	0x43c0
 15911 43b3 2A       		.uleb128 0x2a
 15912 43b4 01       		.uleb128 0x1
 15913 43b5 50       		.byte	0x50
 15914 43b6 02       		.uleb128 0x2
 15915 43b7 75       		.byte	0x75
 15916 43b8 00       		.sleb128 0
 15917 43b9 2A       		.uleb128 0x2a
 15918 43ba 01       		.uleb128 0x1
 15919 43bb 51       		.byte	0x51
 15920 43bc 02       		.uleb128 0x2
 15921 43bd 76       		.byte	0x76
 15922 43be 00       		.sleb128 0
 15923 43bf 00       		.byte	0
 15924 43c0 29       		.uleb128 0x29
 15925 43c1 60010000 		.4byte	.LVL152
 15926 43c5 E15E0000 		.4byte	0x5ee1
 15927 43c9 E6430000 		.4byte	0x43e6
 15928 43cd 2A       		.uleb128 0x2a
 15929 43ce 01       		.uleb128 0x1
 15930 43cf 50       		.byte	0x50
 15931 43d0 02       		.uleb128 0x2
 15932 43d1 75       		.byte	0x75
 15933 43d2 00       		.sleb128 0
 15934 43d3 2A       		.uleb128 0x2a
 15935 43d4 02       		.uleb128 0x2
 15936 43d5 90       		.byte	0x90
 15937 43d6 41       		.uleb128 0x41
 15938 43d7 07       		.uleb128 0x7
 15939 43d8 F4       		.byte	0xf4
 15940 43d9 25       		.uleb128 0x25
 15941 43da 04       		.byte	0x4
 15942 43db 0000803F 		.4byte	0x3f800000
 15943 43df 2A       		.uleb128 0x2a
 15944 43e0 01       		.uleb128 0x1
 15945 43e1 51       		.byte	0x51
 15946 43e2 02       		.uleb128 0x2
 15947 43e3 76       		.byte	0x76
 15948 43e4 00       		.sleb128 0
 15949 43e5 00       		.byte	0
 15950 43e6 29       		.uleb128 0x29
 15951 43e7 6C010000 		.4byte	.LVL153
 15952 43eb CB5E0000 		.4byte	0x5ecb
 15953 43ef 00440000 		.4byte	0x4400
 15954 43f3 2A       		.uleb128 0x2a
 15955 43f4 01       		.uleb128 0x1
 15956 43f5 50       		.byte	0x50
 15957 43f6 02       		.uleb128 0x2
 15958 43f7 75       		.byte	0x75
 15959 43f8 00       		.sleb128 0
ARM GAS  /tmp/cc4M9ACW.s 			page 281


 15960 43f9 2A       		.uleb128 0x2a
 15961 43fa 01       		.uleb128 0x1
 15962 43fb 51       		.byte	0x51
 15963 43fc 02       		.uleb128 0x2
 15964 43fd 76       		.byte	0x76
 15965 43fe 00       		.sleb128 0
 15966 43ff 00       		.byte	0
 15967 4400 29       		.uleb128 0x29
 15968 4401 78010000 		.4byte	.LVL154
 15969 4405 CB5E0000 		.4byte	0x5ecb
 15970 4409 1A440000 		.4byte	0x441a
 15971 440d 2A       		.uleb128 0x2a
 15972 440e 01       		.uleb128 0x1
 15973 440f 50       		.byte	0x50
 15974 4410 02       		.uleb128 0x2
 15975 4411 75       		.byte	0x75
 15976 4412 00       		.sleb128 0
 15977 4413 2A       		.uleb128 0x2a
 15978 4414 01       		.uleb128 0x1
 15979 4415 51       		.byte	0x51
 15980 4416 02       		.uleb128 0x2
 15981 4417 76       		.byte	0x76
 15982 4418 00       		.sleb128 0
 15983 4419 00       		.byte	0
 15984 441a 29       		.uleb128 0x29
 15985 441b 90010000 		.4byte	.LVL155
 15986 441f CB5E0000 		.4byte	0x5ecb
 15987 4423 34440000 		.4byte	0x4434
 15988 4427 2A       		.uleb128 0x2a
 15989 4428 01       		.uleb128 0x1
 15990 4429 50       		.byte	0x50
 15991 442a 02       		.uleb128 0x2
 15992 442b 75       		.byte	0x75
 15993 442c 00       		.sleb128 0
 15994 442d 2A       		.uleb128 0x2a
 15995 442e 01       		.uleb128 0x1
 15996 442f 51       		.byte	0x51
 15997 4430 02       		.uleb128 0x2
 15998 4431 76       		.byte	0x76
 15999 4432 00       		.sleb128 0
 16000 4433 00       		.byte	0
 16001 4434 29       		.uleb128 0x29
 16002 4435 9C010000 		.4byte	.LVL156
 16003 4439 CB5E0000 		.4byte	0x5ecb
 16004 443d 4E440000 		.4byte	0x444e
 16005 4441 2A       		.uleb128 0x2a
 16006 4442 01       		.uleb128 0x1
 16007 4443 50       		.byte	0x50
 16008 4444 02       		.uleb128 0x2
 16009 4445 75       		.byte	0x75
 16010 4446 00       		.sleb128 0
 16011 4447 2A       		.uleb128 0x2a
 16012 4448 01       		.uleb128 0x1
 16013 4449 51       		.byte	0x51
 16014 444a 02       		.uleb128 0x2
 16015 444b 76       		.byte	0x76
 16016 444c 00       		.sleb128 0
ARM GAS  /tmp/cc4M9ACW.s 			page 282


 16017 444d 00       		.byte	0
 16018 444e 29       		.uleb128 0x29
 16019 444f A8010000 		.4byte	.LVL157
 16020 4453 CB5E0000 		.4byte	0x5ecb
 16021 4457 68440000 		.4byte	0x4468
 16022 445b 2A       		.uleb128 0x2a
 16023 445c 01       		.uleb128 0x1
 16024 445d 50       		.byte	0x50
 16025 445e 02       		.uleb128 0x2
 16026 445f 75       		.byte	0x75
 16027 4460 00       		.sleb128 0
 16028 4461 2A       		.uleb128 0x2a
 16029 4462 01       		.uleb128 0x1
 16030 4463 51       		.byte	0x51
 16031 4464 02       		.uleb128 0x2
 16032 4465 76       		.byte	0x76
 16033 4466 00       		.sleb128 0
 16034 4467 00       		.byte	0
 16035 4468 29       		.uleb128 0x29
 16036 4469 B4010000 		.4byte	.LVL158
 16037 446d CB5E0000 		.4byte	0x5ecb
 16038 4471 82440000 		.4byte	0x4482
 16039 4475 2A       		.uleb128 0x2a
 16040 4476 01       		.uleb128 0x1
 16041 4477 50       		.byte	0x50
 16042 4478 02       		.uleb128 0x2
 16043 4479 75       		.byte	0x75
 16044 447a 00       		.sleb128 0
 16045 447b 2A       		.uleb128 0x2a
 16046 447c 01       		.uleb128 0x1
 16047 447d 51       		.byte	0x51
 16048 447e 02       		.uleb128 0x2
 16049 447f 76       		.byte	0x76
 16050 4480 00       		.sleb128 0
 16051 4481 00       		.byte	0
 16052 4482 29       		.uleb128 0x29
 16053 4483 C0010000 		.4byte	.LVL159
 16054 4487 CB5E0000 		.4byte	0x5ecb
 16055 448b 9C440000 		.4byte	0x449c
 16056 448f 2A       		.uleb128 0x2a
 16057 4490 01       		.uleb128 0x1
 16058 4491 50       		.byte	0x50
 16059 4492 02       		.uleb128 0x2
 16060 4493 75       		.byte	0x75
 16061 4494 00       		.sleb128 0
 16062 4495 2A       		.uleb128 0x2a
 16063 4496 01       		.uleb128 0x1
 16064 4497 51       		.byte	0x51
 16065 4498 02       		.uleb128 0x2
 16066 4499 76       		.byte	0x76
 16067 449a 00       		.sleb128 0
 16068 449b 00       		.byte	0
 16069 449c 29       		.uleb128 0x29
 16070 449d CC010000 		.4byte	.LVL160
 16071 44a1 CB5E0000 		.4byte	0x5ecb
 16072 44a5 B6440000 		.4byte	0x44b6
 16073 44a9 2A       		.uleb128 0x2a
ARM GAS  /tmp/cc4M9ACW.s 			page 283


 16074 44aa 01       		.uleb128 0x1
 16075 44ab 50       		.byte	0x50
 16076 44ac 02       		.uleb128 0x2
 16077 44ad 75       		.byte	0x75
 16078 44ae 00       		.sleb128 0
 16079 44af 2A       		.uleb128 0x2a
 16080 44b0 01       		.uleb128 0x1
 16081 44b1 51       		.byte	0x51
 16082 44b2 02       		.uleb128 0x2
 16083 44b3 76       		.byte	0x76
 16084 44b4 00       		.sleb128 0
 16085 44b5 00       		.byte	0
 16086 44b6 29       		.uleb128 0x29
 16087 44b7 04020000 		.4byte	.LVL161
 16088 44bb CB5E0000 		.4byte	0x5ecb
 16089 44bf D0440000 		.4byte	0x44d0
 16090 44c3 2A       		.uleb128 0x2a
 16091 44c4 01       		.uleb128 0x1
 16092 44c5 50       		.byte	0x50
 16093 44c6 02       		.uleb128 0x2
 16094 44c7 75       		.byte	0x75
 16095 44c8 00       		.sleb128 0
 16096 44c9 2A       		.uleb128 0x2a
 16097 44ca 01       		.uleb128 0x1
 16098 44cb 51       		.byte	0x51
 16099 44cc 02       		.uleb128 0x2
 16100 44cd 76       		.byte	0x76
 16101 44ce 00       		.sleb128 0
 16102 44cf 00       		.byte	0
 16103 44d0 29       		.uleb128 0x29
 16104 44d1 10020000 		.4byte	.LVL162
 16105 44d5 CB5E0000 		.4byte	0x5ecb
 16106 44d9 EA440000 		.4byte	0x44ea
 16107 44dd 2A       		.uleb128 0x2a
 16108 44de 01       		.uleb128 0x1
 16109 44df 50       		.byte	0x50
 16110 44e0 02       		.uleb128 0x2
 16111 44e1 75       		.byte	0x75
 16112 44e2 00       		.sleb128 0
 16113 44e3 2A       		.uleb128 0x2a
 16114 44e4 01       		.uleb128 0x1
 16115 44e5 51       		.byte	0x51
 16116 44e6 02       		.uleb128 0x2
 16117 44e7 76       		.byte	0x76
 16118 44e8 00       		.sleb128 0
 16119 44e9 00       		.byte	0
 16120 44ea 29       		.uleb128 0x29
 16121 44eb 28020000 		.4byte	.LVL163
 16122 44ef CB5E0000 		.4byte	0x5ecb
 16123 44f3 04450000 		.4byte	0x4504
 16124 44f7 2A       		.uleb128 0x2a
 16125 44f8 01       		.uleb128 0x1
 16126 44f9 50       		.byte	0x50
 16127 44fa 02       		.uleb128 0x2
 16128 44fb 75       		.byte	0x75
 16129 44fc 00       		.sleb128 0
 16130 44fd 2A       		.uleb128 0x2a
ARM GAS  /tmp/cc4M9ACW.s 			page 284


 16131 44fe 01       		.uleb128 0x1
 16132 44ff 51       		.byte	0x51
 16133 4500 02       		.uleb128 0x2
 16134 4501 76       		.byte	0x76
 16135 4502 00       		.sleb128 0
 16136 4503 00       		.byte	0
 16137 4504 29       		.uleb128 0x29
 16138 4505 34020000 		.4byte	.LVL164
 16139 4509 CB5E0000 		.4byte	0x5ecb
 16140 450d 1E450000 		.4byte	0x451e
 16141 4511 2A       		.uleb128 0x2a
 16142 4512 01       		.uleb128 0x1
 16143 4513 50       		.byte	0x50
 16144 4514 02       		.uleb128 0x2
 16145 4515 75       		.byte	0x75
 16146 4516 00       		.sleb128 0
 16147 4517 2A       		.uleb128 0x2a
 16148 4518 01       		.uleb128 0x1
 16149 4519 51       		.byte	0x51
 16150 451a 02       		.uleb128 0x2
 16151 451b 76       		.byte	0x76
 16152 451c 00       		.sleb128 0
 16153 451d 00       		.byte	0
 16154 451e 29       		.uleb128 0x29
 16155 451f 54020000 		.4byte	.LVL165
 16156 4523 CB5E0000 		.4byte	0x5ecb
 16157 4527 38450000 		.4byte	0x4538
 16158 452b 2A       		.uleb128 0x2a
 16159 452c 01       		.uleb128 0x1
 16160 452d 50       		.byte	0x50
 16161 452e 02       		.uleb128 0x2
 16162 452f 75       		.byte	0x75
 16163 4530 00       		.sleb128 0
 16164 4531 2A       		.uleb128 0x2a
 16165 4532 01       		.uleb128 0x1
 16166 4533 51       		.byte	0x51
 16167 4534 02       		.uleb128 0x2
 16168 4535 76       		.byte	0x76
 16169 4536 00       		.sleb128 0
 16170 4537 00       		.byte	0
 16171 4538 29       		.uleb128 0x29
 16172 4539 60020000 		.4byte	.LVL166
 16173 453d D65E0000 		.4byte	0x5ed6
 16174 4541 52450000 		.4byte	0x4552
 16175 4545 2A       		.uleb128 0x2a
 16176 4546 01       		.uleb128 0x1
 16177 4547 50       		.byte	0x50
 16178 4548 02       		.uleb128 0x2
 16179 4549 75       		.byte	0x75
 16180 454a 00       		.sleb128 0
 16181 454b 2A       		.uleb128 0x2a
 16182 454c 01       		.uleb128 0x1
 16183 454d 52       		.byte	0x52
 16184 454e 02       		.uleb128 0x2
 16185 454f 76       		.byte	0x76
 16186 4550 00       		.sleb128 0
 16187 4551 00       		.byte	0
ARM GAS  /tmp/cc4M9ACW.s 			page 285


 16188 4552 29       		.uleb128 0x29
 16189 4553 6C020000 		.4byte	.LVL167
 16190 4557 C05E0000 		.4byte	0x5ec0
 16191 455b 6C450000 		.4byte	0x456c
 16192 455f 2A       		.uleb128 0x2a
 16193 4560 01       		.uleb128 0x1
 16194 4561 50       		.byte	0x50
 16195 4562 02       		.uleb128 0x2
 16196 4563 75       		.byte	0x75
 16197 4564 00       		.sleb128 0
 16198 4565 2A       		.uleb128 0x2a
 16199 4566 01       		.uleb128 0x1
 16200 4567 52       		.byte	0x52
 16201 4568 02       		.uleb128 0x2
 16202 4569 76       		.byte	0x76
 16203 456a 00       		.sleb128 0
 16204 456b 00       		.byte	0
 16205 456c 29       		.uleb128 0x29
 16206 456d 84020000 		.4byte	.LVL168
 16207 4571 CB5E0000 		.4byte	0x5ecb
 16208 4575 86450000 		.4byte	0x4586
 16209 4579 2A       		.uleb128 0x2a
 16210 457a 01       		.uleb128 0x1
 16211 457b 50       		.byte	0x50
 16212 457c 02       		.uleb128 0x2
 16213 457d 75       		.byte	0x75
 16214 457e 00       		.sleb128 0
 16215 457f 2A       		.uleb128 0x2a
 16216 4580 01       		.uleb128 0x1
 16217 4581 51       		.byte	0x51
 16218 4582 02       		.uleb128 0x2
 16219 4583 76       		.byte	0x76
 16220 4584 00       		.sleb128 0
 16221 4585 00       		.byte	0
 16222 4586 29       		.uleb128 0x29
 16223 4587 90020000 		.4byte	.LVL169
 16224 458b CB5E0000 		.4byte	0x5ecb
 16225 458f A0450000 		.4byte	0x45a0
 16226 4593 2A       		.uleb128 0x2a
 16227 4594 01       		.uleb128 0x1
 16228 4595 50       		.byte	0x50
 16229 4596 02       		.uleb128 0x2
 16230 4597 75       		.byte	0x75
 16231 4598 00       		.sleb128 0
 16232 4599 2A       		.uleb128 0x2a
 16233 459a 01       		.uleb128 0x1
 16234 459b 51       		.byte	0x51
 16235 459c 02       		.uleb128 0x2
 16236 459d 76       		.byte	0x76
 16237 459e 00       		.sleb128 0
 16238 459f 00       		.byte	0
 16239 45a0 29       		.uleb128 0x29
 16240 45a1 9C020000 		.4byte	.LVL170
 16241 45a5 CB5E0000 		.4byte	0x5ecb
 16242 45a9 BA450000 		.4byte	0x45ba
 16243 45ad 2A       		.uleb128 0x2a
 16244 45ae 01       		.uleb128 0x1
ARM GAS  /tmp/cc4M9ACW.s 			page 286


 16245 45af 50       		.byte	0x50
 16246 45b0 02       		.uleb128 0x2
 16247 45b1 75       		.byte	0x75
 16248 45b2 00       		.sleb128 0
 16249 45b3 2A       		.uleb128 0x2a
 16250 45b4 01       		.uleb128 0x1
 16251 45b5 51       		.byte	0x51
 16252 45b6 02       		.uleb128 0x2
 16253 45b7 76       		.byte	0x76
 16254 45b8 00       		.sleb128 0
 16255 45b9 00       		.byte	0
 16256 45ba 29       		.uleb128 0x29
 16257 45bb A8020000 		.4byte	.LVL171
 16258 45bf CB5E0000 		.4byte	0x5ecb
 16259 45c3 D4450000 		.4byte	0x45d4
 16260 45c7 2A       		.uleb128 0x2a
 16261 45c8 01       		.uleb128 0x1
 16262 45c9 50       		.byte	0x50
 16263 45ca 02       		.uleb128 0x2
 16264 45cb 75       		.byte	0x75
 16265 45cc 00       		.sleb128 0
 16266 45cd 2A       		.uleb128 0x2a
 16267 45ce 01       		.uleb128 0x1
 16268 45cf 51       		.byte	0x51
 16269 45d0 02       		.uleb128 0x2
 16270 45d1 76       		.byte	0x76
 16271 45d2 00       		.sleb128 0
 16272 45d3 00       		.byte	0
 16273 45d4 29       		.uleb128 0x29
 16274 45d5 B4020000 		.4byte	.LVL172
 16275 45d9 CB5E0000 		.4byte	0x5ecb
 16276 45dd EE450000 		.4byte	0x45ee
 16277 45e1 2A       		.uleb128 0x2a
 16278 45e2 01       		.uleb128 0x1
 16279 45e3 50       		.byte	0x50
 16280 45e4 02       		.uleb128 0x2
 16281 45e5 75       		.byte	0x75
 16282 45e6 00       		.sleb128 0
 16283 45e7 2A       		.uleb128 0x2a
 16284 45e8 01       		.uleb128 0x1
 16285 45e9 51       		.byte	0x51
 16286 45ea 02       		.uleb128 0x2
 16287 45eb 76       		.byte	0x76
 16288 45ec 00       		.sleb128 0
 16289 45ed 00       		.byte	0
 16290 45ee 29       		.uleb128 0x29
 16291 45ef C0020000 		.4byte	.LVL173
 16292 45f3 CB5E0000 		.4byte	0x5ecb
 16293 45f7 08460000 		.4byte	0x4608
 16294 45fb 2A       		.uleb128 0x2a
 16295 45fc 01       		.uleb128 0x1
 16296 45fd 50       		.byte	0x50
 16297 45fe 02       		.uleb128 0x2
 16298 45ff 75       		.byte	0x75
 16299 4600 00       		.sleb128 0
 16300 4601 2A       		.uleb128 0x2a
 16301 4602 01       		.uleb128 0x1
ARM GAS  /tmp/cc4M9ACW.s 			page 287


 16302 4603 51       		.byte	0x51
 16303 4604 02       		.uleb128 0x2
 16304 4605 76       		.byte	0x76
 16305 4606 00       		.sleb128 0
 16306 4607 00       		.byte	0
 16307 4608 29       		.uleb128 0x29
 16308 4609 E6020000 		.4byte	.LVL174
 16309 460d CB5E0000 		.4byte	0x5ecb
 16310 4611 22460000 		.4byte	0x4622
 16311 4615 2A       		.uleb128 0x2a
 16312 4616 01       		.uleb128 0x1
 16313 4617 50       		.byte	0x50
 16314 4618 02       		.uleb128 0x2
 16315 4619 75       		.byte	0x75
 16316 461a 00       		.sleb128 0
 16317 461b 2A       		.uleb128 0x2a
 16318 461c 01       		.uleb128 0x1
 16319 461d 51       		.byte	0x51
 16320 461e 02       		.uleb128 0x2
 16321 461f 76       		.byte	0x76
 16322 4620 00       		.sleb128 0
 16323 4621 00       		.byte	0
 16324 4622 29       		.uleb128 0x29
 16325 4623 FE020000 		.4byte	.LVL175
 16326 4627 CB5E0000 		.4byte	0x5ecb
 16327 462b 3C460000 		.4byte	0x463c
 16328 462f 2A       		.uleb128 0x2a
 16329 4630 01       		.uleb128 0x1
 16330 4631 50       		.byte	0x50
 16331 4632 02       		.uleb128 0x2
 16332 4633 75       		.byte	0x75
 16333 4634 00       		.sleb128 0
 16334 4635 2A       		.uleb128 0x2a
 16335 4636 01       		.uleb128 0x1
 16336 4637 51       		.byte	0x51
 16337 4638 02       		.uleb128 0x2
 16338 4639 76       		.byte	0x76
 16339 463a 00       		.sleb128 0
 16340 463b 00       		.byte	0
 16341 463c 29       		.uleb128 0x29
 16342 463d 0A030000 		.4byte	.LVL176
 16343 4641 CB5E0000 		.4byte	0x5ecb
 16344 4645 56460000 		.4byte	0x4656
 16345 4649 2A       		.uleb128 0x2a
 16346 464a 01       		.uleb128 0x1
 16347 464b 50       		.byte	0x50
 16348 464c 02       		.uleb128 0x2
 16349 464d 75       		.byte	0x75
 16350 464e 00       		.sleb128 0
 16351 464f 2A       		.uleb128 0x2a
 16352 4650 01       		.uleb128 0x1
 16353 4651 51       		.byte	0x51
 16354 4652 02       		.uleb128 0x2
 16355 4653 76       		.byte	0x76
 16356 4654 00       		.sleb128 0
 16357 4655 00       		.byte	0
 16358 4656 29       		.uleb128 0x29
ARM GAS  /tmp/cc4M9ACW.s 			page 288


 16359 4657 5A030000 		.4byte	.LVL177
 16360 465b CB5E0000 		.4byte	0x5ecb
 16361 465f 70460000 		.4byte	0x4670
 16362 4663 2A       		.uleb128 0x2a
 16363 4664 01       		.uleb128 0x1
 16364 4665 50       		.byte	0x50
 16365 4666 02       		.uleb128 0x2
 16366 4667 75       		.byte	0x75
 16367 4668 00       		.sleb128 0
 16368 4669 2A       		.uleb128 0x2a
 16369 466a 01       		.uleb128 0x1
 16370 466b 51       		.byte	0x51
 16371 466c 02       		.uleb128 0x2
 16372 466d 76       		.byte	0x76
 16373 466e 00       		.sleb128 0
 16374 466f 00       		.byte	0
 16375 4670 29       		.uleb128 0x29
 16376 4671 66030000 		.4byte	.LVL178
 16377 4675 CB5E0000 		.4byte	0x5ecb
 16378 4679 8A460000 		.4byte	0x468a
 16379 467d 2A       		.uleb128 0x2a
 16380 467e 01       		.uleb128 0x1
 16381 467f 50       		.byte	0x50
 16382 4680 02       		.uleb128 0x2
 16383 4681 75       		.byte	0x75
 16384 4682 00       		.sleb128 0
 16385 4683 2A       		.uleb128 0x2a
 16386 4684 01       		.uleb128 0x1
 16387 4685 51       		.byte	0x51
 16388 4686 02       		.uleb128 0x2
 16389 4687 76       		.byte	0x76
 16390 4688 00       		.sleb128 0
 16391 4689 00       		.byte	0
 16392 468a 29       		.uleb128 0x29
 16393 468b 72030000 		.4byte	.LVL179
 16394 468f CB5E0000 		.4byte	0x5ecb
 16395 4693 A4460000 		.4byte	0x46a4
 16396 4697 2A       		.uleb128 0x2a
 16397 4698 01       		.uleb128 0x1
 16398 4699 50       		.byte	0x50
 16399 469a 02       		.uleb128 0x2
 16400 469b 75       		.byte	0x75
 16401 469c 00       		.sleb128 0
 16402 469d 2A       		.uleb128 0x2a
 16403 469e 01       		.uleb128 0x1
 16404 469f 51       		.byte	0x51
 16405 46a0 02       		.uleb128 0x2
 16406 46a1 76       		.byte	0x76
 16407 46a2 00       		.sleb128 0
 16408 46a3 00       		.byte	0
 16409 46a4 29       		.uleb128 0x29
 16410 46a5 7E030000 		.4byte	.LVL180
 16411 46a9 D65E0000 		.4byte	0x5ed6
 16412 46ad BE460000 		.4byte	0x46be
 16413 46b1 2A       		.uleb128 0x2a
 16414 46b2 01       		.uleb128 0x1
 16415 46b3 50       		.byte	0x50
ARM GAS  /tmp/cc4M9ACW.s 			page 289


 16416 46b4 02       		.uleb128 0x2
 16417 46b5 75       		.byte	0x75
 16418 46b6 00       		.sleb128 0
 16419 46b7 2A       		.uleb128 0x2a
 16420 46b8 01       		.uleb128 0x1
 16421 46b9 52       		.byte	0x52
 16422 46ba 02       		.uleb128 0x2
 16423 46bb 76       		.byte	0x76
 16424 46bc 00       		.sleb128 0
 16425 46bd 00       		.byte	0
 16426 46be 29       		.uleb128 0x29
 16427 46bf 8A030000 		.4byte	.LVL181
 16428 46c3 D65E0000 		.4byte	0x5ed6
 16429 46c7 D8460000 		.4byte	0x46d8
 16430 46cb 2A       		.uleb128 0x2a
 16431 46cc 01       		.uleb128 0x1
 16432 46cd 50       		.byte	0x50
 16433 46ce 02       		.uleb128 0x2
 16434 46cf 75       		.byte	0x75
 16435 46d0 00       		.sleb128 0
 16436 46d1 2A       		.uleb128 0x2a
 16437 46d2 01       		.uleb128 0x1
 16438 46d3 52       		.byte	0x52
 16439 46d4 02       		.uleb128 0x2
 16440 46d5 76       		.byte	0x76
 16441 46d6 00       		.sleb128 0
 16442 46d7 00       		.byte	0
 16443 46d8 29       		.uleb128 0x29
 16444 46d9 96030000 		.4byte	.LVL182
 16445 46dd CB5E0000 		.4byte	0x5ecb
 16446 46e1 F2460000 		.4byte	0x46f2
 16447 46e5 2A       		.uleb128 0x2a
 16448 46e6 01       		.uleb128 0x1
 16449 46e7 50       		.byte	0x50
 16450 46e8 02       		.uleb128 0x2
 16451 46e9 75       		.byte	0x75
 16452 46ea 00       		.sleb128 0
 16453 46eb 2A       		.uleb128 0x2a
 16454 46ec 01       		.uleb128 0x1
 16455 46ed 51       		.byte	0x51
 16456 46ee 02       		.uleb128 0x2
 16457 46ef 76       		.byte	0x76
 16458 46f0 00       		.sleb128 0
 16459 46f1 00       		.byte	0
 16460 46f2 29       		.uleb128 0x29
 16461 46f3 A2030000 		.4byte	.LVL183
 16462 46f7 CB5E0000 		.4byte	0x5ecb
 16463 46fb 0C470000 		.4byte	0x470c
 16464 46ff 2A       		.uleb128 0x2a
 16465 4700 01       		.uleb128 0x1
 16466 4701 50       		.byte	0x50
 16467 4702 02       		.uleb128 0x2
 16468 4703 75       		.byte	0x75
 16469 4704 00       		.sleb128 0
 16470 4705 2A       		.uleb128 0x2a
 16471 4706 01       		.uleb128 0x1
 16472 4707 51       		.byte	0x51
ARM GAS  /tmp/cc4M9ACW.s 			page 290


 16473 4708 02       		.uleb128 0x2
 16474 4709 76       		.byte	0x76
 16475 470a 00       		.sleb128 0
 16476 470b 00       		.byte	0
 16477 470c 29       		.uleb128 0x29
 16478 470d AE030000 		.4byte	.LVL184
 16479 4711 CB5E0000 		.4byte	0x5ecb
 16480 4715 26470000 		.4byte	0x4726
 16481 4719 2A       		.uleb128 0x2a
 16482 471a 01       		.uleb128 0x1
 16483 471b 50       		.byte	0x50
 16484 471c 02       		.uleb128 0x2
 16485 471d 75       		.byte	0x75
 16486 471e 00       		.sleb128 0
 16487 471f 2A       		.uleb128 0x2a
 16488 4720 01       		.uleb128 0x1
 16489 4721 51       		.byte	0x51
 16490 4722 02       		.uleb128 0x2
 16491 4723 76       		.byte	0x76
 16492 4724 00       		.sleb128 0
 16493 4725 00       		.byte	0
 16494 4726 29       		.uleb128 0x29
 16495 4727 CA030000 		.4byte	.LVL185
 16496 472b CB5E0000 		.4byte	0x5ecb
 16497 472f 40470000 		.4byte	0x4740
 16498 4733 2A       		.uleb128 0x2a
 16499 4734 01       		.uleb128 0x1
 16500 4735 50       		.byte	0x50
 16501 4736 02       		.uleb128 0x2
 16502 4737 75       		.byte	0x75
 16503 4738 00       		.sleb128 0
 16504 4739 2A       		.uleb128 0x2a
 16505 473a 01       		.uleb128 0x1
 16506 473b 51       		.byte	0x51
 16507 473c 02       		.uleb128 0x2
 16508 473d 76       		.byte	0x76
 16509 473e 00       		.sleb128 0
 16510 473f 00       		.byte	0
 16511 4740 29       		.uleb128 0x29
 16512 4741 D6030000 		.4byte	.LVL186
 16513 4745 CB5E0000 		.4byte	0x5ecb
 16514 4749 5A470000 		.4byte	0x475a
 16515 474d 2A       		.uleb128 0x2a
 16516 474e 01       		.uleb128 0x1
 16517 474f 50       		.byte	0x50
 16518 4750 02       		.uleb128 0x2
 16519 4751 75       		.byte	0x75
 16520 4752 00       		.sleb128 0
 16521 4753 2A       		.uleb128 0x2a
 16522 4754 01       		.uleb128 0x1
 16523 4755 51       		.byte	0x51
 16524 4756 02       		.uleb128 0x2
 16525 4757 76       		.byte	0x76
 16526 4758 00       		.sleb128 0
 16527 4759 00       		.byte	0
 16528 475a 29       		.uleb128 0x29
 16529 475b E2030000 		.4byte	.LVL187
ARM GAS  /tmp/cc4M9ACW.s 			page 291


 16530 475f D65E0000 		.4byte	0x5ed6
 16531 4763 74470000 		.4byte	0x4774
 16532 4767 2A       		.uleb128 0x2a
 16533 4768 01       		.uleb128 0x1
 16534 4769 50       		.byte	0x50
 16535 476a 02       		.uleb128 0x2
 16536 476b 75       		.byte	0x75
 16537 476c 00       		.sleb128 0
 16538 476d 2A       		.uleb128 0x2a
 16539 476e 01       		.uleb128 0x1
 16540 476f 52       		.byte	0x52
 16541 4770 02       		.uleb128 0x2
 16542 4771 76       		.byte	0x76
 16543 4772 00       		.sleb128 0
 16544 4773 00       		.byte	0
 16545 4774 29       		.uleb128 0x29
 16546 4775 EE030000 		.4byte	.LVL188
 16547 4779 D65E0000 		.4byte	0x5ed6
 16548 477d 8E470000 		.4byte	0x478e
 16549 4781 2A       		.uleb128 0x2a
 16550 4782 01       		.uleb128 0x1
 16551 4783 50       		.byte	0x50
 16552 4784 02       		.uleb128 0x2
 16553 4785 75       		.byte	0x75
 16554 4786 00       		.sleb128 0
 16555 4787 2A       		.uleb128 0x2a
 16556 4788 01       		.uleb128 0x1
 16557 4789 52       		.byte	0x52
 16558 478a 02       		.uleb128 0x2
 16559 478b 76       		.byte	0x76
 16560 478c 00       		.sleb128 0
 16561 478d 00       		.byte	0
 16562 478e 29       		.uleb128 0x29
 16563 478f FA030000 		.4byte	.LVL189
 16564 4793 D65E0000 		.4byte	0x5ed6
 16565 4797 A8470000 		.4byte	0x47a8
 16566 479b 2A       		.uleb128 0x2a
 16567 479c 01       		.uleb128 0x1
 16568 479d 50       		.byte	0x50
 16569 479e 02       		.uleb128 0x2
 16570 479f 75       		.byte	0x75
 16571 47a0 00       		.sleb128 0
 16572 47a1 2A       		.uleb128 0x2a
 16573 47a2 01       		.uleb128 0x1
 16574 47a3 52       		.byte	0x52
 16575 47a4 02       		.uleb128 0x2
 16576 47a5 76       		.byte	0x76
 16577 47a6 00       		.sleb128 0
 16578 47a7 00       		.byte	0
 16579 47a8 29       		.uleb128 0x29
 16580 47a9 06040000 		.4byte	.LVL190
 16581 47ad D65E0000 		.4byte	0x5ed6
 16582 47b1 C2470000 		.4byte	0x47c2
 16583 47b5 2A       		.uleb128 0x2a
 16584 47b6 01       		.uleb128 0x1
 16585 47b7 50       		.byte	0x50
 16586 47b8 02       		.uleb128 0x2
ARM GAS  /tmp/cc4M9ACW.s 			page 292


 16587 47b9 75       		.byte	0x75
 16588 47ba 00       		.sleb128 0
 16589 47bb 2A       		.uleb128 0x2a
 16590 47bc 01       		.uleb128 0x1
 16591 47bd 52       		.byte	0x52
 16592 47be 02       		.uleb128 0x2
 16593 47bf 76       		.byte	0x76
 16594 47c0 00       		.sleb128 0
 16595 47c1 00       		.byte	0
 16596 47c2 29       		.uleb128 0x29
 16597 47c3 12040000 		.4byte	.LVL191
 16598 47c7 D65E0000 		.4byte	0x5ed6
 16599 47cb DC470000 		.4byte	0x47dc
 16600 47cf 2A       		.uleb128 0x2a
 16601 47d0 01       		.uleb128 0x1
 16602 47d1 50       		.byte	0x50
 16603 47d2 02       		.uleb128 0x2
 16604 47d3 75       		.byte	0x75
 16605 47d4 00       		.sleb128 0
 16606 47d5 2A       		.uleb128 0x2a
 16607 47d6 01       		.uleb128 0x1
 16608 47d7 52       		.byte	0x52
 16609 47d8 02       		.uleb128 0x2
 16610 47d9 76       		.byte	0x76
 16611 47da 00       		.sleb128 0
 16612 47db 00       		.byte	0
 16613 47dc 29       		.uleb128 0x29
 16614 47dd 1E040000 		.4byte	.LVL192
 16615 47e1 D65E0000 		.4byte	0x5ed6
 16616 47e5 F6470000 		.4byte	0x47f6
 16617 47e9 2A       		.uleb128 0x2a
 16618 47ea 01       		.uleb128 0x1
 16619 47eb 50       		.byte	0x50
 16620 47ec 02       		.uleb128 0x2
 16621 47ed 75       		.byte	0x75
 16622 47ee 00       		.sleb128 0
 16623 47ef 2A       		.uleb128 0x2a
 16624 47f0 01       		.uleb128 0x1
 16625 47f1 52       		.byte	0x52
 16626 47f2 02       		.uleb128 0x2
 16627 47f3 76       		.byte	0x76
 16628 47f4 00       		.sleb128 0
 16629 47f5 00       		.byte	0
 16630 47f6 29       		.uleb128 0x29
 16631 47f7 2E040000 		.4byte	.LVL193
 16632 47fb E15E0000 		.4byte	0x5ee1
 16633 47ff 18480000 		.4byte	0x4818
 16634 4803 2A       		.uleb128 0x2a
 16635 4804 01       		.uleb128 0x1
 16636 4805 50       		.byte	0x50
 16637 4806 02       		.uleb128 0x2
 16638 4807 75       		.byte	0x75
 16639 4808 00       		.sleb128 0
 16640 4809 2A       		.uleb128 0x2a
 16641 480a 02       		.uleb128 0x2
 16642 480b 90       		.byte	0x90
 16643 480c 41       		.uleb128 0x41
ARM GAS  /tmp/cc4M9ACW.s 			page 293


 16644 480d 03       		.uleb128 0x3
 16645 480e F5       		.byte	0xf5
 16646 480f 50       		.uleb128 0x50
 16647 4810 25       		.uleb128 0x25
 16648 4811 2A       		.uleb128 0x2a
 16649 4812 01       		.uleb128 0x1
 16650 4813 51       		.byte	0x51
 16651 4814 02       		.uleb128 0x2
 16652 4815 76       		.byte	0x76
 16653 4816 00       		.sleb128 0
 16654 4817 00       		.byte	0
 16655 4818 29       		.uleb128 0x29
 16656 4819 3E040000 		.4byte	.LVL194
 16657 481d E15E0000 		.4byte	0x5ee1
 16658 4821 3A480000 		.4byte	0x483a
 16659 4825 2A       		.uleb128 0x2a
 16660 4826 01       		.uleb128 0x1
 16661 4827 50       		.byte	0x50
 16662 4828 02       		.uleb128 0x2
 16663 4829 75       		.byte	0x75
 16664 482a 00       		.sleb128 0
 16665 482b 2A       		.uleb128 0x2a
 16666 482c 02       		.uleb128 0x2
 16667 482d 90       		.byte	0x90
 16668 482e 41       		.uleb128 0x41
 16669 482f 03       		.uleb128 0x3
 16670 4830 F5       		.byte	0xf5
 16671 4831 50       		.uleb128 0x50
 16672 4832 25       		.uleb128 0x25
 16673 4833 2A       		.uleb128 0x2a
 16674 4834 01       		.uleb128 0x1
 16675 4835 51       		.byte	0x51
 16676 4836 02       		.uleb128 0x2
 16677 4837 76       		.byte	0x76
 16678 4838 00       		.sleb128 0
 16679 4839 00       		.byte	0
 16680 483a 29       		.uleb128 0x29
 16681 483b 4E040000 		.4byte	.LVL195
 16682 483f E15E0000 		.4byte	0x5ee1
 16683 4843 5C480000 		.4byte	0x485c
 16684 4847 2A       		.uleb128 0x2a
 16685 4848 01       		.uleb128 0x1
 16686 4849 50       		.byte	0x50
 16687 484a 02       		.uleb128 0x2
 16688 484b 75       		.byte	0x75
 16689 484c 00       		.sleb128 0
 16690 484d 2A       		.uleb128 0x2a
 16691 484e 02       		.uleb128 0x2
 16692 484f 90       		.byte	0x90
 16693 4850 41       		.uleb128 0x41
 16694 4851 03       		.uleb128 0x3
 16695 4852 F5       		.byte	0xf5
 16696 4853 51       		.uleb128 0x51
 16697 4854 25       		.uleb128 0x25
 16698 4855 2A       		.uleb128 0x2a
 16699 4856 01       		.uleb128 0x1
 16700 4857 51       		.byte	0x51
ARM GAS  /tmp/cc4M9ACW.s 			page 294


 16701 4858 02       		.uleb128 0x2
 16702 4859 76       		.byte	0x76
 16703 485a 00       		.sleb128 0
 16704 485b 00       		.byte	0
 16705 485c 29       		.uleb128 0x29
 16706 485d 5E040000 		.4byte	.LVL196
 16707 4861 E15E0000 		.4byte	0x5ee1
 16708 4865 7E480000 		.4byte	0x487e
 16709 4869 2A       		.uleb128 0x2a
 16710 486a 01       		.uleb128 0x1
 16711 486b 50       		.byte	0x50
 16712 486c 02       		.uleb128 0x2
 16713 486d 75       		.byte	0x75
 16714 486e 00       		.sleb128 0
 16715 486f 2A       		.uleb128 0x2a
 16716 4870 02       		.uleb128 0x2
 16717 4871 90       		.byte	0x90
 16718 4872 41       		.uleb128 0x41
 16719 4873 03       		.uleb128 0x3
 16720 4874 F5       		.byte	0xf5
 16721 4875 50       		.uleb128 0x50
 16722 4876 25       		.uleb128 0x25
 16723 4877 2A       		.uleb128 0x2a
 16724 4878 01       		.uleb128 0x1
 16725 4879 51       		.byte	0x51
 16726 487a 02       		.uleb128 0x2
 16727 487b 76       		.byte	0x76
 16728 487c 00       		.sleb128 0
 16729 487d 00       		.byte	0
 16730 487e 29       		.uleb128 0x29
 16731 487f 6E040000 		.4byte	.LVL197
 16732 4883 E15E0000 		.4byte	0x5ee1
 16733 4887 A0480000 		.4byte	0x48a0
 16734 488b 2A       		.uleb128 0x2a
 16735 488c 01       		.uleb128 0x1
 16736 488d 50       		.byte	0x50
 16737 488e 02       		.uleb128 0x2
 16738 488f 75       		.byte	0x75
 16739 4890 00       		.sleb128 0
 16740 4891 2A       		.uleb128 0x2a
 16741 4892 02       		.uleb128 0x2
 16742 4893 90       		.byte	0x90
 16743 4894 41       		.uleb128 0x41
 16744 4895 03       		.uleb128 0x3
 16745 4896 F5       		.byte	0xf5
 16746 4897 50       		.uleb128 0x50
 16747 4898 25       		.uleb128 0x25
 16748 4899 2A       		.uleb128 0x2a
 16749 489a 01       		.uleb128 0x1
 16750 489b 51       		.byte	0x51
 16751 489c 02       		.uleb128 0x2
 16752 489d 76       		.byte	0x76
 16753 489e 00       		.sleb128 0
 16754 489f 00       		.byte	0
 16755 48a0 29       		.uleb128 0x29
 16756 48a1 7A040000 		.4byte	.LVL198
 16757 48a5 CB5E0000 		.4byte	0x5ecb
ARM GAS  /tmp/cc4M9ACW.s 			page 295


 16758 48a9 BA480000 		.4byte	0x48ba
 16759 48ad 2A       		.uleb128 0x2a
 16760 48ae 01       		.uleb128 0x1
 16761 48af 50       		.byte	0x50
 16762 48b0 02       		.uleb128 0x2
 16763 48b1 75       		.byte	0x75
 16764 48b2 00       		.sleb128 0
 16765 48b3 2A       		.uleb128 0x2a
 16766 48b4 01       		.uleb128 0x1
 16767 48b5 51       		.byte	0x51
 16768 48b6 02       		.uleb128 0x2
 16769 48b7 76       		.byte	0x76
 16770 48b8 00       		.sleb128 0
 16771 48b9 00       		.byte	0
 16772 48ba 29       		.uleb128 0x29
 16773 48bb 8A040000 		.4byte	.LVL199
 16774 48bf E15E0000 		.4byte	0x5ee1
 16775 48c3 DC480000 		.4byte	0x48dc
 16776 48c7 2A       		.uleb128 0x2a
 16777 48c8 01       		.uleb128 0x1
 16778 48c9 50       		.byte	0x50
 16779 48ca 02       		.uleb128 0x2
 16780 48cb 75       		.byte	0x75
 16781 48cc 00       		.sleb128 0
 16782 48cd 2A       		.uleb128 0x2a
 16783 48ce 02       		.uleb128 0x2
 16784 48cf 90       		.byte	0x90
 16785 48d0 41       		.uleb128 0x41
 16786 48d1 03       		.uleb128 0x3
 16787 48d2 F5       		.byte	0xf5
 16788 48d3 50       		.uleb128 0x50
 16789 48d4 25       		.uleb128 0x25
 16790 48d5 2A       		.uleb128 0x2a
 16791 48d6 01       		.uleb128 0x1
 16792 48d7 51       		.byte	0x51
 16793 48d8 02       		.uleb128 0x2
 16794 48d9 76       		.byte	0x76
 16795 48da 00       		.sleb128 0
 16796 48db 00       		.byte	0
 16797 48dc 29       		.uleb128 0x29
 16798 48dd 9A040000 		.4byte	.LVL200
 16799 48e1 E15E0000 		.4byte	0x5ee1
 16800 48e5 FE480000 		.4byte	0x48fe
 16801 48e9 2A       		.uleb128 0x2a
 16802 48ea 01       		.uleb128 0x1
 16803 48eb 50       		.byte	0x50
 16804 48ec 02       		.uleb128 0x2
 16805 48ed 75       		.byte	0x75
 16806 48ee 00       		.sleb128 0
 16807 48ef 2A       		.uleb128 0x2a
 16808 48f0 02       		.uleb128 0x2
 16809 48f1 90       		.byte	0x90
 16810 48f2 41       		.uleb128 0x41
 16811 48f3 03       		.uleb128 0x3
 16812 48f4 F5       		.byte	0xf5
 16813 48f5 50       		.uleb128 0x50
 16814 48f6 25       		.uleb128 0x25
ARM GAS  /tmp/cc4M9ACW.s 			page 296


 16815 48f7 2A       		.uleb128 0x2a
 16816 48f8 01       		.uleb128 0x1
 16817 48f9 51       		.byte	0x51
 16818 48fa 02       		.uleb128 0x2
 16819 48fb 76       		.byte	0x76
 16820 48fc 00       		.sleb128 0
 16821 48fd 00       		.byte	0
 16822 48fe 29       		.uleb128 0x29
 16823 48ff A6040000 		.4byte	.LVL201
 16824 4903 CB5E0000 		.4byte	0x5ecb
 16825 4907 18490000 		.4byte	0x4918
 16826 490b 2A       		.uleb128 0x2a
 16827 490c 01       		.uleb128 0x1
 16828 490d 50       		.byte	0x50
 16829 490e 02       		.uleb128 0x2
 16830 490f 75       		.byte	0x75
 16831 4910 00       		.sleb128 0
 16832 4911 2A       		.uleb128 0x2a
 16833 4912 01       		.uleb128 0x1
 16834 4913 51       		.byte	0x51
 16835 4914 02       		.uleb128 0x2
 16836 4915 76       		.byte	0x76
 16837 4916 00       		.sleb128 0
 16838 4917 00       		.byte	0
 16839 4918 29       		.uleb128 0x29
 16840 4919 B6040000 		.4byte	.LVL202
 16841 491d E15E0000 		.4byte	0x5ee1
 16842 4921 3A490000 		.4byte	0x493a
 16843 4925 2A       		.uleb128 0x2a
 16844 4926 01       		.uleb128 0x1
 16845 4927 50       		.byte	0x50
 16846 4928 02       		.uleb128 0x2
 16847 4929 75       		.byte	0x75
 16848 492a 00       		.sleb128 0
 16849 492b 2A       		.uleb128 0x2a
 16850 492c 02       		.uleb128 0x2
 16851 492d 90       		.byte	0x90
 16852 492e 41       		.uleb128 0x41
 16853 492f 03       		.uleb128 0x3
 16854 4930 F5       		.byte	0xf5
 16855 4931 50       		.uleb128 0x50
 16856 4932 25       		.uleb128 0x25
 16857 4933 2A       		.uleb128 0x2a
 16858 4934 01       		.uleb128 0x1
 16859 4935 51       		.byte	0x51
 16860 4936 02       		.uleb128 0x2
 16861 4937 76       		.byte	0x76
 16862 4938 00       		.sleb128 0
 16863 4939 00       		.byte	0
 16864 493a 29       		.uleb128 0x29
 16865 493b C2040000 		.4byte	.LVL203
 16866 493f CB5E0000 		.4byte	0x5ecb
 16867 4943 54490000 		.4byte	0x4954
 16868 4947 2A       		.uleb128 0x2a
 16869 4948 01       		.uleb128 0x1
 16870 4949 50       		.byte	0x50
 16871 494a 02       		.uleb128 0x2
ARM GAS  /tmp/cc4M9ACW.s 			page 297


 16872 494b 75       		.byte	0x75
 16873 494c 00       		.sleb128 0
 16874 494d 2A       		.uleb128 0x2a
 16875 494e 01       		.uleb128 0x1
 16876 494f 51       		.byte	0x51
 16877 4950 02       		.uleb128 0x2
 16878 4951 76       		.byte	0x76
 16879 4952 00       		.sleb128 0
 16880 4953 00       		.byte	0
 16881 4954 29       		.uleb128 0x29
 16882 4955 CE040000 		.4byte	.LVL204
 16883 4959 D65E0000 		.4byte	0x5ed6
 16884 495d 6E490000 		.4byte	0x496e
 16885 4961 2A       		.uleb128 0x2a
 16886 4962 01       		.uleb128 0x1
 16887 4963 50       		.byte	0x50
 16888 4964 02       		.uleb128 0x2
 16889 4965 75       		.byte	0x75
 16890 4966 00       		.sleb128 0
 16891 4967 2A       		.uleb128 0x2a
 16892 4968 01       		.uleb128 0x1
 16893 4969 52       		.byte	0x52
 16894 496a 02       		.uleb128 0x2
 16895 496b 76       		.byte	0x76
 16896 496c 00       		.sleb128 0
 16897 496d 00       		.byte	0
 16898 496e 29       		.uleb128 0x29
 16899 496f DA040000 		.4byte	.LVL205
 16900 4973 CB5E0000 		.4byte	0x5ecb
 16901 4977 88490000 		.4byte	0x4988
 16902 497b 2A       		.uleb128 0x2a
 16903 497c 01       		.uleb128 0x1
 16904 497d 50       		.byte	0x50
 16905 497e 02       		.uleb128 0x2
 16906 497f 75       		.byte	0x75
 16907 4980 00       		.sleb128 0
 16908 4981 2A       		.uleb128 0x2a
 16909 4982 01       		.uleb128 0x1
 16910 4983 51       		.byte	0x51
 16911 4984 02       		.uleb128 0x2
 16912 4985 76       		.byte	0x76
 16913 4986 00       		.sleb128 0
 16914 4987 00       		.byte	0
 16915 4988 29       		.uleb128 0x29
 16916 4989 E6040000 		.4byte	.LVL206
 16917 498d CB5E0000 		.4byte	0x5ecb
 16918 4991 A2490000 		.4byte	0x49a2
 16919 4995 2A       		.uleb128 0x2a
 16920 4996 01       		.uleb128 0x1
 16921 4997 50       		.byte	0x50
 16922 4998 02       		.uleb128 0x2
 16923 4999 75       		.byte	0x75
 16924 499a 00       		.sleb128 0
 16925 499b 2A       		.uleb128 0x2a
 16926 499c 01       		.uleb128 0x1
 16927 499d 51       		.byte	0x51
 16928 499e 02       		.uleb128 0x2
ARM GAS  /tmp/cc4M9ACW.s 			page 298


 16929 499f 76       		.byte	0x76
 16930 49a0 00       		.sleb128 0
 16931 49a1 00       		.byte	0
 16932 49a2 29       		.uleb128 0x29
 16933 49a3 F6040000 		.4byte	.LVL207
 16934 49a7 E15E0000 		.4byte	0x5ee1
 16935 49ab C4490000 		.4byte	0x49c4
 16936 49af 2A       		.uleb128 0x2a
 16937 49b0 01       		.uleb128 0x1
 16938 49b1 50       		.byte	0x50
 16939 49b2 02       		.uleb128 0x2
 16940 49b3 75       		.byte	0x75
 16941 49b4 00       		.sleb128 0
 16942 49b5 2A       		.uleb128 0x2a
 16943 49b6 02       		.uleb128 0x2
 16944 49b7 90       		.byte	0x90
 16945 49b8 41       		.uleb128 0x41
 16946 49b9 03       		.uleb128 0x3
 16947 49ba F5       		.byte	0xf5
 16948 49bb 50       		.uleb128 0x50
 16949 49bc 25       		.uleb128 0x25
 16950 49bd 2A       		.uleb128 0x2a
 16951 49be 01       		.uleb128 0x1
 16952 49bf 51       		.byte	0x51
 16953 49c0 02       		.uleb128 0x2
 16954 49c1 76       		.byte	0x76
 16955 49c2 00       		.sleb128 0
 16956 49c3 00       		.byte	0
 16957 49c4 29       		.uleb128 0x29
 16958 49c5 02050000 		.4byte	.LVL208
 16959 49c9 CB5E0000 		.4byte	0x5ecb
 16960 49cd DE490000 		.4byte	0x49de
 16961 49d1 2A       		.uleb128 0x2a
 16962 49d2 01       		.uleb128 0x1
 16963 49d3 50       		.byte	0x50
 16964 49d4 02       		.uleb128 0x2
 16965 49d5 75       		.byte	0x75
 16966 49d6 00       		.sleb128 0
 16967 49d7 2A       		.uleb128 0x2a
 16968 49d8 01       		.uleb128 0x1
 16969 49d9 51       		.byte	0x51
 16970 49da 02       		.uleb128 0x2
 16971 49db 76       		.byte	0x76
 16972 49dc 00       		.sleb128 0
 16973 49dd 00       		.byte	0
 16974 49de 29       		.uleb128 0x29
 16975 49df 0E050000 		.4byte	.LVL209
 16976 49e3 CB5E0000 		.4byte	0x5ecb
 16977 49e7 F8490000 		.4byte	0x49f8
 16978 49eb 2A       		.uleb128 0x2a
 16979 49ec 01       		.uleb128 0x1
 16980 49ed 50       		.byte	0x50
 16981 49ee 02       		.uleb128 0x2
 16982 49ef 75       		.byte	0x75
 16983 49f0 00       		.sleb128 0
 16984 49f1 2A       		.uleb128 0x2a
 16985 49f2 01       		.uleb128 0x1
ARM GAS  /tmp/cc4M9ACW.s 			page 299


 16986 49f3 51       		.byte	0x51
 16987 49f4 02       		.uleb128 0x2
 16988 49f5 76       		.byte	0x76
 16989 49f6 00       		.sleb128 0
 16990 49f7 00       		.byte	0
 16991 49f8 29       		.uleb128 0x29
 16992 49f9 1A050000 		.4byte	.LVL210
 16993 49fd CB5E0000 		.4byte	0x5ecb
 16994 4a01 124A0000 		.4byte	0x4a12
 16995 4a05 2A       		.uleb128 0x2a
 16996 4a06 01       		.uleb128 0x1
 16997 4a07 50       		.byte	0x50
 16998 4a08 02       		.uleb128 0x2
 16999 4a09 75       		.byte	0x75
 17000 4a0a 00       		.sleb128 0
 17001 4a0b 2A       		.uleb128 0x2a
 17002 4a0c 01       		.uleb128 0x1
 17003 4a0d 51       		.byte	0x51
 17004 4a0e 02       		.uleb128 0x2
 17005 4a0f 76       		.byte	0x76
 17006 4a10 00       		.sleb128 0
 17007 4a11 00       		.byte	0
 17008 4a12 29       		.uleb128 0x29
 17009 4a13 26050000 		.4byte	.LVL211
 17010 4a17 CB5E0000 		.4byte	0x5ecb
 17011 4a1b 2C4A0000 		.4byte	0x4a2c
 17012 4a1f 2A       		.uleb128 0x2a
 17013 4a20 01       		.uleb128 0x1
 17014 4a21 50       		.byte	0x50
 17015 4a22 02       		.uleb128 0x2
 17016 4a23 75       		.byte	0x75
 17017 4a24 00       		.sleb128 0
 17018 4a25 2A       		.uleb128 0x2a
 17019 4a26 01       		.uleb128 0x1
 17020 4a27 51       		.byte	0x51
 17021 4a28 02       		.uleb128 0x2
 17022 4a29 76       		.byte	0x76
 17023 4a2a 00       		.sleb128 0
 17024 4a2b 00       		.byte	0
 17025 4a2c 29       		.uleb128 0x29
 17026 4a2d 3E050000 		.4byte	.LVL212
 17027 4a31 CB5E0000 		.4byte	0x5ecb
 17028 4a35 464A0000 		.4byte	0x4a46
 17029 4a39 2A       		.uleb128 0x2a
 17030 4a3a 01       		.uleb128 0x1
 17031 4a3b 50       		.byte	0x50
 17032 4a3c 02       		.uleb128 0x2
 17033 4a3d 75       		.byte	0x75
 17034 4a3e 00       		.sleb128 0
 17035 4a3f 2A       		.uleb128 0x2a
 17036 4a40 01       		.uleb128 0x1
 17037 4a41 51       		.byte	0x51
 17038 4a42 02       		.uleb128 0x2
 17039 4a43 76       		.byte	0x76
 17040 4a44 00       		.sleb128 0
 17041 4a45 00       		.byte	0
 17042 4a46 29       		.uleb128 0x29
ARM GAS  /tmp/cc4M9ACW.s 			page 300


 17043 4a47 4A050000 		.4byte	.LVL213
 17044 4a4b CB5E0000 		.4byte	0x5ecb
 17045 4a4f 604A0000 		.4byte	0x4a60
 17046 4a53 2A       		.uleb128 0x2a
 17047 4a54 01       		.uleb128 0x1
 17048 4a55 50       		.byte	0x50
 17049 4a56 02       		.uleb128 0x2
 17050 4a57 75       		.byte	0x75
 17051 4a58 00       		.sleb128 0
 17052 4a59 2A       		.uleb128 0x2a
 17053 4a5a 01       		.uleb128 0x1
 17054 4a5b 51       		.byte	0x51
 17055 4a5c 02       		.uleb128 0x2
 17056 4a5d 76       		.byte	0x76
 17057 4a5e 00       		.sleb128 0
 17058 4a5f 00       		.byte	0
 17059 4a60 29       		.uleb128 0x29
 17060 4a61 56050000 		.4byte	.LVL214
 17061 4a65 CB5E0000 		.4byte	0x5ecb
 17062 4a69 7A4A0000 		.4byte	0x4a7a
 17063 4a6d 2A       		.uleb128 0x2a
 17064 4a6e 01       		.uleb128 0x1
 17065 4a6f 50       		.byte	0x50
 17066 4a70 02       		.uleb128 0x2
 17067 4a71 75       		.byte	0x75
 17068 4a72 00       		.sleb128 0
 17069 4a73 2A       		.uleb128 0x2a
 17070 4a74 01       		.uleb128 0x1
 17071 4a75 51       		.byte	0x51
 17072 4a76 02       		.uleb128 0x2
 17073 4a77 76       		.byte	0x76
 17074 4a78 00       		.sleb128 0
 17075 4a79 00       		.byte	0
 17076 4a7a 29       		.uleb128 0x29
 17077 4a7b 62050000 		.4byte	.LVL215
 17078 4a7f CB5E0000 		.4byte	0x5ecb
 17079 4a83 944A0000 		.4byte	0x4a94
 17080 4a87 2A       		.uleb128 0x2a
 17081 4a88 01       		.uleb128 0x1
 17082 4a89 50       		.byte	0x50
 17083 4a8a 02       		.uleb128 0x2
 17084 4a8b 75       		.byte	0x75
 17085 4a8c 00       		.sleb128 0
 17086 4a8d 2A       		.uleb128 0x2a
 17087 4a8e 01       		.uleb128 0x1
 17088 4a8f 51       		.byte	0x51
 17089 4a90 02       		.uleb128 0x2
 17090 4a91 76       		.byte	0x76
 17091 4a92 00       		.sleb128 0
 17092 4a93 00       		.byte	0
 17093 4a94 29       		.uleb128 0x29
 17094 4a95 6E050000 		.4byte	.LVL216
 17095 4a99 CB5E0000 		.4byte	0x5ecb
 17096 4a9d AE4A0000 		.4byte	0x4aae
 17097 4aa1 2A       		.uleb128 0x2a
 17098 4aa2 01       		.uleb128 0x1
 17099 4aa3 50       		.byte	0x50
ARM GAS  /tmp/cc4M9ACW.s 			page 301


 17100 4aa4 02       		.uleb128 0x2
 17101 4aa5 75       		.byte	0x75
 17102 4aa6 00       		.sleb128 0
 17103 4aa7 2A       		.uleb128 0x2a
 17104 4aa8 01       		.uleb128 0x1
 17105 4aa9 51       		.byte	0x51
 17106 4aaa 02       		.uleb128 0x2
 17107 4aab 76       		.byte	0x76
 17108 4aac 00       		.sleb128 0
 17109 4aad 00       		.byte	0
 17110 4aae 29       		.uleb128 0x29
 17111 4aaf 7A050000 		.4byte	.LVL217
 17112 4ab3 CB5E0000 		.4byte	0x5ecb
 17113 4ab7 C84A0000 		.4byte	0x4ac8
 17114 4abb 2A       		.uleb128 0x2a
 17115 4abc 01       		.uleb128 0x1
 17116 4abd 50       		.byte	0x50
 17117 4abe 02       		.uleb128 0x2
 17118 4abf 75       		.byte	0x75
 17119 4ac0 00       		.sleb128 0
 17120 4ac1 2A       		.uleb128 0x2a
 17121 4ac2 01       		.uleb128 0x1
 17122 4ac3 51       		.byte	0x51
 17123 4ac4 02       		.uleb128 0x2
 17124 4ac5 76       		.byte	0x76
 17125 4ac6 00       		.sleb128 0
 17126 4ac7 00       		.byte	0
 17127 4ac8 29       		.uleb128 0x29
 17128 4ac9 86050000 		.4byte	.LVL218
 17129 4acd D65E0000 		.4byte	0x5ed6
 17130 4ad1 E24A0000 		.4byte	0x4ae2
 17131 4ad5 2A       		.uleb128 0x2a
 17132 4ad6 01       		.uleb128 0x1
 17133 4ad7 50       		.byte	0x50
 17134 4ad8 02       		.uleb128 0x2
 17135 4ad9 75       		.byte	0x75
 17136 4ada 00       		.sleb128 0
 17137 4adb 2A       		.uleb128 0x2a
 17138 4adc 01       		.uleb128 0x1
 17139 4add 52       		.byte	0x52
 17140 4ade 02       		.uleb128 0x2
 17141 4adf 76       		.byte	0x76
 17142 4ae0 00       		.sleb128 0
 17143 4ae1 00       		.byte	0
 17144 4ae2 29       		.uleb128 0x29
 17145 4ae3 92050000 		.4byte	.LVL219
 17146 4ae7 CB5E0000 		.4byte	0x5ecb
 17147 4aeb FC4A0000 		.4byte	0x4afc
 17148 4aef 2A       		.uleb128 0x2a
 17149 4af0 01       		.uleb128 0x1
 17150 4af1 50       		.byte	0x50
 17151 4af2 02       		.uleb128 0x2
 17152 4af3 75       		.byte	0x75
 17153 4af4 00       		.sleb128 0
 17154 4af5 2A       		.uleb128 0x2a
 17155 4af6 01       		.uleb128 0x1
 17156 4af7 51       		.byte	0x51
ARM GAS  /tmp/cc4M9ACW.s 			page 302


 17157 4af8 02       		.uleb128 0x2
 17158 4af9 76       		.byte	0x76
 17159 4afa 00       		.sleb128 0
 17160 4afb 00       		.byte	0
 17161 4afc 29       		.uleb128 0x29
 17162 4afd 9E050000 		.4byte	.LVL220
 17163 4b01 D65E0000 		.4byte	0x5ed6
 17164 4b05 164B0000 		.4byte	0x4b16
 17165 4b09 2A       		.uleb128 0x2a
 17166 4b0a 01       		.uleb128 0x1
 17167 4b0b 50       		.byte	0x50
 17168 4b0c 02       		.uleb128 0x2
 17169 4b0d 75       		.byte	0x75
 17170 4b0e 00       		.sleb128 0
 17171 4b0f 2A       		.uleb128 0x2a
 17172 4b10 01       		.uleb128 0x1
 17173 4b11 52       		.byte	0x52
 17174 4b12 02       		.uleb128 0x2
 17175 4b13 76       		.byte	0x76
 17176 4b14 00       		.sleb128 0
 17177 4b15 00       		.byte	0
 17178 4b16 29       		.uleb128 0x29
 17179 4b17 AA050000 		.4byte	.LVL221
 17180 4b1b D65E0000 		.4byte	0x5ed6
 17181 4b1f 304B0000 		.4byte	0x4b30
 17182 4b23 2A       		.uleb128 0x2a
 17183 4b24 01       		.uleb128 0x1
 17184 4b25 50       		.byte	0x50
 17185 4b26 02       		.uleb128 0x2
 17186 4b27 75       		.byte	0x75
 17187 4b28 00       		.sleb128 0
 17188 4b29 2A       		.uleb128 0x2a
 17189 4b2a 01       		.uleb128 0x1
 17190 4b2b 52       		.byte	0x52
 17191 4b2c 02       		.uleb128 0x2
 17192 4b2d 76       		.byte	0x76
 17193 4b2e 00       		.sleb128 0
 17194 4b2f 00       		.byte	0
 17195 4b30 29       		.uleb128 0x29
 17196 4b31 B6050000 		.4byte	.LVL222
 17197 4b35 CB5E0000 		.4byte	0x5ecb
 17198 4b39 4A4B0000 		.4byte	0x4b4a
 17199 4b3d 2A       		.uleb128 0x2a
 17200 4b3e 01       		.uleb128 0x1
 17201 4b3f 50       		.byte	0x50
 17202 4b40 02       		.uleb128 0x2
 17203 4b41 75       		.byte	0x75
 17204 4b42 00       		.sleb128 0
 17205 4b43 2A       		.uleb128 0x2a
 17206 4b44 01       		.uleb128 0x1
 17207 4b45 51       		.byte	0x51
 17208 4b46 02       		.uleb128 0x2
 17209 4b47 76       		.byte	0x76
 17210 4b48 00       		.sleb128 0
 17211 4b49 00       		.byte	0
 17212 4b4a 29       		.uleb128 0x29
 17213 4b4b C2050000 		.4byte	.LVL223
ARM GAS  /tmp/cc4M9ACW.s 			page 303


 17214 4b4f CB5E0000 		.4byte	0x5ecb
 17215 4b53 644B0000 		.4byte	0x4b64
 17216 4b57 2A       		.uleb128 0x2a
 17217 4b58 01       		.uleb128 0x1
 17218 4b59 50       		.byte	0x50
 17219 4b5a 02       		.uleb128 0x2
 17220 4b5b 75       		.byte	0x75
 17221 4b5c 00       		.sleb128 0
 17222 4b5d 2A       		.uleb128 0x2a
 17223 4b5e 01       		.uleb128 0x1
 17224 4b5f 51       		.byte	0x51
 17225 4b60 02       		.uleb128 0x2
 17226 4b61 76       		.byte	0x76
 17227 4b62 00       		.sleb128 0
 17228 4b63 00       		.byte	0
 17229 4b64 29       		.uleb128 0x29
 17230 4b65 CE050000 		.4byte	.LVL224
 17231 4b69 CB5E0000 		.4byte	0x5ecb
 17232 4b6d 7E4B0000 		.4byte	0x4b7e
 17233 4b71 2A       		.uleb128 0x2a
 17234 4b72 01       		.uleb128 0x1
 17235 4b73 50       		.byte	0x50
 17236 4b74 02       		.uleb128 0x2
 17237 4b75 75       		.byte	0x75
 17238 4b76 00       		.sleb128 0
 17239 4b77 2A       		.uleb128 0x2a
 17240 4b78 01       		.uleb128 0x1
 17241 4b79 51       		.byte	0x51
 17242 4b7a 02       		.uleb128 0x2
 17243 4b7b 76       		.byte	0x76
 17244 4b7c 00       		.sleb128 0
 17245 4b7d 00       		.byte	0
 17246 4b7e 29       		.uleb128 0x29
 17247 4b7f DA050000 		.4byte	.LVL225
 17248 4b83 CB5E0000 		.4byte	0x5ecb
 17249 4b87 984B0000 		.4byte	0x4b98
 17250 4b8b 2A       		.uleb128 0x2a
 17251 4b8c 01       		.uleb128 0x1
 17252 4b8d 50       		.byte	0x50
 17253 4b8e 02       		.uleb128 0x2
 17254 4b8f 75       		.byte	0x75
 17255 4b90 00       		.sleb128 0
 17256 4b91 2A       		.uleb128 0x2a
 17257 4b92 01       		.uleb128 0x1
 17258 4b93 51       		.byte	0x51
 17259 4b94 02       		.uleb128 0x2
 17260 4b95 76       		.byte	0x76
 17261 4b96 00       		.sleb128 0
 17262 4b97 00       		.byte	0
 17263 4b98 29       		.uleb128 0x29
 17264 4b99 E6050000 		.4byte	.LVL226
 17265 4b9d CB5E0000 		.4byte	0x5ecb
 17266 4ba1 B24B0000 		.4byte	0x4bb2
 17267 4ba5 2A       		.uleb128 0x2a
 17268 4ba6 01       		.uleb128 0x1
 17269 4ba7 50       		.byte	0x50
 17270 4ba8 02       		.uleb128 0x2
ARM GAS  /tmp/cc4M9ACW.s 			page 304


 17271 4ba9 75       		.byte	0x75
 17272 4baa 00       		.sleb128 0
 17273 4bab 2A       		.uleb128 0x2a
 17274 4bac 01       		.uleb128 0x1
 17275 4bad 51       		.byte	0x51
 17276 4bae 02       		.uleb128 0x2
 17277 4baf 76       		.byte	0x76
 17278 4bb0 00       		.sleb128 0
 17279 4bb1 00       		.byte	0
 17280 4bb2 29       		.uleb128 0x29
 17281 4bb3 F2050000 		.4byte	.LVL227
 17282 4bb7 CB5E0000 		.4byte	0x5ecb
 17283 4bbb CC4B0000 		.4byte	0x4bcc
 17284 4bbf 2A       		.uleb128 0x2a
 17285 4bc0 01       		.uleb128 0x1
 17286 4bc1 50       		.byte	0x50
 17287 4bc2 02       		.uleb128 0x2
 17288 4bc3 75       		.byte	0x75
 17289 4bc4 00       		.sleb128 0
 17290 4bc5 2A       		.uleb128 0x2a
 17291 4bc6 01       		.uleb128 0x1
 17292 4bc7 51       		.byte	0x51
 17293 4bc8 02       		.uleb128 0x2
 17294 4bc9 76       		.byte	0x76
 17295 4bca 00       		.sleb128 0
 17296 4bcb 00       		.byte	0
 17297 4bcc 29       		.uleb128 0x29
 17298 4bcd FE050000 		.4byte	.LVL228
 17299 4bd1 CB5E0000 		.4byte	0x5ecb
 17300 4bd5 E64B0000 		.4byte	0x4be6
 17301 4bd9 2A       		.uleb128 0x2a
 17302 4bda 01       		.uleb128 0x1
 17303 4bdb 50       		.byte	0x50
 17304 4bdc 02       		.uleb128 0x2
 17305 4bdd 75       		.byte	0x75
 17306 4bde 00       		.sleb128 0
 17307 4bdf 2A       		.uleb128 0x2a
 17308 4be0 01       		.uleb128 0x1
 17309 4be1 51       		.byte	0x51
 17310 4be2 02       		.uleb128 0x2
 17311 4be3 76       		.byte	0x76
 17312 4be4 00       		.sleb128 0
 17313 4be5 00       		.byte	0
 17314 4be6 29       		.uleb128 0x29
 17315 4be7 0A060000 		.4byte	.LVL229
 17316 4beb CB5E0000 		.4byte	0x5ecb
 17317 4bef 004C0000 		.4byte	0x4c00
 17318 4bf3 2A       		.uleb128 0x2a
 17319 4bf4 01       		.uleb128 0x1
 17320 4bf5 50       		.byte	0x50
 17321 4bf6 02       		.uleb128 0x2
 17322 4bf7 75       		.byte	0x75
 17323 4bf8 00       		.sleb128 0
 17324 4bf9 2A       		.uleb128 0x2a
 17325 4bfa 01       		.uleb128 0x1
 17326 4bfb 51       		.byte	0x51
 17327 4bfc 02       		.uleb128 0x2
ARM GAS  /tmp/cc4M9ACW.s 			page 305


 17328 4bfd 76       		.byte	0x76
 17329 4bfe 00       		.sleb128 0
 17330 4bff 00       		.byte	0
 17331 4c00 29       		.uleb128 0x29
 17332 4c01 16060000 		.4byte	.LVL230
 17333 4c05 CB5E0000 		.4byte	0x5ecb
 17334 4c09 1A4C0000 		.4byte	0x4c1a
 17335 4c0d 2A       		.uleb128 0x2a
 17336 4c0e 01       		.uleb128 0x1
 17337 4c0f 50       		.byte	0x50
 17338 4c10 02       		.uleb128 0x2
 17339 4c11 75       		.byte	0x75
 17340 4c12 00       		.sleb128 0
 17341 4c13 2A       		.uleb128 0x2a
 17342 4c14 01       		.uleb128 0x1
 17343 4c15 51       		.byte	0x51
 17344 4c16 02       		.uleb128 0x2
 17345 4c17 76       		.byte	0x76
 17346 4c18 00       		.sleb128 0
 17347 4c19 00       		.byte	0
 17348 4c1a 29       		.uleb128 0x29
 17349 4c1b 22060000 		.4byte	.LVL231
 17350 4c1f CB5E0000 		.4byte	0x5ecb
 17351 4c23 344C0000 		.4byte	0x4c34
 17352 4c27 2A       		.uleb128 0x2a
 17353 4c28 01       		.uleb128 0x1
 17354 4c29 50       		.byte	0x50
 17355 4c2a 02       		.uleb128 0x2
 17356 4c2b 75       		.byte	0x75
 17357 4c2c 00       		.sleb128 0
 17358 4c2d 2A       		.uleb128 0x2a
 17359 4c2e 01       		.uleb128 0x1
 17360 4c2f 51       		.byte	0x51
 17361 4c30 02       		.uleb128 0x2
 17362 4c31 76       		.byte	0x76
 17363 4c32 00       		.sleb128 0
 17364 4c33 00       		.byte	0
 17365 4c34 29       		.uleb128 0x29
 17366 4c35 2E060000 		.4byte	.LVL232
 17367 4c39 CB5E0000 		.4byte	0x5ecb
 17368 4c3d 4E4C0000 		.4byte	0x4c4e
 17369 4c41 2A       		.uleb128 0x2a
 17370 4c42 01       		.uleb128 0x1
 17371 4c43 50       		.byte	0x50
 17372 4c44 02       		.uleb128 0x2
 17373 4c45 75       		.byte	0x75
 17374 4c46 00       		.sleb128 0
 17375 4c47 2A       		.uleb128 0x2a
 17376 4c48 01       		.uleb128 0x1
 17377 4c49 51       		.byte	0x51
 17378 4c4a 02       		.uleb128 0x2
 17379 4c4b 76       		.byte	0x76
 17380 4c4c 00       		.sleb128 0
 17381 4c4d 00       		.byte	0
 17382 4c4e 29       		.uleb128 0x29
 17383 4c4f 3A060000 		.4byte	.LVL233
 17384 4c53 CB5E0000 		.4byte	0x5ecb
ARM GAS  /tmp/cc4M9ACW.s 			page 306


 17385 4c57 684C0000 		.4byte	0x4c68
 17386 4c5b 2A       		.uleb128 0x2a
 17387 4c5c 01       		.uleb128 0x1
 17388 4c5d 50       		.byte	0x50
 17389 4c5e 02       		.uleb128 0x2
 17390 4c5f 75       		.byte	0x75
 17391 4c60 00       		.sleb128 0
 17392 4c61 2A       		.uleb128 0x2a
 17393 4c62 01       		.uleb128 0x1
 17394 4c63 51       		.byte	0x51
 17395 4c64 02       		.uleb128 0x2
 17396 4c65 76       		.byte	0x76
 17397 4c66 00       		.sleb128 0
 17398 4c67 00       		.byte	0
 17399 4c68 29       		.uleb128 0x29
 17400 4c69 46060000 		.4byte	.LVL234
 17401 4c6d CB5E0000 		.4byte	0x5ecb
 17402 4c71 824C0000 		.4byte	0x4c82
 17403 4c75 2A       		.uleb128 0x2a
 17404 4c76 01       		.uleb128 0x1
 17405 4c77 50       		.byte	0x50
 17406 4c78 02       		.uleb128 0x2
 17407 4c79 75       		.byte	0x75
 17408 4c7a 00       		.sleb128 0
 17409 4c7b 2A       		.uleb128 0x2a
 17410 4c7c 01       		.uleb128 0x1
 17411 4c7d 51       		.byte	0x51
 17412 4c7e 02       		.uleb128 0x2
 17413 4c7f 76       		.byte	0x76
 17414 4c80 00       		.sleb128 0
 17415 4c81 00       		.byte	0
 17416 4c82 29       		.uleb128 0x29
 17417 4c83 52060000 		.4byte	.LVL235
 17418 4c87 CB5E0000 		.4byte	0x5ecb
 17419 4c8b 9C4C0000 		.4byte	0x4c9c
 17420 4c8f 2A       		.uleb128 0x2a
 17421 4c90 01       		.uleb128 0x1
 17422 4c91 50       		.byte	0x50
 17423 4c92 02       		.uleb128 0x2
 17424 4c93 75       		.byte	0x75
 17425 4c94 00       		.sleb128 0
 17426 4c95 2A       		.uleb128 0x2a
 17427 4c96 01       		.uleb128 0x1
 17428 4c97 51       		.byte	0x51
 17429 4c98 02       		.uleb128 0x2
 17430 4c99 76       		.byte	0x76
 17431 4c9a 00       		.sleb128 0
 17432 4c9b 00       		.byte	0
 17433 4c9c 29       		.uleb128 0x29
 17434 4c9d 5E060000 		.4byte	.LVL236
 17435 4ca1 D65E0000 		.4byte	0x5ed6
 17436 4ca5 B64C0000 		.4byte	0x4cb6
 17437 4ca9 2A       		.uleb128 0x2a
 17438 4caa 01       		.uleb128 0x1
 17439 4cab 50       		.byte	0x50
 17440 4cac 02       		.uleb128 0x2
 17441 4cad 75       		.byte	0x75
ARM GAS  /tmp/cc4M9ACW.s 			page 307


 17442 4cae 00       		.sleb128 0
 17443 4caf 2A       		.uleb128 0x2a
 17444 4cb0 01       		.uleb128 0x1
 17445 4cb1 52       		.byte	0x52
 17446 4cb2 02       		.uleb128 0x2
 17447 4cb3 76       		.byte	0x76
 17448 4cb4 00       		.sleb128 0
 17449 4cb5 00       		.byte	0
 17450 4cb6 29       		.uleb128 0x29
 17451 4cb7 6A060000 		.4byte	.LVL237
 17452 4cbb CB5E0000 		.4byte	0x5ecb
 17453 4cbf D04C0000 		.4byte	0x4cd0
 17454 4cc3 2A       		.uleb128 0x2a
 17455 4cc4 01       		.uleb128 0x1
 17456 4cc5 50       		.byte	0x50
 17457 4cc6 02       		.uleb128 0x2
 17458 4cc7 75       		.byte	0x75
 17459 4cc8 00       		.sleb128 0
 17460 4cc9 2A       		.uleb128 0x2a
 17461 4cca 01       		.uleb128 0x1
 17462 4ccb 51       		.byte	0x51
 17463 4ccc 02       		.uleb128 0x2
 17464 4ccd 76       		.byte	0x76
 17465 4cce 00       		.sleb128 0
 17466 4ccf 00       		.byte	0
 17467 4cd0 29       		.uleb128 0x29
 17468 4cd1 76060000 		.4byte	.LVL238
 17469 4cd5 D65E0000 		.4byte	0x5ed6
 17470 4cd9 EA4C0000 		.4byte	0x4cea
 17471 4cdd 2A       		.uleb128 0x2a
 17472 4cde 01       		.uleb128 0x1
 17473 4cdf 50       		.byte	0x50
 17474 4ce0 02       		.uleb128 0x2
 17475 4ce1 75       		.byte	0x75
 17476 4ce2 00       		.sleb128 0
 17477 4ce3 2A       		.uleb128 0x2a
 17478 4ce4 01       		.uleb128 0x1
 17479 4ce5 52       		.byte	0x52
 17480 4ce6 02       		.uleb128 0x2
 17481 4ce7 76       		.byte	0x76
 17482 4ce8 00       		.sleb128 0
 17483 4ce9 00       		.byte	0
 17484 4cea 29       		.uleb128 0x29
 17485 4ceb 82060000 		.4byte	.LVL239
 17486 4cef D65E0000 		.4byte	0x5ed6
 17487 4cf3 044D0000 		.4byte	0x4d04
 17488 4cf7 2A       		.uleb128 0x2a
 17489 4cf8 01       		.uleb128 0x1
 17490 4cf9 50       		.byte	0x50
 17491 4cfa 02       		.uleb128 0x2
 17492 4cfb 75       		.byte	0x75
 17493 4cfc 00       		.sleb128 0
 17494 4cfd 2A       		.uleb128 0x2a
 17495 4cfe 01       		.uleb128 0x1
 17496 4cff 52       		.byte	0x52
 17497 4d00 02       		.uleb128 0x2
 17498 4d01 76       		.byte	0x76
ARM GAS  /tmp/cc4M9ACW.s 			page 308


 17499 4d02 00       		.sleb128 0
 17500 4d03 00       		.byte	0
 17501 4d04 29       		.uleb128 0x29
 17502 4d05 A6060000 		.4byte	.LVL240
 17503 4d09 E15E0000 		.4byte	0x5ee1
 17504 4d0d 264D0000 		.4byte	0x4d26
 17505 4d11 2A       		.uleb128 0x2a
 17506 4d12 01       		.uleb128 0x1
 17507 4d13 50       		.byte	0x50
 17508 4d14 02       		.uleb128 0x2
 17509 4d15 75       		.byte	0x75
 17510 4d16 00       		.sleb128 0
 17511 4d17 2A       		.uleb128 0x2a
 17512 4d18 02       		.uleb128 0x2
 17513 4d19 90       		.byte	0x90
 17514 4d1a 41       		.uleb128 0x41
 17515 4d1b 03       		.uleb128 0x3
 17516 4d1c F5       		.byte	0xf5
 17517 4d1d 51       		.uleb128 0x51
 17518 4d1e 25       		.uleb128 0x25
 17519 4d1f 2A       		.uleb128 0x2a
 17520 4d20 01       		.uleb128 0x1
 17521 4d21 51       		.byte	0x51
 17522 4d22 02       		.uleb128 0x2
 17523 4d23 76       		.byte	0x76
 17524 4d24 00       		.sleb128 0
 17525 4d25 00       		.byte	0
 17526 4d26 29       		.uleb128 0x29
 17527 4d27 B6060000 		.4byte	.LVL241
 17528 4d2b E15E0000 		.4byte	0x5ee1
 17529 4d2f 4C4D0000 		.4byte	0x4d4c
 17530 4d33 2A       		.uleb128 0x2a
 17531 4d34 01       		.uleb128 0x1
 17532 4d35 50       		.byte	0x50
 17533 4d36 02       		.uleb128 0x2
 17534 4d37 75       		.byte	0x75
 17535 4d38 00       		.sleb128 0
 17536 4d39 2A       		.uleb128 0x2a
 17537 4d3a 02       		.uleb128 0x2
 17538 4d3b 90       		.byte	0x90
 17539 4d3c 41       		.uleb128 0x41
 17540 4d3d 07       		.uleb128 0x7
 17541 4d3e F4       		.byte	0xf4
 17542 4d3f 25       		.uleb128 0x25
 17543 4d40 04       		.byte	0x4
 17544 4d41 00002041 		.4byte	0x41200000
 17545 4d45 2A       		.uleb128 0x2a
 17546 4d46 01       		.uleb128 0x1
 17547 4d47 51       		.byte	0x51
 17548 4d48 02       		.uleb128 0x2
 17549 4d49 76       		.byte	0x76
 17550 4d4a 00       		.sleb128 0
 17551 4d4b 00       		.byte	0
 17552 4d4c 29       		.uleb128 0x29
 17553 4d4d C6060000 		.4byte	.LVL242
 17554 4d51 E15E0000 		.4byte	0x5ee1
 17555 4d55 724D0000 		.4byte	0x4d72
ARM GAS  /tmp/cc4M9ACW.s 			page 309


 17556 4d59 2A       		.uleb128 0x2a
 17557 4d5a 01       		.uleb128 0x1
 17558 4d5b 50       		.byte	0x50
 17559 4d5c 02       		.uleb128 0x2
 17560 4d5d 75       		.byte	0x75
 17561 4d5e 00       		.sleb128 0
 17562 4d5f 2A       		.uleb128 0x2a
 17563 4d60 02       		.uleb128 0x2
 17564 4d61 90       		.byte	0x90
 17565 4d62 41       		.uleb128 0x41
 17566 4d63 07       		.uleb128 0x7
 17567 4d64 F4       		.byte	0xf4
 17568 4d65 25       		.uleb128 0x25
 17569 4d66 04       		.byte	0x4
 17570 4d67 00002041 		.4byte	0x41200000
 17571 4d6b 2A       		.uleb128 0x2a
 17572 4d6c 01       		.uleb128 0x1
 17573 4d6d 51       		.byte	0x51
 17574 4d6e 02       		.uleb128 0x2
 17575 4d6f 76       		.byte	0x76
 17576 4d70 00       		.sleb128 0
 17577 4d71 00       		.byte	0
 17578 4d72 29       		.uleb128 0x29
 17579 4d73 DE060000 		.4byte	.LVL243
 17580 4d77 D65E0000 		.4byte	0x5ed6
 17581 4d7b 8C4D0000 		.4byte	0x4d8c
 17582 4d7f 2A       		.uleb128 0x2a
 17583 4d80 01       		.uleb128 0x1
 17584 4d81 50       		.byte	0x50
 17585 4d82 02       		.uleb128 0x2
 17586 4d83 75       		.byte	0x75
 17587 4d84 00       		.sleb128 0
 17588 4d85 2A       		.uleb128 0x2a
 17589 4d86 01       		.uleb128 0x1
 17590 4d87 52       		.byte	0x52
 17591 4d88 02       		.uleb128 0x2
 17592 4d89 76       		.byte	0x76
 17593 4d8a 00       		.sleb128 0
 17594 4d8b 00       		.byte	0
 17595 4d8c 29       		.uleb128 0x29
 17596 4d8d FA060000 		.4byte	.LVL244
 17597 4d91 E15E0000 		.4byte	0x5ee1
 17598 4d95 AE4D0000 		.4byte	0x4dae
 17599 4d99 2A       		.uleb128 0x2a
 17600 4d9a 01       		.uleb128 0x1
 17601 4d9b 50       		.byte	0x50
 17602 4d9c 02       		.uleb128 0x2
 17603 4d9d 75       		.byte	0x75
 17604 4d9e 00       		.sleb128 0
 17605 4d9f 2A       		.uleb128 0x2a
 17606 4da0 02       		.uleb128 0x2
 17607 4da1 90       		.byte	0x90
 17608 4da2 41       		.uleb128 0x41
 17609 4da3 03       		.uleb128 0x3
 17610 4da4 F5       		.byte	0xf5
 17611 4da5 50       		.uleb128 0x50
 17612 4da6 25       		.uleb128 0x25
ARM GAS  /tmp/cc4M9ACW.s 			page 310


 17613 4da7 2A       		.uleb128 0x2a
 17614 4da8 01       		.uleb128 0x1
 17615 4da9 51       		.byte	0x51
 17616 4daa 02       		.uleb128 0x2
 17617 4dab 76       		.byte	0x76
 17618 4dac 00       		.sleb128 0
 17619 4dad 00       		.byte	0
 17620 4dae 29       		.uleb128 0x29
 17621 4daf 0A070000 		.4byte	.LVL245
 17622 4db3 E15E0000 		.4byte	0x5ee1
 17623 4db7 D04D0000 		.4byte	0x4dd0
 17624 4dbb 2A       		.uleb128 0x2a
 17625 4dbc 01       		.uleb128 0x1
 17626 4dbd 50       		.byte	0x50
 17627 4dbe 02       		.uleb128 0x2
 17628 4dbf 75       		.byte	0x75
 17629 4dc0 00       		.sleb128 0
 17630 4dc1 2A       		.uleb128 0x2a
 17631 4dc2 02       		.uleb128 0x2
 17632 4dc3 90       		.byte	0x90
 17633 4dc4 41       		.uleb128 0x41
 17634 4dc5 03       		.uleb128 0x3
 17635 4dc6 F5       		.byte	0xf5
 17636 4dc7 50       		.uleb128 0x50
 17637 4dc8 25       		.uleb128 0x25
 17638 4dc9 2A       		.uleb128 0x2a
 17639 4dca 01       		.uleb128 0x1
 17640 4dcb 51       		.byte	0x51
 17641 4dcc 02       		.uleb128 0x2
 17642 4dcd 76       		.byte	0x76
 17643 4dce 00       		.sleb128 0
 17644 4dcf 00       		.byte	0
 17645 4dd0 29       		.uleb128 0x29
 17646 4dd1 16070000 		.4byte	.LVL246
 17647 4dd5 D65E0000 		.4byte	0x5ed6
 17648 4dd9 EA4D0000 		.4byte	0x4dea
 17649 4ddd 2A       		.uleb128 0x2a
 17650 4dde 01       		.uleb128 0x1
 17651 4ddf 50       		.byte	0x50
 17652 4de0 02       		.uleb128 0x2
 17653 4de1 75       		.byte	0x75
 17654 4de2 00       		.sleb128 0
 17655 4de3 2A       		.uleb128 0x2a
 17656 4de4 01       		.uleb128 0x1
 17657 4de5 52       		.byte	0x52
 17658 4de6 02       		.uleb128 0x2
 17659 4de7 76       		.byte	0x76
 17660 4de8 00       		.sleb128 0
 17661 4de9 00       		.byte	0
 17662 4dea 29       		.uleb128 0x29
 17663 4deb 36070000 		.4byte	.LVL247
 17664 4def D65E0000 		.4byte	0x5ed6
 17665 4df3 044E0000 		.4byte	0x4e04
 17666 4df7 2A       		.uleb128 0x2a
 17667 4df8 01       		.uleb128 0x1
 17668 4df9 50       		.byte	0x50
 17669 4dfa 02       		.uleb128 0x2
ARM GAS  /tmp/cc4M9ACW.s 			page 311


 17670 4dfb 75       		.byte	0x75
 17671 4dfc 00       		.sleb128 0
 17672 4dfd 2A       		.uleb128 0x2a
 17673 4dfe 01       		.uleb128 0x1
 17674 4dff 52       		.byte	0x52
 17675 4e00 02       		.uleb128 0x2
 17676 4e01 76       		.byte	0x76
 17677 4e02 00       		.sleb128 0
 17678 4e03 00       		.byte	0
 17679 4e04 29       		.uleb128 0x29
 17680 4e05 42070000 		.4byte	.LVL248
 17681 4e09 CB5E0000 		.4byte	0x5ecb
 17682 4e0d 1E4E0000 		.4byte	0x4e1e
 17683 4e11 2A       		.uleb128 0x2a
 17684 4e12 01       		.uleb128 0x1
 17685 4e13 50       		.byte	0x50
 17686 4e14 02       		.uleb128 0x2
 17687 4e15 75       		.byte	0x75
 17688 4e16 00       		.sleb128 0
 17689 4e17 2A       		.uleb128 0x2a
 17690 4e18 01       		.uleb128 0x1
 17691 4e19 51       		.byte	0x51
 17692 4e1a 02       		.uleb128 0x2
 17693 4e1b 76       		.byte	0x76
 17694 4e1c 00       		.sleb128 0
 17695 4e1d 00       		.byte	0
 17696 4e1e 29       		.uleb128 0x29
 17697 4e1f 4E070000 		.4byte	.LVL249
 17698 4e23 CB5E0000 		.4byte	0x5ecb
 17699 4e27 384E0000 		.4byte	0x4e38
 17700 4e2b 2A       		.uleb128 0x2a
 17701 4e2c 01       		.uleb128 0x1
 17702 4e2d 50       		.byte	0x50
 17703 4e2e 02       		.uleb128 0x2
 17704 4e2f 75       		.byte	0x75
 17705 4e30 00       		.sleb128 0
 17706 4e31 2A       		.uleb128 0x2a
 17707 4e32 01       		.uleb128 0x1
 17708 4e33 51       		.byte	0x51
 17709 4e34 02       		.uleb128 0x2
 17710 4e35 76       		.byte	0x76
 17711 4e36 00       		.sleb128 0
 17712 4e37 00       		.byte	0
 17713 4e38 29       		.uleb128 0x29
 17714 4e39 5A070000 		.4byte	.LVL250
 17715 4e3d CB5E0000 		.4byte	0x5ecb
 17716 4e41 524E0000 		.4byte	0x4e52
 17717 4e45 2A       		.uleb128 0x2a
 17718 4e46 01       		.uleb128 0x1
 17719 4e47 50       		.byte	0x50
 17720 4e48 02       		.uleb128 0x2
 17721 4e49 75       		.byte	0x75
 17722 4e4a 00       		.sleb128 0
 17723 4e4b 2A       		.uleb128 0x2a
 17724 4e4c 01       		.uleb128 0x1
 17725 4e4d 51       		.byte	0x51
 17726 4e4e 02       		.uleb128 0x2
ARM GAS  /tmp/cc4M9ACW.s 			page 312


 17727 4e4f 76       		.byte	0x76
 17728 4e50 00       		.sleb128 0
 17729 4e51 00       		.byte	0
 17730 4e52 29       		.uleb128 0x29
 17731 4e53 66070000 		.4byte	.LVL251
 17732 4e57 CB5E0000 		.4byte	0x5ecb
 17733 4e5b 6C4E0000 		.4byte	0x4e6c
 17734 4e5f 2A       		.uleb128 0x2a
 17735 4e60 01       		.uleb128 0x1
 17736 4e61 50       		.byte	0x50
 17737 4e62 02       		.uleb128 0x2
 17738 4e63 75       		.byte	0x75
 17739 4e64 00       		.sleb128 0
 17740 4e65 2A       		.uleb128 0x2a
 17741 4e66 01       		.uleb128 0x1
 17742 4e67 51       		.byte	0x51
 17743 4e68 02       		.uleb128 0x2
 17744 4e69 76       		.byte	0x76
 17745 4e6a 00       		.sleb128 0
 17746 4e6b 00       		.byte	0
 17747 4e6c 29       		.uleb128 0x29
 17748 4e6d 72070000 		.4byte	.LVL252
 17749 4e71 CB5E0000 		.4byte	0x5ecb
 17750 4e75 864E0000 		.4byte	0x4e86
 17751 4e79 2A       		.uleb128 0x2a
 17752 4e7a 01       		.uleb128 0x1
 17753 4e7b 50       		.byte	0x50
 17754 4e7c 02       		.uleb128 0x2
 17755 4e7d 75       		.byte	0x75
 17756 4e7e 00       		.sleb128 0
 17757 4e7f 2A       		.uleb128 0x2a
 17758 4e80 01       		.uleb128 0x1
 17759 4e81 51       		.byte	0x51
 17760 4e82 02       		.uleb128 0x2
 17761 4e83 76       		.byte	0x76
 17762 4e84 00       		.sleb128 0
 17763 4e85 00       		.byte	0
 17764 4e86 29       		.uleb128 0x29
 17765 4e87 7E070000 		.4byte	.LVL253
 17766 4e8b CB5E0000 		.4byte	0x5ecb
 17767 4e8f A04E0000 		.4byte	0x4ea0
 17768 4e93 2A       		.uleb128 0x2a
 17769 4e94 01       		.uleb128 0x1
 17770 4e95 50       		.byte	0x50
 17771 4e96 02       		.uleb128 0x2
 17772 4e97 75       		.byte	0x75
 17773 4e98 00       		.sleb128 0
 17774 4e99 2A       		.uleb128 0x2a
 17775 4e9a 01       		.uleb128 0x1
 17776 4e9b 51       		.byte	0x51
 17777 4e9c 02       		.uleb128 0x2
 17778 4e9d 76       		.byte	0x76
 17779 4e9e 00       		.sleb128 0
 17780 4e9f 00       		.byte	0
 17781 4ea0 29       		.uleb128 0x29
 17782 4ea1 8A070000 		.4byte	.LVL254
 17783 4ea5 CB5E0000 		.4byte	0x5ecb
ARM GAS  /tmp/cc4M9ACW.s 			page 313


 17784 4ea9 BA4E0000 		.4byte	0x4eba
 17785 4ead 2A       		.uleb128 0x2a
 17786 4eae 01       		.uleb128 0x1
 17787 4eaf 50       		.byte	0x50
 17788 4eb0 02       		.uleb128 0x2
 17789 4eb1 75       		.byte	0x75
 17790 4eb2 00       		.sleb128 0
 17791 4eb3 2A       		.uleb128 0x2a
 17792 4eb4 01       		.uleb128 0x1
 17793 4eb5 51       		.byte	0x51
 17794 4eb6 02       		.uleb128 0x2
 17795 4eb7 76       		.byte	0x76
 17796 4eb8 00       		.sleb128 0
 17797 4eb9 00       		.byte	0
 17798 4eba 29       		.uleb128 0x29
 17799 4ebb 96070000 		.4byte	.LVL255
 17800 4ebf CB5E0000 		.4byte	0x5ecb
 17801 4ec3 D44E0000 		.4byte	0x4ed4
 17802 4ec7 2A       		.uleb128 0x2a
 17803 4ec8 01       		.uleb128 0x1
 17804 4ec9 50       		.byte	0x50
 17805 4eca 02       		.uleb128 0x2
 17806 4ecb 75       		.byte	0x75
 17807 4ecc 00       		.sleb128 0
 17808 4ecd 2A       		.uleb128 0x2a
 17809 4ece 01       		.uleb128 0x1
 17810 4ecf 51       		.byte	0x51
 17811 4ed0 02       		.uleb128 0x2
 17812 4ed1 76       		.byte	0x76
 17813 4ed2 00       		.sleb128 0
 17814 4ed3 00       		.byte	0
 17815 4ed4 29       		.uleb128 0x29
 17816 4ed5 A2070000 		.4byte	.LVL256
 17817 4ed9 CB5E0000 		.4byte	0x5ecb
 17818 4edd EE4E0000 		.4byte	0x4eee
 17819 4ee1 2A       		.uleb128 0x2a
 17820 4ee2 01       		.uleb128 0x1
 17821 4ee3 50       		.byte	0x50
 17822 4ee4 02       		.uleb128 0x2
 17823 4ee5 75       		.byte	0x75
 17824 4ee6 00       		.sleb128 0
 17825 4ee7 2A       		.uleb128 0x2a
 17826 4ee8 01       		.uleb128 0x1
 17827 4ee9 51       		.byte	0x51
 17828 4eea 02       		.uleb128 0x2
 17829 4eeb 76       		.byte	0x76
 17830 4eec 00       		.sleb128 0
 17831 4eed 00       		.byte	0
 17832 4eee 29       		.uleb128 0x29
 17833 4eef AE070000 		.4byte	.LVL257
 17834 4ef3 CB5E0000 		.4byte	0x5ecb
 17835 4ef7 084F0000 		.4byte	0x4f08
 17836 4efb 2A       		.uleb128 0x2a
 17837 4efc 01       		.uleb128 0x1
 17838 4efd 50       		.byte	0x50
 17839 4efe 02       		.uleb128 0x2
 17840 4eff 75       		.byte	0x75
ARM GAS  /tmp/cc4M9ACW.s 			page 314


 17841 4f00 00       		.sleb128 0
 17842 4f01 2A       		.uleb128 0x2a
 17843 4f02 01       		.uleb128 0x1
 17844 4f03 51       		.byte	0x51
 17845 4f04 02       		.uleb128 0x2
 17846 4f05 76       		.byte	0x76
 17847 4f06 00       		.sleb128 0
 17848 4f07 00       		.byte	0
 17849 4f08 29       		.uleb128 0x29
 17850 4f09 BA070000 		.4byte	.LVL258
 17851 4f0d CB5E0000 		.4byte	0x5ecb
 17852 4f11 224F0000 		.4byte	0x4f22
 17853 4f15 2A       		.uleb128 0x2a
 17854 4f16 01       		.uleb128 0x1
 17855 4f17 50       		.byte	0x50
 17856 4f18 02       		.uleb128 0x2
 17857 4f19 75       		.byte	0x75
 17858 4f1a 00       		.sleb128 0
 17859 4f1b 2A       		.uleb128 0x2a
 17860 4f1c 01       		.uleb128 0x1
 17861 4f1d 51       		.byte	0x51
 17862 4f1e 02       		.uleb128 0x2
 17863 4f1f 76       		.byte	0x76
 17864 4f20 00       		.sleb128 0
 17865 4f21 00       		.byte	0
 17866 4f22 29       		.uleb128 0x29
 17867 4f23 C6070000 		.4byte	.LVL259
 17868 4f27 CB5E0000 		.4byte	0x5ecb
 17869 4f2b 3C4F0000 		.4byte	0x4f3c
 17870 4f2f 2A       		.uleb128 0x2a
 17871 4f30 01       		.uleb128 0x1
 17872 4f31 50       		.byte	0x50
 17873 4f32 02       		.uleb128 0x2
 17874 4f33 75       		.byte	0x75
 17875 4f34 00       		.sleb128 0
 17876 4f35 2A       		.uleb128 0x2a
 17877 4f36 01       		.uleb128 0x1
 17878 4f37 51       		.byte	0x51
 17879 4f38 02       		.uleb128 0x2
 17880 4f39 76       		.byte	0x76
 17881 4f3a 00       		.sleb128 0
 17882 4f3b 00       		.byte	0
 17883 4f3c 2B       		.uleb128 0x2b
 17884 4f3d D2070000 		.4byte	.LVL260
 17885 4f41 CB5E0000 		.4byte	0x5ecb
 17886 4f45 2A       		.uleb128 0x2a
 17887 4f46 01       		.uleb128 0x1
 17888 4f47 50       		.byte	0x50
 17889 4f48 02       		.uleb128 0x2
 17890 4f49 75       		.byte	0x75
 17891 4f4a 00       		.sleb128 0
 17892 4f4b 2A       		.uleb128 0x2a
 17893 4f4c 01       		.uleb128 0x1
 17894 4f4d 51       		.byte	0x51
 17895 4f4e 02       		.uleb128 0x2
 17896 4f4f 76       		.byte	0x76
 17897 4f50 00       		.sleb128 0
ARM GAS  /tmp/cc4M9ACW.s 			page 315


 17898 4f51 00       		.byte	0
 17899 4f52 00       		.byte	0
 17900 4f53 0B       		.uleb128 0xb
 17901 4f54 04       		.byte	0x4
 17902 4f55 D7230000 		.4byte	0x23d7
 17903 4f59 2C       		.uleb128 0x2c
 17904 4f5a BB0C0000 		.4byte	.LASF700
 17905 4f5e 01       		.byte	0x1
 17906 4f5f 07       		.byte	0x7
 17907 4f60 DA000000 		.4byte	0xda
 17908 4f64 00000000 		.4byte	.LFB219
 17909 4f68 A8080000 		.4byte	.LFE219-.LFB219
 17910 4f6c 01       		.uleb128 0x1
 17911 4f6d 9C       		.byte	0x9c
 17912 4f6e 6C5E0000 		.4byte	0x5e6c
 17913 4f72 2D       		.uleb128 0x2d
 17914 4f73 25220000 		.4byte	.LASF695
 17915 4f77 01       		.byte	0x1
 17916 4f78 07       		.byte	0x7
 17917 4f79 87080000 		.4byte	0x887
 17918 4f7d 80010000 		.4byte	.LLST0
 17919 4f81 2D       		.uleb128 0x2d
 17920 4f82 CF1D0000 		.4byte	.LASF694
 17921 4f86 01       		.byte	0x1
 17922 4f87 07       		.byte	0x7
 17923 4f88 6C5E0000 		.4byte	0x5e6c
 17924 4f8c AC010000 		.4byte	.LLST1
 17925 4f90 2E       		.uleb128 0x2e
 17926 4f91 696E6400 		.ascii	"ind\000"
 17927 4f95 01       		.byte	0x1
 17928 4f96 08       		.byte	0x8
 17929 4f97 DA000000 		.4byte	0xda
 17930 4f9b 02       		.uleb128 0x2
 17931 4f9c 91       		.byte	0x91
 17932 4f9d 5C       		.sleb128 -36
 17933 4f9e 29       		.uleb128 0x29
 17934 4f9f 28000000 		.4byte	.LVL2
 17935 4fa3 C05E0000 		.4byte	0x5ec0
 17936 4fa7 C14F0000 		.4byte	0x4fc1
 17937 4fab 2A       		.uleb128 0x2a
 17938 4fac 01       		.uleb128 0x1
 17939 4fad 50       		.byte	0x50
 17940 4fae 02       		.uleb128 0x2
 17941 4faf 75       		.byte	0x75
 17942 4fb0 00       		.sleb128 0
 17943 4fb1 2A       		.uleb128 0x2a
 17944 4fb2 01       		.uleb128 0x1
 17945 4fb3 51       		.byte	0x51
 17946 4fb4 05       		.uleb128 0x5
 17947 4fb5 0C       		.byte	0xc
 17948 4fb6 116BB23C 		.4byte	0x3cb26b11
 17949 4fba 2A       		.uleb128 0x2a
 17950 4fbb 01       		.uleb128 0x1
 17951 4fbc 52       		.byte	0x52
 17952 4fbd 02       		.uleb128 0x2
 17953 4fbe 76       		.byte	0x76
 17954 4fbf 00       		.sleb128 0
ARM GAS  /tmp/cc4M9ACW.s 			page 316


 17955 4fc0 00       		.byte	0
 17956 4fc1 29       		.uleb128 0x29
 17957 4fc2 54000000 		.4byte	.LVL3
 17958 4fc6 CB5E0000 		.4byte	0x5ecb
 17959 4fca DB4F0000 		.4byte	0x4fdb
 17960 4fce 2A       		.uleb128 0x2a
 17961 4fcf 01       		.uleb128 0x1
 17962 4fd0 50       		.byte	0x50
 17963 4fd1 02       		.uleb128 0x2
 17964 4fd2 75       		.byte	0x75
 17965 4fd3 00       		.sleb128 0
 17966 4fd4 2A       		.uleb128 0x2a
 17967 4fd5 01       		.uleb128 0x1
 17968 4fd6 51       		.byte	0x51
 17969 4fd7 02       		.uleb128 0x2
 17970 4fd8 76       		.byte	0x76
 17971 4fd9 00       		.sleb128 0
 17972 4fda 00       		.byte	0
 17973 4fdb 29       		.uleb128 0x29
 17974 4fdc 60000000 		.4byte	.LVL4
 17975 4fe0 CB5E0000 		.4byte	0x5ecb
 17976 4fe4 F54F0000 		.4byte	0x4ff5
 17977 4fe8 2A       		.uleb128 0x2a
 17978 4fe9 01       		.uleb128 0x1
 17979 4fea 50       		.byte	0x50
 17980 4feb 02       		.uleb128 0x2
 17981 4fec 75       		.byte	0x75
 17982 4fed 00       		.sleb128 0
 17983 4fee 2A       		.uleb128 0x2a
 17984 4fef 01       		.uleb128 0x1
 17985 4ff0 51       		.byte	0x51
 17986 4ff1 02       		.uleb128 0x2
 17987 4ff2 76       		.byte	0x76
 17988 4ff3 00       		.sleb128 0
 17989 4ff4 00       		.byte	0
 17990 4ff5 29       		.uleb128 0x29
 17991 4ff6 6C000000 		.4byte	.LVL5
 17992 4ffa CB5E0000 		.4byte	0x5ecb
 17993 4ffe 0F500000 		.4byte	0x500f
 17994 5002 2A       		.uleb128 0x2a
 17995 5003 01       		.uleb128 0x1
 17996 5004 50       		.byte	0x50
 17997 5005 02       		.uleb128 0x2
 17998 5006 75       		.byte	0x75
 17999 5007 00       		.sleb128 0
 18000 5008 2A       		.uleb128 0x2a
 18001 5009 01       		.uleb128 0x1
 18002 500a 51       		.byte	0x51
 18003 500b 02       		.uleb128 0x2
 18004 500c 76       		.byte	0x76
 18005 500d 00       		.sleb128 0
 18006 500e 00       		.byte	0
 18007 500f 29       		.uleb128 0x29
 18008 5010 78000000 		.4byte	.LVL6
 18009 5014 CB5E0000 		.4byte	0x5ecb
 18010 5018 29500000 		.4byte	0x5029
 18011 501c 2A       		.uleb128 0x2a
ARM GAS  /tmp/cc4M9ACW.s 			page 317


 18012 501d 01       		.uleb128 0x1
 18013 501e 50       		.byte	0x50
 18014 501f 02       		.uleb128 0x2
 18015 5020 75       		.byte	0x75
 18016 5021 00       		.sleb128 0
 18017 5022 2A       		.uleb128 0x2a
 18018 5023 01       		.uleb128 0x1
 18019 5024 51       		.byte	0x51
 18020 5025 02       		.uleb128 0x2
 18021 5026 76       		.byte	0x76
 18022 5027 00       		.sleb128 0
 18023 5028 00       		.byte	0
 18024 5029 29       		.uleb128 0x29
 18025 502a 84000000 		.4byte	.LVL7
 18026 502e CB5E0000 		.4byte	0x5ecb
 18027 5032 43500000 		.4byte	0x5043
 18028 5036 2A       		.uleb128 0x2a
 18029 5037 01       		.uleb128 0x1
 18030 5038 50       		.byte	0x50
 18031 5039 02       		.uleb128 0x2
 18032 503a 75       		.byte	0x75
 18033 503b 00       		.sleb128 0
 18034 503c 2A       		.uleb128 0x2a
 18035 503d 01       		.uleb128 0x1
 18036 503e 51       		.byte	0x51
 18037 503f 02       		.uleb128 0x2
 18038 5040 76       		.byte	0x76
 18039 5041 00       		.sleb128 0
 18040 5042 00       		.byte	0
 18041 5043 29       		.uleb128 0x29
 18042 5044 90000000 		.4byte	.LVL8
 18043 5048 CB5E0000 		.4byte	0x5ecb
 18044 504c 5D500000 		.4byte	0x505d
 18045 5050 2A       		.uleb128 0x2a
 18046 5051 01       		.uleb128 0x1
 18047 5052 50       		.byte	0x50
 18048 5053 02       		.uleb128 0x2
 18049 5054 75       		.byte	0x75
 18050 5055 00       		.sleb128 0
 18051 5056 2A       		.uleb128 0x2a
 18052 5057 01       		.uleb128 0x1
 18053 5058 51       		.byte	0x51
 18054 5059 02       		.uleb128 0x2
 18055 505a 76       		.byte	0x76
 18056 505b 00       		.sleb128 0
 18057 505c 00       		.byte	0
 18058 505d 29       		.uleb128 0x29
 18059 505e 9C000000 		.4byte	.LVL9
 18060 5062 CB5E0000 		.4byte	0x5ecb
 18061 5066 77500000 		.4byte	0x5077
 18062 506a 2A       		.uleb128 0x2a
 18063 506b 01       		.uleb128 0x1
 18064 506c 50       		.byte	0x50
 18065 506d 02       		.uleb128 0x2
 18066 506e 75       		.byte	0x75
 18067 506f 00       		.sleb128 0
 18068 5070 2A       		.uleb128 0x2a
ARM GAS  /tmp/cc4M9ACW.s 			page 318


 18069 5071 01       		.uleb128 0x1
 18070 5072 51       		.byte	0x51
 18071 5073 02       		.uleb128 0x2
 18072 5074 76       		.byte	0x76
 18073 5075 00       		.sleb128 0
 18074 5076 00       		.byte	0
 18075 5077 29       		.uleb128 0x29
 18076 5078 AC000000 		.4byte	.LVL10
 18077 507c E15E0000 		.4byte	0x5ee1
 18078 5080 99500000 		.4byte	0x5099
 18079 5084 2A       		.uleb128 0x2a
 18080 5085 01       		.uleb128 0x1
 18081 5086 50       		.byte	0x50
 18082 5087 02       		.uleb128 0x2
 18083 5088 75       		.byte	0x75
 18084 5089 00       		.sleb128 0
 18085 508a 2A       		.uleb128 0x2a
 18086 508b 02       		.uleb128 0x2
 18087 508c 90       		.byte	0x90
 18088 508d 41       		.uleb128 0x41
 18089 508e 03       		.uleb128 0x3
 18090 508f F5       		.byte	0xf5
 18091 5090 50       		.uleb128 0x50
 18092 5091 25       		.uleb128 0x25
 18093 5092 2A       		.uleb128 0x2a
 18094 5093 01       		.uleb128 0x1
 18095 5094 51       		.byte	0x51
 18096 5095 02       		.uleb128 0x2
 18097 5096 76       		.byte	0x76
 18098 5097 00       		.sleb128 0
 18099 5098 00       		.byte	0
 18100 5099 29       		.uleb128 0x29
 18101 509a B8000000 		.4byte	.LVL11
 18102 509e CB5E0000 		.4byte	0x5ecb
 18103 50a2 B3500000 		.4byte	0x50b3
 18104 50a6 2A       		.uleb128 0x2a
 18105 50a7 01       		.uleb128 0x1
 18106 50a8 50       		.byte	0x50
 18107 50a9 02       		.uleb128 0x2
 18108 50aa 75       		.byte	0x75
 18109 50ab 00       		.sleb128 0
 18110 50ac 2A       		.uleb128 0x2a
 18111 50ad 01       		.uleb128 0x1
 18112 50ae 51       		.byte	0x51
 18113 50af 02       		.uleb128 0x2
 18114 50b0 76       		.byte	0x76
 18115 50b1 00       		.sleb128 0
 18116 50b2 00       		.byte	0
 18117 50b3 29       		.uleb128 0x29
 18118 50b4 C4000000 		.4byte	.LVL12
 18119 50b8 CB5E0000 		.4byte	0x5ecb
 18120 50bc CD500000 		.4byte	0x50cd
 18121 50c0 2A       		.uleb128 0x2a
 18122 50c1 01       		.uleb128 0x1
 18123 50c2 50       		.byte	0x50
 18124 50c3 02       		.uleb128 0x2
 18125 50c4 75       		.byte	0x75
ARM GAS  /tmp/cc4M9ACW.s 			page 319


 18126 50c5 00       		.sleb128 0
 18127 50c6 2A       		.uleb128 0x2a
 18128 50c7 01       		.uleb128 0x1
 18129 50c8 51       		.byte	0x51
 18130 50c9 02       		.uleb128 0x2
 18131 50ca 76       		.byte	0x76
 18132 50cb 00       		.sleb128 0
 18133 50cc 00       		.byte	0
 18134 50cd 29       		.uleb128 0x29
 18135 50ce D0000000 		.4byte	.LVL13
 18136 50d2 CB5E0000 		.4byte	0x5ecb
 18137 50d6 E7500000 		.4byte	0x50e7
 18138 50da 2A       		.uleb128 0x2a
 18139 50db 01       		.uleb128 0x1
 18140 50dc 50       		.byte	0x50
 18141 50dd 02       		.uleb128 0x2
 18142 50de 75       		.byte	0x75
 18143 50df 00       		.sleb128 0
 18144 50e0 2A       		.uleb128 0x2a
 18145 50e1 01       		.uleb128 0x1
 18146 50e2 51       		.byte	0x51
 18147 50e3 02       		.uleb128 0x2
 18148 50e4 76       		.byte	0x76
 18149 50e5 00       		.sleb128 0
 18150 50e6 00       		.byte	0
 18151 50e7 29       		.uleb128 0x29
 18152 50e8 DC000000 		.4byte	.LVL14
 18153 50ec CB5E0000 		.4byte	0x5ecb
 18154 50f0 01510000 		.4byte	0x5101
 18155 50f4 2A       		.uleb128 0x2a
 18156 50f5 01       		.uleb128 0x1
 18157 50f6 50       		.byte	0x50
 18158 50f7 02       		.uleb128 0x2
 18159 50f8 75       		.byte	0x75
 18160 50f9 00       		.sleb128 0
 18161 50fa 2A       		.uleb128 0x2a
 18162 50fb 01       		.uleb128 0x1
 18163 50fc 51       		.byte	0x51
 18164 50fd 02       		.uleb128 0x2
 18165 50fe 76       		.byte	0x76
 18166 50ff 00       		.sleb128 0
 18167 5100 00       		.byte	0
 18168 5101 29       		.uleb128 0x29
 18169 5102 E8000000 		.4byte	.LVL15
 18170 5106 CB5E0000 		.4byte	0x5ecb
 18171 510a 1B510000 		.4byte	0x511b
 18172 510e 2A       		.uleb128 0x2a
 18173 510f 01       		.uleb128 0x1
 18174 5110 50       		.byte	0x50
 18175 5111 02       		.uleb128 0x2
 18176 5112 75       		.byte	0x75
 18177 5113 00       		.sleb128 0
 18178 5114 2A       		.uleb128 0x2a
 18179 5115 01       		.uleb128 0x1
 18180 5116 51       		.byte	0x51
 18181 5117 02       		.uleb128 0x2
 18182 5118 76       		.byte	0x76
ARM GAS  /tmp/cc4M9ACW.s 			page 320


 18183 5119 00       		.sleb128 0
 18184 511a 00       		.byte	0
 18185 511b 29       		.uleb128 0x29
 18186 511c F4000000 		.4byte	.LVL16
 18187 5120 CB5E0000 		.4byte	0x5ecb
 18188 5124 35510000 		.4byte	0x5135
 18189 5128 2A       		.uleb128 0x2a
 18190 5129 01       		.uleb128 0x1
 18191 512a 50       		.byte	0x50
 18192 512b 02       		.uleb128 0x2
 18193 512c 75       		.byte	0x75
 18194 512d 00       		.sleb128 0
 18195 512e 2A       		.uleb128 0x2a
 18196 512f 01       		.uleb128 0x1
 18197 5130 51       		.byte	0x51
 18198 5131 02       		.uleb128 0x2
 18199 5132 76       		.byte	0x76
 18200 5133 00       		.sleb128 0
 18201 5134 00       		.byte	0
 18202 5135 29       		.uleb128 0x29
 18203 5136 10010000 		.4byte	.LVL17
 18204 513a E15E0000 		.4byte	0x5ee1
 18205 513e 5B510000 		.4byte	0x515b
 18206 5142 2A       		.uleb128 0x2a
 18207 5143 01       		.uleb128 0x1
 18208 5144 50       		.byte	0x50
 18209 5145 02       		.uleb128 0x2
 18210 5146 75       		.byte	0x75
 18211 5147 00       		.sleb128 0
 18212 5148 2A       		.uleb128 0x2a
 18213 5149 02       		.uleb128 0x2
 18214 514a 90       		.byte	0x90
 18215 514b 41       		.uleb128 0x41
 18216 514c 07       		.uleb128 0x7
 18217 514d F4       		.byte	0xf4
 18218 514e 25       		.uleb128 0x25
 18219 514f 04       		.byte	0x4
 18220 5150 00002041 		.4byte	0x41200000
 18221 5154 2A       		.uleb128 0x2a
 18222 5155 01       		.uleb128 0x1
 18223 5156 51       		.byte	0x51
 18224 5157 02       		.uleb128 0x2
 18225 5158 76       		.byte	0x76
 18226 5159 00       		.sleb128 0
 18227 515a 00       		.byte	0
 18228 515b 29       		.uleb128 0x29
 18229 515c 20010000 		.4byte	.LVL18
 18230 5160 E15E0000 		.4byte	0x5ee1
 18231 5164 81510000 		.4byte	0x5181
 18232 5168 2A       		.uleb128 0x2a
 18233 5169 01       		.uleb128 0x1
 18234 516a 50       		.byte	0x50
 18235 516b 02       		.uleb128 0x2
 18236 516c 75       		.byte	0x75
 18237 516d 00       		.sleb128 0
 18238 516e 2A       		.uleb128 0x2a
 18239 516f 02       		.uleb128 0x2
ARM GAS  /tmp/cc4M9ACW.s 			page 321


 18240 5170 90       		.byte	0x90
 18241 5171 41       		.uleb128 0x41
 18242 5172 07       		.uleb128 0x7
 18243 5173 F4       		.byte	0xf4
 18244 5174 25       		.uleb128 0x25
 18245 5175 04       		.byte	0x4
 18246 5176 00002041 		.4byte	0x41200000
 18247 517a 2A       		.uleb128 0x2a
 18248 517b 01       		.uleb128 0x1
 18249 517c 51       		.byte	0x51
 18250 517d 02       		.uleb128 0x2
 18251 517e 76       		.byte	0x76
 18252 517f 00       		.sleb128 0
 18253 5180 00       		.byte	0
 18254 5181 29       		.uleb128 0x29
 18255 5182 30010000 		.4byte	.LVL19
 18256 5186 E15E0000 		.4byte	0x5ee1
 18257 518a A7510000 		.4byte	0x51a7
 18258 518e 2A       		.uleb128 0x2a
 18259 518f 01       		.uleb128 0x1
 18260 5190 50       		.byte	0x50
 18261 5191 02       		.uleb128 0x2
 18262 5192 75       		.byte	0x75
 18263 5193 00       		.sleb128 0
 18264 5194 2A       		.uleb128 0x2a
 18265 5195 02       		.uleb128 0x2
 18266 5196 90       		.byte	0x90
 18267 5197 41       		.uleb128 0x41
 18268 5198 07       		.uleb128 0x7
 18269 5199 F4       		.byte	0xf4
 18270 519a 25       		.uleb128 0x25
 18271 519b 04       		.byte	0x4
 18272 519c 00002041 		.4byte	0x41200000
 18273 51a0 2A       		.uleb128 0x2a
 18274 51a1 01       		.uleb128 0x1
 18275 51a2 51       		.byte	0x51
 18276 51a3 02       		.uleb128 0x2
 18277 51a4 76       		.byte	0x76
 18278 51a5 00       		.sleb128 0
 18279 51a6 00       		.byte	0
 18280 51a7 29       		.uleb128 0x29
 18281 51a8 40010000 		.4byte	.LVL20
 18282 51ac E15E0000 		.4byte	0x5ee1
 18283 51b0 CD510000 		.4byte	0x51cd
 18284 51b4 2A       		.uleb128 0x2a
 18285 51b5 01       		.uleb128 0x1
 18286 51b6 50       		.byte	0x50
 18287 51b7 02       		.uleb128 0x2
 18288 51b8 75       		.byte	0x75
 18289 51b9 00       		.sleb128 0
 18290 51ba 2A       		.uleb128 0x2a
 18291 51bb 02       		.uleb128 0x2
 18292 51bc 90       		.byte	0x90
 18293 51bd 41       		.uleb128 0x41
 18294 51be 07       		.uleb128 0x7
 18295 51bf F4       		.byte	0xf4
 18296 51c0 25       		.uleb128 0x25
ARM GAS  /tmp/cc4M9ACW.s 			page 322


 18297 51c1 04       		.byte	0x4
 18298 51c2 00002041 		.4byte	0x41200000
 18299 51c6 2A       		.uleb128 0x2a
 18300 51c7 01       		.uleb128 0x1
 18301 51c8 51       		.byte	0x51
 18302 51c9 02       		.uleb128 0x2
 18303 51ca 76       		.byte	0x76
 18304 51cb 00       		.sleb128 0
 18305 51cc 00       		.byte	0
 18306 51cd 29       		.uleb128 0x29
 18307 51ce 50010000 		.4byte	.LVL21
 18308 51d2 E15E0000 		.4byte	0x5ee1
 18309 51d6 EF510000 		.4byte	0x51ef
 18310 51da 2A       		.uleb128 0x2a
 18311 51db 01       		.uleb128 0x1
 18312 51dc 50       		.byte	0x50
 18313 51dd 02       		.uleb128 0x2
 18314 51de 75       		.byte	0x75
 18315 51df 00       		.sleb128 0
 18316 51e0 2A       		.uleb128 0x2a
 18317 51e1 02       		.uleb128 0x2
 18318 51e2 90       		.byte	0x90
 18319 51e3 41       		.uleb128 0x41
 18320 51e4 03       		.uleb128 0x3
 18321 51e5 F5       		.byte	0xf5
 18322 51e6 50       		.uleb128 0x50
 18323 51e7 25       		.uleb128 0x25
 18324 51e8 2A       		.uleb128 0x2a
 18325 51e9 01       		.uleb128 0x1
 18326 51ea 51       		.byte	0x51
 18327 51eb 02       		.uleb128 0x2
 18328 51ec 76       		.byte	0x76
 18329 51ed 00       		.sleb128 0
 18330 51ee 00       		.byte	0
 18331 51ef 29       		.uleb128 0x29
 18332 51f0 60010000 		.4byte	.LVL22
 18333 51f4 E15E0000 		.4byte	0x5ee1
 18334 51f8 11520000 		.4byte	0x5211
 18335 51fc 2A       		.uleb128 0x2a
 18336 51fd 01       		.uleb128 0x1
 18337 51fe 50       		.byte	0x50
 18338 51ff 02       		.uleb128 0x2
 18339 5200 75       		.byte	0x75
 18340 5201 00       		.sleb128 0
 18341 5202 2A       		.uleb128 0x2a
 18342 5203 02       		.uleb128 0x2
 18343 5204 90       		.byte	0x90
 18344 5205 41       		.uleb128 0x41
 18345 5206 03       		.uleb128 0x3
 18346 5207 F5       		.byte	0xf5
 18347 5208 50       		.uleb128 0x50
 18348 5209 25       		.uleb128 0x25
 18349 520a 2A       		.uleb128 0x2a
 18350 520b 01       		.uleb128 0x1
 18351 520c 51       		.byte	0x51
 18352 520d 02       		.uleb128 0x2
 18353 520e 76       		.byte	0x76
ARM GAS  /tmp/cc4M9ACW.s 			page 323


 18354 520f 00       		.sleb128 0
 18355 5210 00       		.byte	0
 18356 5211 29       		.uleb128 0x29
 18357 5212 70010000 		.4byte	.LVL23
 18358 5216 E15E0000 		.4byte	0x5ee1
 18359 521a 33520000 		.4byte	0x5233
 18360 521e 2A       		.uleb128 0x2a
 18361 521f 01       		.uleb128 0x1
 18362 5220 50       		.byte	0x50
 18363 5221 02       		.uleb128 0x2
 18364 5222 75       		.byte	0x75
 18365 5223 00       		.sleb128 0
 18366 5224 2A       		.uleb128 0x2a
 18367 5225 02       		.uleb128 0x2
 18368 5226 90       		.byte	0x90
 18369 5227 41       		.uleb128 0x41
 18370 5228 03       		.uleb128 0x3
 18371 5229 F5       		.byte	0xf5
 18372 522a 50       		.uleb128 0x50
 18373 522b 25       		.uleb128 0x25
 18374 522c 2A       		.uleb128 0x2a
 18375 522d 01       		.uleb128 0x1
 18376 522e 51       		.byte	0x51
 18377 522f 02       		.uleb128 0x2
 18378 5230 76       		.byte	0x76
 18379 5231 00       		.sleb128 0
 18380 5232 00       		.byte	0
 18381 5233 29       		.uleb128 0x29
 18382 5234 7C010000 		.4byte	.LVL24
 18383 5238 CB5E0000 		.4byte	0x5ecb
 18384 523c 4D520000 		.4byte	0x524d
 18385 5240 2A       		.uleb128 0x2a
 18386 5241 01       		.uleb128 0x1
 18387 5242 50       		.byte	0x50
 18388 5243 02       		.uleb128 0x2
 18389 5244 75       		.byte	0x75
 18390 5245 00       		.sleb128 0
 18391 5246 2A       		.uleb128 0x2a
 18392 5247 01       		.uleb128 0x1
 18393 5248 51       		.byte	0x51
 18394 5249 02       		.uleb128 0x2
 18395 524a 76       		.byte	0x76
 18396 524b 00       		.sleb128 0
 18397 524c 00       		.byte	0
 18398 524d 29       		.uleb128 0x29
 18399 524e 88010000 		.4byte	.LVL25
 18400 5252 CB5E0000 		.4byte	0x5ecb
 18401 5256 67520000 		.4byte	0x5267
 18402 525a 2A       		.uleb128 0x2a
 18403 525b 01       		.uleb128 0x1
 18404 525c 50       		.byte	0x50
 18405 525d 02       		.uleb128 0x2
 18406 525e 75       		.byte	0x75
 18407 525f 00       		.sleb128 0
 18408 5260 2A       		.uleb128 0x2a
 18409 5261 01       		.uleb128 0x1
 18410 5262 51       		.byte	0x51
ARM GAS  /tmp/cc4M9ACW.s 			page 324


 18411 5263 02       		.uleb128 0x2
 18412 5264 76       		.byte	0x76
 18413 5265 00       		.sleb128 0
 18414 5266 00       		.byte	0
 18415 5267 29       		.uleb128 0x29
 18416 5268 98010000 		.4byte	.LVL26
 18417 526c E15E0000 		.4byte	0x5ee1
 18418 5270 89520000 		.4byte	0x5289
 18419 5274 2A       		.uleb128 0x2a
 18420 5275 01       		.uleb128 0x1
 18421 5276 50       		.byte	0x50
 18422 5277 02       		.uleb128 0x2
 18423 5278 75       		.byte	0x75
 18424 5279 00       		.sleb128 0
 18425 527a 2A       		.uleb128 0x2a
 18426 527b 02       		.uleb128 0x2
 18427 527c 90       		.byte	0x90
 18428 527d 41       		.uleb128 0x41
 18429 527e 03       		.uleb128 0x3
 18430 527f F5       		.byte	0xf5
 18431 5280 50       		.uleb128 0x50
 18432 5281 25       		.uleb128 0x25
 18433 5282 2A       		.uleb128 0x2a
 18434 5283 01       		.uleb128 0x1
 18435 5284 51       		.byte	0x51
 18436 5285 02       		.uleb128 0x2
 18437 5286 76       		.byte	0x76
 18438 5287 00       		.sleb128 0
 18439 5288 00       		.byte	0
 18440 5289 29       		.uleb128 0x29
 18441 528a A8010000 		.4byte	.LVL27
 18442 528e E15E0000 		.4byte	0x5ee1
 18443 5292 AB520000 		.4byte	0x52ab
 18444 5296 2A       		.uleb128 0x2a
 18445 5297 01       		.uleb128 0x1
 18446 5298 50       		.byte	0x50
 18447 5299 02       		.uleb128 0x2
 18448 529a 75       		.byte	0x75
 18449 529b 00       		.sleb128 0
 18450 529c 2A       		.uleb128 0x2a
 18451 529d 02       		.uleb128 0x2
 18452 529e 90       		.byte	0x90
 18453 529f 41       		.uleb128 0x41
 18454 52a0 03       		.uleb128 0x3
 18455 52a1 F5       		.byte	0xf5
 18456 52a2 50       		.uleb128 0x50
 18457 52a3 25       		.uleb128 0x25
 18458 52a4 2A       		.uleb128 0x2a
 18459 52a5 01       		.uleb128 0x1
 18460 52a6 51       		.byte	0x51
 18461 52a7 02       		.uleb128 0x2
 18462 52a8 76       		.byte	0x76
 18463 52a9 00       		.sleb128 0
 18464 52aa 00       		.byte	0
 18465 52ab 29       		.uleb128 0x29
 18466 52ac B8010000 		.4byte	.LVL28
 18467 52b0 E15E0000 		.4byte	0x5ee1
ARM GAS  /tmp/cc4M9ACW.s 			page 325


 18468 52b4 CD520000 		.4byte	0x52cd
 18469 52b8 2A       		.uleb128 0x2a
 18470 52b9 01       		.uleb128 0x1
 18471 52ba 50       		.byte	0x50
 18472 52bb 02       		.uleb128 0x2
 18473 52bc 75       		.byte	0x75
 18474 52bd 00       		.sleb128 0
 18475 52be 2A       		.uleb128 0x2a
 18476 52bf 02       		.uleb128 0x2
 18477 52c0 90       		.byte	0x90
 18478 52c1 41       		.uleb128 0x41
 18479 52c2 03       		.uleb128 0x3
 18480 52c3 F5       		.byte	0xf5
 18481 52c4 50       		.uleb128 0x50
 18482 52c5 25       		.uleb128 0x25
 18483 52c6 2A       		.uleb128 0x2a
 18484 52c7 01       		.uleb128 0x1
 18485 52c8 51       		.byte	0x51
 18486 52c9 02       		.uleb128 0x2
 18487 52ca 76       		.byte	0x76
 18488 52cb 00       		.sleb128 0
 18489 52cc 00       		.byte	0
 18490 52cd 29       		.uleb128 0x29
 18491 52ce C4010000 		.4byte	.LVL29
 18492 52d2 CB5E0000 		.4byte	0x5ecb
 18493 52d6 E7520000 		.4byte	0x52e7
 18494 52da 2A       		.uleb128 0x2a
 18495 52db 01       		.uleb128 0x1
 18496 52dc 50       		.byte	0x50
 18497 52dd 02       		.uleb128 0x2
 18498 52de 75       		.byte	0x75
 18499 52df 00       		.sleb128 0
 18500 52e0 2A       		.uleb128 0x2a
 18501 52e1 01       		.uleb128 0x1
 18502 52e2 51       		.byte	0x51
 18503 52e3 02       		.uleb128 0x2
 18504 52e4 76       		.byte	0x76
 18505 52e5 00       		.sleb128 0
 18506 52e6 00       		.byte	0
 18507 52e7 29       		.uleb128 0x29
 18508 52e8 D0010000 		.4byte	.LVL30
 18509 52ec CB5E0000 		.4byte	0x5ecb
 18510 52f0 01530000 		.4byte	0x5301
 18511 52f4 2A       		.uleb128 0x2a
 18512 52f5 01       		.uleb128 0x1
 18513 52f6 50       		.byte	0x50
 18514 52f7 02       		.uleb128 0x2
 18515 52f8 75       		.byte	0x75
 18516 52f9 00       		.sleb128 0
 18517 52fa 2A       		.uleb128 0x2a
 18518 52fb 01       		.uleb128 0x1
 18519 52fc 51       		.byte	0x51
 18520 52fd 02       		.uleb128 0x2
 18521 52fe 76       		.byte	0x76
 18522 52ff 00       		.sleb128 0
 18523 5300 00       		.byte	0
 18524 5301 29       		.uleb128 0x29
ARM GAS  /tmp/cc4M9ACW.s 			page 326


 18525 5302 DC010000 		.4byte	.LVL31
 18526 5306 CB5E0000 		.4byte	0x5ecb
 18527 530a 1B530000 		.4byte	0x531b
 18528 530e 2A       		.uleb128 0x2a
 18529 530f 01       		.uleb128 0x1
 18530 5310 50       		.byte	0x50
 18531 5311 02       		.uleb128 0x2
 18532 5312 75       		.byte	0x75
 18533 5313 00       		.sleb128 0
 18534 5314 2A       		.uleb128 0x2a
 18535 5315 01       		.uleb128 0x1
 18536 5316 51       		.byte	0x51
 18537 5317 02       		.uleb128 0x2
 18538 5318 76       		.byte	0x76
 18539 5319 00       		.sleb128 0
 18540 531a 00       		.byte	0
 18541 531b 29       		.uleb128 0x29
 18542 531c EC010000 		.4byte	.LVL32
 18543 5320 E15E0000 		.4byte	0x5ee1
 18544 5324 41530000 		.4byte	0x5341
 18545 5328 2A       		.uleb128 0x2a
 18546 5329 01       		.uleb128 0x1
 18547 532a 50       		.byte	0x50
 18548 532b 02       		.uleb128 0x2
 18549 532c 75       		.byte	0x75
 18550 532d 00       		.sleb128 0
 18551 532e 2A       		.uleb128 0x2a
 18552 532f 02       		.uleb128 0x2
 18553 5330 90       		.byte	0x90
 18554 5331 41       		.uleb128 0x41
 18555 5332 07       		.uleb128 0x7
 18556 5333 F4       		.byte	0xf4
 18557 5334 25       		.uleb128 0x25
 18558 5335 04       		.byte	0x4
 18559 5336 00002041 		.4byte	0x41200000
 18560 533a 2A       		.uleb128 0x2a
 18561 533b 01       		.uleb128 0x1
 18562 533c 51       		.byte	0x51
 18563 533d 02       		.uleb128 0x2
 18564 533e 76       		.byte	0x76
 18565 533f 00       		.sleb128 0
 18566 5340 00       		.byte	0
 18567 5341 29       		.uleb128 0x29
 18568 5342 FC010000 		.4byte	.LVL33
 18569 5346 E15E0000 		.4byte	0x5ee1
 18570 534a 63530000 		.4byte	0x5363
 18571 534e 2A       		.uleb128 0x2a
 18572 534f 01       		.uleb128 0x1
 18573 5350 50       		.byte	0x50
 18574 5351 02       		.uleb128 0x2
 18575 5352 75       		.byte	0x75
 18576 5353 00       		.sleb128 0
 18577 5354 2A       		.uleb128 0x2a
 18578 5355 02       		.uleb128 0x2
 18579 5356 90       		.byte	0x90
 18580 5357 41       		.uleb128 0x41
 18581 5358 03       		.uleb128 0x3
ARM GAS  /tmp/cc4M9ACW.s 			page 327


 18582 5359 F5       		.byte	0xf5
 18583 535a 50       		.uleb128 0x50
 18584 535b 25       		.uleb128 0x25
 18585 535c 2A       		.uleb128 0x2a
 18586 535d 01       		.uleb128 0x1
 18587 535e 51       		.byte	0x51
 18588 535f 02       		.uleb128 0x2
 18589 5360 76       		.byte	0x76
 18590 5361 00       		.sleb128 0
 18591 5362 00       		.byte	0
 18592 5363 29       		.uleb128 0x29
 18593 5364 08020000 		.4byte	.LVL34
 18594 5368 CB5E0000 		.4byte	0x5ecb
 18595 536c 7D530000 		.4byte	0x537d
 18596 5370 2A       		.uleb128 0x2a
 18597 5371 01       		.uleb128 0x1
 18598 5372 50       		.byte	0x50
 18599 5373 02       		.uleb128 0x2
 18600 5374 75       		.byte	0x75
 18601 5375 00       		.sleb128 0
 18602 5376 2A       		.uleb128 0x2a
 18603 5377 01       		.uleb128 0x1
 18604 5378 51       		.byte	0x51
 18605 5379 02       		.uleb128 0x2
 18606 537a 76       		.byte	0x76
 18607 537b 00       		.sleb128 0
 18608 537c 00       		.byte	0
 18609 537d 29       		.uleb128 0x29
 18610 537e 14020000 		.4byte	.LVL35
 18611 5382 CB5E0000 		.4byte	0x5ecb
 18612 5386 97530000 		.4byte	0x5397
 18613 538a 2A       		.uleb128 0x2a
 18614 538b 01       		.uleb128 0x1
 18615 538c 50       		.byte	0x50
 18616 538d 02       		.uleb128 0x2
 18617 538e 75       		.byte	0x75
 18618 538f 00       		.sleb128 0
 18619 5390 2A       		.uleb128 0x2a
 18620 5391 01       		.uleb128 0x1
 18621 5392 51       		.byte	0x51
 18622 5393 02       		.uleb128 0x2
 18623 5394 76       		.byte	0x76
 18624 5395 00       		.sleb128 0
 18625 5396 00       		.byte	0
 18626 5397 29       		.uleb128 0x29
 18627 5398 58020000 		.4byte	.LVL36
 18628 539c CB5E0000 		.4byte	0x5ecb
 18629 53a0 B1530000 		.4byte	0x53b1
 18630 53a4 2A       		.uleb128 0x2a
 18631 53a5 01       		.uleb128 0x1
 18632 53a6 50       		.byte	0x50
 18633 53a7 02       		.uleb128 0x2
 18634 53a8 75       		.byte	0x75
 18635 53a9 00       		.sleb128 0
 18636 53aa 2A       		.uleb128 0x2a
 18637 53ab 01       		.uleb128 0x1
 18638 53ac 51       		.byte	0x51
ARM GAS  /tmp/cc4M9ACW.s 			page 328


 18639 53ad 02       		.uleb128 0x2
 18640 53ae 76       		.byte	0x76
 18641 53af 00       		.sleb128 0
 18642 53b0 00       		.byte	0
 18643 53b1 29       		.uleb128 0x29
 18644 53b2 64020000 		.4byte	.LVL37
 18645 53b6 CB5E0000 		.4byte	0x5ecb
 18646 53ba CB530000 		.4byte	0x53cb
 18647 53be 2A       		.uleb128 0x2a
 18648 53bf 01       		.uleb128 0x1
 18649 53c0 50       		.byte	0x50
 18650 53c1 02       		.uleb128 0x2
 18651 53c2 75       		.byte	0x75
 18652 53c3 00       		.sleb128 0
 18653 53c4 2A       		.uleb128 0x2a
 18654 53c5 01       		.uleb128 0x1
 18655 53c6 51       		.byte	0x51
 18656 53c7 02       		.uleb128 0x2
 18657 53c8 76       		.byte	0x76
 18658 53c9 00       		.sleb128 0
 18659 53ca 00       		.byte	0
 18660 53cb 29       		.uleb128 0x29
 18661 53cc 70020000 		.4byte	.LVL38
 18662 53d0 CB5E0000 		.4byte	0x5ecb
 18663 53d4 E5530000 		.4byte	0x53e5
 18664 53d8 2A       		.uleb128 0x2a
 18665 53d9 01       		.uleb128 0x1
 18666 53da 50       		.byte	0x50
 18667 53db 02       		.uleb128 0x2
 18668 53dc 75       		.byte	0x75
 18669 53dd 00       		.sleb128 0
 18670 53de 2A       		.uleb128 0x2a
 18671 53df 01       		.uleb128 0x1
 18672 53e0 51       		.byte	0x51
 18673 53e1 02       		.uleb128 0x2
 18674 53e2 76       		.byte	0x76
 18675 53e3 00       		.sleb128 0
 18676 53e4 00       		.byte	0
 18677 53e5 29       		.uleb128 0x29
 18678 53e6 7C020000 		.4byte	.LVL39
 18679 53ea CB5E0000 		.4byte	0x5ecb
 18680 53ee FF530000 		.4byte	0x53ff
 18681 53f2 2A       		.uleb128 0x2a
 18682 53f3 01       		.uleb128 0x1
 18683 53f4 50       		.byte	0x50
 18684 53f5 02       		.uleb128 0x2
 18685 53f6 75       		.byte	0x75
 18686 53f7 00       		.sleb128 0
 18687 53f8 2A       		.uleb128 0x2a
 18688 53f9 01       		.uleb128 0x1
 18689 53fa 51       		.byte	0x51
 18690 53fb 02       		.uleb128 0x2
 18691 53fc 76       		.byte	0x76
 18692 53fd 00       		.sleb128 0
 18693 53fe 00       		.byte	0
 18694 53ff 29       		.uleb128 0x29
 18695 5400 88020000 		.4byte	.LVL40
ARM GAS  /tmp/cc4M9ACW.s 			page 329


 18696 5404 CB5E0000 		.4byte	0x5ecb
 18697 5408 19540000 		.4byte	0x5419
 18698 540c 2A       		.uleb128 0x2a
 18699 540d 01       		.uleb128 0x1
 18700 540e 50       		.byte	0x50
 18701 540f 02       		.uleb128 0x2
 18702 5410 75       		.byte	0x75
 18703 5411 00       		.sleb128 0
 18704 5412 2A       		.uleb128 0x2a
 18705 5413 01       		.uleb128 0x1
 18706 5414 51       		.byte	0x51
 18707 5415 02       		.uleb128 0x2
 18708 5416 76       		.byte	0x76
 18709 5417 00       		.sleb128 0
 18710 5418 00       		.byte	0
 18711 5419 29       		.uleb128 0x29
 18712 541a A0020000 		.4byte	.LVL41
 18713 541e CB5E0000 		.4byte	0x5ecb
 18714 5422 33540000 		.4byte	0x5433
 18715 5426 2A       		.uleb128 0x2a
 18716 5427 01       		.uleb128 0x1
 18717 5428 50       		.byte	0x50
 18718 5429 02       		.uleb128 0x2
 18719 542a 75       		.byte	0x75
 18720 542b 00       		.sleb128 0
 18721 542c 2A       		.uleb128 0x2a
 18722 542d 01       		.uleb128 0x1
 18723 542e 51       		.byte	0x51
 18724 542f 02       		.uleb128 0x2
 18725 5430 76       		.byte	0x76
 18726 5431 00       		.sleb128 0
 18727 5432 00       		.byte	0
 18728 5433 29       		.uleb128 0x29
 18729 5434 AC020000 		.4byte	.LVL42
 18730 5438 CB5E0000 		.4byte	0x5ecb
 18731 543c 4D540000 		.4byte	0x544d
 18732 5440 2A       		.uleb128 0x2a
 18733 5441 01       		.uleb128 0x1
 18734 5442 50       		.byte	0x50
 18735 5443 02       		.uleb128 0x2
 18736 5444 75       		.byte	0x75
 18737 5445 00       		.sleb128 0
 18738 5446 2A       		.uleb128 0x2a
 18739 5447 01       		.uleb128 0x1
 18740 5448 51       		.byte	0x51
 18741 5449 02       		.uleb128 0x2
 18742 544a 76       		.byte	0x76
 18743 544b 00       		.sleb128 0
 18744 544c 00       		.byte	0
 18745 544d 29       		.uleb128 0x29
 18746 544e B8020000 		.4byte	.LVL43
 18747 5452 CB5E0000 		.4byte	0x5ecb
 18748 5456 67540000 		.4byte	0x5467
 18749 545a 2A       		.uleb128 0x2a
 18750 545b 01       		.uleb128 0x1
 18751 545c 50       		.byte	0x50
 18752 545d 02       		.uleb128 0x2
ARM GAS  /tmp/cc4M9ACW.s 			page 330


 18753 545e 75       		.byte	0x75
 18754 545f 00       		.sleb128 0
 18755 5460 2A       		.uleb128 0x2a
 18756 5461 01       		.uleb128 0x1
 18757 5462 51       		.byte	0x51
 18758 5463 02       		.uleb128 0x2
 18759 5464 76       		.byte	0x76
 18760 5465 00       		.sleb128 0
 18761 5466 00       		.byte	0
 18762 5467 29       		.uleb128 0x29
 18763 5468 C4020000 		.4byte	.LVL44
 18764 546c CB5E0000 		.4byte	0x5ecb
 18765 5470 81540000 		.4byte	0x5481
 18766 5474 2A       		.uleb128 0x2a
 18767 5475 01       		.uleb128 0x1
 18768 5476 50       		.byte	0x50
 18769 5477 02       		.uleb128 0x2
 18770 5478 75       		.byte	0x75
 18771 5479 00       		.sleb128 0
 18772 547a 2A       		.uleb128 0x2a
 18773 547b 01       		.uleb128 0x1
 18774 547c 51       		.byte	0x51
 18775 547d 02       		.uleb128 0x2
 18776 547e 76       		.byte	0x76
 18777 547f 00       		.sleb128 0
 18778 5480 00       		.byte	0
 18779 5481 29       		.uleb128 0x29
 18780 5482 D0020000 		.4byte	.LVL45
 18781 5486 CB5E0000 		.4byte	0x5ecb
 18782 548a 9B540000 		.4byte	0x549b
 18783 548e 2A       		.uleb128 0x2a
 18784 548f 01       		.uleb128 0x1
 18785 5490 50       		.byte	0x50
 18786 5491 02       		.uleb128 0x2
 18787 5492 75       		.byte	0x75
 18788 5493 00       		.sleb128 0
 18789 5494 2A       		.uleb128 0x2a
 18790 5495 01       		.uleb128 0x1
 18791 5496 51       		.byte	0x51
 18792 5497 02       		.uleb128 0x2
 18793 5498 76       		.byte	0x76
 18794 5499 00       		.sleb128 0
 18795 549a 00       		.byte	0
 18796 549b 29       		.uleb128 0x29
 18797 549c DC020000 		.4byte	.LVL46
 18798 54a0 CB5E0000 		.4byte	0x5ecb
 18799 54a4 B5540000 		.4byte	0x54b5
 18800 54a8 2A       		.uleb128 0x2a
 18801 54a9 01       		.uleb128 0x1
 18802 54aa 50       		.byte	0x50
 18803 54ab 02       		.uleb128 0x2
 18804 54ac 75       		.byte	0x75
 18805 54ad 00       		.sleb128 0
 18806 54ae 2A       		.uleb128 0x2a
 18807 54af 01       		.uleb128 0x1
 18808 54b0 51       		.byte	0x51
 18809 54b1 02       		.uleb128 0x2
ARM GAS  /tmp/cc4M9ACW.s 			page 331


 18810 54b2 76       		.byte	0x76
 18811 54b3 00       		.sleb128 0
 18812 54b4 00       		.byte	0
 18813 54b5 29       		.uleb128 0x29
 18814 54b6 E8020000 		.4byte	.LVL47
 18815 54ba CB5E0000 		.4byte	0x5ecb
 18816 54be CF540000 		.4byte	0x54cf
 18817 54c2 2A       		.uleb128 0x2a
 18818 54c3 01       		.uleb128 0x1
 18819 54c4 50       		.byte	0x50
 18820 54c5 02       		.uleb128 0x2
 18821 54c6 75       		.byte	0x75
 18822 54c7 00       		.sleb128 0
 18823 54c8 2A       		.uleb128 0x2a
 18824 54c9 01       		.uleb128 0x1
 18825 54ca 51       		.byte	0x51
 18826 54cb 02       		.uleb128 0x2
 18827 54cc 76       		.byte	0x76
 18828 54cd 00       		.sleb128 0
 18829 54ce 00       		.byte	0
 18830 54cf 29       		.uleb128 0x29
 18831 54d0 00030000 		.4byte	.LVL48
 18832 54d4 CB5E0000 		.4byte	0x5ecb
 18833 54d8 E9540000 		.4byte	0x54e9
 18834 54dc 2A       		.uleb128 0x2a
 18835 54dd 01       		.uleb128 0x1
 18836 54de 50       		.byte	0x50
 18837 54df 02       		.uleb128 0x2
 18838 54e0 75       		.byte	0x75
 18839 54e1 00       		.sleb128 0
 18840 54e2 2A       		.uleb128 0x2a
 18841 54e3 01       		.uleb128 0x1
 18842 54e4 51       		.byte	0x51
 18843 54e5 02       		.uleb128 0x2
 18844 54e6 76       		.byte	0x76
 18845 54e7 00       		.sleb128 0
 18846 54e8 00       		.byte	0
 18847 54e9 29       		.uleb128 0x29
 18848 54ea 0C030000 		.4byte	.LVL49
 18849 54ee CB5E0000 		.4byte	0x5ecb
 18850 54f2 03550000 		.4byte	0x5503
 18851 54f6 2A       		.uleb128 0x2a
 18852 54f7 01       		.uleb128 0x1
 18853 54f8 50       		.byte	0x50
 18854 54f9 02       		.uleb128 0x2
 18855 54fa 75       		.byte	0x75
 18856 54fb 00       		.sleb128 0
 18857 54fc 2A       		.uleb128 0x2a
 18858 54fd 01       		.uleb128 0x1
 18859 54fe 51       		.byte	0x51
 18860 54ff 02       		.uleb128 0x2
 18861 5500 76       		.byte	0x76
 18862 5501 00       		.sleb128 0
 18863 5502 00       		.byte	0
 18864 5503 29       		.uleb128 0x29
 18865 5504 18030000 		.4byte	.LVL50
 18866 5508 CB5E0000 		.4byte	0x5ecb
ARM GAS  /tmp/cc4M9ACW.s 			page 332


 18867 550c 1D550000 		.4byte	0x551d
 18868 5510 2A       		.uleb128 0x2a
 18869 5511 01       		.uleb128 0x1
 18870 5512 50       		.byte	0x50
 18871 5513 02       		.uleb128 0x2
 18872 5514 75       		.byte	0x75
 18873 5515 00       		.sleb128 0
 18874 5516 2A       		.uleb128 0x2a
 18875 5517 01       		.uleb128 0x1
 18876 5518 51       		.byte	0x51
 18877 5519 02       		.uleb128 0x2
 18878 551a 76       		.byte	0x76
 18879 551b 00       		.sleb128 0
 18880 551c 00       		.byte	0
 18881 551d 29       		.uleb128 0x29
 18882 551e 24030000 		.4byte	.LVL51
 18883 5522 CB5E0000 		.4byte	0x5ecb
 18884 5526 37550000 		.4byte	0x5537
 18885 552a 2A       		.uleb128 0x2a
 18886 552b 01       		.uleb128 0x1
 18887 552c 50       		.byte	0x50
 18888 552d 02       		.uleb128 0x2
 18889 552e 75       		.byte	0x75
 18890 552f 00       		.sleb128 0
 18891 5530 2A       		.uleb128 0x2a
 18892 5531 01       		.uleb128 0x1
 18893 5532 51       		.byte	0x51
 18894 5533 02       		.uleb128 0x2
 18895 5534 76       		.byte	0x76
 18896 5535 00       		.sleb128 0
 18897 5536 00       		.byte	0
 18898 5537 29       		.uleb128 0x29
 18899 5538 30030000 		.4byte	.LVL52
 18900 553c CB5E0000 		.4byte	0x5ecb
 18901 5540 51550000 		.4byte	0x5551
 18902 5544 2A       		.uleb128 0x2a
 18903 5545 01       		.uleb128 0x1
 18904 5546 50       		.byte	0x50
 18905 5547 02       		.uleb128 0x2
 18906 5548 75       		.byte	0x75
 18907 5549 00       		.sleb128 0
 18908 554a 2A       		.uleb128 0x2a
 18909 554b 01       		.uleb128 0x1
 18910 554c 51       		.byte	0x51
 18911 554d 02       		.uleb128 0x2
 18912 554e 76       		.byte	0x76
 18913 554f 00       		.sleb128 0
 18914 5550 00       		.byte	0
 18915 5551 29       		.uleb128 0x29
 18916 5552 3C030000 		.4byte	.LVL53
 18917 5556 CB5E0000 		.4byte	0x5ecb
 18918 555a 6B550000 		.4byte	0x556b
 18919 555e 2A       		.uleb128 0x2a
 18920 555f 01       		.uleb128 0x1
 18921 5560 50       		.byte	0x50
 18922 5561 02       		.uleb128 0x2
 18923 5562 75       		.byte	0x75
ARM GAS  /tmp/cc4M9ACW.s 			page 333


 18924 5563 00       		.sleb128 0
 18925 5564 2A       		.uleb128 0x2a
 18926 5565 01       		.uleb128 0x1
 18927 5566 51       		.byte	0x51
 18928 5567 02       		.uleb128 0x2
 18929 5568 76       		.byte	0x76
 18930 5569 00       		.sleb128 0
 18931 556a 00       		.byte	0
 18932 556b 29       		.uleb128 0x29
 18933 556c 48030000 		.4byte	.LVL54
 18934 5570 CB5E0000 		.4byte	0x5ecb
 18935 5574 85550000 		.4byte	0x5585
 18936 5578 2A       		.uleb128 0x2a
 18937 5579 01       		.uleb128 0x1
 18938 557a 50       		.byte	0x50
 18939 557b 02       		.uleb128 0x2
 18940 557c 75       		.byte	0x75
 18941 557d 00       		.sleb128 0
 18942 557e 2A       		.uleb128 0x2a
 18943 557f 01       		.uleb128 0x1
 18944 5580 51       		.byte	0x51
 18945 5581 02       		.uleb128 0x2
 18946 5582 76       		.byte	0x76
 18947 5583 00       		.sleb128 0
 18948 5584 00       		.byte	0
 18949 5585 29       		.uleb128 0x29
 18950 5586 54030000 		.4byte	.LVL55
 18951 558a CB5E0000 		.4byte	0x5ecb
 18952 558e 9F550000 		.4byte	0x559f
 18953 5592 2A       		.uleb128 0x2a
 18954 5593 01       		.uleb128 0x1
 18955 5594 50       		.byte	0x50
 18956 5595 02       		.uleb128 0x2
 18957 5596 75       		.byte	0x75
 18958 5597 00       		.sleb128 0
 18959 5598 2A       		.uleb128 0x2a
 18960 5599 01       		.uleb128 0x1
 18961 559a 51       		.byte	0x51
 18962 559b 02       		.uleb128 0x2
 18963 559c 76       		.byte	0x76
 18964 559d 00       		.sleb128 0
 18965 559e 00       		.byte	0
 18966 559f 29       		.uleb128 0x29
 18967 55a0 64030000 		.4byte	.LVL56
 18968 55a4 E15E0000 		.4byte	0x5ee1
 18969 55a8 C1550000 		.4byte	0x55c1
 18970 55ac 2A       		.uleb128 0x2a
 18971 55ad 01       		.uleb128 0x1
 18972 55ae 50       		.byte	0x50
 18973 55af 02       		.uleb128 0x2
 18974 55b0 75       		.byte	0x75
 18975 55b1 00       		.sleb128 0
 18976 55b2 2A       		.uleb128 0x2a
 18977 55b3 02       		.uleb128 0x2
 18978 55b4 90       		.byte	0x90
 18979 55b5 41       		.uleb128 0x41
 18980 55b6 03       		.uleb128 0x3
ARM GAS  /tmp/cc4M9ACW.s 			page 334


 18981 55b7 F5       		.byte	0xf5
 18982 55b8 52       		.uleb128 0x52
 18983 55b9 25       		.uleb128 0x25
 18984 55ba 2A       		.uleb128 0x2a
 18985 55bb 01       		.uleb128 0x1
 18986 55bc 51       		.byte	0x51
 18987 55bd 02       		.uleb128 0x2
 18988 55be 76       		.byte	0x76
 18989 55bf 00       		.sleb128 0
 18990 55c0 00       		.byte	0
 18991 55c1 29       		.uleb128 0x29
 18992 55c2 70030000 		.4byte	.LVL57
 18993 55c6 CB5E0000 		.4byte	0x5ecb
 18994 55ca DB550000 		.4byte	0x55db
 18995 55ce 2A       		.uleb128 0x2a
 18996 55cf 01       		.uleb128 0x1
 18997 55d0 50       		.byte	0x50
 18998 55d1 02       		.uleb128 0x2
 18999 55d2 75       		.byte	0x75
 19000 55d3 00       		.sleb128 0
 19001 55d4 2A       		.uleb128 0x2a
 19002 55d5 01       		.uleb128 0x1
 19003 55d6 51       		.byte	0x51
 19004 55d7 02       		.uleb128 0x2
 19005 55d8 76       		.byte	0x76
 19006 55d9 00       		.sleb128 0
 19007 55da 00       		.byte	0
 19008 55db 29       		.uleb128 0x29
 19009 55dc 7C030000 		.4byte	.LVL58
 19010 55e0 CB5E0000 		.4byte	0x5ecb
 19011 55e4 F5550000 		.4byte	0x55f5
 19012 55e8 2A       		.uleb128 0x2a
 19013 55e9 01       		.uleb128 0x1
 19014 55ea 50       		.byte	0x50
 19015 55eb 02       		.uleb128 0x2
 19016 55ec 75       		.byte	0x75
 19017 55ed 00       		.sleb128 0
 19018 55ee 2A       		.uleb128 0x2a
 19019 55ef 01       		.uleb128 0x1
 19020 55f0 51       		.byte	0x51
 19021 55f1 02       		.uleb128 0x2
 19022 55f2 76       		.byte	0x76
 19023 55f3 00       		.sleb128 0
 19024 55f4 00       		.byte	0
 19025 55f5 29       		.uleb128 0x29
 19026 55f6 88030000 		.4byte	.LVL59
 19027 55fa CB5E0000 		.4byte	0x5ecb
 19028 55fe 0F560000 		.4byte	0x560f
 19029 5602 2A       		.uleb128 0x2a
 19030 5603 01       		.uleb128 0x1
 19031 5604 50       		.byte	0x50
 19032 5605 02       		.uleb128 0x2
 19033 5606 75       		.byte	0x75
 19034 5607 00       		.sleb128 0
 19035 5608 2A       		.uleb128 0x2a
 19036 5609 01       		.uleb128 0x1
 19037 560a 51       		.byte	0x51
ARM GAS  /tmp/cc4M9ACW.s 			page 335


 19038 560b 02       		.uleb128 0x2
 19039 560c 76       		.byte	0x76
 19040 560d 00       		.sleb128 0
 19041 560e 00       		.byte	0
 19042 560f 29       		.uleb128 0x29
 19043 5610 98030000 		.4byte	.LVL60
 19044 5614 E15E0000 		.4byte	0x5ee1
 19045 5618 31560000 		.4byte	0x5631
 19046 561c 2A       		.uleb128 0x2a
 19047 561d 01       		.uleb128 0x1
 19048 561e 50       		.byte	0x50
 19049 561f 02       		.uleb128 0x2
 19050 5620 75       		.byte	0x75
 19051 5621 00       		.sleb128 0
 19052 5622 2A       		.uleb128 0x2a
 19053 5623 02       		.uleb128 0x2
 19054 5624 90       		.byte	0x90
 19055 5625 41       		.uleb128 0x41
 19056 5626 03       		.uleb128 0x3
 19057 5627 F5       		.byte	0xf5
 19058 5628 52       		.uleb128 0x52
 19059 5629 25       		.uleb128 0x25
 19060 562a 2A       		.uleb128 0x2a
 19061 562b 01       		.uleb128 0x1
 19062 562c 51       		.byte	0x51
 19063 562d 02       		.uleb128 0x2
 19064 562e 76       		.byte	0x76
 19065 562f 00       		.sleb128 0
 19066 5630 00       		.byte	0
 19067 5631 29       		.uleb128 0x29
 19068 5632 A4030000 		.4byte	.LVL61
 19069 5636 CB5E0000 		.4byte	0x5ecb
 19070 563a 4B560000 		.4byte	0x564b
 19071 563e 2A       		.uleb128 0x2a
 19072 563f 01       		.uleb128 0x1
 19073 5640 50       		.byte	0x50
 19074 5641 02       		.uleb128 0x2
 19075 5642 75       		.byte	0x75
 19076 5643 00       		.sleb128 0
 19077 5644 2A       		.uleb128 0x2a
 19078 5645 01       		.uleb128 0x1
 19079 5646 51       		.byte	0x51
 19080 5647 02       		.uleb128 0x2
 19081 5648 76       		.byte	0x76
 19082 5649 00       		.sleb128 0
 19083 564a 00       		.byte	0
 19084 564b 29       		.uleb128 0x29
 19085 564c B0030000 		.4byte	.LVL62
 19086 5650 CB5E0000 		.4byte	0x5ecb
 19087 5654 65560000 		.4byte	0x5665
 19088 5658 2A       		.uleb128 0x2a
 19089 5659 01       		.uleb128 0x1
 19090 565a 50       		.byte	0x50
 19091 565b 02       		.uleb128 0x2
 19092 565c 75       		.byte	0x75
 19093 565d 00       		.sleb128 0
 19094 565e 2A       		.uleb128 0x2a
ARM GAS  /tmp/cc4M9ACW.s 			page 336


 19095 565f 01       		.uleb128 0x1
 19096 5660 51       		.byte	0x51
 19097 5661 02       		.uleb128 0x2
 19098 5662 76       		.byte	0x76
 19099 5663 00       		.sleb128 0
 19100 5664 00       		.byte	0
 19101 5665 29       		.uleb128 0x29
 19102 5666 C0030000 		.4byte	.LVL63
 19103 566a E15E0000 		.4byte	0x5ee1
 19104 566e 87560000 		.4byte	0x5687
 19105 5672 2A       		.uleb128 0x2a
 19106 5673 01       		.uleb128 0x1
 19107 5674 50       		.byte	0x50
 19108 5675 02       		.uleb128 0x2
 19109 5676 75       		.byte	0x75
 19110 5677 00       		.sleb128 0
 19111 5678 2A       		.uleb128 0x2a
 19112 5679 02       		.uleb128 0x2
 19113 567a 90       		.byte	0x90
 19114 567b 41       		.uleb128 0x41
 19115 567c 03       		.uleb128 0x3
 19116 567d F5       		.byte	0xf5
 19117 567e 51       		.uleb128 0x51
 19118 567f 25       		.uleb128 0x25
 19119 5680 2A       		.uleb128 0x2a
 19120 5681 01       		.uleb128 0x1
 19121 5682 51       		.byte	0x51
 19122 5683 02       		.uleb128 0x2
 19123 5684 76       		.byte	0x76
 19124 5685 00       		.sleb128 0
 19125 5686 00       		.byte	0
 19126 5687 29       		.uleb128 0x29
 19127 5688 D0030000 		.4byte	.LVL64
 19128 568c E15E0000 		.4byte	0x5ee1
 19129 5690 A9560000 		.4byte	0x56a9
 19130 5694 2A       		.uleb128 0x2a
 19131 5695 01       		.uleb128 0x1
 19132 5696 50       		.byte	0x50
 19133 5697 02       		.uleb128 0x2
 19134 5698 75       		.byte	0x75
 19135 5699 00       		.sleb128 0
 19136 569a 2A       		.uleb128 0x2a
 19137 569b 02       		.uleb128 0x2
 19138 569c 90       		.byte	0x90
 19139 569d 41       		.uleb128 0x41
 19140 569e 03       		.uleb128 0x3
 19141 569f F5       		.byte	0xf5
 19142 56a0 51       		.uleb128 0x51
 19143 56a1 25       		.uleb128 0x25
 19144 56a2 2A       		.uleb128 0x2a
 19145 56a3 01       		.uleb128 0x1
 19146 56a4 51       		.byte	0x51
 19147 56a5 02       		.uleb128 0x2
 19148 56a6 76       		.byte	0x76
 19149 56a7 00       		.sleb128 0
 19150 56a8 00       		.byte	0
 19151 56a9 29       		.uleb128 0x29
ARM GAS  /tmp/cc4M9ACW.s 			page 337


 19152 56aa E0030000 		.4byte	.LVL65
 19153 56ae E15E0000 		.4byte	0x5ee1
 19154 56b2 CB560000 		.4byte	0x56cb
 19155 56b6 2A       		.uleb128 0x2a
 19156 56b7 01       		.uleb128 0x1
 19157 56b8 50       		.byte	0x50
 19158 56b9 02       		.uleb128 0x2
 19159 56ba 75       		.byte	0x75
 19160 56bb 00       		.sleb128 0
 19161 56bc 2A       		.uleb128 0x2a
 19162 56bd 02       		.uleb128 0x2
 19163 56be 90       		.byte	0x90
 19164 56bf 41       		.uleb128 0x41
 19165 56c0 03       		.uleb128 0x3
 19166 56c1 F5       		.byte	0xf5
 19167 56c2 51       		.uleb128 0x51
 19168 56c3 25       		.uleb128 0x25
 19169 56c4 2A       		.uleb128 0x2a
 19170 56c5 01       		.uleb128 0x1
 19171 56c6 51       		.byte	0x51
 19172 56c7 02       		.uleb128 0x2
 19173 56c8 76       		.byte	0x76
 19174 56c9 00       		.sleb128 0
 19175 56ca 00       		.byte	0
 19176 56cb 29       		.uleb128 0x29
 19177 56cc F0030000 		.4byte	.LVL66
 19178 56d0 E15E0000 		.4byte	0x5ee1
 19179 56d4 ED560000 		.4byte	0x56ed
 19180 56d8 2A       		.uleb128 0x2a
 19181 56d9 01       		.uleb128 0x1
 19182 56da 50       		.byte	0x50
 19183 56db 02       		.uleb128 0x2
 19184 56dc 75       		.byte	0x75
 19185 56dd 00       		.sleb128 0
 19186 56de 2A       		.uleb128 0x2a
 19187 56df 02       		.uleb128 0x2
 19188 56e0 90       		.byte	0x90
 19189 56e1 41       		.uleb128 0x41
 19190 56e2 03       		.uleb128 0x3
 19191 56e3 F5       		.byte	0xf5
 19192 56e4 51       		.uleb128 0x51
 19193 56e5 25       		.uleb128 0x25
 19194 56e6 2A       		.uleb128 0x2a
 19195 56e7 01       		.uleb128 0x1
 19196 56e8 51       		.byte	0x51
 19197 56e9 02       		.uleb128 0x2
 19198 56ea 76       		.byte	0x76
 19199 56eb 00       		.sleb128 0
 19200 56ec 00       		.byte	0
 19201 56ed 29       		.uleb128 0x29
 19202 56ee 46040000 		.4byte	.LVL67
 19203 56f2 CB5E0000 		.4byte	0x5ecb
 19204 56f6 07570000 		.4byte	0x5707
 19205 56fa 2A       		.uleb128 0x2a
 19206 56fb 01       		.uleb128 0x1
 19207 56fc 50       		.byte	0x50
 19208 56fd 02       		.uleb128 0x2
ARM GAS  /tmp/cc4M9ACW.s 			page 338


 19209 56fe 75       		.byte	0x75
 19210 56ff 00       		.sleb128 0
 19211 5700 2A       		.uleb128 0x2a
 19212 5701 01       		.uleb128 0x1
 19213 5702 51       		.byte	0x51
 19214 5703 02       		.uleb128 0x2
 19215 5704 76       		.byte	0x76
 19216 5705 00       		.sleb128 0
 19217 5706 00       		.byte	0
 19218 5707 29       		.uleb128 0x29
 19219 5708 52040000 		.4byte	.LVL68
 19220 570c CB5E0000 		.4byte	0x5ecb
 19221 5710 21570000 		.4byte	0x5721
 19222 5714 2A       		.uleb128 0x2a
 19223 5715 01       		.uleb128 0x1
 19224 5716 50       		.byte	0x50
 19225 5717 02       		.uleb128 0x2
 19226 5718 75       		.byte	0x75
 19227 5719 00       		.sleb128 0
 19228 571a 2A       		.uleb128 0x2a
 19229 571b 01       		.uleb128 0x1
 19230 571c 51       		.byte	0x51
 19231 571d 02       		.uleb128 0x2
 19232 571e 76       		.byte	0x76
 19233 571f 00       		.sleb128 0
 19234 5720 00       		.byte	0
 19235 5721 29       		.uleb128 0x29
 19236 5722 76040000 		.4byte	.LVL69
 19237 5726 E15E0000 		.4byte	0x5ee1
 19238 572a 43570000 		.4byte	0x5743
 19239 572e 2A       		.uleb128 0x2a
 19240 572f 01       		.uleb128 0x1
 19241 5730 50       		.byte	0x50
 19242 5731 02       		.uleb128 0x2
 19243 5732 75       		.byte	0x75
 19244 5733 00       		.sleb128 0
 19245 5734 2A       		.uleb128 0x2a
 19246 5735 02       		.uleb128 0x2
 19247 5736 90       		.byte	0x90
 19248 5737 41       		.uleb128 0x41
 19249 5738 03       		.uleb128 0x3
 19250 5739 F5       		.byte	0xf5
 19251 573a 52       		.uleb128 0x52
 19252 573b 25       		.uleb128 0x25
 19253 573c 2A       		.uleb128 0x2a
 19254 573d 01       		.uleb128 0x1
 19255 573e 51       		.byte	0x51
 19256 573f 02       		.uleb128 0x2
 19257 5740 76       		.byte	0x76
 19258 5741 00       		.sleb128 0
 19259 5742 00       		.byte	0
 19260 5743 29       		.uleb128 0x29
 19261 5744 92040000 		.4byte	.LVL70
 19262 5748 E15E0000 		.4byte	0x5ee1
 19263 574c 65570000 		.4byte	0x5765
 19264 5750 2A       		.uleb128 0x2a
 19265 5751 01       		.uleb128 0x1
ARM GAS  /tmp/cc4M9ACW.s 			page 339


 19266 5752 50       		.byte	0x50
 19267 5753 02       		.uleb128 0x2
 19268 5754 75       		.byte	0x75
 19269 5755 00       		.sleb128 0
 19270 5756 2A       		.uleb128 0x2a
 19271 5757 02       		.uleb128 0x2
 19272 5758 90       		.byte	0x90
 19273 5759 41       		.uleb128 0x41
 19274 575a 03       		.uleb128 0x3
 19275 575b F5       		.byte	0xf5
 19276 575c 51       		.uleb128 0x51
 19277 575d 25       		.uleb128 0x25
 19278 575e 2A       		.uleb128 0x2a
 19279 575f 01       		.uleb128 0x1
 19280 5760 51       		.byte	0x51
 19281 5761 02       		.uleb128 0x2
 19282 5762 76       		.byte	0x76
 19283 5763 00       		.sleb128 0
 19284 5764 00       		.byte	0
 19285 5765 29       		.uleb128 0x29
 19286 5766 A2040000 		.4byte	.LVL71
 19287 576a E15E0000 		.4byte	0x5ee1
 19288 576e 87570000 		.4byte	0x5787
 19289 5772 2A       		.uleb128 0x2a
 19290 5773 01       		.uleb128 0x1
 19291 5774 50       		.byte	0x50
 19292 5775 02       		.uleb128 0x2
 19293 5776 75       		.byte	0x75
 19294 5777 00       		.sleb128 0
 19295 5778 2A       		.uleb128 0x2a
 19296 5779 02       		.uleb128 0x2
 19297 577a 90       		.byte	0x90
 19298 577b 41       		.uleb128 0x41
 19299 577c 03       		.uleb128 0x3
 19300 577d F5       		.byte	0xf5
 19301 577e 50       		.uleb128 0x50
 19302 577f 25       		.uleb128 0x25
 19303 5780 2A       		.uleb128 0x2a
 19304 5781 01       		.uleb128 0x1
 19305 5782 51       		.byte	0x51
 19306 5783 02       		.uleb128 0x2
 19307 5784 76       		.byte	0x76
 19308 5785 00       		.sleb128 0
 19309 5786 00       		.byte	0
 19310 5787 29       		.uleb128 0x29
 19311 5788 C2040000 		.4byte	.LVL72
 19312 578c CB5E0000 		.4byte	0x5ecb
 19313 5790 A1570000 		.4byte	0x57a1
 19314 5794 2A       		.uleb128 0x2a
 19315 5795 01       		.uleb128 0x1
 19316 5796 50       		.byte	0x50
 19317 5797 02       		.uleb128 0x2
 19318 5798 75       		.byte	0x75
 19319 5799 00       		.sleb128 0
 19320 579a 2A       		.uleb128 0x2a
 19321 579b 01       		.uleb128 0x1
 19322 579c 51       		.byte	0x51
ARM GAS  /tmp/cc4M9ACW.s 			page 340


 19323 579d 02       		.uleb128 0x2
 19324 579e 76       		.byte	0x76
 19325 579f 00       		.sleb128 0
 19326 57a0 00       		.byte	0
 19327 57a1 29       		.uleb128 0x29
 19328 57a2 CE040000 		.4byte	.LVL73
 19329 57a6 CB5E0000 		.4byte	0x5ecb
 19330 57aa BB570000 		.4byte	0x57bb
 19331 57ae 2A       		.uleb128 0x2a
 19332 57af 01       		.uleb128 0x1
 19333 57b0 50       		.byte	0x50
 19334 57b1 02       		.uleb128 0x2
 19335 57b2 75       		.byte	0x75
 19336 57b3 00       		.sleb128 0
 19337 57b4 2A       		.uleb128 0x2a
 19338 57b5 01       		.uleb128 0x1
 19339 57b6 51       		.byte	0x51
 19340 57b7 02       		.uleb128 0x2
 19341 57b8 76       		.byte	0x76
 19342 57b9 00       		.sleb128 0
 19343 57ba 00       		.byte	0
 19344 57bb 29       		.uleb128 0x29
 19345 57bc DA040000 		.4byte	.LVL74
 19346 57c0 CB5E0000 		.4byte	0x5ecb
 19347 57c4 D5570000 		.4byte	0x57d5
 19348 57c8 2A       		.uleb128 0x2a
 19349 57c9 01       		.uleb128 0x1
 19350 57ca 50       		.byte	0x50
 19351 57cb 02       		.uleb128 0x2
 19352 57cc 75       		.byte	0x75
 19353 57cd 00       		.sleb128 0
 19354 57ce 2A       		.uleb128 0x2a
 19355 57cf 01       		.uleb128 0x1
 19356 57d0 51       		.byte	0x51
 19357 57d1 02       		.uleb128 0x2
 19358 57d2 76       		.byte	0x76
 19359 57d3 00       		.sleb128 0
 19360 57d4 00       		.byte	0
 19361 57d5 29       		.uleb128 0x29
 19362 57d6 E6040000 		.4byte	.LVL75
 19363 57da CB5E0000 		.4byte	0x5ecb
 19364 57de EF570000 		.4byte	0x57ef
 19365 57e2 2A       		.uleb128 0x2a
 19366 57e3 01       		.uleb128 0x1
 19367 57e4 50       		.byte	0x50
 19368 57e5 02       		.uleb128 0x2
 19369 57e6 75       		.byte	0x75
 19370 57e7 00       		.sleb128 0
 19371 57e8 2A       		.uleb128 0x2a
 19372 57e9 01       		.uleb128 0x1
 19373 57ea 51       		.byte	0x51
 19374 57eb 02       		.uleb128 0x2
 19375 57ec 76       		.byte	0x76
 19376 57ed 00       		.sleb128 0
 19377 57ee 00       		.byte	0
 19378 57ef 29       		.uleb128 0x29
 19379 57f0 F2040000 		.4byte	.LVL76
ARM GAS  /tmp/cc4M9ACW.s 			page 341


 19380 57f4 D65E0000 		.4byte	0x5ed6
 19381 57f8 09580000 		.4byte	0x5809
 19382 57fc 2A       		.uleb128 0x2a
 19383 57fd 01       		.uleb128 0x1
 19384 57fe 50       		.byte	0x50
 19385 57ff 02       		.uleb128 0x2
 19386 5800 75       		.byte	0x75
 19387 5801 00       		.sleb128 0
 19388 5802 2A       		.uleb128 0x2a
 19389 5803 01       		.uleb128 0x1
 19390 5804 52       		.byte	0x52
 19391 5805 02       		.uleb128 0x2
 19392 5806 76       		.byte	0x76
 19393 5807 00       		.sleb128 0
 19394 5808 00       		.byte	0
 19395 5809 29       		.uleb128 0x29
 19396 580a FE040000 		.4byte	.LVL77
 19397 580e CB5E0000 		.4byte	0x5ecb
 19398 5812 23580000 		.4byte	0x5823
 19399 5816 2A       		.uleb128 0x2a
 19400 5817 01       		.uleb128 0x1
 19401 5818 50       		.byte	0x50
 19402 5819 02       		.uleb128 0x2
 19403 581a 75       		.byte	0x75
 19404 581b 00       		.sleb128 0
 19405 581c 2A       		.uleb128 0x2a
 19406 581d 01       		.uleb128 0x1
 19407 581e 51       		.byte	0x51
 19408 581f 02       		.uleb128 0x2
 19409 5820 76       		.byte	0x76
 19410 5821 00       		.sleb128 0
 19411 5822 00       		.byte	0
 19412 5823 29       		.uleb128 0x29
 19413 5824 1E050000 		.4byte	.LVL78
 19414 5828 CB5E0000 		.4byte	0x5ecb
 19415 582c 3D580000 		.4byte	0x583d
 19416 5830 2A       		.uleb128 0x2a
 19417 5831 01       		.uleb128 0x1
 19418 5832 50       		.byte	0x50
 19419 5833 02       		.uleb128 0x2
 19420 5834 75       		.byte	0x75
 19421 5835 00       		.sleb128 0
 19422 5836 2A       		.uleb128 0x2a
 19423 5837 01       		.uleb128 0x1
 19424 5838 51       		.byte	0x51
 19425 5839 02       		.uleb128 0x2
 19426 583a 76       		.byte	0x76
 19427 583b 00       		.sleb128 0
 19428 583c 00       		.byte	0
 19429 583d 29       		.uleb128 0x29
 19430 583e 2A050000 		.4byte	.LVL79
 19431 5842 CB5E0000 		.4byte	0x5ecb
 19432 5846 57580000 		.4byte	0x5857
 19433 584a 2A       		.uleb128 0x2a
 19434 584b 01       		.uleb128 0x1
 19435 584c 50       		.byte	0x50
 19436 584d 02       		.uleb128 0x2
ARM GAS  /tmp/cc4M9ACW.s 			page 342


 19437 584e 75       		.byte	0x75
 19438 584f 00       		.sleb128 0
 19439 5850 2A       		.uleb128 0x2a
 19440 5851 01       		.uleb128 0x1
 19441 5852 51       		.byte	0x51
 19442 5853 02       		.uleb128 0x2
 19443 5854 76       		.byte	0x76
 19444 5855 00       		.sleb128 0
 19445 5856 00       		.byte	0
 19446 5857 29       		.uleb128 0x29
 19447 5858 36050000 		.4byte	.LVL80
 19448 585c CB5E0000 		.4byte	0x5ecb
 19449 5860 71580000 		.4byte	0x5871
 19450 5864 2A       		.uleb128 0x2a
 19451 5865 01       		.uleb128 0x1
 19452 5866 50       		.byte	0x50
 19453 5867 02       		.uleb128 0x2
 19454 5868 75       		.byte	0x75
 19455 5869 00       		.sleb128 0
 19456 586a 2A       		.uleb128 0x2a
 19457 586b 01       		.uleb128 0x1
 19458 586c 51       		.byte	0x51
 19459 586d 02       		.uleb128 0x2
 19460 586e 76       		.byte	0x76
 19461 586f 00       		.sleb128 0
 19462 5870 00       		.byte	0
 19463 5871 29       		.uleb128 0x29
 19464 5872 46050000 		.4byte	.LVL81
 19465 5876 E15E0000 		.4byte	0x5ee1
 19466 587a 93580000 		.4byte	0x5893
 19467 587e 2A       		.uleb128 0x2a
 19468 587f 01       		.uleb128 0x1
 19469 5880 50       		.byte	0x50
 19470 5881 02       		.uleb128 0x2
 19471 5882 75       		.byte	0x75
 19472 5883 00       		.sleb128 0
 19473 5884 2A       		.uleb128 0x2a
 19474 5885 02       		.uleb128 0x2
 19475 5886 90       		.byte	0x90
 19476 5887 41       		.uleb128 0x41
 19477 5888 03       		.uleb128 0x3
 19478 5889 F5       		.byte	0xf5
 19479 588a 50       		.uleb128 0x50
 19480 588b 25       		.uleb128 0x25
 19481 588c 2A       		.uleb128 0x2a
 19482 588d 01       		.uleb128 0x1
 19483 588e 51       		.byte	0x51
 19484 588f 02       		.uleb128 0x2
 19485 5890 76       		.byte	0x76
 19486 5891 00       		.sleb128 0
 19487 5892 00       		.byte	0
 19488 5893 29       		.uleb128 0x29
 19489 5894 56050000 		.4byte	.LVL82
 19490 5898 E15E0000 		.4byte	0x5ee1
 19491 589c B5580000 		.4byte	0x58b5
 19492 58a0 2A       		.uleb128 0x2a
 19493 58a1 01       		.uleb128 0x1
ARM GAS  /tmp/cc4M9ACW.s 			page 343


 19494 58a2 50       		.byte	0x50
 19495 58a3 02       		.uleb128 0x2
 19496 58a4 75       		.byte	0x75
 19497 58a5 00       		.sleb128 0
 19498 58a6 2A       		.uleb128 0x2a
 19499 58a7 02       		.uleb128 0x2
 19500 58a8 90       		.byte	0x90
 19501 58a9 41       		.uleb128 0x41
 19502 58aa 03       		.uleb128 0x3
 19503 58ab F5       		.byte	0xf5
 19504 58ac 50       		.uleb128 0x50
 19505 58ad 25       		.uleb128 0x25
 19506 58ae 2A       		.uleb128 0x2a
 19507 58af 01       		.uleb128 0x1
 19508 58b0 51       		.byte	0x51
 19509 58b1 02       		.uleb128 0x2
 19510 58b2 76       		.byte	0x76
 19511 58b3 00       		.sleb128 0
 19512 58b4 00       		.byte	0
 19513 58b5 29       		.uleb128 0x29
 19514 58b6 66050000 		.4byte	.LVL83
 19515 58ba E15E0000 		.4byte	0x5ee1
 19516 58be D7580000 		.4byte	0x58d7
 19517 58c2 2A       		.uleb128 0x2a
 19518 58c3 01       		.uleb128 0x1
 19519 58c4 50       		.byte	0x50
 19520 58c5 02       		.uleb128 0x2
 19521 58c6 75       		.byte	0x75
 19522 58c7 00       		.sleb128 0
 19523 58c8 2A       		.uleb128 0x2a
 19524 58c9 02       		.uleb128 0x2
 19525 58ca 90       		.byte	0x90
 19526 58cb 41       		.uleb128 0x41
 19527 58cc 03       		.uleb128 0x3
 19528 58cd F5       		.byte	0xf5
 19529 58ce 50       		.uleb128 0x50
 19530 58cf 25       		.uleb128 0x25
 19531 58d0 2A       		.uleb128 0x2a
 19532 58d1 01       		.uleb128 0x1
 19533 58d2 51       		.byte	0x51
 19534 58d3 02       		.uleb128 0x2
 19535 58d4 76       		.byte	0x76
 19536 58d5 00       		.sleb128 0
 19537 58d6 00       		.byte	0
 19538 58d7 29       		.uleb128 0x29
 19539 58d8 76050000 		.4byte	.LVL84
 19540 58dc E15E0000 		.4byte	0x5ee1
 19541 58e0 F9580000 		.4byte	0x58f9
 19542 58e4 2A       		.uleb128 0x2a
 19543 58e5 01       		.uleb128 0x1
 19544 58e6 50       		.byte	0x50
 19545 58e7 02       		.uleb128 0x2
 19546 58e8 75       		.byte	0x75
 19547 58e9 00       		.sleb128 0
 19548 58ea 2A       		.uleb128 0x2a
 19549 58eb 02       		.uleb128 0x2
 19550 58ec 90       		.byte	0x90
ARM GAS  /tmp/cc4M9ACW.s 			page 344


 19551 58ed 41       		.uleb128 0x41
 19552 58ee 03       		.uleb128 0x3
 19553 58ef F5       		.byte	0xf5
 19554 58f0 50       		.uleb128 0x50
 19555 58f1 25       		.uleb128 0x25
 19556 58f2 2A       		.uleb128 0x2a
 19557 58f3 01       		.uleb128 0x1
 19558 58f4 51       		.byte	0x51
 19559 58f5 02       		.uleb128 0x2
 19560 58f6 76       		.byte	0x76
 19561 58f7 00       		.sleb128 0
 19562 58f8 00       		.byte	0
 19563 58f9 29       		.uleb128 0x29
 19564 58fa 86050000 		.4byte	.LVL85
 19565 58fe E15E0000 		.4byte	0x5ee1
 19566 5902 1B590000 		.4byte	0x591b
 19567 5906 2A       		.uleb128 0x2a
 19568 5907 01       		.uleb128 0x1
 19569 5908 50       		.byte	0x50
 19570 5909 02       		.uleb128 0x2
 19571 590a 75       		.byte	0x75
 19572 590b 00       		.sleb128 0
 19573 590c 2A       		.uleb128 0x2a
 19574 590d 02       		.uleb128 0x2
 19575 590e 90       		.byte	0x90
 19576 590f 41       		.uleb128 0x41
 19577 5910 03       		.uleb128 0x3
 19578 5911 F5       		.byte	0xf5
 19579 5912 50       		.uleb128 0x50
 19580 5913 25       		.uleb128 0x25
 19581 5914 2A       		.uleb128 0x2a
 19582 5915 01       		.uleb128 0x1
 19583 5916 51       		.byte	0x51
 19584 5917 02       		.uleb128 0x2
 19585 5918 76       		.byte	0x76
 19586 5919 00       		.sleb128 0
 19587 591a 00       		.byte	0
 19588 591b 29       		.uleb128 0x29
 19589 591c 96050000 		.4byte	.LVL86
 19590 5920 E15E0000 		.4byte	0x5ee1
 19591 5924 3D590000 		.4byte	0x593d
 19592 5928 2A       		.uleb128 0x2a
 19593 5929 01       		.uleb128 0x1
 19594 592a 50       		.byte	0x50
 19595 592b 02       		.uleb128 0x2
 19596 592c 75       		.byte	0x75
 19597 592d 00       		.sleb128 0
 19598 592e 2A       		.uleb128 0x2a
 19599 592f 02       		.uleb128 0x2
 19600 5930 90       		.byte	0x90
 19601 5931 41       		.uleb128 0x41
 19602 5932 03       		.uleb128 0x3
 19603 5933 F5       		.byte	0xf5
 19604 5934 50       		.uleb128 0x50
 19605 5935 25       		.uleb128 0x25
 19606 5936 2A       		.uleb128 0x2a
 19607 5937 01       		.uleb128 0x1
ARM GAS  /tmp/cc4M9ACW.s 			page 345


 19608 5938 51       		.byte	0x51
 19609 5939 02       		.uleb128 0x2
 19610 593a 76       		.byte	0x76
 19611 593b 00       		.sleb128 0
 19612 593c 00       		.byte	0
 19613 593d 29       		.uleb128 0x29
 19614 593e AE050000 		.4byte	.LVL87
 19615 5942 CB5E0000 		.4byte	0x5ecb
 19616 5946 57590000 		.4byte	0x5957
 19617 594a 2A       		.uleb128 0x2a
 19618 594b 01       		.uleb128 0x1
 19619 594c 50       		.byte	0x50
 19620 594d 02       		.uleb128 0x2
 19621 594e 75       		.byte	0x75
 19622 594f 00       		.sleb128 0
 19623 5950 2A       		.uleb128 0x2a
 19624 5951 01       		.uleb128 0x1
 19625 5952 51       		.byte	0x51
 19626 5953 02       		.uleb128 0x2
 19627 5954 76       		.byte	0x76
 19628 5955 00       		.sleb128 0
 19629 5956 00       		.byte	0
 19630 5957 29       		.uleb128 0x29
 19631 5958 C6050000 		.4byte	.LVL88
 19632 595c CB5E0000 		.4byte	0x5ecb
 19633 5960 71590000 		.4byte	0x5971
 19634 5964 2A       		.uleb128 0x2a
 19635 5965 01       		.uleb128 0x1
 19636 5966 50       		.byte	0x50
 19637 5967 02       		.uleb128 0x2
 19638 5968 75       		.byte	0x75
 19639 5969 00       		.sleb128 0
 19640 596a 2A       		.uleb128 0x2a
 19641 596b 01       		.uleb128 0x1
 19642 596c 51       		.byte	0x51
 19643 596d 02       		.uleb128 0x2
 19644 596e 76       		.byte	0x76
 19645 596f 00       		.sleb128 0
 19646 5970 00       		.byte	0
 19647 5971 29       		.uleb128 0x29
 19648 5972 D6050000 		.4byte	.LVL89
 19649 5976 E15E0000 		.4byte	0x5ee1
 19650 597a 93590000 		.4byte	0x5993
 19651 597e 2A       		.uleb128 0x2a
 19652 597f 01       		.uleb128 0x1
 19653 5980 50       		.byte	0x50
 19654 5981 02       		.uleb128 0x2
 19655 5982 75       		.byte	0x75
 19656 5983 00       		.sleb128 0
 19657 5984 2A       		.uleb128 0x2a
 19658 5985 02       		.uleb128 0x2
 19659 5986 90       		.byte	0x90
 19660 5987 41       		.uleb128 0x41
 19661 5988 03       		.uleb128 0x3
 19662 5989 F5       		.byte	0xf5
 19663 598a 50       		.uleb128 0x50
 19664 598b 25       		.uleb128 0x25
ARM GAS  /tmp/cc4M9ACW.s 			page 346


 19665 598c 2A       		.uleb128 0x2a
 19666 598d 01       		.uleb128 0x1
 19667 598e 51       		.byte	0x51
 19668 598f 02       		.uleb128 0x2
 19669 5990 76       		.byte	0x76
 19670 5991 00       		.sleb128 0
 19671 5992 00       		.byte	0
 19672 5993 29       		.uleb128 0x29
 19673 5994 E6050000 		.4byte	.LVL90
 19674 5998 E15E0000 		.4byte	0x5ee1
 19675 599c B5590000 		.4byte	0x59b5
 19676 59a0 2A       		.uleb128 0x2a
 19677 59a1 01       		.uleb128 0x1
 19678 59a2 50       		.byte	0x50
 19679 59a3 02       		.uleb128 0x2
 19680 59a4 75       		.byte	0x75
 19681 59a5 00       		.sleb128 0
 19682 59a6 2A       		.uleb128 0x2a
 19683 59a7 02       		.uleb128 0x2
 19684 59a8 90       		.byte	0x90
 19685 59a9 41       		.uleb128 0x41
 19686 59aa 03       		.uleb128 0x3
 19687 59ab F5       		.byte	0xf5
 19688 59ac 52       		.uleb128 0x52
 19689 59ad 25       		.uleb128 0x25
 19690 59ae 2A       		.uleb128 0x2a
 19691 59af 01       		.uleb128 0x1
 19692 59b0 51       		.byte	0x51
 19693 59b1 02       		.uleb128 0x2
 19694 59b2 76       		.byte	0x76
 19695 59b3 00       		.sleb128 0
 19696 59b4 00       		.byte	0
 19697 59b5 29       		.uleb128 0x29
 19698 59b6 F6050000 		.4byte	.LVL91
 19699 59ba E15E0000 		.4byte	0x5ee1
 19700 59be D7590000 		.4byte	0x59d7
 19701 59c2 2A       		.uleb128 0x2a
 19702 59c3 01       		.uleb128 0x1
 19703 59c4 50       		.byte	0x50
 19704 59c5 02       		.uleb128 0x2
 19705 59c6 75       		.byte	0x75
 19706 59c7 00       		.sleb128 0
 19707 59c8 2A       		.uleb128 0x2a
 19708 59c9 02       		.uleb128 0x2
 19709 59ca 90       		.byte	0x90
 19710 59cb 41       		.uleb128 0x41
 19711 59cc 03       		.uleb128 0x3
 19712 59cd F5       		.byte	0xf5
 19713 59ce 50       		.uleb128 0x50
 19714 59cf 25       		.uleb128 0x25
 19715 59d0 2A       		.uleb128 0x2a
 19716 59d1 01       		.uleb128 0x1
 19717 59d2 51       		.byte	0x51
 19718 59d3 02       		.uleb128 0x2
 19719 59d4 76       		.byte	0x76
 19720 59d5 00       		.sleb128 0
 19721 59d6 00       		.byte	0
ARM GAS  /tmp/cc4M9ACW.s 			page 347


 19722 59d7 29       		.uleb128 0x29
 19723 59d8 02060000 		.4byte	.LVL92
 19724 59dc EC5E0000 		.4byte	0x5eec
 19725 59e0 F1590000 		.4byte	0x59f1
 19726 59e4 2A       		.uleb128 0x2a
 19727 59e5 01       		.uleb128 0x1
 19728 59e6 50       		.byte	0x50
 19729 59e7 02       		.uleb128 0x2
 19730 59e8 75       		.byte	0x75
 19731 59e9 00       		.sleb128 0
 19732 59ea 2A       		.uleb128 0x2a
 19733 59eb 01       		.uleb128 0x1
 19734 59ec 52       		.byte	0x52
 19735 59ed 02       		.uleb128 0x2
 19736 59ee 76       		.byte	0x76
 19737 59ef 00       		.sleb128 0
 19738 59f0 00       		.byte	0
 19739 59f1 29       		.uleb128 0x29
 19740 59f2 0E060000 		.4byte	.LVL93
 19741 59f6 EC5E0000 		.4byte	0x5eec
 19742 59fa 0B5A0000 		.4byte	0x5a0b
 19743 59fe 2A       		.uleb128 0x2a
 19744 59ff 01       		.uleb128 0x1
 19745 5a00 50       		.byte	0x50
 19746 5a01 02       		.uleb128 0x2
 19747 5a02 75       		.byte	0x75
 19748 5a03 00       		.sleb128 0
 19749 5a04 2A       		.uleb128 0x2a
 19750 5a05 01       		.uleb128 0x1
 19751 5a06 52       		.byte	0x52
 19752 5a07 02       		.uleb128 0x2
 19753 5a08 76       		.byte	0x76
 19754 5a09 00       		.sleb128 0
 19755 5a0a 00       		.byte	0
 19756 5a0b 29       		.uleb128 0x29
 19757 5a0c 1E060000 		.4byte	.LVL94
 19758 5a10 E15E0000 		.4byte	0x5ee1
 19759 5a14 2D5A0000 		.4byte	0x5a2d
 19760 5a18 2A       		.uleb128 0x2a
 19761 5a19 01       		.uleb128 0x1
 19762 5a1a 50       		.byte	0x50
 19763 5a1b 02       		.uleb128 0x2
 19764 5a1c 75       		.byte	0x75
 19765 5a1d 00       		.sleb128 0
 19766 5a1e 2A       		.uleb128 0x2a
 19767 5a1f 02       		.uleb128 0x2
 19768 5a20 90       		.byte	0x90
 19769 5a21 41       		.uleb128 0x41
 19770 5a22 03       		.uleb128 0x3
 19771 5a23 F5       		.byte	0xf5
 19772 5a24 50       		.uleb128 0x50
 19773 5a25 25       		.uleb128 0x25
 19774 5a26 2A       		.uleb128 0x2a
 19775 5a27 01       		.uleb128 0x1
 19776 5a28 51       		.byte	0x51
 19777 5a29 02       		.uleb128 0x2
 19778 5a2a 76       		.byte	0x76
ARM GAS  /tmp/cc4M9ACW.s 			page 348


 19779 5a2b 00       		.sleb128 0
 19780 5a2c 00       		.byte	0
 19781 5a2d 29       		.uleb128 0x29
 19782 5a2e 2A060000 		.4byte	.LVL95
 19783 5a32 CB5E0000 		.4byte	0x5ecb
 19784 5a36 475A0000 		.4byte	0x5a47
 19785 5a3a 2A       		.uleb128 0x2a
 19786 5a3b 01       		.uleb128 0x1
 19787 5a3c 50       		.byte	0x50
 19788 5a3d 02       		.uleb128 0x2
 19789 5a3e 75       		.byte	0x75
 19790 5a3f 00       		.sleb128 0
 19791 5a40 2A       		.uleb128 0x2a
 19792 5a41 01       		.uleb128 0x1
 19793 5a42 51       		.byte	0x51
 19794 5a43 02       		.uleb128 0x2
 19795 5a44 76       		.byte	0x76
 19796 5a45 00       		.sleb128 0
 19797 5a46 00       		.byte	0
 19798 5a47 29       		.uleb128 0x29
 19799 5a48 36060000 		.4byte	.LVL96
 19800 5a4c CB5E0000 		.4byte	0x5ecb
 19801 5a50 615A0000 		.4byte	0x5a61
 19802 5a54 2A       		.uleb128 0x2a
 19803 5a55 01       		.uleb128 0x1
 19804 5a56 50       		.byte	0x50
 19805 5a57 02       		.uleb128 0x2
 19806 5a58 75       		.byte	0x75
 19807 5a59 00       		.sleb128 0
 19808 5a5a 2A       		.uleb128 0x2a
 19809 5a5b 01       		.uleb128 0x1
 19810 5a5c 51       		.byte	0x51
 19811 5a5d 02       		.uleb128 0x2
 19812 5a5e 76       		.byte	0x76
 19813 5a5f 00       		.sleb128 0
 19814 5a60 00       		.byte	0
 19815 5a61 29       		.uleb128 0x29
 19816 5a62 4E060000 		.4byte	.LVL97
 19817 5a66 CB5E0000 		.4byte	0x5ecb
 19818 5a6a 7B5A0000 		.4byte	0x5a7b
 19819 5a6e 2A       		.uleb128 0x2a
 19820 5a6f 01       		.uleb128 0x1
 19821 5a70 50       		.byte	0x50
 19822 5a71 02       		.uleb128 0x2
 19823 5a72 75       		.byte	0x75
 19824 5a73 00       		.sleb128 0
 19825 5a74 2A       		.uleb128 0x2a
 19826 5a75 01       		.uleb128 0x1
 19827 5a76 51       		.byte	0x51
 19828 5a77 02       		.uleb128 0x2
 19829 5a78 76       		.byte	0x76
 19830 5a79 00       		.sleb128 0
 19831 5a7a 00       		.byte	0
 19832 5a7b 29       		.uleb128 0x29
 19833 5a7c 5A060000 		.4byte	.LVL98
 19834 5a80 CB5E0000 		.4byte	0x5ecb
 19835 5a84 955A0000 		.4byte	0x5a95
ARM GAS  /tmp/cc4M9ACW.s 			page 349


 19836 5a88 2A       		.uleb128 0x2a
 19837 5a89 01       		.uleb128 0x1
 19838 5a8a 50       		.byte	0x50
 19839 5a8b 02       		.uleb128 0x2
 19840 5a8c 75       		.byte	0x75
 19841 5a8d 00       		.sleb128 0
 19842 5a8e 2A       		.uleb128 0x2a
 19843 5a8f 01       		.uleb128 0x1
 19844 5a90 51       		.byte	0x51
 19845 5a91 02       		.uleb128 0x2
 19846 5a92 76       		.byte	0x76
 19847 5a93 00       		.sleb128 0
 19848 5a94 00       		.byte	0
 19849 5a95 29       		.uleb128 0x29
 19850 5a96 66060000 		.4byte	.LVL99
 19851 5a9a CB5E0000 		.4byte	0x5ecb
 19852 5a9e AF5A0000 		.4byte	0x5aaf
 19853 5aa2 2A       		.uleb128 0x2a
 19854 5aa3 01       		.uleb128 0x1
 19855 5aa4 50       		.byte	0x50
 19856 5aa5 02       		.uleb128 0x2
 19857 5aa6 75       		.byte	0x75
 19858 5aa7 00       		.sleb128 0
 19859 5aa8 2A       		.uleb128 0x2a
 19860 5aa9 01       		.uleb128 0x1
 19861 5aaa 51       		.byte	0x51
 19862 5aab 02       		.uleb128 0x2
 19863 5aac 76       		.byte	0x76
 19864 5aad 00       		.sleb128 0
 19865 5aae 00       		.byte	0
 19866 5aaf 29       		.uleb128 0x29
 19867 5ab0 76060000 		.4byte	.LVL100
 19868 5ab4 E15E0000 		.4byte	0x5ee1
 19869 5ab8 D15A0000 		.4byte	0x5ad1
 19870 5abc 2A       		.uleb128 0x2a
 19871 5abd 01       		.uleb128 0x1
 19872 5abe 50       		.byte	0x50
 19873 5abf 02       		.uleb128 0x2
 19874 5ac0 75       		.byte	0x75
 19875 5ac1 00       		.sleb128 0
 19876 5ac2 2A       		.uleb128 0x2a
 19877 5ac3 02       		.uleb128 0x2
 19878 5ac4 90       		.byte	0x90
 19879 5ac5 41       		.uleb128 0x41
 19880 5ac6 03       		.uleb128 0x3
 19881 5ac7 F5       		.byte	0xf5
 19882 5ac8 50       		.uleb128 0x50
 19883 5ac9 25       		.uleb128 0x25
 19884 5aca 2A       		.uleb128 0x2a
 19885 5acb 01       		.uleb128 0x1
 19886 5acc 51       		.byte	0x51
 19887 5acd 02       		.uleb128 0x2
 19888 5ace 76       		.byte	0x76
 19889 5acf 00       		.sleb128 0
 19890 5ad0 00       		.byte	0
 19891 5ad1 29       		.uleb128 0x29
 19892 5ad2 82060000 		.4byte	.LVL101
ARM GAS  /tmp/cc4M9ACW.s 			page 350


 19893 5ad6 CB5E0000 		.4byte	0x5ecb
 19894 5ada EB5A0000 		.4byte	0x5aeb
 19895 5ade 2A       		.uleb128 0x2a
 19896 5adf 01       		.uleb128 0x1
 19897 5ae0 50       		.byte	0x50
 19898 5ae1 02       		.uleb128 0x2
 19899 5ae2 75       		.byte	0x75
 19900 5ae3 00       		.sleb128 0
 19901 5ae4 2A       		.uleb128 0x2a
 19902 5ae5 01       		.uleb128 0x1
 19903 5ae6 51       		.byte	0x51
 19904 5ae7 02       		.uleb128 0x2
 19905 5ae8 76       		.byte	0x76
 19906 5ae9 00       		.sleb128 0
 19907 5aea 00       		.byte	0
 19908 5aeb 29       		.uleb128 0x29
 19909 5aec 9A060000 		.4byte	.LVL102
 19910 5af0 CB5E0000 		.4byte	0x5ecb
 19911 5af4 055B0000 		.4byte	0x5b05
 19912 5af8 2A       		.uleb128 0x2a
 19913 5af9 01       		.uleb128 0x1
 19914 5afa 50       		.byte	0x50
 19915 5afb 02       		.uleb128 0x2
 19916 5afc 75       		.byte	0x75
 19917 5afd 00       		.sleb128 0
 19918 5afe 2A       		.uleb128 0x2a
 19919 5aff 01       		.uleb128 0x1
 19920 5b00 51       		.byte	0x51
 19921 5b01 02       		.uleb128 0x2
 19922 5b02 76       		.byte	0x76
 19923 5b03 00       		.sleb128 0
 19924 5b04 00       		.byte	0
 19925 5b05 29       		.uleb128 0x29
 19926 5b06 A6060000 		.4byte	.LVL103
 19927 5b0a CB5E0000 		.4byte	0x5ecb
 19928 5b0e 1F5B0000 		.4byte	0x5b1f
 19929 5b12 2A       		.uleb128 0x2a
 19930 5b13 01       		.uleb128 0x1
 19931 5b14 50       		.byte	0x50
 19932 5b15 02       		.uleb128 0x2
 19933 5b16 75       		.byte	0x75
 19934 5b17 00       		.sleb128 0
 19935 5b18 2A       		.uleb128 0x2a
 19936 5b19 01       		.uleb128 0x1
 19937 5b1a 51       		.byte	0x51
 19938 5b1b 02       		.uleb128 0x2
 19939 5b1c 76       		.byte	0x76
 19940 5b1d 00       		.sleb128 0
 19941 5b1e 00       		.byte	0
 19942 5b1f 29       		.uleb128 0x29
 19943 5b20 B2060000 		.4byte	.LVL104
 19944 5b24 CB5E0000 		.4byte	0x5ecb
 19945 5b28 395B0000 		.4byte	0x5b39
 19946 5b2c 2A       		.uleb128 0x2a
 19947 5b2d 01       		.uleb128 0x1
 19948 5b2e 50       		.byte	0x50
 19949 5b2f 02       		.uleb128 0x2
ARM GAS  /tmp/cc4M9ACW.s 			page 351


 19950 5b30 75       		.byte	0x75
 19951 5b31 00       		.sleb128 0
 19952 5b32 2A       		.uleb128 0x2a
 19953 5b33 01       		.uleb128 0x1
 19954 5b34 51       		.byte	0x51
 19955 5b35 02       		.uleb128 0x2
 19956 5b36 76       		.byte	0x76
 19957 5b37 00       		.sleb128 0
 19958 5b38 00       		.byte	0
 19959 5b39 29       		.uleb128 0x29
 19960 5b3a BE060000 		.4byte	.LVL105
 19961 5b3e CB5E0000 		.4byte	0x5ecb
 19962 5b42 535B0000 		.4byte	0x5b53
 19963 5b46 2A       		.uleb128 0x2a
 19964 5b47 01       		.uleb128 0x1
 19965 5b48 50       		.byte	0x50
 19966 5b49 02       		.uleb128 0x2
 19967 5b4a 75       		.byte	0x75
 19968 5b4b 00       		.sleb128 0
 19969 5b4c 2A       		.uleb128 0x2a
 19970 5b4d 01       		.uleb128 0x1
 19971 5b4e 51       		.byte	0x51
 19972 5b4f 02       		.uleb128 0x2
 19973 5b50 76       		.byte	0x76
 19974 5b51 00       		.sleb128 0
 19975 5b52 00       		.byte	0
 19976 5b53 29       		.uleb128 0x29
 19977 5b54 CA060000 		.4byte	.LVL106
 19978 5b58 CB5E0000 		.4byte	0x5ecb
 19979 5b5c 6D5B0000 		.4byte	0x5b6d
 19980 5b60 2A       		.uleb128 0x2a
 19981 5b61 01       		.uleb128 0x1
 19982 5b62 50       		.byte	0x50
 19983 5b63 02       		.uleb128 0x2
 19984 5b64 75       		.byte	0x75
 19985 5b65 00       		.sleb128 0
 19986 5b66 2A       		.uleb128 0x2a
 19987 5b67 01       		.uleb128 0x1
 19988 5b68 51       		.byte	0x51
 19989 5b69 02       		.uleb128 0x2
 19990 5b6a 76       		.byte	0x76
 19991 5b6b 00       		.sleb128 0
 19992 5b6c 00       		.byte	0
 19993 5b6d 29       		.uleb128 0x29
 19994 5b6e D6060000 		.4byte	.LVL107
 19995 5b72 CB5E0000 		.4byte	0x5ecb
 19996 5b76 875B0000 		.4byte	0x5b87
 19997 5b7a 2A       		.uleb128 0x2a
 19998 5b7b 01       		.uleb128 0x1
 19999 5b7c 50       		.byte	0x50
 20000 5b7d 02       		.uleb128 0x2
 20001 5b7e 75       		.byte	0x75
 20002 5b7f 00       		.sleb128 0
 20003 5b80 2A       		.uleb128 0x2a
 20004 5b81 01       		.uleb128 0x1
 20005 5b82 51       		.byte	0x51
 20006 5b83 02       		.uleb128 0x2
ARM GAS  /tmp/cc4M9ACW.s 			page 352


 20007 5b84 76       		.byte	0x76
 20008 5b85 00       		.sleb128 0
 20009 5b86 00       		.byte	0
 20010 5b87 29       		.uleb128 0x29
 20011 5b88 E2060000 		.4byte	.LVL108
 20012 5b8c CB5E0000 		.4byte	0x5ecb
 20013 5b90 A15B0000 		.4byte	0x5ba1
 20014 5b94 2A       		.uleb128 0x2a
 20015 5b95 01       		.uleb128 0x1
 20016 5b96 50       		.byte	0x50
 20017 5b97 02       		.uleb128 0x2
 20018 5b98 75       		.byte	0x75
 20019 5b99 00       		.sleb128 0
 20020 5b9a 2A       		.uleb128 0x2a
 20021 5b9b 01       		.uleb128 0x1
 20022 5b9c 51       		.byte	0x51
 20023 5b9d 02       		.uleb128 0x2
 20024 5b9e 76       		.byte	0x76
 20025 5b9f 00       		.sleb128 0
 20026 5ba0 00       		.byte	0
 20027 5ba1 29       		.uleb128 0x29
 20028 5ba2 F2060000 		.4byte	.LVL109
 20029 5ba6 E15E0000 		.4byte	0x5ee1
 20030 5baa C75B0000 		.4byte	0x5bc7
 20031 5bae 2A       		.uleb128 0x2a
 20032 5baf 01       		.uleb128 0x1
 20033 5bb0 50       		.byte	0x50
 20034 5bb1 02       		.uleb128 0x2
 20035 5bb2 75       		.byte	0x75
 20036 5bb3 00       		.sleb128 0
 20037 5bb4 2A       		.uleb128 0x2a
 20038 5bb5 02       		.uleb128 0x2
 20039 5bb6 90       		.byte	0x90
 20040 5bb7 41       		.uleb128 0x41
 20041 5bb8 07       		.uleb128 0x7
 20042 5bb9 F4       		.byte	0xf4
 20043 5bba 25       		.uleb128 0x25
 20044 5bbb 04       		.byte	0x4
 20045 5bbc 00002041 		.4byte	0x41200000
 20046 5bc0 2A       		.uleb128 0x2a
 20047 5bc1 01       		.uleb128 0x1
 20048 5bc2 51       		.byte	0x51
 20049 5bc3 02       		.uleb128 0x2
 20050 5bc4 76       		.byte	0x76
 20051 5bc5 00       		.sleb128 0
 20052 5bc6 00       		.byte	0
 20053 5bc7 29       		.uleb128 0x29
 20054 5bc8 FE060000 		.4byte	.LVL110
 20055 5bcc CB5E0000 		.4byte	0x5ecb
 20056 5bd0 E15B0000 		.4byte	0x5be1
 20057 5bd4 2A       		.uleb128 0x2a
 20058 5bd5 01       		.uleb128 0x1
 20059 5bd6 50       		.byte	0x50
 20060 5bd7 02       		.uleb128 0x2
 20061 5bd8 75       		.byte	0x75
 20062 5bd9 00       		.sleb128 0
 20063 5bda 2A       		.uleb128 0x2a
ARM GAS  /tmp/cc4M9ACW.s 			page 353


 20064 5bdb 01       		.uleb128 0x1
 20065 5bdc 51       		.byte	0x51
 20066 5bdd 02       		.uleb128 0x2
 20067 5bde 76       		.byte	0x76
 20068 5bdf 00       		.sleb128 0
 20069 5be0 00       		.byte	0
 20070 5be1 29       		.uleb128 0x29
 20071 5be2 0A070000 		.4byte	.LVL111
 20072 5be6 CB5E0000 		.4byte	0x5ecb
 20073 5bea FB5B0000 		.4byte	0x5bfb
 20074 5bee 2A       		.uleb128 0x2a
 20075 5bef 01       		.uleb128 0x1
 20076 5bf0 50       		.byte	0x50
 20077 5bf1 02       		.uleb128 0x2
 20078 5bf2 75       		.byte	0x75
 20079 5bf3 00       		.sleb128 0
 20080 5bf4 2A       		.uleb128 0x2a
 20081 5bf5 01       		.uleb128 0x1
 20082 5bf6 51       		.byte	0x51
 20083 5bf7 02       		.uleb128 0x2
 20084 5bf8 76       		.byte	0x76
 20085 5bf9 00       		.sleb128 0
 20086 5bfa 00       		.byte	0
 20087 5bfb 29       		.uleb128 0x29
 20088 5bfc 16070000 		.4byte	.LVL112
 20089 5c00 CB5E0000 		.4byte	0x5ecb
 20090 5c04 155C0000 		.4byte	0x5c15
 20091 5c08 2A       		.uleb128 0x2a
 20092 5c09 01       		.uleb128 0x1
 20093 5c0a 50       		.byte	0x50
 20094 5c0b 02       		.uleb128 0x2
 20095 5c0c 75       		.byte	0x75
 20096 5c0d 00       		.sleb128 0
 20097 5c0e 2A       		.uleb128 0x2a
 20098 5c0f 01       		.uleb128 0x1
 20099 5c10 51       		.byte	0x51
 20100 5c11 02       		.uleb128 0x2
 20101 5c12 76       		.byte	0x76
 20102 5c13 00       		.sleb128 0
 20103 5c14 00       		.byte	0
 20104 5c15 29       		.uleb128 0x29
 20105 5c16 22070000 		.4byte	.LVL113
 20106 5c1a CB5E0000 		.4byte	0x5ecb
 20107 5c1e 2F5C0000 		.4byte	0x5c2f
 20108 5c22 2A       		.uleb128 0x2a
 20109 5c23 01       		.uleb128 0x1
 20110 5c24 50       		.byte	0x50
 20111 5c25 02       		.uleb128 0x2
 20112 5c26 75       		.byte	0x75
 20113 5c27 00       		.sleb128 0
 20114 5c28 2A       		.uleb128 0x2a
 20115 5c29 01       		.uleb128 0x1
 20116 5c2a 51       		.byte	0x51
 20117 5c2b 02       		.uleb128 0x2
 20118 5c2c 76       		.byte	0x76
 20119 5c2d 00       		.sleb128 0
 20120 5c2e 00       		.byte	0
ARM GAS  /tmp/cc4M9ACW.s 			page 354


 20121 5c2f 29       		.uleb128 0x29
 20122 5c30 2E070000 		.4byte	.LVL114
 20123 5c34 CB5E0000 		.4byte	0x5ecb
 20124 5c38 495C0000 		.4byte	0x5c49
 20125 5c3c 2A       		.uleb128 0x2a
 20126 5c3d 01       		.uleb128 0x1
 20127 5c3e 50       		.byte	0x50
 20128 5c3f 02       		.uleb128 0x2
 20129 5c40 75       		.byte	0x75
 20130 5c41 00       		.sleb128 0
 20131 5c42 2A       		.uleb128 0x2a
 20132 5c43 01       		.uleb128 0x1
 20133 5c44 51       		.byte	0x51
 20134 5c45 02       		.uleb128 0x2
 20135 5c46 76       		.byte	0x76
 20136 5c47 00       		.sleb128 0
 20137 5c48 00       		.byte	0
 20138 5c49 29       		.uleb128 0x29
 20139 5c4a 3A070000 		.4byte	.LVL115
 20140 5c4e F75E0000 		.4byte	0x5ef7
 20141 5c52 635C0000 		.4byte	0x5c63
 20142 5c56 2A       		.uleb128 0x2a
 20143 5c57 01       		.uleb128 0x1
 20144 5c58 50       		.byte	0x50
 20145 5c59 02       		.uleb128 0x2
 20146 5c5a 75       		.byte	0x75
 20147 5c5b 00       		.sleb128 0
 20148 5c5c 2A       		.uleb128 0x2a
 20149 5c5d 01       		.uleb128 0x1
 20150 5c5e 52       		.byte	0x52
 20151 5c5f 02       		.uleb128 0x2
 20152 5c60 76       		.byte	0x76
 20153 5c61 00       		.sleb128 0
 20154 5c62 00       		.byte	0
 20155 5c63 29       		.uleb128 0x29
 20156 5c64 46070000 		.4byte	.LVL116
 20157 5c68 CB5E0000 		.4byte	0x5ecb
 20158 5c6c 7D5C0000 		.4byte	0x5c7d
 20159 5c70 2A       		.uleb128 0x2a
 20160 5c71 01       		.uleb128 0x1
 20161 5c72 50       		.byte	0x50
 20162 5c73 02       		.uleb128 0x2
 20163 5c74 75       		.byte	0x75
 20164 5c75 00       		.sleb128 0
 20165 5c76 2A       		.uleb128 0x2a
 20166 5c77 01       		.uleb128 0x1
 20167 5c78 51       		.byte	0x51
 20168 5c79 02       		.uleb128 0x2
 20169 5c7a 76       		.byte	0x76
 20170 5c7b 00       		.sleb128 0
 20171 5c7c 00       		.byte	0
 20172 5c7d 29       		.uleb128 0x29
 20173 5c7e 52070000 		.4byte	.LVL117
 20174 5c82 CB5E0000 		.4byte	0x5ecb
 20175 5c86 975C0000 		.4byte	0x5c97
 20176 5c8a 2A       		.uleb128 0x2a
 20177 5c8b 01       		.uleb128 0x1
ARM GAS  /tmp/cc4M9ACW.s 			page 355


 20178 5c8c 50       		.byte	0x50
 20179 5c8d 02       		.uleb128 0x2
 20180 5c8e 75       		.byte	0x75
 20181 5c8f 00       		.sleb128 0
 20182 5c90 2A       		.uleb128 0x2a
 20183 5c91 01       		.uleb128 0x1
 20184 5c92 51       		.byte	0x51
 20185 5c93 02       		.uleb128 0x2
 20186 5c94 76       		.byte	0x76
 20187 5c95 00       		.sleb128 0
 20188 5c96 00       		.byte	0
 20189 5c97 29       		.uleb128 0x29
 20190 5c98 5E070000 		.4byte	.LVL118
 20191 5c9c C05E0000 		.4byte	0x5ec0
 20192 5ca0 B15C0000 		.4byte	0x5cb1
 20193 5ca4 2A       		.uleb128 0x2a
 20194 5ca5 01       		.uleb128 0x1
 20195 5ca6 50       		.byte	0x50
 20196 5ca7 02       		.uleb128 0x2
 20197 5ca8 75       		.byte	0x75
 20198 5ca9 00       		.sleb128 0
 20199 5caa 2A       		.uleb128 0x2a
 20200 5cab 01       		.uleb128 0x1
 20201 5cac 52       		.byte	0x52
 20202 5cad 02       		.uleb128 0x2
 20203 5cae 76       		.byte	0x76
 20204 5caf 00       		.sleb128 0
 20205 5cb0 00       		.byte	0
 20206 5cb1 29       		.uleb128 0x29
 20207 5cb2 8A070000 		.4byte	.LVL119
 20208 5cb6 CB5E0000 		.4byte	0x5ecb
 20209 5cba CB5C0000 		.4byte	0x5ccb
 20210 5cbe 2A       		.uleb128 0x2a
 20211 5cbf 01       		.uleb128 0x1
 20212 5cc0 50       		.byte	0x50
 20213 5cc1 02       		.uleb128 0x2
 20214 5cc2 75       		.byte	0x75
 20215 5cc3 00       		.sleb128 0
 20216 5cc4 2A       		.uleb128 0x2a
 20217 5cc5 01       		.uleb128 0x1
 20218 5cc6 51       		.byte	0x51
 20219 5cc7 02       		.uleb128 0x2
 20220 5cc8 76       		.byte	0x76
 20221 5cc9 00       		.sleb128 0
 20222 5cca 00       		.byte	0
 20223 5ccb 29       		.uleb128 0x29
 20224 5ccc 96070000 		.4byte	.LVL120
 20225 5cd0 CB5E0000 		.4byte	0x5ecb
 20226 5cd4 E55C0000 		.4byte	0x5ce5
 20227 5cd8 2A       		.uleb128 0x2a
 20228 5cd9 01       		.uleb128 0x1
 20229 5cda 50       		.byte	0x50
 20230 5cdb 02       		.uleb128 0x2
 20231 5cdc 75       		.byte	0x75
 20232 5cdd 00       		.sleb128 0
 20233 5cde 2A       		.uleb128 0x2a
 20234 5cdf 01       		.uleb128 0x1
ARM GAS  /tmp/cc4M9ACW.s 			page 356


 20235 5ce0 51       		.byte	0x51
 20236 5ce1 02       		.uleb128 0x2
 20237 5ce2 76       		.byte	0x76
 20238 5ce3 00       		.sleb128 0
 20239 5ce4 00       		.byte	0
 20240 5ce5 29       		.uleb128 0x29
 20241 5ce6 A2070000 		.4byte	.LVL121
 20242 5cea CB5E0000 		.4byte	0x5ecb
 20243 5cee FF5C0000 		.4byte	0x5cff
 20244 5cf2 2A       		.uleb128 0x2a
 20245 5cf3 01       		.uleb128 0x1
 20246 5cf4 50       		.byte	0x50
 20247 5cf5 02       		.uleb128 0x2
 20248 5cf6 75       		.byte	0x75
 20249 5cf7 00       		.sleb128 0
 20250 5cf8 2A       		.uleb128 0x2a
 20251 5cf9 01       		.uleb128 0x1
 20252 5cfa 51       		.byte	0x51
 20253 5cfb 02       		.uleb128 0x2
 20254 5cfc 76       		.byte	0x76
 20255 5cfd 00       		.sleb128 0
 20256 5cfe 00       		.byte	0
 20257 5cff 29       		.uleb128 0x29
 20258 5d00 AE070000 		.4byte	.LVL122
 20259 5d04 CB5E0000 		.4byte	0x5ecb
 20260 5d08 195D0000 		.4byte	0x5d19
 20261 5d0c 2A       		.uleb128 0x2a
 20262 5d0d 01       		.uleb128 0x1
 20263 5d0e 50       		.byte	0x50
 20264 5d0f 02       		.uleb128 0x2
 20265 5d10 75       		.byte	0x75
 20266 5d11 00       		.sleb128 0
 20267 5d12 2A       		.uleb128 0x2a
 20268 5d13 01       		.uleb128 0x1
 20269 5d14 51       		.byte	0x51
 20270 5d15 02       		.uleb128 0x2
 20271 5d16 76       		.byte	0x76
 20272 5d17 00       		.sleb128 0
 20273 5d18 00       		.byte	0
 20274 5d19 29       		.uleb128 0x29
 20275 5d1a CE070000 		.4byte	.LVL123
 20276 5d1e CB5E0000 		.4byte	0x5ecb
 20277 5d22 335D0000 		.4byte	0x5d33
 20278 5d26 2A       		.uleb128 0x2a
 20279 5d27 01       		.uleb128 0x1
 20280 5d28 50       		.byte	0x50
 20281 5d29 02       		.uleb128 0x2
 20282 5d2a 75       		.byte	0x75
 20283 5d2b 00       		.sleb128 0
 20284 5d2c 2A       		.uleb128 0x2a
 20285 5d2d 01       		.uleb128 0x1
 20286 5d2e 51       		.byte	0x51
 20287 5d2f 02       		.uleb128 0x2
 20288 5d30 76       		.byte	0x76
 20289 5d31 00       		.sleb128 0
 20290 5d32 00       		.byte	0
 20291 5d33 29       		.uleb128 0x29
ARM GAS  /tmp/cc4M9ACW.s 			page 357


 20292 5d34 DE070000 		.4byte	.LVL124
 20293 5d38 E15E0000 		.4byte	0x5ee1
 20294 5d3c 595D0000 		.4byte	0x5d59
 20295 5d40 2A       		.uleb128 0x2a
 20296 5d41 01       		.uleb128 0x1
 20297 5d42 50       		.byte	0x50
 20298 5d43 02       		.uleb128 0x2
 20299 5d44 75       		.byte	0x75
 20300 5d45 00       		.sleb128 0
 20301 5d46 2A       		.uleb128 0x2a
 20302 5d47 02       		.uleb128 0x2
 20303 5d48 90       		.byte	0x90
 20304 5d49 41       		.uleb128 0x41
 20305 5d4a 07       		.uleb128 0x7
 20306 5d4b F4       		.byte	0xf4
 20307 5d4c 25       		.uleb128 0x25
 20308 5d4d 04       		.byte	0x4
 20309 5d4e CDCCCC3D 		.4byte	0x3dcccccd
 20310 5d52 2A       		.uleb128 0x2a
 20311 5d53 01       		.uleb128 0x1
 20312 5d54 51       		.byte	0x51
 20313 5d55 02       		.uleb128 0x2
 20314 5d56 76       		.byte	0x76
 20315 5d57 00       		.sleb128 0
 20316 5d58 00       		.byte	0
 20317 5d59 29       		.uleb128 0x29
 20318 5d5a EE070000 		.4byte	.LVL125
 20319 5d5e E15E0000 		.4byte	0x5ee1
 20320 5d62 7F5D0000 		.4byte	0x5d7f
 20321 5d66 2A       		.uleb128 0x2a
 20322 5d67 01       		.uleb128 0x1
 20323 5d68 50       		.byte	0x50
 20324 5d69 02       		.uleb128 0x2
 20325 5d6a 75       		.byte	0x75
 20326 5d6b 00       		.sleb128 0
 20327 5d6c 2A       		.uleb128 0x2a
 20328 5d6d 02       		.uleb128 0x2
 20329 5d6e 90       		.byte	0x90
 20330 5d6f 41       		.uleb128 0x41
 20331 5d70 07       		.uleb128 0x7
 20332 5d71 F4       		.byte	0xf4
 20333 5d72 25       		.uleb128 0x25
 20334 5d73 04       		.byte	0x4
 20335 5d74 00002041 		.4byte	0x41200000
 20336 5d78 2A       		.uleb128 0x2a
 20337 5d79 01       		.uleb128 0x1
 20338 5d7a 51       		.byte	0x51
 20339 5d7b 02       		.uleb128 0x2
 20340 5d7c 76       		.byte	0x76
 20341 5d7d 00       		.sleb128 0
 20342 5d7e 00       		.byte	0
 20343 5d7f 29       		.uleb128 0x29
 20344 5d80 0E080000 		.4byte	.LVL126
 20345 5d84 CB5E0000 		.4byte	0x5ecb
 20346 5d88 995D0000 		.4byte	0x5d99
 20347 5d8c 2A       		.uleb128 0x2a
 20348 5d8d 01       		.uleb128 0x1
ARM GAS  /tmp/cc4M9ACW.s 			page 358


 20349 5d8e 50       		.byte	0x50
 20350 5d8f 02       		.uleb128 0x2
 20351 5d90 75       		.byte	0x75
 20352 5d91 00       		.sleb128 0
 20353 5d92 2A       		.uleb128 0x2a
 20354 5d93 01       		.uleb128 0x1
 20355 5d94 51       		.byte	0x51
 20356 5d95 02       		.uleb128 0x2
 20357 5d96 76       		.byte	0x76
 20358 5d97 00       		.sleb128 0
 20359 5d98 00       		.byte	0
 20360 5d99 29       		.uleb128 0x29
 20361 5d9a 1A080000 		.4byte	.LVL127
 20362 5d9e CB5E0000 		.4byte	0x5ecb
 20363 5da2 B35D0000 		.4byte	0x5db3
 20364 5da6 2A       		.uleb128 0x2a
 20365 5da7 01       		.uleb128 0x1
 20366 5da8 50       		.byte	0x50
 20367 5da9 02       		.uleb128 0x2
 20368 5daa 75       		.byte	0x75
 20369 5dab 00       		.sleb128 0
 20370 5dac 2A       		.uleb128 0x2a
 20371 5dad 01       		.uleb128 0x1
 20372 5dae 51       		.byte	0x51
 20373 5daf 02       		.uleb128 0x2
 20374 5db0 76       		.byte	0x76
 20375 5db1 00       		.sleb128 0
 20376 5db2 00       		.byte	0
 20377 5db3 29       		.uleb128 0x29
 20378 5db4 3A080000 		.4byte	.LVL128
 20379 5db8 CB5E0000 		.4byte	0x5ecb
 20380 5dbc CD5D0000 		.4byte	0x5dcd
 20381 5dc0 2A       		.uleb128 0x2a
 20382 5dc1 01       		.uleb128 0x1
 20383 5dc2 50       		.byte	0x50
 20384 5dc3 02       		.uleb128 0x2
 20385 5dc4 75       		.byte	0x75
 20386 5dc5 00       		.sleb128 0
 20387 5dc6 2A       		.uleb128 0x2a
 20388 5dc7 01       		.uleb128 0x1
 20389 5dc8 51       		.byte	0x51
 20390 5dc9 02       		.uleb128 0x2
 20391 5dca 76       		.byte	0x76
 20392 5dcb 00       		.sleb128 0
 20393 5dcc 00       		.byte	0
 20394 5dcd 29       		.uleb128 0x29
 20395 5dce 46080000 		.4byte	.LVL129
 20396 5dd2 CB5E0000 		.4byte	0x5ecb
 20397 5dd6 E75D0000 		.4byte	0x5de7
 20398 5dda 2A       		.uleb128 0x2a
 20399 5ddb 01       		.uleb128 0x1
 20400 5ddc 50       		.byte	0x50
 20401 5ddd 02       		.uleb128 0x2
 20402 5dde 75       		.byte	0x75
 20403 5ddf 00       		.sleb128 0
 20404 5de0 2A       		.uleb128 0x2a
 20405 5de1 01       		.uleb128 0x1
ARM GAS  /tmp/cc4M9ACW.s 			page 359


 20406 5de2 51       		.byte	0x51
 20407 5de3 02       		.uleb128 0x2
 20408 5de4 76       		.byte	0x76
 20409 5de5 00       		.sleb128 0
 20410 5de6 00       		.byte	0
 20411 5de7 29       		.uleb128 0x29
 20412 5de8 62080000 		.4byte	.LVL130
 20413 5dec E15E0000 		.4byte	0x5ee1
 20414 5df0 095E0000 		.4byte	0x5e09
 20415 5df4 2A       		.uleb128 0x2a
 20416 5df5 01       		.uleb128 0x1
 20417 5df6 50       		.byte	0x50
 20418 5df7 02       		.uleb128 0x2
 20419 5df8 75       		.byte	0x75
 20420 5df9 00       		.sleb128 0
 20421 5dfa 2A       		.uleb128 0x2a
 20422 5dfb 02       		.uleb128 0x2
 20423 5dfc 90       		.byte	0x90
 20424 5dfd 41       		.uleb128 0x41
 20425 5dfe 03       		.uleb128 0x3
 20426 5dff F5       		.byte	0xf5
 20427 5e00 51       		.uleb128 0x51
 20428 5e01 25       		.uleb128 0x25
 20429 5e02 2A       		.uleb128 0x2a
 20430 5e03 01       		.uleb128 0x1
 20431 5e04 51       		.byte	0x51
 20432 5e05 02       		.uleb128 0x2
 20433 5e06 76       		.byte	0x76
 20434 5e07 00       		.sleb128 0
 20435 5e08 00       		.byte	0
 20436 5e09 29       		.uleb128 0x29
 20437 5e0a 72080000 		.4byte	.LVL131
 20438 5e0e E15E0000 		.4byte	0x5ee1
 20439 5e12 2B5E0000 		.4byte	0x5e2b
 20440 5e16 2A       		.uleb128 0x2a
 20441 5e17 01       		.uleb128 0x1
 20442 5e18 50       		.byte	0x50
 20443 5e19 02       		.uleb128 0x2
 20444 5e1a 75       		.byte	0x75
 20445 5e1b 00       		.sleb128 0
 20446 5e1c 2A       		.uleb128 0x2a
 20447 5e1d 02       		.uleb128 0x2
 20448 5e1e 90       		.byte	0x90
 20449 5e1f 41       		.uleb128 0x41
 20450 5e20 03       		.uleb128 0x3
 20451 5e21 F5       		.byte	0xf5
 20452 5e22 51       		.uleb128 0x51
 20453 5e23 25       		.uleb128 0x25
 20454 5e24 2A       		.uleb128 0x2a
 20455 5e25 01       		.uleb128 0x1
 20456 5e26 51       		.byte	0x51
 20457 5e27 02       		.uleb128 0x2
 20458 5e28 76       		.byte	0x76
 20459 5e29 00       		.sleb128 0
 20460 5e2a 00       		.byte	0
 20461 5e2b 29       		.uleb128 0x29
 20462 5e2c 82080000 		.4byte	.LVL132
ARM GAS  /tmp/cc4M9ACW.s 			page 360


 20463 5e30 E15E0000 		.4byte	0x5ee1
 20464 5e34 4D5E0000 		.4byte	0x5e4d
 20465 5e38 2A       		.uleb128 0x2a
 20466 5e39 01       		.uleb128 0x1
 20467 5e3a 50       		.byte	0x50
 20468 5e3b 02       		.uleb128 0x2
 20469 5e3c 75       		.byte	0x75
 20470 5e3d 00       		.sleb128 0
 20471 5e3e 2A       		.uleb128 0x2a
 20472 5e3f 02       		.uleb128 0x2
 20473 5e40 90       		.byte	0x90
 20474 5e41 41       		.uleb128 0x41
 20475 5e42 03       		.uleb128 0x3
 20476 5e43 F5       		.byte	0xf5
 20477 5e44 52       		.uleb128 0x52
 20478 5e45 25       		.uleb128 0x25
 20479 5e46 2A       		.uleb128 0x2a
 20480 5e47 01       		.uleb128 0x1
 20481 5e48 51       		.byte	0x51
 20482 5e49 02       		.uleb128 0x2
 20483 5e4a 76       		.byte	0x76
 20484 5e4b 00       		.sleb128 0
 20485 5e4c 00       		.byte	0
 20486 5e4d 2B       		.uleb128 0x2b
 20487 5e4e 92080000 		.4byte	.LVL133
 20488 5e52 E15E0000 		.4byte	0x5ee1
 20489 5e56 2A       		.uleb128 0x2a
 20490 5e57 01       		.uleb128 0x1
 20491 5e58 50       		.byte	0x50
 20492 5e59 02       		.uleb128 0x2
 20493 5e5a 75       		.byte	0x75
 20494 5e5b 00       		.sleb128 0
 20495 5e5c 2A       		.uleb128 0x2a
 20496 5e5d 02       		.uleb128 0x2
 20497 5e5e 90       		.byte	0x90
 20498 5e5f 41       		.uleb128 0x41
 20499 5e60 03       		.uleb128 0x3
 20500 5e61 F5       		.byte	0xf5
 20501 5e62 52       		.uleb128 0x52
 20502 5e63 25       		.uleb128 0x25
 20503 5e64 2A       		.uleb128 0x2a
 20504 5e65 01       		.uleb128 0x1
 20505 5e66 51       		.byte	0x51
 20506 5e67 02       		.uleb128 0x2
 20507 5e68 76       		.byte	0x76
 20508 5e69 00       		.sleb128 0
 20509 5e6a 00       		.byte	0
 20510 5e6b 00       		.byte	0
 20511 5e6c 0B       		.uleb128 0xb
 20512 5e6d 04       		.byte	0x4
 20513 5e6e 78150000 		.4byte	0x1578
 20514 5e72 2F       		.uleb128 0x2f
 20515 5e73 3A240000 		.4byte	.LASF701
 20516 5e77 3A240000 		.4byte	.LASF701
 20517 5e7b 11       		.byte	0x11
 20518 5e7c 2D02     		.2byte	0x22d
 20519 5e7e 30       		.uleb128 0x30
ARM GAS  /tmp/cc4M9ACW.s 			page 361


 20520 5e7f 69250000 		.4byte	.LASF702
 20521 5e83 69250000 		.4byte	.LASF702
 20522 5e87 12       		.byte	0x12
 20523 5e88 23       		.byte	0x23
 20524 5e89 30       		.uleb128 0x30
 20525 5e8a DD150000 		.4byte	.LASF703
 20526 5e8e DD150000 		.4byte	.LASF703
 20527 5e92 12       		.byte	0x12
 20528 5e93 26       		.byte	0x26
 20529 5e94 30       		.uleb128 0x30
 20530 5e95 CA230000 		.4byte	.LASF704
 20531 5e99 CA230000 		.4byte	.LASF704
 20532 5e9d 12       		.byte	0x12
 20533 5e9e 21       		.byte	0x21
 20534 5e9f 30       		.uleb128 0x30
 20535 5ea0 681E0000 		.4byte	.LASF705
 20536 5ea4 681E0000 		.4byte	.LASF705
 20537 5ea8 12       		.byte	0x12
 20538 5ea9 24       		.byte	0x24
 20539 5eaa 30       		.uleb128 0x30
 20540 5eab A1250000 		.4byte	.LASF706
 20541 5eaf A1250000 		.4byte	.LASF706
 20542 5eb3 12       		.byte	0x12
 20543 5eb4 20       		.byte	0x20
 20544 5eb5 30       		.uleb128 0x30
 20545 5eb6 8B1A0000 		.4byte	.LASF707
 20546 5eba 8B1A0000 		.4byte	.LASF707
 20547 5ebe 12       		.byte	0x12
 20548 5ebf 22       		.byte	0x22
 20549 5ec0 30       		.uleb128 0x30
 20550 5ec1 D7220000 		.4byte	.LASF708
 20551 5ec5 D7220000 		.4byte	.LASF708
 20552 5ec9 12       		.byte	0x12
 20553 5eca 1C       		.byte	0x1c
 20554 5ecb 30       		.uleb128 0x30
 20555 5ecc EB250000 		.4byte	.LASF709
 20556 5ed0 EB250000 		.4byte	.LASF709
 20557 5ed4 12       		.byte	0x12
 20558 5ed5 1F       		.byte	0x1f
 20559 5ed6 30       		.uleb128 0x30
 20560 5ed7 BE120000 		.4byte	.LASF710
 20561 5edb BE120000 		.4byte	.LASF710
 20562 5edf 12       		.byte	0x12
 20563 5ee0 1A       		.byte	0x1a
 20564 5ee1 30       		.uleb128 0x30
 20565 5ee2 751A0000 		.4byte	.LASF711
 20566 5ee6 751A0000 		.4byte	.LASF711
 20567 5eea 12       		.byte	0x12
 20568 5eeb 1D       		.byte	0x1d
 20569 5eec 30       		.uleb128 0x30
 20570 5eed 34200000 		.4byte	.LASF712
 20571 5ef1 34200000 		.4byte	.LASF712
 20572 5ef5 12       		.byte	0x12
 20573 5ef6 19       		.byte	0x19
 20574 5ef7 30       		.uleb128 0x30
 20575 5ef8 A6210000 		.4byte	.LASF713
 20576 5efc A6210000 		.4byte	.LASF713
ARM GAS  /tmp/cc4M9ACW.s 			page 362


 20577 5f00 12       		.byte	0x12
 20578 5f01 1B       		.byte	0x1b
 20579 5f02 00       		.byte	0
 20580              		.section	.debug_abbrev,"",%progbits
 20581              	.Ldebug_abbrev0:
 20582 0000 01       		.uleb128 0x1
 20583 0001 11       		.uleb128 0x11
 20584 0002 01       		.byte	0x1
 20585 0003 25       		.uleb128 0x25
 20586 0004 0E       		.uleb128 0xe
 20587 0005 13       		.uleb128 0x13
 20588 0006 0B       		.uleb128 0xb
 20589 0007 03       		.uleb128 0x3
 20590 0008 0E       		.uleb128 0xe
 20591 0009 1B       		.uleb128 0x1b
 20592 000a 0E       		.uleb128 0xe
 20593 000b 55       		.uleb128 0x55
 20594 000c 17       		.uleb128 0x17
 20595 000d 11       		.uleb128 0x11
 20596 000e 01       		.uleb128 0x1
 20597 000f 10       		.uleb128 0x10
 20598 0010 17       		.uleb128 0x17
 20599 0011 00       		.byte	0
 20600 0012 00       		.byte	0
 20601 0013 02       		.uleb128 0x2
 20602 0014 24       		.uleb128 0x24
 20603 0015 00       		.byte	0
 20604 0016 0B       		.uleb128 0xb
 20605 0017 0B       		.uleb128 0xb
 20606 0018 3E       		.uleb128 0x3e
 20607 0019 0B       		.uleb128 0xb
 20608 001a 03       		.uleb128 0x3
 20609 001b 0E       		.uleb128 0xe
 20610 001c 00       		.byte	0
 20611 001d 00       		.byte	0
 20612 001e 03       		.uleb128 0x3
 20613 001f 16       		.uleb128 0x16
 20614 0020 00       		.byte	0
 20615 0021 03       		.uleb128 0x3
 20616 0022 0E       		.uleb128 0xe
 20617 0023 3A       		.uleb128 0x3a
 20618 0024 0B       		.uleb128 0xb
 20619 0025 3B       		.uleb128 0x3b
 20620 0026 0B       		.uleb128 0xb
 20621 0027 49       		.uleb128 0x49
 20622 0028 13       		.uleb128 0x13
 20623 0029 00       		.byte	0
 20624 002a 00       		.byte	0
 20625 002b 04       		.uleb128 0x4
 20626 002c 24       		.uleb128 0x24
 20627 002d 00       		.byte	0
 20628 002e 0B       		.uleb128 0xb
 20629 002f 0B       		.uleb128 0xb
 20630 0030 3E       		.uleb128 0x3e
 20631 0031 0B       		.uleb128 0xb
 20632 0032 03       		.uleb128 0x3
 20633 0033 08       		.uleb128 0x8
ARM GAS  /tmp/cc4M9ACW.s 			page 363


 20634 0034 00       		.byte	0
 20635 0035 00       		.byte	0
 20636 0036 05       		.uleb128 0x5
 20637 0037 26       		.uleb128 0x26
 20638 0038 00       		.byte	0
 20639 0039 49       		.uleb128 0x49
 20640 003a 13       		.uleb128 0x13
 20641 003b 00       		.byte	0
 20642 003c 00       		.byte	0
 20643 003d 06       		.uleb128 0x6
 20644 003e 35       		.uleb128 0x35
 20645 003f 00       		.byte	0
 20646 0040 49       		.uleb128 0x49
 20647 0041 13       		.uleb128 0x13
 20648 0042 00       		.byte	0
 20649 0043 00       		.byte	0
 20650 0044 07       		.uleb128 0x7
 20651 0045 13       		.uleb128 0x13
 20652 0046 01       		.byte	0x1
 20653 0047 03       		.uleb128 0x3
 20654 0048 0E       		.uleb128 0xe
 20655 0049 0B       		.uleb128 0xb
 20656 004a 0B       		.uleb128 0xb
 20657 004b 3A       		.uleb128 0x3a
 20658 004c 0B       		.uleb128 0xb
 20659 004d 3B       		.uleb128 0x3b
 20660 004e 0B       		.uleb128 0xb
 20661 004f 01       		.uleb128 0x1
 20662 0050 13       		.uleb128 0x13
 20663 0051 00       		.byte	0
 20664 0052 00       		.byte	0
 20665 0053 08       		.uleb128 0x8
 20666 0054 0D       		.uleb128 0xd
 20667 0055 00       		.byte	0
 20668 0056 03       		.uleb128 0x3
 20669 0057 0E       		.uleb128 0xe
 20670 0058 3A       		.uleb128 0x3a
 20671 0059 0B       		.uleb128 0xb
 20672 005a 3B       		.uleb128 0x3b
 20673 005b 0B       		.uleb128 0xb
 20674 005c 49       		.uleb128 0x49
 20675 005d 13       		.uleb128 0x13
 20676 005e 38       		.uleb128 0x38
 20677 005f 0B       		.uleb128 0xb
 20678 0060 00       		.byte	0
 20679 0061 00       		.byte	0
 20680 0062 09       		.uleb128 0x9
 20681 0063 0D       		.uleb128 0xd
 20682 0064 00       		.byte	0
 20683 0065 03       		.uleb128 0x3
 20684 0066 08       		.uleb128 0x8
 20685 0067 3A       		.uleb128 0x3a
 20686 0068 0B       		.uleb128 0xb
 20687 0069 3B       		.uleb128 0x3b
 20688 006a 05       		.uleb128 0x5
 20689 006b 49       		.uleb128 0x49
 20690 006c 13       		.uleb128 0x13
ARM GAS  /tmp/cc4M9ACW.s 			page 364


 20691 006d 38       		.uleb128 0x38
 20692 006e 0B       		.uleb128 0xb
 20693 006f 00       		.byte	0
 20694 0070 00       		.byte	0
 20695 0071 0A       		.uleb128 0xa
 20696 0072 0D       		.uleb128 0xd
 20697 0073 00       		.byte	0
 20698 0074 03       		.uleb128 0x3
 20699 0075 0E       		.uleb128 0xe
 20700 0076 3A       		.uleb128 0x3a
 20701 0077 0B       		.uleb128 0xb
 20702 0078 3B       		.uleb128 0x3b
 20703 0079 05       		.uleb128 0x5
 20704 007a 49       		.uleb128 0x49
 20705 007b 13       		.uleb128 0x13
 20706 007c 38       		.uleb128 0x38
 20707 007d 0B       		.uleb128 0xb
 20708 007e 00       		.byte	0
 20709 007f 00       		.byte	0
 20710 0080 0B       		.uleb128 0xb
 20711 0081 0F       		.uleb128 0xf
 20712 0082 00       		.byte	0
 20713 0083 0B       		.uleb128 0xb
 20714 0084 0B       		.uleb128 0xb
 20715 0085 49       		.uleb128 0x49
 20716 0086 13       		.uleb128 0x13
 20717 0087 00       		.byte	0
 20718 0088 00       		.byte	0
 20719 0089 0C       		.uleb128 0xc
 20720 008a 13       		.uleb128 0x13
 20721 008b 01       		.byte	0x1
 20722 008c 03       		.uleb128 0x3
 20723 008d 0E       		.uleb128 0xe
 20724 008e 0B       		.uleb128 0xb
 20725 008f 0B       		.uleb128 0xb
 20726 0090 3A       		.uleb128 0x3a
 20727 0091 0B       		.uleb128 0xb
 20728 0092 3B       		.uleb128 0x3b
 20729 0093 05       		.uleb128 0x5
 20730 0094 01       		.uleb128 0x1
 20731 0095 13       		.uleb128 0x13
 20732 0096 00       		.byte	0
 20733 0097 00       		.byte	0
 20734 0098 0D       		.uleb128 0xd
 20735 0099 15       		.uleb128 0x15
 20736 009a 01       		.byte	0x1
 20737 009b 27       		.uleb128 0x27
 20738 009c 19       		.uleb128 0x19
 20739 009d 01       		.uleb128 0x1
 20740 009e 13       		.uleb128 0x13
 20741 009f 00       		.byte	0
 20742 00a0 00       		.byte	0
 20743 00a1 0E       		.uleb128 0xe
 20744 00a2 05       		.uleb128 0x5
 20745 00a3 00       		.byte	0
 20746 00a4 49       		.uleb128 0x49
 20747 00a5 13       		.uleb128 0x13
ARM GAS  /tmp/cc4M9ACW.s 			page 365


 20748 00a6 00       		.byte	0
 20749 00a7 00       		.byte	0
 20750 00a8 0F       		.uleb128 0xf
 20751 00a9 0F       		.uleb128 0xf
 20752 00aa 00       		.byte	0
 20753 00ab 0B       		.uleb128 0xb
 20754 00ac 0B       		.uleb128 0xb
 20755 00ad 00       		.byte	0
 20756 00ae 00       		.byte	0
 20757 00af 10       		.uleb128 0x10
 20758 00b0 13       		.uleb128 0x13
 20759 00b1 01       		.byte	0x1
 20760 00b2 03       		.uleb128 0x3
 20761 00b3 0E       		.uleb128 0xe
 20762 00b4 0B       		.uleb128 0xb
 20763 00b5 05       		.uleb128 0x5
 20764 00b6 3A       		.uleb128 0x3a
 20765 00b7 0B       		.uleb128 0xb
 20766 00b8 3B       		.uleb128 0x3b
 20767 00b9 05       		.uleb128 0x5
 20768 00ba 01       		.uleb128 0x1
 20769 00bb 13       		.uleb128 0x13
 20770 00bc 00       		.byte	0
 20771 00bd 00       		.byte	0
 20772 00be 11       		.uleb128 0x11
 20773 00bf 34       		.uleb128 0x34
 20774 00c0 00       		.byte	0
 20775 00c1 03       		.uleb128 0x3
 20776 00c2 0E       		.uleb128 0xe
 20777 00c3 3A       		.uleb128 0x3a
 20778 00c4 0B       		.uleb128 0xb
 20779 00c5 3B       		.uleb128 0x3b
 20780 00c6 05       		.uleb128 0x5
 20781 00c7 49       		.uleb128 0x49
 20782 00c8 13       		.uleb128 0x13
 20783 00c9 3F       		.uleb128 0x3f
 20784 00ca 19       		.uleb128 0x19
 20785 00cb 3C       		.uleb128 0x3c
 20786 00cc 19       		.uleb128 0x19
 20787 00cd 00       		.byte	0
 20788 00ce 00       		.byte	0
 20789 00cf 12       		.uleb128 0x12
 20790 00d0 34       		.uleb128 0x34
 20791 00d1 00       		.byte	0
 20792 00d2 03       		.uleb128 0x3
 20793 00d3 0E       		.uleb128 0xe
 20794 00d4 3A       		.uleb128 0x3a
 20795 00d5 0B       		.uleb128 0xb
 20796 00d6 3B       		.uleb128 0x3b
 20797 00d7 0B       		.uleb128 0xb
 20798 00d8 49       		.uleb128 0x49
 20799 00d9 13       		.uleb128 0x13
 20800 00da 3F       		.uleb128 0x3f
 20801 00db 19       		.uleb128 0x19
 20802 00dc 3C       		.uleb128 0x3c
 20803 00dd 19       		.uleb128 0x19
 20804 00de 00       		.byte	0
ARM GAS  /tmp/cc4M9ACW.s 			page 366


 20805 00df 00       		.byte	0
 20806 00e0 13       		.uleb128 0x13
 20807 00e1 0D       		.uleb128 0xd
 20808 00e2 00       		.byte	0
 20809 00e3 03       		.uleb128 0x3
 20810 00e4 08       		.uleb128 0x8
 20811 00e5 3A       		.uleb128 0x3a
 20812 00e6 0B       		.uleb128 0xb
 20813 00e7 3B       		.uleb128 0x3b
 20814 00e8 0B       		.uleb128 0xb
 20815 00e9 49       		.uleb128 0x49
 20816 00ea 13       		.uleb128 0x13
 20817 00eb 38       		.uleb128 0x38
 20818 00ec 0B       		.uleb128 0xb
 20819 00ed 00       		.byte	0
 20820 00ee 00       		.byte	0
 20821 00ef 14       		.uleb128 0x14
 20822 00f0 13       		.uleb128 0x13
 20823 00f1 01       		.byte	0x1
 20824 00f2 0B       		.uleb128 0xb
 20825 00f3 0B       		.uleb128 0xb
 20826 00f4 3A       		.uleb128 0x3a
 20827 00f5 0B       		.uleb128 0xb
 20828 00f6 3B       		.uleb128 0x3b
 20829 00f7 0B       		.uleb128 0xb
 20830 00f8 01       		.uleb128 0x1
 20831 00f9 13       		.uleb128 0x13
 20832 00fa 00       		.byte	0
 20833 00fb 00       		.byte	0
 20834 00fc 15       		.uleb128 0x15
 20835 00fd 17       		.uleb128 0x17
 20836 00fe 01       		.byte	0x1
 20837 00ff 0B       		.uleb128 0xb
 20838 0100 0B       		.uleb128 0xb
 20839 0101 3A       		.uleb128 0x3a
 20840 0102 0B       		.uleb128 0xb
 20841 0103 3B       		.uleb128 0x3b
 20842 0104 0B       		.uleb128 0xb
 20843 0105 01       		.uleb128 0x1
 20844 0106 13       		.uleb128 0x13
 20845 0107 00       		.byte	0
 20846 0108 00       		.byte	0
 20847 0109 16       		.uleb128 0x16
 20848 010a 0D       		.uleb128 0xd
 20849 010b 00       		.byte	0
 20850 010c 03       		.uleb128 0x3
 20851 010d 0E       		.uleb128 0xe
 20852 010e 3A       		.uleb128 0x3a
 20853 010f 0B       		.uleb128 0xb
 20854 0110 3B       		.uleb128 0x3b
 20855 0111 05       		.uleb128 0x5
 20856 0112 49       		.uleb128 0x49
 20857 0113 13       		.uleb128 0x13
 20858 0114 00       		.byte	0
 20859 0115 00       		.byte	0
 20860 0116 17       		.uleb128 0x17
 20861 0117 01       		.uleb128 0x1
ARM GAS  /tmp/cc4M9ACW.s 			page 367


 20862 0118 01       		.byte	0x1
 20863 0119 49       		.uleb128 0x49
 20864 011a 13       		.uleb128 0x13
 20865 011b 01       		.uleb128 0x1
 20866 011c 13       		.uleb128 0x13
 20867 011d 00       		.byte	0
 20868 011e 00       		.byte	0
 20869 011f 18       		.uleb128 0x18
 20870 0120 21       		.uleb128 0x21
 20871 0121 00       		.byte	0
 20872 0122 49       		.uleb128 0x49
 20873 0123 13       		.uleb128 0x13
 20874 0124 2F       		.uleb128 0x2f
 20875 0125 0B       		.uleb128 0xb
 20876 0126 00       		.byte	0
 20877 0127 00       		.byte	0
 20878 0128 19       		.uleb128 0x19
 20879 0129 34       		.uleb128 0x34
 20880 012a 00       		.byte	0
 20881 012b 03       		.uleb128 0x3
 20882 012c 08       		.uleb128 0x8
 20883 012d 3A       		.uleb128 0x3a
 20884 012e 0B       		.uleb128 0xb
 20885 012f 3B       		.uleb128 0x3b
 20886 0130 05       		.uleb128 0x5
 20887 0131 49       		.uleb128 0x49
 20888 0132 13       		.uleb128 0x13
 20889 0133 3F       		.uleb128 0x3f
 20890 0134 19       		.uleb128 0x19
 20891 0135 3C       		.uleb128 0x3c
 20892 0136 19       		.uleb128 0x19
 20893 0137 00       		.byte	0
 20894 0138 00       		.byte	0
 20895 0139 1A       		.uleb128 0x1a
 20896 013a 04       		.uleb128 0x4
 20897 013b 01       		.byte	0x1
 20898 013c 3E       		.uleb128 0x3e
 20899 013d 0B       		.uleb128 0xb
 20900 013e 0B       		.uleb128 0xb
 20901 013f 0B       		.uleb128 0xb
 20902 0140 49       		.uleb128 0x49
 20903 0141 13       		.uleb128 0x13
 20904 0142 3A       		.uleb128 0x3a
 20905 0143 0B       		.uleb128 0xb
 20906 0144 3B       		.uleb128 0x3b
 20907 0145 0B       		.uleb128 0xb
 20908 0146 01       		.uleb128 0x1
 20909 0147 13       		.uleb128 0x13
 20910 0148 00       		.byte	0
 20911 0149 00       		.byte	0
 20912 014a 1B       		.uleb128 0x1b
 20913 014b 28       		.uleb128 0x28
 20914 014c 00       		.byte	0
 20915 014d 03       		.uleb128 0x3
 20916 014e 0E       		.uleb128 0xe
 20917 014f 1C       		.uleb128 0x1c
 20918 0150 0B       		.uleb128 0xb
ARM GAS  /tmp/cc4M9ACW.s 			page 368


 20919 0151 00       		.byte	0
 20920 0152 00       		.byte	0
 20921 0153 1C       		.uleb128 0x1c
 20922 0154 16       		.uleb128 0x16
 20923 0155 00       		.byte	0
 20924 0156 03       		.uleb128 0x3
 20925 0157 0E       		.uleb128 0xe
 20926 0158 3A       		.uleb128 0x3a
 20927 0159 0B       		.uleb128 0xb
 20928 015a 3B       		.uleb128 0x3b
 20929 015b 05       		.uleb128 0x5
 20930 015c 49       		.uleb128 0x49
 20931 015d 13       		.uleb128 0x13
 20932 015e 00       		.byte	0
 20933 015f 00       		.byte	0
 20934 0160 1D       		.uleb128 0x1d
 20935 0161 04       		.uleb128 0x4
 20936 0162 01       		.byte	0x1
 20937 0163 3E       		.uleb128 0x3e
 20938 0164 0B       		.uleb128 0xb
 20939 0165 0B       		.uleb128 0xb
 20940 0166 0B       		.uleb128 0xb
 20941 0167 49       		.uleb128 0x49
 20942 0168 13       		.uleb128 0x13
 20943 0169 3A       		.uleb128 0x3a
 20944 016a 0B       		.uleb128 0xb
 20945 016b 3B       		.uleb128 0x3b
 20946 016c 05       		.uleb128 0x5
 20947 016d 01       		.uleb128 0x1
 20948 016e 13       		.uleb128 0x13
 20949 016f 00       		.byte	0
 20950 0170 00       		.byte	0
 20951 0171 1E       		.uleb128 0x1e
 20952 0172 13       		.uleb128 0x13
 20953 0173 01       		.byte	0x1
 20954 0174 0B       		.uleb128 0xb
 20955 0175 05       		.uleb128 0x5
 20956 0176 3A       		.uleb128 0x3a
 20957 0177 0B       		.uleb128 0xb
 20958 0178 3B       		.uleb128 0x3b
 20959 0179 05       		.uleb128 0x5
 20960 017a 01       		.uleb128 0x1
 20961 017b 13       		.uleb128 0x13
 20962 017c 00       		.byte	0
 20963 017d 00       		.byte	0
 20964 017e 1F       		.uleb128 0x1f
 20965 017f 0D       		.uleb128 0xd
 20966 0180 00       		.byte	0
 20967 0181 03       		.uleb128 0x3
 20968 0182 0E       		.uleb128 0xe
 20969 0183 3A       		.uleb128 0x3a
 20970 0184 0B       		.uleb128 0xb
 20971 0185 3B       		.uleb128 0x3b
 20972 0186 05       		.uleb128 0x5
 20973 0187 49       		.uleb128 0x49
 20974 0188 13       		.uleb128 0x13
 20975 0189 38       		.uleb128 0x38
ARM GAS  /tmp/cc4M9ACW.s 			page 369


 20976 018a 05       		.uleb128 0x5
 20977 018b 00       		.byte	0
 20978 018c 00       		.byte	0
 20979 018d 20       		.uleb128 0x20
 20980 018e 0D       		.uleb128 0xd
 20981 018f 00       		.byte	0
 20982 0190 03       		.uleb128 0x3
 20983 0191 08       		.uleb128 0x8
 20984 0192 3A       		.uleb128 0x3a
 20985 0193 0B       		.uleb128 0xb
 20986 0194 3B       		.uleb128 0x3b
 20987 0195 05       		.uleb128 0x5
 20988 0196 49       		.uleb128 0x49
 20989 0197 13       		.uleb128 0x13
 20990 0198 38       		.uleb128 0x38
 20991 0199 05       		.uleb128 0x5
 20992 019a 00       		.byte	0
 20993 019b 00       		.byte	0
 20994 019c 21       		.uleb128 0x21
 20995 019d 13       		.uleb128 0x13
 20996 019e 01       		.byte	0x1
 20997 019f 0B       		.uleb128 0xb
 20998 01a0 0B       		.uleb128 0xb
 20999 01a1 3A       		.uleb128 0x3a
 21000 01a2 0B       		.uleb128 0xb
 21001 01a3 3B       		.uleb128 0x3b
 21002 01a4 05       		.uleb128 0x5
 21003 01a5 01       		.uleb128 0x1
 21004 01a6 13       		.uleb128 0x13
 21005 01a7 00       		.byte	0
 21006 01a8 00       		.byte	0
 21007 01a9 22       		.uleb128 0x22
 21008 01aa 2E       		.uleb128 0x2e
 21009 01ab 01       		.byte	0x1
 21010 01ac 3F       		.uleb128 0x3f
 21011 01ad 19       		.uleb128 0x19
 21012 01ae 03       		.uleb128 0x3
 21013 01af 0E       		.uleb128 0xe
 21014 01b0 3A       		.uleb128 0x3a
 21015 01b1 0B       		.uleb128 0xb
 21016 01b2 3B       		.uleb128 0x3b
 21017 01b3 05       		.uleb128 0x5
 21018 01b4 27       		.uleb128 0x27
 21019 01b5 19       		.uleb128 0x19
 21020 01b6 11       		.uleb128 0x11
 21021 01b7 01       		.uleb128 0x1
 21022 01b8 12       		.uleb128 0x12
 21023 01b9 06       		.uleb128 0x6
 21024 01ba 40       		.uleb128 0x40
 21025 01bb 18       		.uleb128 0x18
 21026 01bc 9742     		.uleb128 0x2117
 21027 01be 19       		.uleb128 0x19
 21028 01bf 01       		.uleb128 0x1
 21029 01c0 13       		.uleb128 0x13
 21030 01c1 00       		.byte	0
 21031 01c2 00       		.byte	0
 21032 01c3 23       		.uleb128 0x23
ARM GAS  /tmp/cc4M9ACW.s 			page 370


 21033 01c4 05       		.uleb128 0x5
 21034 01c5 00       		.byte	0
 21035 01c6 03       		.uleb128 0x3
 21036 01c7 0E       		.uleb128 0xe
 21037 01c8 3A       		.uleb128 0x3a
 21038 01c9 0B       		.uleb128 0xb
 21039 01ca 3B       		.uleb128 0x3b
 21040 01cb 05       		.uleb128 0x5
 21041 01cc 49       		.uleb128 0x49
 21042 01cd 13       		.uleb128 0x13
 21043 01ce 02       		.uleb128 0x2
 21044 01cf 17       		.uleb128 0x17
 21045 01d0 00       		.byte	0
 21046 01d1 00       		.byte	0
 21047 01d2 24       		.uleb128 0x24
 21048 01d3 898201   		.uleb128 0x4109
 21049 01d6 00       		.byte	0
 21050 01d7 11       		.uleb128 0x11
 21051 01d8 01       		.uleb128 0x1
 21052 01d9 31       		.uleb128 0x31
 21053 01da 13       		.uleb128 0x13
 21054 01db 00       		.byte	0
 21055 01dc 00       		.byte	0
 21056 01dd 25       		.uleb128 0x25
 21057 01de 05       		.uleb128 0x5
 21058 01df 00       		.byte	0
 21059 01e0 03       		.uleb128 0x3
 21060 01e1 0E       		.uleb128 0xe
 21061 01e2 3A       		.uleb128 0x3a
 21062 01e3 0B       		.uleb128 0xb
 21063 01e4 3B       		.uleb128 0x3b
 21064 01e5 05       		.uleb128 0x5
 21065 01e6 49       		.uleb128 0x49
 21066 01e7 13       		.uleb128 0x13
 21067 01e8 02       		.uleb128 0x2
 21068 01e9 18       		.uleb128 0x18
 21069 01ea 00       		.byte	0
 21070 01eb 00       		.byte	0
 21071 01ec 26       		.uleb128 0x26
 21072 01ed 2E       		.uleb128 0x2e
 21073 01ee 01       		.byte	0x1
 21074 01ef 3F       		.uleb128 0x3f
 21075 01f0 19       		.uleb128 0x19
 21076 01f1 03       		.uleb128 0x3
 21077 01f2 0E       		.uleb128 0xe
 21078 01f3 3A       		.uleb128 0x3a
 21079 01f4 0B       		.uleb128 0xb
 21080 01f5 3B       		.uleb128 0x3b
 21081 01f6 05       		.uleb128 0x5
 21082 01f7 27       		.uleb128 0x27
 21083 01f8 19       		.uleb128 0x19
 21084 01f9 49       		.uleb128 0x49
 21085 01fa 13       		.uleb128 0x13
 21086 01fb 11       		.uleb128 0x11
 21087 01fc 01       		.uleb128 0x1
 21088 01fd 12       		.uleb128 0x12
 21089 01fe 06       		.uleb128 0x6
ARM GAS  /tmp/cc4M9ACW.s 			page 371


 21090 01ff 40       		.uleb128 0x40
 21091 0200 18       		.uleb128 0x18
 21092 0201 9742     		.uleb128 0x2117
 21093 0203 19       		.uleb128 0x19
 21094 0204 01       		.uleb128 0x1
 21095 0205 13       		.uleb128 0x13
 21096 0206 00       		.byte	0
 21097 0207 00       		.byte	0
 21098 0208 27       		.uleb128 0x27
 21099 0209 34       		.uleb128 0x34
 21100 020a 00       		.byte	0
 21101 020b 03       		.uleb128 0x3
 21102 020c 08       		.uleb128 0x8
 21103 020d 3A       		.uleb128 0x3a
 21104 020e 0B       		.uleb128 0xb
 21105 020f 3B       		.uleb128 0x3b
 21106 0210 05       		.uleb128 0x5
 21107 0211 49       		.uleb128 0x49
 21108 0212 13       		.uleb128 0x13
 21109 0213 02       		.uleb128 0x2
 21110 0214 18       		.uleb128 0x18
 21111 0215 00       		.byte	0
 21112 0216 00       		.byte	0
 21113 0217 28       		.uleb128 0x28
 21114 0218 34       		.uleb128 0x34
 21115 0219 00       		.byte	0
 21116 021a 03       		.uleb128 0x3
 21117 021b 0E       		.uleb128 0xe
 21118 021c 3A       		.uleb128 0x3a
 21119 021d 0B       		.uleb128 0xb
 21120 021e 3B       		.uleb128 0x3b
 21121 021f 05       		.uleb128 0x5
 21122 0220 49       		.uleb128 0x49
 21123 0221 13       		.uleb128 0x13
 21124 0222 02       		.uleb128 0x2
 21125 0223 17       		.uleb128 0x17
 21126 0224 00       		.byte	0
 21127 0225 00       		.byte	0
 21128 0226 29       		.uleb128 0x29
 21129 0227 898201   		.uleb128 0x4109
 21130 022a 01       		.byte	0x1
 21131 022b 11       		.uleb128 0x11
 21132 022c 01       		.uleb128 0x1
 21133 022d 31       		.uleb128 0x31
 21134 022e 13       		.uleb128 0x13
 21135 022f 01       		.uleb128 0x1
 21136 0230 13       		.uleb128 0x13
 21137 0231 00       		.byte	0
 21138 0232 00       		.byte	0
 21139 0233 2A       		.uleb128 0x2a
 21140 0234 8A8201   		.uleb128 0x410a
 21141 0237 00       		.byte	0
 21142 0238 02       		.uleb128 0x2
 21143 0239 18       		.uleb128 0x18
 21144 023a 9142     		.uleb128 0x2111
 21145 023c 18       		.uleb128 0x18
 21146 023d 00       		.byte	0
ARM GAS  /tmp/cc4M9ACW.s 			page 372


 21147 023e 00       		.byte	0
 21148 023f 2B       		.uleb128 0x2b
 21149 0240 898201   		.uleb128 0x4109
 21150 0243 01       		.byte	0x1
 21151 0244 11       		.uleb128 0x11
 21152 0245 01       		.uleb128 0x1
 21153 0246 31       		.uleb128 0x31
 21154 0247 13       		.uleb128 0x13
 21155 0248 00       		.byte	0
 21156 0249 00       		.byte	0
 21157 024a 2C       		.uleb128 0x2c
 21158 024b 2E       		.uleb128 0x2e
 21159 024c 01       		.byte	0x1
 21160 024d 3F       		.uleb128 0x3f
 21161 024e 19       		.uleb128 0x19
 21162 024f 03       		.uleb128 0x3
 21163 0250 0E       		.uleb128 0xe
 21164 0251 3A       		.uleb128 0x3a
 21165 0252 0B       		.uleb128 0xb
 21166 0253 3B       		.uleb128 0x3b
 21167 0254 0B       		.uleb128 0xb
 21168 0255 27       		.uleb128 0x27
 21169 0256 19       		.uleb128 0x19
 21170 0257 49       		.uleb128 0x49
 21171 0258 13       		.uleb128 0x13
 21172 0259 11       		.uleb128 0x11
 21173 025a 01       		.uleb128 0x1
 21174 025b 12       		.uleb128 0x12
 21175 025c 06       		.uleb128 0x6
 21176 025d 40       		.uleb128 0x40
 21177 025e 18       		.uleb128 0x18
 21178 025f 9742     		.uleb128 0x2117
 21179 0261 19       		.uleb128 0x19
 21180 0262 01       		.uleb128 0x1
 21181 0263 13       		.uleb128 0x13
 21182 0264 00       		.byte	0
 21183 0265 00       		.byte	0
 21184 0266 2D       		.uleb128 0x2d
 21185 0267 05       		.uleb128 0x5
 21186 0268 00       		.byte	0
 21187 0269 03       		.uleb128 0x3
 21188 026a 0E       		.uleb128 0xe
 21189 026b 3A       		.uleb128 0x3a
 21190 026c 0B       		.uleb128 0xb
 21191 026d 3B       		.uleb128 0x3b
 21192 026e 0B       		.uleb128 0xb
 21193 026f 49       		.uleb128 0x49
 21194 0270 13       		.uleb128 0x13
 21195 0271 02       		.uleb128 0x2
 21196 0272 17       		.uleb128 0x17
 21197 0273 00       		.byte	0
 21198 0274 00       		.byte	0
 21199 0275 2E       		.uleb128 0x2e
 21200 0276 34       		.uleb128 0x34
 21201 0277 00       		.byte	0
 21202 0278 03       		.uleb128 0x3
 21203 0279 08       		.uleb128 0x8
ARM GAS  /tmp/cc4M9ACW.s 			page 373


 21204 027a 3A       		.uleb128 0x3a
 21205 027b 0B       		.uleb128 0xb
 21206 027c 3B       		.uleb128 0x3b
 21207 027d 0B       		.uleb128 0xb
 21208 027e 49       		.uleb128 0x49
 21209 027f 13       		.uleb128 0x13
 21210 0280 02       		.uleb128 0x2
 21211 0281 18       		.uleb128 0x18
 21212 0282 00       		.byte	0
 21213 0283 00       		.byte	0
 21214 0284 2F       		.uleb128 0x2f
 21215 0285 2E       		.uleb128 0x2e
 21216 0286 00       		.byte	0
 21217 0287 3F       		.uleb128 0x3f
 21218 0288 19       		.uleb128 0x19
 21219 0289 3C       		.uleb128 0x3c
 21220 028a 19       		.uleb128 0x19
 21221 028b 6E       		.uleb128 0x6e
 21222 028c 0E       		.uleb128 0xe
 21223 028d 03       		.uleb128 0x3
 21224 028e 0E       		.uleb128 0xe
 21225 028f 3A       		.uleb128 0x3a
 21226 0290 0B       		.uleb128 0xb
 21227 0291 3B       		.uleb128 0x3b
 21228 0292 05       		.uleb128 0x5
 21229 0293 00       		.byte	0
 21230 0294 00       		.byte	0
 21231 0295 30       		.uleb128 0x30
 21232 0296 2E       		.uleb128 0x2e
 21233 0297 00       		.byte	0
 21234 0298 3F       		.uleb128 0x3f
 21235 0299 19       		.uleb128 0x19
 21236 029a 3C       		.uleb128 0x3c
 21237 029b 19       		.uleb128 0x19
 21238 029c 6E       		.uleb128 0x6e
 21239 029d 0E       		.uleb128 0xe
 21240 029e 03       		.uleb128 0x3
 21241 029f 0E       		.uleb128 0xe
 21242 02a0 3A       		.uleb128 0x3a
 21243 02a1 0B       		.uleb128 0xb
 21244 02a2 3B       		.uleb128 0x3b
 21245 02a3 0B       		.uleb128 0xb
 21246 02a4 00       		.byte	0
 21247 02a5 00       		.byte	0
 21248 02a6 00       		.byte	0
 21249              		.section	.debug_loc,"",%progbits
 21250              	.Ldebug_loc0:
 21251              	.LLST10:
 21252 0000 00000000 		.4byte	.LVL530
 21253 0004 09000000 		.4byte	.LVL531-1
 21254 0008 0100     		.2byte	0x1
 21255 000a 50       		.byte	0x50
 21256 000b 09000000 		.4byte	.LVL531-1
 21257 000f 16030000 		.4byte	.LVL532
 21258 0013 0100     		.2byte	0x1
 21259 0015 54       		.byte	0x54
 21260 0016 16030000 		.4byte	.LVL532
ARM GAS  /tmp/cc4M9ACW.s 			page 374


 21261 001a 6C030000 		.4byte	.LFE224
 21262 001e 0400     		.2byte	0x4
 21263 0020 F3       		.byte	0xf3
 21264 0021 01       		.uleb128 0x1
 21265 0022 50       		.byte	0x50
 21266 0023 9F       		.byte	0x9f
 21267 0024 00000000 		.4byte	0
 21268 0028 00000000 		.4byte	0
 21269              	.LLST7:
 21270 002c 00000000 		.4byte	.LVL399
 21271 0030 15000000 		.4byte	.LVL401-1
 21272 0034 0100     		.2byte	0x1
 21273 0036 50       		.byte	0x50
 21274 0037 15000000 		.4byte	.LVL401-1
 21275 003b 22000000 		.4byte	.LVL403
 21276 003f 0100     		.2byte	0x1
 21277 0041 55       		.byte	0x55
 21278 0042 22000000 		.4byte	.LVL403
 21279 0046 28000000 		.4byte	.LVL404
 21280 004a 0400     		.2byte	0x4
 21281 004c F3       		.byte	0xf3
 21282 004d 01       		.uleb128 0x1
 21283 004e 50       		.byte	0x50
 21284 004f 9F       		.byte	0x9f
 21285 0050 28000000 		.4byte	.LVL404
 21286 0054 56080000 		.4byte	.LFE222
 21287 0058 0100     		.2byte	0x1
 21288 005a 55       		.byte	0x55
 21289 005b 00000000 		.4byte	0
 21290 005f 00000000 		.4byte	0
 21291              	.LLST8:
 21292 0063 00000000 		.4byte	.LVL399
 21293 0067 10000000 		.4byte	.LVL400
 21294 006b 0100     		.2byte	0x1
 21295 006d 51       		.byte	0x51
 21296 006e 10000000 		.4byte	.LVL400
 21297 0072 22000000 		.4byte	.LVL403
 21298 0076 0100     		.2byte	0x1
 21299 0078 54       		.byte	0x54
 21300 0079 22000000 		.4byte	.LVL403
 21301 007d 28000000 		.4byte	.LVL404
 21302 0081 0400     		.2byte	0x4
 21303 0083 F3       		.byte	0xf3
 21304 0084 01       		.uleb128 0x1
 21305 0085 51       		.byte	0x51
 21306 0086 9F       		.byte	0x9f
 21307 0087 28000000 		.4byte	.LVL404
 21308 008b 56080000 		.4byte	.LFE222
 21309 008f 0100     		.2byte	0x1
 21310 0091 54       		.byte	0x54
 21311 0092 00000000 		.4byte	0
 21312 0096 00000000 		.4byte	0
 21313              	.LLST9:
 21314 009a 16000000 		.4byte	.LVL401
 21315 009e 1E000000 		.4byte	.LVL402
 21316 00a2 0100     		.2byte	0x1
 21317 00a4 50       		.byte	0x50
ARM GAS  /tmp/cc4M9ACW.s 			page 375


 21318 00a5 28000000 		.4byte	.LVL404
 21319 00a9 34000000 		.4byte	.LVL405
 21320 00ad 0100     		.2byte	0x1
 21321 00af 50       		.byte	0x50
 21322 00b0 00000000 		.4byte	0
 21323 00b4 00000000 		.4byte	0
 21324              	.LLST4:
 21325 00b8 00000000 		.4byte	.LVL261
 21326 00bc 15000000 		.4byte	.LVL263-1
 21327 00c0 0100     		.2byte	0x1
 21328 00c2 50       		.byte	0x50
 21329 00c3 15000000 		.4byte	.LVL263-1
 21330 00c7 22000000 		.4byte	.LVL265
 21331 00cb 0100     		.2byte	0x1
 21332 00cd 55       		.byte	0x55
 21333 00ce 22000000 		.4byte	.LVL265
 21334 00d2 34000000 		.4byte	.LVL266
 21335 00d6 0400     		.2byte	0x4
 21336 00d8 F3       		.byte	0xf3
 21337 00d9 01       		.uleb128 0x1
 21338 00da 50       		.byte	0x50
 21339 00db 9F       		.byte	0x9f
 21340 00dc 34000000 		.4byte	.LVL266
 21341 00e0 E8080000 		.4byte	.LFE221
 21342 00e4 0100     		.2byte	0x1
 21343 00e6 55       		.byte	0x55
 21344 00e7 00000000 		.4byte	0
 21345 00eb 00000000 		.4byte	0
 21346              	.LLST5:
 21347 00ef 00000000 		.4byte	.LVL261
 21348 00f3 10000000 		.4byte	.LVL262
 21349 00f7 0100     		.2byte	0x1
 21350 00f9 51       		.byte	0x51
 21351 00fa 10000000 		.4byte	.LVL262
 21352 00fe 22000000 		.4byte	.LVL265
 21353 0102 0100     		.2byte	0x1
 21354 0104 54       		.byte	0x54
 21355 0105 22000000 		.4byte	.LVL265
 21356 0109 34000000 		.4byte	.LVL266
 21357 010d 0400     		.2byte	0x4
 21358 010f F3       		.byte	0xf3
 21359 0110 01       		.uleb128 0x1
 21360 0111 51       		.byte	0x51
 21361 0112 9F       		.byte	0x9f
 21362 0113 34000000 		.4byte	.LVL266
 21363 0117 E8080000 		.4byte	.LFE221
 21364 011b 0100     		.2byte	0x1
 21365 011d 54       		.byte	0x54
 21366 011e 00000000 		.4byte	0
 21367 0122 00000000 		.4byte	0
 21368              	.LLST6:
 21369 0126 16000000 		.4byte	.LVL263
 21370 012a 1E000000 		.4byte	.LVL264
 21371 012e 0100     		.2byte	0x1
 21372 0130 50       		.byte	0x50
 21373 0131 34000000 		.4byte	.LVL266
 21374 0135 40000000 		.4byte	.LVL267
ARM GAS  /tmp/cc4M9ACW.s 			page 376


 21375 0139 0100     		.2byte	0x1
 21376 013b 50       		.byte	0x50
 21377 013c 00000000 		.4byte	0
 21378 0140 00000000 		.4byte	0
 21379              	.LLST2:
 21380 0144 00000000 		.4byte	.LVL135
 21381 0148 23000000 		.4byte	.LVL137-1
 21382 014c 0100     		.2byte	0x1
 21383 014e 50       		.byte	0x50
 21384 014f 23000000 		.4byte	.LVL137-1
 21385 0153 DC070000 		.4byte	.LFE220
 21386 0157 0100     		.2byte	0x1
 21387 0159 55       		.byte	0x55
 21388 015a 00000000 		.4byte	0
 21389 015e 00000000 		.4byte	0
 21390              	.LLST3:
 21391 0162 00000000 		.4byte	.LVL135
 21392 0166 16000000 		.4byte	.LVL136
 21393 016a 0100     		.2byte	0x1
 21394 016c 51       		.byte	0x51
 21395 016d 16000000 		.4byte	.LVL136
 21396 0171 DC070000 		.4byte	.LFE220
 21397 0175 0100     		.2byte	0x1
 21398 0177 54       		.byte	0x54
 21399 0178 00000000 		.4byte	0
 21400 017c 00000000 		.4byte	0
 21401              	.LLST0:
 21402 0180 00000000 		.4byte	.LVL0
 21403 0184 27000000 		.4byte	.LVL2-1
 21404 0188 0100     		.2byte	0x1
 21405 018a 50       		.byte	0x50
 21406 018b 27000000 		.4byte	.LVL2-1
 21407 018f A4080000 		.4byte	.LVL134
 21408 0193 0100     		.2byte	0x1
 21409 0195 55       		.byte	0x55
 21410 0196 A4080000 		.4byte	.LVL134
 21411 019a A8080000 		.4byte	.LFE219
 21412 019e 0400     		.2byte	0x4
 21413 01a0 F3       		.byte	0xf3
 21414 01a1 01       		.uleb128 0x1
 21415 01a2 50       		.byte	0x50
 21416 01a3 9F       		.byte	0x9f
 21417 01a4 00000000 		.4byte	0
 21418 01a8 00000000 		.4byte	0
 21419              	.LLST1:
 21420 01ac 00000000 		.4byte	.LVL0
 21421 01b0 16000000 		.4byte	.LVL1
 21422 01b4 0100     		.2byte	0x1
 21423 01b6 51       		.byte	0x51
 21424 01b7 16000000 		.4byte	.LVL1
 21425 01bb A4080000 		.4byte	.LVL134
 21426 01bf 0100     		.2byte	0x1
 21427 01c1 54       		.byte	0x54
 21428 01c2 A4080000 		.4byte	.LVL134
 21429 01c6 A8080000 		.4byte	.LFE219
 21430 01ca 0400     		.2byte	0x4
 21431 01cc F3       		.byte	0xf3
ARM GAS  /tmp/cc4M9ACW.s 			page 377


 21432 01cd 01       		.uleb128 0x1
 21433 01ce 51       		.byte	0x51
 21434 01cf 9F       		.byte	0x9f
 21435 01d0 00000000 		.4byte	0
 21436 01d4 00000000 		.4byte	0
 21437              		.section	.debug_aranges,"",%progbits
 21438 0000 44000000 		.4byte	0x44
 21439 0004 0200     		.2byte	0x2
 21440 0006 00000000 		.4byte	.Ldebug_info0
 21441 000a 04       		.byte	0x4
 21442 000b 00       		.byte	0
 21443 000c 0000     		.2byte	0
 21444 000e 0000     		.2byte	0
 21445 0010 00000000 		.4byte	.LFB219
 21446 0014 A8080000 		.4byte	.LFE219-.LFB219
 21447 0018 00000000 		.4byte	.LFB220
 21448 001c DC070000 		.4byte	.LFE220-.LFB220
 21449 0020 00000000 		.4byte	.LFB221
 21450 0024 E8080000 		.4byte	.LFE221-.LFB221
 21451 0028 00000000 		.4byte	.LFB222
 21452 002c 56080000 		.4byte	.LFE222-.LFB222
 21453 0030 00000000 		.4byte	.LFB223
 21454 0034 C8040000 		.4byte	.LFE223-.LFB223
 21455 0038 00000000 		.4byte	.LFB224
 21456 003c 6C030000 		.4byte	.LFE224-.LFB224
 21457 0040 00000000 		.4byte	0
 21458 0044 00000000 		.4byte	0
 21459              		.section	.debug_ranges,"",%progbits
 21460              	.Ldebug_ranges0:
 21461 0000 00000000 		.4byte	.LFB219
 21462 0004 A8080000 		.4byte	.LFE219
 21463 0008 00000000 		.4byte	.LFB220
 21464 000c DC070000 		.4byte	.LFE220
 21465 0010 00000000 		.4byte	.LFB221
 21466 0014 E8080000 		.4byte	.LFE221
 21467 0018 00000000 		.4byte	.LFB222
 21468 001c 56080000 		.4byte	.LFE222
 21469 0020 00000000 		.4byte	.LFB223
 21470 0024 C8040000 		.4byte	.LFE223
 21471 0028 00000000 		.4byte	.LFB224
 21472 002c 6C030000 		.4byte	.LFE224
 21473 0030 00000000 		.4byte	0
 21474 0034 00000000 		.4byte	0
 21475              		.section	.debug_line,"",%progbits
 21476              	.Ldebug_line0:
 21477 0000 580B0000 		.section	.debug_str,"MS",%progbits,1
 21477      02000B02 
 21477      00000201 
 21477      FB0E0D00 
 21477      01010101 
 21478              	.LASF488:
 21479 0000 4348554B 		.ascii	"CHUK_CTRL_TYPE_CURRENT\000"
 21479      5F435452 
 21479      4C5F5459 
 21479      50455F43 
 21479      55525245 
 21480              	.LASF93:
ARM GAS  /tmp/cc4M9ACW.s 			page 378


 21481 0017 706F7274 		.ascii	"port_intctx\000"
 21481      5F696E74 
 21481      63747800 
 21482              	.LASF433:
 21483 0023 6374726C 		.ascii	"ctrl_type\000"
 21483      5F747970 
 21483      6500
 21484              	.LASF252:
 21485 002d 6C5F6D61 		.ascii	"l_max_erpm_fbrake\000"
 21485      785F6572 
 21485      706D5F66 
 21485      6272616B 
 21485      6500
 21486              	.LASF115:
 21487 003f 63685F70 		.ascii	"ch_ptrsize\000"
 21487      74727369 
 21487      7A6500
 21488              	.LASF248:
 21489 004a 6C5F6162 		.ascii	"l_abs_current_max\000"
 21489      735F6375 
 21489      7272656E 
 21489      745F6D61 
 21489      7800
 21490              	.LASF422:
 21491 005c 50504D5F 		.ascii	"PPM_CTRL_TYPE_NONE\000"
 21491      4354524C 
 21491      5F545950 
 21491      455F4E4F 
 21491      4E4500
 21492              	.LASF470:
 21493 006f 5041535F 		.ascii	"PAS_CTRL_TYPE_TORQUE\000"
 21493      4354524C 
 21493      5F545950 
 21493      455F544F 
 21493      52515545 
 21494              	.LASF544:
 21495 0084 6661756C 		.ascii	"fault_pitch\000"
 21495      745F7069 
 21495      74636800 
 21496              	.LASF589:
 21497 0090 746F7271 		.ascii	"torquetilt_start_current\000"
 21497      75657469 
 21497      6C745F73 
 21497      74617274 
 21497      5F637572 
 21498              	.LASF28:
 21499 00a9 6D73675F 		.ascii	"msg_t\000"
 21499      7400
 21500              	.LASF188:
 21501 00af 53454E53 		.ascii	"SENSOR_PORT_MODE_TS5700N8501\000"
 21501      4F525F50 
 21501      4F52545F 
 21501      4D4F4445 
 21501      5F545335 
 21502              	.LASF656:
 21503 00cc 4B494C4C 		.ascii	"KILL_SW_MODE_ADC2_LOW\000"
 21503      5F53575F 
ARM GAS  /tmp/cc4M9ACW.s 			page 379


 21503      4D4F4445 
 21503      5F414443 
 21503      325F4C4F 
 21504              	.LASF307:
 21505 00e2 666F635F 		.ascii	"foc_observer_gain_slow\000"
 21505      6F627365 
 21505      72766572 
 21505      5F676169 
 21505      6E5F736C 
 21506              	.LASF518:
 21507 00f9 4E52465F 		.ascii	"NRF_RETR_DELAY_750US\000"
 21507      52455452 
 21507      5F44454C 
 21507      41595F37 
 21507      35305553 
 21508              	.LASF566:
 21509 010e 74696C74 		.ascii	"tiltback_constant_erpm\000"
 21509      6261636B 
 21509      5F636F6E 
 21509      7374616E 
 21509      745F6572 
 21510              	.LASF354:
 21511 0125 6770645F 		.ascii	"gpd_current_ki\000"
 21511      63757272 
 21511      656E745F 
 21511      6B6900
 21512              	.LASF128:
 21513 0134 63665F6F 		.ascii	"cf_off_time\000"
 21513      66665F74 
 21513      696D6500 
 21514              	.LASF82:
 21515 0140 63685F73 		.ascii	"ch_system_t\000"
 21515      79737465 
 21515      6D5F7400 
 21516              	.LASF3:
 21517 014c 5F5F7569 		.ascii	"__uint8_t\000"
 21517      6E74385F 
 21517      7400
 21518              	.LASF100:
 21519 0156 77747365 		.ascii	"wtsemp\000"
 21519      6D7000
 21520              	.LASF238:
 21521 015d 5049445F 		.ascii	"PID_RATE_10000_HZ\000"
 21521      52415445 
 21521      5F313030 
 21521      30305F48 
 21521      5A00
 21522              	.LASF435:
 21523 016f 68797374 		.ascii	"hyst\000"
 21523      00
 21524              	.LASF229:
 21525 0174 5F426F6F 		.ascii	"_Bool\000"
 21525      6C00
 21526              	.LASF626:
 21527 017a 494D555F 		.ascii	"IMU_TYPE_EXTERNAL_LSM6DS3\000"
 21527      54595045 
 21527      5F455854 
ARM GAS  /tmp/cc4M9ACW.s 			page 380


 21527      45524E41 
 21527      4C5F4C53 
 21528              	.LASF555:
 21529 0194 74696C74 		.ascii	"tiltback_duty_angle\000"
 21529      6261636B 
 21529      5F647574 
 21529      795F616E 
 21529      676C6500 
 21530              	.LASF219:
 21531 01a8 424D535F 		.ascii	"BMS_FWD_CAN_MODE_USB_ONLY\000"
 21531      4657445F 
 21531      43414E5F 
 21531      4D4F4445 
 21531      5F555342 
 21532              	.LASF481:
 21533 01c2 63635F62 		.ascii	"cc_button_inverted\000"
 21533      7574746F 
 21533      6E5F696E 
 21533      76657274 
 21533      656400
 21534              	.LASF603:
 21535 01d5 43414E5F 		.ascii	"CAN_STATUS_DISABLED\000"
 21535      53544154 
 21535      55535F44 
 21535      49534142 
 21535      4C454400 
 21536              	.LASF78:
 21537 01e9 76745F73 		.ascii	"vt_systime\000"
 21537      79737469 
 21537      6D6500
 21538              	.LASF382:
 21539 01f4 6D5F6472 		.ascii	"m_drv8301_oc_adj\000"
 21539      76383330 
 21539      315F6F63 
 21539      5F61646A 
 21539      00
 21540              	.LASF667:
 21541 0205 73687574 		.ascii	"shutdown_mode\000"
 21541      646F776E 
 21541      5F6D6F64 
 21541      6500
 21542              	.LASF483:
 21543 0213 766F6C74 		.ascii	"voltage_inverted\000"
 21543      6167655F 
 21543      696E7665 
 21543      72746564 
 21543      00
 21544              	.LASF109:
 21545 0224 6D5F6E65 		.ascii	"m_next\000"
 21545      787400
 21546              	.LASF258:
 21547 022b 6C5F736C 		.ascii	"l_slow_abs_current\000"
 21547      6F775F61 
 21547      62735F63 
 21547      75727265 
 21547      6E7400
 21548              	.LASF247:
ARM GAS  /tmp/cc4M9ACW.s 			page 381


 21549 023e 6C5F696E 		.ascii	"l_in_current_min\000"
 21549      5F637572 
 21549      72656E74 
 21549      5F6D696E 
 21549      00
 21550              	.LASF18:
 21551 024f 75696E74 		.ascii	"uint16_t\000"
 21551      31365F74 
 21551      00
 21552              	.LASF506:
 21553 0258 4E52465F 		.ascii	"NRF_POWER_M18DBM\000"
 21553      504F5745 
 21553      525F4D31 
 21553      3844424D 
 21553      00
 21554              	.LASF500:
 21555 0269 6D61676E 		.ascii	"magnets\000"
 21555      65747300 
 21556              	.LASF600:
 21557 0271 7475726E 		.ascii	"turntilt_erpm_boost\000"
 21557      74696C74 
 21557      5F657270 
 21557      6D5F626F 
 21557      6F737400 
 21558              	.LASF300:
 21559 0285 666F635F 		.ascii	"foc_encoder_cos_gain\000"
 21559      656E636F 
 21559      6465725F 
 21559      636F735F 
 21559      6761696E 
 21560              	.LASF170:
 21561 029a 74656D70 		.ascii	"temp_sensor_type\000"
 21561      5F73656E 
 21561      736F725F 
 21561      74797065 
 21561      00
 21562              	.LASF636:
 21563 02ab 6D61686F 		.ascii	"mahony_ki\000"
 21563      6E795F6B 
 21563      6900
 21564              	.LASF419:
 21565 02b5 53414645 		.ascii	"SAFE_START_REGULAR\000"
 21565      5F535441 
 21565      52545F52 
 21565      4547554C 
 21565      415200
 21566              	.LASF635:
 21567 02c8 6D61686F 		.ascii	"mahony_kp\000"
 21567      6E795F6B 
 21567      7000
 21568              	.LASF577:
 21569 02d2 726F6C6C 		.ascii	"roll_steer_kp\000"
 21569      5F737465 
 21569      65725F6B 
 21569      7000
 21570              	.LASF371:
 21571 02e0 63635F73 		.ascii	"cc_startup_boost_duty\000"
ARM GAS  /tmp/cc4M9ACW.s 			page 382


 21571      74617274 
 21571      75705F62 
 21571      6F6F7374 
 21571      5F647574 
 21572              	.LASF624:
 21573 02f6 494D555F 		.ascii	"IMU_TYPE_EXTERNAL_ICM20948\000"
 21573      54595045 
 21573      5F455854 
 21573      45524E41 
 21573      4C5F4943 
 21574              	.LASF59:
 21575 0311 63685F74 		.ascii	"ch_threads_queue\000"
 21575      68726561 
 21575      64735F71 
 21575      75657565 
 21575      00
 21576              	.LASF249:
 21577 0322 6C5F6D69 		.ascii	"l_min_erpm\000"
 21577      6E5F6572 
 21577      706D00
 21578              	.LASF37:
 21579 032d 705F6E65 		.ascii	"p_newer\000"
 21579      77657200 
 21580              	.LASF206:
 21581 0335 43414E5F 		.ascii	"CAN_BAUD\000"
 21581      42415544 
 21581      00
 21582              	.LASF336:
 21583 033e 666F635F 		.ascii	"foc_sl_erpm_hfi\000"
 21583      736C5F65 
 21583      72706D5F 
 21583      68666900 
 21584              	.LASF335:
 21585 034e 666F635F 		.ascii	"foc_hfi_voltage_max\000"
 21585      6866695F 
 21585      766F6C74 
 21585      6167655F 
 21585      6D617800 
 21586              	.LASF653:
 21587 0362 4B494C4C 		.ascii	"KILL_SW_MODE_DISABLED\000"
 21587      5F53575F 
 21587      4D4F4445 
 21587      5F444953 
 21587      41424C45 
 21588              	.LASF125:
 21589 0378 63665F6F 		.ascii	"cf_off_flags\000"
 21589      66665F66 
 21589      6C616773 
 21589      00
 21590              	.LASF593:
 21591 0385 746F7271 		.ascii	"torquetilt_strength\000"
 21591      75657469 
 21591      6C745F73 
 21591      7472656E 
 21591      67746800 
 21592              	.LASF537:
 21593 0399 72657472 		.ascii	"retries\000"
ARM GAS  /tmp/cc4M9ACW.s 			page 383


 21593      69657300 
 21594              	.LASF153:
 21595 03a1 4F55545F 		.ascii	"OUT_AUX_MODE_UNUSED\000"
 21595      4155585F 
 21595      4D4F4445 
 21595      5F554E55 
 21595      53454400 
 21596              	.LASF394:
 21597 03b5 73695F67 		.ascii	"si_gear_ratio\000"
 21597      6561725F 
 21597      72617469 
 21597      6F00
 21598              	.LASF517:
 21599 03c3 4E52465F 		.ascii	"NRF_RETR_DELAY_500US\000"
 21599      52455452 
 21599      5F44454C 
 21599      41595F35 
 21599      30305553 
 21600              	.LASF165:
 21601 03d8 54454D50 		.ascii	"TEMP_SENSOR_KTY83_122\000"
 21601      5F53454E 
 21601      534F525F 
 21601      4B545938 
 21601      335F3132 
 21602              	.LASF226:
 21603 03ee 736F635F 		.ascii	"soc_limit_end\000"
 21603      6C696D69 
 21603      745F656E 
 21603      6400
 21604              	.LASF568:
 21605 03fc 74696C74 		.ascii	"tiltback_variable_max\000"
 21605      6261636B 
 21605      5F766172 
 21605      6961626C 
 21605      655F6D61 
 21606              	.LASF509:
 21607 0412 4E52465F 		.ascii	"NRF_POWER_0DBM\000"
 21607      504F5745 
 21607      525F3044 
 21607      424D00
 21608              	.LASF590:
 21609 0421 746F7271 		.ascii	"torquetilt_angle_limit\000"
 21609      75657469 
 21609      6C745F61 
 21609      6E676C65 
 21609      5F6C696D 
 21610              	.LASF113:
 21611 0438 63685F73 		.ascii	"ch_size\000"
 21611      697A6500 
 21612              	.LASF203:
 21613 0440 43414E5F 		.ascii	"CAN_BAUD_50K\000"
 21613      42415544 
 21613      5F35304B 
 21613      00
 21614              	.LASF190:
 21615 044d 53454E53 		.ascii	"SENSOR_PORT_MODE_MT6816_SPI\000"
 21615      4F525F50 
ARM GAS  /tmp/cc4M9ACW.s 			page 384


 21615      4F52545F 
 21615      4D4F4445 
 21615      5F4D5436 
 21616              	.LASF588:
 21617 0469 626F6F73 		.ascii	"booster_current\000"
 21617      7465725F 
 21617      63757272 
 21617      656E7400 
 21618              	.LASF612:
 21619 0479 53485554 		.ascii	"SHUTDOWN_MODE_TOGGLE_BUTTON_ONLY\000"
 21619      444F574E 
 21619      5F4D4F44 
 21619      455F544F 
 21619      47474C45 
 21620              	.LASF260:
 21621 049a 6C5F7465 		.ascii	"l_temp_fet_end\000"
 21621      6D705F66 
 21621      65745F65 
 21621      6E6400
 21622              	.LASF542:
 21623 04a9 68657274 		.ascii	"hertz\000"
 21623      7A00
 21624              	.LASF398:
 21625 04af 73695F62 		.ascii	"si_battery_ah\000"
 21625      61747465 
 21625      72795F61 
 21625      6800
 21626              	.LASF608:
 21627 04bd 43414E5F 		.ascii	"CAN_STATUS_1_2_3_4_5\000"
 21627      53544154 
 21627      55535F31 
 21627      5F325F33 
 21627      5F345F35 
 21628              	.LASF32:
 21629 04d2 74687265 		.ascii	"thread_t\000"
 21629      61645F74 
 21629      00
 21630              	.LASF602:
 21631 04db 62616C61 		.ascii	"balance_config\000"
 21631      6E63655F 
 21631      636F6E66 
 21631      696700
 21632              	.LASF77:
 21633 04ea 63685F76 		.ascii	"ch_virtual_timers_list\000"
 21633      69727475 
 21633      616C5F74 
 21633      696D6572 
 21633      735F6C69 
 21634              	.LASF19:
 21635 0501 696E7433 		.ascii	"int32_t\000"
 21635      325F7400 
 21636              	.LASF308:
 21637 0509 666F635F 		.ascii	"foc_observer_offset\000"
 21637      6F627365 
 21637      72766572 
 21637      5F6F6666 
 21637      73657400 
ARM GAS  /tmp/cc4M9ACW.s 			page 385


 21638              	.LASF31:
 21639 051d 73797374 		.ascii	"systime_t\000"
 21639      696D655F 
 21639      7400
 21640              	.LASF123:
 21641 0527 63665F6F 		.ascii	"cf_off_stklimit\000"
 21641      66665F73 
 21641      746B6C69 
 21641      6D697400 
 21642              	.LASF192:
 21643 0537 44525638 		.ascii	"DRV8301_OC_LIMIT\000"
 21643      3330315F 
 21643      4F435F4C 
 21643      494D4954 
 21643      00
 21644              	.LASF638:
 21645 0548 726F745F 		.ascii	"rot_roll\000"
 21645      726F6C6C 
 21645      00
 21646              	.LASF639:
 21647 0551 726F745F 		.ascii	"rot_pitch\000"
 21647      70697463 
 21647      6800
 21648              	.LASF586:
 21649 055b 626F6F73 		.ascii	"booster_angle\000"
 21649      7465725F 
 21649      616E676C 
 21649      6500
 21650              	.LASF532:
 21651 0569 4E52465F 		.ascii	"NRF_RETR_DELAY\000"
 21651      52455452 
 21651      5F44454C 
 21651      415900
 21652              	.LASF181:
 21653 0578 464F435F 		.ascii	"FOC_OBSERVER_ORTEGA_ORIGINAL\000"
 21653      4F425345 
 21653      52564552 
 21653      5F4F5254 
 21653      4547415F 
 21654              	.LASF473:
 21655 0595 5041535F 		.ascii	"PAS_SENSOR_TYPE_QUADRATURE\000"
 21655      53454E53 
 21655      4F525F54 
 21655      5950455F 
 21655      51554144 
 21656              	.LASF134:
 21657 05b0 50574D5F 		.ascii	"PWM_MODE_BIPOLAR\000"
 21657      4D4F4445 
 21657      5F424950 
 21657      4F4C4152 
 21657      00
 21658              	.LASF157:
 21659 05c1 4F55545F 		.ascii	"OUT_AUX_MODE_MOSFET_50\000"
 21659      4155585F 
 21659      4D4F4445 
 21659      5F4D4F53 
 21659      4645545F 
ARM GAS  /tmp/cc4M9ACW.s 			page 386


 21660              	.LASF135:
 21661 05d8 6D635F70 		.ascii	"mc_pwm_mode\000"
 21661      776D5F6D 
 21661      6F646500 
 21662              	.LASF411:
 21663 05e4 4150505F 		.ascii	"APP_PAS\000"
 21663      50415300 
 21664              	.LASF571:
 21665 05ec 73746172 		.ascii	"startup_roll_tolerance\000"
 21665      7475705F 
 21665      726F6C6C 
 21665      5F746F6C 
 21665      6572616E 
 21666              	.LASF610:
 21667 0603 53485554 		.ascii	"SHUTDOWN_MODE_ALWAYS_OFF\000"
 21667      444F574E 
 21667      5F4D4F44 
 21667      455F414C 
 21667      57415953 
 21668              	.LASF197:
 21669 061c 43414E5F 		.ascii	"CAN_BAUD_125K\000"
 21669      42415544 
 21669      5F313235 
 21669      4B00
 21670              	.LASF572:
 21671 062a 73746172 		.ascii	"startup_speed\000"
 21671      7475705F 
 21671      73706565 
 21671      6400
 21672              	.LASF633:
 21673 0638 73616D70 		.ascii	"sample_rate_hz\000"
 21673      6C655F72 
 21673      6174655F 
 21673      687A00
 21674              	.LASF616:
 21675 0647 53485554 		.ascii	"SHUTDOWN_MODE_OFF_AFTER_10M\000"
 21675      444F574E 
 21675      5F4D4F44 
 21675      455F4F46 
 21675      465F4146 
 21676              	.LASF677:
 21677 0663 6170705F 		.ascii	"app_uart_baudrate\000"
 21677      75617274 
 21677      5F626175 
 21677      64726174 
 21677      6500
 21678              	.LASF613:
 21679 0675 53485554 		.ascii	"SHUTDOWN_MODE_OFF_AFTER_10S\000"
 21679      444F574E 
 21679      5F4D4F44 
 21679      455F4F46 
 21679      465F4146 
 21680              	.LASF559:
 21681 0691 74696C74 		.ascii	"tiltback_hv_speed\000"
 21681      6261636B 
 21681      5F68765F 
 21681      73706565 
ARM GAS  /tmp/cc4M9ACW.s 			page 387


 21681      6400
 21682              	.LASF149:
 21683 06a3 4F55545F 		.ascii	"OUT_AUX_MODE_OFF\000"
 21683      4155585F 
 21683      4D4F4445 
 21683      5F4F4646 
 21683      00
 21684              	.LASF230:
 21685 06b4 5049445F 		.ascii	"PID_RATE_25_HZ\000"
 21685      52415445 
 21685      5F32355F 
 21685      485A00
 21686              	.LASF564:
 21687 06c3 74696C74 		.ascii	"tiltback_return_speed\000"
 21687      6261636B 
 21687      5F726574 
 21687      75726E5F 
 21687      73706565 
 21688              	.LASF85:
 21689 06d9 76746C69 		.ascii	"vtlist\000"
 21689      737400
 21690              	.LASF413:
 21691 06e0 6170705F 		.ascii	"app_use\000"
 21691      75736500 
 21692              	.LASF237:
 21693 06e8 5049445F 		.ascii	"PID_RATE_5000_HZ\000"
 21693      52415445 
 21693      5F353030 
 21693      305F485A 
 21693      00
 21694              	.LASF46:
 21695 06f9 705F7761 		.ascii	"p_waiting\000"
 21695      6974696E 
 21695      6700
 21696              	.LASF240:
 21697 0703 4D545041 		.ascii	"MTPA_MODE_OFF\000"
 21697      5F4D4F44 
 21697      455F4F46 
 21697      4600
 21698              	.LASF159:
 21699 0711 4F55545F 		.ascii	"OUT_AUX_MODE_MOSFET_70\000"
 21699      4155585F 
 21699      4D4F4445 
 21699      5F4D4F53 
 21699      4645545F 
 21700              	.LASF84:
 21701 0728 726C6973 		.ascii	"rlist\000"
 21701      7400
 21702              	.LASF55:
 21703 072e 74687265 		.ascii	"threads_list_t\000"
 21703      6164735F 
 21703      6C697374 
 21703      5F7400
 21704              	.LASF119:
 21705 073d 63665F6F 		.ascii	"cf_off_ctx\000"
 21705      66665F63 
 21705      747800
ARM GAS  /tmp/cc4M9ACW.s 			page 388


 21706              	.LASF282:
 21707 0748 736C5F6D 		.ascii	"sl_min_erpm_cycle_int_limit\000"
 21707      696E5F65 
 21707      72706D5F 
 21707      6379636C 
 21707      655F696E 
 21708              	.LASF121:
 21709 0764 63665F6F 		.ascii	"cf_off_older\000"
 21709      66665F6F 
 21709      6C646572 
 21709      00
 21710              	.LASF291:
 21711 0771 666F635F 		.ascii	"foc_current_ki\000"
 21711      63757272 
 21711      656E745F 
 21711      6B6900
 21712              	.LASF679:
 21713 0780 6170705F 		.ascii	"app_nrf_conf\000"
 21713      6E72665F 
 21713      636F6E66 
 21713      00
 21714              	.LASF447:
 21715 078d 74635F6D 		.ascii	"tc_max_diff\000"
 21715      61785F64 
 21715      69666600 
 21716              	.LASF290:
 21717 0799 666F635F 		.ascii	"foc_current_kp\000"
 21717      63757272 
 21717      656E745F 
 21717      6B7000
 21718              	.LASF507:
 21719 07a8 4E52465F 		.ascii	"NRF_POWER_M12DBM\000"
 21719      504F5745 
 21719      525F4D31 
 21719      3244424D 
 21719      00
 21720              	.LASF471:
 21721 07b9 5041535F 		.ascii	"PAS_CTRL_TYPE_TORQUE_WITH_CADENCE_TIMEOUT\000"
 21721      4354524C 
 21721      5F545950 
 21721      455F544F 
 21721      52515545 
 21722              	.LASF218:
 21723 07e3 424D535F 		.ascii	"BMS_FWD_CAN_MODE_DISABLED\000"
 21723      4657445F 
 21723      43414E5F 
 21723      4D4F4445 
 21723      5F444953 
 21724              	.LASF350:
 21725 07fd 6770645F 		.ascii	"gpd_buffer_notify_left\000"
 21725      62756666 
 21725      65725F6E 
 21725      6F746966 
 21725      795F6C65 
 21726              	.LASF386:
 21727 0814 6D5F6E74 		.ascii	"m_ntc_motor_beta\000"
 21727      635F6D6F 
ARM GAS  /tmp/cc4M9ACW.s 			page 389


 21727      746F725F 
 21727      62657461 
 21727      00
 21728              	.LASF581:
 21729 0825 7961775F 		.ascii	"yaw_current_clamp\000"
 21729      63757272 
 21729      656E745F 
 21729      636C616D 
 21729      7000
 21730              	.LASF443:
 21731 0837 7468726F 		.ascii	"throttle_exp_mode\000"
 21731      74746C65 
 21731      5F657870 
 21731      5F6D6F64 
 21731      6500
 21732              	.LASF27:
 21733 0849 74707269 		.ascii	"tprio_t\000"
 21733      6F5F7400 
 21734              	.LASF554:
 21735 0851 6661756C 		.ascii	"fault_adc_half_erpm\000"
 21735      745F6164 
 21735      635F6861 
 21735      6C665F65 
 21735      72706D00 
 21736              	.LASF152:
 21737 0865 4F55545F 		.ascii	"OUT_AUX_MODE_ON_AFTER_10S\000"
 21737      4155585F 
 21737      4D4F4445 
 21737      5F4F4E5F 
 21737      41465445 
 21738              	.LASF666:
 21739 087f 7065726D 		.ascii	"permanent_uart_enabled\000"
 21739      616E656E 
 21739      745F7561 
 21739      72745F65 
 21739      6E61626C 
 21740              	.LASF515:
 21741 0896 4E52465F 		.ascii	"NRF_CRC\000"
 21741      43524300 
 21742              	.LASF606:
 21743 089e 43414E5F 		.ascii	"CAN_STATUS_1_2_3\000"
 21743      53544154 
 21743      55535F31 
 21743      5F325F33 
 21743      00
 21744              	.LASF654:
 21745 08af 4B494C4C 		.ascii	"KILL_SW_MODE_PPM_LOW\000"
 21745      5F53575F 
 21745      4D4F4445 
 21745      5F50504D 
 21745      5F4C4F57 
 21746              	.LASF478:
 21747 08c4 766F6C74 		.ascii	"voltage2_start\000"
 21747      61676532 
 21747      5F737461 
 21747      727400
 21748              	.LASF53:
ARM GAS  /tmp/cc4M9ACW.s 			page 390


 21749 08d3 6D6F746F 		.ascii	"motor_selected\000"
 21749      725F7365 
 21749      6C656374 
 21749      656400
 21750              	.LASF582:
 21751 08e2 6B645F70 		.ascii	"kd_pt1_lowpass_frequency\000"
 21751      74315F6C 
 21751      6F777061 
 21751      73735F66 
 21751      72657175 
 21752              	.LASF234:
 21753 08fb 5049445F 		.ascii	"PID_RATE_500_HZ\000"
 21753      52415445 
 21753      5F353030 
 21753      5F485A00 
 21754              	.LASF225:
 21755 090b 736F635F 		.ascii	"soc_limit_start\000"
 21755      6C696D69 
 21755      745F7374 
 21755      61727400 
 21756              	.LASF163:
 21757 091b 54454D50 		.ascii	"TEMP_SENSOR_NTC_10K_25C\000"
 21757      5F53454E 
 21757      534F525F 
 21757      4E54435F 
 21757      31304B5F 
 21758              	.LASF144:
 21759 0933 464F435F 		.ascii	"FOC_SENSOR_MODE_ENCODER\000"
 21759      53454E53 
 21759      4F525F4D 
 21759      4F44455F 
 21759      454E434F 
 21760              	.LASF451:
 21761 094b 70706D5F 		.ascii	"ppm_config\000"
 21761      636F6E66 
 21761      696700
 21762              	.LASF222:
 21763 0956 74797065 		.ascii	"type\000"
 21763      00
 21764              	.LASF429:
 21765 095b 50504D5F 		.ascii	"PPM_CTRL_TYPE_PID_NOREV\000"
 21765      4354524C 
 21765      5F545950 
 21765      455F5049 
 21765      445F4E4F 
 21766              	.LASF475:
 21767 0973 766F6C74 		.ascii	"voltage_start\000"
 21767      6167655F 
 21767      73746172 
 21767      7400
 21768              	.LASF498:
 21769 0981 70656461 		.ascii	"pedal_rpm_end\000"
 21769      6C5F7270 
 21769      6D5F656E 
 21769      6400
 21770              	.LASF551:
 21771 098f 6661756C 		.ascii	"fault_delay_duty\000"
ARM GAS  /tmp/cc4M9ACW.s 			page 391


 21771      745F6465 
 21771      6C61795F 
 21771      64757479 
 21771      00
 21772              	.LASF345:
 21773 09a0 666F635F 		.ascii	"foc_mtpa_mode\000"
 21773      6D747061 
 21773      5F6D6F64 
 21773      6500
 21774              	.LASF194:
 21775 09ae 44525638 		.ascii	"DRV8301_OC_REPORT_ONLY\000"
 21775      3330315F 
 21775      4F435F52 
 21775      45504F52 
 21775      545F4F4E 
 21776              	.LASF408:
 21777 09c5 4150505F 		.ascii	"APP_NRF\000"
 21777      4E524600 
 21778              	.LASF6:
 21779 09cd 5F5F7569 		.ascii	"__uint16_t\000"
 21779      6E743136 
 21779      5F7400
 21780              	.LASF486:
 21781 09d8 6164635F 		.ascii	"adc_config\000"
 21781      636F6E66 
 21781      696700
 21782              	.LASF48:
 21783 09e3 705F6D73 		.ascii	"p_msg\000"
 21783      6700
 21784              	.LASF375:
 21785 09e9 6D5F6661 		.ascii	"m_fault_stop_time_ms\000"
 21785      756C745F 
 21785      73746F70 
 21785      5F74696D 
 21785      655F6D73 
 21786              	.LASF298:
 21787 09fe 666F635F 		.ascii	"foc_encoder_sin_gain\000"
 21787      656E636F 
 21787      6465725F 
 21787      73696E5F 
 21787      6761696E 
 21788              	.LASF353:
 21789 0a13 6770645F 		.ascii	"gpd_current_kp\000"
 21789      63757272 
 21789      656E745F 
 21789      6B7000
 21790              	.LASF632:
 21791 0a22 6D6F6465 		.ascii	"mode\000"
 21791      00
 21792              	.LASF124:
 21793 0a27 63665F6F 		.ascii	"cf_off_state\000"
 21793      66665F73 
 21793      74617465 
 21793      00
 21794              	.LASF562:
 21795 0a34 74696C74 		.ascii	"tiltback_lv_speed\000"
 21795      6261636B 
ARM GAS  /tmp/cc4M9ACW.s 			page 392


 21795      5F6C765F 
 21795      73706565 
 21795      6400
 21796              	.LASF302:
 21797 0a46 666F635F 		.ascii	"foc_motor_l\000"
 21797      6D6F746F 
 21797      725F6C00 
 21798              	.LASF315:
 21799 0a52 666F635F 		.ascii	"foc_d_gain_scale_start\000"
 21799      645F6761 
 21799      696E5F73 
 21799      63616C65 
 21799      5F737461 
 21800              	.LASF304:
 21801 0a69 666F635F 		.ascii	"foc_motor_r\000"
 21801      6D6F746F 
 21801      725F7200 
 21802              	.LASF91:
 21803 0a75 73746B61 		.ascii	"stkalign_t\000"
 21803      6C69676E 
 21803      5F7400
 21804              	.LASF637:
 21805 0a80 6D616467 		.ascii	"madgwick_beta\000"
 21805      7769636B 
 21805      5F626574 
 21805      6100
 21806              	.LASF72:
 21807 0a8e 76745F70 		.ascii	"vt_prev\000"
 21807      72657600 
 21808              	.LASF4:
 21809 0a96 756E7369 		.ascii	"unsigned char\000"
 21809      676E6564 
 21809      20636861 
 21809      7200
 21810              	.LASF360:
 21811 0aa4 735F7069 		.ascii	"s_pid_min_erpm\000"
 21811      645F6D69 
 21811      6E5F6572 
 21811      706D00
 21812              	.LASF598:
 21813 0ab3 7475726E 		.ascii	"turntilt_start_erpm\000"
 21813      74696C74 
 21813      5F737461 
 21813      72745F65 
 21813      72706D00 
 21814              	.LASF550:
 21815 0ac7 6661756C 		.ascii	"fault_delay_roll\000"
 21815      745F6465 
 21815      6C61795F 
 21815      726F6C6C 
 21815      00
 21816              	.LASF105:
 21817 0ad8 735F636E 		.ascii	"s_cnt\000"
 21817      7400
 21818              	.LASF60:
 21819 0ade 72656164 		.ascii	"ready_list_t\000"
 21819      795F6C69 
ARM GAS  /tmp/cc4M9ACW.s 			page 393


 21819      73745F74 
 21819      00
 21820              	.LASF56:
 21821 0aeb 63685F74 		.ascii	"ch_thread\000"
 21821      68726561 
 21821      6400
 21822              	.LASF623:
 21823 0af5 494D555F 		.ascii	"IMU_TYPE_EXTERNAL_MPU9X50\000"
 21823      54595045 
 21823      5F455854 
 21823      45524E41 
 21823      4C5F4D50 
 21824              	.LASF0:
 21825 0b0f 666C6F61 		.ascii	"float\000"
 21825      7400
 21826              	.LASF541:
 21827 0b15 6E72665F 		.ascii	"nrf_config\000"
 21827      636F6E66 
 21827      696700
 21828              	.LASF508:
 21829 0b20 4E52465F 		.ascii	"NRF_POWER_M6DBM\000"
 21829      504F5745 
 21829      525F4D36 
 21829      44424D00 
 21830              	.LASF266:
 21831 0b30 6C5F7761 		.ascii	"l_watt_max\000"
 21831      74745F6D 
 21831      617800
 21832              	.LASF251:
 21833 0b3b 6C5F6572 		.ascii	"l_erpm_start\000"
 21833      706D5F73 
 21833      74617274 
 21833      00
 21834              	.LASF688:
 21835 0b48 72756E74 		.ascii	"runtime\000"
 21835      696D6500 
 21836              	.LASF415:
 21837 0b50 5448525F 		.ascii	"THR_EXP_NATURAL\000"
 21837      4558505F 
 21837      4E415455 
 21837      52414C00 
 21838              	.LASF439:
 21839 0b60 6D656469 		.ascii	"median_filter\000"
 21839      616E5F66 
 21839      696C7465 
 21839      7200
 21840              	.LASF79:
 21841 0b6e 73797374 		.ascii	"system_debug_t\000"
 21841      656D5F64 
 21841      65627567 
 21841      5F7400
 21842              	.LASF259:
 21843 0b7d 6C5F7465 		.ascii	"l_temp_fet_start\000"
 21843      6D705F66 
 21843      65745F73 
 21843      74617274 
 21843      00
ARM GAS  /tmp/cc4M9ACW.s 			page 394


 21844              	.LASF379:
 21845 0b8e 6D5F7365 		.ascii	"m_sensor_port_mode\000"
 21845      6E736F72 
 21845      5F706F72 
 21845      745F6D6F 
 21845      646500
 21846              	.LASF421:
 21847 0ba1 53414645 		.ascii	"SAFE_START_MODE\000"
 21847      5F535441 
 21847      52545F4D 
 21847      4F444500 
 21848              	.LASF484:
 21849 0bb1 766F6C74 		.ascii	"voltage2_inverted\000"
 21849      61676532 
 21849      5F696E76 
 21849      65727465 
 21849      6400
 21850              	.LASF36:
 21851 0bc3 705F6374 		.ascii	"p_ctx\000"
 21851      7800
 21852              	.LASF75:
 21853 0bc9 76745F70 		.ascii	"vt_par\000"
 21853      617200
 21854              	.LASF485:
 21855 0bd0 75706461 		.ascii	"update_rate_hz\000"
 21855      74655F72 
 21855      6174655F 
 21855      687A00
 21856              	.LASF67:
 21857 0bdf 725F6375 		.ascii	"r_current\000"
 21857      7272656E 
 21857      7400
 21858              	.LASF597:
 21859 0be9 7475726E 		.ascii	"turntilt_start_angle\000"
 21859      74696C74 
 21859      5F737461 
 21859      72745F61 
 21859      6E676C65 
 21860              	.LASF278:
 21861 0bfe 636F6D6D 		.ascii	"comm_mode\000"
 21861      5F6D6F64 
 21861      6500
 21862              	.LASF340:
 21863 0c08 666F635F 		.ascii	"foc_offsets_current\000"
 21863      6F666673 
 21863      6574735F 
 21863      63757272 
 21863      656E7400 
 21864              	.LASF306:
 21865 0c1c 666F635F 		.ascii	"foc_observer_gain\000"
 21865      6F627365 
 21865      72766572 
 21865      5F676169 
 21865      6E00
 21866              	.LASF492:
 21867 0c2e 73746963 		.ascii	"stick_erpm_per_s_in_cc\000"
 21867      6B5F6572 
ARM GAS  /tmp/cc4M9ACW.s 			page 395


 21867      706D5F70 
 21867      65725F73 
 21867      5F696E5F 
 21868              	.LASF297:
 21869 0c45 666F635F 		.ascii	"foc_encoder_sin_offset\000"
 21869      656E636F 
 21869      6465725F 
 21869      73696E5F 
 21869      6F666673 
 21870              	.LASF21:
 21871 0c5c 75696E74 		.ascii	"uint64_t\000"
 21871      36345F74 
 21871      00
 21872              	.LASF469:
 21873 0c65 5041535F 		.ascii	"PAS_CTRL_TYPE_CADENCE\000"
 21873      4354524C 
 21873      5F545950 
 21873      455F4341 
 21873      44454E43 
 21874              	.LASF130:
 21875 0c7b 63685F64 		.ascii	"ch_debug\000"
 21875      65627567 
 21875      00
 21876              	.LASF531:
 21877 0c84 4E52465F 		.ascii	"NRF_RETR_DELAY_4000US\000"
 21877      52455452 
 21877      5F44454C 
 21877      41595F34 
 21877      30303055 
 21878              	.LASF399:
 21879 0c9a 73695F6D 		.ascii	"si_motor_nl_current\000"
 21879      6F746F72 
 21879      5F6E6C5F 
 21879      63757272 
 21879      656E7400 
 21880              	.LASF370:
 21881 0cae 705F7069 		.ascii	"p_pid_offset\000"
 21881      645F6F66 
 21881      66736574 
 21881      00
 21882              	.LASF700:
 21883 0cbb 636F6E66 		.ascii	"confgenerator_serialize_mcconf\000"
 21883      67656E65 
 21883      7261746F 
 21883      725F7365 
 21883      7269616C 
 21884              	.LASF501:
 21885 0cda 7061735F 		.ascii	"pas_config\000"
 21885      636F6E66 
 21885      696700
 21886              	.LASF646:
 21887 0ce5 43414E5F 		.ascii	"CAN_MODE_COMM_BRIDGE\000"
 21887      4D4F4445 
 21887      5F434F4D 
 21887      4D5F4252 
 21887      49444745 
 21888              	.LASF578:
ARM GAS  /tmp/cc4M9ACW.s 			page 396


 21889 0cfa 726F6C6C 		.ascii	"roll_steer_erpm_kp\000"
 21889      5F737465 
 21889      65725F65 
 21889      72706D5F 
 21889      6B7000
 21890              	.LASF348:
 21891 0d0d 666F635F 		.ascii	"foc_fw_ramp_time\000"
 21891      66775F72 
 21891      616D705F 
 21891      74696D65 
 21891      00
 21892              	.LASF106:
 21893 0d1e 63685F6D 		.ascii	"ch_mutex\000"
 21893      75746578 
 21893      00
 21894              	.LASF235:
 21895 0d27 5049445F 		.ascii	"PID_RATE_1000_HZ\000"
 21895      52415445 
 21895      5F313030 
 21895      305F485A 
 21895      00
 21896              	.LASF361:
 21897 0d38 735F7069 		.ascii	"s_pid_allow_braking\000"
 21897      645F616C 
 21897      6C6F775F 
 21897      6272616B 
 21897      696E6700 
 21898              	.LASF605:
 21899 0d4c 43414E5F 		.ascii	"CAN_STATUS_1_2\000"
 21899      53544154 
 21899      55535F31 
 21899      5F3200
 21900              	.LASF714:
 21901 0d5b 474E5520 		.ascii	"GNU C99 7.3.1 20180622 (release) [ARM/embedded-7-br"
 21901      43393920 
 21901      372E332E 
 21901      31203230 
 21901      31383036 
 21902 0d8e 616E6368 		.ascii	"anch revision 261907] -mcpu=cortex-m4 -mfloat-abi=h"
 21902      20726576 
 21902      6973696F 
 21902      6E203236 
 21902      31393037 
 21903 0dc1 61726420 		.ascii	"ard -mfpu=fpv4-sp-d16 -mno-thumb-interwork -mthumb "
 21903      2D6D6670 
 21903      753D6670 
 21903      76342D73 
 21903      702D6431 
 21904 0df4 2D676764 		.ascii	"-ggdb -O2 -std=gnu99 -fomit-frame-pointer -falign-f"
 21904      62202D4F 
 21904      32202D73 
 21904      74643D67 
 21904      6E753939 
 21905 0e27 756E6374 		.ascii	"unctions=16 -ffunction-sections -fdata-sections -fn"
 21905      696F6E73 
 21905      3D313620 
 21905      2D666675 
ARM GAS  /tmp/cc4M9ACW.s 			page 397


 21905      6E637469 
 21906 0e5a 6F2D636F 		.ascii	"o-common -fsingle-precision-constant\000"
 21906      6D6D6F6E 
 21906      202D6673 
 21906      696E676C 
 21906      652D7072 
 21907              	.LASF631:
 21908 0e7f 41485253 		.ascii	"AHRS_MODE\000"
 21908      5F4D4F44 
 21908      4500
 21909              	.LASF169:
 21910 0e89 54454D50 		.ascii	"TEMP_SENSOR_PTCX\000"
 21910      5F53454E 
 21910      534F525F 
 21910      50544358 
 21910      00
 21911              	.LASF347:
 21912 0e9a 666F635F 		.ascii	"foc_fw_duty_start\000"
 21912      66775F64 
 21912      7574795F 
 21912      73746172 
 21912      7400
 21913              	.LASF140:
 21914 0eac 53454E53 		.ascii	"SENSOR_MODE_SENSORED\000"
 21914      4F525F4D 
 21914      4F44455F 
 21914      53454E53 
 21914      4F524544 
 21915              	.LASF120:
 21916 0ec1 63665F6F 		.ascii	"cf_off_newer\000"
 21916      66665F6E 
 21916      65776572 
 21916      00
 21917              	.LASF359:
 21918 0ece 735F7069 		.ascii	"s_pid_kd_filter\000"
 21918      645F6B64 
 21918      5F66696C 
 21918      74657200 
 21919              	.LASF389:
 21920 0ede 6D5F7074 		.ascii	"m_ptc_motor_coeff\000"
 21920      635F6D6F 
 21920      746F725F 
 21920      636F6566 
 21920      6600
 21921              	.LASF236:
 21922 0ef0 5049445F 		.ascii	"PID_RATE_2500_HZ\000"
 21922      52415445 
 21922      5F323530 
 21922      305F485A 
 21922      00
 21923              	.LASF455:
 21924 0f01 4144435F 		.ascii	"ADC_CTRL_TYPE_CURRENT_REV_BUTTON\000"
 21924      4354524C 
 21924      5F545950 
 21924      455F4355 
 21924      5252454E 
 21925              	.LASF495:
ARM GAS  /tmp/cc4M9ACW.s 			page 398


 21926 0f22 73656E73 		.ascii	"sensor_type\000"
 21926      6F725F74 
 21926      79706500 
 21927              	.LASF565:
 21928 0f2e 74696C74 		.ascii	"tiltback_constant\000"
 21928      6261636B 
 21928      5F636F6E 
 21928      7374616E 
 21928      7400
 21929              	.LASF352:
 21930 0f40 6770645F 		.ascii	"gpd_current_filter_const\000"
 21930      63757272 
 21930      656E745F 
 21930      66696C74 
 21930      65725F63 
 21931              	.LASF212:
 21932 0f59 4846495F 		.ascii	"HFI_SAMPLES_16\000"
 21932      53414D50 
 21932      4C45535F 
 21932      313600
 21933              	.LASF680:
 21934 0f68 6170705F 		.ascii	"app_balance_conf\000"
 21934      62616C61 
 21934      6E63655F 
 21934      636F6E66 
 21934      00
 21935              	.LASF224:
 21936 0f79 745F6C69 		.ascii	"t_limit_end\000"
 21936      6D69745F 
 21936      656E6400 
 21937              	.LASF505:
 21938 0f85 4E52465F 		.ascii	"NRF_SPEED\000"
 21938      53504545 
 21938      4400
 21939              	.LASF445:
 21940 0f8f 72616D70 		.ascii	"ramp_time_neg\000"
 21940      5F74696D 
 21940      655F6E65 
 21940      6700
 21941              	.LASF69:
 21942 0f9d 76697274 		.ascii	"virtual_timer_t\000"
 21942      75616C5F 
 21942      74696D65 
 21942      725F7400 
 21943              	.LASF64:
 21944 0fad 725F6374 		.ascii	"r_ctx\000"
 21944      7800
 21945              	.LASF71:
 21946 0fb3 76745F6E 		.ascii	"vt_next\000"
 21946      65787400 
 21947              	.LASF395:
 21948 0fbb 73695F77 		.ascii	"si_wheel_diameter\000"
 21948      6865656C 
 21948      5F646961 
 21948      6D657465 
 21948      7200
 21949              	.LASF556:
ARM GAS  /tmp/cc4M9ACW.s 			page 399


 21950 0fcd 74696C74 		.ascii	"tiltback_duty_speed\000"
 21950      6261636B 
 21950      5F647574 
 21950      795F7370 
 21950      65656400 
 21951              	.LASF622:
 21952 0fe1 494D555F 		.ascii	"IMU_TYPE_INTERNAL\000"
 21952      54595045 
 21952      5F494E54 
 21952      45524E41 
 21952      4C00
 21953              	.LASF22:
 21954 0ff3 7274636E 		.ascii	"rtcnt_t\000"
 21954      745F7400 
 21955              	.LASF141:
 21956 0ffb 53454E53 		.ascii	"SENSOR_MODE_HYBRID\000"
 21956      4F525F4D 
 21956      4F44455F 
 21956      48594252 
 21956      494400
 21957              	.LASF381:
 21958 100e 6D5F6472 		.ascii	"m_drv8301_oc_mode\000"
 21958      76383330 
 21958      315F6F63 
 21958      5F6D6F64 
 21958      6500
 21959              	.LASF271:
 21960 1020 6C6F5F63 		.ascii	"lo_current_max\000"
 21960      75727265 
 21960      6E745F6D 
 21960      617800
 21961              	.LASF295:
 21962 102f 666F635F 		.ascii	"foc_encoder_inverted\000"
 21962      656E636F 
 21962      6465725F 
 21962      696E7665 
 21962      72746564 
 21963              	.LASF525:
 21964 1044 4E52465F 		.ascii	"NRF_RETR_DELAY_2500US\000"
 21964      52455452 
 21964      5F44454C 
 21964      41595F32 
 21964      35303055 
 21965              	.LASF372:
 21966 105a 63635F6D 		.ascii	"cc_min_current\000"
 21966      696E5F63 
 21966      75727265 
 21966      6E7400
 21967              	.LASF437:
 21968 1069 70756C73 		.ascii	"pulse_end\000"
 21968      655F656E 
 21968      6400
 21969              	.LASF217:
 21970 1073 424D535F 		.ascii	"BMS_TYPE\000"
 21970      54595045 
 21970      00
 21971              	.LASF184:
ARM GAS  /tmp/cc4M9ACW.s 			page 400


 21972 107c 53454E53 		.ascii	"SENSOR_PORT_MODE_ABI\000"
 21972      4F525F50 
 21972      4F52545F 
 21972      4D4F4445 
 21972      5F414249 
 21973              	.LASF627:
 21974 1091 494D555F 		.ascii	"IMU_TYPE\000"
 21974      54595045 
 21974      00
 21975              	.LASF168:
 21976 109a 54454D50 		.ascii	"TEMP_SENSOR_NTCX\000"
 21976      5F53454E 
 21976      534F525F 
 21976      4E544358 
 21976      00
 21977              	.LASF456:
 21978 10ab 4144435F 		.ascii	"ADC_CTRL_TYPE_CURRENT_REV_BUTTON_BRAKE_ADC\000"
 21978      4354524C 
 21978      5F545950 
 21978      455F4355 
 21978      5252454E 
 21979              	.LASF323:
 21980 10d6 666F635F 		.ascii	"foc_hall_interp_erpm\000"
 21980      68616C6C 
 21980      5F696E74 
 21980      6572705F 
 21980      6572706D 
 21981              	.LASF454:
 21982 10eb 4144435F 		.ascii	"ADC_CTRL_TYPE_CURRENT_REV_CENTER\000"
 21982      4354524C 
 21982      5F545950 
 21982      455F4355 
 21982      5252454E 
 21983              	.LASF628:
 21984 110c 41485253 		.ascii	"AHRS_MODE_MADGWICK\000"
 21984      5F4D4F44 
 21984      455F4D41 
 21984      44475749 
 21984      434B00
 21985              	.LASF211:
 21986 111f 4846495F 		.ascii	"HFI_SAMPLES_8\000"
 21986      53414D50 
 21986      4C45535F 
 21986      3800
 21987              	.LASF185:
 21988 112d 53454E53 		.ascii	"SENSOR_PORT_MODE_AS5047_SPI\000"
 21988      4F525F50 
 21988      4F52545F 
 21988      4D4F4445 
 21988      5F415335 
 21989              	.LASF660:
 21990 1149 74696D65 		.ascii	"timeout_msec\000"
 21990      6F75745F 
 21990      6D736563 
 21990      00
 21991              	.LASF17:
 21992 1156 75696E74 		.ascii	"uint8_t\000"
ARM GAS  /tmp/cc4M9ACW.s 			page 401


 21992      385F7400 
 21993              	.LASF391:
 21994 115e 6D5F6E74 		.ascii	"m_ntcx_ptcx_temp_base\000"
 21994      63785F70 
 21994      7463785F 
 21994      74656D70 
 21994      5F626173 
 21995              	.LASF349:
 21996 1174 666F635F 		.ascii	"foc_fw_q_current_factor\000"
 21996      66775F71 
 21996      5F637572 
 21996      72656E74 
 21996      5F666163 
 21997              	.LASF213:
 21998 118c 4846495F 		.ascii	"HFI_SAMPLES_32\000"
 21998      53414D50 
 21998      4C45535F 
 21998      333200
 21999              	.LASF662:
 22000 119b 73656E64 		.ascii	"send_can_status\000"
 22000      5F63616E 
 22000      5F737461 
 22000      74757300 
 22001              	.LASF604:
 22002 11ab 43414E5F 		.ascii	"CAN_STATUS_1\000"
 22002      53544154 
 22002      55535F31 
 22002      00
 22003              	.LASF66:
 22004 11b8 725F6F6C 		.ascii	"r_older\000"
 22004      64657200 
 22005              	.LASF34:
 22006 11c0 705F7072 		.ascii	"p_prev\000"
 22006      657600
 22007              	.LASF122:
 22008 11c7 63665F6F 		.ascii	"cf_off_name\000"
 22008      66665F6E 
 22008      616D6500 
 22009              	.LASF160:
 22010 11d3 4F55545F 		.ascii	"OUT_AUX_MODE_MOTOR_MOSFET_50\000"
 22010      4155585F 
 22010      4D4F4445 
 22010      5F4D4F54 
 22010      4F525F4D 
 22011              	.LASF407:
 22012 11f0 4150505F 		.ascii	"APP_NUNCHUK\000"
 22012      4E554E43 
 22012      48554B00 
 22013              	.LASF276:
 22014 11fc 6C6F5F63 		.ascii	"lo_current_motor_min_now\000"
 22014      75727265 
 22014      6E745F6D 
 22014      6F746F72 
 22014      5F6D696E 
 22015              	.LASF255:
 22016 1215 6C5F6D61 		.ascii	"l_max_vin\000"
 22016      785F7669 
ARM GAS  /tmp/cc4M9ACW.s 			page 402


 22016      6E00
 22017              	.LASF97:
 22018 121f 65786974 		.ascii	"exitcode\000"
 22018      636F6465 
 22018      00
 22019              	.LASF540:
 22020 1228 73656E64 		.ascii	"send_crc_ack\000"
 22020      5F637263 
 22020      5F61636B 
 22020      00
 22021              	.LASF344:
 22022 1235 666F635F 		.ascii	"foc_phase_filter_max_erpm\000"
 22022      70686173 
 22022      655F6669 
 22022      6C746572 
 22022      5F6D6178 
 22023              	.LASF292:
 22024 124f 666F635F 		.ascii	"foc_f_zv\000"
 22024      665F7A76 
 22024      00
 22025              	.LASF402:
 22026 1258 4150505F 		.ascii	"APP_PPM\000"
 22026      50504D00 
 22027              	.LASF233:
 22028 1260 5049445F 		.ascii	"PID_RATE_250_HZ\000"
 22028      52415445 
 22028      5F323530 
 22028      5F485A00 
 22029              	.LASF204:
 22030 1270 43414E5F 		.ascii	"CAN_BAUD_75K\000"
 22030      42415544 
 22030      5F37354B 
 22030      00
 22031              	.LASF457:
 22032 127d 4144435F 		.ascii	"ADC_CTRL_TYPE_CURRENT_REV_BUTTON_BRAKE_CENTER\000"
 22032      4354524C 
 22032      5F545950 
 22032      455F4355 
 22032      5252454E 
 22033              	.LASF607:
 22034 12ab 43414E5F 		.ascii	"CAN_STATUS_1_2_3_4\000"
 22034      53544154 
 22034      55535F31 
 22034      5F325F33 
 22034      5F3400
 22035              	.LASF710:
 22036 12be 62756666 		.ascii	"buffer_append_uint16\000"
 22036      65725F61 
 22036      7070656E 
 22036      645F7569 
 22036      6E743136 
 22037              	.LASF691:
 22038 12d3 675F6261 		.ascii	"g_backup\000"
 22038      636B7570 
 22038      00
 22039              	.LASF362:
 22040 12dc 735F7069 		.ascii	"s_pid_ramp_erpms_s\000"
ARM GAS  /tmp/cc4M9ACW.s 			page 403


 22040      645F7261 
 22040      6D705F65 
 22040      72706D73 
 22040      5F7300
 22041              	.LASF462:
 22042 12ef 4144435F 		.ascii	"ADC_CTRL_TYPE_DUTY_REV_CENTER\000"
 22042      4354524C 
 22042      5F545950 
 22042      455F4455 
 22042      54595F52 
 22043              	.LASF432:
 22044 130d 70706D5F 		.ascii	"ppm_control_type\000"
 22044      636F6E74 
 22044      726F6C5F 
 22044      74797065 
 22044      00
 22045              	.LASF232:
 22046 131e 5049445F 		.ascii	"PID_RATE_100_HZ\000"
 22046      52415445 
 22046      5F313030 
 22046      5F485A00 
 22047              	.LASF499:
 22048 132e 696E7665 		.ascii	"invert_pedal_direction\000"
 22048      72745F70 
 22048      6564616C 
 22048      5F646972 
 22048      65637469 
 22049              	.LASF176:
 22050 1345 464F435F 		.ascii	"FOC_CC_DECOUPLING_DISABLED\000"
 22050      43435F44 
 22050      45434F55 
 22050      504C494E 
 22050      475F4449 
 22051              	.LASF256:
 22052 1360 6C5F6261 		.ascii	"l_battery_cut_start\000"
 22052      74746572 
 22052      795F6375 
 22052      745F7374 
 22052      61727400 
 22053              	.LASF257:
 22054 1374 6C5F6261 		.ascii	"l_battery_cut_end\000"
 22054      74746572 
 22054      795F6375 
 22054      745F656E 
 22054      6400
 22055              	.LASF254:
 22056 1386 6C5F6D69 		.ascii	"l_min_vin\000"
 22056      6E5F7669 
 22056      6E00
 22057              	.LASF346:
 22058 1390 666F635F 		.ascii	"foc_fw_current_max\000"
 22058      66775F63 
 22058      75727265 
 22058      6E745F6D 
 22058      617800
 22059              	.LASF686:
 22060 13a3 6F646F6D 		.ascii	"odometer\000"
ARM GAS  /tmp/cc4M9ACW.s 			page 404


 22060      65746572 
 22060      00
 22061              	.LASF161:
 22062 13ac 4F55545F 		.ascii	"OUT_AUX_MODE_MOTOR_MOSFET_70\000"
 22062      4155585F 
 22062      4D4F4445 
 22062      5F4D4F54 
 22062      4F525F4D 
 22063              	.LASF301:
 22064 13c9 666F635F 		.ascii	"foc_encoder_sincos_filter_constant\000"
 22064      656E636F 
 22064      6465725F 
 22064      73696E63 
 22064      6F735F66 
 22065              	.LASF200:
 22066 13ec 43414E5F 		.ascii	"CAN_BAUD_1M\000"
 22066      42415544 
 22066      5F314D00 
 22067              	.LASF580:
 22068 13f8 6272616B 		.ascii	"brake_timeout\000"
 22068      655F7469 
 22068      6D656F75 
 22068      7400
 22069              	.LASF339:
 22070 1406 666F635F 		.ascii	"foc_offsets_cal_on_boot\000"
 22070      6F666673 
 22070      6574735F 
 22070      63616C5F 
 22070      6F6E5F62 
 22071              	.LASF299:
 22072 141e 666F635F 		.ascii	"foc_encoder_cos_offset\000"
 22072      656E636F 
 22072      6465725F 
 22072      636F735F 
 22072      6F666673 
 22073              	.LASF173:
 22074 1435 4D4F544F 		.ascii	"MOTOR_TYPE_FOC\000"
 22074      525F5459 
 22074      50455F46 
 22074      4F4300
 22075              	.LASF281:
 22076 1444 736C5F6D 		.ascii	"sl_min_erpm\000"
 22076      696E5F65 
 22076      72706D00 
 22077              	.LASF216:
 22078 1450 424D535F 		.ascii	"BMS_TYPE_VESC\000"
 22078      54595045 
 22078      5F564553 
 22078      4300
 22079              	.LASF223:
 22080 145e 745F6C69 		.ascii	"t_limit_start\000"
 22080      6D69745F 
 22080      73746172 
 22080      7400
 22081              	.LASF241:
 22082 146c 4D545041 		.ascii	"MTPA_MODE_IQ_TARGET\000"
 22082      5F4D4F44 
ARM GAS  /tmp/cc4M9ACW.s 			page 405


 22082      455F4951 
 22082      5F544152 
 22082      47455400 
 22083              	.LASF377:
 22084 1480 6D5F6375 		.ascii	"m_current_backoff_gain\000"
 22084      7272656E 
 22084      745F6261 
 22084      636B6F66 
 22084      665F6761 
 22085              	.LASF380:
 22086 1497 6D5F696E 		.ascii	"m_invert_direction\000"
 22086      76657274 
 22086      5F646972 
 22086      65637469 
 22086      6F6E00
 22087              	.LASF182:
 22088 14aa 6D635F66 		.ascii	"mc_foc_observer_type\000"
 22088      6F635F6F 
 22088      62736572 
 22088      7665725F 
 22088      74797065 
 22089              	.LASF96:
 22090 14bf 7264796D 		.ascii	"rdymsg\000"
 22090      736700
 22091              	.LASF265:
 22092 14c6 6C5F6D61 		.ascii	"l_max_duty\000"
 22092      785F6475 
 22092      747900
 22093              	.LASF35:
 22094 14d1 705F7072 		.ascii	"p_prio\000"
 22094      696F00
 22095              	.LASF167:
 22096 14d8 54454D50 		.ascii	"TEMP_SENSOR_KTY84_130\000"
 22096      5F53454E 
 22096      534F525F 
 22096      4B545938 
 22096      345F3133 
 22097              	.LASF13:
 22098 14ee 5F5F7569 		.ascii	"__uint64_t\000"
 22098      6E743634 
 22098      5F7400
 22099              	.LASF529:
 22100 14f9 4E52465F 		.ascii	"NRF_RETR_DELAY_3500US\000"
 22100      52455452 
 22100      5F44454C 
 22100      41595F33 
 22100      35303055 
 22101              	.LASF343:
 22102 150f 666F635F 		.ascii	"foc_phase_filter_enable\000"
 22102      70686173 
 22102      655F6669 
 22102      6C746572 
 22102      5F656E61 
 22103              	.LASF324:
 22104 1527 666F635F 		.ascii	"foc_sl_erpm\000"
 22104      736C5F65 
 22104      72706D00 
ARM GAS  /tmp/cc4M9ACW.s 			page 406


 22105              	.LASF164:
 22106 1533 54454D50 		.ascii	"TEMP_SENSOR_PTC_1K_100C\000"
 22106      5F53454E 
 22106      534F525F 
 22106      5054435F 
 22106      314B5F31 
 22107              	.LASF215:
 22108 154b 424D535F 		.ascii	"BMS_TYPE_NONE\000"
 22108      54595045 
 22108      5F4E4F4E 
 22108      4500
 22109              	.LASF369:
 22110 1559 705F7069 		.ascii	"p_pid_gain_dec_angle\000"
 22110      645F6761 
 22110      696E5F64 
 22110      65635F61 
 22110      6E676C65 
 22111              	.LASF596:
 22112 156e 7475726E 		.ascii	"turntilt_angle_limit\000"
 22112      74696C74 
 22112      5F616E67 
 22112      6C655F6C 
 22112      696D6974 
 22113              	.LASF539:
 22114 1583 61646472 		.ascii	"address\000"
 22114      65737300 
 22115              	.LASF288:
 22116 158b 68616C6C 		.ascii	"hall_table\000"
 22116      5F746162 
 22116      6C6500
 22117              	.LASF285:
 22118 1596 736C5F70 		.ascii	"sl_phase_advance_at_br\000"
 22118      68617365 
 22118      5F616476 
 22118      616E6365 
 22118      5F61745F 
 22119              	.LASF458:
 22120 15ad 4144435F 		.ascii	"ADC_CTRL_TYPE_CURRENT_NOREV_BRAKE_CENTER\000"
 22120      4354524C 
 22120      5F545950 
 22120      455F4355 
 22120      5252454E 
 22121              	.LASF33:
 22122 15d6 705F6E65 		.ascii	"p_next\000"
 22122      787400
 22123              	.LASF703:
 22124 15dd 62756666 		.ascii	"buffer_get_float32_auto\000"
 22124      65725F67 
 22124      65745F66 
 22124      6C6F6174 
 22124      33325F61 
 22125              	.LASF644:
 22126 15f5 43414E5F 		.ascii	"CAN_MODE_VESC\000"
 22126      4D4F4445 
 22126      5F564553 
 22126      4300
 22127              	.LASF156:
ARM GAS  /tmp/cc4M9ACW.s 			page 407


 22128 1603 4F55545F 		.ascii	"OUT_AUX_MODE_MOTOR_50\000"
 22128      4155585F 
 22128      4D4F4445 
 22128      5F4D4F54 
 22128      4F525F35 
 22129              	.LASF609:
 22130 1619 43414E5F 		.ascii	"CAN_STATUS_MODE\000"
 22130      53544154 
 22130      55535F4D 
 22130      4F444500 
 22131              	.LASF538:
 22132 1629 6368616E 		.ascii	"channel\000"
 22132      6E656C00 
 22133              	.LASF373:
 22134 1631 63635F67 		.ascii	"cc_gain\000"
 22134      61696E00 
 22135              	.LASF684:
 22136 1639 646F7562 		.ascii	"double\000"
 22136      6C6500
 22137              	.LASF521:
 22138 1640 4E52465F 		.ascii	"NRF_RETR_DELAY_1500US\000"
 22138      52455452 
 22138      5F44454C 
 22138      41595F31 
 22138      35303055 
 22139              	.LASF25:
 22140 1656 74726566 		.ascii	"trefs_t\000"
 22140      735F7400 
 22141              	.LASF52:
 22142 165e 705F6D70 		.ascii	"p_mpool\000"
 22142      6F6F6C00 
 22143              	.LASF277:
 22144 1666 70776D5F 		.ascii	"pwm_mode\000"
 22144      6D6F6465 
 22144      00
 22145              	.LASF463:
 22146 166f 4144435F 		.ascii	"ADC_CTRL_TYPE_DUTY_REV_BUTTON\000"
 22146      4354524C 
 22146      5F545950 
 22146      455F4455 
 22146      54595F52 
 22147              	.LASF279:
 22148 168d 6D6F746F 		.ascii	"motor_type\000"
 22148      725F7479 
 22148      706500
 22149              	.LASF647:
 22150 1698 43414E5F 		.ascii	"CAN_MODE\000"
 22150      4D4F4445 
 22150      00
 22151              	.LASF272:
 22152 16a1 6C6F5F63 		.ascii	"lo_current_min\000"
 22152      75727265 
 22152      6E745F6D 
 22152      696E00
 22153              	.LASF283:
 22154 16b0 736C5F6D 		.ascii	"sl_max_fullbreak_current_dir_change\000"
 22154      61785F66 
ARM GAS  /tmp/cc4M9ACW.s 			page 408


 22154      756C6C62 
 22154      7265616B 
 22154      5F637572 
 22155              	.LASF155:
 22156 16d4 4F55545F 		.ascii	"OUT_AUX_MODE_ON_WHEN_NOT_RUNNING\000"
 22156      4155585F 
 22156      4D4F4445 
 22156      5F4F4E5F 
 22156      5748454E 
 22157              	.LASF23:
 22158 16f5 746D6F64 		.ascii	"tmode_t\000"
 22158      655F7400 
 22159              	.LASF210:
 22160 16fd 42415454 		.ascii	"BATTERY_TYPE\000"
 22160      4552595F 
 22160      54595045 
 22160      00
 22161              	.LASF450:
 22162 170a 736D6172 		.ascii	"smart_rev_ramp_time\000"
 22162      745F7265 
 22162      765F7261 
 22162      6D705F74 
 22162      696D6500 
 22163              	.LASF526:
 22164 171e 4E52465F 		.ascii	"NRF_RETR_DELAY_2750US\000"
 22164      52455452 
 22164      5F44454C 
 22164      41595F32 
 22164      37353055 
 22165              	.LASF158:
 22166 1734 4F55545F 		.ascii	"OUT_AUX_MODE_MOTOR_70\000"
 22166      4155585F 
 22166      4D4F4445 
 22166      5F4D4F54 
 22166      4F525F37 
 22167              	.LASF366:
 22168 174a 705F7069 		.ascii	"p_pid_kd_proc\000"
 22168      645F6B64 
 22168      5F70726F 
 22168      6300
 22169              	.LASF270:
 22170 1758 6C5F6475 		.ascii	"l_duty_start\000"
 22170      74795F73 
 22170      74617274 
 22170      00
 22171              	.LASF334:
 22172 1765 666F635F 		.ascii	"foc_hfi_voltage_run\000"
 22172      6866695F 
 22172      766F6C74 
 22172      6167655F 
 22172      72756E00 
 22173              	.LASF239:
 22174 1779 5049445F 		.ascii	"PID_RATE\000"
 22174      52415445 
 22174      00
 22175              	.LASF172:
 22176 1782 4D4F544F 		.ascii	"MOTOR_TYPE_DC\000"
ARM GAS  /tmp/cc4M9ACW.s 			page 409


 22176      525F5459 
 22176      50455F44 
 22176      4300
 22177              	.LASF522:
 22178 1790 4E52465F 		.ascii	"NRF_RETR_DELAY_1750US\000"
 22178      52455452 
 22178      5F44454C 
 22178      41595F31 
 22178      37353055 
 22179              	.LASF423:
 22180 17a6 50504D5F 		.ascii	"PPM_CTRL_TYPE_CURRENT\000"
 22180      4354524C 
 22180      5F545950 
 22180      455F4355 
 22180      5252454E 
 22181              	.LASF678:
 22182 17bc 6170705F 		.ascii	"app_chuk_conf\000"
 22182      6368756B 
 22182      5F636F6E 
 22182      6600
 22183              	.LASF305:
 22184 17ca 666F635F 		.ascii	"foc_motor_flux_linkage\000"
 22184      6D6F746F 
 22184      725F666C 
 22184      75785F6C 
 22184      696E6B61 
 22185              	.LASF351:
 22186 17e1 6770645F 		.ascii	"gpd_buffer_interpol\000"
 22186      62756666 
 22186      65725F69 
 22186      6E746572 
 22186      706F6C00 
 22187              	.LASF303:
 22188 17f5 666F635F 		.ascii	"foc_motor_ld_lq_diff\000"
 22188      6D6F746F 
 22188      725F6C64 
 22188      5F6C715F 
 22188      64696666 
 22189              	.LASF493:
 22190 180a 7573655F 		.ascii	"use_smart_rev\000"
 22190      736D6172 
 22190      745F7265 
 22190      7600
 22191              	.LASF284:
 22192 1818 736C5F63 		.ascii	"sl_cycle_int_limit\000"
 22192      79636C65 
 22192      5F696E74 
 22192      5F6C696D 
 22192      697400
 22193              	.LASF16:
 22194 182b 696E7438 		.ascii	"int8_t\000"
 22194      5F7400
 22195              	.LASF697:
 22196 1832 636F6E66 		.ascii	"confgenerator_deserialize_appconf\000"
 22196      67656E65 
 22196      7261746F 
 22196      725F6465 
ARM GAS  /tmp/cc4M9ACW.s 			page 410


 22196      73657269 
 22197              	.LASF166:
 22198 1854 54454D50 		.ascii	"TEMP_SENSOR_NTC_100K_25C\000"
 22198      5F53454E 
 22198      534F525F 
 22198      4E54435F 
 22198      3130304B 
 22199              	.LASF81:
 22200 186d 70616E69 		.ascii	"panic_msg\000"
 22200      635F6D73 
 22200      6700
 22201              	.LASF661:
 22202 1877 74696D65 		.ascii	"timeout_brake_current\000"
 22202      6F75745F 
 22202      6272616B 
 22202      655F6375 
 22202      7272656E 
 22203              	.LASF146:
 22204 188d 464F435F 		.ascii	"FOC_SENSOR_MODE_HFI\000"
 22204      53454E53 
 22204      4F525F4D 
 22204      4F44455F 
 22204      48464900 
 22205              	.LASF65:
 22206 18a1 725F6E65 		.ascii	"r_newer\000"
 22206      77657200 
 22207              	.LASF696:
 22208 18a9 7369676E 		.ascii	"signature\000"
 22208      61747572 
 22208      6500
 22209              	.LASF414:
 22210 18b3 5448525F 		.ascii	"THR_EXP_EXPO\000"
 22210      4558505F 
 22210      4558504F 
 22210      00
 22211              	.LASF129:
 22212 18c0 63686465 		.ascii	"chdebug_t\000"
 22212      6275675F 
 22212      7400
 22213              	.LASF320:
 22214 18ca 666F635F 		.ascii	"foc_sl_openloop_time_ramp\000"
 22214      736C5F6F 
 22214      70656E6C 
 22214      6F6F705F 
 22214      74696D65 
 22215              	.LASF26:
 22216 18e4 74736C69 		.ascii	"tslices_t\000"
 22216      6365735F 
 22216      7400
 22217              	.LASF227:
 22218 18ee 6677645F 		.ascii	"fwd_can_mode\000"
 22218      63616E5F 
 22218      6D6F6465 
 22218      00
 22219              	.LASF116:
 22220 18fb 63685F74 		.ascii	"ch_timesize\000"
 22220      696D6573 
ARM GAS  /tmp/cc4M9ACW.s 			page 411


 22220      697A6500 
 22221              	.LASF438:
 22222 1907 70756C73 		.ascii	"pulse_center\000"
 22222      655F6365 
 22222      6E746572 
 22222      00
 22223              	.LASF599:
 22224 1914 7475726E 		.ascii	"turntilt_speed\000"
 22224      74696C74 
 22224      5F737065 
 22224      656400
 22225              	.LASF466:
 22226 1923 4144435F 		.ascii	"ADC_CTRL_TYPE_PID_REV_BUTTON\000"
 22226      4354524C 
 22226      5F545950 
 22226      455F5049 
 22226      445F5245 
 22227              	.LASF73:
 22228 1940 76745F64 		.ascii	"vt_delta\000"
 22228      656C7461 
 22228      00
 22229              	.LASF209:
 22230 1949 42415454 		.ascii	"BATTERY_TYPE_LEAD_ACID\000"
 22230      4552595F 
 22230      54595045 
 22230      5F4C4541 
 22230      445F4143 
 22231              	.LASF418:
 22232 1960 53414645 		.ascii	"SAFE_START_DISABLED\000"
 22232      5F535441 
 22232      52545F44 
 22232      49534142 
 22232      4C454400 
 22233              	.LASF645:
 22234 1974 43414E5F 		.ascii	"CAN_MODE_UAVCAN\000"
 22234      4D4F4445 
 22234      5F554156 
 22234      43414E00 
 22235              	.LASF208:
 22236 1984 42415454 		.ascii	"BATTERY_TYPE_LIIRON_2_6__3_6\000"
 22236      4552595F 
 22236      54595045 
 22236      5F4C4949 
 22236      524F4E5F 
 22237              	.LASF7:
 22238 19a1 73686F72 		.ascii	"short unsigned int\000"
 22238      7420756E 
 22238      7369676E 
 22238      65642069 
 22238      6E7400
 22239              	.LASF548:
 22240 19b4 6661756C 		.ascii	"fault_adc2\000"
 22240      745F6164 
 22240      633200
 22241              	.LASF1:
 22242 19bf 7369676E 		.ascii	"signed char\000"
 22242      65642063 
ARM GAS  /tmp/cc4M9ACW.s 			page 412


 22242      68617200 
 22243              	.LASF674:
 22244 19cb 6170705F 		.ascii	"app_to_use\000"
 22244      746F5F75 
 22244      736500
 22245              	.LASF268:
 22246 19d6 6C5F6375 		.ascii	"l_current_max_scale\000"
 22246      7272656E 
 22246      745F6D61 
 22246      785F7363 
 22246      616C6500 
 22247              	.LASF214:
 22248 19ea 666F635F 		.ascii	"foc_hfi_samples\000"
 22248      6866695F 
 22248      73616D70 
 22248      6C657300 
 22249              	.LASF44:
 22250 19fa 705F7072 		.ascii	"p_preempt\000"
 22250      65656D70 
 22250      7400
 22251              	.LASF250:
 22252 1a04 6C5F6D61 		.ascii	"l_max_erpm\000"
 22252      785F6572 
 22252      706D00
 22253              	.LASF45:
 22254 1a0f 705F7469 		.ascii	"p_time\000"
 22254      6D6500
 22255              	.LASF643:
 22256 1a16 696D755F 		.ascii	"imu_config\000"
 22256      636F6E66 
 22256      696700
 22257              	.LASF341:
 22258 1a21 666F635F 		.ascii	"foc_offsets_voltage\000"
 22258      6F666673 
 22258      6574735F 
 22258      766F6C74 
 22258      61676500 
 22259              	.LASF569:
 22260 1a35 6E6F7365 		.ascii	"noseangling_speed\000"
 22260      616E676C 
 22260      696E675F 
 22260      73706565 
 22260      6400
 22261              	.LASF658:
 22262 1a47 4B494C4C 		.ascii	"KILL_SW_MODE\000"
 22262      5F53575F 
 22262      4D4F4445 
 22262      00
 22263              	.LASF338:
 22264 1a54 666F635F 		.ascii	"foc_hfi_obs_ovr_sec\000"
 22264      6866695F 
 22264      6F62735F 
 22264      6F76725F 
 22264      73656300 
 22265              	.LASF417:
 22266 1a68 7468725F 		.ascii	"thr_exp_mode\000"
 22266      6578705F 
ARM GAS  /tmp/cc4M9ACW.s 			page 413


 22266      6D6F6465 
 22266      00
 22267              	.LASF711:
 22268 1a75 62756666 		.ascii	"buffer_append_float16\000"
 22268      65725F61 
 22268      7070656E 
 22268      645F666C 
 22268      6F617431 
 22269              	.LASF707:
 22270 1a8b 62756666 		.ascii	"buffer_get_int32\000"
 22270      65725F67 
 22270      65745F69 
 22270      6E743332 
 22270      00
 22271              	.LASF675:
 22272 1a9c 6170705F 		.ascii	"app_ppm_conf\000"
 22272      70706D5F 
 22272      636F6E66 
 22272      00
 22273              	.LASF420:
 22274 1aa9 53414645 		.ascii	"SAFE_START_NO_FAULT\000"
 22274      5F535441 
 22274      52545F4E 
 22274      4F5F4641 
 22274      554C5400 
 22275              	.LASF162:
 22276 1abd 6F75745F 		.ascii	"out_aux_mode\000"
 22276      6175785F 
 22276      6D6F6465 
 22276      00
 22277              	.LASF47:
 22278 1aca 705F6D73 		.ascii	"p_msgqueue\000"
 22278      67717565 
 22278      756500
 22279              	.LASF449:
 22280 1ad5 736D6172 		.ascii	"smart_rev_max_duty\000"
 22280      745F7265 
 22280      765F6D61 
 22280      785F6475 
 22280      747900
 22281              	.LASF126:
 22282 1ae8 63665F6F 		.ascii	"cf_off_refs\000"
 22282      66665F72 
 22282      65667300 
 22283              	.LASF312:
 22284 1af4 666F635F 		.ascii	"foc_duty_dowmramp_ki\000"
 22284      64757479 
 22284      5F646F77 
 22284      6D72616D 
 22284      705F6B69 
 22285              	.LASF516:
 22286 1b09 4E52465F 		.ascii	"NRF_RETR_DELAY_250US\000"
 22286      52455452 
 22286      5F44454C 
 22286      41595F32 
 22286      35305553 
 22287              	.LASF108:
ARM GAS  /tmp/cc4M9ACW.s 			page 414


 22288 1b1e 6D5F6F77 		.ascii	"m_owner\000"
 22288      6E657200 
 22289              	.LASF311:
 22290 1b26 666F635F 		.ascii	"foc_duty_dowmramp_kp\000"
 22290      64757479 
 22290      5F646F77 
 22290      6D72616D 
 22290      705F6B70 
 22291              	.LASF89:
 22292 1b3b 53797374 		.ascii	"SystemCoreClock\000"
 22292      656D436F 
 22292      7265436C 
 22292      6F636B00 
 22293              	.LASF676:
 22294 1b4b 6170705F 		.ascii	"app_adc_conf\000"
 22294      6164635F 
 22294      636F6E66 
 22294      00
 22295              	.LASF114:
 22296 1b58 63685F76 		.ascii	"ch_version\000"
 22296      65727369 
 22296      6F6E00
 22297              	.LASF685:
 22298 1b63 6F646F6D 		.ascii	"odometer_init_flag\000"
 22298      65746572 
 22298      5F696E69 
 22298      745F666C 
 22298      616700
 22299              	.LASF448:
 22300 1b76 6D61785F 		.ascii	"max_erpm_for_dir\000"
 22300      6572706D 
 22300      5F666F72 
 22300      5F646972 
 22300      00
 22301              	.LASF640:
 22302 1b87 726F745F 		.ascii	"rot_yaw\000"
 22302      79617700 
 22303              	.LASF154:
 22304 1b8f 4F55545F 		.ascii	"OUT_AUX_MODE_ON_WHEN_RUNNING\000"
 22304      4155585F 
 22304      4D4F4445 
 22304      5F4F4E5F 
 22304      5748454E 
 22305              	.LASF147:
 22306 1bac 464F435F 		.ascii	"FOC_SENSOR_MODE_HFI_START\000"
 22306      53454E53 
 22306      4F525F4D 
 22306      4F44455F 
 22306      4846495F 
 22307              	.LASF392:
 22308 1bc6 6D5F6E74 		.ascii	"m_ntcx_ptcx_res\000"
 22308      63785F70 
 22308      7463785F 
 22308      72657300 
 22309              	.LASF490:
 22310 1bd6 4348554B 		.ascii	"CHUK_CTRL_TYPE_CURRENT_BIDIRECTIONAL\000"
 22310      5F435452 
ARM GAS  /tmp/cc4M9ACW.s 			page 415


 22310      4C5F5459 
 22310      50455F43 
 22310      55525245 
 22311              	.LASF83:
 22312 1bfb 63685F73 		.ascii	"ch_system\000"
 22312      79737465 
 22312      6D00
 22313              	.LASF244:
 22314 1c05 6C5F6375 		.ascii	"l_current_max\000"
 22314      7272656E 
 22314      745F6D61 
 22314      7800
 22315              	.LASF652:
 22316 1c13 55415643 		.ascii	"UAVCAN_RAW_MODE\000"
 22316      414E5F52 
 22316      41575F4D 
 22316      4F444500 
 22317              	.LASF269:
 22318 1c23 6C5F6375 		.ascii	"l_current_min_scale\000"
 22318      7272656E 
 22318      745F6D69 
 22318      6E5F7363 
 22318      616C6500 
 22319              	.LASF689:
 22320 1c37 6261636B 		.ascii	"backup_data\000"
 22320      75705F64 
 22320      61746100 
 22321              	.LASF502:
 22322 1c43 4E52465F 		.ascii	"NRF_SPEED_250K\000"
 22322      53504545 
 22322      445F3235 
 22322      304B00
 22323              	.LASF103:
 22324 1c52 63685F73 		.ascii	"ch_semaphore\000"
 22324      656D6170 
 22324      686F7265 
 22324      00
 22325              	.LASF670:
 22326 1c5f 63616E5F 		.ascii	"can_mode\000"
 22326      6D6F6465 
 22326      00
 22327              	.LASF337:
 22328 1c68 666F635F 		.ascii	"foc_hfi_start_samples\000"
 22328      6866695F 
 22328      73746172 
 22328      745F7361 
 22328      6D706C65 
 22329              	.LASF425:
 22330 1c7e 50504D5F 		.ascii	"PPM_CTRL_TYPE_CURRENT_NOREV_BRAKE\000"
 22330      4354524C 
 22330      5F545950 
 22330      455F4355 
 22330      5252454E 
 22331              	.LASF543:
 22332 1ca0 6C6F6F70 		.ascii	"loop_time_filter\000"
 22332      5F74696D 
 22332      655F6669 
ARM GAS  /tmp/cc4M9ACW.s 			page 416


 22332      6C746572 
 22332      00
 22333              	.LASF489:
 22334 1cb1 4348554B 		.ascii	"CHUK_CTRL_TYPE_CURRENT_NOREV\000"
 22334      5F435452 
 22334      4C5F5459 
 22334      50455F43 
 22334      55525245 
 22335              	.LASF487:
 22336 1cce 4348554B 		.ascii	"CHUK_CTRL_TYPE_NONE\000"
 22336      5F435452 
 22336      4C5F5459 
 22336      50455F4E 
 22336      4F4E4500 
 22337              	.LASF58:
 22338 1ce2 74687265 		.ascii	"threads_queue_t\000"
 22338      6164735F 
 22338      71756575 
 22338      655F7400 
 22339              	.LASF183:
 22340 1cf2 53454E53 		.ascii	"SENSOR_PORT_MODE_HALL\000"
 22340      4F525F50 
 22340      4F52545F 
 22340      4D4F4445 
 22340      5F48414C 
 22341              	.LASF535:
 22342 1d08 6372635F 		.ascii	"crc_type\000"
 22342      74797065 
 22342      00
 22343              	.LASF143:
 22344 1d11 464F435F 		.ascii	"FOC_SENSOR_MODE_SENSORLESS\000"
 22344      53454E53 
 22344      4F525F4D 
 22344      4F44455F 
 22344      53454E53 
 22345              	.LASF43:
 22346 1d2c 705F7265 		.ascii	"p_refs\000"
 22346      667300
 22347              	.LASF491:
 22348 1d33 6368756B 		.ascii	"chuk_control_type\000"
 22348      5F636F6E 
 22348      74726F6C 
 22348      5F747970 
 22348      6500
 22349              	.LASF142:
 22350 1d45 6D635F73 		.ascii	"mc_sensor_mode\000"
 22350      656E736F 
 22350      725F6D6F 
 22350      646500
 22351              	.LASF9:
 22352 1d54 6C6F6E67 		.ascii	"long int\000"
 22352      20696E74 
 22352      00
 22353              	.LASF388:
 22354 1d5d 6D5F6D6F 		.ascii	"m_motor_temp_sens_type\000"
 22354      746F725F 
 22354      74656D70 
ARM GAS  /tmp/cc4M9ACW.s 			page 417


 22354      5F73656E 
 22354      735F7479 
 22355              	.LASF86:
 22356 1d74 6D61696E 		.ascii	"mainthread\000"
 22356      74687265 
 22356      616400
 22357              	.LASF107:
 22358 1d7f 6D5F7175 		.ascii	"m_queue\000"
 22358      65756500 
 22359              	.LASF584:
 22360 1d87 6B645F62 		.ascii	"kd_biquad_lowpass\000"
 22360      69717561 
 22360      645F6C6F 
 22360      77706173 
 22360      7300
 22361              	.LASF560:
 22362 1d99 74696C74 		.ascii	"tiltback_hv\000"
 22362      6261636B 
 22362      5F687600 
 22363              	.LASF136:
 22364 1da5 434F4D4D 		.ascii	"COMM_MODE_INTEGRATE\000"
 22364      5F4D4F44 
 22364      455F494E 
 22364      54454752 
 22364      41544500 
 22365              	.LASF333:
 22366 1db9 666F635F 		.ascii	"foc_hfi_voltage_start\000"
 22366      6866695F 
 22366      766F6C74 
 22366      6167655F 
 22366      73746172 
 22367              	.LASF694:
 22368 1dcf 636F6E66 		.ascii	"conf\000"
 22368      00
 22369              	.LASF441:
 22370 1dd4 7468726F 		.ascii	"throttle_exp\000"
 22370      74746C65 
 22370      5F657870 
 22370      00
 22371              	.LASF428:
 22372 1de1 50504D5F 		.ascii	"PPM_CTRL_TYPE_PID\000"
 22372      4354524C 
 22372      5F545950 
 22372      455F5049 
 22372      4400
 22373              	.LASF99:
 22374 1df3 77747472 		.ascii	"wttrp\000"
 22374      7000
 22375              	.LASF692:
 22376 1df9 636F6E66 		.ascii	"confgenerator_set_defaults_appconf\000"
 22376      67656E65 
 22376      7261746F 
 22376      725F7365 
 22376      745F6465 
 22377              	.LASF92:
 22378 1e1c 636F6E74 		.ascii	"context\000"
 22378      65787400 
ARM GAS  /tmp/cc4M9ACW.s 			page 418


 22379              	.LASF553:
 22380 1e24 6661756C 		.ascii	"fault_delay_switch_full\000"
 22380      745F6465 
 22380      6C61795F 
 22380      73776974 
 22380      63685F66 
 22381              	.LASF179:
 22382 1e3c 464F435F 		.ascii	"FOC_CC_DECOUPLING_CROSS_BEMF\000"
 22382      43435F44 
 22382      45434F55 
 22382      504C494E 
 22382      475F4352 
 22383              	.LASF393:
 22384 1e59 73695F6D 		.ascii	"si_motor_poles\000"
 22384      6F746F72 
 22384      5F706F6C 
 22384      657300
 22385              	.LASF705:
 22386 1e68 62756666 		.ascii	"buffer_get_float16\000"
 22386      65725F67 
 22386      65745F66 
 22386      6C6F6174 
 22386      313600
 22387              	.LASF296:
 22388 1e7b 666F635F 		.ascii	"foc_encoder_ratio\000"
 22388      656E636F 
 22388      6465725F 
 22388      72617469 
 22388      6F00
 22389              	.LASF20:
 22390 1e8d 75696E74 		.ascii	"uint32_t\000"
 22390      33325F74 
 22390      00
 22391              	.LASF690:
 22392 1e96 636F6E66 		.ascii	"conf_general_permanent_nrf_found\000"
 22392      5F67656E 
 22392      6572616C 
 22392      5F706572 
 22392      6D616E65 
 22393              	.LASF511:
 22394 1eb7 4E52465F 		.ascii	"NRF_POWER\000"
 22394      504F5745 
 22394      5200
 22395              	.LASF90:
 22396 1ec1 72656761 		.ascii	"regarm_t\000"
 22396      726D5F74 
 22396      00
 22397              	.LASF29:
 22398 1eca 6576656E 		.ascii	"eventmask_t\000"
 22398      746D6173 
 22398      6B5F7400 
 22399              	.LASF314:
 22400 1ed6 666F635F 		.ascii	"foc_openloop_rpm_low\000"
 22400      6F70656E 
 22400      6C6F6F70 
 22400      5F72706D 
 22400      5F6C6F77 
ARM GAS  /tmp/cc4M9ACW.s 			page 419


 22401              	.LASF479:
 22402 1eeb 766F6C74 		.ascii	"voltage2_end\000"
 22402      61676532 
 22402      5F656E64 
 22402      00
 22403              	.LASF461:
 22404 1ef8 4144435F 		.ascii	"ADC_CTRL_TYPE_DUTY\000"
 22404      4354524C 
 22404      5F545950 
 22404      455F4455 
 22404      545900
 22405              	.LASF11:
 22406 1f0b 6C6F6E67 		.ascii	"long unsigned int\000"
 22406      20756E73 
 22406      69676E65 
 22406      6420696E 
 22406      7400
 22407              	.LASF374:
 22408 1f1d 63635F72 		.ascii	"cc_ramp_step_max\000"
 22408      616D705F 
 22408      73746570 
 22408      5F6D6178 
 22408      00
 22409              	.LASF552:
 22410 1f2e 6661756C 		.ascii	"fault_delay_switch_half\000"
 22410      745F6465 
 22410      6C61795F 
 22410      73776974 
 22410      63685F68 
 22411              	.LASF365:
 22412 1f46 705F7069 		.ascii	"p_pid_kd\000"
 22412      645F6B64 
 22412      00
 22413              	.LASF364:
 22414 1f4f 705F7069 		.ascii	"p_pid_ki\000"
 22414      645F6B69 
 22414      00
 22415              	.LASF512:
 22416 1f58 4E52465F 		.ascii	"NRF_CRC_DISABLED\000"
 22416      4352435F 
 22416      44495341 
 22416      424C4544 
 22416      00
 22417              	.LASF363:
 22418 1f69 705F7069 		.ascii	"p_pid_kp\000"
 22418      645F6B70 
 22418      00
 22419              	.LASF579:
 22420 1f72 6272616B 		.ascii	"brake_current\000"
 22420      655F6375 
 22420      7272656E 
 22420      7400
 22421              	.LASF534:
 22422 1f80 706F7765 		.ascii	"power\000"
 22422      7200
 22423              	.LASF189:
 22424 1f86 53454E53 		.ascii	"SENSOR_PORT_MODE_TS5700N8501_MULTITURN\000"
ARM GAS  /tmp/cc4M9ACW.s 			page 420


 22424      4F525F50 
 22424      4F52545F 
 22424      4D4F4445 
 22424      5F545335 
 22425              	.LASF401:
 22426 1fad 4150505F 		.ascii	"APP_NONE\000"
 22426      4E4F4E45 
 22426      00
 22427              	.LASF133:
 22428 1fb6 50574D5F 		.ascii	"PWM_MODE_SYNCHRONOUS\000"
 22428      4D4F4445 
 22428      5F53594E 
 22428      4348524F 
 22428      4E4F5553 
 22429              	.LASF384:
 22430 1fcb 6D5F626C 		.ascii	"m_bldc_f_sw_max\000"
 22430      64635F66 
 22430      5F73775F 
 22430      6D617800 
 22431              	.LASF687:
 22432 1fdb 72756E74 		.ascii	"runtime_init_flag\000"
 22432      696D655F 
 22432      696E6974 
 22432      5F666C61 
 22432      6700
 22433              	.LASF196:
 22434 1fed 64727638 		.ascii	"drv8301_oc_mode\000"
 22434      3330315F 
 22434      6F635F6D 
 22434      6F646500 
 22435              	.LASF328:
 22436 1ffd 666F635F 		.ascii	"foc_temp_comp\000"
 22436      74656D70 
 22436      5F636F6D 
 22436      7000
 22437              	.LASF476:
 22438 200b 766F6C74 		.ascii	"voltage_end\000"
 22438      6167655F 
 22438      656E6400 
 22439              	.LASF231:
 22440 2017 5049445F 		.ascii	"PID_RATE_50_HZ\000"
 22440      52415445 
 22440      5F35305F 
 22440      485A00
 22441              	.LASF641:
 22442 2026 61636365 		.ascii	"accel_offsets\000"
 22442      6C5F6F66 
 22442      66736574 
 22442      7300
 22443              	.LASF712:
 22444 2034 62756666 		.ascii	"buffer_append_int16\000"
 22444      65725F61 
 22444      7070656E 
 22444      645F696E 
 22444      74313600 
 22445              	.LASF110:
 22446 2048 63686172 		.ascii	"char\000"
ARM GAS  /tmp/cc4M9ACW.s 			page 421


 22446      00
 22447              	.LASF620:
 22448 204d 53485554 		.ascii	"SHUTDOWN_MODE\000"
 22448      444F574E 
 22448      5F4D4F44 
 22448      4500
 22449              	.LASF62:
 22450 205b 725F7175 		.ascii	"r_queue\000"
 22450      65756500 
 22451              	.LASF228:
 22452 2063 626D735F 		.ascii	"bms_config\000"
 22452      636F6E66 
 22452      696700
 22453              	.LASF287:
 22454 206e 736C5F62 		.ascii	"sl_bemf_coupling_k\000"
 22454      656D665F 
 22454      636F7570 
 22454      6C696E67 
 22454      5F6B00
 22455              	.LASF263:
 22456 2081 6C5F7465 		.ascii	"l_temp_accel_dec\000"
 22456      6D705F61 
 22456      6363656C 
 22456      5F646563 
 22456      00
 22457              	.LASF444:
 22458 2092 72616D70 		.ascii	"ramp_time_pos\000"
 22458      5F74696D 
 22458      655F706F 
 22458      7300
 22459              	.LASF563:
 22460 20a0 74696C74 		.ascii	"tiltback_lv\000"
 22460      6261636B 
 22460      5F6C7600 
 22461              	.LASF355:
 22462 20ac 73705F70 		.ascii	"sp_pid_loop_rate\000"
 22462      69645F6C 
 22462      6F6F705F 
 22462      72617465 
 22462      00
 22463              	.LASF220:
 22464 20bd 424D535F 		.ascii	"BMS_FWD_CAN_MODE_ANY\000"
 22464      4657445F 
 22464      43414E5F 
 22464      4D4F4445 
 22464      5F414E59 
 22465              	.LASF530:
 22466 20d2 4E52465F 		.ascii	"NRF_RETR_DELAY_3750US\000"
 22466      52455452 
 22466      5F44454C 
 22466      41595F33 
 22466      37353055 
 22467              	.LASF243:
 22468 20e8 4D545041 		.ascii	"MTPA_MODE\000"
 22468      5F4D4F44 
 22468      4500
 22469              	.LASF585:
ARM GAS  /tmp/cc4M9ACW.s 			page 422


 22470 20f2 6B645F62 		.ascii	"kd_biquad_highpass\000"
 22470      69717561 
 22470      645F6869 
 22470      67687061 
 22470      737300
 22471              	.LASF405:
 22472 2105 4150505F 		.ascii	"APP_PPM_UART\000"
 22472      50504D5F 
 22472      55415254 
 22472      00
 22473              	.LASF261:
 22474 2112 6C5F7465 		.ascii	"l_temp_motor_start\000"
 22474      6D705F6D 
 22474      6F746F72 
 22474      5F737461 
 22474      727400
 22475              	.LASF611:
 22476 2125 53485554 		.ascii	"SHUTDOWN_MODE_ALWAYS_ON\000"
 22476      444F574E 
 22476      5F4D4F44 
 22476      455F414C 
 22476      57415953 
 22477              	.LASF397:
 22478 213d 73695F62 		.ascii	"si_battery_cells\000"
 22478      61747465 
 22478      72795F63 
 22478      656C6C73 
 22478      00
 22479              	.LASF715:
 22480 214e 636F6E66 		.ascii	"confgenerator.c\000"
 22480      67656E65 
 22480      7261746F 
 22480      722E6300 
 22481              	.LASF595:
 22482 215e 7475726E 		.ascii	"turntilt_strength\000"
 22482      74696C74 
 22482      5F737472 
 22482      656E6774 
 22482      6800
 22483              	.LASF510:
 22484 2170 4E52465F 		.ascii	"NRF_POWER_OFF\000"
 22484      504F5745 
 22484      525F4F46 
 22484      4600
 22485              	.LASF201:
 22486 217e 43414E5F 		.ascii	"CAN_BAUD_10K\000"
 22486      42415544 
 22486      5F31304B 
 22486      00
 22487              	.LASF618:
 22488 218b 53485554 		.ascii	"SHUTDOWN_MODE_OFF_AFTER_1H\000"
 22488      444F574E 
 22488      5F4D4F44 
 22488      455F4F46 
 22488      465F4146 
 22489              	.LASF713:
 22490 21a6 62756666 		.ascii	"buffer_append_int32\000"
ARM GAS  /tmp/cc4M9ACW.s 			page 423


 22490      65725F61 
 22490      7070656E 
 22490      645F696E 
 22490      74333200 
 22491              	.LASF614:
 22492 21ba 53485554 		.ascii	"SHUTDOWN_MODE_OFF_AFTER_1M\000"
 22492      444F574E 
 22492      5F4D4F44 
 22492      455F4F46 
 22492      465F4146 
 22493              	.LASF681:
 22494 21d5 6170705F 		.ascii	"app_pas_conf\000"
 22494      7061735F 
 22494      636F6E66 
 22494      00
 22495              	.LASF342:
 22496 21e2 666F635F 		.ascii	"foc_offsets_voltage_undriven\000"
 22496      6F666673 
 22496      6574735F 
 22496      766F6C74 
 22496      6167655F 
 22497              	.LASF187:
 22498 21ff 53454E53 		.ascii	"SENSOR_PORT_MODE_SINCOS\000"
 22498      4F525F50 
 22498      4F52545F 
 22498      4D4F4445 
 22498      5F53494E 
 22499              	.LASF245:
 22500 2217 6C5F6375 		.ascii	"l_current_min\000"
 22500      7272656E 
 22500      745F6D69 
 22500      6E00
 22501              	.LASF695:
 22502 2225 62756666 		.ascii	"buffer\000"
 22502      657200
 22503              	.LASF390:
 22504 222c 6D5F6861 		.ascii	"m_hall_extra_samples\000"
 22504      6C6C5F65 
 22504      78747261 
 22504      5F73616D 
 22504      706C6573 
 22505              	.LASF403:
 22506 2241 4150505F 		.ascii	"APP_ADC\000"
 22506      41444300 
 22507              	.LASF412:
 22508 2249 4150505F 		.ascii	"APP_ADC_PAS\000"
 22508      4144435F 
 22508      50415300 
 22509              	.LASF40:
 22510 2255 705F7374 		.ascii	"p_stklimit\000"
 22510      6B6C696D 
 22510      697400
 22511              	.LASF30:
 22512 2260 636E745F 		.ascii	"cnt_t\000"
 22512      7400
 22513              	.LASF410:
 22514 2266 4150505F 		.ascii	"APP_BALANCE\000"
ARM GAS  /tmp/cc4M9ACW.s 			page 424


 22514      42414C41 
 22514      4E434500 
 22515              	.LASF459:
 22516 2272 4144435F 		.ascii	"ADC_CTRL_TYPE_CURRENT_NOREV_BRAKE_BUTTON\000"
 22516      4354524C 
 22516      5F545950 
 22516      455F4355 
 22516      5252454E 
 22517              	.LASF396:
 22518 229b 73695F62 		.ascii	"si_battery_type\000"
 22518      61747465 
 22518      72795F74 
 22518      79706500 
 22519              	.LASF567:
 22520 22ab 74696C74 		.ascii	"tiltback_variable\000"
 22520      6261636B 
 22520      5F766172 
 22520      6961626C 
 22520      6500
 22521              	.LASF467:
 22522 22bd 6164635F 		.ascii	"adc_control_type\000"
 22522      636F6E74 
 22522      726F6C5F 
 22522      74797065 
 22522      00
 22523              	.LASF358:
 22524 22ce 735F7069 		.ascii	"s_pid_kd\000"
 22524      645F6B64 
 22524      00
 22525              	.LASF708:
 22526 22d7 62756666 		.ascii	"buffer_append_uint32\000"
 22526      65725F61 
 22526      7070656E 
 22526      645F7569 
 22526      6E743332 
 22527              	.LASF357:
 22528 22ec 735F7069 		.ascii	"s_pid_ki\000"
 22528      645F6B69 
 22528      00
 22529              	.LASF289:
 22530 22f5 68616C6C 		.ascii	"hall_sl_erpm\000"
 22530      5F736C5F 
 22530      6572706D 
 22530      00
 22531              	.LASF356:
 22532 2302 735F7069 		.ascii	"s_pid_kp\000"
 22532      645F6B70 
 22532      00
 22533              	.LASF683:
 22534 230b 6170705F 		.ascii	"app_configuration\000"
 22534      636F6E66 
 22534      69677572 
 22534      6174696F 
 22534      6E00
 22535              	.LASF275:
 22536 231d 6C6F5F63 		.ascii	"lo_current_motor_max_now\000"
 22536      75727265 
ARM GAS  /tmp/cc4M9ACW.s 			page 425


 22536      6E745F6D 
 22536      6F746F72 
 22536      5F6D6178 
 22537              	.LASF442:
 22538 2336 7468726F 		.ascii	"throttle_exp_brake\000"
 22538      74746C65 
 22538      5F657870 
 22538      5F627261 
 22538      6B6500
 22539              	.LASF127:
 22540 2349 63665F6F 		.ascii	"cf_off_preempt\000"
 22540      66665F70 
 22540      7265656D 
 22540      707400
 22541              	.LASF503:
 22542 2358 4E52465F 		.ascii	"NRF_SPEED_1M\000"
 22542      53504545 
 22542      445F314D 
 22542      00
 22543              	.LASF587:
 22544 2365 626F6F73 		.ascii	"booster_ramp\000"
 22544      7465725F 
 22544      72616D70 
 22544      00
 22545              	.LASF313:
 22546 2372 666F635F 		.ascii	"foc_openloop_rpm\000"
 22546      6F70656E 
 22546      6C6F6F70 
 22546      5F72706D 
 22546      00
 22547              	.LASF310:
 22548 2383 666F635F 		.ascii	"foc_pll_ki\000"
 22548      706C6C5F 
 22548      6B6900
 22549              	.LASF672:
 22550 238e 75617663 		.ascii	"uavcan_raw_mode\000"
 22550      616E5F72 
 22550      61775F6D 
 22550      6F646500 
 22551              	.LASF309:
 22552 239e 666F635F 		.ascii	"foc_pll_kp\000"
 22552      706C6C5F 
 22552      6B7000
 22553              	.LASF409:
 22554 23a9 4150505F 		.ascii	"APP_CUSTOM\000"
 22554      43555354 
 22554      4F4D00
 22555              	.LASF68:
 22556 23b4 76746675 		.ascii	"vtfunc_t\000"
 22556      6E635F74 
 22556      00
 22557              	.LASF504:
 22558 23bd 4E52465F 		.ascii	"NRF_SPEED_2M\000"
 22558      53504545 
 22558      445F324D 
 22558      00
 22559              	.LASF704:
ARM GAS  /tmp/cc4M9ACW.s 			page 426


 22560 23ca 62756666 		.ascii	"buffer_get_uint16\000"
 22560      65725F67 
 22560      65745F75 
 22560      696E7431 
 22560      3600
 22561              	.LASF98:
 22562 23dc 77746F62 		.ascii	"wtobjp\000"
 22562      6A7000
 22563              	.LASF404:
 22564 23e3 4150505F 		.ascii	"APP_UART\000"
 22564      55415254 
 22564      00
 22565              	.LASF193:
 22566 23ec 44525638 		.ascii	"DRV8301_OC_LATCH_SHUTDOWN\000"
 22566      3330315F 
 22566      4F435F4C 
 22566      41544348 
 22566      5F534855 
 22567              	.LASF51:
 22568 2406 705F7265 		.ascii	"p_realprio\000"
 22568      616C7072 
 22568      696F00
 22569              	.LASF406:
 22570 2411 4150505F 		.ascii	"APP_ADC_UART\000"
 22570      4144435F 
 22570      55415254 
 22570      00
 22571              	.LASF617:
 22572 241e 53485554 		.ascii	"SHUTDOWN_MODE_OFF_AFTER_30M\000"
 22572      444F574E 
 22572      5F4D4F44 
 22572      455F4F46 
 22572      465F4146 
 22573              	.LASF701:
 22574 243a 68775F69 		.ascii	"hw_id_from_uuid\000"
 22574      645F6672 
 22574      6F6D5F75 
 22574      75696400 
 22575              	.LASF101:
 22576 244a 77746D74 		.ascii	"wtmtxp\000"
 22576      787000
 22577              	.LASF175:
 22578 2451 6D635F6D 		.ascii	"mc_motor_type\000"
 22578      6F746F72 
 22578      5F747970 
 22578      6500
 22579              	.LASF482:
 22580 245f 7265765F 		.ascii	"rev_button_inverted\000"
 22580      62757474 
 22580      6F6E5F69 
 22580      6E766572 
 22580      74656400 
 22581              	.LASF651:
 22582 2473 55415643 		.ascii	"UAVCAN_RAW_MODE_RPM\000"
 22582      414E5F52 
 22582      41575F4D 
 22582      4F44455F 
ARM GAS  /tmp/cc4M9ACW.s 			page 427


 22582      52504D00 
 22583              	.LASF262:
 22584 2487 6C5F7465 		.ascii	"l_temp_motor_end\000"
 22584      6D705F6D 
 22584      6F746F72 
 22584      5F656E64 
 22584      00
 22585              	.LASF496:
 22586 2498 63757272 		.ascii	"current_scaling\000"
 22586      656E745F 
 22586      7363616C 
 22586      696E6700 
 22587              	.LASF619:
 22588 24a8 53485554 		.ascii	"SHUTDOWN_MODE_OFF_AFTER_5H\000"
 22588      444F574E 
 22588      5F4D4F44 
 22588      455F4F46 
 22588      465F4146 
 22589              	.LASF329:
 22590 24c3 666F635F 		.ascii	"foc_temp_comp_base_temp\000"
 22590      74656D70 
 22590      5F636F6D 
 22590      705F6261 
 22590      73655F74 
 22591              	.LASF615:
 22592 24db 53485554 		.ascii	"SHUTDOWN_MODE_OFF_AFTER_5M\000"
 22592      444F574E 
 22592      5F4D4F44 
 22592      455F4F46 
 22592      465F4146 
 22593              	.LASF280:
 22594 24f6 73656E73 		.ascii	"sensor_mode\000"
 22594      6F725F6D 
 22594      6F646500 
 22595              	.LASF682:
 22596 2502 696D755F 		.ascii	"imu_conf\000"
 22596      636F6E66 
 22596      00
 22597              	.LASF139:
 22598 250b 53454E53 		.ascii	"SENSOR_MODE_SENSORLESS\000"
 22598      4F525F4D 
 22598      4F44455F 
 22598      53454E53 
 22598      4F524C45 
 22599              	.LASF533:
 22600 2522 73706565 		.ascii	"speed\000"
 22600      6400
 22601              	.LASF61:
 22602 2528 63685F72 		.ascii	"ch_ready_list\000"
 22602      65616479 
 22602      5F6C6973 
 22602      7400
 22603              	.LASF8:
 22604 2536 5F5F696E 		.ascii	"__int32_t\000"
 22604      7433325F 
 22604      7400
 22605              	.LASF199:
ARM GAS  /tmp/cc4M9ACW.s 			page 428


 22606 2540 43414E5F 		.ascii	"CAN_BAUD_500K\000"
 22606      42415544 
 22606      5F353030 
 22606      4B00
 22607              	.LASF10:
 22608 254e 5F5F7569 		.ascii	"__uint32_t\000"
 22608      6E743332 
 22608      5F7400
 22609              	.LASF80:
 22610 2559 63685F73 		.ascii	"ch_system_debug\000"
 22610      79737465 
 22610      6D5F6465 
 22610      62756700 
 22611              	.LASF702:
 22612 2569 62756666 		.ascii	"buffer_get_uint32\000"
 22612      65725F67 
 22612      65745F75 
 22612      696E7433 
 22612      3200
 22613              	.LASF494:
 22614 257b 6368756B 		.ascii	"chuk_config\000"
 22614      5F636F6E 
 22614      66696700 
 22615              	.LASF452:
 22616 2587 4144435F 		.ascii	"ADC_CTRL_TYPE_NONE\000"
 22616      4354524C 
 22616      5F545950 
 22616      455F4E4F 
 22616      4E4500
 22617              	.LASF576:
 22618 259a 7961775F 		.ascii	"yaw_kd\000"
 22618      6B6400
 22619              	.LASF706:
 22620 25a1 62756666 		.ascii	"buffer_get_int16\000"
 22620      65725F67 
 22620      65745F69 
 22620      6E743136 
 22620      00
 22621              	.LASF575:
 22622 25b2 7961775F 		.ascii	"yaw_ki\000"
 22622      6B6900
 22623              	.LASF383:
 22624 25b9 6D5F626C 		.ascii	"m_bldc_f_sw_min\000"
 22624      64635F66 
 22624      5F73775F 
 22624      6D696E00 
 22625              	.LASF574:
 22626 25c9 7961775F 		.ascii	"yaw_kp\000"
 22626      6B7000
 22627              	.LASF131:
 22628 25d0 6D757465 		.ascii	"mutex_t\000"
 22628      785F7400 
 22629              	.LASF294:
 22630 25d8 666F635F 		.ascii	"foc_encoder_offset\000"
 22630      656E636F 
 22630      6465725F 
 22630      6F666673 
ARM GAS  /tmp/cc4M9ACW.s 			page 429


 22630      657400
 22631              	.LASF709:
 22632 25eb 62756666 		.ascii	"buffer_append_float32_auto\000"
 22632      65725F61 
 22632      7070656E 
 22632      645F666C 
 22632      6F617433 
 22633              	.LASF49:
 22634 2606 705F6570 		.ascii	"p_epending\000"
 22634      656E6469 
 22634      6E6700
 22635              	.LASF592:
 22636 2611 746F7271 		.ascii	"torquetilt_off_speed\000"
 22636      75657469 
 22636      6C745F6F 
 22636      66665F73 
 22636      70656564 
 22637              	.LASF202:
 22638 2626 43414E5F 		.ascii	"CAN_BAUD_20K\000"
 22638      42415544 
 22638      5F32304B 
 22638      00
 22639              	.LASF497:
 22640 2633 70656461 		.ascii	"pedal_rpm_start\000"
 22640      6C5F7270 
 22640      6D5F7374 
 22640      61727400 
 22641              	.LASF319:
 22642 2643 666F635F 		.ascii	"foc_sl_openloop_time_lock\000"
 22642      736C5F6F 
 22642      70656E6C 
 22642      6F6F705F 
 22642      74696D65 
 22643              	.LASF317:
 22644 265d 666F635F 		.ascii	"foc_sl_openloop_hyst\000"
 22644      736C5F6F 
 22644      70656E6C 
 22644      6F6F705F 
 22644      68797374 
 22645              	.LASF440:
 22646 2672 73616665 		.ascii	"safe_start\000"
 22646      5F737461 
 22646      727400
 22647              	.LASF477:
 22648 267d 766F6C74 		.ascii	"voltage_center\000"
 22648      6167655F 
 22648      63656E74 
 22648      657200
 22649              	.LASF427:
 22650 268c 50504D5F 		.ascii	"PPM_CTRL_TYPE_DUTY_NOREV\000"
 22650      4354524C 
 22650      5F545950 
 22650      455F4455 
 22650      54595F4E 
 22651              	.LASF642:
 22652 26a5 6779726F 		.ascii	"gyro_offsets\000"
 22652      5F6F6666 
ARM GAS  /tmp/cc4M9ACW.s 			page 430


 22652      73657473 
 22652      00
 22653              	.LASF198:
 22654 26b2 43414E5F 		.ascii	"CAN_BAUD_250K\000"
 22654      42415544 
 22654      5F323530 
 22654      4B00
 22655              	.LASF273:
 22656 26c0 6C6F5F69 		.ascii	"lo_in_current_max\000"
 22656      6E5F6375 
 22656      7272656E 
 22656      745F6D61 
 22656      7800
 22657              	.LASF431:
 22658 26d2 50504D5F 		.ascii	"PPM_CTRL_TYPE_CURRENT_SMART_REV\000"
 22658      4354524C 
 22658      5F545950 
 22658      455F4355 
 22658      5252454E 
 22659              	.LASF63:
 22660 26f2 725F7072 		.ascii	"r_prio\000"
 22660      696F00
 22661              	.LASF621:
 22662 26f9 494D555F 		.ascii	"IMU_TYPE_OFF\000"
 22662      54595045 
 22662      5F4F4646 
 22662      00
 22663              	.LASF547:
 22664 2706 6661756C 		.ascii	"fault_adc1\000"
 22664      745F6164 
 22664      633100
 22665              	.LASF321:
 22666 2711 666F635F 		.ascii	"foc_sensor_mode\000"
 22666      73656E73 
 22666      6F725F6D 
 22666      6F646500 
 22667              	.LASF88:
 22668 2721 49544D5F 		.ascii	"ITM_RxBuffer\000"
 22668      52784275 
 22668      66666572 
 22668      00
 22669              	.LASF145:
 22670 272e 464F435F 		.ascii	"FOC_SENSOR_MODE_HALL\000"
 22670      53454E53 
 22670      4F525F4D 
 22670      4F44455F 
 22670      48414C4C 
 22671              	.LASF14:
 22672 2743 6C6F6E67 		.ascii	"long long unsigned int\000"
 22672      206C6F6E 
 22672      6720756E 
 22672      7369676E 
 22672      65642069 
 22673              	.LASF94:
 22674 275a 6F666673 		.ascii	"offset\000"
 22674      657400
 22675              	.LASF630:
ARM GAS  /tmp/cc4M9ACW.s 			page 431


 22676 2761 41485253 		.ascii	"AHRS_MODE_MADGWICK_FUSION\000"
 22676      5F4D4F44 
 22676      455F4D41 
 22676      44475749 
 22676      434B5F46 
 22677              	.LASF668:
 22678 277b 73657276 		.ascii	"servo_out_enable\000"
 22678      6F5F6F75 
 22678      745F656E 
 22678      61626C65 
 22678      00
 22679              	.LASF367:
 22680 278c 705F7069 		.ascii	"p_pid_kd_filter\000"
 22680      645F6B64 
 22680      5F66696C 
 22680      74657200 
 22681              	.LASF293:
 22682 279c 666F635F 		.ascii	"foc_dt_us\000"
 22682      64745F75 
 22682      7300
 22683              	.LASF327:
 22684 27a6 666F635F 		.ascii	"foc_sat_comp\000"
 22684      7361745F 
 22684      636F6D70 
 22684      00
 22685              	.LASF558:
 22686 27b3 74696C74 		.ascii	"tiltback_hv_angle\000"
 22686      6261636B 
 22686      5F68765F 
 22686      616E676C 
 22686      6500
 22687              	.LASF591:
 22688 27c5 746F7271 		.ascii	"torquetilt_on_speed\000"
 22688      75657469 
 22688      6C745F6F 
 22688      6E5F7370 
 22688      65656400 
 22689              	.LASF474:
 22690 27d9 7061735F 		.ascii	"pas_sensor_type\000"
 22690      73656E73 
 22690      6F725F74 
 22690      79706500 
 22691              	.LASF87:
 22692 27e9 69646C65 		.ascii	"idle_thread_wa\000"
 22692      5F746872 
 22692      6561645F 
 22692      776100
 22693              	.LASF583:
 22694 27f8 6B645F70 		.ascii	"kd_pt1_highpass_frequency\000"
 22694      74315F68 
 22694      69676870 
 22694      6173735F 
 22694      66726571 
 22695              	.LASF673:
 22696 2812 75617663 		.ascii	"uavcan_raw_rpm_max\000"
 22696      616E5F72 
 22696      61775F72 
ARM GAS  /tmp/cc4M9ACW.s 			page 432


 22696      706D5F6D 
 22696      617800
 22697              	.LASF74:
 22698 2825 76745F66 		.ascii	"vt_func\000"
 22698      756E6300 
 22699              	.LASF70:
 22700 282d 63685F76 		.ascii	"ch_virtual_timer\000"
 22700      69727475 
 22700      616C5F74 
 22700      696D6572 
 22700      00
 22701              	.LASF42:
 22702 283e 705F666C 		.ascii	"p_flags\000"
 22702      61677300 
 22703              	.LASF205:
 22704 2846 43414E5F 		.ascii	"CAN_BAUD_100K\000"
 22704      42415544 
 22704      5F313030 
 22704      4B00
 22705              	.LASF102:
 22706 2854 65776D61 		.ascii	"ewmask\000"
 22706      736B00
 22707              	.LASF207:
 22708 285b 42415454 		.ascii	"BATTERY_TYPE_LIION_3_0__4_2\000"
 22708      4552595F 
 22708      54595045 
 22708      5F4C4949 
 22708      4F4E5F33 
 22709              	.LASF527:
 22710 2877 4E52465F 		.ascii	"NRF_RETR_DELAY_3000US\000"
 22710      52455452 
 22710      5F44454C 
 22710      41595F33 
 22710      30303055 
 22711              	.LASF50:
 22712 288d 705F6D74 		.ascii	"p_mtxlist\000"
 22712      786C6973 
 22712      7400
 22713              	.LASF286:
 22714 2897 736C5F63 		.ascii	"sl_cycle_int_rpm_br\000"
 22714      79636C65 
 22714      5F696E74 
 22714      5F72706D 
 22714      5F627200 
 22715              	.LASF649:
 22716 28ab 55415643 		.ascii	"UAVCAN_RAW_MODE_CURRENT_NO_REV_BRAKE\000"
 22716      414E5F52 
 22716      41575F4D 
 22716      4F44455F 
 22716      43555252 
 22717              	.LASF629:
 22718 28d0 41485253 		.ascii	"AHRS_MODE_MAHONY\000"
 22718      5F4D4F44 
 22718      455F4D41 
 22718      484F4E59 
 22718      00
 22719              	.LASF625:
ARM GAS  /tmp/cc4M9ACW.s 			page 433


 22720 28e1 494D555F 		.ascii	"IMU_TYPE_EXTERNAL_BMI160\000"
 22720      54595045 
 22720      5F455854 
 22720      45524E41 
 22720      4C5F424D 
 22721              	.LASF24:
 22722 28fa 74737461 		.ascii	"tstate_t\000"
 22722      74655F74 
 22722      00
 22723              	.LASF426:
 22724 2903 50504D5F 		.ascii	"PPM_CTRL_TYPE_DUTY\000"
 22724      4354524C 
 22724      5F545950 
 22724      455F4455 
 22724      545900
 22725              	.LASF385:
 22726 2916 6D5F6463 		.ascii	"m_dc_f_sw\000"
 22726      5F665F73 
 22726      7700
 22727              	.LASF326:
 22728 2920 666F635F 		.ascii	"foc_sample_high_current\000"
 22728      73616D70 
 22728      6C655F68 
 22728      6967685F 
 22728      63757272 
 22729              	.LASF138:
 22730 2938 6D635F63 		.ascii	"mc_comm_mode\000"
 22730      6F6D6D5F 
 22730      6D6F6465 
 22730      00
 22731              	.LASF39:
 22732 2945 705F6E61 		.ascii	"p_name\000"
 22732      6D6500
 22733              	.LASF523:
 22734 294c 4E52465F 		.ascii	"NRF_RETR_DELAY_2000US\000"
 22734      52455452 
 22734      5F44454C 
 22734      41595F32 
 22734      30303055 
 22735              	.LASF657:
 22736 2962 4B494C4C 		.ascii	"KILL_SW_MODE_ADC2_HIGH\000"
 22736      5F53575F 
 22736      4D4F4445 
 22736      5F414443 
 22736      325F4849 
 22737              	.LASF465:
 22738 2979 4144435F 		.ascii	"ADC_CTRL_TYPE_PID_REV_CENTER\000"
 22738      4354524C 
 22738      5F545950 
 22738      455F5049 
 22738      445F5245 
 22739              	.LASF416:
 22740 2996 5448525F 		.ascii	"THR_EXP_POLY\000"
 22740      4558505F 
 22740      504F4C59 
 22740      00
 22741              	.LASF472:
ARM GAS  /tmp/cc4M9ACW.s 			page 434


 22742 29a3 7061735F 		.ascii	"pas_control_type\000"
 22742      636F6E74 
 22742      726F6C5F 
 22742      74797065 
 22742      00
 22743              	.LASF76:
 22744 29b4 76697274 		.ascii	"virtual_timers_list_t\000"
 22744      75616C5F 
 22744      74696D65 
 22744      72735F6C 
 22744      6973745F 
 22745              	.LASF132:
 22746 29ca 50574D5F 		.ascii	"PWM_MODE_NONSYNCHRONOUS_HISW\000"
 22746      4D4F4445 
 22746      5F4E4F4E 
 22746      53594E43 
 22746      48524F4E 
 22747              	.LASF195:
 22748 29e7 44525638 		.ascii	"DRV8301_OC_DISABLED\000"
 22748      3330315F 
 22748      4F435F44 
 22748      49534142 
 22748      4C454400 
 22749              	.LASF519:
 22750 29fb 4E52465F 		.ascii	"NRF_RETR_DELAY_1000US\000"
 22750      52455452 
 22750      5F44454C 
 22750      41595F31 
 22750      30303055 
 22751              	.LASF150:
 22752 2a11 4F55545F 		.ascii	"OUT_AUX_MODE_ON_AFTER_2S\000"
 22752      4155585F 
 22752      4D4F4445 
 22752      5F4F4E5F 
 22752      41465445 
 22753              	.LASF104:
 22754 2a2a 735F7175 		.ascii	"s_queue\000"
 22754      65756500 
 22755              	.LASF650:
 22756 2a32 55415643 		.ascii	"UAVCAN_RAW_MODE_DUTY\000"
 22756      414E5F52 
 22756      41575F4D 
 22756      4F44455F 
 22756      44555459 
 22757              	.LASF430:
 22758 2a47 50504D5F 		.ascii	"PPM_CTRL_TYPE_CURRENT_BRAKE_REV_HYST\000"
 22758      4354524C 
 22758      5F545950 
 22758      455F4355 
 22758      5252454E 
 22759              	.LASF480:
 22760 2a6c 7573655F 		.ascii	"use_filter\000"
 22760      66696C74 
 22760      657200
 22761              	.LASF376:
 22762 2a77 6D5F6475 		.ascii	"m_duty_ramp_step\000"
 22762      74795F72 
ARM GAS  /tmp/cc4M9ACW.s 			page 435


 22762      616D705F 
 22762      73746570 
 22762      00
 22763              	.LASF400:
 22764 2a88 6D635F63 		.ascii	"mc_configuration\000"
 22764      6F6E6669 
 22764      67757261 
 22764      74696F6E 
 22764      00
 22765              	.LASF111:
 22766 2a99 63685F69 		.ascii	"ch_identifier\000"
 22766      64656E74 
 22766      69666965 
 22766      7200
 22767              	.LASF528:
 22768 2aa7 4E52465F 		.ascii	"NRF_RETR_DELAY_3250US\000"
 22768      52455452 
 22768      5F44454C 
 22768      41595F33 
 22768      32353055 
 22769              	.LASF180:
 22770 2abd 6D635F66 		.ascii	"mc_foc_cc_decoupling_mode\000"
 22770      6F635F63 
 22770      635F6465 
 22770      636F7570 
 22770      6C696E67 
 22771              	.LASF12:
 22772 2ad7 6C6F6E67 		.ascii	"long long int\000"
 22772      206C6F6E 
 22772      6720696E 
 22772      7400
 22773              	.LASF671:
 22774 2ae5 75617663 		.ascii	"uavcan_esc_index\000"
 22774      616E5F65 
 22774      73635F69 
 22774      6E646578 
 22774      00
 22775              	.LASF118:
 22776 2af6 63665F6F 		.ascii	"cf_off_prio\000"
 22776      66665F70 
 22776      72696F00 
 22777              	.LASF549:
 22778 2b02 6661756C 		.ascii	"fault_delay_pitch\000"
 22778      745F6465 
 22778      6C61795F 
 22778      70697463 
 22778      6800
 22779              	.LASF573:
 22780 2b14 64656164 		.ascii	"deadzone\000"
 22780      7A6F6E65 
 22780      00
 22781              	.LASF453:
 22782 2b1d 4144435F 		.ascii	"ADC_CTRL_TYPE_CURRENT\000"
 22782      4354524C 
 22782      5F545950 
 22782      455F4355 
 22782      5252454E 
ARM GAS  /tmp/cc4M9ACW.s 			page 436


 22783              	.LASF267:
 22784 2b33 6C5F7761 		.ascii	"l_watt_min\000"
 22784      74745F6D 
 22784      696E00
 22785              	.LASF513:
 22786 2b3e 4E52465F 		.ascii	"NRF_CRC_1B\000"
 22786      4352435F 
 22786      314200
 22787              	.LASF253:
 22788 2b49 6C5F6D61 		.ascii	"l_max_erpm_fbrake_cc\000"
 22788      785F6572 
 22788      706D5F66 
 22788      6272616B 
 22788      655F6363 
 22789              	.LASF524:
 22790 2b5e 4E52465F 		.ascii	"NRF_RETR_DELAY_2250US\000"
 22790      52455452 
 22790      5F44454C 
 22790      41595F32 
 22790      32353055 
 22791              	.LASF434:
 22792 2b74 7069645F 		.ascii	"pid_max_erpm\000"
 22792      6D61785F 
 22792      6572706D 
 22792      00
 22793              	.LASF699:
 22794 2b81 636F6E66 		.ascii	"confgenerator_serialize_appconf\000"
 22794      67656E65 
 22794      7261746F 
 22794      725F7365 
 22794      7269616C 
 22795              	.LASF464:
 22796 2ba1 4144435F 		.ascii	"ADC_CTRL_TYPE_PID\000"
 22796      4354524C 
 22796      5F545950 
 22796      455F5049 
 22796      4400
 22797              	.LASF536:
 22798 2bb3 72657472 		.ascii	"retry_delay\000"
 22798      795F6465 
 22798      6C617900 
 22799              	.LASF546:
 22800 2bbf 6661756C 		.ascii	"fault_duty\000"
 22800      745F6475 
 22800      747900
 22801              	.LASF664:
 22802 2bca 63616E5F 		.ascii	"can_baud_rate\000"
 22802      62617564 
 22802      5F726174 
 22802      6500
 22803              	.LASF446:
 22804 2bd8 6D756C74 		.ascii	"multi_esc\000"
 22804      695F6573 
 22804      6300
 22805              	.LASF514:
 22806 2be2 4E52465F 		.ascii	"NRF_CRC_2B\000"
 22806      4352435F 
ARM GAS  /tmp/cc4M9ACW.s 			page 437


 22806      324200
 22807              	.LASF520:
 22808 2bed 4E52465F 		.ascii	"NRF_RETR_DELAY_1250US\000"
 22808      52455452 
 22808      5F44454C 
 22808      41595F31 
 22808      32353055 
 22809              	.LASF246:
 22810 2c03 6C5F696E 		.ascii	"l_in_current_max\000"
 22810      5F637572 
 22810      72656E74 
 22810      5F6D6178 
 22810      00
 22811              	.LASF38:
 22812 2c14 705F6F6C 		.ascii	"p_older\000"
 22812      64657200 
 22813              	.LASF561:
 22814 2c1c 74696C74 		.ascii	"tiltback_lv_angle\000"
 22814      6261636B 
 22814      5F6C765F 
 22814      616E676C 
 22814      6500
 22815              	.LASF663:
 22816 2c2e 73656E64 		.ascii	"send_can_status_rate_hz\000"
 22816      5F63616E 
 22816      5F737461 
 22816      7475735F 
 22816      72617465 
 22817              	.LASF330:
 22818 2c46 666F635F 		.ascii	"foc_current_filter_const\000"
 22818      63757272 
 22818      656E745F 
 22818      66696C74 
 22818      65725F63 
 22819              	.LASF648:
 22820 2c5f 55415643 		.ascii	"UAVCAN_RAW_MODE_CURRENT\000"
 22820      414E5F52 
 22820      41575F4D 
 22820      4F44455F 
 22820      43555252 
 22821              	.LASF54:
 22822 2c77 74687265 		.ascii	"thread_reference_t\000"
 22822      61645F72 
 22822      65666572 
 22822      656E6365 
 22822      5F7400
 22823              	.LASF368:
 22824 2c8a 705F7069 		.ascii	"p_pid_ang_div\000"
 22824      645F616E 
 22824      675F6469 
 22824      7600
 22825              	.LASF151:
 22826 2c98 4F55545F 		.ascii	"OUT_AUX_MODE_ON_AFTER_5S\000"
 22826      4155585F 
 22826      4D4F4445 
 22826      5F4F4E5F 
 22826      41465445 
ARM GAS  /tmp/cc4M9ACW.s 			page 438


 22827              	.LASF322:
 22828 2cb1 666F635F 		.ascii	"foc_hall_table\000"
 22828      68616C6C 
 22828      5F746162 
 22828      6C6500
 22829              	.LASF174:
 22830 2cc0 4D4F544F 		.ascii	"MOTOR_TYPE_GPD\000"
 22830      525F5459 
 22830      50455F47 
 22830      504400
 22831              	.LASF177:
 22832 2ccf 464F435F 		.ascii	"FOC_CC_DECOUPLING_CROSS\000"
 22832      43435F44 
 22832      45434F55 
 22832      504C494E 
 22832      475F4352 
 22833              	.LASF659:
 22834 2ce7 636F6E74 		.ascii	"controller_id\000"
 22834      726F6C6C 
 22834      65725F69 
 22834      6400
 22835              	.LASF318:
 22836 2cf5 666F635F 		.ascii	"foc_sl_openloop_time\000"
 22836      736C5F6F 
 22836      70656E6C 
 22836      6F6F705F 
 22836      74696D65 
 22837              	.LASF95:
 22838 2d0a 746D5F63 		.ascii	"tm_calibration_t\000"
 22838      616C6962 
 22838      72617469 
 22838      6F6E5F74 
 22838      00
 22839              	.LASF2:
 22840 2d1b 5F5F696E 		.ascii	"__int8_t\000"
 22840      74385F74 
 22840      00
 22841              	.LASF274:
 22842 2d24 6C6F5F69 		.ascii	"lo_in_current_min\000"
 22842      6E5F6375 
 22842      7272656E 
 22842      745F6D69 
 22842      6E00
 22843              	.LASF436:
 22844 2d36 70756C73 		.ascii	"pulse_start\000"
 22844      655F7374 
 22844      61727400 
 22845              	.LASF242:
 22846 2d42 4D545041 		.ascii	"MTPA_MODE_IQ_MEASURED\000"
 22846      5F4D4F44 
 22846      455F4951 
 22846      5F4D4541 
 22846      53555245 
 22847              	.LASF716:
 22848 2d58 2F626C64 		.ascii	"/bldc\000"
 22848      6300
 22849              	.LASF264:
ARM GAS  /tmp/cc4M9ACW.s 			page 439


 22850 2d5e 6C5F6D69 		.ascii	"l_min_duty\000"
 22850      6E5F6475 
 22850      747900
 22851              	.LASF424:
 22852 2d69 50504D5F 		.ascii	"PPM_CTRL_TYPE_CURRENT_NOREV\000"
 22852      4354524C 
 22852      5F545950 
 22852      455F4355 
 22852      5252454E 
 22853              	.LASF665:
 22854 2d85 70616972 		.ascii	"pairing_done\000"
 22854      696E675F 
 22854      646F6E65 
 22854      00
 22855              	.LASF693:
 22856 2d92 636F6E66 		.ascii	"confgenerator_set_defaults_mcconf\000"
 22856      67656E65 
 22856      7261746F 
 22856      725F7365 
 22856      745F6465 
 22857              	.LASF634:
 22858 2db4 61636365 		.ascii	"accel_confidence_decay\000"
 22858      6C5F636F 
 22858      6E666964 
 22858      656E6365 
 22858      5F646563 
 22859              	.LASF117:
 22860 2dcb 63685F74 		.ascii	"ch_threadsize\000"
 22860      68726561 
 22860      6473697A 
 22860      6500
 22861              	.LASF186:
 22862 2dd9 53454E53 		.ascii	"SENSOR_PORT_MODE_AD2S1205\000"
 22862      4F525F50 
 22862      4F52545F 
 22862      4D4F4445 
 22862      5F414432 
 22863              	.LASF545:
 22864 2df3 6661756C 		.ascii	"fault_roll\000"
 22864      745F726F 
 22864      6C6C00
 22865              	.LASF191:
 22866 2dfe 73656E73 		.ascii	"sensor_port_mode\000"
 22866      6F725F70 
 22866      6F72745F 
 22866      6D6F6465 
 22866      00
 22867              	.LASF148:
 22868 2e0f 6D635F66 		.ascii	"mc_foc_sensor_mode\000"
 22868      6F635F73 
 22868      656E736F 
 22868      725F6D6F 
 22868      646500
 22869              	.LASF15:
 22870 2e22 756E7369 		.ascii	"unsigned int\000"
 22870      676E6564 
 22870      20696E74 
ARM GAS  /tmp/cc4M9ACW.s 			page 440


 22870      00
 22871              	.LASF655:
 22872 2e2f 4B494C4C 		.ascii	"KILL_SW_MODE_PPM_HIGH\000"
 22872      5F53575F 
 22872      4D4F4445 
 22872      5F50504D 
 22872      5F484947 
 22873              	.LASF460:
 22874 2e45 4144435F 		.ascii	"ADC_CTRL_TYPE_CURRENT_NOREV_BRAKE_ADC\000"
 22874      4354524C 
 22874      5F545950 
 22874      455F4355 
 22874      5252454E 
 22875              	.LASF570:
 22876 2e6b 73746172 		.ascii	"startup_pitch_tolerance\000"
 22876      7475705F 
 22876      70697463 
 22876      685F746F 
 22876      6C657261 
 22877              	.LASF112:
 22878 2e83 63685F7A 		.ascii	"ch_zero\000"
 22878      65726F00 
 22879              	.LASF5:
 22880 2e8b 73686F72 		.ascii	"short int\000"
 22880      7420696E 
 22880      7400
 22881              	.LASF325:
 22882 2e95 666F635F 		.ascii	"foc_sample_v0_v7\000"
 22882      73616D70 
 22882      6C655F76 
 22882      305F7637 
 22882      00
 22883              	.LASF332:
 22884 2ea6 666F635F 		.ascii	"foc_observer_type\000"
 22884      6F627365 
 22884      72766572 
 22884      5F747970 
 22884      6500
 22885              	.LASF557:
 22886 2eb8 74696C74 		.ascii	"tiltback_duty\000"
 22886      6261636B 
 22886      5F647574 
 22886      7900
 22887              	.LASF601:
 22888 2ec6 7475726E 		.ascii	"turntilt_erpm_boost_end\000"
 22888      74696C74 
 22888      5F657270 
 22888      6D5F626F 
 22888      6F73745F 
 22889              	.LASF171:
 22890 2ede 4D4F544F 		.ascii	"MOTOR_TYPE_BLDC\000"
 22890      525F5459 
 22890      50455F42 
 22890      4C444300 
 22891              	.LASF331:
 22892 2eee 666F635F 		.ascii	"foc_cc_decoupling\000"
 22892      63635F64 
ARM GAS  /tmp/cc4M9ACW.s 			page 441


 22892      65636F75 
 22892      706C696E 
 22892      6700
 22893              	.LASF316:
 22894 2f00 666F635F 		.ascii	"foc_d_gain_scale_max_mod\000"
 22894      645F6761 
 22894      696E5F73 
 22894      63616C65 
 22894      5F6D6178 
 22895              	.LASF669:
 22896 2f19 6B696C6C 		.ascii	"kill_sw_mode\000"
 22896      5F73775F 
 22896      6D6F6465 
 22896      00
 22897              	.LASF594:
 22898 2f26 746F7271 		.ascii	"torquetilt_filter\000"
 22898      75657469 
 22898      6C745F66 
 22898      696C7465 
 22898      7200
 22899              	.LASF41:
 22900 2f38 705F7374 		.ascii	"p_state\000"
 22900      61746500 
 22901              	.LASF468:
 22902 2f40 5041535F 		.ascii	"PAS_CTRL_TYPE_NONE\000"
 22902      4354524C 
 22902      5F545950 
 22902      455F4E4F 
 22902      4E4500
 22903              	.LASF57:
 22904 2f53 63685F74 		.ascii	"ch_threads_list\000"
 22904      68726561 
 22904      64735F6C 
 22904      69737400 
 22905              	.LASF137:
 22906 2f63 434F4D4D 		.ascii	"COMM_MODE_DELAY\000"
 22906      5F4D4F44 
 22906      455F4445 
 22906      4C415900 
 22907              	.LASF698:
 22908 2f73 636F6E66 		.ascii	"confgenerator_deserialize_mcconf\000"
 22908      67656E65 
 22908      7261746F 
 22908      725F6465 
 22908      73657269 
 22909              	.LASF178:
 22910 2f94 464F435F 		.ascii	"FOC_CC_DECOUPLING_BEMF\000"
 22910      43435F44 
 22910      45434F55 
 22910      504C494E 
 22910      475F4245 
 22911              	.LASF387:
 22912 2fab 6D5F6F75 		.ascii	"m_out_aux_mode\000"
 22912      745F6175 
 22912      785F6D6F 
 22912      646500
 22913              	.LASF221:
ARM GAS  /tmp/cc4M9ACW.s 			page 442


 22914 2fba 424D535F 		.ascii	"BMS_FWD_CAN_MODE\000"
 22914      4657445F 
 22914      43414E5F 
 22914      4D4F4445 
 22914      00
 22915              	.LASF378:
 22916 2fcb 6D5F656E 		.ascii	"m_encoder_counts\000"
 22916      636F6465 
 22916      725F636F 
 22916      756E7473 
 22916      00
 22917              		.ident	"GCC: (GNU Tools for Arm Embedded Processors 7-2018-q3-update) 7.3.1 20180622 (release) [AR
ARM GAS  /tmp/cc4M9ACW.s 			page 443


DEFINED SYMBOLS
                            *ABS*:0000000000000000 confgenerator.c
     /tmp/cc4M9ACW.s:18     .text.confgenerator_serialize_mcconf:0000000000000000 $t
     /tmp/cc4M9ACW.s:26     .text.confgenerator_serialize_mcconf:0000000000000000 confgenerator_serialize_mcconf
     /tmp/cc4M9ACW.s:556    .text.confgenerator_serialize_mcconf:00000000000003f4 $d
     /tmp/cc4M9ACW.s:561    .text.confgenerator_serialize_mcconf:0000000000000404 $t
     /tmp/cc4M9ACW.s:1182   .text.confgenerator_serialize_mcconf:00000000000008a4 $d
     /tmp/cc4M9ACW.s:1187   .text.confgenerator_serialize_appconf:0000000000000000 $t
     /tmp/cc4M9ACW.s:1195   .text.confgenerator_serialize_appconf:0000000000000000 confgenerator_serialize_appconf
     /tmp/cc4M9ACW.s:1749   .text.confgenerator_serialize_appconf:00000000000003b8 $d
     /tmp/cc4M9ACW.s:1753   .text.confgenerator_serialize_appconf:00000000000003c4 $t
     /tmp/cc4M9ACW.s:2288   .text.confgenerator_deserialize_mcconf:0000000000000000 $t
     /tmp/cc4M9ACW.s:2296   .text.confgenerator_deserialize_mcconf:0000000000000000 confgenerator_deserialize_mcconf
     /tmp/cc4M9ACW.s:2343   .text.confgenerator_deserialize_mcconf:0000000000000024 $d
     /tmp/cc4M9ACW.s:2351   .text.confgenerator_deserialize_mcconf:0000000000000034 $t
     /tmp/cc4M9ACW.s:3526   .text.confgenerator_deserialize_mcconf:0000000000000784 $d
     /tmp/cc4M9ACW.s:3532   .text.confgenerator_deserialize_mcconf:0000000000000798 $t
     /tmp/cc4M9ACW.s:3751   .text.confgenerator_deserialize_appconf:0000000000000000 $t
     /tmp/cc4M9ACW.s:3759   .text.confgenerator_deserialize_appconf:0000000000000000 confgenerator_deserialize_appconf
     /tmp/cc4M9ACW.s:3806   .text.confgenerator_deserialize_appconf:0000000000000024 $d
     /tmp/cc4M9ACW.s:3811   .text.confgenerator_deserialize_appconf:0000000000000028 $t
     /tmp/cc4M9ACW.s:5161   .text.confgenerator_deserialize_appconf:000000000000084c $d
     /tmp/cc4M9ACW.s:5164   .text.confgenerator_deserialize_appconf:0000000000000854 $t
     /tmp/cc4M9ACW.s:5169   .text.confgenerator_set_defaults_mcconf:0000000000000000 $t
     /tmp/cc4M9ACW.s:5177   .text.confgenerator_set_defaults_mcconf:0000000000000000 confgenerator_set_defaults_mcconf
     /tmp/cc4M9ACW.s:5696   .text.confgenerator_set_defaults_mcconf:000000000000038c $d
     /tmp/cc4M9ACW.s:5768   .text.confgenerator_set_defaults_mcconf:00000000000004a4 $t
     /tmp/cc4M9ACW.s:5789   .text.confgenerator_set_defaults_appconf:0000000000000000 $t
     /tmp/cc4M9ACW.s:5797   .text.confgenerator_set_defaults_appconf:0000000000000000 confgenerator_set_defaults_appconf
     /tmp/cc4M9ACW.s:6250   .text.confgenerator_set_defaults_appconf:0000000000000318 $d

UNDEFINED SYMBOLS
buffer_append_uint32
buffer_append_float32_auto
buffer_append_float16
buffer_append_uint16
buffer_append_int16
buffer_append_int32
buffer_get_uint32
buffer_get_float32_auto
buffer_get_float16
buffer_get_uint16
buffer_get_int16
buffer_get_int32
hw_id_from_uuid
