ARM GAS  /tmp/cccFXynL.s 			page 1


   1              		.cpu cortex-m4
   2              		.eabi_attribute 27, 1
   3              		.eabi_attribute 28, 1
   4              		.eabi_attribute 20, 1
   5              		.eabi_attribute 21, 1
   6              		.eabi_attribute 23, 3
   7              		.eabi_attribute 24, 1
   8              		.eabi_attribute 25, 1
   9              		.eabi_attribute 26, 1
  10              		.eabi_attribute 30, 2
  11              		.eabi_attribute 34, 1
  12              		.eabi_attribute 18, 4
  13              		.file	"cortexm.c"
  14              		.text
  15              	.Ltext0:
  16              		.cfi_sections	.debug_frame
  17              		.section	.text.cortexm_check_error,"ax",%progbits
  18              		.align	1
  19              		.p2align 4,,15
  20              		.syntax unified
  21              		.thumb
  22              		.thumb_func
  23              		.fpu fpv4-sp-d16
  24              		.type	cortexm_check_error, %function
  25              	cortexm_check_error:
  26              	.LFB267:
  27              		.file 1 "blackmagic/target/cortexm.c"
  28              		.loc 1 232 0
  29              		.cfi_startproc
  30              		@ args = 0, pretend = 0, frame = 0
  31              		@ frame_needed = 0, uses_anonymous_args = 0
  32              	.LVL0:
  33 0000 08B5     		push	{r3, lr}
  34              		.cfi_def_cfa_offset 8
  35              		.cfi_offset 3, -8
  36              		.cfi_offset 14, -4
  37              	.LBB52:
  38              	.LBB53:
  39              		.loc 1 191 0
  40 0002 C36E     		ldr	r3, [r0, #108]
  41              	.LBE53:
  42              	.LBE52:
  43              		.loc 1 234 0
  44 0004 1B68     		ldr	r3, [r3]
  45 0006 5868     		ldr	r0, [r3, #4]
  46              	.LVL1:
  47              	.LBB54:
  48              	.LBB55:
  49              		.file 2 "blackmagic/target/adiv5.h"
  50              		.loc 2 147 0
  51 0008 4369     		ldr	r3, [r0, #20]
  52 000a 9847     		blx	r3
  53              	.LVL2:
  54              	.LBE55:
  55              	.LBE54:
  56              		.loc 1 235 0
  57 000c 0030     		adds	r0, r0, #0
ARM GAS  /tmp/cccFXynL.s 			page 2


  58 000e 18BF     		it	ne
  59 0010 0120     		movne	r0, #1
  60 0012 08BD     		pop	{r3, pc}
  61              		.cfi_endproc
  62              	.LFE267:
  63              		.size	cortexm_check_error, .-cortexm_check_error
  64              		.section	.text.cortexm_vector_catch,"ax",%progbits
  65              		.align	1
  66              		.p2align 4,,15
  67              		.syntax unified
  68              		.thumb
  69              		.thumb_func
  70              		.fpu fpv4-sp-d16
  71              		.type	cortexm_vector_catch, %function
  72              	cortexm_vector_catch:
  73              	.LFB289:
  74              		.loc 1 860 0
  75              		.cfi_startproc
  76              		@ args = 0, pretend = 0, frame = 56
  77              		@ frame_needed = 0, uses_anonymous_args = 0
  78              	.LVL3:
  79 0000 2DE9F04F 		push	{r4, r5, r6, r7, r8, r9, r10, fp, lr}
  80              		.cfi_def_cfa_offset 36
  81              		.cfi_offset 4, -36
  82              		.cfi_offset 5, -32
  83              		.cfi_offset 6, -28
  84              		.cfi_offset 7, -24
  85              		.cfi_offset 8, -20
  86              		.cfi_offset 9, -16
  87              		.cfi_offset 10, -12
  88              		.cfi_offset 11, -8
  89              		.cfi_offset 14, -4
  90              		.loc 1 862 0
  91 0004 324E     		ldr	r6, .L29
  92              		.loc 1 860 0
  93 0006 8046     		mov	r8, r0
  94 0008 8A46     		mov	r10, r1
  95 000a 1546     		mov	r5, r2
  96              		.loc 1 862 0
  97 000c 0FCE     		ldmia	r6!, {r0, r1, r2, r3}
  98              	.LVL4:
  99              		.loc 1 860 0
 100 000e 8FB0     		sub	sp, sp, #60
 101              		.cfi_def_cfa_offset 96
 102              		.loc 1 862 0
 103 0010 03AC     		add	r4, sp, #12
 104 0012 0FC4     		stmia	r4!, {r0, r1, r2, r3}
 105 0014 0FCE     		ldmia	r6!, {r0, r1, r2, r3}
 106 0016 0FC4     		stmia	r4!, {r0, r1, r2, r3}
 107 0018 96E80700 		ldm	r6, {r0, r1, r2}
 108              		.loc 1 866 0
 109 001c BAF1020F 		cmp	r10, #2
 110              		.loc 1 861 0
 111 0020 D8F86C70 		ldr	r7, [r8, #108]
 112              	.LVL5:
 113              		.loc 1 862 0
 114 0024 84E80700 		stm	r4, {r0, r1, r2}
ARM GAS  /tmp/cccFXynL.s 			page 3


 115              		.loc 1 866 0
 116 0028 05DD     		ble	.L5
 117              		.loc 1 866 0 is_stmt 0 discriminator 1
 118 002a 6B68     		ldr	r3, [r5, #4]
 119 002c 1B78     		ldrb	r3, [r3]	@ zero_extendqisi2
 120 002e 0193     		str	r3, [sp, #4]
 121 0030 643B     		subs	r3, r3, #100
 122 0032 012B     		cmp	r3, #1
 123 0034 27D9     		bls	.L27
 124              	.L5:
 125              		.loc 1 867 0 is_stmt 1
 126 0036 2749     		ldr	r1, .L29+4
 127 0038 4046     		mov	r0, r8
 128 003a FFF7FEFF 		bl	tc_printf
 129              	.LVL6:
 130              	.L7:
 131              		.loc 1 886 0
 132 003e 2649     		ldr	r1, .L29+8
 133              		.loc 1 891 0
 134 0040 264E     		ldr	r6, .L29+12
 135              		.loc 1 886 0
 136 0042 4046     		mov	r0, r8
 137 0044 FFF7FEFF 		bl	tc_printf
 138              	.LVL7:
 139 0048 03AD     		add	r5, sp, #12
 140              		.loc 1 887 0
 141 004a 0024     		movs	r4, #0
 142              		.loc 1 890 0
 143 004c 4FF00109 		mov	r9, #1
 144 0050 01E0     		b	.L14
 145              	.LVL8:
 146              	.L13:
 147              		.loc 1 887 0 discriminator 2
 148 0052 0B2C     		cmp	r4, #11
 149 0054 0FD0     		beq	.L28
 150              	.LVL9:
 151              	.L14:
 152              		.loc 1 888 0
 153 0056 55F8042B 		ldr	r2, [r5], #4
 154              		.loc 1 890 0
 155 005a 09FA04F3 		lsl	r3, r9, r4
 156              		.loc 1 887 0
 157 005e 0134     		adds	r4, r4, #1
 158              	.LVL10:
 159              		.loc 1 888 0
 160 0060 002A     		cmp	r2, #0
 161 0062 F6D0     		beq	.L13
 162              		.loc 1 890 0
 163 0064 396A     		ldr	r1, [r7, #32]
 164 0066 0B42     		tst	r3, r1
 165 0068 F3D0     		beq	.L13
 166              		.loc 1 891 0
 167 006a 3146     		mov	r1, r6
 168 006c 4046     		mov	r0, r8
 169 006e FFF7FEFF 		bl	tc_printf
 170              	.LVL11:
 171              		.loc 1 887 0
ARM GAS  /tmp/cccFXynL.s 			page 4


 172 0072 0B2C     		cmp	r4, #11
 173 0074 EFD1     		bne	.L14
 174              	.L28:
 175              		.loc 1 893 0
 176 0076 4046     		mov	r0, r8
 177 0078 1949     		ldr	r1, .L29+16
 178 007a FFF7FEFF 		bl	tc_printf
 179              	.LVL12:
 180              		.loc 1 895 0
 181 007e 0120     		movs	r0, #1
 182 0080 0FB0     		add	sp, sp, #60
 183              		.cfi_remember_state
 184              		.cfi_def_cfa_offset 36
 185              		@ sp needed
 186 0082 BDE8F08F 		pop	{r4, r5, r6, r7, r8, r9, r10, fp, pc}
 187              	.LVL13:
 188              	.L27:
 189              		.cfi_restore_state
 190 0086 05EB8A0A 		add	r10, r5, r10, lsl #2
 191              	.LVL14:
 192              	.LBB56:
 193              		.loc 1 870 0
 194 008a 0026     		movs	r6, #0
 195              	.LBB57:
 196              		.loc 1 875 0
 197 008c 4FF00109 		mov	r9, #1
 198              	.LVL15:
 199              	.L6:
 200 0090 0DF10C0B 		add	fp, sp, #12
 201              		.loc 1 873 0
 202 0094 0024     		movs	r4, #0
 203              	.LVL16:
 204              	.L9:
 205              		.loc 1 874 0
 206 0096 5BF8043B 		ldr	r3, [fp], #4
 207 009a 1846     		mov	r0, r3
 208 009c 33B1     		cbz	r3, .L8
 209              		.loc 1 874 0 is_stmt 0 discriminator 1
 210 009e 2968     		ldr	r1, [r5]
 211 00a0 FFF7FEFF 		bl	strcmp
 212              	.LVL17:
 213 00a4 10B9     		cbnz	r0, .L8
 214              		.loc 1 875 0 is_stmt 1
 215 00a6 09FA04F3 		lsl	r3, r9, r4
 216 00aa 1E43     		orrs	r6, r6, r3
 217              	.LVL18:
 218              	.L8:
 219              		.loc 1 873 0 discriminator 2
 220 00ac 0134     		adds	r4, r4, #1
 221              	.LVL19:
 222 00ae 0B2C     		cmp	r4, #11
 223 00b0 F1D1     		bne	.L9
 224              	.LVL20:
 225 00b2 0435     		adds	r5, r5, #4
 226              		.loc 1 872 0 discriminator 2
 227 00b4 5545     		cmp	r5, r10
 228 00b6 EBD1     		bne	.L6
ARM GAS  /tmp/cccFXynL.s 			page 5


 229              	.LBE57:
 230              		.loc 1 878 0
 231 00b8 019B     		ldr	r3, [sp, #4]
 232 00ba 3A6A     		ldr	r2, [r7, #32]
 233              		.loc 1 883 0
 234 00bc 0949     		ldr	r1, .L29+20
 235              		.loc 1 878 0
 236 00be 652B     		cmp	r3, #101
 237              		.loc 1 879 0
 238 00c0 0CBF     		ite	eq
 239 00c2 3243     		orreq	r2, r2, r6
 240              		.loc 1 881 0
 241 00c4 B243     		bicne	r2, r2, r6
 242 00c6 3A62     		str	r2, [r7, #32]
 243              		.loc 1 883 0
 244 00c8 4046     		mov	r0, r8
 245 00ca FFF7FEFF 		bl	target_mem_write32
 246              	.LVL21:
 247 00ce B6E7     		b	.L7
 248              	.L30:
 249              		.align	2
 250              	.L29:
 251 00d0 00000000 		.word	.LANCHOR0
 252 00d4 00000000 		.word	.LC11
 253 00d8 54000000 		.word	.LC12
 254 00dc 68000000 		.word	.LC13
 255 00e0 6C000000 		.word	.LC14
 256 00e4 FCED00E0 		.word	-536809988
 257              	.LBE56:
 258              		.cfi_endproc
 259              	.LFE289:
 260              		.size	cortexm_vector_catch, .-cortexm_vector_catch
 261              		.section	.text.cortexm_breakwatch_clear,"ax",%progbits
 262              		.align	1
 263              		.p2align 4,,15
 264              		.syntax unified
 265              		.thumb
 266              		.thumb_func
 267              		.fpu fpv4-sp-d16
 268              		.type	cortexm_breakwatch_clear, %function
 269              	cortexm_breakwatch_clear:
 270              	.LFB287:
 271              		.loc 1 822 0
 272              		.cfi_startproc
 273              		@ args = 0, pretend = 0, frame = 0
 274              		@ frame_needed = 0, uses_anonymous_args = 0
 275              	.LVL22:
 276              		.loc 1 825 0
 277 0000 0A79     		ldrb	r2, [r1, #4]	@ zero_extendqisi2
 278              		.loc 1 824 0
 279 0002 0969     		ldr	r1, [r1, #16]
 280              	.LVL23:
 281              		.loc 1 825 0
 282 0004 012A     		cmp	r2, #1
 283              		.loc 1 822 0
 284 0006 38B5     		push	{r3, r4, r5, lr}
 285              		.cfi_def_cfa_offset 16
ARM GAS  /tmp/cccFXynL.s 			page 6


 286              		.cfi_offset 3, -16
 287              		.cfi_offset 4, -12
 288              		.cfi_offset 5, -8
 289              		.cfi_offset 14, -4
 290              		.loc 1 823 0
 291 0008 C36E     		ldr	r3, [r0, #108]
 292              	.LVL24:
 293              		.loc 1 825 0
 294 000a 0FD0     		beq	.L33
 295 000c 0CD3     		bcc	.L35
 296 000e 042A     		cmp	r2, #4
 297 0010 0AD8     		bhi	.L35
 298              		.loc 1 833 0
 299 0012 0B44     		add	r3, r3, r1
 300              	.LVL25:
 301              		.loc 1 834 0
 302 0014 0C4D     		ldr	r5, .L38
 303              		.loc 1 833 0
 304 0016 0024     		movs	r4, #0
 305 0018 9C71     		strb	r4, [r3, #6]
 306              		.loc 1 834 0
 307 001a 2246     		mov	r2, r4
 308 001c 05EB0111 		add	r1, r5, r1, lsl #4
 309              	.LVL26:
 310 0020 FFF7FEFF 		bl	target_mem_write32
 311              	.LVL27:
 312              		.loc 1 835 0
 313 0024 2046     		mov	r0, r4
 314              		.loc 1 839 0
 315 0026 38BD     		pop	{r3, r4, r5, pc}
 316              	.LVL28:
 317              	.L35:
 318              		.loc 1 837 0
 319 0028 0120     		movs	r0, #1
 320              	.LVL29:
 321              		.loc 1 839 0
 322 002a 38BD     		pop	{r3, r4, r5, pc}
 323              	.LVL30:
 324              	.L33:
 325              		.loc 1 827 0
 326 002c 0B44     		add	r3, r3, r1
 327              	.LVL31:
 328              		.loc 1 828 0
 329 002e 01F16051 		add	r1, r1, #939524096
 330              	.LVL32:
 331              		.loc 1 827 0
 332 0032 0024     		movs	r4, #0
 333              		.loc 1 828 0
 334 0034 01F60201 		addw	r1, r1, #2050
 335              	.LVL33:
 336 0038 8900     		lsls	r1, r1, #2
 337              	.LVL34:
 338              		.loc 1 827 0
 339 003a 1C75     		strb	r4, [r3, #20]
 340              		.loc 1 828 0
 341 003c 2246     		mov	r2, r4
 342 003e FFF7FEFF 		bl	target_mem_write32
ARM GAS  /tmp/cccFXynL.s 			page 7


 343              	.LVL35:
 344              		.loc 1 829 0
 345 0042 2046     		mov	r0, r4
 346              		.loc 1 839 0
 347 0044 38BD     		pop	{r3, r4, r5, pc}
 348              	.L39:
 349 0046 00BF     		.align	2
 350              	.L38:
 351 0048 281000E0 		.word	-536866776
 352              		.cfi_endproc
 353              	.LFE287:
 354              		.size	cortexm_breakwatch_clear, .-cortexm_breakwatch_clear
 355              		.section	.text.cortexm_breakwatch_set,"ax",%progbits
 356              		.align	1
 357              		.p2align 4,,15
 358              		.syntax unified
 359              		.thumb
 360              		.thumb_func
 361              		.fpu fpv4-sp-d16
 362              		.type	cortexm_breakwatch_set, %function
 363              	cortexm_breakwatch_set:
 364              	.LFB286:
 365              		.loc 1 773 0
 366              		.cfi_startproc
 367              		@ args = 0, pretend = 0, frame = 0
 368              		@ frame_needed = 0, uses_anonymous_args = 0
 369              	.LVL36:
 370              		.loc 1 778 0
 371 0000 0B79     		ldrb	r3, [r1, #4]	@ zero_extendqisi2
 372              		.loc 1 776 0
 373 0002 8A68     		ldr	r2, [r1, #8]
 374              		.loc 1 778 0
 375 0004 012B     		cmp	r3, #1
 376              		.loc 1 773 0
 377 0006 2DE9F041 		push	{r4, r5, r6, r7, r8, lr}
 378              		.cfi_def_cfa_offset 24
 379              		.cfi_offset 4, -24
 380              		.cfi_offset 5, -20
 381              		.cfi_offset 6, -16
 382              		.cfi_offset 7, -12
 383              		.cfi_offset 8, -8
 384              		.cfi_offset 14, -4
 385              		.loc 1 773 0
 386 000a 0646     		mov	r6, r0
 387 000c 0D46     		mov	r5, r1
 388              		.loc 1 774 0
 389 000e C06E     		ldr	r0, [r0, #108]
 390              	.LVL37:
 391              		.loc 1 778 0
 392 0010 1CD0     		beq	.L42
 393 0012 18D3     		bcc	.L61
 394 0014 042B     		cmp	r3, #4
 395 0016 16D8     		bhi	.L61
 396              	.LVL38:
 397              		.loc 1 801 0
 398 0018 D0F810C0 		ldr	ip, [r0, #16]
 399 001c BCF1000F 		cmp	ip, #0
ARM GAS  /tmp/cccFXynL.s 			page 8


 400 0020 0DD0     		beq	.L64
 401              		.loc 1 802 0
 402 0022 8479     		ldrb	r4, [r0, #6]	@ zero_extendqisi2
 403 0024 002C     		cmp	r4, #0
 404 0026 00F08580 		beq	.L71
 405 002a C11D     		adds	r1, r0, #7
 406              	.LVL39:
 407              		.loc 1 801 0
 408 002c 0023     		movs	r3, #0
 409 002e 03E0     		b	.L52
 410              	.LVL40:
 411              	.L53:
 412              		.loc 1 802 0
 413 0030 11F8017B 		ldrb	r7, [r1], #1	@ zero_extendqisi2
 414 0034 87B3     		cbz	r7, .L72
 415 0036 2346     		mov	r3, r4
 416              	.LVL41:
 417              	.L52:
 418              		.loc 1 801 0 discriminator 2
 419 0038 5C1C     		adds	r4, r3, #1
 420              	.LVL42:
 421 003a 6445     		cmp	r4, ip
 422 003c F8D1     		bne	.L53
 423              	.LVL43:
 424              	.L64:
 425              		.loc 1 806 0
 426 003e 4FF0FF30 		mov	r0, #-1
 427              	.LVL44:
 428              		.loc 1 819 0
 429 0042 BDE8F081 		pop	{r4, r5, r6, r7, r8, pc}
 430              	.LVL45:
 431              	.L61:
 432              		.loc 1 817 0
 433 0046 0120     		movs	r0, #1
 434              	.LVL46:
 435              		.loc 1 819 0
 436 0048 BDE8F081 		pop	{r4, r5, r6, r7, r8, pc}
 437              	.LVL47:
 438              	.L42:
 439              		.loc 1 780 0
 440 004c C368     		ldr	r3, [r0, #12]
 441 004e B3B1     		cbz	r3, .L73
 442              	.L46:
 443              		.loc 1 786 0
 444 0050 D0F81CC0 		ldr	ip, [r0, #28]
 445              		.loc 1 784 0
 446 0054 42F00102 		orr	r2, r2, #1
 447              	.LVL48:
 448              		.loc 1 786 0
 449 0058 BCF1000F 		cmp	ip, #0
 450 005c EFD0     		beq	.L64
 451              		.loc 1 787 0
 452 005e 047D     		ldrb	r4, [r0, #20]	@ zero_extendqisi2
 453 0060 002C     		cmp	r4, #0
 454 0062 65D0     		beq	.L74
 455 0064 00F11501 		add	r1, r0, #21
 456              	.LVL49:
ARM GAS  /tmp/cccFXynL.s 			page 9


 457              		.loc 1 786 0
 458 0068 0023     		movs	r3, #0
 459 006a 04E0     		b	.L50
 460              	.LVL50:
 461              	.L51:
 462              		.loc 1 787 0
 463 006c 11F8017B 		ldrb	r7, [r1], #1	@ zero_extendqisi2
 464 0070 002F     		cmp	r7, #0
 465 0072 45D0     		beq	.L75
 466 0074 2346     		mov	r3, r4
 467              	.LVL51:
 468              	.L50:
 469              		.loc 1 786 0 discriminator 2
 470 0076 5C1C     		adds	r4, r3, #1
 471              	.LVL52:
 472 0078 A445     		cmp	ip, r4
 473 007a F7D1     		bne	.L51
 474 007c DFE7     		b	.L64
 475              	.LVL53:
 476              	.L73:
 477              		.loc 1 782 0
 478 007e 12F0020F 		tst	r2, #2
 479              		.loc 1 781 0
 480 0082 22F06042 		bic	r2, r2, #-536870912
 481              	.LVL54:
 482 0086 22F00302 		bic	r2, r2, #3
 483              	.LVL55:
 484              		.loc 1 782 0
 485 008a 0CBF     		ite	eq
 486 008c 4FF08043 		moveq	r3, #1073741824
 487 0090 4FF00043 		movne	r3, #-2147483648
 488 0094 1A43     		orrs	r2, r2, r3
 489              	.LVL56:
 490 0096 DBE7     		b	.L46
 491              	.LVL57:
 492              	.L72:
 493 0098 03F16063 		add	r3, r3, #234881024
 494 009c 03F20313 		addw	r3, r3, #259
 495 00a0 1901     		lsls	r1, r3, #4
 496 00a2 0F1D     		adds	r7, r1, #4
 497 00a4 01F10808 		add	r8, r1, #8
 498              	.LVL58:
 499              	.L45:
 500              		.loc 1 808 0
 501 00a8 2044     		add	r0, r0, r4
 502              	.LVL59:
 503 00aa 0123     		movs	r3, #1
 504 00ac 8371     		strb	r3, [r0, #6]
 505              		.loc 1 810 0
 506 00ae 3046     		mov	r0, r6
 507 00b0 FFF7FEFF 		bl	target_mem_write32
 508              	.LVL60:
 509 00b4 EB68     		ldr	r3, [r5, #12]
 510 00b6 013B     		subs	r3, r3, #1
 511 00b8 032B     		cmp	r3, #3
 512 00ba 1DD9     		bls	.L59
 513              		.loc 1 811 0
ARM GAS  /tmp/cccFXynL.s 			page 10


 514 00bc 4FF0FF32 		mov	r2, #-1
 515              	.L60:
 516              	.LVL61:
 517 00c0 3946     		mov	r1, r7
 518 00c2 3046     		mov	r0, r6
 519 00c4 FFF7FEFF 		bl	target_mem_write32
 520              	.LVL62:
 521              	.LBB58:
 522              	.LBB59:
 523              		.loc 1 757 0
 524 00c8 F26C     		ldr	r2, [r6, #76]
 525              	.LBE59:
 526              	.LBE58:
 527              		.loc 1 812 0
 528 00ca 2B79     		ldrb	r3, [r5, #4]	@ zero_extendqisi2
 529              	.LVL63:
 530              	.LBB62:
 531              	.LBB60:
 532              		.loc 1 755 0
 533 00cc 12F0010F 		tst	r2, #1
 534 00d0 0CBF     		ite	eq
 535 00d2 4FF40062 		moveq	r2, #2048
 536 00d6 0022     		movne	r2, #0
 537              	.LVL64:
 538              		.loc 1 760 0
 539 00d8 032B     		cmp	r3, #3
 540 00da 26D0     		beq	.L56
 541 00dc 042B     		cmp	r3, #4
 542 00de 21D0     		beq	.L57
 543 00e0 022B     		cmp	r3, #2
 544 00e2 1CD0     		beq	.L76
 545              		.loc 1 768 0
 546 00e4 4FF0FF32 		mov	r2, #-1
 547              	.LVL65:
 548              	.L55:
 549              	.LBE60:
 550              	.LBE62:
 551              		.loc 1 812 0
 552 00e8 3046     		mov	r0, r6
 553 00ea 4146     		mov	r1, r8
 554 00ec FFF7FEFF 		bl	target_mem_write32
 555              	.LVL66:
 556              		.loc 1 814 0
 557 00f0 2C61     		str	r4, [r5, #16]
 558              		.loc 1 815 0
 559 00f2 0020     		movs	r0, #0
 560              		.loc 1 819 0
 561 00f4 BDE8F081 		pop	{r4, r5, r6, r7, r8, pc}
 562              	.LVL67:
 563              	.L59:
 564 00f8 114A     		ldr	r2, .L77
 565 00fa 52F82320 		ldr	r2, [r2, r3, lsl #2]
 566 00fe DFE7     		b	.L60
 567              	.LVL68:
 568              	.L75:
 569 0100 03F16053 		add	r3, r3, #939524096
 570 0104 03F60303 		addw	r3, r3, #2051
ARM GAS  /tmp/cccFXynL.s 			page 11


 571 0108 9900     		lsls	r1, r3, #2
 572              	.LVL69:
 573              	.L49:
 574              		.loc 1 793 0
 575 010a 0319     		adds	r3, r0, r4
 576 010c 0127     		movs	r7, #1
 577              		.loc 1 794 0
 578 010e 3046     		mov	r0, r6
 579              	.LVL70:
 580              		.loc 1 793 0
 581 0110 1F75     		strb	r7, [r3, #20]
 582              		.loc 1 794 0
 583 0112 FFF7FEFF 		bl	target_mem_write32
 584              	.LVL71:
 585              		.loc 1 795 0
 586 0116 2C61     		str	r4, [r5, #16]
 587              		.loc 1 796 0
 588 0118 0020     		movs	r0, #0
 589              		.loc 1 819 0
 590 011a BDE8F081 		pop	{r4, r5, r6, r7, r8, pc}
 591              	.LVL72:
 592              	.L76:
 593              	.LBB63:
 594              	.LBB61:
 595              		.loc 1 762 0
 596 011e 42F00602 		orr	r2, r2, #6
 597              	.LVL73:
 598 0122 E1E7     		b	.L55
 599              	.LVL74:
 600              	.L57:
 601              		.loc 1 766 0
 602 0124 42F00702 		orr	r2, r2, #7
 603              	.LVL75:
 604 0128 DEE7     		b	.L55
 605              	.LVL76:
 606              	.L56:
 607              		.loc 1 764 0
 608 012a 42F00502 		orr	r2, r2, #5
 609              	.LVL77:
 610 012e DBE7     		b	.L55
 611              	.LVL78:
 612              	.L74:
 613              	.LBE61:
 614              	.LBE63:
 615              		.loc 1 787 0
 616 0130 0449     		ldr	r1, .L77+4
 617              	.LVL79:
 618 0132 EAE7     		b	.L49
 619              	.LVL80:
 620              	.L71:
 621              		.loc 1 802 0
 622 0134 DFF81880 		ldr	r8, .L77+16
 623 0138 034F     		ldr	r7, .L77+8
 624 013a 0449     		ldr	r1, .L77+12
 625              	.LVL81:
 626 013c B4E7     		b	.L45
 627              	.L78:
ARM GAS  /tmp/cccFXynL.s 			page 12


 628 013e 00BF     		.align	2
 629              	.L77:
 630 0140 00000000 		.word	.LANCHOR1
 631 0144 082000E0 		.word	-536862712
 632 0148 241000E0 		.word	-536866780
 633 014c 201000E0 		.word	-536866784
 634 0150 281000E0 		.word	-536866776
 635              		.cfi_endproc
 636              	.LFE286:
 637              		.size	cortexm_breakwatch_set, .-cortexm_breakwatch_set
 638              		.section	.text.cortexm_pc_read,"ax",%progbits
 639              		.align	1
 640              		.p2align 4,,15
 641              		.syntax unified
 642              		.thumb
 643              		.thumb_func
 644              		.fpu fpv4-sp-d16
 645              		.type	cortexm_pc_read, %function
 646              	cortexm_pc_read:
 647              	.LFB276:
 648              		.loc 1 488 0
 649              		.cfi_startproc
 650              		@ args = 0, pretend = 0, frame = 0
 651              		@ frame_needed = 0, uses_anonymous_args = 0
 652              	.LVL82:
 653 0000 10B5     		push	{r4, lr}
 654              		.cfi_def_cfa_offset 8
 655              		.cfi_offset 4, -8
 656              		.cfi_offset 14, -4
 657              		.loc 1 489 0
 658 0002 0549     		ldr	r1, .L81
 659              		.loc 1 488 0
 660 0004 0446     		mov	r4, r0
 661              		.loc 1 489 0
 662 0006 0F22     		movs	r2, #15
 663 0008 FFF7FEFF 		bl	target_mem_write32
 664              	.LVL83:
 665              		.loc 1 490 0
 666 000c 2046     		mov	r0, r4
 667 000e 0349     		ldr	r1, .L81+4
 668              		.loc 1 491 0
 669 0010 BDE81040 		pop	{r4, lr}
 670              		.cfi_restore 14
 671              		.cfi_restore 4
 672              		.cfi_def_cfa_offset 0
 673              	.LVL84:
 674              		.loc 1 490 0
 675 0014 FFF7FEBF 		b	target_mem_read32
 676              	.LVL85:
 677              	.L82:
 678              		.align	2
 679              	.L81:
 680 0018 F4ED00E0 		.word	-536809996
 681 001c F8ED00E0 		.word	-536809992
 682              		.cfi_endproc
 683              	.LFE276:
 684              		.size	cortexm_pc_read, .-cortexm_pc_read
ARM GAS  /tmp/cccFXynL.s 			page 13


 685              		.section	.text.cortexm_detach,"ax",%progbits
 686              		.align	1
 687              		.p2align 4,,15
 688              		.global	cortexm_detach
 689              		.syntax unified
 690              		.thumb
 691              		.thumb_func
 692              		.fpu fpv4-sp-d16
 693              		.type	cortexm_detach, %function
 694              	cortexm_detach:
 695              	.LFB272:
 696              		.loc 1 394 0
 697              		.cfi_startproc
 698              		@ args = 0, pretend = 0, frame = 0
 699              		@ frame_needed = 0, uses_anonymous_args = 0
 700              	.LVL86:
 701 0000 F8B5     		push	{r3, r4, r5, r6, r7, lr}
 702              		.cfi_def_cfa_offset 24
 703              		.cfi_offset 3, -24
 704              		.cfi_offset 4, -20
 705              		.cfi_offset 5, -16
 706              		.cfi_offset 6, -12
 707              		.cfi_offset 7, -8
 708              		.cfi_offset 14, -4
 709              		.loc 1 395 0
 710 0002 C76E     		ldr	r7, [r0, #108]
 711              	.LVL87:
 712              		.loc 1 399 0
 713 0004 FB69     		ldr	r3, [r7, #28]
 714              		.loc 1 394 0
 715 0006 0646     		mov	r6, r0
 716              		.loc 1 399 0
 717 0008 63B1     		cbz	r3, .L84
 718 000a 134D     		ldr	r5, .L97
 719 000c 0024     		movs	r4, #0
 720              	.LVL88:
 721              	.L85:
 722              		.loc 1 400 0 discriminator 3
 723 000e 2946     		mov	r1, r5
 724 0010 0022     		movs	r2, #0
 725 0012 3046     		mov	r0, r6
 726 0014 FFF7FEFF 		bl	target_mem_write32
 727              	.LVL89:
 728              		.loc 1 399 0 discriminator 3
 729 0018 FB69     		ldr	r3, [r7, #28]
 730 001a 0134     		adds	r4, r4, #1
 731              	.LVL90:
 732 001c A342     		cmp	r3, r4
 733 001e 05F10405 		add	r5, r5, #4
 734 0022 F4D8     		bhi	.L85
 735              	.LVL91:
 736              	.L84:
 737              		.loc 1 403 0
 738 0024 3B69     		ldr	r3, [r7, #16]
 739 0026 63B1     		cbz	r3, .L86
 740 0028 0C4D     		ldr	r5, .L97+4
 741 002a 0024     		movs	r4, #0
ARM GAS  /tmp/cccFXynL.s 			page 14


 742              	.LVL92:
 743              	.L87:
 744              		.loc 1 404 0 discriminator 3
 745 002c 2946     		mov	r1, r5
 746 002e 0022     		movs	r2, #0
 747 0030 3046     		mov	r0, r6
 748 0032 FFF7FEFF 		bl	target_mem_write32
 749              	.LVL93:
 750              		.loc 1 403 0 discriminator 3
 751 0036 3B69     		ldr	r3, [r7, #16]
 752 0038 0134     		adds	r4, r4, #1
 753              	.LVL94:
 754 003a A342     		cmp	r3, r4
 755 003c 05F11005 		add	r5, r5, #16
 756 0040 F4D8     		bhi	.L87
 757              	.LVL95:
 758              	.L86:
 759              		.loc 1 407 0
 760 0042 3046     		mov	r0, r6
 761 0044 0649     		ldr	r1, .L97+8
 762 0046 074A     		ldr	r2, .L97+12
 763 0048 FFF7FEFF 		bl	target_mem_write32
 764              	.LVL96:
 765              		.loc 1 409 0
 766 004c 3046     		mov	r0, r6
 767 004e 0021     		movs	r1, #0
 768              		.loc 1 410 0
 769 0050 BDE8F840 		pop	{r3, r4, r5, r6, r7, lr}
 770              		.cfi_restore 14
 771              		.cfi_restore 7
 772              		.cfi_restore 6
 773              		.cfi_restore 5
 774              		.cfi_restore 4
 775              		.cfi_restore 3
 776              		.cfi_def_cfa_offset 0
 777              	.LVL97:
 778              		.loc 1 409 0
 779 0054 FFF7FEBF 		b	target_mem_read32
 780              	.LVL98:
 781              	.L98:
 782              		.align	2
 783              	.L97:
 784 0058 082000E0 		.word	-536862712
 785 005c 281000E0 		.word	-536866776
 786 0060 F0ED00E0 		.word	-536810000
 787 0064 00005FA0 		.word	-1604386816
 788              		.cfi_endproc
 789              	.LFE272:
 790              		.size	cortexm_detach, .-cortexm_detach
 791              		.section	.text.cortexm_halt_request,"ax",%progbits
 792              		.align	1
 793              		.p2align 4,,15
 794              		.global	cortexm_halt_request
 795              		.syntax unified
 796              		.thumb
 797              		.thumb_func
 798              		.fpu fpv4-sp-d16
ARM GAS  /tmp/cccFXynL.s 			page 15


 799              		.type	cortexm_halt_request, %function
 800              	cortexm_halt_request:
 801              	.LFB279:
 802              		.loc 1 536 0
 803              		.cfi_startproc
 804              		@ args = 0, pretend = 0, frame = 120
 805              		@ frame_needed = 0, uses_anonymous_args = 0
 806              	.LVL99:
 807 0000 70B5     		push	{r4, r5, r6, lr}
 808              		.cfi_def_cfa_offset 16
 809              		.cfi_offset 4, -16
 810              		.cfi_offset 5, -12
 811              		.cfi_offset 6, -8
 812              		.cfi_offset 14, -4
 813              		.loc 1 538 0
 814 0002 144B     		ldr	r3, .L107
 815              		.loc 1 536 0
 816 0004 9EB0     		sub	sp, sp, #120
 817              		.cfi_def_cfa_offset 136
 818              		.loc 1 538 0
 819 0006 0021     		movs	r1, #0
 820 0008 0391     		str	r1, [sp, #12]
 821 000a 1A68     		ldr	r2, [r3]
 822              		.loc 1 536 0
 823 000c 0190     		str	r0, [sp, #4]
 824              		.loc 1 538 0
 825 000e 03AC     		add	r4, sp, #12
 826 0010 0221     		movs	r1, #2
 827 0012 06A8     		add	r0, sp, #24
 828              	.LVL100:
 829 0014 0591     		str	r1, [sp, #20]
 830 0016 1C60     		str	r4, [r3]
 831 0018 1D92     		str	r2, [sp, #116]
 832 001a FFF7FEFF 		bl	setjmp
 833              	.LVL101:
 834 001e 80B9     		cbnz	r0, .L101
 835 0020 0C4C     		ldr	r4, .L107
 836 0022 2268     		ldr	r2, [r4]
 837 0024 03AB     		add	r3, sp, #12
 838 0026 9A42     		cmp	r2, r3
 839 0028 0BD1     		bne	.L101
 840              		.loc 1 539 0
 841 002a 0B4E     		ldr	r6, .L107+4
 842 002c 0B4D     		ldr	r5, .L107+8
 843              	.L102:
 844 002e 0198     		ldr	r0, [sp, #4]
 845 0030 3246     		mov	r2, r6
 846 0032 2946     		mov	r1, r5
 847 0034 FFF7FEFF 		bl	target_mem_write32
 848              	.LVL102:
 849              		.loc 1 538 0
 850 0038 1D9B     		ldr	r3, [sp, #116]
 851 003a 2360     		str	r3, [r4]
 852 003c 03AA     		add	r2, sp, #12
 853 003e 9342     		cmp	r3, r2
 854 0040 F5D0     		beq	.L102
 855              	.L101:
ARM GAS  /tmp/cccFXynL.s 			page 16


 856              		.loc 1 543 0
 857 0042 039B     		ldr	r3, [sp, #12]
 858 0044 1BB1     		cbz	r3, .L99
 859              		.loc 1 544 0
 860 0046 0198     		ldr	r0, [sp, #4]
 861 0048 0549     		ldr	r1, .L107+12
 862 004a FFF7FEFF 		bl	tc_printf
 863              	.LVL103:
 864              	.L99:
 865              		.loc 1 546 0
 866 004e 1EB0     		add	sp, sp, #120
 867              		.cfi_def_cfa_offset 16
 868              		@ sp needed
 869 0050 70BD     		pop	{r4, r5, r6, pc}
 870              	.LVL104:
 871              	.L108:
 872 0052 00BF     		.align	2
 873              	.L107:
 874 0054 00000000 		.word	innermost_exception
 875 0058 03005FA0 		.word	-1604386813
 876 005c F0ED00E0 		.word	-536810000
 877 0060 00000000 		.word	.LC15
 878              		.cfi_endproc
 879              	.LFE279:
 880              		.size	cortexm_halt_request, .-cortexm_halt_request
 881              		.section	.text.cortexm_halt_resume,"ax",%progbits
 882              		.align	1
 883              		.p2align 4,,15
 884              		.global	cortexm_halt_resume
 885              		.syntax unified
 886              		.thumb
 887              		.thumb_func
 888              		.fpu fpv4-sp-d16
 889              		.type	cortexm_halt_resume, %function
 890              	cortexm_halt_resume:
 891              	.LFB281:
 892              		.loc 1 612 0
 893              		.cfi_startproc
 894              		@ args = 0, pretend = 0, frame = 0
 895              		@ frame_needed = 0, uses_anonymous_args = 0
 896              	.LVL105:
 897 0000 F8B5     		push	{r3, r4, r5, r6, r7, lr}
 898              		.cfi_def_cfa_offset 24
 899              		.cfi_offset 3, -24
 900              		.cfi_offset 4, -20
 901              		.cfi_offset 5, -16
 902              		.cfi_offset 6, -12
 903              		.cfi_offset 7, -8
 904              		.cfi_offset 14, -4
 905              		.loc 1 613 0
 906 0002 C66E     		ldr	r6, [r0, #108]
 907              	.LVL106:
 908              		.loc 1 617 0
 909 0004 1C4C     		ldr	r4, .L122
 910 0006 1D4A     		ldr	r2, .L122+4
 911              		.loc 1 620 0
 912 0008 3379     		ldrb	r3, [r6, #4]	@ zero_extendqisi2
ARM GAS  /tmp/cccFXynL.s 			page 17


 913              		.loc 1 617 0
 914 000a 0029     		cmp	r1, #0
 915 000c 18BF     		it	ne
 916 000e 1446     		movne	r4, r2
 917              	.LVL107:
 918              		.loc 1 620 0
 919 0010 8B42     		cmp	r3, r1
 920              		.loc 1 612 0
 921 0012 0746     		mov	r7, r0
 922              		.loc 1 620 0
 923 0014 06D0     		beq	.L111
 924 0016 0D46     		mov	r5, r1
 925              		.loc 1 621 0
 926 0018 44F00202 		orr	r2, r4, #2
 927 001c 1849     		ldr	r1, .L122+8
 928              	.LVL108:
 929 001e FFF7FEFF 		bl	target_mem_write32
 930              	.LVL109:
 931              		.loc 1 622 0
 932 0022 3571     		strb	r5, [r6, #4]
 933              	.L111:
 934              		.loc 1 625 0
 935 0024 7379     		ldrb	r3, [r6, #5]	@ zero_extendqisi2
 936 0026 73B9     		cbnz	r3, .L121
 937              	.L113:
 938              		.loc 1 631 0
 939 0028 96F82430 		ldrb	r3, [r6, #36]	@ zero_extendqisi2
 940 002c 23B1     		cbz	r3, .L115
 941              		.loc 1 632 0
 942 002e 0022     		movs	r2, #0
 943 0030 1449     		ldr	r1, .L122+12
 944 0032 3846     		mov	r0, r7
 945 0034 FFF7FEFF 		bl	target_mem_write32
 946              	.LVL110:
 947              	.L115:
 948              		.loc 1 634 0
 949 0038 2246     		mov	r2, r4
 950 003a 3846     		mov	r0, r7
 951 003c 1049     		ldr	r1, .L122+8
 952              		.loc 1 635 0
 953 003e BDE8F840 		pop	{r3, r4, r5, r6, r7, lr}
 954              		.cfi_remember_state
 955              		.cfi_restore 14
 956              		.cfi_restore 7
 957              		.cfi_restore 6
 958              		.cfi_restore 5
 959              		.cfi_restore 4
 960              		.cfi_restore 3
 961              		.cfi_def_cfa_offset 0
 962              	.LVL111:
 963              		.loc 1 634 0
 964 0042 FFF7FEBF 		b	target_mem_write32
 965              	.LVL112:
 966              	.L121:
 967              		.cfi_restore_state
 968              	.LBB67:
 969              		.loc 1 626 0
ARM GAS  /tmp/cccFXynL.s 			page 18


 970 0046 3846     		mov	r0, r7
 971 0048 FFF7FEFF 		bl	cortexm_pc_read
 972              	.LVL113:
 973              		.loc 1 627 0
 974 004c 0146     		mov	r1, r0
 975              		.loc 1 626 0
 976 004e 0546     		mov	r5, r0
 977              	.LVL114:
 978              		.loc 1 627 0
 979 0050 3846     		mov	r0, r7
 980              	.LVL115:
 981 0052 FFF7FEFF 		bl	target_mem_read16
 982              	.LVL116:
 983 0056 00F47F40 		and	r0, r0, #65280
 984 005a B0F53E4F 		cmp	r0, #48640
 985 005e E3D1     		bne	.L113
 986              	.LVL117:
 987              	.LBB68:
 988              	.LBB69:
 989              		.loc 1 495 0
 990 0060 AA1C     		adds	r2, r5, #2
 991              	.LVL118:
 992 0062 3846     		mov	r0, r7
 993 0064 0849     		ldr	r1, .L122+16
 994 0066 FFF7FEFF 		bl	target_mem_write32
 995              	.LVL119:
 996              		.loc 1 496 0
 997 006a 084A     		ldr	r2, .L122+20
 998 006c 0849     		ldr	r1, .L122+24
 999 006e 3846     		mov	r0, r7
 1000 0070 FFF7FEFF 		bl	target_mem_write32
 1001              	.LVL120:
 1002 0074 D8E7     		b	.L113
 1003              	.L123:
 1004 0076 00BF     		.align	2
 1005              	.L122:
 1006 0078 01005FA0 		.word	-1604386815
 1007 007c 0D005FA0 		.word	-1604386803
 1008 0080 F0ED00E0 		.word	-536810000
 1009 0084 50EF00E0 		.word	-536809648
 1010 0088 F8ED00E0 		.word	-536809992
 1011 008c 0F000100 		.word	65551
 1012 0090 F4ED00E0 		.word	-536809996
 1013              	.LBE69:
 1014              	.LBE68:
 1015              	.LBE67:
 1016              		.cfi_endproc
 1017              	.LFE281:
 1018              		.size	cortexm_halt_resume, .-cortexm_halt_resume
 1019              		.section	.text.cortexm_halt_poll,"ax",%progbits
 1020              		.align	1
 1021              		.p2align 4,,15
 1022              		.syntax unified
 1023              		.thumb
 1024              		.thumb_func
 1025              		.fpu fpv4-sp-d16
 1026              		.type	cortexm_halt_poll, %function
ARM GAS  /tmp/cccFXynL.s 			page 19


 1027              	cortexm_halt_poll:
 1028              	.LFB280:
 1029              		.loc 1 549 0
 1030              		.cfi_startproc
 1031              		@ args = 0, pretend = 0, frame = 208
 1032              		@ frame_needed = 1, uses_anonymous_args = 0
 1033              	.LVL121:
 1034 0000 2DE9F047 		push	{r4, r5, r6, r7, r8, r9, r10, lr}
 1035              		.cfi_def_cfa_offset 32
 1036              		.cfi_offset 4, -32
 1037              		.cfi_offset 5, -28
 1038              		.cfi_offset 6, -24
 1039              		.cfi_offset 7, -20
 1040              		.cfi_offset 8, -16
 1041              		.cfi_offset 9, -12
 1042              		.cfi_offset 10, -8
 1043              		.cfi_offset 14, -4
 1044 0004 B6B0     		sub	sp, sp, #216
 1045              		.cfi_def_cfa_offset 248
 1046              		.loc 1 554 0
 1047 0006 AF4B     		ldr	r3, .L196
 1048              		.loc 1 549 0
 1049 0008 02AF     		add	r7, sp, #8
 1050              		.cfi_def_cfa 7, 240
 1051              		.loc 1 549 0
 1052 000a 8446     		mov	ip, r0
 1053              		.loc 1 554 0
 1054 000c 07F16406 		add	r6, r7, #100
 1055 0010 1C68     		ldr	r4, [r3]
 1056              		.loc 1 549 0
 1057 0012 F860     		str	r0, [r7, #12]
 1058              		.loc 1 552 0
 1059 0014 0022     		movs	r2, #0
 1060              		.loc 1 554 0
 1061 0016 4FF0FF35 		mov	r5, #-1
 1062 001a 1E60     		str	r6, [r3]
 1063 001c 07F17000 		add	r0, r7, #112
 1064              	.LVL122:
 1065              		.loc 1 550 0
 1066 0020 DCF86C30 		ldr	r3, [ip, #108]
 1067              		.loc 1 552 0
 1068 0024 7A61     		str	r2, [r7, #20]
 1069              		.loc 1 549 0
 1070 0026 7960     		str	r1, [r7, #4]
 1071              		.loc 1 554 0
 1072 0028 7A66     		str	r2, [r7, #100]
 1073              		.loc 1 550 0
 1074 002a BB60     		str	r3, [r7, #8]
 1075              	.LVL123:
 1076              		.loc 1 554 0
 1077 002c FD66     		str	r5, [r7, #108]
 1078 002e C7F8CC40 		str	r4, [r7, #204]
 1079 0032 FFF7FEFF 		bl	setjmp
 1080              	.LVL124:
 1081 0036 80B9     		cbnz	r0, .L126
 1082 0038 A24D     		ldr	r5, .L196
 1083 003a 2C68     		ldr	r4, [r5]
ARM GAS  /tmp/cccFXynL.s 			page 20


 1084 003c 07F16403 		add	r3, r7, #100
 1085 0040 9C42     		cmp	r4, r3
 1086 0042 0AD1     		bne	.L126
 1087              		.loc 1 557 0
 1088 0044 A04E     		ldr	r6, .L196+4
 1089              	.L127:
 1090 0046 F868     		ldr	r0, [r7, #12]
 1091 0048 3146     		mov	r1, r6
 1092 004a FFF7FEFF 		bl	target_mem_read32
 1093              	.LVL125:
 1094 004e 7861     		str	r0, [r7, #20]
 1095              		.loc 1 554 0
 1096 0050 D7F8CC30 		ldr	r3, [r7, #204]
 1097 0054 2B60     		str	r3, [r5]
 1098 0056 A342     		cmp	r3, r4
 1099 0058 F5D0     		beq	.L127
 1100              	.L126:
 1101              		.loc 1 559 0
 1102 005a 7C6E     		ldr	r4, [r7, #100]
 1103 005c 012C     		cmp	r4, #1
 1104 005e 50D0     		beq	.L129
 1105 0060 022C     		cmp	r4, #2
 1106 0062 04D1     		bne	.L191
 1107              	.LVL126:
 1108              	.L175:
 1109              		.loc 1 566 0
 1110 0064 0020     		movs	r0, #0
 1111              	.L186:
 1112              		.loc 1 609 0
 1113 0066 D037     		adds	r7, r7, #208
 1114              		.cfi_remember_state
 1115              		.cfi_def_cfa_offset 32
 1116 0068 BD46     		mov	sp, r7
 1117              		.cfi_def_cfa_register 13
 1118              		@ sp needed
 1119 006a BDE8F087 		pop	{r4, r5, r6, r7, r8, r9, r10, pc}
 1120              	.LVL127:
 1121              	.L191:
 1122              		.cfi_restore_state
 1123              		.loc 1 569 0
 1124 006e 7B69     		ldr	r3, [r7, #20]
 1125 0070 9C03     		lsls	r4, r3, #14
 1126 0072 F7D5     		bpl	.L175
 1127              		.loc 1 573 0
 1128 0074 FE68     		ldr	r6, [r7, #12]
 1129 0076 954D     		ldr	r5, .L196+8
 1130 0078 3046     		mov	r0, r6
 1131 007a 2946     		mov	r1, r5
 1132 007c FFF7FEFF 		bl	target_mem_read32
 1133              	.LVL128:
 1134              		.loc 1 574 0
 1135 0080 2946     		mov	r1, r5
 1136              		.loc 1 573 0
 1137 0082 0446     		mov	r4, r0
 1138              	.LVL129:
 1139              		.loc 1 574 0
 1140 0084 0246     		mov	r2, r0
ARM GAS  /tmp/cccFXynL.s 			page 21


 1141 0086 3046     		mov	r0, r6
 1142              	.LVL130:
 1143 0088 FFF7FEFF 		bl	target_mem_write32
 1144              	.LVL131:
 1145              		.loc 1 576 0
 1146 008c 2007     		lsls	r0, r4, #28
 1147 008e 4BD4     		bmi	.L192
 1148              	.L133:
 1149              		.loc 1 580 0
 1150 0090 04F00203 		and	r3, r4, #2
 1151 0094 002B     		cmp	r3, #0
 1152 0096 BA68     		ldr	r2, [r7, #8]
 1153 0098 14BF     		ite	ne
 1154 009a 0123     		movne	r3, #1
 1155 009c 0023     		moveq	r3, #0
 1156 009e 5371     		strb	r3, [r2, #5]
 1157              		.loc 1 581 0
 1158 00a0 40F0AC80 		bne	.L193
 1159              		.loc 1 597 0
 1160 00a4 6307     		lsls	r3, r4, #29
 1161 00a6 33D5     		bpl	.L194
 1162              	.L165:
 1163              		.loc 1 598 0
 1164 00a8 7B68     		ldr	r3, [r7, #4]
 1165 00aa 002B     		cmp	r3, #0
 1166 00ac 3AD0     		beq	.L181
 1167              	.LVL132:
 1168              	.LBB79:
 1169              	.LBB80:
 1170              		.loc 1 843 0
 1171 00ae FB68     		ldr	r3, [r7, #12]
 1172 00b0 DE6E     		ldr	r6, [r3, #108]
 1173              	.LVL133:
 1174              		.loc 1 846 0
 1175 00b2 3369     		ldr	r3, [r6, #16]
 1176 00b4 002B     		cmp	r3, #0
 1177 00b6 00F0B280 		beq	.L172
 1178              		.loc 1 849 0
 1179 00ba DFF82482 		ldr	r8, .L196+28
 1180 00be B51D     		adds	r5, r6, #6
 1181              		.loc 1 846 0
 1182 00c0 0024     		movs	r4, #0
 1183              	.LVL134:
 1184 00c2 03E0     		b	.L169
 1185              	.LVL135:
 1186              	.L171:
 1187 00c4 3369     		ldr	r3, [r6, #16]
 1188 00c6 0134     		adds	r4, r4, #1
 1189              	.LVL136:
 1190 00c8 9C42     		cmp	r4, r3
 1191 00ca 0BD2     		bcs	.L170
 1192              	.LVL137:
 1193              	.L169:
 1194              		.loc 1 848 0
 1195 00cc 15F8013B 		ldrb	r3, [r5], #1	@ zero_extendqisi2
 1196 00d0 002B     		cmp	r3, #0
 1197 00d2 F7D0     		beq	.L171
ARM GAS  /tmp/cccFXynL.s 			page 22


 1198              		.loc 1 849 0
 1199 00d4 08EB0411 		add	r1, r8, r4, lsl #4
 1200 00d8 F868     		ldr	r0, [r7, #12]
 1201 00da FFF7FEFF 		bl	target_mem_read32
 1202              	.LVL138:
 1203              		.loc 1 848 0
 1204 00de C101     		lsls	r1, r0, #7
 1205 00e0 F0D5     		bpl	.L171
 1206 00e2 3369     		ldr	r3, [r6, #16]
 1207              	.L170:
 1208              		.loc 1 853 0
 1209 00e4 A342     		cmp	r3, r4
 1210 00e6 00F09A80 		beq	.L172
 1211              		.loc 1 856 0
 1212 00ea 04F16061 		add	r1, r4, #234881024
 1213 00ee 01F58171 		add	r1, r1, #258
 1214 00f2 0901     		lsls	r1, r1, #4
 1215 00f4 F868     		ldr	r0, [r7, #12]
 1216 00f6 FFF7FEFF 		bl	target_mem_read32
 1217              	.LVL139:
 1218              	.L167:
 1219              	.LBE80:
 1220              	.LBE79:
 1221              		.loc 1 599 0
 1222 00fa 7B68     		ldr	r3, [r7, #4]
 1223 00fc 1860     		str	r0, [r3]
 1224              		.loc 1 600 0
 1225 00fe 0520     		movs	r0, #5
 1226 0100 B1E7     		b	.L186
 1227              	.L129:
 1228              		.loc 1 562 0
 1229 0102 FFF7FEFF 		bl	target_list_free
 1230              	.LVL140:
 1231              		.loc 1 563 0
 1232 0106 2046     		mov	r0, r4
 1233              		.loc 1 609 0
 1234 0108 D037     		adds	r7, r7, #208
 1235              		.cfi_remember_state
 1236              		.cfi_def_cfa_offset 32
 1237 010a BD46     		mov	sp, r7
 1238              		.cfi_def_cfa_register 13
 1239              	.LVL141:
 1240              		@ sp needed
 1241 010c BDE8F087 		pop	{r4, r5, r6, r7, r8, r9, r10, pc}
 1242              	.LVL142:
 1243              	.L194:
 1244              		.cfi_restore_state
 1245              		.loc 1 605 0
 1246 0110 E207     		lsls	r2, r4, #31
 1247 0112 40F18280 		bpl	.L173
 1248              		.loc 1 606 0
 1249 0116 BB68     		ldr	r3, [r7, #8]
 1250 0118 1B79     		ldrb	r3, [r3, #4]	@ zero_extendqisi2
 1251 011a 002B     		cmp	r3, #0
 1252 011c 00F08180 		beq	.L163
 1253 0120 0320     		movs	r0, #3
 1254 0122 A0E7     		b	.L186
ARM GAS  /tmp/cccFXynL.s 			page 23


 1255              	.L181:
 1256              		.loc 1 600 0
 1257 0124 0520     		movs	r0, #5
 1258 0126 9EE7     		b	.L186
 1259              	.L192:
 1260              	.LVL143:
 1261              	.LBB82:
 1262              	.LBB83:
 1263              		.loc 1 639 0
 1264 0128 D7F80CA0 		ldr	r10, [r7, #12]
 1265 012c DFF8B481 		ldr	r8, .L196+32
 1266              		.loc 1 640 0
 1267 0130 674E     		ldr	r6, .L196+12
 1268              		.loc 1 639 0
 1269 0132 4146     		mov	r1, r8
 1270 0134 5046     		mov	r0, r10
 1271 0136 FFF7FEFF 		bl	target_mem_read32
 1272              	.LVL144:
 1273              		.loc 1 640 0
 1274 013a 3146     		mov	r1, r6
 1275              		.loc 1 639 0
 1276 013c 0546     		mov	r5, r0
 1277              	.LVL145:
 1278              		.loc 1 640 0
 1279 013e 5046     		mov	r0, r10
 1280              	.LVL146:
 1281 0140 FFF7FEFF 		bl	target_mem_read32
 1282              	.LVL147:
 1283              		.loc 1 641 0
 1284 0144 2A46     		mov	r2, r5
 1285              		.loc 1 640 0
 1286 0146 8146     		mov	r9, r0
 1287              	.LVL148:
 1288              		.loc 1 641 0
 1289 0148 4146     		mov	r1, r8
 1290 014a 5046     		mov	r0, r10
 1291              	.LVL149:
 1292 014c FFF7FEFF 		bl	target_mem_write32
 1293              	.LVL150:
 1294              		.loc 1 642 0
 1295 0150 3146     		mov	r1, r6
 1296 0152 4A46     		mov	r2, r9
 1297 0154 5046     		mov	r0, r10
 1298 0156 FFF7FEFF 		bl	target_mem_write32
 1299              	.LVL151:
 1300              		.loc 1 645 0
 1301 015a 6900     		lsls	r1, r5, #1
 1302 015c 02D4     		bmi	.L134
 1303 015e B9F1000F 		cmp	r9, #0
 1304 0162 95D0     		beq	.L133
 1305              	.L134:
 1306              	.LBB84:
 1307              		.loc 1 647 0
 1308 0164 F868     		ldr	r0, [r7, #12]
 1309 0166 C369     		ldr	r3, [r0, #28]
 1310 0168 23F00303 		bic	r3, r3, #3
 1311 016c 0A33     		adds	r3, r3, #10
ARM GAS  /tmp/cccFXynL.s 			page 24


 1312 016e 23F00703 		bic	r3, r3, #7
 1313              		.loc 1 645 0
 1314 0172 E846     		mov	r8, sp
 1315              	.LVL152:
 1316              		.loc 1 647 0
 1317 0174 ADEB030D 		sub	sp, sp, r3
 1318 0178 02AD     		add	r5, sp, #8
 1319              	.LVL153:
 1320              		.loc 1 651 0
 1321 017a 2946     		mov	r1, r5
 1322 017c FFF7FEFF 		bl	target_regs_read
 1323              	.LVL154:
 1324              		.loc 1 653 0
 1325 0180 AE6B     		ldr	r6, [r5, #56]
 1326              	.LVL155:
 1327              		.loc 1 658 0
 1328 0182 D7F80CA0 		ldr	r10, [r7, #12]
 1329              		.loc 1 657 0
 1330 0186 16F00409 		ands	r9, r6, #4
 1331              	.LVL156:
 1332 018a 14BF     		ite	ne
 1333 018c AA6C     		ldrne	r2, [r5, #72]
 1334 018e 6A6C     		ldreq	r2, [r5, #68]
 1335              	.LVL157:
 1336              		.loc 1 658 0
 1337 0190 2023     		movs	r3, #32
 1338 0192 07F14401 		add	r1, r7, #68
 1339 0196 5046     		mov	r0, r10
 1340 0198 FFF7FEFF 		bl	target_mem_read
 1341              	.LVL158:
 1342              		.loc 1 659 0
 1343 019c 5046     		mov	r0, r10
 1344 019e FFF7FEFF 		bl	target_check_error
 1345              	.LVL159:
 1346 01a2 0028     		cmp	r0, #0
 1347 01a4 3FD1     		bne	.L138
 1348              		.loc 1 661 0
 1349 01a6 BB6D     		ldr	r3, [r7, #88]
 1350              		.loc 1 666 0
 1351 01a8 3A6E     		ldr	r2, [r7, #96]
 1352              		.loc 1 661 0
 1353 01aa AB63     		str	r3, [r5, #56]
 1354              		.loc 1 665 0
 1355 01ac 16F01006 		ands	r6, r6, #16
 1356              	.LVL160:
 1357              		.loc 1 662 0
 1358 01b0 FB6D     		ldr	r3, [r7, #92]
 1359 01b2 EB63     		str	r3, [r5, #60]
 1360              		.loc 1 665 0
 1361 01b4 14BF     		ite	ne
 1362 01b6 2023     		movne	r3, #32
 1363 01b8 6823     		moveq	r3, #104
 1364              	.LVL161:
 1365              		.loc 1 666 0
 1366 01ba 9205     		lsls	r2, r2, #22
 1367              		.loc 1 667 0
 1368 01bc 48BF     		it	mi
ARM GAS  /tmp/cccFXynL.s 			page 25


 1369 01be 0433     		addmi	r3, r3, #4
 1370              	.LVL162:
 1371              		.loc 1 669 0
 1372 01c0 B9F1000F 		cmp	r9, #0
 1373 01c4 00F00981 		beq	.L141
 1374              		.loc 1 671 0
 1375 01c8 D5E91212 		ldrd	r1, r2, [r5, #72]
 1376 01cc 0B44     		add	r3, r3, r1
 1377              	.LVL163:
 1378              		.loc 1 670 0
 1379 01ce 42F08062 		orr	r2, r2, #67108864
 1380              		.loc 1 671 0
 1381 01d2 C5E91232 		strd	r3, r2, [r5, #72]
 1382 01d6 6B63     		str	r3, [r5, #52]
 1383              	.L142:
 1384              		.loc 1 676 0
 1385 01d8 1EB9     		cbnz	r6, .L143
 1386              		.loc 1 677 0
 1387 01da EB6C     		ldr	r3, [r5, #76]
 1388 01dc 43F00073 		orr	r3, r3, #33554432
 1389 01e0 EB64     		str	r3, [r5, #76]
 1390              	.L143:
 1391              		.loc 1 685 0
 1392 01e2 FC68     		ldr	r4, [r7, #12]
 1393              	.LVL164:
 1394 01e4 3B4A     		ldr	r2, .L196+16
 1395 01e6 3C49     		ldr	r1, .L196+20
 1396 01e8 2046     		mov	r0, r4
 1397 01ea FFF7FEFF 		bl	target_mem_write32
 1398              	.LVL165:
 1399              		.loc 1 689 0
 1400 01ee 2046     		mov	r0, r4
 1401 01f0 2946     		mov	r1, r5
 1402 01f2 FFF7FEFF 		bl	target_regs_write
 1403              	.LVL166:
 1404              	.LBE84:
 1405              	.LBE83:
 1406              	.LBE82:
 1407              		.loc 1 577 0
 1408 01f6 0620     		movs	r0, #6
 1409              	.LBB91:
 1410              	.LBB88:
 1411              	.LBB85:
 1412 01f8 C546     		mov	sp, r8
 1413              	.LVL167:
 1414 01fa 34E7     		b	.L186
 1415              	.LVL168:
 1416              	.L193:
 1417              	.LBE85:
 1418              	.LBE88:
 1419              	.LBE91:
 1420              	.LBB92:
 1421              		.loc 1 584 0
 1422 01fc FD68     		ldr	r5, [r7, #12]
 1423 01fe 2846     		mov	r0, r5
 1424 0200 FFF7FEFF 		bl	cortexm_pc_read
 1425              	.LVL169:
ARM GAS  /tmp/cccFXynL.s 			page 26


 1426              		.loc 1 586 0
 1427 0204 0146     		mov	r1, r0
 1428 0206 2846     		mov	r0, r5
 1429              	.LVL170:
 1430 0208 FFF7FEFF 		bl	target_mem_read16
 1431              	.LVL171:
 1432              		.loc 1 587 0
 1433 020c 4BF6AB63 		movw	r3, #48811
 1434 0210 9842     		cmp	r0, r3
 1435 0212 0AD0     		beq	.L195
 1436              	.LBE92:
 1437              		.loc 1 597 0
 1438 0214 6007     		lsls	r0, r4, #29
 1439              	.LVL172:
 1440 0216 3FF547AF 		bmi	.L165
 1441              	.L173:
 1442              		.loc 1 603 0
 1443 021a 0420     		movs	r0, #4
 1444 021c 23E7     		b	.L186
 1445              	.LVL173:
 1446              	.L172:
 1447              	.LBB102:
 1448              	.LBB81:
 1449              		.loc 1 854 0
 1450 021e 0020     		movs	r0, #0
 1451 0220 6BE7     		b	.L167
 1452              	.LVL174:
 1453              	.L163:
 1454              	.LBE81:
 1455              	.LBE102:
 1456              		.loc 1 606 0 discriminator 2
 1457 0222 0220     		movs	r0, #2
 1458 0224 1FE7     		b	.L186
 1459              	.LVL175:
 1460              	.L138:
 1461              	.LBB103:
 1462              	.LBB89:
 1463              	.LBB86:
 1464 0226 C546     		mov	sp, r8
 1465              	.LVL176:
 1466 0228 32E7     		b	.L133
 1467              	.LVL177:
 1468              	.L195:
 1469              	.LBE86:
 1470              	.LBE89:
 1471              	.LBE103:
 1472              	.LBB104:
 1473              	.LBB93:
 1474              	.LBB94:
 1475              		.loc 1 929 0
 1476 022a FC68     		ldr	r4, [r7, #12]
 1477              	.LVL178:
 1478 022c E369     		ldr	r3, [r4, #28]
 1479              		.loc 1 932 0
 1480 022e 6268     		ldr	r2, [r4, #4]
 1481              		.loc 1 929 0
 1482 0230 9B00     		lsls	r3, r3, #2
ARM GAS  /tmp/cccFXynL.s 			page 27


 1483 0232 0A33     		adds	r3, r3, #10
 1484 0234 23F00703 		bic	r3, r3, #7
 1485              		.loc 1 928 0
 1486 0238 6E46     		mov	r6, sp
 1487              	.LVL179:
 1488              		.loc 1 929 0
 1489 023a ADEB030D 		sub	sp, sp, r3
 1490 023e 02AD     		add	r5, sp, #8
 1491              	.LVL180:
 1492              		.loc 1 932 0
 1493 0240 0023     		movs	r3, #0
 1494              		.loc 1 929 0
 1495 0242 2046     		mov	r0, r4
 1496              	.LVL181:
 1497              		.loc 1 932 0
 1498 0244 82F83930 		strb	r3, [r2, #57]
 1499              		.loc 1 933 0
 1500 0248 2946     		mov	r1, r5
 1501 024a FFF7FEFF 		bl	target_regs_read
 1502              	.LVL182:
 1503              		.loc 1 934 0
 1504 024e 6A68     		ldr	r2, [r5, #4]
 1505 0250 1023     		movs	r3, #16
 1506 0252 07F11C01 		add	r1, r7, #28
 1507 0256 2046     		mov	r0, r4
 1508 0258 FFF7FEFF 		bl	target_mem_read
 1509              	.LVL183:
 1510              		.loc 1 938 0
 1511 025c B96A     		ldr	r1, [r7, #40]
 1512              		.loc 1 935 0
 1513 025e 2C68     		ldr	r4, [r5]
 1514              	.LVL184:
 1515              		.loc 1 938 0
 1516 0260 1E48     		ldr	r0, .L196+24
 1517 0262 D7E90723 		ldrd	r2, r3, [r7, #28]
 1518 0266 0191     		str	r1, [sp, #4]
 1519              	.LVL185:
 1520 0268 796A     		ldr	r1, [r7, #36]
 1521 026a 0091     		str	r1, [sp]
 1522 026c 2146     		mov	r1, r4
 1523              		.loc 1 940 0
 1524 026e 013C     		subs	r4, r4, #1
 1525              	.LVL186:
 1526              		.loc 1 938 0
 1527 0270 FFF7FEFF 		bl	commands_printf
 1528              	.LVL187:
 1529              		.loc 1 940 0
 1530 0274 122C     		cmp	r4, #18
 1531 0276 00F2B780 		bhi	.L178
 1532 027a DFE804F0 		tbb	[pc, r4]
 1533              	.L148:
 1534 027e 85       		.byte	(.L147-.L148)/2
 1535 027f 7F       		.byte	(.L149-.L148)/2
 1536 0280 78       		.byte	(.L150-.L148)/2
 1537 0281 B5       		.byte	(.L178-.L148)/2
 1538 0282 6E       		.byte	(.L151-.L148)/2
 1539 0283 62       		.byte	(.L152-.L148)/2
ARM GAS  /tmp/cccFXynL.s 			page 28


 1540 0284 B5       		.byte	(.L178-.L148)/2
 1541 0285 B5       		.byte	(.L178-.L148)/2
 1542 0286 5C       		.byte	(.L153-.L148)/2
 1543 0287 54       		.byte	(.L154-.L148)/2
 1544 0288 B5       		.byte	(.L178-.L148)/2
 1545 0289 4E       		.byte	(.L155-.L148)/2
 1546 028a B5       		.byte	(.L178-.L148)/2
 1547 028b 46       		.byte	(.L156-.L148)/2
 1548 028c 3A       		.byte	(.L157-.L148)/2
 1549 028d B5       		.byte	(.L178-.L148)/2
 1550 028e B5       		.byte	(.L178-.L148)/2
 1551 028f 0A       		.byte	(.L158-.L148)/2
 1552 0290 35       		.byte	(.L159-.L148)/2
 1553 0291 00       		.p2align 1
 1554              	.L158:
 1555              		.loc 1 1003 0
 1556 0292 D7E90712 		ldrd	r1, r2, [r7, #28]
 1557 0296 F868     		ldr	r0, [r7, #12]
 1558 0298 0132     		adds	r2, r2, #1
 1559 029a 0139     		subs	r1, r1, #1
 1560 029c FFF7FEFF 		bl	tc_system
 1561              	.LVL188:
 1562              	.L146:
 1563              		.loc 1 1020 0
 1564 02a0 FC68     		ldr	r4, [r7, #12]
 1565              		.loc 1 1019 0
 1566 02a2 2860     		str	r0, [r5]
 1567              		.loc 1 1020 0
 1568 02a4 2946     		mov	r1, r5
 1569 02a6 2046     		mov	r0, r4
 1570              	.LVL189:
 1571 02a8 FFF7FEFF 		bl	target_regs_write
 1572              	.LVL190:
 1573              		.loc 1 1022 0
 1574 02ac 6368     		ldr	r3, [r4, #4]
 1575 02ae 93F83930 		ldrb	r3, [r3, #57]	@ zero_extendqisi2
 1576 02b2 B546     		mov	sp, r6
 1577              	.LVL191:
 1578              	.LBE94:
 1579              	.LBE93:
 1580              		.loc 1 588 0
 1581 02b4 002B     		cmp	r3, #0
 1582 02b6 B4D1     		bne	.L163
 1583              		.loc 1 591 0
 1584 02b8 BB68     		ldr	r3, [r7, #8]
 1585 02ba 2046     		mov	r0, r4
 1586 02bc 1979     		ldrb	r1, [r3, #4]	@ zero_extendqisi2
 1587 02be FFF7FEFF 		bl	target_halt_resume
 1588              	.LVL192:
 1589 02c2 CFE6     		b	.L175
 1590              	.L197:
 1591              		.align	2
 1592              	.L196:
 1593 02c4 00000000 		.word	innermost_exception
 1594 02c8 F0ED00E0 		.word	-536810000
 1595 02cc 30ED00E0 		.word	-536810192
 1596 02d0 28ED00E0 		.word	-536810200
ARM GAS  /tmp/cccFXynL.s 			page 29


 1597 02d4 0200FA05 		.word	100270082
 1598 02d8 0CED00E0 		.word	-536810228
 1599 02dc 00000000 		.word	.LC16
 1600 02e0 281000E0 		.word	-536866776
 1601 02e4 2CED00E0 		.word	-536810196
 1602              	.LVL193:
 1603              	.L159:
 1604              	.LBB100:
 1605              	.LBB98:
 1606              		.loc 1 1011 0
 1607 02e8 FB68     		ldr	r3, [r7, #12]
 1608 02ea 5B68     		ldr	r3, [r3, #4]
 1609 02ec 93F83800 		ldrb	r0, [r3, #56]	@ zero_extendqisi2
 1610              	.LVL194:
 1611 02f0 D6E7     		b	.L146
 1612              	.LVL195:
 1613              	.L157:
 1614              		.loc 1 997 0
 1615 02f2 BB6A     		ldr	r3, [r7, #40]
 1616              		.loc 1 996 0
 1617 02f4 D7E90712 		ldrd	r1, r2, [r7, #28]
 1618              		.loc 1 997 0
 1619 02f8 0133     		adds	r3, r3, #1
 1620              		.loc 1 996 0
 1621 02fa 0093     		str	r3, [sp]
 1622 02fc 0132     		adds	r2, r2, #1
 1623 02fe 0139     		subs	r1, r1, #1
 1624 0300 7B6A     		ldr	r3, [r7, #36]
 1625 0302 F868     		ldr	r0, [r7, #12]
 1626 0304 FFF7FEFF 		bl	tc_rename
 1627              	.LVL196:
 1628 0308 CAE7     		b	.L146
 1629              	.L156:
 1630              		.loc 1 1000 0
 1631 030a D7E90712 		ldrd	r1, r2, [r7, #28]
 1632 030e F868     		ldr	r0, [r7, #12]
 1633 0310 0132     		adds	r2, r2, #1
 1634 0312 0139     		subs	r1, r1, #1
 1635 0314 FFF7FEFF 		bl	tc_unlink
 1636              	.LVL197:
 1637 0318 C2E7     		b	.L146
 1638              	.L155:
 1639              		.loc 1 1007 0
 1640 031a FB68     		ldr	r3, [r7, #12]
 1641 031c 5B68     		ldr	r3, [r3, #4]
 1642 031e 0020     		movs	r0, #0
 1643 0320 83F83800 		strb	r0, [r3, #56]
 1644 0324 BCE7     		b	.L146
 1645              	.L154:
 1646              		.loc 1 993 0
 1647 0326 D7E90712 		ldrd	r1, r2, [r7, #28]
 1648 032a 0023     		movs	r3, #0
 1649 032c 0139     		subs	r1, r1, #1
 1650 032e F868     		ldr	r0, [r7, #12]
 1651 0330 FFF7FEFF 		bl	tc_lseek
 1652              	.LVL198:
 1653 0334 B4E7     		b	.L146
ARM GAS  /tmp/cccFXynL.s 			page 30


 1654              	.L153:
 1655              		.loc 1 990 0
 1656 0336 F969     		ldr	r1, [r7, #28]
 1657 0338 F868     		ldr	r0, [r7, #12]
 1658 033a 0139     		subs	r1, r1, #1
 1659 033c FFF7FEFF 		bl	tc_isatty
 1660              	.LVL199:
 1661 0340 AEE7     		b	.L146
 1662              	.L152:
 1663              		.loc 1 977 0
 1664 0342 07F11C01 		add	r1, r7, #28
 1665 0346 0EC9     		ldm	r1, {r1, r2, r3}
 1666 0348 F868     		ldr	r0, [r7, #12]
 1667 034a 0139     		subs	r1, r1, #1
 1668 034c FFF7FEFF 		bl	tc_read
 1669              	.LVL200:
 1670              		.loc 1 978 0
 1671 0350 0028     		cmp	r0, #0
 1672 0352 A5DD     		ble	.L146
 1673              	.L190:
 1674              		.loc 1 984 0
 1675 0354 7B6A     		ldr	r3, [r7, #36]
 1676 0356 181A     		subs	r0, r3, r0
 1677              	.LVL201:
 1678 0358 A2E7     		b	.L146
 1679              	.LVL202:
 1680              	.L151:
 1681              		.loc 1 982 0
 1682 035a 07F11C01 		add	r1, r7, #28
 1683 035e 0EC9     		ldm	r1, {r1, r2, r3}
 1684 0360 F868     		ldr	r0, [r7, #12]
 1685 0362 0139     		subs	r1, r1, #1
 1686 0364 FFF7FEFF 		bl	tc_write
 1687              	.LVL203:
 1688              		.loc 1 983 0
 1689 0368 0028     		cmp	r0, #0
 1690 036a F3DC     		bgt	.L190
 1691 036c 98E7     		b	.L146
 1692              	.LVL204:
 1693              	.L150:
 1694              		.loc 1 987 0
 1695 036e 0123     		movs	r3, #1
 1696 0370 6A68     		ldr	r2, [r5, #4]
 1697 0372 F868     		ldr	r0, [r7, #12]
 1698 0374 0221     		movs	r1, #2
 1699 0376 FFF7FEFF 		bl	tc_write
 1700              	.LVL205:
 1701 037a 91E7     		b	.L146
 1702              	.L149:
 1703              		.loc 1 974 0
 1704 037c F969     		ldr	r1, [r7, #28]
 1705 037e F868     		ldr	r0, [r7, #12]
 1706 0380 0139     		subs	r1, r1, #1
 1707 0382 FFF7FEFF 		bl	tc_close
 1708              	.LVL206:
 1709 0386 8BE7     		b	.L146
 1710              	.L147:
ARM GAS  /tmp/cccFXynL.s 			page 31


 1711              	.LBB95:
 1712              		.loc 1 944 0
 1713 0388 DFF880E0 		ldr	lr, .L198+4
 1714              		.loc 1 952 0
 1715 038c 3C6A     		ldr	r4, [r7, #32]
 1716              	.LVL207:
 1717              		.loc 1 944 0
 1718 038e BEE80F00 		ldmia	lr!, {r0, r1, r2, r3}
 1719 0392 07F12C0C 		add	ip, r7, #44
 1720 0396 ACE80F00 		stmia	ip!, {r0, r1, r2, r3}
 1721 039a 9EE80300 		ldm	lr, {r0, r1}
 1722              		.loc 1 952 0
 1723 039e 6408     		lsrs	r4, r4, #1
 1724              		.loc 1 944 0
 1725 03a0 8CE80300 		stm	ip, {r0, r1}
 1726              		.loc 1 952 0
 1727 03a4 07F1D003 		add	r3, r7, #208
 1728 03a8 03EB8400 		add	r0, r3, r4, lsl #2
 1729              		.loc 1 955 0
 1730 03ac 07F11801 		add	r1, r7, #24
 1731              		.loc 1 952 0
 1732 03b0 50F8A44C 		ldr	r4, [r0, #-164]
 1733              	.LVL208:
 1734              		.loc 1 955 0
 1735 03b4 FA69     		ldr	r2, [r7, #28]
 1736 03b6 F868     		ldr	r0, [r7, #12]
 1737 03b8 0423     		movs	r3, #4
 1738 03ba FFF7FEFF 		bl	target_mem_read
 1739              	.LVL209:
 1740              		.loc 1 957 0
 1741 03be 07F11800 		add	r0, r7, #24
 1742 03c2 1149     		ldr	r1, .L198
 1743 03c4 FFF7FEFF 		bl	strcmp
 1744              	.LVL210:
 1745 03c8 80B9     		cbnz	r0, .L160
 1746              		.loc 1 958 0
 1747 03ca 5CB1     		cbz	r4, .L179
 1748              		.loc 1 961 0
 1749 03cc 14F4806F 		tst	r4, #1024
 1750 03d0 0CBF     		ite	eq
 1751 03d2 0220     		moveq	r0, #2
 1752 03d4 0120     		movne	r0, #1
 1753              	.LVL211:
 1754              	.L189:
 1755              		.loc 1 970 0
 1756 03d6 0130     		adds	r0, r0, #1
 1757              	.LVL212:
 1758 03d8 62E7     		b	.L146
 1759              	.LVL213:
 1760              	.L141:
 1761              	.LBE95:
 1762              	.LBE98:
 1763              	.LBE100:
 1764              	.LBE104:
 1765              	.LBB105:
 1766              	.LBB90:
 1767              	.LBB87:
ARM GAS  /tmp/cccFXynL.s 			page 32


 1768              		.loc 1 673 0
 1769 03da 6A6C     		ldr	r2, [r5, #68]
 1770 03dc 1344     		add	r3, r3, r2
 1771              	.LVL214:
 1772 03de 6B64     		str	r3, [r5, #68]
 1773 03e0 6B63     		str	r3, [r5, #52]
 1774 03e2 F9E6     		b	.L142
 1775              	.LVL215:
 1776              	.L179:
 1777              	.LBE87:
 1778              	.LBE90:
 1779              	.LBE105:
 1780              	.LBB106:
 1781              	.LBB101:
 1782              	.LBB99:
 1783              	.LBB96:
 1784              		.loc 1 959 0
 1785 03e4 2046     		mov	r0, r4
 1786              	.LVL216:
 1787 03e6 F6E7     		b	.L189
 1788              	.LVL217:
 1789              	.L178:
 1790              	.LBE96:
 1791              		.loc 1 936 0
 1792 03e8 0020     		movs	r0, #0
 1793 03ea 59E7     		b	.L146
 1794              	.LVL218:
 1795              	.L160:
 1796              	.LBB97:
 1797              		.loc 1 968 0
 1798 03ec 7A6A     		ldr	r2, [r7, #36]
 1799 03ee 4FF4D273 		mov	r3, #420
 1800 03f2 0093     		str	r3, [sp]
 1801 03f4 0132     		adds	r2, r2, #1
 1802 03f6 A3B2     		uxth	r3, r4
 1803 03f8 F969     		ldr	r1, [r7, #28]
 1804 03fa F868     		ldr	r0, [r7, #12]
 1805 03fc FFF7FEFF 		bl	tc_open
 1806              	.LVL219:
 1807              		.loc 1 969 0
 1808 0400 441C     		adds	r4, r0, #1
 1809              	.LVL220:
 1810 0402 E8D1     		bne	.L189
 1811 0404 4CE7     		b	.L146
 1812              	.L199:
 1813 0406 00BF     		.align	2
 1814              	.L198:
 1815 0408 24000000 		.word	.LC17
 1816 040c 2C000000 		.word	.LANCHOR0+44
 1817              	.LBE97:
 1818              	.LBE99:
 1819              	.LBE101:
 1820              	.LBE106:
 1821              		.cfi_endproc
 1822              	.LFE280:
 1823              		.size	cortexm_halt_poll, .-cortexm_halt_poll
 1824              		.section	.text.cortexm_regs_write,"ax",%progbits
ARM GAS  /tmp/cccFXynL.s 			page 33


 1825              		.align	1
 1826              		.p2align 4,,15
 1827              		.syntax unified
 1828              		.thumb
 1829              		.thumb_func
 1830              		.fpu fpv4-sp-d16
 1831              		.type	cortexm_regs_write, %function
 1832              	cortexm_regs_write:
 1833              	.LFB274:
 1834              		.loc 1 446 0
 1835              		.cfi_startproc
 1836              		@ args = 0, pretend = 0, frame = 0
 1837              		@ frame_needed = 0, uses_anonymous_args = 0
 1838              	.LVL221:
 1839 0000 2DE9F84F 		push	{r3, r4, r5, r6, r7, r8, r9, r10, fp, lr}
 1840              		.cfi_def_cfa_offset 40
 1841              		.cfi_offset 3, -40
 1842              		.cfi_offset 4, -36
 1843              		.cfi_offset 5, -32
 1844              		.cfi_offset 6, -28
 1845              		.cfi_offset 7, -24
 1846              		.cfi_offset 8, -20
 1847              		.cfi_offset 9, -16
 1848              		.cfi_offset 10, -12
 1849              		.cfi_offset 11, -8
 1850              		.cfi_offset 14, -4
 1851              	.LBB107:
 1852              	.LBB108:
 1853              		.loc 1 191 0
 1854 0004 C36E     		ldr	r3, [r0, #108]
 1855 0006 2E4F     		ldr	r7, .L211
 1856 0008 1D68     		ldr	r5, [r3]
 1857              	.LBE108:
 1858              	.LBE107:
 1859              		.loc 1 452 0
 1860 000a AA69     		ldr	r2, [r5, #24]
 1861              		.loc 1 446 0
 1862 000c 8946     		mov	r9, r1
 1863              		.loc 1 452 0
 1864 000e 42F00202 		orr	r2, r2, #2
 1865 0012 4FF48071 		mov	r1, #256
 1866              	.LVL222:
 1867              		.loc 1 446 0
 1868 0016 8246     		mov	r10, r0
 1869              	.LVL223:
 1870              		.loc 1 452 0
 1871 0018 2846     		mov	r0, r5
 1872              	.LVL224:
 1873 001a FFF7FEFF 		bl	adiv5_ap_write
 1874              	.LVL225:
 1875              		.loc 1 456 0
 1876 001e 6868     		ldr	r0, [r5, #4]
 1877              	.LVL226:
 1878              	.LBB109:
 1879              	.LBB110:
 1880              		.loc 2 153 0
 1881 0020 284B     		ldr	r3, .L211+4
ARM GAS  /tmp/cccFXynL.s 			page 34


 1882 0022 8469     		ldr	r4, [r0, #24]
 1883              	.LBE110:
 1884              	.LBE109:
 1885              		.loc 1 460 0
 1886 0024 C846     		mov	r8, r9
 1887              	.LBB112:
 1888              	.LBB111:
 1889              		.loc 2 153 0
 1890 0026 4FF48272 		mov	r2, #260
 1891 002a 0021     		movs	r1, #0
 1892 002c A047     		blx	r4
 1893              	.LVL227:
 1894              	.LBE111:
 1895              	.LBE112:
 1896              		.loc 1 460 0
 1897 002e 2846     		mov	r0, r5
 1898 0030 58F8502B 		ldr	r2, [r8], #80
 1899 0034 4FF48C71 		mov	r1, #280
 1900 0038 FFF7FEFF 		bl	adiv5_ap_write
 1901              	.LVL228:
 1902              		.loc 1 461 0
 1903 003c 6868     		ldr	r0, [r5, #4]
 1904              	.LBB113:
 1905              	.LBB114:
 1906              		.loc 2 153 0
 1907 003e 4FF48033 		mov	r3, #65536
 1908 0042 8469     		ldr	r4, [r0, #24]
 1909 0044 4FF48A72 		mov	r2, #276
 1910 0048 0021     		movs	r1, #0
 1911 004a A047     		blx	r4
 1912              	.LVL229:
 1913 004c 0126     		movs	r6, #1
 1914              	.LBE114:
 1915              	.LBE113:
 1916              		.loc 1 460 0
 1917 004e 09F10404 		add	r4, r9, #4
 1918              	.LVL230:
 1919 0052 01E0     		b	.L202
 1920              	.LVL231:
 1921              	.L209:
 1922 0054 57F8046F 		ldr	r6, [r7, #4]!
 1923              	.L202:
 1924              		.loc 1 464 0 discriminator 3
 1925 0058 6868     		ldr	r0, [r5, #4]
 1926              	.LVL232:
 1927              	.LBB115:
 1928              	.LBB116:
 1929              		.loc 2 153 0 discriminator 3
 1930 005a 54F8043B 		ldr	r3, [r4], #4
 1931              	.LVL233:
 1932 005e D0F818B0 		ldr	fp, [r0, #24]
 1933 0062 4FF48C72 		mov	r2, #280
 1934 0066 0021     		movs	r1, #0
 1935 0068 D847     		blx	fp
 1936              	.LVL234:
 1937              	.LBE116:
 1938              	.LBE115:
ARM GAS  /tmp/cccFXynL.s 			page 35


 1939              		.loc 1 466 0 discriminator 3
 1940 006a 6868     		ldr	r0, [r5, #4]
 1941              	.LVL235:
 1942              	.LBB117:
 1943              	.LBB118:
 1944              		.loc 2 153 0 discriminator 3
 1945 006c 46F48033 		orr	r3, r6, #65536
 1946              	.LVL236:
 1947 0070 4FF48A72 		mov	r2, #276
 1948 0074 8669     		ldr	r6, [r0, #24]
 1949 0076 0021     		movs	r1, #0
 1950 0078 B047     		blx	r6
 1951              	.LVL237:
 1952              	.LBE118:
 1953              	.LBE117:
 1954              		.loc 1 463 0 discriminator 3
 1955 007a 4445     		cmp	r4, r8
 1956 007c EAD1     		bne	.L209
 1957              		.loc 1 469 0
 1958 007e DAF84C30 		ldr	r3, [r10, #76]
 1959 0082 9B07     		lsls	r3, r3, #30
 1960 0084 19D5     		bpl	.L200
 1961 0086 104F     		ldr	r7, .L211+8
 1962 0088 09F1D409 		add	r9, r9, #212
 1963              	.LVL238:
 1964 008c 2126     		movs	r6, #33
 1965 008e 01E0     		b	.L204
 1966              	.L210:
 1967 0090 57F8046F 		ldr	r6, [r7, #4]!
 1968              	.L204:
 1969              		.loc 1 471 0 discriminator 3
 1970 0094 6868     		ldr	r0, [r5, #4]
 1971              	.LVL239:
 1972              	.LBB119:
 1973              	.LBB120:
 1974              		.loc 2 153 0 discriminator 3
 1975 0096 54F8043B 		ldr	r3, [r4], #4
 1976              	.LVL240:
 1977 009a D0F81880 		ldr	r8, [r0, #24]
 1978 009e 4FF48C72 		mov	r2, #280
 1979 00a2 0021     		movs	r1, #0
 1980 00a4 C047     		blx	r8
 1981              	.LVL241:
 1982              	.LBE120:
 1983              	.LBE119:
 1984              		.loc 1 473 0 discriminator 3
 1985 00a6 6868     		ldr	r0, [r5, #4]
 1986              	.LVL242:
 1987              	.LBB121:
 1988              	.LBB122:
 1989              		.loc 2 153 0 discriminator 3
 1990 00a8 46F48033 		orr	r3, r6, #65536
 1991              	.LVL243:
 1992 00ac 4FF48A72 		mov	r2, #276
 1993 00b0 8669     		ldr	r6, [r0, #24]
 1994 00b2 0021     		movs	r1, #0
 1995 00b4 B047     		blx	r6
ARM GAS  /tmp/cccFXynL.s 			page 36


 1996              	.LVL244:
 1997              	.LBE122:
 1998              	.LBE121:
 1999              		.loc 1 470 0 discriminator 3
 2000 00b6 A145     		cmp	r9, r4
 2001 00b8 EAD1     		bne	.L210
 2002              	.LVL245:
 2003              	.L200:
 2004              		.loc 1 477 0
 2005 00ba BDE8F88F 		pop	{r3, r4, r5, r6, r7, r8, r9, r10, fp, pc}
 2006              	.LVL246:
 2007              	.L212:
 2008 00be 00BF     		.align	2
 2009              	.L211:
 2010 00c0 04000000 		.word	.LANCHOR2+4
 2011 00c4 F0ED00E0 		.word	-536810000
 2012 00c8 00000000 		.word	.LANCHOR3
 2013              		.cfi_endproc
 2014              	.LFE274:
 2015              		.size	cortexm_regs_write, .-cortexm_regs_write
 2016              		.section	.text.cortexm_regs_read,"ax",%progbits
 2017              		.align	1
 2018              		.p2align 4,,15
 2019              		.syntax unified
 2020              		.thumb
 2021              		.thumb_func
 2022              		.fpu fpv4-sp-d16
 2023              		.type	cortexm_regs_read, %function
 2024              	cortexm_regs_read:
 2025              	.LFB273:
 2026              		.loc 1 415 0
 2027              		.cfi_startproc
 2028              		@ args = 0, pretend = 0, frame = 0
 2029              		@ frame_needed = 0, uses_anonymous_args = 0
 2030              	.LVL247:
 2031              	.LBB123:
 2032              	.LBB124:
 2033              		.loc 1 191 0
 2034 0000 C36E     		ldr	r3, [r0, #108]
 2035              	.LBE124:
 2036              	.LBE123:
 2037              		.loc 1 415 0
 2038 0002 2DE9F047 		push	{r4, r5, r6, r7, r8, r9, r10, lr}
 2039              		.cfi_def_cfa_offset 32
 2040              		.cfi_offset 4, -32
 2041              		.cfi_offset 5, -28
 2042              		.cfi_offset 6, -24
 2043              		.cfi_offset 7, -20
 2044              		.cfi_offset 8, -16
 2045              		.cfi_offset 9, -12
 2046              		.cfi_offset 10, -8
 2047              		.cfi_offset 14, -4
 2048              	.LBB126:
 2049              	.LBB125:
 2050              		.loc 1 191 0
 2051 0006 1D68     		ldr	r5, [r3]
 2052 0008 284E     		ldr	r6, .L224
ARM GAS  /tmp/cccFXynL.s 			page 37


 2053              	.LBE125:
 2054              	.LBE126:
 2055              		.loc 1 421 0
 2056 000a AA69     		ldr	r2, [r5, #24]
 2057              		.loc 1 415 0
 2058 000c 8846     		mov	r8, r1
 2059              		.loc 1 421 0
 2060 000e 42F00202 		orr	r2, r2, #2
 2061 0012 4FF48071 		mov	r1, #256
 2062              	.LVL248:
 2063              		.loc 1 415 0
 2064 0016 8146     		mov	r9, r0
 2065              	.LVL249:
 2066              		.loc 1 421 0
 2067 0018 2846     		mov	r0, r5
 2068              	.LVL250:
 2069 001a FFF7FEFF 		bl	adiv5_ap_write
 2070              	.LVL251:
 2071              		.loc 1 425 0
 2072 001e 6868     		ldr	r0, [r5, #4]
 2073              	.LVL252:
 2074              	.LBB127:
 2075              	.LBB128:
 2076              		.loc 2 153 0
 2077 0020 234B     		ldr	r3, .L224+4
 2078 0022 8469     		ldr	r4, [r0, #24]
 2079 0024 4FF48272 		mov	r2, #260
 2080 0028 0021     		movs	r1, #0
 2081 002a A047     		blx	r4
 2082              	.LVL253:
 2083              	.LBE128:
 2084              	.LBE127:
 2085              		.loc 1 429 0
 2086 002c 2846     		mov	r0, r5
 2087 002e 0022     		movs	r2, #0
 2088 0030 4FF48A71 		mov	r1, #276
 2089 0034 FFF7FEFF 		bl	adiv5_ap_write
 2090              	.LVL254:
 2091              		.loc 1 430 0
 2092 0038 6868     		ldr	r0, [r5, #4]
 2093              	.LBB129:
 2094              	.LBB130:
 2095              		.loc 2 142 0
 2096 003a 4FF48C71 		mov	r1, #280
 2097 003e 0369     		ldr	r3, [r0, #16]
 2098 0040 9847     		blx	r3
 2099              	.LVL255:
 2100              	.LBE130:
 2101              	.LBE129:
 2102              		.loc 1 430 0
 2103 0042 4746     		mov	r7, r8
 2104 0044 08F10404 		add	r4, r8, #4
 2105              	.LVL256:
 2106 0048 47F8500B 		str	r0, [r7], #80
 2107              	.LVL257:
 2108 004c 0123     		movs	r3, #1
 2109 004e 01E0     		b	.L215
ARM GAS  /tmp/cccFXynL.s 			page 38


 2110              	.LVL258:
 2111              	.L222:
 2112 0050 56F8043F 		ldr	r3, [r6, #4]!
 2113              	.L215:
 2114              		.loc 1 432 0 discriminator 3
 2115 0054 6868     		ldr	r0, [r5, #4]
 2116              	.LVL259:
 2117              	.LBB131:
 2118              	.LBB132:
 2119              		.loc 2 153 0 discriminator 3
 2120 0056 4FF48A72 		mov	r2, #276
 2121 005a 0021     		movs	r1, #0
 2122 005c D0F818A0 		ldr	r10, [r0, #24]
 2123 0060 D047     		blx	r10
 2124              	.LVL260:
 2125              	.LBE132:
 2126              	.LBE131:
 2127              		.loc 1 434 0 discriminator 3
 2128 0062 6868     		ldr	r0, [r5, #4]
 2129              	.LVL261:
 2130              	.LBB133:
 2131              	.LBB134:
 2132              		.loc 2 142 0 discriminator 3
 2133 0064 4FF48C71 		mov	r1, #280
 2134 0068 0369     		ldr	r3, [r0, #16]
 2135 006a 9847     		blx	r3
 2136              	.LVL262:
 2137              	.LBE134:
 2138              	.LBE133:
 2139              		.loc 1 434 0 discriminator 3
 2140 006c 44F8040B 		str	r0, [r4], #4
 2141              	.LVL263:
 2142              		.loc 1 431 0 discriminator 3
 2143 0070 BC42     		cmp	r4, r7
 2144 0072 EDD1     		bne	.L222
 2145              		.loc 1 436 0
 2146 0074 D9F84C30 		ldr	r3, [r9, #76]
 2147 0078 9B07     		lsls	r3, r3, #30
 2148 007a 15D5     		bpl	.L213
 2149 007c 0D4E     		ldr	r6, .L224+8
 2150 007e 08F1D408 		add	r8, r8, #212
 2151              	.LVL264:
 2152 0082 2123     		movs	r3, #33
 2153 0084 01E0     		b	.L217
 2154              	.L223:
 2155 0086 56F8043F 		ldr	r3, [r6, #4]!
 2156              	.L217:
 2157              		.loc 1 438 0 discriminator 3
 2158 008a 6868     		ldr	r0, [r5, #4]
 2159              	.LVL265:
 2160              	.LBB135:
 2161              	.LBB136:
 2162              		.loc 2 153 0 discriminator 3
 2163 008c 4FF48A72 		mov	r2, #276
 2164 0090 0021     		movs	r1, #0
 2165 0092 8769     		ldr	r7, [r0, #24]
 2166 0094 B847     		blx	r7
ARM GAS  /tmp/cccFXynL.s 			page 39


 2167              	.LVL266:
 2168              	.LBE136:
 2169              	.LBE135:
 2170              		.loc 1 441 0 discriminator 3
 2171 0096 6868     		ldr	r0, [r5, #4]
 2172              	.LVL267:
 2173              	.LBB137:
 2174              	.LBB138:
 2175              		.loc 2 142 0 discriminator 3
 2176 0098 4FF48C71 		mov	r1, #280
 2177 009c 0369     		ldr	r3, [r0, #16]
 2178 009e 9847     		blx	r3
 2179              	.LVL268:
 2180              	.LBE138:
 2181              	.LBE137:
 2182              		.loc 1 441 0 discriminator 3
 2183 00a0 44F8040B 		str	r0, [r4], #4
 2184              	.LVL269:
 2185              		.loc 1 437 0 discriminator 3
 2186 00a4 A045     		cmp	r8, r4
 2187 00a6 EED1     		bne	.L223
 2188              	.LVL270:
 2189              	.L213:
 2190              		.loc 1 443 0
 2191 00a8 BDE8F087 		pop	{r4, r5, r6, r7, r8, r9, r10, pc}
 2192              	.LVL271:
 2193              	.L225:
 2194              		.align	2
 2195              	.L224:
 2196 00ac 04000000 		.word	.LANCHOR2+4
 2197 00b0 F0ED00E0 		.word	-536810000
 2198 00b4 00000000 		.word	.LANCHOR3
 2199              		.cfi_endproc
 2200              	.LFE273:
 2201              		.size	cortexm_regs_read, .-cortexm_regs_read
 2202              		.section	.text.cortexm_priv_free,"ax",%progbits
 2203              		.align	1
 2204              		.p2align 4,,15
 2205              		.syntax unified
 2206              		.thumb
 2207              		.thumb_func
 2208              		.fpu fpv4-sp-d16
 2209              		.type	cortexm_priv_free, %function
 2210              	cortexm_priv_free:
 2211              	.LFB268:
 2212              		.loc 1 238 0
 2213              		.cfi_startproc
 2214              		@ args = 0, pretend = 0, frame = 0
 2215              		@ frame_needed = 0, uses_anonymous_args = 0
 2216              	.LVL272:
 2217 0000 10B5     		push	{r4, lr}
 2218              		.cfi_def_cfa_offset 8
 2219              		.cfi_offset 4, -8
 2220              		.cfi_offset 14, -4
 2221              		.loc 1 238 0
 2222 0002 0446     		mov	r4, r0
 2223              		.loc 1 239 0
ARM GAS  /tmp/cccFXynL.s 			page 40


 2224 0004 0068     		ldr	r0, [r0]
 2225              	.LVL273:
 2226 0006 FFF7FEFF 		bl	adiv5_ap_unref
 2227              	.LVL274:
 2228              		.loc 1 240 0
 2229 000a 2046     		mov	r0, r4
 2230              		.loc 1 241 0
 2231 000c BDE81040 		pop	{r4, lr}
 2232              		.cfi_restore 14
 2233              		.cfi_restore 4
 2234              		.cfi_def_cfa_offset 0
 2235              	.LVL275:
 2236              		.loc 1 240 0
 2237 0010 FFF7FEBF 		b	free
 2238              	.LVL276:
 2239              		.cfi_endproc
 2240              	.LFE268:
 2241              		.size	cortexm_priv_free, .-cortexm_priv_free
 2242              		.section	.text.cortexm_forced_halt,"ax",%progbits
 2243              		.align	1
 2244              		.p2align 4,,15
 2245              		.syntax unified
 2246              		.thumb
 2247              		.thumb_func
 2248              		.fpu fpv4-sp-d16
 2249              		.type	cortexm_forced_halt, %function
 2250              	cortexm_forced_halt:
 2251              	.LFB269:
 2252              		.loc 1 244 0
 2253              		.cfi_startproc
 2254              		@ args = 0, pretend = 0, frame = 0
 2255              		@ frame_needed = 0, uses_anonymous_args = 0
 2256              	.LVL277:
 2257 0000 F8B5     		push	{r3, r4, r5, r6, r7, lr}
 2258              		.cfi_def_cfa_offset 24
 2259              		.cfi_offset 3, -24
 2260              		.cfi_offset 4, -20
 2261              		.cfi_offset 5, -16
 2262              		.cfi_offset 6, -12
 2263              		.cfi_offset 7, -8
 2264              		.cfi_offset 14, -4
 2265              		.loc 1 244 0
 2266 0002 0446     		mov	r4, r0
 2267              		.loc 1 245 0
 2268 0004 FFF7FEFF 		bl	target_halt_request
 2269              	.LVL278:
 2270              		.loc 1 246 0
 2271 0008 0020     		movs	r0, #0
 2272 000a FFF7FEFF 		bl	platform_srst_set_val
 2273              	.LVL279:
 2274              		.loc 1 248 0
 2275 000e FFF7FEFF 		bl	platform_time_ms
 2276              	.LVL280:
 2277 0012 0C4F     		ldr	r7, .L234
 2278              		.loc 1 252 0
 2279 0014 0C4E     		ldr	r6, .L234+4
 2280              		.loc 1 248 0
ARM GAS  /tmp/cccFXynL.s 			page 41


 2281 0016 0546     		mov	r5, r0
 2282              	.LVL281:
 2283              		.loc 1 251 0
 2284 0018 07E0     		b	.L229
 2285              	.LVL282:
 2286              	.L231:
 2287              		.loc 1 252 0
 2288 001a FFF7FEFF 		bl	target_mem_read32
 2289              	.LVL283:
 2290              		.loc 1 253 0
 2291 001e B0F1031F 		cmp	r0, #196611
 2292              		.loc 1 256 0
 2293 0022 2046     		mov	r0, r4
 2294              	.LVL284:
 2295              		.loc 1 253 0
 2296 0024 0BD0     		beq	.L232
 2297              	.LVL285:
 2298              		.loc 1 256 0
 2299 0026 FFF7FEFF 		bl	target_halt_request
 2300              	.LVL286:
 2301              	.L229:
 2302              		.loc 1 251 0
 2303 002a FFF7FEFF 		bl	platform_time_ms
 2304              	.LVL287:
 2305 002e 3B68     		ldr	r3, [r7]
 2306 0030 2B44     		add	r3, r3, r5
 2307 0032 9842     		cmp	r0, r3
 2308              		.loc 1 252 0
 2309 0034 3146     		mov	r1, r6
 2310 0036 2046     		mov	r0, r4
 2311              		.loc 1 251 0
 2312 0038 EFD3     		bcc	.L231
 2313              	.LVL288:
 2314              		.loc 1 259 0
 2315 003a 0020     		movs	r0, #0
 2316              	.LVL289:
 2317              		.loc 1 261 0
 2318 003c F8BD     		pop	{r3, r4, r5, r6, r7, pc}
 2319              	.LVL290:
 2320              	.L232:
 2321              		.loc 1 260 0
 2322 003e 0120     		movs	r0, #1
 2323              	.LVL291:
 2324              		.loc 1 261 0
 2325 0040 F8BD     		pop	{r3, r4, r5, r6, r7, pc}
 2326              	.LVL292:
 2327              	.L235:
 2328 0042 00BF     		.align	2
 2329              	.L234:
 2330 0044 00000000 		.word	cortexm_wait_timeout
 2331 0048 F0ED00E0 		.word	-536810000
 2332              		.cfi_endproc
 2333              	.LFE269:
 2334              		.size	cortexm_forced_halt, .-cortexm_forced_halt
 2335              		.section	.text.cortexm_attach,"ax",%progbits
 2336              		.align	1
 2337              		.p2align 4,,15
ARM GAS  /tmp/cccFXynL.s 			page 42


 2338              		.global	cortexm_attach
 2339              		.syntax unified
 2340              		.thumb
 2341              		.thumb_func
 2342              		.fpu fpv4-sp-d16
 2343              		.type	cortexm_attach, %function
 2344              	cortexm_attach:
 2345              	.LFB271:
 2346              		.loc 1 345 0
 2347              		.cfi_startproc
 2348              		@ args = 0, pretend = 0, frame = 0
 2349              		@ frame_needed = 0, uses_anonymous_args = 0
 2350              	.LVL293:
 2351 0000 2DE9F047 		push	{r4, r5, r6, r7, r8, r9, r10, lr}
 2352              		.cfi_def_cfa_offset 32
 2353              		.cfi_offset 4, -32
 2354              		.cfi_offset 5, -28
 2355              		.cfi_offset 6, -24
 2356              		.cfi_offset 7, -20
 2357              		.cfi_offset 8, -16
 2358              		.cfi_offset 9, -12
 2359              		.cfi_offset 10, -8
 2360              		.cfi_offset 14, -4
 2361              		.loc 1 345 0
 2362 0004 0446     		mov	r4, r0
 2363              		.loc 1 346 0
 2364 0006 C56E     		ldr	r5, [r0, #108]
 2365              	.LVL294:
 2366              		.loc 1 351 0
 2367 0008 FFF7FEFF 		bl	target_check_error
 2368              	.LVL295:
 2369              		.loc 1 353 0
 2370 000c 2046     		mov	r0, r4
 2371 000e FFF7FEFF 		bl	target_halt_request
 2372              	.LVL296:
 2373              		.loc 1 354 0
 2374 0012 2046     		mov	r0, r4
 2375 0014 FFF7FEFF 		bl	cortexm_forced_halt
 2376              	.LVL297:
 2377 0018 8046     		mov	r8, r0
 2378 001a 10B9     		cbnz	r0, .L256
 2379              		.loc 1 391 0
 2380 001c 4046     		mov	r0, r8
 2381 001e BDE8F087 		pop	{r4, r5, r6, r7, r8, r9, r10, pc}
 2382              	.LVL298:
 2383              	.L256:
 2384              		.loc 1 358 0
 2385 0022 2A6A     		ldr	r2, [r5, #32]
 2386 0024 2D49     		ldr	r1, .L257
 2387 0026 2046     		mov	r0, r4
 2388 0028 FFF7FEFF 		bl	target_mem_write32
 2389              	.LVL299:
 2390              		.loc 1 361 0
 2391 002c 1F22     		movs	r2, #31
 2392 002e 2C49     		ldr	r1, .L257+4
 2393 0030 2046     		mov	r0, r4
 2394 0032 FFF7FEFF 		bl	target_mem_write32
ARM GAS  /tmp/cccFXynL.s 			page 43


 2395              	.LVL300:
 2396              		.loc 1 364 0
 2397 0036 0623     		movs	r3, #6
 2398 0038 EB61     		str	r3, [r5, #28]
 2399              		.loc 1 365 0
 2400 003a 2A49     		ldr	r1, .L257+8
 2401 003c 2046     		mov	r0, r4
 2402 003e FFF7FEFF 		bl	target_mem_read32
 2403              	.LVL301:
 2404              		.loc 1 366 0
 2405 0042 EA69     		ldr	r2, [r5, #28]
 2406              		.loc 1 370 0
 2407 0044 2849     		ldr	r1, .L257+12
 2408              		.loc 1 366 0
 2409 0046 C0F30313 		ubfx	r3, r0, #4, #4
 2410 004a 9342     		cmp	r3, r2
 2411              		.loc 1 367 0
 2412 004c 38BF     		it	cc
 2413 004e EB61     		strcc	r3, [r5, #28]
 2414              		.loc 1 368 0
 2415 0050 000F     		lsrs	r0, r0, #28
 2416              	.LVL302:
 2417              		.loc 1 369 0
 2418 0052 0423     		movs	r3, #4
 2419 0054 C5E90303 		strd	r0, r3, [r5, #12]
 2420              		.loc 1 370 0
 2421 0058 2046     		mov	r0, r4
 2422 005a FFF7FEFF 		bl	target_mem_read32
 2423              	.LVL303:
 2424              		.loc 1 371 0
 2425 005e 2B69     		ldr	r3, [r5, #16]
 2426 0060 000F     		lsrs	r0, r0, #28
 2427              	.LVL304:
 2428 0062 9842     		cmp	r0, r3
 2429              		.loc 1 375 0
 2430 0064 EB69     		ldr	r3, [r5, #28]
 2431              		.loc 1 372 0
 2432 0066 88BF     		it	hi
 2433 0068 2861     		strhi	r0, [r5, #16]
 2434              		.loc 1 375 0
 2435 006a B3B1     		cbz	r3, .L240
 2436 006c 6FF01309 		mvn	r9, #19
 2437 0070 1E4F     		ldr	r7, .L257+16
 2438 0072 A9EB0509 		sub	r9, r9, r5
 2439 0076 05F11406 		add	r6, r5, #20
 2440              		.loc 1 376 0
 2441 007a 4FF0000A 		mov	r10, #0
 2442              	.LVL305:
 2443              	.L241:
 2444              		.loc 1 376 0 is_stmt 0 discriminator 3
 2445 007e 0022     		movs	r2, #0
 2446 0080 3946     		mov	r1, r7
 2447 0082 2046     		mov	r0, r4
 2448 0084 FFF7FEFF 		bl	target_mem_write32
 2449              	.LVL306:
 2450              		.loc 1 377 0 is_stmt 1 discriminator 3
 2451 0088 06F801AB 		strb	r10, [r6], #1
ARM GAS  /tmp/cccFXynL.s 			page 44


 2452              	.LVL307:
 2453              		.loc 1 375 0 discriminator 3
 2454 008c EA69     		ldr	r2, [r5, #28]
 2455 008e 09EB0603 		add	r3, r9, r6
 2456 0092 9A42     		cmp	r2, r3
 2457 0094 07F10407 		add	r7, r7, #4
 2458 0098 F1D8     		bhi	.L241
 2459              	.LVL308:
 2460              	.L240:
 2461              		.loc 1 381 0
 2462 009a 2B69     		ldr	r3, [r5, #16]
 2463 009c ABB1     		cbz	r3, .L242
 2464 009e 6FF00509 		mvn	r9, #5
 2465 00a2 134F     		ldr	r7, .L257+20
 2466 00a4 A9EB0509 		sub	r9, r9, r5
 2467 00a8 AE1D     		adds	r6, r5, #6
 2468              		.loc 1 382 0
 2469 00aa 4FF0000A 		mov	r10, #0
 2470              	.LVL309:
 2471              	.L243:
 2472              		.loc 1 382 0 is_stmt 0 discriminator 3
 2473 00ae 0022     		movs	r2, #0
 2474 00b0 3946     		mov	r1, r7
 2475 00b2 2046     		mov	r0, r4
 2476 00b4 FFF7FEFF 		bl	target_mem_write32
 2477              	.LVL310:
 2478              		.loc 1 383 0 is_stmt 1 discriminator 3
 2479 00b8 06F801AB 		strb	r10, [r6], #1
 2480              	.LVL311:
 2481              		.loc 1 381 0 discriminator 3
 2482 00bc 2A69     		ldr	r2, [r5, #16]
 2483 00be 09EB0603 		add	r3, r9, r6
 2484 00c2 9A42     		cmp	r2, r3
 2485 00c4 07F11007 		add	r7, r7, #16
 2486 00c8 F1D8     		bhi	.L243
 2487              	.LVL312:
 2488              	.L242:
 2489              		.loc 1 387 0
 2490 00ca 2046     		mov	r0, r4
 2491 00cc 0322     		movs	r2, #3
 2492 00ce 0549     		ldr	r1, .L257+8
 2493 00d0 FFF7FEFF 		bl	target_mem_write32
 2494              	.LVL313:
 2495              		.loc 1 391 0
 2496 00d4 4046     		mov	r0, r8
 2497 00d6 BDE8F087 		pop	{r4, r5, r6, r7, r8, r9, r10, pc}
 2498              	.LVL314:
 2499              	.L258:
 2500 00da 00BF     		.align	2
 2501              	.L257:
 2502 00dc FCED00E0 		.word	-536809988
 2503 00e0 30ED00E0 		.word	-536810192
 2504 00e4 002000E0 		.word	-536862720
 2505 00e8 001000E0 		.word	-536866816
 2506 00ec 082000E0 		.word	-536862712
 2507 00f0 281000E0 		.word	-536866776
 2508              		.cfi_endproc
ARM GAS  /tmp/cccFXynL.s 			page 45


 2509              	.LFE271:
 2510              		.size	cortexm_attach, .-cortexm_attach
 2511              		.section	.text.cortexm_reset,"ax",%progbits
 2512              		.align	1
 2513              		.p2align 4,,15
 2514              		.global	cortexm_reset
 2515              		.syntax unified
 2516              		.thumb
 2517              		.thumb_func
 2518              		.fpu fpv4-sp-d16
 2519              		.type	cortexm_reset, %function
 2520              	cortexm_reset:
 2521              	.LFB278:
 2522              		.loc 1 502 0
 2523              		.cfi_startproc
 2524              		@ args = 0, pretend = 0, frame = 0
 2525              		@ frame_needed = 0, uses_anonymous_args = 0
 2526              	.LVL315:
 2527 0000 38B5     		push	{r3, r4, r5, lr}
 2528              		.cfi_def_cfa_offset 16
 2529              		.cfi_offset 3, -16
 2530              		.cfi_offset 4, -12
 2531              		.cfi_offset 5, -8
 2532              		.cfi_offset 14, -4
 2533              		.loc 1 502 0
 2534 0002 0446     		mov	r4, r0
 2535              		.loc 1 503 0
 2536 0004 C06C     		ldr	r0, [r0, #76]
 2537              	.LVL316:
 2538 0006 10F00405 		ands	r5, r0, #4
 2539 000a 1DD0     		beq	.L268
 2540              	.L260:
 2541              		.loc 1 509 0
 2542 000c 1249     		ldr	r1, .L269
 2543 000e 2046     		mov	r0, r4
 2544 0010 FFF7FEFF 		bl	target_mem_read32
 2545              	.LVL317:
 2546              		.loc 1 515 0
 2547 0014 114A     		ldr	r2, .L269+4
 2548 0016 1249     		ldr	r1, .L269+8
 2549 0018 2046     		mov	r0, r4
 2550 001a FFF7FEFF 		bl	target_mem_write32
 2551              	.LVL318:
 2552              		.loc 1 519 0
 2553 001e 236B     		ldr	r3, [r4, #48]
 2554 0020 0BB1     		cbz	r3, .L261
 2555              		.loc 1 520 0
 2556 0022 2046     		mov	r0, r4
 2557 0024 9847     		blx	r3
 2558              	.LVL319:
 2559              	.L261:
 2560              		.loc 1 524 0 discriminator 1
 2561 0026 0C4D     		ldr	r5, .L269
 2562              	.L262:
 2563 0028 2946     		mov	r1, r5
 2564 002a 2046     		mov	r0, r4
 2565 002c FFF7FEFF 		bl	target_mem_read32
ARM GAS  /tmp/cccFXynL.s 			page 46


 2566              	.LVL320:
 2567 0030 8301     		lsls	r3, r0, #6
 2568 0032 F9D4     		bmi	.L262
 2569              		.loc 1 527 0
 2570 0034 2046     		mov	r0, r4
 2571 0036 1F22     		movs	r2, #31
 2572 0038 0A49     		ldr	r1, .L269+12
 2573 003a FFF7FEFF 		bl	target_mem_write32
 2574              	.LVL321:
 2575              		.loc 1 532 0
 2576 003e 0120     		movs	r0, #1
 2577              		.loc 1 533 0
 2578 0040 BDE83840 		pop	{r3, r4, r5, lr}
 2579              		.cfi_remember_state
 2580              		.cfi_restore 14
 2581              		.cfi_restore 5
 2582              		.cfi_restore 4
 2583              		.cfi_restore 3
 2584              		.cfi_def_cfa_offset 0
 2585              	.LVL322:
 2586              		.loc 1 532 0
 2587 0044 FFF7FEBF 		b	platform_delay
 2588              	.LVL323:
 2589              	.L268:
 2590              		.cfi_restore_state
 2591              		.loc 1 504 0
 2592 0048 0120     		movs	r0, #1
 2593 004a FFF7FEFF 		bl	platform_srst_set_val
 2594              	.LVL324:
 2595              		.loc 1 505 0
 2596 004e 2846     		mov	r0, r5
 2597 0050 FFF7FEFF 		bl	platform_srst_set_val
 2598              	.LVL325:
 2599 0054 DAE7     		b	.L260
 2600              	.L270:
 2601 0056 00BF     		.align	2
 2602              	.L269:
 2603 0058 F0ED00E0 		.word	-536810000
 2604 005c 0400FA05 		.word	100270084
 2605 0060 0CED00E0 		.word	-536810228
 2606 0064 30ED00E0 		.word	-536810192
 2607              		.cfi_endproc
 2608              	.LFE278:
 2609              		.size	cortexm_reset, .-cortexm_reset
 2610              		.section	.text.cortexm_cache_clean.isra.1,"ax",%progbits
 2611              		.align	1
 2612              		.p2align 4,,15
 2613              		.syntax unified
 2614              		.thumb
 2615              		.thumb_func
 2616              		.fpu fpv4-sp-d16
 2617              		.type	cortexm_cache_clean.isra.1, %function
 2618              	cortexm_cache_clean.isra.1:
 2619              	.LFB292:
 2620              		.loc 1 194 0
 2621              		.cfi_startproc
 2622              		@ args = 4, pretend = 0, frame = 8
ARM GAS  /tmp/cccFXynL.s 			page 47


 2623              		@ frame_needed = 0, uses_anonymous_args = 0
 2624              	.LVL326:
 2625 0000 2DE9F04F 		push	{r4, r5, r6, r7, r8, r9, r10, fp, lr}
 2626              		.cfi_def_cfa_offset 36
 2627              		.cfi_offset 4, -36
 2628              		.cfi_offset 5, -32
 2629              		.cfi_offset 6, -28
 2630              		.cfi_offset 7, -24
 2631              		.cfi_offset 8, -20
 2632              		.cfi_offset 9, -16
 2633              		.cfi_offset 10, -12
 2634              		.cfi_offset 11, -8
 2635              		.cfi_offset 14, -4
 2636 0004 0D46     		mov	r5, r1
 2637              		.loc 1 196 0
 2638 0006 0968     		ldr	r1, [r1]
 2639              	.LVL327:
 2640              		.loc 1 194 0
 2641 0008 83B0     		sub	sp, sp, #12
 2642              		.cfi_def_cfa_offset 48
 2643              		.loc 1 194 0
 2644 000a 8046     		mov	r8, r0
 2645              		.loc 1 197 0
 2646 000c 91F82400 		ldrb	r0, [r1, #36]	@ zero_extendqisi2
 2647              		.loc 1 194 0
 2648 0010 9DF83040 		ldrb	r4, [sp, #48]	@ zero_extendqisi2
 2649              		.loc 1 197 0
 2650 0014 78B3     		cbz	r0, .L271
 2651 0016 8E6A     		ldr	r6, [r1, #40]
 2652 0018 6EB3     		cbz	r6, .L271
 2653 001a 9246     		mov	r10, r2
 2654              		.loc 1 199 0
 2655 001c 174F     		ldr	r7, .L290
 2656 001e 184A     		ldr	r2, .L290+4
 2657              	.LVL328:
 2658              		.loc 1 203 0
 2659 0020 0AEB0309 		add	r9, r10, r3
 2660              		.loc 1 199 0
 2661 0024 002C     		cmp	r4, #0
 2662 0026 18BF     		it	ne
 2663 0028 1746     		movne	r7, r2
 2664              	.LVL329:
 2665              	.LBB139:
 2666              		.loc 1 205 0
 2667 002a B8F1000F 		cmp	r8, #0
 2668 002e 22D0     		beq	.L271
 2669 0030 C6F1000B 		rsb	fp, r6, #0
 2670              	.LVL330:
 2671              	.L276:
 2672              	.LBB140:
 2673              		.loc 1 207 0
 2674 0034 D8E90034 		ldrd	r3, r4, [r8]
 2675 0038 1C44     		add	r4, r4, r3
 2676              	.LVL331:
 2677 003a 4C45     		cmp	r4, r9
 2678 003c 28BF     		it	cs
 2679 003e 4C46     		movcs	r4, r9
ARM GAS  /tmp/cccFXynL.s 			page 48


 2680              	.LVL332:
 2681              		.loc 1 214 0
 2682 0040 9A45     		cmp	r10, r3
 2683 0042 2CBF     		ite	cs
 2684 0044 0BEA0A03 		andcs	r3, fp, r10
 2685 0048 0BEA0303 		andcc	r3, fp, r3
 2686 004c A342     		cmp	r3, r4
 2687 004e 0193     		str	r3, [sp, #4]
 2688 0050 0CD2     		bcs	.L274
 2689              	.L275:
 2690              	.LBB141:
 2691              	.LBB142:
 2692              		.loc 1 191 0
 2693 0052 2A68     		ldr	r2, [r5]
 2694              	.LBE142:
 2695              	.LBE141:
 2696              		.loc 1 215 0
 2697 0054 0423     		movs	r3, #4
 2698 0056 1068     		ldr	r0, [r2]
 2699 0058 3946     		mov	r1, r7
 2700 005a 0DEB0302 		add	r2, sp, r3
 2701 005e FFF7FEFF 		bl	adiv5_mem_write
 2702              	.LVL333:
 2703              		.loc 1 214 0
 2704 0062 019B     		ldr	r3, [sp, #4]
 2705 0064 3344     		add	r3, r3, r6
 2706 0066 A342     		cmp	r3, r4
 2707 0068 0193     		str	r3, [sp, #4]
 2708 006a F2D3     		bcc	.L275
 2709              	.L274:
 2710              	.LBE140:
 2711              		.loc 1 205 0
 2712 006c D8F80880 		ldr	r8, [r8, #8]
 2713              	.LVL334:
 2714 0070 B8F1000F 		cmp	r8, #0
 2715 0074 DED1     		bne	.L276
 2716              	.LVL335:
 2717              	.L271:
 2718              	.LBE139:
 2719              		.loc 1 217 0
 2720 0076 03B0     		add	sp, sp, #12
 2721              		.cfi_def_cfa_offset 36
 2722              		@ sp needed
 2723 0078 BDE8F08F 		pop	{r4, r5, r6, r7, r8, r9, r10, fp, pc}
 2724              	.LVL336:
 2725              	.L291:
 2726              		.align	2
 2727              	.L290:
 2728 007c 68EF00E0 		.word	-536809624
 2729 0080 70EF00E0 		.word	-536809616
 2730              		.cfi_endproc
 2731              	.LFE292:
 2732              		.size	cortexm_cache_clean.isra.1, .-cortexm_cache_clean.isra.1
 2733              		.section	.text.cortexm_mem_write,"ax",%progbits
 2734              		.align	1
 2735              		.p2align 4,,15
 2736              		.syntax unified
ARM GAS  /tmp/cccFXynL.s 			page 49


 2737              		.thumb
 2738              		.thumb_func
 2739              		.fpu fpv4-sp-d16
 2740              		.type	cortexm_mem_write, %function
 2741              	cortexm_mem_write:
 2742              	.LFB266:
 2743              		.loc 1 226 0
 2744              		.cfi_startproc
 2745              		@ args = 0, pretend = 0, frame = 0
 2746              		@ frame_needed = 0, uses_anonymous_args = 0
 2747              	.LVL337:
 2748 0000 F0B5     		push	{r4, r5, r6, r7, lr}
 2749              		.cfi_def_cfa_offset 20
 2750              		.cfi_offset 4, -20
 2751              		.cfi_offset 5, -16
 2752              		.cfi_offset 6, -12
 2753              		.cfi_offset 7, -8
 2754              		.cfi_offset 14, -4
 2755 0002 83B0     		sub	sp, sp, #12
 2756              		.cfi_def_cfa_offset 32
 2757              		.loc 1 226 0
 2758 0004 0446     		mov	r4, r0
 2759              		.loc 1 227 0
 2760 0006 0127     		movs	r7, #1
 2761              		.loc 1 226 0
 2762 0008 0D46     		mov	r5, r1
 2763              		.loc 1 227 0
 2764 000a 806D     		ldr	r0, [r0, #88]
 2765              	.LVL338:
 2766 000c 0097     		str	r7, [sp]
 2767              		.loc 1 226 0
 2768 000e 1646     		mov	r6, r2
 2769              		.loc 1 227 0
 2770 0010 0A46     		mov	r2, r1
 2771              	.LVL339:
 2772 0012 04F16C01 		add	r1, r4, #108
 2773              	.LVL340:
 2774              		.loc 1 226 0
 2775 0016 1F46     		mov	r7, r3
 2776              		.loc 1 227 0
 2777 0018 FFF7FEFF 		bl	cortexm_cache_clean.isra.1
 2778              	.LVL341:
 2779              	.LBB143:
 2780              	.LBB144:
 2781              		.loc 1 191 0
 2782 001c E26E     		ldr	r2, [r4, #108]
 2783              	.LBE144:
 2784              	.LBE143:
 2785              		.loc 1 228 0
 2786 001e 1068     		ldr	r0, [r2]
 2787 0020 3B46     		mov	r3, r7
 2788 0022 3246     		mov	r2, r6
 2789 0024 2946     		mov	r1, r5
 2790              		.loc 1 229 0
 2791 0026 03B0     		add	sp, sp, #12
 2792              		.cfi_def_cfa_offset 20
 2793              		@ sp needed
ARM GAS  /tmp/cccFXynL.s 			page 50


 2794 0028 BDE8F040 		pop	{r4, r5, r6, r7, lr}
 2795              		.cfi_restore 14
 2796              		.cfi_restore 7
 2797              		.cfi_restore 6
 2798              		.cfi_restore 5
 2799              		.cfi_restore 4
 2800              		.cfi_def_cfa_offset 0
 2801              	.LVL342:
 2802              		.loc 1 228 0
 2803 002c FFF7FEBF 		b	adiv5_mem_write
 2804              	.LVL343:
 2805              		.cfi_endproc
 2806              	.LFE266:
 2807              		.size	cortexm_mem_write, .-cortexm_mem_write
 2808              		.section	.text.cortexm_mem_read,"ax",%progbits
 2809              		.align	1
 2810              		.p2align 4,,15
 2811              		.syntax unified
 2812              		.thumb
 2813              		.thumb_func
 2814              		.fpu fpv4-sp-d16
 2815              		.type	cortexm_mem_read, %function
 2816              	cortexm_mem_read:
 2817              	.LFB265:
 2818              		.loc 1 220 0
 2819              		.cfi_startproc
 2820              		@ args = 0, pretend = 0, frame = 0
 2821              		@ frame_needed = 0, uses_anonymous_args = 0
 2822              	.LVL344:
 2823 0000 F0B5     		push	{r4, r5, r6, r7, lr}
 2824              		.cfi_def_cfa_offset 20
 2825              		.cfi_offset 4, -20
 2826              		.cfi_offset 5, -16
 2827              		.cfi_offset 6, -12
 2828              		.cfi_offset 7, -8
 2829              		.cfi_offset 14, -4
 2830 0002 83B0     		sub	sp, sp, #12
 2831              		.cfi_def_cfa_offset 32
 2832              		.loc 1 220 0
 2833 0004 0446     		mov	r4, r0
 2834              		.loc 1 221 0
 2835 0006 0025     		movs	r5, #0
 2836 0008 806D     		ldr	r0, [r0, #88]
 2837              	.LVL345:
 2838 000a 0095     		str	r5, [sp]
 2839              		.loc 1 220 0
 2840 000c 0D46     		mov	r5, r1
 2841              		.loc 1 221 0
 2842 000e 04F16C01 		add	r1, r4, #108
 2843              	.LVL346:
 2844              		.loc 1 220 0
 2845 0012 1646     		mov	r6, r2
 2846 0014 1F46     		mov	r7, r3
 2847              		.loc 1 221 0
 2848 0016 FFF7FEFF 		bl	cortexm_cache_clean.isra.1
 2849              	.LVL347:
 2850              	.LBB145:
ARM GAS  /tmp/cccFXynL.s 			page 51


 2851              	.LBB146:
 2852              		.loc 1 191 0
 2853 001a E26E     		ldr	r2, [r4, #108]
 2854              	.LBE146:
 2855              	.LBE145:
 2856              		.loc 1 222 0
 2857 001c 1068     		ldr	r0, [r2]
 2858 001e 3B46     		mov	r3, r7
 2859 0020 3246     		mov	r2, r6
 2860 0022 2946     		mov	r1, r5
 2861              		.loc 1 223 0
 2862 0024 03B0     		add	sp, sp, #12
 2863              		.cfi_def_cfa_offset 20
 2864              		@ sp needed
 2865 0026 BDE8F040 		pop	{r4, r5, r6, r7, lr}
 2866              		.cfi_restore 14
 2867              		.cfi_restore 7
 2868              		.cfi_restore 6
 2869              		.cfi_restore 5
 2870              		.cfi_restore 4
 2871              		.cfi_def_cfa_offset 0
 2872              	.LVL348:
 2873              		.loc 1 222 0
 2874 002a FFF7FEBF 		b	adiv5_mem_read
 2875              	.LVL349:
 2876              		.cfi_endproc
 2877              	.LFE265:
 2878              		.size	cortexm_mem_read, .-cortexm_mem_read
 2879 002e 00BF     		.section	.text.cortexm_ap,"ax",%progbits
 2880              		.align	1
 2881              		.p2align 4,,15
 2882              		.global	cortexm_ap
 2883              		.syntax unified
 2884              		.thumb
 2885              		.thumb_func
 2886              		.fpu fpv4-sp-d16
 2887              		.type	cortexm_ap, %function
 2888              	cortexm_ap:
 2889              	.LFB263:
 2890              		.loc 1 190 0
 2891              		.cfi_startproc
 2892              		@ args = 0, pretend = 0, frame = 0
 2893              		@ frame_needed = 0, uses_anonymous_args = 0
 2894              		@ link register save eliminated.
 2895              	.LVL350:
 2896              		.loc 1 191 0
 2897 0000 C36E     		ldr	r3, [r0, #108]
 2898              		.loc 1 192 0
 2899 0002 1868     		ldr	r0, [r3]
 2900              	.LVL351:
 2901 0004 7047     		bx	lr
 2902              		.cfi_endproc
 2903              	.LFE263:
 2904              		.size	cortexm_ap, .-cortexm_ap
 2905 0006 00BF     		.section	.text.cortexm_probe,"ax",%progbits
 2906              		.align	1
 2907              		.p2align 4,,15
ARM GAS  /tmp/cccFXynL.s 			page 52


 2908              		.global	cortexm_probe
 2909              		.syntax unified
 2910              		.thumb
 2911              		.thumb_func
 2912              		.fpu fpv4-sp-d16
 2913              		.type	cortexm_probe, %function
 2914              	cortexm_probe:
 2915              	.LFB270:
 2916              		.loc 1 264 0
 2917              		.cfi_startproc
 2918              		@ args = 0, pretend = 0, frame = 0
 2919              		@ frame_needed = 0, uses_anonymous_args = 0
 2920              	.LVL352:
 2921 0000 2DE9F041 		push	{r4, r5, r6, r7, r8, lr}
 2922              		.cfi_def_cfa_offset 24
 2923              		.cfi_offset 4, -24
 2924              		.cfi_offset 5, -20
 2925              		.cfi_offset 6, -16
 2926              		.cfi_offset 7, -12
 2927              		.cfi_offset 8, -8
 2928              		.cfi_offset 14, -4
 2929              		.loc 1 264 0
 2930 0004 0646     		mov	r6, r0
 2931 0006 0F46     		mov	r7, r1
 2932              		.loc 1 267 0
 2933 0008 FFF7FEFF 		bl	target_new
 2934              	.LVL353:
 2935 000c 0446     		mov	r4, r0
 2936              	.LVL354:
 2937              		.loc 1 268 0
 2938 000e 3046     		mov	r0, r6
 2939              	.LVL355:
 2940 0010 FFF7FEFF 		bl	adiv5_ap_ref
 2941              	.LVL356:
 2942              		.loc 1 269 0
 2943 0014 2C21     		movs	r1, #44
 2944 0016 0120     		movs	r0, #1
 2945 0018 FFF7FEFF 		bl	calloc
 2946              	.LVL357:
 2947              		.loc 1 271 0
 2948 001c DFF8C0C1 		ldr	ip, .L319+68
 2949              		.loc 1 275 0
 2950 0020 5E49     		ldr	r1, .L319
 2951              		.loc 1 276 0
 2952 0022 5F4B     		ldr	r3, .L319+4
 2953              		.loc 1 278 0
 2954 0024 5F4A     		ldr	r2, .L319+8
 2955              		.loc 1 269 0
 2956 0026 0546     		mov	r5, r0
 2957              	.LVL358:
 2958              		.loc 1 271 0
 2959 0028 C4E91B5C 		strd	r5, ip, [r4, #108]
 2960              		.loc 1 274 0
 2961 002c 5E48     		ldr	r0, .L319+12
 2962              	.LVL359:
 2963              		.loc 1 272 0
 2964 002e 2E60     		str	r6, [r5]
ARM GAS  /tmp/cccFXynL.s 			page 53


 2965              		.loc 1 275 0
 2966 0030 6161     		str	r1, [r4, #20]
 2967              		.loc 1 276 0
 2968 0032 A361     		str	r3, [r4, #24]
 2969              		.loc 1 284 0
 2970 0034 5D49     		ldr	r1, .L319+16
 2971              		.loc 1 285 0
 2972 0036 5E4B     		ldr	r3, .L319+20
 2973              		.loc 1 280 0
 2974 0038 DFF8A8C1 		ldr	ip, .L319+72
 2975              		.loc 1 274 0
 2976 003c 2061     		str	r0, [r4, #16]
 2977              		.loc 1 284 0
 2978 003e 2162     		str	r1, [r4, #32]
 2979              		.loc 1 281 0
 2980 0040 5C48     		ldr	r0, .L319+24
 2981              		.loc 1 289 0
 2982 0042 5D49     		ldr	r1, .L319+28
 2983              		.loc 1 285 0
 2984 0044 6362     		str	r3, [r4, #36]
 2985              		.loc 1 290 0
 2986 0046 5D4B     		ldr	r3, .L319+32
 2987              		.loc 1 280 0
 2988 0048 C4F808C0 		str	ip, [r4, #8]
 2989              		.loc 1 281 0
 2990 004c E060     		str	r0, [r4, #12]
 2991              		.loc 1 286 0
 2992 004e DFF898C1 		ldr	ip, .L319+76
 2993              		.loc 1 288 0
 2994 0052 5B48     		ldr	r0, .L319+36
 2995              		.loc 1 289 0
 2996 0054 6163     		str	r1, [r4, #52]
 2997              		.loc 1 290 0
 2998 0056 A363     		str	r3, [r4, #56]
 2999              		.loc 1 294 0
 3000 0058 5A49     		ldr	r1, .L319+40
 3001              		.loc 1 295 0
 3002 005a 5B4B     		ldr	r3, .L319+44
 3003              		.loc 1 286 0
 3004 005c C4F828C0 		str	ip, [r4, #40]
 3005              		.loc 1 288 0
 3006 0060 E062     		str	r0, [r4, #44]
 3007              		.loc 1 291 0
 3008 0062 DFF888C1 		ldr	ip, .L319+80
 3009 0066 C4F83CC0 		str	ip, [r4, #60]
 3010              		.loc 1 292 0
 3011 006a 5020     		movs	r0, #80
 3012              		.loc 1 295 0
 3013 006c C4E91013 		strd	r1, r3, [r4, #64]
 3014              		.loc 1 278 0
 3015 0070 2266     		str	r2, [r4, #96]
 3016              		.loc 1 292 0
 3017 0072 E061     		str	r0, [r4, #28]
 3018              		.loc 1 297 0
 3019 0074 5549     		ldr	r1, .L319+48
 3020 0076 2046     		mov	r0, r4
 3021 0078 FFF7FEFF 		bl	target_add_commands
ARM GAS  /tmp/cccFXynL.s 			page 54


 3022              	.LVL360:
 3023              		.loc 1 300 0
 3024 007c 5449     		ldr	r1, .L319+52
 3025 007e 2046     		mov	r0, r4
 3026 0080 FFF7FEFF 		bl	target_mem_read32
 3027              	.LVL361:
 3028              		.loc 1 301 0
 3029 0084 40F47008 		orr	r8, r0, #15728640
 3030              	.LVL362:
 3031              		.loc 1 302 0
 3032 0088 4246     		mov	r2, r8
 3033 008a 2046     		mov	r0, r4
 3034 008c 5049     		ldr	r1, .L319+52
 3035 008e FFF7FEFF 		bl	target_mem_write32
 3036              	.LVL363:
 3037              		.loc 1 303 0
 3038 0092 2046     		mov	r0, r4
 3039 0094 4E49     		ldr	r1, .L319+52
 3040 0096 FFF7FEFF 		bl	target_mem_read32
 3041              	.LVL364:
 3042 009a 4045     		cmp	r0, r8
 3043 009c 08D1     		bne	.L298
 3044              		.loc 1 304 0
 3045 009e E26C     		ldr	r2, [r4, #76]
 3046              		.loc 1 305 0
 3047 00a0 E369     		ldr	r3, [r4, #28]
 3048              		.loc 1 306 0
 3049 00a2 4C49     		ldr	r1, .L319+56
 3050 00a4 2162     		str	r1, [r4, #32]
 3051              		.loc 1 304 0
 3052 00a6 42F00202 		orr	r2, r2, #2
 3053              		.loc 1 305 0
 3054 00aa 8433     		adds	r3, r3, #132
 3055              		.loc 1 304 0
 3056 00ac E264     		str	r2, [r4, #76]
 3057              		.loc 1 305 0
 3058 00ae E361     		str	r3, [r4, #28]
 3059              	.L298:
 3060              		.loc 1 310 0
 3061 00b0 494B     		ldr	r3, .L319+60
 3062 00b2 2B62     		str	r3, [r5, #32]
 3063              		.loc 1 314 0
 3064 00b4 4949     		ldr	r1, .L319+64
 3065 00b6 2046     		mov	r0, r4
 3066 00b8 FFF7FEFF 		bl	target_mem_read32
 3067              	.LVL365:
 3068              		.loc 1 315 0
 3069 00bc 430F     		lsrs	r3, r0, #29
 3070 00be 042B     		cmp	r3, #4
 3071 00c0 59D1     		bne	.L299
 3072              		.loc 1 317 0
 3073 00c2 00F00F00 		and	r0, r0, #15
 3074              	.LVL366:
 3075 00c6 8340     		lsls	r3, r3, r0
 3076              		.loc 1 316 0
 3077 00c8 0122     		movs	r2, #1
 3078              		.loc 1 317 0
ARM GAS  /tmp/cccFXynL.s 			page 55


 3079 00ca AB62     		str	r3, [r5, #40]
 3080              		.loc 1 316 0
 3081 00cc 85F82420 		strb	r2, [r5, #36]
 3082              	.L300:
 3083              		.loc 1 326 0
 3084 00d0 1FB1     		cbz	r7, .L304
 3085              		.loc 1 326 0 is_stmt 0 discriminator 1
 3086 00d2 7368     		ldr	r3, [r6, #4]
 3087 00d4 DB68     		ldr	r3, [r3, #12]
 3088 00d6 002B     		cmp	r3, #0
 3089 00d8 3FD0     		beq	.L317
 3090              	.L304:
 3091              		.loc 1 333 0 is_stmt 1
 3092 00da 2046     		mov	r0, r4
 3093 00dc FFF7FEFF 		bl	stm32f1_probe
 3094              	.LVL367:
 3095 00e0 0546     		mov	r5, r0
 3096              	.LVL368:
 3097 00e2 0646     		mov	r6, r0
 3098              	.LVL369:
 3099 00e4 90BB     		cbnz	r0, .L318
 3100              	.L311:
 3101              		.loc 1 333 0 is_stmt 0 discriminator 2
 3102 00e6 2046     		mov	r0, r4
 3103 00e8 FFF7FEFF 		bl	target_check_error
 3104              	.LVL370:
 3105              		.loc 1 334 0 is_stmt 1 discriminator 2
 3106 00ec 2046     		mov	r0, r4
 3107 00ee FFF7FEFF 		bl	stm32f4_probe
 3108              	.LVL371:
 3109 00f2 0546     		mov	r5, r0
 3110 00f4 0746     		mov	r7, r0
 3111 00f6 0028     		cmp	r0, #0
 3112 00f8 41D1     		bne	.L315
 3113 00fa 2046     		mov	r0, r4
 3114 00fc FFF7FEFF 		bl	target_check_error
 3115              	.LVL372:
 3116              		.loc 1 335 0 discriminator 2
 3117 0100 2046     		mov	r0, r4
 3118 0102 FFF7FEFF 		bl	stm32h7_probe
 3119              	.LVL373:
 3120 0106 0546     		mov	r5, r0
 3121 0108 0646     		mov	r6, r0
 3122 010a 0028     		cmp	r0, #0
 3123 010c 3ED1     		bne	.L314
 3124 010e 2046     		mov	r0, r4
 3125 0110 FFF7FEFF 		bl	target_check_error
 3126              	.LVL374:
 3127              		.loc 1 336 0 discriminator 2
 3128 0114 2046     		mov	r0, r4
 3129 0116 FFF7FEFF 		bl	stm32l0_probe
 3130              	.LVL375:
 3131 011a 0546     		mov	r5, r0
 3132 011c 0746     		mov	r7, r0
 3133 011e 70BB     		cbnz	r0, .L315
 3134 0120 2046     		mov	r0, r4
 3135 0122 FFF7FEFF 		bl	target_check_error
ARM GAS  /tmp/cccFXynL.s 			page 56


 3136              	.LVL376:
 3137              		.loc 1 337 0 discriminator 2
 3138 0126 2046     		mov	r0, r4
 3139 0128 FFF7FEFF 		bl	stm32l4_probe
 3140              	.LVL377:
 3141 012c 0546     		mov	r5, r0
 3142 012e 0646     		mov	r6, r0
 3143 0130 60BB     		cbnz	r0, .L314
 3144 0132 2046     		mov	r0, r4
 3145 0134 FFF7FEFF 		bl	target_check_error
 3146              	.LVL378:
 3147              		.loc 1 338 0 discriminator 2
 3148 0138 2046     		mov	r0, r4
 3149 013a FFF7FEFF 		bl	nrf51_probe
 3150              	.LVL379:
 3151 013e 0546     		mov	r5, r0
 3152 0140 E8B9     		cbnz	r0, .L315
 3153 0142 2046     		mov	r0, r4
 3154 0144 FFF7FEFF 		bl	target_check_error
 3155              	.LVL380:
 3156              		.loc 1 341 0 discriminator 2
 3157 0148 0125     		movs	r5, #1
 3158 014a 03E0     		b	.L305
 3159              	.L318:
 3160              		.loc 1 333 0 discriminator 1
 3161 014c 2046     		mov	r0, r4
 3162 014e 0021     		movs	r1, #0
 3163 0150 FFF7FEFF 		bl	target_halt_resume
 3164              	.LVL381:
 3165              	.L305:
 3166              		.loc 1 342 0
 3167 0154 2846     		mov	r0, r5
 3168 0156 BDE8F081 		pop	{r4, r5, r6, r7, r8, pc}
 3169              	.LVL382:
 3170              	.L317:
 3171              		.loc 1 327 0
 3172 015a 2046     		mov	r0, r4
 3173 015c FFF7FEFF 		bl	cortexm_forced_halt
 3174              	.LVL383:
 3175 0160 0546     		mov	r5, r0
 3176              	.LVL384:
 3177 0162 0028     		cmp	r0, #0
 3178 0164 F6D0     		beq	.L305
 3179              		.loc 1 333 0
 3180 0166 2046     		mov	r0, r4
 3181 0168 FFF7FEFF 		bl	stm32f1_probe
 3182              	.LVL385:
 3183 016c 0546     		mov	r5, r0
 3184 016e 0646     		mov	r6, r0
 3185              	.LVL386:
 3186 0170 0028     		cmp	r0, #0
 3187 0172 B8D0     		beq	.L311
 3188 0174 EAE7     		b	.L318
 3189              	.LVL387:
 3190              	.L299:
 3191              		.loc 1 319 0
 3192 0176 2046     		mov	r0, r4
ARM GAS  /tmp/cccFXynL.s 			page 57


 3193              	.LVL388:
 3194 0178 FFF7FEFF 		bl	target_check_error
 3195              	.LVL389:
 3196 017c A8E7     		b	.L300
 3197              	.LVL390:
 3198              	.L315:
 3199              		.loc 1 338 0 discriminator 1
 3200 017e 2046     		mov	r0, r4
 3201 0180 3146     		mov	r1, r6
 3202 0182 FFF7FEFF 		bl	target_halt_resume
 3203              	.LVL391:
 3204              		.loc 1 342 0 discriminator 1
 3205 0186 2846     		mov	r0, r5
 3206 0188 BDE8F081 		pop	{r4, r5, r6, r7, r8, pc}
 3207              	.LVL392:
 3208              	.L314:
 3209              		.loc 1 337 0 discriminator 1
 3210 018c 2046     		mov	r0, r4
 3211 018e 3946     		mov	r1, r7
 3212 0190 FFF7FEFF 		bl	target_halt_resume
 3213              	.LVL393:
 3214              		.loc 1 342 0 discriminator 1
 3215 0194 2846     		mov	r0, r5
 3216 0196 BDE8F081 		pop	{r4, r5, r6, r7, r8, pc}
 3217              	.LVL394:
 3218              	.L320:
 3219 019a 00BF     		.align	2
 3220              	.L319:
 3221 019c 00000000 		.word	cortexm_mem_read
 3222 01a0 00000000 		.word	cortexm_mem_write
 3223 01a4 00000000 		.word	.LANCHOR4
 3224 01a8 00000000 		.word	cortexm_check_error
 3225 01ac 00000000 		.word	.LANCHOR5
 3226 01b0 00000000 		.word	cortexm_regs_read
 3227 01b4 00000000 		.word	cortexm_detach
 3228 01b8 00000000 		.word	cortexm_halt_request
 3229 01bc 00000000 		.word	cortexm_halt_poll
 3230 01c0 00000000 		.word	cortexm_reset
 3231 01c4 00000000 		.word	cortexm_breakwatch_set
 3232 01c8 00000000 		.word	cortexm_breakwatch_clear
 3233 01cc 00000000 		.word	.LANCHOR6
 3234 01d0 88ED00E0 		.word	-536810104
 3235 01d4 00000000 		.word	.LANCHOR7
 3236 01d8 01040001 		.word	16778241
 3237 01dc 7CED00E0 		.word	-536810116
 3238 01e0 00000000 		.word	cortexm_priv_free
 3239 01e4 00000000 		.word	cortexm_attach
 3240 01e8 00000000 		.word	cortexm_regs_write
 3241 01ec 00000000 		.word	cortexm_halt_resume
 3242              		.cfi_endproc
 3243              	.LFE270:
 3244              		.size	cortexm_probe, .-cortexm_probe
 3245              		.section	.text.cortexm_mem_write_sized,"ax",%progbits
 3246              		.align	1
 3247              		.p2align 4,,15
 3248              		.global	cortexm_mem_write_sized
 3249              		.syntax unified
ARM GAS  /tmp/cccFXynL.s 			page 58


 3250              		.thumb
 3251              		.thumb_func
 3252              		.fpu fpv4-sp-d16
 3253              		.type	cortexm_mem_write_sized, %function
 3254              	cortexm_mem_write_sized:
 3255              	.LFB275:
 3256              		.loc 1 481 0
 3257              		.cfi_startproc
 3258              		@ args = 4, pretend = 0, frame = 0
 3259              		@ frame_needed = 0, uses_anonymous_args = 0
 3260              	.LVL395:
 3261 0000 2DE9F041 		push	{r4, r5, r6, r7, r8, lr}
 3262              		.cfi_def_cfa_offset 24
 3263              		.cfi_offset 4, -24
 3264              		.cfi_offset 5, -20
 3265              		.cfi_offset 6, -16
 3266              		.cfi_offset 7, -12
 3267              		.cfi_offset 8, -8
 3268              		.cfi_offset 14, -4
 3269 0004 82B0     		sub	sp, sp, #8
 3270              		.cfi_def_cfa_offset 32
 3271              		.loc 1 481 0
 3272 0006 0446     		mov	r4, r0
 3273              		.loc 1 482 0
 3274 0008 0127     		movs	r7, #1
 3275              		.loc 1 481 0
 3276 000a 0D46     		mov	r5, r1
 3277              		.loc 1 482 0
 3278 000c 806D     		ldr	r0, [r0, #88]
 3279              	.LVL396:
 3280 000e 0097     		str	r7, [sp]
 3281              		.loc 1 481 0
 3282 0010 1646     		mov	r6, r2
 3283              		.loc 1 482 0
 3284 0012 0A46     		mov	r2, r1
 3285              	.LVL397:
 3286 0014 04F16C01 		add	r1, r4, #108
 3287              	.LVL398:
 3288              		.loc 1 481 0
 3289 0018 1F46     		mov	r7, r3
 3290 001a 9DF82080 		ldrb	r8, [sp, #32]	@ zero_extendqisi2
 3291              		.loc 1 482 0
 3292 001e FFF7FEFF 		bl	cortexm_cache_clean.isra.1
 3293              	.LVL399:
 3294              	.LBB147:
 3295              	.LBB148:
 3296              		.loc 1 191 0
 3297 0022 E36E     		ldr	r3, [r4, #108]
 3298              	.LBE148:
 3299              	.LBE147:
 3300              		.loc 1 483 0
 3301 0024 3246     		mov	r2, r6
 3302 0026 1868     		ldr	r0, [r3]
 3303 0028 CDF80080 		str	r8, [sp]
 3304 002c 3B46     		mov	r3, r7
 3305 002e 2946     		mov	r1, r5
 3306 0030 FFF7FEFF 		bl	adiv5_mem_write_sized
ARM GAS  /tmp/cccFXynL.s 			page 59


 3307              	.LVL400:
 3308              		.loc 1 484 0
 3309 0034 2046     		mov	r0, r4
 3310 0036 FFF7FEFF 		bl	target_check_error
 3311              	.LVL401:
 3312              		.loc 1 485 0
 3313 003a 02B0     		add	sp, sp, #8
 3314              		.cfi_def_cfa_offset 24
 3315              		@ sp needed
 3316 003c BDE8F081 		pop	{r4, r5, r6, r7, r8, pc}
 3317              		.cfi_endproc
 3318              	.LFE275:
 3319              		.size	cortexm_mem_write_sized, .-cortexm_mem_write_sized
 3320              		.section	.text.cortexm_run_stub,"ax",%progbits
 3321              		.align	1
 3322              		.p2align 4,,15
 3323              		.global	cortexm_run_stub
 3324              		.syntax unified
 3325              		.thumb
 3326              		.thumb_func
 3327              		.fpu fpv4-sp-d16
 3328              		.type	cortexm_run_stub, %function
 3329              	cortexm_run_stub:
 3330              	.LFB283:
 3331              		.loc 1 698 0
 3332              		.cfi_startproc
 3333              		@ args = 8, pretend = 0, frame = 0
 3334              		@ frame_needed = 1, uses_anonymous_args = 0
 3335              	.LVL402:
 3336 0000 2DE9F845 		push	{r3, r4, r5, r6, r7, r8, r10, lr}
 3337              		.cfi_def_cfa_offset 32
 3338              		.cfi_offset 3, -32
 3339              		.cfi_offset 4, -28
 3340              		.cfi_offset 5, -24
 3341              		.cfi_offset 6, -20
 3342              		.cfi_offset 7, -16
 3343              		.cfi_offset 8, -12
 3344              		.cfi_offset 10, -8
 3345              		.cfi_offset 14, -4
 3346 0004 0D46     		mov	r5, r1
 3347              		.loc 1 699 0
 3348 0006 C169     		ldr	r1, [r0, #28]
 3349              	.LVL403:
 3350 0008 21F00301 		bic	r1, r1, #3
 3351              		.loc 1 698 0
 3352 000c 0446     		mov	r4, r0
 3353              	.LVL404:
 3354              		.loc 1 699 0
 3355 000e 01F10A00 		add	r0, r1, #10
 3356              	.LVL405:
 3357 0012 20F00700 		bic	r0, r0, #7
 3358              		.loc 1 698 0
 3359 0016 00AF     		add	r7, sp, #0
 3360              		.cfi_def_cfa_register 7
 3361              		.loc 1 699 0
 3362 0018 ADEB000D 		sub	sp, sp, r0
 3363 001c E846     		mov	r8, sp
ARM GAS  /tmp/cccFXynL.s 			page 60


 3364              	.LVL406:
 3365              		.loc 1 698 0
 3366 001e 1E46     		mov	r6, r3
 3367 0020 9246     		mov	r10, r2
 3368              		.loc 1 701 0
 3369 0022 4046     		mov	r0, r8
 3370 0024 0A46     		mov	r2, r1
 3371              	.LVL407:
 3372 0026 0021     		movs	r1, #0
 3373 0028 FFF7FEFF 		bl	memset
 3374              	.LVL408:
 3375              		.loc 1 703 0
 3376 002c C8E900A6 		strd	r10, r6, [r8]
 3377              		.loc 1 704 0
 3378 0030 3E6A     		ldr	r6, [r7, #32]
 3379              	.LVL409:
 3380 0032 C8F80860 		str	r6, [r8, #8]
 3381              		.loc 1 707 0
 3382 0036 4FF08073 		mov	r3, #16777216
 3383              		.loc 1 708 0
 3384 003a 0022     		movs	r2, #0
 3385              		.loc 1 710 0
 3386 003c 2046     		mov	r0, r4
 3387              		.loc 1 705 0
 3388 003e 7E6A     		ldr	r6, [r7, #36]
 3389 0040 C8F80C60 		str	r6, [r8, #12]
 3390              		.loc 1 710 0
 3391 0044 4146     		mov	r1, r8
 3392              		.loc 1 707 0
 3393 0046 C8E90F53 		strd	r5, r3, [r8, #60]
 3394              		.loc 1 708 0
 3395 004a C8F84C20 		str	r2, [r8, #76]
 3396              		.loc 1 710 0
 3397 004e FFF7FEFF 		bl	cortexm_regs_write
 3398              	.LVL410:
 3399              		.loc 1 712 0
 3400 0052 2046     		mov	r0, r4
 3401 0054 FFF7FEFF 		bl	target_check_error
 3402              	.LVL411:
 3403 0058 20BB     		cbnz	r0, .L329
 3404              		.loc 1 717 0
 3405 005a 0146     		mov	r1, r0
 3406 005c 2046     		mov	r0, r4
 3407 005e FFF7FEFF 		bl	cortexm_halt_resume
 3408              	.LVL412:
 3409              	.L325:
 3410              		.loc 1 718 0 discriminator 1
 3411 0062 0021     		movs	r1, #0
 3412 0064 2046     		mov	r0, r4
 3413 0066 FFF7FEFF 		bl	cortexm_halt_poll
 3414              	.LVL413:
 3415 006a 0028     		cmp	r0, #0
 3416 006c F9D0     		beq	.L325
 3417              		.loc 1 721 0
 3418 006e 0128     		cmp	r0, #1
 3419 0070 10D0     		beq	.L333
 3420              		.loc 1 724 0
ARM GAS  /tmp/cccFXynL.s 			page 61


 3421 0072 0428     		cmp	r0, #4
 3422 0074 19D1     		bne	.L328
 3423              		.loc 1 727 0
 3424 0076 2046     		mov	r0, r4
 3425              	.LVL414:
 3426 0078 FFF7FEFF 		bl	cortexm_pc_read
 3427              	.LVL415:
 3428              		.loc 1 728 0
 3429 007c 0146     		mov	r1, r0
 3430 007e 2046     		mov	r0, r4
 3431              	.LVL416:
 3432 0080 FFF7FEFF 		bl	target_mem_read16
 3433              	.LVL417:
 3434              		.loc 1 729 0
 3435 0084 C0F30F23 		ubfx	r3, r0, #8, #16
 3436 0088 BE2B     		cmp	r3, #190
 3437 008a 0ED1     		bne	.L328
 3438              		.loc 1 732 0
 3439 008c C0B2     		uxtb	r0, r0
 3440              	.LVL418:
 3441              	.L323:
 3442              		.loc 1 733 0
 3443 008e BD46     		mov	sp, r7
 3444              		.cfi_remember_state
 3445              		.cfi_def_cfa_register 13
 3446              		@ sp needed
 3447 0090 BDE8F885 		pop	{r3, r4, r5, r6, r7, r8, r10, pc}
 3448              	.LVL419:
 3449              	.L333:
 3450              		.cfi_restore_state
 3451              		.loc 1 722 0
 3452 0094 0649     		ldr	r1, .L334
 3453 0096 FFF7FEFF 		bl	raise_exception
 3454              	.LVL420:
 3455              		.loc 1 725 0
 3456 009a 6FF00100 		mvn	r0, #1
 3457              		.loc 1 733 0
 3458 009e BD46     		mov	sp, r7
 3459              		.cfi_remember_state
 3460              		.cfi_def_cfa_register 13
 3461              		@ sp needed
 3462 00a0 BDE8F885 		pop	{r3, r4, r5, r6, r7, r8, r10, pc}
 3463              	.LVL421:
 3464              	.L329:
 3465              		.cfi_restore_state
 3466              		.loc 1 713 0
 3467 00a4 4FF0FF30 		mov	r0, #-1
 3468 00a8 F1E7     		b	.L323
 3469              	.L328:
 3470              		.loc 1 725 0
 3471 00aa 6FF00100 		mvn	r0, #1
 3472 00ae EEE7     		b	.L323
 3473              	.L335:
 3474              		.align	2
 3475              	.L334:
 3476 00b0 00000000 		.word	.LC18
 3477              		.cfi_endproc
ARM GAS  /tmp/cccFXynL.s 			page 62


 3478              	.LFE283:
 3479              		.size	cortexm_run_stub, .-cortexm_run_stub
 3480              		.global	cortexm_cmd_list
 3481              		.section	.rodata
 3482              		.align	2
 3483              		.set	.LANCHOR0,. + 0
 3484              	.LC10:
 3485 0000 00000000 		.word	.LC0
 3486 0004 00000000 		.word	0
 3487 0008 00000000 		.word	0
 3488 000c 00000000 		.word	0
 3489 0010 08000000 		.word	.LC1
 3490 0014 0C000000 		.word	.LC2
 3491 0018 14000000 		.word	.LC3
 3492 001c 18000000 		.word	.LC4
 3493 0020 20000000 		.word	.LC5
 3494 0024 24000000 		.word	.LC6
 3495 0028 28000000 		.word	.LC7
 3496              	.LC9:
 3497 002c 00000000 		.word	0
 3498 0030 02000000 		.word	2
 3499 0034 01060000 		.word	1537
 3500 0038 02060000 		.word	1538
 3501 003c 09020000 		.word	521
 3502 0040 0A020000 		.word	522
 3503              		.section	.rodata.CSWTCH.44,"a",%progbits
 3504              		.align	2
 3505              		.set	.LANCHOR1,. + 0
 3506              		.type	CSWTCH.44, %object
 3507              		.size	CSWTCH.44, 16
 3508              	CSWTCH.44:
 3509 0000 00000000 		.word	0
 3510 0004 01000000 		.word	1
 3511 0008 FFFFFFFF 		.word	-1
 3512 000c 03000000 		.word	3
 3513              		.section	.rodata.cortexm_cmd_list,"a",%progbits
 3514              		.align	2
 3515              		.set	.LANCHOR6,. + 0
 3516              		.type	cortexm_cmd_list, %object
 3517              		.size	cortexm_cmd_list, 24
 3518              	cortexm_cmd_list:
 3519 0000 30000000 		.word	.LC19
 3520 0004 00000000 		.word	cortexm_vector_catch
 3521 0008 40000000 		.word	.LC20
 3522 000c 00000000 		.word	0
 3523 0010 00000000 		.word	0
 3524 0014 00000000 		.word	0
 3525              		.section	.rodata.cortexm_driver_str,"a",%progbits
 3526              		.align	2
 3527              		.set	.LANCHOR4,. + 0
 3528              		.type	cortexm_driver_str, %object
 3529              		.size	cortexm_driver_str, 13
 3530              	cortexm_driver_str:
 3531 0000 41524D20 		.ascii	"ARM Cortex-M\000"
 3531      436F7274 
 3531      65782D4D 
 3531      00
ARM GAS  /tmp/cccFXynL.s 			page 63


 3532              		.section	.rodata.cortexm_halt_poll.str1.4,"aMS",%progbits,1
 3533              		.align	2
 3534              	.LC16:
 3535 0000 73797363 		.ascii	"syscall 0lx%lx (%lx %lx %lx %lx)\012\000"
 3535      616C6C20 
 3535      306C7825 
 3535      6C782028 
 3535      256C7820 
 3536 0022 0000     		.space	2
 3537              	.LC17:
 3538 0024 3A747400 		.ascii	":tt\000"
 3539              		.section	.rodata.cortexm_halt_request.str1.4,"aMS",%progbits,1
 3540              		.align	2
 3541              	.LC15:
 3542 0000 54696D65 		.ascii	"Timeout sending interrupt, is target in WFI?\012\000"
 3542      6F757420 
 3542      73656E64 
 3542      696E6720 
 3542      696E7465 
 3543              		.section	.rodata.cortexm_run_stub.str1.4,"aMS",%progbits,1
 3544              		.align	2
 3545              	.LC18:
 3546 0000 54617267 		.ascii	"Target lost in stub\000"
 3546      6574206C 
 3546      6F737420 
 3546      696E2073 
 3546      74756200 
 3547              		.section	.rodata.cortexm_vector_catch.str1.4,"aMS",%progbits,1
 3548              		.align	2
 3549              	.LC11:
 3550 0000 75736167 		.ascii	"usage: monitor vector_catch (enable|disable) (hard|"
 3550      653A206D 
 3550      6F6E6974 
 3550      6F722076 
 3550      6563746F 
 3551 0033 696E747C 		.ascii	"int|bus|stat|chk|nocp|mm|reset)\012\000"
 3551      6275737C 
 3551      73746174 
 3551      7C63686B 
 3551      7C6E6F63 
 3552              	.LC12:
 3553 0054 43617463 		.ascii	"Catching vectors: \000"
 3553      68696E67 
 3553      20766563 
 3553      746F7273 
 3553      3A2000
 3554 0067 00       		.space	1
 3555              	.LC13:
 3556 0068 25732000 		.ascii	"%s \000"
 3557              	.LC14:
 3558 006c 0A00     		.ascii	"\012\000"
 3559              		.section	.rodata.regnum_cortex_m,"a",%progbits
 3560              		.align	2
 3561              		.set	.LANCHOR2,. + 0
 3562              		.type	regnum_cortex_m, %object
 3563              		.size	regnum_cortex_m, 80
 3564              	regnum_cortex_m:
ARM GAS  /tmp/cccFXynL.s 			page 64


 3565 0000 00000000 		.word	0
 3566 0004 01000000 		.word	1
 3567 0008 02000000 		.word	2
 3568 000c 03000000 		.word	3
 3569 0010 04000000 		.word	4
 3570 0014 05000000 		.word	5
 3571 0018 06000000 		.word	6
 3572 001c 07000000 		.word	7
 3573 0020 08000000 		.word	8
 3574 0024 09000000 		.word	9
 3575 0028 0A000000 		.word	10
 3576 002c 0B000000 		.word	11
 3577 0030 0C000000 		.word	12
 3578 0034 0D000000 		.word	13
 3579 0038 0E000000 		.word	14
 3580 003c 0F000000 		.word	15
 3581 0040 10000000 		.word	16
 3582 0044 11000000 		.word	17
 3583 0048 12000000 		.word	18
 3584 004c 14000000 		.word	20
 3585              		.section	.rodata.regnum_cortex_mf,"a",%progbits
 3586              		.align	2
 3587              		.set	.LANCHOR3,. + 0
 3588              		.type	regnum_cortex_mf, %object
 3589              		.size	regnum_cortex_mf, 132
 3590              	regnum_cortex_mf:
 3591 0000 21000000 		.word	33
 3592 0004 40000000 		.word	64
 3593 0008 41000000 		.word	65
 3594 000c 42000000 		.word	66
 3595 0010 43000000 		.word	67
 3596 0014 44000000 		.word	68
 3597 0018 45000000 		.word	69
 3598 001c 46000000 		.word	70
 3599 0020 47000000 		.word	71
 3600 0024 48000000 		.word	72
 3601 0028 49000000 		.word	73
 3602 002c 4A000000 		.word	74
 3603 0030 4B000000 		.word	75
 3604 0034 4C000000 		.word	76
 3605 0038 4D000000 		.word	77
 3606 003c 4E000000 		.word	78
 3607 0040 4F000000 		.word	79
 3608 0044 50000000 		.word	80
 3609 0048 51000000 		.word	81
 3610 004c 52000000 		.word	82
 3611 0050 53000000 		.word	83
 3612 0054 54000000 		.word	84
 3613 0058 55000000 		.word	85
 3614 005c 56000000 		.word	86
 3615 0060 57000000 		.word	87
 3616 0064 58000000 		.word	88
 3617 0068 59000000 		.word	89
 3618 006c 5A000000 		.word	90
 3619 0070 5B000000 		.word	91
 3620 0074 5C000000 		.word	92
 3621 0078 5D000000 		.word	93
ARM GAS  /tmp/cccFXynL.s 			page 65


 3622 007c 5E000000 		.word	94
 3623 0080 5F000000 		.word	95
 3624              		.section	.rodata.str1.4,"aMS",%progbits,1
 3625              		.align	2
 3626              	.LC0:
 3627 0000 72657365 		.ascii	"reset\000"
 3627      7400
 3628 0006 0000     		.space	2
 3629              	.LC1:
 3630 0008 6D6D00   		.ascii	"mm\000"
 3631 000b 00       		.space	1
 3632              	.LC2:
 3633 000c 6E6F6370 		.ascii	"nocp\000"
 3633      00
 3634 0011 000000   		.space	3
 3635              	.LC3:
 3636 0014 63686B00 		.ascii	"chk\000"
 3637              	.LC4:
 3638 0018 73746174 		.ascii	"stat\000"
 3638      00
 3639 001d 000000   		.space	3
 3640              	.LC5:
 3641 0020 62757300 		.ascii	"bus\000"
 3642              	.LC6:
 3643 0024 696E7400 		.ascii	"int\000"
 3644              	.LC7:
 3645 0028 68617264 		.ascii	"hard\000"
 3645      00
 3646 002d 000000   		.space	3
 3647              	.LC19:
 3648 0030 76656374 		.ascii	"vector_catch\000"
 3648      6F725F63 
 3648      61746368 
 3648      00
 3649 003d 000000   		.space	3
 3650              	.LC20:
 3651 0040 43617463 		.ascii	"Catch exception vectors\000"
 3651      68206578 
 3651      63657074 
 3651      696F6E20 
 3651      76656374 
 3652              		.section	.rodata.tdesc_cortex_m,"a",%progbits
 3653              		.align	2
 3654              		.set	.LANCHOR5,. + 0
 3655              		.type	tdesc_cortex_m, %object
 3656              		.size	tdesc_cortex_m, 8
 3657              	tdesc_cortex_m:
 3658 0000 4E6F2064 		.ascii	"No desc\000"
 3658      65736300 
 3659              		.section	.rodata.tdesc_cortex_mf,"a",%progbits
 3660              		.align	2
 3661              		.set	.LANCHOR7,. + 0
 3662              		.type	tdesc_cortex_mf, %object
 3663              		.size	tdesc_cortex_mf, 8
 3664              	tdesc_cortex_mf:
 3665 0000 4E6F2064 		.ascii	"No desc\000"
 3665      65736300 
ARM GAS  /tmp/cccFXynL.s 			page 66


 3666              		.text
 3667              	.Letext0:
 3668              		.file 3 "/usr/arm-none-eabi/include/machine/_default_types.h"
 3669              		.file 4 "/usr/arm-none-eabi/include/sys/_stdint.h"
 3670              		.file 5 "/usr/lib/gcc/arm-none-eabi/7.3.1/include/stddef.h"
 3671              		.file 6 "/usr/arm-none-eabi/include/sys/lock.h"
 3672              		.file 7 "/usr/arm-none-eabi/include/sys/_types.h"
 3673              		.file 8 "/usr/arm-none-eabi/include/sys/reent.h"
 3674              		.file 9 "/usr/arm-none-eabi/include/stdlib.h"
 3675              		.file 10 "/usr/lib/gcc/arm-none-eabi/7.3.1/include/stdarg.h"
 3676              		.file 11 "<built-in>"
 3677              		.file 12 "/usr/arm-none-eabi/include/stdio.h"
 3678              		.file 13 "/usr/arm-none-eabi/include/sys/types.h"
 3679              		.file 14 "ChibiOS_3.0.5/os/rt/ports/ARMCMx/compilers/GCC/chtypes.h"
 3680              		.file 15 "ChibiOS_3.0.5/os/rt/include/chsystypes.h"
 3681              		.file 16 "ChibiOS_3.0.5/os/rt/include/chschd.h"
 3682              		.file 17 "ChibiOS_3.0.5/os/ext/CMSIS/include/core_cm4.h"
 3683              		.file 18 "ChibiOS_3.0.5/os/ext/CMSIS/ST/system_stm32f4xx.h"
 3684              		.file 19 "ChibiOS_3.0.5/os/ext/CMSIS/ST/stm32f407xx.h"
 3685              		.file 20 "ChibiOS_3.0.5/os/rt/ports/ARMCMx/chcore.h"
 3686              		.file 21 "ChibiOS_3.0.5/os/rt/ports/ARMCMx/chcore_v7m.h"
 3687              		.file 22 "ChibiOS_3.0.5/os/rt/include/chtm.h"
 3688              		.file 23 "ChibiOS_3.0.5/os/rt/include/chsem.h"
 3689              		.file 24 "ChibiOS_3.0.5/os/rt/include/chmtx.h"
 3690              		.file 25 "ChibiOS_3.0.5/os/rt/include/chregistry.h"
 3691              		.file 26 "ChibiOS_3.0.5/os/rt/include/chevents.h"
 3692              		.file 27 "ChibiOS_3.0.5/os/rt/include/chqueues.h"
 3693              		.file 28 "./datatypes.h"
 3694              		.file 29 "./conf_general.h"
 3695              		.file 30 "ChibiOS_3.0.5/os/hal/ports/STM32/STM32F4xx/stm32_dma.h"
 3696              		.file 31 "ChibiOS_3.0.5/os/hal/ports/STM32/LLD/GPIOv2/pal_lld.h"
 3697              		.file 32 "ChibiOS_3.0.5/os/hal/include/can.h"
 3698              		.file 33 "ChibiOS_3.0.5/os/hal/ports/STM32/LLD/can_lld.h"
 3699              		.file 34 "ChibiOS_3.0.5/os/hal/include/i2c.h"
 3700              		.file 35 "ChibiOS_3.0.5/os/hal/ports/STM32/LLD/I2Cv1/i2c_lld.h"
 3701              		.file 36 "ChibiOS_3.0.5/os/hal/include/icu.h"
 3702              		.file 37 "ChibiOS_3.0.5/os/hal/ports/STM32/LLD/TIMv1/icu_lld.h"
 3703              		.file 38 "ChibiOS_3.0.5/os/hal/ports/STM32/LLD/TIMv1/stm32_tim.h"
 3704              		.file 39 "ChibiOS_3.0.5/os/hal/include/serial.h"
 3705              		.file 40 "ChibiOS_3.0.5/os/hal/ports/STM32/LLD/USARTv1/serial_lld.h"
 3706              		.file 41 "ChibiOS_3.0.5/os/hal/include/spi.h"
 3707              		.file 42 "ChibiOS_3.0.5/os/hal/ports/STM32/LLD/SPIv1/spi_lld.h"
 3708              		.file 43 "ChibiOS_3.0.5/os/hal/include/usb.h"
 3709              		.file 44 "ChibiOS_3.0.5/os/hal/ports/STM32/LLD/OTGv1/usb_lld.h"
 3710              		.file 45 "ChibiOS_3.0.5/os/hal/ports/STM32/LLD/OTGv1/stm32_otg.h"
 3711              		.file 46 "./commands.h"
 3712              		.file 47 "blackmagic/platform.h"
 3713              		.file 48 "/usr/arm-none-eabi/include/machine/setjmp.h"
 3714              		.file 49 "blackmagic/exception.h"
 3715              		.file 50 "blackmagic/target/jtag_scan.h"
 3716              		.file 51 "blackmagic/target.h"
 3717              		.file 52 "blackmagic/target/target_internal.h"
 3718              		.file 53 "blackmagic/target/cortexm.h"
 3719              		.file 54 "/usr/arm-none-eabi/include/sys/unistd.h"
 3720              		.file 55 "/usr/arm-none-eabi/include/string.h"
 3721              		.file 56 "/usr/arm-none-eabi/include/setjmp.h"
 3722              		.file 57 "blackmagic/platform_support.h"
ARM GAS  /tmp/cccFXynL.s 			page 67


 3723              		.file 58 "blackmagic/timing.h"
 3724              		.section	.debug_info,"",%progbits
 3725              	.Ldebug_info0:
 3726 0000 995B0000 		.4byte	0x5b99
 3727 0004 0400     		.2byte	0x4
 3728 0006 00000000 		.4byte	.Ldebug_abbrev0
 3729 000a 04       		.byte	0x4
 3730 000b 01       		.uleb128 0x1
 3731 000c 990C0000 		.4byte	.LASF928
 3732 0010 0C       		.byte	0xc
 3733 0011 38200000 		.4byte	.LASF929
 3734 0015 05260000 		.4byte	.LASF930
 3735 0019 18010000 		.4byte	.Ldebug_ranges0+0x118
 3736 001d 00000000 		.4byte	0
 3737 0021 00000000 		.4byte	.Ldebug_line0
 3738 0025 02       		.uleb128 0x2
 3739 0026 01       		.byte	0x1
 3740 0027 06       		.byte	0x6
 3741 0028 61160000 		.4byte	.LASF0
 3742 002c 03       		.uleb128 0x3
 3743 002d EF000000 		.4byte	.LASF3
 3744 0031 03       		.byte	0x3
 3745 0032 2B       		.byte	0x2b
 3746 0033 37000000 		.4byte	0x37
 3747 0037 02       		.uleb128 0x2
 3748 0038 01       		.byte	0x1
 3749 0039 08       		.byte	0x8
 3750 003a D2090000 		.4byte	.LASF1
 3751 003e 02       		.uleb128 0x2
 3752 003f 02       		.byte	0x2
 3753 0040 05       		.byte	0x5
 3754 0041 D8260000 		.4byte	.LASF2
 3755 0045 03       		.uleb128 0x3
 3756 0046 E8070000 		.4byte	.LASF4
 3757 004a 03       		.byte	0x3
 3758 004b 39       		.byte	0x39
 3759 004c 50000000 		.4byte	0x50
 3760 0050 02       		.uleb128 0x2
 3761 0051 02       		.byte	0x2
 3762 0052 07       		.byte	0x7
 3763 0053 48160000 		.4byte	.LASF5
 3764 0057 03       		.uleb128 0x3
 3765 0058 5C1F0000 		.4byte	.LASF6
 3766 005c 03       		.byte	0x3
 3767 005d 4D       		.byte	0x4d
 3768 005e 62000000 		.4byte	0x62
 3769 0062 02       		.uleb128 0x2
 3770 0063 04       		.byte	0x4
 3771 0064 05       		.byte	0x5
 3772 0065 86180000 		.4byte	.LASF7
 3773 0069 03       		.uleb128 0x3
 3774 006a 661F0000 		.4byte	.LASF8
 3775 006e 03       		.byte	0x3
 3776 006f 4F       		.byte	0x4f
 3777 0070 74000000 		.4byte	0x74
 3778 0074 02       		.uleb128 0x2
 3779 0075 04       		.byte	0x4
ARM GAS  /tmp/cccFXynL.s 			page 68


 3780 0076 07       		.byte	0x7
 3781 0077 781A0000 		.4byte	.LASF9
 3782 007b 02       		.uleb128 0x2
 3783 007c 08       		.byte	0x8
 3784 007d 05       		.byte	0x5
 3785 007e 23240000 		.4byte	.LASF10
 3786 0082 03       		.uleb128 0x3
 3787 0083 58120000 		.4byte	.LASF11
 3788 0087 03       		.byte	0x3
 3789 0088 69       		.byte	0x69
 3790 0089 8D000000 		.4byte	0x8d
 3791 008d 02       		.uleb128 0x2
 3792 008e 08       		.byte	0x8
 3793 008f 07       		.byte	0x7
 3794 0090 6C210000 		.4byte	.LASF12
 3795 0094 04       		.uleb128 0x4
 3796 0095 04       		.byte	0x4
 3797 0096 05       		.byte	0x5
 3798 0097 696E7400 		.ascii	"int\000"
 3799 009b 02       		.uleb128 0x2
 3800 009c 04       		.byte	0x4
 3801 009d 07       		.byte	0x7
 3802 009e 4E260000 		.4byte	.LASF13
 3803 00a2 05       		.uleb128 0x5
 3804 00a3 9B000000 		.4byte	0x9b
 3805 00a7 03       		.uleb128 0x3
 3806 00a8 8F0F0000 		.4byte	.LASF14
 3807 00ac 04       		.byte	0x4
 3808 00ad 18       		.byte	0x18
 3809 00ae 2C000000 		.4byte	0x2c
 3810 00b2 05       		.uleb128 0x5
 3811 00b3 A7000000 		.4byte	0xa7
 3812 00b7 03       		.uleb128 0x3
 3813 00b8 13020000 		.4byte	.LASF15
 3814 00bc 04       		.byte	0x4
 3815 00bd 24       		.byte	0x24
 3816 00be 45000000 		.4byte	0x45
 3817 00c2 03       		.uleb128 0x3
 3818 00c3 29040000 		.4byte	.LASF16
 3819 00c7 04       		.byte	0x4
 3820 00c8 2C       		.byte	0x2c
 3821 00c9 57000000 		.4byte	0x57
 3822 00cd 06       		.uleb128 0x6
 3823 00ce C2000000 		.4byte	0xc2
 3824 00d2 03       		.uleb128 0x3
 3825 00d3 BA190000 		.4byte	.LASF17
 3826 00d7 04       		.byte	0x4
 3827 00d8 30       		.byte	0x30
 3828 00d9 69000000 		.4byte	0x69
 3829 00dd 06       		.uleb128 0x6
 3830 00de D2000000 		.4byte	0xd2
 3831 00e2 05       		.uleb128 0x5
 3832 00e3 D2000000 		.4byte	0xd2
 3833 00e7 03       		.uleb128 0x3
 3834 00e8 820B0000 		.4byte	.LASF18
 3835 00ec 04       		.byte	0x4
 3836 00ed 3C       		.byte	0x3c
ARM GAS  /tmp/cccFXynL.s 			page 69


 3837 00ee 82000000 		.4byte	0x82
 3838 00f2 03       		.uleb128 0x3
 3839 00f3 680F0000 		.4byte	.LASF19
 3840 00f7 05       		.byte	0x5
 3841 00f8 D8       		.byte	0xd8
 3842 00f9 9B000000 		.4byte	0x9b
 3843 00fd 06       		.uleb128 0x6
 3844 00fe F2000000 		.4byte	0xf2
 3845 0102 03       		.uleb128 0x3
 3846 0103 BE070000 		.4byte	.LASF20
 3847 0107 06       		.byte	0x6
 3848 0108 22       		.byte	0x22
 3849 0109 0D010000 		.4byte	0x10d
 3850 010d 07       		.uleb128 0x7
 3851 010e 04       		.byte	0x4
 3852 010f 13010000 		.4byte	0x113
 3853 0113 08       		.uleb128 0x8
 3854 0114 DF050000 		.4byte	.LASF128
 3855 0118 03       		.uleb128 0x3
 3856 0119 2B0F0000 		.4byte	.LASF21
 3857 011d 07       		.byte	0x7
 3858 011e 2C       		.byte	0x2c
 3859 011f 62000000 		.4byte	0x62
 3860 0123 03       		.uleb128 0x3
 3861 0124 8B0B0000 		.4byte	.LASF22
 3862 0128 07       		.byte	0x7
 3863 0129 58       		.byte	0x58
 3864 012a 69000000 		.4byte	0x69
 3865 012e 03       		.uleb128 0x3
 3866 012f 7A1E0000 		.4byte	.LASF23
 3867 0133 07       		.byte	0x7
 3868 0134 72       		.byte	0x72
 3869 0135 62000000 		.4byte	0x62
 3870 0139 09       		.uleb128 0x9
 3871 013a DA100000 		.4byte	.LASF24
 3872 013e 05       		.byte	0x5
 3873 013f 6501     		.2byte	0x165
 3874 0141 9B000000 		.4byte	0x9b
 3875 0145 0A       		.uleb128 0xa
 3876 0146 04       		.byte	0x4
 3877 0147 07       		.byte	0x7
 3878 0148 A6       		.byte	0xa6
 3879 0149 64010000 		.4byte	0x164
 3880 014d 0B       		.uleb128 0xb
 3881 014e 16180000 		.4byte	.LASF25
 3882 0152 07       		.byte	0x7
 3883 0153 A8       		.byte	0xa8
 3884 0154 39010000 		.4byte	0x139
 3885 0158 0B       		.uleb128 0xb
 3886 0159 87100000 		.4byte	.LASF26
 3887 015d 07       		.byte	0x7
 3888 015e A9       		.byte	0xa9
 3889 015f 64010000 		.4byte	0x164
 3890 0163 00       		.byte	0
 3891 0164 0C       		.uleb128 0xc
 3892 0165 37000000 		.4byte	0x37
 3893 0169 74010000 		.4byte	0x174
ARM GAS  /tmp/cccFXynL.s 			page 70


 3894 016d 0D       		.uleb128 0xd
 3895 016e 9B000000 		.4byte	0x9b
 3896 0172 03       		.byte	0x3
 3897 0173 00       		.byte	0
 3898 0174 0E       		.uleb128 0xe
 3899 0175 08       		.byte	0x8
 3900 0176 07       		.byte	0x7
 3901 0177 A3       		.byte	0xa3
 3902 0178 95010000 		.4byte	0x195
 3903 017c 0F       		.uleb128 0xf
 3904 017d 870F0000 		.4byte	.LASF27
 3905 0181 07       		.byte	0x7
 3906 0182 A5       		.byte	0xa5
 3907 0183 94000000 		.4byte	0x94
 3908 0187 00       		.byte	0
 3909 0188 0F       		.uleb128 0xf
 3910 0189 B31F0000 		.4byte	.LASF28
 3911 018d 07       		.byte	0x7
 3912 018e AA       		.byte	0xaa
 3913 018f 45010000 		.4byte	0x145
 3914 0193 04       		.byte	0x4
 3915 0194 00       		.byte	0
 3916 0195 03       		.uleb128 0x3
 3917 0196 E81E0000 		.4byte	.LASF29
 3918 019a 07       		.byte	0x7
 3919 019b AB       		.byte	0xab
 3920 019c 74010000 		.4byte	0x174
 3921 01a0 03       		.uleb128 0x3
 3922 01a1 62230000 		.4byte	.LASF30
 3923 01a5 07       		.byte	0x7
 3924 01a6 AF       		.byte	0xaf
 3925 01a7 02010000 		.4byte	0x102
 3926 01ab 10       		.uleb128 0x10
 3927 01ac 04       		.byte	0x4
 3928 01ad 07       		.uleb128 0x7
 3929 01ae 04       		.byte	0x4
 3930 01af B3010000 		.4byte	0x1b3
 3931 01b3 02       		.uleb128 0x2
 3932 01b4 01       		.byte	0x1
 3933 01b5 08       		.byte	0x8
 3934 01b6 371B0000 		.4byte	.LASF31
 3935 01ba 05       		.uleb128 0x5
 3936 01bb B3010000 		.4byte	0x1b3
 3937 01bf 03       		.uleb128 0x3
 3938 01c0 D8140000 		.4byte	.LASF32
 3939 01c4 08       		.byte	0x8
 3940 01c5 16       		.byte	0x16
 3941 01c6 74000000 		.4byte	0x74
 3942 01ca 11       		.uleb128 0x11
 3943 01cb F61B0000 		.4byte	.LASF37
 3944 01cf 18       		.byte	0x18
 3945 01d0 08       		.byte	0x8
 3946 01d1 2F       		.byte	0x2f
 3947 01d2 1D020000 		.4byte	0x21d
 3948 01d6 0F       		.uleb128 0xf
 3949 01d7 63120000 		.4byte	.LASF33
 3950 01db 08       		.byte	0x8
ARM GAS  /tmp/cccFXynL.s 			page 71


 3951 01dc 31       		.byte	0x31
 3952 01dd 1D020000 		.4byte	0x21d
 3953 01e1 00       		.byte	0
 3954 01e2 12       		.uleb128 0x12
 3955 01e3 5F6B00   		.ascii	"_k\000"
 3956 01e6 08       		.byte	0x8
 3957 01e7 32       		.byte	0x32
 3958 01e8 94000000 		.4byte	0x94
 3959 01ec 04       		.byte	0x4
 3960 01ed 0F       		.uleb128 0xf
 3961 01ee 061A0000 		.4byte	.LASF34
 3962 01f2 08       		.byte	0x8
 3963 01f3 32       		.byte	0x32
 3964 01f4 94000000 		.4byte	0x94
 3965 01f8 08       		.byte	0x8
 3966 01f9 0F       		.uleb128 0xf
 3967 01fa E2250000 		.4byte	.LASF35
 3968 01fe 08       		.byte	0x8
 3969 01ff 32       		.byte	0x32
 3970 0200 94000000 		.4byte	0x94
 3971 0204 0C       		.byte	0xc
 3972 0205 0F       		.uleb128 0xf
 3973 0206 540A0000 		.4byte	.LASF36
 3974 020a 08       		.byte	0x8
 3975 020b 32       		.byte	0x32
 3976 020c 94000000 		.4byte	0x94
 3977 0210 10       		.byte	0x10
 3978 0211 12       		.uleb128 0x12
 3979 0212 5F7800   		.ascii	"_x\000"
 3980 0215 08       		.byte	0x8
 3981 0216 33       		.byte	0x33
 3982 0217 23020000 		.4byte	0x223
 3983 021b 14       		.byte	0x14
 3984 021c 00       		.byte	0
 3985 021d 07       		.uleb128 0x7
 3986 021e 04       		.byte	0x4
 3987 021f CA010000 		.4byte	0x1ca
 3988 0223 0C       		.uleb128 0xc
 3989 0224 BF010000 		.4byte	0x1bf
 3990 0228 33020000 		.4byte	0x233
 3991 022c 0D       		.uleb128 0xd
 3992 022d 9B000000 		.4byte	0x9b
 3993 0231 00       		.byte	0
 3994 0232 00       		.byte	0
 3995 0233 11       		.uleb128 0x11
 3996 0234 FE060000 		.4byte	.LASF38
 3997 0238 24       		.byte	0x24
 3998 0239 08       		.byte	0x8
 3999 023a 37       		.byte	0x37
 4000 023b AC020000 		.4byte	0x2ac
 4001 023f 0F       		.uleb128 0xf
 4002 0240 83130000 		.4byte	.LASF39
 4003 0244 08       		.byte	0x8
 4004 0245 39       		.byte	0x39
 4005 0246 94000000 		.4byte	0x94
 4006 024a 00       		.byte	0
 4007 024b 0F       		.uleb128 0xf
ARM GAS  /tmp/cccFXynL.s 			page 72


 4008 024c FC250000 		.4byte	.LASF40
 4009 0250 08       		.byte	0x8
 4010 0251 3A       		.byte	0x3a
 4011 0252 94000000 		.4byte	0x94
 4012 0256 04       		.byte	0x4
 4013 0257 0F       		.uleb128 0xf
 4014 0258 A3100000 		.4byte	.LASF41
 4015 025c 08       		.byte	0x8
 4016 025d 3B       		.byte	0x3b
 4017 025e 94000000 		.4byte	0x94
 4018 0262 08       		.byte	0x8
 4019 0263 0F       		.uleb128 0xf
 4020 0264 81110000 		.4byte	.LASF42
 4021 0268 08       		.byte	0x8
 4022 0269 3C       		.byte	0x3c
 4023 026a 94000000 		.4byte	0x94
 4024 026e 0C       		.byte	0xc
 4025 026f 0F       		.uleb128 0xf
 4026 0270 7A010000 		.4byte	.LASF43
 4027 0274 08       		.byte	0x8
 4028 0275 3D       		.byte	0x3d
 4029 0276 94000000 		.4byte	0x94
 4030 027a 10       		.byte	0x10
 4031 027b 0F       		.uleb128 0xf
 4032 027c F30B0000 		.4byte	.LASF44
 4033 0280 08       		.byte	0x8
 4034 0281 3E       		.byte	0x3e
 4035 0282 94000000 		.4byte	0x94
 4036 0286 14       		.byte	0x14
 4037 0287 0F       		.uleb128 0xf
 4038 0288 31090000 		.4byte	.LASF45
 4039 028c 08       		.byte	0x8
 4040 028d 3F       		.byte	0x3f
 4041 028e 94000000 		.4byte	0x94
 4042 0292 18       		.byte	0x18
 4043 0293 0F       		.uleb128 0xf
 4044 0294 92070000 		.4byte	.LASF46
 4045 0298 08       		.byte	0x8
 4046 0299 40       		.byte	0x40
 4047 029a 94000000 		.4byte	0x94
 4048 029e 1C       		.byte	0x1c
 4049 029f 0F       		.uleb128 0xf
 4050 02a0 3B090000 		.4byte	.LASF47
 4051 02a4 08       		.byte	0x8
 4052 02a5 41       		.byte	0x41
 4053 02a6 94000000 		.4byte	0x94
 4054 02aa 20       		.byte	0x20
 4055 02ab 00       		.byte	0
 4056 02ac 13       		.uleb128 0x13
 4057 02ad AB130000 		.4byte	.LASF48
 4058 02b1 0801     		.2byte	0x108
 4059 02b3 08       		.byte	0x8
 4060 02b4 4A       		.byte	0x4a
 4061 02b5 EC020000 		.4byte	0x2ec
 4062 02b9 0F       		.uleb128 0xf
 4063 02ba BD110000 		.4byte	.LASF49
 4064 02be 08       		.byte	0x8
ARM GAS  /tmp/cccFXynL.s 			page 73


 4065 02bf 4B       		.byte	0x4b
 4066 02c0 EC020000 		.4byte	0x2ec
 4067 02c4 00       		.byte	0
 4068 02c5 0F       		.uleb128 0xf
 4069 02c6 F3080000 		.4byte	.LASF50
 4070 02ca 08       		.byte	0x8
 4071 02cb 4C       		.byte	0x4c
 4072 02cc EC020000 		.4byte	0x2ec
 4073 02d0 80       		.byte	0x80
 4074 02d1 14       		.uleb128 0x14
 4075 02d2 83010000 		.4byte	.LASF51
 4076 02d6 08       		.byte	0x8
 4077 02d7 4E       		.byte	0x4e
 4078 02d8 BF010000 		.4byte	0x1bf
 4079 02dc 0001     		.2byte	0x100
 4080 02de 14       		.uleb128 0x14
 4081 02df D11F0000 		.4byte	.LASF52
 4082 02e3 08       		.byte	0x8
 4083 02e4 51       		.byte	0x51
 4084 02e5 BF010000 		.4byte	0x1bf
 4085 02e9 0401     		.2byte	0x104
 4086 02eb 00       		.byte	0
 4087 02ec 0C       		.uleb128 0xc
 4088 02ed AB010000 		.4byte	0x1ab
 4089 02f1 FC020000 		.4byte	0x2fc
 4090 02f5 0D       		.uleb128 0xd
 4091 02f6 9B000000 		.4byte	0x9b
 4092 02fa 1F       		.byte	0x1f
 4093 02fb 00       		.byte	0
 4094 02fc 13       		.uleb128 0x13
 4095 02fd 24010000 		.4byte	.LASF53
 4096 0301 9001     		.2byte	0x190
 4097 0303 08       		.byte	0x8
 4098 0304 5D       		.byte	0x5d
 4099 0305 3A030000 		.4byte	0x33a
 4100 0309 0F       		.uleb128 0xf
 4101 030a 63120000 		.4byte	.LASF33
 4102 030e 08       		.byte	0x8
 4103 030f 5E       		.byte	0x5e
 4104 0310 3A030000 		.4byte	0x33a
 4105 0314 00       		.byte	0
 4106 0315 0F       		.uleb128 0xf
 4107 0316 B2010000 		.4byte	.LASF54
 4108 031a 08       		.byte	0x8
 4109 031b 5F       		.byte	0x5f
 4110 031c 94000000 		.4byte	0x94
 4111 0320 04       		.byte	0x4
 4112 0321 0F       		.uleb128 0xf
 4113 0322 C61E0000 		.4byte	.LASF55
 4114 0326 08       		.byte	0x8
 4115 0327 61       		.byte	0x61
 4116 0328 40030000 		.4byte	0x340
 4117 032c 08       		.byte	0x8
 4118 032d 0F       		.uleb128 0xf
 4119 032e AB130000 		.4byte	.LASF48
 4120 0332 08       		.byte	0x8
 4121 0333 62       		.byte	0x62
ARM GAS  /tmp/cccFXynL.s 			page 74


 4122 0334 AC020000 		.4byte	0x2ac
 4123 0338 88       		.byte	0x88
 4124 0339 00       		.byte	0
 4125 033a 07       		.uleb128 0x7
 4126 033b 04       		.byte	0x4
 4127 033c FC020000 		.4byte	0x2fc
 4128 0340 0C       		.uleb128 0xc
 4129 0341 50030000 		.4byte	0x350
 4130 0345 50030000 		.4byte	0x350
 4131 0349 0D       		.uleb128 0xd
 4132 034a 9B000000 		.4byte	0x9b
 4133 034e 1F       		.byte	0x1f
 4134 034f 00       		.byte	0
 4135 0350 07       		.uleb128 0x7
 4136 0351 04       		.byte	0x4
 4137 0352 56030000 		.4byte	0x356
 4138 0356 15       		.uleb128 0x15
 4139 0357 11       		.uleb128 0x11
 4140 0358 83170000 		.4byte	.LASF56
 4141 035c 08       		.byte	0x8
 4142 035d 08       		.byte	0x8
 4143 035e 75       		.byte	0x75
 4144 035f 7C030000 		.4byte	0x37c
 4145 0363 0F       		.uleb128 0xf
 4146 0364 5B060000 		.4byte	.LASF57
 4147 0368 08       		.byte	0x8
 4148 0369 76       		.byte	0x76
 4149 036a 7C030000 		.4byte	0x37c
 4150 036e 00       		.byte	0
 4151 036f 0F       		.uleb128 0xf
 4152 0370 C80A0000 		.4byte	.LASF58
 4153 0374 08       		.byte	0x8
 4154 0375 77       		.byte	0x77
 4155 0376 94000000 		.4byte	0x94
 4156 037a 04       		.byte	0x4
 4157 037b 00       		.byte	0
 4158 037c 07       		.uleb128 0x7
 4159 037d 04       		.byte	0x4
 4160 037e 37000000 		.4byte	0x37
 4161 0382 11       		.uleb128 0x11
 4162 0383 A31E0000 		.4byte	.LASF59
 4163 0387 68       		.byte	0x68
 4164 0388 08       		.byte	0x8
 4165 0389 B5       		.byte	0xb5
 4166 038a AC040000 		.4byte	0x4ac
 4167 038e 12       		.uleb128 0x12
 4168 038f 5F7000   		.ascii	"_p\000"
 4169 0392 08       		.byte	0x8
 4170 0393 B6       		.byte	0xb6
 4171 0394 7C030000 		.4byte	0x37c
 4172 0398 00       		.byte	0
 4173 0399 12       		.uleb128 0x12
 4174 039a 5F7200   		.ascii	"_r\000"
 4175 039d 08       		.byte	0x8
 4176 039e B7       		.byte	0xb7
 4177 039f 94000000 		.4byte	0x94
 4178 03a3 04       		.byte	0x4
ARM GAS  /tmp/cccFXynL.s 			page 75


 4179 03a4 12       		.uleb128 0x12
 4180 03a5 5F7700   		.ascii	"_w\000"
 4181 03a8 08       		.byte	0x8
 4182 03a9 B8       		.byte	0xb8
 4183 03aa 94000000 		.4byte	0x94
 4184 03ae 08       		.byte	0x8
 4185 03af 0F       		.uleb128 0xf
 4186 03b0 4A020000 		.4byte	.LASF60
 4187 03b4 08       		.byte	0x8
 4188 03b5 B9       		.byte	0xb9
 4189 03b6 3E000000 		.4byte	0x3e
 4190 03ba 0C       		.byte	0xc
 4191 03bb 0F       		.uleb128 0xf
 4192 03bc 821E0000 		.4byte	.LASF61
 4193 03c0 08       		.byte	0x8
 4194 03c1 BA       		.byte	0xba
 4195 03c2 3E000000 		.4byte	0x3e
 4196 03c6 0E       		.byte	0xe
 4197 03c7 12       		.uleb128 0x12
 4198 03c8 5F626600 		.ascii	"_bf\000"
 4199 03cc 08       		.byte	0x8
 4200 03cd BB       		.byte	0xbb
 4201 03ce 57030000 		.4byte	0x357
 4202 03d2 10       		.byte	0x10
 4203 03d3 0F       		.uleb128 0xf
 4204 03d4 CD040000 		.4byte	.LASF62
 4205 03d8 08       		.byte	0x8
 4206 03d9 BC       		.byte	0xbc
 4207 03da 94000000 		.4byte	0x94
 4208 03de 18       		.byte	0x18
 4209 03df 0F       		.uleb128 0xf
 4210 03e0 B7120000 		.4byte	.LASF63
 4211 03e4 08       		.byte	0x8
 4212 03e5 C3       		.byte	0xc3
 4213 03e6 AB010000 		.4byte	0x1ab
 4214 03ea 1C       		.byte	0x1c
 4215 03eb 0F       		.uleb128 0xf
 4216 03ec F0260000 		.4byte	.LASF64
 4217 03f0 08       		.byte	0x8
 4218 03f1 C5       		.byte	0xc5
 4219 03f2 07060000 		.4byte	0x607
 4220 03f6 20       		.byte	0x20
 4221 03f7 0F       		.uleb128 0xf
 4222 03f8 330B0000 		.4byte	.LASF65
 4223 03fc 08       		.byte	0x8
 4224 03fd C7       		.byte	0xc7
 4225 03fe 36060000 		.4byte	0x636
 4226 0402 24       		.byte	0x24
 4227 0403 0F       		.uleb128 0xf
 4228 0404 0C160000 		.4byte	.LASF66
 4229 0408 08       		.byte	0x8
 4230 0409 CA       		.byte	0xca
 4231 040a 5A060000 		.4byte	0x65a
 4232 040e 28       		.byte	0x28
 4233 040f 0F       		.uleb128 0xf
 4234 0410 1C1B0000 		.4byte	.LASF67
 4235 0414 08       		.byte	0x8
ARM GAS  /tmp/cccFXynL.s 			page 76


 4236 0415 CB       		.byte	0xcb
 4237 0416 74060000 		.4byte	0x674
 4238 041a 2C       		.byte	0x2c
 4239 041b 12       		.uleb128 0x12
 4240 041c 5F756200 		.ascii	"_ub\000"
 4241 0420 08       		.byte	0x8
 4242 0421 CE       		.byte	0xce
 4243 0422 57030000 		.4byte	0x357
 4244 0426 30       		.byte	0x30
 4245 0427 12       		.uleb128 0x12
 4246 0428 5F757000 		.ascii	"_up\000"
 4247 042c 08       		.byte	0x8
 4248 042d CF       		.byte	0xcf
 4249 042e 7C030000 		.4byte	0x37c
 4250 0432 38       		.byte	0x38
 4251 0433 12       		.uleb128 0x12
 4252 0434 5F757200 		.ascii	"_ur\000"
 4253 0438 08       		.byte	0x8
 4254 0439 D0       		.byte	0xd0
 4255 043a 94000000 		.4byte	0x94
 4256 043e 3C       		.byte	0x3c
 4257 043f 0F       		.uleb128 0xf
 4258 0440 CE1D0000 		.4byte	.LASF68
 4259 0444 08       		.byte	0x8
 4260 0445 D3       		.byte	0xd3
 4261 0446 7A060000 		.4byte	0x67a
 4262 044a 40       		.byte	0x40
 4263 044b 0F       		.uleb128 0xf
 4264 044c 23030000 		.4byte	.LASF69
 4265 0450 08       		.byte	0x8
 4266 0451 D4       		.byte	0xd4
 4267 0452 8A060000 		.4byte	0x68a
 4268 0456 43       		.byte	0x43
 4269 0457 12       		.uleb128 0x12
 4270 0458 5F6C6200 		.ascii	"_lb\000"
 4271 045c 08       		.byte	0x8
 4272 045d D7       		.byte	0xd7
 4273 045e 57030000 		.4byte	0x357
 4274 0462 44       		.byte	0x44
 4275 0463 0F       		.uleb128 0xf
 4276 0464 A71D0000 		.4byte	.LASF70
 4277 0468 08       		.byte	0x8
 4278 0469 DA       		.byte	0xda
 4279 046a 94000000 		.4byte	0x94
 4280 046e 4C       		.byte	0x4c
 4281 046f 0F       		.uleb128 0xf
 4282 0470 1F170000 		.4byte	.LASF71
 4283 0474 08       		.byte	0x8
 4284 0475 DB       		.byte	0xdb
 4285 0476 18010000 		.4byte	0x118
 4286 047a 50       		.byte	0x50
 4287 047b 0F       		.uleb128 0xf
 4288 047c 4B050000 		.4byte	.LASF72
 4289 0480 08       		.byte	0x8
 4290 0481 DE       		.byte	0xde
 4291 0482 CA040000 		.4byte	0x4ca
 4292 0486 54       		.byte	0x54
ARM GAS  /tmp/cccFXynL.s 			page 77


 4293 0487 0F       		.uleb128 0xf
 4294 0488 1D030000 		.4byte	.LASF73
 4295 048c 08       		.byte	0x8
 4296 048d E2       		.byte	0xe2
 4297 048e A0010000 		.4byte	0x1a0
 4298 0492 58       		.byte	0x58
 4299 0493 0F       		.uleb128 0xf
 4300 0494 1B010000 		.4byte	.LASF74
 4301 0498 08       		.byte	0x8
 4302 0499 E4       		.byte	0xe4
 4303 049a 95010000 		.4byte	0x195
 4304 049e 5C       		.byte	0x5c
 4305 049f 0F       		.uleb128 0xf
 4306 04a0 46240000 		.4byte	.LASF75
 4307 04a4 08       		.byte	0x8
 4308 04a5 E5       		.byte	0xe5
 4309 04a6 94000000 		.4byte	0x94
 4310 04aa 64       		.byte	0x64
 4311 04ab 00       		.byte	0
 4312 04ac 16       		.uleb128 0x16
 4313 04ad 94000000 		.4byte	0x94
 4314 04b1 CA040000 		.4byte	0x4ca
 4315 04b5 17       		.uleb128 0x17
 4316 04b6 CA040000 		.4byte	0x4ca
 4317 04ba 17       		.uleb128 0x17
 4318 04bb AB010000 		.4byte	0x1ab
 4319 04bf 17       		.uleb128 0x17
 4320 04c0 AD010000 		.4byte	0x1ad
 4321 04c4 17       		.uleb128 0x17
 4322 04c5 94000000 		.4byte	0x94
 4323 04c9 00       		.byte	0
 4324 04ca 07       		.uleb128 0x7
 4325 04cb 04       		.byte	0x4
 4326 04cc D5040000 		.4byte	0x4d5
 4327 04d0 05       		.uleb128 0x5
 4328 04d1 CA040000 		.4byte	0x4ca
 4329 04d5 18       		.uleb128 0x18
 4330 04d6 F5050000 		.4byte	.LASF76
 4331 04da 2804     		.2byte	0x428
 4332 04dc 08       		.byte	0x8
 4333 04dd 6002     		.2byte	0x260
 4334 04df 07060000 		.4byte	0x607
 4335 04e3 19       		.uleb128 0x19
 4336 04e4 58110000 		.4byte	.LASF77
 4337 04e8 08       		.byte	0x8
 4338 04e9 6202     		.2byte	0x262
 4339 04eb 94000000 		.4byte	0x94
 4340 04ef 00       		.byte	0
 4341 04f0 19       		.uleb128 0x19
 4342 04f1 480E0000 		.4byte	.LASF78
 4343 04f5 08       		.byte	0x8
 4344 04f6 6702     		.2byte	0x267
 4345 04f8 E1060000 		.4byte	0x6e1
 4346 04fc 04       		.byte	0x4
 4347 04fd 19       		.uleb128 0x19
 4348 04fe E0090000 		.4byte	.LASF79
 4349 0502 08       		.byte	0x8
ARM GAS  /tmp/cccFXynL.s 			page 78


 4350 0503 6702     		.2byte	0x267
 4351 0505 E1060000 		.4byte	0x6e1
 4352 0509 08       		.byte	0x8
 4353 050a 19       		.uleb128 0x19
 4354 050b C4080000 		.4byte	.LASF80
 4355 050f 08       		.byte	0x8
 4356 0510 6702     		.2byte	0x267
 4357 0512 E1060000 		.4byte	0x6e1
 4358 0516 0C       		.byte	0xc
 4359 0517 19       		.uleb128 0x19
 4360 0518 AD010000 		.4byte	.LASF81
 4361 051c 08       		.byte	0x8
 4362 051d 6902     		.2byte	0x269
 4363 051f 94000000 		.4byte	0x94
 4364 0523 10       		.byte	0x10
 4365 0524 19       		.uleb128 0x19
 4366 0525 13190000 		.4byte	.LASF82
 4367 0529 08       		.byte	0x8
 4368 052a 6A02     		.2byte	0x26a
 4369 052c C3080000 		.4byte	0x8c3
 4370 0530 14       		.byte	0x14
 4371 0531 19       		.uleb128 0x19
 4372 0532 F3220000 		.4byte	.LASF83
 4373 0536 08       		.byte	0x8
 4374 0537 6D02     		.2byte	0x26d
 4375 0539 94000000 		.4byte	0x94
 4376 053d 30       		.byte	0x30
 4377 053e 19       		.uleb128 0x19
 4378 053f 89240000 		.4byte	.LASF84
 4379 0543 08       		.byte	0x8
 4380 0544 6E02     		.2byte	0x26e
 4381 0546 D8080000 		.4byte	0x8d8
 4382 054a 34       		.byte	0x34
 4383 054b 19       		.uleb128 0x19
 4384 054c 26230000 		.4byte	.LASF85
 4385 0550 08       		.byte	0x8
 4386 0551 7002     		.2byte	0x270
 4387 0553 94000000 		.4byte	0x94
 4388 0557 38       		.byte	0x38
 4389 0558 19       		.uleb128 0x19
 4390 0559 111E0000 		.4byte	.LASF86
 4391 055d 08       		.byte	0x8
 4392 055e 7202     		.2byte	0x272
 4393 0560 E9080000 		.4byte	0x8e9
 4394 0564 3C       		.byte	0x3c
 4395 0565 19       		.uleb128 0x19
 4396 0566 CC080000 		.4byte	.LASF87
 4397 056a 08       		.byte	0x8
 4398 056b 7502     		.2byte	0x275
 4399 056d 1D020000 		.4byte	0x21d
 4400 0571 40       		.byte	0x40
 4401 0572 19       		.uleb128 0x19
 4402 0573 B5080000 		.4byte	.LASF88
 4403 0577 08       		.byte	0x8
 4404 0578 7602     		.2byte	0x276
 4405 057a 94000000 		.4byte	0x94
 4406 057e 44       		.byte	0x44
ARM GAS  /tmp/cccFXynL.s 			page 79


 4407 057f 19       		.uleb128 0x19
 4408 0580 1D200000 		.4byte	.LASF89
 4409 0584 08       		.byte	0x8
 4410 0585 7702     		.2byte	0x277
 4411 0587 1D020000 		.4byte	0x21d
 4412 058b 48       		.byte	0x48
 4413 058c 19       		.uleb128 0x19
 4414 058d DA160000 		.4byte	.LASF90
 4415 0591 08       		.byte	0x8
 4416 0592 7802     		.2byte	0x278
 4417 0594 EF080000 		.4byte	0x8ef
 4418 0598 4C       		.byte	0x4c
 4419 0599 19       		.uleb128 0x19
 4420 059a 89020000 		.4byte	.LASF91
 4421 059e 08       		.byte	0x8
 4422 059f 7B02     		.2byte	0x27b
 4423 05a1 94000000 		.4byte	0x94
 4424 05a5 50       		.byte	0x50
 4425 05a6 19       		.uleb128 0x19
 4426 05a7 04100000 		.4byte	.LASF92
 4427 05ab 08       		.byte	0x8
 4428 05ac 7C02     		.2byte	0x27c
 4429 05ae AD010000 		.4byte	0x1ad
 4430 05b2 54       		.byte	0x54
 4431 05b3 19       		.uleb128 0x19
 4432 05b4 E1100000 		.4byte	.LASF93
 4433 05b8 08       		.byte	0x8
 4434 05b9 9F02     		.2byte	0x29f
 4435 05bb A1080000 		.4byte	0x8a1
 4436 05bf 58       		.byte	0x58
 4437 05c0 1A       		.uleb128 0x1a
 4438 05c1 24010000 		.4byte	.LASF53
 4439 05c5 08       		.byte	0x8
 4440 05c6 A302     		.2byte	0x2a3
 4441 05c8 3A030000 		.4byte	0x33a
 4442 05cc 4801     		.2byte	0x148
 4443 05ce 1A       		.uleb128 0x1a
 4444 05cf 401C0000 		.4byte	.LASF94
 4445 05d3 08       		.byte	0x8
 4446 05d4 A402     		.2byte	0x2a4
 4447 05d6 FC020000 		.4byte	0x2fc
 4448 05da 4C01     		.2byte	0x14c
 4449 05dc 1A       		.uleb128 0x1a
 4450 05dd B1020000 		.4byte	.LASF95
 4451 05e1 08       		.byte	0x8
 4452 05e2 A802     		.2byte	0x2a8
 4453 05e4 00090000 		.4byte	0x900
 4454 05e8 DC02     		.2byte	0x2dc
 4455 05ea 1A       		.uleb128 0x1a
 4456 05eb E81D0000 		.4byte	.LASF96
 4457 05ef 08       		.byte	0x8
 4458 05f0 AD02     		.2byte	0x2ad
 4459 05f2 A6060000 		.4byte	0x6a6
 4460 05f6 E002     		.2byte	0x2e0
 4461 05f8 1A       		.uleb128 0x1a
 4462 05f9 4D060000 		.4byte	.LASF97
 4463 05fd 08       		.byte	0x8
ARM GAS  /tmp/cccFXynL.s 			page 80


 4464 05fe AF02     		.2byte	0x2af
 4465 0600 0C090000 		.4byte	0x90c
 4466 0604 EC02     		.2byte	0x2ec
 4467 0606 00       		.byte	0
 4468 0607 07       		.uleb128 0x7
 4469 0608 04       		.byte	0x4
 4470 0609 AC040000 		.4byte	0x4ac
 4471 060d 16       		.uleb128 0x16
 4472 060e 94000000 		.4byte	0x94
 4473 0612 2B060000 		.4byte	0x62b
 4474 0616 17       		.uleb128 0x17
 4475 0617 CA040000 		.4byte	0x4ca
 4476 061b 17       		.uleb128 0x17
 4477 061c AB010000 		.4byte	0x1ab
 4478 0620 17       		.uleb128 0x17
 4479 0621 2B060000 		.4byte	0x62b
 4480 0625 17       		.uleb128 0x17
 4481 0626 94000000 		.4byte	0x94
 4482 062a 00       		.byte	0
 4483 062b 07       		.uleb128 0x7
 4484 062c 04       		.byte	0x4
 4485 062d BA010000 		.4byte	0x1ba
 4486 0631 06       		.uleb128 0x6
 4487 0632 2B060000 		.4byte	0x62b
 4488 0636 07       		.uleb128 0x7
 4489 0637 04       		.byte	0x4
 4490 0638 0D060000 		.4byte	0x60d
 4491 063c 16       		.uleb128 0x16
 4492 063d 2E010000 		.4byte	0x12e
 4493 0641 5A060000 		.4byte	0x65a
 4494 0645 17       		.uleb128 0x17
 4495 0646 CA040000 		.4byte	0x4ca
 4496 064a 17       		.uleb128 0x17
 4497 064b AB010000 		.4byte	0x1ab
 4498 064f 17       		.uleb128 0x17
 4499 0650 2E010000 		.4byte	0x12e
 4500 0654 17       		.uleb128 0x17
 4501 0655 94000000 		.4byte	0x94
 4502 0659 00       		.byte	0
 4503 065a 07       		.uleb128 0x7
 4504 065b 04       		.byte	0x4
 4505 065c 3C060000 		.4byte	0x63c
 4506 0660 16       		.uleb128 0x16
 4507 0661 94000000 		.4byte	0x94
 4508 0665 74060000 		.4byte	0x674
 4509 0669 17       		.uleb128 0x17
 4510 066a CA040000 		.4byte	0x4ca
 4511 066e 17       		.uleb128 0x17
 4512 066f AB010000 		.4byte	0x1ab
 4513 0673 00       		.byte	0
 4514 0674 07       		.uleb128 0x7
 4515 0675 04       		.byte	0x4
 4516 0676 60060000 		.4byte	0x660
 4517 067a 0C       		.uleb128 0xc
 4518 067b 37000000 		.4byte	0x37
 4519 067f 8A060000 		.4byte	0x68a
 4520 0683 0D       		.uleb128 0xd
ARM GAS  /tmp/cccFXynL.s 			page 81


 4521 0684 9B000000 		.4byte	0x9b
 4522 0688 02       		.byte	0x2
 4523 0689 00       		.byte	0
 4524 068a 0C       		.uleb128 0xc
 4525 068b 37000000 		.4byte	0x37
 4526 068f 9A060000 		.4byte	0x69a
 4527 0693 0D       		.uleb128 0xd
 4528 0694 9B000000 		.4byte	0x9b
 4529 0698 00       		.byte	0
 4530 0699 00       		.byte	0
 4531 069a 09       		.uleb128 0x9
 4532 069b B9250000 		.4byte	.LASF98
 4533 069f 08       		.byte	0x8
 4534 06a0 1F01     		.2byte	0x11f
 4535 06a2 82030000 		.4byte	0x382
 4536 06a6 1B       		.uleb128 0x1b
 4537 06a7 551B0000 		.4byte	.LASF99
 4538 06ab 0C       		.byte	0xc
 4539 06ac 08       		.byte	0x8
 4540 06ad 2301     		.2byte	0x123
 4541 06af DB060000 		.4byte	0x6db
 4542 06b3 19       		.uleb128 0x19
 4543 06b4 63120000 		.4byte	.LASF33
 4544 06b8 08       		.byte	0x8
 4545 06b9 2501     		.2byte	0x125
 4546 06bb DB060000 		.4byte	0x6db
 4547 06bf 00       		.byte	0
 4548 06c0 19       		.uleb128 0x19
 4549 06c1 14110000 		.4byte	.LASF100
 4550 06c5 08       		.byte	0x8
 4551 06c6 2601     		.2byte	0x126
 4552 06c8 94000000 		.4byte	0x94
 4553 06cc 04       		.byte	0x4
 4554 06cd 19       		.uleb128 0x19
 4555 06ce 0D190000 		.4byte	.LASF101
 4556 06d2 08       		.byte	0x8
 4557 06d3 2701     		.2byte	0x127
 4558 06d5 E1060000 		.4byte	0x6e1
 4559 06d9 08       		.byte	0x8
 4560 06da 00       		.byte	0
 4561 06db 07       		.uleb128 0x7
 4562 06dc 04       		.byte	0x4
 4563 06dd A6060000 		.4byte	0x6a6
 4564 06e1 07       		.uleb128 0x7
 4565 06e2 04       		.byte	0x4
 4566 06e3 9A060000 		.4byte	0x69a
 4567 06e7 1B       		.uleb128 0x1b
 4568 06e8 2F270000 		.4byte	.LASF102
 4569 06ec 0E       		.byte	0xe
 4570 06ed 08       		.byte	0x8
 4571 06ee 3F01     		.2byte	0x13f
 4572 06f0 1C070000 		.4byte	0x71c
 4573 06f4 19       		.uleb128 0x19
 4574 06f5 06160000 		.4byte	.LASF103
 4575 06f9 08       		.byte	0x8
 4576 06fa 4001     		.2byte	0x140
 4577 06fc 1C070000 		.4byte	0x71c
ARM GAS  /tmp/cccFXynL.s 			page 82


 4578 0700 00       		.byte	0
 4579 0701 19       		.uleb128 0x19
 4580 0702 700C0000 		.4byte	.LASF104
 4581 0706 08       		.byte	0x8
 4582 0707 4101     		.2byte	0x141
 4583 0709 1C070000 		.4byte	0x71c
 4584 070d 06       		.byte	0x6
 4585 070e 19       		.uleb128 0x19
 4586 070f 61040000 		.4byte	.LASF105
 4587 0713 08       		.byte	0x8
 4588 0714 4201     		.2byte	0x142
 4589 0716 50000000 		.4byte	0x50
 4590 071a 0C       		.byte	0xc
 4591 071b 00       		.byte	0
 4592 071c 0C       		.uleb128 0xc
 4593 071d 50000000 		.4byte	0x50
 4594 0721 2C070000 		.4byte	0x72c
 4595 0725 0D       		.uleb128 0xd
 4596 0726 9B000000 		.4byte	0x9b
 4597 072a 02       		.byte	0x2
 4598 072b 00       		.byte	0
 4599 072c 1C       		.uleb128 0x1c
 4600 072d D0       		.byte	0xd0
 4601 072e 08       		.byte	0x8
 4602 072f 8002     		.2byte	0x280
 4603 0731 2D080000 		.4byte	0x82d
 4604 0735 19       		.uleb128 0x19
 4605 0736 02080000 		.4byte	.LASF106
 4606 073a 08       		.byte	0x8
 4607 073b 8202     		.2byte	0x282
 4608 073d 9B000000 		.4byte	0x9b
 4609 0741 00       		.byte	0
 4610 0742 19       		.uleb128 0x19
 4611 0743 9D150000 		.4byte	.LASF107
 4612 0747 08       		.byte	0x8
 4613 0748 8302     		.2byte	0x283
 4614 074a AD010000 		.4byte	0x1ad
 4615 074e 04       		.byte	0x4
 4616 074f 19       		.uleb128 0x19
 4617 0750 EF170000 		.4byte	.LASF108
 4618 0754 08       		.byte	0x8
 4619 0755 8402     		.2byte	0x284
 4620 0757 2D080000 		.4byte	0x82d
 4621 075b 08       		.byte	0x8
 4622 075c 19       		.uleb128 0x19
 4623 075d 6F0F0000 		.4byte	.LASF109
 4624 0761 08       		.byte	0x8
 4625 0762 8502     		.2byte	0x285
 4626 0764 33020000 		.4byte	0x233
 4627 0768 24       		.byte	0x24
 4628 0769 19       		.uleb128 0x19
 4629 076a B9210000 		.4byte	.LASF110
 4630 076e 08       		.byte	0x8
 4631 076f 8602     		.2byte	0x286
 4632 0771 94000000 		.4byte	0x94
 4633 0775 48       		.byte	0x48
 4634 0776 19       		.uleb128 0x19
ARM GAS  /tmp/cccFXynL.s 			page 83


 4635 0777 6C190000 		.4byte	.LASF111
 4636 077b 08       		.byte	0x8
 4637 077c 8702     		.2byte	0x287
 4638 077e 8D000000 		.4byte	0x8d
 4639 0782 50       		.byte	0x50
 4640 0783 19       		.uleb128 0x19
 4641 0784 5B260000 		.4byte	.LASF112
 4642 0788 08       		.byte	0x8
 4643 0789 8802     		.2byte	0x288
 4644 078b E7060000 		.4byte	0x6e7
 4645 078f 58       		.byte	0x58
 4646 0790 19       		.uleb128 0x19
 4647 0791 DB1D0000 		.4byte	.LASF113
 4648 0795 08       		.byte	0x8
 4649 0796 8902     		.2byte	0x289
 4650 0798 95010000 		.4byte	0x195
 4651 079c 68       		.byte	0x68
 4652 079d 19       		.uleb128 0x19
 4653 079e 69060000 		.4byte	.LASF114
 4654 07a2 08       		.byte	0x8
 4655 07a3 8A02     		.2byte	0x28a
 4656 07a5 95010000 		.4byte	0x195
 4657 07a9 70       		.byte	0x70
 4658 07aa 19       		.uleb128 0x19
 4659 07ab BD180000 		.4byte	.LASF115
 4660 07af 08       		.byte	0x8
 4661 07b0 8B02     		.2byte	0x28b
 4662 07b2 95010000 		.4byte	0x195
 4663 07b6 78       		.byte	0x78
 4664 07b7 19       		.uleb128 0x19
 4665 07b8 9E170000 		.4byte	.LASF116
 4666 07bc 08       		.byte	0x8
 4667 07bd 8C02     		.2byte	0x28c
 4668 07bf 3D080000 		.4byte	0x83d
 4669 07c3 80       		.byte	0x80
 4670 07c4 19       		.uleb128 0x19
 4671 07c5 84120000 		.4byte	.LASF117
 4672 07c9 08       		.byte	0x8
 4673 07ca 8D02     		.2byte	0x28d
 4674 07cc 4D080000 		.4byte	0x84d
 4675 07d0 88       		.byte	0x88
 4676 07d1 19       		.uleb128 0x19
 4677 07d2 9B1C0000 		.4byte	.LASF118
 4678 07d6 08       		.byte	0x8
 4679 07d7 8E02     		.2byte	0x28e
 4680 07d9 94000000 		.4byte	0x94
 4681 07dd A0       		.byte	0xa0
 4682 07de 19       		.uleb128 0x19
 4683 07df BD0D0000 		.4byte	.LASF119
 4684 07e3 08       		.byte	0x8
 4685 07e4 8F02     		.2byte	0x28f
 4686 07e6 95010000 		.4byte	0x195
 4687 07ea A4       		.byte	0xa4
 4688 07eb 19       		.uleb128 0x19
 4689 07ec 8E100000 		.4byte	.LASF120
 4690 07f0 08       		.byte	0x8
 4691 07f1 9002     		.2byte	0x290
ARM GAS  /tmp/cccFXynL.s 			page 84


 4692 07f3 95010000 		.4byte	0x195
 4693 07f7 AC       		.byte	0xac
 4694 07f8 19       		.uleb128 0x19
 4695 07f9 430A0000 		.4byte	.LASF121
 4696 07fd 08       		.byte	0x8
 4697 07fe 9102     		.2byte	0x291
 4698 0800 95010000 		.4byte	0x195
 4699 0804 B4       		.byte	0xb4
 4700 0805 19       		.uleb128 0x19
 4701 0806 1E140000 		.4byte	.LASF122
 4702 080a 08       		.byte	0x8
 4703 080b 9202     		.2byte	0x292
 4704 080d 95010000 		.4byte	0x195
 4705 0811 BC       		.byte	0xbc
 4706 0812 19       		.uleb128 0x19
 4707 0813 29180000 		.4byte	.LASF123
 4708 0817 08       		.byte	0x8
 4709 0818 9302     		.2byte	0x293
 4710 081a 95010000 		.4byte	0x195
 4711 081e C4       		.byte	0xc4
 4712 081f 19       		.uleb128 0x19
 4713 0820 F31E0000 		.4byte	.LASF124
 4714 0824 08       		.byte	0x8
 4715 0825 9402     		.2byte	0x294
 4716 0827 94000000 		.4byte	0x94
 4717 082b CC       		.byte	0xcc
 4718 082c 00       		.byte	0
 4719 082d 0C       		.uleb128 0xc
 4720 082e B3010000 		.4byte	0x1b3
 4721 0832 3D080000 		.4byte	0x83d
 4722 0836 0D       		.uleb128 0xd
 4723 0837 9B000000 		.4byte	0x9b
 4724 083b 19       		.byte	0x19
 4725 083c 00       		.byte	0
 4726 083d 0C       		.uleb128 0xc
 4727 083e B3010000 		.4byte	0x1b3
 4728 0842 4D080000 		.4byte	0x84d
 4729 0846 0D       		.uleb128 0xd
 4730 0847 9B000000 		.4byte	0x9b
 4731 084b 07       		.byte	0x7
 4732 084c 00       		.byte	0
 4733 084d 0C       		.uleb128 0xc
 4734 084e B3010000 		.4byte	0x1b3
 4735 0852 5D080000 		.4byte	0x85d
 4736 0856 0D       		.uleb128 0xd
 4737 0857 9B000000 		.4byte	0x9b
 4738 085b 17       		.byte	0x17
 4739 085c 00       		.byte	0
 4740 085d 1C       		.uleb128 0x1c
 4741 085e F0       		.byte	0xf0
 4742 085f 08       		.byte	0x8
 4743 0860 9902     		.2byte	0x299
 4744 0862 81080000 		.4byte	0x881
 4745 0866 19       		.uleb128 0x19
 4746 0867 5F190000 		.4byte	.LASF125
 4747 086b 08       		.byte	0x8
 4748 086c 9C02     		.2byte	0x29c
ARM GAS  /tmp/cccFXynL.s 			page 85


 4749 086e 81080000 		.4byte	0x881
 4750 0872 00       		.byte	0
 4751 0873 19       		.uleb128 0x19
 4752 0874 4F0E0000 		.4byte	.LASF126
 4753 0878 08       		.byte	0x8
 4754 0879 9D02     		.2byte	0x29d
 4755 087b 91080000 		.4byte	0x891
 4756 087f 78       		.byte	0x78
 4757 0880 00       		.byte	0
 4758 0881 0C       		.uleb128 0xc
 4759 0882 7C030000 		.4byte	0x37c
 4760 0886 91080000 		.4byte	0x891
 4761 088a 0D       		.uleb128 0xd
 4762 088b 9B000000 		.4byte	0x9b
 4763 088f 1D       		.byte	0x1d
 4764 0890 00       		.byte	0
 4765 0891 0C       		.uleb128 0xc
 4766 0892 9B000000 		.4byte	0x9b
 4767 0896 A1080000 		.4byte	0x8a1
 4768 089a 0D       		.uleb128 0xd
 4769 089b 9B000000 		.4byte	0x9b
 4770 089f 1D       		.byte	0x1d
 4771 08a0 00       		.byte	0
 4772 08a1 1D       		.uleb128 0x1d
 4773 08a2 F0       		.byte	0xf0
 4774 08a3 08       		.byte	0x8
 4775 08a4 7E02     		.2byte	0x27e
 4776 08a6 C3080000 		.4byte	0x8c3
 4777 08aa 1E       		.uleb128 0x1e
 4778 08ab F5050000 		.4byte	.LASF76
 4779 08af 08       		.byte	0x8
 4780 08b0 9502     		.2byte	0x295
 4781 08b2 2C070000 		.4byte	0x72c
 4782 08b6 1E       		.uleb128 0x1e
 4783 08b7 3F030000 		.4byte	.LASF127
 4784 08bb 08       		.byte	0x8
 4785 08bc 9E02     		.2byte	0x29e
 4786 08be 5D080000 		.4byte	0x85d
 4787 08c2 00       		.byte	0
 4788 08c3 0C       		.uleb128 0xc
 4789 08c4 B3010000 		.4byte	0x1b3
 4790 08c8 D3080000 		.4byte	0x8d3
 4791 08cc 0D       		.uleb128 0xd
 4792 08cd 9B000000 		.4byte	0x9b
 4793 08d1 18       		.byte	0x18
 4794 08d2 00       		.byte	0
 4795 08d3 08       		.uleb128 0x8
 4796 08d4 F01D0000 		.4byte	.LASF129
 4797 08d8 07       		.uleb128 0x7
 4798 08d9 04       		.byte	0x4
 4799 08da D3080000 		.4byte	0x8d3
 4800 08de 1F       		.uleb128 0x1f
 4801 08df E9080000 		.4byte	0x8e9
 4802 08e3 17       		.uleb128 0x17
 4803 08e4 CA040000 		.4byte	0x4ca
 4804 08e8 00       		.byte	0
 4805 08e9 07       		.uleb128 0x7
ARM GAS  /tmp/cccFXynL.s 			page 86


 4806 08ea 04       		.byte	0x4
 4807 08eb DE080000 		.4byte	0x8de
 4808 08ef 07       		.uleb128 0x7
 4809 08f0 04       		.byte	0x4
 4810 08f1 1D020000 		.4byte	0x21d
 4811 08f5 1F       		.uleb128 0x1f
 4812 08f6 00090000 		.4byte	0x900
 4813 08fa 17       		.uleb128 0x17
 4814 08fb 94000000 		.4byte	0x94
 4815 08ff 00       		.byte	0
 4816 0900 07       		.uleb128 0x7
 4817 0901 04       		.byte	0x4
 4818 0902 06090000 		.4byte	0x906
 4819 0906 07       		.uleb128 0x7
 4820 0907 04       		.byte	0x4
 4821 0908 F5080000 		.4byte	0x8f5
 4822 090c 0C       		.uleb128 0xc
 4823 090d 9A060000 		.4byte	0x69a
 4824 0911 1C090000 		.4byte	0x91c
 4825 0915 0D       		.uleb128 0xd
 4826 0916 9B000000 		.4byte	0x9b
 4827 091a 02       		.byte	0x2
 4828 091b 00       		.byte	0
 4829 091c 20       		.uleb128 0x20
 4830 091d 8C1D0000 		.4byte	.LASF130
 4831 0921 08       		.byte	0x8
 4832 0922 2E03     		.2byte	0x32e
 4833 0924 CA040000 		.4byte	0x4ca
 4834 0928 20       		.uleb128 0x20
 4835 0929 D0220000 		.4byte	.LASF131
 4836 092d 08       		.byte	0x8
 4837 092e 2F03     		.2byte	0x32f
 4838 0930 D0040000 		.4byte	0x4d0
 4839 0934 07       		.uleb128 0x7
 4840 0935 04       		.byte	0x4
 4841 0936 3A090000 		.4byte	0x93a
 4842 093a 21       		.uleb128 0x21
 4843 093b 22       		.uleb128 0x22
 4844 093c 381A0000 		.4byte	.LASF132
 4845 0940 09       		.byte	0x9
 4846 0941 63       		.byte	0x63
 4847 0942 AD010000 		.4byte	0x1ad
 4848 0946 03       		.uleb128 0x3
 4849 0947 0F090000 		.4byte	.LASF133
 4850 094b 0A       		.byte	0xa
 4851 094c 28       		.byte	0x28
 4852 094d 51090000 		.4byte	0x951
 4853 0951 11       		.uleb128 0x11
 4854 0952 71270000 		.4byte	.LASF134
 4855 0956 04       		.byte	0x4
 4856 0957 0B       		.byte	0xb
 4857 0958 00       		.byte	0
 4858 0959 68090000 		.4byte	0x968
 4859 095d 23       		.uleb128 0x23
 4860 095e 52230000 		.4byte	.LASF135
 4861 0962 AB010000 		.4byte	0x1ab
 4862 0966 00       		.byte	0
ARM GAS  /tmp/cccFXynL.s 			page 87


 4863 0967 00       		.byte	0
 4864 0968 03       		.uleb128 0x3
 4865 0969 400E0000 		.4byte	.LASF136
 4866 096d 0C       		.byte	0xc
 4867 096e 2E       		.byte	0x2e
 4868 096f 46090000 		.4byte	0x946
 4869 0973 03       		.uleb128 0x3
 4870 0974 2D210000 		.4byte	.LASF137
 4871 0978 0D       		.byte	0xd
 4872 0979 CD       		.byte	0xcd
 4873 097a 23010000 		.4byte	0x123
 4874 097e 03       		.uleb128 0x3
 4875 097f B80E0000 		.4byte	.LASF138
 4876 0983 0E       		.byte	0xe
 4877 0984 45       		.byte	0x45
 4878 0985 D2000000 		.4byte	0xd2
 4879 0989 03       		.uleb128 0x3
 4880 098a CC130000 		.4byte	.LASF139
 4881 098e 0E       		.byte	0xe
 4882 098f 48       		.byte	0x48
 4883 0990 A7000000 		.4byte	0xa7
 4884 0994 03       		.uleb128 0x3
 4885 0995 C7220000 		.4byte	.LASF140
 4886 0999 0E       		.byte	0xe
 4887 099a 49       		.byte	0x49
 4888 099b A7000000 		.4byte	0xa7
 4889 099f 03       		.uleb128 0x3
 4890 09a0 4E130000 		.4byte	.LASF141
 4891 09a4 0E       		.byte	0xe
 4892 09a5 4A       		.byte	0x4a
 4893 09a6 A7000000 		.4byte	0xa7
 4894 09aa 03       		.uleb128 0x3
 4895 09ab 93150000 		.4byte	.LASF142
 4896 09af 0E       		.byte	0xe
 4897 09b0 4B       		.byte	0x4b
 4898 09b1 A7000000 		.4byte	0xa7
 4899 09b5 03       		.uleb128 0x3
 4900 09b6 D9060000 		.4byte	.LASF143
 4901 09ba 0E       		.byte	0xe
 4902 09bb 4C       		.byte	0x4c
 4903 09bc D2000000 		.4byte	0xd2
 4904 09c0 03       		.uleb128 0x3
 4905 09c1 89000000 		.4byte	.LASF144
 4906 09c5 0E       		.byte	0xe
 4907 09c6 4D       		.byte	0x4d
 4908 09c7 C2000000 		.4byte	0xc2
 4909 09cb 03       		.uleb128 0x3
 4910 09cc 2C1A0000 		.4byte	.LASF145
 4911 09d0 0E       		.byte	0xe
 4912 09d1 4F       		.byte	0x4f
 4913 09d2 D2000000 		.4byte	0xd2
 4914 09d6 03       		.uleb128 0x3
 4915 09d7 91240000 		.4byte	.LASF146
 4916 09db 0E       		.byte	0xe
 4917 09dc 50       		.byte	0x50
 4918 09dd D2000000 		.4byte	0xd2
 4919 09e1 03       		.uleb128 0x3
ARM GAS  /tmp/cccFXynL.s 			page 88


 4920 09e2 0B1D0000 		.4byte	.LASF147
 4921 09e6 0E       		.byte	0xe
 4922 09e7 51       		.byte	0x51
 4923 09e8 C2000000 		.4byte	0xc2
 4924 09ec 03       		.uleb128 0x3
 4925 09ed 3D040000 		.4byte	.LASF148
 4926 09f1 0F       		.byte	0xf
 4927 09f2 33       		.byte	0x33
 4928 09f3 D2000000 		.4byte	0xd2
 4929 09f7 06       		.uleb128 0x6
 4930 09f8 EC090000 		.4byte	0x9ec
 4931 09fc 03       		.uleb128 0x3
 4932 09fd C9030000 		.4byte	.LASF149
 4933 0a01 0F       		.byte	0xf
 4934 0a02 3F       		.byte	0x3f
 4935 0a03 070A0000 		.4byte	0xa07
 4936 0a07 11       		.uleb128 0x11
 4937 0a08 120A0000 		.4byte	.LASF150
 4938 0a0c 50       		.byte	0x50
 4939 0a0d 10       		.byte	0x10
 4940 0a0e C2       		.byte	0xc2
 4941 0a0f 250B0000 		.4byte	0xb25
 4942 0a13 0F       		.uleb128 0xf
 4943 0a14 FE120000 		.4byte	.LASF151
 4944 0a18 10       		.byte	0x10
 4945 0a19 C3       		.byte	0xc3
 4946 0a1a 300B0000 		.4byte	0xb30
 4947 0a1e 00       		.byte	0
 4948 0a1f 0F       		.uleb128 0xf
 4949 0a20 BA0F0000 		.4byte	.LASF152
 4950 0a24 10       		.byte	0x10
 4951 0a25 C5       		.byte	0xc5
 4952 0a26 300B0000 		.4byte	0xb30
 4953 0a2a 04       		.byte	0x4
 4954 0a2b 0F       		.uleb128 0xf
 4955 0a2c 29120000 		.4byte	.LASF153
 4956 0a30 10       		.byte	0x10
 4957 0a31 C7       		.byte	0xc7
 4958 0a32 B5090000 		.4byte	0x9b5
 4959 0a36 08       		.byte	0x8
 4960 0a37 0F       		.uleb128 0xf
 4961 0a38 F80A0000 		.4byte	.LASF154
 4962 0a3c 10       		.byte	0x10
 4963 0a3d C8       		.byte	0xc8
 4964 0a3e F9110000 		.4byte	0x11f9
 4965 0a42 0C       		.byte	0xc
 4966 0a43 0F       		.uleb128 0xf
 4967 0a44 CE020000 		.4byte	.LASF155
 4968 0a48 10       		.byte	0x10
 4969 0a49 CA       		.byte	0xca
 4970 0a4a 300B0000 		.4byte	0xb30
 4971 0a4e 10       		.byte	0x10
 4972 0a4f 0F       		.uleb128 0xf
 4973 0a50 69250000 		.4byte	.LASF156
 4974 0a54 10       		.byte	0x10
 4975 0a55 CB       		.byte	0xcb
 4976 0a56 300B0000 		.4byte	0xb30
ARM GAS  /tmp/cccFXynL.s 			page 89


 4977 0a5a 14       		.byte	0x14
 4978 0a5b 0F       		.uleb128 0xf
 4979 0a5c 1F230000 		.4byte	.LASF157
 4980 0a60 10       		.byte	0x10
 4981 0a61 D2       		.byte	0xd2
 4982 0a62 2B060000 		.4byte	0x62b
 4983 0a66 18       		.byte	0x18
 4984 0a67 0F       		.uleb128 0xf
 4985 0a68 001D0000 		.4byte	.LASF158
 4986 0a6c 10       		.byte	0x10
 4987 0a6d D8       		.byte	0xd8
 4988 0a6e 3E140000 		.4byte	0x143e
 4989 0a72 1C       		.byte	0x1c
 4990 0a73 0F       		.uleb128 0xf
 4991 0a74 88270000 		.4byte	.LASF159
 4992 0a78 10       		.byte	0x10
 4993 0a79 DD       		.byte	0xdd
 4994 0a7a 94090000 		.4byte	0x994
 4995 0a7e 20       		.byte	0x20
 4996 0a7f 0F       		.uleb128 0xf
 4997 0a80 45220000 		.4byte	.LASF160
 4998 0a84 10       		.byte	0x10
 4999 0a85 E1       		.byte	0xe1
 5000 0a86 89090000 		.4byte	0x989
 5001 0a8a 21       		.byte	0x21
 5002 0a8b 0F       		.uleb128 0xf
 5003 0a8c 5F180000 		.4byte	.LASF161
 5004 0a90 10       		.byte	0x10
 5005 0a91 E6       		.byte	0xe6
 5006 0a92 9F090000 		.4byte	0x99f
 5007 0a96 22       		.byte	0x22
 5008 0a97 0F       		.uleb128 0xf
 5009 0a98 6D160000 		.4byte	.LASF162
 5010 0a9c 10       		.byte	0x10
 5011 0a9d EC       		.byte	0xec
 5012 0a9e AA090000 		.4byte	0x9aa
 5013 0aa2 23       		.byte	0x23
 5014 0aa3 0F       		.uleb128 0xf
 5015 0aa4 77160000 		.4byte	.LASF163
 5016 0aa8 10       		.byte	0x10
 5017 0aa9 F3       		.byte	0xf3
 5018 0aaa F7090000 		.4byte	0x9f7
 5019 0aae 24       		.byte	0x24
 5020 0aaf 24       		.uleb128 0x24
 5021 0ab0 705F7500 		.ascii	"p_u\000"
 5022 0ab4 10       		.byte	0x10
 5023 0ab5 3101     		.2byte	0x131
 5024 0ab7 79130000 		.4byte	0x1379
 5025 0abb 28       		.byte	0x28
 5026 0abc 19       		.uleb128 0x19
 5027 0abd 76050000 		.4byte	.LASF164
 5028 0ac1 10       		.byte	0x10
 5029 0ac2 3601     		.2byte	0x136
 5030 0ac4 360B0000 		.4byte	0xb36
 5031 0ac8 2C       		.byte	0x2c
 5032 0ac9 19       		.uleb128 0x19
 5033 0aca EC160000 		.4byte	.LASF165
ARM GAS  /tmp/cccFXynL.s 			page 90


 5034 0ace 10       		.byte	0x10
 5035 0acf 3C01     		.2byte	0x13c
 5036 0ad1 5A0B0000 		.4byte	0xb5a
 5037 0ad5 30       		.byte	0x30
 5038 0ad6 19       		.uleb128 0x19
 5039 0ad7 FC070000 		.4byte	.LASF166
 5040 0adb 10       		.byte	0x10
 5041 0adc 4001     		.2byte	0x140
 5042 0ade C0090000 		.4byte	0x9c0
 5043 0ae2 38       		.byte	0x38
 5044 0ae3 19       		.uleb128 0x19
 5045 0ae4 22200000 		.4byte	.LASF167
 5046 0ae8 10       		.byte	0x10
 5047 0ae9 4601     		.2byte	0x146
 5048 0aeb CB090000 		.4byte	0x9cb
 5049 0aef 3C       		.byte	0x3c
 5050 0af0 19       		.uleb128 0x19
 5051 0af1 A1220000 		.4byte	.LASF168
 5052 0af5 10       		.byte	0x10
 5053 0af6 4D01     		.2byte	0x14d
 5054 0af8 38140000 		.4byte	0x1438
 5055 0afc 40       		.byte	0x40
 5056 0afd 19       		.uleb128 0x19
 5057 0afe 881E0000 		.4byte	.LASF169
 5058 0b02 10       		.byte	0x10
 5059 0b03 5101     		.2byte	0x151
 5060 0b05 B5090000 		.4byte	0x9b5
 5061 0b09 44       		.byte	0x44
 5062 0b0a 19       		.uleb128 0x19
 5063 0b0b 56130000 		.4byte	.LASF170
 5064 0b0f 10       		.byte	0x10
 5065 0b10 5801     		.2byte	0x158
 5066 0b12 AB010000 		.4byte	0x1ab
 5067 0b16 48       		.byte	0x48
 5068 0b17 19       		.uleb128 0x19
 5069 0b18 83070000 		.4byte	.LASF171
 5070 0b1c 10       		.byte	0x10
 5071 0b1d 6201     		.2byte	0x162
 5072 0b1f 94000000 		.4byte	0x94
 5073 0b23 4C       		.byte	0x4c
 5074 0b24 00       		.byte	0
 5075 0b25 03       		.uleb128 0x3
 5076 0b26 9C250000 		.4byte	.LASF172
 5077 0b2a 0F       		.byte	0xf
 5078 0b2b 44       		.byte	0x44
 5079 0b2c 300B0000 		.4byte	0xb30
 5080 0b30 07       		.uleb128 0x7
 5081 0b31 04       		.byte	0x4
 5082 0b32 FC090000 		.4byte	0x9fc
 5083 0b36 03       		.uleb128 0x3
 5084 0b37 B1050000 		.4byte	.LASF173
 5085 0b3b 0F       		.byte	0xf
 5086 0b3c 49       		.byte	0x49
 5087 0b3d 410B0000 		.4byte	0xb41
 5088 0b41 11       		.uleb128 0x11
 5089 0b42 90270000 		.4byte	.LASF174
 5090 0b46 04       		.byte	0x4
ARM GAS  /tmp/cccFXynL.s 			page 91


 5091 0b47 10       		.byte	0x10
 5092 0b48 B0       		.byte	0xb0
 5093 0b49 5A0B0000 		.4byte	0xb5a
 5094 0b4d 0F       		.uleb128 0xf
 5095 0b4e FE120000 		.4byte	.LASF151
 5096 0b52 10       		.byte	0x10
 5097 0b53 B1       		.byte	0xb1
 5098 0b54 300B0000 		.4byte	0xb30
 5099 0b58 00       		.byte	0
 5100 0b59 00       		.byte	0
 5101 0b5a 03       		.uleb128 0x3
 5102 0b5b 4F180000 		.4byte	.LASF175
 5103 0b5f 0F       		.byte	0xf
 5104 0b60 50       		.byte	0x50
 5105 0b61 650B0000 		.4byte	0xb65
 5106 0b65 11       		.uleb128 0x11
 5107 0b66 91020000 		.4byte	.LASF176
 5108 0b6a 08       		.byte	0x8
 5109 0b6b 10       		.byte	0x10
 5110 0b6c B7       		.byte	0xb7
 5111 0b6d 8A0B0000 		.4byte	0xb8a
 5112 0b71 0F       		.uleb128 0xf
 5113 0b72 FE120000 		.4byte	.LASF151
 5114 0b76 10       		.byte	0x10
 5115 0b77 B8       		.byte	0xb8
 5116 0b78 300B0000 		.4byte	0xb30
 5117 0b7c 00       		.byte	0
 5118 0b7d 0F       		.uleb128 0xf
 5119 0b7e BA0F0000 		.4byte	.LASF152
 5120 0b82 10       		.byte	0x10
 5121 0b83 B9       		.byte	0xb9
 5122 0b84 300B0000 		.4byte	0xb30
 5123 0b88 04       		.byte	0x4
 5124 0b89 00       		.byte	0
 5125 0b8a 03       		.uleb128 0x3
 5126 0b8b 050A0000 		.4byte	.LASF177
 5127 0b8f 0F       		.byte	0xf
 5128 0b90 57       		.byte	0x57
 5129 0b91 950B0000 		.4byte	0xb95
 5130 0b95 1B       		.uleb128 0x1b
 5131 0b96 481F0000 		.4byte	.LASF178
 5132 0b9a 1C       		.byte	0x1c
 5133 0b9b 10       		.byte	0x10
 5134 0b9c 9001     		.2byte	0x190
 5135 0b9e F10B0000 		.4byte	0xbf1
 5136 0ba2 19       		.uleb128 0x19
 5137 0ba3 4D1B0000 		.4byte	.LASF179
 5138 0ba7 10       		.byte	0x10
 5139 0ba8 9101     		.2byte	0x191
 5140 0baa 5A0B0000 		.4byte	0xb5a
 5141 0bae 00       		.byte	0
 5142 0baf 19       		.uleb128 0x19
 5143 0bb0 0F210000 		.4byte	.LASF180
 5144 0bb4 10       		.byte	0x10
 5145 0bb5 9201     		.2byte	0x192
 5146 0bb7 B5090000 		.4byte	0x9b5
 5147 0bbb 08       		.byte	0x8
ARM GAS  /tmp/cccFXynL.s 			page 92


 5148 0bbc 19       		.uleb128 0x19
 5149 0bbd 9D0E0000 		.4byte	.LASF181
 5150 0bc1 10       		.byte	0x10
 5151 0bc2 9401     		.2byte	0x194
 5152 0bc4 F9110000 		.4byte	0x11f9
 5153 0bc8 0C       		.byte	0xc
 5154 0bc9 19       		.uleb128 0x19
 5155 0bca F7140000 		.4byte	.LASF182
 5156 0bce 10       		.byte	0x10
 5157 0bcf 9701     		.2byte	0x197
 5158 0bd1 300B0000 		.4byte	0xb30
 5159 0bd5 10       		.byte	0x10
 5160 0bd6 19       		.uleb128 0x19
 5161 0bd7 B20F0000 		.4byte	.LASF183
 5162 0bdb 10       		.byte	0x10
 5163 0bdc 9801     		.2byte	0x198
 5164 0bde 300B0000 		.4byte	0xb30
 5165 0be2 14       		.byte	0x14
 5166 0be3 19       		.uleb128 0x19
 5167 0be4 4E110000 		.4byte	.LASF184
 5168 0be8 10       		.byte	0x10
 5169 0be9 9B01     		.2byte	0x19b
 5170 0beb 300B0000 		.4byte	0xb30
 5171 0bef 18       		.byte	0x18
 5172 0bf0 00       		.byte	0
 5173 0bf1 03       		.uleb128 0x3
 5174 0bf2 4A1E0000 		.4byte	.LASF185
 5175 0bf6 0F       		.byte	0xf
 5176 0bf7 5C       		.byte	0x5c
 5177 0bf8 FC0B0000 		.4byte	0xbfc
 5178 0bfc 07       		.uleb128 0x7
 5179 0bfd 04       		.byte	0x4
 5180 0bfe 020C0000 		.4byte	0xc02
 5181 0c02 1F       		.uleb128 0x1f
 5182 0c03 0D0C0000 		.4byte	0xc0d
 5183 0c07 17       		.uleb128 0x17
 5184 0c08 AB010000 		.4byte	0x1ab
 5185 0c0c 00       		.byte	0
 5186 0c0d 03       		.uleb128 0x3
 5187 0c0e 8D0E0000 		.4byte	.LASF186
 5188 0c12 0F       		.byte	0xf
 5189 0c13 61       		.byte	0x61
 5190 0c14 180C0000 		.4byte	0xc18
 5191 0c18 1B       		.uleb128 0x1b
 5192 0c19 34220000 		.4byte	.LASF187
 5193 0c1d 14       		.byte	0x14
 5194 0c1e 10       		.byte	0x10
 5195 0c1f 6B01     		.2byte	0x16b
 5196 0c21 670C0000 		.4byte	0xc67
 5197 0c25 19       		.uleb128 0x19
 5198 0c26 A30E0000 		.4byte	.LASF188
 5199 0c2a 10       		.byte	0x10
 5200 0c2b 6C01     		.2byte	0x16c
 5201 0c2d 44140000 		.4byte	0x1444
 5202 0c31 00       		.byte	0
 5203 0c32 19       		.uleb128 0x19
 5204 0c33 BA090000 		.4byte	.LASF189
ARM GAS  /tmp/cccFXynL.s 			page 93


 5205 0c37 10       		.byte	0x10
 5206 0c38 6D01     		.2byte	0x16d
 5207 0c3a 44140000 		.4byte	0x1444
 5208 0c3e 04       		.byte	0x4
 5209 0c3f 19       		.uleb128 0x19
 5210 0c40 FD150000 		.4byte	.LASF190
 5211 0c44 10       		.byte	0x10
 5212 0c45 6E01     		.2byte	0x16e
 5213 0c47 EC090000 		.4byte	0x9ec
 5214 0c4b 08       		.byte	0x8
 5215 0c4c 19       		.uleb128 0x19
 5216 0c4d FE210000 		.4byte	.LASF191
 5217 0c51 10       		.byte	0x10
 5218 0c52 6F01     		.2byte	0x16f
 5219 0c54 F10B0000 		.4byte	0xbf1
 5220 0c58 0C       		.byte	0xc
 5221 0c59 19       		.uleb128 0x19
 5222 0c5a FE0A0000 		.4byte	.LASF192
 5223 0c5e 10       		.byte	0x10
 5224 0c5f 7101     		.2byte	0x171
 5225 0c61 AB010000 		.4byte	0x1ab
 5226 0c65 10       		.byte	0x10
 5227 0c66 00       		.byte	0
 5228 0c67 03       		.uleb128 0x3
 5229 0c68 6B230000 		.4byte	.LASF193
 5230 0c6c 0F       		.byte	0xf
 5231 0c6d 66       		.byte	0x66
 5232 0c6e 720C0000 		.4byte	0xc72
 5233 0c72 1B       		.uleb128 0x1b
 5234 0c73 F6030000 		.4byte	.LASF194
 5235 0c77 10       		.byte	0x10
 5236 0c78 10       		.byte	0x10
 5237 0c79 7B01     		.2byte	0x17b
 5238 0c7b B40C0000 		.4byte	0xcb4
 5239 0c7f 19       		.uleb128 0x19
 5240 0c80 A30E0000 		.4byte	.LASF188
 5241 0c84 10       		.byte	0x10
 5242 0c85 7C01     		.2byte	0x17c
 5243 0c87 44140000 		.4byte	0x1444
 5244 0c8b 00       		.byte	0
 5245 0c8c 19       		.uleb128 0x19
 5246 0c8d BA090000 		.4byte	.LASF189
 5247 0c91 10       		.byte	0x10
 5248 0c92 7E01     		.2byte	0x17e
 5249 0c94 44140000 		.4byte	0x1444
 5250 0c98 04       		.byte	0x4
 5251 0c99 19       		.uleb128 0x19
 5252 0c9a FD150000 		.4byte	.LASF190
 5253 0c9e 10       		.byte	0x10
 5254 0c9f 8001     		.2byte	0x180
 5255 0ca1 EC090000 		.4byte	0x9ec
 5256 0ca5 08       		.byte	0x8
 5257 0ca6 19       		.uleb128 0x19
 5258 0ca7 67010000 		.4byte	.LASF195
 5259 0cab 10       		.byte	0x10
 5260 0cac 8201     		.2byte	0x182
 5261 0cae F7090000 		.4byte	0x9f7
ARM GAS  /tmp/cccFXynL.s 			page 94


 5262 0cb2 0C       		.byte	0xc
 5263 0cb3 00       		.byte	0
 5264 0cb4 03       		.uleb128 0x3
 5265 0cb5 CE0A0000 		.4byte	.LASF196
 5266 0cb9 0F       		.byte	0xf
 5267 0cba 6B       		.byte	0x6b
 5268 0cbb BF0C0000 		.4byte	0xcbf
 5269 0cbf 1B       		.uleb128 0x1b
 5270 0cc0 7E1F0000 		.4byte	.LASF197
 5271 0cc4 04       		.byte	0x4
 5272 0cc5 10       		.byte	0x10
 5273 0cc6 A201     		.2byte	0x1a2
 5274 0cc8 DA0C0000 		.4byte	0xcda
 5275 0ccc 19       		.uleb128 0x19
 5276 0ccd E0140000 		.4byte	.LASF198
 5277 0cd1 10       		.byte	0x10
 5278 0cd2 AA01     		.2byte	0x1aa
 5279 0cd4 31060000 		.4byte	0x631
 5280 0cd8 00       		.byte	0
 5281 0cd9 00       		.byte	0
 5282 0cda 03       		.uleb128 0x3
 5283 0cdb E3000000 		.4byte	.LASF199
 5284 0cdf 0F       		.byte	0xf
 5285 0ce0 70       		.byte	0x70
 5286 0ce1 E50C0000 		.4byte	0xce5
 5287 0ce5 18       		.uleb128 0x18
 5288 0ce6 B9170000 		.4byte	.LASF200
 5289 0cea 6802     		.2byte	0x268
 5290 0cec 10       		.byte	0x10
 5291 0ced C201     		.2byte	0x1c2
 5292 0cef 410D0000 		.4byte	0xd41
 5293 0cf3 19       		.uleb128 0x19
 5294 0cf4 AB050000 		.4byte	.LASF201
 5295 0cf8 10       		.byte	0x10
 5296 0cf9 C601     		.2byte	0x1c6
 5297 0cfb 8A0B0000 		.4byte	0xb8a
 5298 0cff 00       		.byte	0
 5299 0d00 19       		.uleb128 0x19
 5300 0d01 51050000 		.4byte	.LASF202
 5301 0d05 10       		.byte	0x10
 5302 0d06 CA01     		.2byte	0x1ca
 5303 0d08 670C0000 		.4byte	0xc67
 5304 0d0c 1C       		.byte	0x1c
 5305 0d0d 24       		.uleb128 0x24
 5306 0d0e 64626700 		.ascii	"dbg\000"
 5307 0d12 10       		.byte	0x10
 5308 0d13 CE01     		.2byte	0x1ce
 5309 0d15 B40C0000 		.4byte	0xcb4
 5310 0d19 2C       		.byte	0x2c
 5311 0d1a 19       		.uleb128 0x19
 5312 0d1b 8F180000 		.4byte	.LASF203
 5313 0d1f 10       		.byte	0x10
 5314 0d20 D201     		.2byte	0x1d2
 5315 0d22 FC090000 		.4byte	0x9fc
 5316 0d26 30       		.byte	0x30
 5317 0d27 24       		.uleb128 0x24
 5318 0d28 746D00   		.ascii	"tm\000"
ARM GAS  /tmp/cccFXynL.s 			page 95


 5319 0d2b 10       		.byte	0x10
 5320 0d2c D701     		.2byte	0x1d7
 5321 0d2e 6E130000 		.4byte	0x136e
 5322 0d32 80       		.byte	0x80
 5323 0d33 19       		.uleb128 0x19
 5324 0d34 D0210000 		.4byte	.LASF204
 5325 0d38 10       		.byte	0x10
 5326 0d39 E301     		.2byte	0x1e3
 5327 0d3b 4A140000 		.4byte	0x144a
 5328 0d3f 88       		.byte	0x88
 5329 0d40 00       		.byte	0
 5330 0d41 0C       		.uleb128 0xc
 5331 0d42 D2000000 		.4byte	0xd2
 5332 0d46 510D0000 		.4byte	0xd51
 5333 0d4a 0D       		.uleb128 0xd
 5334 0d4b 9B000000 		.4byte	0x9b
 5335 0d4f 07       		.byte	0x7
 5336 0d50 00       		.byte	0
 5337 0d51 20       		.uleb128 0x20
 5338 0d52 40210000 		.4byte	.LASF205
 5339 0d56 11       		.byte	0x11
 5340 0d57 A706     		.2byte	0x6a7
 5341 0d59 CD000000 		.4byte	0xcd
 5342 0d5d 22       		.uleb128 0x22
 5343 0d5e 27170000 		.4byte	.LASF206
 5344 0d62 12       		.byte	0x12
 5345 0d63 4C       		.byte	0x4c
 5346 0d64 D2000000 		.4byte	0xd2
 5347 0d68 0E       		.uleb128 0xe
 5348 0d69 10       		.byte	0x10
 5349 0d6a 13       		.byte	0x13
 5350 0d6b E9       		.byte	0xe9
 5351 0d6c A10D0000 		.4byte	0xda1
 5352 0d70 12       		.uleb128 0x12
 5353 0d71 54495200 		.ascii	"TIR\000"
 5354 0d75 13       		.byte	0x13
 5355 0d76 EB       		.byte	0xeb
 5356 0d77 DD000000 		.4byte	0xdd
 5357 0d7b 00       		.byte	0
 5358 0d7c 0F       		.uleb128 0xf
 5359 0d7d C5110000 		.4byte	.LASF207
 5360 0d81 13       		.byte	0x13
 5361 0d82 EC       		.byte	0xec
 5362 0d83 DD000000 		.4byte	0xdd
 5363 0d87 04       		.byte	0x4
 5364 0d88 0F       		.uleb128 0xf
 5365 0d89 81180000 		.4byte	.LASF208
 5366 0d8d 13       		.byte	0x13
 5367 0d8e ED       		.byte	0xed
 5368 0d8f DD000000 		.4byte	0xdd
 5369 0d93 08       		.byte	0x8
 5370 0d94 0F       		.uleb128 0xf
 5371 0d95 7E160000 		.4byte	.LASF209
 5372 0d99 13       		.byte	0x13
 5373 0d9a EE       		.byte	0xee
 5374 0d9b DD000000 		.4byte	0xdd
 5375 0d9f 0C       		.byte	0xc
ARM GAS  /tmp/cccFXynL.s 			page 96


 5376 0da0 00       		.byte	0
 5377 0da1 03       		.uleb128 0x3
 5378 0da2 95050000 		.4byte	.LASF210
 5379 0da6 13       		.byte	0x13
 5380 0da7 EF       		.byte	0xef
 5381 0da8 680D0000 		.4byte	0xd68
 5382 0dac 0E       		.uleb128 0xe
 5383 0dad 10       		.byte	0x10
 5384 0dae 13       		.byte	0x13
 5385 0daf F5       		.byte	0xf5
 5386 0db0 E50D0000 		.4byte	0xde5
 5387 0db4 12       		.uleb128 0x12
 5388 0db5 52495200 		.ascii	"RIR\000"
 5389 0db9 13       		.byte	0x13
 5390 0dba F7       		.byte	0xf7
 5391 0dbb DD000000 		.4byte	0xdd
 5392 0dbf 00       		.byte	0
 5393 0dc0 0F       		.uleb128 0xf
 5394 0dc1 291F0000 		.4byte	.LASF211
 5395 0dc5 13       		.byte	0x13
 5396 0dc6 F8       		.byte	0xf8
 5397 0dc7 DD000000 		.4byte	0xdd
 5398 0dcb 04       		.byte	0x4
 5399 0dcc 0F       		.uleb128 0xf
 5400 0dcd 1E1A0000 		.4byte	.LASF212
 5401 0dd1 13       		.byte	0x13
 5402 0dd2 F9       		.byte	0xf9
 5403 0dd3 DD000000 		.4byte	0xdd
 5404 0dd7 08       		.byte	0x8
 5405 0dd8 0F       		.uleb128 0xf
 5406 0dd9 A8170000 		.4byte	.LASF213
 5407 0ddd 13       		.byte	0x13
 5408 0dde FA       		.byte	0xfa
 5409 0ddf DD000000 		.4byte	0xdd
 5410 0de3 0C       		.byte	0xc
 5411 0de4 00       		.byte	0
 5412 0de5 03       		.uleb128 0x3
 5413 0de6 531E0000 		.4byte	.LASF214
 5414 0dea 13       		.byte	0x13
 5415 0deb FB       		.byte	0xfb
 5416 0dec AC0D0000 		.4byte	0xdac
 5417 0df0 1C       		.uleb128 0x1c
 5418 0df1 08       		.byte	0x8
 5419 0df2 13       		.byte	0x13
 5420 0df3 0101     		.2byte	0x101
 5421 0df5 140E0000 		.4byte	0xe14
 5422 0df9 24       		.uleb128 0x24
 5423 0dfa 46523100 		.ascii	"FR1\000"
 5424 0dfe 13       		.byte	0x13
 5425 0dff 0301     		.2byte	0x103
 5426 0e01 DD000000 		.4byte	0xdd
 5427 0e05 00       		.byte	0
 5428 0e06 24       		.uleb128 0x24
 5429 0e07 46523200 		.ascii	"FR2\000"
 5430 0e0b 13       		.byte	0x13
 5431 0e0c 0401     		.2byte	0x104
 5432 0e0e DD000000 		.4byte	0xdd
ARM GAS  /tmp/cccFXynL.s 			page 97


 5433 0e12 04       		.byte	0x4
 5434 0e13 00       		.byte	0
 5435 0e14 09       		.uleb128 0x9
 5436 0e15 D3110000 		.4byte	.LASF215
 5437 0e19 13       		.byte	0x13
 5438 0e1a 0501     		.2byte	0x105
 5439 0e1c F00D0000 		.4byte	0xdf0
 5440 0e20 25       		.uleb128 0x25
 5441 0e21 2003     		.2byte	0x320
 5442 0e23 13       		.byte	0x13
 5443 0e24 0B01     		.2byte	0x10b
 5444 0e26 560F0000 		.4byte	0xf56
 5445 0e2a 24       		.uleb128 0x24
 5446 0e2b 4D435200 		.ascii	"MCR\000"
 5447 0e2f 13       		.byte	0x13
 5448 0e30 0D01     		.2byte	0x10d
 5449 0e32 DD000000 		.4byte	0xdd
 5450 0e36 00       		.byte	0
 5451 0e37 24       		.uleb128 0x24
 5452 0e38 4D535200 		.ascii	"MSR\000"
 5453 0e3c 13       		.byte	0x13
 5454 0e3d 0E01     		.2byte	0x10e
 5455 0e3f DD000000 		.4byte	0xdd
 5456 0e43 04       		.byte	0x4
 5457 0e44 24       		.uleb128 0x24
 5458 0e45 54535200 		.ascii	"TSR\000"
 5459 0e49 13       		.byte	0x13
 5460 0e4a 0F01     		.2byte	0x10f
 5461 0e4c DD000000 		.4byte	0xdd
 5462 0e50 08       		.byte	0x8
 5463 0e51 19       		.uleb128 0x19
 5464 0e52 46100000 		.4byte	.LASF216
 5465 0e56 13       		.byte	0x13
 5466 0e57 1001     		.2byte	0x110
 5467 0e59 DD000000 		.4byte	0xdd
 5468 0e5d 0C       		.byte	0xc
 5469 0e5e 19       		.uleb128 0x19
 5470 0e5f 511A0000 		.4byte	.LASF217
 5471 0e63 13       		.byte	0x13
 5472 0e64 1101     		.2byte	0x111
 5473 0e66 DD000000 		.4byte	0xdd
 5474 0e6a 10       		.byte	0x10
 5475 0e6b 24       		.uleb128 0x24
 5476 0e6c 49455200 		.ascii	"IER\000"
 5477 0e70 13       		.byte	0x13
 5478 0e71 1201     		.2byte	0x112
 5479 0e73 DD000000 		.4byte	0xdd
 5480 0e77 14       		.byte	0x14
 5481 0e78 24       		.uleb128 0x24
 5482 0e79 45535200 		.ascii	"ESR\000"
 5483 0e7d 13       		.byte	0x13
 5484 0e7e 1301     		.2byte	0x113
 5485 0e80 DD000000 		.4byte	0xdd
 5486 0e84 18       		.byte	0x18
 5487 0e85 24       		.uleb128 0x24
 5488 0e86 42545200 		.ascii	"BTR\000"
 5489 0e8a 13       		.byte	0x13
ARM GAS  /tmp/cccFXynL.s 			page 98


 5490 0e8b 1401     		.2byte	0x114
 5491 0e8d DD000000 		.4byte	0xdd
 5492 0e91 1C       		.byte	0x1c
 5493 0e92 19       		.uleb128 0x19
 5494 0e93 6A200000 		.4byte	.LASF218
 5495 0e97 13       		.byte	0x13
 5496 0e98 1501     		.2byte	0x115
 5497 0e9a 560F0000 		.4byte	0xf56
 5498 0e9e 20       		.byte	0x20
 5499 0e9f 1A       		.uleb128 0x1a
 5500 0ea0 DF120000 		.4byte	.LASF219
 5501 0ea4 13       		.byte	0x13
 5502 0ea5 1601     		.2byte	0x116
 5503 0ea7 660F0000 		.4byte	0xf66
 5504 0eab 8001     		.2byte	0x180
 5505 0ead 1A       		.uleb128 0x1a
 5506 0eae FD240000 		.4byte	.LASF220
 5507 0eb2 13       		.byte	0x13
 5508 0eb3 1701     		.2byte	0x117
 5509 0eb5 760F0000 		.4byte	0xf76
 5510 0eb9 B001     		.2byte	0x1b0
 5511 0ebb 1A       		.uleb128 0x1a
 5512 0ebc 74200000 		.4byte	.LASF221
 5513 0ec0 13       		.byte	0x13
 5514 0ec1 1801     		.2byte	0x118
 5515 0ec3 860F0000 		.4byte	0xf86
 5516 0ec7 D001     		.2byte	0x1d0
 5517 0ec9 26       		.uleb128 0x26
 5518 0eca 464D5200 		.ascii	"FMR\000"
 5519 0ece 13       		.byte	0x13
 5520 0ecf 1901     		.2byte	0x119
 5521 0ed1 DD000000 		.4byte	0xdd
 5522 0ed5 0002     		.2byte	0x200
 5523 0ed7 1A       		.uleb128 0x1a
 5524 0ed8 A60B0000 		.4byte	.LASF222
 5525 0edc 13       		.byte	0x13
 5526 0edd 1A01     		.2byte	0x11a
 5527 0edf DD000000 		.4byte	0xdd
 5528 0ee3 0402     		.2byte	0x204
 5529 0ee5 1A       		.uleb128 0x1a
 5530 0ee6 7E200000 		.4byte	.LASF223
 5531 0eea 13       		.byte	0x13
 5532 0eeb 1B01     		.2byte	0x11b
 5533 0eed D2000000 		.4byte	0xd2
 5534 0ef1 0802     		.2byte	0x208
 5535 0ef3 1A       		.uleb128 0x1a
 5536 0ef4 C2220000 		.4byte	.LASF224
 5537 0ef8 13       		.byte	0x13
 5538 0ef9 1C01     		.2byte	0x11c
 5539 0efb DD000000 		.4byte	0xdd
 5540 0eff 0C02     		.2byte	0x20c
 5541 0f01 1A       		.uleb128 0x1a
 5542 0f02 88200000 		.4byte	.LASF225
 5543 0f06 13       		.byte	0x13
 5544 0f07 1D01     		.2byte	0x11d
 5545 0f09 D2000000 		.4byte	0xd2
 5546 0f0d 1002     		.2byte	0x210
ARM GAS  /tmp/cccFXynL.s 			page 99


 5547 0f0f 1A       		.uleb128 0x1a
 5548 0f10 4B1A0000 		.4byte	.LASF226
 5549 0f14 13       		.byte	0x13
 5550 0f15 1E01     		.2byte	0x11e
 5551 0f17 DD000000 		.4byte	0xdd
 5552 0f1b 1402     		.2byte	0x214
 5553 0f1d 1A       		.uleb128 0x1a
 5554 0f1e 92200000 		.4byte	.LASF227
 5555 0f22 13       		.byte	0x13
 5556 0f23 1F01     		.2byte	0x11f
 5557 0f25 D2000000 		.4byte	0xd2
 5558 0f29 1802     		.2byte	0x218
 5559 0f2b 1A       		.uleb128 0x1a
 5560 0f2c 8D040000 		.4byte	.LASF228
 5561 0f30 13       		.byte	0x13
 5562 0f31 2001     		.2byte	0x120
 5563 0f33 DD000000 		.4byte	0xdd
 5564 0f37 1C02     		.2byte	0x21c
 5565 0f39 1A       		.uleb128 0x1a
 5566 0f3a 9C200000 		.4byte	.LASF229
 5567 0f3e 13       		.byte	0x13
 5568 0f3f 2101     		.2byte	0x121
 5569 0f41 410D0000 		.4byte	0xd41
 5570 0f45 2002     		.2byte	0x220
 5571 0f47 1A       		.uleb128 0x1a
 5572 0f48 3D060000 		.4byte	.LASF230
 5573 0f4c 13       		.byte	0x13
 5574 0f4d 2201     		.2byte	0x122
 5575 0f4f 960F0000 		.4byte	0xf96
 5576 0f53 4002     		.2byte	0x240
 5577 0f55 00       		.byte	0
 5578 0f56 0C       		.uleb128 0xc
 5579 0f57 D2000000 		.4byte	0xd2
 5580 0f5b 660F0000 		.4byte	0xf66
 5581 0f5f 0D       		.uleb128 0xd
 5582 0f60 9B000000 		.4byte	0x9b
 5583 0f64 57       		.byte	0x57
 5584 0f65 00       		.byte	0
 5585 0f66 0C       		.uleb128 0xc
 5586 0f67 A10D0000 		.4byte	0xda1
 5587 0f6b 760F0000 		.4byte	0xf76
 5588 0f6f 0D       		.uleb128 0xd
 5589 0f70 9B000000 		.4byte	0x9b
 5590 0f74 02       		.byte	0x2
 5591 0f75 00       		.byte	0
 5592 0f76 0C       		.uleb128 0xc
 5593 0f77 E50D0000 		.4byte	0xde5
 5594 0f7b 860F0000 		.4byte	0xf86
 5595 0f7f 0D       		.uleb128 0xd
 5596 0f80 9B000000 		.4byte	0x9b
 5597 0f84 01       		.byte	0x1
 5598 0f85 00       		.byte	0
 5599 0f86 0C       		.uleb128 0xc
 5600 0f87 D2000000 		.4byte	0xd2
 5601 0f8b 960F0000 		.4byte	0xf96
 5602 0f8f 0D       		.uleb128 0xd
 5603 0f90 9B000000 		.4byte	0x9b
ARM GAS  /tmp/cccFXynL.s 			page 100


 5604 0f94 0B       		.byte	0xb
 5605 0f95 00       		.byte	0
 5606 0f96 0C       		.uleb128 0xc
 5607 0f97 140E0000 		.4byte	0xe14
 5608 0f9b A60F0000 		.4byte	0xfa6
 5609 0f9f 0D       		.uleb128 0xd
 5610 0fa0 9B000000 		.4byte	0x9b
 5611 0fa4 1B       		.byte	0x1b
 5612 0fa5 00       		.byte	0
 5613 0fa6 09       		.uleb128 0x9
 5614 0fa7 1F0F0000 		.4byte	.LASF231
 5615 0fab 13       		.byte	0x13
 5616 0fac 2301     		.2byte	0x123
 5617 0fae 200E0000 		.4byte	0xe20
 5618 0fb2 1C       		.uleb128 0x1c
 5619 0fb3 18       		.byte	0x18
 5620 0fb4 13       		.byte	0x13
 5621 0fb5 6B01     		.2byte	0x16b
 5622 0fb7 09100000 		.4byte	0x1009
 5623 0fbb 24       		.uleb128 0x24
 5624 0fbc 435200   		.ascii	"CR\000"
 5625 0fbf 13       		.byte	0x13
 5626 0fc0 6D01     		.2byte	0x16d
 5627 0fc2 DD000000 		.4byte	0xdd
 5628 0fc6 00       		.byte	0
 5629 0fc7 19       		.uleb128 0x19
 5630 0fc8 AC210000 		.4byte	.LASF232
 5631 0fcc 13       		.byte	0x13
 5632 0fcd 6E01     		.2byte	0x16e
 5633 0fcf DD000000 		.4byte	0xdd
 5634 0fd3 04       		.byte	0x4
 5635 0fd4 24       		.uleb128 0x24
 5636 0fd5 50415200 		.ascii	"PAR\000"
 5637 0fd9 13       		.byte	0x13
 5638 0fda 6F01     		.2byte	0x16f
 5639 0fdc DD000000 		.4byte	0xdd
 5640 0fe0 08       		.byte	0x8
 5641 0fe1 19       		.uleb128 0x19
 5642 0fe2 66040000 		.4byte	.LASF233
 5643 0fe6 13       		.byte	0x13
 5644 0fe7 7001     		.2byte	0x170
 5645 0fe9 DD000000 		.4byte	0xdd
 5646 0fed 0C       		.byte	0xc
 5647 0fee 19       		.uleb128 0x19
 5648 0fef 1F080000 		.4byte	.LASF234
 5649 0ff3 13       		.byte	0x13
 5650 0ff4 7101     		.2byte	0x171
 5651 0ff6 DD000000 		.4byte	0xdd
 5652 0ffa 10       		.byte	0x10
 5653 0ffb 24       		.uleb128 0x24
 5654 0ffc 46435200 		.ascii	"FCR\000"
 5655 1000 13       		.byte	0x13
 5656 1001 7201     		.2byte	0x172
 5657 1003 DD000000 		.4byte	0xdd
 5658 1007 14       		.byte	0x14
 5659 1008 00       		.byte	0
 5660 1009 09       		.uleb128 0x9
ARM GAS  /tmp/cccFXynL.s 			page 101


 5661 100a 29080000 		.4byte	.LASF235
 5662 100e 13       		.byte	0x13
 5663 100f 7301     		.2byte	0x173
 5664 1011 B20F0000 		.4byte	0xfb2
 5665 1015 0C       		.uleb128 0xc
 5666 1016 DD000000 		.4byte	0xdd
 5667 101a 25100000 		.4byte	0x1025
 5668 101e 0D       		.uleb128 0xd
 5669 101f 9B000000 		.4byte	0x9b
 5670 1023 01       		.byte	0x1
 5671 1024 00       		.byte	0
 5672 1025 06       		.uleb128 0x6
 5673 1026 15100000 		.4byte	0x1015
 5674 102a 0C       		.uleb128 0xc
 5675 102b DD000000 		.4byte	0xdd
 5676 102f 3A100000 		.4byte	0x103a
 5677 1033 0D       		.uleb128 0xd
 5678 1034 9B000000 		.4byte	0x9b
 5679 1038 03       		.byte	0x3
 5680 1039 00       		.byte	0
 5681 103a 06       		.uleb128 0x6
 5682 103b 2A100000 		.4byte	0x102a
 5683 103f 1C       		.uleb128 0x1c
 5684 1040 28       		.byte	0x28
 5685 1041 13       		.byte	0x13
 5686 1042 3F02     		.2byte	0x23f
 5687 1044 CA100000 		.4byte	0x10ca
 5688 1048 24       		.uleb128 0x24
 5689 1049 43523100 		.ascii	"CR1\000"
 5690 104d 13       		.byte	0x13
 5691 104e 4102     		.2byte	0x241
 5692 1050 DD000000 		.4byte	0xdd
 5693 1054 00       		.byte	0
 5694 1055 24       		.uleb128 0x24
 5695 1056 43523200 		.ascii	"CR2\000"
 5696 105a 13       		.byte	0x13
 5697 105b 4202     		.2byte	0x242
 5698 105d DD000000 		.4byte	0xdd
 5699 1061 04       		.byte	0x4
 5700 1062 19       		.uleb128 0x19
 5701 1063 A0270000 		.4byte	.LASF236
 5702 1067 13       		.byte	0x13
 5703 1068 4302     		.2byte	0x243
 5704 106a DD000000 		.4byte	0xdd
 5705 106e 08       		.byte	0x8
 5706 106f 19       		.uleb128 0x19
 5707 1070 A5270000 		.4byte	.LASF237
 5708 1074 13       		.byte	0x13
 5709 1075 4402     		.2byte	0x244
 5710 1077 DD000000 		.4byte	0xdd
 5711 107b 0C       		.byte	0xc
 5712 107c 24       		.uleb128 0x24
 5713 107d 445200   		.ascii	"DR\000"
 5714 1080 13       		.byte	0x13
 5715 1081 4502     		.2byte	0x245
 5716 1083 DD000000 		.4byte	0xdd
 5717 1087 10       		.byte	0x10
ARM GAS  /tmp/cccFXynL.s 			page 102


 5718 1088 24       		.uleb128 0x24
 5719 1089 53523100 		.ascii	"SR1\000"
 5720 108d 13       		.byte	0x13
 5721 108e 4602     		.2byte	0x246
 5722 1090 DD000000 		.4byte	0xdd
 5723 1094 14       		.byte	0x14
 5724 1095 24       		.uleb128 0x24
 5725 1096 53523200 		.ascii	"SR2\000"
 5726 109a 13       		.byte	0x13
 5727 109b 4702     		.2byte	0x247
 5728 109d DD000000 		.4byte	0xdd
 5729 10a1 18       		.byte	0x18
 5730 10a2 24       		.uleb128 0x24
 5731 10a3 43435200 		.ascii	"CCR\000"
 5732 10a7 13       		.byte	0x13
 5733 10a8 4802     		.2byte	0x248
 5734 10aa DD000000 		.4byte	0xdd
 5735 10ae 1C       		.byte	0x1c
 5736 10af 19       		.uleb128 0x19
 5737 10b0 67050000 		.4byte	.LASF238
 5738 10b4 13       		.byte	0x13
 5739 10b5 4902     		.2byte	0x249
 5740 10b7 DD000000 		.4byte	0xdd
 5741 10bb 20       		.byte	0x20
 5742 10bc 19       		.uleb128 0x19
 5743 10bd 37260000 		.4byte	.LASF239
 5744 10c1 13       		.byte	0x13
 5745 10c2 4A02     		.2byte	0x24a
 5746 10c4 DD000000 		.4byte	0xdd
 5747 10c8 24       		.byte	0x24
 5748 10c9 00       		.byte	0
 5749 10ca 09       		.uleb128 0x9
 5750 10cb 63130000 		.4byte	.LASF240
 5751 10cf 13       		.byte	0x13
 5752 10d0 4B02     		.2byte	0x24b
 5753 10d2 3F100000 		.4byte	0x103f
 5754 10d6 1C       		.uleb128 0x1c
 5755 10d7 24       		.byte	0x24
 5756 10d8 13       		.byte	0x13
 5757 10d9 DB02     		.2byte	0x2db
 5758 10db 53110000 		.4byte	0x1153
 5759 10df 24       		.uleb128 0x24
 5760 10e0 43523100 		.ascii	"CR1\000"
 5761 10e4 13       		.byte	0x13
 5762 10e5 DD02     		.2byte	0x2dd
 5763 10e7 DD000000 		.4byte	0xdd
 5764 10eb 00       		.byte	0
 5765 10ec 24       		.uleb128 0x24
 5766 10ed 43523200 		.ascii	"CR2\000"
 5767 10f1 13       		.byte	0x13
 5768 10f2 DE02     		.2byte	0x2de
 5769 10f4 DD000000 		.4byte	0xdd
 5770 10f8 04       		.byte	0x4
 5771 10f9 24       		.uleb128 0x24
 5772 10fa 535200   		.ascii	"SR\000"
 5773 10fd 13       		.byte	0x13
 5774 10fe DF02     		.2byte	0x2df
ARM GAS  /tmp/cccFXynL.s 			page 103


 5775 1100 DD000000 		.4byte	0xdd
 5776 1104 08       		.byte	0x8
 5777 1105 24       		.uleb128 0x24
 5778 1106 445200   		.ascii	"DR\000"
 5779 1109 13       		.byte	0x13
 5780 110a E002     		.2byte	0x2e0
 5781 110c DD000000 		.4byte	0xdd
 5782 1110 0C       		.byte	0xc
 5783 1111 19       		.uleb128 0x19
 5784 1112 D6070000 		.4byte	.LASF241
 5785 1116 13       		.byte	0x13
 5786 1117 E102     		.2byte	0x2e1
 5787 1119 DD000000 		.4byte	0xdd
 5788 111d 10       		.byte	0x10
 5789 111e 19       		.uleb128 0x19
 5790 111f 630C0000 		.4byte	.LASF242
 5791 1123 13       		.byte	0x13
 5792 1124 E202     		.2byte	0x2e2
 5793 1126 DD000000 		.4byte	0xdd
 5794 112a 14       		.byte	0x14
 5795 112b 19       		.uleb128 0x19
 5796 112c 3A0B0000 		.4byte	.LASF243
 5797 1130 13       		.byte	0x13
 5798 1131 E302     		.2byte	0x2e3
 5799 1133 DD000000 		.4byte	0xdd
 5800 1137 18       		.byte	0x18
 5801 1138 19       		.uleb128 0x19
 5802 1139 DD230000 		.4byte	.LASF244
 5803 113d 13       		.byte	0x13
 5804 113e E402     		.2byte	0x2e4
 5805 1140 DD000000 		.4byte	0xdd
 5806 1144 1C       		.byte	0x1c
 5807 1145 19       		.uleb128 0x19
 5808 1146 AB070000 		.4byte	.LASF245
 5809 114a 13       		.byte	0x13
 5810 114b E502     		.2byte	0x2e5
 5811 114d DD000000 		.4byte	0xdd
 5812 1151 20       		.byte	0x20
 5813 1152 00       		.byte	0
 5814 1153 09       		.uleb128 0x9
 5815 1154 F2210000 		.4byte	.LASF246
 5816 1158 13       		.byte	0x13
 5817 1159 E602     		.2byte	0x2e6
 5818 115b D6100000 		.4byte	0x10d6
 5819 115f 1C       		.uleb128 0x1c
 5820 1160 1C       		.byte	0x1c
 5821 1161 13       		.byte	0x13
 5822 1162 0903     		.2byte	0x309
 5823 1164 C2110000 		.4byte	0x11c2
 5824 1168 24       		.uleb128 0x24
 5825 1169 535200   		.ascii	"SR\000"
 5826 116c 13       		.byte	0x13
 5827 116d 0B03     		.2byte	0x30b
 5828 116f DD000000 		.4byte	0xdd
 5829 1173 00       		.byte	0
 5830 1174 24       		.uleb128 0x24
 5831 1175 445200   		.ascii	"DR\000"
ARM GAS  /tmp/cccFXynL.s 			page 104


 5832 1178 13       		.byte	0x13
 5833 1179 0C03     		.2byte	0x30c
 5834 117b DD000000 		.4byte	0xdd
 5835 117f 04       		.byte	0x4
 5836 1180 24       		.uleb128 0x24
 5837 1181 42525200 		.ascii	"BRR\000"
 5838 1185 13       		.byte	0x13
 5839 1186 0D03     		.2byte	0x30d
 5840 1188 DD000000 		.4byte	0xdd
 5841 118c 08       		.byte	0x8
 5842 118d 24       		.uleb128 0x24
 5843 118e 43523100 		.ascii	"CR1\000"
 5844 1192 13       		.byte	0x13
 5845 1193 0E03     		.2byte	0x30e
 5846 1195 DD000000 		.4byte	0xdd
 5847 1199 0C       		.byte	0xc
 5848 119a 24       		.uleb128 0x24
 5849 119b 43523200 		.ascii	"CR2\000"
 5850 119f 13       		.byte	0x13
 5851 11a0 0F03     		.2byte	0x30f
 5852 11a2 DD000000 		.4byte	0xdd
 5853 11a6 10       		.byte	0x10
 5854 11a7 24       		.uleb128 0x24
 5855 11a8 43523300 		.ascii	"CR3\000"
 5856 11ac 13       		.byte	0x13
 5857 11ad 1003     		.2byte	0x310
 5858 11af DD000000 		.4byte	0xdd
 5859 11b3 14       		.byte	0x14
 5860 11b4 19       		.uleb128 0x19
 5861 11b5 60100000 		.4byte	.LASF247
 5862 11b9 13       		.byte	0x13
 5863 11ba 1103     		.2byte	0x311
 5864 11bc DD000000 		.4byte	0xdd
 5865 11c0 18       		.byte	0x18
 5866 11c1 00       		.byte	0
 5867 11c2 09       		.uleb128 0x9
 5868 11c3 12270000 		.4byte	.LASF248
 5869 11c7 13       		.byte	0x13
 5870 11c8 1203     		.2byte	0x312
 5871 11ca 5F110000 		.4byte	0x115f
 5872 11ce 0C       		.uleb128 0xc
 5873 11cf DD000000 		.4byte	0xdd
 5874 11d3 DE110000 		.4byte	0x11de
 5875 11d7 0D       		.uleb128 0xd
 5876 11d8 9B000000 		.4byte	0x9b
 5877 11dc 0E       		.byte	0xe
 5878 11dd 00       		.byte	0
 5879 11de 06       		.uleb128 0x6
 5880 11df CE110000 		.4byte	0x11ce
 5881 11e3 03       		.uleb128 0x3
 5882 11e4 231A0000 		.4byte	.LASF249
 5883 11e8 14       		.byte	0x14
 5884 11e9 65       		.byte	0x65
 5885 11ea AB010000 		.4byte	0x1ab
 5886 11ee 03       		.uleb128 0x3
 5887 11ef 60090000 		.4byte	.LASF250
 5888 11f3 14       		.byte	0x14
ARM GAS  /tmp/cccFXynL.s 			page 105


 5889 11f4 6D       		.byte	0x6d
 5890 11f5 E7000000 		.4byte	0xe7
 5891 11f9 11       		.uleb128 0x11
 5892 11fa C4130000 		.4byte	.LASF251
 5893 11fe 04       		.byte	0x4
 5894 11ff 14       		.byte	0x14
 5895 1200 89       		.byte	0x89
 5896 1201 12120000 		.4byte	0x1212
 5897 1205 12       		.uleb128 0x12
 5898 1206 72313300 		.ascii	"r13\000"
 5899 120a 14       		.byte	0x14
 5900 120b 8A       		.byte	0x8a
 5901 120c 53130000 		.4byte	0x1353
 5902 1210 00       		.byte	0
 5903 1211 00       		.byte	0
 5904 1212 11       		.uleb128 0x11
 5905 1213 09000000 		.4byte	.LASF252
 5906 1217 64       		.byte	0x64
 5907 1218 15       		.byte	0x15
 5908 1219 F4       		.byte	0xf4
 5909 121a 53130000 		.4byte	0x1353
 5910 121e 12       		.uleb128 0x12
 5911 121f 73313600 		.ascii	"s16\000"
 5912 1223 15       		.byte	0x15
 5913 1224 F6       		.byte	0xf6
 5914 1225 E3110000 		.4byte	0x11e3
 5915 1229 00       		.byte	0
 5916 122a 12       		.uleb128 0x12
 5917 122b 73313700 		.ascii	"s17\000"
 5918 122f 15       		.byte	0x15
 5919 1230 F7       		.byte	0xf7
 5920 1231 E3110000 		.4byte	0x11e3
 5921 1235 04       		.byte	0x4
 5922 1236 12       		.uleb128 0x12
 5923 1237 73313800 		.ascii	"s18\000"
 5924 123b 15       		.byte	0x15
 5925 123c F8       		.byte	0xf8
 5926 123d E3110000 		.4byte	0x11e3
 5927 1241 08       		.byte	0x8
 5928 1242 12       		.uleb128 0x12
 5929 1243 73313900 		.ascii	"s19\000"
 5930 1247 15       		.byte	0x15
 5931 1248 F9       		.byte	0xf9
 5932 1249 E3110000 		.4byte	0x11e3
 5933 124d 0C       		.byte	0xc
 5934 124e 12       		.uleb128 0x12
 5935 124f 73323000 		.ascii	"s20\000"
 5936 1253 15       		.byte	0x15
 5937 1254 FA       		.byte	0xfa
 5938 1255 E3110000 		.4byte	0x11e3
 5939 1259 10       		.byte	0x10
 5940 125a 12       		.uleb128 0x12
 5941 125b 73323100 		.ascii	"s21\000"
 5942 125f 15       		.byte	0x15
 5943 1260 FB       		.byte	0xfb
 5944 1261 E3110000 		.4byte	0x11e3
 5945 1265 14       		.byte	0x14
ARM GAS  /tmp/cccFXynL.s 			page 106


 5946 1266 12       		.uleb128 0x12
 5947 1267 73323200 		.ascii	"s22\000"
 5948 126b 15       		.byte	0x15
 5949 126c FC       		.byte	0xfc
 5950 126d E3110000 		.4byte	0x11e3
 5951 1271 18       		.byte	0x18
 5952 1272 12       		.uleb128 0x12
 5953 1273 73323300 		.ascii	"s23\000"
 5954 1277 15       		.byte	0x15
 5955 1278 FD       		.byte	0xfd
 5956 1279 E3110000 		.4byte	0x11e3
 5957 127d 1C       		.byte	0x1c
 5958 127e 12       		.uleb128 0x12
 5959 127f 73323400 		.ascii	"s24\000"
 5960 1283 15       		.byte	0x15
 5961 1284 FE       		.byte	0xfe
 5962 1285 E3110000 		.4byte	0x11e3
 5963 1289 20       		.byte	0x20
 5964 128a 12       		.uleb128 0x12
 5965 128b 73323500 		.ascii	"s25\000"
 5966 128f 15       		.byte	0x15
 5967 1290 FF       		.byte	0xff
 5968 1291 E3110000 		.4byte	0x11e3
 5969 1295 24       		.byte	0x24
 5970 1296 24       		.uleb128 0x24
 5971 1297 73323600 		.ascii	"s26\000"
 5972 129b 15       		.byte	0x15
 5973 129c 0001     		.2byte	0x100
 5974 129e E3110000 		.4byte	0x11e3
 5975 12a2 28       		.byte	0x28
 5976 12a3 24       		.uleb128 0x24
 5977 12a4 73323700 		.ascii	"s27\000"
 5978 12a8 15       		.byte	0x15
 5979 12a9 0101     		.2byte	0x101
 5980 12ab E3110000 		.4byte	0x11e3
 5981 12af 2C       		.byte	0x2c
 5982 12b0 24       		.uleb128 0x24
 5983 12b1 73323800 		.ascii	"s28\000"
 5984 12b5 15       		.byte	0x15
 5985 12b6 0201     		.2byte	0x102
 5986 12b8 E3110000 		.4byte	0x11e3
 5987 12bc 30       		.byte	0x30
 5988 12bd 24       		.uleb128 0x24
 5989 12be 73323900 		.ascii	"s29\000"
 5990 12c2 15       		.byte	0x15
 5991 12c3 0301     		.2byte	0x103
 5992 12c5 E3110000 		.4byte	0x11e3
 5993 12c9 34       		.byte	0x34
 5994 12ca 24       		.uleb128 0x24
 5995 12cb 73333000 		.ascii	"s30\000"
 5996 12cf 15       		.byte	0x15
 5997 12d0 0401     		.2byte	0x104
 5998 12d2 E3110000 		.4byte	0x11e3
 5999 12d6 38       		.byte	0x38
 6000 12d7 24       		.uleb128 0x24
 6001 12d8 73333100 		.ascii	"s31\000"
 6002 12dc 15       		.byte	0x15
ARM GAS  /tmp/cccFXynL.s 			page 107


 6003 12dd 0501     		.2byte	0x105
 6004 12df E3110000 		.4byte	0x11e3
 6005 12e3 3C       		.byte	0x3c
 6006 12e4 24       		.uleb128 0x24
 6007 12e5 723400   		.ascii	"r4\000"
 6008 12e8 15       		.byte	0x15
 6009 12e9 0701     		.2byte	0x107
 6010 12eb E3110000 		.4byte	0x11e3
 6011 12ef 40       		.byte	0x40
 6012 12f0 24       		.uleb128 0x24
 6013 12f1 723500   		.ascii	"r5\000"
 6014 12f4 15       		.byte	0x15
 6015 12f5 0801     		.2byte	0x108
 6016 12f7 E3110000 		.4byte	0x11e3
 6017 12fb 44       		.byte	0x44
 6018 12fc 24       		.uleb128 0x24
 6019 12fd 723600   		.ascii	"r6\000"
 6020 1300 15       		.byte	0x15
 6021 1301 0901     		.2byte	0x109
 6022 1303 E3110000 		.4byte	0x11e3
 6023 1307 48       		.byte	0x48
 6024 1308 24       		.uleb128 0x24
 6025 1309 723700   		.ascii	"r7\000"
 6026 130c 15       		.byte	0x15
 6027 130d 0A01     		.2byte	0x10a
 6028 130f E3110000 		.4byte	0x11e3
 6029 1313 4C       		.byte	0x4c
 6030 1314 24       		.uleb128 0x24
 6031 1315 723800   		.ascii	"r8\000"
 6032 1318 15       		.byte	0x15
 6033 1319 0B01     		.2byte	0x10b
 6034 131b E3110000 		.4byte	0x11e3
 6035 131f 50       		.byte	0x50
 6036 1320 24       		.uleb128 0x24
 6037 1321 723900   		.ascii	"r9\000"
 6038 1324 15       		.byte	0x15
 6039 1325 0C01     		.2byte	0x10c
 6040 1327 E3110000 		.4byte	0x11e3
 6041 132b 54       		.byte	0x54
 6042 132c 24       		.uleb128 0x24
 6043 132d 72313000 		.ascii	"r10\000"
 6044 1331 15       		.byte	0x15
 6045 1332 0D01     		.2byte	0x10d
 6046 1334 E3110000 		.4byte	0x11e3
 6047 1338 58       		.byte	0x58
 6048 1339 24       		.uleb128 0x24
 6049 133a 72313100 		.ascii	"r11\000"
 6050 133e 15       		.byte	0x15
 6051 133f 0E01     		.2byte	0x10e
 6052 1341 E3110000 		.4byte	0x11e3
 6053 1345 5C       		.byte	0x5c
 6054 1346 24       		.uleb128 0x24
 6055 1347 6C7200   		.ascii	"lr\000"
 6056 134a 15       		.byte	0x15
 6057 134b 0F01     		.2byte	0x10f
 6058 134d E3110000 		.4byte	0x11e3
 6059 1351 60       		.byte	0x60
ARM GAS  /tmp/cccFXynL.s 			page 108


 6060 1352 00       		.byte	0
 6061 1353 07       		.uleb128 0x7
 6062 1354 04       		.byte	0x4
 6063 1355 12120000 		.4byte	0x1212
 6064 1359 0E       		.uleb128 0xe
 6065 135a 04       		.byte	0x4
 6066 135b 16       		.byte	0x16
 6067 135c 38       		.byte	0x38
 6068 135d 6E130000 		.4byte	0x136e
 6069 1361 0F       		.uleb128 0xf
 6070 1362 83210000 		.4byte	.LASF253
 6071 1366 16       		.byte	0x16
 6072 1367 3C       		.byte	0x3c
 6073 1368 7E090000 		.4byte	0x97e
 6074 136c 00       		.byte	0
 6075 136d 00       		.byte	0
 6076 136e 03       		.uleb128 0x3
 6077 136f C0050000 		.4byte	.LASF254
 6078 1373 16       		.byte	0x16
 6079 1374 3D       		.byte	0x3d
 6080 1375 59130000 		.4byte	0x1359
 6081 1379 0A       		.uleb128 0xa
 6082 137a 04       		.byte	0x4
 6083 137b 10       		.byte	0x10
 6084 137c FA       		.byte	0xfa
 6085 137d D6130000 		.4byte	0x13d6
 6086 1381 1E       		.uleb128 0x1e
 6087 1382 B6110000 		.4byte	.LASF255
 6088 1386 10       		.byte	0x10
 6089 1387 0101     		.2byte	0x101
 6090 1389 C0090000 		.4byte	0x9c0
 6091 138d 1E       		.uleb128 0x1e
 6092 138e F40F0000 		.4byte	.LASF256
 6093 1392 10       		.byte	0x10
 6094 1393 0801     		.2byte	0x108
 6095 1395 C0090000 		.4byte	0x9c0
 6096 1399 1E       		.uleb128 0x1e
 6097 139a 731E0000 		.4byte	.LASF257
 6098 139e 10       		.byte	0x10
 6099 139f 0F01     		.2byte	0x10f
 6100 13a1 AB010000 		.4byte	0x1ab
 6101 13a5 1E       		.uleb128 0x1e
 6102 13a6 51190000 		.4byte	.LASF258
 6103 13aa 10       		.byte	0x10
 6104 13ab 1601     		.2byte	0x116
 6105 13ad D6130000 		.4byte	0x13d6
 6106 13b1 1E       		.uleb128 0x1e
 6107 13b2 F9000000 		.4byte	.LASF259
 6108 13b6 10       		.byte	0x10
 6109 13b7 1E01     		.2byte	0x11e
 6110 13b9 01140000 		.4byte	0x1401
 6111 13bd 1E       		.uleb128 0x1e
 6112 13be 9C1E0000 		.4byte	.LASF260
 6113 13c2 10       		.byte	0x10
 6114 13c3 2701     		.2byte	0x127
 6115 13c5 38140000 		.4byte	0x1438
 6116 13c9 1E       		.uleb128 0x1e
ARM GAS  /tmp/cccFXynL.s 			page 109


 6117 13ca 53220000 		.4byte	.LASF261
 6118 13ce 10       		.byte	0x10
 6119 13cf 2F01     		.2byte	0x12f
 6120 13d1 CB090000 		.4byte	0x9cb
 6121 13d5 00       		.byte	0
 6122 13d6 07       		.uleb128 0x7
 6123 13d7 04       		.byte	0x4
 6124 13d8 250B0000 		.4byte	0xb25
 6125 13dc 11       		.uleb128 0x11
 6126 13dd 1C180000 		.4byte	.LASF262
 6127 13e1 0C       		.byte	0xc
 6128 13e2 17       		.byte	0x17
 6129 13e3 34       		.byte	0x34
 6130 13e4 01140000 		.4byte	0x1401
 6131 13e8 0F       		.uleb128 0xf
 6132 13e9 C3230000 		.4byte	.LASF263
 6133 13ed 17       		.byte	0x17
 6134 13ee 35       		.byte	0x35
 6135 13ef 5A0B0000 		.4byte	0xb5a
 6136 13f3 00       		.byte	0
 6137 13f4 0F       		.uleb128 0xf
 6138 13f5 FF090000 		.4byte	.LASF264
 6139 13f9 17       		.byte	0x17
 6140 13fa 37       		.byte	0x37
 6141 13fb E1090000 		.4byte	0x9e1
 6142 13ff 08       		.byte	0x8
 6143 1400 00       		.byte	0
 6144 1401 07       		.uleb128 0x7
 6145 1402 04       		.byte	0x4
 6146 1403 DC130000 		.4byte	0x13dc
 6147 1407 11       		.uleb128 0x11
 6148 1408 760C0000 		.4byte	.LASF265
 6149 140c 10       		.byte	0x10
 6150 140d 18       		.byte	0x18
 6151 140e 39       		.byte	0x39
 6152 140f 38140000 		.4byte	0x1438
 6153 1413 0F       		.uleb128 0xf
 6154 1414 94140000 		.4byte	.LASF266
 6155 1418 18       		.byte	0x18
 6156 1419 3A       		.byte	0x3a
 6157 141a 5A0B0000 		.4byte	0xb5a
 6158 141e 00       		.byte	0
 6159 141f 0F       		.uleb128 0xf
 6160 1420 17170000 		.4byte	.LASF267
 6161 1424 18       		.byte	0x18
 6162 1425 3C       		.byte	0x3c
 6163 1426 300B0000 		.4byte	0xb30
 6164 142a 08       		.byte	0x8
 6165 142b 0F       		.uleb128 0xf
 6166 142c 9F010000 		.4byte	.LASF268
 6167 1430 18       		.byte	0x18
 6168 1431 3E       		.byte	0x3e
 6169 1432 7C150000 		.4byte	0x157c
 6170 1436 0C       		.byte	0xc
 6171 1437 00       		.byte	0
 6172 1438 07       		.uleb128 0x7
 6173 1439 04       		.byte	0x4
ARM GAS  /tmp/cccFXynL.s 			page 110


 6174 143a 07140000 		.4byte	0x1407
 6175 143e 07       		.uleb128 0x7
 6176 143f 04       		.byte	0x4
 6177 1440 EE110000 		.4byte	0x11ee
 6178 1444 07       		.uleb128 0x7
 6179 1445 04       		.byte	0x4
 6180 1446 0D0C0000 		.4byte	0xc0d
 6181 144a 0C       		.uleb128 0xc
 6182 144b EE110000 		.4byte	0x11ee
 6183 144f 5A140000 		.4byte	0x145a
 6184 1453 0D       		.uleb128 0xd
 6185 1454 9B000000 		.4byte	0x9b
 6186 1458 3B       		.byte	0x3b
 6187 1459 00       		.byte	0
 6188 145a 27       		.uleb128 0x27
 6189 145b 636800   		.ascii	"ch\000"
 6190 145e 10       		.byte	0x10
 6191 145f 0902     		.2byte	0x209
 6192 1461 DA0C0000 		.4byte	0xcda
 6193 1465 0E       		.uleb128 0xe
 6194 1466 16       		.byte	0x16
 6195 1467 19       		.byte	0x19
 6196 1468 34       		.byte	0x34
 6197 1469 46150000 		.4byte	0x1546
 6198 146d 0F       		.uleb128 0xf
 6199 146e 05240000 		.4byte	.LASF269
 6200 1472 19       		.byte	0x19
 6201 1473 35       		.byte	0x35
 6202 1474 46150000 		.4byte	0x1546
 6203 1478 00       		.byte	0
 6204 1479 0F       		.uleb128 0xf
 6205 147a D0260000 		.4byte	.LASF270
 6206 147e 19       		.byte	0x19
 6207 147f 36       		.byte	0x36
 6208 1480 A7000000 		.4byte	0xa7
 6209 1484 04       		.byte	0x4
 6210 1485 0F       		.uleb128 0xf
 6211 1486 70030000 		.4byte	.LASF271
 6212 148a 19       		.byte	0x19
 6213 148b 37       		.byte	0x37
 6214 148c A7000000 		.4byte	0xa7
 6215 1490 05       		.byte	0x5
 6216 1491 0F       		.uleb128 0xf
 6217 1492 65170000 		.4byte	.LASF272
 6218 1496 19       		.byte	0x19
 6219 1497 38       		.byte	0x38
 6220 1498 B7000000 		.4byte	0xb7
 6221 149c 06       		.byte	0x6
 6222 149d 0F       		.uleb128 0xf
 6223 149e 15000000 		.4byte	.LASF273
 6224 14a2 19       		.byte	0x19
 6225 14a3 39       		.byte	0x39
 6226 14a4 A7000000 		.4byte	0xa7
 6227 14a8 08       		.byte	0x8
 6228 14a9 0F       		.uleb128 0xf
 6229 14aa B8150000 		.4byte	.LASF274
 6230 14ae 19       		.byte	0x19
ARM GAS  /tmp/cccFXynL.s 			page 111


 6231 14af 3A       		.byte	0x3a
 6232 14b0 A7000000 		.4byte	0xa7
 6233 14b4 09       		.byte	0x9
 6234 14b5 0F       		.uleb128 0xf
 6235 14b6 29260000 		.4byte	.LASF275
 6236 14ba 19       		.byte	0x19
 6237 14bb 3B       		.byte	0x3b
 6238 14bc A7000000 		.4byte	0xa7
 6239 14c0 0A       		.byte	0xa
 6240 14c1 0F       		.uleb128 0xf
 6241 14c2 3A240000 		.4byte	.LASF276
 6242 14c6 19       		.byte	0x19
 6243 14c7 3C       		.byte	0x3c
 6244 14c8 A7000000 		.4byte	0xa7
 6245 14cc 0B       		.byte	0xb
 6246 14cd 0F       		.uleb128 0xf
 6247 14ce 57230000 		.4byte	.LASF277
 6248 14d2 19       		.byte	0x19
 6249 14d3 3D       		.byte	0x3d
 6250 14d4 A7000000 		.4byte	0xa7
 6251 14d8 0C       		.byte	0xc
 6252 14d9 0F       		.uleb128 0xf
 6253 14da E30D0000 		.4byte	.LASF278
 6254 14de 19       		.byte	0x19
 6255 14df 3E       		.byte	0x3e
 6256 14e0 A7000000 		.4byte	0xa7
 6257 14e4 0D       		.byte	0xd
 6258 14e5 0F       		.uleb128 0xf
 6259 14e6 FC050000 		.4byte	.LASF279
 6260 14ea 19       		.byte	0x19
 6261 14eb 3F       		.byte	0x3f
 6262 14ec A7000000 		.4byte	0xa7
 6263 14f0 0E       		.byte	0xe
 6264 14f1 0F       		.uleb128 0xf
 6265 14f2 C10F0000 		.4byte	.LASF280
 6266 14f6 19       		.byte	0x19
 6267 14f7 40       		.byte	0x40
 6268 14f8 A7000000 		.4byte	0xa7
 6269 14fc 0F       		.byte	0xf
 6270 14fd 0F       		.uleb128 0xf
 6271 14fe 1B110000 		.4byte	.LASF281
 6272 1502 19       		.byte	0x19
 6273 1503 41       		.byte	0x41
 6274 1504 A7000000 		.4byte	0xa7
 6275 1508 10       		.byte	0x10
 6276 1509 0F       		.uleb128 0xf
 6277 150a 0A170000 		.4byte	.LASF282
 6278 150e 19       		.byte	0x19
 6279 150f 43       		.byte	0x43
 6280 1510 A7000000 		.4byte	0xa7
 6281 1514 11       		.byte	0x11
 6282 1515 0F       		.uleb128 0xf
 6283 1516 10030000 		.4byte	.LASF283
 6284 151a 19       		.byte	0x19
 6285 151b 44       		.byte	0x44
 6286 151c A7000000 		.4byte	0xa7
 6287 1520 12       		.byte	0x12
ARM GAS  /tmp/cccFXynL.s 			page 112


 6288 1521 0F       		.uleb128 0xf
 6289 1522 FE160000 		.4byte	.LASF284
 6290 1526 19       		.byte	0x19
 6291 1527 45       		.byte	0x45
 6292 1528 A7000000 		.4byte	0xa7
 6293 152c 13       		.byte	0x13
 6294 152d 0F       		.uleb128 0xf
 6295 152e 981D0000 		.4byte	.LASF285
 6296 1532 19       		.byte	0x19
 6297 1533 46       		.byte	0x46
 6298 1534 A7000000 		.4byte	0xa7
 6299 1538 14       		.byte	0x14
 6300 1539 0F       		.uleb128 0xf
 6301 153a D7000000 		.4byte	.LASF286
 6302 153e 19       		.byte	0x19
 6303 153f 48       		.byte	0x48
 6304 1540 A7000000 		.4byte	0xa7
 6305 1544 15       		.byte	0x15
 6306 1545 00       		.byte	0
 6307 1546 0C       		.uleb128 0xc
 6308 1547 B3010000 		.4byte	0x1b3
 6309 154b 56150000 		.4byte	0x1556
 6310 154f 0D       		.uleb128 0xd
 6311 1550 9B000000 		.4byte	0x9b
 6312 1554 03       		.byte	0x3
 6313 1555 00       		.byte	0
 6314 1556 03       		.uleb128 0x3
 6315 1557 20150000 		.4byte	.LASF287
 6316 155b 19       		.byte	0x19
 6317 155c 49       		.byte	0x49
 6318 155d 65140000 		.4byte	0x1465
 6319 1561 05       		.uleb128 0x5
 6320 1562 56150000 		.4byte	0x1556
 6321 1566 22       		.uleb128 0x22
 6322 1567 940B0000 		.4byte	.LASF288
 6323 156b 19       		.byte	0x19
 6324 156c 6E       		.byte	0x6e
 6325 156d 61150000 		.4byte	0x1561
 6326 1571 03       		.uleb128 0x3
 6327 1572 15200000 		.4byte	.LASF289
 6328 1576 18       		.byte	0x18
 6329 1577 34       		.byte	0x34
 6330 1578 07140000 		.4byte	0x1407
 6331 157c 07       		.uleb128 0x7
 6332 157d 04       		.byte	0x4
 6333 157e 71150000 		.4byte	0x1571
 6334 1582 03       		.uleb128 0x3
 6335 1583 FD0B0000 		.4byte	.LASF290
 6336 1587 1A       		.byte	0x1a
 6337 1588 34       		.byte	0x34
 6338 1589 8D150000 		.4byte	0x158d
 6339 158d 11       		.uleb128 0x11
 6340 158e E8090000 		.4byte	.LASF291
 6341 1592 14       		.byte	0x14
 6342 1593 1A       		.byte	0x1a
 6343 1594 39       		.byte	0x39
 6344 1595 D6150000 		.4byte	0x15d6
ARM GAS  /tmp/cccFXynL.s 			page 113


 6345 1599 0F       		.uleb128 0xf
 6346 159a 77020000 		.4byte	.LASF292
 6347 159e 1A       		.byte	0x1a
 6348 159f 3A       		.byte	0x3a
 6349 15a0 D6150000 		.4byte	0x15d6
 6350 15a4 00       		.byte	0
 6351 15a5 0F       		.uleb128 0xf
 6352 15a6 EA200000 		.4byte	.LASF293
 6353 15aa 1A       		.byte	0x1a
 6354 15ab 3D       		.byte	0x3d
 6355 15ac 300B0000 		.4byte	0xb30
 6356 15b0 04       		.byte	0x4
 6357 15b1 0F       		.uleb128 0xf
 6358 15b2 D2030000 		.4byte	.LASF294
 6359 15b6 1A       		.byte	0x1a
 6360 15b7 3F       		.byte	0x3f
 6361 15b8 CB090000 		.4byte	0x9cb
 6362 15bc 08       		.byte	0x8
 6363 15bd 0F       		.uleb128 0xf
 6364 15be 5A220000 		.4byte	.LASF295
 6365 15c2 1A       		.byte	0x1a
 6366 15c3 41       		.byte	0x41
 6367 15c4 D6090000 		.4byte	0x9d6
 6368 15c8 0C       		.byte	0xc
 6369 15c9 0F       		.uleb128 0xf
 6370 15ca E00F0000 		.4byte	.LASF296
 6371 15ce 1A       		.byte	0x1a
 6372 15cf 43       		.byte	0x43
 6373 15d0 D6090000 		.4byte	0x9d6
 6374 15d4 10       		.byte	0x10
 6375 15d5 00       		.byte	0
 6376 15d6 07       		.uleb128 0x7
 6377 15d7 04       		.byte	0x4
 6378 15d8 82150000 		.4byte	0x1582
 6379 15dc 11       		.uleb128 0x11
 6380 15dd 80220000 		.4byte	.LASF297
 6381 15e1 04       		.byte	0x4
 6382 15e2 1A       		.byte	0x1a
 6383 15e3 4A       		.byte	0x4a
 6384 15e4 F5150000 		.4byte	0x15f5
 6385 15e8 0F       		.uleb128 0xf
 6386 15e9 B1210000 		.4byte	.LASF298
 6387 15ed 1A       		.byte	0x1a
 6388 15ee 4B       		.byte	0x4b
 6389 15ef D6150000 		.4byte	0x15d6
 6390 15f3 00       		.byte	0
 6391 15f4 00       		.byte	0
 6392 15f5 03       		.uleb128 0x3
 6393 15f6 E5150000 		.4byte	.LASF299
 6394 15fa 1A       		.byte	0x1a
 6395 15fb 4E       		.byte	0x4e
 6396 15fc DC150000 		.4byte	0x15dc
 6397 1600 03       		.uleb128 0x3
 6398 1601 16100000 		.4byte	.LASF300
 6399 1605 1B       		.byte	0x1b
 6400 1606 3F       		.byte	0x3f
 6401 1607 0B160000 		.4byte	0x160b
ARM GAS  /tmp/cccFXynL.s 			page 114


 6402 160b 11       		.uleb128 0x11
 6403 160c 3E120000 		.4byte	.LASF301
 6404 1610 24       		.byte	0x24
 6405 1611 1B       		.byte	0x1b
 6406 1612 4D       		.byte	0x4d
 6407 1613 78160000 		.4byte	0x1678
 6408 1617 0F       		.uleb128 0xf
 6409 1618 8B050000 		.4byte	.LASF302
 6410 161c 1B       		.byte	0x1b
 6411 161d 4E       		.byte	0x4e
 6412 161e 5A0B0000 		.4byte	0xb5a
 6413 1622 00       		.byte	0
 6414 1623 0F       		.uleb128 0xf
 6415 1624 DB180000 		.4byte	.LASF303
 6416 1628 1B       		.byte	0x1b
 6417 1629 4F       		.byte	0x4f
 6418 162a FD000000 		.4byte	0xfd
 6419 162e 08       		.byte	0x8
 6420 162f 0F       		.uleb128 0xf
 6421 1630 F5120000 		.4byte	.LASF304
 6422 1634 1B       		.byte	0x1b
 6423 1635 50       		.byte	0x50
 6424 1636 9A160000 		.4byte	0x169a
 6425 163a 0C       		.byte	0xc
 6426 163b 0F       		.uleb128 0xf
 6427 163c C7040000 		.4byte	.LASF305
 6428 1640 1B       		.byte	0x1b
 6429 1641 51       		.byte	0x51
 6430 1642 9A160000 		.4byte	0x169a
 6431 1646 10       		.byte	0x10
 6432 1647 0F       		.uleb128 0xf
 6433 1648 911A0000 		.4byte	.LASF306
 6434 164c 1B       		.byte	0x1b
 6435 164d 53       		.byte	0x53
 6436 164e 9A160000 		.4byte	0x169a
 6437 1652 14       		.byte	0x14
 6438 1653 0F       		.uleb128 0xf
 6439 1654 57190000 		.4byte	.LASF307
 6440 1658 1B       		.byte	0x1b
 6441 1659 54       		.byte	0x54
 6442 165a 9A160000 		.4byte	0x169a
 6443 165e 18       		.byte	0x18
 6444 165f 0F       		.uleb128 0xf
 6445 1660 931E0000 		.4byte	.LASF308
 6446 1664 1B       		.byte	0x1b
 6447 1665 55       		.byte	0x55
 6448 1666 78160000 		.4byte	0x1678
 6449 166a 1C       		.byte	0x1c
 6450 166b 0F       		.uleb128 0xf
 6451 166c 921B0000 		.4byte	.LASF309
 6452 1670 1B       		.byte	0x1b
 6453 1671 56       		.byte	0x56
 6454 1672 AB010000 		.4byte	0x1ab
 6455 1676 20       		.byte	0x20
 6456 1677 00       		.byte	0
 6457 1678 03       		.uleb128 0x3
 6458 1679 A5040000 		.4byte	.LASF310
ARM GAS  /tmp/cccFXynL.s 			page 115


 6459 167d 1B       		.byte	0x1b
 6460 167e 42       		.byte	0x42
 6461 167f 83160000 		.4byte	0x1683
 6462 1683 07       		.uleb128 0x7
 6463 1684 04       		.byte	0x4
 6464 1685 89160000 		.4byte	0x1689
 6465 1689 1F       		.uleb128 0x1f
 6466 168a 94160000 		.4byte	0x1694
 6467 168e 17       		.uleb128 0x17
 6468 168f 94160000 		.4byte	0x1694
 6469 1693 00       		.byte	0
 6470 1694 07       		.uleb128 0x7
 6471 1695 04       		.byte	0x4
 6472 1696 00160000 		.4byte	0x1600
 6473 169a 07       		.uleb128 0x7
 6474 169b 04       		.byte	0x4
 6475 169c A7000000 		.4byte	0xa7
 6476 16a0 03       		.uleb128 0x3
 6477 16a1 D1050000 		.4byte	.LASF311
 6478 16a5 1B       		.byte	0x1b
 6479 16a6 64       		.byte	0x64
 6480 16a7 00160000 		.4byte	0x1600
 6481 16ab 03       		.uleb128 0x3
 6482 16ac 20270000 		.4byte	.LASF312
 6483 16b0 1B       		.byte	0x1b
 6484 16b1 71       		.byte	0x71
 6485 16b2 00160000 		.4byte	0x1600
 6486 16b6 16       		.uleb128 0x16
 6487 16b7 F2000000 		.4byte	0xf2
 6488 16bb CF160000 		.4byte	0x16cf
 6489 16bf 17       		.uleb128 0x17
 6490 16c0 AB010000 		.4byte	0x1ab
 6491 16c4 17       		.uleb128 0x17
 6492 16c5 CF160000 		.4byte	0x16cf
 6493 16c9 17       		.uleb128 0x17
 6494 16ca F2000000 		.4byte	0xf2
 6495 16ce 00       		.byte	0
 6496 16cf 07       		.uleb128 0x7
 6497 16d0 04       		.byte	0x4
 6498 16d1 B2000000 		.4byte	0xb2
 6499 16d5 07       		.uleb128 0x7
 6500 16d6 04       		.byte	0x4
 6501 16d7 B6160000 		.4byte	0x16b6
 6502 16db 16       		.uleb128 0x16
 6503 16dc F2000000 		.4byte	0xf2
 6504 16e0 F4160000 		.4byte	0x16f4
 6505 16e4 17       		.uleb128 0x17
 6506 16e5 AB010000 		.4byte	0x1ab
 6507 16e9 17       		.uleb128 0x17
 6508 16ea 9A160000 		.4byte	0x169a
 6509 16ee 17       		.uleb128 0x17
 6510 16ef F2000000 		.4byte	0xf2
 6511 16f3 00       		.byte	0
 6512 16f4 07       		.uleb128 0x7
 6513 16f5 04       		.byte	0x4
 6514 16f6 DB160000 		.4byte	0x16db
 6515 16fa 16       		.uleb128 0x16
ARM GAS  /tmp/cccFXynL.s 			page 116


 6516 16fb C0090000 		.4byte	0x9c0
 6517 16ff 0E170000 		.4byte	0x170e
 6518 1703 17       		.uleb128 0x17
 6519 1704 AB010000 		.4byte	0x1ab
 6520 1708 17       		.uleb128 0x17
 6521 1709 A7000000 		.4byte	0xa7
 6522 170d 00       		.byte	0
 6523 170e 07       		.uleb128 0x7
 6524 170f 04       		.byte	0x4
 6525 1710 FA160000 		.4byte	0x16fa
 6526 1714 16       		.uleb128 0x16
 6527 1715 C0090000 		.4byte	0x9c0
 6528 1719 23170000 		.4byte	0x1723
 6529 171d 17       		.uleb128 0x17
 6530 171e AB010000 		.4byte	0x1ab
 6531 1722 00       		.byte	0
 6532 1723 07       		.uleb128 0x7
 6533 1724 04       		.byte	0x4
 6534 1725 14170000 		.4byte	0x1714
 6535 1729 02       		.uleb128 0x2
 6536 172a 04       		.byte	0x4
 6537 172b 04       		.byte	0x4
 6538 172c 6F0A0000 		.4byte	.LASF313
 6539 1730 02       		.uleb128 0x2
 6540 1731 01       		.byte	0x1
 6541 1732 02       		.byte	0x2
 6542 1733 00010000 		.4byte	.LASF314
 6543 1737 0C       		.uleb128 0xc
 6544 1738 A7000000 		.4byte	0xa7
 6545 173c 47170000 		.4byte	0x1747
 6546 1740 0D       		.uleb128 0xd
 6547 1741 9B000000 		.4byte	0x9b
 6548 1745 07       		.byte	0x7
 6549 1746 00       		.byte	0
 6550 1747 02       		.uleb128 0x2
 6551 1748 08       		.byte	0x8
 6552 1749 04       		.byte	0x4
 6553 174a BF1E0000 		.4byte	.LASF315
 6554 174e 1C       		.uleb128 0x1c
 6555 174f 18       		.byte	0x18
 6556 1750 1C       		.byte	0x1c
 6557 1751 3D05     		.2byte	0x53d
 6558 1753 8C170000 		.4byte	0x178c
 6559 1757 19       		.uleb128 0x19
 6560 1758 70170000 		.4byte	.LASF316
 6561 175c 1C       		.byte	0x1c
 6562 175d 3E05     		.2byte	0x53e
 6563 175f D2000000 		.4byte	0xd2
 6564 1763 00       		.byte	0
 6565 1764 19       		.uleb128 0x19
 6566 1765 D1100000 		.4byte	.LASF317
 6567 1769 1C       		.byte	0x1c
 6568 176a 3F05     		.2byte	0x53f
 6569 176c E7000000 		.4byte	0xe7
 6570 1770 04       		.byte	0x4
 6571 1771 19       		.uleb128 0x19
 6572 1772 DD1A0000 		.4byte	.LASF318
ARM GAS  /tmp/cccFXynL.s 			page 117


 6573 1776 1C       		.byte	0x1c
 6574 1777 4105     		.2byte	0x541
 6575 1779 D2000000 		.4byte	0xd2
 6576 177d 0C       		.byte	0xc
 6577 177e 19       		.uleb128 0x19
 6578 177f B90A0000 		.4byte	.LASF319
 6579 1783 1C       		.byte	0x1c
 6580 1784 4205     		.2byte	0x542
 6581 1786 E7000000 		.4byte	0xe7
 6582 178a 10       		.byte	0x10
 6583 178b 00       		.byte	0
 6584 178c 09       		.uleb128 0x9
 6585 178d FC170000 		.4byte	.LASF320
 6586 1791 1C       		.byte	0x1c
 6587 1792 4305     		.2byte	0x543
 6588 1794 4E170000 		.4byte	0x174e
 6589 1798 06       		.uleb128 0x6
 6590 1799 8C170000 		.4byte	0x178c
 6591 179d 20       		.uleb128 0x20
 6592 179e C3190000 		.4byte	.LASF321
 6593 17a2 1D       		.byte	0x1d
 6594 17a3 6201     		.2byte	0x162
 6595 17a5 30170000 		.4byte	0x1730
 6596 17a9 20       		.uleb128 0x20
 6597 17aa 4B100000 		.4byte	.LASF322
 6598 17ae 1D       		.byte	0x1d
 6599 17af 6301     		.2byte	0x163
 6600 17b1 98170000 		.4byte	0x1798
 6601 17b5 0E       		.uleb128 0xe
 6602 17b6 0C       		.byte	0xc
 6603 17b7 1E       		.byte	0x1e
 6604 17b8 DA       		.byte	0xda
 6605 17b9 FA170000 		.4byte	0x17fa
 6606 17bd 0F       		.uleb128 0xf
 6607 17be 70260000 		.4byte	.LASF323
 6608 17c2 1E       		.byte	0x1e
 6609 17c3 DB       		.byte	0xdb
 6610 17c4 FA170000 		.4byte	0x17fa
 6611 17c8 00       		.byte	0
 6612 17c9 0F       		.uleb128 0xf
 6613 17ca 8B110000 		.4byte	.LASF324
 6614 17ce 1E       		.byte	0x1e
 6615 17cf DC       		.byte	0xdc
 6616 17d0 00180000 		.4byte	0x1800
 6617 17d4 04       		.byte	0x4
 6618 17d5 0F       		.uleb128 0xf
 6619 17d6 AF040000 		.4byte	.LASF325
 6620 17da 1E       		.byte	0x1e
 6621 17db DD       		.byte	0xdd
 6622 17dc A7000000 		.4byte	0xa7
 6623 17e0 08       		.byte	0x8
 6624 17e1 0F       		.uleb128 0xf
 6625 17e2 0B200000 		.4byte	.LASF326
 6626 17e6 1E       		.byte	0x1e
 6627 17e7 DF       		.byte	0xdf
 6628 17e8 A7000000 		.4byte	0xa7
 6629 17ec 09       		.byte	0x9
ARM GAS  /tmp/cccFXynL.s 			page 118


 6630 17ed 0F       		.uleb128 0xf
 6631 17ee 0D040000 		.4byte	.LASF327
 6632 17f2 1E       		.byte	0x1e
 6633 17f3 E0       		.byte	0xe0
 6634 17f4 A7000000 		.4byte	0xa7
 6635 17f8 0A       		.byte	0xa
 6636 17f9 00       		.byte	0
 6637 17fa 07       		.uleb128 0x7
 6638 17fb 04       		.byte	0x4
 6639 17fc 09100000 		.4byte	0x1009
 6640 1800 07       		.uleb128 0x7
 6641 1801 04       		.byte	0x4
 6642 1802 DD000000 		.4byte	0xdd
 6643 1806 03       		.uleb128 0x3
 6644 1807 FA130000 		.4byte	.LASF328
 6645 180b 1E       		.byte	0x1e
 6646 180c E1       		.byte	0xe1
 6647 180d B5170000 		.4byte	0x17b5
 6648 1811 05       		.uleb128 0x5
 6649 1812 06180000 		.4byte	0x1806
 6650 1816 0C       		.uleb128 0xc
 6651 1817 11180000 		.4byte	0x1811
 6652 181b 26180000 		.4byte	0x1826
 6653 181f 0D       		.uleb128 0xd
 6654 1820 9B000000 		.4byte	0x9b
 6655 1824 0F       		.byte	0xf
 6656 1825 00       		.byte	0
 6657 1826 05       		.uleb128 0x5
 6658 1827 16180000 		.4byte	0x1816
 6659 182b 20       		.uleb128 0x20
 6660 182c 881C0000 		.4byte	.LASF329
 6661 1830 1E       		.byte	0x1e
 6662 1831 BB01     		.2byte	0x1bb
 6663 1833 26180000 		.4byte	0x1826
 6664 1837 16       		.uleb128 0x16
 6665 1838 C0090000 		.4byte	0x9c0
 6666 183c 50180000 		.4byte	0x1850
 6667 1840 17       		.uleb128 0x17
 6668 1841 AB010000 		.4byte	0x1ab
 6669 1845 17       		.uleb128 0x17
 6670 1846 A7000000 		.4byte	0xa7
 6671 184a 17       		.uleb128 0x17
 6672 184b EC090000 		.4byte	0x9ec
 6673 184f 00       		.byte	0
 6674 1850 07       		.uleb128 0x7
 6675 1851 04       		.byte	0x4
 6676 1852 37180000 		.4byte	0x1837
 6677 1856 16       		.uleb128 0x16
 6678 1857 C0090000 		.4byte	0x9c0
 6679 185b 6A180000 		.4byte	0x186a
 6680 185f 17       		.uleb128 0x17
 6681 1860 AB010000 		.4byte	0x1ab
 6682 1864 17       		.uleb128 0x17
 6683 1865 EC090000 		.4byte	0x9ec
 6684 1869 00       		.byte	0
 6685 186a 07       		.uleb128 0x7
 6686 186b 04       		.byte	0x4
ARM GAS  /tmp/cccFXynL.s 			page 119


 6687 186c 56180000 		.4byte	0x1856
 6688 1870 16       		.uleb128 0x16
 6689 1871 F2000000 		.4byte	0xf2
 6690 1875 8E180000 		.4byte	0x188e
 6691 1879 17       		.uleb128 0x17
 6692 187a AB010000 		.4byte	0x1ab
 6693 187e 17       		.uleb128 0x17
 6694 187f CF160000 		.4byte	0x16cf
 6695 1883 17       		.uleb128 0x17
 6696 1884 F2000000 		.4byte	0xf2
 6697 1888 17       		.uleb128 0x17
 6698 1889 EC090000 		.4byte	0x9ec
 6699 188d 00       		.byte	0
 6700 188e 07       		.uleb128 0x7
 6701 188f 04       		.byte	0x4
 6702 1890 70180000 		.4byte	0x1870
 6703 1894 16       		.uleb128 0x16
 6704 1895 F2000000 		.4byte	0xf2
 6705 1899 B2180000 		.4byte	0x18b2
 6706 189d 17       		.uleb128 0x17
 6707 189e AB010000 		.4byte	0x1ab
 6708 18a2 17       		.uleb128 0x17
 6709 18a3 9A160000 		.4byte	0x169a
 6710 18a7 17       		.uleb128 0x17
 6711 18a8 F2000000 		.4byte	0xf2
 6712 18ac 17       		.uleb128 0x17
 6713 18ad EC090000 		.4byte	0x9ec
 6714 18b1 00       		.byte	0
 6715 18b2 07       		.uleb128 0x7
 6716 18b3 04       		.byte	0x4
 6717 18b4 94180000 		.4byte	0x1894
 6718 18b8 0E       		.uleb128 0xe
 6719 18b9 04       		.byte	0x4
 6720 18ba 1F       		.byte	0x1f
 6721 18bb B3       		.byte	0xb3
 6722 18bc D9180000 		.4byte	0x18d9
 6723 18c0 12       		.uleb128 0x12
 6724 18c1 73657400 		.ascii	"set\000"
 6725 18c5 1F       		.byte	0x1f
 6726 18c6 B4       		.byte	0xb4
 6727 18c7 B7000000 		.4byte	0xb7
 6728 18cb 00       		.byte	0
 6729 18cc 0F       		.uleb128 0xf
 6730 18cd 140F0000 		.4byte	.LASF330
 6731 18d1 1F       		.byte	0x1f
 6732 18d2 B5       		.byte	0xb5
 6733 18d3 B7000000 		.4byte	0xb7
 6734 18d7 02       		.byte	0x2
 6735 18d8 00       		.byte	0
 6736 18d9 0A       		.uleb128 0xa
 6737 18da 04       		.byte	0x4
 6738 18db 1F       		.byte	0x1f
 6739 18dc B1       		.byte	0xb1
 6740 18dd F4180000 		.4byte	0x18f4
 6741 18e1 28       		.uleb128 0x28
 6742 18e2 5700     		.ascii	"W\000"
 6743 18e4 1F       		.byte	0x1f
ARM GAS  /tmp/cccFXynL.s 			page 120


 6744 18e5 B2       		.byte	0xb2
 6745 18e6 D2000000 		.4byte	0xd2
 6746 18ea 28       		.uleb128 0x28
 6747 18eb 4800     		.ascii	"H\000"
 6748 18ed 1F       		.byte	0x1f
 6749 18ee B6       		.byte	0xb6
 6750 18ef B8180000 		.4byte	0x18b8
 6751 18f3 00       		.byte	0
 6752 18f4 06       		.uleb128 0x6
 6753 18f5 D9180000 		.4byte	0x18d9
 6754 18f9 0E       		.uleb128 0xe
 6755 18fa 2C       		.byte	0x2c
 6756 18fb 1F       		.byte	0x1f
 6757 18fc A9       		.byte	0xa9
 6758 18fd 86190000 		.4byte	0x1986
 6759 1901 0F       		.uleb128 0xf
 6760 1902 32200000 		.4byte	.LASF331
 6761 1906 1F       		.byte	0x1f
 6762 1907 AB       		.byte	0xab
 6763 1908 DD000000 		.4byte	0xdd
 6764 190c 00       		.byte	0
 6765 190d 0F       		.uleb128 0xf
 6766 190e A2030000 		.4byte	.LASF332
 6767 1912 1F       		.byte	0x1f
 6768 1913 AC       		.byte	0xac
 6769 1914 DD000000 		.4byte	0xdd
 6770 1918 04       		.byte	0x4
 6771 1919 0F       		.uleb128 0xf
 6772 191a 77100000 		.4byte	.LASF333
 6773 191e 1F       		.byte	0x1f
 6774 191f AD       		.byte	0xad
 6775 1920 DD000000 		.4byte	0xdd
 6776 1924 08       		.byte	0x8
 6777 1925 0F       		.uleb128 0xf
 6778 1926 561F0000 		.4byte	.LASF334
 6779 192a 1F       		.byte	0x1f
 6780 192b AE       		.byte	0xae
 6781 192c DD000000 		.4byte	0xdd
 6782 1930 0C       		.byte	0xc
 6783 1931 12       		.uleb128 0x12
 6784 1932 49445200 		.ascii	"IDR\000"
 6785 1936 1F       		.byte	0x1f
 6786 1937 AF       		.byte	0xaf
 6787 1938 DD000000 		.4byte	0xdd
 6788 193c 10       		.byte	0x10
 6789 193d 12       		.uleb128 0x12
 6790 193e 4F445200 		.ascii	"ODR\000"
 6791 1942 1F       		.byte	0x1f
 6792 1943 B0       		.byte	0xb0
 6793 1944 DD000000 		.4byte	0xdd
 6794 1948 14       		.byte	0x14
 6795 1949 0F       		.uleb128 0xf
 6796 194a F5130000 		.4byte	.LASF335
 6797 194e 1F       		.byte	0x1f
 6798 194f B7       		.byte	0xb7
 6799 1950 F4180000 		.4byte	0x18f4
 6800 1954 18       		.byte	0x18
ARM GAS  /tmp/cccFXynL.s 			page 121


 6801 1955 0F       		.uleb128 0xf
 6802 1956 9C190000 		.4byte	.LASF336
 6803 195a 1F       		.byte	0x1f
 6804 195b B8       		.byte	0xb8
 6805 195c DD000000 		.4byte	0xdd
 6806 1960 1C       		.byte	0x1c
 6807 1961 0F       		.uleb128 0xf
 6808 1962 6B1D0000 		.4byte	.LASF337
 6809 1966 1F       		.byte	0x1f
 6810 1967 B9       		.byte	0xb9
 6811 1968 DD000000 		.4byte	0xdd
 6812 196c 20       		.byte	0x20
 6813 196d 0F       		.uleb128 0xf
 6814 196e 661D0000 		.4byte	.LASF338
 6815 1972 1F       		.byte	0x1f
 6816 1973 BA       		.byte	0xba
 6817 1974 DD000000 		.4byte	0xdd
 6818 1978 24       		.byte	0x24
 6819 1979 12       		.uleb128 0x12
 6820 197a 42525200 		.ascii	"BRR\000"
 6821 197e 1F       		.byte	0x1f
 6822 197f BB       		.byte	0xbb
 6823 1980 DD000000 		.4byte	0xdd
 6824 1984 28       		.byte	0x28
 6825 1985 00       		.byte	0
 6826 1986 03       		.uleb128 0x3
 6827 1987 A9110000 		.4byte	.LASF339
 6828 198b 1F       		.byte	0x1f
 6829 198c BC       		.byte	0xbc
 6830 198d F9180000 		.4byte	0x18f9
 6831 1991 0E       		.uleb128 0xe
 6832 1992 1C       		.byte	0x1c
 6833 1993 1F       		.byte	0x1f
 6834 1994 C1       		.byte	0xc1
 6835 1995 EE190000 		.4byte	0x19ee
 6836 1999 0F       		.uleb128 0xf
 6837 199a 8F230000 		.4byte	.LASF340
 6838 199e 1F       		.byte	0x1f
 6839 199f C3       		.byte	0xc3
 6840 19a0 D2000000 		.4byte	0xd2
 6841 19a4 00       		.byte	0
 6842 19a5 0F       		.uleb128 0xf
 6843 19a6 8C030000 		.4byte	.LASF341
 6844 19aa 1F       		.byte	0x1f
 6845 19ab C5       		.byte	0xc5
 6846 19ac D2000000 		.4byte	0xd2
 6847 19b0 04       		.byte	0x4
 6848 19b1 0F       		.uleb128 0xf
 6849 19b2 56020000 		.4byte	.LASF342
 6850 19b6 1F       		.byte	0x1f
 6851 19b7 C7       		.byte	0xc7
 6852 19b8 D2000000 		.4byte	0xd2
 6853 19bc 08       		.byte	0x8
 6854 19bd 0F       		.uleb128 0xf
 6855 19be 0C230000 		.4byte	.LASF343
 6856 19c2 1F       		.byte	0x1f
 6857 19c3 C9       		.byte	0xc9
ARM GAS  /tmp/cccFXynL.s 			page 122


 6858 19c4 D2000000 		.4byte	0xd2
 6859 19c8 0C       		.byte	0xc
 6860 19c9 12       		.uleb128 0x12
 6861 19ca 6F647200 		.ascii	"odr\000"
 6862 19ce 1F       		.byte	0x1f
 6863 19cf CB       		.byte	0xcb
 6864 19d0 D2000000 		.4byte	0xd2
 6865 19d4 10       		.byte	0x10
 6866 19d5 0F       		.uleb128 0xf
 6867 19d6 E71F0000 		.4byte	.LASF344
 6868 19da 1F       		.byte	0x1f
 6869 19db CD       		.byte	0xcd
 6870 19dc D2000000 		.4byte	0xd2
 6871 19e0 14       		.byte	0x14
 6872 19e1 0F       		.uleb128 0xf
 6873 19e2 D91F0000 		.4byte	.LASF345
 6874 19e6 1F       		.byte	0x1f
 6875 19e7 CF       		.byte	0xcf
 6876 19e8 D2000000 		.4byte	0xd2
 6877 19ec 18       		.byte	0x18
 6878 19ed 00       		.byte	0
 6879 19ee 03       		.uleb128 0x3
 6880 19ef 591C0000 		.4byte	.LASF346
 6881 19f3 1F       		.byte	0x1f
 6882 19f4 D0       		.byte	0xd0
 6883 19f5 91190000 		.4byte	0x1991
 6884 19f9 0E       		.uleb128 0xe
 6885 19fa FC       		.byte	0xfc
 6886 19fb 1F       		.byte	0x1f
 6887 19fc D9       		.byte	0xd9
 6888 19fd 6E1A0000 		.4byte	0x1a6e
 6889 1a01 0F       		.uleb128 0xf
 6890 1a02 51120000 		.4byte	.LASF347
 6891 1a06 1F       		.byte	0x1f
 6892 1a07 DC       		.byte	0xdc
 6893 1a08 EE190000 		.4byte	0x19ee
 6894 1a0c 00       		.byte	0
 6895 1a0d 0F       		.uleb128 0xf
 6896 1a0e 47030000 		.4byte	.LASF348
 6897 1a12 1F       		.byte	0x1f
 6898 1a13 E0       		.byte	0xe0
 6899 1a14 EE190000 		.4byte	0x19ee
 6900 1a18 1C       		.byte	0x1c
 6901 1a19 0F       		.uleb128 0xf
 6902 1a1a A6010000 		.4byte	.LASF349
 6903 1a1e 1F       		.byte	0x1f
 6904 1a1f E4       		.byte	0xe4
 6905 1a20 EE190000 		.4byte	0x19ee
 6906 1a24 38       		.byte	0x38
 6907 1a25 0F       		.uleb128 0xf
 6908 1a26 FD0F0000 		.4byte	.LASF350
 6909 1a2a 1F       		.byte	0x1f
 6910 1a2b E8       		.byte	0xe8
 6911 1a2c EE190000 		.4byte	0x19ee
 6912 1a30 54       		.byte	0x54
 6913 1a31 0F       		.uleb128 0xf
 6914 1a32 461B0000 		.4byte	.LASF351
ARM GAS  /tmp/cccFXynL.s 			page 123


 6915 1a36 1F       		.byte	0x1f
 6916 1a37 EC       		.byte	0xec
 6917 1a38 EE190000 		.4byte	0x19ee
 6918 1a3c 70       		.byte	0x70
 6919 1a3d 0F       		.uleb128 0xf
 6920 1a3e 7B270000 		.4byte	.LASF352
 6921 1a42 1F       		.byte	0x1f
 6922 1a43 F0       		.byte	0xf0
 6923 1a44 EE190000 		.4byte	0x19ee
 6924 1a48 8C       		.byte	0x8c
 6925 1a49 0F       		.uleb128 0xf
 6926 1a4a 920C0000 		.4byte	.LASF353
 6927 1a4e 1F       		.byte	0x1f
 6928 1a4f F4       		.byte	0xf4
 6929 1a50 EE190000 		.4byte	0x19ee
 6930 1a54 A8       		.byte	0xa8
 6931 1a55 0F       		.uleb128 0xf
 6932 1a56 E5180000 		.4byte	.LASF354
 6933 1a5a 1F       		.byte	0x1f
 6934 1a5b F8       		.byte	0xf8
 6935 1a5c EE190000 		.4byte	0x19ee
 6936 1a60 C4       		.byte	0xc4
 6937 1a61 0F       		.uleb128 0xf
 6938 1a62 71250000 		.4byte	.LASF355
 6939 1a66 1F       		.byte	0x1f
 6940 1a67 FC       		.byte	0xfc
 6941 1a68 EE190000 		.4byte	0x19ee
 6942 1a6c E0       		.byte	0xe0
 6943 1a6d 00       		.byte	0
 6944 1a6e 03       		.uleb128 0x3
 6945 1a6f B90B0000 		.4byte	.LASF356
 6946 1a73 1F       		.byte	0x1f
 6947 1a74 FE       		.byte	0xfe
 6948 1a75 F9190000 		.4byte	0x19f9
 6949 1a79 05       		.uleb128 0x5
 6950 1a7a 6E1A0000 		.4byte	0x1a6e
 6951 1a7e 09       		.uleb128 0x9
 6952 1a7f EC180000 		.4byte	.LASF357
 6953 1a83 1F       		.byte	0x1f
 6954 1a84 1B01     		.2byte	0x11b
 6955 1a86 8A1A0000 		.4byte	0x1a8a
 6956 1a8a 07       		.uleb128 0x7
 6957 1a8b 04       		.byte	0x4
 6958 1a8c 86190000 		.4byte	0x1986
 6959 1a90 20       		.uleb128 0x20
 6960 1a91 D7200000 		.4byte	.LASF358
 6961 1a95 1F       		.byte	0x1f
 6962 1a96 DA01     		.2byte	0x1da
 6963 1a98 791A0000 		.4byte	0x1a79
 6964 1a9c 29       		.uleb128 0x29
 6965 1a9d 07       		.byte	0x7
 6966 1a9e 01       		.byte	0x1
 6967 1a9f 37000000 		.4byte	0x37
 6968 1aa3 20       		.byte	0x20
 6969 1aa4 5F       		.byte	0x5f
 6970 1aa5 C81A0000 		.4byte	0x1ac8
 6971 1aa9 2A       		.uleb128 0x2a
ARM GAS  /tmp/cccFXynL.s 			page 124


 6972 1aaa 9F0F0000 		.4byte	.LASF359
 6973 1aae 00       		.byte	0
 6974 1aaf 2A       		.uleb128 0x2a
 6975 1ab0 CE000000 		.4byte	.LASF360
 6976 1ab4 01       		.byte	0x1
 6977 1ab5 2A       		.uleb128 0x2a
 6978 1ab6 41000000 		.4byte	.LASF361
 6979 1aba 02       		.byte	0x2
 6980 1abb 2A       		.uleb128 0x2a
 6981 1abc 631A0000 		.4byte	.LASF362
 6982 1ac0 03       		.byte	0x3
 6983 1ac1 2A       		.uleb128 0x2a
 6984 1ac2 A40A0000 		.4byte	.LASF363
 6985 1ac6 04       		.byte	0x4
 6986 1ac7 00       		.byte	0
 6987 1ac8 03       		.uleb128 0x3
 6988 1ac9 32060000 		.4byte	.LASF364
 6989 1acd 20       		.byte	0x20
 6990 1ace 65       		.byte	0x65
 6991 1acf 9C1A0000 		.4byte	0x1a9c
 6992 1ad3 0E       		.uleb128 0xe
 6993 1ad4 08       		.byte	0x8
 6994 1ad5 21       		.byte	0x21
 6995 1ad6 F4       		.byte	0xf4
 6996 1ad7 F51A0000 		.4byte	0x1af5
 6997 1adb 12       		.uleb128 0x12
 6998 1adc 6D637200 		.ascii	"mcr\000"
 6999 1ae0 21       		.byte	0x21
 7000 1ae1 FA       		.byte	0xfa
 7001 1ae2 D2000000 		.4byte	0xd2
 7002 1ae6 00       		.byte	0
 7003 1ae7 24       		.uleb128 0x24
 7004 1ae8 62747200 		.ascii	"btr\000"
 7005 1aec 21       		.byte	0x21
 7006 1aed 0001     		.2byte	0x100
 7007 1aef D2000000 		.4byte	0xd2
 7008 1af3 04       		.byte	0x4
 7009 1af4 00       		.byte	0
 7010 1af5 09       		.uleb128 0x9
 7011 1af6 3C1B0000 		.4byte	.LASF365
 7012 1afa 21       		.byte	0x21
 7013 1afb 0101     		.2byte	0x101
 7014 1afd D31A0000 		.4byte	0x1ad3
 7015 1b01 05       		.uleb128 0x5
 7016 1b02 F51A0000 		.4byte	0x1af5
 7017 1b06 1C       		.uleb128 0x1c
 7018 1b07 30       		.byte	0x30
 7019 1b08 21       		.byte	0x21
 7020 1b09 0601     		.2byte	0x106
 7021 1b0b 921B0000 		.4byte	0x1b92
 7022 1b0f 19       		.uleb128 0x19
 7023 1b10 4E170000 		.4byte	.LASF366
 7024 1b14 21       		.byte	0x21
 7025 1b15 0A01     		.2byte	0x10a
 7026 1b17 C81A0000 		.4byte	0x1ac8
 7027 1b1b 00       		.byte	0
 7028 1b1c 19       		.uleb128 0x19
ARM GAS  /tmp/cccFXynL.s 			page 125


 7029 1b1d D41D0000 		.4byte	.LASF367
 7030 1b21 21       		.byte	0x21
 7031 1b22 0E01     		.2byte	0x10e
 7032 1b24 921B0000 		.4byte	0x1b92
 7033 1b28 04       		.byte	0x4
 7034 1b29 19       		.uleb128 0x19
 7035 1b2a F7090000 		.4byte	.LASF368
 7036 1b2e 21       		.byte	0x21
 7037 1b2f 1201     		.2byte	0x112
 7038 1b31 5A0B0000 		.4byte	0xb5a
 7039 1b35 08       		.byte	0x8
 7040 1b36 19       		.uleb128 0x19
 7041 1b37 C6200000 		.4byte	.LASF369
 7042 1b3b 21       		.byte	0x21
 7043 1b3c 1601     		.2byte	0x116
 7044 1b3e 5A0B0000 		.4byte	0xb5a
 7045 1b42 10       		.byte	0x10
 7046 1b43 19       		.uleb128 0x19
 7047 1b44 041B0000 		.4byte	.LASF370
 7048 1b48 21       		.byte	0x21
 7049 1b49 2301     		.2byte	0x123
 7050 1b4b F5150000 		.4byte	0x15f5
 7051 1b4f 18       		.byte	0x18
 7052 1b50 19       		.uleb128 0x19
 7053 1b51 840C0000 		.4byte	.LASF371
 7054 1b55 21       		.byte	0x21
 7055 1b56 2A01     		.2byte	0x12a
 7056 1b58 F5150000 		.4byte	0x15f5
 7057 1b5c 1C       		.byte	0x1c
 7058 1b5d 19       		.uleb128 0x19
 7059 1b5e 54100000 		.4byte	.LASF372
 7060 1b62 21       		.byte	0x21
 7061 1b63 3001     		.2byte	0x130
 7062 1b65 F5150000 		.4byte	0x15f5
 7063 1b69 20       		.byte	0x20
 7064 1b6a 19       		.uleb128 0x19
 7065 1b6b EA030000 		.4byte	.LASF373
 7066 1b6f 21       		.byte	0x21
 7067 1b70 3501     		.2byte	0x135
 7068 1b72 F5150000 		.4byte	0x15f5
 7069 1b76 24       		.byte	0x24
 7070 1b77 19       		.uleb128 0x19
 7071 1b78 AD090000 		.4byte	.LASF374
 7072 1b7c 21       		.byte	0x21
 7073 1b7d 3901     		.2byte	0x139
 7074 1b7f F5150000 		.4byte	0x15f5
 7075 1b83 28       		.byte	0x28
 7076 1b84 24       		.uleb128 0x24
 7077 1b85 63616E00 		.ascii	"can\000"
 7078 1b89 21       		.byte	0x21
 7079 1b8a 3F01     		.2byte	0x13f
 7080 1b8c 981B0000 		.4byte	0x1b98
 7081 1b90 2C       		.byte	0x2c
 7082 1b91 00       		.byte	0
 7083 1b92 07       		.uleb128 0x7
 7084 1b93 04       		.byte	0x4
 7085 1b94 011B0000 		.4byte	0x1b01
ARM GAS  /tmp/cccFXynL.s 			page 126


 7086 1b98 07       		.uleb128 0x7
 7087 1b99 04       		.byte	0x4
 7088 1b9a A60F0000 		.4byte	0xfa6
 7089 1b9e 09       		.uleb128 0x9
 7090 1b9f 52040000 		.4byte	.LASF375
 7091 1ba3 21       		.byte	0x21
 7092 1ba4 4001     		.2byte	0x140
 7093 1ba6 061B0000 		.4byte	0x1b06
 7094 1baa 20       		.uleb128 0x20
 7095 1bab BC220000 		.4byte	.LASF376
 7096 1baf 21       		.byte	0x21
 7097 1bb0 4B01     		.2byte	0x14b
 7098 1bb2 9E1B0000 		.4byte	0x1b9e
 7099 1bb6 20       		.uleb128 0x20
 7100 1bb7 530B0000 		.4byte	.LASF377
 7101 1bbb 21       		.byte	0x21
 7102 1bbc 4F01     		.2byte	0x14f
 7103 1bbe 9E1B0000 		.4byte	0x1b9e
 7104 1bc2 29       		.uleb128 0x29
 7105 1bc3 07       		.byte	0x7
 7106 1bc4 01       		.byte	0x1
 7107 1bc5 37000000 		.4byte	0x37
 7108 1bc9 22       		.byte	0x22
 7109 1bca 4C       		.byte	0x4c
 7110 1bcb F41B0000 		.4byte	0x1bf4
 7111 1bcf 2A       		.uleb128 0x2a
 7112 1bd0 90060000 		.4byte	.LASF378
 7113 1bd4 00       		.byte	0
 7114 1bd5 2A       		.uleb128 0x2a
 7115 1bd6 38100000 		.4byte	.LASF379
 7116 1bda 01       		.byte	0x1
 7117 1bdb 2A       		.uleb128 0x2a
 7118 1bdc 73070000 		.4byte	.LASF380
 7119 1be0 02       		.byte	0x2
 7120 1be1 2A       		.uleb128 0x2a
 7121 1be2 F0040000 		.4byte	.LASF381
 7122 1be6 03       		.byte	0x3
 7123 1be7 2A       		.uleb128 0x2a
 7124 1be8 BB030000 		.4byte	.LASF382
 7125 1bec 04       		.byte	0x4
 7126 1bed 2A       		.uleb128 0x2a
 7127 1bee A3140000 		.4byte	.LASF383
 7128 1bf2 05       		.byte	0x5
 7129 1bf3 00       		.byte	0
 7130 1bf4 03       		.uleb128 0x3
 7131 1bf5 AC120000 		.4byte	.LASF384
 7132 1bf9 22       		.byte	0x22
 7133 1bfa 53       		.byte	0x53
 7134 1bfb C21B0000 		.4byte	0x1bc2
 7135 1bff 09       		.uleb128 0x9
 7136 1c00 B3180000 		.4byte	.LASF385
 7137 1c04 23       		.byte	0x23
 7138 1c05 6A01     		.2byte	0x16a
 7139 1c07 B7000000 		.4byte	0xb7
 7140 1c0b 09       		.uleb128 0x9
 7141 1c0c 7C040000 		.4byte	.LASF386
 7142 1c10 23       		.byte	0x23
ARM GAS  /tmp/cccFXynL.s 			page 127


 7143 1c11 6F01     		.2byte	0x16f
 7144 1c13 D2000000 		.4byte	0xd2
 7145 1c17 2B       		.uleb128 0x2b
 7146 1c18 07       		.byte	0x7
 7147 1c19 01       		.byte	0x1
 7148 1c1a 37000000 		.4byte	0x37
 7149 1c1e 23       		.byte	0x23
 7150 1c1f 7401     		.2byte	0x174
 7151 1c21 381C0000 		.4byte	0x1c38
 7152 1c25 2A       		.uleb128 0x2a
 7153 1c26 FE040000 		.4byte	.LASF387
 7154 1c2a 01       		.byte	0x1
 7155 1c2b 2A       		.uleb128 0x2a
 7156 1c2c 8F000000 		.4byte	.LASF388
 7157 1c30 02       		.byte	0x2
 7158 1c31 2A       		.uleb128 0x2a
 7159 1c32 1C0A0000 		.4byte	.LASF389
 7160 1c36 03       		.byte	0x3
 7161 1c37 00       		.byte	0
 7162 1c38 09       		.uleb128 0x9
 7163 1c39 89260000 		.4byte	.LASF390
 7164 1c3d 23       		.byte	0x23
 7165 1c3e 7801     		.2byte	0x178
 7166 1c40 171C0000 		.4byte	0x1c17
 7167 1c44 2B       		.uleb128 0x2b
 7168 1c45 07       		.byte	0x7
 7169 1c46 01       		.byte	0x1
 7170 1c47 37000000 		.4byte	0x37
 7171 1c4b 23       		.byte	0x23
 7172 1c4c 7D01     		.2byte	0x17d
 7173 1c4e 651C0000 		.4byte	0x1c65
 7174 1c52 2A       		.uleb128 0x2a
 7175 1c53 E6050000 		.4byte	.LASF391
 7176 1c57 01       		.byte	0x1
 7177 1c58 2A       		.uleb128 0x2a
 7178 1c59 0B260000 		.4byte	.LASF392
 7179 1c5d 02       		.byte	0x2
 7180 1c5e 2A       		.uleb128 0x2a
 7181 1c5f 610B0000 		.4byte	.LASF393
 7182 1c63 03       		.byte	0x3
 7183 1c64 00       		.byte	0
 7184 1c65 09       		.uleb128 0x9
 7185 1c66 24070000 		.4byte	.LASF394
 7186 1c6a 23       		.byte	0x23
 7187 1c6b 8101     		.2byte	0x181
 7188 1c6d 441C0000 		.4byte	0x1c44
 7189 1c71 1C       		.uleb128 0x1c
 7190 1c72 0C       		.byte	0xc
 7191 1c73 23       		.byte	0x23
 7192 1c74 8601     		.2byte	0x186
 7193 1c76 A21C0000 		.4byte	0x1ca2
 7194 1c7a 19       		.uleb128 0x19
 7195 1c7b 61060000 		.4byte	.LASF395
 7196 1c7f 23       		.byte	0x23
 7197 1c80 8801     		.2byte	0x188
 7198 1c82 381C0000 		.4byte	0x1c38
 7199 1c86 00       		.byte	0
ARM GAS  /tmp/cccFXynL.s 			page 128


 7200 1c87 19       		.uleb128 0x19
 7201 1c88 31040000 		.4byte	.LASF396
 7202 1c8c 23       		.byte	0x23
 7203 1c8d 8901     		.2byte	0x189
 7204 1c8f D2000000 		.4byte	0xd2
 7205 1c93 04       		.byte	0x4
 7206 1c94 19       		.uleb128 0x19
 7207 1c95 43270000 		.4byte	.LASF397
 7208 1c99 23       		.byte	0x23
 7209 1c9a 8C01     		.2byte	0x18c
 7210 1c9c 651C0000 		.4byte	0x1c65
 7211 1ca0 08       		.byte	0x8
 7212 1ca1 00       		.byte	0
 7213 1ca2 09       		.uleb128 0x9
 7214 1ca3 09020000 		.4byte	.LASF398
 7215 1ca7 23       		.byte	0x23
 7216 1ca8 8E01     		.2byte	0x18e
 7217 1caa 711C0000 		.4byte	0x1c71
 7218 1cae 05       		.uleb128 0x5
 7219 1caf A21C0000 		.4byte	0x1ca2
 7220 1cb3 09       		.uleb128 0x9
 7221 1cb4 E0040000 		.4byte	.LASF399
 7222 1cb8 23       		.byte	0x23
 7223 1cb9 9301     		.2byte	0x193
 7224 1cbb BF1C0000 		.4byte	0x1cbf
 7225 1cbf 1B       		.uleb128 0x1b
 7226 1cc0 E0040000 		.4byte	.LASF399
 7227 1cc4 38       		.byte	0x38
 7228 1cc5 23       		.byte	0x23
 7229 1cc6 9801     		.2byte	0x198
 7230 1cc8 5C1D0000 		.4byte	0x1d5c
 7231 1ccc 19       		.uleb128 0x19
 7232 1ccd 4E170000 		.4byte	.LASF366
 7233 1cd1 23       		.byte	0x23
 7234 1cd2 9C01     		.2byte	0x19c
 7235 1cd4 F41B0000 		.4byte	0x1bf4
 7236 1cd8 00       		.byte	0
 7237 1cd9 19       		.uleb128 0x19
 7238 1cda D41D0000 		.4byte	.LASF367
 7239 1cde 23       		.byte	0x23
 7240 1cdf A001     		.2byte	0x1a0
 7241 1ce1 5C1D0000 		.4byte	0x1d5c
 7242 1ce5 04       		.byte	0x4
 7243 1ce6 19       		.uleb128 0x19
 7244 1ce7 52010000 		.4byte	.LASF400
 7245 1ceb 23       		.byte	0x23
 7246 1cec A401     		.2byte	0x1a4
 7247 1cee 0B1C0000 		.4byte	0x1c0b
 7248 1cf2 08       		.byte	0x8
 7249 1cf3 19       		.uleb128 0x19
 7250 1cf4 C00E0000 		.4byte	.LASF401
 7251 1cf8 23       		.byte	0x23
 7252 1cf9 A901     		.2byte	0x1a9
 7253 1cfb 71150000 		.4byte	0x1571
 7254 1cff 0C       		.byte	0xc
 7255 1d00 19       		.uleb128 0x19
 7256 1d01 48070000 		.4byte	.LASF402
ARM GAS  /tmp/cccFXynL.s 			page 129


 7257 1d05 23       		.byte	0x23
 7258 1d06 B201     		.2byte	0x1b2
 7259 1d08 250B0000 		.4byte	0xb25
 7260 1d0c 1C       		.byte	0x1c
 7261 1d0d 19       		.uleb128 0x19
 7262 1d0e 41100000 		.4byte	.LASF403
 7263 1d12 23       		.byte	0x23
 7264 1d13 B601     		.2byte	0x1b6
 7265 1d15 FF1B0000 		.4byte	0x1bff
 7266 1d19 20       		.byte	0x20
 7267 1d1a 19       		.uleb128 0x19
 7268 1d1b AB080000 		.4byte	.LASF404
 7269 1d1f 23       		.byte	0x23
 7270 1d20 BA01     		.2byte	0x1ba
 7271 1d22 D2000000 		.4byte	0xd2
 7272 1d26 24       		.byte	0x24
 7273 1d27 19       		.uleb128 0x19
 7274 1d28 05090000 		.4byte	.LASF405
 7275 1d2c 23       		.byte	0x23
 7276 1d2d BE01     		.2byte	0x1be
 7277 1d2f D2000000 		.4byte	0xd2
 7278 1d33 28       		.byte	0x28
 7279 1d34 19       		.uleb128 0x19
 7280 1d35 15010000 		.4byte	.LASF406
 7281 1d39 23       		.byte	0x23
 7282 1d3a C201     		.2byte	0x1c2
 7283 1d3c 621D0000 		.4byte	0x1d62
 7284 1d40 2C       		.byte	0x2c
 7285 1d41 19       		.uleb128 0x19
 7286 1d42 2D020000 		.4byte	.LASF407
 7287 1d46 23       		.byte	0x23
 7288 1d47 C601     		.2byte	0x1c6
 7289 1d49 621D0000 		.4byte	0x1d62
 7290 1d4d 30       		.byte	0x30
 7291 1d4e 24       		.uleb128 0x24
 7292 1d4f 69326300 		.ascii	"i2c\000"
 7293 1d53 23       		.byte	0x23
 7294 1d54 CA01     		.2byte	0x1ca
 7295 1d56 681D0000 		.4byte	0x1d68
 7296 1d5a 34       		.byte	0x34
 7297 1d5b 00       		.byte	0
 7298 1d5c 07       		.uleb128 0x7
 7299 1d5d 04       		.byte	0x4
 7300 1d5e AE1C0000 		.4byte	0x1cae
 7301 1d62 07       		.uleb128 0x7
 7302 1d63 04       		.byte	0x4
 7303 1d64 11180000 		.4byte	0x1811
 7304 1d68 07       		.uleb128 0x7
 7305 1d69 04       		.byte	0x4
 7306 1d6a CA100000 		.4byte	0x10ca
 7307 1d6e 20       		.uleb128 0x20
 7308 1d6f 05130000 		.4byte	.LASF408
 7309 1d73 23       		.byte	0x23
 7310 1d74 E401     		.2byte	0x1e4
 7311 1d76 B31C0000 		.4byte	0x1cb3
 7312 1d7a 29       		.uleb128 0x29
 7313 1d7b 07       		.byte	0x7
ARM GAS  /tmp/cccFXynL.s 			page 130


 7314 1d7c 01       		.byte	0x1
 7315 1d7d 37000000 		.4byte	0x37
 7316 1d81 24       		.byte	0x24
 7317 1d82 31       		.byte	0x31
 7318 1d83 A61D0000 		.4byte	0x1da6
 7319 1d87 2A       		.uleb128 0x2a
 7320 1d88 91250000 		.4byte	.LASF409
 7321 1d8c 00       		.byte	0
 7322 1d8d 2A       		.uleb128 0x2a
 7323 1d8e DE1F0000 		.4byte	.LASF410
 7324 1d92 01       		.byte	0x1
 7325 1d93 2A       		.uleb128 0x2a
 7326 1d94 58050000 		.4byte	.LASF411
 7327 1d98 02       		.byte	0x2
 7328 1d99 2A       		.uleb128 0x2a
 7329 1d9a 3D150000 		.4byte	.LASF412
 7330 1d9e 03       		.byte	0x3
 7331 1d9f 2A       		.uleb128 0x2a
 7332 1da0 381E0000 		.4byte	.LASF413
 7333 1da4 04       		.byte	0x4
 7334 1da5 00       		.byte	0
 7335 1da6 03       		.uleb128 0x3
 7336 1da7 E7210000 		.4byte	.LASF414
 7337 1dab 24       		.byte	0x24
 7338 1dac 37       		.byte	0x37
 7339 1dad 7A1D0000 		.4byte	0x1d7a
 7340 1db1 03       		.uleb128 0x3
 7341 1db2 B01A0000 		.4byte	.LASF415
 7342 1db6 24       		.byte	0x24
 7343 1db7 3C       		.byte	0x3c
 7344 1db8 BC1D0000 		.4byte	0x1dbc
 7345 1dbc 1B       		.uleb128 0x1b
 7346 1dbd B01A0000 		.4byte	.LASF415
 7347 1dc1 18       		.byte	0x18
 7348 1dc2 25       		.byte	0x25
 7349 1dc3 3101     		.2byte	0x131
 7350 1dc5 181E0000 		.4byte	0x1e18
 7351 1dc9 19       		.uleb128 0x19
 7352 1dca 4E170000 		.4byte	.LASF366
 7353 1dce 25       		.byte	0x25
 7354 1dcf 3501     		.2byte	0x135
 7355 1dd1 A61D0000 		.4byte	0x1da6
 7356 1dd5 00       		.byte	0
 7357 1dd6 19       		.uleb128 0x19
 7358 1dd7 D41D0000 		.4byte	.LASF367
 7359 1ddb 25       		.byte	0x25
 7360 1ddc 3901     		.2byte	0x139
 7361 1dde 1D200000 		.4byte	0x201d
 7362 1de2 04       		.byte	0x4
 7363 1de3 19       		.uleb128 0x19
 7364 1de4 F70E0000 		.4byte	.LASF416
 7365 1de8 25       		.byte	0x25
 7366 1de9 4101     		.2byte	0x141
 7367 1deb D2000000 		.4byte	0xd2
 7368 1def 08       		.byte	0x8
 7369 1df0 24       		.uleb128 0x24
 7370 1df1 74696D00 		.ascii	"tim\000"
ARM GAS  /tmp/cccFXynL.s 			page 131


 7371 1df5 25       		.byte	0x25
 7372 1df6 4501     		.2byte	0x145
 7373 1df8 23200000 		.4byte	0x2023
 7374 1dfc 0C       		.byte	0xc
 7375 1dfd 19       		.uleb128 0x19
 7376 1dfe 781F0000 		.4byte	.LASF417
 7377 1e02 25       		.byte	0x25
 7378 1e03 4901     		.2byte	0x149
 7379 1e05 00180000 		.4byte	0x1800
 7380 1e09 10       		.byte	0x10
 7381 1e0a 19       		.uleb128 0x19
 7382 1e0b 85050000 		.4byte	.LASF418
 7383 1e0f 25       		.byte	0x25
 7384 1e10 4D01     		.2byte	0x14d
 7385 1e12 00180000 		.4byte	0x1800
 7386 1e16 14       		.byte	0x14
 7387 1e17 00       		.byte	0
 7388 1e18 03       		.uleb128 0x3
 7389 1e19 151C0000 		.4byte	.LASF419
 7390 1e1d 24       		.byte	0x24
 7391 1e1e 43       		.byte	0x43
 7392 1e1f 231E0000 		.4byte	0x1e23
 7393 1e23 07       		.uleb128 0x7
 7394 1e24 04       		.byte	0x4
 7395 1e25 291E0000 		.4byte	0x1e29
 7396 1e29 1F       		.uleb128 0x1f
 7397 1e2a 341E0000 		.4byte	0x1e34
 7398 1e2e 17       		.uleb128 0x17
 7399 1e2f 341E0000 		.4byte	0x1e34
 7400 1e33 00       		.byte	0
 7401 1e34 07       		.uleb128 0x7
 7402 1e35 04       		.byte	0x4
 7403 1e36 B11D0000 		.4byte	0x1db1
 7404 1e3a 1C       		.uleb128 0x1c
 7405 1e3b 60       		.byte	0x60
 7406 1e3c 26       		.byte	0x26
 7407 1e3d 9E01     		.2byte	0x19e
 7408 1e3f 461F0000 		.4byte	0x1f46
 7409 1e43 24       		.uleb128 0x24
 7410 1e44 43523100 		.ascii	"CR1\000"
 7411 1e48 26       		.byte	0x26
 7412 1e49 9F01     		.2byte	0x19f
 7413 1e4b DD000000 		.4byte	0xdd
 7414 1e4f 00       		.byte	0
 7415 1e50 24       		.uleb128 0x24
 7416 1e51 43523200 		.ascii	"CR2\000"
 7417 1e55 26       		.byte	0x26
 7418 1e56 A001     		.2byte	0x1a0
 7419 1e58 DD000000 		.4byte	0xdd
 7420 1e5c 04       		.byte	0x4
 7421 1e5d 19       		.uleb128 0x19
 7422 1e5e 06220000 		.4byte	.LASF420
 7423 1e62 26       		.byte	0x26
 7424 1e63 A101     		.2byte	0x1a1
 7425 1e65 DD000000 		.4byte	0xdd
 7426 1e69 08       		.byte	0x8
 7427 1e6a 19       		.uleb128 0x19
ARM GAS  /tmp/cccFXynL.s 			page 132


 7428 1e6b E20A0000 		.4byte	.LASF421
 7429 1e6f 26       		.byte	0x26
 7430 1e70 A201     		.2byte	0x1a2
 7431 1e72 DD000000 		.4byte	0xdd
 7432 1e76 0C       		.byte	0xc
 7433 1e77 24       		.uleb128 0x24
 7434 1e78 535200   		.ascii	"SR\000"
 7435 1e7b 26       		.byte	0x26
 7436 1e7c A301     		.2byte	0x1a3
 7437 1e7e DD000000 		.4byte	0xdd
 7438 1e82 10       		.byte	0x10
 7439 1e83 24       		.uleb128 0x24
 7440 1e84 45475200 		.ascii	"EGR\000"
 7441 1e88 26       		.byte	0x26
 7442 1e89 A401     		.2byte	0x1a4
 7443 1e8b DD000000 		.4byte	0xdd
 7444 1e8f 14       		.byte	0x14
 7445 1e90 19       		.uleb128 0x19
 7446 1e91 3C260000 		.4byte	.LASF422
 7447 1e95 26       		.byte	0x26
 7448 1e96 A501     		.2byte	0x1a5
 7449 1e98 DD000000 		.4byte	0xdd
 7450 1e9c 18       		.byte	0x18
 7451 1e9d 19       		.uleb128 0x19
 7452 1e9e 42260000 		.4byte	.LASF423
 7453 1ea2 26       		.byte	0x26
 7454 1ea3 A601     		.2byte	0x1a6
 7455 1ea5 DD000000 		.4byte	0xdd
 7456 1ea9 1C       		.byte	0x1c
 7457 1eaa 19       		.uleb128 0x19
 7458 1eab A6070000 		.4byte	.LASF424
 7459 1eaf 26       		.byte	0x26
 7460 1eb0 A701     		.2byte	0x1a7
 7461 1eb2 DD000000 		.4byte	0xdd
 7462 1eb6 20       		.byte	0x20
 7463 1eb7 24       		.uleb128 0x24
 7464 1eb8 434E5400 		.ascii	"CNT\000"
 7465 1ebc 26       		.byte	0x26
 7466 1ebd A801     		.2byte	0x1a8
 7467 1ebf DD000000 		.4byte	0xdd
 7468 1ec3 24       		.byte	0x24
 7469 1ec4 24       		.uleb128 0x24
 7470 1ec5 50534300 		.ascii	"PSC\000"
 7471 1ec9 26       		.byte	0x26
 7472 1eca A901     		.2byte	0x1a9
 7473 1ecc DD000000 		.4byte	0xdd
 7474 1ed0 28       		.byte	0x28
 7475 1ed1 24       		.uleb128 0x24
 7476 1ed2 41525200 		.ascii	"ARR\000"
 7477 1ed6 26       		.byte	0x26
 7478 1ed7 AA01     		.2byte	0x1aa
 7479 1ed9 DD000000 		.4byte	0xdd
 7480 1edd 2C       		.byte	0x2c
 7481 1ede 24       		.uleb128 0x24
 7482 1edf 52435200 		.ascii	"RCR\000"
 7483 1ee3 26       		.byte	0x26
 7484 1ee4 AB01     		.2byte	0x1ab
ARM GAS  /tmp/cccFXynL.s 			page 133


 7485 1ee6 DD000000 		.4byte	0xdd
 7486 1eea 30       		.byte	0x30
 7487 1eeb 24       		.uleb128 0x24
 7488 1eec 43435200 		.ascii	"CCR\000"
 7489 1ef0 26       		.byte	0x26
 7490 1ef1 AC01     		.2byte	0x1ac
 7491 1ef3 3A100000 		.4byte	0x103a
 7492 1ef7 34       		.byte	0x34
 7493 1ef8 19       		.uleb128 0x19
 7494 1ef9 EF010000 		.4byte	.LASF425
 7495 1efd 26       		.byte	0x26
 7496 1efe AD01     		.2byte	0x1ad
 7497 1f00 DD000000 		.4byte	0xdd
 7498 1f04 44       		.byte	0x44
 7499 1f05 24       		.uleb128 0x24
 7500 1f06 44435200 		.ascii	"DCR\000"
 7501 1f0a 26       		.byte	0x26
 7502 1f0b AE01     		.2byte	0x1ae
 7503 1f0d DD000000 		.4byte	0xdd
 7504 1f11 48       		.byte	0x48
 7505 1f12 19       		.uleb128 0x19
 7506 1f13 B4170000 		.4byte	.LASF426
 7507 1f17 26       		.byte	0x26
 7508 1f18 AF01     		.2byte	0x1af
 7509 1f1a DD000000 		.4byte	0xdd
 7510 1f1e 4C       		.byte	0x4c
 7511 1f1f 24       		.uleb128 0x24
 7512 1f20 4F5200   		.ascii	"OR\000"
 7513 1f23 26       		.byte	0x26
 7514 1f24 B001     		.2byte	0x1b0
 7515 1f26 DD000000 		.4byte	0xdd
 7516 1f2a 50       		.byte	0x50
 7517 1f2b 19       		.uleb128 0x19
 7518 1f2c 48260000 		.4byte	.LASF427
 7519 1f30 26       		.byte	0x26
 7520 1f31 B101     		.2byte	0x1b1
 7521 1f33 DD000000 		.4byte	0xdd
 7522 1f37 54       		.byte	0x54
 7523 1f38 19       		.uleb128 0x19
 7524 1f39 1A0F0000 		.4byte	.LASF428
 7525 1f3d 26       		.byte	0x26
 7526 1f3e B201     		.2byte	0x1b2
 7527 1f40 25100000 		.4byte	0x1025
 7528 1f44 58       		.byte	0x58
 7529 1f45 00       		.byte	0
 7530 1f46 09       		.uleb128 0x9
 7531 1f47 FD200000 		.4byte	.LASF429
 7532 1f4b 26       		.byte	0x26
 7533 1f4c B301     		.2byte	0x1b3
 7534 1f4e 3A1E0000 		.4byte	0x1e3a
 7535 1f52 29       		.uleb128 0x29
 7536 1f53 07       		.byte	0x7
 7537 1f54 01       		.byte	0x1
 7538 1f55 37000000 		.4byte	0x37
 7539 1f59 25       		.byte	0x25
 7540 1f5a EE       		.byte	0xee
 7541 1f5b 6C1F0000 		.4byte	0x1f6c
ARM GAS  /tmp/cccFXynL.s 			page 134


 7542 1f5f 2A       		.uleb128 0x2a
 7543 1f60 D4080000 		.4byte	.LASF430
 7544 1f64 00       		.byte	0
 7545 1f65 2A       		.uleb128 0x2a
 7546 1f66 731C0000 		.4byte	.LASF431
 7547 1f6a 01       		.byte	0x1
 7548 1f6b 00       		.byte	0
 7549 1f6c 03       		.uleb128 0x3
 7550 1f6d 67240000 		.4byte	.LASF432
 7551 1f71 25       		.byte	0x25
 7552 1f72 F1       		.byte	0xf1
 7553 1f73 521F0000 		.4byte	0x1f52
 7554 1f77 03       		.uleb128 0x3
 7555 1f78 A81C0000 		.4byte	.LASF433
 7556 1f7c 25       		.byte	0x25
 7557 1f7d F6       		.byte	0xf6
 7558 1f7e D2000000 		.4byte	0xd2
 7559 1f82 29       		.uleb128 0x29
 7560 1f83 07       		.byte	0x7
 7561 1f84 01       		.byte	0x1
 7562 1f85 37000000 		.4byte	0x37
 7563 1f89 25       		.byte	0x25
 7564 1f8a FB       		.byte	0xfb
 7565 1f8b 9C1F0000 		.4byte	0x1f9c
 7566 1f8f 2A       		.uleb128 0x2a
 7567 1f90 C01B0000 		.4byte	.LASF434
 7568 1f94 00       		.byte	0
 7569 1f95 2A       		.uleb128 0x2a
 7570 1f96 4D210000 		.4byte	.LASF435
 7571 1f9a 01       		.byte	0x1
 7572 1f9b 00       		.byte	0
 7573 1f9c 03       		.uleb128 0x3
 7574 1f9d 25060000 		.4byte	.LASF436
 7575 1fa1 25       		.byte	0x25
 7576 1fa2 FE       		.byte	0xfe
 7577 1fa3 821F0000 		.4byte	0x1f82
 7578 1fa7 1C       		.uleb128 0x1c
 7579 1fa8 1C       		.byte	0x1c
 7580 1fa9 25       		.byte	0x25
 7581 1faa 0901     		.2byte	0x109
 7582 1fac 0C200000 		.4byte	0x200c
 7583 1fb0 19       		.uleb128 0x19
 7584 1fb1 BF080000 		.4byte	.LASF437
 7585 1fb5 25       		.byte	0x25
 7586 1fb6 0D01     		.2byte	0x10d
 7587 1fb8 6C1F0000 		.4byte	0x1f6c
 7588 1fbc 00       		.byte	0
 7589 1fbd 19       		.uleb128 0x19
 7590 1fbe D0250000 		.4byte	.LASF438
 7591 1fc2 25       		.byte	0x25
 7592 1fc3 1301     		.2byte	0x113
 7593 1fc5 771F0000 		.4byte	0x1f77
 7594 1fc9 04       		.byte	0x4
 7595 1fca 19       		.uleb128 0x19
 7596 1fcb AE140000 		.4byte	.LASF439
 7597 1fcf 25       		.byte	0x25
 7598 1fd0 1701     		.2byte	0x117
ARM GAS  /tmp/cccFXynL.s 			page 135


 7599 1fd2 181E0000 		.4byte	0x1e18
 7600 1fd6 08       		.byte	0x8
 7601 1fd7 19       		.uleb128 0x19
 7602 1fd8 A2120000 		.4byte	.LASF440
 7603 1fdc 25       		.byte	0x25
 7604 1fdd 1B01     		.2byte	0x11b
 7605 1fdf 181E0000 		.4byte	0x1e18
 7606 1fe3 0C       		.byte	0xc
 7607 1fe4 19       		.uleb128 0x19
 7608 1fe5 760B0000 		.4byte	.LASF441
 7609 1fe9 25       		.byte	0x25
 7610 1fea 1F01     		.2byte	0x11f
 7611 1fec 181E0000 		.4byte	0x1e18
 7612 1ff0 10       		.byte	0x10
 7613 1ff1 19       		.uleb128 0x19
 7614 1ff2 2F130000 		.4byte	.LASF442
 7615 1ff6 25       		.byte	0x25
 7616 1ff7 2501     		.2byte	0x125
 7617 1ff9 9C1F0000 		.4byte	0x1f9c
 7618 1ffd 14       		.byte	0x14
 7619 1ffe 19       		.uleb128 0x19
 7620 1fff 580E0000 		.4byte	.LASF443
 7621 2003 25       		.byte	0x25
 7622 2004 2B01     		.2byte	0x12b
 7623 2006 D2000000 		.4byte	0xd2
 7624 200a 18       		.byte	0x18
 7625 200b 00       		.byte	0
 7626 200c 09       		.uleb128 0x9
 7627 200d BA1A0000 		.4byte	.LASF444
 7628 2011 25       		.byte	0x25
 7629 2012 2C01     		.2byte	0x12c
 7630 2014 A71F0000 		.4byte	0x1fa7
 7631 2018 05       		.uleb128 0x5
 7632 2019 0C200000 		.4byte	0x200c
 7633 201d 07       		.uleb128 0x7
 7634 201e 04       		.byte	0x4
 7635 201f 18200000 		.4byte	0x2018
 7636 2023 07       		.uleb128 0x7
 7637 2024 04       		.byte	0x4
 7638 2025 461F0000 		.4byte	0x1f46
 7639 2029 20       		.uleb128 0x20
 7640 202a 9D100000 		.4byte	.LASF445
 7641 202e 25       		.byte	0x25
 7642 202f 8A01     		.2byte	0x18a
 7643 2031 B11D0000 		.4byte	0x1db1
 7644 2035 20       		.uleb128 0x20
 7645 2036 AD100000 		.4byte	.LASF446
 7646 203a 25       		.byte	0x25
 7647 203b 9601     		.2byte	0x196
 7648 203d B11D0000 		.4byte	0x1db1
 7649 2041 29       		.uleb128 0x29
 7650 2042 07       		.byte	0x7
 7651 2043 01       		.byte	0x1
 7652 2044 37000000 		.4byte	0x37
 7653 2048 27       		.byte	0x27
 7654 2049 55       		.byte	0x55
 7655 204a 61200000 		.4byte	0x2061
ARM GAS  /tmp/cccFXynL.s 			page 136


 7656 204e 2A       		.uleb128 0x2a
 7657 204f A9060000 		.4byte	.LASF447
 7658 2053 00       		.byte	0
 7659 2054 2A       		.uleb128 0x2a
 7660 2055 4E0F0000 		.4byte	.LASF448
 7661 2059 01       		.byte	0x1
 7662 205a 2A       		.uleb128 0x2a
 7663 205b B6270000 		.4byte	.LASF449
 7664 205f 02       		.byte	0x2
 7665 2060 00       		.byte	0
 7666 2061 03       		.uleb128 0x3
 7667 2062 B0190000 		.4byte	.LASF450
 7668 2066 27       		.byte	0x27
 7669 2067 59       		.byte	0x59
 7670 2068 41200000 		.4byte	0x2041
 7671 206c 03       		.uleb128 0x3
 7672 206d 31230000 		.4byte	.LASF451
 7673 2071 27       		.byte	0x27
 7674 2072 5E       		.byte	0x5e
 7675 2073 77200000 		.4byte	0x2077
 7676 2077 13       		.uleb128 0x13
 7677 2078 31230000 		.4byte	.LASF451
 7678 207c 5801     		.2byte	0x158
 7679 207e 27       		.byte	0x27
 7680 207f 78       		.byte	0x78
 7681 2080 E4200000 		.4byte	0x20e4
 7682 2084 12       		.uleb128 0x12
 7683 2085 766D7400 		.ascii	"vmt\000"
 7684 2089 27       		.byte	0x27
 7685 208a 7A       		.byte	0x7a
 7686 208b 9E210000 		.4byte	0x219e
 7687 208f 00       		.byte	0
 7688 2090 0F       		.uleb128 0xf
 7689 2091 32000000 		.4byte	.LASF452
 7690 2095 27       		.byte	0x27
 7691 2096 7B       		.byte	0x7b
 7692 2097 F5150000 		.4byte	0x15f5
 7693 209b 04       		.byte	0x4
 7694 209c 0F       		.uleb128 0xf
 7695 209d 4E170000 		.4byte	.LASF366
 7696 20a1 27       		.byte	0x27
 7697 20a2 7B       		.byte	0x7b
 7698 20a3 61200000 		.4byte	0x2061
 7699 20a7 08       		.byte	0x8
 7700 20a8 0F       		.uleb128 0xf
 7701 20a9 77190000 		.4byte	.LASF453
 7702 20ad 27       		.byte	0x27
 7703 20ae 7B       		.byte	0x7b
 7704 20af A0160000 		.4byte	0x16a0
 7705 20b3 0C       		.byte	0xc
 7706 20b4 0F       		.uleb128 0xf
 7707 20b5 47130000 		.4byte	.LASF454
 7708 20b9 27       		.byte	0x27
 7709 20ba 7B       		.byte	0x7b
 7710 20bb AB160000 		.4byte	0x16ab
 7711 20bf 30       		.byte	0x30
 7712 20c0 12       		.uleb128 0x12
ARM GAS  /tmp/cccFXynL.s 			page 137


 7713 20c1 696200   		.ascii	"ib\000"
 7714 20c4 27       		.byte	0x27
 7715 20c5 7B       		.byte	0x7b
 7716 20c6 A4210000 		.4byte	0x21a4
 7717 20ca 54       		.byte	0x54
 7718 20cb 12       		.uleb128 0x12
 7719 20cc 6F6200   		.ascii	"ob\000"
 7720 20cf 27       		.byte	0x27
 7721 20d0 7B       		.byte	0x7b
 7722 20d1 A4210000 		.4byte	0x21a4
 7723 20d5 D4       		.byte	0xd4
 7724 20d6 14       		.uleb128 0x14
 7725 20d7 8C1B0000 		.4byte	.LASF455
 7726 20db 27       		.byte	0x27
 7727 20dc 7B       		.byte	0x7b
 7728 20dd B4210000 		.4byte	0x21b4
 7729 20e1 5401     		.2byte	0x154
 7730 20e3 00       		.byte	0
 7731 20e4 27       		.uleb128 0x27
 7732 20e5 53443100 		.ascii	"SD1\000"
 7733 20e9 28       		.byte	0x28
 7734 20ea 0F01     		.2byte	0x10f
 7735 20ec 6C200000 		.4byte	0x206c
 7736 20f0 27       		.uleb128 0x27
 7737 20f1 53443200 		.ascii	"SD2\000"
 7738 20f5 28       		.byte	0x28
 7739 20f6 1201     		.2byte	0x112
 7740 20f8 6C200000 		.4byte	0x206c
 7741 20fc 27       		.uleb128 0x27
 7742 20fd 53443300 		.ascii	"SD3\000"
 7743 2101 28       		.byte	0x28
 7744 2102 1501     		.2byte	0x115
 7745 2104 6C200000 		.4byte	0x206c
 7746 2108 27       		.uleb128 0x27
 7747 2109 53443400 		.ascii	"SD4\000"
 7748 210d 28       		.byte	0x28
 7749 210e 1801     		.2byte	0x118
 7750 2110 6C200000 		.4byte	0x206c
 7751 2114 27       		.uleb128 0x27
 7752 2115 53443500 		.ascii	"SD5\000"
 7753 2119 28       		.byte	0x28
 7754 211a 1B01     		.2byte	0x11b
 7755 211c 6C200000 		.4byte	0x206c
 7756 2120 27       		.uleb128 0x27
 7757 2121 53443600 		.ascii	"SD6\000"
 7758 2125 28       		.byte	0x28
 7759 2126 1E01     		.2byte	0x11e
 7760 2128 6C200000 		.4byte	0x206c
 7761 212c 11       		.uleb128 0x11
 7762 212d B3100000 		.4byte	.LASF456
 7763 2131 20       		.byte	0x20
 7764 2132 27       		.byte	0x27
 7765 2133 6D       		.byte	0x6d
 7766 2134 99210000 		.4byte	0x2199
 7767 2138 0F       		.uleb128 0xf
 7768 2139 66190000 		.4byte	.LASF457
 7769 213d 27       		.byte	0x27
ARM GAS  /tmp/cccFXynL.s 			page 138


 7770 213e 6E       		.byte	0x6e
 7771 213f D5160000 		.4byte	0x16d5
 7772 2143 00       		.byte	0
 7773 2144 0F       		.uleb128 0xf
 7774 2145 C8010000 		.4byte	.LASF458
 7775 2149 27       		.byte	0x27
 7776 214a 6E       		.byte	0x6e
 7777 214b F4160000 		.4byte	0x16f4
 7778 214f 04       		.byte	0x4
 7779 2150 12       		.uleb128 0x12
 7780 2151 70757400 		.ascii	"put\000"
 7781 2155 27       		.byte	0x27
 7782 2156 6E       		.byte	0x6e
 7783 2157 0E170000 		.4byte	0x170e
 7784 215b 08       		.byte	0x8
 7785 215c 12       		.uleb128 0x12
 7786 215d 67657400 		.ascii	"get\000"
 7787 2161 27       		.byte	0x27
 7788 2162 6E       		.byte	0x6e
 7789 2163 23170000 		.4byte	0x1723
 7790 2167 0C       		.byte	0xc
 7791 2168 0F       		.uleb128 0xf
 7792 2169 85150000 		.4byte	.LASF459
 7793 216d 27       		.byte	0x27
 7794 216e 6E       		.byte	0x6e
 7795 216f 50180000 		.4byte	0x1850
 7796 2173 10       		.byte	0x10
 7797 2174 0F       		.uleb128 0xf
 7798 2175 1E190000 		.4byte	.LASF460
 7799 2179 27       		.byte	0x27
 7800 217a 6E       		.byte	0x6e
 7801 217b 6A180000 		.4byte	0x186a
 7802 217f 14       		.byte	0x14
 7803 2180 0F       		.uleb128 0xf
 7804 2181 13240000 		.4byte	.LASF461
 7805 2185 27       		.byte	0x27
 7806 2186 6E       		.byte	0x6e
 7807 2187 8E180000 		.4byte	0x188e
 7808 218b 18       		.byte	0x18
 7809 218c 0F       		.uleb128 0xf
 7810 218d C1140000 		.4byte	.LASF462
 7811 2191 27       		.byte	0x27
 7812 2192 6E       		.byte	0x6e
 7813 2193 B2180000 		.4byte	0x18b2
 7814 2197 1C       		.byte	0x1c
 7815 2198 00       		.byte	0
 7816 2199 05       		.uleb128 0x5
 7817 219a 2C210000 		.4byte	0x212c
 7818 219e 07       		.uleb128 0x7
 7819 219f 04       		.byte	0x4
 7820 21a0 99210000 		.4byte	0x2199
 7821 21a4 0C       		.uleb128 0xc
 7822 21a5 A7000000 		.4byte	0xa7
 7823 21a9 B4210000 		.4byte	0x21b4
 7824 21ad 0D       		.uleb128 0xd
 7825 21ae 9B000000 		.4byte	0x9b
 7826 21b2 7F       		.byte	0x7f
ARM GAS  /tmp/cccFXynL.s 			page 139


 7827 21b3 00       		.byte	0
 7828 21b4 07       		.uleb128 0x7
 7829 21b5 04       		.byte	0x4
 7830 21b6 C2110000 		.4byte	0x11c2
 7831 21ba 29       		.uleb128 0x29
 7832 21bb 07       		.byte	0x7
 7833 21bc 01       		.byte	0x1
 7834 21bd 37000000 		.4byte	0x37
 7835 21c1 29       		.byte	0x29
 7836 21c2 46       		.byte	0x46
 7837 21c3 E6210000 		.4byte	0x21e6
 7838 21c7 2A       		.uleb128 0x2a
 7839 21c8 60070000 		.4byte	.LASF463
 7840 21cc 00       		.byte	0
 7841 21cd 2A       		.uleb128 0x2a
 7842 21ce 29030000 		.4byte	.LASF464
 7843 21d2 01       		.byte	0x1
 7844 21d3 2A       		.uleb128 0x2a
 7845 21d4 9E240000 		.4byte	.LASF465
 7846 21d8 02       		.byte	0x2
 7847 21d9 2A       		.uleb128 0x2a
 7848 21da EA120000 		.4byte	.LASF466
 7849 21de 03       		.byte	0x3
 7850 21df 2A       		.uleb128 0x2a
 7851 21e0 EA140000 		.4byte	.LASF467
 7852 21e4 04       		.byte	0x4
 7853 21e5 00       		.byte	0
 7854 21e6 03       		.uleb128 0x3
 7855 21e7 A9030000 		.4byte	.LASF468
 7856 21eb 29       		.byte	0x29
 7857 21ec 4C       		.byte	0x4c
 7858 21ed BA210000 		.4byte	0x21ba
 7859 21f1 09       		.uleb128 0x9
 7860 21f2 AF230000 		.4byte	.LASF469
 7861 21f6 2A       		.byte	0x2a
 7862 21f7 9601     		.2byte	0x196
 7863 21f9 FD210000 		.4byte	0x21fd
 7864 21fd 1B       		.uleb128 0x1b
 7865 21fe AF230000 		.4byte	.LASF469
 7866 2202 30       		.byte	0x30
 7867 2203 2A       		.byte	0x2a
 7868 2204 BA01     		.2byte	0x1ba
 7869 2206 80220000 		.4byte	0x2280
 7870 220a 19       		.uleb128 0x19
 7871 220b 4E170000 		.4byte	.LASF366
 7872 220f 2A       		.byte	0x2a
 7873 2210 BE01     		.2byte	0x1be
 7874 2212 E6210000 		.4byte	0x21e6
 7875 2216 00       		.byte	0
 7876 2217 19       		.uleb128 0x19
 7877 2218 D41D0000 		.4byte	.LASF367
 7878 221c 2A       		.byte	0x2a
 7879 221d C201     		.2byte	0x1c2
 7880 221f F2220000 		.4byte	0x22f2
 7881 2223 04       		.byte	0x4
 7882 2224 19       		.uleb128 0x19
 7883 2225 48070000 		.4byte	.LASF402
ARM GAS  /tmp/cccFXynL.s 			page 140


 7884 2229 2A       		.byte	0x2a
 7885 222a C701     		.2byte	0x1c7
 7886 222c 250B0000 		.4byte	0xb25
 7887 2230 08       		.byte	0x8
 7888 2231 19       		.uleb128 0x19
 7889 2232 C00E0000 		.4byte	.LASF401
 7890 2236 2A       		.byte	0x2a
 7891 2237 CD01     		.2byte	0x1cd
 7892 2239 71150000 		.4byte	0x1571
 7893 223d 0C       		.byte	0xc
 7894 223e 24       		.uleb128 0x24
 7895 223f 73706900 		.ascii	"spi\000"
 7896 2243 2A       		.byte	0x2a
 7897 2244 D601     		.2byte	0x1d6
 7898 2246 F8220000 		.4byte	0x22f8
 7899 224a 1C       		.byte	0x1c
 7900 224b 19       		.uleb128 0x19
 7901 224c 15010000 		.4byte	.LASF406
 7902 2250 2A       		.byte	0x2a
 7903 2251 DA01     		.2byte	0x1da
 7904 2253 621D0000 		.4byte	0x1d62
 7905 2257 20       		.byte	0x20
 7906 2258 19       		.uleb128 0x19
 7907 2259 2D020000 		.4byte	.LASF407
 7908 225d 2A       		.byte	0x2a
 7909 225e DE01     		.2byte	0x1de
 7910 2260 621D0000 		.4byte	0x1d62
 7911 2264 24       		.byte	0x24
 7912 2265 19       		.uleb128 0x19
 7913 2266 AB080000 		.4byte	.LASF404
 7914 226a 2A       		.byte	0x2a
 7915 226b E201     		.2byte	0x1e2
 7916 226d D2000000 		.4byte	0xd2
 7917 2271 28       		.byte	0x28
 7918 2272 19       		.uleb128 0x19
 7919 2273 05090000 		.4byte	.LASF405
 7920 2277 2A       		.byte	0x2a
 7921 2278 E601     		.2byte	0x1e6
 7922 227a D2000000 		.4byte	0xd2
 7923 227e 2C       		.byte	0x2c
 7924 227f 00       		.byte	0
 7925 2280 09       		.uleb128 0x9
 7926 2281 59010000 		.4byte	.LASF470
 7927 2285 2A       		.byte	0x2a
 7928 2286 9E01     		.2byte	0x19e
 7929 2288 8C220000 		.4byte	0x228c
 7930 228c 07       		.uleb128 0x7
 7931 228d 04       		.byte	0x4
 7932 228e 92220000 		.4byte	0x2292
 7933 2292 1F       		.uleb128 0x1f
 7934 2293 9D220000 		.4byte	0x229d
 7935 2297 17       		.uleb128 0x17
 7936 2298 9D220000 		.4byte	0x229d
 7937 229c 00       		.byte	0
 7938 229d 07       		.uleb128 0x7
 7939 229e 04       		.byte	0x4
 7940 229f F1210000 		.4byte	0x21f1
ARM GAS  /tmp/cccFXynL.s 			page 141


 7941 22a3 1C       		.uleb128 0x1c
 7942 22a4 0C       		.byte	0xc
 7943 22a5 2A       		.byte	0x2a
 7944 22a6 A301     		.2byte	0x1a3
 7945 22a8 E1220000 		.4byte	0x22e1
 7946 22ac 19       		.uleb128 0x19
 7947 22ad C2090000 		.4byte	.LASF471
 7948 22b1 2A       		.byte	0x2a
 7949 22b2 A701     		.2byte	0x1a7
 7950 22b4 80220000 		.4byte	0x2280
 7951 22b8 00       		.byte	0
 7952 22b9 19       		.uleb128 0x19
 7953 22ba 8A250000 		.4byte	.LASF472
 7954 22be 2A       		.byte	0x2a
 7955 22bf AC01     		.2byte	0x1ac
 7956 22c1 7E1A0000 		.4byte	0x1a7e
 7957 22c5 04       		.byte	0x4
 7958 22c6 19       		.uleb128 0x19
 7959 22c7 FF080000 		.4byte	.LASF473
 7960 22cb 2A       		.byte	0x2a
 7961 22cc B001     		.2byte	0x1b0
 7962 22ce B7000000 		.4byte	0xb7
 7963 22d2 08       		.byte	0x8
 7964 22d3 24       		.uleb128 0x24
 7965 22d4 63723100 		.ascii	"cr1\000"
 7966 22d8 2A       		.byte	0x2a
 7967 22d9 B401     		.2byte	0x1b4
 7968 22db B7000000 		.4byte	0xb7
 7969 22df 0A       		.byte	0xa
 7970 22e0 00       		.byte	0
 7971 22e1 09       		.uleb128 0x9
 7972 22e2 E9220000 		.4byte	.LASF474
 7973 22e6 2A       		.byte	0x2a
 7974 22e7 B501     		.2byte	0x1b5
 7975 22e9 A3220000 		.4byte	0x22a3
 7976 22ed 05       		.uleb128 0x5
 7977 22ee E1220000 		.4byte	0x22e1
 7978 22f2 07       		.uleb128 0x7
 7979 22f3 04       		.byte	0x4
 7980 22f4 ED220000 		.4byte	0x22ed
 7981 22f8 07       		.uleb128 0x7
 7982 22f9 04       		.byte	0x4
 7983 22fa 53110000 		.4byte	0x1153
 7984 22fe 20       		.uleb128 0x20
 7985 22ff 8A210000 		.4byte	.LASF475
 7986 2303 2A       		.byte	0x2a
 7987 2304 F201     		.2byte	0x1f2
 7988 2306 F1210000 		.4byte	0x21f1
 7989 230a 20       		.uleb128 0x20
 7990 230b 23190000 		.4byte	.LASF476
 7991 230f 2A       		.byte	0x2a
 7992 2310 FA01     		.2byte	0x1fa
 7993 2312 F1210000 		.4byte	0x21f1
 7994 2316 03       		.uleb128 0x3
 7995 2317 0B130000 		.4byte	.LASF477
 7996 231b 2B       		.byte	0x2b
 7997 231c FA       		.byte	0xfa
ARM GAS  /tmp/cccFXynL.s 			page 142


 7998 231d 21230000 		.4byte	0x2321
 7999 2321 18       		.uleb128 0x18
 8000 2322 0B130000 		.4byte	.LASF477
 8001 2326 8802     		.2byte	0x288
 8002 2328 2C       		.byte	0x2c
 8003 2329 7701     		.2byte	0x177
 8004 232b 4D240000 		.4byte	0x244d
 8005 232f 19       		.uleb128 0x19
 8006 2330 4E170000 		.4byte	.LASF366
 8007 2334 2C       		.byte	0x2c
 8008 2335 7B01     		.2byte	0x17b
 8009 2337 8B240000 		.4byte	0x248b
 8010 233b 00       		.byte	0
 8011 233c 19       		.uleb128 0x19
 8012 233d D41D0000 		.4byte	.LASF367
 8013 2341 2C       		.byte	0x2c
 8014 2342 7F01     		.2byte	0x17f
 8015 2344 AE2D0000 		.4byte	0x2dae
 8016 2348 04       		.byte	0x4
 8017 2349 19       		.uleb128 0x19
 8018 234a 12230000 		.4byte	.LASF478
 8019 234e 2C       		.byte	0x2c
 8020 234f 8301     		.2byte	0x183
 8021 2351 B7000000 		.4byte	0xb7
 8022 2355 08       		.byte	0x8
 8023 2356 19       		.uleb128 0x19
 8024 2357 AF250000 		.4byte	.LASF479
 8025 235b 2C       		.byte	0x2c
 8026 235c 8701     		.2byte	0x187
 8027 235e B7000000 		.4byte	0xb7
 8028 2362 0A       		.byte	0xa
 8029 2363 24       		.uleb128 0x24
 8030 2364 65706300 		.ascii	"epc\000"
 8031 2368 2C       		.byte	0x2c
 8032 2369 8B01     		.2byte	0x18b
 8033 236b B42D0000 		.4byte	0x2db4
 8034 236f 0C       		.byte	0xc
 8035 2370 19       		.uleb128 0x19
 8036 2371 7F020000 		.4byte	.LASF480
 8037 2375 2C       		.byte	0x2c
 8038 2376 9201     		.2byte	0x192
 8039 2378 CA2D0000 		.4byte	0x2dca
 8040 237c 1C       		.byte	0x1c
 8041 237d 19       		.uleb128 0x19
 8042 237e 350E0000 		.4byte	.LASF481
 8043 2382 2C       		.byte	0x2c
 8044 2383 9901     		.2byte	0x199
 8045 2385 CA2D0000 		.4byte	0x2dca
 8046 2389 28       		.byte	0x28
 8047 238a 19       		.uleb128 0x19
 8048 238b 6A110000 		.4byte	.LASF482
 8049 238f 2C       		.byte	0x2c
 8050 2390 9D01     		.2byte	0x19d
 8051 2392 D0240000 		.4byte	0x24d0
 8052 2396 34       		.byte	0x34
 8053 2397 19       		.uleb128 0x19
 8054 2398 251D0000 		.4byte	.LASF483
ARM GAS  /tmp/cccFXynL.s 			page 143


 8055 239c 2C       		.byte	0x2c
 8056 239d A101     		.2byte	0x1a1
 8057 239f 9A160000 		.4byte	0x169a
 8058 23a3 38       		.byte	0x38
 8059 23a4 19       		.uleb128 0x19
 8060 23a5 AE180000 		.4byte	.LASF484
 8061 23a9 2C       		.byte	0x2c
 8062 23aa A501     		.2byte	0x1a5
 8063 23ac F2000000 		.4byte	0xf2
 8064 23b0 3C       		.byte	0x3c
 8065 23b1 19       		.uleb128 0x19
 8066 23b2 02200000 		.4byte	.LASF485
 8067 23b6 2C       		.byte	0x2c
 8068 23b7 A901     		.2byte	0x1a9
 8069 23b9 50250000 		.4byte	0x2550
 8070 23bd 40       		.byte	0x40
 8071 23be 19       		.uleb128 0x19
 8072 23bf 5A070000 		.4byte	.LASF486
 8073 23c3 2C       		.byte	0x2c
 8074 23c4 AD01     		.2byte	0x1ad
 8075 23c6 37170000 		.4byte	0x1737
 8076 23ca 44       		.byte	0x44
 8077 23cb 19       		.uleb128 0x19
 8078 23cc C5160000 		.4byte	.LASF487
 8079 23d0 2C       		.byte	0x2c
 8080 23d1 B101     		.2byte	0x1b1
 8081 23d3 B7000000 		.4byte	0xb7
 8082 23d7 4C       		.byte	0x4c
 8083 23d8 19       		.uleb128 0x19
 8084 23d9 E4160000 		.4byte	.LASF488
 8085 23dd 2C       		.byte	0x2c
 8086 23de B501     		.2byte	0x1b5
 8087 23e0 A7000000 		.4byte	0xa7
 8088 23e4 4E       		.byte	0x4e
 8089 23e5 19       		.uleb128 0x19
 8090 23e6 321C0000 		.4byte	.LASF489
 8091 23ea 2C       		.byte	0x2c
 8092 23eb B901     		.2byte	0x1b9
 8093 23ed A7000000 		.4byte	0xa7
 8094 23f1 4F       		.byte	0x4f
 8095 23f2 24       		.uleb128 0x24
 8096 23f3 6F746700 		.ascii	"otg\000"
 8097 23f7 2C       		.byte	0x2c
 8098 23f8 C101     		.2byte	0x1c1
 8099 23fa DA2D0000 		.4byte	0x2dda
 8100 23fe 50       		.byte	0x50
 8101 23ff 19       		.uleb128 0x19
 8102 2400 EA0F0000 		.4byte	.LASF490
 8103 2404 2C       		.byte	0x2c
 8104 2405 C501     		.2byte	0x1c5
 8105 2407 E02D0000 		.4byte	0x2de0
 8106 240b 54       		.byte	0x54
 8107 240c 19       		.uleb128 0x19
 8108 240d 16210000 		.4byte	.LASF491
 8109 2411 2C       		.byte	0x2c
 8110 2412 C901     		.2byte	0x1c9
 8111 2414 D2000000 		.4byte	0xd2
ARM GAS  /tmp/cccFXynL.s 			page 144


 8112 2418 58       		.byte	0x58
 8113 2419 19       		.uleb128 0x19
 8114 241a ED0E0000 		.4byte	.LASF492
 8115 241e 2C       		.byte	0x2c
 8116 241f CD01     		.2byte	0x1cd
 8117 2421 D2000000 		.4byte	0xd2
 8118 2425 5C       		.byte	0x5c
 8119 2426 19       		.uleb128 0x19
 8120 2427 24080000 		.4byte	.LASF493
 8121 242b 2C       		.byte	0x2c
 8122 242c D101     		.2byte	0x1d1
 8123 242e 250B0000 		.4byte	0xb25
 8124 2432 60       		.byte	0x60
 8125 2433 24       		.uleb128 0x24
 8126 2434 747200   		.ascii	"tr\000"
 8127 2437 2C       		.byte	0x2c
 8128 2438 D601     		.2byte	0x1d6
 8129 243a 250B0000 		.4byte	0xb25
 8130 243e 64       		.byte	0x64
 8131 243f 19       		.uleb128 0x19
 8132 2440 DD150000 		.4byte	.LASF494
 8133 2444 2C       		.byte	0x2c
 8134 2445 DA01     		.2byte	0x1da
 8135 2447 E62D0000 		.4byte	0x2de6
 8136 244b 68       		.byte	0x68
 8137 244c 00       		.byte	0
 8138 244d 03       		.uleb128 0x3
 8139 244e 72010000 		.4byte	.LASF495
 8140 2452 2B       		.byte	0x2b
 8141 2453 FF       		.byte	0xff
 8142 2454 A7000000 		.4byte	0xa7
 8143 2458 2B       		.uleb128 0x2b
 8144 2459 07       		.byte	0x7
 8145 245a 01       		.byte	0x1
 8146 245b 37000000 		.4byte	0x37
 8147 245f 2B       		.byte	0x2b
 8148 2460 0401     		.2byte	0x104
 8149 2462 8B240000 		.4byte	0x248b
 8150 2466 2A       		.uleb128 0x2a
 8151 2467 65260000 		.4byte	.LASF496
 8152 246b 00       		.byte	0
 8153 246c 2A       		.uleb128 0x2a
 8154 246d 00000000 		.4byte	.LASF497
 8155 2471 01       		.byte	0x1
 8156 2472 2A       		.uleb128 0x2a
 8157 2473 B7140000 		.4byte	.LASF498
 8158 2477 02       		.byte	0x2
 8159 2478 2A       		.uleb128 0x2a
 8160 2479 561A0000 		.4byte	.LASF499
 8161 247d 03       		.byte	0x3
 8162 247e 2A       		.uleb128 0x2a
 8163 247f 3C080000 		.4byte	.LASF500
 8164 2483 04       		.byte	0x4
 8165 2484 2A       		.uleb128 0x2a
 8166 2485 81230000 		.4byte	.LASF501
 8167 2489 05       		.byte	0x5
 8168 248a 00       		.byte	0
ARM GAS  /tmp/cccFXynL.s 			page 145


 8169 248b 09       		.uleb128 0x9
 8170 248c 3E230000 		.4byte	.LASF502
 8171 2490 2B       		.byte	0x2b
 8172 2491 0B01     		.2byte	0x10b
 8173 2493 58240000 		.4byte	0x2458
 8174 2497 2B       		.uleb128 0x2b
 8175 2498 07       		.byte	0x7
 8176 2499 01       		.byte	0x1
 8177 249a 37000000 		.4byte	0x37
 8178 249e 2B       		.byte	0x2b
 8179 249f 1901     		.2byte	0x119
 8180 24a1 D0240000 		.4byte	0x24d0
 8181 24a5 2A       		.uleb128 0x2a
 8182 24a6 BB1F0000 		.4byte	.LASF503
 8183 24aa 00       		.byte	0
 8184 24ab 2A       		.uleb128 0x2a
 8185 24ac 5F110000 		.4byte	.LASF504
 8186 24b0 01       		.byte	0x1
 8187 24b1 2A       		.uleb128 0x2a
 8188 24b2 111D0000 		.4byte	.LASF505
 8189 24b6 02       		.byte	0x2
 8190 24b7 2A       		.uleb128 0x2a
 8191 24b8 8A170000 		.4byte	.LASF506
 8192 24bc 03       		.byte	0x3
 8193 24bd 2A       		.uleb128 0x2a
 8194 24be 83160000 		.4byte	.LASF507
 8195 24c2 04       		.byte	0x4
 8196 24c3 2A       		.uleb128 0x2a
 8197 24c4 70120000 		.4byte	.LASF508
 8198 24c8 05       		.byte	0x5
 8199 24c9 2A       		.uleb128 0x2a
 8200 24ca C3100000 		.4byte	.LASF509
 8201 24ce 06       		.byte	0x6
 8202 24cf 00       		.byte	0
 8203 24d0 09       		.uleb128 0x9
 8204 24d1 C8120000 		.4byte	.LASF510
 8205 24d5 2B       		.byte	0x2b
 8206 24d6 2101     		.2byte	0x121
 8207 24d8 97240000 		.4byte	0x2497
 8208 24dc 2B       		.uleb128 0x2b
 8209 24dd 07       		.byte	0x7
 8210 24de 01       		.byte	0x1
 8211 24df 37000000 		.4byte	0x37
 8212 24e3 2B       		.byte	0x2b
 8213 24e4 2601     		.2byte	0x126
 8214 24e6 0F250000 		.4byte	0x250f
 8215 24ea 2A       		.uleb128 0x2a
 8216 24eb 381F0000 		.4byte	.LASF511
 8217 24ef 00       		.byte	0
 8218 24f0 2A       		.uleb128 0x2a
 8219 24f1 CB1A0000 		.4byte	.LASF512
 8220 24f5 01       		.byte	0x1
 8221 24f6 2A       		.uleb128 0x2a
 8222 24f7 5D150000 		.4byte	.LASF513
 8223 24fb 02       		.byte	0x2
 8224 24fc 2A       		.uleb128 0x2a
 8225 24fd 12160000 		.4byte	.LASF514
ARM GAS  /tmp/cccFXynL.s 			page 146


 8226 2501 03       		.byte	0x3
 8227 2502 2A       		.uleb128 0x2a
 8228 2503 50250000 		.4byte	.LASF515
 8229 2507 04       		.byte	0x4
 8230 2508 2A       		.uleb128 0x2a
 8231 2509 FF140000 		.4byte	.LASF516
 8232 250d 05       		.byte	0x5
 8233 250e 00       		.byte	0
 8234 250f 09       		.uleb128 0x9
 8235 2510 111B0000 		.4byte	.LASF517
 8236 2514 2B       		.byte	0x2b
 8237 2515 2D01     		.2byte	0x12d
 8238 2517 DC240000 		.4byte	0x24dc
 8239 251b 1C       		.uleb128 0x1c
 8240 251c 08       		.byte	0x8
 8241 251d 2B       		.byte	0x2b
 8242 251e 3201     		.2byte	0x132
 8243 2520 3F250000 		.4byte	0x253f
 8244 2524 19       		.uleb128 0x19
 8245 2525 56270000 		.4byte	.LASF518
 8246 2529 2B       		.byte	0x2b
 8247 252a 3601     		.2byte	0x136
 8248 252c F2000000 		.4byte	0xf2
 8249 2530 00       		.byte	0
 8250 2531 19       		.uleb128 0x19
 8251 2532 D6040000 		.4byte	.LASF519
 8252 2536 2B       		.byte	0x2b
 8253 2537 3A01     		.2byte	0x13a
 8254 2539 CF160000 		.4byte	0x16cf
 8255 253d 04       		.byte	0x4
 8256 253e 00       		.byte	0
 8257 253f 09       		.uleb128 0x9
 8258 2540 CC160000 		.4byte	.LASF520
 8259 2544 2B       		.byte	0x2b
 8260 2545 3B01     		.2byte	0x13b
 8261 2547 1B250000 		.4byte	0x251b
 8262 254b 05       		.uleb128 0x5
 8263 254c 3F250000 		.4byte	0x253f
 8264 2550 09       		.uleb128 0x9
 8265 2551 E2260000 		.4byte	.LASF521
 8266 2555 2B       		.byte	0x2b
 8267 2556 4301     		.2byte	0x143
 8268 2558 5C250000 		.4byte	0x255c
 8269 255c 07       		.uleb128 0x7
 8270 255d 04       		.byte	0x4
 8271 255e 62250000 		.4byte	0x2562
 8272 2562 1F       		.uleb128 0x1f
 8273 2563 6D250000 		.4byte	0x256d
 8274 2567 17       		.uleb128 0x17
 8275 2568 6D250000 		.4byte	0x256d
 8276 256c 00       		.byte	0
 8277 256d 07       		.uleb128 0x7
 8278 256e 04       		.byte	0x4
 8279 256f 16230000 		.4byte	0x2316
 8280 2573 09       		.uleb128 0x9
 8281 2574 3B050000 		.4byte	.LASF522
 8282 2578 2B       		.byte	0x2b
ARM GAS  /tmp/cccFXynL.s 			page 147


 8283 2579 4C01     		.2byte	0x14c
 8284 257b 7F250000 		.4byte	0x257f
 8285 257f 07       		.uleb128 0x7
 8286 2580 04       		.byte	0x4
 8287 2581 85250000 		.4byte	0x2585
 8288 2585 1F       		.uleb128 0x1f
 8289 2586 95250000 		.4byte	0x2595
 8290 258a 17       		.uleb128 0x17
 8291 258b 6D250000 		.4byte	0x256d
 8292 258f 17       		.uleb128 0x17
 8293 2590 4D240000 		.4byte	0x244d
 8294 2594 00       		.byte	0
 8295 2595 09       		.uleb128 0x9
 8296 2596 D70B0000 		.4byte	.LASF523
 8297 259a 2B       		.byte	0x2b
 8298 259b 5501     		.2byte	0x155
 8299 259d A1250000 		.4byte	0x25a1
 8300 25a1 07       		.uleb128 0x7
 8301 25a2 04       		.byte	0x4
 8302 25a3 A7250000 		.4byte	0x25a7
 8303 25a7 1F       		.uleb128 0x1f
 8304 25a8 B7250000 		.4byte	0x25b7
 8305 25ac 17       		.uleb128 0x17
 8306 25ad 6D250000 		.4byte	0x256d
 8307 25b1 17       		.uleb128 0x17
 8308 25b2 0F250000 		.4byte	0x250f
 8309 25b6 00       		.byte	0
 8310 25b7 09       		.uleb128 0x9
 8311 25b8 0E1A0000 		.4byte	.LASF524
 8312 25bc 2B       		.byte	0x2b
 8313 25bd 6101     		.2byte	0x161
 8314 25bf C3250000 		.4byte	0x25c3
 8315 25c3 07       		.uleb128 0x7
 8316 25c4 04       		.byte	0x4
 8317 25c5 C9250000 		.4byte	0x25c9
 8318 25c9 16       		.uleb128 0x16
 8319 25ca 30170000 		.4byte	0x1730
 8320 25ce D8250000 		.4byte	0x25d8
 8321 25d2 17       		.uleb128 0x17
 8322 25d3 6D250000 		.4byte	0x256d
 8323 25d7 00       		.byte	0
 8324 25d8 09       		.uleb128 0x9
 8325 25d9 2B110000 		.4byte	.LASF525
 8326 25dd 2B       		.byte	0x2b
 8327 25de 6601     		.2byte	0x166
 8328 25e0 E4250000 		.4byte	0x25e4
 8329 25e4 07       		.uleb128 0x7
 8330 25e5 04       		.byte	0x4
 8331 25e6 EA250000 		.4byte	0x25ea
 8332 25ea 16       		.uleb128 0x16
 8333 25eb 08260000 		.4byte	0x2608
 8334 25ef 08260000 		.4byte	0x2608
 8335 25f3 17       		.uleb128 0x17
 8336 25f4 6D250000 		.4byte	0x256d
 8337 25f8 17       		.uleb128 0x17
 8338 25f9 A7000000 		.4byte	0xa7
 8339 25fd 17       		.uleb128 0x17
ARM GAS  /tmp/cccFXynL.s 			page 148


 8340 25fe A7000000 		.4byte	0xa7
 8341 2602 17       		.uleb128 0x17
 8342 2603 B7000000 		.4byte	0xb7
 8343 2607 00       		.byte	0
 8344 2608 07       		.uleb128 0x7
 8345 2609 04       		.byte	0x4
 8346 260a 4B250000 		.4byte	0x254b
 8347 260e 0E       		.uleb128 0xe
 8348 260f 20       		.byte	0x20
 8349 2610 2D       		.byte	0x2d
 8350 2611 35       		.byte	0x35
 8351 2612 77260000 		.4byte	0x2677
 8352 2616 0F       		.uleb128 0xf
 8353 2617 B4030000 		.4byte	.LASF526
 8354 261b 2D       		.byte	0x2d
 8355 261c 36       		.byte	0x36
 8356 261d DD000000 		.4byte	0xdd
 8357 2621 00       		.byte	0
 8358 2622 0F       		.uleb128 0xf
 8359 2623 610F0000 		.4byte	.LASF527
 8360 2627 2D       		.byte	0x2d
 8361 2628 38       		.byte	0x38
 8362 2629 DD000000 		.4byte	0xdd
 8363 262d 04       		.byte	0x4
 8364 262e 0F       		.uleb128 0xf
 8365 262f F3020000 		.4byte	.LASF528
 8366 2633 2D       		.byte	0x2d
 8367 2634 39       		.byte	0x39
 8368 2635 DD000000 		.4byte	0xdd
 8369 2639 08       		.byte	0x8
 8370 263a 0F       		.uleb128 0xf
 8371 263b C51D0000 		.4byte	.LASF529
 8372 263f 2D       		.byte	0x2d
 8373 2640 3A       		.byte	0x3a
 8374 2641 DD000000 		.4byte	0xdd
 8375 2645 0C       		.byte	0xc
 8376 2646 0F       		.uleb128 0xf
 8377 2647 49150000 		.4byte	.LASF530
 8378 264b 2D       		.byte	0x2d
 8379 264c 3C       		.byte	0x3c
 8380 264d DD000000 		.4byte	0xdd
 8381 2651 10       		.byte	0x10
 8382 2652 0F       		.uleb128 0xf
 8383 2653 970F0000 		.4byte	.LASF531
 8384 2657 2D       		.byte	0x2d
 8385 2658 3E       		.byte	0x3e
 8386 2659 DD000000 		.4byte	0xdd
 8387 265d 14       		.byte	0x14
 8388 265e 0F       		.uleb128 0xf
 8389 265f AA0F0000 		.4byte	.LASF532
 8390 2663 2D       		.byte	0x2d
 8391 2664 3F       		.byte	0x3f
 8392 2665 DD000000 		.4byte	0xdd
 8393 2669 18       		.byte	0x18
 8394 266a 0F       		.uleb128 0xf
 8395 266b 6B040000 		.4byte	.LASF533
 8396 266f 2D       		.byte	0x2d
ARM GAS  /tmp/cccFXynL.s 			page 149


 8397 2670 40       		.byte	0x40
 8398 2671 DD000000 		.4byte	0xdd
 8399 2675 1C       		.byte	0x1c
 8400 2676 00       		.byte	0
 8401 2677 03       		.uleb128 0x3
 8402 2678 511D0000 		.4byte	.LASF534
 8403 267c 2D       		.byte	0x2d
 8404 267d 41       		.byte	0x41
 8405 267e 0E260000 		.4byte	0x260e
 8406 2682 0E       		.uleb128 0xe
 8407 2683 20       		.byte	0x20
 8408 2684 2D       		.byte	0x2d
 8409 2685 46       		.byte	0x46
 8410 2686 EB260000 		.4byte	0x26eb
 8411 268a 0F       		.uleb128 0xf
 8412 268b D80F0000 		.4byte	.LASF535
 8413 268f 2D       		.byte	0x2d
 8414 2690 47       		.byte	0x47
 8415 2691 DD000000 		.4byte	0xdd
 8416 2695 00       		.byte	0
 8417 2696 0F       		.uleb128 0xf
 8418 2697 320F0000 		.4byte	.LASF536
 8419 269b 2D       		.byte	0x2d
 8420 269c 49       		.byte	0x49
 8421 269d DD000000 		.4byte	0xdd
 8422 26a1 04       		.byte	0x4
 8423 26a2 0F       		.uleb128 0xf
 8424 26a3 DF210000 		.4byte	.LASF537
 8425 26a7 2D       		.byte	0x2d
 8426 26a8 4A       		.byte	0x4a
 8427 26a9 DD000000 		.4byte	0xdd
 8428 26ad 08       		.byte	0x8
 8429 26ae 0F       		.uleb128 0xf
 8430 26af 28130000 		.4byte	.LASF538
 8431 26b3 2D       		.byte	0x2d
 8432 26b4 4C       		.byte	0x4c
 8433 26b5 DD000000 		.4byte	0xdd
 8434 26b9 0C       		.byte	0xc
 8435 26ba 0F       		.uleb128 0xf
 8436 26bb 3A180000 		.4byte	.LASF539
 8437 26bf 2D       		.byte	0x2d
 8438 26c0 4D       		.byte	0x4d
 8439 26c1 DD000000 		.4byte	0xdd
 8440 26c5 10       		.byte	0x10
 8441 26c6 0F       		.uleb128 0xf
 8442 26c7 970F0000 		.4byte	.LASF531
 8443 26cb 2D       		.byte	0x2d
 8444 26cc 4F       		.byte	0x4f
 8445 26cd DD000000 		.4byte	0xdd
 8446 26d1 14       		.byte	0x14
 8447 26d2 0F       		.uleb128 0xf
 8448 26d3 6B070000 		.4byte	.LASF540
 8449 26d7 2D       		.byte	0x2d
 8450 26d8 50       		.byte	0x50
 8451 26d9 DD000000 		.4byte	0xdd
 8452 26dd 18       		.byte	0x18
 8453 26de 0F       		.uleb128 0xf
ARM GAS  /tmp/cccFXynL.s 			page 150


 8454 26df C8210000 		.4byte	.LASF541
 8455 26e3 2D       		.byte	0x2d
 8456 26e4 52       		.byte	0x52
 8457 26e5 DD000000 		.4byte	0xdd
 8458 26e9 1C       		.byte	0x1c
 8459 26ea 00       		.byte	0
 8460 26eb 03       		.uleb128 0x3
 8461 26ec 93080000 		.4byte	.LASF542
 8462 26f0 2D       		.byte	0x2d
 8463 26f1 53       		.byte	0x53
 8464 26f2 82260000 		.4byte	0x2682
 8465 26f6 0E       		.uleb128 0xe
 8466 26f7 20       		.byte	0x20
 8467 26f8 2D       		.byte	0x2d
 8468 26f9 58       		.byte	0x58
 8469 26fa 5F270000 		.4byte	0x275f
 8470 26fe 0F       		.uleb128 0xf
 8471 26ff 40160000 		.4byte	.LASF543
 8472 2703 2D       		.byte	0x2d
 8473 2704 59       		.byte	0x59
 8474 2705 DD000000 		.4byte	0xdd
 8475 2709 00       		.byte	0
 8476 270a 0F       		.uleb128 0xf
 8477 270b 320F0000 		.4byte	.LASF536
 8478 270f 2D       		.byte	0x2d
 8479 2710 5B       		.byte	0x5b
 8480 2711 DD000000 		.4byte	0xdd
 8481 2715 04       		.byte	0x4
 8482 2716 0F       		.uleb128 0xf
 8483 2717 94190000 		.4byte	.LASF544
 8484 271b 2D       		.byte	0x2d
 8485 271c 5C       		.byte	0x5c
 8486 271d DD000000 		.4byte	0xdd
 8487 2721 08       		.byte	0x8
 8488 2722 0F       		.uleb128 0xf
 8489 2723 28130000 		.4byte	.LASF538
 8490 2727 2D       		.byte	0x2d
 8491 2728 5E       		.byte	0x5e
 8492 2729 DD000000 		.4byte	0xdd
 8493 272d 0C       		.byte	0xc
 8494 272e 0F       		.uleb128 0xf
 8495 272f 49230000 		.4byte	.LASF545
 8496 2733 2D       		.byte	0x2d
 8497 2734 5F       		.byte	0x5f
 8498 2735 DD000000 		.4byte	0xdd
 8499 2739 10       		.byte	0x10
 8500 273a 0F       		.uleb128 0xf
 8501 273b 970F0000 		.4byte	.LASF531
 8502 273f 2D       		.byte	0x2d
 8503 2740 61       		.byte	0x61
 8504 2741 DD000000 		.4byte	0xdd
 8505 2745 14       		.byte	0x14
 8506 2746 0F       		.uleb128 0xf
 8507 2747 AA0F0000 		.4byte	.LASF532
 8508 274b 2D       		.byte	0x2d
 8509 274c 62       		.byte	0x62
 8510 274d DD000000 		.4byte	0xdd
ARM GAS  /tmp/cccFXynL.s 			page 151


 8511 2751 18       		.byte	0x18
 8512 2752 0F       		.uleb128 0xf
 8513 2753 C8210000 		.4byte	.LASF541
 8514 2757 2D       		.byte	0x2d
 8515 2758 63       		.byte	0x63
 8516 2759 DD000000 		.4byte	0xdd
 8517 275d 1C       		.byte	0x1c
 8518 275e 00       		.byte	0
 8519 275f 03       		.uleb128 0x3
 8520 2760 6E180000 		.4byte	.LASF546
 8521 2764 2D       		.byte	0x2d
 8522 2765 64       		.byte	0x64
 8523 2766 F6260000 		.4byte	0x26f6
 8524 276a 2C       		.uleb128 0x2c
 8525 276b 00100100 		.4byte	0x11000
 8526 276f 2D       		.byte	0x2d
 8527 2770 69       		.byte	0x69
 8528 2771 472A0000 		.4byte	0x2a47
 8529 2775 0F       		.uleb128 0xf
 8530 2776 28050000 		.4byte	.LASF547
 8531 277a 2D       		.byte	0x2d
 8532 277b 6A       		.byte	0x6a
 8533 277c DD000000 		.4byte	0xdd
 8534 2780 00       		.byte	0
 8535 2781 0F       		.uleb128 0xf
 8536 2782 0F0E0000 		.4byte	.LASF548
 8537 2786 2D       		.byte	0x2d
 8538 2787 6B       		.byte	0x6b
 8539 2788 DD000000 		.4byte	0xdd
 8540 278c 04       		.byte	0x4
 8541 278d 0F       		.uleb128 0xf
 8542 278e B6070000 		.4byte	.LASF549
 8543 2792 2D       		.byte	0x2d
 8544 2793 6C       		.byte	0x6c
 8545 2794 DD000000 		.4byte	0xdd
 8546 2798 08       		.byte	0x8
 8547 2799 0F       		.uleb128 0xf
 8548 279a 0A270000 		.4byte	.LASF550
 8549 279e 2D       		.byte	0x2d
 8550 279f 6D       		.byte	0x6d
 8551 27a0 DD000000 		.4byte	0xdd
 8552 27a4 0C       		.byte	0xc
 8553 27a5 0F       		.uleb128 0xf
 8554 27a6 D0140000 		.4byte	.LASF551
 8555 27aa 2D       		.byte	0x2d
 8556 27ab 6E       		.byte	0x6e
 8557 27ac DD000000 		.4byte	0xdd
 8558 27b0 10       		.byte	0x10
 8559 27b1 0F       		.uleb128 0xf
 8560 27b2 14040000 		.4byte	.LASF552
 8561 27b6 2D       		.byte	0x2d
 8562 27b7 6F       		.byte	0x6f
 8563 27b8 DD000000 		.4byte	0xdd
 8564 27bc 14       		.byte	0x14
 8565 27bd 0F       		.uleb128 0xf
 8566 27be 0D1C0000 		.4byte	.LASF553
 8567 27c2 2D       		.byte	0x2d
ARM GAS  /tmp/cccFXynL.s 			page 152


 8568 27c3 70       		.byte	0x70
 8569 27c4 DD000000 		.4byte	0xdd
 8570 27c8 18       		.byte	0x18
 8571 27c9 0F       		.uleb128 0xf
 8572 27ca 17080000 		.4byte	.LASF554
 8573 27ce 2D       		.byte	0x2d
 8574 27cf 71       		.byte	0x71
 8575 27d0 DD000000 		.4byte	0xdd
 8576 27d4 1C       		.byte	0x1c
 8577 27d5 0F       		.uleb128 0xf
 8578 27d6 0F080000 		.4byte	.LASF555
 8579 27da 2D       		.byte	0x2d
 8580 27db 73       		.byte	0x73
 8581 27dc DD000000 		.4byte	0xdd
 8582 27e0 20       		.byte	0x20
 8583 27e1 0F       		.uleb128 0xf
 8584 27e2 751B0000 		.4byte	.LASF556
 8585 27e6 2D       		.byte	0x2d
 8586 27e7 75       		.byte	0x75
 8587 27e8 DD000000 		.4byte	0xdd
 8588 27ec 24       		.byte	0x24
 8589 27ed 0F       		.uleb128 0xf
 8590 27ee BF000000 		.4byte	.LASF557
 8591 27f2 2D       		.byte	0x2d
 8592 27f3 76       		.byte	0x76
 8593 27f4 DD000000 		.4byte	0xdd
 8594 27f8 28       		.byte	0x28
 8595 27f9 0F       		.uleb128 0xf
 8596 27fa 231C0000 		.4byte	.LASF558
 8597 27fe 2D       		.byte	0x2d
 8598 27ff 78       		.byte	0x78
 8599 2800 DD000000 		.4byte	0xdd
 8600 2804 2C       		.byte	0x2c
 8601 2805 0F       		.uleb128 0xf
 8602 2806 7F100000 		.4byte	.LASF559
 8603 280a 2D       		.byte	0x2d
 8604 280b 7A       		.byte	0x7a
 8605 280c DD000000 		.4byte	0xdd
 8606 2810 30       		.byte	0x30
 8607 2811 0F       		.uleb128 0xf
 8608 2812 82250000 		.4byte	.LASF560
 8609 2816 2D       		.byte	0x2d
 8610 2817 7B       		.byte	0x7b
 8611 2818 DD000000 		.4byte	0xdd
 8612 281c 34       		.byte	0x34
 8613 281d 0F       		.uleb128 0xf
 8614 281e DE010000 		.4byte	.LASF561
 8615 2822 2D       		.byte	0x2d
 8616 2823 7C       		.byte	0x7c
 8617 2824 DD000000 		.4byte	0xdd
 8618 2828 38       		.byte	0x38
 8619 2829 12       		.uleb128 0x12
 8620 282a 43494400 		.ascii	"CID\000"
 8621 282e 2D       		.byte	0x2d
 8622 282f 7D       		.byte	0x7d
 8623 2830 DD000000 		.4byte	0xdd
 8624 2834 3C       		.byte	0x3c
ARM GAS  /tmp/cccFXynL.s 			page 153


 8625 2835 0F       		.uleb128 0xf
 8626 2836 05120000 		.4byte	.LASF562
 8627 283a 2D       		.byte	0x2d
 8628 283b 7E       		.byte	0x7e
 8629 283c 572A0000 		.4byte	0x2a57
 8630 2840 40       		.byte	0x40
 8631 2841 14       		.uleb128 0x14
 8632 2842 31240000 		.4byte	.LASF563
 8633 2846 2D       		.byte	0x2d
 8634 2847 7F       		.byte	0x7f
 8635 2848 DD000000 		.4byte	0xdd
 8636 284c 0001     		.2byte	0x100
 8637 284e 14       		.uleb128 0x14
 8638 284f 6F020000 		.4byte	.LASF564
 8639 2853 2D       		.byte	0x2d
 8640 2854 81       		.byte	0x81
 8641 2855 DE110000 		.4byte	0x11de
 8642 2859 0401     		.2byte	0x104
 8643 285b 14       		.uleb128 0x14
 8644 285c F4150000 		.4byte	.LASF565
 8645 2860 2D       		.byte	0x2d
 8646 2861 83       		.byte	0x83
 8647 2862 6C2A0000 		.4byte	0x2a6c
 8648 2866 4001     		.2byte	0x140
 8649 2868 14       		.uleb128 0x14
 8650 2869 F7180000 		.4byte	.LASF566
 8651 286d 2D       		.byte	0x2d
 8652 286e 84       		.byte	0x84
 8653 286f DD000000 		.4byte	0xdd
 8654 2873 0004     		.2byte	0x400
 8655 2875 14       		.uleb128 0x14
 8656 2876 60260000 		.4byte	.LASF567
 8657 287a 2D       		.byte	0x2d
 8658 287b 85       		.byte	0x85
 8659 287c DD000000 		.4byte	0xdd
 8660 2880 0404     		.2byte	0x404
 8661 2882 14       		.uleb128 0x14
 8662 2883 9F040000 		.4byte	.LASF568
 8663 2887 2D       		.byte	0x2d
 8664 2888 86       		.byte	0x86
 8665 2889 DD000000 		.4byte	0xdd
 8666 288d 0804     		.2byte	0x408
 8667 288f 14       		.uleb128 0x14
 8668 2890 5D0E0000 		.4byte	.LASF569
 8669 2894 2D       		.byte	0x2d
 8670 2895 88       		.byte	0x88
 8671 2896 DD000000 		.4byte	0xdd
 8672 289a 0C04     		.2byte	0x40c
 8673 289c 14       		.uleb128 0x14
 8674 289d 84030000 		.4byte	.LASF570
 8675 28a1 2D       		.byte	0x2d
 8676 28a2 89       		.byte	0x89
 8677 28a3 DD000000 		.4byte	0xdd
 8678 28a7 1004     		.2byte	0x410
 8679 28a9 14       		.uleb128 0x14
 8680 28aa 87040000 		.4byte	.LASF571
 8681 28ae 2D       		.byte	0x2d
ARM GAS  /tmp/cccFXynL.s 			page 154


 8682 28af 8B       		.byte	0x8b
 8683 28b0 DD000000 		.4byte	0xdd
 8684 28b4 1404     		.2byte	0x414
 8685 28b6 14       		.uleb128 0x14
 8686 28b7 2C0E0000 		.4byte	.LASF572
 8687 28bb 2D       		.byte	0x2d
 8688 28bc 8D       		.byte	0x8d
 8689 28bd DD000000 		.4byte	0xdd
 8690 28c1 1804     		.2byte	0x418
 8691 28c3 14       		.uleb128 0x14
 8692 28c4 DF1E0000 		.4byte	.LASF573
 8693 28c8 2D       		.byte	0x2d
 8694 28c9 8F       		.byte	0x8f
 8695 28ca 812A0000 		.4byte	0x2a81
 8696 28ce 1C04     		.2byte	0x41c
 8697 28d0 14       		.uleb128 0x14
 8698 28d1 E0020000 		.4byte	.LASF574
 8699 28d5 2D       		.byte	0x2d
 8700 28d6 90       		.byte	0x90
 8701 28d7 DD000000 		.4byte	0xdd
 8702 28db 4004     		.2byte	0x440
 8703 28dd 14       		.uleb128 0x14
 8704 28de CE200000 		.4byte	.LASF575
 8705 28e2 2D       		.byte	0x2d
 8706 28e3 92       		.byte	0x92
 8707 28e4 962A0000 		.4byte	0x2a96
 8708 28e8 4404     		.2byte	0x444
 8709 28ea 2D       		.uleb128 0x2d
 8710 28eb 686300   		.ascii	"hc\000"
 8711 28ee 2D       		.byte	0x2d
 8712 28ef 93       		.byte	0x93
 8713 28f0 9B2A0000 		.4byte	0x2a9b
 8714 28f4 0005     		.2byte	0x500
 8715 28f6 14       		.uleb128 0x14
 8716 28f7 40010000 		.4byte	.LASF576
 8717 28fb 2D       		.byte	0x2d
 8718 28fc 94       		.byte	0x94
 8719 28fd BB2A0000 		.4byte	0x2abb
 8720 2901 0007     		.2byte	0x700
 8721 2903 14       		.uleb128 0x14
 8722 2904 2D200000 		.4byte	.LASF577
 8723 2908 2D       		.byte	0x2d
 8724 2909 95       		.byte	0x95
 8725 290a DD000000 		.4byte	0xdd
 8726 290e 0008     		.2byte	0x800
 8727 2910 14       		.uleb128 0x14
 8728 2911 2D250000 		.4byte	.LASF578
 8729 2915 2D       		.byte	0x2d
 8730 2916 96       		.byte	0x96
 8731 2917 DD000000 		.4byte	0xdd
 8732 291b 0408     		.2byte	0x804
 8733 291d 14       		.uleb128 0x14
 8734 291e E6130000 		.4byte	.LASF579
 8735 2922 2D       		.byte	0x2d
 8736 2923 97       		.byte	0x97
 8737 2924 DD000000 		.4byte	0xdd
 8738 2928 0808     		.2byte	0x808
ARM GAS  /tmp/cccFXynL.s 			page 155


 8739 292a 14       		.uleb128 0x14
 8740 292b 09050000 		.4byte	.LASF580
 8741 292f 2D       		.byte	0x2d
 8742 2930 98       		.byte	0x98
 8743 2931 DD000000 		.4byte	0xdd
 8744 2935 0C08     		.2byte	0x80c
 8745 2937 14       		.uleb128 0x14
 8746 2938 070E0000 		.4byte	.LASF581
 8747 293c 2D       		.byte	0x2d
 8748 293d 99       		.byte	0x99
 8749 293e DD000000 		.4byte	0xdd
 8750 2942 1008     		.2byte	0x810
 8751 2944 14       		.uleb128 0x14
 8752 2945 1A220000 		.4byte	.LASF582
 8753 2949 2D       		.byte	0x2d
 8754 294a 9B       		.byte	0x9b
 8755 294b DD000000 		.4byte	0xdd
 8756 294f 1408     		.2byte	0x814
 8757 2951 14       		.uleb128 0x14
 8758 2952 E3220000 		.4byte	.LASF583
 8759 2956 2D       		.byte	0x2d
 8760 2957 9D       		.byte	0x9d
 8761 2958 DD000000 		.4byte	0xdd
 8762 295c 1808     		.2byte	0x818
 8763 295e 14       		.uleb128 0x14
 8764 295f 9A1F0000 		.4byte	.LASF584
 8765 2963 2D       		.byte	0x2d
 8766 2964 9F       		.byte	0x9f
 8767 2965 DD000000 		.4byte	0xdd
 8768 2969 1C08     		.2byte	0x81c
 8769 296b 14       		.uleb128 0x14
 8770 296c 52060000 		.4byte	.LASF585
 8771 2970 2D       		.byte	0x2d
 8772 2971 A1       		.byte	0xa1
 8773 2972 DD000000 		.4byte	0xdd
 8774 2976 2008     		.2byte	0x820
 8775 2978 14       		.uleb128 0x14
 8776 2979 6D050000 		.4byte	.LASF586
 8777 297d 2D       		.byte	0x2d
 8778 297e A2       		.byte	0xa2
 8779 297f DD000000 		.4byte	0xdd
 8780 2983 2408     		.2byte	0x824
 8781 2985 14       		.uleb128 0x14
 8782 2986 49010000 		.4byte	.LASF587
 8783 298a 2D       		.byte	0x2d
 8784 298b A3       		.byte	0xa3
 8785 298c DD000000 		.4byte	0xdd
 8786 2990 2808     		.2byte	0x828
 8787 2992 14       		.uleb128 0x14
 8788 2993 4F070000 		.4byte	.LASF588
 8789 2997 2D       		.byte	0x2d
 8790 2998 A5       		.byte	0xa5
 8791 2999 DD000000 		.4byte	0xdd
 8792 299d 2C08     		.2byte	0x82c
 8793 299f 14       		.uleb128 0x14
 8794 29a0 E1060000 		.4byte	.LASF589
 8795 29a4 2D       		.byte	0x2d
ARM GAS  /tmp/cccFXynL.s 			page 156


 8796 29a5 A7       		.byte	0xa7
 8797 29a6 DD000000 		.4byte	0xdd
 8798 29aa 3008     		.2byte	0x830
 8799 29ac 14       		.uleb128 0x14
 8800 29ad CD0F0000 		.4byte	.LASF590
 8801 29b1 2D       		.byte	0x2d
 8802 29b2 A8       		.byte	0xa8
 8803 29b3 DD000000 		.4byte	0xdd
 8804 29b7 3408     		.2byte	0x834
 8805 29b9 14       		.uleb128 0x14
 8806 29ba 1B070000 		.4byte	.LASF591
 8807 29be 2D       		.byte	0x2d
 8808 29bf AA       		.byte	0xaa
 8809 29c0 DD000000 		.4byte	0xdd
 8810 29c4 3808     		.2byte	0x838
 8811 29c6 14       		.uleb128 0x14
 8812 29c7 3F070000 		.4byte	.LASF592
 8813 29cb 2D       		.byte	0x2d
 8814 29cc AB       		.byte	0xab
 8815 29cd DD000000 		.4byte	0xdd
 8816 29d1 3C08     		.2byte	0x83c
 8817 29d3 14       		.uleb128 0x14
 8818 29d4 CD070000 		.4byte	.LASF593
 8819 29d8 2D       		.byte	0x2d
 8820 29d9 AC       		.byte	0xac
 8821 29da D02A0000 		.4byte	0x2ad0
 8822 29de 4008     		.2byte	0x840
 8823 29e0 14       		.uleb128 0x14
 8824 29e1 7E0F0000 		.4byte	.LASF594
 8825 29e5 2D       		.byte	0x2d
 8826 29e6 AD       		.byte	0xad
 8827 29e7 D02A0000 		.4byte	0x2ad0
 8828 29eb 8008     		.2byte	0x880
 8829 29ed 14       		.uleb128 0x14
 8830 29ee 15130000 		.4byte	.LASF595
 8831 29f2 2D       		.byte	0x2d
 8832 29f3 AE       		.byte	0xae
 8833 29f4 D02A0000 		.4byte	0x2ad0
 8834 29f8 C008     		.2byte	0x8c0
 8835 29fa 2D       		.uleb128 0x2d
 8836 29fb 696500   		.ascii	"ie\000"
 8837 29fe 2D       		.byte	0x2d
 8838 29ff AF       		.byte	0xaf
 8839 2a00 D52A0000 		.4byte	0x2ad5
 8840 2a04 0009     		.2byte	0x900
 8841 2a06 2D       		.uleb128 0x2d
 8842 2a07 6F6500   		.ascii	"oe\000"
 8843 2a0a 2D       		.byte	0x2d
 8844 2a0b B0       		.byte	0xb0
 8845 2a0c E52A0000 		.4byte	0x2ae5
 8846 2a10 000B     		.2byte	0xb00
 8847 2a12 14       		.uleb128 0x14
 8848 2a13 5A0C0000 		.4byte	.LASF596
 8849 2a17 2D       		.byte	0x2d
 8850 2a18 B1       		.byte	0xb1
 8851 2a19 BB2A0000 		.4byte	0x2abb
 8852 2a1d 000D     		.2byte	0xd00
ARM GAS  /tmp/cccFXynL.s 			page 157


 8853 2a1f 14       		.uleb128 0x14
 8854 2a20 48250000 		.4byte	.LASF597
 8855 2a24 2D       		.byte	0x2d
 8856 2a25 B2       		.byte	0xb2
 8857 2a26 DD000000 		.4byte	0xdd
 8858 2a2a 000E     		.2byte	0xe00
 8859 2a2c 14       		.uleb128 0x14
 8860 2a2d E6100000 		.4byte	.LASF598
 8861 2a31 2D       		.byte	0x2d
 8862 2a32 B4       		.byte	0xb4
 8863 2a33 052B0000 		.4byte	0x2b05
 8864 2a37 040E     		.2byte	0xe04
 8865 2a39 14       		.uleb128 0x14
 8866 2a3a E6240000 		.4byte	.LASF599
 8867 2a3e 2D       		.byte	0x2d
 8868 2a3f B5       		.byte	0xb5
 8869 2a40 212B0000 		.4byte	0x2b21
 8870 2a44 0010     		.2byte	0x1000
 8871 2a46 00       		.byte	0
 8872 2a47 0C       		.uleb128 0xc
 8873 2a48 DD000000 		.4byte	0xdd
 8874 2a4c 572A0000 		.4byte	0x2a57
 8875 2a50 0D       		.uleb128 0xd
 8876 2a51 9B000000 		.4byte	0x9b
 8877 2a55 2F       		.byte	0x2f
 8878 2a56 00       		.byte	0
 8879 2a57 06       		.uleb128 0x6
 8880 2a58 472A0000 		.4byte	0x2a47
 8881 2a5c 0C       		.uleb128 0xc
 8882 2a5d DD000000 		.4byte	0xdd
 8883 2a61 6C2A0000 		.4byte	0x2a6c
 8884 2a65 0D       		.uleb128 0xd
 8885 2a66 9B000000 		.4byte	0x9b
 8886 2a6a AF       		.byte	0xaf
 8887 2a6b 00       		.byte	0
 8888 2a6c 06       		.uleb128 0x6
 8889 2a6d 5C2A0000 		.4byte	0x2a5c
 8890 2a71 0C       		.uleb128 0xc
 8891 2a72 DD000000 		.4byte	0xdd
 8892 2a76 812A0000 		.4byte	0x2a81
 8893 2a7a 0D       		.uleb128 0xd
 8894 2a7b 9B000000 		.4byte	0x9b
 8895 2a7f 08       		.byte	0x8
 8896 2a80 00       		.byte	0
 8897 2a81 06       		.uleb128 0x6
 8898 2a82 712A0000 		.4byte	0x2a71
 8899 2a86 0C       		.uleb128 0xc
 8900 2a87 DD000000 		.4byte	0xdd
 8901 2a8b 962A0000 		.4byte	0x2a96
 8902 2a8f 0D       		.uleb128 0xd
 8903 2a90 9B000000 		.4byte	0x9b
 8904 2a94 2E       		.byte	0x2e
 8905 2a95 00       		.byte	0
 8906 2a96 06       		.uleb128 0x6
 8907 2a97 862A0000 		.4byte	0x2a86
 8908 2a9b 0C       		.uleb128 0xc
 8909 2a9c 77260000 		.4byte	0x2677
ARM GAS  /tmp/cccFXynL.s 			page 158


 8910 2aa0 AB2A0000 		.4byte	0x2aab
 8911 2aa4 0D       		.uleb128 0xd
 8912 2aa5 9B000000 		.4byte	0x9b
 8913 2aa9 0F       		.byte	0xf
 8914 2aaa 00       		.byte	0
 8915 2aab 0C       		.uleb128 0xc
 8916 2aac DD000000 		.4byte	0xdd
 8917 2ab0 BB2A0000 		.4byte	0x2abb
 8918 2ab4 0D       		.uleb128 0xd
 8919 2ab5 9B000000 		.4byte	0x9b
 8920 2ab9 3F       		.byte	0x3f
 8921 2aba 00       		.byte	0
 8922 2abb 06       		.uleb128 0x6
 8923 2abc AB2A0000 		.4byte	0x2aab
 8924 2ac0 0C       		.uleb128 0xc
 8925 2ac1 DD000000 		.4byte	0xdd
 8926 2ac5 D02A0000 		.4byte	0x2ad0
 8927 2ac9 0D       		.uleb128 0xd
 8928 2aca 9B000000 		.4byte	0x9b
 8929 2ace 0F       		.byte	0xf
 8930 2acf 00       		.byte	0
 8931 2ad0 06       		.uleb128 0x6
 8932 2ad1 C02A0000 		.4byte	0x2ac0
 8933 2ad5 0C       		.uleb128 0xc
 8934 2ad6 EB260000 		.4byte	0x26eb
 8935 2ada E52A0000 		.4byte	0x2ae5
 8936 2ade 0D       		.uleb128 0xd
 8937 2adf 9B000000 		.4byte	0x9b
 8938 2ae3 0F       		.byte	0xf
 8939 2ae4 00       		.byte	0
 8940 2ae5 0C       		.uleb128 0xc
 8941 2ae6 5F270000 		.4byte	0x275f
 8942 2aea F52A0000 		.4byte	0x2af5
 8943 2aee 0D       		.uleb128 0xd
 8944 2aef 9B000000 		.4byte	0x9b
 8945 2af3 0F       		.byte	0xf
 8946 2af4 00       		.byte	0
 8947 2af5 0C       		.uleb128 0xc
 8948 2af6 DD000000 		.4byte	0xdd
 8949 2afa 052B0000 		.4byte	0x2b05
 8950 2afe 0D       		.uleb128 0xd
 8951 2aff 9B000000 		.4byte	0x9b
 8952 2b03 7E       		.byte	0x7e
 8953 2b04 00       		.byte	0
 8954 2b05 06       		.uleb128 0x6
 8955 2b06 F52A0000 		.4byte	0x2af5
 8956 2b0a 0C       		.uleb128 0xc
 8957 2b0b DD000000 		.4byte	0xdd
 8958 2b0f 212B0000 		.4byte	0x2b21
 8959 2b13 0D       		.uleb128 0xd
 8960 2b14 9B000000 		.4byte	0x9b
 8961 2b18 0F       		.byte	0xf
 8962 2b19 2E       		.uleb128 0x2e
 8963 2b1a 9B000000 		.4byte	0x9b
 8964 2b1e FF03     		.2byte	0x3ff
 8965 2b20 00       		.byte	0
 8966 2b21 06       		.uleb128 0x6
ARM GAS  /tmp/cccFXynL.s 			page 159


 8967 2b22 0A2B0000 		.4byte	0x2b0a
 8968 2b26 03       		.uleb128 0x3
 8969 2b27 37270000 		.4byte	.LASF600
 8970 2b2b 2D       		.byte	0x2d
 8971 2b2c B6       		.byte	0xb6
 8972 2b2d 6A270000 		.4byte	0x276a
 8973 2b31 0E       		.uleb128 0xe
 8974 2b32 0C       		.byte	0xc
 8975 2b33 2C       		.byte	0x2c
 8976 2b34 C6       		.byte	0xc6
 8977 2b35 5E2B0000 		.4byte	0x2b5e
 8978 2b39 0F       		.uleb128 0xf
 8979 2b3a 6B090000 		.4byte	.LASF601
 8980 2b3e 2C       		.byte	0x2c
 8981 2b3f C7       		.byte	0xc7
 8982 2b40 D2000000 		.4byte	0xd2
 8983 2b44 00       		.byte	0
 8984 2b45 0F       		.uleb128 0xf
 8985 2b46 140C0000 		.4byte	.LASF602
 8986 2b4a 2C       		.byte	0x2c
 8987 2b4b C8       		.byte	0xc8
 8988 2b4c D2000000 		.4byte	0xd2
 8989 2b50 04       		.byte	0x4
 8990 2b51 0F       		.uleb128 0xf
 8991 2b52 EF100000 		.4byte	.LASF603
 8992 2b56 2C       		.byte	0x2c
 8993 2b57 C9       		.byte	0xc9
 8994 2b58 D2000000 		.4byte	0xd2
 8995 2b5c 08       		.byte	0x8
 8996 2b5d 00       		.byte	0
 8997 2b5e 03       		.uleb128 0x3
 8998 2b5f 470C0000 		.4byte	.LASF604
 8999 2b63 2C       		.byte	0x2c
 9000 2b64 CA       		.byte	0xca
 9001 2b65 312B0000 		.4byte	0x2b31
 9002 2b69 05       		.uleb128 0x5
 9003 2b6a 5E2B0000 		.4byte	0x2b5e
 9004 2b6e 0E       		.uleb128 0xe
 9005 2b6f 04       		.byte	0x4
 9006 2b70 2C       		.byte	0x2c
 9007 2b71 DD       		.byte	0xdd
 9008 2b72 832B0000 		.4byte	0x2b83
 9009 2b76 0F       		.uleb128 0xf
 9010 2b77 42250000 		.4byte	.LASF605
 9011 2b7b 2C       		.byte	0x2c
 9012 2b7c E1       		.byte	0xe1
 9013 2b7d CF160000 		.4byte	0x16cf
 9014 2b81 00       		.byte	0
 9015 2b82 00       		.byte	0
 9016 2b83 0E       		.uleb128 0xe
 9017 2b84 04       		.byte	0x4
 9018 2b85 2C       		.byte	0x2c
 9019 2b86 E3       		.byte	0xe3
 9020 2b87 982B0000 		.4byte	0x2b98
 9021 2b8b 0F       		.uleb128 0xf
 9022 2b8c F7090000 		.4byte	.LASF368
 9023 2b90 2C       		.byte	0x2c
ARM GAS  /tmp/cccFXynL.s 			page 160


 9024 2b91 E7       		.byte	0xe7
 9025 2b92 982B0000 		.4byte	0x2b98
 9026 2b96 00       		.byte	0
 9027 2b97 00       		.byte	0
 9028 2b98 07       		.uleb128 0x7
 9029 2b99 04       		.byte	0x4
 9030 2b9a AB160000 		.4byte	0x16ab
 9031 2b9e 0A       		.uleb128 0xa
 9032 2b9f 04       		.byte	0x4
 9033 2ba0 2C       		.byte	0x2c
 9034 2ba1 DC       		.byte	0xdc
 9035 2ba2 BD2B0000 		.4byte	0x2bbd
 9036 2ba6 0B       		.uleb128 0xb
 9037 2ba7 F6200000 		.4byte	.LASF606
 9038 2bab 2C       		.byte	0x2c
 9039 2bac E2       		.byte	0xe2
 9040 2bad 6E2B0000 		.4byte	0x2b6e
 9041 2bb1 0B       		.uleb128 0xb
 9042 2bb2 FC1F0000 		.4byte	.LASF607
 9043 2bb6 2C       		.byte	0x2c
 9044 2bb7 E8       		.byte	0xe8
 9045 2bb8 832B0000 		.4byte	0x2b83
 9046 2bbc 00       		.byte	0
 9047 2bbd 0E       		.uleb128 0xe
 9048 2bbe 14       		.byte	0x14
 9049 2bbf 2C       		.byte	0x2c
 9050 2bc0 CF       		.byte	0xcf
 9051 2bc1 022C0000 		.4byte	0x2c02
 9052 2bc5 0F       		.uleb128 0xf
 9053 2bc6 F3070000 		.4byte	.LASF608
 9054 2bca 2C       		.byte	0x2c
 9055 2bcb D3       		.byte	0xd3
 9056 2bcc 30170000 		.4byte	0x1730
 9057 2bd0 00       		.byte	0
 9058 2bd1 0F       		.uleb128 0xf
 9059 2bd2 40140000 		.4byte	.LASF609
 9060 2bd6 2C       		.byte	0x2c
 9061 2bd7 D7       		.byte	0xd7
 9062 2bd8 F2000000 		.4byte	0xf2
 9063 2bdc 04       		.byte	0x4
 9064 2bdd 0F       		.uleb128 0xf
 9065 2bde 71240000 		.4byte	.LASF610
 9066 2be2 2C       		.byte	0x2c
 9067 2be3 DB       		.byte	0xdb
 9068 2be4 F2000000 		.4byte	0xf2
 9069 2be8 08       		.byte	0x8
 9070 2be9 0F       		.uleb128 0xf
 9071 2bea BF080000 		.4byte	.LASF437
 9072 2bee 2C       		.byte	0x2c
 9073 2bef E9       		.byte	0xe9
 9074 2bf0 9E2B0000 		.4byte	0x2b9e
 9075 2bf4 0C       		.byte	0xc
 9076 2bf5 0F       		.uleb128 0xf
 9077 2bf6 0C110000 		.4byte	.LASF611
 9078 2bfa 2C       		.byte	0x2c
 9079 2bfb ED       		.byte	0xed
 9080 2bfc F2000000 		.4byte	0xf2
ARM GAS  /tmp/cccFXynL.s 			page 161


 9081 2c00 10       		.byte	0x10
 9082 2c01 00       		.byte	0
 9083 2c02 03       		.uleb128 0x3
 9084 2c03 16120000 		.4byte	.LASF612
 9085 2c07 2C       		.byte	0x2c
 9086 2c08 EE       		.byte	0xee
 9087 2c09 BD2B0000 		.4byte	0x2bbd
 9088 2c0d 1C       		.uleb128 0x1c
 9089 2c0e 04       		.byte	0x4
 9090 2c0f 2C       		.byte	0x2c
 9091 2c10 0101     		.2byte	0x101
 9092 2c12 242C0000 		.4byte	0x2c24
 9093 2c16 19       		.uleb128 0x19
 9094 2c17 6A0C0000 		.4byte	.LASF613
 9095 2c1b 2C       		.byte	0x2c
 9096 2c1c 0501     		.2byte	0x105
 9097 2c1e 9A160000 		.4byte	0x169a
 9098 2c22 00       		.byte	0
 9099 2c23 00       		.byte	0
 9100 2c24 1C       		.uleb128 0x1c
 9101 2c25 04       		.byte	0x4
 9102 2c26 2C       		.byte	0x2c
 9103 2c27 0701     		.2byte	0x107
 9104 2c29 3B2C0000 		.4byte	0x2c3b
 9105 2c2d 19       		.uleb128 0x19
 9106 2c2e C6200000 		.4byte	.LASF369
 9107 2c32 2C       		.byte	0x2c
 9108 2c33 0B01     		.2byte	0x10b
 9109 2c35 3B2C0000 		.4byte	0x2c3b
 9110 2c39 00       		.byte	0
 9111 2c3a 00       		.byte	0
 9112 2c3b 07       		.uleb128 0x7
 9113 2c3c 04       		.byte	0x4
 9114 2c3d A0160000 		.4byte	0x16a0
 9115 2c41 1D       		.uleb128 0x1d
 9116 2c42 04       		.byte	0x4
 9117 2c43 2C       		.byte	0x2c
 9118 2c44 0001     		.2byte	0x100
 9119 2c46 632C0000 		.4byte	0x2c63
 9120 2c4a 1E       		.uleb128 0x1e
 9121 2c4b F6200000 		.4byte	.LASF606
 9122 2c4f 2C       		.byte	0x2c
 9123 2c50 0601     		.2byte	0x106
 9124 2c52 0D2C0000 		.4byte	0x2c0d
 9125 2c56 1E       		.uleb128 0x1e
 9126 2c57 FC1F0000 		.4byte	.LASF607
 9127 2c5b 2C       		.byte	0x2c
 9128 2c5c 0C01     		.2byte	0x10c
 9129 2c5e 242C0000 		.4byte	0x2c24
 9130 2c62 00       		.byte	0
 9131 2c63 0E       		.uleb128 0xe
 9132 2c64 14       		.byte	0x14
 9133 2c65 2C       		.byte	0x2c
 9134 2c66 F3       		.byte	0xf3
 9135 2c67 AA2C0000 		.4byte	0x2caa
 9136 2c6b 0F       		.uleb128 0xf
 9137 2c6c 0E060000 		.4byte	.LASF614
ARM GAS  /tmp/cccFXynL.s 			page 162


 9138 2c70 2C       		.byte	0x2c
 9139 2c71 F7       		.byte	0xf7
 9140 2c72 30170000 		.4byte	0x1730
 9141 2c76 00       		.byte	0
 9142 2c77 0F       		.uleb128 0xf
 9143 2c78 36150000 		.4byte	.LASF615
 9144 2c7c 2C       		.byte	0x2c
 9145 2c7d FB       		.byte	0xfb
 9146 2c7e F2000000 		.4byte	0xf2
 9147 2c82 04       		.byte	0x4
 9148 2c83 0F       		.uleb128 0xf
 9149 2c84 A5080000 		.4byte	.LASF616
 9150 2c88 2C       		.byte	0x2c
 9151 2c89 FF       		.byte	0xff
 9152 2c8a F2000000 		.4byte	0xf2
 9153 2c8e 08       		.byte	0x8
 9154 2c8f 19       		.uleb128 0x19
 9155 2c90 BF080000 		.4byte	.LASF437
 9156 2c94 2C       		.byte	0x2c
 9157 2c95 0D01     		.2byte	0x10d
 9158 2c97 412C0000 		.4byte	0x2c41
 9159 2c9b 0C       		.byte	0xc
 9160 2c9c 19       		.uleb128 0x19
 9161 2c9d 0C110000 		.4byte	.LASF611
 9162 2ca1 2C       		.byte	0x2c
 9163 2ca2 1101     		.2byte	0x111
 9164 2ca4 F2000000 		.4byte	0xf2
 9165 2ca8 10       		.byte	0x10
 9166 2ca9 00       		.byte	0
 9167 2caa 09       		.uleb128 0x9
 9168 2cab CB1E0000 		.4byte	.LASF617
 9169 2caf 2C       		.byte	0x2c
 9170 2cb0 1201     		.2byte	0x112
 9171 2cb2 632C0000 		.4byte	0x2c63
 9172 2cb6 1C       		.uleb128 0x1c
 9173 2cb7 24       		.byte	0x24
 9174 2cb8 2C       		.byte	0x2c
 9175 2cb9 1801     		.2byte	0x118
 9176 2cbb 422D0000 		.4byte	0x2d42
 9177 2cbf 19       		.uleb128 0x19
 9178 2cc0 66180000 		.4byte	.LASF618
 9179 2cc4 2C       		.byte	0x2c
 9180 2cc5 1C01     		.2byte	0x11c
 9181 2cc7 D2000000 		.4byte	0xd2
 9182 2ccb 00       		.byte	0
 9183 2ccc 19       		.uleb128 0x19
 9184 2ccd C9090000 		.4byte	.LASF619
 9185 2cd1 2C       		.byte	0x2c
 9186 2cd2 2701     		.2byte	0x127
 9187 2cd4 73250000 		.4byte	0x2573
 9188 2cd8 04       		.byte	0x4
 9189 2cd9 19       		.uleb128 0x19
 9190 2cda 7E190000 		.4byte	.LASF620
 9191 2cde 2C       		.byte	0x2c
 9192 2cdf 2D01     		.2byte	0x12d
 9193 2ce1 73250000 		.4byte	0x2573
 9194 2ce5 08       		.byte	0x8
ARM GAS  /tmp/cccFXynL.s 			page 163


 9195 2ce6 19       		.uleb128 0x19
 9196 2ce7 250E0000 		.4byte	.LASF621
 9197 2ceb 2C       		.byte	0x2c
 9198 2cec 3301     		.2byte	0x133
 9199 2cee 73250000 		.4byte	0x2573
 9200 2cf2 0C       		.byte	0xc
 9201 2cf3 19       		.uleb128 0x19
 9202 2cf4 66270000 		.4byte	.LASF622
 9203 2cf8 2C       		.byte	0x2c
 9204 2cf9 3901     		.2byte	0x139
 9205 2cfb B7000000 		.4byte	0xb7
 9206 2cff 10       		.byte	0x10
 9207 2d00 19       		.uleb128 0x19
 9208 2d01 90110000 		.4byte	.LASF623
 9209 2d05 2C       		.byte	0x2c
 9210 2d06 3F01     		.2byte	0x13f
 9211 2d08 B7000000 		.4byte	0xb7
 9212 2d0c 12       		.byte	0x12
 9213 2d0d 19       		.uleb128 0x19
 9214 2d0e E8250000 		.4byte	.LASF624
 9215 2d12 2C       		.byte	0x2c
 9216 2d13 4401     		.2byte	0x144
 9217 2d15 422D0000 		.4byte	0x2d42
 9218 2d19 14       		.byte	0x14
 9219 2d1a 19       		.uleb128 0x19
 9220 2d1b 0C100000 		.4byte	.LASF625
 9221 2d1f 2C       		.byte	0x2c
 9222 2d20 4901     		.2byte	0x149
 9223 2d22 482D0000 		.4byte	0x2d48
 9224 2d26 18       		.byte	0x18
 9225 2d27 19       		.uleb128 0x19
 9226 2d28 8C130000 		.4byte	.LASF626
 9227 2d2c 2C       		.byte	0x2c
 9228 2d2d 5001     		.2byte	0x150
 9229 2d2f B7000000 		.4byte	0xb7
 9230 2d33 1C       		.byte	0x1c
 9231 2d34 19       		.uleb128 0x19
 9232 2d35 78250000 		.4byte	.LASF627
 9233 2d39 2C       		.byte	0x2c
 9234 2d3a 5601     		.2byte	0x156
 9235 2d3c 9A160000 		.4byte	0x169a
 9236 2d40 20       		.byte	0x20
 9237 2d41 00       		.byte	0
 9238 2d42 07       		.uleb128 0x7
 9239 2d43 04       		.byte	0x4
 9240 2d44 022C0000 		.4byte	0x2c02
 9241 2d48 07       		.uleb128 0x7
 9242 2d49 04       		.byte	0x4
 9243 2d4a AA2C0000 		.4byte	0x2caa
 9244 2d4e 09       		.uleb128 0x9
 9245 2d4f B4200000 		.4byte	.LASF628
 9246 2d53 2C       		.byte	0x2c
 9247 2d54 5701     		.2byte	0x157
 9248 2d56 B62C0000 		.4byte	0x2cb6
 9249 2d5a 05       		.uleb128 0x5
 9250 2d5b 4E2D0000 		.4byte	0x2d4e
 9251 2d5f 1C       		.uleb128 0x1c
ARM GAS  /tmp/cccFXynL.s 			page 164


 9252 2d60 10       		.byte	0x10
 9253 2d61 2C       		.byte	0x2c
 9254 2d62 5C01     		.2byte	0x15c
 9255 2d64 9D2D0000 		.4byte	0x2d9d
 9256 2d68 19       		.uleb128 0x19
 9257 2d69 12050000 		.4byte	.LASF629
 9258 2d6d 2C       		.byte	0x2c
 9259 2d6e 6101     		.2byte	0x161
 9260 2d70 95250000 		.4byte	0x2595
 9261 2d74 00       		.byte	0
 9262 2d75 19       		.uleb128 0x19
 9263 2d76 77240000 		.4byte	.LASF630
 9264 2d7a 2C       		.byte	0x2c
 9265 2d7b 6601     		.2byte	0x166
 9266 2d7d D8250000 		.4byte	0x25d8
 9267 2d81 04       		.byte	0x4
 9268 2d82 19       		.uleb128 0x19
 9269 2d83 0D140000 		.4byte	.LASF631
 9270 2d87 2C       		.byte	0x2c
 9271 2d88 6C01     		.2byte	0x16c
 9272 2d8a B7250000 		.4byte	0x25b7
 9273 2d8e 08       		.byte	0x8
 9274 2d8f 19       		.uleb128 0x19
 9275 2d90 39020000 		.4byte	.LASF632
 9276 2d94 2C       		.byte	0x2c
 9277 2d95 7001     		.2byte	0x170
 9278 2d97 50250000 		.4byte	0x2550
 9279 2d9b 0C       		.byte	0xc
 9280 2d9c 00       		.byte	0
 9281 2d9d 09       		.uleb128 0x9
 9282 2d9e 1E130000 		.4byte	.LASF633
 9283 2da2 2C       		.byte	0x2c
 9284 2da3 7201     		.2byte	0x172
 9285 2da5 5F2D0000 		.4byte	0x2d5f
 9286 2da9 05       		.uleb128 0x5
 9287 2daa 9D2D0000 		.4byte	0x2d9d
 9288 2dae 07       		.uleb128 0x7
 9289 2daf 04       		.byte	0x4
 9290 2db0 A92D0000 		.4byte	0x2da9
 9291 2db4 0C       		.uleb128 0xc
 9292 2db5 C42D0000 		.4byte	0x2dc4
 9293 2db9 C42D0000 		.4byte	0x2dc4
 9294 2dbd 0D       		.uleb128 0xd
 9295 2dbe 9B000000 		.4byte	0x9b
 9296 2dc2 03       		.byte	0x3
 9297 2dc3 00       		.byte	0
 9298 2dc4 07       		.uleb128 0x7
 9299 2dc5 04       		.byte	0x4
 9300 2dc6 5A2D0000 		.4byte	0x2d5a
 9301 2dca 0C       		.uleb128 0xc
 9302 2dcb AB010000 		.4byte	0x1ab
 9303 2dcf DA2D0000 		.4byte	0x2dda
 9304 2dd3 0D       		.uleb128 0xd
 9305 2dd4 9B000000 		.4byte	0x9b
 9306 2dd8 02       		.byte	0x2
 9307 2dd9 00       		.byte	0
 9308 2dda 07       		.uleb128 0x7
ARM GAS  /tmp/cccFXynL.s 			page 165


 9309 2ddb 04       		.byte	0x4
 9310 2ddc 262B0000 		.4byte	0x2b26
 9311 2de0 07       		.uleb128 0x7
 9312 2de1 04       		.byte	0x4
 9313 2de2 692B0000 		.4byte	0x2b69
 9314 2de6 0C       		.uleb128 0xc
 9315 2de7 EE110000 		.4byte	0x11ee
 9316 2deb F62D0000 		.4byte	0x2df6
 9317 2def 0D       		.uleb128 0xd
 9318 2df0 9B000000 		.4byte	0x9b
 9319 2df4 43       		.byte	0x43
 9320 2df5 00       		.byte	0
 9321 2df6 20       		.uleb128 0x20
 9322 2df7 C8000000 		.4byte	.LASF634
 9323 2dfb 2C       		.byte	0x2c
 9324 2dfc 0602     		.2byte	0x206
 9325 2dfe 16230000 		.4byte	0x2316
 9326 2e02 0C       		.uleb128 0xc
 9327 2e03 A7000000 		.4byte	0xa7
 9328 2e07 0D2E0000 		.4byte	0x2e0d
 9329 2e0b 2F       		.uleb128 0x2f
 9330 2e0c 00       		.byte	0
 9331 2e0d 22       		.uleb128 0x22
 9332 2e0e C4150000 		.4byte	.LASF635
 9333 2e12 2E       		.byte	0x2e
 9334 2e13 1A       		.byte	0x1a
 9335 2e14 022E0000 		.4byte	0x2e02
 9336 2e18 22       		.uleb128 0x22
 9337 2e19 410B0000 		.4byte	.LASF636
 9338 2e1d 2E       		.byte	0x2e
 9339 2e1e 1B       		.byte	0x1b
 9340 2e1f 71150000 		.4byte	0x1571
 9341 2e23 22       		.uleb128 0x22
 9342 2e24 19250000 		.4byte	.LASF637
 9343 2e28 2F       		.byte	0x2f
 9344 2e29 1D       		.byte	0x1d
 9345 2e2a 8A1A0000 		.4byte	0x1a8a
 9346 2e2e 22       		.uleb128 0x22
 9347 2e2f 161F0000 		.4byte	.LASF638
 9348 2e33 2F       		.byte	0x2f
 9349 2e34 1E       		.byte	0x1e
 9350 2e35 94000000 		.4byte	0x94
 9351 2e39 22       		.uleb128 0x22
 9352 2e3a C30B0000 		.4byte	.LASF639
 9353 2e3e 2F       		.byte	0x2f
 9354 2e3f 1F       		.byte	0x1f
 9355 2e40 8A1A0000 		.4byte	0x1a8a
 9356 2e44 22       		.uleb128 0x22
 9357 2e45 2D140000 		.4byte	.LASF640
 9358 2e49 2F       		.byte	0x2f
 9359 2e4a 20       		.byte	0x20
 9360 2e4b 94000000 		.4byte	0x94
 9361 2e4f 09       		.uleb128 0x9
 9362 2e50 CB0D0000 		.4byte	.LASF641
 9363 2e54 30       		.byte	0x30
 9364 2e55 7801     		.2byte	0x178
 9365 2e57 5B2E0000 		.4byte	0x2e5b
ARM GAS  /tmp/cccFXynL.s 			page 166


 9366 2e5b 0C       		.uleb128 0xc
 9367 2e5c 94000000 		.4byte	0x94
 9368 2e60 6B2E0000 		.4byte	0x2e6b
 9369 2e64 0D       		.uleb128 0xd
 9370 2e65 9B000000 		.4byte	0x9b
 9371 2e69 16       		.byte	0x16
 9372 2e6a 00       		.byte	0
 9373 2e6b 11       		.uleb128 0x11
 9374 2e6c B9230000 		.4byte	.LASF642
 9375 2e70 6C       		.byte	0x6c
 9376 2e71 31       		.byte	0x31
 9377 2e72 34       		.byte	0x34
 9378 2e73 B42E0000 		.4byte	0x2eb4
 9379 2e77 0F       		.uleb128 0xf
 9380 2e78 B1070000 		.4byte	.LASF643
 9381 2e7c 31       		.byte	0x31
 9382 2e7d 35       		.byte	0x35
 9383 2e7e D2000000 		.4byte	0xd2
 9384 2e82 00       		.byte	0
 9385 2e83 12       		.uleb128 0x12
 9386 2e84 6D736700 		.ascii	"msg\000"
 9387 2e88 31       		.byte	0x31
 9388 2e89 36       		.byte	0x36
 9389 2e8a 2B060000 		.4byte	0x62b
 9390 2e8e 04       		.byte	0x4
 9391 2e8f 0F       		.uleb128 0xf
 9392 2e90 5C040000 		.4byte	.LASF644
 9393 2e94 31       		.byte	0x31
 9394 2e95 38       		.byte	0x38
 9395 2e96 D2000000 		.4byte	0xd2
 9396 2e9a 08       		.byte	0x8
 9397 2e9b 0F       		.uleb128 0xf
 9398 2e9c 8A1A0000 		.4byte	.LASF645
 9399 2ea0 31       		.byte	0x31
 9400 2ea1 39       		.byte	0x39
 9401 2ea2 4F2E0000 		.4byte	0x2e4f
 9402 2ea6 0C       		.byte	0xc
 9403 2ea7 0F       		.uleb128 0xf
 9404 2ea8 910A0000 		.4byte	.LASF646
 9405 2eac 31       		.byte	0x31
 9406 2ead 3A       		.byte	0x3a
 9407 2eae B92E0000 		.4byte	0x2eb9
 9408 2eb2 68       		.byte	0x68
 9409 2eb3 00       		.byte	0
 9410 2eb4 06       		.uleb128 0x6
 9411 2eb5 6B2E0000 		.4byte	0x2e6b
 9412 2eb9 07       		.uleb128 0x7
 9413 2eba 04       		.byte	0x4
 9414 2ebb 6B2E0000 		.4byte	0x2e6b
 9415 2ebf 22       		.uleb128 0x22
 9416 2ec0 EA060000 		.4byte	.LASF647
 9417 2ec4 31       		.byte	0x31
 9418 2ec5 3D       		.byte	0x3d
 9419 2ec6 B92E0000 		.4byte	0x2eb9
 9420 2eca 0A       		.uleb128 0xa
 9421 2ecb 01       		.byte	0x1
 9422 2ecc 32       		.byte	0x32
ARM GAS  /tmp/cccFXynL.s 			page 167


 9423 2ecd 1C       		.byte	0x1c
 9424 2ece E92E0000 		.4byte	0x2ee9
 9425 2ed2 28       		.uleb128 0x28
 9426 2ed3 64657600 		.ascii	"dev\000"
 9427 2ed7 32       		.byte	0x32
 9428 2ed8 1D       		.byte	0x1d
 9429 2ed9 A7000000 		.4byte	0xa7
 9430 2edd 0B       		.uleb128 0xb
 9431 2ede B3060000 		.4byte	.LASF648
 9432 2ee2 32       		.byte	0x32
 9433 2ee3 1E       		.byte	0x1e
 9434 2ee4 A7000000 		.4byte	0xa7
 9435 2ee8 00       		.byte	0
 9436 2ee9 11       		.uleb128 0x11
 9437 2eea 560F0000 		.4byte	.LASF649
 9438 2eee 14       		.byte	0x14
 9439 2eef 32       		.byte	0x32
 9440 2ef0 1B       		.byte	0x1b
 9441 2ef1 502F0000 		.4byte	0x2f50
 9442 2ef5 30       		.uleb128 0x30
 9443 2ef6 CA2E0000 		.4byte	0x2eca
 9444 2efa 00       		.byte	0
 9445 2efb 0F       		.uleb128 0xf
 9446 2efc 2A150000 		.4byte	.LASF650
 9447 2f00 32       		.byte	0x32
 9448 2f01 20       		.byte	0x20
 9449 2f02 A7000000 		.4byte	0xa7
 9450 2f06 01       		.byte	0x1
 9451 2f07 0F       		.uleb128 0xf
 9452 2f08 431E0000 		.4byte	.LASF651
 9453 2f0c 32       		.byte	0x32
 9454 2f0d 22       		.byte	0x22
 9455 2f0e A7000000 		.4byte	0xa7
 9456 2f12 02       		.byte	0x2
 9457 2f13 0F       		.uleb128 0xf
 9458 2f14 6D1A0000 		.4byte	.LASF652
 9459 2f18 32       		.byte	0x32
 9460 2f19 23       		.byte	0x23
 9461 2f1a A7000000 		.4byte	0xa7
 9462 2f1e 03       		.byte	0x3
 9463 2f1f 0F       		.uleb128 0xf
 9464 2f20 78030000 		.4byte	.LASF653
 9465 2f24 32       		.byte	0x32
 9466 2f25 24       		.byte	0x24
 9467 2f26 A7000000 		.4byte	0xa7
 9468 2f2a 04       		.byte	0x4
 9469 2f2b 0F       		.uleb128 0xf
 9470 2f2c 47170000 		.4byte	.LASF654
 9471 2f30 32       		.byte	0x32
 9472 2f31 26       		.byte	0x26
 9473 2f32 D2000000 		.4byte	0xd2
 9474 2f36 08       		.byte	0x8
 9475 2f37 0F       		.uleb128 0xf
 9476 2f38 AA1A0000 		.4byte	.LASF655
 9477 2f3c 32       		.byte	0x32
 9478 2f3d 27       		.byte	0x27
 9479 2f3e 2B060000 		.4byte	0x62b
ARM GAS  /tmp/cccFXynL.s 			page 168


 9480 2f42 0C       		.byte	0xc
 9481 2f43 0F       		.uleb128 0xf
 9482 2f44 6E080000 		.4byte	.LASF656
 9483 2f48 32       		.byte	0x32
 9484 2f49 29       		.byte	0x29
 9485 2f4a D2000000 		.4byte	0xd2
 9486 2f4e 10       		.byte	0x10
 9487 2f4f 00       		.byte	0
 9488 2f50 03       		.uleb128 0x3
 9489 2f51 F1250000 		.4byte	.LASF657
 9490 2f55 32       		.byte	0x32
 9491 2f56 2B       		.byte	0x2b
 9492 2f57 E92E0000 		.4byte	0x2ee9
 9493 2f5b 0C       		.uleb128 0xc
 9494 2f5c E92E0000 		.4byte	0x2ee9
 9495 2f60 6B2F0000 		.4byte	0x2f6b
 9496 2f64 0D       		.uleb128 0xd
 9497 2f65 9B000000 		.4byte	0x9b
 9498 2f69 20       		.byte	0x20
 9499 2f6a 00       		.byte	0
 9500 2f6b 22       		.uleb128 0x22
 9501 2f6c D30D0000 		.4byte	.LASF658
 9502 2f70 32       		.byte	0x32
 9503 2f71 2D       		.byte	0x2d
 9504 2f72 5B2F0000 		.4byte	0x2f5b
 9505 2f76 22       		.uleb128 0x22
 9506 2f77 0A250000 		.4byte	.LASF659
 9507 2f7b 32       		.byte	0x32
 9508 2f7c 2E       		.byte	0x2e
 9509 2f7d 94000000 		.4byte	0x94
 9510 2f81 31       		.uleb128 0x31
 9511 2f82 491C0000 		.4byte	.LASF707
 9512 2f86 07       		.byte	0x7
 9513 2f87 01       		.byte	0x1
 9514 2f88 37000000 		.4byte	0x37
 9515 2f8c 02       		.byte	0x2
 9516 2f8d 71       		.byte	0x71
 9517 2f8e AB2F0000 		.4byte	0x2fab
 9518 2f92 2A       		.uleb128 0x2a
 9519 2f93 2E0A0000 		.4byte	.LASF660
 9520 2f97 00       		.byte	0
 9521 2f98 2A       		.uleb128 0x2a
 9522 2f99 E40B0000 		.4byte	.LASF661
 9523 2f9d 01       		.byte	0x1
 9524 2f9e 2A       		.uleb128 0x2a
 9525 2f9f 2D100000 		.4byte	.LASF662
 9526 2fa3 02       		.byte	0x2
 9527 2fa4 2A       		.uleb128 0x2a
 9528 2fa5 79150000 		.4byte	.LASF663
 9529 2fa9 03       		.byte	0x3
 9530 2faa 00       		.byte	0
 9531 2fab 0A       		.uleb128 0xa
 9532 2fac 04       		.byte	0x4
 9533 2fad 02       		.byte	0x2
 9534 2fae 86       		.byte	0x86
 9535 2faf CA2F0000 		.4byte	0x2fca
 9536 2fb3 28       		.uleb128 0x28
ARM GAS  /tmp/cccFXynL.s 			page 169


 9537 2fb4 64657600 		.ascii	"dev\000"
 9538 2fb8 02       		.byte	0x2
 9539 2fb9 87       		.byte	0x87
 9540 2fba CA2F0000 		.4byte	0x2fca
 9541 2fbe 0B       		.uleb128 0xb
 9542 2fbf 2C1C0000 		.4byte	.LASF664
 9543 2fc3 02       		.byte	0x2
 9544 2fc4 88       		.byte	0x88
 9545 2fc5 A7000000 		.4byte	0xa7
 9546 2fc9 00       		.byte	0
 9547 2fca 07       		.uleb128 0x7
 9548 2fcb 04       		.byte	0x4
 9549 2fcc 502F0000 		.4byte	0x2f50
 9550 2fd0 11       		.uleb128 0x11
 9551 2fd1 E01B0000 		.4byte	.LASF665
 9552 2fd5 24       		.byte	0x24
 9553 2fd6 02       		.byte	0x2
 9554 2fd7 79       		.byte	0x79
 9555 2fd8 43300000 		.4byte	0x3043
 9556 2fdc 0F       		.uleb128 0xf
 9557 2fdd A3000000 		.4byte	.LASF666
 9558 2fe1 02       		.byte	0x2
 9559 2fe2 7A       		.byte	0x7a
 9560 2fe3 94000000 		.4byte	0x94
 9561 2fe7 00       		.byte	0
 9562 2fe8 0F       		.uleb128 0xf
 9563 2fe9 47170000 		.4byte	.LASF654
 9564 2fed 02       		.byte	0x2
 9565 2fee 7C       		.byte	0x7c
 9566 2fef D2000000 		.4byte	0xd2
 9567 2ff3 04       		.byte	0x4
 9568 2ff4 0F       		.uleb128 0xf
 9569 2ff5 40020000 		.4byte	.LASF667
 9570 2ff9 02       		.byte	0x2
 9571 2ffa 7D       		.byte	0x7d
 9572 2ffb D2000000 		.4byte	0xd2
 9573 2fff 08       		.byte	0x8
 9574 3000 0F       		.uleb128 0xf
 9575 3001 BF120000 		.4byte	.LASF668
 9576 3005 02       		.byte	0x2
 9577 3006 7E       		.byte	0x7e
 9578 3007 D2000000 		.4byte	0xd2
 9579 300b 0C       		.byte	0xc
 9580 300c 0F       		.uleb128 0xf
 9581 300d 5E270000 		.4byte	.LASF669
 9582 3011 02       		.byte	0x2
 9583 3012 80       		.byte	0x80
 9584 3013 5D300000 		.4byte	0x305d
 9585 3017 10       		.byte	0x10
 9586 3018 0F       		.uleb128 0xf
 9587 3019 4D220000 		.4byte	.LASF670
 9588 301d 02       		.byte	0x2
 9589 301e 81       		.byte	0x81
 9590 301f 72300000 		.4byte	0x3072
 9591 3023 14       		.byte	0x14
 9592 3024 0F       		.uleb128 0xf
 9593 3025 701D0000 		.4byte	.LASF671
ARM GAS  /tmp/cccFXynL.s 			page 170


 9594 3029 02       		.byte	0x2
 9595 302a 82       		.byte	0x82
 9596 302b 96300000 		.4byte	0x3096
 9597 302f 18       		.byte	0x18
 9598 3030 0F       		.uleb128 0xf
 9599 3031 EA040000 		.4byte	.LASF672
 9600 3035 02       		.byte	0x2
 9601 3036 84       		.byte	0x84
 9602 3037 AC300000 		.4byte	0x30ac
 9603 303b 1C       		.byte	0x1c
 9604 303c 30       		.uleb128 0x30
 9605 303d AB2F0000 		.4byte	0x2fab
 9606 3041 20       		.byte	0x20
 9607 3042 00       		.byte	0
 9608 3043 16       		.uleb128 0x16
 9609 3044 D2000000 		.4byte	0xd2
 9610 3048 57300000 		.4byte	0x3057
 9611 304c 17       		.uleb128 0x17
 9612 304d 57300000 		.4byte	0x3057
 9613 3051 17       		.uleb128 0x17
 9614 3052 B7000000 		.4byte	0xb7
 9615 3056 00       		.byte	0
 9616 3057 07       		.uleb128 0x7
 9617 3058 04       		.byte	0x4
 9618 3059 D02F0000 		.4byte	0x2fd0
 9619 305d 07       		.uleb128 0x7
 9620 305e 04       		.byte	0x4
 9621 305f 43300000 		.4byte	0x3043
 9622 3063 16       		.uleb128 0x16
 9623 3064 D2000000 		.4byte	0xd2
 9624 3068 72300000 		.4byte	0x3072
 9625 306c 17       		.uleb128 0x17
 9626 306d 57300000 		.4byte	0x3057
 9627 3071 00       		.byte	0
 9628 3072 07       		.uleb128 0x7
 9629 3073 04       		.byte	0x4
 9630 3074 63300000 		.4byte	0x3063
 9631 3078 16       		.uleb128 0x16
 9632 3079 D2000000 		.4byte	0xd2
 9633 307d 96300000 		.4byte	0x3096
 9634 3081 17       		.uleb128 0x17
 9635 3082 57300000 		.4byte	0x3057
 9636 3086 17       		.uleb128 0x17
 9637 3087 A7000000 		.4byte	0xa7
 9638 308b 17       		.uleb128 0x17
 9639 308c B7000000 		.4byte	0xb7
 9640 3090 17       		.uleb128 0x17
 9641 3091 D2000000 		.4byte	0xd2
 9642 3095 00       		.byte	0
 9643 3096 07       		.uleb128 0x7
 9644 3097 04       		.byte	0x4
 9645 3098 78300000 		.4byte	0x3078
 9646 309c 1F       		.uleb128 0x1f
 9647 309d AC300000 		.4byte	0x30ac
 9648 30a1 17       		.uleb128 0x17
 9649 30a2 57300000 		.4byte	0x3057
 9650 30a6 17       		.uleb128 0x17
ARM GAS  /tmp/cccFXynL.s 			page 171


 9651 30a7 D2000000 		.4byte	0xd2
 9652 30ab 00       		.byte	0
 9653 30ac 07       		.uleb128 0x7
 9654 30ad 04       		.byte	0x4
 9655 30ae 9C300000 		.4byte	0x309c
 9656 30b2 03       		.uleb128 0x3
 9657 30b3 EB1B0000 		.4byte	.LASF673
 9658 30b7 02       		.byte	0x2
 9659 30b8 8A       		.byte	0x8a
 9660 30b9 D02F0000 		.4byte	0x2fd0
 9661 30bd 11       		.uleb128 0x11
 9662 30be 590A0000 		.4byte	.LASF674
 9663 30c2 1C       		.byte	0x1c
 9664 30c3 02       		.byte	0x2
 9665 30c4 A1       		.byte	0xa1
 9666 30c5 1D310000 		.4byte	0x311d
 9667 30c9 0F       		.uleb128 0xf
 9668 30ca A3000000 		.4byte	.LASF666
 9669 30ce 02       		.byte	0x2
 9670 30cf A2       		.byte	0xa2
 9671 30d0 94000000 		.4byte	0x94
 9672 30d4 00       		.byte	0
 9673 30d5 12       		.uleb128 0x12
 9674 30d6 647000   		.ascii	"dp\000"
 9675 30d9 02       		.byte	0x2
 9676 30da A4       		.byte	0xa4
 9677 30db 1D310000 		.4byte	0x311d
 9678 30df 04       		.byte	0x4
 9679 30e0 0F       		.uleb128 0xf
 9680 30e1 33020000 		.4byte	.LASF675
 9681 30e5 02       		.byte	0x2
 9682 30e6 A5       		.byte	0xa5
 9683 30e7 A7000000 		.4byte	0xa7
 9684 30eb 08       		.byte	0x8
 9685 30ec 12       		.uleb128 0x12
 9686 30ed 69647200 		.ascii	"idr\000"
 9687 30f1 02       		.byte	0x2
 9688 30f2 A7       		.byte	0xa7
 9689 30f3 D2000000 		.4byte	0xd2
 9690 30f7 0C       		.byte	0xc
 9691 30f8 12       		.uleb128 0x12
 9692 30f9 63666700 		.ascii	"cfg\000"
 9693 30fd 02       		.byte	0x2
 9694 30fe A8       		.byte	0xa8
 9695 30ff D2000000 		.4byte	0xd2
 9696 3103 10       		.byte	0x10
 9697 3104 0F       		.uleb128 0xf
 9698 3105 54200000 		.4byte	.LASF676
 9699 3109 02       		.byte	0x2
 9700 310a A9       		.byte	0xa9
 9701 310b D2000000 		.4byte	0xd2
 9702 310f 14       		.byte	0x14
 9703 3110 12       		.uleb128 0x12
 9704 3111 63737700 		.ascii	"csw\000"
 9705 3115 02       		.byte	0x2
 9706 3116 AA       		.byte	0xaa
 9707 3117 D2000000 		.4byte	0xd2
ARM GAS  /tmp/cccFXynL.s 			page 172


 9708 311b 18       		.byte	0x18
 9709 311c 00       		.byte	0
 9710 311d 07       		.uleb128 0x7
 9711 311e 04       		.byte	0x4
 9712 311f B2300000 		.4byte	0x30b2
 9713 3123 03       		.uleb128 0x3
 9714 3124 640A0000 		.4byte	.LASF677
 9715 3128 02       		.byte	0x2
 9716 3129 AB       		.byte	0xab
 9717 312a BD300000 		.4byte	0x30bd
 9718 312e 03       		.uleb128 0x3
 9719 312f F10A0000 		.4byte	.LASF678
 9720 3133 33       		.byte	0x33
 9721 3134 1E       		.byte	0x1e
 9722 3135 39310000 		.4byte	0x3139
 9723 3139 11       		.uleb128 0x11
 9724 313a 9D0B0000 		.4byte	.LASF679
 9725 313e 74       		.byte	0x74
 9726 313f 34       		.byte	0x34
 9727 3140 4B       		.byte	0x4b
 9728 3141 A1320000 		.4byte	0x32a1
 9729 3145 0F       		.uleb128 0xf
 9730 3146 CA110000 		.4byte	.LASF680
 9731 314a 34       		.byte	0x34
 9732 314b 4C       		.byte	0x4c
 9733 314c 30170000 		.4byte	0x1730
 9734 3150 00       		.byte	0
 9735 3151 12       		.uleb128 0x12
 9736 3152 746300   		.ascii	"tc\000"
 9737 3155 34       		.byte	0x34
 9738 3156 4D       		.byte	0x4d
 9739 3157 D5340000 		.4byte	0x34d5
 9740 315b 04       		.byte	0x4
 9741 315c 0F       		.uleb128 0xf
 9742 315d F7160000 		.4byte	.LASF681
 9743 3161 34       		.byte	0x34
 9744 3162 50       		.byte	0x50
 9745 3163 A4380000 		.4byte	0x38a4
 9746 3167 08       		.byte	0x8
 9747 3168 0F       		.uleb128 0xf
 9748 3169 60240000 		.4byte	.LASF682
 9749 316d 34       		.byte	0x34
 9750 316e 51       		.byte	0x51
 9751 316f B5380000 		.4byte	0x38b5
 9752 3173 0C       		.byte	0xc
 9753 3174 0F       		.uleb128 0xf
 9754 3175 21100000 		.4byte	.LASF683
 9755 3179 34       		.byte	0x34
 9756 317a 52       		.byte	0x52
 9757 317b A4380000 		.4byte	0x38a4
 9758 317f 10       		.byte	0x10
 9759 3180 0F       		.uleb128 0xf
 9760 3181 8A150000 		.4byte	.LASF684
 9761 3185 34       		.byte	0x34
 9762 3186 55       		.byte	0x55
 9763 3187 D5380000 		.4byte	0x38d5
 9764 318b 14       		.byte	0x14
ARM GAS  /tmp/cccFXynL.s 			page 173


 9765 318c 0F       		.uleb128 0xf
 9766 318d E70A0000 		.4byte	.LASF685
 9767 3191 34       		.byte	0x34
 9768 3192 57       		.byte	0x57
 9769 3193 F5380000 		.4byte	0x38f5
 9770 3197 18       		.byte	0x18
 9771 3198 0F       		.uleb128 0xf
 9772 3199 65020000 		.4byte	.LASF686
 9773 319d 34       		.byte	0x34
 9774 319e 5B       		.byte	0x5b
 9775 319f F2000000 		.4byte	0xf2
 9776 31a3 1C       		.byte	0x1c
 9777 31a4 0F       		.uleb128 0xf
 9778 31a5 5B160000 		.4byte	.LASF687
 9779 31a9 34       		.byte	0x34
 9780 31aa 5C       		.byte	0x5c
 9781 31ab 2B060000 		.4byte	0x62b
 9782 31af 20       		.byte	0x20
 9783 31b0 0F       		.uleb128 0xf
 9784 31b1 EB130000 		.4byte	.LASF688
 9785 31b5 34       		.byte	0x34
 9786 31b6 5D       		.byte	0x5d
 9787 31b7 0B390000 		.4byte	0x390b
 9788 31bb 24       		.byte	0x24
 9789 31bc 0F       		.uleb128 0xf
 9790 31bd C3060000 		.4byte	.LASF689
 9791 31c1 34       		.byte	0x34
 9792 31c2 5E       		.byte	0x5e
 9793 31c3 21390000 		.4byte	0x3921
 9794 31c7 28       		.byte	0x28
 9795 31c8 0F       		.uleb128 0xf
 9796 31c9 D7150000 		.4byte	.LASF690
 9797 31cd 34       		.byte	0x34
 9798 31ce 61       		.byte	0x61
 9799 31cf B5380000 		.4byte	0x38b5
 9800 31d3 2C       		.byte	0x2c
 9801 31d4 0F       		.uleb128 0xf
 9802 31d5 A1190000 		.4byte	.LASF691
 9803 31d9 34       		.byte	0x34
 9804 31da 62       		.byte	0x62
 9805 31db B5380000 		.4byte	0x38b5
 9806 31df 30       		.byte	0x30
 9807 31e0 0F       		.uleb128 0xf
 9808 31e1 AF240000 		.4byte	.LASF692
 9809 31e5 34       		.byte	0x34
 9810 31e6 63       		.byte	0x63
 9811 31e7 B5380000 		.4byte	0x38b5
 9812 31eb 34       		.byte	0x34
 9813 31ec 0F       		.uleb128 0xf
 9814 31ed 87090000 		.4byte	.LASF693
 9815 31f1 34       		.byte	0x34
 9816 31f2 64       		.byte	0x64
 9817 31f3 41390000 		.4byte	0x3941
 9818 31f7 38       		.byte	0x38
 9819 31f8 0F       		.uleb128 0xf
 9820 31f9 AA270000 		.4byte	.LASF694
 9821 31fd 34       		.byte	0x34
ARM GAS  /tmp/cccFXynL.s 			page 174


 9822 31fe 65       		.byte	0x65
 9823 31ff 57390000 		.4byte	0x3957
 9824 3203 3C       		.byte	0x3c
 9825 3204 0F       		.uleb128 0xf
 9826 3205 7D1B0000 		.4byte	.LASF695
 9827 3209 34       		.byte	0x34
 9828 320a 68       		.byte	0x68
 9829 320b 71390000 		.4byte	0x3971
 9830 320f 40       		.byte	0x40
 9831 3210 0F       		.uleb128 0xf
 9832 3211 5B1B0000 		.4byte	.LASF696
 9833 3215 34       		.byte	0x34
 9834 3216 69       		.byte	0x69
 9835 3217 71390000 		.4byte	0x3971
 9836 321b 44       		.byte	0x44
 9837 321c 0F       		.uleb128 0xf
 9838 321d 61250000 		.4byte	.LASF697
 9839 3221 34       		.byte	0x34
 9840 3222 6A       		.byte	0x6a
 9841 3223 7F380000 		.4byte	0x387f
 9842 3227 48       		.byte	0x48
 9843 3228 0F       		.uleb128 0xf
 9844 3229 050B0000 		.4byte	.LASF698
 9845 322d 34       		.byte	0x34
 9846 322e 6D       		.byte	0x6d
 9847 322f 9B000000 		.4byte	0x9b
 9848 3233 4C       		.byte	0x4c
 9849 3234 0F       		.uleb128 0xf
 9850 3235 47170000 		.4byte	.LASF654
 9851 3239 34       		.byte	0x34
 9852 323a 6E       		.byte	0x6e
 9853 323b D2000000 		.4byte	0xd2
 9854 323f 50       		.byte	0x50
 9855 3240 0F       		.uleb128 0xf
 9856 3241 78090000 		.4byte	.LASF699
 9857 3245 34       		.byte	0x34
 9858 3246 6F       		.byte	0x6f
 9859 3247 D2000000 		.4byte	0xd2
 9860 324b 54       		.byte	0x54
 9861 324c 12       		.uleb128 0x12
 9862 324d 72616D00 		.ascii	"ram\000"
 9863 3251 34       		.byte	0x34
 9864 3252 71       		.byte	0x71
 9865 3253 73360000 		.4byte	0x3673
 9866 3257 58       		.byte	0x58
 9867 3258 0F       		.uleb128 0xf
 9868 3259 03070000 		.4byte	.LASF700
 9869 325d 34       		.byte	0x34
 9870 325e 72       		.byte	0x72
 9871 325f A3360000 		.4byte	0x36a3
 9872 3263 5C       		.byte	0x5c
 9873 3264 0F       		.uleb128 0xf
 9874 3265 DC070000 		.4byte	.LASF701
 9875 3269 34       		.byte	0x34
 9876 326a 75       		.byte	0x75
 9877 326b 2B060000 		.4byte	0x62b
 9878 326f 60       		.byte	0x60
ARM GAS  /tmp/cccFXynL.s 			page 175


 9879 3270 0F       		.uleb128 0xf
 9880 3271 D6120000 		.4byte	.LASF702
 9881 3275 34       		.byte	0x34
 9882 3276 76       		.byte	0x76
 9883 3277 30380000 		.4byte	0x3830
 9884 327b 64       		.byte	0x64
 9885 327c 0F       		.uleb128 0xf
 9886 327d 51020000 		.4byte	.LASF703
 9887 3281 34       		.byte	0x34
 9888 3282 78       		.byte	0x78
 9889 3283 77390000 		.4byte	0x3977
 9890 3287 68       		.byte	0x68
 9891 3288 0F       		.uleb128 0xf
 9892 3289 04020000 		.4byte	.LASF704
 9893 328d 34       		.byte	0x34
 9894 328e 7A       		.byte	0x7a
 9895 328f AB010000 		.4byte	0x1ab
 9896 3293 6C       		.byte	0x6c
 9897 3294 0F       		.uleb128 0xf
 9898 3295 47120000 		.4byte	.LASF705
 9899 3299 34       		.byte	0x34
 9900 329a 7B       		.byte	0x7b
 9901 329b FC0B0000 		.4byte	0xbfc
 9902 329f 70       		.byte	0x70
 9903 32a0 00       		.byte	0
 9904 32a1 03       		.uleb128 0x3
 9905 32a2 46090000 		.4byte	.LASF706
 9906 32a6 33       		.byte	0x33
 9907 32a7 1F       		.byte	0x1f
 9908 32a8 D2000000 		.4byte	0xd2
 9909 32ac 31       		.uleb128 0x31
 9910 32ad 8C010000 		.4byte	.LASF708
 9911 32b1 07       		.byte	0x7
 9912 32b2 01       		.byte	0x1
 9913 32b3 37000000 		.4byte	0x37
 9914 32b7 33       		.byte	0x33
 9915 32b8 41       		.byte	0x41
 9916 32b9 E8320000 		.4byte	0x32e8
 9917 32bd 2A       		.uleb128 0x2a
 9918 32be F6260000 		.4byte	.LASF709
 9919 32c2 00       		.byte	0
 9920 32c3 2A       		.uleb128 0x2a
 9921 32c4 CE1B0000 		.4byte	.LASF710
 9922 32c8 01       		.byte	0x1
 9923 32c9 2A       		.uleb128 0x2a
 9924 32ca 2C010000 		.4byte	.LASF711
 9925 32ce 02       		.byte	0x2
 9926 32cf 2A       		.uleb128 0x2a
 9927 32d0 780E0000 		.4byte	.LASF712
 9928 32d4 03       		.byte	0x3
 9929 32d5 2A       		.uleb128 0x2a
 9930 32d6 F00D0000 		.4byte	.LASF713
 9931 32da 04       		.byte	0x4
 9932 32db 2A       		.uleb128 0x2a
 9933 32dc EE110000 		.4byte	.LASF714
 9934 32e0 05       		.byte	0x5
 9935 32e1 2A       		.uleb128 0x2a
ARM GAS  /tmp/cccFXynL.s 			page 176


 9936 32e2 2D1D0000 		.4byte	.LASF715
 9937 32e6 06       		.byte	0x6
 9938 32e7 00       		.byte	0
 9939 32e8 31       		.uleb128 0x31
 9940 32e9 3F1D0000 		.4byte	.LASF716
 9941 32ed 07       		.byte	0x7
 9942 32ee 01       		.byte	0x1
 9943 32ef 37000000 		.4byte	0x37
 9944 32f3 33       		.byte	0x33
 9945 32f4 51       		.byte	0x51
 9946 32f5 18330000 		.4byte	0x3318
 9947 32f9 2A       		.uleb128 0x2a
 9948 32fa 90120000 		.4byte	.LASF717
 9949 32fe 00       		.byte	0
 9950 32ff 2A       		.uleb128 0x2a
 9951 3300 77260000 		.4byte	.LASF718
 9952 3304 01       		.byte	0x1
 9953 3305 2A       		.uleb128 0x2a
 9954 3306 251E0000 		.4byte	.LASF719
 9955 330a 02       		.byte	0x2
 9956 330b 2A       		.uleb128 0x2a
 9957 330c 20000000 		.4byte	.LASF720
 9958 3310 03       		.byte	0x3
 9959 3311 2A       		.uleb128 0x2a
 9960 3312 6F130000 		.4byte	.LASF721
 9961 3316 04       		.byte	0x4
 9962 3317 00       		.byte	0
 9963 3318 31       		.uleb128 0x31
 9964 3319 92040000 		.4byte	.LASF722
 9965 331d 07       		.byte	0x7
 9966 331e 01       		.byte	0x1
 9967 331f 37000000 		.4byte	0x37
 9968 3323 33       		.byte	0x33
 9969 3324 60       		.byte	0x60
 9970 3325 9C330000 		.4byte	0x339c
 9971 3329 2A       		.uleb128 0x2a
 9972 332a 50150000 		.4byte	.LASF723
 9973 332e 01       		.byte	0x1
 9974 332f 2A       		.uleb128 0x2a
 9975 3330 17060000 		.4byte	.LASF724
 9976 3334 02       		.byte	0x2
 9977 3335 2A       		.uleb128 0x2a
 9978 3336 7C000000 		.4byte	.LASF725
 9979 333a 04       		.byte	0x4
 9980 333b 2A       		.uleb128 0x2a
 9981 333c 1B050000 		.4byte	.LASF726
 9982 3340 09       		.byte	0x9
 9983 3341 2A       		.uleb128 0x2a
 9984 3342 52090000 		.4byte	.LASF727
 9985 3346 0D       		.byte	0xd
 9986 3347 2A       		.uleb128 0x2a
 9987 3348 30120000 		.4byte	.LASF728
 9988 334c 0E       		.byte	0xe
 9989 334d 2A       		.uleb128 0x2a
 9990 334e AB0E0000 		.4byte	.LASF729
 9991 3352 10       		.byte	0x10
 9992 3353 2A       		.uleb128 0x2a
ARM GAS  /tmp/cccFXynL.s 			page 177


 9993 3354 9E210000 		.4byte	.LASF730
 9994 3358 11       		.byte	0x11
 9995 3359 2A       		.uleb128 0x2a
 9996 335a A6200000 		.4byte	.LASF731
 9997 335e 13       		.byte	0x13
 9998 335f 2A       		.uleb128 0x2a
 9999 3360 47140000 		.4byte	.LASF732
 10000 3364 14       		.byte	0x14
 10001 3365 2A       		.uleb128 0x2a
 10002 3366 170E0000 		.4byte	.LASF733
 10003 336a 15       		.byte	0x15
 10004 336b 2A       		.uleb128 0x2a
 10005 336c A0160000 		.4byte	.LASF734
 10006 3370 16       		.byte	0x16
 10007 3371 2A       		.uleb128 0x2a
 10008 3372 B1000000 		.4byte	.LASF735
 10009 3376 18       		.byte	0x18
 10010 3377 2A       		.uleb128 0x2a
 10011 3378 82060000 		.4byte	.LASF736
 10012 337c 17       		.byte	0x17
 10013 337d 2A       		.uleb128 0x2a
 10014 337e 970A0000 		.4byte	.LASF737
 10015 3382 1B       		.byte	0x1b
 10016 3383 2A       		.uleb128 0x2a
 10017 3384 AE160000 		.4byte	.LASF738
 10018 3388 1C       		.byte	0x1c
 10019 3389 2A       		.uleb128 0x2a
 10020 338a 2E190000 		.4byte	.LASF739
 10021 338e 1D       		.byte	0x1d
 10022 338f 2A       		.uleb128 0x2a
 10023 3390 750A0000 		.4byte	.LASF740
 10024 3394 1E       		.byte	0x1e
 10025 3395 2A       		.uleb128 0x2a
 10026 3396 AC1B0000 		.4byte	.LASF741
 10027 339a 24       		.byte	0x24
 10028 339b 00       		.byte	0
 10029 339c 31       		.uleb128 0x31
 10030 339d D4130000 		.4byte	.LASF742
 10031 33a1 07       		.byte	0x7
 10032 33a2 02       		.byte	0x2
 10033 33a3 50000000 		.4byte	0x50
 10034 33a7 33       		.byte	0x33
 10035 33a8 76       		.byte	0x76
 10036 33a9 D4330000 		.4byte	0x33d4
 10037 33ad 2A       		.uleb128 0x2a
 10038 33ae CB180000 		.4byte	.LASF743
 10039 33b2 00       		.byte	0
 10040 33b3 2A       		.uleb128 0x2a
 10041 33b4 3E110000 		.4byte	.LASF744
 10042 33b8 01       		.byte	0x1
 10043 33b9 2A       		.uleb128 0x2a
 10044 33ba 08180000 		.4byte	.LASF745
 10045 33be 02       		.byte	0x2
 10046 33bf 2A       		.uleb128 0x2a
 10047 33c0 84190000 		.4byte	.LASF746
 10048 33c4 08       		.byte	0x8
 10049 33c5 32       		.uleb128 0x32
ARM GAS  /tmp/cccFXynL.s 			page 178


 10050 33c6 FD100000 		.4byte	.LASF747
 10051 33ca 0002     		.2byte	0x200
 10052 33cc 32       		.uleb128 0x32
 10053 33cd 85140000 		.4byte	.LASF748
 10054 33d1 0004     		.2byte	0x400
 10055 33d3 00       		.byte	0
 10056 33d4 31       		.uleb128 0x31
 10057 33d5 7B1D0000 		.4byte	.LASF749
 10058 33d9 07       		.byte	0x7
 10059 33da 01       		.byte	0x1
 10060 33db 37000000 		.4byte	0x37
 10061 33df 33       		.byte	0x33
 10062 33e0 7F       		.byte	0x7f
 10063 33e1 F8330000 		.4byte	0x33f8
 10064 33e5 2A       		.uleb128 0x2a
 10065 33e6 4E000000 		.4byte	.LASF750
 10066 33ea 00       		.byte	0
 10067 33eb 2A       		.uleb128 0x2a
 10068 33ec B21C0000 		.4byte	.LASF751
 10069 33f0 01       		.byte	0x1
 10070 33f1 2A       		.uleb128 0x2a
 10071 33f2 EC1F0000 		.4byte	.LASF752
 10072 33f6 02       		.byte	0x2
 10073 33f7 00       		.byte	0
 10074 33f8 11       		.uleb128 0x11
 10075 33f9 65100000 		.4byte	.LASF753
 10076 33fd 3C       		.byte	0x3c
 10077 33fe 33       		.byte	0x33
 10078 33ff 85       		.byte	0x85
 10079 3400 C5340000 		.4byte	0x34c5
 10080 3404 0F       		.uleb128 0xf
 10081 3405 82080000 		.4byte	.LASF754
 10082 3409 33       		.byte	0x33
 10083 340a 86       		.byte	0x86
 10084 340b E1340000 		.4byte	0x34e1
 10085 340f 00       		.byte	0
 10086 3410 0F       		.uleb128 0xf
 10087 3411 711F0000 		.4byte	.LASF755
 10088 3415 33       		.byte	0x33
 10089 3416 87       		.byte	0x87
 10090 3417 FC340000 		.4byte	0x34fc
 10091 341b 04       		.byte	0x4
 10092 341c 0F       		.uleb128 0xf
 10093 341d 7F0C0000 		.4byte	.LASF756
 10094 3421 33       		.byte	0x33
 10095 3422 8A       		.byte	0x8a
 10096 3423 25350000 		.4byte	0x3525
 10097 3427 08       		.byte	0x8
 10098 3428 0F       		.uleb128 0xf
 10099 3429 49180000 		.4byte	.LASF757
 10100 342d 33       		.byte	0x33
 10101 342e 8D       		.byte	0x8d
 10102 342f 3F350000 		.4byte	0x353f
 10103 3433 0C       		.byte	0xc
 10104 3434 0F       		.uleb128 0xf
 10105 3435 C8010000 		.4byte	.LASF458
 10106 3439 33       		.byte	0x33
ARM GAS  /tmp/cccFXynL.s 			page 179


 10107 343a 8E       		.byte	0x8e
 10108 343b 63350000 		.4byte	0x3563
 10109 343f 10       		.byte	0x10
 10110 3440 0F       		.uleb128 0xf
 10111 3441 66190000 		.4byte	.LASF457
 10112 3445 33       		.byte	0x33
 10113 3446 90       		.byte	0x90
 10114 3447 63350000 		.4byte	0x3563
 10115 344b 14       		.byte	0x14
 10116 344c 0F       		.uleb128 0xf
 10117 344d 43180000 		.4byte	.LASF758
 10118 3451 33       		.byte	0x33
 10119 3452 92       		.byte	0x92
 10120 3453 87350000 		.4byte	0x3587
 10121 3457 18       		.byte	0x18
 10122 3458 0F       		.uleb128 0xf
 10123 3459 E8170000 		.4byte	.LASF759
 10124 345d 33       		.byte	0x33
 10125 345e 94       		.byte	0x94
 10126 345f B0350000 		.4byte	0x35b0
 10127 3463 1C       		.byte	0x1c
 10128 3464 0F       		.uleb128 0xf
 10129 3465 C6070000 		.4byte	.LASF760
 10130 3469 33       		.byte	0x33
 10131 346a 97       		.byte	0x97
 10132 346b CF350000 		.4byte	0x35cf
 10133 346f 20       		.byte	0x20
 10134 3470 0F       		.uleb128 0xf
 10135 3471 F4010000 		.4byte	.LASF761
 10136 3475 33       		.byte	0x33
 10137 3476 99       		.byte	0x99
 10138 3477 F3350000 		.4byte	0x35f3
 10139 347b 24       		.byte	0x24
 10140 347c 0F       		.uleb128 0xf
 10141 347d E4030000 		.4byte	.LASF762
 10142 3481 33       		.byte	0x33
 10143 3482 9B       		.byte	0x9b
 10144 3483 12360000 		.4byte	0x3612
 10145 3487 28       		.byte	0x28
 10146 3488 0F       		.uleb128 0xf
 10147 3489 1C040000 		.4byte	.LASF763
 10148 348d 33       		.byte	0x33
 10149 348e 9C       		.byte	0x9c
 10150 348f 31360000 		.4byte	0x3631
 10151 3493 2C       		.byte	0x2c
 10152 3494 0F       		.uleb128 0xf
 10153 3495 C10A0000 		.4byte	.LASF764
 10154 3499 33       		.byte	0x33
 10155 349a 9E       		.byte	0x9e
 10156 349b 3F350000 		.4byte	0x353f
 10157 349f 30       		.byte	0x30
 10158 34a0 0F       		.uleb128 0xf
 10159 34a1 39160000 		.4byte	.LASF765
 10160 34a5 33       		.byte	0x33
 10161 34a6 9F       		.byte	0x9f
 10162 34a7 CF350000 		.4byte	0x35cf
 10163 34ab 34       		.byte	0x34
ARM GAS  /tmp/cccFXynL.s 			page 180


 10164 34ac 0F       		.uleb128 0xf
 10165 34ad A8230000 		.4byte	.LASF766
 10166 34b1 33       		.byte	0x33
 10167 34b2 A1       		.byte	0xa1
 10168 34b3 18330000 		.4byte	0x3318
 10169 34b7 38       		.byte	0x38
 10170 34b8 0F       		.uleb128 0xf
 10171 34b9 C4260000 		.4byte	.LASF767
 10172 34bd 33       		.byte	0x33
 10173 34be A2       		.byte	0xa2
 10174 34bf 30170000 		.4byte	0x1730
 10175 34c3 39       		.byte	0x39
 10176 34c4 00       		.byte	0
 10177 34c5 1F       		.uleb128 0x1f
 10178 34c6 D5340000 		.4byte	0x34d5
 10179 34ca 17       		.uleb128 0x17
 10180 34cb D5340000 		.4byte	0x34d5
 10181 34cf 17       		.uleb128 0x17
 10182 34d0 DB340000 		.4byte	0x34db
 10183 34d4 00       		.byte	0
 10184 34d5 07       		.uleb128 0x7
 10185 34d6 04       		.byte	0x4
 10186 34d7 F8330000 		.4byte	0x33f8
 10187 34db 07       		.uleb128 0x7
 10188 34dc 04       		.byte	0x4
 10189 34dd 2E310000 		.4byte	0x312e
 10190 34e1 07       		.uleb128 0x7
 10191 34e2 04       		.byte	0x4
 10192 34e3 C5340000 		.4byte	0x34c5
 10193 34e7 1F       		.uleb128 0x1f
 10194 34e8 FC340000 		.4byte	0x34fc
 10195 34ec 17       		.uleb128 0x17
 10196 34ed D5340000 		.4byte	0x34d5
 10197 34f1 17       		.uleb128 0x17
 10198 34f2 2B060000 		.4byte	0x62b
 10199 34f6 17       		.uleb128 0x17
 10200 34f7 68090000 		.4byte	0x968
 10201 34fb 00       		.byte	0
 10202 34fc 07       		.uleb128 0x7
 10203 34fd 04       		.byte	0x4
 10204 34fe E7340000 		.4byte	0x34e7
 10205 3502 16       		.uleb128 0x16
 10206 3503 94000000 		.4byte	0x94
 10207 3507 25350000 		.4byte	0x3525
 10208 350b 17       		.uleb128 0x17
 10209 350c D5340000 		.4byte	0x34d5
 10210 3510 17       		.uleb128 0x17
 10211 3511 A1320000 		.4byte	0x32a1
 10212 3515 17       		.uleb128 0x17
 10213 3516 F2000000 		.4byte	0xf2
 10214 351a 17       		.uleb128 0x17
 10215 351b 9C330000 		.4byte	0x339c
 10216 351f 17       		.uleb128 0x17
 10217 3520 73090000 		.4byte	0x973
 10218 3524 00       		.byte	0
 10219 3525 07       		.uleb128 0x7
 10220 3526 04       		.byte	0x4
ARM GAS  /tmp/cccFXynL.s 			page 181


 10221 3527 02350000 		.4byte	0x3502
 10222 352b 16       		.uleb128 0x16
 10223 352c 94000000 		.4byte	0x94
 10224 3530 3F350000 		.4byte	0x353f
 10225 3534 17       		.uleb128 0x17
 10226 3535 D5340000 		.4byte	0x34d5
 10227 3539 17       		.uleb128 0x17
 10228 353a 94000000 		.4byte	0x94
 10229 353e 00       		.byte	0
 10230 353f 07       		.uleb128 0x7
 10231 3540 04       		.byte	0x4
 10232 3541 2B350000 		.4byte	0x352b
 10233 3545 16       		.uleb128 0x16
 10234 3546 94000000 		.4byte	0x94
 10235 354a 63350000 		.4byte	0x3563
 10236 354e 17       		.uleb128 0x17
 10237 354f D5340000 		.4byte	0x34d5
 10238 3553 17       		.uleb128 0x17
 10239 3554 94000000 		.4byte	0x94
 10240 3558 17       		.uleb128 0x17
 10241 3559 A1320000 		.4byte	0x32a1
 10242 355d 17       		.uleb128 0x17
 10243 355e 9B000000 		.4byte	0x9b
 10244 3562 00       		.byte	0
 10245 3563 07       		.uleb128 0x7
 10246 3564 04       		.byte	0x4
 10247 3565 45350000 		.4byte	0x3545
 10248 3569 16       		.uleb128 0x16
 10249 356a 62000000 		.4byte	0x62
 10250 356e 87350000 		.4byte	0x3587
 10251 3572 17       		.uleb128 0x17
 10252 3573 D5340000 		.4byte	0x34d5
 10253 3577 17       		.uleb128 0x17
 10254 3578 94000000 		.4byte	0x94
 10255 357c 17       		.uleb128 0x17
 10256 357d 62000000 		.4byte	0x62
 10257 3581 17       		.uleb128 0x17
 10258 3582 D4330000 		.4byte	0x33d4
 10259 3586 00       		.byte	0
 10260 3587 07       		.uleb128 0x7
 10261 3588 04       		.byte	0x4
 10262 3589 69350000 		.4byte	0x3569
 10263 358d 16       		.uleb128 0x16
 10264 358e 94000000 		.4byte	0x94
 10265 3592 B0350000 		.4byte	0x35b0
 10266 3596 17       		.uleb128 0x17
 10267 3597 D5340000 		.4byte	0x34d5
 10268 359b 17       		.uleb128 0x17
 10269 359c A1320000 		.4byte	0x32a1
 10270 35a0 17       		.uleb128 0x17
 10271 35a1 F2000000 		.4byte	0xf2
 10272 35a5 17       		.uleb128 0x17
 10273 35a6 A1320000 		.4byte	0x32a1
 10274 35aa 17       		.uleb128 0x17
 10275 35ab F2000000 		.4byte	0xf2
 10276 35af 00       		.byte	0
 10277 35b0 07       		.uleb128 0x7
ARM GAS  /tmp/cccFXynL.s 			page 182


 10278 35b1 04       		.byte	0x4
 10279 35b2 8D350000 		.4byte	0x358d
 10280 35b6 16       		.uleb128 0x16
 10281 35b7 94000000 		.4byte	0x94
 10282 35bb CF350000 		.4byte	0x35cf
 10283 35bf 17       		.uleb128 0x17
 10284 35c0 D5340000 		.4byte	0x34d5
 10285 35c4 17       		.uleb128 0x17
 10286 35c5 A1320000 		.4byte	0x32a1
 10287 35c9 17       		.uleb128 0x17
 10288 35ca F2000000 		.4byte	0xf2
 10289 35ce 00       		.byte	0
 10290 35cf 07       		.uleb128 0x7
 10291 35d0 04       		.byte	0x4
 10292 35d1 B6350000 		.4byte	0x35b6
 10293 35d5 16       		.uleb128 0x16
 10294 35d6 94000000 		.4byte	0x94
 10295 35da F3350000 		.4byte	0x35f3
 10296 35de 17       		.uleb128 0x17
 10297 35df D5340000 		.4byte	0x34d5
 10298 35e3 17       		.uleb128 0x17
 10299 35e4 A1320000 		.4byte	0x32a1
 10300 35e8 17       		.uleb128 0x17
 10301 35e9 F2000000 		.4byte	0xf2
 10302 35ed 17       		.uleb128 0x17
 10303 35ee A1320000 		.4byte	0x32a1
 10304 35f2 00       		.byte	0
 10305 35f3 07       		.uleb128 0x7
 10306 35f4 04       		.byte	0x4
 10307 35f5 D5350000 		.4byte	0x35d5
 10308 35f9 16       		.uleb128 0x16
 10309 35fa 94000000 		.4byte	0x94
 10310 35fe 12360000 		.4byte	0x3612
 10311 3602 17       		.uleb128 0x17
 10312 3603 D5340000 		.4byte	0x34d5
 10313 3607 17       		.uleb128 0x17
 10314 3608 94000000 		.4byte	0x94
 10315 360c 17       		.uleb128 0x17
 10316 360d A1320000 		.4byte	0x32a1
 10317 3611 00       		.byte	0
 10318 3612 07       		.uleb128 0x7
 10319 3613 04       		.byte	0x4
 10320 3614 F9350000 		.4byte	0x35f9
 10321 3618 16       		.uleb128 0x16
 10322 3619 94000000 		.4byte	0x94
 10323 361d 31360000 		.4byte	0x3631
 10324 3621 17       		.uleb128 0x17
 10325 3622 D5340000 		.4byte	0x34d5
 10326 3626 17       		.uleb128 0x17
 10327 3627 A1320000 		.4byte	0x32a1
 10328 362b 17       		.uleb128 0x17
 10329 362c A1320000 		.4byte	0x32a1
 10330 3630 00       		.byte	0
 10331 3631 07       		.uleb128 0x7
 10332 3632 04       		.byte	0x4
 10333 3633 18360000 		.4byte	0x3618
 10334 3637 22       		.uleb128 0x22
ARM GAS  /tmp/cccFXynL.s 			page 183


 10335 3638 270B0000 		.4byte	.LASF768
 10336 363c 34       		.byte	0x34
 10337 363d 18       		.byte	0x18
 10338 363e DB340000 		.4byte	0x34db
 10339 3642 11       		.uleb128 0x11
 10340 3643 B9130000 		.4byte	.LASF769
 10341 3647 0C       		.byte	0xc
 10342 3648 34       		.byte	0x34
 10343 3649 1B       		.byte	0x1b
 10344 364a 73360000 		.4byte	0x3673
 10345 364e 0F       		.uleb128 0xf
 10346 364f 37130000 		.4byte	.LASF770
 10347 3653 34       		.byte	0x34
 10348 3654 1C       		.byte	0x1c
 10349 3655 A1320000 		.4byte	0x32a1
 10350 3659 00       		.byte	0
 10351 365a 0F       		.uleb128 0xf
 10352 365b 5E020000 		.4byte	.LASF771
 10353 365f 34       		.byte	0x34
 10354 3660 1D       		.byte	0x1d
 10355 3661 F2000000 		.4byte	0xf2
 10356 3665 04       		.byte	0x4
 10357 3666 0F       		.uleb128 0xf
 10358 3667 51020000 		.4byte	.LASF703
 10359 366b 34       		.byte	0x34
 10360 366c 1E       		.byte	0x1e
 10361 366d 73360000 		.4byte	0x3673
 10362 3671 08       		.byte	0x8
 10363 3672 00       		.byte	0
 10364 3673 07       		.uleb128 0x7
 10365 3674 04       		.byte	0x4
 10366 3675 42360000 		.4byte	0x3642
 10367 3679 03       		.uleb128 0x3
 10368 367a 991A0000 		.4byte	.LASF772
 10369 367e 34       		.byte	0x34
 10370 367f 22       		.byte	0x22
 10371 3680 84360000 		.4byte	0x3684
 10372 3684 07       		.uleb128 0x7
 10373 3685 04       		.byte	0x4
 10374 3686 8A360000 		.4byte	0x368a
 10375 368a 16       		.uleb128 0x16
 10376 368b 94000000 		.4byte	0x94
 10377 368f A3360000 		.4byte	0x36a3
 10378 3693 17       		.uleb128 0x17
 10379 3694 A3360000 		.4byte	0x36a3
 10380 3698 17       		.uleb128 0x17
 10381 3699 A1320000 		.4byte	0x32a1
 10382 369d 17       		.uleb128 0x17
 10383 369e F2000000 		.4byte	0xf2
 10384 36a2 00       		.byte	0
 10385 36a3 07       		.uleb128 0x7
 10386 36a4 04       		.byte	0x4
 10387 36a5 A9360000 		.4byte	0x36a9
 10388 36a9 11       		.uleb128 0x11
 10389 36aa 32030000 		.4byte	.LASF773
 10390 36ae 30       		.byte	0x30
 10391 36af 34       		.byte	0x34
ARM GAS  /tmp/cccFXynL.s 			page 184


 10392 36b0 26       		.byte	0x26
 10393 36b1 44370000 		.4byte	0x3744
 10394 36b5 0F       		.uleb128 0xf
 10395 36b6 37130000 		.4byte	.LASF770
 10396 36ba 34       		.byte	0x34
 10397 36bb 27       		.byte	0x27
 10398 36bc A1320000 		.4byte	0x32a1
 10399 36c0 00       		.byte	0
 10400 36c1 0F       		.uleb128 0xf
 10401 36c2 5E020000 		.4byte	.LASF771
 10402 36c6 34       		.byte	0x34
 10403 36c7 28       		.byte	0x28
 10404 36c8 F2000000 		.4byte	0xf2
 10405 36cc 04       		.byte	0x4
 10406 36cd 0F       		.uleb128 0xf
 10407 36ce 3D130000 		.4byte	.LASF774
 10408 36d2 34       		.byte	0x34
 10409 36d3 29       		.byte	0x29
 10410 36d4 F2000000 		.4byte	0xf2
 10411 36d8 08       		.byte	0x8
 10412 36d9 0F       		.uleb128 0xf
 10413 36da B91E0000 		.4byte	.LASF775
 10414 36de 34       		.byte	0x34
 10415 36df 2A       		.byte	0x2a
 10416 36e0 79360000 		.4byte	0x3679
 10417 36e4 0C       		.byte	0xc
 10418 36e5 0F       		.uleb128 0xf
 10419 36e6 66190000 		.4byte	.LASF457
 10420 36ea 34       		.byte	0x34
 10421 36eb 2B       		.byte	0x2b
 10422 36ec 44370000 		.4byte	0x3744
 10423 36f0 10       		.byte	0x10
 10424 36f1 0F       		.uleb128 0xf
 10425 36f2 E3070000 		.4byte	.LASF776
 10426 36f6 34       		.byte	0x34
 10427 36f7 2C       		.byte	0x2c
 10428 36f8 73370000 		.4byte	0x3773
 10429 36fc 14       		.byte	0x14
 10430 36fd 12       		.uleb128 0x12
 10431 36fe 7400     		.ascii	"t\000"
 10432 3700 34       		.byte	0x34
 10433 3701 2D       		.byte	0x2d
 10434 3702 DB340000 		.4byte	0x34db
 10435 3706 18       		.byte	0x18
 10436 3707 0F       		.uleb128 0xf
 10437 3708 AA000000 		.4byte	.LASF777
 10438 370c 34       		.byte	0x34
 10439 370d 2E       		.byte	0x2e
 10440 370e A7000000 		.4byte	0xa7
 10441 3712 1C       		.byte	0x1c
 10442 3713 0F       		.uleb128 0xf
 10443 3714 FB1D0000 		.4byte	.LASF778
 10444 3718 34       		.byte	0x34
 10445 3719 2F       		.byte	0x2f
 10446 371a F2000000 		.4byte	0xf2
 10447 371e 20       		.byte	0x20
 10448 371f 0F       		.uleb128 0xf
ARM GAS  /tmp/cccFXynL.s 			page 185


 10449 3720 51020000 		.4byte	.LASF703
 10450 3724 34       		.byte	0x34
 10451 3725 30       		.byte	0x30
 10452 3726 A3360000 		.4byte	0x36a3
 10453 372a 24       		.byte	0x24
 10454 372b 0F       		.uleb128 0xf
 10455 372c EA080000 		.4byte	.LASF779
 10456 3730 34       		.byte	0x34
 10457 3731 31       		.byte	0x31
 10458 3732 A1320000 		.4byte	0x32a1
 10459 3736 28       		.byte	0x28
 10460 3737 12       		.uleb128 0x12
 10461 3738 62756600 		.ascii	"buf\000"
 10462 373c 34       		.byte	0x34
 10463 373d 32       		.byte	0x32
 10464 373e AB010000 		.4byte	0x1ab
 10465 3742 2C       		.byte	0x2c
 10466 3743 00       		.byte	0
 10467 3744 03       		.uleb128 0x3
 10468 3745 AB220000 		.4byte	.LASF780
 10469 3749 34       		.byte	0x34
 10470 374a 23       		.byte	0x23
 10471 374b 4F370000 		.4byte	0x374f
 10472 374f 07       		.uleb128 0x7
 10473 3750 04       		.byte	0x4
 10474 3751 55370000 		.4byte	0x3755
 10475 3755 16       		.uleb128 0x16
 10476 3756 94000000 		.4byte	0x94
 10477 375a 73370000 		.4byte	0x3773
 10478 375e 17       		.uleb128 0x17
 10479 375f A3360000 		.4byte	0x36a3
 10480 3763 17       		.uleb128 0x17
 10481 3764 A1320000 		.4byte	0x32a1
 10482 3768 17       		.uleb128 0x17
 10483 3769 34090000 		.4byte	0x934
 10484 376d 17       		.uleb128 0x17
 10485 376e F2000000 		.4byte	0xf2
 10486 3772 00       		.byte	0
 10487 3773 03       		.uleb128 0x3
 10488 3774 EE230000 		.4byte	.LASF781
 10489 3778 34       		.byte	0x34
 10490 3779 25       		.byte	0x25
 10491 377a 7E370000 		.4byte	0x377e
 10492 377e 07       		.uleb128 0x7
 10493 377f 04       		.byte	0x4
 10494 3780 84370000 		.4byte	0x3784
 10495 3784 16       		.uleb128 0x16
 10496 3785 94000000 		.4byte	0x94
 10497 3789 93370000 		.4byte	0x3793
 10498 378d 17       		.uleb128 0x17
 10499 378e A3360000 		.4byte	0x36a3
 10500 3792 00       		.byte	0
 10501 3793 03       		.uleb128 0x3
 10502 3794 34210000 		.4byte	.LASF782
 10503 3798 34       		.byte	0x34
 10504 3799 35       		.byte	0x35
 10505 379a 9E370000 		.4byte	0x379e
ARM GAS  /tmp/cccFXynL.s 			page 186


 10506 379e 07       		.uleb128 0x7
 10507 379f 04       		.byte	0x4
 10508 37a0 A4370000 		.4byte	0x37a4
 10509 37a4 16       		.uleb128 0x16
 10510 37a5 30170000 		.4byte	0x1730
 10511 37a9 BD370000 		.4byte	0x37bd
 10512 37ad 17       		.uleb128 0x17
 10513 37ae DB340000 		.4byte	0x34db
 10514 37b2 17       		.uleb128 0x17
 10515 37b3 94000000 		.4byte	0x94
 10516 37b7 17       		.uleb128 0x17
 10517 37b8 BD370000 		.4byte	0x37bd
 10518 37bc 00       		.byte	0
 10519 37bd 07       		.uleb128 0x7
 10520 37be 04       		.byte	0x4
 10521 37bf 2B060000 		.4byte	0x62b
 10522 37c3 11       		.uleb128 0x11
 10523 37c4 A3090000 		.4byte	.LASF783
 10524 37c8 0C       		.byte	0xc
 10525 37c9 34       		.byte	0x34
 10526 37ca 37       		.byte	0x37
 10527 37cb F4370000 		.4byte	0x37f4
 10528 37cf 12       		.uleb128 0x12
 10529 37d0 636D6400 		.ascii	"cmd\000"
 10530 37d4 34       		.byte	0x34
 10531 37d5 38       		.byte	0x38
 10532 37d6 2B060000 		.4byte	0x62b
 10533 37da 00       		.byte	0
 10534 37db 0F       		.uleb128 0xf
 10535 37dc 58240000 		.4byte	.LASF784
 10536 37e0 34       		.byte	0x34
 10537 37e1 39       		.byte	0x39
 10538 37e2 93370000 		.4byte	0x3793
 10539 37e6 04       		.byte	0x4
 10540 37e7 0F       		.uleb128 0xf
 10541 37e8 29190000 		.4byte	.LASF785
 10542 37ec 34       		.byte	0x34
 10543 37ed 3A       		.byte	0x3a
 10544 37ee 2B060000 		.4byte	0x62b
 10545 37f2 08       		.byte	0x8
 10546 37f3 00       		.byte	0
 10547 37f4 05       		.uleb128 0x5
 10548 37f5 C3370000 		.4byte	0x37c3
 10549 37f9 11       		.uleb128 0x11
 10550 37fa D7170000 		.4byte	.LASF786
 10551 37fe 0C       		.byte	0xc
 10552 37ff 34       		.byte	0x34
 10553 3800 3D       		.byte	0x3d
 10554 3801 2A380000 		.4byte	0x382a
 10555 3805 0F       		.uleb128 0xf
 10556 3806 6E000000 		.4byte	.LASF787
 10557 380a 34       		.byte	0x34
 10558 380b 3E       		.byte	0x3e
 10559 380c 2B060000 		.4byte	0x62b
 10560 3810 00       		.byte	0
 10561 3811 0F       		.uleb128 0xf
 10562 3812 E1240000 		.4byte	.LASF788
ARM GAS  /tmp/cccFXynL.s 			page 187


 10563 3816 34       		.byte	0x34
 10564 3817 3F       		.byte	0x3f
 10565 3818 2A380000 		.4byte	0x382a
 10566 381c 04       		.byte	0x4
 10567 381d 0F       		.uleb128 0xf
 10568 381e 51020000 		.4byte	.LASF703
 10569 3822 34       		.byte	0x34
 10570 3823 40       		.byte	0x40
 10571 3824 30380000 		.4byte	0x3830
 10572 3828 08       		.byte	0x8
 10573 3829 00       		.byte	0
 10574 382a 07       		.uleb128 0x7
 10575 382b 04       		.byte	0x4
 10576 382c F4370000 		.4byte	0x37f4
 10577 3830 07       		.uleb128 0x7
 10578 3831 04       		.byte	0x4
 10579 3832 F9370000 		.4byte	0x37f9
 10580 3836 11       		.uleb128 0x11
 10581 3837 CE060000 		.4byte	.LASF789
 10582 383b 20       		.byte	0x20
 10583 383c 34       		.byte	0x34
 10584 383d 43       		.byte	0x43
 10585 383e 7F380000 		.4byte	0x387f
 10586 3842 0F       		.uleb128 0xf
 10587 3843 51020000 		.4byte	.LASF703
 10588 3847 34       		.byte	0x34
 10589 3848 44       		.byte	0x44
 10590 3849 7F380000 		.4byte	0x387f
 10591 384d 00       		.byte	0
 10592 384e 0F       		.uleb128 0xf
 10593 384f B1070000 		.4byte	.LASF643
 10594 3853 34       		.byte	0x34
 10595 3854 45       		.byte	0x45
 10596 3855 E8320000 		.4byte	0x32e8
 10597 3859 04       		.byte	0x4
 10598 385a 0F       		.uleb128 0xf
 10599 385b 41100000 		.4byte	.LASF403
 10600 385f 34       		.byte	0x34
 10601 3860 46       		.byte	0x46
 10602 3861 A1320000 		.4byte	0x32a1
 10603 3865 08       		.byte	0x8
 10604 3866 0F       		.uleb128 0xf
 10605 3867 C60E0000 		.4byte	.LASF790
 10606 386b 34       		.byte	0x34
 10607 386c 47       		.byte	0x47
 10608 386d F2000000 		.4byte	0xf2
 10609 3871 0C       		.byte	0xc
 10610 3872 0F       		.uleb128 0xf
 10611 3873 38000000 		.4byte	.LASF791
 10612 3877 34       		.byte	0x34
 10613 3878 48       		.byte	0x48
 10614 3879 85380000 		.4byte	0x3885
 10615 387d 10       		.byte	0x10
 10616 387e 00       		.byte	0
 10617 387f 07       		.uleb128 0x7
 10618 3880 04       		.byte	0x4
 10619 3881 36380000 		.4byte	0x3836
ARM GAS  /tmp/cccFXynL.s 			page 188


 10620 3885 0C       		.uleb128 0xc
 10621 3886 D2000000 		.4byte	0xd2
 10622 388a 95380000 		.4byte	0x3895
 10623 388e 0D       		.uleb128 0xd
 10624 388f 9B000000 		.4byte	0x9b
 10625 3893 03       		.byte	0x3
 10626 3894 00       		.byte	0
 10627 3895 16       		.uleb128 0x16
 10628 3896 30170000 		.4byte	0x1730
 10629 389a A4380000 		.4byte	0x38a4
 10630 389e 17       		.uleb128 0x17
 10631 389f DB340000 		.4byte	0x34db
 10632 38a3 00       		.byte	0
 10633 38a4 07       		.uleb128 0x7
 10634 38a5 04       		.byte	0x4
 10635 38a6 95380000 		.4byte	0x3895
 10636 38aa 1F       		.uleb128 0x1f
 10637 38ab B5380000 		.4byte	0x38b5
 10638 38af 17       		.uleb128 0x17
 10639 38b0 DB340000 		.4byte	0x34db
 10640 38b4 00       		.byte	0
 10641 38b5 07       		.uleb128 0x7
 10642 38b6 04       		.byte	0x4
 10643 38b7 AA380000 		.4byte	0x38aa
 10644 38bb 1F       		.uleb128 0x1f
 10645 38bc D5380000 		.4byte	0x38d5
 10646 38c0 17       		.uleb128 0x17
 10647 38c1 DB340000 		.4byte	0x34db
 10648 38c5 17       		.uleb128 0x17
 10649 38c6 AB010000 		.4byte	0x1ab
 10650 38ca 17       		.uleb128 0x17
 10651 38cb A1320000 		.4byte	0x32a1
 10652 38cf 17       		.uleb128 0x17
 10653 38d0 F2000000 		.4byte	0xf2
 10654 38d4 00       		.byte	0
 10655 38d5 07       		.uleb128 0x7
 10656 38d6 04       		.byte	0x4
 10657 38d7 BB380000 		.4byte	0x38bb
 10658 38db 1F       		.uleb128 0x1f
 10659 38dc F5380000 		.4byte	0x38f5
 10660 38e0 17       		.uleb128 0x17
 10661 38e1 DB340000 		.4byte	0x34db
 10662 38e5 17       		.uleb128 0x17
 10663 38e6 A1320000 		.4byte	0x32a1
 10664 38ea 17       		.uleb128 0x17
 10665 38eb 34090000 		.4byte	0x934
 10666 38ef 17       		.uleb128 0x17
 10667 38f0 F2000000 		.4byte	0xf2
 10668 38f4 00       		.byte	0
 10669 38f5 07       		.uleb128 0x7
 10670 38f6 04       		.byte	0x4
 10671 38f7 DB380000 		.4byte	0x38db
 10672 38fb 1F       		.uleb128 0x1f
 10673 38fc 0B390000 		.4byte	0x390b
 10674 3900 17       		.uleb128 0x17
 10675 3901 DB340000 		.4byte	0x34db
 10676 3905 17       		.uleb128 0x17
ARM GAS  /tmp/cccFXynL.s 			page 189


 10677 3906 AB010000 		.4byte	0x1ab
 10678 390a 00       		.byte	0
 10679 390b 07       		.uleb128 0x7
 10680 390c 04       		.byte	0x4
 10681 390d FB380000 		.4byte	0x38fb
 10682 3911 1F       		.uleb128 0x1f
 10683 3912 21390000 		.4byte	0x3921
 10684 3916 17       		.uleb128 0x17
 10685 3917 DB340000 		.4byte	0x34db
 10686 391b 17       		.uleb128 0x17
 10687 391c 34090000 		.4byte	0x934
 10688 3920 00       		.byte	0
 10689 3921 07       		.uleb128 0x7
 10690 3922 04       		.byte	0x4
 10691 3923 11390000 		.4byte	0x3911
 10692 3927 16       		.uleb128 0x16
 10693 3928 AC320000 		.4byte	0x32ac
 10694 392c 3B390000 		.4byte	0x393b
 10695 3930 17       		.uleb128 0x17
 10696 3931 DB340000 		.4byte	0x34db
 10697 3935 17       		.uleb128 0x17
 10698 3936 3B390000 		.4byte	0x393b
 10699 393a 00       		.byte	0
 10700 393b 07       		.uleb128 0x7
 10701 393c 04       		.byte	0x4
 10702 393d A1320000 		.4byte	0x32a1
 10703 3941 07       		.uleb128 0x7
 10704 3942 04       		.byte	0x4
 10705 3943 27390000 		.4byte	0x3927
 10706 3947 1F       		.uleb128 0x1f
 10707 3948 57390000 		.4byte	0x3957
 10708 394c 17       		.uleb128 0x17
 10709 394d DB340000 		.4byte	0x34db
 10710 3951 17       		.uleb128 0x17
 10711 3952 30170000 		.4byte	0x1730
 10712 3956 00       		.byte	0
 10713 3957 07       		.uleb128 0x7
 10714 3958 04       		.byte	0x4
 10715 3959 47390000 		.4byte	0x3947
 10716 395d 16       		.uleb128 0x16
 10717 395e 94000000 		.4byte	0x94
 10718 3962 71390000 		.4byte	0x3971
 10719 3966 17       		.uleb128 0x17
 10720 3967 DB340000 		.4byte	0x34db
 10721 396b 17       		.uleb128 0x17
 10722 396c 7F380000 		.4byte	0x387f
 10723 3970 00       		.byte	0
 10724 3971 07       		.uleb128 0x7
 10725 3972 04       		.byte	0x4
 10726 3973 5D390000 		.4byte	0x395d
 10727 3977 07       		.uleb128 0x7
 10728 3978 04       		.byte	0x4
 10729 3979 39310000 		.4byte	0x3139
 10730 397d 22       		.uleb128 0x22
 10731 397e 390F0000 		.4byte	.LASF792
 10732 3982 35       		.byte	0x35
 10733 3983 19       		.byte	0x19
ARM GAS  /tmp/cccFXynL.s 			page 190


 10734 3984 62000000 		.4byte	0x62
 10735 3988 22       		.uleb128 0x22
 10736 3989 9B090000 		.4byte	.LASF793
 10737 398d 36       		.byte	0x36
 10738 398e 10       		.byte	0x10
 10739 398f 93390000 		.4byte	0x3993
 10740 3993 07       		.uleb128 0x7
 10741 3994 04       		.byte	0x4
 10742 3995 AD010000 		.4byte	0x1ad
 10743 3999 22       		.uleb128 0x22
 10744 399a 38070000 		.4byte	.LASF794
 10745 399e 36       		.byte	0x36
 10746 399f FC       		.byte	0xfc
 10747 39a0 AD010000 		.4byte	0x1ad
 10748 39a4 22       		.uleb128 0x22
 10749 39a5 FE230000 		.4byte	.LASF795
 10750 39a9 36       		.byte	0x36
 10751 39aa FD       		.byte	0xfd
 10752 39ab 94000000 		.4byte	0x94
 10753 39af 22       		.uleb128 0x22
 10754 39b0 AD170000 		.4byte	.LASF796
 10755 39b4 36       		.byte	0x36
 10756 39b5 FD       		.byte	0xfd
 10757 39b6 94000000 		.4byte	0x94
 10758 39ba 22       		.uleb128 0x22
 10759 39bb 72150000 		.4byte	.LASF797
 10760 39bf 36       		.byte	0x36
 10761 39c0 FD       		.byte	0xfd
 10762 39c1 94000000 		.4byte	0x94
 10763 39c5 22       		.uleb128 0x22
 10764 39c6 79080000 		.4byte	.LASF798
 10765 39ca 36       		.byte	0x36
 10766 39cb FF       		.byte	0xff
 10767 39cc 94000000 		.4byte	0x94
 10768 39d0 0C       		.uleb128 0xc
 10769 39d1 BA010000 		.4byte	0x1ba
 10770 39d5 E0390000 		.4byte	0x39e0
 10771 39d9 0D       		.uleb128 0xd
 10772 39da 9B000000 		.4byte	0x9b
 10773 39de 0C       		.byte	0xc
 10774 39df 00       		.byte	0
 10775 39e0 05       		.uleb128 0x5
 10776 39e1 D0390000 		.4byte	0x39d0
 10777 39e5 33       		.uleb128 0x33
 10778 39e6 1E090000 		.4byte	.LASF811
 10779 39ea 01       		.byte	0x1
 10780 39eb 26       		.byte	0x26
 10781 39ec E0390000 		.4byte	0x39e0
 10782 39f0 05       		.uleb128 0x5
 10783 39f1 03       		.byte	0x3
 10784 39f2 00000000 		.4byte	cortexm_driver_str
 10785 39f6 0C       		.uleb128 0xc
 10786 39f7 F4370000 		.4byte	0x37f4
 10787 39fb 063A0000 		.4byte	0x3a06
 10788 39ff 0D       		.uleb128 0xd
 10789 3a00 9B000000 		.4byte	0x9b
 10790 3a04 01       		.byte	0x1
ARM GAS  /tmp/cccFXynL.s 			page 191


 10791 3a05 00       		.byte	0
 10792 3a06 05       		.uleb128 0x5
 10793 3a07 F6390000 		.4byte	0x39f6
 10794 3a0b 34       		.uleb128 0x34
 10795 3a0c FF020000 		.4byte	.LASF799
 10796 3a10 01       		.byte	0x1
 10797 3a11 2A       		.byte	0x2a
 10798 3a12 063A0000 		.4byte	0x3a06
 10799 3a16 05       		.uleb128 0x5
 10800 3a17 03       		.byte	0x3
 10801 3a18 00000000 		.4byte	cortexm_cmd_list
 10802 3a1c 11       		.uleb128 0x11
 10803 3a1d 9C110000 		.4byte	.LASF800
 10804 3a21 2C       		.byte	0x2c
 10805 3a22 01       		.byte	0x1
 10806 3a23 43       		.byte	0x43
 10807 3a24 AC3A0000 		.4byte	0x3aac
 10808 3a28 12       		.uleb128 0x12
 10809 3a29 617000   		.ascii	"ap\000"
 10810 3a2c 01       		.byte	0x1
 10811 3a2d 44       		.byte	0x44
 10812 3a2e AC3A0000 		.4byte	0x3aac
 10813 3a32 00       		.byte	0
 10814 3a33 0F       		.uleb128 0xf
 10815 3a34 C7140000 		.4byte	.LASF801
 10816 3a38 01       		.byte	0x1
 10817 3a39 45       		.byte	0x45
 10818 3a3a 30170000 		.4byte	0x1730
 10819 3a3e 04       		.byte	0x4
 10820 3a3f 0F       		.uleb128 0xf
 10821 3a40 590B0000 		.4byte	.LASF802
 10822 3a44 01       		.byte	0x1
 10823 3a45 46       		.byte	0x46
 10824 3a46 30170000 		.4byte	0x1730
 10825 3a4a 05       		.byte	0x5
 10826 3a4b 0F       		.uleb128 0xf
 10827 3a4c C21C0000 		.4byte	.LASF803
 10828 3a50 01       		.byte	0x1
 10829 3a51 48       		.byte	0x48
 10830 3a52 B23A0000 		.4byte	0x3ab2
 10831 3a56 06       		.byte	0x6
 10832 3a57 0F       		.uleb128 0xf
 10833 3a58 EF1A0000 		.4byte	.LASF804
 10834 3a5c 01       		.byte	0x1
 10835 3a5d 49       		.byte	0x49
 10836 3a5e 9B000000 		.4byte	0x9b
 10837 3a62 0C       		.byte	0xc
 10838 3a63 0F       		.uleb128 0xf
 10839 3a64 8E160000 		.4byte	.LASF805
 10840 3a68 01       		.byte	0x1
 10841 3a69 4A       		.byte	0x4a
 10842 3a6a 9B000000 		.4byte	0x9b
 10843 3a6e 10       		.byte	0x10
 10844 3a6f 0F       		.uleb128 0xf
 10845 3a70 4E030000 		.4byte	.LASF806
 10846 3a74 01       		.byte	0x1
 10847 3a75 4C       		.byte	0x4c
ARM GAS  /tmp/cccFXynL.s 			page 192


 10848 3a76 C23A0000 		.4byte	0x3ac2
 10849 3a7a 14       		.byte	0x14
 10850 3a7b 0F       		.uleb128 0xf
 10851 3a7c AB260000 		.4byte	.LASF807
 10852 3a80 01       		.byte	0x1
 10853 3a81 4D       		.byte	0x4d
 10854 3a82 9B000000 		.4byte	0x9b
 10855 3a86 1C       		.byte	0x1c
 10856 3a87 0F       		.uleb128 0xf
 10857 3a88 F9020000 		.4byte	.LASF808
 10858 3a8c 01       		.byte	0x1
 10859 3a8d 4F       		.byte	0x4f
 10860 3a8e D2000000 		.4byte	0xd2
 10861 3a92 20       		.byte	0x20
 10862 3a93 0F       		.uleb128 0xf
 10863 3a94 9C070000 		.4byte	.LASF809
 10864 3a98 01       		.byte	0x1
 10865 3a99 51       		.byte	0x51
 10866 3a9a 30170000 		.4byte	0x1730
 10867 3a9e 24       		.byte	0x24
 10868 3a9f 0F       		.uleb128 0xf
 10869 3aa0 A2020000 		.4byte	.LASF810
 10870 3aa4 01       		.byte	0x1
 10871 3aa5 52       		.byte	0x52
 10872 3aa6 D2000000 		.4byte	0xd2
 10873 3aaa 28       		.byte	0x28
 10874 3aab 00       		.byte	0
 10875 3aac 07       		.uleb128 0x7
 10876 3aad 04       		.byte	0x4
 10877 3aae 23310000 		.4byte	0x3123
 10878 3ab2 0C       		.uleb128 0xc
 10879 3ab3 30170000 		.4byte	0x1730
 10880 3ab7 C23A0000 		.4byte	0x3ac2
 10881 3abb 0D       		.uleb128 0xd
 10882 3abc 9B000000 		.4byte	0x9b
 10883 3ac0 03       		.byte	0x3
 10884 3ac1 00       		.byte	0
 10885 3ac2 0C       		.uleb128 0xc
 10886 3ac3 30170000 		.4byte	0x1730
 10887 3ac7 D23A0000 		.4byte	0x3ad2
 10888 3acb 0D       		.uleb128 0xd
 10889 3acc 9B000000 		.4byte	0x9b
 10890 3ad0 05       		.byte	0x5
 10891 3ad1 00       		.byte	0
 10892 3ad2 0C       		.uleb128 0xc
 10893 3ad3 E2000000 		.4byte	0xe2
 10894 3ad7 E23A0000 		.4byte	0x3ae2
 10895 3adb 0D       		.uleb128 0xd
 10896 3adc 9B000000 		.4byte	0x9b
 10897 3ae0 13       		.byte	0x13
 10898 3ae1 00       		.byte	0
 10899 3ae2 05       		.uleb128 0x5
 10900 3ae3 D23A0000 		.4byte	0x3ad2
 10901 3ae7 33       		.uleb128 0x33
 10902 3ae8 1D210000 		.4byte	.LASF812
 10903 3aec 01       		.byte	0x1
 10904 3aed 56       		.byte	0x56
ARM GAS  /tmp/cccFXynL.s 			page 193


 10905 3aee E23A0000 		.4byte	0x3ae2
 10906 3af2 05       		.uleb128 0x5
 10907 3af3 03       		.byte	0x3
 10908 3af4 00000000 		.4byte	regnum_cortex_m
 10909 3af8 0C       		.uleb128 0xc
 10910 3af9 E2000000 		.4byte	0xe2
 10911 3afd 083B0000 		.4byte	0x3b08
 10912 3b01 0D       		.uleb128 0xd
 10913 3b02 9B000000 		.4byte	0x9b
 10914 3b06 20       		.byte	0x20
 10915 3b07 00       		.byte	0
 10916 3b08 05       		.uleb128 0x5
 10917 3b09 F83A0000 		.4byte	0x3af8
 10918 3b0d 33       		.uleb128 0x33
 10919 3b0e FC180000 		.4byte	.LASF813
 10920 3b12 01       		.byte	0x1
 10921 3b13 5E       		.byte	0x5e
 10922 3b14 083B0000 		.4byte	0x3b08
 10923 3b18 05       		.uleb128 0x5
 10924 3b19 03       		.byte	0x3
 10925 3b1a 00000000 		.4byte	regnum_cortex_mf
 10926 3b1e 0C       		.uleb128 0xc
 10927 3b1f BA010000 		.4byte	0x1ba
 10928 3b23 2E3B0000 		.4byte	0x3b2e
 10929 3b27 0D       		.uleb128 0xd
 10930 3b28 9B000000 		.4byte	0x9b
 10931 3b2c 07       		.byte	0x7
 10932 3b2d 00       		.byte	0
 10933 3b2e 05       		.uleb128 0x5
 10934 3b2f 1E3B0000 		.4byte	0x3b1e
 10935 3b33 33       		.uleb128 0x33
 10936 3b34 FE1B0000 		.4byte	.LASF814
 10937 3b38 01       		.byte	0x1
 10938 3b39 86       		.byte	0x86
 10939 3b3a 2E3B0000 		.4byte	0x3b2e
 10940 3b3e 05       		.uleb128 0x5
 10941 3b3f 03       		.byte	0x3
 10942 3b40 00000000 		.4byte	tdesc_cortex_m
 10943 3b44 33       		.uleb128 0x33
 10944 3b45 C0250000 		.4byte	.LASF815
 10945 3b49 01       		.byte	0x1
 10946 3b4a BB       		.byte	0xbb
 10947 3b4b 2E3B0000 		.4byte	0x3b2e
 10948 3b4f 05       		.uleb128 0x5
 10949 3b50 03       		.byte	0x3
 10950 3b51 00000000 		.4byte	tdesc_cortex_mf
 10951 3b55 2B       		.uleb128 0x2b
 10952 3b56 07       		.byte	0x7
 10953 3b57 01       		.byte	0x1
 10954 3b58 37000000 		.4byte	0x37
 10955 3b5c 01       		.byte	0x1
 10956 3b5d 9C01     		.2byte	0x19c
 10957 3b5f 7C3B0000 		.4byte	0x3b7c
 10958 3b63 2A       		.uleb128 0x2a
 10959 3b64 77220000 		.4byte	.LASF816
 10960 3b68 00       		.byte	0
 10961 3b69 2A       		.uleb128 0x2a
ARM GAS  /tmp/cccFXynL.s 			page 194


 10962 3b6a 1A240000 		.4byte	.LASF817
 10963 3b6e 01       		.byte	0x1
 10964 3b6f 2A       		.uleb128 0x2a
 10965 3b70 421A0000 		.4byte	.LASF818
 10966 3b74 02       		.byte	0x2
 10967 3b75 2A       		.uleb128 0x2a
 10968 3b76 73040000 		.4byte	.LASF819
 10969 3b7a 03       		.byte	0x3
 10970 3b7b 00       		.byte	0
 10971 3b7c 35       		.uleb128 0x35
 10972 3b7d FD0E0000 		.4byte	.LASF829
 10973 3b81 01       		.byte	0x1
 10974 3b82 9F03     		.2byte	0x39f
 10975 3b84 94000000 		.4byte	0x94
 10976 3b88 01       		.byte	0x1
 10977 3b89 EE3B0000 		.4byte	0x3bee
 10978 3b8d 36       		.uleb128 0x36
 10979 3b8e 7400     		.ascii	"t\000"
 10980 3b90 01       		.byte	0x1
 10981 3b91 9F03     		.2byte	0x39f
 10982 3b93 DB340000 		.4byte	0x34db
 10983 3b97 37       		.uleb128 0x37
 10984 3b98 6C1B0000 		.4byte	.LASF820
 10985 3b9c 01       		.byte	0x1
 10986 3b9d A103     		.2byte	0x3a1
 10987 3b9f EE3B0000 		.4byte	0x3bee
 10988 3ba3 37       		.uleb128 0x37
 10989 3ba4 69120000 		.4byte	.LASF821
 10990 3ba8 01       		.byte	0x1
 10991 3ba9 A203     		.2byte	0x3a2
 10992 3bab 85380000 		.4byte	0x3885
 10993 3baf 37       		.uleb128 0x37
 10994 3bb0 D50E0000 		.4byte	.LASF822
 10995 3bb4 01       		.byte	0x1
 10996 3bb5 A703     		.2byte	0x3a7
 10997 3bb7 D2000000 		.4byte	0xd2
 10998 3bbb 38       		.uleb128 0x38
 10999 3bbc 72657400 		.ascii	"ret\000"
 11000 3bc0 01       		.byte	0x1
 11001 3bc1 A803     		.2byte	0x3a8
 11002 3bc3 C2000000 		.4byte	0xc2
 11003 3bc7 39       		.uleb128 0x39
 11004 3bc8 37       		.uleb128 0x37
 11005 3bc9 82270000 		.4byte	.LASF823
 11006 3bcd 01       		.byte	0x1
 11007 3bce B003     		.2byte	0x3b0
 11008 3bd0 0D3C0000 		.4byte	0x3c0d
 11009 3bd4 37       		.uleb128 0x37
 11010 3bd5 7D070000 		.4byte	.LASF824
 11011 3bd9 01       		.byte	0x1
 11012 3bda B803     		.2byte	0x3b8
 11013 3bdc D2000000 		.4byte	0xd2
 11014 3be0 37       		.uleb128 0x37
 11015 3be1 BC160000 		.4byte	.LASF825
 11016 3be5 01       		.byte	0x1
 11017 3be6 B903     		.2byte	0x3b9
 11018 3be8 46150000 		.4byte	0x1546
ARM GAS  /tmp/cccFXynL.s 			page 195


 11019 3bec 00       		.byte	0
 11020 3bed 00       		.byte	0
 11021 3bee 0C       		.uleb128 0xc
 11022 3bef D2000000 		.4byte	0xd2
 11023 3bf3 FD3B0000 		.4byte	0x3bfd
 11024 3bf7 3A       		.uleb128 0x3a
 11025 3bf8 9B000000 		.4byte	0x9b
 11026 3bfc 00       		.byte	0
 11027 3bfd 0C       		.uleb128 0xc
 11028 3bfe E2000000 		.4byte	0xe2
 11029 3c02 0D3C0000 		.4byte	0x3c0d
 11030 3c06 0D       		.uleb128 0xd
 11031 3c07 9B000000 		.4byte	0x9b
 11032 3c0b 05       		.byte	0x5
 11033 3c0c 00       		.byte	0
 11034 3c0d 05       		.uleb128 0x5
 11035 3c0e FD3B0000 		.4byte	0x3bfd
 11036 3c12 3B       		.uleb128 0x3b
 11037 3c13 24160000 		.4byte	.LASF831
 11038 3c17 01       		.byte	0x1
 11039 3c18 5B03     		.2byte	0x35b
 11040 3c1a 30170000 		.4byte	0x1730
 11041 3c1e 00000000 		.4byte	.LFB289
 11042 3c22 E8000000 		.4byte	.LFE289-.LFB289
 11043 3c26 01       		.uleb128 0x1
 11044 3c27 9C       		.byte	0x9c
 11045 3c28 4B3D0000 		.4byte	0x3d4b
 11046 3c2c 3C       		.uleb128 0x3c
 11047 3c2d 7400     		.ascii	"t\000"
 11048 3c2f 01       		.byte	0x1
 11049 3c30 5B03     		.2byte	0x35b
 11050 3c32 DB340000 		.4byte	0x34db
 11051 3c36 00000000 		.4byte	.LLST2
 11052 3c3a 3D       		.uleb128 0x3d
 11053 3c3b BE060000 		.4byte	.LASF826
 11054 3c3f 01       		.byte	0x1
 11055 3c40 5B03     		.2byte	0x35b
 11056 3c42 94000000 		.4byte	0x94
 11057 3c46 1E000000 		.4byte	.LLST3
 11058 3c4a 3D       		.uleb128 0x3d
 11059 3c4b 331F0000 		.4byte	.LASF827
 11060 3c4f 01       		.byte	0x1
 11061 3c50 5B03     		.2byte	0x35b
 11062 3c52 93390000 		.4byte	0x3993
 11063 3c56 63000000 		.4byte	.LLST4
 11064 3c5a 3E       		.uleb128 0x3e
 11065 3c5b 04020000 		.4byte	.LASF704
 11066 3c5f 01       		.byte	0x1
 11067 3c60 5D03     		.2byte	0x35d
 11068 3c62 4B3D0000 		.4byte	0x3d4b
 11069 3c66 01       		.uleb128 0x1
 11070 3c67 57       		.byte	0x57
 11071 3c68 3E       		.uleb128 0x3e
 11072 3c69 E91C0000 		.4byte	.LASF828
 11073 3c6d 01       		.byte	0x1
 11074 3c6e 5E03     		.2byte	0x35e
 11075 3c70 513D0000 		.4byte	0x3d51
ARM GAS  /tmp/cccFXynL.s 			page 196


 11076 3c74 03       		.uleb128 0x3
 11077 3c75 91       		.byte	0x91
 11078 3c76 AC7F     		.sleb128 -84
 11079 3c78 3F       		.uleb128 0x3f
 11080 3c79 6900     		.ascii	"i\000"
 11081 3c7b 01       		.byte	0x1
 11082 3c7c 6003     		.2byte	0x360
 11083 3c7e 9B000000 		.4byte	0x9b
 11084 3c82 A8000000 		.4byte	.LLST5
 11085 3c86 40       		.uleb128 0x40
 11086 3c87 8A000000 		.4byte	.LBB56
 11087 3c8b 5E000000 		.4byte	.LBE56-.LBB56
 11088 3c8f DD3C0000 		.4byte	0x3cdd
 11089 3c93 41       		.uleb128 0x41
 11090 3c94 746D7000 		.ascii	"tmp\000"
 11091 3c98 01       		.byte	0x1
 11092 3c99 6603     		.2byte	0x366
 11093 3c9b D2000000 		.4byte	0xd2
 11094 3c9f 01       		.uleb128 0x1
 11095 3ca0 56       		.byte	0x56
 11096 3ca1 40       		.uleb128 0x40
 11097 3ca2 8C000000 		.4byte	.LBB57
 11098 3ca6 2C000000 		.4byte	.LBE57-.LBB57
 11099 3caa C23C0000 		.4byte	0x3cc2
 11100 3cae 38       		.uleb128 0x38
 11101 3caf 6A00     		.ascii	"j\000"
 11102 3cb1 01       		.byte	0x1
 11103 3cb2 6803     		.2byte	0x368
 11104 3cb4 94000000 		.4byte	0x94
 11105 3cb8 42       		.uleb128 0x42
 11106 3cb9 A4000000 		.4byte	.LVL17
 11107 3cbd B4590000 		.4byte	0x59b4
 11108 3cc1 00       		.byte	0
 11109 3cc2 43       		.uleb128 0x43
 11110 3cc3 CE000000 		.4byte	.LVL21
 11111 3cc7 BF590000 		.4byte	0x59bf
 11112 3ccb 44       		.uleb128 0x44
 11113 3ccc 01       		.uleb128 0x1
 11114 3ccd 50       		.byte	0x50
 11115 3cce 02       		.uleb128 0x2
 11116 3ccf 78       		.byte	0x78
 11117 3cd0 00       		.sleb128 0
 11118 3cd1 44       		.uleb128 0x44
 11119 3cd2 01       		.uleb128 0x1
 11120 3cd3 51       		.byte	0x51
 11121 3cd4 06       		.uleb128 0x6
 11122 3cd5 11       		.byte	0x11
 11123 3cd6 FCDB8380 		.sleb128 -536809988
 11123      7E
 11124 3cdb 00       		.byte	0
 11125 3cdc 00       		.byte	0
 11126 3cdd 45       		.uleb128 0x45
 11127 3cde 3E000000 		.4byte	.LVL6
 11128 3ce2 CA590000 		.4byte	0x59ca
 11129 3ce6 FA3C0000 		.4byte	0x3cfa
 11130 3cea 44       		.uleb128 0x44
 11131 3ceb 01       		.uleb128 0x1
ARM GAS  /tmp/cccFXynL.s 			page 197


 11132 3cec 50       		.byte	0x50
 11133 3ced 02       		.uleb128 0x2
 11134 3cee 78       		.byte	0x78
 11135 3cef 00       		.sleb128 0
 11136 3cf0 44       		.uleb128 0x44
 11137 3cf1 01       		.uleb128 0x1
 11138 3cf2 51       		.byte	0x51
 11139 3cf3 05       		.uleb128 0x5
 11140 3cf4 03       		.byte	0x3
 11141 3cf5 00000000 		.4byte	.LC11
 11142 3cf9 00       		.byte	0
 11143 3cfa 45       		.uleb128 0x45
 11144 3cfb 48000000 		.4byte	.LVL7
 11145 3cff CA590000 		.4byte	0x59ca
 11146 3d03 173D0000 		.4byte	0x3d17
 11147 3d07 44       		.uleb128 0x44
 11148 3d08 01       		.uleb128 0x1
 11149 3d09 50       		.byte	0x50
 11150 3d0a 02       		.uleb128 0x2
 11151 3d0b 78       		.byte	0x78
 11152 3d0c 00       		.sleb128 0
 11153 3d0d 44       		.uleb128 0x44
 11154 3d0e 01       		.uleb128 0x1
 11155 3d0f 51       		.byte	0x51
 11156 3d10 05       		.uleb128 0x5
 11157 3d11 03       		.byte	0x3
 11158 3d12 54000000 		.4byte	.LC12
 11159 3d16 00       		.byte	0
 11160 3d17 45       		.uleb128 0x45
 11161 3d18 72000000 		.4byte	.LVL11
 11162 3d1c CA590000 		.4byte	0x59ca
 11163 3d20 313D0000 		.4byte	0x3d31
 11164 3d24 44       		.uleb128 0x44
 11165 3d25 01       		.uleb128 0x1
 11166 3d26 50       		.byte	0x50
 11167 3d27 02       		.uleb128 0x2
 11168 3d28 78       		.byte	0x78
 11169 3d29 00       		.sleb128 0
 11170 3d2a 44       		.uleb128 0x44
 11171 3d2b 01       		.uleb128 0x1
 11172 3d2c 51       		.byte	0x51
 11173 3d2d 02       		.uleb128 0x2
 11174 3d2e 76       		.byte	0x76
 11175 3d2f 00       		.sleb128 0
 11176 3d30 00       		.byte	0
 11177 3d31 43       		.uleb128 0x43
 11178 3d32 7E000000 		.4byte	.LVL12
 11179 3d36 CA590000 		.4byte	0x59ca
 11180 3d3a 44       		.uleb128 0x44
 11181 3d3b 01       		.uleb128 0x1
 11182 3d3c 50       		.byte	0x50
 11183 3d3d 02       		.uleb128 0x2
 11184 3d3e 78       		.byte	0x78
 11185 3d3f 00       		.sleb128 0
 11186 3d40 44       		.uleb128 0x44
 11187 3d41 01       		.uleb128 0x1
 11188 3d42 51       		.byte	0x51
ARM GAS  /tmp/cccFXynL.s 			page 198


 11189 3d43 05       		.uleb128 0x5
 11190 3d44 03       		.byte	0x3
 11191 3d45 6C000000 		.4byte	.LC14
 11192 3d49 00       		.byte	0
 11193 3d4a 00       		.byte	0
 11194 3d4b 07       		.uleb128 0x7
 11195 3d4c 04       		.byte	0x4
 11196 3d4d 1C3A0000 		.4byte	0x3a1c
 11197 3d51 0C       		.uleb128 0xc
 11198 3d52 2B060000 		.4byte	0x62b
 11199 3d56 613D0000 		.4byte	0x3d61
 11200 3d5a 0D       		.uleb128 0xd
 11201 3d5b 9B000000 		.4byte	0x9b
 11202 3d5f 0A       		.byte	0xa
 11203 3d60 00       		.byte	0
 11204 3d61 35       		.uleb128 0x35
 11205 3d62 330C0000 		.4byte	.LASF830
 11206 3d66 01       		.byte	0x1
 11207 3d67 4903     		.2byte	0x349
 11208 3d69 A1320000 		.4byte	0x32a1
 11209 3d6d 01       		.byte	0x1
 11210 3d6e 933D0000 		.4byte	0x3d93
 11211 3d72 36       		.uleb128 0x36
 11212 3d73 7400     		.ascii	"t\000"
 11213 3d75 01       		.byte	0x1
 11214 3d76 4903     		.2byte	0x349
 11215 3d78 DB340000 		.4byte	0x34db
 11216 3d7c 37       		.uleb128 0x37
 11217 3d7d 04020000 		.4byte	.LASF704
 11218 3d81 01       		.byte	0x1
 11219 3d82 4B03     		.2byte	0x34b
 11220 3d84 4B3D0000 		.4byte	0x3d4b
 11221 3d88 38       		.uleb128 0x38
 11222 3d89 6900     		.ascii	"i\000"
 11223 3d8b 01       		.byte	0x1
 11224 3d8c 4C03     		.2byte	0x34c
 11225 3d8e 9B000000 		.4byte	0x9b
 11226 3d92 00       		.byte	0
 11227 3d93 3B       		.uleb128 0x3b
 11228 3d94 D01C0000 		.4byte	.LASF832
 11229 3d98 01       		.byte	0x1
 11230 3d99 3503     		.2byte	0x335
 11231 3d9b 94000000 		.4byte	0x94
 11232 3d9f 00000000 		.4byte	.LFB287
 11233 3da3 4C000000 		.4byte	.LFE287-.LFB287
 11234 3da7 01       		.uleb128 0x1
 11235 3da8 9C       		.byte	0x9c
 11236 3da9 143E0000 		.4byte	0x3e14
 11237 3dad 3C       		.uleb128 0x3c
 11238 3dae 7400     		.ascii	"t\000"
 11239 3db0 01       		.byte	0x1
 11240 3db1 3503     		.2byte	0x335
 11241 3db3 DB340000 		.4byte	0x34db
 11242 3db7 F6000000 		.4byte	.LLST6
 11243 3dbb 3C       		.uleb128 0x3c
 11244 3dbc 627700   		.ascii	"bw\000"
 11245 3dbf 01       		.byte	0x1
ARM GAS  /tmp/cccFXynL.s 			page 199


 11246 3dc0 3503     		.2byte	0x335
 11247 3dc2 7F380000 		.4byte	0x387f
 11248 3dc6 49010000 		.4byte	.LLST7
 11249 3dca 46       		.uleb128 0x46
 11250 3dcb 04020000 		.4byte	.LASF704
 11251 3dcf 01       		.byte	0x1
 11252 3dd0 3703     		.2byte	0x337
 11253 3dd2 4B3D0000 		.4byte	0x3d4b
 11254 3dd6 6A010000 		.4byte	.LLST8
 11255 3dda 3F       		.uleb128 0x3f
 11256 3ddb 6900     		.ascii	"i\000"
 11257 3ddd 01       		.byte	0x1
 11258 3dde 3803     		.2byte	0x338
 11259 3de0 9B000000 		.4byte	0x9b
 11260 3de4 A2010000 		.4byte	.LLST9
 11261 3de8 45       		.uleb128 0x45
 11262 3de9 24000000 		.4byte	.LVL27
 11263 3ded BF590000 		.4byte	0x59bf
 11264 3df1 033E0000 		.4byte	0x3e03
 11265 3df5 44       		.uleb128 0x44
 11266 3df6 01       		.uleb128 0x1
 11267 3df7 50       		.byte	0x50
 11268 3df8 03       		.uleb128 0x3
 11269 3df9 F3       		.byte	0xf3
 11270 3dfa 01       		.uleb128 0x1
 11271 3dfb 50       		.byte	0x50
 11272 3dfc 44       		.uleb128 0x44
 11273 3dfd 01       		.uleb128 0x1
 11274 3dfe 52       		.byte	0x52
 11275 3dff 02       		.uleb128 0x2
 11276 3e00 74       		.byte	0x74
 11277 3e01 00       		.sleb128 0
 11278 3e02 00       		.byte	0
 11279 3e03 43       		.uleb128 0x43
 11280 3e04 42000000 		.4byte	.LVL35
 11281 3e08 BF590000 		.4byte	0x59bf
 11282 3e0c 44       		.uleb128 0x44
 11283 3e0d 01       		.uleb128 0x1
 11284 3e0e 52       		.byte	0x52
 11285 3e0f 02       		.uleb128 0x2
 11286 3e10 74       		.byte	0x74
 11287 3e11 00       		.sleb128 0
 11288 3e12 00       		.byte	0
 11289 3e13 00       		.byte	0
 11290 3e14 3B       		.uleb128 0x3b
 11291 3e15 6E140000 		.4byte	.LASF833
 11292 3e19 01       		.byte	0x1
 11293 3e1a 0403     		.2byte	0x304
 11294 3e1c 94000000 		.4byte	0x94
 11295 3e20 00000000 		.4byte	.LFB286
 11296 3e24 54010000 		.4byte	.LFE286-.LFB286
 11297 3e28 01       		.uleb128 0x1
 11298 3e29 9C       		.byte	0x9c
 11299 3e2a 083F0000 		.4byte	0x3f08
 11300 3e2e 3C       		.uleb128 0x3c
 11301 3e2f 7400     		.ascii	"t\000"
 11302 3e31 01       		.byte	0x1
ARM GAS  /tmp/cccFXynL.s 			page 200


 11303 3e32 0403     		.2byte	0x304
 11304 3e34 DB340000 		.4byte	0x34db
 11305 3e38 00020000 		.4byte	.LLST10
 11306 3e3c 3C       		.uleb128 0x3c
 11307 3e3d 627700   		.ascii	"bw\000"
 11308 3e40 01       		.byte	0x1
 11309 3e41 0403     		.2byte	0x304
 11310 3e43 7F380000 		.4byte	0x387f
 11311 3e47 1E020000 		.4byte	.LLST11
 11312 3e4b 46       		.uleb128 0x46
 11313 3e4c 04020000 		.4byte	.LASF704
 11314 3e50 01       		.byte	0x1
 11315 3e51 0603     		.2byte	0x306
 11316 3e53 4B3D0000 		.4byte	0x3d4b
 11317 3e57 94020000 		.4byte	.LLST12
 11318 3e5b 3F       		.uleb128 0x3f
 11319 3e5c 6900     		.ascii	"i\000"
 11320 3e5e 01       		.byte	0x1
 11321 3e5f 0703     		.2byte	0x307
 11322 3e61 9B000000 		.4byte	0x9b
 11323 3e65 07030000 		.4byte	.LLST13
 11324 3e69 3F       		.uleb128 0x3f
 11325 3e6a 76616C00 		.ascii	"val\000"
 11326 3e6e 01       		.byte	0x1
 11327 3e6f 0803     		.2byte	0x308
 11328 3e71 D2000000 		.4byte	0xd2
 11329 3e75 8B030000 		.4byte	.LLST14
 11330 3e79 47       		.uleb128 0x47
 11331 3e7a 083F0000 		.4byte	0x3f08
 11332 3e7e C8000000 		.4byte	.LBB58
 11333 3e82 00000000 		.4byte	.Ldebug_ranges0+0
 11334 3e86 01       		.byte	0x1
 11335 3e87 2C03     		.2byte	0x32c
 11336 3e89 AF3E0000 		.4byte	0x3eaf
 11337 3e8d 48       		.uleb128 0x48
 11338 3e8e 193F0000 		.4byte	0x3f19
 11339 3e92 CB030000 		.4byte	.LLST15
 11340 3e96 48       		.uleb128 0x48
 11341 3e97 233F0000 		.4byte	0x3f23
 11342 3e9b E9030000 		.4byte	.LLST16
 11343 3e9f 49       		.uleb128 0x49
 11344 3ea0 00000000 		.4byte	.Ldebug_ranges0+0
 11345 3ea4 4A       		.uleb128 0x4a
 11346 3ea5 2F3F0000 		.4byte	0x3f2f
 11347 3ea9 07040000 		.4byte	.LLST17
 11348 3ead 00       		.byte	0
 11349 3eae 00       		.byte	0
 11350 3eaf 45       		.uleb128 0x45
 11351 3eb0 B4000000 		.4byte	.LVL60
 11352 3eb4 BF590000 		.4byte	0x59bf
 11353 3eb8 C33E0000 		.4byte	0x3ec3
 11354 3ebc 44       		.uleb128 0x44
 11355 3ebd 01       		.uleb128 0x1
 11356 3ebe 50       		.byte	0x50
 11357 3ebf 02       		.uleb128 0x2
 11358 3ec0 76       		.byte	0x76
 11359 3ec1 00       		.sleb128 0
ARM GAS  /tmp/cccFXynL.s 			page 201


 11360 3ec2 00       		.byte	0
 11361 3ec3 45       		.uleb128 0x45
 11362 3ec4 C8000000 		.4byte	.LVL62
 11363 3ec8 BF590000 		.4byte	0x59bf
 11364 3ecc DD3E0000 		.4byte	0x3edd
 11365 3ed0 44       		.uleb128 0x44
 11366 3ed1 01       		.uleb128 0x1
 11367 3ed2 50       		.byte	0x50
 11368 3ed3 02       		.uleb128 0x2
 11369 3ed4 76       		.byte	0x76
 11370 3ed5 00       		.sleb128 0
 11371 3ed6 44       		.uleb128 0x44
 11372 3ed7 01       		.uleb128 0x1
 11373 3ed8 51       		.byte	0x51
 11374 3ed9 02       		.uleb128 0x2
 11375 3eda 77       		.byte	0x77
 11376 3edb 00       		.sleb128 0
 11377 3edc 00       		.byte	0
 11378 3edd 45       		.uleb128 0x45
 11379 3ede F0000000 		.4byte	.LVL66
 11380 3ee2 BF590000 		.4byte	0x59bf
 11381 3ee6 F73E0000 		.4byte	0x3ef7
 11382 3eea 44       		.uleb128 0x44
 11383 3eeb 01       		.uleb128 0x1
 11384 3eec 50       		.byte	0x50
 11385 3eed 02       		.uleb128 0x2
 11386 3eee 76       		.byte	0x76
 11387 3eef 00       		.sleb128 0
 11388 3ef0 44       		.uleb128 0x44
 11389 3ef1 01       		.uleb128 0x1
 11390 3ef2 51       		.byte	0x51
 11391 3ef3 02       		.uleb128 0x2
 11392 3ef4 78       		.byte	0x78
 11393 3ef5 00       		.sleb128 0
 11394 3ef6 00       		.byte	0
 11395 3ef7 43       		.uleb128 0x43
 11396 3ef8 16010000 		.4byte	.LVL71
 11397 3efc BF590000 		.4byte	0x59bf
 11398 3f00 44       		.uleb128 0x44
 11399 3f01 01       		.uleb128 0x1
 11400 3f02 50       		.byte	0x50
 11401 3f03 02       		.uleb128 0x2
 11402 3f04 76       		.byte	0x76
 11403 3f05 00       		.sleb128 0
 11404 3f06 00       		.byte	0
 11405 3f07 00       		.byte	0
 11406 3f08 35       		.uleb128 0x35
 11407 3f09 E5230000 		.4byte	.LASF834
 11408 3f0d 01       		.byte	0x1
 11409 3f0e F102     		.2byte	0x2f1
 11410 3f10 D2000000 		.4byte	0xd2
 11411 3f14 01       		.byte	0x1
 11412 3f15 3A3F0000 		.4byte	0x3f3a
 11413 3f19 36       		.uleb128 0x36
 11414 3f1a 7400     		.ascii	"t\000"
 11415 3f1c 01       		.byte	0x1
 11416 3f1d F102     		.2byte	0x2f1
ARM GAS  /tmp/cccFXynL.s 			page 202


 11417 3f1f DB340000 		.4byte	0x34db
 11418 3f23 4B       		.uleb128 0x4b
 11419 3f24 B1070000 		.4byte	.LASF643
 11420 3f28 01       		.byte	0x1
 11421 3f29 F102     		.2byte	0x2f1
 11422 3f2b E8320000 		.4byte	0x32e8
 11423 3f2f 38       		.uleb128 0x38
 11424 3f30 7800     		.ascii	"x\000"
 11425 3f32 01       		.byte	0x1
 11426 3f33 F302     		.2byte	0x2f3
 11427 3f35 D2000000 		.4byte	0xd2
 11428 3f39 00       		.byte	0
 11429 3f3a 35       		.uleb128 0x35
 11430 3f3b 0D120000 		.4byte	.LASF835
 11431 3f3f 01       		.byte	0x1
 11432 3f40 E302     		.2byte	0x2e3
 11433 3f42 D2000000 		.4byte	0xd2
 11434 3f46 01       		.byte	0x1
 11435 3f47 583F0000 		.4byte	0x3f58
 11436 3f4b 36       		.uleb128 0x36
 11437 3f4c 6C656E00 		.ascii	"len\000"
 11438 3f50 01       		.byte	0x1
 11439 3f51 E302     		.2byte	0x2e3
 11440 3f53 F2000000 		.4byte	0xf2
 11441 3f57 00       		.byte	0
 11442 3f58 4C       		.uleb128 0x4c
 11443 3f59 B7010000 		.4byte	.LASF857
 11444 3f5d 01       		.byte	0x1
 11445 3f5e B802     		.2byte	0x2b8
 11446 3f60 94000000 		.4byte	0x94
 11447 3f64 00000000 		.4byte	.LFB283
 11448 3f68 B4000000 		.4byte	.LFE283-.LFB283
 11449 3f6c 01       		.uleb128 0x1
 11450 3f6d 9C       		.byte	0x9c
 11451 3f6e C1400000 		.4byte	0x40c1
 11452 3f72 3C       		.uleb128 0x3c
 11453 3f73 7400     		.ascii	"t\000"
 11454 3f75 01       		.byte	0x1
 11455 3f76 B802     		.2byte	0x2b8
 11456 3f78 DB340000 		.4byte	0x34db
 11457 3f7c DA040000 		.4byte	.LLST135
 11458 3f80 3D       		.uleb128 0x3d
 11459 3f81 59200000 		.4byte	.LASF836
 11460 3f85 01       		.byte	0x1
 11461 3f86 B802     		.2byte	0x2b8
 11462 3f88 D2000000 		.4byte	0xd2
 11463 3f8c F8040000 		.4byte	.LLST136
 11464 3f90 3C       		.uleb128 0x3c
 11465 3f91 723000   		.ascii	"r0\000"
 11466 3f94 01       		.byte	0x1
 11467 3f95 B902     		.2byte	0x2b9
 11468 3f97 D2000000 		.4byte	0xd2
 11469 3f9b 16050000 		.4byte	.LLST137
 11470 3f9f 3C       		.uleb128 0x3c
 11471 3fa0 723100   		.ascii	"r1\000"
 11472 3fa3 01       		.byte	0x1
 11473 3fa4 B902     		.2byte	0x2b9
ARM GAS  /tmp/cccFXynL.s 			page 203


 11474 3fa6 D2000000 		.4byte	0xd2
 11475 3faa 34050000 		.4byte	.LLST138
 11476 3fae 4D       		.uleb128 0x4d
 11477 3faf 723200   		.ascii	"r2\000"
 11478 3fb2 01       		.byte	0x1
 11479 3fb3 B902     		.2byte	0x2b9
 11480 3fb5 D2000000 		.4byte	0xd2
 11481 3fb9 02       		.uleb128 0x2
 11482 3fba 91       		.byte	0x91
 11483 3fbb 00       		.sleb128 0
 11484 3fbc 4D       		.uleb128 0x4d
 11485 3fbd 723300   		.ascii	"r3\000"
 11486 3fc0 01       		.byte	0x1
 11487 3fc1 B902     		.2byte	0x2b9
 11488 3fc3 D2000000 		.4byte	0xd2
 11489 3fc7 02       		.uleb128 0x2
 11490 3fc8 91       		.byte	0x91
 11491 3fc9 04       		.sleb128 4
 11492 3fca 3E       		.uleb128 0x3e
 11493 3fcb 80050000 		.4byte	.LASF837
 11494 3fcf 01       		.byte	0x1
 11495 3fd0 BB02     		.2byte	0x2bb
 11496 3fd2 C1400000 		.4byte	0x40c1
 11497 3fd6 02       		.uleb128 0x2
 11498 3fd7 78       		.byte	0x78
 11499 3fd8 00       		.sleb128 0
 11500 3fd9 46       		.uleb128 0x46
 11501 3fda C41A0000 		.4byte	.LASF838
 11502 3fde 01       		.byte	0x1
 11503 3fdf CC02     		.2byte	0x2cc
 11504 3fe1 AC320000 		.4byte	0x32ac
 11505 3fe5 6C050000 		.4byte	.LLST139
 11506 3fe9 3F       		.uleb128 0x3f
 11507 3fea 706300   		.ascii	"pc\000"
 11508 3fed 01       		.byte	0x1
 11509 3fee D702     		.2byte	0x2d7
 11510 3ff0 D2000000 		.4byte	0xd2
 11511 3ff4 8A050000 		.4byte	.LLST140
 11512 3ff8 46       		.uleb128 0x46
 11513 3ff9 47040000 		.4byte	.LASF839
 11514 3ffd 01       		.byte	0x1
 11515 3ffe D802     		.2byte	0x2d8
 11516 4000 B7000000 		.4byte	0xb7
 11517 4004 A8050000 		.4byte	.LLST141
 11518 4008 4E       		.uleb128 0x4e
 11519 4009 9B000000 		.4byte	0x9b
 11520 400d BB050000 		.4byte	.LLST134
 11521 4011 45       		.uleb128 0x45
 11522 4012 2C000000 		.4byte	.LVL408
 11523 4016 D5590000 		.4byte	0x59d5
 11524 401a 2A400000 		.4byte	0x402a
 11525 401e 44       		.uleb128 0x44
 11526 401f 01       		.uleb128 0x1
 11527 4020 50       		.byte	0x50
 11528 4021 02       		.uleb128 0x2
 11529 4022 78       		.byte	0x78
 11530 4023 00       		.sleb128 0
ARM GAS  /tmp/cccFXynL.s 			page 204


 11531 4024 44       		.uleb128 0x44
 11532 4025 01       		.uleb128 0x1
 11533 4026 51       		.byte	0x51
 11534 4027 01       		.uleb128 0x1
 11535 4028 30       		.byte	0x30
 11536 4029 00       		.byte	0
 11537 402a 45       		.uleb128 0x45
 11538 402b 52000000 		.4byte	.LVL410
 11539 402f 354B0000 		.4byte	0x4b35
 11540 4033 44400000 		.4byte	0x4044
 11541 4037 44       		.uleb128 0x44
 11542 4038 01       		.uleb128 0x1
 11543 4039 50       		.byte	0x50
 11544 403a 02       		.uleb128 0x2
 11545 403b 74       		.byte	0x74
 11546 403c 00       		.sleb128 0
 11547 403d 44       		.uleb128 0x44
 11548 403e 01       		.uleb128 0x1
 11549 403f 51       		.byte	0x51
 11550 4040 02       		.uleb128 0x2
 11551 4041 78       		.byte	0x78
 11552 4042 00       		.sleb128 0
 11553 4043 00       		.byte	0
 11554 4044 45       		.uleb128 0x45
 11555 4045 58000000 		.4byte	.LVL411
 11556 4049 E4590000 		.4byte	0x59e4
 11557 404d 58400000 		.4byte	0x4058
 11558 4051 44       		.uleb128 0x44
 11559 4052 01       		.uleb128 0x1
 11560 4053 50       		.byte	0x50
 11561 4054 02       		.uleb128 0x2
 11562 4055 74       		.byte	0x74
 11563 4056 00       		.sleb128 0
 11564 4057 00       		.byte	0
 11565 4058 45       		.uleb128 0x45
 11566 4059 62000000 		.4byte	.LVL412
 11567 405d 6C410000 		.4byte	0x416c
 11568 4061 6C400000 		.4byte	0x406c
 11569 4065 44       		.uleb128 0x44
 11570 4066 01       		.uleb128 0x1
 11571 4067 50       		.byte	0x50
 11572 4068 02       		.uleb128 0x2
 11573 4069 74       		.byte	0x74
 11574 406a 00       		.sleb128 0
 11575 406b 00       		.byte	0
 11576 406c 45       		.uleb128 0x45
 11577 406d 6A000000 		.4byte	.LVL413
 11578 4071 D8420000 		.4byte	0x42d8
 11579 4075 85400000 		.4byte	0x4085
 11580 4079 44       		.uleb128 0x44
 11581 407a 01       		.uleb128 0x1
 11582 407b 50       		.byte	0x50
 11583 407c 02       		.uleb128 0x2
 11584 407d 74       		.byte	0x74
 11585 407e 00       		.sleb128 0
 11586 407f 44       		.uleb128 0x44
 11587 4080 01       		.uleb128 0x1
ARM GAS  /tmp/cccFXynL.s 			page 205


 11588 4081 51       		.byte	0x51
 11589 4082 01       		.uleb128 0x1
 11590 4083 30       		.byte	0x30
 11591 4084 00       		.byte	0
 11592 4085 45       		.uleb128 0x45
 11593 4086 7C000000 		.4byte	.LVL415
 11594 408a E6490000 		.4byte	0x49e6
 11595 408e 99400000 		.4byte	0x4099
 11596 4092 44       		.uleb128 0x44
 11597 4093 01       		.uleb128 0x1
 11598 4094 50       		.byte	0x50
 11599 4095 02       		.uleb128 0x2
 11600 4096 74       		.byte	0x74
 11601 4097 00       		.sleb128 0
 11602 4098 00       		.byte	0
 11603 4099 45       		.uleb128 0x45
 11604 409a 84000000 		.4byte	.LVL417
 11605 409e EF590000 		.4byte	0x59ef
 11606 40a2 AD400000 		.4byte	0x40ad
 11607 40a6 44       		.uleb128 0x44
 11608 40a7 01       		.uleb128 0x1
 11609 40a8 50       		.byte	0x50
 11610 40a9 02       		.uleb128 0x2
 11611 40aa 74       		.byte	0x74
 11612 40ab 00       		.sleb128 0
 11613 40ac 00       		.byte	0
 11614 40ad 43       		.uleb128 0x43
 11615 40ae 9A000000 		.4byte	.LVL420
 11616 40b2 FA590000 		.4byte	0x59fa
 11617 40b6 44       		.uleb128 0x44
 11618 40b7 01       		.uleb128 0x1
 11619 40b8 51       		.byte	0x51
 11620 40b9 05       		.uleb128 0x5
 11621 40ba 03       		.byte	0x3
 11622 40bb 00000000 		.4byte	.LC18
 11623 40bf 00       		.byte	0
 11624 40c0 00       		.byte	0
 11625 40c1 0C       		.uleb128 0xc
 11626 40c2 D2000000 		.4byte	0xd2
 11627 40c6 D4400000 		.4byte	0x40d4
 11628 40ca 4F       		.uleb128 0x4f
 11629 40cb 9B000000 		.4byte	0x9b
 11630 40cf 08400000 		.4byte	0x4008
 11631 40d3 00       		.byte	0
 11632 40d4 35       		.uleb128 0x35
 11633 40d5 3C190000 		.4byte	.LASF840
 11634 40d9 01       		.byte	0x1
 11635 40da 7D02     		.2byte	0x27d
 11636 40dc 94000000 		.4byte	0x94
 11637 40e0 01       		.byte	0x1
 11638 40e1 5D410000 		.4byte	0x415d
 11639 40e5 36       		.uleb128 0x36
 11640 40e6 7400     		.ascii	"t\000"
 11641 40e8 01       		.byte	0x1
 11642 40e9 7D02     		.2byte	0x27d
 11643 40eb DB340000 		.4byte	0x34db
 11644 40ef 37       		.uleb128 0x37
ARM GAS  /tmp/cccFXynL.s 			page 206


 11645 40f0 33070000 		.4byte	.LASF841
 11646 40f4 01       		.byte	0x1
 11647 40f5 7F02     		.2byte	0x27f
 11648 40f7 D2000000 		.4byte	0xd2
 11649 40fb 37       		.uleb128 0x37
 11650 40fc 2E1F0000 		.4byte	.LASF842
 11651 4100 01       		.byte	0x1
 11652 4101 8002     		.2byte	0x280
 11653 4103 D2000000 		.4byte	0xd2
 11654 4107 39       		.uleb128 0x39
 11655 4108 37       		.uleb128 0x37
 11656 4109 80050000 		.4byte	.LASF837
 11657 410d 01       		.byte	0x1
 11658 410e 8702     		.2byte	0x287
 11659 4110 5D410000 		.4byte	0x415d
 11660 4114 37       		.uleb128 0x37
 11661 4115 0E0C0000 		.4byte	.LASF843
 11662 4119 01       		.byte	0x1
 11663 411a 8802     		.2byte	0x288
 11664 411c 410D0000 		.4byte	0xd41
 11665 4120 37       		.uleb128 0x37
 11666 4121 DA250000 		.4byte	.LASF844
 11667 4125 01       		.byte	0x1
 11668 4126 8902     		.2byte	0x289
 11669 4128 D2000000 		.4byte	0xd2
 11670 412c 37       		.uleb128 0x37
 11671 412d 4E240000 		.4byte	.LASF845
 11672 4131 01       		.byte	0x1
 11673 4132 8902     		.2byte	0x289
 11674 4134 D2000000 		.4byte	0xd2
 11675 4138 37       		.uleb128 0x37
 11676 4139 E9010000 		.4byte	.LASF846
 11677 413d 01       		.byte	0x1
 11678 413e 8E02     		.2byte	0x28e
 11679 4140 30170000 		.4byte	0x1730
 11680 4144 37       		.uleb128 0x37
 11681 4145 5E130000 		.4byte	.LASF847
 11682 4149 01       		.byte	0x1
 11683 414a 8F02     		.2byte	0x28f
 11684 414c 30170000 		.4byte	0x1730
 11685 4150 38       		.uleb128 0x38
 11686 4151 737000   		.ascii	"sp\000"
 11687 4154 01       		.byte	0x1
 11688 4155 9102     		.2byte	0x291
 11689 4157 D2000000 		.4byte	0xd2
 11690 415b 00       		.byte	0
 11691 415c 00       		.byte	0
 11692 415d 0C       		.uleb128 0xc
 11693 415e D2000000 		.4byte	0xd2
 11694 4162 6C410000 		.4byte	0x416c
 11695 4166 3A       		.uleb128 0x3a
 11696 4167 9B000000 		.4byte	0x9b
 11697 416b 00       		.byte	0
 11698 416c 50       		.uleb128 0x50
 11699 416d 5C030000 		.4byte	.LASF853
 11700 4171 01       		.byte	0x1
 11701 4172 6302     		.2byte	0x263
ARM GAS  /tmp/cccFXynL.s 			page 207


 11702 4174 00000000 		.4byte	.LFB281
 11703 4178 94000000 		.4byte	.LFE281-.LFB281
 11704 417c 01       		.uleb128 0x1
 11705 417d 9C       		.byte	0x9c
 11706 417e D8420000 		.4byte	0x42d8
 11707 4182 3C       		.uleb128 0x3c
 11708 4183 7400     		.ascii	"t\000"
 11709 4185 01       		.byte	0x1
 11710 4186 6302     		.2byte	0x263
 11711 4188 DB340000 		.4byte	0x34db
 11712 418c E7050000 		.4byte	.LLST23
 11713 4190 3D       		.uleb128 0x3d
 11714 4191 E4010000 		.4byte	.LASF848
 11715 4195 01       		.byte	0x1
 11716 4196 6302     		.2byte	0x263
 11717 4198 30170000 		.4byte	0x1730
 11718 419c 29060000 		.4byte	.LLST24
 11719 41a0 46       		.uleb128 0x46
 11720 41a1 04020000 		.4byte	.LASF704
 11721 41a5 01       		.byte	0x1
 11722 41a6 6502     		.2byte	0x265
 11723 41a8 4B3D0000 		.4byte	0x3d4b
 11724 41ac 4A060000 		.4byte	.LLST25
 11725 41b0 46       		.uleb128 0x46
 11726 41b1 09210000 		.4byte	.LASF849
 11727 41b5 01       		.byte	0x1
 11728 41b6 6602     		.2byte	0x266
 11729 41b8 D2000000 		.4byte	0xd2
 11730 41bc 68060000 		.4byte	.LLST26
 11731 41c0 40       		.uleb128 0x40
 11732 41c1 46000000 		.4byte	.LBB67
 11733 41c5 4E000000 		.4byte	.LBE67-.LBB67
 11734 41c9 73420000 		.4byte	0x4273
 11735 41cd 3F       		.uleb128 0x3f
 11736 41ce 706300   		.ascii	"pc\000"
 11737 41d1 01       		.byte	0x1
 11738 41d2 7202     		.2byte	0x272
 11739 41d4 D2000000 		.4byte	0xd2
 11740 41d8 A1060000 		.4byte	.LLST27
 11741 41dc 51       		.uleb128 0x51
 11742 41dd C2490000 		.4byte	0x49c2
 11743 41e1 60000000 		.4byte	.LBB68
 11744 41e5 34000000 		.4byte	.LBE68-.LBB68
 11745 41e9 01       		.byte	0x1
 11746 41ea 7402     		.2byte	0x274
 11747 41ec 48420000 		.4byte	0x4248
 11748 41f0 48       		.uleb128 0x48
 11749 41f1 D9490000 		.4byte	0x49d9
 11750 41f5 CA060000 		.4byte	.LLST28
 11751 41f9 52       		.uleb128 0x52
 11752 41fa CF490000 		.4byte	0x49cf
 11753 41fe 01       		.uleb128 0x1
 11754 41ff 57       		.byte	0x57
 11755 4200 45       		.uleb128 0x45
 11756 4201 6A000000 		.4byte	.LVL119
 11757 4205 BF590000 		.4byte	0x59bf
 11758 4209 24420000 		.4byte	0x4224
ARM GAS  /tmp/cccFXynL.s 			page 208


 11759 420d 44       		.uleb128 0x44
 11760 420e 01       		.uleb128 0x1
 11761 420f 50       		.byte	0x50
 11762 4210 02       		.uleb128 0x2
 11763 4211 77       		.byte	0x77
 11764 4212 00       		.sleb128 0
 11765 4213 44       		.uleb128 0x44
 11766 4214 01       		.uleb128 0x1
 11767 4215 51       		.byte	0x51
 11768 4216 06       		.uleb128 0x6
 11769 4217 11       		.byte	0x11
 11770 4218 F8DB8380 		.sleb128 -536809992
 11770      7E
 11771 421d 44       		.uleb128 0x44
 11772 421e 01       		.uleb128 0x1
 11773 421f 52       		.byte	0x52
 11774 4220 02       		.uleb128 0x2
 11775 4221 75       		.byte	0x75
 11776 4222 02       		.sleb128 2
 11777 4223 00       		.byte	0
 11778 4224 43       		.uleb128 0x43
 11779 4225 74000000 		.4byte	.LVL120
 11780 4229 BF590000 		.4byte	0x59bf
 11781 422d 44       		.uleb128 0x44
 11782 422e 01       		.uleb128 0x1
 11783 422f 50       		.byte	0x50
 11784 4230 02       		.uleb128 0x2
 11785 4231 77       		.byte	0x77
 11786 4232 00       		.sleb128 0
 11787 4233 44       		.uleb128 0x44
 11788 4234 01       		.uleb128 0x1
 11789 4235 51       		.byte	0x51
 11790 4236 06       		.uleb128 0x6
 11791 4237 11       		.byte	0x11
 11792 4238 F4DB8380 		.sleb128 -536809996
 11792      7E
 11793 423d 44       		.uleb128 0x44
 11794 423e 01       		.uleb128 0x1
 11795 423f 52       		.byte	0x52
 11796 4240 05       		.uleb128 0x5
 11797 4241 0C       		.byte	0xc
 11798 4242 0F000100 		.4byte	0x1000f
 11799 4246 00       		.byte	0
 11800 4247 00       		.byte	0
 11801 4248 45       		.uleb128 0x45
 11802 4249 4C000000 		.4byte	.LVL113
 11803 424d E6490000 		.4byte	0x49e6
 11804 4251 5C420000 		.4byte	0x425c
 11805 4255 44       		.uleb128 0x44
 11806 4256 01       		.uleb128 0x1
 11807 4257 50       		.byte	0x50
 11808 4258 02       		.uleb128 0x2
 11809 4259 77       		.byte	0x77
 11810 425a 00       		.sleb128 0
 11811 425b 00       		.byte	0
 11812 425c 43       		.uleb128 0x43
 11813 425d 56000000 		.4byte	.LVL116
ARM GAS  /tmp/cccFXynL.s 			page 209


 11814 4261 EF590000 		.4byte	0x59ef
 11815 4265 44       		.uleb128 0x44
 11816 4266 01       		.uleb128 0x1
 11817 4267 50       		.byte	0x50
 11818 4268 02       		.uleb128 0x2
 11819 4269 77       		.byte	0x77
 11820 426a 00       		.sleb128 0
 11821 426b 44       		.uleb128 0x44
 11822 426c 01       		.uleb128 0x1
 11823 426d 51       		.byte	0x51
 11824 426e 02       		.uleb128 0x2
 11825 426f 75       		.byte	0x75
 11826 4270 00       		.sleb128 0
 11827 4271 00       		.byte	0
 11828 4272 00       		.byte	0
 11829 4273 45       		.uleb128 0x45
 11830 4274 22000000 		.4byte	.LVL109
 11831 4278 BF590000 		.4byte	0x59bf
 11832 427c 99420000 		.4byte	0x4299
 11833 4280 44       		.uleb128 0x44
 11834 4281 01       		.uleb128 0x1
 11835 4282 50       		.byte	0x50
 11836 4283 02       		.uleb128 0x2
 11837 4284 77       		.byte	0x77
 11838 4285 00       		.sleb128 0
 11839 4286 44       		.uleb128 0x44
 11840 4287 01       		.uleb128 0x1
 11841 4288 51       		.byte	0x51
 11842 4289 06       		.uleb128 0x6
 11843 428a 11       		.byte	0x11
 11844 428b F0DB8380 		.sleb128 -536810000
 11844      7E
 11845 4290 44       		.uleb128 0x44
 11846 4291 01       		.uleb128 0x1
 11847 4292 52       		.byte	0x52
 11848 4293 04       		.uleb128 0x4
 11849 4294 74       		.byte	0x74
 11850 4295 00       		.sleb128 0
 11851 4296 32       		.byte	0x32
 11852 4297 21       		.byte	0x21
 11853 4298 00       		.byte	0
 11854 4299 45       		.uleb128 0x45
 11855 429a 38000000 		.4byte	.LVL110
 11856 429e BF590000 		.4byte	0x59bf
 11857 42a2 BC420000 		.4byte	0x42bc
 11858 42a6 44       		.uleb128 0x44
 11859 42a7 01       		.uleb128 0x1
 11860 42a8 50       		.byte	0x50
 11861 42a9 02       		.uleb128 0x2
 11862 42aa 77       		.byte	0x77
 11863 42ab 00       		.sleb128 0
 11864 42ac 44       		.uleb128 0x44
 11865 42ad 01       		.uleb128 0x1
 11866 42ae 51       		.byte	0x51
 11867 42af 06       		.uleb128 0x6
 11868 42b0 11       		.byte	0x11
 11869 42b1 D0DE8380 		.sleb128 -536809648
ARM GAS  /tmp/cccFXynL.s 			page 210


 11869      7E
 11870 42b6 44       		.uleb128 0x44
 11871 42b7 01       		.uleb128 0x1
 11872 42b8 52       		.byte	0x52
 11873 42b9 01       		.uleb128 0x1
 11874 42ba 30       		.byte	0x30
 11875 42bb 00       		.byte	0
 11876 42bc 53       		.uleb128 0x53
 11877 42bd 46000000 		.4byte	.LVL112
 11878 42c1 BF590000 		.4byte	0x59bf
 11879 42c5 44       		.uleb128 0x44
 11880 42c6 01       		.uleb128 0x1
 11881 42c7 50       		.byte	0x50
 11882 42c8 03       		.uleb128 0x3
 11883 42c9 F3       		.byte	0xf3
 11884 42ca 01       		.uleb128 0x1
 11885 42cb 50       		.byte	0x50
 11886 42cc 44       		.uleb128 0x44
 11887 42cd 01       		.uleb128 0x1
 11888 42ce 51       		.byte	0x51
 11889 42cf 06       		.uleb128 0x6
 11890 42d0 11       		.byte	0x11
 11891 42d1 F0DB8380 		.sleb128 -536810000
 11891      7E
 11892 42d6 00       		.byte	0
 11893 42d7 00       		.byte	0
 11894 42d8 3B       		.uleb128 0x3b
 11895 42d9 CB230000 		.4byte	.LASF850
 11896 42dd 01       		.byte	0x1
 11897 42de 2402     		.2byte	0x224
 11898 42e0 AC320000 		.4byte	0x32ac
 11899 42e4 00000000 		.4byte	.LFB280
 11900 42e8 10040000 		.4byte	.LFE280-.LFB280
 11901 42ec 01       		.uleb128 0x1
 11902 42ed 9C       		.byte	0x9c
 11903 42ee 50480000 		.4byte	0x4850
 11904 42f2 3C       		.uleb128 0x3c
 11905 42f3 7400     		.ascii	"t\000"
 11906 42f5 01       		.byte	0x1
 11907 42f6 2402     		.2byte	0x224
 11908 42f8 DB340000 		.4byte	0x34db
 11909 42fc F7060000 		.4byte	.LLST29
 11910 4300 3D       		.uleb128 0x3d
 11911 4301 68080000 		.4byte	.LASF851
 11912 4305 01       		.byte	0x1
 11913 4306 2402     		.2byte	0x224
 11914 4308 3B390000 		.4byte	0x393b
 11915 430c 8C070000 		.4byte	.LLST30
 11916 4310 46       		.uleb128 0x46
 11917 4311 04020000 		.4byte	.LASF704
 11918 4315 01       		.byte	0x1
 11919 4316 2602     		.2byte	0x226
 11920 4318 4B3D0000 		.4byte	0x3d4b
 11921 431c 16080000 		.4byte	.LLST31
 11922 4320 3E       		.uleb128 0x3e
 11923 4321 09210000 		.4byte	.LASF849
 11924 4325 01       		.byte	0x1
ARM GAS  /tmp/cccFXynL.s 			page 211


 11925 4326 2802     		.2byte	0x228
 11926 4328 DD000000 		.4byte	0xdd
 11927 432c 03       		.uleb128 0x3
 11928 432d 91       		.byte	0x91
 11929 432e A47E     		.sleb128 -220
 11930 4330 41       		.uleb128 0x41
 11931 4331 6500     		.ascii	"e\000"
 11932 4333 01       		.byte	0x1
 11933 4334 2902     		.2byte	0x229
 11934 4336 B42E0000 		.4byte	0x2eb4
 11935 433a 03       		.uleb128 0x3
 11936 433b 91       		.byte	0x91
 11937 433c F47E     		.sleb128 -140
 11938 433e 46       		.uleb128 0x46
 11939 433f DD0A0000 		.4byte	.LASF852
 11940 4343 01       		.byte	0x1
 11941 4344 3D02     		.2byte	0x23d
 11942 4346 D2000000 		.4byte	0xd2
 11943 434a 68080000 		.4byte	.LLST32
 11944 434e 54       		.uleb128 0x54
 11945 434f 88000000 		.4byte	.Ldebug_ranges0+0x88
 11946 4353 CA450000 		.4byte	0x45ca
 11947 4357 3F       		.uleb128 0x3f
 11948 4358 706300   		.ascii	"pc\000"
 11949 435b 01       		.byte	0x1
 11950 435c 4802     		.2byte	0x248
 11951 435e D2000000 		.4byte	0xd2
 11952 4362 BD080000 		.4byte	.LLST46
 11953 4366 46       		.uleb128 0x46
 11954 4367 47040000 		.4byte	.LASF839
 11955 436b 01       		.byte	0x1
 11956 436c 4902     		.2byte	0x249
 11957 436e B7000000 		.4byte	0xb7
 11958 4372 DB080000 		.4byte	.LLST47
 11959 4376 47       		.uleb128 0x47
 11960 4377 7C3B0000 		.4byte	0x3b7c
 11961 437b 2A020000 		.4byte	.LBB93
 11962 437f A8000000 		.4byte	.Ldebug_ranges0+0xa8
 11963 4383 01       		.byte	0x1
 11964 4384 4C02     		.2byte	0x24c
 11965 4386 91450000 		.4byte	0x4591
 11966 438a 48       		.uleb128 0x48
 11967 438b 8D3B0000 		.4byte	0x3b8d
 11968 438f F9080000 		.4byte	.LLST48
 11969 4393 49       		.uleb128 0x49
 11970 4394 A8000000 		.4byte	.Ldebug_ranges0+0xa8
 11971 4398 55       		.uleb128 0x55
 11972 4399 973B0000 		.4byte	0x3b97
 11973 439d BD580000 		.4byte	0x58bd
 11974 43a1 0E090000 		.4byte	.LLST50
 11975 43a5 56       		.uleb128 0x56
 11976 43a6 A33B0000 		.4byte	0x3ba3
 11977 43aa 03       		.uleb128 0x3
 11978 43ab 91       		.byte	0x91
 11979 43ac AC7E     		.sleb128 -212
 11980 43ae 4A       		.uleb128 0x4a
 11981 43af AF3B0000 		.4byte	0x3baf
ARM GAS  /tmp/cccFXynL.s 			page 212


 11982 43b3 3A090000 		.4byte	.LLST51
 11983 43b7 4A       		.uleb128 0x4a
 11984 43b8 BB3B0000 		.4byte	0x3bbb
 11985 43bc 7F090000 		.4byte	.LLST52
 11986 43c0 57       		.uleb128 0x57
 11987 43c1 C73B0000 		.4byte	0x3bc7
 11988 43c5 C8000000 		.4byte	.Ldebug_ranges0+0xc8
 11989 43c9 49440000 		.4byte	0x4449
 11990 43cd 56       		.uleb128 0x56
 11991 43ce C83B0000 		.4byte	0x3bc8
 11992 43d2 03       		.uleb128 0x3
 11993 43d3 91       		.byte	0x91
 11994 43d4 BC7E     		.sleb128 -196
 11995 43d6 4A       		.uleb128 0x4a
 11996 43d7 D43B0000 		.4byte	0x3bd4
 11997 43db 340A0000 		.4byte	.LLST53
 11998 43df 56       		.uleb128 0x56
 11999 43e0 E03B0000 		.4byte	0x3be0
 12000 43e4 03       		.uleb128 0x3
 12001 43e5 91       		.byte	0x91
 12002 43e6 A87E     		.sleb128 -216
 12003 43e8 45       		.uleb128 0x45
 12004 43e9 BE030000 		.4byte	.LVL209
 12005 43ed 055A0000 		.4byte	0x5a05
 12006 43f1 0A440000 		.4byte	0x440a
 12007 43f5 44       		.uleb128 0x44
 12008 43f6 01       		.uleb128 0x1
 12009 43f7 50       		.byte	0x50
 12010 43f8 04       		.uleb128 0x4
 12011 43f9 91       		.byte	0x91
 12012 43fa C47E     		.sleb128 -188
 12013 43fc 06       		.byte	0x6
 12014 43fd 44       		.uleb128 0x44
 12015 43fe 01       		.uleb128 0x1
 12016 43ff 51       		.byte	0x51
 12017 4400 03       		.uleb128 0x3
 12018 4401 91       		.byte	0x91
 12019 4402 D07E     		.sleb128 -176
 12020 4404 44       		.uleb128 0x44
 12021 4405 01       		.uleb128 0x1
 12022 4406 53       		.byte	0x53
 12023 4407 01       		.uleb128 0x1
 12024 4408 34       		.byte	0x34
 12025 4409 00       		.byte	0
 12026 440a 45       		.uleb128 0x45
 12027 440b C8030000 		.4byte	.LVL210
 12028 440f B4590000 		.4byte	0x59b4
 12029 4413 28440000 		.4byte	0x4428
 12030 4417 44       		.uleb128 0x44
 12031 4418 01       		.uleb128 0x1
 12032 4419 50       		.byte	0x50
 12033 441a 03       		.uleb128 0x3
 12034 441b 91       		.byte	0x91
 12035 441c D07E     		.sleb128 -176
 12036 441e 44       		.uleb128 0x44
 12037 441f 01       		.uleb128 0x1
 12038 4420 51       		.byte	0x51
ARM GAS  /tmp/cccFXynL.s 			page 213


 12039 4421 05       		.uleb128 0x5
 12040 4422 03       		.byte	0x3
 12041 4423 24000000 		.4byte	.LC17
 12042 4427 00       		.byte	0
 12043 4428 43       		.uleb128 0x43
 12044 4429 00040000 		.4byte	.LVL219
 12045 442d 105A0000 		.4byte	0x5a10
 12046 4431 44       		.uleb128 0x44
 12047 4432 01       		.uleb128 0x1
 12048 4433 50       		.byte	0x50
 12049 4434 04       		.uleb128 0x4
 12050 4435 91       		.byte	0x91
 12051 4436 C47E     		.sleb128 -188
 12052 4438 06       		.byte	0x6
 12053 4439 44       		.uleb128 0x44
 12054 443a 01       		.uleb128 0x1
 12055 443b 53       		.byte	0x53
 12056 443c 02       		.uleb128 0x2
 12057 443d 74       		.byte	0x74
 12058 443e 00       		.sleb128 0
 12059 443f 44       		.uleb128 0x44
 12060 4440 02       		.uleb128 0x2
 12061 4441 7D       		.byte	0x7d
 12062 4442 00       		.sleb128 0
 12063 4443 03       		.uleb128 0x3
 12064 4444 0A       		.byte	0xa
 12065 4445 A401     		.2byte	0x1a4
 12066 4447 00       		.byte	0
 12067 4448 00       		.byte	0
 12068 4449 45       		.uleb128 0x45
 12069 444a 4E020000 		.4byte	.LVL182
 12070 444e 1B5A0000 		.4byte	0x5a1b
 12071 4452 65440000 		.4byte	0x4465
 12072 4456 44       		.uleb128 0x44
 12073 4457 01       		.uleb128 0x1
 12074 4458 50       		.byte	0x50
 12075 4459 04       		.uleb128 0x4
 12076 445a 91       		.byte	0x91
 12077 445b C47E     		.sleb128 -188
 12078 445d 06       		.byte	0x6
 12079 445e 44       		.uleb128 0x44
 12080 445f 01       		.uleb128 0x1
 12081 4460 51       		.byte	0x51
 12082 4461 02       		.uleb128 0x2
 12083 4462 75       		.byte	0x75
 12084 4463 00       		.sleb128 0
 12085 4464 00       		.byte	0
 12086 4465 45       		.uleb128 0x45
 12087 4466 5C020000 		.4byte	.LVL183
 12088 446a 055A0000 		.4byte	0x5a05
 12089 446e 87440000 		.4byte	0x4487
 12090 4472 44       		.uleb128 0x44
 12091 4473 01       		.uleb128 0x1
 12092 4474 50       		.byte	0x50
 12093 4475 04       		.uleb128 0x4
 12094 4476 91       		.byte	0x91
 12095 4477 C47E     		.sleb128 -188
ARM GAS  /tmp/cccFXynL.s 			page 214


 12096 4479 06       		.byte	0x6
 12097 447a 44       		.uleb128 0x44
 12098 447b 01       		.uleb128 0x1
 12099 447c 51       		.byte	0x51
 12100 447d 03       		.uleb128 0x3
 12101 447e 91       		.byte	0x91
 12102 447f D47E     		.sleb128 -172
 12103 4481 44       		.uleb128 0x44
 12104 4482 01       		.uleb128 0x1
 12105 4483 53       		.byte	0x53
 12106 4484 01       		.uleb128 0x1
 12107 4485 40       		.byte	0x40
 12108 4486 00       		.byte	0
 12109 4487 45       		.uleb128 0x45
 12110 4488 74020000 		.4byte	.LVL187
 12111 448c 265A0000 		.4byte	0x5a26
 12112 4490 A4440000 		.4byte	0x44a4
 12113 4494 44       		.uleb128 0x44
 12114 4495 01       		.uleb128 0x1
 12115 4496 50       		.byte	0x50
 12116 4497 05       		.uleb128 0x5
 12117 4498 03       		.byte	0x3
 12118 4499 00000000 		.4byte	.LC16
 12119 449d 44       		.uleb128 0x44
 12120 449e 01       		.uleb128 0x1
 12121 449f 51       		.byte	0x51
 12122 44a0 02       		.uleb128 0x2
 12123 44a1 74       		.byte	0x74
 12124 44a2 01       		.sleb128 1
 12125 44a3 00       		.byte	0
 12126 44a4 45       		.uleb128 0x45
 12127 44a5 A0020000 		.4byte	.LVL188
 12128 44a9 315A0000 		.4byte	0x5a31
 12129 44ad BA440000 		.4byte	0x44ba
 12130 44b1 44       		.uleb128 0x44
 12131 44b2 01       		.uleb128 0x1
 12132 44b3 50       		.byte	0x50
 12133 44b4 04       		.uleb128 0x4
 12134 44b5 91       		.byte	0x91
 12135 44b6 C47E     		.sleb128 -188
 12136 44b8 06       		.byte	0x6
 12137 44b9 00       		.byte	0
 12138 44ba 45       		.uleb128 0x45
 12139 44bb AC020000 		.4byte	.LVL190
 12140 44bf 3C5A0000 		.4byte	0x5a3c
 12141 44c3 D4440000 		.4byte	0x44d4
 12142 44c7 44       		.uleb128 0x44
 12143 44c8 01       		.uleb128 0x1
 12144 44c9 50       		.byte	0x50
 12145 44ca 02       		.uleb128 0x2
 12146 44cb 74       		.byte	0x74
 12147 44cc 00       		.sleb128 0
 12148 44cd 44       		.uleb128 0x44
 12149 44ce 01       		.uleb128 0x1
 12150 44cf 51       		.byte	0x51
 12151 44d0 02       		.uleb128 0x2
 12152 44d1 75       		.byte	0x75
ARM GAS  /tmp/cccFXynL.s 			page 215


 12153 44d2 00       		.sleb128 0
 12154 44d3 00       		.byte	0
 12155 44d4 45       		.uleb128 0x45
 12156 44d5 08030000 		.4byte	.LVL196
 12157 44d9 475A0000 		.4byte	0x5a47
 12158 44dd EA440000 		.4byte	0x44ea
 12159 44e1 44       		.uleb128 0x44
 12160 44e2 01       		.uleb128 0x1
 12161 44e3 50       		.byte	0x50
 12162 44e4 04       		.uleb128 0x4
 12163 44e5 91       		.byte	0x91
 12164 44e6 C47E     		.sleb128 -188
 12165 44e8 06       		.byte	0x6
 12166 44e9 00       		.byte	0
 12167 44ea 45       		.uleb128 0x45
 12168 44eb 18030000 		.4byte	.LVL197
 12169 44ef 525A0000 		.4byte	0x5a52
 12170 44f3 00450000 		.4byte	0x4500
 12171 44f7 44       		.uleb128 0x44
 12172 44f8 01       		.uleb128 0x1
 12173 44f9 50       		.byte	0x50
 12174 44fa 04       		.uleb128 0x4
 12175 44fb 91       		.byte	0x91
 12176 44fc C47E     		.sleb128 -188
 12177 44fe 06       		.byte	0x6
 12178 44ff 00       		.byte	0
 12179 4500 45       		.uleb128 0x45
 12180 4501 34030000 		.4byte	.LVL198
 12181 4505 5D5A0000 		.4byte	0x5a5d
 12182 4509 1B450000 		.4byte	0x451b
 12183 450d 44       		.uleb128 0x44
 12184 450e 01       		.uleb128 0x1
 12185 450f 50       		.byte	0x50
 12186 4510 04       		.uleb128 0x4
 12187 4511 91       		.byte	0x91
 12188 4512 C47E     		.sleb128 -188
 12189 4514 06       		.byte	0x6
 12190 4515 44       		.uleb128 0x44
 12191 4516 01       		.uleb128 0x1
 12192 4517 53       		.byte	0x53
 12193 4518 01       		.uleb128 0x1
 12194 4519 30       		.byte	0x30
 12195 451a 00       		.byte	0
 12196 451b 45       		.uleb128 0x45
 12197 451c 40030000 		.4byte	.LVL199
 12198 4520 685A0000 		.4byte	0x5a68
 12199 4524 31450000 		.4byte	0x4531
 12200 4528 44       		.uleb128 0x44
 12201 4529 01       		.uleb128 0x1
 12202 452a 50       		.byte	0x50
 12203 452b 04       		.uleb128 0x4
 12204 452c 91       		.byte	0x91
 12205 452d C47E     		.sleb128 -188
 12206 452f 06       		.byte	0x6
 12207 4530 00       		.byte	0
 12208 4531 45       		.uleb128 0x45
 12209 4532 50030000 		.4byte	.LVL200
ARM GAS  /tmp/cccFXynL.s 			page 216


 12210 4536 735A0000 		.4byte	0x5a73
 12211 453a 47450000 		.4byte	0x4547
 12212 453e 44       		.uleb128 0x44
 12213 453f 01       		.uleb128 0x1
 12214 4540 50       		.byte	0x50
 12215 4541 04       		.uleb128 0x4
 12216 4542 91       		.byte	0x91
 12217 4543 C47E     		.sleb128 -188
 12218 4545 06       		.byte	0x6
 12219 4546 00       		.byte	0
 12220 4547 45       		.uleb128 0x45
 12221 4548 68030000 		.4byte	.LVL203
 12222 454c 7E5A0000 		.4byte	0x5a7e
 12223 4550 5D450000 		.4byte	0x455d
 12224 4554 44       		.uleb128 0x44
 12225 4555 01       		.uleb128 0x1
 12226 4556 50       		.byte	0x50
 12227 4557 04       		.uleb128 0x4
 12228 4558 91       		.byte	0x91
 12229 4559 C47E     		.sleb128 -188
 12230 455b 06       		.byte	0x6
 12231 455c 00       		.byte	0
 12232 455d 45       		.uleb128 0x45
 12233 455e 7A030000 		.4byte	.LVL205
 12234 4562 7E5A0000 		.4byte	0x5a7e
 12235 4566 7D450000 		.4byte	0x457d
 12236 456a 44       		.uleb128 0x44
 12237 456b 01       		.uleb128 0x1
 12238 456c 50       		.byte	0x50
 12239 456d 04       		.uleb128 0x4
 12240 456e 91       		.byte	0x91
 12241 456f C47E     		.sleb128 -188
 12242 4571 06       		.byte	0x6
 12243 4572 44       		.uleb128 0x44
 12244 4573 01       		.uleb128 0x1
 12245 4574 51       		.byte	0x51
 12246 4575 01       		.uleb128 0x1
 12247 4576 32       		.byte	0x32
 12248 4577 44       		.uleb128 0x44
 12249 4578 01       		.uleb128 0x1
 12250 4579 53       		.byte	0x53
 12251 457a 01       		.uleb128 0x1
 12252 457b 31       		.byte	0x31
 12253 457c 00       		.byte	0
 12254 457d 43       		.uleb128 0x43
 12255 457e 86030000 		.4byte	.LVL206
 12256 4582 895A0000 		.4byte	0x5a89
 12257 4586 44       		.uleb128 0x44
 12258 4587 01       		.uleb128 0x1
 12259 4588 50       		.byte	0x50
 12260 4589 04       		.uleb128 0x4
 12261 458a 91       		.byte	0x91
 12262 458b C47E     		.sleb128 -188
 12263 458d 06       		.byte	0x6
 12264 458e 00       		.byte	0
 12265 458f 00       		.byte	0
 12266 4590 00       		.byte	0
ARM GAS  /tmp/cccFXynL.s 			page 217


 12267 4591 45       		.uleb128 0x45
 12268 4592 04020000 		.4byte	.LVL169
 12269 4596 E6490000 		.4byte	0x49e6
 12270 459a A5450000 		.4byte	0x45a5
 12271 459e 44       		.uleb128 0x44
 12272 459f 01       		.uleb128 0x1
 12273 45a0 50       		.byte	0x50
 12274 45a1 02       		.uleb128 0x2
 12275 45a2 75       		.byte	0x75
 12276 45a3 00       		.sleb128 0
 12277 45a4 00       		.byte	0
 12278 45a5 45       		.uleb128 0x45
 12279 45a6 0C020000 		.4byte	.LVL171
 12280 45aa EF590000 		.4byte	0x59ef
 12281 45ae B9450000 		.4byte	0x45b9
 12282 45b2 44       		.uleb128 0x44
 12283 45b3 01       		.uleb128 0x1
 12284 45b4 50       		.byte	0x50
 12285 45b5 02       		.uleb128 0x2
 12286 45b6 75       		.byte	0x75
 12287 45b7 00       		.sleb128 0
 12288 45b8 00       		.byte	0
 12289 45b9 43       		.uleb128 0x43
 12290 45ba C2020000 		.4byte	.LVL192
 12291 45be 945A0000 		.4byte	0x5a94
 12292 45c2 44       		.uleb128 0x44
 12293 45c3 01       		.uleb128 0x1
 12294 45c4 50       		.byte	0x50
 12295 45c5 02       		.uleb128 0x2
 12296 45c6 74       		.byte	0x74
 12297 45c7 00       		.sleb128 0
 12298 45c8 00       		.byte	0
 12299 45c9 00       		.byte	0
 12300 45ca 47       		.uleb128 0x47
 12301 45cb 613D0000 		.4byte	0x3d61
 12302 45cf AE000000 		.4byte	.LBB79
 12303 45d3 20000000 		.4byte	.Ldebug_ranges0+0x20
 12304 45d7 01       		.byte	0x1
 12305 45d8 5702     		.2byte	0x257
 12306 45da 3D460000 		.4byte	0x463d
 12307 45de 48       		.uleb128 0x48
 12308 45df 723D0000 		.4byte	0x3d72
 12309 45e3 5D0A0000 		.4byte	.LLST33
 12310 45e7 49       		.uleb128 0x49
 12311 45e8 20000000 		.4byte	.Ldebug_ranges0+0x20
 12312 45ec 4A       		.uleb128 0x4a
 12313 45ed 7C3D0000 		.4byte	0x3d7c
 12314 45f1 7E0A0000 		.4byte	.LLST34
 12315 45f5 4A       		.uleb128 0x4a
 12316 45f6 883D0000 		.4byte	0x3d88
 12317 45fa 9C0A0000 		.4byte	.LLST35
 12318 45fe 45       		.uleb128 0x45
 12319 45ff DE000000 		.4byte	.LVL138
 12320 4603 9F5A0000 		.4byte	0x5a9f
 12321 4607 1E460000 		.4byte	0x461e
 12322 460b 44       		.uleb128 0x44
 12323 460c 01       		.uleb128 0x1
ARM GAS  /tmp/cccFXynL.s 			page 218


 12324 460d 50       		.byte	0x50
 12325 460e 03       		.uleb128 0x3
 12326 460f 7D       		.byte	0x7d
 12327 4610 3C       		.sleb128 60
 12328 4611 06       		.byte	0x6
 12329 4612 44       		.uleb128 0x44
 12330 4613 01       		.uleb128 0x1
 12331 4614 51       		.byte	0x51
 12332 4615 07       		.uleb128 0x7
 12333 4616 74       		.byte	0x74
 12334 4617 00       		.sleb128 0
 12335 4618 34       		.byte	0x34
 12336 4619 24       		.byte	0x24
 12337 461a 78       		.byte	0x78
 12338 461b 00       		.sleb128 0
 12339 461c 22       		.byte	0x22
 12340 461d 00       		.byte	0
 12341 461e 43       		.uleb128 0x43
 12342 461f FA000000 		.4byte	.LVL139
 12343 4623 9F5A0000 		.4byte	0x5a9f
 12344 4627 44       		.uleb128 0x44
 12345 4628 01       		.uleb128 0x1
 12346 4629 50       		.byte	0x50
 12347 462a 03       		.uleb128 0x3
 12348 462b 7D       		.byte	0x7d
 12349 462c 3C       		.sleb128 60
 12350 462d 06       		.byte	0x6
 12351 462e 44       		.uleb128 0x44
 12352 462f 01       		.uleb128 0x1
 12353 4630 51       		.byte	0x51
 12354 4631 08       		.uleb128 0x8
 12355 4632 74       		.byte	0x74
 12356 4633 828280F0 		.sleb128 234881282
 12356      00
 12357 4638 34       		.byte	0x34
 12358 4639 24       		.byte	0x24
 12359 463a 00       		.byte	0
 12360 463b 00       		.byte	0
 12361 463c 00       		.byte	0
 12362 463d 47       		.uleb128 0x47
 12363 463e D4400000 		.4byte	0x40d4
 12364 4642 28010000 		.4byte	.LBB82
 12365 4646 38000000 		.4byte	.Ldebug_ranges0+0x38
 12366 464a 01       		.byte	0x1
 12367 464b 4002     		.2byte	0x240
 12368 464d CA470000 		.4byte	0x47ca
 12369 4651 48       		.uleb128 0x48
 12370 4652 E5400000 		.4byte	0x40e5
 12371 4656 BB0A0000 		.4byte	.LLST36
 12372 465a 49       		.uleb128 0x49
 12373 465b 38000000 		.4byte	.Ldebug_ranges0+0x38
 12374 465f 4A       		.uleb128 0x4a
 12375 4660 EF400000 		.4byte	0x40ef
 12376 4664 EA0A0000 		.4byte	.LLST37
 12377 4668 4A       		.uleb128 0x4a
 12378 4669 FB400000 		.4byte	0x40fb
 12379 466d 080B0000 		.4byte	.LLST38
ARM GAS  /tmp/cccFXynL.s 			page 219


 12380 4671 57       		.uleb128 0x57
 12381 4672 07410000 		.4byte	0x4107
 12382 4676 60000000 		.4byte	.Ldebug_ranges0+0x60
 12383 467a 50470000 		.4byte	0x4750
 12384 467e 55       		.uleb128 0x55
 12385 467f 08410000 		.4byte	0x4108
 12386 4683 AA580000 		.4byte	0x58aa
 12387 4687 260B0000 		.4byte	.LLST40
 12388 468b 56       		.uleb128 0x56
 12389 468c 14410000 		.4byte	0x4114
 12390 4690 03       		.uleb128 0x3
 12391 4691 91       		.byte	0x91
 12392 4692 D47E     		.sleb128 -172
 12393 4694 4A       		.uleb128 0x4a
 12394 4695 20410000 		.4byte	0x4120
 12395 4699 520B0000 		.4byte	.LLST41
 12396 469d 4A       		.uleb128 0x4a
 12397 469e 2C410000 		.4byte	0x412c
 12398 46a2 700B0000 		.4byte	.LLST42
 12399 46a6 4A       		.uleb128 0x4a
 12400 46a7 38410000 		.4byte	0x4138
 12401 46ab 8E0B0000 		.4byte	.LLST43
 12402 46af 4A       		.uleb128 0x4a
 12403 46b0 44410000 		.4byte	0x4144
 12404 46b4 B80B0000 		.4byte	.LLST44
 12405 46b8 4A       		.uleb128 0x4a
 12406 46b9 50410000 		.4byte	0x4150
 12407 46bd 000C0000 		.4byte	.LLST45
 12408 46c1 45       		.uleb128 0x45
 12409 46c2 80010000 		.4byte	.LVL154
 12410 46c6 1B5A0000 		.4byte	0x5a1b
 12411 46ca DD460000 		.4byte	0x46dd
 12412 46ce 44       		.uleb128 0x44
 12413 46cf 01       		.uleb128 0x1
 12414 46d0 50       		.byte	0x50
 12415 46d1 04       		.uleb128 0x4
 12416 46d2 91       		.byte	0x91
 12417 46d3 C47E     		.sleb128 -188
 12418 46d5 06       		.byte	0x6
 12419 46d6 44       		.uleb128 0x44
 12420 46d7 01       		.uleb128 0x1
 12421 46d8 51       		.byte	0x51
 12422 46d9 02       		.uleb128 0x2
 12423 46da 75       		.byte	0x75
 12424 46db 00       		.sleb128 0
 12425 46dc 00       		.byte	0
 12426 46dd 45       		.uleb128 0x45
 12427 46de 9C010000 		.4byte	.LVL158
 12428 46e2 055A0000 		.4byte	0x5a05
 12429 46e6 FE460000 		.4byte	0x46fe
 12430 46ea 44       		.uleb128 0x44
 12431 46eb 01       		.uleb128 0x1
 12432 46ec 50       		.byte	0x50
 12433 46ed 02       		.uleb128 0x2
 12434 46ee 7A       		.byte	0x7a
 12435 46ef 00       		.sleb128 0
 12436 46f0 44       		.uleb128 0x44
ARM GAS  /tmp/cccFXynL.s 			page 220


 12437 46f1 01       		.uleb128 0x1
 12438 46f2 51       		.byte	0x51
 12439 46f3 03       		.uleb128 0x3
 12440 46f4 91       		.byte	0x91
 12441 46f5 FC7E     		.sleb128 -132
 12442 46f7 44       		.uleb128 0x44
 12443 46f8 01       		.uleb128 0x1
 12444 46f9 53       		.byte	0x53
 12445 46fa 02       		.uleb128 0x2
 12446 46fb 08       		.byte	0x8
 12447 46fc 20       		.byte	0x20
 12448 46fd 00       		.byte	0
 12449 46fe 45       		.uleb128 0x45
 12450 46ff A2010000 		.4byte	.LVL159
 12451 4703 E4590000 		.4byte	0x59e4
 12452 4707 12470000 		.4byte	0x4712
 12453 470b 44       		.uleb128 0x44
 12454 470c 01       		.uleb128 0x1
 12455 470d 50       		.byte	0x50
 12456 470e 02       		.uleb128 0x2
 12457 470f 7A       		.byte	0x7a
 12458 4710 00       		.sleb128 0
 12459 4711 00       		.byte	0
 12460 4712 45       		.uleb128 0x45
 12461 4713 EE010000 		.4byte	.LVL165
 12462 4717 BF590000 		.4byte	0x59bf
 12463 471b 39470000 		.4byte	0x4739
 12464 471f 44       		.uleb128 0x44
 12465 4720 01       		.uleb128 0x1
 12466 4721 50       		.byte	0x50
 12467 4722 02       		.uleb128 0x2
 12468 4723 74       		.byte	0x74
 12469 4724 00       		.sleb128 0
 12470 4725 44       		.uleb128 0x44
 12471 4726 01       		.uleb128 0x1
 12472 4727 51       		.byte	0x51
 12473 4728 06       		.uleb128 0x6
 12474 4729 11       		.byte	0x11
 12475 472a 8CDA8380 		.sleb128 -536810228
 12475      7E
 12476 472f 44       		.uleb128 0x44
 12477 4730 01       		.uleb128 0x1
 12478 4731 52       		.byte	0x52
 12479 4732 05       		.uleb128 0x5
 12480 4733 0C       		.byte	0xc
 12481 4734 0200FA05 		.4byte	0x5fa0002
 12482 4738 00       		.byte	0
 12483 4739 43       		.uleb128 0x43
 12484 473a F6010000 		.4byte	.LVL166
 12485 473e 3C5A0000 		.4byte	0x5a3c
 12486 4742 44       		.uleb128 0x44
 12487 4743 01       		.uleb128 0x1
 12488 4744 50       		.byte	0x50
 12489 4745 02       		.uleb128 0x2
 12490 4746 74       		.byte	0x74
 12491 4747 00       		.sleb128 0
 12492 4748 44       		.uleb128 0x44
ARM GAS  /tmp/cccFXynL.s 			page 221


 12493 4749 01       		.uleb128 0x1
 12494 474a 51       		.byte	0x51
 12495 474b 02       		.uleb128 0x2
 12496 474c 75       		.byte	0x75
 12497 474d 00       		.sleb128 0
 12498 474e 00       		.byte	0
 12499 474f 00       		.byte	0
 12500 4750 45       		.uleb128 0x45
 12501 4751 3A010000 		.4byte	.LVL144
 12502 4755 9F5A0000 		.4byte	0x5a9f
 12503 4759 6C470000 		.4byte	0x476c
 12504 475d 44       		.uleb128 0x44
 12505 475e 01       		.uleb128 0x1
 12506 475f 50       		.byte	0x50
 12507 4760 04       		.uleb128 0x4
 12508 4761 91       		.byte	0x91
 12509 4762 C47E     		.sleb128 -188
 12510 4764 06       		.byte	0x6
 12511 4765 44       		.uleb128 0x44
 12512 4766 01       		.uleb128 0x1
 12513 4767 51       		.byte	0x51
 12514 4768 02       		.uleb128 0x2
 12515 4769 78       		.byte	0x78
 12516 476a 00       		.sleb128 0
 12517 476b 00       		.byte	0
 12518 476c 45       		.uleb128 0x45
 12519 476d 44010000 		.4byte	.LVL147
 12520 4771 9F5A0000 		.4byte	0x5a9f
 12521 4775 88470000 		.4byte	0x4788
 12522 4779 44       		.uleb128 0x44
 12523 477a 01       		.uleb128 0x1
 12524 477b 50       		.byte	0x50
 12525 477c 04       		.uleb128 0x4
 12526 477d 91       		.byte	0x91
 12527 477e C47E     		.sleb128 -188
 12528 4780 06       		.byte	0x6
 12529 4781 44       		.uleb128 0x44
 12530 4782 01       		.uleb128 0x1
 12531 4783 51       		.byte	0x51
 12532 4784 02       		.uleb128 0x2
 12533 4785 76       		.byte	0x76
 12534 4786 00       		.sleb128 0
 12535 4787 00       		.byte	0
 12536 4788 45       		.uleb128 0x45
 12537 4789 50010000 		.4byte	.LVL150
 12538 478d BF590000 		.4byte	0x59bf
 12539 4791 AA470000 		.4byte	0x47aa
 12540 4795 44       		.uleb128 0x44
 12541 4796 01       		.uleb128 0x1
 12542 4797 50       		.byte	0x50
 12543 4798 04       		.uleb128 0x4
 12544 4799 91       		.byte	0x91
 12545 479a C47E     		.sleb128 -188
 12546 479c 06       		.byte	0x6
 12547 479d 44       		.uleb128 0x44
 12548 479e 01       		.uleb128 0x1
 12549 479f 51       		.byte	0x51
ARM GAS  /tmp/cccFXynL.s 			page 222


 12550 47a0 02       		.uleb128 0x2
 12551 47a1 78       		.byte	0x78
 12552 47a2 00       		.sleb128 0
 12553 47a3 44       		.uleb128 0x44
 12554 47a4 01       		.uleb128 0x1
 12555 47a5 52       		.byte	0x52
 12556 47a6 02       		.uleb128 0x2
 12557 47a7 75       		.byte	0x75
 12558 47a8 00       		.sleb128 0
 12559 47a9 00       		.byte	0
 12560 47aa 43       		.uleb128 0x43
 12561 47ab 5A010000 		.4byte	.LVL151
 12562 47af BF590000 		.4byte	0x59bf
 12563 47b3 44       		.uleb128 0x44
 12564 47b4 01       		.uleb128 0x1
 12565 47b5 50       		.byte	0x50
 12566 47b6 04       		.uleb128 0x4
 12567 47b7 91       		.byte	0x91
 12568 47b8 C47E     		.sleb128 -188
 12569 47ba 06       		.byte	0x6
 12570 47bb 44       		.uleb128 0x44
 12571 47bc 01       		.uleb128 0x1
 12572 47bd 51       		.byte	0x51
 12573 47be 02       		.uleb128 0x2
 12574 47bf 76       		.byte	0x76
 12575 47c0 00       		.sleb128 0
 12576 47c1 44       		.uleb128 0x44
 12577 47c2 01       		.uleb128 0x1
 12578 47c3 52       		.byte	0x52
 12579 47c4 02       		.uleb128 0x2
 12580 47c5 79       		.byte	0x79
 12581 47c6 00       		.sleb128 0
 12582 47c7 00       		.byte	0
 12583 47c8 00       		.byte	0
 12584 47c9 00       		.byte	0
 12585 47ca 58       		.uleb128 0x58
 12586 47cb A2000000 		.4byte	0xa2
 12587 47cf 130C0000 		.4byte	.LLST39
 12588 47d3 58       		.uleb128 0x58
 12589 47d4 A2000000 		.4byte	0xa2
 12590 47d8 2D0C0000 		.4byte	.LLST49
 12591 47dc 45       		.uleb128 0x45
 12592 47dd 36000000 		.4byte	.LVL124
 12593 47e1 AA5A0000 		.4byte	0x5aaa
 12594 47e5 F1470000 		.4byte	0x47f1
 12595 47e9 44       		.uleb128 0x44
 12596 47ea 01       		.uleb128 0x1
 12597 47eb 50       		.byte	0x50
 12598 47ec 03       		.uleb128 0x3
 12599 47ed 7D       		.byte	0x7d
 12600 47ee A001     		.sleb128 160
 12601 47f0 00       		.byte	0
 12602 47f1 45       		.uleb128 0x45
 12603 47f2 4E000000 		.4byte	.LVL125
 12604 47f6 9F5A0000 		.4byte	0x5a9f
 12605 47fa 0C480000 		.4byte	0x480c
 12606 47fe 44       		.uleb128 0x44
ARM GAS  /tmp/cccFXynL.s 			page 223


 12607 47ff 01       		.uleb128 0x1
 12608 4800 50       		.byte	0x50
 12609 4801 03       		.uleb128 0x3
 12610 4802 7D       		.byte	0x7d
 12611 4803 3C       		.sleb128 60
 12612 4804 06       		.byte	0x6
 12613 4805 44       		.uleb128 0x44
 12614 4806 01       		.uleb128 0x1
 12615 4807 51       		.byte	0x51
 12616 4808 02       		.uleb128 0x2
 12617 4809 76       		.byte	0x76
 12618 480a 00       		.sleb128 0
 12619 480b 00       		.byte	0
 12620 480c 45       		.uleb128 0x45
 12621 480d 80000000 		.4byte	.LVL128
 12622 4811 9F5A0000 		.4byte	0x5a9f
 12623 4815 26480000 		.4byte	0x4826
 12624 4819 44       		.uleb128 0x44
 12625 481a 01       		.uleb128 0x1
 12626 481b 50       		.byte	0x50
 12627 481c 02       		.uleb128 0x2
 12628 481d 76       		.byte	0x76
 12629 481e 00       		.sleb128 0
 12630 481f 44       		.uleb128 0x44
 12631 4820 01       		.uleb128 0x1
 12632 4821 51       		.byte	0x51
 12633 4822 02       		.uleb128 0x2
 12634 4823 75       		.byte	0x75
 12635 4824 00       		.sleb128 0
 12636 4825 00       		.byte	0
 12637 4826 45       		.uleb128 0x45
 12638 4827 8C000000 		.4byte	.LVL131
 12639 482b BF590000 		.4byte	0x59bf
 12640 482f 46480000 		.4byte	0x4846
 12641 4833 44       		.uleb128 0x44
 12642 4834 01       		.uleb128 0x1
 12643 4835 50       		.byte	0x50
 12644 4836 02       		.uleb128 0x2
 12645 4837 76       		.byte	0x76
 12646 4838 00       		.sleb128 0
 12647 4839 44       		.uleb128 0x44
 12648 483a 01       		.uleb128 0x1
 12649 483b 51       		.byte	0x51
 12650 483c 02       		.uleb128 0x2
 12651 483d 75       		.byte	0x75
 12652 483e 00       		.sleb128 0
 12653 483f 44       		.uleb128 0x44
 12654 4840 01       		.uleb128 0x1
 12655 4841 52       		.byte	0x52
 12656 4842 02       		.uleb128 0x2
 12657 4843 74       		.byte	0x74
 12658 4844 00       		.sleb128 0
 12659 4845 00       		.byte	0
 12660 4846 42       		.uleb128 0x42
 12661 4847 06010000 		.4byte	.LVL140
 12662 484b B55A0000 		.4byte	0x5ab5
 12663 484f 00       		.byte	0
ARM GAS  /tmp/cccFXynL.s 			page 224


 12664 4850 50       		.uleb128 0x50
 12665 4851 B01D0000 		.4byte	.LASF854
 12666 4855 01       		.byte	0x1
 12667 4856 1702     		.2byte	0x217
 12668 4858 00000000 		.4byte	.LFB279
 12669 485c 64000000 		.4byte	.LFE279-.LFB279
 12670 4860 01       		.uleb128 0x1
 12671 4861 9C       		.byte	0x9c
 12672 4862 D5480000 		.4byte	0x48d5
 12673 4866 3C       		.uleb128 0x3c
 12674 4867 7400     		.ascii	"t\000"
 12675 4869 01       		.byte	0x1
 12676 486a 1702     		.2byte	0x217
 12677 486c DB340000 		.4byte	0x34db
 12678 4870 490C0000 		.4byte	.LLST22
 12679 4874 41       		.uleb128 0x41
 12680 4875 6500     		.ascii	"e\000"
 12681 4877 01       		.byte	0x1
 12682 4878 1902     		.2byte	0x219
 12683 487a B42E0000 		.4byte	0x2eb4
 12684 487e 03       		.uleb128 0x3
 12685 487f 91       		.byte	0x91
 12686 4880 847F     		.sleb128 -124
 12687 4882 45       		.uleb128 0x45
 12688 4883 1E000000 		.4byte	.LVL101
 12689 4887 AA5A0000 		.4byte	0x5aaa
 12690 488b 97480000 		.4byte	0x4897
 12691 488f 44       		.uleb128 0x44
 12692 4890 01       		.uleb128 0x1
 12693 4891 50       		.byte	0x50
 12694 4892 03       		.uleb128 0x3
 12695 4893 91       		.byte	0x91
 12696 4894 907F     		.sleb128 -112
 12697 4896 00       		.byte	0
 12698 4897 45       		.uleb128 0x45
 12699 4898 38000000 		.4byte	.LVL102
 12700 489c BF590000 		.4byte	0x59bf
 12701 48a0 B9480000 		.4byte	0x48b9
 12702 48a4 44       		.uleb128 0x44
 12703 48a5 01       		.uleb128 0x1
 12704 48a6 50       		.byte	0x50
 12705 48a7 04       		.uleb128 0x4
 12706 48a8 91       		.byte	0x91
 12707 48a9 FC7E     		.sleb128 -132
 12708 48ab 06       		.byte	0x6
 12709 48ac 44       		.uleb128 0x44
 12710 48ad 01       		.uleb128 0x1
 12711 48ae 51       		.byte	0x51
 12712 48af 02       		.uleb128 0x2
 12713 48b0 75       		.byte	0x75
 12714 48b1 00       		.sleb128 0
 12715 48b2 44       		.uleb128 0x44
 12716 48b3 01       		.uleb128 0x1
 12717 48b4 52       		.byte	0x52
 12718 48b5 02       		.uleb128 0x2
 12719 48b6 76       		.byte	0x76
 12720 48b7 00       		.sleb128 0
ARM GAS  /tmp/cccFXynL.s 			page 225


 12721 48b8 00       		.byte	0
 12722 48b9 43       		.uleb128 0x43
 12723 48ba 4E000000 		.4byte	.LVL103
 12724 48be CA590000 		.4byte	0x59ca
 12725 48c2 44       		.uleb128 0x44
 12726 48c3 01       		.uleb128 0x1
 12727 48c4 50       		.byte	0x50
 12728 48c5 04       		.uleb128 0x4
 12729 48c6 91       		.byte	0x91
 12730 48c7 FC7E     		.sleb128 -132
 12731 48c9 06       		.byte	0x6
 12732 48ca 44       		.uleb128 0x44
 12733 48cb 01       		.uleb128 0x1
 12734 48cc 51       		.byte	0x51
 12735 48cd 05       		.uleb128 0x5
 12736 48ce 03       		.byte	0x3
 12737 48cf 00000000 		.4byte	.LC15
 12738 48d3 00       		.byte	0
 12739 48d4 00       		.byte	0
 12740 48d5 50       		.uleb128 0x50
 12741 48d6 E5020000 		.4byte	.LASF855
 12742 48da 01       		.byte	0x1
 12743 48db F501     		.2byte	0x1f5
 12744 48dd 00000000 		.4byte	.LFB278
 12745 48e1 68000000 		.4byte	.LFE278-.LFB278
 12746 48e5 01       		.uleb128 0x1
 12747 48e6 9C       		.byte	0x9c
 12748 48e7 C2490000 		.4byte	0x49c2
 12749 48eb 3C       		.uleb128 0x3c
 12750 48ec 7400     		.ascii	"t\000"
 12751 48ee 01       		.byte	0x1
 12752 48ef F501     		.2byte	0x1f5
 12753 48f1 DB340000 		.4byte	0x34db
 12754 48f5 760C0000 		.4byte	.LLST104
 12755 48f9 45       		.uleb128 0x45
 12756 48fa 14000000 		.4byte	.LVL317
 12757 48fe 9F5A0000 		.4byte	0x5a9f
 12758 4902 17490000 		.4byte	0x4917
 12759 4906 44       		.uleb128 0x44
 12760 4907 01       		.uleb128 0x1
 12761 4908 50       		.byte	0x50
 12762 4909 02       		.uleb128 0x2
 12763 490a 74       		.byte	0x74
 12764 490b 00       		.sleb128 0
 12765 490c 44       		.uleb128 0x44
 12766 490d 01       		.uleb128 0x1
 12767 490e 51       		.byte	0x51
 12768 490f 06       		.uleb128 0x6
 12769 4910 11       		.byte	0x11
 12770 4911 F0DB8380 		.sleb128 -536810000
 12770      7E
 12771 4916 00       		.byte	0
 12772 4917 45       		.uleb128 0x45
 12773 4918 1E000000 		.4byte	.LVL318
 12774 491c BF590000 		.4byte	0x59bf
 12775 4920 3E490000 		.4byte	0x493e
 12776 4924 44       		.uleb128 0x44
ARM GAS  /tmp/cccFXynL.s 			page 226


 12777 4925 01       		.uleb128 0x1
 12778 4926 50       		.byte	0x50
 12779 4927 02       		.uleb128 0x2
 12780 4928 74       		.byte	0x74
 12781 4929 00       		.sleb128 0
 12782 492a 44       		.uleb128 0x44
 12783 492b 01       		.uleb128 0x1
 12784 492c 51       		.byte	0x51
 12785 492d 06       		.uleb128 0x6
 12786 492e 11       		.byte	0x11
 12787 492f 8CDA8380 		.sleb128 -536810228
 12787      7E
 12788 4934 44       		.uleb128 0x44
 12789 4935 01       		.uleb128 0x1
 12790 4936 52       		.byte	0x52
 12791 4937 05       		.uleb128 0x5
 12792 4938 0C       		.byte	0xc
 12793 4939 0400FA05 		.4byte	0x5fa0004
 12794 493d 00       		.byte	0
 12795 493e 59       		.uleb128 0x59
 12796 493f 26000000 		.4byte	.LVL319
 12797 4943 4E490000 		.4byte	0x494e
 12798 4947 44       		.uleb128 0x44
 12799 4948 01       		.uleb128 0x1
 12800 4949 50       		.byte	0x50
 12801 494a 02       		.uleb128 0x2
 12802 494b 74       		.byte	0x74
 12803 494c 00       		.sleb128 0
 12804 494d 00       		.byte	0
 12805 494e 45       		.uleb128 0x45
 12806 494f 30000000 		.4byte	.LVL320
 12807 4953 9F5A0000 		.4byte	0x5a9f
 12808 4957 68490000 		.4byte	0x4968
 12809 495b 44       		.uleb128 0x44
 12810 495c 01       		.uleb128 0x1
 12811 495d 50       		.byte	0x50
 12812 495e 02       		.uleb128 0x2
 12813 495f 74       		.byte	0x74
 12814 4960 00       		.sleb128 0
 12815 4961 44       		.uleb128 0x44
 12816 4962 01       		.uleb128 0x1
 12817 4963 51       		.byte	0x51
 12818 4964 02       		.uleb128 0x2
 12819 4965 75       		.byte	0x75
 12820 4966 00       		.sleb128 0
 12821 4967 00       		.byte	0
 12822 4968 45       		.uleb128 0x45
 12823 4969 3E000000 		.4byte	.LVL321
 12824 496d BF590000 		.4byte	0x59bf
 12825 4971 8B490000 		.4byte	0x498b
 12826 4975 44       		.uleb128 0x44
 12827 4976 01       		.uleb128 0x1
 12828 4977 50       		.byte	0x50
 12829 4978 02       		.uleb128 0x2
 12830 4979 74       		.byte	0x74
 12831 497a 00       		.sleb128 0
 12832 497b 44       		.uleb128 0x44
ARM GAS  /tmp/cccFXynL.s 			page 227


 12833 497c 01       		.uleb128 0x1
 12834 497d 51       		.byte	0x51
 12835 497e 06       		.uleb128 0x6
 12836 497f 11       		.byte	0x11
 12837 4980 B0DA8380 		.sleb128 -536810192
 12837      7E
 12838 4985 44       		.uleb128 0x44
 12839 4986 01       		.uleb128 0x1
 12840 4987 52       		.byte	0x52
 12841 4988 01       		.uleb128 0x1
 12842 4989 4F       		.byte	0x4f
 12843 498a 00       		.byte	0
 12844 498b 5A       		.uleb128 0x5a
 12845 498c 48000000 		.4byte	.LVL323
 12846 4990 C05A0000 		.4byte	0x5ac0
 12847 4994 9E490000 		.4byte	0x499e
 12848 4998 44       		.uleb128 0x44
 12849 4999 01       		.uleb128 0x1
 12850 499a 50       		.byte	0x50
 12851 499b 01       		.uleb128 0x1
 12852 499c 31       		.byte	0x31
 12853 499d 00       		.byte	0
 12854 499e 45       		.uleb128 0x45
 12855 499f 4E000000 		.4byte	.LVL324
 12856 49a3 CB5A0000 		.4byte	0x5acb
 12857 49a7 B1490000 		.4byte	0x49b1
 12858 49ab 44       		.uleb128 0x44
 12859 49ac 01       		.uleb128 0x1
 12860 49ad 50       		.byte	0x50
 12861 49ae 01       		.uleb128 0x1
 12862 49af 31       		.byte	0x31
 12863 49b0 00       		.byte	0
 12864 49b1 43       		.uleb128 0x43
 12865 49b2 54000000 		.4byte	.LVL325
 12866 49b6 CB5A0000 		.4byte	0x5acb
 12867 49ba 44       		.uleb128 0x44
 12868 49bb 01       		.uleb128 0x1
 12869 49bc 50       		.byte	0x50
 12870 49bd 02       		.uleb128 0x2
 12871 49be 75       		.byte	0x75
 12872 49bf 00       		.sleb128 0
 12873 49c0 00       		.byte	0
 12874 49c1 00       		.byte	0
 12875 49c2 5B       		.uleb128 0x5b
 12876 49c3 5B210000 		.4byte	.LASF874
 12877 49c7 01       		.byte	0x1
 12878 49c8 ED01     		.2byte	0x1ed
 12879 49ca 01       		.byte	0x1
 12880 49cb E6490000 		.4byte	0x49e6
 12881 49cf 36       		.uleb128 0x36
 12882 49d0 7400     		.ascii	"t\000"
 12883 49d2 01       		.byte	0x1
 12884 49d3 ED01     		.2byte	0x1ed
 12885 49d5 DB340000 		.4byte	0x34db
 12886 49d9 36       		.uleb128 0x36
 12887 49da 76616C00 		.ascii	"val\000"
 12888 49de 01       		.byte	0x1
ARM GAS  /tmp/cccFXynL.s 			page 228


 12889 49df ED01     		.2byte	0x1ed
 12890 49e1 E2000000 		.4byte	0xe2
 12891 49e5 00       		.byte	0
 12892 49e6 3B       		.uleb128 0x3b
 12893 49e7 DD0E0000 		.4byte	.LASF856
 12894 49eb 01       		.byte	0x1
 12895 49ec E701     		.2byte	0x1e7
 12896 49ee D2000000 		.4byte	0xd2
 12897 49f2 00000000 		.4byte	.LFB276
 12898 49f6 20000000 		.4byte	.LFE276-.LFB276
 12899 49fa 01       		.uleb128 0x1
 12900 49fb 9C       		.byte	0x9c
 12901 49fc 4D4A0000 		.4byte	0x4a4d
 12902 4a00 3C       		.uleb128 0x3c
 12903 4a01 7400     		.ascii	"t\000"
 12904 4a03 01       		.byte	0x1
 12905 4a04 E701     		.2byte	0x1e7
 12906 4a06 DB340000 		.4byte	0x34db
 12907 4a0a AD0C0000 		.4byte	.LLST18
 12908 4a0e 45       		.uleb128 0x45
 12909 4a0f 0C000000 		.4byte	.LVL83
 12910 4a13 BF590000 		.4byte	0x59bf
 12911 4a17 314A0000 		.4byte	0x4a31
 12912 4a1b 44       		.uleb128 0x44
 12913 4a1c 01       		.uleb128 0x1
 12914 4a1d 50       		.byte	0x50
 12915 4a1e 02       		.uleb128 0x2
 12916 4a1f 74       		.byte	0x74
 12917 4a20 00       		.sleb128 0
 12918 4a21 44       		.uleb128 0x44
 12919 4a22 01       		.uleb128 0x1
 12920 4a23 51       		.byte	0x51
 12921 4a24 06       		.uleb128 0x6
 12922 4a25 11       		.byte	0x11
 12923 4a26 F4DB8380 		.sleb128 -536809996
 12923      7E
 12924 4a2b 44       		.uleb128 0x44
 12925 4a2c 01       		.uleb128 0x1
 12926 4a2d 52       		.byte	0x52
 12927 4a2e 01       		.uleb128 0x1
 12928 4a2f 3F       		.byte	0x3f
 12929 4a30 00       		.byte	0
 12930 4a31 53       		.uleb128 0x53
 12931 4a32 18000000 		.4byte	.LVL85
 12932 4a36 9F5A0000 		.4byte	0x5a9f
 12933 4a3a 44       		.uleb128 0x44
 12934 4a3b 01       		.uleb128 0x1
 12935 4a3c 50       		.byte	0x50
 12936 4a3d 03       		.uleb128 0x3
 12937 4a3e F3       		.byte	0xf3
 12938 4a3f 01       		.uleb128 0x1
 12939 4a40 50       		.byte	0x50
 12940 4a41 44       		.uleb128 0x44
 12941 4a42 01       		.uleb128 0x1
 12942 4a43 51       		.byte	0x51
 12943 4a44 06       		.uleb128 0x6
 12944 4a45 11       		.byte	0x11
ARM GAS  /tmp/cccFXynL.s 			page 229


 12945 4a46 F8DB8380 		.sleb128 -536809992
 12945      7E
 12946 4a4b 00       		.byte	0
 12947 4a4c 00       		.byte	0
 12948 4a4d 4C       		.uleb128 0x4c
 12949 4a4e 56140000 		.4byte	.LASF858
 12950 4a52 01       		.byte	0x1
 12951 4a53 DF01     		.2byte	0x1df
 12952 4a55 94000000 		.4byte	0x94
 12953 4a59 00000000 		.4byte	.LFB275
 12954 4a5d 40000000 		.4byte	.LFE275-.LFB275
 12955 4a61 01       		.uleb128 0x1
 12956 4a62 9C       		.byte	0x9c
 12957 4a63 354B0000 		.4byte	0x4b35
 12958 4a67 3C       		.uleb128 0x3c
 12959 4a68 7400     		.ascii	"t\000"
 12960 4a6a 01       		.byte	0x1
 12961 4a6b E001     		.2byte	0x1e0
 12962 4a6d DB340000 		.4byte	0x34db
 12963 4a71 E40C0000 		.4byte	.LLST129
 12964 4a75 3D       		.uleb128 0x3d
 12965 4a76 09060000 		.4byte	.LASF859
 12966 4a7a 01       		.byte	0x1
 12967 4a7b E001     		.2byte	0x1e0
 12968 4a7d A1320000 		.4byte	0x32a1
 12969 4a81 020D0000 		.4byte	.LLST130
 12970 4a85 3C       		.uleb128 0x3c
 12971 4a86 73726300 		.ascii	"src\000"
 12972 4a8a 01       		.byte	0x1
 12973 4a8b E001     		.2byte	0x1e0
 12974 4a8d 34090000 		.4byte	0x934
 12975 4a91 2B0D0000 		.4byte	.LLST131
 12976 4a95 3C       		.uleb128 0x3c
 12977 4a96 6C656E00 		.ascii	"len\000"
 12978 4a9a 01       		.byte	0x1
 12979 4a9b E001     		.2byte	0x1e0
 12980 4a9d F2000000 		.4byte	0xf2
 12981 4aa1 490D0000 		.4byte	.LLST132
 12982 4aa5 5C       		.uleb128 0x5c
 12983 4aa6 491C0000 		.4byte	.LASF707
 12984 4aaa 01       		.byte	0x1
 12985 4aab E001     		.2byte	0x1e0
 12986 4aad 812F0000 		.4byte	0x2f81
 12987 4ab1 02       		.uleb128 0x2
 12988 4ab2 91       		.byte	0x91
 12989 4ab3 00       		.sleb128 0
 12990 4ab4 51       		.uleb128 0x51
 12991 4ab5 13580000 		.4byte	0x5813
 12992 4ab9 22000000 		.4byte	.LBB147
 12993 4abd 02000000 		.4byte	.LBE147-.LBB147
 12994 4ac1 01       		.byte	0x1
 12995 4ac2 E301     		.2byte	0x1e3
 12996 4ac4 CE4A0000 		.4byte	0x4ace
 12997 4ac8 5D       		.uleb128 0x5d
 12998 4ac9 23580000 		.4byte	0x5823
 12999 4acd 00       		.byte	0
 13000 4ace 45       		.uleb128 0x45
ARM GAS  /tmp/cccFXynL.s 			page 230


 13001 4acf 22000000 		.4byte	.LVL399
 13002 4ad3 D0580000 		.4byte	0x58d0
 13003 4ad7 FD4A0000 		.4byte	0x4afd
 13004 4adb 44       		.uleb128 0x44
 13005 4adc 01       		.uleb128 0x1
 13006 4add 51       		.byte	0x51
 13007 4ade 03       		.uleb128 0x3
 13008 4adf 74       		.byte	0x74
 13009 4ae0 EC00     		.sleb128 108
 13010 4ae2 44       		.uleb128 0x44
 13011 4ae3 01       		.uleb128 0x1
 13012 4ae4 52       		.byte	0x52
 13013 4ae5 02       		.uleb128 0x2
 13014 4ae6 75       		.byte	0x75
 13015 4ae7 00       		.sleb128 0
 13016 4ae8 44       		.uleb128 0x44
 13017 4ae9 01       		.uleb128 0x1
 13018 4aea 53       		.byte	0x53
 13019 4aeb 02       		.uleb128 0x2
 13020 4aec 77       		.byte	0x77
 13021 4aed 00       		.sleb128 0
 13022 4aee 44       		.uleb128 0x44
 13023 4aef 02       		.uleb128 0x2
 13024 4af0 7D       		.byte	0x7d
 13025 4af1 00       		.sleb128 0
 13026 4af2 01       		.uleb128 0x1
 13027 4af3 31       		.byte	0x31
 13028 4af4 5E       		.uleb128 0x5e
 13029 4af5 99570000 		.4byte	0x5799
 13030 4af9 02       		.uleb128 0x2
 13031 4afa 74       		.byte	0x74
 13032 4afb 00       		.sleb128 0
 13033 4afc 00       		.byte	0
 13034 4afd 45       		.uleb128 0x45
 13035 4afe 34000000 		.4byte	.LVL400
 13036 4b02 D65A0000 		.4byte	0x5ad6
 13037 4b06 244B0000 		.4byte	0x4b24
 13038 4b0a 44       		.uleb128 0x44
 13039 4b0b 01       		.uleb128 0x1
 13040 4b0c 51       		.byte	0x51
 13041 4b0d 02       		.uleb128 0x2
 13042 4b0e 75       		.byte	0x75
 13043 4b0f 00       		.sleb128 0
 13044 4b10 44       		.uleb128 0x44
 13045 4b11 01       		.uleb128 0x1
 13046 4b12 52       		.byte	0x52
 13047 4b13 02       		.uleb128 0x2
 13048 4b14 76       		.byte	0x76
 13049 4b15 00       		.sleb128 0
 13050 4b16 44       		.uleb128 0x44
 13051 4b17 01       		.uleb128 0x1
 13052 4b18 53       		.byte	0x53
 13053 4b19 02       		.uleb128 0x2
 13054 4b1a 77       		.byte	0x77
 13055 4b1b 00       		.sleb128 0
 13056 4b1c 44       		.uleb128 0x44
 13057 4b1d 02       		.uleb128 0x2
ARM GAS  /tmp/cccFXynL.s 			page 231


 13058 4b1e 7D       		.byte	0x7d
 13059 4b1f 00       		.sleb128 0
 13060 4b20 02       		.uleb128 0x2
 13061 4b21 78       		.byte	0x78
 13062 4b22 00       		.sleb128 0
 13063 4b23 00       		.byte	0
 13064 4b24 43       		.uleb128 0x43
 13065 4b25 3A000000 		.4byte	.LVL401
 13066 4b29 E4590000 		.4byte	0x59e4
 13067 4b2d 44       		.uleb128 0x44
 13068 4b2e 01       		.uleb128 0x1
 13069 4b2f 50       		.byte	0x50
 13070 4b30 02       		.uleb128 0x2
 13071 4b31 74       		.byte	0x74
 13072 4b32 00       		.sleb128 0
 13073 4b33 00       		.byte	0
 13074 4b34 00       		.byte	0
 13075 4b35 5F       		.uleb128 0x5f
 13076 4b36 BB020000 		.4byte	.LASF861
 13077 4b3a 01       		.byte	0x1
 13078 4b3b BD01     		.2byte	0x1bd
 13079 4b3d 00000000 		.4byte	.LFB274
 13080 4b41 CC000000 		.4byte	.LFE274-.LFB274
 13081 4b45 01       		.uleb128 0x1
 13082 4b46 9C       		.byte	0x9c
 13083 4b47 B44D0000 		.4byte	0x4db4
 13084 4b4b 3C       		.uleb128 0x3c
 13085 4b4c 7400     		.ascii	"t\000"
 13086 4b4e 01       		.byte	0x1
 13087 4b4f BD01     		.2byte	0x1bd
 13088 4b51 DB340000 		.4byte	0x34db
 13089 4b55 670D0000 		.4byte	.LLST54
 13090 4b59 3D       		.uleb128 0x3d
 13091 4b5a 951F0000 		.4byte	.LASF860
 13092 4b5e 01       		.byte	0x1
 13093 4b5f BD01     		.2byte	0x1bd
 13094 4b61 34090000 		.4byte	0x934
 13095 4b65 930D0000 		.4byte	.LLST55
 13096 4b69 38       		.uleb128 0x38
 13097 4b6a 617000   		.ascii	"ap\000"
 13098 4b6d 01       		.byte	0x1
 13099 4b6e BF01     		.2byte	0x1bf
 13100 4b70 AC3A0000 		.4byte	0x3aac
 13101 4b74 46       		.uleb128 0x46
 13102 4b75 80050000 		.4byte	.LASF837
 13103 4b79 01       		.byte	0x1
 13104 4b7a C001     		.2byte	0x1c0
 13105 4b7c B44D0000 		.4byte	0x4db4
 13106 4b80 CD0D0000 		.4byte	.LLST56
 13107 4b84 3F       		.uleb128 0x3f
 13108 4b85 6900     		.ascii	"i\000"
 13109 4b87 01       		.byte	0x1
 13110 4b88 C101     		.2byte	0x1c1
 13111 4b8a 9B000000 		.4byte	0x9b
 13112 4b8e 1B0E0000 		.4byte	.LLST57
 13113 4b92 51       		.uleb128 0x51
 13114 4b93 13580000 		.4byte	0x5813
ARM GAS  /tmp/cccFXynL.s 			page 232


 13115 4b97 04000000 		.4byte	.LBB107
 13116 4b9b 06000000 		.4byte	.LBE107-.LBB107
 13117 4b9f 01       		.byte	0x1
 13118 4ba0 BF01     		.2byte	0x1bf
 13119 4ba2 AC4B0000 		.4byte	0x4bac
 13120 4ba6 5D       		.uleb128 0x5d
 13121 4ba7 23580000 		.4byte	0x5823
 13122 4bab 00       		.byte	0
 13123 4bac 47       		.uleb128 0x47
 13124 4bad 2D580000 		.4byte	0x582d
 13125 4bb1 20000000 		.4byte	.LBB109
 13126 4bb5 E8000000 		.4byte	.Ldebug_ranges0+0xe8
 13127 4bb9 01       		.byte	0x1
 13128 4bba C801     		.2byte	0x1c8
 13129 4bbc 044C0000 		.4byte	0x4c04
 13130 4bc0 48       		.uleb128 0x48
 13131 4bc1 5D580000 		.4byte	0x585d
 13132 4bc5 2F0E0000 		.4byte	.LLST58
 13133 4bc9 48       		.uleb128 0x48
 13134 4bca 52580000 		.4byte	0x5852
 13135 4bce 470E0000 		.4byte	.LLST59
 13136 4bd2 48       		.uleb128 0x48
 13137 4bd3 47580000 		.4byte	0x5847
 13138 4bd7 5D0E0000 		.4byte	.LLST60
 13139 4bdb 48       		.uleb128 0x48
 13140 4bdc 3D580000 		.4byte	0x583d
 13141 4be0 710E0000 		.4byte	.LLST61
 13142 4be4 60       		.uleb128 0x60
 13143 4be5 2E000000 		.4byte	.LVL227
 13144 4be9 02       		.uleb128 0x2
 13145 4bea 74       		.byte	0x74
 13146 4beb 00       		.sleb128 0
 13147 4bec 44       		.uleb128 0x44
 13148 4bed 01       		.uleb128 0x1
 13149 4bee 51       		.byte	0x51
 13150 4bef 01       		.uleb128 0x1
 13151 4bf0 30       		.byte	0x30
 13152 4bf1 44       		.uleb128 0x44
 13153 4bf2 01       		.uleb128 0x1
 13154 4bf3 52       		.byte	0x52
 13155 4bf4 03       		.uleb128 0x3
 13156 4bf5 0A       		.byte	0xa
 13157 4bf6 0401     		.2byte	0x104
 13158 4bf8 44       		.uleb128 0x44
 13159 4bf9 01       		.uleb128 0x1
 13160 4bfa 53       		.byte	0x53
 13161 4bfb 06       		.uleb128 0x6
 13162 4bfc 11       		.byte	0x11
 13163 4bfd F0DB8380 		.sleb128 -536810000
 13163      7E
 13164 4c02 00       		.byte	0
 13165 4c03 00       		.byte	0
 13166 4c04 51       		.uleb128 0x51
 13167 4c05 2D580000 		.4byte	0x582d
 13168 4c09 3E000000 		.4byte	.LBB113
 13169 4c0d 10000000 		.4byte	.LBE113-.LBB113
 13170 4c11 01       		.byte	0x1
ARM GAS  /tmp/cccFXynL.s 			page 233


 13171 4c12 CD01     		.2byte	0x1cd
 13172 4c14 494C0000 		.4byte	0x4c49
 13173 4c18 5D       		.uleb128 0x5d
 13174 4c19 5D580000 		.4byte	0x585d
 13175 4c1d 5D       		.uleb128 0x5d
 13176 4c1e 52580000 		.4byte	0x5852
 13177 4c22 5D       		.uleb128 0x5d
 13178 4c23 47580000 		.4byte	0x5847
 13179 4c27 5D       		.uleb128 0x5d
 13180 4c28 3D580000 		.4byte	0x583d
 13181 4c2c 60       		.uleb128 0x60
 13182 4c2d 4C000000 		.4byte	.LVL229
 13183 4c31 02       		.uleb128 0x2
 13184 4c32 74       		.byte	0x74
 13185 4c33 00       		.sleb128 0
 13186 4c34 44       		.uleb128 0x44
 13187 4c35 01       		.uleb128 0x1
 13188 4c36 51       		.byte	0x51
 13189 4c37 01       		.uleb128 0x1
 13190 4c38 30       		.byte	0x30
 13191 4c39 44       		.uleb128 0x44
 13192 4c3a 01       		.uleb128 0x1
 13193 4c3b 52       		.byte	0x52
 13194 4c3c 03       		.uleb128 0x3
 13195 4c3d 0A       		.byte	0xa
 13196 4c3e 1401     		.2byte	0x114
 13197 4c40 44       		.uleb128 0x44
 13198 4c41 01       		.uleb128 0x1
 13199 4c42 53       		.byte	0x53
 13200 4c43 03       		.uleb128 0x3
 13201 4c44 40       		.byte	0x40
 13202 4c45 3C       		.byte	0x3c
 13203 4c46 24       		.byte	0x24
 13204 4c47 00       		.byte	0
 13205 4c48 00       		.byte	0
 13206 4c49 51       		.uleb128 0x51
 13207 4c4a 2D580000 		.4byte	0x582d
 13208 4c4e 5A000000 		.4byte	.LBB115
 13209 4c52 10000000 		.4byte	.LBE115-.LBB115
 13210 4c56 01       		.byte	0x1
 13211 4c57 D001     		.2byte	0x1d0
 13212 4c59 974C0000 		.4byte	0x4c97
 13213 4c5d 48       		.uleb128 0x48
 13214 4c5e 5D580000 		.4byte	0x585d
 13215 4c62 840E0000 		.4byte	.LLST62
 13216 4c66 48       		.uleb128 0x48
 13217 4c67 52580000 		.4byte	0x5852
 13218 4c6b A40E0000 		.4byte	.LLST63
 13219 4c6f 48       		.uleb128 0x48
 13220 4c70 47580000 		.4byte	0x5847
 13221 4c74 BA0E0000 		.4byte	.LLST64
 13222 4c78 48       		.uleb128 0x48
 13223 4c79 3D580000 		.4byte	0x583d
 13224 4c7d CE0E0000 		.4byte	.LLST65
 13225 4c81 60       		.uleb128 0x60
 13226 4c82 6A000000 		.4byte	.LVL234
 13227 4c86 02       		.uleb128 0x2
ARM GAS  /tmp/cccFXynL.s 			page 234


 13228 4c87 7B       		.byte	0x7b
 13229 4c88 00       		.sleb128 0
 13230 4c89 44       		.uleb128 0x44
 13231 4c8a 01       		.uleb128 0x1
 13232 4c8b 51       		.byte	0x51
 13233 4c8c 01       		.uleb128 0x1
 13234 4c8d 30       		.byte	0x30
 13235 4c8e 44       		.uleb128 0x44
 13236 4c8f 01       		.uleb128 0x1
 13237 4c90 52       		.byte	0x52
 13238 4c91 03       		.uleb128 0x3
 13239 4c92 0A       		.byte	0xa
 13240 4c93 1801     		.2byte	0x118
 13241 4c95 00       		.byte	0
 13242 4c96 00       		.byte	0
 13243 4c97 51       		.uleb128 0x51
 13244 4c98 2D580000 		.4byte	0x582d
 13245 4c9c 6C000000 		.4byte	.LBB117
 13246 4ca0 0E000000 		.4byte	.LBE117-.LBB117
 13247 4ca4 01       		.byte	0x1
 13248 4ca5 D201     		.2byte	0x1d2
 13249 4ca7 E54C0000 		.4byte	0x4ce5
 13250 4cab 48       		.uleb128 0x48
 13251 4cac 5D580000 		.4byte	0x585d
 13252 4cb0 E10E0000 		.4byte	.LLST66
 13253 4cb4 48       		.uleb128 0x48
 13254 4cb5 52580000 		.4byte	0x5852
 13255 4cb9 050F0000 		.4byte	.LLST67
 13256 4cbd 48       		.uleb128 0x48
 13257 4cbe 47580000 		.4byte	0x5847
 13258 4cc2 1B0F0000 		.4byte	.LLST68
 13259 4cc6 48       		.uleb128 0x48
 13260 4cc7 3D580000 		.4byte	0x583d
 13261 4ccb 2F0F0000 		.4byte	.LLST69
 13262 4ccf 60       		.uleb128 0x60
 13263 4cd0 7A000000 		.4byte	.LVL237
 13264 4cd4 02       		.uleb128 0x2
 13265 4cd5 76       		.byte	0x76
 13266 4cd6 00       		.sleb128 0
 13267 4cd7 44       		.uleb128 0x44
 13268 4cd8 01       		.uleb128 0x1
 13269 4cd9 51       		.byte	0x51
 13270 4cda 01       		.uleb128 0x1
 13271 4cdb 30       		.byte	0x30
 13272 4cdc 44       		.uleb128 0x44
 13273 4cdd 01       		.uleb128 0x1
 13274 4cde 52       		.byte	0x52
 13275 4cdf 03       		.uleb128 0x3
 13276 4ce0 0A       		.byte	0xa
 13277 4ce1 1401     		.2byte	0x114
 13278 4ce3 00       		.byte	0
 13279 4ce4 00       		.byte	0
 13280 4ce5 51       		.uleb128 0x51
 13281 4ce6 2D580000 		.4byte	0x582d
 13282 4cea 96000000 		.4byte	.LBB119
 13283 4cee 10000000 		.4byte	.LBE119-.LBB119
 13284 4cf2 01       		.byte	0x1
ARM GAS  /tmp/cccFXynL.s 			page 235


 13285 4cf3 D701     		.2byte	0x1d7
 13286 4cf5 334D0000 		.4byte	0x4d33
 13287 4cf9 48       		.uleb128 0x48
 13288 4cfa 5D580000 		.4byte	0x585d
 13289 4cfe 420F0000 		.4byte	.LLST70
 13290 4d02 48       		.uleb128 0x48
 13291 4d03 52580000 		.4byte	0x5852
 13292 4d07 620F0000 		.4byte	.LLST71
 13293 4d0b 48       		.uleb128 0x48
 13294 4d0c 47580000 		.4byte	0x5847
 13295 4d10 780F0000 		.4byte	.LLST72
 13296 4d14 48       		.uleb128 0x48
 13297 4d15 3D580000 		.4byte	0x583d
 13298 4d19 8C0F0000 		.4byte	.LLST73
 13299 4d1d 60       		.uleb128 0x60
 13300 4d1e A6000000 		.4byte	.LVL241
 13301 4d22 02       		.uleb128 0x2
 13302 4d23 78       		.byte	0x78
 13303 4d24 00       		.sleb128 0
 13304 4d25 44       		.uleb128 0x44
 13305 4d26 01       		.uleb128 0x1
 13306 4d27 51       		.byte	0x51
 13307 4d28 01       		.uleb128 0x1
 13308 4d29 30       		.byte	0x30
 13309 4d2a 44       		.uleb128 0x44
 13310 4d2b 01       		.uleb128 0x1
 13311 4d2c 52       		.byte	0x52
 13312 4d2d 03       		.uleb128 0x3
 13313 4d2e 0A       		.byte	0xa
 13314 4d2f 1801     		.2byte	0x118
 13315 4d31 00       		.byte	0
 13316 4d32 00       		.byte	0
 13317 4d33 51       		.uleb128 0x51
 13318 4d34 2D580000 		.4byte	0x582d
 13319 4d38 A8000000 		.4byte	.LBB121
 13320 4d3c 0E000000 		.4byte	.LBE121-.LBB121
 13321 4d40 01       		.byte	0x1
 13322 4d41 D901     		.2byte	0x1d9
 13323 4d43 814D0000 		.4byte	0x4d81
 13324 4d47 48       		.uleb128 0x48
 13325 4d48 5D580000 		.4byte	0x585d
 13326 4d4c 9F0F0000 		.4byte	.LLST74
 13327 4d50 48       		.uleb128 0x48
 13328 4d51 52580000 		.4byte	0x5852
 13329 4d55 C30F0000 		.4byte	.LLST75
 13330 4d59 48       		.uleb128 0x48
 13331 4d5a 47580000 		.4byte	0x5847
 13332 4d5e D90F0000 		.4byte	.LLST76
 13333 4d62 48       		.uleb128 0x48
 13334 4d63 3D580000 		.4byte	0x583d
 13335 4d67 ED0F0000 		.4byte	.LLST77
 13336 4d6b 60       		.uleb128 0x60
 13337 4d6c B6000000 		.4byte	.LVL244
 13338 4d70 02       		.uleb128 0x2
 13339 4d71 76       		.byte	0x76
 13340 4d72 00       		.sleb128 0
 13341 4d73 44       		.uleb128 0x44
ARM GAS  /tmp/cccFXynL.s 			page 236


 13342 4d74 01       		.uleb128 0x1
 13343 4d75 51       		.byte	0x51
 13344 4d76 01       		.uleb128 0x1
 13345 4d77 30       		.byte	0x30
 13346 4d78 44       		.uleb128 0x44
 13347 4d79 01       		.uleb128 0x1
 13348 4d7a 52       		.byte	0x52
 13349 4d7b 03       		.uleb128 0x3
 13350 4d7c 0A       		.byte	0xa
 13351 4d7d 1401     		.2byte	0x114
 13352 4d7f 00       		.byte	0
 13353 4d80 00       		.byte	0
 13354 4d81 45       		.uleb128 0x45
 13355 4d82 1E000000 		.4byte	.LVL225
 13356 4d86 E15A0000 		.4byte	0x5ae1
 13357 4d8a 9C4D0000 		.4byte	0x4d9c
 13358 4d8e 44       		.uleb128 0x44
 13359 4d8f 01       		.uleb128 0x1
 13360 4d90 50       		.byte	0x50
 13361 4d91 02       		.uleb128 0x2
 13362 4d92 75       		.byte	0x75
 13363 4d93 00       		.sleb128 0
 13364 4d94 44       		.uleb128 0x44
 13365 4d95 01       		.uleb128 0x1
 13366 4d96 51       		.byte	0x51
 13367 4d97 03       		.uleb128 0x3
 13368 4d98 0A       		.byte	0xa
 13369 4d99 0001     		.2byte	0x100
 13370 4d9b 00       		.byte	0
 13371 4d9c 43       		.uleb128 0x43
 13372 4d9d 3C000000 		.4byte	.LVL228
 13373 4da1 E15A0000 		.4byte	0x5ae1
 13374 4da5 44       		.uleb128 0x44
 13375 4da6 01       		.uleb128 0x1
 13376 4da7 50       		.byte	0x50
 13377 4da8 02       		.uleb128 0x2
 13378 4da9 75       		.byte	0x75
 13379 4daa 00       		.sleb128 0
 13380 4dab 44       		.uleb128 0x44
 13381 4dac 01       		.uleb128 0x1
 13382 4dad 51       		.byte	0x51
 13383 4dae 03       		.uleb128 0x3
 13384 4daf 0A       		.byte	0xa
 13385 4db0 1801     		.2byte	0x118
 13386 4db2 00       		.byte	0
 13387 4db3 00       		.byte	0
 13388 4db4 07       		.uleb128 0x7
 13389 4db5 04       		.byte	0x4
 13390 4db6 E2000000 		.4byte	0xe2
 13391 4dba 5F       		.uleb128 0x5f
 13392 4dbb 041F0000 		.4byte	.LASF862
 13393 4dbf 01       		.byte	0x1
 13394 4dc0 9E01     		.2byte	0x19e
 13395 4dc2 00000000 		.4byte	.LFB273
 13396 4dc6 B8000000 		.4byte	.LFE273-.LFB273
 13397 4dca 01       		.uleb128 0x1
 13398 4dcb 9C       		.byte	0x9c
ARM GAS  /tmp/cccFXynL.s 			page 237


 13399 4dcc E94F0000 		.4byte	0x4fe9
 13400 4dd0 3C       		.uleb128 0x3c
 13401 4dd1 7400     		.ascii	"t\000"
 13402 4dd3 01       		.byte	0x1
 13403 4dd4 9E01     		.2byte	0x19e
 13404 4dd6 DB340000 		.4byte	0x34db
 13405 4dda 00100000 		.4byte	.LLST78
 13406 4dde 3D       		.uleb128 0x3d
 13407 4ddf 951F0000 		.4byte	.LASF860
 13408 4de3 01       		.byte	0x1
 13409 4de4 9E01     		.2byte	0x19e
 13410 4de6 AB010000 		.4byte	0x1ab
 13411 4dea 2C100000 		.4byte	.LLST79
 13412 4dee 38       		.uleb128 0x38
 13413 4def 617000   		.ascii	"ap\000"
 13414 4df2 01       		.byte	0x1
 13415 4df3 A001     		.2byte	0x1a0
 13416 4df5 AC3A0000 		.4byte	0x3aac
 13417 4df9 46       		.uleb128 0x46
 13418 4dfa 80050000 		.4byte	.LASF837
 13419 4dfe 01       		.byte	0x1
 13420 4dff A101     		.2byte	0x1a1
 13421 4e01 E94F0000 		.4byte	0x4fe9
 13422 4e05 66100000 		.4byte	.LLST80
 13423 4e09 3F       		.uleb128 0x3f
 13424 4e0a 6900     		.ascii	"i\000"
 13425 4e0c 01       		.byte	0x1
 13426 4e0d A201     		.2byte	0x1a2
 13427 4e0f 9B000000 		.4byte	0x9b
 13428 4e13 84100000 		.4byte	.LLST81
 13429 4e17 47       		.uleb128 0x47
 13430 4e18 13580000 		.4byte	0x5813
 13431 4e1c 00000000 		.4byte	.LBB123
 13432 4e20 00010000 		.4byte	.Ldebug_ranges0+0x100
 13433 4e24 01       		.byte	0x1
 13434 4e25 A001     		.2byte	0x1a0
 13435 4e27 314E0000 		.4byte	0x4e31
 13436 4e2b 5D       		.uleb128 0x5d
 13437 4e2c 23580000 		.4byte	0x5823
 13438 4e30 00       		.byte	0
 13439 4e31 51       		.uleb128 0x51
 13440 4e32 2D580000 		.4byte	0x582d
 13441 4e36 20000000 		.4byte	.LBB127
 13442 4e3a 0C000000 		.4byte	.LBE127-.LBB127
 13443 4e3e 01       		.byte	0x1
 13444 4e3f A901     		.2byte	0x1a9
 13445 4e41 894E0000 		.4byte	0x4e89
 13446 4e45 48       		.uleb128 0x48
 13447 4e46 5D580000 		.4byte	0x585d
 13448 4e4a 98100000 		.4byte	.LLST82
 13449 4e4e 48       		.uleb128 0x48
 13450 4e4f 52580000 		.4byte	0x5852
 13451 4e53 B0100000 		.4byte	.LLST83
 13452 4e57 48       		.uleb128 0x48
 13453 4e58 47580000 		.4byte	0x5847
 13454 4e5c C6100000 		.4byte	.LLST84
 13455 4e60 48       		.uleb128 0x48
ARM GAS  /tmp/cccFXynL.s 			page 238


 13456 4e61 3D580000 		.4byte	0x583d
 13457 4e65 DA100000 		.4byte	.LLST85
 13458 4e69 60       		.uleb128 0x60
 13459 4e6a 2C000000 		.4byte	.LVL253
 13460 4e6e 02       		.uleb128 0x2
 13461 4e6f 74       		.byte	0x74
 13462 4e70 00       		.sleb128 0
 13463 4e71 44       		.uleb128 0x44
 13464 4e72 01       		.uleb128 0x1
 13465 4e73 51       		.byte	0x51
 13466 4e74 01       		.uleb128 0x1
 13467 4e75 30       		.byte	0x30
 13468 4e76 44       		.uleb128 0x44
 13469 4e77 01       		.uleb128 0x1
 13470 4e78 52       		.byte	0x52
 13471 4e79 03       		.uleb128 0x3
 13472 4e7a 0A       		.byte	0xa
 13473 4e7b 0401     		.2byte	0x104
 13474 4e7d 44       		.uleb128 0x44
 13475 4e7e 01       		.uleb128 0x1
 13476 4e7f 53       		.byte	0x53
 13477 4e80 06       		.uleb128 0x6
 13478 4e81 11       		.byte	0x11
 13479 4e82 F0DB8380 		.sleb128 -536810000
 13479      7E
 13480 4e87 00       		.byte	0
 13481 4e88 00       		.byte	0
 13482 4e89 51       		.uleb128 0x51
 13483 4e8a 84580000 		.4byte	0x5884
 13484 4e8e 3A000000 		.4byte	.LBB129
 13485 4e92 08000000 		.4byte	.LBE129-.LBB129
 13486 4e96 01       		.byte	0x1
 13487 4e97 AE01     		.2byte	0x1ae
 13488 4e99 B54E0000 		.4byte	0x4eb5
 13489 4e9d 5D       		.uleb128 0x5d
 13490 4e9e 9E580000 		.4byte	0x589e
 13491 4ea2 5D       		.uleb128 0x5d
 13492 4ea3 94580000 		.4byte	0x5894
 13493 4ea7 61       		.uleb128 0x61
 13494 4ea8 42000000 		.4byte	.LVL255
 13495 4eac 44       		.uleb128 0x44
 13496 4ead 01       		.uleb128 0x1
 13497 4eae 51       		.byte	0x51
 13498 4eaf 03       		.uleb128 0x3
 13499 4eb0 0A       		.byte	0xa
 13500 4eb1 1801     		.2byte	0x118
 13501 4eb3 00       		.byte	0
 13502 4eb4 00       		.byte	0
 13503 4eb5 51       		.uleb128 0x51
 13504 4eb6 2D580000 		.4byte	0x582d
 13505 4eba 56000000 		.4byte	.LBB131
 13506 4ebe 0C000000 		.4byte	.LBE131-.LBB131
 13507 4ec2 01       		.byte	0x1
 13508 4ec3 B001     		.2byte	0x1b0
 13509 4ec5 FF4E0000 		.4byte	0x4eff
 13510 4ec9 5D       		.uleb128 0x5d
 13511 4eca 5D580000 		.4byte	0x585d
ARM GAS  /tmp/cccFXynL.s 			page 239


 13512 4ece 48       		.uleb128 0x48
 13513 4ecf 52580000 		.4byte	0x5852
 13514 4ed3 ED100000 		.4byte	.LLST86
 13515 4ed7 48       		.uleb128 0x48
 13516 4ed8 47580000 		.4byte	0x5847
 13517 4edc 03110000 		.4byte	.LLST87
 13518 4ee0 48       		.uleb128 0x48
 13519 4ee1 3D580000 		.4byte	0x583d
 13520 4ee5 17110000 		.4byte	.LLST88
 13521 4ee9 60       		.uleb128 0x60
 13522 4eea 62000000 		.4byte	.LVL260
 13523 4eee 02       		.uleb128 0x2
 13524 4eef 7A       		.byte	0x7a
 13525 4ef0 00       		.sleb128 0
 13526 4ef1 44       		.uleb128 0x44
 13527 4ef2 01       		.uleb128 0x1
 13528 4ef3 51       		.byte	0x51
 13529 4ef4 01       		.uleb128 0x1
 13530 4ef5 30       		.byte	0x30
 13531 4ef6 44       		.uleb128 0x44
 13532 4ef7 01       		.uleb128 0x1
 13533 4ef8 52       		.byte	0x52
 13534 4ef9 03       		.uleb128 0x3
 13535 4efa 0A       		.byte	0xa
 13536 4efb 1401     		.2byte	0x114
 13537 4efd 00       		.byte	0
 13538 4efe 00       		.byte	0
 13539 4eff 51       		.uleb128 0x51
 13540 4f00 84580000 		.4byte	0x5884
 13541 4f04 64000000 		.4byte	.LBB133
 13542 4f08 08000000 		.4byte	.LBE133-.LBB133
 13543 4f0c 01       		.byte	0x1
 13544 4f0d B201     		.2byte	0x1b2
 13545 4f0f 334F0000 		.4byte	0x4f33
 13546 4f13 48       		.uleb128 0x48
 13547 4f14 9E580000 		.4byte	0x589e
 13548 4f18 2A110000 		.4byte	.LLST89
 13549 4f1c 48       		.uleb128 0x48
 13550 4f1d 94580000 		.4byte	0x5894
 13551 4f21 40110000 		.4byte	.LLST90
 13552 4f25 61       		.uleb128 0x61
 13553 4f26 6C000000 		.4byte	.LVL262
 13554 4f2a 44       		.uleb128 0x44
 13555 4f2b 01       		.uleb128 0x1
 13556 4f2c 51       		.byte	0x51
 13557 4f2d 03       		.uleb128 0x3
 13558 4f2e 0A       		.byte	0xa
 13559 4f2f 1801     		.2byte	0x118
 13560 4f31 00       		.byte	0
 13561 4f32 00       		.byte	0
 13562 4f33 51       		.uleb128 0x51
 13563 4f34 2D580000 		.4byte	0x582d
 13564 4f38 8C000000 		.4byte	.LBB135
 13565 4f3c 0A000000 		.4byte	.LBE135-.LBB135
 13566 4f40 01       		.byte	0x1
 13567 4f41 B601     		.2byte	0x1b6
 13568 4f43 7D4F0000 		.4byte	0x4f7d
ARM GAS  /tmp/cccFXynL.s 			page 240


 13569 4f47 5D       		.uleb128 0x5d
 13570 4f48 5D580000 		.4byte	0x585d
 13571 4f4c 48       		.uleb128 0x48
 13572 4f4d 52580000 		.4byte	0x5852
 13573 4f51 53110000 		.4byte	.LLST91
 13574 4f55 48       		.uleb128 0x48
 13575 4f56 47580000 		.4byte	0x5847
 13576 4f5a 69110000 		.4byte	.LLST92
 13577 4f5e 48       		.uleb128 0x48
 13578 4f5f 3D580000 		.4byte	0x583d
 13579 4f63 7D110000 		.4byte	.LLST93
 13580 4f67 60       		.uleb128 0x60
 13581 4f68 96000000 		.4byte	.LVL266
 13582 4f6c 02       		.uleb128 0x2
 13583 4f6d 77       		.byte	0x77
 13584 4f6e 00       		.sleb128 0
 13585 4f6f 44       		.uleb128 0x44
 13586 4f70 01       		.uleb128 0x1
 13587 4f71 51       		.byte	0x51
 13588 4f72 01       		.uleb128 0x1
 13589 4f73 30       		.byte	0x30
 13590 4f74 44       		.uleb128 0x44
 13591 4f75 01       		.uleb128 0x1
 13592 4f76 52       		.byte	0x52
 13593 4f77 03       		.uleb128 0x3
 13594 4f78 0A       		.byte	0xa
 13595 4f79 1401     		.2byte	0x114
 13596 4f7b 00       		.byte	0
 13597 4f7c 00       		.byte	0
 13598 4f7d 51       		.uleb128 0x51
 13599 4f7e 84580000 		.4byte	0x5884
 13600 4f82 98000000 		.4byte	.LBB137
 13601 4f86 08000000 		.4byte	.LBE137-.LBB137
 13602 4f8a 01       		.byte	0x1
 13603 4f8b B901     		.2byte	0x1b9
 13604 4f8d B14F0000 		.4byte	0x4fb1
 13605 4f91 48       		.uleb128 0x48
 13606 4f92 9E580000 		.4byte	0x589e
 13607 4f96 90110000 		.4byte	.LLST94
 13608 4f9a 48       		.uleb128 0x48
 13609 4f9b 94580000 		.4byte	0x5894
 13610 4f9f A6110000 		.4byte	.LLST95
 13611 4fa3 61       		.uleb128 0x61
 13612 4fa4 A0000000 		.4byte	.LVL268
 13613 4fa8 44       		.uleb128 0x44
 13614 4fa9 01       		.uleb128 0x1
 13615 4faa 51       		.byte	0x51
 13616 4fab 03       		.uleb128 0x3
 13617 4fac 0A       		.byte	0xa
 13618 4fad 1801     		.2byte	0x118
 13619 4faf 00       		.byte	0
 13620 4fb0 00       		.byte	0
 13621 4fb1 45       		.uleb128 0x45
 13622 4fb2 1E000000 		.4byte	.LVL251
 13623 4fb6 E15A0000 		.4byte	0x5ae1
 13624 4fba CC4F0000 		.4byte	0x4fcc
 13625 4fbe 44       		.uleb128 0x44
ARM GAS  /tmp/cccFXynL.s 			page 241


 13626 4fbf 01       		.uleb128 0x1
 13627 4fc0 50       		.byte	0x50
 13628 4fc1 02       		.uleb128 0x2
 13629 4fc2 75       		.byte	0x75
 13630 4fc3 00       		.sleb128 0
 13631 4fc4 44       		.uleb128 0x44
 13632 4fc5 01       		.uleb128 0x1
 13633 4fc6 51       		.byte	0x51
 13634 4fc7 03       		.uleb128 0x3
 13635 4fc8 0A       		.byte	0xa
 13636 4fc9 0001     		.2byte	0x100
 13637 4fcb 00       		.byte	0
 13638 4fcc 43       		.uleb128 0x43
 13639 4fcd 38000000 		.4byte	.LVL254
 13640 4fd1 E15A0000 		.4byte	0x5ae1
 13641 4fd5 44       		.uleb128 0x44
 13642 4fd6 01       		.uleb128 0x1
 13643 4fd7 50       		.byte	0x50
 13644 4fd8 02       		.uleb128 0x2
 13645 4fd9 75       		.byte	0x75
 13646 4fda 00       		.sleb128 0
 13647 4fdb 44       		.uleb128 0x44
 13648 4fdc 01       		.uleb128 0x1
 13649 4fdd 51       		.byte	0x51
 13650 4fde 03       		.uleb128 0x3
 13651 4fdf 0A       		.byte	0xa
 13652 4fe0 1401     		.2byte	0x114
 13653 4fe2 44       		.uleb128 0x44
 13654 4fe3 01       		.uleb128 0x1
 13655 4fe4 52       		.byte	0x52
 13656 4fe5 01       		.uleb128 0x1
 13657 4fe6 30       		.byte	0x30
 13658 4fe7 00       		.byte	0
 13659 4fe8 00       		.byte	0
 13660 4fe9 07       		.uleb128 0x7
 13661 4fea 04       		.byte	0x4
 13662 4feb D2000000 		.4byte	0xd2
 13663 4fef 50       		.uleb128 0x50
 13664 4ff0 11150000 		.4byte	.LASF863
 13665 4ff4 01       		.byte	0x1
 13666 4ff5 8901     		.2byte	0x189
 13667 4ff7 00000000 		.4byte	.LFB272
 13668 4ffb 68000000 		.4byte	.LFE272-.LFB272
 13669 4fff 01       		.uleb128 0x1
 13670 5000 9C       		.byte	0x9c
 13671 5001 AE500000 		.4byte	0x50ae
 13672 5005 3C       		.uleb128 0x3c
 13673 5006 7400     		.ascii	"t\000"
 13674 5008 01       		.byte	0x1
 13675 5009 8901     		.2byte	0x189
 13676 500b DB340000 		.4byte	0x34db
 13677 500f B9110000 		.4byte	.LLST19
 13678 5013 46       		.uleb128 0x46
 13679 5014 04020000 		.4byte	.LASF704
 13680 5018 01       		.byte	0x1
 13681 5019 8B01     		.2byte	0x18b
 13682 501b 4B3D0000 		.4byte	0x3d4b
ARM GAS  /tmp/cccFXynL.s 			page 242


 13683 501f F0110000 		.4byte	.LLST20
 13684 5023 3F       		.uleb128 0x3f
 13685 5024 6900     		.ascii	"i\000"
 13686 5026 01       		.byte	0x1
 13687 5027 8C01     		.2byte	0x18c
 13688 5029 9B000000 		.4byte	0x9b
 13689 502d 03120000 		.4byte	.LLST21
 13690 5031 45       		.uleb128 0x45
 13691 5032 18000000 		.4byte	.LVL89
 13692 5036 BF590000 		.4byte	0x59bf
 13693 503a 50500000 		.4byte	0x5050
 13694 503e 44       		.uleb128 0x44
 13695 503f 01       		.uleb128 0x1
 13696 5040 50       		.byte	0x50
 13697 5041 02       		.uleb128 0x2
 13698 5042 76       		.byte	0x76
 13699 5043 00       		.sleb128 0
 13700 5044 44       		.uleb128 0x44
 13701 5045 01       		.uleb128 0x1
 13702 5046 51       		.byte	0x51
 13703 5047 02       		.uleb128 0x2
 13704 5048 75       		.byte	0x75
 13705 5049 00       		.sleb128 0
 13706 504a 44       		.uleb128 0x44
 13707 504b 01       		.uleb128 0x1
 13708 504c 52       		.byte	0x52
 13709 504d 01       		.uleb128 0x1
 13710 504e 30       		.byte	0x30
 13711 504f 00       		.byte	0
 13712 5050 45       		.uleb128 0x45
 13713 5051 36000000 		.4byte	.LVL93
 13714 5055 BF590000 		.4byte	0x59bf
 13715 5059 6F500000 		.4byte	0x506f
 13716 505d 44       		.uleb128 0x44
 13717 505e 01       		.uleb128 0x1
 13718 505f 50       		.byte	0x50
 13719 5060 02       		.uleb128 0x2
 13720 5061 76       		.byte	0x76
 13721 5062 00       		.sleb128 0
 13722 5063 44       		.uleb128 0x44
 13723 5064 01       		.uleb128 0x1
 13724 5065 51       		.byte	0x51
 13725 5066 02       		.uleb128 0x2
 13726 5067 75       		.byte	0x75
 13727 5068 00       		.sleb128 0
 13728 5069 44       		.uleb128 0x44
 13729 506a 01       		.uleb128 0x1
 13730 506b 52       		.byte	0x52
 13731 506c 01       		.uleb128 0x1
 13732 506d 30       		.byte	0x30
 13733 506e 00       		.byte	0
 13734 506f 45       		.uleb128 0x45
 13735 5070 4C000000 		.4byte	.LVL96
 13736 5074 BF590000 		.4byte	0x59bf
 13737 5078 97500000 		.4byte	0x5097
 13738 507c 44       		.uleb128 0x44
 13739 507d 01       		.uleb128 0x1
ARM GAS  /tmp/cccFXynL.s 			page 243


 13740 507e 50       		.byte	0x50
 13741 507f 02       		.uleb128 0x2
 13742 5080 76       		.byte	0x76
 13743 5081 00       		.sleb128 0
 13744 5082 44       		.uleb128 0x44
 13745 5083 01       		.uleb128 0x1
 13746 5084 51       		.byte	0x51
 13747 5085 06       		.uleb128 0x6
 13748 5086 11       		.byte	0x11
 13749 5087 F0DB8380 		.sleb128 -536810000
 13749      7E
 13750 508c 44       		.uleb128 0x44
 13751 508d 01       		.uleb128 0x1
 13752 508e 52       		.byte	0x52
 13753 508f 06       		.uleb128 0x6
 13754 5090 11       		.byte	0x11
 13755 5091 8080FC82 		.sleb128 -1604386816
 13755      7A
 13756 5096 00       		.byte	0
 13757 5097 53       		.uleb128 0x53
 13758 5098 58000000 		.4byte	.LVL98
 13759 509c 9F5A0000 		.4byte	0x5a9f
 13760 50a0 44       		.uleb128 0x44
 13761 50a1 01       		.uleb128 0x1
 13762 50a2 50       		.byte	0x50
 13763 50a3 03       		.uleb128 0x3
 13764 50a4 F3       		.byte	0xf3
 13765 50a5 01       		.uleb128 0x1
 13766 50a6 50       		.byte	0x50
 13767 50a7 44       		.uleb128 0x44
 13768 50a8 01       		.uleb128 0x1
 13769 50a9 51       		.byte	0x51
 13770 50aa 01       		.uleb128 0x1
 13771 50ab 30       		.byte	0x30
 13772 50ac 00       		.byte	0
 13773 50ad 00       		.byte	0
 13774 50ae 4C       		.uleb128 0x4c
 13775 50af 0B220000 		.4byte	.LASF864
 13776 50b3 01       		.byte	0x1
 13777 50b4 5801     		.2byte	0x158
 13778 50b6 30170000 		.4byte	0x1730
 13779 50ba 00000000 		.4byte	.LFB271
 13780 50be F4000000 		.4byte	.LFE271-.LFB271
 13781 50c2 01       		.uleb128 0x1
 13782 50c3 9C       		.byte	0x9c
 13783 50c4 1B520000 		.4byte	0x521b
 13784 50c8 3C       		.uleb128 0x3c
 13785 50c9 7400     		.ascii	"t\000"
 13786 50cb 01       		.byte	0x1
 13787 50cc 5801     		.2byte	0x158
 13788 50ce DB340000 		.4byte	0x34db
 13789 50d2 39120000 		.4byte	.LLST100
 13790 50d6 46       		.uleb128 0x46
 13791 50d7 04020000 		.4byte	.LASF704
 13792 50db 01       		.byte	0x1
 13793 50dc 5A01     		.2byte	0x15a
 13794 50de 4B3D0000 		.4byte	0x3d4b
ARM GAS  /tmp/cccFXynL.s 			page 244


 13795 50e2 65120000 		.4byte	.LLST101
 13796 50e6 3F       		.uleb128 0x3f
 13797 50e7 6900     		.ascii	"i\000"
 13798 50e9 01       		.byte	0x1
 13799 50ea 5B01     		.2byte	0x15b
 13800 50ec 9B000000 		.4byte	0x9b
 13801 50f0 78120000 		.4byte	.LLST102
 13802 50f4 3F       		.uleb128 0x3f
 13803 50f5 7200     		.ascii	"r\000"
 13804 50f7 01       		.byte	0x1
 13805 50f8 5C01     		.2byte	0x15c
 13806 50fa D2000000 		.4byte	0xd2
 13807 50fe BC120000 		.4byte	.LLST103
 13808 5102 45       		.uleb128 0x45
 13809 5103 0C000000 		.4byte	.LVL295
 13810 5107 E4590000 		.4byte	0x59e4
 13811 510b 16510000 		.4byte	0x5116
 13812 510f 44       		.uleb128 0x44
 13813 5110 01       		.uleb128 0x1
 13814 5111 50       		.byte	0x50
 13815 5112 02       		.uleb128 0x2
 13816 5113 74       		.byte	0x74
 13817 5114 00       		.sleb128 0
 13818 5115 00       		.byte	0
 13819 5116 45       		.uleb128 0x45
 13820 5117 12000000 		.4byte	.LVL296
 13821 511b EC5A0000 		.4byte	0x5aec
 13822 511f 2A510000 		.4byte	0x512a
 13823 5123 44       		.uleb128 0x44
 13824 5124 01       		.uleb128 0x1
 13825 5125 50       		.byte	0x50
 13826 5126 02       		.uleb128 0x2
 13827 5127 74       		.byte	0x74
 13828 5128 00       		.sleb128 0
 13829 5129 00       		.byte	0
 13830 512a 45       		.uleb128 0x45
 13831 512b 18000000 		.4byte	.LVL297
 13832 512f E2540000 		.4byte	0x54e2
 13833 5133 3E510000 		.4byte	0x513e
 13834 5137 44       		.uleb128 0x44
 13835 5138 01       		.uleb128 0x1
 13836 5139 50       		.byte	0x50
 13837 513a 02       		.uleb128 0x2
 13838 513b 74       		.byte	0x74
 13839 513c 00       		.sleb128 0
 13840 513d 00       		.byte	0
 13841 513e 45       		.uleb128 0x45
 13842 513f 2C000000 		.4byte	.LVL299
 13843 5143 BF590000 		.4byte	0x59bf
 13844 5147 5C510000 		.4byte	0x515c
 13845 514b 44       		.uleb128 0x44
 13846 514c 01       		.uleb128 0x1
 13847 514d 50       		.byte	0x50
 13848 514e 02       		.uleb128 0x2
 13849 514f 74       		.byte	0x74
 13850 5150 00       		.sleb128 0
 13851 5151 44       		.uleb128 0x44
ARM GAS  /tmp/cccFXynL.s 			page 245


 13852 5152 01       		.uleb128 0x1
 13853 5153 51       		.byte	0x51
 13854 5154 06       		.uleb128 0x6
 13855 5155 11       		.byte	0x11
 13856 5156 FCDB8380 		.sleb128 -536809988
 13856      7E
 13857 515b 00       		.byte	0
 13858 515c 45       		.uleb128 0x45
 13859 515d 36000000 		.4byte	.LVL300
 13860 5161 BF590000 		.4byte	0x59bf
 13861 5165 7F510000 		.4byte	0x517f
 13862 5169 44       		.uleb128 0x44
 13863 516a 01       		.uleb128 0x1
 13864 516b 50       		.byte	0x50
 13865 516c 02       		.uleb128 0x2
 13866 516d 74       		.byte	0x74
 13867 516e 00       		.sleb128 0
 13868 516f 44       		.uleb128 0x44
 13869 5170 01       		.uleb128 0x1
 13870 5171 51       		.byte	0x51
 13871 5172 06       		.uleb128 0x6
 13872 5173 11       		.byte	0x11
 13873 5174 B0DA8380 		.sleb128 -536810192
 13873      7E
 13874 5179 44       		.uleb128 0x44
 13875 517a 01       		.uleb128 0x1
 13876 517b 52       		.byte	0x52
 13877 517c 01       		.uleb128 0x1
 13878 517d 4F       		.byte	0x4f
 13879 517e 00       		.byte	0
 13880 517f 45       		.uleb128 0x45
 13881 5180 42000000 		.4byte	.LVL301
 13882 5184 9F5A0000 		.4byte	0x5a9f
 13883 5188 9D510000 		.4byte	0x519d
 13884 518c 44       		.uleb128 0x44
 13885 518d 01       		.uleb128 0x1
 13886 518e 50       		.byte	0x50
 13887 518f 02       		.uleb128 0x2
 13888 5190 74       		.byte	0x74
 13889 5191 00       		.sleb128 0
 13890 5192 44       		.uleb128 0x44
 13891 5193 01       		.uleb128 0x1
 13892 5194 51       		.byte	0x51
 13893 5195 06       		.uleb128 0x6
 13894 5196 11       		.byte	0x11
 13895 5197 80C08080 		.sleb128 -536862720
 13895      7E
 13896 519c 00       		.byte	0
 13897 519d 45       		.uleb128 0x45
 13898 519e 5E000000 		.4byte	.LVL303
 13899 51a2 9F5A0000 		.4byte	0x5a9f
 13900 51a6 BB510000 		.4byte	0x51bb
 13901 51aa 44       		.uleb128 0x44
 13902 51ab 01       		.uleb128 0x1
 13903 51ac 50       		.byte	0x50
 13904 51ad 02       		.uleb128 0x2
 13905 51ae 74       		.byte	0x74
ARM GAS  /tmp/cccFXynL.s 			page 246


 13906 51af 00       		.sleb128 0
 13907 51b0 44       		.uleb128 0x44
 13908 51b1 01       		.uleb128 0x1
 13909 51b2 51       		.byte	0x51
 13910 51b3 06       		.uleb128 0x6
 13911 51b4 11       		.byte	0x11
 13912 51b5 80A08080 		.sleb128 -536866816
 13912      7E
 13913 51ba 00       		.byte	0
 13914 51bb 45       		.uleb128 0x45
 13915 51bc 88000000 		.4byte	.LVL306
 13916 51c0 BF590000 		.4byte	0x59bf
 13917 51c4 DB510000 		.4byte	0x51db
 13918 51c8 44       		.uleb128 0x44
 13919 51c9 01       		.uleb128 0x1
 13920 51ca 50       		.byte	0x50
 13921 51cb 02       		.uleb128 0x2
 13922 51cc 74       		.byte	0x74
 13923 51cd 00       		.sleb128 0
 13924 51ce 44       		.uleb128 0x44
 13925 51cf 01       		.uleb128 0x1
 13926 51d0 51       		.byte	0x51
 13927 51d1 02       		.uleb128 0x2
 13928 51d2 77       		.byte	0x77
 13929 51d3 00       		.sleb128 0
 13930 51d4 44       		.uleb128 0x44
 13931 51d5 01       		.uleb128 0x1
 13932 51d6 52       		.byte	0x52
 13933 51d7 02       		.uleb128 0x2
 13934 51d8 7A       		.byte	0x7a
 13935 51d9 00       		.sleb128 0
 13936 51da 00       		.byte	0
 13937 51db 45       		.uleb128 0x45
 13938 51dc B8000000 		.4byte	.LVL310
 13939 51e0 BF590000 		.4byte	0x59bf
 13940 51e4 FB510000 		.4byte	0x51fb
 13941 51e8 44       		.uleb128 0x44
 13942 51e9 01       		.uleb128 0x1
 13943 51ea 50       		.byte	0x50
 13944 51eb 02       		.uleb128 0x2
 13945 51ec 74       		.byte	0x74
 13946 51ed 00       		.sleb128 0
 13947 51ee 44       		.uleb128 0x44
 13948 51ef 01       		.uleb128 0x1
 13949 51f0 51       		.byte	0x51
 13950 51f1 02       		.uleb128 0x2
 13951 51f2 77       		.byte	0x77
 13952 51f3 00       		.sleb128 0
 13953 51f4 44       		.uleb128 0x44
 13954 51f5 01       		.uleb128 0x1
 13955 51f6 52       		.byte	0x52
 13956 51f7 02       		.uleb128 0x2
 13957 51f8 7A       		.byte	0x7a
 13958 51f9 00       		.sleb128 0
 13959 51fa 00       		.byte	0
 13960 51fb 43       		.uleb128 0x43
 13961 51fc D4000000 		.4byte	.LVL313
ARM GAS  /tmp/cccFXynL.s 			page 247


 13962 5200 BF590000 		.4byte	0x59bf
 13963 5204 44       		.uleb128 0x44
 13964 5205 01       		.uleb128 0x1
 13965 5206 50       		.byte	0x50
 13966 5207 02       		.uleb128 0x2
 13967 5208 74       		.byte	0x74
 13968 5209 00       		.sleb128 0
 13969 520a 44       		.uleb128 0x44
 13970 520b 01       		.uleb128 0x1
 13971 520c 51       		.byte	0x51
 13972 520d 06       		.uleb128 0x6
 13973 520e 11       		.byte	0x11
 13974 520f 80C08080 		.sleb128 -536862720
 13974      7E
 13975 5214 44       		.uleb128 0x44
 13976 5215 01       		.uleb128 0x1
 13977 5216 52       		.byte	0x52
 13978 5217 01       		.uleb128 0x1
 13979 5218 33       		.byte	0x33
 13980 5219 00       		.byte	0
 13981 521a 00       		.byte	0
 13982 521b 4C       		.uleb128 0x4c
 13983 521c AB0B0000 		.4byte	.LASF865
 13984 5220 01       		.byte	0x1
 13985 5221 0701     		.2byte	0x107
 13986 5223 30170000 		.4byte	0x1730
 13987 5227 00000000 		.4byte	.LFB270
 13988 522b F0010000 		.4byte	.LFE270-.LFB270
 13989 522f 01       		.uleb128 0x1
 13990 5230 9C       		.byte	0x9c
 13991 5231 E2540000 		.4byte	0x54e2
 13992 5235 3C       		.uleb128 0x3c
 13993 5236 617000   		.ascii	"ap\000"
 13994 5239 01       		.byte	0x1
 13995 523a 0701     		.2byte	0x107
 13996 523c AC3A0000 		.4byte	0x3aac
 13997 5240 DA120000 		.4byte	.LLST123
 13998 5244 3D       		.uleb128 0x3d
 13999 5245 6C1C0000 		.4byte	.LASF866
 14000 5249 01       		.byte	0x1
 14001 524a 0701     		.2byte	0x107
 14002 524c 30170000 		.4byte	0x1730
 14003 5250 38130000 		.4byte	.LLST124
 14004 5254 3F       		.uleb128 0x3f
 14005 5255 7400     		.ascii	"t\000"
 14006 5257 01       		.byte	0x1
 14007 5258 0901     		.2byte	0x109
 14008 525a DB340000 		.4byte	0x34db
 14009 525e 59130000 		.4byte	.LLST125
 14010 5262 46       		.uleb128 0x46
 14011 5263 04020000 		.4byte	.LASF704
 14012 5267 01       		.byte	0x1
 14013 5268 0D01     		.2byte	0x10d
 14014 526a 4B3D0000 		.4byte	0x3d4b
 14015 526e 77130000 		.4byte	.LLST126
 14016 5272 46       		.uleb128 0x46
 14017 5273 DB240000 		.4byte	.LASF867
ARM GAS  /tmp/cccFXynL.s 			page 248


 14018 5277 01       		.byte	0x1
 14019 5278 2C01     		.2byte	0x12c
 14020 527a D2000000 		.4byte	0xd2
 14021 527e AB130000 		.4byte	.LLST127
 14022 5282 3F       		.uleb128 0x3f
 14023 5283 63747200 		.ascii	"ctr\000"
 14024 5287 01       		.byte	0x1
 14025 5288 3A01     		.2byte	0x13a
 14026 528a D2000000 		.4byte	0xd2
 14027 528e C9130000 		.4byte	.LLST128
 14028 5292 42       		.uleb128 0x42
 14029 5293 0C000000 		.4byte	.LVL353
 14030 5297 F75A0000 		.4byte	0x5af7
 14031 529b 45       		.uleb128 0x45
 14032 529c 14000000 		.4byte	.LVL356
 14033 52a0 025B0000 		.4byte	0x5b02
 14034 52a4 AF520000 		.4byte	0x52af
 14035 52a8 44       		.uleb128 0x44
 14036 52a9 01       		.uleb128 0x1
 14037 52aa 50       		.byte	0x50
 14038 52ab 02       		.uleb128 0x2
 14039 52ac 76       		.byte	0x76
 14040 52ad 00       		.sleb128 0
 14041 52ae 00       		.byte	0
 14042 52af 45       		.uleb128 0x45
 14043 52b0 1C000000 		.4byte	.LVL357
 14044 52b4 0D5B0000 		.4byte	0x5b0d
 14045 52b8 C8520000 		.4byte	0x52c8
 14046 52bc 44       		.uleb128 0x44
 14047 52bd 01       		.uleb128 0x1
 14048 52be 50       		.byte	0x50
 14049 52bf 01       		.uleb128 0x1
 14050 52c0 31       		.byte	0x31
 14051 52c1 44       		.uleb128 0x44
 14052 52c2 01       		.uleb128 0x1
 14053 52c3 51       		.byte	0x51
 14054 52c4 02       		.uleb128 0x2
 14055 52c5 08       		.byte	0x8
 14056 52c6 2C       		.byte	0x2c
 14057 52c7 00       		.byte	0
 14058 52c8 45       		.uleb128 0x45
 14059 52c9 7C000000 		.4byte	.LVL360
 14060 52cd 185B0000 		.4byte	0x5b18
 14061 52d1 EE520000 		.4byte	0x52ee
 14062 52d5 44       		.uleb128 0x44
 14063 52d6 01       		.uleb128 0x1
 14064 52d7 50       		.byte	0x50
 14065 52d8 02       		.uleb128 0x2
 14066 52d9 74       		.byte	0x74
 14067 52da 00       		.sleb128 0
 14068 52db 44       		.uleb128 0x44
 14069 52dc 01       		.uleb128 0x1
 14070 52dd 51       		.byte	0x51
 14071 52de 05       		.uleb128 0x5
 14072 52df 03       		.byte	0x3
 14073 52e0 00000000 		.4byte	.LANCHOR6
 14074 52e4 44       		.uleb128 0x44
ARM GAS  /tmp/cccFXynL.s 			page 249


 14075 52e5 01       		.uleb128 0x1
 14076 52e6 52       		.byte	0x52
 14077 52e7 05       		.uleb128 0x5
 14078 52e8 03       		.byte	0x3
 14079 52e9 00000000 		.4byte	.LANCHOR4
 14080 52ed 00       		.byte	0
 14081 52ee 45       		.uleb128 0x45
 14082 52ef 84000000 		.4byte	.LVL361
 14083 52f3 9F5A0000 		.4byte	0x5a9f
 14084 52f7 0C530000 		.4byte	0x530c
 14085 52fb 44       		.uleb128 0x44
 14086 52fc 01       		.uleb128 0x1
 14087 52fd 50       		.byte	0x50
 14088 52fe 02       		.uleb128 0x2
 14089 52ff 74       		.byte	0x74
 14090 5300 00       		.sleb128 0
 14091 5301 44       		.uleb128 0x44
 14092 5302 01       		.uleb128 0x1
 14093 5303 51       		.byte	0x51
 14094 5304 06       		.uleb128 0x6
 14095 5305 11       		.byte	0x11
 14096 5306 88DB8380 		.sleb128 -536810104
 14096      7E
 14097 530b 00       		.byte	0
 14098 530c 45       		.uleb128 0x45
 14099 530d 92000000 		.4byte	.LVL363
 14100 5311 BF590000 		.4byte	0x59bf
 14101 5315 30530000 		.4byte	0x5330
 14102 5319 44       		.uleb128 0x44
 14103 531a 01       		.uleb128 0x1
 14104 531b 50       		.byte	0x50
 14105 531c 02       		.uleb128 0x2
 14106 531d 74       		.byte	0x74
 14107 531e 00       		.sleb128 0
 14108 531f 44       		.uleb128 0x44
 14109 5320 01       		.uleb128 0x1
 14110 5321 51       		.byte	0x51
 14111 5322 06       		.uleb128 0x6
 14112 5323 11       		.byte	0x11
 14113 5324 88DB8380 		.sleb128 -536810104
 14113      7E
 14114 5329 44       		.uleb128 0x44
 14115 532a 01       		.uleb128 0x1
 14116 532b 52       		.byte	0x52
 14117 532c 02       		.uleb128 0x2
 14118 532d 78       		.byte	0x78
 14119 532e 00       		.sleb128 0
 14120 532f 00       		.byte	0
 14121 5330 45       		.uleb128 0x45
 14122 5331 9A000000 		.4byte	.LVL364
 14123 5335 9F5A0000 		.4byte	0x5a9f
 14124 5339 4E530000 		.4byte	0x534e
 14125 533d 44       		.uleb128 0x44
 14126 533e 01       		.uleb128 0x1
 14127 533f 50       		.byte	0x50
 14128 5340 02       		.uleb128 0x2
 14129 5341 74       		.byte	0x74
ARM GAS  /tmp/cccFXynL.s 			page 250


 14130 5342 00       		.sleb128 0
 14131 5343 44       		.uleb128 0x44
 14132 5344 01       		.uleb128 0x1
 14133 5345 51       		.byte	0x51
 14134 5346 06       		.uleb128 0x6
 14135 5347 11       		.byte	0x11
 14136 5348 88DB8380 		.sleb128 -536810104
 14136      7E
 14137 534d 00       		.byte	0
 14138 534e 45       		.uleb128 0x45
 14139 534f BC000000 		.4byte	.LVL365
 14140 5353 9F5A0000 		.4byte	0x5a9f
 14141 5357 6C530000 		.4byte	0x536c
 14142 535b 44       		.uleb128 0x44
 14143 535c 01       		.uleb128 0x1
 14144 535d 50       		.byte	0x50
 14145 535e 02       		.uleb128 0x2
 14146 535f 74       		.byte	0x74
 14147 5360 00       		.sleb128 0
 14148 5361 44       		.uleb128 0x44
 14149 5362 01       		.uleb128 0x1
 14150 5363 51       		.byte	0x51
 14151 5364 06       		.uleb128 0x6
 14152 5365 11       		.byte	0x11
 14153 5366 FCDA8380 		.sleb128 -536810116
 14153      7E
 14154 536b 00       		.byte	0
 14155 536c 45       		.uleb128 0x45
 14156 536d E0000000 		.4byte	.LVL367
 14157 5371 235B0000 		.4byte	0x5b23
 14158 5375 80530000 		.4byte	0x5380
 14159 5379 44       		.uleb128 0x44
 14160 537a 01       		.uleb128 0x1
 14161 537b 50       		.byte	0x50
 14162 537c 02       		.uleb128 0x2
 14163 537d 74       		.byte	0x74
 14164 537e 00       		.sleb128 0
 14165 537f 00       		.byte	0
 14166 5380 45       		.uleb128 0x45
 14167 5381 EC000000 		.4byte	.LVL370
 14168 5385 E4590000 		.4byte	0x59e4
 14169 5389 94530000 		.4byte	0x5394
 14170 538d 44       		.uleb128 0x44
 14171 538e 01       		.uleb128 0x1
 14172 538f 50       		.byte	0x50
 14173 5390 02       		.uleb128 0x2
 14174 5391 74       		.byte	0x74
 14175 5392 00       		.sleb128 0
 14176 5393 00       		.byte	0
 14177 5394 45       		.uleb128 0x45
 14178 5395 F2000000 		.4byte	.LVL371
 14179 5399 2E5B0000 		.4byte	0x5b2e
 14180 539d A8530000 		.4byte	0x53a8
 14181 53a1 44       		.uleb128 0x44
 14182 53a2 01       		.uleb128 0x1
 14183 53a3 50       		.byte	0x50
 14184 53a4 02       		.uleb128 0x2
ARM GAS  /tmp/cccFXynL.s 			page 251


 14185 53a5 74       		.byte	0x74
 14186 53a6 00       		.sleb128 0
 14187 53a7 00       		.byte	0
 14188 53a8 45       		.uleb128 0x45
 14189 53a9 00010000 		.4byte	.LVL372
 14190 53ad E4590000 		.4byte	0x59e4
 14191 53b1 BC530000 		.4byte	0x53bc
 14192 53b5 44       		.uleb128 0x44
 14193 53b6 01       		.uleb128 0x1
 14194 53b7 50       		.byte	0x50
 14195 53b8 02       		.uleb128 0x2
 14196 53b9 74       		.byte	0x74
 14197 53ba 00       		.sleb128 0
 14198 53bb 00       		.byte	0
 14199 53bc 45       		.uleb128 0x45
 14200 53bd 06010000 		.4byte	.LVL373
 14201 53c1 395B0000 		.4byte	0x5b39
 14202 53c5 D0530000 		.4byte	0x53d0
 14203 53c9 44       		.uleb128 0x44
 14204 53ca 01       		.uleb128 0x1
 14205 53cb 50       		.byte	0x50
 14206 53cc 02       		.uleb128 0x2
 14207 53cd 74       		.byte	0x74
 14208 53ce 00       		.sleb128 0
 14209 53cf 00       		.byte	0
 14210 53d0 45       		.uleb128 0x45
 14211 53d1 14010000 		.4byte	.LVL374
 14212 53d5 E4590000 		.4byte	0x59e4
 14213 53d9 E4530000 		.4byte	0x53e4
 14214 53dd 44       		.uleb128 0x44
 14215 53de 01       		.uleb128 0x1
 14216 53df 50       		.byte	0x50
 14217 53e0 02       		.uleb128 0x2
 14218 53e1 74       		.byte	0x74
 14219 53e2 00       		.sleb128 0
 14220 53e3 00       		.byte	0
 14221 53e4 45       		.uleb128 0x45
 14222 53e5 1A010000 		.4byte	.LVL375
 14223 53e9 445B0000 		.4byte	0x5b44
 14224 53ed F8530000 		.4byte	0x53f8
 14225 53f1 44       		.uleb128 0x44
 14226 53f2 01       		.uleb128 0x1
 14227 53f3 50       		.byte	0x50
 14228 53f4 02       		.uleb128 0x2
 14229 53f5 74       		.byte	0x74
 14230 53f6 00       		.sleb128 0
 14231 53f7 00       		.byte	0
 14232 53f8 45       		.uleb128 0x45
 14233 53f9 26010000 		.4byte	.LVL376
 14234 53fd E4590000 		.4byte	0x59e4
 14235 5401 0C540000 		.4byte	0x540c
 14236 5405 44       		.uleb128 0x44
 14237 5406 01       		.uleb128 0x1
 14238 5407 50       		.byte	0x50
 14239 5408 02       		.uleb128 0x2
 14240 5409 74       		.byte	0x74
 14241 540a 00       		.sleb128 0
ARM GAS  /tmp/cccFXynL.s 			page 252


 14242 540b 00       		.byte	0
 14243 540c 45       		.uleb128 0x45
 14244 540d 2C010000 		.4byte	.LVL377
 14245 5411 4F5B0000 		.4byte	0x5b4f
 14246 5415 20540000 		.4byte	0x5420
 14247 5419 44       		.uleb128 0x44
 14248 541a 01       		.uleb128 0x1
 14249 541b 50       		.byte	0x50
 14250 541c 02       		.uleb128 0x2
 14251 541d 74       		.byte	0x74
 14252 541e 00       		.sleb128 0
 14253 541f 00       		.byte	0
 14254 5420 45       		.uleb128 0x45
 14255 5421 38010000 		.4byte	.LVL378
 14256 5425 E4590000 		.4byte	0x59e4
 14257 5429 34540000 		.4byte	0x5434
 14258 542d 44       		.uleb128 0x44
 14259 542e 01       		.uleb128 0x1
 14260 542f 50       		.byte	0x50
 14261 5430 02       		.uleb128 0x2
 14262 5431 74       		.byte	0x74
 14263 5432 00       		.sleb128 0
 14264 5433 00       		.byte	0
 14265 5434 45       		.uleb128 0x45
 14266 5435 3E010000 		.4byte	.LVL379
 14267 5439 5A5B0000 		.4byte	0x5b5a
 14268 543d 48540000 		.4byte	0x5448
 14269 5441 44       		.uleb128 0x44
 14270 5442 01       		.uleb128 0x1
 14271 5443 50       		.byte	0x50
 14272 5444 02       		.uleb128 0x2
 14273 5445 74       		.byte	0x74
 14274 5446 00       		.sleb128 0
 14275 5447 00       		.byte	0
 14276 5448 45       		.uleb128 0x45
 14277 5449 48010000 		.4byte	.LVL380
 14278 544d E4590000 		.4byte	0x59e4
 14279 5451 5C540000 		.4byte	0x545c
 14280 5455 44       		.uleb128 0x44
 14281 5456 01       		.uleb128 0x1
 14282 5457 50       		.byte	0x50
 14283 5458 02       		.uleb128 0x2
 14284 5459 74       		.byte	0x74
 14285 545a 00       		.sleb128 0
 14286 545b 00       		.byte	0
 14287 545c 45       		.uleb128 0x45
 14288 545d 54010000 		.4byte	.LVL381
 14289 5461 945A0000 		.4byte	0x5a94
 14290 5465 75540000 		.4byte	0x5475
 14291 5469 44       		.uleb128 0x44
 14292 546a 01       		.uleb128 0x1
 14293 546b 50       		.byte	0x50
 14294 546c 02       		.uleb128 0x2
 14295 546d 74       		.byte	0x74
 14296 546e 00       		.sleb128 0
 14297 546f 44       		.uleb128 0x44
 14298 5470 01       		.uleb128 0x1
ARM GAS  /tmp/cccFXynL.s 			page 253


 14299 5471 51       		.byte	0x51
 14300 5472 01       		.uleb128 0x1
 14301 5473 30       		.byte	0x30
 14302 5474 00       		.byte	0
 14303 5475 45       		.uleb128 0x45
 14304 5476 60010000 		.4byte	.LVL383
 14305 547a E2540000 		.4byte	0x54e2
 14306 547e 89540000 		.4byte	0x5489
 14307 5482 44       		.uleb128 0x44
 14308 5483 01       		.uleb128 0x1
 14309 5484 50       		.byte	0x50
 14310 5485 02       		.uleb128 0x2
 14311 5486 74       		.byte	0x74
 14312 5487 00       		.sleb128 0
 14313 5488 00       		.byte	0
 14314 5489 45       		.uleb128 0x45
 14315 548a 6C010000 		.4byte	.LVL385
 14316 548e 235B0000 		.4byte	0x5b23
 14317 5492 9D540000 		.4byte	0x549d
 14318 5496 44       		.uleb128 0x44
 14319 5497 01       		.uleb128 0x1
 14320 5498 50       		.byte	0x50
 14321 5499 02       		.uleb128 0x2
 14322 549a 74       		.byte	0x74
 14323 549b 00       		.sleb128 0
 14324 549c 00       		.byte	0
 14325 549d 45       		.uleb128 0x45
 14326 549e 7C010000 		.4byte	.LVL389
 14327 54a2 E4590000 		.4byte	0x59e4
 14328 54a6 B1540000 		.4byte	0x54b1
 14329 54aa 44       		.uleb128 0x44
 14330 54ab 01       		.uleb128 0x1
 14331 54ac 50       		.byte	0x50
 14332 54ad 02       		.uleb128 0x2
 14333 54ae 74       		.byte	0x74
 14334 54af 00       		.sleb128 0
 14335 54b0 00       		.byte	0
 14336 54b1 45       		.uleb128 0x45
 14337 54b2 86010000 		.4byte	.LVL391
 14338 54b6 945A0000 		.4byte	0x5a94
 14339 54ba CB540000 		.4byte	0x54cb
 14340 54be 44       		.uleb128 0x44
 14341 54bf 01       		.uleb128 0x1
 14342 54c0 50       		.byte	0x50
 14343 54c1 02       		.uleb128 0x2
 14344 54c2 74       		.byte	0x74
 14345 54c3 00       		.sleb128 0
 14346 54c4 44       		.uleb128 0x44
 14347 54c5 01       		.uleb128 0x1
 14348 54c6 51       		.byte	0x51
 14349 54c7 02       		.uleb128 0x2
 14350 54c8 76       		.byte	0x76
 14351 54c9 00       		.sleb128 0
 14352 54ca 00       		.byte	0
 14353 54cb 43       		.uleb128 0x43
 14354 54cc 94010000 		.4byte	.LVL393
 14355 54d0 945A0000 		.4byte	0x5a94
ARM GAS  /tmp/cccFXynL.s 			page 254


 14356 54d4 44       		.uleb128 0x44
 14357 54d5 01       		.uleb128 0x1
 14358 54d6 50       		.byte	0x50
 14359 54d7 02       		.uleb128 0x2
 14360 54d8 74       		.byte	0x74
 14361 54d9 00       		.sleb128 0
 14362 54da 44       		.uleb128 0x44
 14363 54db 01       		.uleb128 0x1
 14364 54dc 51       		.byte	0x51
 14365 54dd 02       		.uleb128 0x2
 14366 54de 77       		.byte	0x77
 14367 54df 00       		.sleb128 0
 14368 54e0 00       		.byte	0
 14369 54e1 00       		.byte	0
 14370 54e2 62       		.uleb128 0x62
 14371 54e3 9A180000 		.4byte	.LASF868
 14372 54e7 01       		.byte	0x1
 14373 54e8 F3       		.byte	0xf3
 14374 54e9 30170000 		.4byte	0x1730
 14375 54ed 00000000 		.4byte	.LFB269
 14376 54f1 4C000000 		.4byte	.LFE269-.LFB269
 14377 54f5 01       		.uleb128 0x1
 14378 54f6 9C       		.byte	0x9c
 14379 54f7 7D550000 		.4byte	0x557d
 14380 54fb 63       		.uleb128 0x63
 14381 54fc 7400     		.ascii	"t\000"
 14382 54fe 01       		.byte	0x1
 14383 54ff F3       		.byte	0xf3
 14384 5500 DB340000 		.4byte	0x34db
 14385 5504 E7130000 		.4byte	.LLST97
 14386 5508 64       		.uleb128 0x64
 14387 5509 09210000 		.4byte	.LASF849
 14388 550d 01       		.byte	0x1
 14389 550e F7       		.byte	0xf7
 14390 550f D2000000 		.4byte	0xd2
 14391 5513 6B140000 		.4byte	.LLST98
 14392 5517 64       		.uleb128 0x64
 14393 5518 F9010000 		.4byte	.LASF869
 14394 551c 01       		.byte	0x1
 14395 551d F8       		.byte	0xf8
 14396 551e D2000000 		.4byte	0xd2
 14397 5522 8A140000 		.4byte	.LLST99
 14398 5526 45       		.uleb128 0x45
 14399 5527 08000000 		.4byte	.LVL278
 14400 552b EC5A0000 		.4byte	0x5aec
 14401 552f 3A550000 		.4byte	0x553a
 14402 5533 44       		.uleb128 0x44
 14403 5534 01       		.uleb128 0x1
 14404 5535 50       		.byte	0x50
 14405 5536 02       		.uleb128 0x2
 14406 5537 74       		.byte	0x74
 14407 5538 00       		.sleb128 0
 14408 5539 00       		.byte	0
 14409 553a 45       		.uleb128 0x45
 14410 553b 0E000000 		.4byte	.LVL279
 14411 553f CB5A0000 		.4byte	0x5acb
 14412 5543 4D550000 		.4byte	0x554d
ARM GAS  /tmp/cccFXynL.s 			page 255


 14413 5547 44       		.uleb128 0x44
 14414 5548 01       		.uleb128 0x1
 14415 5549 50       		.byte	0x50
 14416 554a 01       		.uleb128 0x1
 14417 554b 30       		.byte	0x30
 14418 554c 00       		.byte	0
 14419 554d 42       		.uleb128 0x42
 14420 554e 12000000 		.4byte	.LVL280
 14421 5552 655B0000 		.4byte	0x5b65
 14422 5556 42       		.uleb128 0x42
 14423 5557 1E000000 		.4byte	.LVL283
 14424 555b 9F5A0000 		.4byte	0x5a9f
 14425 555f 45       		.uleb128 0x45
 14426 5560 2A000000 		.4byte	.LVL286
 14427 5564 EC5A0000 		.4byte	0x5aec
 14428 5568 73550000 		.4byte	0x5573
 14429 556c 44       		.uleb128 0x44
 14430 556d 01       		.uleb128 0x1
 14431 556e 50       		.byte	0x50
 14432 556f 02       		.uleb128 0x2
 14433 5570 74       		.byte	0x74
 14434 5571 00       		.sleb128 0
 14435 5572 00       		.byte	0
 14436 5573 42       		.uleb128 0x42
 14437 5574 2E000000 		.4byte	.LVL287
 14438 5578 655B0000 		.4byte	0x5b65
 14439 557c 00       		.byte	0
 14440 557d 65       		.uleb128 0x65
 14441 557e 22220000 		.4byte	.LASF870
 14442 5582 01       		.byte	0x1
 14443 5583 ED       		.byte	0xed
 14444 5584 00000000 		.4byte	.LFB268
 14445 5588 14000000 		.4byte	.LFE268-.LFB268
 14446 558c 01       		.uleb128 0x1
 14447 558d 9C       		.byte	0x9c
 14448 558e BC550000 		.4byte	0x55bc
 14449 5592 66       		.uleb128 0x66
 14450 5593 04020000 		.4byte	.LASF704
 14451 5597 01       		.byte	0x1
 14452 5598 ED       		.byte	0xed
 14453 5599 AB010000 		.4byte	0x1ab
 14454 559d A8140000 		.4byte	.LLST96
 14455 55a1 42       		.uleb128 0x42
 14456 55a2 0A000000 		.4byte	.LVL274
 14457 55a6 705B0000 		.4byte	0x5b70
 14458 55aa 53       		.uleb128 0x53
 14459 55ab 14000000 		.4byte	.LVL276
 14460 55af 7B5B0000 		.4byte	0x5b7b
 14461 55b3 44       		.uleb128 0x44
 14462 55b4 01       		.uleb128 0x1
 14463 55b5 50       		.byte	0x50
 14464 55b6 03       		.uleb128 0x3
 14465 55b7 F3       		.byte	0xf3
 14466 55b8 01       		.uleb128 0x1
 14467 55b9 50       		.byte	0x50
 14468 55ba 00       		.byte	0
 14469 55bb 00       		.byte	0
ARM GAS  /tmp/cccFXynL.s 			page 256


 14470 55bc 67       		.uleb128 0x67
 14471 55bd 8D220000 		.4byte	.LASF871
 14472 55c1 01       		.byte	0x1
 14473 55c2 E7       		.byte	0xe7
 14474 55c3 30170000 		.4byte	0x1730
 14475 55c7 00000000 		.4byte	.LFB267
 14476 55cb 14000000 		.4byte	.LFE267-.LFB267
 14477 55cf 01       		.uleb128 0x1
 14478 55d0 9C       		.byte	0x9c
 14479 55d1 1F560000 		.4byte	0x561f
 14480 55d5 63       		.uleb128 0x63
 14481 55d6 7400     		.ascii	"t\000"
 14482 55d8 01       		.byte	0x1
 14483 55d9 E7       		.byte	0xe7
 14484 55da DB340000 		.4byte	0x34db
 14485 55de DF140000 		.4byte	.LLST0
 14486 55e2 68       		.uleb128 0x68
 14487 55e3 617000   		.ascii	"ap\000"
 14488 55e6 01       		.byte	0x1
 14489 55e7 E9       		.byte	0xe9
 14490 55e8 AC3A0000 		.4byte	0x3aac
 14491 55ec 69       		.uleb128 0x69
 14492 55ed 13580000 		.4byte	0x5813
 14493 55f1 02000000 		.4byte	.LBB52
 14494 55f5 02000000 		.4byte	.LBE52-.LBB52
 14495 55f9 01       		.byte	0x1
 14496 55fa E9       		.byte	0xe9
 14497 55fb 05560000 		.4byte	0x5605
 14498 55ff 5D       		.uleb128 0x5d
 14499 5600 23580000 		.4byte	0x5823
 14500 5604 00       		.byte	0
 14501 5605 6A       		.uleb128 0x6a
 14502 5606 69580000 		.4byte	0x5869
 14503 560a 08000000 		.4byte	.LBB54
 14504 560e 04000000 		.4byte	.LBE54-.LBB54
 14505 5612 01       		.byte	0x1
 14506 5613 EA       		.byte	0xea
 14507 5614 48       		.uleb128 0x48
 14508 5615 79580000 		.4byte	0x5879
 14509 5619 00150000 		.4byte	.LLST1
 14510 561d 00       		.byte	0
 14511 561e 00       		.byte	0
 14512 561f 65       		.uleb128 0x65
 14513 5620 EB240000 		.4byte	.LASF872
 14514 5624 01       		.byte	0x1
 14515 5625 E1       		.byte	0xe1
 14516 5626 00000000 		.4byte	.LFB266
 14517 562a 30000000 		.4byte	.LFE266-.LFB266
 14518 562e 01       		.uleb128 0x1
 14519 562f 9C       		.byte	0x9c
 14520 5630 D6560000 		.4byte	0x56d6
 14521 5634 63       		.uleb128 0x63
 14522 5635 7400     		.ascii	"t\000"
 14523 5637 01       		.byte	0x1
 14524 5638 E1       		.byte	0xe1
 14525 5639 DB340000 		.4byte	0x34db
 14526 563d 13150000 		.4byte	.LLST114
ARM GAS  /tmp/cccFXynL.s 			page 257


 14527 5641 66       		.uleb128 0x66
 14528 5642 09060000 		.4byte	.LASF859
 14529 5646 01       		.byte	0x1
 14530 5647 E1       		.byte	0xe1
 14531 5648 A1320000 		.4byte	0x32a1
 14532 564c 3F150000 		.4byte	.LLST115
 14533 5650 63       		.uleb128 0x63
 14534 5651 73726300 		.ascii	"src\000"
 14535 5655 01       		.byte	0x1
 14536 5656 E1       		.byte	0xe1
 14537 5657 34090000 		.4byte	0x934
 14538 565b 81150000 		.4byte	.LLST116
 14539 565f 63       		.uleb128 0x63
 14540 5660 6C656E00 		.ascii	"len\000"
 14541 5664 01       		.byte	0x1
 14542 5665 E1       		.byte	0xe1
 14543 5666 F2000000 		.4byte	0xf2
 14544 566a B8150000 		.4byte	.LLST117
 14545 566e 69       		.uleb128 0x69
 14546 566f 13580000 		.4byte	0x5813
 14547 5673 1C000000 		.4byte	.LBB143
 14548 5677 02000000 		.4byte	.LBE143-.LBB143
 14549 567b 01       		.byte	0x1
 14550 567c E4       		.byte	0xe4
 14551 567d 87560000 		.4byte	0x5687
 14552 5681 5D       		.uleb128 0x5d
 14553 5682 23580000 		.4byte	0x5823
 14554 5686 00       		.byte	0
 14555 5687 45       		.uleb128 0x45
 14556 5688 1C000000 		.4byte	.LVL341
 14557 568c D0580000 		.4byte	0x58d0
 14558 5690 B6560000 		.4byte	0x56b6
 14559 5694 44       		.uleb128 0x44
 14560 5695 01       		.uleb128 0x1
 14561 5696 51       		.byte	0x51
 14562 5697 03       		.uleb128 0x3
 14563 5698 74       		.byte	0x74
 14564 5699 EC00     		.sleb128 108
 14565 569b 44       		.uleb128 0x44
 14566 569c 01       		.uleb128 0x1
 14567 569d 52       		.byte	0x52
 14568 569e 02       		.uleb128 0x2
 14569 569f 75       		.byte	0x75
 14570 56a0 00       		.sleb128 0
 14571 56a1 44       		.uleb128 0x44
 14572 56a2 01       		.uleb128 0x1
 14573 56a3 53       		.byte	0x53
 14574 56a4 02       		.uleb128 0x2
 14575 56a5 77       		.byte	0x77
 14576 56a6 00       		.sleb128 0
 14577 56a7 44       		.uleb128 0x44
 14578 56a8 02       		.uleb128 0x2
 14579 56a9 7D       		.byte	0x7d
 14580 56aa 00       		.sleb128 0
 14581 56ab 01       		.uleb128 0x1
 14582 56ac 31       		.byte	0x31
 14583 56ad 5E       		.uleb128 0x5e
ARM GAS  /tmp/cccFXynL.s 			page 258


 14584 56ae 99570000 		.4byte	0x5799
 14585 56b2 02       		.uleb128 0x2
 14586 56b3 74       		.byte	0x74
 14587 56b4 00       		.sleb128 0
 14588 56b5 00       		.byte	0
 14589 56b6 53       		.uleb128 0x53
 14590 56b7 30000000 		.4byte	.LVL343
 14591 56bb 865B0000 		.4byte	0x5b86
 14592 56bf 44       		.uleb128 0x44
 14593 56c0 01       		.uleb128 0x1
 14594 56c1 51       		.byte	0x51
 14595 56c2 03       		.uleb128 0x3
 14596 56c3 F3       		.byte	0xf3
 14597 56c4 01       		.uleb128 0x1
 14598 56c5 51       		.byte	0x51
 14599 56c6 44       		.uleb128 0x44
 14600 56c7 01       		.uleb128 0x1
 14601 56c8 52       		.byte	0x52
 14602 56c9 03       		.uleb128 0x3
 14603 56ca F3       		.byte	0xf3
 14604 56cb 01       		.uleb128 0x1
 14605 56cc 52       		.byte	0x52
 14606 56cd 44       		.uleb128 0x44
 14607 56ce 01       		.uleb128 0x1
 14608 56cf 53       		.byte	0x53
 14609 56d0 03       		.uleb128 0x3
 14610 56d1 F3       		.byte	0xf3
 14611 56d2 01       		.uleb128 0x1
 14612 56d3 53       		.byte	0x53
 14613 56d4 00       		.byte	0
 14614 56d5 00       		.byte	0
 14615 56d6 65       		.uleb128 0x65
 14616 56d7 54170000 		.4byte	.LASF873
 14617 56db 01       		.byte	0x1
 14618 56dc DB       		.byte	0xdb
 14619 56dd 00000000 		.4byte	.LFB265
 14620 56e1 2E000000 		.4byte	.LFE265-.LFB265
 14621 56e5 01       		.uleb128 0x1
 14622 56e6 9C       		.byte	0x9c
 14623 56e7 8D570000 		.4byte	0x578d
 14624 56eb 63       		.uleb128 0x63
 14625 56ec 7400     		.ascii	"t\000"
 14626 56ee 01       		.byte	0x1
 14627 56ef DB       		.byte	0xdb
 14628 56f0 DB340000 		.4byte	0x34db
 14629 56f4 EF150000 		.4byte	.LLST118
 14630 56f8 66       		.uleb128 0x66
 14631 56f9 09060000 		.4byte	.LASF859
 14632 56fd 01       		.byte	0x1
 14633 56fe DB       		.byte	0xdb
 14634 56ff AB010000 		.4byte	0x1ab
 14635 5703 1B160000 		.4byte	.LLST119
 14636 5707 63       		.uleb128 0x63
 14637 5708 73726300 		.ascii	"src\000"
 14638 570c 01       		.byte	0x1
 14639 570d DB       		.byte	0xdb
 14640 570e A1320000 		.4byte	0x32a1
ARM GAS  /tmp/cccFXynL.s 			page 259


 14641 5712 52160000 		.4byte	.LLST120
 14642 5716 63       		.uleb128 0x63
 14643 5717 6C656E00 		.ascii	"len\000"
 14644 571b 01       		.byte	0x1
 14645 571c DB       		.byte	0xdb
 14646 571d F2000000 		.4byte	0xf2
 14647 5721 89160000 		.4byte	.LLST121
 14648 5725 69       		.uleb128 0x69
 14649 5726 13580000 		.4byte	0x5813
 14650 572a 1A000000 		.4byte	.LBB145
 14651 572e 02000000 		.4byte	.LBE145-.LBB145
 14652 5732 01       		.byte	0x1
 14653 5733 DE       		.byte	0xde
 14654 5734 3E570000 		.4byte	0x573e
 14655 5738 5D       		.uleb128 0x5d
 14656 5739 23580000 		.4byte	0x5823
 14657 573d 00       		.byte	0
 14658 573e 45       		.uleb128 0x45
 14659 573f 1A000000 		.4byte	.LVL347
 14660 5743 D0580000 		.4byte	0x58d0
 14661 5747 6D570000 		.4byte	0x576d
 14662 574b 44       		.uleb128 0x44
 14663 574c 01       		.uleb128 0x1
 14664 574d 51       		.byte	0x51
 14665 574e 03       		.uleb128 0x3
 14666 574f 74       		.byte	0x74
 14667 5750 EC00     		.sleb128 108
 14668 5752 44       		.uleb128 0x44
 14669 5753 01       		.uleb128 0x1
 14670 5754 52       		.byte	0x52
 14671 5755 02       		.uleb128 0x2
 14672 5756 76       		.byte	0x76
 14673 5757 00       		.sleb128 0
 14674 5758 44       		.uleb128 0x44
 14675 5759 01       		.uleb128 0x1
 14676 575a 53       		.byte	0x53
 14677 575b 02       		.uleb128 0x2
 14678 575c 77       		.byte	0x77
 14679 575d 00       		.sleb128 0
 14680 575e 44       		.uleb128 0x44
 14681 575f 02       		.uleb128 0x2
 14682 5760 7D       		.byte	0x7d
 14683 5761 00       		.sleb128 0
 14684 5762 01       		.uleb128 0x1
 14685 5763 30       		.byte	0x30
 14686 5764 5E       		.uleb128 0x5e
 14687 5765 99570000 		.4byte	0x5799
 14688 5769 02       		.uleb128 0x2
 14689 576a 74       		.byte	0x74
 14690 576b 00       		.sleb128 0
 14691 576c 00       		.byte	0
 14692 576d 53       		.uleb128 0x53
 14693 576e 2E000000 		.4byte	.LVL349
 14694 5772 915B0000 		.4byte	0x5b91
 14695 5776 44       		.uleb128 0x44
 14696 5777 01       		.uleb128 0x1
 14697 5778 51       		.byte	0x51
ARM GAS  /tmp/cccFXynL.s 			page 260


 14698 5779 03       		.uleb128 0x3
 14699 577a F3       		.byte	0xf3
 14700 577b 01       		.uleb128 0x1
 14701 577c 51       		.byte	0x51
 14702 577d 44       		.uleb128 0x44
 14703 577e 01       		.uleb128 0x1
 14704 577f 52       		.byte	0x52
 14705 5780 03       		.uleb128 0x3
 14706 5781 F3       		.byte	0xf3
 14707 5782 01       		.uleb128 0x1
 14708 5783 52       		.byte	0x52
 14709 5784 44       		.uleb128 0x44
 14710 5785 01       		.uleb128 0x1
 14711 5786 53       		.byte	0x53
 14712 5787 03       		.uleb128 0x3
 14713 5788 F3       		.byte	0xf3
 14714 5789 01       		.uleb128 0x1
 14715 578a 53       		.byte	0x53
 14716 578b 00       		.byte	0
 14717 578c 00       		.byte	0
 14718 578d 6B       		.uleb128 0x6b
 14719 578e 63220000 		.4byte	.LASF875
 14720 5792 01       		.byte	0x1
 14721 5793 C2       		.byte	0xc2
 14722 5794 01       		.byte	0x1
 14723 5795 13580000 		.4byte	0x5813
 14724 5799 6C       		.uleb128 0x6c
 14725 579a 7400     		.ascii	"t\000"
 14726 579c 01       		.byte	0x1
 14727 579d C2       		.byte	0xc2
 14728 579e DB340000 		.4byte	0x34db
 14729 57a2 6D       		.uleb128 0x6d
 14730 57a3 41100000 		.4byte	.LASF403
 14731 57a7 01       		.byte	0x1
 14732 57a8 C2       		.byte	0xc2
 14733 57a9 A1320000 		.4byte	0x32a1
 14734 57ad 6C       		.uleb128 0x6c
 14735 57ae 6C656E00 		.ascii	"len\000"
 14736 57b2 01       		.byte	0x1
 14737 57b3 C2       		.byte	0xc2
 14738 57b4 F2000000 		.4byte	0xf2
 14739 57b8 6D       		.uleb128 0x6d
 14740 57b9 77060000 		.4byte	.LASF876
 14741 57bd 01       		.byte	0x1
 14742 57be C2       		.byte	0xc2
 14743 57bf 30170000 		.4byte	0x1730
 14744 57c3 6E       		.uleb128 0x6e
 14745 57c4 04020000 		.4byte	.LASF704
 14746 57c8 01       		.byte	0x1
 14747 57c9 C4       		.byte	0xc4
 14748 57ca 4B3D0000 		.4byte	0x3d4b
 14749 57ce 6E       		.uleb128 0x6e
 14750 57cf 91090000 		.4byte	.LASF877
 14751 57d3 01       		.byte	0x1
 14752 57d4 C7       		.byte	0xc7
 14753 57d5 D2000000 		.4byte	0xd2
 14754 57d9 6E       		.uleb128 0x6e
ARM GAS  /tmp/cccFXynL.s 			page 261


 14755 57da FC1E0000 		.4byte	.LASF878
 14756 57de 01       		.byte	0x1
 14757 57df C8       		.byte	0xc8
 14758 57e0 F2000000 		.4byte	0xf2
 14759 57e4 6E       		.uleb128 0x6e
 14760 57e5 4E270000 		.4byte	.LASF879
 14761 57e9 01       		.byte	0x1
 14762 57ea CB       		.byte	0xcb
 14763 57eb A1320000 		.4byte	0x32a1
 14764 57ef 39       		.uleb128 0x39
 14765 57f0 68       		.uleb128 0x68
 14766 57f1 7200     		.ascii	"r\000"
 14767 57f3 01       		.byte	0x1
 14768 57f4 CD       		.byte	0xcd
 14769 57f5 73360000 		.4byte	0x3673
 14770 57f9 39       		.uleb128 0x39
 14771 57fa 68       		.uleb128 0x68
 14772 57fb 72616D00 		.ascii	"ram\000"
 14773 57ff 01       		.byte	0x1
 14774 5800 CE       		.byte	0xce
 14775 5801 A1320000 		.4byte	0x32a1
 14776 5805 6E       		.uleb128 0x6e
 14777 5806 DC030000 		.4byte	.LASF880
 14778 580a 01       		.byte	0x1
 14779 580b CF       		.byte	0xcf
 14780 580c A1320000 		.4byte	0x32a1
 14781 5810 00       		.byte	0
 14782 5811 00       		.byte	0
 14783 5812 00       		.byte	0
 14784 5813 6F       		.uleb128 0x6f
 14785 5814 AE0A0000 		.4byte	.LASF931
 14786 5818 01       		.byte	0x1
 14787 5819 BD       		.byte	0xbd
 14788 581a AC3A0000 		.4byte	0x3aac
 14789 581e 01       		.byte	0x1
 14790 581f 2D580000 		.4byte	0x582d
 14791 5823 6C       		.uleb128 0x6c
 14792 5824 7400     		.ascii	"t\000"
 14793 5826 01       		.byte	0x1
 14794 5827 BD       		.byte	0xbd
 14795 5828 DB340000 		.4byte	0x34db
 14796 582c 00       		.byte	0
 14797 582d 70       		.uleb128 0x70
 14798 582e E4190000 		.4byte	.LASF881
 14799 5832 02       		.byte	0x2
 14800 5833 96       		.byte	0x96
 14801 5834 D2000000 		.4byte	0xd2
 14802 5838 03       		.byte	0x3
 14803 5839 69580000 		.4byte	0x5869
 14804 583d 6C       		.uleb128 0x6c
 14805 583e 647000   		.ascii	"dp\000"
 14806 5841 02       		.byte	0x2
 14807 5842 96       		.byte	0x96
 14808 5843 57300000 		.4byte	0x3057
 14809 5847 6C       		.uleb128 0x6c
 14810 5848 526E5700 		.ascii	"RnW\000"
 14811 584c 02       		.byte	0x2
ARM GAS  /tmp/cccFXynL.s 			page 262


 14812 584d 96       		.byte	0x96
 14813 584e A7000000 		.4byte	0xa7
 14814 5852 6D       		.uleb128 0x6d
 14815 5853 41100000 		.4byte	.LASF403
 14816 5857 02       		.byte	0x2
 14817 5858 97       		.byte	0x97
 14818 5859 B7000000 		.4byte	0xb7
 14819 585d 6D       		.uleb128 0x6d
 14820 585e DD0D0000 		.4byte	.LASF882
 14821 5862 02       		.byte	0x2
 14822 5863 97       		.byte	0x97
 14823 5864 D2000000 		.4byte	0xd2
 14824 5868 00       		.byte	0
 14825 5869 70       		.uleb128 0x70
 14826 586a 820A0000 		.4byte	.LASF883
 14827 586e 02       		.byte	0x2
 14828 586f 91       		.byte	0x91
 14829 5870 D2000000 		.4byte	0xd2
 14830 5874 03       		.byte	0x3
 14831 5875 84580000 		.4byte	0x5884
 14832 5879 6C       		.uleb128 0x6c
 14833 587a 647000   		.ascii	"dp\000"
 14834 587d 02       		.byte	0x2
 14835 587e 91       		.byte	0x91
 14836 587f 1D310000 		.4byte	0x311d
 14837 5883 00       		.byte	0
 14838 5884 70       		.uleb128 0x70
 14839 5885 73110000 		.4byte	.LASF884
 14840 5889 02       		.byte	0x2
 14841 588a 8C       		.byte	0x8c
 14842 588b D2000000 		.4byte	0xd2
 14843 588f 03       		.byte	0x3
 14844 5890 AA580000 		.4byte	0x58aa
 14845 5894 6C       		.uleb128 0x6c
 14846 5895 647000   		.ascii	"dp\000"
 14847 5898 02       		.byte	0x2
 14848 5899 8C       		.byte	0x8c
 14849 589a 1D310000 		.4byte	0x311d
 14850 589e 6D       		.uleb128 0x6d
 14851 589f 41100000 		.4byte	.LASF403
 14852 58a3 02       		.byte	0x2
 14853 58a4 8C       		.byte	0x8c
 14854 58a5 B7000000 		.4byte	0xb7
 14855 58a9 00       		.byte	0
 14856 58aa 0C       		.uleb128 0xc
 14857 58ab D2000000 		.4byte	0xd2
 14858 58af BD580000 		.4byte	0x58bd
 14859 58b3 4F       		.uleb128 0x4f
 14860 58b4 9B000000 		.4byte	0x9b
 14861 58b8 CA470000 		.4byte	0x47ca
 14862 58bc 00       		.byte	0
 14863 58bd 0C       		.uleb128 0xc
 14864 58be D2000000 		.4byte	0xd2
 14865 58c2 D0580000 		.4byte	0x58d0
 14866 58c6 4F       		.uleb128 0x4f
 14867 58c7 9B000000 		.4byte	0x9b
 14868 58cb D3470000 		.4byte	0x47d3
ARM GAS  /tmp/cccFXynL.s 			page 263


 14869 58cf 00       		.byte	0
 14870 58d0 71       		.uleb128 0x71
 14871 58d1 8D570000 		.4byte	0x578d
 14872 58d5 00000000 		.4byte	.LFB292
 14873 58d9 84000000 		.4byte	.LFE292-.LFB292
 14874 58dd 01       		.uleb128 0x1
 14875 58de 9C       		.byte	0x9c
 14876 58df 97590000 		.4byte	0x5997
 14877 58e3 48       		.uleb128 0x48
 14878 58e4 A2570000 		.4byte	0x57a2
 14879 58e8 C0160000 		.4byte	.LLST105
 14880 58ec 48       		.uleb128 0x48
 14881 58ed AD570000 		.4byte	0x57ad
 14882 58f1 EC160000 		.4byte	.LLST106
 14883 58f5 48       		.uleb128 0x48
 14884 58f6 B8570000 		.4byte	0x57b8
 14885 58fa 0D170000 		.4byte	.LLST107
 14886 58fe 5D       		.uleb128 0x5d
 14887 58ff 99570000 		.4byte	0x5799
 14888 5903 5D       		.uleb128 0x5d
 14889 5904 99570000 		.4byte	0x5799
 14890 5908 4A       		.uleb128 0x4a
 14891 5909 C3570000 		.4byte	0x57c3
 14892 590d 2D170000 		.4byte	.LLST108
 14893 5911 4A       		.uleb128 0x4a
 14894 5912 CE570000 		.4byte	0x57ce
 14895 5916 40170000 		.4byte	.LLST109
 14896 591a 4A       		.uleb128 0x4a
 14897 591b D9570000 		.4byte	0x57d9
 14898 591f 53170000 		.4byte	.LLST110
 14899 5923 4A       		.uleb128 0x4a
 14900 5924 E4570000 		.4byte	0x57e4
 14901 5928 66170000 		.4byte	.LLST111
 14902 592c 72       		.uleb128 0x72
 14903 592d EF570000 		.4byte	0x57ef
 14904 5931 2A000000 		.4byte	.LBB139
 14905 5935 4C000000 		.4byte	.LBE139-.LBB139
 14906 5939 4A       		.uleb128 0x4a
 14907 593a F0570000 		.4byte	0x57f0
 14908 593e 79170000 		.4byte	.LLST112
 14909 5942 72       		.uleb128 0x72
 14910 5943 F9570000 		.4byte	0x57f9
 14911 5947 34000000 		.4byte	.LBB140
 14912 594b 38000000 		.4byte	.LBE140-.LBB140
 14913 594f 56       		.uleb128 0x56
 14914 5950 FA570000 		.4byte	0x57fa
 14915 5954 02       		.uleb128 0x2
 14916 5955 91       		.byte	0x91
 14917 5956 54       		.sleb128 -44
 14918 5957 4A       		.uleb128 0x4a
 14919 5958 05580000 		.4byte	0x5805
 14920 595c 8C170000 		.4byte	.LLST113
 14921 5960 69       		.uleb128 0x69
 14922 5961 13580000 		.4byte	0x5813
 14923 5965 52000000 		.4byte	.LBB141
 14924 5969 02000000 		.4byte	.LBE141-.LBB141
 14925 596d 01       		.byte	0x1
ARM GAS  /tmp/cccFXynL.s 			page 264


 14926 596e D7       		.byte	0xd7
 14927 596f 79590000 		.4byte	0x5979
 14928 5973 5D       		.uleb128 0x5d
 14929 5974 23580000 		.4byte	0x5823
 14930 5978 00       		.byte	0
 14931 5979 43       		.uleb128 0x43
 14932 597a 62000000 		.4byte	.LVL333
 14933 597e 865B0000 		.4byte	0x5b86
 14934 5982 44       		.uleb128 0x44
 14935 5983 01       		.uleb128 0x1
 14936 5984 51       		.byte	0x51
 14937 5985 02       		.uleb128 0x2
 14938 5986 77       		.byte	0x77
 14939 5987 00       		.sleb128 0
 14940 5988 44       		.uleb128 0x44
 14941 5989 01       		.uleb128 0x1
 14942 598a 52       		.byte	0x52
 14943 598b 02       		.uleb128 0x2
 14944 598c 91       		.byte	0x91
 14945 598d 54       		.sleb128 -44
 14946 598e 44       		.uleb128 0x44
 14947 598f 01       		.uleb128 0x1
 14948 5990 53       		.byte	0x53
 14949 5991 01       		.uleb128 0x1
 14950 5992 34       		.byte	0x34
 14951 5993 00       		.byte	0
 14952 5994 00       		.byte	0
 14953 5995 00       		.byte	0
 14954 5996 00       		.byte	0
 14955 5997 71       		.uleb128 0x71
 14956 5998 13580000 		.4byte	0x5813
 14957 599c 00000000 		.4byte	.LFB263
 14958 59a0 06000000 		.4byte	.LFE263-.LFB263
 14959 59a4 01       		.uleb128 0x1
 14960 59a5 9C       		.byte	0x9c
 14961 59a6 B4590000 		.4byte	0x59b4
 14962 59aa 48       		.uleb128 0x48
 14963 59ab 23580000 		.4byte	0x5823
 14964 59af 9F170000 		.4byte	.LLST122
 14965 59b3 00       		.byte	0
 14966 59b4 73       		.uleb128 0x73
 14967 59b5 BD260000 		.4byte	.LASF885
 14968 59b9 BD260000 		.4byte	.LASF885
 14969 59bd 37       		.byte	0x37
 14970 59be 24       		.byte	0x24
 14971 59bf 73       		.uleb128 0x73
 14972 59c0 991B0000 		.4byte	.LASF886
 14973 59c4 991B0000 		.4byte	.LASF886
 14974 59c8 34       		.byte	0x34
 14975 59c9 87       		.byte	0x87
 14976 59ca 73       		.uleb128 0x73
 14977 59cb CB0E0000 		.4byte	.LASF887
 14978 59cf CB0E0000 		.4byte	.LASF887
 14979 59d3 34       		.byte	0x34
 14980 59d4 8D       		.byte	0x8d
 14981 59d5 74       		.uleb128 0x74
 14982 59d6 9C140000 		.4byte	.LASF932
ARM GAS  /tmp/cccFXynL.s 			page 265


 14983 59da B6040000 		.4byte	.LASF933
 14984 59de 0B       		.byte	0xb
 14985 59df 00       		.byte	0
 14986 59e0 9C140000 		.4byte	.LASF932
 14987 59e4 73       		.uleb128 0x73
 14988 59e5 140B0000 		.4byte	.LASF888
 14989 59e9 140B0000 		.4byte	.LASF888
 14990 59ed 34       		.byte	0x34
 14991 59ee 8A       		.byte	0x8a
 14992 59ef 73       		.uleb128 0x73
 14993 59f0 09070000 		.4byte	.LASF889
 14994 59f4 09070000 		.4byte	.LASF889
 14995 59f8 34       		.byte	0x34
 14996 59f9 85       		.byte	0x85
 14997 59fa 73       		.uleb128 0x73
 14998 59fb A31F0000 		.4byte	.LASF890
 14999 59ff A31F0000 		.4byte	.LASF890
 15000 5a03 31       		.byte	0x31
 15001 5a04 47       		.byte	0x47
 15002 5a05 73       		.uleb128 0x73
 15003 5a06 37170000 		.4byte	.LASF891
 15004 5a0a 37170000 		.4byte	.LASF891
 15005 5a0e 33       		.byte	0x33
 15006 5a0f 31       		.byte	0x31
 15007 5a10 73       		.uleb128 0x73
 15008 5a11 6B1E0000 		.4byte	.LASF892
 15009 5a15 6B1E0000 		.4byte	.LASF892
 15010 5a19 34       		.byte	0x34
 15011 5a1a 90       		.byte	0x90
 15012 5a1b 73       		.uleb128 0x73
 15013 5a1c 9A130000 		.4byte	.LASF893
 15014 5a20 9A130000 		.4byte	.LASF893
 15015 5a24 33       		.byte	0x33
 15016 5a25 3B       		.byte	0x3b
 15017 5a26 73       		.uleb128 0x73
 15018 5a27 5E000000 		.4byte	.LASF894
 15019 5a2b 5E000000 		.4byte	.LASF894
 15020 5a2f 2E       		.byte	0x2e
 15021 5a30 26       		.byte	0x26
 15022 5a31 73       		.uleb128 0x73
 15023 5a32 D6020000 		.4byte	.LASF895
 15024 5a36 D6020000 		.4byte	.LASF895
 15025 5a3a 34       		.byte	0x34
 15026 5a3b 9E       		.byte	0x9e
 15027 5a3c 73       		.uleb128 0x73
 15028 5a3d 210C0000 		.4byte	.LASF896
 15029 5a41 210C0000 		.4byte	.LASF896
 15030 5a45 33       		.byte	0x33
 15031 5a46 3C       		.byte	0x3c
 15032 5a47 73       		.uleb128 0x73
 15033 5a48 4F1C0000 		.4byte	.LASF897
 15034 5a4c 4F1C0000 		.4byte	.LASF897
 15035 5a50 34       		.byte	0x34
 15036 5a51 97       		.byte	0x97
 15037 5a52 73       		.uleb128 0x73
 15038 5a53 1B1E0000 		.4byte	.LASF898
 15039 5a57 1B1E0000 		.4byte	.LASF898
ARM GAS  /tmp/cccFXynL.s 			page 266


 15040 5a5b 34       		.byte	0x34
 15041 5a5c 99       		.byte	0x99
 15042 5a5d 73       		.uleb128 0x73
 15043 5a5e 660E0000 		.4byte	.LASF899
 15044 5a62 660E0000 		.4byte	.LASF899
 15045 5a66 34       		.byte	0x34
 15046 5a67 95       		.byte	0x95
 15047 5a68 73       		.uleb128 0x73
 15048 5a69 390A0000 		.4byte	.LASF900
 15049 5a6d 390A0000 		.4byte	.LASF900
 15050 5a71 34       		.byte	0x34
 15051 5a72 9D       		.byte	0x9d
 15052 5a73 73       		.uleb128 0x73
 15053 5a74 62200000 		.4byte	.LASF901
 15054 5a78 62200000 		.4byte	.LASF901
 15055 5a7c 34       		.byte	0x34
 15056 5a7d 93       		.byte	0x93
 15057 5a7e 73       		.uleb128 0x73
 15058 5a7f D2240000 		.4byte	.LASF902
 15059 5a83 D2240000 		.4byte	.LASF902
 15060 5a87 34       		.byte	0x34
 15061 5a88 94       		.byte	0x94
 15062 5a89 73       		.uleb128 0x73
 15063 5a8a 6F0E0000 		.4byte	.LASF903
 15064 5a8e 6F0E0000 		.4byte	.LASF903
 15065 5a92 34       		.byte	0x34
 15066 5a93 92       		.byte	0x92
 15067 5a94 73       		.uleb128 0x73
 15068 5a95 95230000 		.4byte	.LASF904
 15069 5a99 95230000 		.4byte	.LASF904
 15070 5a9d 33       		.byte	0x33
 15071 5a9e 4E       		.byte	0x4e
 15072 5a9f 73       		.uleb128 0x73
 15073 5aa0 56080000 		.4byte	.LASF905
 15074 5aa4 56080000 		.4byte	.LASF905
 15075 5aa8 34       		.byte	0x34
 15076 5aa9 84       		.byte	0x84
 15077 5aaa 73       		.uleb128 0x73
 15078 5aab A8240000 		.4byte	.LASF906
 15079 5aaf A8240000 		.4byte	.LASF906
 15080 5ab3 38       		.byte	0x38
 15081 5ab4 14       		.byte	0x14
 15082 5ab5 73       		.uleb128 0x73
 15083 5ab6 CD010000 		.4byte	.LASF907
 15084 5aba CD010000 		.4byte	.LASF907
 15085 5abe 33       		.byte	0x33
 15086 5abf 26       		.byte	0x26
 15087 5ac0 73       		.uleb128 0x73
 15088 5ac1 47080000 		.4byte	.LASF908
 15089 5ac5 47080000 		.4byte	.LASF908
 15090 5ac9 39       		.byte	0x39
 15091 5aca 24       		.byte	0x24
 15092 5acb 73       		.uleb128 0x73
 15093 5acc BC240000 		.4byte	.LASF909
 15094 5ad0 BC240000 		.4byte	.LASF909
 15095 5ad4 39       		.byte	0x39
 15096 5ad5 28       		.byte	0x28
ARM GAS  /tmp/cccFXynL.s 			page 267


 15097 5ad6 73       		.uleb128 0x73
 15098 5ad7 95260000 		.4byte	.LASF910
 15099 5adb 95260000 		.4byte	.LASF910
 15100 5adf 02       		.byte	0x2
 15101 5ae0 BD       		.byte	0xbd
 15102 5ae1 73       		.uleb128 0x73
 15103 5ae2 06010000 		.4byte	.LASF911
 15104 5ae6 06010000 		.4byte	.LASF911
 15105 5aea 02       		.byte	0x2
 15106 5aeb B6       		.byte	0xb6
 15107 5aec 73       		.uleb128 0x73
 15108 5aed C3170000 		.4byte	.LASF912
 15109 5af1 C3170000 		.4byte	.LASF912
 15110 5af5 33       		.byte	0x33
 15111 5af6 4C       		.byte	0x4c
 15112 5af7 73       		.uleb128 0x73
 15113 5af8 30050000 		.4byte	.LASF913
 15114 5afc 30050000 		.4byte	.LASF913
 15115 5b00 34       		.byte	0x34
 15116 5b01 19       		.byte	0x19
 15117 5b02 73       		.uleb128 0x73
 15118 5b03 041E0000 		.4byte	.LASF914
 15119 5b07 041E0000 		.4byte	.LASF914
 15120 5b0b 02       		.byte	0x2
 15121 5b0c B2       		.byte	0xb2
 15122 5b0d 73       		.uleb128 0x73
 15123 5b0e 8E1F0000 		.4byte	.LASF915
 15124 5b12 8E1F0000 		.4byte	.LASF915
 15125 5b16 09       		.byte	0x9
 15126 5b17 5A       		.byte	0x5a
 15127 5b18 73       		.uleb128 0x73
 15128 5b19 231B0000 		.4byte	.LASF916
 15129 5b1d 231B0000 		.4byte	.LASF916
 15130 5b21 34       		.byte	0x34
 15131 5b22 7F       		.byte	0x7f
 15132 5b23 73       		.uleb128 0x73
 15133 5b24 90210000 		.4byte	.LASF917
 15134 5b28 90210000 		.4byte	.LASF917
 15135 5b2c 34       		.byte	0x34
 15136 5b2d A3       		.byte	0xa3
 15137 5b2e 73       		.uleb128 0x73
 15138 5b2f 9B060000 		.4byte	.LASF918
 15139 5b33 9B060000 		.4byte	.LASF918
 15140 5b37 34       		.byte	0x34
 15141 5b38 A4       		.byte	0xa4
 15142 5b39 73       		.uleb128 0x73
 15143 5b3a F8190000 		.4byte	.LASF919
 15144 5b3e F8190000 		.4byte	.LASF919
 15145 5b42 34       		.byte	0x34
 15146 5b43 A5       		.byte	0xa5
 15147 5b44 73       		.uleb128 0x73
 15148 5b45 AB1E0000 		.4byte	.LASF920
 15149 5b49 AB1E0000 		.4byte	.LASF920
 15150 5b4d 34       		.byte	0x34
 15151 5b4e A6       		.byte	0xa6
 15152 5b4f 73       		.uleb128 0x73
 15153 5b50 AA150000 		.4byte	.LASF921
ARM GAS  /tmp/cccFXynL.s 			page 268


 15154 5b54 AA150000 		.4byte	.LASF921
 15155 5b58 34       		.byte	0x34
 15156 5b59 A8       		.byte	0xa8
 15157 5b5a 73       		.uleb128 0x73
 15158 5b5b 1D260000 		.4byte	.LASF922
 15159 5b5f 1D260000 		.4byte	.LASF922
 15160 5b63 34       		.byte	0x34
 15161 5b64 B0       		.byte	0xb0
 15162 5b65 73       		.uleb128 0x73
 15163 5b66 1C020000 		.4byte	.LASF923
 15164 5b6a 1C020000 		.4byte	.LASF923
 15165 5b6e 3A       		.byte	0x3a
 15166 5b6f 1B       		.byte	0x1b
 15167 5b70 73       		.uleb128 0x73
 15168 5b71 93030000 		.4byte	.LASF924
 15169 5b75 93030000 		.4byte	.LASF924
 15170 5b79 02       		.byte	0x2
 15171 5b7a B4       		.byte	0xb4
 15172 5b7b 73       		.uleb128 0x73
 15173 5b7c 62050000 		.4byte	.LASF925
 15174 5b80 62050000 		.4byte	.LASF925
 15175 5b84 09       		.byte	0x9
 15176 5b85 5D       		.byte	0x5d
 15177 5b86 73       		.uleb128 0x73
 15178 5b87 32250000 		.4byte	.LASF926
 15179 5b8b 32250000 		.4byte	.LASF926
 15180 5b8f 02       		.byte	0x2
 15181 5b90 BC       		.byte	0xbc
 15182 5b91 73       		.uleb128 0x73
 15183 5b92 F11C0000 		.4byte	.LASF927
 15184 5b96 F11C0000 		.4byte	.LASF927
 15185 5b9a 02       		.byte	0x2
 15186 5b9b BB       		.byte	0xbb
 15187 5b9c 00       		.byte	0
 15188              		.section	.debug_abbrev,"",%progbits
 15189              	.Ldebug_abbrev0:
 15190 0000 01       		.uleb128 0x1
 15191 0001 11       		.uleb128 0x11
 15192 0002 01       		.byte	0x1
 15193 0003 25       		.uleb128 0x25
 15194 0004 0E       		.uleb128 0xe
 15195 0005 13       		.uleb128 0x13
 15196 0006 0B       		.uleb128 0xb
 15197 0007 03       		.uleb128 0x3
 15198 0008 0E       		.uleb128 0xe
 15199 0009 1B       		.uleb128 0x1b
 15200 000a 0E       		.uleb128 0xe
 15201 000b 55       		.uleb128 0x55
 15202 000c 17       		.uleb128 0x17
 15203 000d 11       		.uleb128 0x11
 15204 000e 01       		.uleb128 0x1
 15205 000f 10       		.uleb128 0x10
 15206 0010 17       		.uleb128 0x17
 15207 0011 00       		.byte	0
 15208 0012 00       		.byte	0
 15209 0013 02       		.uleb128 0x2
 15210 0014 24       		.uleb128 0x24
ARM GAS  /tmp/cccFXynL.s 			page 269


 15211 0015 00       		.byte	0
 15212 0016 0B       		.uleb128 0xb
 15213 0017 0B       		.uleb128 0xb
 15214 0018 3E       		.uleb128 0x3e
 15215 0019 0B       		.uleb128 0xb
 15216 001a 03       		.uleb128 0x3
 15217 001b 0E       		.uleb128 0xe
 15218 001c 00       		.byte	0
 15219 001d 00       		.byte	0
 15220 001e 03       		.uleb128 0x3
 15221 001f 16       		.uleb128 0x16
 15222 0020 00       		.byte	0
 15223 0021 03       		.uleb128 0x3
 15224 0022 0E       		.uleb128 0xe
 15225 0023 3A       		.uleb128 0x3a
 15226 0024 0B       		.uleb128 0xb
 15227 0025 3B       		.uleb128 0x3b
 15228 0026 0B       		.uleb128 0xb
 15229 0027 49       		.uleb128 0x49
 15230 0028 13       		.uleb128 0x13
 15231 0029 00       		.byte	0
 15232 002a 00       		.byte	0
 15233 002b 04       		.uleb128 0x4
 15234 002c 24       		.uleb128 0x24
 15235 002d 00       		.byte	0
 15236 002e 0B       		.uleb128 0xb
 15237 002f 0B       		.uleb128 0xb
 15238 0030 3E       		.uleb128 0x3e
 15239 0031 0B       		.uleb128 0xb
 15240 0032 03       		.uleb128 0x3
 15241 0033 08       		.uleb128 0x8
 15242 0034 00       		.byte	0
 15243 0035 00       		.byte	0
 15244 0036 05       		.uleb128 0x5
 15245 0037 26       		.uleb128 0x26
 15246 0038 00       		.byte	0
 15247 0039 49       		.uleb128 0x49
 15248 003a 13       		.uleb128 0x13
 15249 003b 00       		.byte	0
 15250 003c 00       		.byte	0
 15251 003d 06       		.uleb128 0x6
 15252 003e 35       		.uleb128 0x35
 15253 003f 00       		.byte	0
 15254 0040 49       		.uleb128 0x49
 15255 0041 13       		.uleb128 0x13
 15256 0042 00       		.byte	0
 15257 0043 00       		.byte	0
 15258 0044 07       		.uleb128 0x7
 15259 0045 0F       		.uleb128 0xf
 15260 0046 00       		.byte	0
 15261 0047 0B       		.uleb128 0xb
 15262 0048 0B       		.uleb128 0xb
 15263 0049 49       		.uleb128 0x49
 15264 004a 13       		.uleb128 0x13
 15265 004b 00       		.byte	0
 15266 004c 00       		.byte	0
 15267 004d 08       		.uleb128 0x8
ARM GAS  /tmp/cccFXynL.s 			page 270


 15268 004e 13       		.uleb128 0x13
 15269 004f 00       		.byte	0
 15270 0050 03       		.uleb128 0x3
 15271 0051 0E       		.uleb128 0xe
 15272 0052 3C       		.uleb128 0x3c
 15273 0053 19       		.uleb128 0x19
 15274 0054 00       		.byte	0
 15275 0055 00       		.byte	0
 15276 0056 09       		.uleb128 0x9
 15277 0057 16       		.uleb128 0x16
 15278 0058 00       		.byte	0
 15279 0059 03       		.uleb128 0x3
 15280 005a 0E       		.uleb128 0xe
 15281 005b 3A       		.uleb128 0x3a
 15282 005c 0B       		.uleb128 0xb
 15283 005d 3B       		.uleb128 0x3b
 15284 005e 05       		.uleb128 0x5
 15285 005f 49       		.uleb128 0x49
 15286 0060 13       		.uleb128 0x13
 15287 0061 00       		.byte	0
 15288 0062 00       		.byte	0
 15289 0063 0A       		.uleb128 0xa
 15290 0064 17       		.uleb128 0x17
 15291 0065 01       		.byte	0x1
 15292 0066 0B       		.uleb128 0xb
 15293 0067 0B       		.uleb128 0xb
 15294 0068 3A       		.uleb128 0x3a
 15295 0069 0B       		.uleb128 0xb
 15296 006a 3B       		.uleb128 0x3b
 15297 006b 0B       		.uleb128 0xb
 15298 006c 01       		.uleb128 0x1
 15299 006d 13       		.uleb128 0x13
 15300 006e 00       		.byte	0
 15301 006f 00       		.byte	0
 15302 0070 0B       		.uleb128 0xb
 15303 0071 0D       		.uleb128 0xd
 15304 0072 00       		.byte	0
 15305 0073 03       		.uleb128 0x3
 15306 0074 0E       		.uleb128 0xe
 15307 0075 3A       		.uleb128 0x3a
 15308 0076 0B       		.uleb128 0xb
 15309 0077 3B       		.uleb128 0x3b
 15310 0078 0B       		.uleb128 0xb
 15311 0079 49       		.uleb128 0x49
 15312 007a 13       		.uleb128 0x13
 15313 007b 00       		.byte	0
 15314 007c 00       		.byte	0
 15315 007d 0C       		.uleb128 0xc
 15316 007e 01       		.uleb128 0x1
 15317 007f 01       		.byte	0x1
 15318 0080 49       		.uleb128 0x49
 15319 0081 13       		.uleb128 0x13
 15320 0082 01       		.uleb128 0x1
 15321 0083 13       		.uleb128 0x13
 15322 0084 00       		.byte	0
 15323 0085 00       		.byte	0
 15324 0086 0D       		.uleb128 0xd
ARM GAS  /tmp/cccFXynL.s 			page 271


 15325 0087 21       		.uleb128 0x21
 15326 0088 00       		.byte	0
 15327 0089 49       		.uleb128 0x49
 15328 008a 13       		.uleb128 0x13
 15329 008b 2F       		.uleb128 0x2f
 15330 008c 0B       		.uleb128 0xb
 15331 008d 00       		.byte	0
 15332 008e 00       		.byte	0
 15333 008f 0E       		.uleb128 0xe
 15334 0090 13       		.uleb128 0x13
 15335 0091 01       		.byte	0x1
 15336 0092 0B       		.uleb128 0xb
 15337 0093 0B       		.uleb128 0xb
 15338 0094 3A       		.uleb128 0x3a
 15339 0095 0B       		.uleb128 0xb
 15340 0096 3B       		.uleb128 0x3b
 15341 0097 0B       		.uleb128 0xb
 15342 0098 01       		.uleb128 0x1
 15343 0099 13       		.uleb128 0x13
 15344 009a 00       		.byte	0
 15345 009b 00       		.byte	0
 15346 009c 0F       		.uleb128 0xf
 15347 009d 0D       		.uleb128 0xd
 15348 009e 00       		.byte	0
 15349 009f 03       		.uleb128 0x3
 15350 00a0 0E       		.uleb128 0xe
 15351 00a1 3A       		.uleb128 0x3a
 15352 00a2 0B       		.uleb128 0xb
 15353 00a3 3B       		.uleb128 0x3b
 15354 00a4 0B       		.uleb128 0xb
 15355 00a5 49       		.uleb128 0x49
 15356 00a6 13       		.uleb128 0x13
 15357 00a7 38       		.uleb128 0x38
 15358 00a8 0B       		.uleb128 0xb
 15359 00a9 00       		.byte	0
 15360 00aa 00       		.byte	0
 15361 00ab 10       		.uleb128 0x10
 15362 00ac 0F       		.uleb128 0xf
 15363 00ad 00       		.byte	0
 15364 00ae 0B       		.uleb128 0xb
 15365 00af 0B       		.uleb128 0xb
 15366 00b0 00       		.byte	0
 15367 00b1 00       		.byte	0
 15368 00b2 11       		.uleb128 0x11
 15369 00b3 13       		.uleb128 0x13
 15370 00b4 01       		.byte	0x1
 15371 00b5 03       		.uleb128 0x3
 15372 00b6 0E       		.uleb128 0xe
 15373 00b7 0B       		.uleb128 0xb
 15374 00b8 0B       		.uleb128 0xb
 15375 00b9 3A       		.uleb128 0x3a
 15376 00ba 0B       		.uleb128 0xb
 15377 00bb 3B       		.uleb128 0x3b
 15378 00bc 0B       		.uleb128 0xb
 15379 00bd 01       		.uleb128 0x1
 15380 00be 13       		.uleb128 0x13
 15381 00bf 00       		.byte	0
ARM GAS  /tmp/cccFXynL.s 			page 272


 15382 00c0 00       		.byte	0
 15383 00c1 12       		.uleb128 0x12
 15384 00c2 0D       		.uleb128 0xd
 15385 00c3 00       		.byte	0
 15386 00c4 03       		.uleb128 0x3
 15387 00c5 08       		.uleb128 0x8
 15388 00c6 3A       		.uleb128 0x3a
 15389 00c7 0B       		.uleb128 0xb
 15390 00c8 3B       		.uleb128 0x3b
 15391 00c9 0B       		.uleb128 0xb
 15392 00ca 49       		.uleb128 0x49
 15393 00cb 13       		.uleb128 0x13
 15394 00cc 38       		.uleb128 0x38
 15395 00cd 0B       		.uleb128 0xb
 15396 00ce 00       		.byte	0
 15397 00cf 00       		.byte	0
 15398 00d0 13       		.uleb128 0x13
 15399 00d1 13       		.uleb128 0x13
 15400 00d2 01       		.byte	0x1
 15401 00d3 03       		.uleb128 0x3
 15402 00d4 0E       		.uleb128 0xe
 15403 00d5 0B       		.uleb128 0xb
 15404 00d6 05       		.uleb128 0x5
 15405 00d7 3A       		.uleb128 0x3a
 15406 00d8 0B       		.uleb128 0xb
 15407 00d9 3B       		.uleb128 0x3b
 15408 00da 0B       		.uleb128 0xb
 15409 00db 01       		.uleb128 0x1
 15410 00dc 13       		.uleb128 0x13
 15411 00dd 00       		.byte	0
 15412 00de 00       		.byte	0
 15413 00df 14       		.uleb128 0x14
 15414 00e0 0D       		.uleb128 0xd
 15415 00e1 00       		.byte	0
 15416 00e2 03       		.uleb128 0x3
 15417 00e3 0E       		.uleb128 0xe
 15418 00e4 3A       		.uleb128 0x3a
 15419 00e5 0B       		.uleb128 0xb
 15420 00e6 3B       		.uleb128 0x3b
 15421 00e7 0B       		.uleb128 0xb
 15422 00e8 49       		.uleb128 0x49
 15423 00e9 13       		.uleb128 0x13
 15424 00ea 38       		.uleb128 0x38
 15425 00eb 05       		.uleb128 0x5
 15426 00ec 00       		.byte	0
 15427 00ed 00       		.byte	0
 15428 00ee 15       		.uleb128 0x15
 15429 00ef 15       		.uleb128 0x15
 15430 00f0 00       		.byte	0
 15431 00f1 27       		.uleb128 0x27
 15432 00f2 19       		.uleb128 0x19
 15433 00f3 00       		.byte	0
 15434 00f4 00       		.byte	0
 15435 00f5 16       		.uleb128 0x16
 15436 00f6 15       		.uleb128 0x15
 15437 00f7 01       		.byte	0x1
 15438 00f8 27       		.uleb128 0x27
ARM GAS  /tmp/cccFXynL.s 			page 273


 15439 00f9 19       		.uleb128 0x19
 15440 00fa 49       		.uleb128 0x49
 15441 00fb 13       		.uleb128 0x13
 15442 00fc 01       		.uleb128 0x1
 15443 00fd 13       		.uleb128 0x13
 15444 00fe 00       		.byte	0
 15445 00ff 00       		.byte	0
 15446 0100 17       		.uleb128 0x17
 15447 0101 05       		.uleb128 0x5
 15448 0102 00       		.byte	0
 15449 0103 49       		.uleb128 0x49
 15450 0104 13       		.uleb128 0x13
 15451 0105 00       		.byte	0
 15452 0106 00       		.byte	0
 15453 0107 18       		.uleb128 0x18
 15454 0108 13       		.uleb128 0x13
 15455 0109 01       		.byte	0x1
 15456 010a 03       		.uleb128 0x3
 15457 010b 0E       		.uleb128 0xe
 15458 010c 0B       		.uleb128 0xb
 15459 010d 05       		.uleb128 0x5
 15460 010e 3A       		.uleb128 0x3a
 15461 010f 0B       		.uleb128 0xb
 15462 0110 3B       		.uleb128 0x3b
 15463 0111 05       		.uleb128 0x5
 15464 0112 01       		.uleb128 0x1
 15465 0113 13       		.uleb128 0x13
 15466 0114 00       		.byte	0
 15467 0115 00       		.byte	0
 15468 0116 19       		.uleb128 0x19
 15469 0117 0D       		.uleb128 0xd
 15470 0118 00       		.byte	0
 15471 0119 03       		.uleb128 0x3
 15472 011a 0E       		.uleb128 0xe
 15473 011b 3A       		.uleb128 0x3a
 15474 011c 0B       		.uleb128 0xb
 15475 011d 3B       		.uleb128 0x3b
 15476 011e 05       		.uleb128 0x5
 15477 011f 49       		.uleb128 0x49
 15478 0120 13       		.uleb128 0x13
 15479 0121 38       		.uleb128 0x38
 15480 0122 0B       		.uleb128 0xb
 15481 0123 00       		.byte	0
 15482 0124 00       		.byte	0
 15483 0125 1A       		.uleb128 0x1a
 15484 0126 0D       		.uleb128 0xd
 15485 0127 00       		.byte	0
 15486 0128 03       		.uleb128 0x3
 15487 0129 0E       		.uleb128 0xe
 15488 012a 3A       		.uleb128 0x3a
 15489 012b 0B       		.uleb128 0xb
 15490 012c 3B       		.uleb128 0x3b
 15491 012d 05       		.uleb128 0x5
 15492 012e 49       		.uleb128 0x49
 15493 012f 13       		.uleb128 0x13
 15494 0130 38       		.uleb128 0x38
 15495 0131 05       		.uleb128 0x5
ARM GAS  /tmp/cccFXynL.s 			page 274


 15496 0132 00       		.byte	0
 15497 0133 00       		.byte	0
 15498 0134 1B       		.uleb128 0x1b
 15499 0135 13       		.uleb128 0x13
 15500 0136 01       		.byte	0x1
 15501 0137 03       		.uleb128 0x3
 15502 0138 0E       		.uleb128 0xe
 15503 0139 0B       		.uleb128 0xb
 15504 013a 0B       		.uleb128 0xb
 15505 013b 3A       		.uleb128 0x3a
 15506 013c 0B       		.uleb128 0xb
 15507 013d 3B       		.uleb128 0x3b
 15508 013e 05       		.uleb128 0x5
 15509 013f 01       		.uleb128 0x1
 15510 0140 13       		.uleb128 0x13
 15511 0141 00       		.byte	0
 15512 0142 00       		.byte	0
 15513 0143 1C       		.uleb128 0x1c
 15514 0144 13       		.uleb128 0x13
 15515 0145 01       		.byte	0x1
 15516 0146 0B       		.uleb128 0xb
 15517 0147 0B       		.uleb128 0xb
 15518 0148 3A       		.uleb128 0x3a
 15519 0149 0B       		.uleb128 0xb
 15520 014a 3B       		.uleb128 0x3b
 15521 014b 05       		.uleb128 0x5
 15522 014c 01       		.uleb128 0x1
 15523 014d 13       		.uleb128 0x13
 15524 014e 00       		.byte	0
 15525 014f 00       		.byte	0
 15526 0150 1D       		.uleb128 0x1d
 15527 0151 17       		.uleb128 0x17
 15528 0152 01       		.byte	0x1
 15529 0153 0B       		.uleb128 0xb
 15530 0154 0B       		.uleb128 0xb
 15531 0155 3A       		.uleb128 0x3a
 15532 0156 0B       		.uleb128 0xb
 15533 0157 3B       		.uleb128 0x3b
 15534 0158 05       		.uleb128 0x5
 15535 0159 01       		.uleb128 0x1
 15536 015a 13       		.uleb128 0x13
 15537 015b 00       		.byte	0
 15538 015c 00       		.byte	0
 15539 015d 1E       		.uleb128 0x1e
 15540 015e 0D       		.uleb128 0xd
 15541 015f 00       		.byte	0
 15542 0160 03       		.uleb128 0x3
 15543 0161 0E       		.uleb128 0xe
 15544 0162 3A       		.uleb128 0x3a
 15545 0163 0B       		.uleb128 0xb
 15546 0164 3B       		.uleb128 0x3b
 15547 0165 05       		.uleb128 0x5
 15548 0166 49       		.uleb128 0x49
 15549 0167 13       		.uleb128 0x13
 15550 0168 00       		.byte	0
 15551 0169 00       		.byte	0
 15552 016a 1F       		.uleb128 0x1f
ARM GAS  /tmp/cccFXynL.s 			page 275


 15553 016b 15       		.uleb128 0x15
 15554 016c 01       		.byte	0x1
 15555 016d 27       		.uleb128 0x27
 15556 016e 19       		.uleb128 0x19
 15557 016f 01       		.uleb128 0x1
 15558 0170 13       		.uleb128 0x13
 15559 0171 00       		.byte	0
 15560 0172 00       		.byte	0
 15561 0173 20       		.uleb128 0x20
 15562 0174 34       		.uleb128 0x34
 15563 0175 00       		.byte	0
 15564 0176 03       		.uleb128 0x3
 15565 0177 0E       		.uleb128 0xe
 15566 0178 3A       		.uleb128 0x3a
 15567 0179 0B       		.uleb128 0xb
 15568 017a 3B       		.uleb128 0x3b
 15569 017b 05       		.uleb128 0x5
 15570 017c 49       		.uleb128 0x49
 15571 017d 13       		.uleb128 0x13
 15572 017e 3F       		.uleb128 0x3f
 15573 017f 19       		.uleb128 0x19
 15574 0180 3C       		.uleb128 0x3c
 15575 0181 19       		.uleb128 0x19
 15576 0182 00       		.byte	0
 15577 0183 00       		.byte	0
 15578 0184 21       		.uleb128 0x21
 15579 0185 26       		.uleb128 0x26
 15580 0186 00       		.byte	0
 15581 0187 00       		.byte	0
 15582 0188 00       		.byte	0
 15583 0189 22       		.uleb128 0x22
 15584 018a 34       		.uleb128 0x34
 15585 018b 00       		.byte	0
 15586 018c 03       		.uleb128 0x3
 15587 018d 0E       		.uleb128 0xe
 15588 018e 3A       		.uleb128 0x3a
 15589 018f 0B       		.uleb128 0xb
 15590 0190 3B       		.uleb128 0x3b
 15591 0191 0B       		.uleb128 0xb
 15592 0192 49       		.uleb128 0x49
 15593 0193 13       		.uleb128 0x13
 15594 0194 3F       		.uleb128 0x3f
 15595 0195 19       		.uleb128 0x19
 15596 0196 3C       		.uleb128 0x3c
 15597 0197 19       		.uleb128 0x19
 15598 0198 00       		.byte	0
 15599 0199 00       		.byte	0
 15600 019a 23       		.uleb128 0x23
 15601 019b 0D       		.uleb128 0xd
 15602 019c 00       		.byte	0
 15603 019d 03       		.uleb128 0x3
 15604 019e 0E       		.uleb128 0xe
 15605 019f 49       		.uleb128 0x49
 15606 01a0 13       		.uleb128 0x13
 15607 01a1 38       		.uleb128 0x38
 15608 01a2 0B       		.uleb128 0xb
 15609 01a3 34       		.uleb128 0x34
ARM GAS  /tmp/cccFXynL.s 			page 276


 15610 01a4 19       		.uleb128 0x19
 15611 01a5 00       		.byte	0
 15612 01a6 00       		.byte	0
 15613 01a7 24       		.uleb128 0x24
 15614 01a8 0D       		.uleb128 0xd
 15615 01a9 00       		.byte	0
 15616 01aa 03       		.uleb128 0x3
 15617 01ab 08       		.uleb128 0x8
 15618 01ac 3A       		.uleb128 0x3a
 15619 01ad 0B       		.uleb128 0xb
 15620 01ae 3B       		.uleb128 0x3b
 15621 01af 05       		.uleb128 0x5
 15622 01b0 49       		.uleb128 0x49
 15623 01b1 13       		.uleb128 0x13
 15624 01b2 38       		.uleb128 0x38
 15625 01b3 0B       		.uleb128 0xb
 15626 01b4 00       		.byte	0
 15627 01b5 00       		.byte	0
 15628 01b6 25       		.uleb128 0x25
 15629 01b7 13       		.uleb128 0x13
 15630 01b8 01       		.byte	0x1
 15631 01b9 0B       		.uleb128 0xb
 15632 01ba 05       		.uleb128 0x5
 15633 01bb 3A       		.uleb128 0x3a
 15634 01bc 0B       		.uleb128 0xb
 15635 01bd 3B       		.uleb128 0x3b
 15636 01be 05       		.uleb128 0x5
 15637 01bf 01       		.uleb128 0x1
 15638 01c0 13       		.uleb128 0x13
 15639 01c1 00       		.byte	0
 15640 01c2 00       		.byte	0
 15641 01c3 26       		.uleb128 0x26
 15642 01c4 0D       		.uleb128 0xd
 15643 01c5 00       		.byte	0
 15644 01c6 03       		.uleb128 0x3
 15645 01c7 08       		.uleb128 0x8
 15646 01c8 3A       		.uleb128 0x3a
 15647 01c9 0B       		.uleb128 0xb
 15648 01ca 3B       		.uleb128 0x3b
 15649 01cb 05       		.uleb128 0x5
 15650 01cc 49       		.uleb128 0x49
 15651 01cd 13       		.uleb128 0x13
 15652 01ce 38       		.uleb128 0x38
 15653 01cf 05       		.uleb128 0x5
 15654 01d0 00       		.byte	0
 15655 01d1 00       		.byte	0
 15656 01d2 27       		.uleb128 0x27
 15657 01d3 34       		.uleb128 0x34
 15658 01d4 00       		.byte	0
 15659 01d5 03       		.uleb128 0x3
 15660 01d6 08       		.uleb128 0x8
 15661 01d7 3A       		.uleb128 0x3a
 15662 01d8 0B       		.uleb128 0xb
 15663 01d9 3B       		.uleb128 0x3b
 15664 01da 05       		.uleb128 0x5
 15665 01db 49       		.uleb128 0x49
 15666 01dc 13       		.uleb128 0x13
ARM GAS  /tmp/cccFXynL.s 			page 277


 15667 01dd 3F       		.uleb128 0x3f
 15668 01de 19       		.uleb128 0x19
 15669 01df 3C       		.uleb128 0x3c
 15670 01e0 19       		.uleb128 0x19
 15671 01e1 00       		.byte	0
 15672 01e2 00       		.byte	0
 15673 01e3 28       		.uleb128 0x28
 15674 01e4 0D       		.uleb128 0xd
 15675 01e5 00       		.byte	0
 15676 01e6 03       		.uleb128 0x3
 15677 01e7 08       		.uleb128 0x8
 15678 01e8 3A       		.uleb128 0x3a
 15679 01e9 0B       		.uleb128 0xb
 15680 01ea 3B       		.uleb128 0x3b
 15681 01eb 0B       		.uleb128 0xb
 15682 01ec 49       		.uleb128 0x49
 15683 01ed 13       		.uleb128 0x13
 15684 01ee 00       		.byte	0
 15685 01ef 00       		.byte	0
 15686 01f0 29       		.uleb128 0x29
 15687 01f1 04       		.uleb128 0x4
 15688 01f2 01       		.byte	0x1
 15689 01f3 3E       		.uleb128 0x3e
 15690 01f4 0B       		.uleb128 0xb
 15691 01f5 0B       		.uleb128 0xb
 15692 01f6 0B       		.uleb128 0xb
 15693 01f7 49       		.uleb128 0x49
 15694 01f8 13       		.uleb128 0x13
 15695 01f9 3A       		.uleb128 0x3a
 15696 01fa 0B       		.uleb128 0xb
 15697 01fb 3B       		.uleb128 0x3b
 15698 01fc 0B       		.uleb128 0xb
 15699 01fd 01       		.uleb128 0x1
 15700 01fe 13       		.uleb128 0x13
 15701 01ff 00       		.byte	0
 15702 0200 00       		.byte	0
 15703 0201 2A       		.uleb128 0x2a
 15704 0202 28       		.uleb128 0x28
 15705 0203 00       		.byte	0
 15706 0204 03       		.uleb128 0x3
 15707 0205 0E       		.uleb128 0xe
 15708 0206 1C       		.uleb128 0x1c
 15709 0207 0B       		.uleb128 0xb
 15710 0208 00       		.byte	0
 15711 0209 00       		.byte	0
 15712 020a 2B       		.uleb128 0x2b
 15713 020b 04       		.uleb128 0x4
 15714 020c 01       		.byte	0x1
 15715 020d 3E       		.uleb128 0x3e
 15716 020e 0B       		.uleb128 0xb
 15717 020f 0B       		.uleb128 0xb
 15718 0210 0B       		.uleb128 0xb
 15719 0211 49       		.uleb128 0x49
 15720 0212 13       		.uleb128 0x13
 15721 0213 3A       		.uleb128 0x3a
 15722 0214 0B       		.uleb128 0xb
 15723 0215 3B       		.uleb128 0x3b
ARM GAS  /tmp/cccFXynL.s 			page 278


 15724 0216 05       		.uleb128 0x5
 15725 0217 01       		.uleb128 0x1
 15726 0218 13       		.uleb128 0x13
 15727 0219 00       		.byte	0
 15728 021a 00       		.byte	0
 15729 021b 2C       		.uleb128 0x2c
 15730 021c 13       		.uleb128 0x13
 15731 021d 01       		.byte	0x1
 15732 021e 0B       		.uleb128 0xb
 15733 021f 06       		.uleb128 0x6
 15734 0220 3A       		.uleb128 0x3a
 15735 0221 0B       		.uleb128 0xb
 15736 0222 3B       		.uleb128 0x3b
 15737 0223 0B       		.uleb128 0xb
 15738 0224 01       		.uleb128 0x1
 15739 0225 13       		.uleb128 0x13
 15740 0226 00       		.byte	0
 15741 0227 00       		.byte	0
 15742 0228 2D       		.uleb128 0x2d
 15743 0229 0D       		.uleb128 0xd
 15744 022a 00       		.byte	0
 15745 022b 03       		.uleb128 0x3
 15746 022c 08       		.uleb128 0x8
 15747 022d 3A       		.uleb128 0x3a
 15748 022e 0B       		.uleb128 0xb
 15749 022f 3B       		.uleb128 0x3b
 15750 0230 0B       		.uleb128 0xb
 15751 0231 49       		.uleb128 0x49
 15752 0232 13       		.uleb128 0x13
 15753 0233 38       		.uleb128 0x38
 15754 0234 05       		.uleb128 0x5
 15755 0235 00       		.byte	0
 15756 0236 00       		.byte	0
 15757 0237 2E       		.uleb128 0x2e
 15758 0238 21       		.uleb128 0x21
 15759 0239 00       		.byte	0
 15760 023a 49       		.uleb128 0x49
 15761 023b 13       		.uleb128 0x13
 15762 023c 2F       		.uleb128 0x2f
 15763 023d 05       		.uleb128 0x5
 15764 023e 00       		.byte	0
 15765 023f 00       		.byte	0
 15766 0240 2F       		.uleb128 0x2f
 15767 0241 21       		.uleb128 0x21
 15768 0242 00       		.byte	0
 15769 0243 00       		.byte	0
 15770 0244 00       		.byte	0
 15771 0245 30       		.uleb128 0x30
 15772 0246 0D       		.uleb128 0xd
 15773 0247 00       		.byte	0
 15774 0248 49       		.uleb128 0x49
 15775 0249 13       		.uleb128 0x13
 15776 024a 38       		.uleb128 0x38
 15777 024b 0B       		.uleb128 0xb
 15778 024c 00       		.byte	0
 15779 024d 00       		.byte	0
 15780 024e 31       		.uleb128 0x31
ARM GAS  /tmp/cccFXynL.s 			page 279


 15781 024f 04       		.uleb128 0x4
 15782 0250 01       		.byte	0x1
 15783 0251 03       		.uleb128 0x3
 15784 0252 0E       		.uleb128 0xe
 15785 0253 3E       		.uleb128 0x3e
 15786 0254 0B       		.uleb128 0xb
 15787 0255 0B       		.uleb128 0xb
 15788 0256 0B       		.uleb128 0xb
 15789 0257 49       		.uleb128 0x49
 15790 0258 13       		.uleb128 0x13
 15791 0259 3A       		.uleb128 0x3a
 15792 025a 0B       		.uleb128 0xb
 15793 025b 3B       		.uleb128 0x3b
 15794 025c 0B       		.uleb128 0xb
 15795 025d 01       		.uleb128 0x1
 15796 025e 13       		.uleb128 0x13
 15797 025f 00       		.byte	0
 15798 0260 00       		.byte	0
 15799 0261 32       		.uleb128 0x32
 15800 0262 28       		.uleb128 0x28
 15801 0263 00       		.byte	0
 15802 0264 03       		.uleb128 0x3
 15803 0265 0E       		.uleb128 0xe
 15804 0266 1C       		.uleb128 0x1c
 15805 0267 05       		.uleb128 0x5
 15806 0268 00       		.byte	0
 15807 0269 00       		.byte	0
 15808 026a 33       		.uleb128 0x33
 15809 026b 34       		.uleb128 0x34
 15810 026c 00       		.byte	0
 15811 026d 03       		.uleb128 0x3
 15812 026e 0E       		.uleb128 0xe
 15813 026f 3A       		.uleb128 0x3a
 15814 0270 0B       		.uleb128 0xb
 15815 0271 3B       		.uleb128 0x3b
 15816 0272 0B       		.uleb128 0xb
 15817 0273 49       		.uleb128 0x49
 15818 0274 13       		.uleb128 0x13
 15819 0275 02       		.uleb128 0x2
 15820 0276 18       		.uleb128 0x18
 15821 0277 00       		.byte	0
 15822 0278 00       		.byte	0
 15823 0279 34       		.uleb128 0x34
 15824 027a 34       		.uleb128 0x34
 15825 027b 00       		.byte	0
 15826 027c 03       		.uleb128 0x3
 15827 027d 0E       		.uleb128 0xe
 15828 027e 3A       		.uleb128 0x3a
 15829 027f 0B       		.uleb128 0xb
 15830 0280 3B       		.uleb128 0x3b
 15831 0281 0B       		.uleb128 0xb
 15832 0282 49       		.uleb128 0x49
 15833 0283 13       		.uleb128 0x13
 15834 0284 3F       		.uleb128 0x3f
 15835 0285 19       		.uleb128 0x19
 15836 0286 02       		.uleb128 0x2
 15837 0287 18       		.uleb128 0x18
ARM GAS  /tmp/cccFXynL.s 			page 280


 15838 0288 00       		.byte	0
 15839 0289 00       		.byte	0
 15840 028a 35       		.uleb128 0x35
 15841 028b 2E       		.uleb128 0x2e
 15842 028c 01       		.byte	0x1
 15843 028d 03       		.uleb128 0x3
 15844 028e 0E       		.uleb128 0xe
 15845 028f 3A       		.uleb128 0x3a
 15846 0290 0B       		.uleb128 0xb
 15847 0291 3B       		.uleb128 0x3b
 15848 0292 05       		.uleb128 0x5
 15849 0293 27       		.uleb128 0x27
 15850 0294 19       		.uleb128 0x19
 15851 0295 49       		.uleb128 0x49
 15852 0296 13       		.uleb128 0x13
 15853 0297 20       		.uleb128 0x20
 15854 0298 0B       		.uleb128 0xb
 15855 0299 01       		.uleb128 0x1
 15856 029a 13       		.uleb128 0x13
 15857 029b 00       		.byte	0
 15858 029c 00       		.byte	0
 15859 029d 36       		.uleb128 0x36
 15860 029e 05       		.uleb128 0x5
 15861 029f 00       		.byte	0
 15862 02a0 03       		.uleb128 0x3
 15863 02a1 08       		.uleb128 0x8
 15864 02a2 3A       		.uleb128 0x3a
 15865 02a3 0B       		.uleb128 0xb
 15866 02a4 3B       		.uleb128 0x3b
 15867 02a5 05       		.uleb128 0x5
 15868 02a6 49       		.uleb128 0x49
 15869 02a7 13       		.uleb128 0x13
 15870 02a8 00       		.byte	0
 15871 02a9 00       		.byte	0
 15872 02aa 37       		.uleb128 0x37
 15873 02ab 34       		.uleb128 0x34
 15874 02ac 00       		.byte	0
 15875 02ad 03       		.uleb128 0x3
 15876 02ae 0E       		.uleb128 0xe
 15877 02af 3A       		.uleb128 0x3a
 15878 02b0 0B       		.uleb128 0xb
 15879 02b1 3B       		.uleb128 0x3b
 15880 02b2 05       		.uleb128 0x5
 15881 02b3 49       		.uleb128 0x49
 15882 02b4 13       		.uleb128 0x13
 15883 02b5 00       		.byte	0
 15884 02b6 00       		.byte	0
 15885 02b7 38       		.uleb128 0x38
 15886 02b8 34       		.uleb128 0x34
 15887 02b9 00       		.byte	0
 15888 02ba 03       		.uleb128 0x3
 15889 02bb 08       		.uleb128 0x8
 15890 02bc 3A       		.uleb128 0x3a
 15891 02bd 0B       		.uleb128 0xb
 15892 02be 3B       		.uleb128 0x3b
 15893 02bf 05       		.uleb128 0x5
 15894 02c0 49       		.uleb128 0x49
ARM GAS  /tmp/cccFXynL.s 			page 281


 15895 02c1 13       		.uleb128 0x13
 15896 02c2 00       		.byte	0
 15897 02c3 00       		.byte	0
 15898 02c4 39       		.uleb128 0x39
 15899 02c5 0B       		.uleb128 0xb
 15900 02c6 01       		.byte	0x1
 15901 02c7 00       		.byte	0
 15902 02c8 00       		.byte	0
 15903 02c9 3A       		.uleb128 0x3a
 15904 02ca 21       		.uleb128 0x21
 15905 02cb 00       		.byte	0
 15906 02cc 49       		.uleb128 0x49
 15907 02cd 13       		.uleb128 0x13
 15908 02ce 00       		.byte	0
 15909 02cf 00       		.byte	0
 15910 02d0 3B       		.uleb128 0x3b
 15911 02d1 2E       		.uleb128 0x2e
 15912 02d2 01       		.byte	0x1
 15913 02d3 03       		.uleb128 0x3
 15914 02d4 0E       		.uleb128 0xe
 15915 02d5 3A       		.uleb128 0x3a
 15916 02d6 0B       		.uleb128 0xb
 15917 02d7 3B       		.uleb128 0x3b
 15918 02d8 05       		.uleb128 0x5
 15919 02d9 27       		.uleb128 0x27
 15920 02da 19       		.uleb128 0x19
 15921 02db 49       		.uleb128 0x49
 15922 02dc 13       		.uleb128 0x13
 15923 02dd 11       		.uleb128 0x11
 15924 02de 01       		.uleb128 0x1
 15925 02df 12       		.uleb128 0x12
 15926 02e0 06       		.uleb128 0x6
 15927 02e1 40       		.uleb128 0x40
 15928 02e2 18       		.uleb128 0x18
 15929 02e3 9742     		.uleb128 0x2117
 15930 02e5 19       		.uleb128 0x19
 15931 02e6 01       		.uleb128 0x1
 15932 02e7 13       		.uleb128 0x13
 15933 02e8 00       		.byte	0
 15934 02e9 00       		.byte	0
 15935 02ea 3C       		.uleb128 0x3c
 15936 02eb 05       		.uleb128 0x5
 15937 02ec 00       		.byte	0
 15938 02ed 03       		.uleb128 0x3
 15939 02ee 08       		.uleb128 0x8
 15940 02ef 3A       		.uleb128 0x3a
 15941 02f0 0B       		.uleb128 0xb
 15942 02f1 3B       		.uleb128 0x3b
 15943 02f2 05       		.uleb128 0x5
 15944 02f3 49       		.uleb128 0x49
 15945 02f4 13       		.uleb128 0x13
 15946 02f5 02       		.uleb128 0x2
 15947 02f6 17       		.uleb128 0x17
 15948 02f7 00       		.byte	0
 15949 02f8 00       		.byte	0
 15950 02f9 3D       		.uleb128 0x3d
 15951 02fa 05       		.uleb128 0x5
ARM GAS  /tmp/cccFXynL.s 			page 282


 15952 02fb 00       		.byte	0
 15953 02fc 03       		.uleb128 0x3
 15954 02fd 0E       		.uleb128 0xe
 15955 02fe 3A       		.uleb128 0x3a
 15956 02ff 0B       		.uleb128 0xb
 15957 0300 3B       		.uleb128 0x3b
 15958 0301 05       		.uleb128 0x5
 15959 0302 49       		.uleb128 0x49
 15960 0303 13       		.uleb128 0x13
 15961 0304 02       		.uleb128 0x2
 15962 0305 17       		.uleb128 0x17
 15963 0306 00       		.byte	0
 15964 0307 00       		.byte	0
 15965 0308 3E       		.uleb128 0x3e
 15966 0309 34       		.uleb128 0x34
 15967 030a 00       		.byte	0
 15968 030b 03       		.uleb128 0x3
 15969 030c 0E       		.uleb128 0xe
 15970 030d 3A       		.uleb128 0x3a
 15971 030e 0B       		.uleb128 0xb
 15972 030f 3B       		.uleb128 0x3b
 15973 0310 05       		.uleb128 0x5
 15974 0311 49       		.uleb128 0x49
 15975 0312 13       		.uleb128 0x13
 15976 0313 02       		.uleb128 0x2
 15977 0314 18       		.uleb128 0x18
 15978 0315 00       		.byte	0
 15979 0316 00       		.byte	0
 15980 0317 3F       		.uleb128 0x3f
 15981 0318 34       		.uleb128 0x34
 15982 0319 00       		.byte	0
 15983 031a 03       		.uleb128 0x3
 15984 031b 08       		.uleb128 0x8
 15985 031c 3A       		.uleb128 0x3a
 15986 031d 0B       		.uleb128 0xb
 15987 031e 3B       		.uleb128 0x3b
 15988 031f 05       		.uleb128 0x5
 15989 0320 49       		.uleb128 0x49
 15990 0321 13       		.uleb128 0x13
 15991 0322 02       		.uleb128 0x2
 15992 0323 17       		.uleb128 0x17
 15993 0324 00       		.byte	0
 15994 0325 00       		.byte	0
 15995 0326 40       		.uleb128 0x40
 15996 0327 0B       		.uleb128 0xb
 15997 0328 01       		.byte	0x1
 15998 0329 11       		.uleb128 0x11
 15999 032a 01       		.uleb128 0x1
 16000 032b 12       		.uleb128 0x12
 16001 032c 06       		.uleb128 0x6
 16002 032d 01       		.uleb128 0x1
 16003 032e 13       		.uleb128 0x13
 16004 032f 00       		.byte	0
 16005 0330 00       		.byte	0
 16006 0331 41       		.uleb128 0x41
 16007 0332 34       		.uleb128 0x34
 16008 0333 00       		.byte	0
ARM GAS  /tmp/cccFXynL.s 			page 283


 16009 0334 03       		.uleb128 0x3
 16010 0335 08       		.uleb128 0x8
 16011 0336 3A       		.uleb128 0x3a
 16012 0337 0B       		.uleb128 0xb
 16013 0338 3B       		.uleb128 0x3b
 16014 0339 05       		.uleb128 0x5
 16015 033a 49       		.uleb128 0x49
 16016 033b 13       		.uleb128 0x13
 16017 033c 02       		.uleb128 0x2
 16018 033d 18       		.uleb128 0x18
 16019 033e 00       		.byte	0
 16020 033f 00       		.byte	0
 16021 0340 42       		.uleb128 0x42
 16022 0341 898201   		.uleb128 0x4109
 16023 0344 00       		.byte	0
 16024 0345 11       		.uleb128 0x11
 16025 0346 01       		.uleb128 0x1
 16026 0347 31       		.uleb128 0x31
 16027 0348 13       		.uleb128 0x13
 16028 0349 00       		.byte	0
 16029 034a 00       		.byte	0
 16030 034b 43       		.uleb128 0x43
 16031 034c 898201   		.uleb128 0x4109
 16032 034f 01       		.byte	0x1
 16033 0350 11       		.uleb128 0x11
 16034 0351 01       		.uleb128 0x1
 16035 0352 31       		.uleb128 0x31
 16036 0353 13       		.uleb128 0x13
 16037 0354 00       		.byte	0
 16038 0355 00       		.byte	0
 16039 0356 44       		.uleb128 0x44
 16040 0357 8A8201   		.uleb128 0x410a
 16041 035a 00       		.byte	0
 16042 035b 02       		.uleb128 0x2
 16043 035c 18       		.uleb128 0x18
 16044 035d 9142     		.uleb128 0x2111
 16045 035f 18       		.uleb128 0x18
 16046 0360 00       		.byte	0
 16047 0361 00       		.byte	0
 16048 0362 45       		.uleb128 0x45
 16049 0363 898201   		.uleb128 0x4109
 16050 0366 01       		.byte	0x1
 16051 0367 11       		.uleb128 0x11
 16052 0368 01       		.uleb128 0x1
 16053 0369 31       		.uleb128 0x31
 16054 036a 13       		.uleb128 0x13
 16055 036b 01       		.uleb128 0x1
 16056 036c 13       		.uleb128 0x13
 16057 036d 00       		.byte	0
 16058 036e 00       		.byte	0
 16059 036f 46       		.uleb128 0x46
 16060 0370 34       		.uleb128 0x34
 16061 0371 00       		.byte	0
 16062 0372 03       		.uleb128 0x3
 16063 0373 0E       		.uleb128 0xe
 16064 0374 3A       		.uleb128 0x3a
 16065 0375 0B       		.uleb128 0xb
ARM GAS  /tmp/cccFXynL.s 			page 284


 16066 0376 3B       		.uleb128 0x3b
 16067 0377 05       		.uleb128 0x5
 16068 0378 49       		.uleb128 0x49
 16069 0379 13       		.uleb128 0x13
 16070 037a 02       		.uleb128 0x2
 16071 037b 17       		.uleb128 0x17
 16072 037c 00       		.byte	0
 16073 037d 00       		.byte	0
 16074 037e 47       		.uleb128 0x47
 16075 037f 1D       		.uleb128 0x1d
 16076 0380 01       		.byte	0x1
 16077 0381 31       		.uleb128 0x31
 16078 0382 13       		.uleb128 0x13
 16079 0383 52       		.uleb128 0x52
 16080 0384 01       		.uleb128 0x1
 16081 0385 55       		.uleb128 0x55
 16082 0386 17       		.uleb128 0x17
 16083 0387 58       		.uleb128 0x58
 16084 0388 0B       		.uleb128 0xb
 16085 0389 59       		.uleb128 0x59
 16086 038a 05       		.uleb128 0x5
 16087 038b 01       		.uleb128 0x1
 16088 038c 13       		.uleb128 0x13
 16089 038d 00       		.byte	0
 16090 038e 00       		.byte	0
 16091 038f 48       		.uleb128 0x48
 16092 0390 05       		.uleb128 0x5
 16093 0391 00       		.byte	0
 16094 0392 31       		.uleb128 0x31
 16095 0393 13       		.uleb128 0x13
 16096 0394 02       		.uleb128 0x2
 16097 0395 17       		.uleb128 0x17
 16098 0396 00       		.byte	0
 16099 0397 00       		.byte	0
 16100 0398 49       		.uleb128 0x49
 16101 0399 0B       		.uleb128 0xb
 16102 039a 01       		.byte	0x1
 16103 039b 55       		.uleb128 0x55
 16104 039c 17       		.uleb128 0x17
 16105 039d 00       		.byte	0
 16106 039e 00       		.byte	0
 16107 039f 4A       		.uleb128 0x4a
 16108 03a0 34       		.uleb128 0x34
 16109 03a1 00       		.byte	0
 16110 03a2 31       		.uleb128 0x31
 16111 03a3 13       		.uleb128 0x13
 16112 03a4 02       		.uleb128 0x2
 16113 03a5 17       		.uleb128 0x17
 16114 03a6 00       		.byte	0
 16115 03a7 00       		.byte	0
 16116 03a8 4B       		.uleb128 0x4b
 16117 03a9 05       		.uleb128 0x5
 16118 03aa 00       		.byte	0
 16119 03ab 03       		.uleb128 0x3
 16120 03ac 0E       		.uleb128 0xe
 16121 03ad 3A       		.uleb128 0x3a
 16122 03ae 0B       		.uleb128 0xb
ARM GAS  /tmp/cccFXynL.s 			page 285


 16123 03af 3B       		.uleb128 0x3b
 16124 03b0 05       		.uleb128 0x5
 16125 03b1 49       		.uleb128 0x49
 16126 03b2 13       		.uleb128 0x13
 16127 03b3 00       		.byte	0
 16128 03b4 00       		.byte	0
 16129 03b5 4C       		.uleb128 0x4c
 16130 03b6 2E       		.uleb128 0x2e
 16131 03b7 01       		.byte	0x1
 16132 03b8 3F       		.uleb128 0x3f
 16133 03b9 19       		.uleb128 0x19
 16134 03ba 03       		.uleb128 0x3
 16135 03bb 0E       		.uleb128 0xe
 16136 03bc 3A       		.uleb128 0x3a
 16137 03bd 0B       		.uleb128 0xb
 16138 03be 3B       		.uleb128 0x3b
 16139 03bf 05       		.uleb128 0x5
 16140 03c0 27       		.uleb128 0x27
 16141 03c1 19       		.uleb128 0x19
 16142 03c2 49       		.uleb128 0x49
 16143 03c3 13       		.uleb128 0x13
 16144 03c4 11       		.uleb128 0x11
 16145 03c5 01       		.uleb128 0x1
 16146 03c6 12       		.uleb128 0x12
 16147 03c7 06       		.uleb128 0x6
 16148 03c8 40       		.uleb128 0x40
 16149 03c9 18       		.uleb128 0x18
 16150 03ca 9742     		.uleb128 0x2117
 16151 03cc 19       		.uleb128 0x19
 16152 03cd 01       		.uleb128 0x1
 16153 03ce 13       		.uleb128 0x13
 16154 03cf 00       		.byte	0
 16155 03d0 00       		.byte	0
 16156 03d1 4D       		.uleb128 0x4d
 16157 03d2 05       		.uleb128 0x5
 16158 03d3 00       		.byte	0
 16159 03d4 03       		.uleb128 0x3
 16160 03d5 08       		.uleb128 0x8
 16161 03d6 3A       		.uleb128 0x3a
 16162 03d7 0B       		.uleb128 0xb
 16163 03d8 3B       		.uleb128 0x3b
 16164 03d9 05       		.uleb128 0x5
 16165 03da 49       		.uleb128 0x49
 16166 03db 13       		.uleb128 0x13
 16167 03dc 02       		.uleb128 0x2
 16168 03dd 18       		.uleb128 0x18
 16169 03de 00       		.byte	0
 16170 03df 00       		.byte	0
 16171 03e0 4E       		.uleb128 0x4e
 16172 03e1 34       		.uleb128 0x34
 16173 03e2 00       		.byte	0
 16174 03e3 49       		.uleb128 0x49
 16175 03e4 13       		.uleb128 0x13
 16176 03e5 34       		.uleb128 0x34
 16177 03e6 19       		.uleb128 0x19
 16178 03e7 02       		.uleb128 0x2
 16179 03e8 17       		.uleb128 0x17
ARM GAS  /tmp/cccFXynL.s 			page 286


 16180 03e9 00       		.byte	0
 16181 03ea 00       		.byte	0
 16182 03eb 4F       		.uleb128 0x4f
 16183 03ec 21       		.uleb128 0x21
 16184 03ed 00       		.byte	0
 16185 03ee 49       		.uleb128 0x49
 16186 03ef 13       		.uleb128 0x13
 16187 03f0 2F       		.uleb128 0x2f
 16188 03f1 13       		.uleb128 0x13
 16189 03f2 00       		.byte	0
 16190 03f3 00       		.byte	0
 16191 03f4 50       		.uleb128 0x50
 16192 03f5 2E       		.uleb128 0x2e
 16193 03f6 01       		.byte	0x1
 16194 03f7 3F       		.uleb128 0x3f
 16195 03f8 19       		.uleb128 0x19
 16196 03f9 03       		.uleb128 0x3
 16197 03fa 0E       		.uleb128 0xe
 16198 03fb 3A       		.uleb128 0x3a
 16199 03fc 0B       		.uleb128 0xb
 16200 03fd 3B       		.uleb128 0x3b
 16201 03fe 05       		.uleb128 0x5
 16202 03ff 27       		.uleb128 0x27
 16203 0400 19       		.uleb128 0x19
 16204 0401 11       		.uleb128 0x11
 16205 0402 01       		.uleb128 0x1
 16206 0403 12       		.uleb128 0x12
 16207 0404 06       		.uleb128 0x6
 16208 0405 40       		.uleb128 0x40
 16209 0406 18       		.uleb128 0x18
 16210 0407 9742     		.uleb128 0x2117
 16211 0409 19       		.uleb128 0x19
 16212 040a 01       		.uleb128 0x1
 16213 040b 13       		.uleb128 0x13
 16214 040c 00       		.byte	0
 16215 040d 00       		.byte	0
 16216 040e 51       		.uleb128 0x51
 16217 040f 1D       		.uleb128 0x1d
 16218 0410 01       		.byte	0x1
 16219 0411 31       		.uleb128 0x31
 16220 0412 13       		.uleb128 0x13
 16221 0413 11       		.uleb128 0x11
 16222 0414 01       		.uleb128 0x1
 16223 0415 12       		.uleb128 0x12
 16224 0416 06       		.uleb128 0x6
 16225 0417 58       		.uleb128 0x58
 16226 0418 0B       		.uleb128 0xb
 16227 0419 59       		.uleb128 0x59
 16228 041a 05       		.uleb128 0x5
 16229 041b 01       		.uleb128 0x1
 16230 041c 13       		.uleb128 0x13
 16231 041d 00       		.byte	0
 16232 041e 00       		.byte	0
 16233 041f 52       		.uleb128 0x52
 16234 0420 05       		.uleb128 0x5
 16235 0421 00       		.byte	0
 16236 0422 31       		.uleb128 0x31
ARM GAS  /tmp/cccFXynL.s 			page 287


 16237 0423 13       		.uleb128 0x13
 16238 0424 02       		.uleb128 0x2
 16239 0425 18       		.uleb128 0x18
 16240 0426 00       		.byte	0
 16241 0427 00       		.byte	0
 16242 0428 53       		.uleb128 0x53
 16243 0429 898201   		.uleb128 0x4109
 16244 042c 01       		.byte	0x1
 16245 042d 11       		.uleb128 0x11
 16246 042e 01       		.uleb128 0x1
 16247 042f 9542     		.uleb128 0x2115
 16248 0431 19       		.uleb128 0x19
 16249 0432 31       		.uleb128 0x31
 16250 0433 13       		.uleb128 0x13
 16251 0434 00       		.byte	0
 16252 0435 00       		.byte	0
 16253 0436 54       		.uleb128 0x54
 16254 0437 0B       		.uleb128 0xb
 16255 0438 01       		.byte	0x1
 16256 0439 55       		.uleb128 0x55
 16257 043a 17       		.uleb128 0x17
 16258 043b 01       		.uleb128 0x1
 16259 043c 13       		.uleb128 0x13
 16260 043d 00       		.byte	0
 16261 043e 00       		.byte	0
 16262 043f 55       		.uleb128 0x55
 16263 0440 34       		.uleb128 0x34
 16264 0441 00       		.byte	0
 16265 0442 31       		.uleb128 0x31
 16266 0443 13       		.uleb128 0x13
 16267 0444 49       		.uleb128 0x49
 16268 0445 13       		.uleb128 0x13
 16269 0446 02       		.uleb128 0x2
 16270 0447 17       		.uleb128 0x17
 16271 0448 00       		.byte	0
 16272 0449 00       		.byte	0
 16273 044a 56       		.uleb128 0x56
 16274 044b 34       		.uleb128 0x34
 16275 044c 00       		.byte	0
 16276 044d 31       		.uleb128 0x31
 16277 044e 13       		.uleb128 0x13
 16278 044f 02       		.uleb128 0x2
 16279 0450 18       		.uleb128 0x18
 16280 0451 00       		.byte	0
 16281 0452 00       		.byte	0
 16282 0453 57       		.uleb128 0x57
 16283 0454 0B       		.uleb128 0xb
 16284 0455 01       		.byte	0x1
 16285 0456 31       		.uleb128 0x31
 16286 0457 13       		.uleb128 0x13
 16287 0458 55       		.uleb128 0x55
 16288 0459 17       		.uleb128 0x17
 16289 045a 01       		.uleb128 0x1
 16290 045b 13       		.uleb128 0x13
 16291 045c 00       		.byte	0
 16292 045d 00       		.byte	0
 16293 045e 58       		.uleb128 0x58
ARM GAS  /tmp/cccFXynL.s 			page 288


 16294 045f 34       		.uleb128 0x34
 16295 0460 00       		.byte	0
 16296 0461 34       		.uleb128 0x34
 16297 0462 19       		.uleb128 0x19
 16298 0463 49       		.uleb128 0x49
 16299 0464 13       		.uleb128 0x13
 16300 0465 02       		.uleb128 0x2
 16301 0466 17       		.uleb128 0x17
 16302 0467 00       		.byte	0
 16303 0468 00       		.byte	0
 16304 0469 59       		.uleb128 0x59
 16305 046a 898201   		.uleb128 0x4109
 16306 046d 01       		.byte	0x1
 16307 046e 11       		.uleb128 0x11
 16308 046f 01       		.uleb128 0x1
 16309 0470 01       		.uleb128 0x1
 16310 0471 13       		.uleb128 0x13
 16311 0472 00       		.byte	0
 16312 0473 00       		.byte	0
 16313 0474 5A       		.uleb128 0x5a
 16314 0475 898201   		.uleb128 0x4109
 16315 0478 01       		.byte	0x1
 16316 0479 11       		.uleb128 0x11
 16317 047a 01       		.uleb128 0x1
 16318 047b 9542     		.uleb128 0x2115
 16319 047d 19       		.uleb128 0x19
 16320 047e 31       		.uleb128 0x31
 16321 047f 13       		.uleb128 0x13
 16322 0480 01       		.uleb128 0x1
 16323 0481 13       		.uleb128 0x13
 16324 0482 00       		.byte	0
 16325 0483 00       		.byte	0
 16326 0484 5B       		.uleb128 0x5b
 16327 0485 2E       		.uleb128 0x2e
 16328 0486 01       		.byte	0x1
 16329 0487 03       		.uleb128 0x3
 16330 0488 0E       		.uleb128 0xe
 16331 0489 3A       		.uleb128 0x3a
 16332 048a 0B       		.uleb128 0xb
 16333 048b 3B       		.uleb128 0x3b
 16334 048c 05       		.uleb128 0x5
 16335 048d 27       		.uleb128 0x27
 16336 048e 19       		.uleb128 0x19
 16337 048f 20       		.uleb128 0x20
 16338 0490 0B       		.uleb128 0xb
 16339 0491 01       		.uleb128 0x1
 16340 0492 13       		.uleb128 0x13
 16341 0493 00       		.byte	0
 16342 0494 00       		.byte	0
 16343 0495 5C       		.uleb128 0x5c
 16344 0496 05       		.uleb128 0x5
 16345 0497 00       		.byte	0
 16346 0498 03       		.uleb128 0x3
 16347 0499 0E       		.uleb128 0xe
 16348 049a 3A       		.uleb128 0x3a
 16349 049b 0B       		.uleb128 0xb
 16350 049c 3B       		.uleb128 0x3b
ARM GAS  /tmp/cccFXynL.s 			page 289


 16351 049d 05       		.uleb128 0x5
 16352 049e 49       		.uleb128 0x49
 16353 049f 13       		.uleb128 0x13
 16354 04a0 02       		.uleb128 0x2
 16355 04a1 18       		.uleb128 0x18
 16356 04a2 00       		.byte	0
 16357 04a3 00       		.byte	0
 16358 04a4 5D       		.uleb128 0x5d
 16359 04a5 05       		.uleb128 0x5
 16360 04a6 00       		.byte	0
 16361 04a7 31       		.uleb128 0x31
 16362 04a8 13       		.uleb128 0x13
 16363 04a9 00       		.byte	0
 16364 04aa 00       		.byte	0
 16365 04ab 5E       		.uleb128 0x5e
 16366 04ac 8A8201   		.uleb128 0x410a
 16367 04af 00       		.byte	0
 16368 04b0 31       		.uleb128 0x31
 16369 04b1 13       		.uleb128 0x13
 16370 04b2 9142     		.uleb128 0x2111
 16371 04b4 18       		.uleb128 0x18
 16372 04b5 00       		.byte	0
 16373 04b6 00       		.byte	0
 16374 04b7 5F       		.uleb128 0x5f
 16375 04b8 2E       		.uleb128 0x2e
 16376 04b9 01       		.byte	0x1
 16377 04ba 03       		.uleb128 0x3
 16378 04bb 0E       		.uleb128 0xe
 16379 04bc 3A       		.uleb128 0x3a
 16380 04bd 0B       		.uleb128 0xb
 16381 04be 3B       		.uleb128 0x3b
 16382 04bf 05       		.uleb128 0x5
 16383 04c0 27       		.uleb128 0x27
 16384 04c1 19       		.uleb128 0x19
 16385 04c2 11       		.uleb128 0x11
 16386 04c3 01       		.uleb128 0x1
 16387 04c4 12       		.uleb128 0x12
 16388 04c5 06       		.uleb128 0x6
 16389 04c6 40       		.uleb128 0x40
 16390 04c7 18       		.uleb128 0x18
 16391 04c8 9742     		.uleb128 0x2117
 16392 04ca 19       		.uleb128 0x19
 16393 04cb 01       		.uleb128 0x1
 16394 04cc 13       		.uleb128 0x13
 16395 04cd 00       		.byte	0
 16396 04ce 00       		.byte	0
 16397 04cf 60       		.uleb128 0x60
 16398 04d0 898201   		.uleb128 0x4109
 16399 04d3 01       		.byte	0x1
 16400 04d4 11       		.uleb128 0x11
 16401 04d5 01       		.uleb128 0x1
 16402 04d6 9342     		.uleb128 0x2113
 16403 04d8 18       		.uleb128 0x18
 16404 04d9 00       		.byte	0
 16405 04da 00       		.byte	0
 16406 04db 61       		.uleb128 0x61
 16407 04dc 898201   		.uleb128 0x4109
ARM GAS  /tmp/cccFXynL.s 			page 290


 16408 04df 01       		.byte	0x1
 16409 04e0 11       		.uleb128 0x11
 16410 04e1 01       		.uleb128 0x1
 16411 04e2 00       		.byte	0
 16412 04e3 00       		.byte	0
 16413 04e4 62       		.uleb128 0x62
 16414 04e5 2E       		.uleb128 0x2e
 16415 04e6 01       		.byte	0x1
 16416 04e7 03       		.uleb128 0x3
 16417 04e8 0E       		.uleb128 0xe
 16418 04e9 3A       		.uleb128 0x3a
 16419 04ea 0B       		.uleb128 0xb
 16420 04eb 3B       		.uleb128 0x3b
 16421 04ec 0B       		.uleb128 0xb
 16422 04ed 27       		.uleb128 0x27
 16423 04ee 19       		.uleb128 0x19
 16424 04ef 49       		.uleb128 0x49
 16425 04f0 13       		.uleb128 0x13
 16426 04f1 11       		.uleb128 0x11
 16427 04f2 01       		.uleb128 0x1
 16428 04f3 12       		.uleb128 0x12
 16429 04f4 06       		.uleb128 0x6
 16430 04f5 40       		.uleb128 0x40
 16431 04f6 18       		.uleb128 0x18
 16432 04f7 9742     		.uleb128 0x2117
 16433 04f9 19       		.uleb128 0x19
 16434 04fa 01       		.uleb128 0x1
 16435 04fb 13       		.uleb128 0x13
 16436 04fc 00       		.byte	0
 16437 04fd 00       		.byte	0
 16438 04fe 63       		.uleb128 0x63
 16439 04ff 05       		.uleb128 0x5
 16440 0500 00       		.byte	0
 16441 0501 03       		.uleb128 0x3
 16442 0502 08       		.uleb128 0x8
 16443 0503 3A       		.uleb128 0x3a
 16444 0504 0B       		.uleb128 0xb
 16445 0505 3B       		.uleb128 0x3b
 16446 0506 0B       		.uleb128 0xb
 16447 0507 49       		.uleb128 0x49
 16448 0508 13       		.uleb128 0x13
 16449 0509 02       		.uleb128 0x2
 16450 050a 17       		.uleb128 0x17
 16451 050b 00       		.byte	0
 16452 050c 00       		.byte	0
 16453 050d 64       		.uleb128 0x64
 16454 050e 34       		.uleb128 0x34
 16455 050f 00       		.byte	0
 16456 0510 03       		.uleb128 0x3
 16457 0511 0E       		.uleb128 0xe
 16458 0512 3A       		.uleb128 0x3a
 16459 0513 0B       		.uleb128 0xb
 16460 0514 3B       		.uleb128 0x3b
 16461 0515 0B       		.uleb128 0xb
 16462 0516 49       		.uleb128 0x49
 16463 0517 13       		.uleb128 0x13
 16464 0518 02       		.uleb128 0x2
ARM GAS  /tmp/cccFXynL.s 			page 291


 16465 0519 17       		.uleb128 0x17
 16466 051a 00       		.byte	0
 16467 051b 00       		.byte	0
 16468 051c 65       		.uleb128 0x65
 16469 051d 2E       		.uleb128 0x2e
 16470 051e 01       		.byte	0x1
 16471 051f 03       		.uleb128 0x3
 16472 0520 0E       		.uleb128 0xe
 16473 0521 3A       		.uleb128 0x3a
 16474 0522 0B       		.uleb128 0xb
 16475 0523 3B       		.uleb128 0x3b
 16476 0524 0B       		.uleb128 0xb
 16477 0525 27       		.uleb128 0x27
 16478 0526 19       		.uleb128 0x19
 16479 0527 11       		.uleb128 0x11
 16480 0528 01       		.uleb128 0x1
 16481 0529 12       		.uleb128 0x12
 16482 052a 06       		.uleb128 0x6
 16483 052b 40       		.uleb128 0x40
 16484 052c 18       		.uleb128 0x18
 16485 052d 9742     		.uleb128 0x2117
 16486 052f 19       		.uleb128 0x19
 16487 0530 01       		.uleb128 0x1
 16488 0531 13       		.uleb128 0x13
 16489 0532 00       		.byte	0
 16490 0533 00       		.byte	0
 16491 0534 66       		.uleb128 0x66
 16492 0535 05       		.uleb128 0x5
 16493 0536 00       		.byte	0
 16494 0537 03       		.uleb128 0x3
 16495 0538 0E       		.uleb128 0xe
 16496 0539 3A       		.uleb128 0x3a
 16497 053a 0B       		.uleb128 0xb
 16498 053b 3B       		.uleb128 0x3b
 16499 053c 0B       		.uleb128 0xb
 16500 053d 49       		.uleb128 0x49
 16501 053e 13       		.uleb128 0x13
 16502 053f 02       		.uleb128 0x2
 16503 0540 17       		.uleb128 0x17
 16504 0541 00       		.byte	0
 16505 0542 00       		.byte	0
 16506 0543 67       		.uleb128 0x67
 16507 0544 2E       		.uleb128 0x2e
 16508 0545 01       		.byte	0x1
 16509 0546 03       		.uleb128 0x3
 16510 0547 0E       		.uleb128 0xe
 16511 0548 3A       		.uleb128 0x3a
 16512 0549 0B       		.uleb128 0xb
 16513 054a 3B       		.uleb128 0x3b
 16514 054b 0B       		.uleb128 0xb
 16515 054c 27       		.uleb128 0x27
 16516 054d 19       		.uleb128 0x19
 16517 054e 49       		.uleb128 0x49
 16518 054f 13       		.uleb128 0x13
 16519 0550 11       		.uleb128 0x11
 16520 0551 01       		.uleb128 0x1
 16521 0552 12       		.uleb128 0x12
ARM GAS  /tmp/cccFXynL.s 			page 292


 16522 0553 06       		.uleb128 0x6
 16523 0554 40       		.uleb128 0x40
 16524 0555 18       		.uleb128 0x18
 16525 0556 9642     		.uleb128 0x2116
 16526 0558 19       		.uleb128 0x19
 16527 0559 01       		.uleb128 0x1
 16528 055a 13       		.uleb128 0x13
 16529 055b 00       		.byte	0
 16530 055c 00       		.byte	0
 16531 055d 68       		.uleb128 0x68
 16532 055e 34       		.uleb128 0x34
 16533 055f 00       		.byte	0
 16534 0560 03       		.uleb128 0x3
 16535 0561 08       		.uleb128 0x8
 16536 0562 3A       		.uleb128 0x3a
 16537 0563 0B       		.uleb128 0xb
 16538 0564 3B       		.uleb128 0x3b
 16539 0565 0B       		.uleb128 0xb
 16540 0566 49       		.uleb128 0x49
 16541 0567 13       		.uleb128 0x13
 16542 0568 00       		.byte	0
 16543 0569 00       		.byte	0
 16544 056a 69       		.uleb128 0x69
 16545 056b 1D       		.uleb128 0x1d
 16546 056c 01       		.byte	0x1
 16547 056d 31       		.uleb128 0x31
 16548 056e 13       		.uleb128 0x13
 16549 056f 11       		.uleb128 0x11
 16550 0570 01       		.uleb128 0x1
 16551 0571 12       		.uleb128 0x12
 16552 0572 06       		.uleb128 0x6
 16553 0573 58       		.uleb128 0x58
 16554 0574 0B       		.uleb128 0xb
 16555 0575 59       		.uleb128 0x59
 16556 0576 0B       		.uleb128 0xb
 16557 0577 01       		.uleb128 0x1
 16558 0578 13       		.uleb128 0x13
 16559 0579 00       		.byte	0
 16560 057a 00       		.byte	0
 16561 057b 6A       		.uleb128 0x6a
 16562 057c 1D       		.uleb128 0x1d
 16563 057d 01       		.byte	0x1
 16564 057e 31       		.uleb128 0x31
 16565 057f 13       		.uleb128 0x13
 16566 0580 11       		.uleb128 0x11
 16567 0581 01       		.uleb128 0x1
 16568 0582 12       		.uleb128 0x12
 16569 0583 06       		.uleb128 0x6
 16570 0584 58       		.uleb128 0x58
 16571 0585 0B       		.uleb128 0xb
 16572 0586 59       		.uleb128 0x59
 16573 0587 0B       		.uleb128 0xb
 16574 0588 00       		.byte	0
 16575 0589 00       		.byte	0
 16576 058a 6B       		.uleb128 0x6b
 16577 058b 2E       		.uleb128 0x2e
 16578 058c 01       		.byte	0x1
ARM GAS  /tmp/cccFXynL.s 			page 293


 16579 058d 03       		.uleb128 0x3
 16580 058e 0E       		.uleb128 0xe
 16581 058f 3A       		.uleb128 0x3a
 16582 0590 0B       		.uleb128 0xb
 16583 0591 3B       		.uleb128 0x3b
 16584 0592 0B       		.uleb128 0xb
 16585 0593 27       		.uleb128 0x27
 16586 0594 19       		.uleb128 0x19
 16587 0595 20       		.uleb128 0x20
 16588 0596 0B       		.uleb128 0xb
 16589 0597 01       		.uleb128 0x1
 16590 0598 13       		.uleb128 0x13
 16591 0599 00       		.byte	0
 16592 059a 00       		.byte	0
 16593 059b 6C       		.uleb128 0x6c
 16594 059c 05       		.uleb128 0x5
 16595 059d 00       		.byte	0
 16596 059e 03       		.uleb128 0x3
 16597 059f 08       		.uleb128 0x8
 16598 05a0 3A       		.uleb128 0x3a
 16599 05a1 0B       		.uleb128 0xb
 16600 05a2 3B       		.uleb128 0x3b
 16601 05a3 0B       		.uleb128 0xb
 16602 05a4 49       		.uleb128 0x49
 16603 05a5 13       		.uleb128 0x13
 16604 05a6 00       		.byte	0
 16605 05a7 00       		.byte	0
 16606 05a8 6D       		.uleb128 0x6d
 16607 05a9 05       		.uleb128 0x5
 16608 05aa 00       		.byte	0
 16609 05ab 03       		.uleb128 0x3
 16610 05ac 0E       		.uleb128 0xe
 16611 05ad 3A       		.uleb128 0x3a
 16612 05ae 0B       		.uleb128 0xb
 16613 05af 3B       		.uleb128 0x3b
 16614 05b0 0B       		.uleb128 0xb
 16615 05b1 49       		.uleb128 0x49
 16616 05b2 13       		.uleb128 0x13
 16617 05b3 00       		.byte	0
 16618 05b4 00       		.byte	0
 16619 05b5 6E       		.uleb128 0x6e
 16620 05b6 34       		.uleb128 0x34
 16621 05b7 00       		.byte	0
 16622 05b8 03       		.uleb128 0x3
 16623 05b9 0E       		.uleb128 0xe
 16624 05ba 3A       		.uleb128 0x3a
 16625 05bb 0B       		.uleb128 0xb
 16626 05bc 3B       		.uleb128 0x3b
 16627 05bd 0B       		.uleb128 0xb
 16628 05be 49       		.uleb128 0x49
 16629 05bf 13       		.uleb128 0x13
 16630 05c0 00       		.byte	0
 16631 05c1 00       		.byte	0
 16632 05c2 6F       		.uleb128 0x6f
 16633 05c3 2E       		.uleb128 0x2e
 16634 05c4 01       		.byte	0x1
 16635 05c5 3F       		.uleb128 0x3f
ARM GAS  /tmp/cccFXynL.s 			page 294


 16636 05c6 19       		.uleb128 0x19
 16637 05c7 03       		.uleb128 0x3
 16638 05c8 0E       		.uleb128 0xe
 16639 05c9 3A       		.uleb128 0x3a
 16640 05ca 0B       		.uleb128 0xb
 16641 05cb 3B       		.uleb128 0x3b
 16642 05cc 0B       		.uleb128 0xb
 16643 05cd 27       		.uleb128 0x27
 16644 05ce 19       		.uleb128 0x19
 16645 05cf 49       		.uleb128 0x49
 16646 05d0 13       		.uleb128 0x13
 16647 05d1 20       		.uleb128 0x20
 16648 05d2 0B       		.uleb128 0xb
 16649 05d3 01       		.uleb128 0x1
 16650 05d4 13       		.uleb128 0x13
 16651 05d5 00       		.byte	0
 16652 05d6 00       		.byte	0
 16653 05d7 70       		.uleb128 0x70
 16654 05d8 2E       		.uleb128 0x2e
 16655 05d9 01       		.byte	0x1
 16656 05da 03       		.uleb128 0x3
 16657 05db 0E       		.uleb128 0xe
 16658 05dc 3A       		.uleb128 0x3a
 16659 05dd 0B       		.uleb128 0xb
 16660 05de 3B       		.uleb128 0x3b
 16661 05df 0B       		.uleb128 0xb
 16662 05e0 27       		.uleb128 0x27
 16663 05e1 19       		.uleb128 0x19
 16664 05e2 49       		.uleb128 0x49
 16665 05e3 13       		.uleb128 0x13
 16666 05e4 20       		.uleb128 0x20
 16667 05e5 0B       		.uleb128 0xb
 16668 05e6 01       		.uleb128 0x1
 16669 05e7 13       		.uleb128 0x13
 16670 05e8 00       		.byte	0
 16671 05e9 00       		.byte	0
 16672 05ea 71       		.uleb128 0x71
 16673 05eb 2E       		.uleb128 0x2e
 16674 05ec 01       		.byte	0x1
 16675 05ed 31       		.uleb128 0x31
 16676 05ee 13       		.uleb128 0x13
 16677 05ef 11       		.uleb128 0x11
 16678 05f0 01       		.uleb128 0x1
 16679 05f1 12       		.uleb128 0x12
 16680 05f2 06       		.uleb128 0x6
 16681 05f3 40       		.uleb128 0x40
 16682 05f4 18       		.uleb128 0x18
 16683 05f5 9742     		.uleb128 0x2117
 16684 05f7 19       		.uleb128 0x19
 16685 05f8 01       		.uleb128 0x1
 16686 05f9 13       		.uleb128 0x13
 16687 05fa 00       		.byte	0
 16688 05fb 00       		.byte	0
 16689 05fc 72       		.uleb128 0x72
 16690 05fd 0B       		.uleb128 0xb
 16691 05fe 01       		.byte	0x1
 16692 05ff 31       		.uleb128 0x31
ARM GAS  /tmp/cccFXynL.s 			page 295


 16693 0600 13       		.uleb128 0x13
 16694 0601 11       		.uleb128 0x11
 16695 0602 01       		.uleb128 0x1
 16696 0603 12       		.uleb128 0x12
 16697 0604 06       		.uleb128 0x6
 16698 0605 00       		.byte	0
 16699 0606 00       		.byte	0
 16700 0607 73       		.uleb128 0x73
 16701 0608 2E       		.uleb128 0x2e
 16702 0609 00       		.byte	0
 16703 060a 3F       		.uleb128 0x3f
 16704 060b 19       		.uleb128 0x19
 16705 060c 3C       		.uleb128 0x3c
 16706 060d 19       		.uleb128 0x19
 16707 060e 6E       		.uleb128 0x6e
 16708 060f 0E       		.uleb128 0xe
 16709 0610 03       		.uleb128 0x3
 16710 0611 0E       		.uleb128 0xe
 16711 0612 3A       		.uleb128 0x3a
 16712 0613 0B       		.uleb128 0xb
 16713 0614 3B       		.uleb128 0x3b
 16714 0615 0B       		.uleb128 0xb
 16715 0616 00       		.byte	0
 16716 0617 00       		.byte	0
 16717 0618 74       		.uleb128 0x74
 16718 0619 2E       		.uleb128 0x2e
 16719 061a 00       		.byte	0
 16720 061b 3F       		.uleb128 0x3f
 16721 061c 19       		.uleb128 0x19
 16722 061d 3C       		.uleb128 0x3c
 16723 061e 19       		.uleb128 0x19
 16724 061f 6E       		.uleb128 0x6e
 16725 0620 0E       		.uleb128 0xe
 16726 0621 03       		.uleb128 0x3
 16727 0622 0E       		.uleb128 0xe
 16728 0623 3A       		.uleb128 0x3a
 16729 0624 0B       		.uleb128 0xb
 16730 0625 3B       		.uleb128 0x3b
 16731 0626 0B       		.uleb128 0xb
 16732 0627 6E       		.uleb128 0x6e
 16733 0628 0E       		.uleb128 0xe
 16734 0629 00       		.byte	0
 16735 062a 00       		.byte	0
 16736 062b 00       		.byte	0
 16737              		.section	.debug_loc,"",%progbits
 16738              	.Ldebug_loc0:
 16739              	.LLST2:
 16740 0000 00000000 		.4byte	.LVL3
 16741 0004 0E000000 		.4byte	.LVL4
 16742 0008 0100     		.2byte	0x1
 16743 000a 50       		.byte	0x50
 16744 000b 0E000000 		.4byte	.LVL4
 16745 000f E8000000 		.4byte	.LFE289
 16746 0013 0100     		.2byte	0x1
 16747 0015 58       		.byte	0x58
 16748 0016 00000000 		.4byte	0
 16749 001a 00000000 		.4byte	0
ARM GAS  /tmp/cccFXynL.s 			page 296


 16750              	.LLST3:
 16751 001e 00000000 		.4byte	.LVL3
 16752 0022 0E000000 		.4byte	.LVL4
 16753 0026 0100     		.2byte	0x1
 16754 0028 51       		.byte	0x51
 16755 0029 0E000000 		.4byte	.LVL4
 16756 002d 3E000000 		.4byte	.LVL6
 16757 0031 0100     		.2byte	0x1
 16758 0033 5A       		.byte	0x5a
 16759 0034 3E000000 		.4byte	.LVL6
 16760 0038 86000000 		.4byte	.LVL13
 16761 003c 0400     		.2byte	0x4
 16762 003e F3       		.byte	0xf3
 16763 003f 01       		.uleb128 0x1
 16764 0040 51       		.byte	0x51
 16765 0041 9F       		.byte	0x9f
 16766 0042 86000000 		.4byte	.LVL13
 16767 0046 8A000000 		.4byte	.LVL14
 16768 004a 0100     		.2byte	0x1
 16769 004c 5A       		.byte	0x5a
 16770 004d 8A000000 		.4byte	.LVL14
 16771 0051 E8000000 		.4byte	.LFE289
 16772 0055 0400     		.2byte	0x4
 16773 0057 F3       		.byte	0xf3
 16774 0058 01       		.uleb128 0x1
 16775 0059 51       		.byte	0x51
 16776 005a 9F       		.byte	0x9f
 16777 005b 00000000 		.4byte	0
 16778 005f 00000000 		.4byte	0
 16779              	.LLST4:
 16780 0063 00000000 		.4byte	.LVL3
 16781 0067 0E000000 		.4byte	.LVL4
 16782 006b 0100     		.2byte	0x1
 16783 006d 52       		.byte	0x52
 16784 006e 0E000000 		.4byte	.LVL4
 16785 0072 3E000000 		.4byte	.LVL6
 16786 0076 0100     		.2byte	0x1
 16787 0078 55       		.byte	0x55
 16788 0079 3E000000 		.4byte	.LVL6
 16789 007d 86000000 		.4byte	.LVL13
 16790 0081 0400     		.2byte	0x4
 16791 0083 F3       		.byte	0xf3
 16792 0084 01       		.uleb128 0x1
 16793 0085 52       		.byte	0x52
 16794 0086 9F       		.byte	0x9f
 16795 0087 86000000 		.4byte	.LVL13
 16796 008b 90000000 		.4byte	.LVL15
 16797 008f 0100     		.2byte	0x1
 16798 0091 55       		.byte	0x55
 16799 0092 90000000 		.4byte	.LVL15
 16800 0096 E8000000 		.4byte	.LFE289
 16801 009a 0400     		.2byte	0x4
 16802 009c F3       		.byte	0xf3
 16803 009d 01       		.uleb128 0x1
 16804 009e 52       		.byte	0x52
 16805 009f 9F       		.byte	0x9f
 16806 00a0 00000000 		.4byte	0
ARM GAS  /tmp/cccFXynL.s 			page 297


 16807 00a4 00000000 		.4byte	0
 16808              	.LLST5:
 16809 00a8 48000000 		.4byte	.LVL7
 16810 00ac 52000000 		.4byte	.LVL8
 16811 00b0 0200     		.2byte	0x2
 16812 00b2 30       		.byte	0x30
 16813 00b3 9F       		.byte	0x9f
 16814 00b4 52000000 		.4byte	.LVL8
 16815 00b8 60000000 		.4byte	.LVL10
 16816 00bc 0100     		.2byte	0x1
 16817 00be 54       		.byte	0x54
 16818 00bf 60000000 		.4byte	.LVL10
 16819 00c3 72000000 		.4byte	.LVL11
 16820 00c7 0300     		.2byte	0x3
 16821 00c9 74       		.byte	0x74
 16822 00ca 7F       		.sleb128 -1
 16823 00cb 9F       		.byte	0x9f
 16824 00cc 72000000 		.4byte	.LVL11
 16825 00d0 86000000 		.4byte	.LVL13
 16826 00d4 0100     		.2byte	0x1
 16827 00d6 54       		.byte	0x54
 16828 00d7 90000000 		.4byte	.LVL15
 16829 00db 96000000 		.4byte	.LVL16
 16830 00df 0200     		.2byte	0x2
 16831 00e1 30       		.byte	0x30
 16832 00e2 9F       		.byte	0x9f
 16833 00e3 96000000 		.4byte	.LVL16
 16834 00e7 E8000000 		.4byte	.LFE289
 16835 00eb 0100     		.2byte	0x1
 16836 00ed 54       		.byte	0x54
 16837 00ee 00000000 		.4byte	0
 16838 00f2 00000000 		.4byte	0
 16839              	.LLST6:
 16840 00f6 00000000 		.4byte	.LVL22
 16841 00fa 23000000 		.4byte	.LVL27-1
 16842 00fe 0100     		.2byte	0x1
 16843 0100 50       		.byte	0x50
 16844 0101 23000000 		.4byte	.LVL27-1
 16845 0105 28000000 		.4byte	.LVL28
 16846 0109 0400     		.2byte	0x4
 16847 010b F3       		.byte	0xf3
 16848 010c 01       		.uleb128 0x1
 16849 010d 50       		.byte	0x50
 16850 010e 9F       		.byte	0x9f
 16851 010f 28000000 		.4byte	.LVL28
 16852 0113 2A000000 		.4byte	.LVL29
 16853 0117 0100     		.2byte	0x1
 16854 0119 50       		.byte	0x50
 16855 011a 2A000000 		.4byte	.LVL29
 16856 011e 2C000000 		.4byte	.LVL30
 16857 0122 0400     		.2byte	0x4
 16858 0124 F3       		.byte	0xf3
 16859 0125 01       		.uleb128 0x1
 16860 0126 50       		.byte	0x50
 16861 0127 9F       		.byte	0x9f
 16862 0128 2C000000 		.4byte	.LVL30
 16863 012c 41000000 		.4byte	.LVL35-1
ARM GAS  /tmp/cccFXynL.s 			page 298


 16864 0130 0100     		.2byte	0x1
 16865 0132 50       		.byte	0x50
 16866 0133 41000000 		.4byte	.LVL35-1
 16867 0137 4C000000 		.4byte	.LFE287
 16868 013b 0400     		.2byte	0x4
 16869 013d F3       		.byte	0xf3
 16870 013e 01       		.uleb128 0x1
 16871 013f 50       		.byte	0x50
 16872 0140 9F       		.byte	0x9f
 16873 0141 00000000 		.4byte	0
 16874 0145 00000000 		.4byte	0
 16875              	.LLST7:
 16876 0149 00000000 		.4byte	.LVL22
 16877 014d 04000000 		.4byte	.LVL23
 16878 0151 0100     		.2byte	0x1
 16879 0153 51       		.byte	0x51
 16880 0154 04000000 		.4byte	.LVL23
 16881 0158 4C000000 		.4byte	.LFE287
 16882 015c 0400     		.2byte	0x4
 16883 015e F3       		.byte	0xf3
 16884 015f 01       		.uleb128 0x1
 16885 0160 51       		.byte	0x51
 16886 0161 9F       		.byte	0x9f
 16887 0162 00000000 		.4byte	0
 16888 0166 00000000 		.4byte	0
 16889              	.LLST8:
 16890 016a 0A000000 		.4byte	.LVL24
 16891 016e 14000000 		.4byte	.LVL25
 16892 0172 0100     		.2byte	0x1
 16893 0174 53       		.byte	0x53
 16894 0175 14000000 		.4byte	.LVL25
 16895 0179 23000000 		.4byte	.LVL27-1
 16896 017d 0300     		.2byte	0x3
 16897 017f 70       		.byte	0x70
 16898 0180 EC00     		.sleb128 108
 16899 0182 28000000 		.4byte	.LVL28
 16900 0186 2E000000 		.4byte	.LVL31
 16901 018a 0100     		.2byte	0x1
 16902 018c 53       		.byte	0x53
 16903 018d 2E000000 		.4byte	.LVL31
 16904 0191 41000000 		.4byte	.LVL35-1
 16905 0195 0300     		.2byte	0x3
 16906 0197 70       		.byte	0x70
 16907 0198 EC00     		.sleb128 108
 16908 019a 00000000 		.4byte	0
 16909 019e 00000000 		.4byte	0
 16910              	.LLST9:
 16911 01a2 0A000000 		.4byte	.LVL24
 16912 01a6 20000000 		.4byte	.LVL26
 16913 01aa 0100     		.2byte	0x1
 16914 01ac 51       		.byte	0x51
 16915 01ad 20000000 		.4byte	.LVL26
 16916 01b1 23000000 		.4byte	.LVL27-1
 16917 01b5 0500     		.2byte	0x5
 16918 01b7 F3       		.byte	0xf3
 16919 01b8 01       		.uleb128 0x1
 16920 01b9 51       		.byte	0x51
ARM GAS  /tmp/cccFXynL.s 			page 299


 16921 01ba 23       		.byte	0x23
 16922 01bb 10       		.uleb128 0x10
 16923 01bc 28000000 		.4byte	.LVL28
 16924 01c0 32000000 		.4byte	.LVL32
 16925 01c4 0100     		.2byte	0x1
 16926 01c6 51       		.byte	0x51
 16927 01c7 32000000 		.4byte	.LVL32
 16928 01cb 38000000 		.4byte	.LVL33
 16929 01cf 0700     		.2byte	0x7
 16930 01d1 71       		.byte	0x71
 16931 01d2 808080C0 		.sleb128 -939524096
 16931      7C
 16932 01d7 9F       		.byte	0x9f
 16933 01d8 38000000 		.4byte	.LVL33
 16934 01dc 3A000000 		.4byte	.LVL34
 16935 01e0 0700     		.2byte	0x7
 16936 01e2 71       		.byte	0x71
 16937 01e3 FEEFFFBF 		.sleb128 -939526146
 16937      7C
 16938 01e8 9F       		.byte	0x9f
 16939 01e9 3A000000 		.4byte	.LVL34
 16940 01ed 41000000 		.4byte	.LVL35-1
 16941 01f1 0500     		.2byte	0x5
 16942 01f3 F3       		.byte	0xf3
 16943 01f4 01       		.uleb128 0x1
 16944 01f5 51       		.byte	0x51
 16945 01f6 23       		.byte	0x23
 16946 01f7 10       		.uleb128 0x10
 16947 01f8 00000000 		.4byte	0
 16948 01fc 00000000 		.4byte	0
 16949              	.LLST10:
 16950 0200 00000000 		.4byte	.LVL36
 16951 0204 10000000 		.4byte	.LVL37
 16952 0208 0100     		.2byte	0x1
 16953 020a 50       		.byte	0x50
 16954 020b 10000000 		.4byte	.LVL37
 16955 020f 54010000 		.4byte	.LFE286
 16956 0213 0100     		.2byte	0x1
 16957 0215 56       		.byte	0x56
 16958 0216 00000000 		.4byte	0
 16959 021a 00000000 		.4byte	0
 16960              	.LLST11:
 16961 021e 00000000 		.4byte	.LVL36
 16962 0222 2C000000 		.4byte	.LVL39
 16963 0226 0100     		.2byte	0x1
 16964 0228 51       		.byte	0x51
 16965 0229 2C000000 		.4byte	.LVL39
 16966 022d 46000000 		.4byte	.LVL45
 16967 0231 0100     		.2byte	0x1
 16968 0233 55       		.byte	0x55
 16969 0234 46000000 		.4byte	.LVL45
 16970 0238 68000000 		.4byte	.LVL49
 16971 023c 0100     		.2byte	0x1
 16972 023e 51       		.byte	0x51
 16973 023f 68000000 		.4byte	.LVL49
 16974 0243 7E000000 		.4byte	.LVL53
 16975 0247 0100     		.2byte	0x1
ARM GAS  /tmp/cccFXynL.s 			page 300


 16976 0249 55       		.byte	0x55
 16977 024a 7E000000 		.4byte	.LVL53
 16978 024e 98000000 		.4byte	.LVL57
 16979 0252 0100     		.2byte	0x1
 16980 0254 51       		.byte	0x51
 16981 0255 98000000 		.4byte	.LVL57
 16982 0259 30010000 		.4byte	.LVL78
 16983 025d 0100     		.2byte	0x1
 16984 025f 55       		.byte	0x55
 16985 0260 30010000 		.4byte	.LVL78
 16986 0264 32010000 		.4byte	.LVL79
 16987 0268 0100     		.2byte	0x1
 16988 026a 51       		.byte	0x51
 16989 026b 32010000 		.4byte	.LVL79
 16990 026f 34010000 		.4byte	.LVL80
 16991 0273 0100     		.2byte	0x1
 16992 0275 55       		.byte	0x55
 16993 0276 34010000 		.4byte	.LVL80
 16994 027a 3C010000 		.4byte	.LVL81
 16995 027e 0100     		.2byte	0x1
 16996 0280 51       		.byte	0x51
 16997 0281 3C010000 		.4byte	.LVL81
 16998 0285 54010000 		.4byte	.LFE286
 16999 0289 0100     		.2byte	0x1
 17000 028b 55       		.byte	0x55
 17001 028c 00000000 		.4byte	0
 17002 0290 00000000 		.4byte	0
 17003              	.LLST12:
 17004 0294 10000000 		.4byte	.LVL37
 17005 0298 42000000 		.4byte	.LVL44
 17006 029c 0100     		.2byte	0x1
 17007 029e 50       		.byte	0x50
 17008 029f 42000000 		.4byte	.LVL44
 17009 02a3 46000000 		.4byte	.LVL45
 17010 02a7 0300     		.2byte	0x3
 17011 02a9 76       		.byte	0x76
 17012 02aa EC00     		.sleb128 108
 17013 02ac 46000000 		.4byte	.LVL45
 17014 02b0 48000000 		.4byte	.LVL46
 17015 02b4 0100     		.2byte	0x1
 17016 02b6 50       		.byte	0x50
 17017 02b7 48000000 		.4byte	.LVL46
 17018 02bb 4C000000 		.4byte	.LVL47
 17019 02bf 0300     		.2byte	0x3
 17020 02c1 76       		.byte	0x76
 17021 02c2 EC00     		.sleb128 108
 17022 02c4 4C000000 		.4byte	.LVL47
 17023 02c8 AA000000 		.4byte	.LVL59
 17024 02cc 0100     		.2byte	0x1
 17025 02ce 50       		.byte	0x50
 17026 02cf AA000000 		.4byte	.LVL59
 17027 02d3 B3000000 		.4byte	.LVL60-1
 17028 02d7 0300     		.2byte	0x3
 17029 02d9 76       		.byte	0x76
 17030 02da EC00     		.sleb128 108
 17031 02dc 00010000 		.4byte	.LVL68
 17032 02e0 10010000 		.4byte	.LVL70
ARM GAS  /tmp/cccFXynL.s 			page 301


 17033 02e4 0100     		.2byte	0x1
 17034 02e6 50       		.byte	0x50
 17035 02e7 10010000 		.4byte	.LVL70
 17036 02eb 15010000 		.4byte	.LVL71-1
 17037 02ef 0300     		.2byte	0x3
 17038 02f1 76       		.byte	0x76
 17039 02f2 EC00     		.sleb128 108
 17040 02f4 30010000 		.4byte	.LVL78
 17041 02f8 54010000 		.4byte	.LFE286
 17042 02fc 0100     		.2byte	0x1
 17043 02fe 50       		.byte	0x50
 17044 02ff 00000000 		.4byte	0
 17045 0303 00000000 		.4byte	0
 17046              	.LLST13:
 17047 0307 18000000 		.4byte	.LVL38
 17048 030b 30000000 		.4byte	.LVL40
 17049 030f 0200     		.2byte	0x2
 17050 0311 30       		.byte	0x30
 17051 0312 9F       		.byte	0x9f
 17052 0313 30000000 		.4byte	.LVL40
 17053 0317 38000000 		.4byte	.LVL41
 17054 031b 0100     		.2byte	0x1
 17055 031d 54       		.byte	0x54
 17056 031e 38000000 		.4byte	.LVL41
 17057 0322 3A000000 		.4byte	.LVL42
 17058 0326 0100     		.2byte	0x1
 17059 0328 53       		.byte	0x53
 17060 0329 3A000000 		.4byte	.LVL42
 17061 032d 3E000000 		.4byte	.LVL43
 17062 0331 0100     		.2byte	0x1
 17063 0333 54       		.byte	0x54
 17064 0334 58000000 		.4byte	.LVL48
 17065 0338 6C000000 		.4byte	.LVL50
 17066 033c 0200     		.2byte	0x2
 17067 033e 30       		.byte	0x30
 17068 033f 9F       		.byte	0x9f
 17069 0340 6C000000 		.4byte	.LVL50
 17070 0344 76000000 		.4byte	.LVL51
 17071 0348 0100     		.2byte	0x1
 17072 034a 54       		.byte	0x54
 17073 034b 76000000 		.4byte	.LVL51
 17074 034f 78000000 		.4byte	.LVL52
 17075 0353 0100     		.2byte	0x1
 17076 0355 53       		.byte	0x53
 17077 0356 78000000 		.4byte	.LVL52
 17078 035a 7E000000 		.4byte	.LVL53
 17079 035e 0100     		.2byte	0x1
 17080 0360 54       		.byte	0x54
 17081 0361 98000000 		.4byte	.LVL57
 17082 0365 A8000000 		.4byte	.LVL58
 17083 0369 0100     		.2byte	0x1
 17084 036b 54       		.byte	0x54
 17085 036c 00010000 		.4byte	.LVL68
 17086 0370 0A010000 		.4byte	.LVL69
 17087 0374 0100     		.2byte	0x1
 17088 0376 54       		.byte	0x54
 17089 0377 30010000 		.4byte	.LVL78
ARM GAS  /tmp/cccFXynL.s 			page 302


 17090 037b 54010000 		.4byte	.LFE286
 17091 037f 0200     		.2byte	0x2
 17092 0381 30       		.byte	0x30
 17093 0382 9F       		.byte	0x9f
 17094 0383 00000000 		.4byte	0
 17095 0387 00000000 		.4byte	0
 17096              	.LLST14:
 17097 038b 10000000 		.4byte	.LVL37
 17098 038f 86000000 		.4byte	.LVL54
 17099 0393 0100     		.2byte	0x1
 17100 0395 52       		.byte	0x52
 17101 0396 86000000 		.4byte	.LVL54
 17102 039a 8A000000 		.4byte	.LVL55
 17103 039e 0200     		.2byte	0x2
 17104 03a0 71       		.byte	0x71
 17105 03a1 08       		.sleb128 8
 17106 03a2 8A000000 		.4byte	.LVL55
 17107 03a6 B3000000 		.4byte	.LVL60-1
 17108 03aa 0100     		.2byte	0x1
 17109 03ac 52       		.byte	0x52
 17110 03ad 00010000 		.4byte	.LVL68
 17111 03b1 15010000 		.4byte	.LVL71-1
 17112 03b5 0100     		.2byte	0x1
 17113 03b7 52       		.byte	0x52
 17114 03b8 30010000 		.4byte	.LVL78
 17115 03bc 54010000 		.4byte	.LFE286
 17116 03c0 0100     		.2byte	0x1
 17117 03c2 52       		.byte	0x52
 17118 03c3 00000000 		.4byte	0
 17119 03c7 00000000 		.4byte	0
 17120              	.LLST15:
 17121 03cb CC000000 		.4byte	.LVL63
 17122 03cf F8000000 		.4byte	.LVL67
 17123 03d3 0100     		.2byte	0x1
 17124 03d5 56       		.byte	0x56
 17125 03d6 1E010000 		.4byte	.LVL72
 17126 03da 30010000 		.4byte	.LVL78
 17127 03de 0100     		.2byte	0x1
 17128 03e0 56       		.byte	0x56
 17129 03e1 00000000 		.4byte	0
 17130 03e5 00000000 		.4byte	0
 17131              	.LLST16:
 17132 03e9 CC000000 		.4byte	.LVL63
 17133 03ed E8000000 		.4byte	.LVL65
 17134 03f1 0100     		.2byte	0x1
 17135 03f3 53       		.byte	0x53
 17136 03f4 1E010000 		.4byte	.LVL72
 17137 03f8 30010000 		.4byte	.LVL78
 17138 03fc 0100     		.2byte	0x1
 17139 03fe 53       		.byte	0x53
 17140 03ff 00000000 		.4byte	0
 17141 0403 00000000 		.4byte	0
 17142              	.LLST17:
 17143 0407 CC000000 		.4byte	.LVL63
 17144 040b D8000000 		.4byte	.LVL64
 17145 040f 0200     		.2byte	0x2
 17146 0411 30       		.byte	0x30
ARM GAS  /tmp/cccFXynL.s 			page 303


 17147 0412 9F       		.byte	0x9f
 17148 0413 D8000000 		.4byte	.LVL64
 17149 0417 E8000000 		.4byte	.LVL65
 17150 041b 0100     		.2byte	0x1
 17151 041d 52       		.byte	0x52
 17152 041e 1E010000 		.4byte	.LVL72
 17153 0422 22010000 		.4byte	.LVL73
 17154 0426 0100     		.2byte	0x1
 17155 0428 52       		.byte	0x52
 17156 0429 22010000 		.4byte	.LVL73
 17157 042d 24010000 		.4byte	.LVL74
 17158 0431 2700     		.2byte	0x27
 17159 0433 30       		.byte	0x30
 17160 0434 0A       		.byte	0xa
 17161 0435 0008     		.2byte	0x800
 17162 0437 76       		.byte	0x76
 17163 0438 CC00     		.sleb128 76
 17164 043a 06       		.byte	0x6
 17165 043b 76       		.byte	0x76
 17166 043c CC00     		.sleb128 76
 17167 043e 06       		.byte	0x6
 17168 043f 33       		.byte	0x33
 17169 0440 24       		.byte	0x24
 17170 0441 33       		.byte	0x33
 17171 0442 25       		.byte	0x25
 17172 0443 30       		.byte	0x30
 17173 0444 29       		.byte	0x29
 17174 0445 28       		.byte	0x28
 17175 0446 0100     		.2byte	0x1
 17176 0448 16       		.byte	0x16
 17177 0449 13       		.byte	0x13
 17178 044a 76       		.byte	0x76
 17179 044b CC00     		.sleb128 76
 17180 044d 06       		.byte	0x6
 17181 044e 33       		.byte	0x33
 17182 044f 24       		.byte	0x24
 17183 0450 33       		.byte	0x33
 17184 0451 25       		.byte	0x25
 17185 0452 30       		.byte	0x30
 17186 0453 2E       		.byte	0x2e
 17187 0454 28       		.byte	0x28
 17188 0455 0100     		.2byte	0x1
 17189 0457 16       		.byte	0x16
 17190 0458 13       		.byte	0x13
 17191 0459 9F       		.byte	0x9f
 17192 045a 24010000 		.4byte	.LVL74
 17193 045e 28010000 		.4byte	.LVL75
 17194 0462 0100     		.2byte	0x1
 17195 0464 52       		.byte	0x52
 17196 0465 28010000 		.4byte	.LVL75
 17197 0469 2A010000 		.4byte	.LVL76
 17198 046d 2700     		.2byte	0x27
 17199 046f 30       		.byte	0x30
 17200 0470 0A       		.byte	0xa
 17201 0471 0008     		.2byte	0x800
 17202 0473 76       		.byte	0x76
 17203 0474 CC00     		.sleb128 76
ARM GAS  /tmp/cccFXynL.s 			page 304


 17204 0476 06       		.byte	0x6
 17205 0477 76       		.byte	0x76
 17206 0478 CC00     		.sleb128 76
 17207 047a 06       		.byte	0x6
 17208 047b 33       		.byte	0x33
 17209 047c 24       		.byte	0x24
 17210 047d 33       		.byte	0x33
 17211 047e 25       		.byte	0x25
 17212 047f 30       		.byte	0x30
 17213 0480 29       		.byte	0x29
 17214 0481 28       		.byte	0x28
 17215 0482 0100     		.2byte	0x1
 17216 0484 16       		.byte	0x16
 17217 0485 13       		.byte	0x13
 17218 0486 76       		.byte	0x76
 17219 0487 CC00     		.sleb128 76
 17220 0489 06       		.byte	0x6
 17221 048a 33       		.byte	0x33
 17222 048b 24       		.byte	0x24
 17223 048c 33       		.byte	0x33
 17224 048d 25       		.byte	0x25
 17225 048e 30       		.byte	0x30
 17226 048f 2E       		.byte	0x2e
 17227 0490 28       		.byte	0x28
 17228 0491 0100     		.2byte	0x1
 17229 0493 16       		.byte	0x16
 17230 0494 13       		.byte	0x13
 17231 0495 9F       		.byte	0x9f
 17232 0496 2A010000 		.4byte	.LVL76
 17233 049a 2E010000 		.4byte	.LVL77
 17234 049e 0100     		.2byte	0x1
 17235 04a0 52       		.byte	0x52
 17236 04a1 2E010000 		.4byte	.LVL77
 17237 04a5 30010000 		.4byte	.LVL78
 17238 04a9 2700     		.2byte	0x27
 17239 04ab 30       		.byte	0x30
 17240 04ac 0A       		.byte	0xa
 17241 04ad 0008     		.2byte	0x800
 17242 04af 76       		.byte	0x76
 17243 04b0 CC00     		.sleb128 76
 17244 04b2 06       		.byte	0x6
 17245 04b3 76       		.byte	0x76
 17246 04b4 CC00     		.sleb128 76
 17247 04b6 06       		.byte	0x6
 17248 04b7 33       		.byte	0x33
 17249 04b8 24       		.byte	0x24
 17250 04b9 33       		.byte	0x33
 17251 04ba 25       		.byte	0x25
 17252 04bb 30       		.byte	0x30
 17253 04bc 29       		.byte	0x29
 17254 04bd 28       		.byte	0x28
 17255 04be 0100     		.2byte	0x1
 17256 04c0 16       		.byte	0x16
 17257 04c1 13       		.byte	0x13
 17258 04c2 76       		.byte	0x76
 17259 04c3 CC00     		.sleb128 76
 17260 04c5 06       		.byte	0x6
ARM GAS  /tmp/cccFXynL.s 			page 305


 17261 04c6 33       		.byte	0x33
 17262 04c7 24       		.byte	0x24
 17263 04c8 33       		.byte	0x33
 17264 04c9 25       		.byte	0x25
 17265 04ca 30       		.byte	0x30
 17266 04cb 2E       		.byte	0x2e
 17267 04cc 28       		.byte	0x28
 17268 04cd 0100     		.2byte	0x1
 17269 04cf 16       		.byte	0x16
 17270 04d0 13       		.byte	0x13
 17271 04d1 9F       		.byte	0x9f
 17272 04d2 00000000 		.4byte	0
 17273 04d6 00000000 		.4byte	0
 17274              	.LLST135:
 17275 04da 00000000 		.4byte	.LVL402
 17276 04de 12000000 		.4byte	.LVL405
 17277 04e2 0100     		.2byte	0x1
 17278 04e4 50       		.byte	0x50
 17279 04e5 12000000 		.4byte	.LVL405
 17280 04e9 B4000000 		.4byte	.LFE283
 17281 04ed 0100     		.2byte	0x1
 17282 04ef 54       		.byte	0x54
 17283 04f0 00000000 		.4byte	0
 17284 04f4 00000000 		.4byte	0
 17285              	.LLST136:
 17286 04f8 00000000 		.4byte	.LVL402
 17287 04fc 08000000 		.4byte	.LVL403
 17288 0500 0100     		.2byte	0x1
 17289 0502 51       		.byte	0x51
 17290 0503 08000000 		.4byte	.LVL403
 17291 0507 B4000000 		.4byte	.LFE283
 17292 050b 0100     		.2byte	0x1
 17293 050d 55       		.byte	0x55
 17294 050e 00000000 		.4byte	0
 17295 0512 00000000 		.4byte	0
 17296              	.LLST137:
 17297 0516 00000000 		.4byte	.LVL402
 17298 051a 26000000 		.4byte	.LVL407
 17299 051e 0100     		.2byte	0x1
 17300 0520 52       		.byte	0x52
 17301 0521 26000000 		.4byte	.LVL407
 17302 0525 B4000000 		.4byte	.LFE283
 17303 0529 0100     		.2byte	0x1
 17304 052b 5A       		.byte	0x5a
 17305 052c 00000000 		.4byte	0
 17306 0530 00000000 		.4byte	0
 17307              	.LLST138:
 17308 0534 00000000 		.4byte	.LVL402
 17309 0538 2B000000 		.4byte	.LVL408-1
 17310 053c 0100     		.2byte	0x1
 17311 053e 53       		.byte	0x53
 17312 053f 2B000000 		.4byte	.LVL408-1
 17313 0543 32000000 		.4byte	.LVL409
 17314 0547 0100     		.2byte	0x1
 17315 0549 56       		.byte	0x56
 17316 054a 32000000 		.4byte	.LVL409
 17317 054e 51000000 		.4byte	.LVL410-1
ARM GAS  /tmp/cccFXynL.s 			page 306


 17318 0552 0200     		.2byte	0x2
 17319 0554 78       		.byte	0x78
 17320 0555 04       		.sleb128 4
 17321 0556 51000000 		.4byte	.LVL410-1
 17322 055a B4000000 		.4byte	.LFE283
 17323 055e 0400     		.2byte	0x4
 17324 0560 F3       		.byte	0xf3
 17325 0561 01       		.uleb128 0x1
 17326 0562 53       		.byte	0x53
 17327 0563 9F       		.byte	0x9f
 17328 0564 00000000 		.4byte	0
 17329 0568 00000000 		.4byte	0
 17330              	.LLST139:
 17331 056c 6A000000 		.4byte	.LVL413
 17332 0570 78000000 		.4byte	.LVL414
 17333 0574 0100     		.2byte	0x1
 17334 0576 50       		.byte	0x50
 17335 0577 94000000 		.4byte	.LVL419
 17336 057b 99000000 		.4byte	.LVL420-1
 17337 057f 0100     		.2byte	0x1
 17338 0581 50       		.byte	0x50
 17339 0582 00000000 		.4byte	0
 17340 0586 00000000 		.4byte	0
 17341              	.LLST140:
 17342 058a 7C000000 		.4byte	.LVL415
 17343 058e 80000000 		.4byte	.LVL416
 17344 0592 0100     		.2byte	0x1
 17345 0594 50       		.byte	0x50
 17346 0595 80000000 		.4byte	.LVL416
 17347 0599 83000000 		.4byte	.LVL417-1
 17348 059d 0100     		.2byte	0x1
 17349 059f 51       		.byte	0x51
 17350 05a0 00000000 		.4byte	0
 17351 05a4 00000000 		.4byte	0
 17352              	.LLST141:
 17353 05a8 84000000 		.4byte	.LVL417
 17354 05ac 8E000000 		.4byte	.LVL418
 17355 05b0 0100     		.2byte	0x1
 17356 05b2 50       		.byte	0x50
 17357 05b3 00000000 		.4byte	0
 17358 05b7 00000000 		.4byte	0
 17359              	.LLST134:
 17360 05bb 0E000000 		.4byte	.LVL404
 17361 05bf 12000000 		.4byte	.LVL405
 17362 05c3 0800     		.2byte	0x8
 17363 05c5 70       		.byte	0x70
 17364 05c6 1C       		.sleb128 28
 17365 05c7 06       		.byte	0x6
 17366 05c8 32       		.byte	0x32
 17367 05c9 25       		.byte	0x25
 17368 05ca 31       		.byte	0x31
 17369 05cb 1C       		.byte	0x1c
 17370 05cc 9F       		.byte	0x9f
 17371 05cd 12000000 		.4byte	.LVL405
 17372 05d1 2B000000 		.4byte	.LVL408-1
 17373 05d5 0800     		.2byte	0x8
 17374 05d7 74       		.byte	0x74
ARM GAS  /tmp/cccFXynL.s 			page 307


 17375 05d8 1C       		.sleb128 28
 17376 05d9 06       		.byte	0x6
 17377 05da 32       		.byte	0x32
 17378 05db 25       		.byte	0x25
 17379 05dc 31       		.byte	0x31
 17380 05dd 1C       		.byte	0x1c
 17381 05de 9F       		.byte	0x9f
 17382 05df 00000000 		.4byte	0
 17383 05e3 00000000 		.4byte	0
 17384              	.LLST23:
 17385 05e7 00000000 		.4byte	.LVL105
 17386 05eb 21000000 		.4byte	.LVL109-1
 17387 05ef 0100     		.2byte	0x1
 17388 05f1 50       		.byte	0x50
 17389 05f2 21000000 		.4byte	.LVL109-1
 17390 05f6 42000000 		.4byte	.LVL111
 17391 05fa 0100     		.2byte	0x1
 17392 05fc 57       		.byte	0x57
 17393 05fd 42000000 		.4byte	.LVL111
 17394 0601 45000000 		.4byte	.LVL112-1
 17395 0605 0100     		.2byte	0x1
 17396 0607 50       		.byte	0x50
 17397 0608 45000000 		.4byte	.LVL112-1
 17398 060c 46000000 		.4byte	.LVL112
 17399 0610 0400     		.2byte	0x4
 17400 0612 F3       		.byte	0xf3
 17401 0613 01       		.uleb128 0x1
 17402 0614 50       		.byte	0x50
 17403 0615 9F       		.byte	0x9f
 17404 0616 46000000 		.4byte	.LVL112
 17405 061a 94000000 		.4byte	.LFE281
 17406 061e 0100     		.2byte	0x1
 17407 0620 57       		.byte	0x57
 17408 0621 00000000 		.4byte	0
 17409 0625 00000000 		.4byte	0
 17410              	.LLST24:
 17411 0629 00000000 		.4byte	.LVL105
 17412 062d 1E000000 		.4byte	.LVL108
 17413 0631 0100     		.2byte	0x1
 17414 0633 51       		.byte	0x51
 17415 0634 1E000000 		.4byte	.LVL108
 17416 0638 94000000 		.4byte	.LFE281
 17417 063c 0400     		.2byte	0x4
 17418 063e F3       		.byte	0xf3
 17419 063f 01       		.uleb128 0x1
 17420 0640 51       		.byte	0x51
 17421 0641 9F       		.byte	0x9f
 17422 0642 00000000 		.4byte	0
 17423 0646 00000000 		.4byte	0
 17424              	.LLST25:
 17425 064a 04000000 		.4byte	.LVL106
 17426 064e 42000000 		.4byte	.LVL111
 17427 0652 0100     		.2byte	0x1
 17428 0654 56       		.byte	0x56
 17429 0655 46000000 		.4byte	.LVL112
 17430 0659 94000000 		.4byte	.LFE281
 17431 065d 0100     		.2byte	0x1
ARM GAS  /tmp/cccFXynL.s 			page 308


 17432 065f 56       		.byte	0x56
 17433 0660 00000000 		.4byte	0
 17434 0664 00000000 		.4byte	0
 17435              	.LLST26:
 17436 0668 04000000 		.4byte	.LVL106
 17437 066c 10000000 		.4byte	.LVL107
 17438 0670 0600     		.2byte	0x6
 17439 0672 9E       		.byte	0x9e
 17440 0673 04       		.uleb128 0x4
 17441 0674 01005FA0 		.4byte	0xa05f0001
 17442 0678 10000000 		.4byte	.LVL107
 17443 067c 42000000 		.4byte	.LVL111
 17444 0680 0100     		.2byte	0x1
 17445 0682 54       		.byte	0x54
 17446 0683 42000000 		.4byte	.LVL111
 17447 0687 45000000 		.4byte	.LVL112-1
 17448 068b 0100     		.2byte	0x1
 17449 068d 52       		.byte	0x52
 17450 068e 46000000 		.4byte	.LVL112
 17451 0692 94000000 		.4byte	.LFE281
 17452 0696 0100     		.2byte	0x1
 17453 0698 54       		.byte	0x54
 17454 0699 00000000 		.4byte	0
 17455 069d 00000000 		.4byte	0
 17456              	.LLST27:
 17457 06a1 50000000 		.4byte	.LVL114
 17458 06a5 52000000 		.4byte	.LVL115
 17459 06a9 0100     		.2byte	0x1
 17460 06ab 50       		.byte	0x50
 17461 06ac 52000000 		.4byte	.LVL115
 17462 06b0 55000000 		.4byte	.LVL116-1
 17463 06b4 0100     		.2byte	0x1
 17464 06b6 51       		.byte	0x51
 17465 06b7 55000000 		.4byte	.LVL116-1
 17466 06bb 94000000 		.4byte	.LFE281
 17467 06bf 0100     		.2byte	0x1
 17468 06c1 55       		.byte	0x55
 17469 06c2 00000000 		.4byte	0
 17470 06c6 00000000 		.4byte	0
 17471              	.LLST28:
 17472 06ca 60000000 		.4byte	.LVL117
 17473 06ce 62000000 		.4byte	.LVL118
 17474 06d2 0300     		.2byte	0x3
 17475 06d4 75       		.byte	0x75
 17476 06d5 02       		.sleb128 2
 17477 06d6 9F       		.byte	0x9f
 17478 06d7 62000000 		.4byte	.LVL118
 17479 06db 69000000 		.4byte	.LVL119-1
 17480 06df 0100     		.2byte	0x1
 17481 06e1 52       		.byte	0x52
 17482 06e2 69000000 		.4byte	.LVL119-1
 17483 06e6 94000000 		.4byte	.LFE281
 17484 06ea 0300     		.2byte	0x3
 17485 06ec 75       		.byte	0x75
 17486 06ed 02       		.sleb128 2
 17487 06ee 9F       		.byte	0x9f
 17488 06ef 00000000 		.4byte	0
ARM GAS  /tmp/cccFXynL.s 			page 309


 17489 06f3 00000000 		.4byte	0
 17490              	.LLST29:
 17491 06f7 00000000 		.4byte	.LVL121
 17492 06fb 20000000 		.4byte	.LVL122
 17493 06ff 0100     		.2byte	0x1
 17494 0701 50       		.byte	0x50
 17495 0702 20000000 		.4byte	.LVL122
 17496 0706 35000000 		.4byte	.LVL124-1
 17497 070a 0100     		.2byte	0x1
 17498 070c 5C       		.byte	0x5c
 17499 070d 35000000 		.4byte	.LVL124-1
 17500 0711 64000000 		.4byte	.LVL126
 17501 0715 0200     		.2byte	0x2
 17502 0717 7D       		.byte	0x7d
 17503 0718 3C       		.sleb128 60
 17504 0719 64000000 		.4byte	.LVL126
 17505 071d 6E000000 		.4byte	.LVL127
 17506 0721 0400     		.2byte	0x4
 17507 0723 F3       		.byte	0xf3
 17508 0724 01       		.uleb128 0x1
 17509 0725 50       		.byte	0x50
 17510 0726 9F       		.byte	0x9f
 17511 0727 6E000000 		.4byte	.LVL127
 17512 072b 0C010000 		.4byte	.LVL141
 17513 072f 0200     		.2byte	0x2
 17514 0731 7D       		.byte	0x7d
 17515 0732 3C       		.sleb128 60
 17516 0733 0C010000 		.4byte	.LVL141
 17517 0737 22020000 		.4byte	.LVL174
 17518 073b 0300     		.2byte	0x3
 17519 073d 91       		.byte	0x91
 17520 073e C47E     		.sleb128 -188
 17521 0740 22020000 		.4byte	.LVL174
 17522 0744 26020000 		.4byte	.LVL175
 17523 0748 0400     		.2byte	0x4
 17524 074a F3       		.byte	0xf3
 17525 074b 01       		.uleb128 0x1
 17526 074c 50       		.byte	0x50
 17527 074d 9F       		.byte	0x9f
 17528 074e 26020000 		.4byte	.LVL175
 17529 0752 68020000 		.4byte	.LVL185
 17530 0756 0300     		.2byte	0x3
 17531 0758 91       		.byte	0x91
 17532 0759 C47E     		.sleb128 -188
 17533 075b 68020000 		.4byte	.LVL185
 17534 075f DA030000 		.4byte	.LVL213
 17535 0763 0400     		.2byte	0x4
 17536 0765 F3       		.byte	0xf3
 17537 0766 01       		.uleb128 0x1
 17538 0767 50       		.byte	0x50
 17539 0768 9F       		.byte	0x9f
 17540 0769 DA030000 		.4byte	.LVL213
 17541 076d E4030000 		.4byte	.LVL215
 17542 0771 0300     		.2byte	0x3
 17543 0773 91       		.byte	0x91
 17544 0774 C47E     		.sleb128 -188
 17545 0776 E4030000 		.4byte	.LVL215
ARM GAS  /tmp/cccFXynL.s 			page 310


 17546 077a 10040000 		.4byte	.LFE280
 17547 077e 0400     		.2byte	0x4
 17548 0780 F3       		.byte	0xf3
 17549 0781 01       		.uleb128 0x1
 17550 0782 50       		.byte	0x50
 17551 0783 9F       		.byte	0x9f
 17552 0784 00000000 		.4byte	0
 17553 0788 00000000 		.4byte	0
 17554              	.LLST30:
 17555 078c 00000000 		.4byte	.LVL121
 17556 0790 35000000 		.4byte	.LVL124-1
 17557 0794 0100     		.2byte	0x1
 17558 0796 51       		.byte	0x51
 17559 0797 35000000 		.4byte	.LVL124-1
 17560 079b 64000000 		.4byte	.LVL126
 17561 079f 0200     		.2byte	0x2
 17562 07a1 7D       		.byte	0x7d
 17563 07a2 34       		.sleb128 52
 17564 07a3 64000000 		.4byte	.LVL126
 17565 07a7 6E000000 		.4byte	.LVL127
 17566 07ab 0400     		.2byte	0x4
 17567 07ad F3       		.byte	0xf3
 17568 07ae 01       		.uleb128 0x1
 17569 07af 51       		.byte	0x51
 17570 07b0 9F       		.byte	0x9f
 17571 07b1 6E000000 		.4byte	.LVL127
 17572 07b5 0C010000 		.4byte	.LVL141
 17573 07b9 0200     		.2byte	0x2
 17574 07bb 7D       		.byte	0x7d
 17575 07bc 34       		.sleb128 52
 17576 07bd 0C010000 		.4byte	.LVL141
 17577 07c1 22020000 		.4byte	.LVL174
 17578 07c5 0300     		.2byte	0x3
 17579 07c7 91       		.byte	0x91
 17580 07c8 BC7E     		.sleb128 -196
 17581 07ca 22020000 		.4byte	.LVL174
 17582 07ce 26020000 		.4byte	.LVL175
 17583 07d2 0400     		.2byte	0x4
 17584 07d4 F3       		.byte	0xf3
 17585 07d5 01       		.uleb128 0x1
 17586 07d6 51       		.byte	0x51
 17587 07d7 9F       		.byte	0x9f
 17588 07d8 26020000 		.4byte	.LVL175
 17589 07dc 68020000 		.4byte	.LVL185
 17590 07e0 0300     		.2byte	0x3
 17591 07e2 91       		.byte	0x91
 17592 07e3 BC7E     		.sleb128 -196
 17593 07e5 68020000 		.4byte	.LVL185
 17594 07e9 DA030000 		.4byte	.LVL213
 17595 07ed 0400     		.2byte	0x4
 17596 07ef F3       		.byte	0xf3
 17597 07f0 01       		.uleb128 0x1
 17598 07f1 51       		.byte	0x51
 17599 07f2 9F       		.byte	0x9f
 17600 07f3 DA030000 		.4byte	.LVL213
 17601 07f7 E4030000 		.4byte	.LVL215
 17602 07fb 0300     		.2byte	0x3
ARM GAS  /tmp/cccFXynL.s 			page 311


 17603 07fd 91       		.byte	0x91
 17604 07fe BC7E     		.sleb128 -196
 17605 0800 E4030000 		.4byte	.LVL215
 17606 0804 10040000 		.4byte	.LFE280
 17607 0808 0400     		.2byte	0x4
 17608 080a F3       		.byte	0xf3
 17609 080b 01       		.uleb128 0x1
 17610 080c 51       		.byte	0x51
 17611 080d 9F       		.byte	0x9f
 17612 080e 00000000 		.4byte	0
 17613 0812 00000000 		.4byte	0
 17614              	.LLST31:
 17615 0816 2C000000 		.4byte	.LVL123
 17616 081a 35000000 		.4byte	.LVL124-1
 17617 081e 0100     		.2byte	0x1
 17618 0820 53       		.byte	0x53
 17619 0821 35000000 		.4byte	.LVL124-1
 17620 0825 64000000 		.4byte	.LVL126
 17621 0829 0200     		.2byte	0x2
 17622 082b 7D       		.byte	0x7d
 17623 082c 38       		.sleb128 56
 17624 082d 6E000000 		.4byte	.LVL127
 17625 0831 0C010000 		.4byte	.LVL141
 17626 0835 0200     		.2byte	0x2
 17627 0837 7D       		.byte	0x7d
 17628 0838 38       		.sleb128 56
 17629 0839 0C010000 		.4byte	.LVL141
 17630 083d 22020000 		.4byte	.LVL174
 17631 0841 0300     		.2byte	0x3
 17632 0843 91       		.byte	0x91
 17633 0844 C07E     		.sleb128 -192
 17634 0846 26020000 		.4byte	.LVL175
 17635 084a 68020000 		.4byte	.LVL185
 17636 084e 0300     		.2byte	0x3
 17637 0850 91       		.byte	0x91
 17638 0851 C07E     		.sleb128 -192
 17639 0853 DA030000 		.4byte	.LVL213
 17640 0857 E4030000 		.4byte	.LVL215
 17641 085b 0300     		.2byte	0x3
 17642 085d 91       		.byte	0x91
 17643 085e C07E     		.sleb128 -192
 17644 0860 00000000 		.4byte	0
 17645 0864 00000000 		.4byte	0
 17646              	.LLST32:
 17647 0868 84000000 		.4byte	.LVL129
 17648 086c 88000000 		.4byte	.LVL130
 17649 0870 0100     		.2byte	0x1
 17650 0872 50       		.byte	0x50
 17651 0873 88000000 		.4byte	.LVL130
 17652 0877 8B000000 		.4byte	.LVL131-1
 17653 087b 0100     		.2byte	0x1
 17654 087d 52       		.byte	0x52
 17655 087e 8B000000 		.4byte	.LVL131-1
 17656 0882 C2000000 		.4byte	.LVL134
 17657 0886 0100     		.2byte	0x1
 17658 0888 54       		.byte	0x54
 17659 0889 10010000 		.4byte	.LVL142
ARM GAS  /tmp/cccFXynL.s 			page 312


 17660 088d E4010000 		.4byte	.LVL164
 17661 0891 0100     		.2byte	0x1
 17662 0893 54       		.byte	0x54
 17663 0894 FC010000 		.4byte	.LVL168
 17664 0898 1E020000 		.4byte	.LVL173
 17665 089c 0100     		.2byte	0x1
 17666 089e 54       		.byte	0x54
 17667 089f 26020000 		.4byte	.LVL175
 17668 08a3 2C020000 		.4byte	.LVL178
 17669 08a7 0100     		.2byte	0x1
 17670 08a9 54       		.byte	0x54
 17671 08aa DA030000 		.4byte	.LVL213
 17672 08ae E4030000 		.4byte	.LVL215
 17673 08b2 0100     		.2byte	0x1
 17674 08b4 54       		.byte	0x54
 17675 08b5 00000000 		.4byte	0
 17676 08b9 00000000 		.4byte	0
 17677              	.LLST46:
 17678 08bd 04020000 		.4byte	.LVL169
 17679 08c1 08020000 		.4byte	.LVL170
 17680 08c5 0100     		.2byte	0x1
 17681 08c7 50       		.byte	0x50
 17682 08c8 08020000 		.4byte	.LVL170
 17683 08cc 0B020000 		.4byte	.LVL171-1
 17684 08d0 0100     		.2byte	0x1
 17685 08d2 51       		.byte	0x51
 17686 08d3 00000000 		.4byte	0
 17687 08d7 00000000 		.4byte	0
 17688              	.LLST47:
 17689 08db 0C020000 		.4byte	.LVL171
 17690 08df 16020000 		.4byte	.LVL172
 17691 08e3 0100     		.2byte	0x1
 17692 08e5 50       		.byte	0x50
 17693 08e6 2A020000 		.4byte	.LVL177
 17694 08ea 44020000 		.4byte	.LVL181
 17695 08ee 0100     		.2byte	0x1
 17696 08f0 50       		.byte	0x50
 17697 08f1 00000000 		.4byte	0
 17698 08f5 00000000 		.4byte	0
 17699              	.LLST48:
 17700 08f9 2A020000 		.4byte	.LVL177
 17701 08fd 68020000 		.4byte	.LVL185
 17702 0901 0300     		.2byte	0x3
 17703 0903 91       		.byte	0x91
 17704 0904 C47E     		.sleb128 -188
 17705 0906 00000000 		.4byte	0
 17706 090a 00000000 		.4byte	0
 17707              	.LLST50:
 17708 090e 40020000 		.4byte	.LVL180
 17709 0912 B4020000 		.4byte	.LVL191
 17710 0916 0200     		.2byte	0x2
 17711 0918 75       		.byte	0x75
 17712 0919 00       		.sleb128 0
 17713 091a E8020000 		.4byte	.LVL193
 17714 091e DA030000 		.4byte	.LVL213
 17715 0922 0200     		.2byte	0x2
 17716 0924 75       		.byte	0x75
ARM GAS  /tmp/cccFXynL.s 			page 313


 17717 0925 00       		.sleb128 0
 17718 0926 E4030000 		.4byte	.LVL215
 17719 092a 10040000 		.4byte	.LFE280
 17720 092e 0200     		.2byte	0x2
 17721 0930 75       		.byte	0x75
 17722 0931 00       		.sleb128 0
 17723 0932 00000000 		.4byte	0
 17724 0936 00000000 		.4byte	0
 17725              	.LLST51:
 17726 093a 60020000 		.4byte	.LVL184
 17727 093e 70020000 		.4byte	.LVL186
 17728 0942 0100     		.2byte	0x1
 17729 0944 54       		.byte	0x54
 17730 0945 70020000 		.4byte	.LVL186
 17731 0949 73020000 		.4byte	.LVL187-1
 17732 094d 0100     		.2byte	0x1
 17733 094f 51       		.byte	0x51
 17734 0950 73020000 		.4byte	.LVL187-1
 17735 0954 A0020000 		.4byte	.LVL188
 17736 0958 0300     		.2byte	0x3
 17737 095a 74       		.byte	0x74
 17738 095b 01       		.sleb128 1
 17739 095c 9F       		.byte	0x9f
 17740 095d E8020000 		.4byte	.LVL193
 17741 0961 8E030000 		.4byte	.LVL207
 17742 0965 0300     		.2byte	0x3
 17743 0967 74       		.byte	0x74
 17744 0968 01       		.sleb128 1
 17745 0969 9F       		.byte	0x9f
 17746 096a E8030000 		.4byte	.LVL217
 17747 096e EC030000 		.4byte	.LVL218
 17748 0972 0300     		.2byte	0x3
 17749 0974 74       		.byte	0x74
 17750 0975 01       		.sleb128 1
 17751 0976 9F       		.byte	0x9f
 17752 0977 00000000 		.4byte	0
 17753 097b 00000000 		.4byte	0
 17754              	.LLST52:
 17755 097f 60020000 		.4byte	.LVL184
 17756 0983 A0020000 		.4byte	.LVL188
 17757 0987 0200     		.2byte	0x2
 17758 0989 30       		.byte	0x30
 17759 098a 9F       		.byte	0x9f
 17760 098b A0020000 		.4byte	.LVL188
 17761 098f A8020000 		.4byte	.LVL189
 17762 0993 0100     		.2byte	0x1
 17763 0995 50       		.byte	0x50
 17764 0996 A8020000 		.4byte	.LVL189
 17765 099a AB020000 		.4byte	.LVL190-1
 17766 099e 0200     		.2byte	0x2
 17767 09a0 71       		.byte	0x71
 17768 09a1 00       		.sleb128 0
 17769 09a2 E8020000 		.4byte	.LVL193
 17770 09a6 F0020000 		.4byte	.LVL194
 17771 09aa 0200     		.2byte	0x2
 17772 09ac 30       		.byte	0x30
 17773 09ad 9F       		.byte	0x9f
ARM GAS  /tmp/cccFXynL.s 			page 314


 17774 09ae F0020000 		.4byte	.LVL194
 17775 09b2 F2020000 		.4byte	.LVL195
 17776 09b6 0100     		.2byte	0x1
 17777 09b8 50       		.byte	0x50
 17778 09b9 F2020000 		.4byte	.LVL195
 17779 09bd 50030000 		.4byte	.LVL200
 17780 09c1 0200     		.2byte	0x2
 17781 09c3 30       		.byte	0x30
 17782 09c4 9F       		.byte	0x9f
 17783 09c5 50030000 		.4byte	.LVL200
 17784 09c9 5A030000 		.4byte	.LVL202
 17785 09cd 0100     		.2byte	0x1
 17786 09cf 50       		.byte	0x50
 17787 09d0 5A030000 		.4byte	.LVL202
 17788 09d4 68030000 		.4byte	.LVL203
 17789 09d8 0200     		.2byte	0x2
 17790 09da 30       		.byte	0x30
 17791 09db 9F       		.byte	0x9f
 17792 09dc 68030000 		.4byte	.LVL203
 17793 09e0 6E030000 		.4byte	.LVL204
 17794 09e4 0100     		.2byte	0x1
 17795 09e6 50       		.byte	0x50
 17796 09e7 6E030000 		.4byte	.LVL204
 17797 09eb D6030000 		.4byte	.LVL211
 17798 09ef 0200     		.2byte	0x2
 17799 09f1 30       		.byte	0x30
 17800 09f2 9F       		.byte	0x9f
 17801 09f3 D8030000 		.4byte	.LVL212
 17802 09f7 DA030000 		.4byte	.LVL213
 17803 09fb 0100     		.2byte	0x1
 17804 09fd 50       		.byte	0x50
 17805 09fe E4030000 		.4byte	.LVL215
 17806 0a02 E6030000 		.4byte	.LVL216
 17807 0a06 0200     		.2byte	0x2
 17808 0a08 30       		.byte	0x30
 17809 0a09 9F       		.byte	0x9f
 17810 0a0a E6030000 		.4byte	.LVL216
 17811 0a0e E8030000 		.4byte	.LVL217
 17812 0a12 0100     		.2byte	0x1
 17813 0a14 50       		.byte	0x50
 17814 0a15 E8030000 		.4byte	.LVL217
 17815 0a19 00040000 		.4byte	.LVL219
 17816 0a1d 0200     		.2byte	0x2
 17817 0a1f 30       		.byte	0x30
 17818 0a20 9F       		.byte	0x9f
 17819 0a21 00040000 		.4byte	.LVL219
 17820 0a25 10040000 		.4byte	.LFE280
 17821 0a29 0100     		.2byte	0x1
 17822 0a2b 50       		.byte	0x50
 17823 0a2c 00000000 		.4byte	0
 17824 0a30 00000000 		.4byte	0
 17825              	.LLST53:
 17826 0a34 B4030000 		.4byte	.LVL208
 17827 0a38 D6030000 		.4byte	.LVL211
 17828 0a3c 0100     		.2byte	0x1
 17829 0a3e 54       		.byte	0x54
 17830 0a3f E4030000 		.4byte	.LVL215
ARM GAS  /tmp/cccFXynL.s 			page 315


 17831 0a43 E8030000 		.4byte	.LVL217
 17832 0a47 0100     		.2byte	0x1
 17833 0a49 54       		.byte	0x54
 17834 0a4a EC030000 		.4byte	.LVL218
 17835 0a4e 02040000 		.4byte	.LVL220
 17836 0a52 0100     		.2byte	0x1
 17837 0a54 54       		.byte	0x54
 17838 0a55 00000000 		.4byte	0
 17839 0a59 00000000 		.4byte	0
 17840              	.LLST33:
 17841 0a5d AE000000 		.4byte	.LVL132
 17842 0a61 FA000000 		.4byte	.LVL139
 17843 0a65 0200     		.2byte	0x2
 17844 0a67 7D       		.byte	0x7d
 17845 0a68 3C       		.sleb128 60
 17846 0a69 1E020000 		.4byte	.LVL173
 17847 0a6d 22020000 		.4byte	.LVL174
 17848 0a71 0300     		.2byte	0x3
 17849 0a73 91       		.byte	0x91
 17850 0a74 C47E     		.sleb128 -188
 17851 0a76 00000000 		.4byte	0
 17852 0a7a 00000000 		.4byte	0
 17853              	.LLST34:
 17854 0a7e B2000000 		.4byte	.LVL133
 17855 0a82 FA000000 		.4byte	.LVL139
 17856 0a86 0100     		.2byte	0x1
 17857 0a88 56       		.byte	0x56
 17858 0a89 1E020000 		.4byte	.LVL173
 17859 0a8d 22020000 		.4byte	.LVL174
 17860 0a91 0100     		.2byte	0x1
 17861 0a93 56       		.byte	0x56
 17862 0a94 00000000 		.4byte	0
 17863 0a98 00000000 		.4byte	0
 17864              	.LLST35:
 17865 0a9c B2000000 		.4byte	.LVL133
 17866 0aa0 C4000000 		.4byte	.LVL135
 17867 0aa4 0200     		.2byte	0x2
 17868 0aa6 30       		.byte	0x30
 17869 0aa7 9F       		.byte	0x9f
 17870 0aa8 C4000000 		.4byte	.LVL135
 17871 0aac FA000000 		.4byte	.LVL139
 17872 0ab0 0100     		.2byte	0x1
 17873 0ab2 54       		.byte	0x54
 17874 0ab3 00000000 		.4byte	0
 17875 0ab7 00000000 		.4byte	0
 17876              	.LLST36:
 17877 0abb 28010000 		.4byte	.LVL143
 17878 0abf FA010000 		.4byte	.LVL167
 17879 0ac3 0300     		.2byte	0x3
 17880 0ac5 91       		.byte	0x91
 17881 0ac6 C47E     		.sleb128 -188
 17882 0ac8 26020000 		.4byte	.LVL175
 17883 0acc 28020000 		.4byte	.LVL176
 17884 0ad0 0300     		.2byte	0x3
 17885 0ad2 91       		.byte	0x91
 17886 0ad3 C47E     		.sleb128 -188
 17887 0ad5 DA030000 		.4byte	.LVL213
ARM GAS  /tmp/cccFXynL.s 			page 316


 17888 0ad9 E4030000 		.4byte	.LVL215
 17889 0add 0300     		.2byte	0x3
 17890 0adf 91       		.byte	0x91
 17891 0ae0 C47E     		.sleb128 -188
 17892 0ae2 00000000 		.4byte	0
 17893 0ae6 00000000 		.4byte	0
 17894              	.LLST37:
 17895 0aea 3E010000 		.4byte	.LVL145
 17896 0aee 40010000 		.4byte	.LVL146
 17897 0af2 0100     		.2byte	0x1
 17898 0af4 50       		.byte	0x50
 17899 0af5 40010000 		.4byte	.LVL146
 17900 0af9 7A010000 		.4byte	.LVL153
 17901 0afd 0100     		.2byte	0x1
 17902 0aff 55       		.byte	0x55
 17903 0b00 00000000 		.4byte	0
 17904 0b04 00000000 		.4byte	0
 17905              	.LLST38:
 17906 0b08 48010000 		.4byte	.LVL148
 17907 0b0c 4C010000 		.4byte	.LVL149
 17908 0b10 0100     		.2byte	0x1
 17909 0b12 50       		.byte	0x50
 17910 0b13 4C010000 		.4byte	.LVL149
 17911 0b17 8A010000 		.4byte	.LVL156
 17912 0b1b 0100     		.2byte	0x1
 17913 0b1d 59       		.byte	0x59
 17914 0b1e 00000000 		.4byte	0
 17915 0b22 00000000 		.4byte	0
 17916              	.LLST40:
 17917 0b26 7A010000 		.4byte	.LVL153
 17918 0b2a FA010000 		.4byte	.LVL167
 17919 0b2e 0200     		.2byte	0x2
 17920 0b30 75       		.byte	0x75
 17921 0b31 00       		.sleb128 0
 17922 0b32 26020000 		.4byte	.LVL175
 17923 0b36 28020000 		.4byte	.LVL176
 17924 0b3a 0200     		.2byte	0x2
 17925 0b3c 75       		.byte	0x75
 17926 0b3d 00       		.sleb128 0
 17927 0b3e DA030000 		.4byte	.LVL213
 17928 0b42 E4030000 		.4byte	.LVL215
 17929 0b46 0200     		.2byte	0x2
 17930 0b48 75       		.byte	0x75
 17931 0b49 00       		.sleb128 0
 17932 0b4a 00000000 		.4byte	0
 17933 0b4e 00000000 		.4byte	0
 17934              	.LLST41:
 17935 0b52 82010000 		.4byte	.LVL155
 17936 0b56 B0010000 		.4byte	.LVL160
 17937 0b5a 0100     		.2byte	0x1
 17938 0b5c 56       		.byte	0x56
 17939 0b5d 26020000 		.4byte	.LVL175
 17940 0b61 28020000 		.4byte	.LVL176
 17941 0b65 0100     		.2byte	0x1
 17942 0b67 56       		.byte	0x56
 17943 0b68 00000000 		.4byte	0
 17944 0b6c 00000000 		.4byte	0
ARM GAS  /tmp/cccFXynL.s 			page 317


 17945              	.LLST42:
 17946 0b70 BA010000 		.4byte	.LVL161
 17947 0b74 CE010000 		.4byte	.LVL163
 17948 0b78 0100     		.2byte	0x1
 17949 0b7a 53       		.byte	0x53
 17950 0b7b DA030000 		.4byte	.LVL213
 17951 0b7f DE030000 		.4byte	.LVL214
 17952 0b83 0100     		.2byte	0x1
 17953 0b85 53       		.byte	0x53
 17954 0b86 00000000 		.4byte	0
 17955 0b8a 00000000 		.4byte	0
 17956              	.LLST43:
 17957 0b8e 82010000 		.4byte	.LVL155
 17958 0b92 B0010000 		.4byte	.LVL160
 17959 0b96 0700     		.2byte	0x7
 17960 0b98 76       		.byte	0x76
 17961 0b99 00       		.sleb128 0
 17962 0b9a 34       		.byte	0x34
 17963 0b9b 1A       		.byte	0x1a
 17964 0b9c 30       		.byte	0x30
 17965 0b9d 2E       		.byte	0x2e
 17966 0b9e 9F       		.byte	0x9f
 17967 0b9f 26020000 		.4byte	.LVL175
 17968 0ba3 2A020000 		.4byte	.LVL177
 17969 0ba7 0700     		.2byte	0x7
 17970 0ba9 76       		.byte	0x76
 17971 0baa 00       		.sleb128 0
 17972 0bab 34       		.byte	0x34
 17973 0bac 1A       		.byte	0x1a
 17974 0bad 30       		.byte	0x30
 17975 0bae 2E       		.byte	0x2e
 17976 0baf 9F       		.byte	0x9f
 17977 0bb0 00000000 		.4byte	0
 17978 0bb4 00000000 		.4byte	0
 17979              	.LLST44:
 17980 0bb8 82010000 		.4byte	.LVL155
 17981 0bbc B0010000 		.4byte	.LVL160
 17982 0bc0 0700     		.2byte	0x7
 17983 0bc2 76       		.byte	0x76
 17984 0bc3 00       		.sleb128 0
 17985 0bc4 40       		.byte	0x40
 17986 0bc5 1A       		.byte	0x1a
 17987 0bc6 30       		.byte	0x30
 17988 0bc7 29       		.byte	0x29
 17989 0bc8 9F       		.byte	0x9f
 17990 0bc9 B0010000 		.4byte	.LVL160
 17991 0bcd FC010000 		.4byte	.LVL168
 17992 0bd1 0500     		.2byte	0x5
 17993 0bd3 76       		.byte	0x76
 17994 0bd4 00       		.sleb128 0
 17995 0bd5 30       		.byte	0x30
 17996 0bd6 29       		.byte	0x29
 17997 0bd7 9F       		.byte	0x9f
 17998 0bd8 26020000 		.4byte	.LVL175
 17999 0bdc 2A020000 		.4byte	.LVL177
 18000 0be0 0700     		.2byte	0x7
 18001 0be2 76       		.byte	0x76
ARM GAS  /tmp/cccFXynL.s 			page 318


 18002 0be3 00       		.sleb128 0
 18003 0be4 40       		.byte	0x40
 18004 0be5 1A       		.byte	0x1a
 18005 0be6 30       		.byte	0x30
 18006 0be7 29       		.byte	0x29
 18007 0be8 9F       		.byte	0x9f
 18008 0be9 DA030000 		.4byte	.LVL213
 18009 0bed E4030000 		.4byte	.LVL215
 18010 0bf1 0500     		.2byte	0x5
 18011 0bf3 76       		.byte	0x76
 18012 0bf4 00       		.sleb128 0
 18013 0bf5 30       		.byte	0x30
 18014 0bf6 29       		.byte	0x29
 18015 0bf7 9F       		.byte	0x9f
 18016 0bf8 00000000 		.4byte	0
 18017 0bfc 00000000 		.4byte	0
 18018              	.LLST45:
 18019 0c00 90010000 		.4byte	.LVL157
 18020 0c04 9B010000 		.4byte	.LVL158-1
 18021 0c08 0100     		.2byte	0x1
 18022 0c0a 52       		.byte	0x52
 18023 0c0b 00000000 		.4byte	0
 18024 0c0f 00000000 		.4byte	0
 18025              	.LLST39:
 18026 0c13 74010000 		.4byte	.LVL152
 18027 0c17 7F010000 		.4byte	.LVL154-1
 18028 0c1b 0800     		.2byte	0x8
 18029 0c1d 70       		.byte	0x70
 18030 0c1e 1C       		.sleb128 28
 18031 0c1f 06       		.byte	0x6
 18032 0c20 32       		.byte	0x32
 18033 0c21 25       		.byte	0x25
 18034 0c22 31       		.byte	0x31
 18035 0c23 1C       		.byte	0x1c
 18036 0c24 9F       		.byte	0x9f
 18037 0c25 00000000 		.4byte	0
 18038 0c29 00000000 		.4byte	0
 18039              	.LLST49:
 18040 0c2d 3A020000 		.4byte	.LVL179
 18041 0c31 4D020000 		.4byte	.LVL182-1
 18042 0c35 0A00     		.2byte	0xa
 18043 0c37 91       		.byte	0x91
 18044 0c38 C47E     		.sleb128 -188
 18045 0c3a 06       		.byte	0x6
 18046 0c3b 23       		.byte	0x23
 18047 0c3c 1C       		.uleb128 0x1c
 18048 0c3d 06       		.byte	0x6
 18049 0c3e 31       		.byte	0x31
 18050 0c3f 1C       		.byte	0x1c
 18051 0c40 9F       		.byte	0x9f
 18052 0c41 00000000 		.4byte	0
 18053 0c45 00000000 		.4byte	0
 18054              	.LLST22:
 18055 0c49 00000000 		.4byte	.LVL99
 18056 0c4d 14000000 		.4byte	.LVL100
 18057 0c51 0100     		.2byte	0x1
 18058 0c53 50       		.byte	0x50
ARM GAS  /tmp/cccFXynL.s 			page 319


 18059 0c54 14000000 		.4byte	.LVL100
 18060 0c58 52000000 		.4byte	.LVL104
 18061 0c5c 0300     		.2byte	0x3
 18062 0c5e 91       		.byte	0x91
 18063 0c5f FC7E     		.sleb128 -132
 18064 0c61 52000000 		.4byte	.LVL104
 18065 0c65 64000000 		.4byte	.LFE279
 18066 0c69 0300     		.2byte	0x3
 18067 0c6b 7D       		.byte	0x7d
 18068 0c6c FC7E     		.sleb128 -132
 18069 0c6e 00000000 		.4byte	0
 18070 0c72 00000000 		.4byte	0
 18071              	.LLST104:
 18072 0c76 00000000 		.4byte	.LVL315
 18073 0c7a 06000000 		.4byte	.LVL316
 18074 0c7e 0100     		.2byte	0x1
 18075 0c80 50       		.byte	0x50
 18076 0c81 06000000 		.4byte	.LVL316
 18077 0c85 44000000 		.4byte	.LVL322
 18078 0c89 0100     		.2byte	0x1
 18079 0c8b 54       		.byte	0x54
 18080 0c8c 44000000 		.4byte	.LVL322
 18081 0c90 48000000 		.4byte	.LVL323
 18082 0c94 0400     		.2byte	0x4
 18083 0c96 F3       		.byte	0xf3
 18084 0c97 01       		.uleb128 0x1
 18085 0c98 50       		.byte	0x50
 18086 0c99 9F       		.byte	0x9f
 18087 0c9a 48000000 		.4byte	.LVL323
 18088 0c9e 68000000 		.4byte	.LFE278
 18089 0ca2 0100     		.2byte	0x1
 18090 0ca4 54       		.byte	0x54
 18091 0ca5 00000000 		.4byte	0
 18092 0ca9 00000000 		.4byte	0
 18093              	.LLST18:
 18094 0cad 00000000 		.4byte	.LVL82
 18095 0cb1 0B000000 		.4byte	.LVL83-1
 18096 0cb5 0100     		.2byte	0x1
 18097 0cb7 50       		.byte	0x50
 18098 0cb8 0B000000 		.4byte	.LVL83-1
 18099 0cbc 14000000 		.4byte	.LVL84
 18100 0cc0 0100     		.2byte	0x1
 18101 0cc2 54       		.byte	0x54
 18102 0cc3 14000000 		.4byte	.LVL84
 18103 0cc7 17000000 		.4byte	.LVL85-1
 18104 0ccb 0100     		.2byte	0x1
 18105 0ccd 50       		.byte	0x50
 18106 0cce 17000000 		.4byte	.LVL85-1
 18107 0cd2 20000000 		.4byte	.LFE276
 18108 0cd6 0400     		.2byte	0x4
 18109 0cd8 F3       		.byte	0xf3
 18110 0cd9 01       		.uleb128 0x1
 18111 0cda 50       		.byte	0x50
 18112 0cdb 9F       		.byte	0x9f
 18113 0cdc 00000000 		.4byte	0
 18114 0ce0 00000000 		.4byte	0
 18115              	.LLST129:
ARM GAS  /tmp/cccFXynL.s 			page 320


 18116 0ce4 00000000 		.4byte	.LVL395
 18117 0ce8 0E000000 		.4byte	.LVL396
 18118 0cec 0100     		.2byte	0x1
 18119 0cee 50       		.byte	0x50
 18120 0cef 0E000000 		.4byte	.LVL396
 18121 0cf3 40000000 		.4byte	.LFE275
 18122 0cf7 0100     		.2byte	0x1
 18123 0cf9 54       		.byte	0x54
 18124 0cfa 00000000 		.4byte	0
 18125 0cfe 00000000 		.4byte	0
 18126              	.LLST130:
 18127 0d02 00000000 		.4byte	.LVL395
 18128 0d06 18000000 		.4byte	.LVL398
 18129 0d0a 0100     		.2byte	0x1
 18130 0d0c 51       		.byte	0x51
 18131 0d0d 18000000 		.4byte	.LVL398
 18132 0d11 21000000 		.4byte	.LVL399-1
 18133 0d15 0100     		.2byte	0x1
 18134 0d17 52       		.byte	0x52
 18135 0d18 21000000 		.4byte	.LVL399-1
 18136 0d1c 40000000 		.4byte	.LFE275
 18137 0d20 0100     		.2byte	0x1
 18138 0d22 55       		.byte	0x55
 18139 0d23 00000000 		.4byte	0
 18140 0d27 00000000 		.4byte	0
 18141              	.LLST131:
 18142 0d2b 00000000 		.4byte	.LVL395
 18143 0d2f 14000000 		.4byte	.LVL397
 18144 0d33 0100     		.2byte	0x1
 18145 0d35 52       		.byte	0x52
 18146 0d36 14000000 		.4byte	.LVL397
 18147 0d3a 40000000 		.4byte	.LFE275
 18148 0d3e 0100     		.2byte	0x1
 18149 0d40 56       		.byte	0x56
 18150 0d41 00000000 		.4byte	0
 18151 0d45 00000000 		.4byte	0
 18152              	.LLST132:
 18153 0d49 00000000 		.4byte	.LVL395
 18154 0d4d 21000000 		.4byte	.LVL399-1
 18155 0d51 0100     		.2byte	0x1
 18156 0d53 53       		.byte	0x53
 18157 0d54 21000000 		.4byte	.LVL399-1
 18158 0d58 40000000 		.4byte	.LFE275
 18159 0d5c 0100     		.2byte	0x1
 18160 0d5e 57       		.byte	0x57
 18161 0d5f 00000000 		.4byte	0
 18162 0d63 00000000 		.4byte	0
 18163              	.LLST54:
 18164 0d67 00000000 		.4byte	.LVL221
 18165 0d6b 1A000000 		.4byte	.LVL224
 18166 0d6f 0100     		.2byte	0x1
 18167 0d71 50       		.byte	0x50
 18168 0d72 1A000000 		.4byte	.LVL224
 18169 0d76 BE000000 		.4byte	.LVL246
 18170 0d7a 0100     		.2byte	0x1
 18171 0d7c 5A       		.byte	0x5a
 18172 0d7d BE000000 		.4byte	.LVL246
ARM GAS  /tmp/cccFXynL.s 			page 321


 18173 0d81 CC000000 		.4byte	.LFE274
 18174 0d85 0400     		.2byte	0x4
 18175 0d87 F3       		.byte	0xf3
 18176 0d88 01       		.uleb128 0x1
 18177 0d89 50       		.byte	0x50
 18178 0d8a 9F       		.byte	0x9f
 18179 0d8b 00000000 		.4byte	0
 18180 0d8f 00000000 		.4byte	0
 18181              	.LLST55:
 18182 0d93 00000000 		.4byte	.LVL221
 18183 0d97 16000000 		.4byte	.LVL222
 18184 0d9b 0100     		.2byte	0x1
 18185 0d9d 51       		.byte	0x51
 18186 0d9e 16000000 		.4byte	.LVL222
 18187 0da2 8C000000 		.4byte	.LVL238
 18188 0da6 0100     		.2byte	0x1
 18189 0da8 59       		.byte	0x59
 18190 0da9 8C000000 		.4byte	.LVL238
 18191 0dad BA000000 		.4byte	.LVL245
 18192 0db1 0400     		.2byte	0x4
 18193 0db3 79       		.byte	0x79
 18194 0db4 AC7E     		.sleb128 -212
 18195 0db6 9F       		.byte	0x9f
 18196 0db7 BA000000 		.4byte	.LVL245
 18197 0dbb CC000000 		.4byte	.LFE274
 18198 0dbf 0400     		.2byte	0x4
 18199 0dc1 F3       		.byte	0xf3
 18200 0dc2 01       		.uleb128 0x1
 18201 0dc3 51       		.byte	0x51
 18202 0dc4 9F       		.byte	0x9f
 18203 0dc5 00000000 		.4byte	0
 18204 0dc9 00000000 		.4byte	0
 18205              	.LLST56:
 18206 0dcd 18000000 		.4byte	.LVL223
 18207 0dd1 52000000 		.4byte	.LVL230
 18208 0dd5 0100     		.2byte	0x1
 18209 0dd7 59       		.byte	0x59
 18210 0dd8 52000000 		.4byte	.LVL230
 18211 0ddc 5E000000 		.4byte	.LVL233
 18212 0de0 0100     		.2byte	0x1
 18213 0de2 54       		.byte	0x54
 18214 0de3 5E000000 		.4byte	.LVL233
 18215 0de7 7A000000 		.4byte	.LVL237
 18216 0deb 0300     		.2byte	0x3
 18217 0ded 74       		.byte	0x74
 18218 0dee 7C       		.sleb128 -4
 18219 0def 9F       		.byte	0x9f
 18220 0df0 7A000000 		.4byte	.LVL237
 18221 0df4 9A000000 		.4byte	.LVL240
 18222 0df8 0100     		.2byte	0x1
 18223 0dfa 54       		.byte	0x54
 18224 0dfb 9A000000 		.4byte	.LVL240
 18225 0dff B6000000 		.4byte	.LVL244
 18226 0e03 0300     		.2byte	0x3
 18227 0e05 74       		.byte	0x74
 18228 0e06 7C       		.sleb128 -4
 18229 0e07 9F       		.byte	0x9f
ARM GAS  /tmp/cccFXynL.s 			page 322


 18230 0e08 B6000000 		.4byte	.LVL244
 18231 0e0c BE000000 		.4byte	.LVL246
 18232 0e10 0100     		.2byte	0x1
 18233 0e12 54       		.byte	0x54
 18234 0e13 00000000 		.4byte	0
 18235 0e17 00000000 		.4byte	0
 18236              	.LLST57:
 18237 0e1b 52000000 		.4byte	.LVL230
 18238 0e1f 54000000 		.4byte	.LVL231
 18239 0e23 0200     		.2byte	0x2
 18240 0e25 31       		.byte	0x31
 18241 0e26 9F       		.byte	0x9f
 18242 0e27 00000000 		.4byte	0
 18243 0e2b 00000000 		.4byte	0
 18244              	.LLST58:
 18245 0e2f 20000000 		.4byte	.LVL226
 18246 0e33 2E000000 		.4byte	.LVL227
 18247 0e37 0600     		.2byte	0x6
 18248 0e39 9E       		.byte	0x9e
 18249 0e3a 04       		.uleb128 0x4
 18250 0e3b F0ED00E0 		.4byte	0xe000edf0
 18251 0e3f 00000000 		.4byte	0
 18252 0e43 00000000 		.4byte	0
 18253              	.LLST59:
 18254 0e47 20000000 		.4byte	.LVL226
 18255 0e4b 2E000000 		.4byte	.LVL227
 18256 0e4f 0400     		.2byte	0x4
 18257 0e51 0A       		.byte	0xa
 18258 0e52 0401     		.2byte	0x104
 18259 0e54 9F       		.byte	0x9f
 18260 0e55 00000000 		.4byte	0
 18261 0e59 00000000 		.4byte	0
 18262              	.LLST60:
 18263 0e5d 20000000 		.4byte	.LVL226
 18264 0e61 2E000000 		.4byte	.LVL227
 18265 0e65 0200     		.2byte	0x2
 18266 0e67 30       		.byte	0x30
 18267 0e68 9F       		.byte	0x9f
 18268 0e69 00000000 		.4byte	0
 18269 0e6d 00000000 		.4byte	0
 18270              	.LLST61:
 18271 0e71 20000000 		.4byte	.LVL226
 18272 0e75 2D000000 		.4byte	.LVL227-1
 18273 0e79 0100     		.2byte	0x1
 18274 0e7b 50       		.byte	0x50
 18275 0e7c 00000000 		.4byte	0
 18276 0e80 00000000 		.4byte	0
 18277              	.LLST62:
 18278 0e84 5A000000 		.4byte	.LVL232
 18279 0e88 5E000000 		.4byte	.LVL233
 18280 0e8c 0200     		.2byte	0x2
 18281 0e8e 74       		.byte	0x74
 18282 0e8f 7C       		.sleb128 -4
 18283 0e90 5E000000 		.4byte	.LVL233
 18284 0e94 69000000 		.4byte	.LVL234-1
 18285 0e98 0200     		.2byte	0x2
 18286 0e9a 74       		.byte	0x74
ARM GAS  /tmp/cccFXynL.s 			page 323


 18287 0e9b 78       		.sleb128 -8
 18288 0e9c 00000000 		.4byte	0
 18289 0ea0 00000000 		.4byte	0
 18290              	.LLST63:
 18291 0ea4 5A000000 		.4byte	.LVL232
 18292 0ea8 6A000000 		.4byte	.LVL234
 18293 0eac 0400     		.2byte	0x4
 18294 0eae 0A       		.byte	0xa
 18295 0eaf 1801     		.2byte	0x118
 18296 0eb1 9F       		.byte	0x9f
 18297 0eb2 00000000 		.4byte	0
 18298 0eb6 00000000 		.4byte	0
 18299              	.LLST64:
 18300 0eba 5A000000 		.4byte	.LVL232
 18301 0ebe 6A000000 		.4byte	.LVL234
 18302 0ec2 0200     		.2byte	0x2
 18303 0ec4 30       		.byte	0x30
 18304 0ec5 9F       		.byte	0x9f
 18305 0ec6 00000000 		.4byte	0
 18306 0eca 00000000 		.4byte	0
 18307              	.LLST65:
 18308 0ece 5A000000 		.4byte	.LVL232
 18309 0ed2 69000000 		.4byte	.LVL234-1
 18310 0ed6 0100     		.2byte	0x1
 18311 0ed8 50       		.byte	0x50
 18312 0ed9 00000000 		.4byte	0
 18313 0edd 00000000 		.4byte	0
 18314              	.LLST66:
 18315 0ee1 6C000000 		.4byte	.LVL235
 18316 0ee5 70000000 		.4byte	.LVL236
 18317 0ee9 0700     		.2byte	0x7
 18318 0eeb 76       		.byte	0x76
 18319 0eec 00       		.sleb128 0
 18320 0eed 40       		.byte	0x40
 18321 0eee 3C       		.byte	0x3c
 18322 0eef 24       		.byte	0x24
 18323 0ef0 21       		.byte	0x21
 18324 0ef1 9F       		.byte	0x9f
 18325 0ef2 70000000 		.4byte	.LVL236
 18326 0ef6 79000000 		.4byte	.LVL237-1
 18327 0efa 0100     		.2byte	0x1
 18328 0efc 53       		.byte	0x53
 18329 0efd 00000000 		.4byte	0
 18330 0f01 00000000 		.4byte	0
 18331              	.LLST67:
 18332 0f05 6C000000 		.4byte	.LVL235
 18333 0f09 7A000000 		.4byte	.LVL237
 18334 0f0d 0400     		.2byte	0x4
 18335 0f0f 0A       		.byte	0xa
 18336 0f10 1401     		.2byte	0x114
 18337 0f12 9F       		.byte	0x9f
 18338 0f13 00000000 		.4byte	0
 18339 0f17 00000000 		.4byte	0
 18340              	.LLST68:
 18341 0f1b 6C000000 		.4byte	.LVL235
 18342 0f1f 7A000000 		.4byte	.LVL237
 18343 0f23 0200     		.2byte	0x2
ARM GAS  /tmp/cccFXynL.s 			page 324


 18344 0f25 30       		.byte	0x30
 18345 0f26 9F       		.byte	0x9f
 18346 0f27 00000000 		.4byte	0
 18347 0f2b 00000000 		.4byte	0
 18348              	.LLST69:
 18349 0f2f 6C000000 		.4byte	.LVL235
 18350 0f33 79000000 		.4byte	.LVL237-1
 18351 0f37 0100     		.2byte	0x1
 18352 0f39 50       		.byte	0x50
 18353 0f3a 00000000 		.4byte	0
 18354 0f3e 00000000 		.4byte	0
 18355              	.LLST70:
 18356 0f42 96000000 		.4byte	.LVL239
 18357 0f46 9A000000 		.4byte	.LVL240
 18358 0f4a 0200     		.2byte	0x2
 18359 0f4c 74       		.byte	0x74
 18360 0f4d 7C       		.sleb128 -4
 18361 0f4e 9A000000 		.4byte	.LVL240
 18362 0f52 A5000000 		.4byte	.LVL241-1
 18363 0f56 0200     		.2byte	0x2
 18364 0f58 74       		.byte	0x74
 18365 0f59 78       		.sleb128 -8
 18366 0f5a 00000000 		.4byte	0
 18367 0f5e 00000000 		.4byte	0
 18368              	.LLST71:
 18369 0f62 96000000 		.4byte	.LVL239
 18370 0f66 A6000000 		.4byte	.LVL241
 18371 0f6a 0400     		.2byte	0x4
 18372 0f6c 0A       		.byte	0xa
 18373 0f6d 1801     		.2byte	0x118
 18374 0f6f 9F       		.byte	0x9f
 18375 0f70 00000000 		.4byte	0
 18376 0f74 00000000 		.4byte	0
 18377              	.LLST72:
 18378 0f78 96000000 		.4byte	.LVL239
 18379 0f7c A6000000 		.4byte	.LVL241
 18380 0f80 0200     		.2byte	0x2
 18381 0f82 30       		.byte	0x30
 18382 0f83 9F       		.byte	0x9f
 18383 0f84 00000000 		.4byte	0
 18384 0f88 00000000 		.4byte	0
 18385              	.LLST73:
 18386 0f8c 96000000 		.4byte	.LVL239
 18387 0f90 A5000000 		.4byte	.LVL241-1
 18388 0f94 0100     		.2byte	0x1
 18389 0f96 50       		.byte	0x50
 18390 0f97 00000000 		.4byte	0
 18391 0f9b 00000000 		.4byte	0
 18392              	.LLST74:
 18393 0f9f A8000000 		.4byte	.LVL242
 18394 0fa3 AC000000 		.4byte	.LVL243
 18395 0fa7 0700     		.2byte	0x7
 18396 0fa9 76       		.byte	0x76
 18397 0faa 00       		.sleb128 0
 18398 0fab 40       		.byte	0x40
 18399 0fac 3C       		.byte	0x3c
 18400 0fad 24       		.byte	0x24
ARM GAS  /tmp/cccFXynL.s 			page 325


 18401 0fae 21       		.byte	0x21
 18402 0faf 9F       		.byte	0x9f
 18403 0fb0 AC000000 		.4byte	.LVL243
 18404 0fb4 B5000000 		.4byte	.LVL244-1
 18405 0fb8 0100     		.2byte	0x1
 18406 0fba 53       		.byte	0x53
 18407 0fbb 00000000 		.4byte	0
 18408 0fbf 00000000 		.4byte	0
 18409              	.LLST75:
 18410 0fc3 A8000000 		.4byte	.LVL242
 18411 0fc7 B6000000 		.4byte	.LVL244
 18412 0fcb 0400     		.2byte	0x4
 18413 0fcd 0A       		.byte	0xa
 18414 0fce 1401     		.2byte	0x114
 18415 0fd0 9F       		.byte	0x9f
 18416 0fd1 00000000 		.4byte	0
 18417 0fd5 00000000 		.4byte	0
 18418              	.LLST76:
 18419 0fd9 A8000000 		.4byte	.LVL242
 18420 0fdd B6000000 		.4byte	.LVL244
 18421 0fe1 0200     		.2byte	0x2
 18422 0fe3 30       		.byte	0x30
 18423 0fe4 9F       		.byte	0x9f
 18424 0fe5 00000000 		.4byte	0
 18425 0fe9 00000000 		.4byte	0
 18426              	.LLST77:
 18427 0fed A8000000 		.4byte	.LVL242
 18428 0ff1 B5000000 		.4byte	.LVL244-1
 18429 0ff5 0100     		.2byte	0x1
 18430 0ff7 50       		.byte	0x50
 18431 0ff8 00000000 		.4byte	0
 18432 0ffc 00000000 		.4byte	0
 18433              	.LLST78:
 18434 1000 00000000 		.4byte	.LVL247
 18435 1004 1A000000 		.4byte	.LVL250
 18436 1008 0100     		.2byte	0x1
 18437 100a 50       		.byte	0x50
 18438 100b 1A000000 		.4byte	.LVL250
 18439 100f AC000000 		.4byte	.LVL271
 18440 1013 0100     		.2byte	0x1
 18441 1015 59       		.byte	0x59
 18442 1016 AC000000 		.4byte	.LVL271
 18443 101a B8000000 		.4byte	.LFE273
 18444 101e 0400     		.2byte	0x4
 18445 1020 F3       		.byte	0xf3
 18446 1021 01       		.uleb128 0x1
 18447 1022 50       		.byte	0x50
 18448 1023 9F       		.byte	0x9f
 18449 1024 00000000 		.4byte	0
 18450 1028 00000000 		.4byte	0
 18451              	.LLST79:
 18452 102c 00000000 		.4byte	.LVL247
 18453 1030 16000000 		.4byte	.LVL248
 18454 1034 0100     		.2byte	0x1
 18455 1036 51       		.byte	0x51
 18456 1037 16000000 		.4byte	.LVL248
 18457 103b 82000000 		.4byte	.LVL264
ARM GAS  /tmp/cccFXynL.s 			page 326


 18458 103f 0100     		.2byte	0x1
 18459 1041 58       		.byte	0x58
 18460 1042 82000000 		.4byte	.LVL264
 18461 1046 A8000000 		.4byte	.LVL270
 18462 104a 0400     		.2byte	0x4
 18463 104c 78       		.byte	0x78
 18464 104d AC7E     		.sleb128 -212
 18465 104f 9F       		.byte	0x9f
 18466 1050 A8000000 		.4byte	.LVL270
 18467 1054 B8000000 		.4byte	.LFE273
 18468 1058 0400     		.2byte	0x4
 18469 105a F3       		.byte	0xf3
 18470 105b 01       		.uleb128 0x1
 18471 105c 51       		.byte	0x51
 18472 105d 9F       		.byte	0x9f
 18473 105e 00000000 		.4byte	0
 18474 1062 00000000 		.4byte	0
 18475              	.LLST80:
 18476 1066 18000000 		.4byte	.LVL249
 18477 106a 48000000 		.4byte	.LVL256
 18478 106e 0100     		.2byte	0x1
 18479 1070 58       		.byte	0x58
 18480 1071 48000000 		.4byte	.LVL256
 18481 1075 AC000000 		.4byte	.LVL271
 18482 1079 0100     		.2byte	0x1
 18483 107b 54       		.byte	0x54
 18484 107c 00000000 		.4byte	0
 18485 1080 00000000 		.4byte	0
 18486              	.LLST81:
 18487 1084 4C000000 		.4byte	.LVL257
 18488 1088 50000000 		.4byte	.LVL258
 18489 108c 0200     		.2byte	0x2
 18490 108e 31       		.byte	0x31
 18491 108f 9F       		.byte	0x9f
 18492 1090 00000000 		.4byte	0
 18493 1094 00000000 		.4byte	0
 18494              	.LLST82:
 18495 1098 20000000 		.4byte	.LVL252
 18496 109c 2C000000 		.4byte	.LVL253
 18497 10a0 0600     		.2byte	0x6
 18498 10a2 9E       		.byte	0x9e
 18499 10a3 04       		.uleb128 0x4
 18500 10a4 F0ED00E0 		.4byte	0xe000edf0
 18501 10a8 00000000 		.4byte	0
 18502 10ac 00000000 		.4byte	0
 18503              	.LLST83:
 18504 10b0 20000000 		.4byte	.LVL252
 18505 10b4 2C000000 		.4byte	.LVL253
 18506 10b8 0400     		.2byte	0x4
 18507 10ba 0A       		.byte	0xa
 18508 10bb 0401     		.2byte	0x104
 18509 10bd 9F       		.byte	0x9f
 18510 10be 00000000 		.4byte	0
 18511 10c2 00000000 		.4byte	0
 18512              	.LLST84:
 18513 10c6 20000000 		.4byte	.LVL252
 18514 10ca 2C000000 		.4byte	.LVL253
ARM GAS  /tmp/cccFXynL.s 			page 327


 18515 10ce 0200     		.2byte	0x2
 18516 10d0 30       		.byte	0x30
 18517 10d1 9F       		.byte	0x9f
 18518 10d2 00000000 		.4byte	0
 18519 10d6 00000000 		.4byte	0
 18520              	.LLST85:
 18521 10da 20000000 		.4byte	.LVL252
 18522 10de 2B000000 		.4byte	.LVL253-1
 18523 10e2 0100     		.2byte	0x1
 18524 10e4 50       		.byte	0x50
 18525 10e5 00000000 		.4byte	0
 18526 10e9 00000000 		.4byte	0
 18527              	.LLST86:
 18528 10ed 56000000 		.4byte	.LVL259
 18529 10f1 62000000 		.4byte	.LVL260
 18530 10f5 0400     		.2byte	0x4
 18531 10f7 0A       		.byte	0xa
 18532 10f8 1401     		.2byte	0x114
 18533 10fa 9F       		.byte	0x9f
 18534 10fb 00000000 		.4byte	0
 18535 10ff 00000000 		.4byte	0
 18536              	.LLST87:
 18537 1103 56000000 		.4byte	.LVL259
 18538 1107 62000000 		.4byte	.LVL260
 18539 110b 0200     		.2byte	0x2
 18540 110d 30       		.byte	0x30
 18541 110e 9F       		.byte	0x9f
 18542 110f 00000000 		.4byte	0
 18543 1113 00000000 		.4byte	0
 18544              	.LLST88:
 18545 1117 56000000 		.4byte	.LVL259
 18546 111b 61000000 		.4byte	.LVL260-1
 18547 111f 0100     		.2byte	0x1
 18548 1121 50       		.byte	0x50
 18549 1122 00000000 		.4byte	0
 18550 1126 00000000 		.4byte	0
 18551              	.LLST89:
 18552 112a 64000000 		.4byte	.LVL261
 18553 112e 6C000000 		.4byte	.LVL262
 18554 1132 0400     		.2byte	0x4
 18555 1134 0A       		.byte	0xa
 18556 1135 1801     		.2byte	0x118
 18557 1137 9F       		.byte	0x9f
 18558 1138 00000000 		.4byte	0
 18559 113c 00000000 		.4byte	0
 18560              	.LLST90:
 18561 1140 64000000 		.4byte	.LVL261
 18562 1144 6B000000 		.4byte	.LVL262-1
 18563 1148 0100     		.2byte	0x1
 18564 114a 50       		.byte	0x50
 18565 114b 00000000 		.4byte	0
 18566 114f 00000000 		.4byte	0
 18567              	.LLST91:
 18568 1153 8C000000 		.4byte	.LVL265
 18569 1157 96000000 		.4byte	.LVL266
 18570 115b 0400     		.2byte	0x4
 18571 115d 0A       		.byte	0xa
ARM GAS  /tmp/cccFXynL.s 			page 328


 18572 115e 1401     		.2byte	0x114
 18573 1160 9F       		.byte	0x9f
 18574 1161 00000000 		.4byte	0
 18575 1165 00000000 		.4byte	0
 18576              	.LLST92:
 18577 1169 8C000000 		.4byte	.LVL265
 18578 116d 96000000 		.4byte	.LVL266
 18579 1171 0200     		.2byte	0x2
 18580 1173 30       		.byte	0x30
 18581 1174 9F       		.byte	0x9f
 18582 1175 00000000 		.4byte	0
 18583 1179 00000000 		.4byte	0
 18584              	.LLST93:
 18585 117d 8C000000 		.4byte	.LVL265
 18586 1181 95000000 		.4byte	.LVL266-1
 18587 1185 0100     		.2byte	0x1
 18588 1187 50       		.byte	0x50
 18589 1188 00000000 		.4byte	0
 18590 118c 00000000 		.4byte	0
 18591              	.LLST94:
 18592 1190 98000000 		.4byte	.LVL267
 18593 1194 A0000000 		.4byte	.LVL268
 18594 1198 0400     		.2byte	0x4
 18595 119a 0A       		.byte	0xa
 18596 119b 1801     		.2byte	0x118
 18597 119d 9F       		.byte	0x9f
 18598 119e 00000000 		.4byte	0
 18599 11a2 00000000 		.4byte	0
 18600              	.LLST95:
 18601 11a6 98000000 		.4byte	.LVL267
 18602 11aa 9F000000 		.4byte	.LVL268-1
 18603 11ae 0100     		.2byte	0x1
 18604 11b0 50       		.byte	0x50
 18605 11b1 00000000 		.4byte	0
 18606 11b5 00000000 		.4byte	0
 18607              	.LLST19:
 18608 11b9 00000000 		.4byte	.LVL86
 18609 11bd 0E000000 		.4byte	.LVL88
 18610 11c1 0100     		.2byte	0x1
 18611 11c3 50       		.byte	0x50
 18612 11c4 0E000000 		.4byte	.LVL88
 18613 11c8 54000000 		.4byte	.LVL97
 18614 11cc 0100     		.2byte	0x1
 18615 11ce 56       		.byte	0x56
 18616 11cf 54000000 		.4byte	.LVL97
 18617 11d3 57000000 		.4byte	.LVL98-1
 18618 11d7 0100     		.2byte	0x1
 18619 11d9 50       		.byte	0x50
 18620 11da 57000000 		.4byte	.LVL98-1
 18621 11de 68000000 		.4byte	.LFE272
 18622 11e2 0400     		.2byte	0x4
 18623 11e4 F3       		.byte	0xf3
 18624 11e5 01       		.uleb128 0x1
 18625 11e6 50       		.byte	0x50
 18626 11e7 9F       		.byte	0x9f
 18627 11e8 00000000 		.4byte	0
 18628 11ec 00000000 		.4byte	0
ARM GAS  /tmp/cccFXynL.s 			page 329


 18629              	.LLST20:
 18630 11f0 04000000 		.4byte	.LVL87
 18631 11f4 54000000 		.4byte	.LVL97
 18632 11f8 0100     		.2byte	0x1
 18633 11fa 57       		.byte	0x57
 18634 11fb 00000000 		.4byte	0
 18635 11ff 00000000 		.4byte	0
 18636              	.LLST21:
 18637 1203 04000000 		.4byte	.LVL87
 18638 1207 0E000000 		.4byte	.LVL88
 18639 120b 0200     		.2byte	0x2
 18640 120d 30       		.byte	0x30
 18641 120e 9F       		.byte	0x9f
 18642 120f 0E000000 		.4byte	.LVL88
 18643 1213 24000000 		.4byte	.LVL91
 18644 1217 0100     		.2byte	0x1
 18645 1219 54       		.byte	0x54
 18646 121a 24000000 		.4byte	.LVL91
 18647 121e 2C000000 		.4byte	.LVL92
 18648 1222 0200     		.2byte	0x2
 18649 1224 30       		.byte	0x30
 18650 1225 9F       		.byte	0x9f
 18651 1226 2C000000 		.4byte	.LVL92
 18652 122a 42000000 		.4byte	.LVL95
 18653 122e 0100     		.2byte	0x1
 18654 1230 54       		.byte	0x54
 18655 1231 00000000 		.4byte	0
 18656 1235 00000000 		.4byte	0
 18657              	.LLST100:
 18658 1239 00000000 		.4byte	.LVL293
 18659 123d 0B000000 		.4byte	.LVL295-1
 18660 1241 0100     		.2byte	0x1
 18661 1243 50       		.byte	0x50
 18662 1244 0B000000 		.4byte	.LVL295-1
 18663 1248 DA000000 		.4byte	.LVL314
 18664 124c 0100     		.2byte	0x1
 18665 124e 54       		.byte	0x54
 18666 124f DA000000 		.4byte	.LVL314
 18667 1253 F4000000 		.4byte	.LFE271
 18668 1257 0400     		.2byte	0x4
 18669 1259 F3       		.byte	0xf3
 18670 125a 01       		.uleb128 0x1
 18671 125b 50       		.byte	0x50
 18672 125c 9F       		.byte	0x9f
 18673 125d 00000000 		.4byte	0
 18674 1261 00000000 		.4byte	0
 18675              	.LLST101:
 18676 1265 08000000 		.4byte	.LVL294
 18677 1269 DA000000 		.4byte	.LVL314
 18678 126d 0100     		.2byte	0x1
 18679 126f 55       		.byte	0x55
 18680 1270 00000000 		.4byte	0
 18681 1274 00000000 		.4byte	0
 18682              	.LLST102:
 18683 1278 5E000000 		.4byte	.LVL303
 18684 127c 7E000000 		.4byte	.LVL305
 18685 1280 0200     		.2byte	0x2
ARM GAS  /tmp/cccFXynL.s 			page 330


 18686 1282 30       		.byte	0x30
 18687 1283 9F       		.byte	0x9f
 18688 1284 7E000000 		.4byte	.LVL305
 18689 1288 9A000000 		.4byte	.LVL308
 18690 128c 0800     		.2byte	0x8
 18691 128e 76       		.byte	0x76
 18692 128f 00       		.sleb128 0
 18693 1290 75       		.byte	0x75
 18694 1291 00       		.sleb128 0
 18695 1292 1C       		.byte	0x1c
 18696 1293 44       		.byte	0x44
 18697 1294 1C       		.byte	0x1c
 18698 1295 9F       		.byte	0x9f
 18699 1296 9A000000 		.4byte	.LVL308
 18700 129a AE000000 		.4byte	.LVL309
 18701 129e 0200     		.2byte	0x2
 18702 12a0 30       		.byte	0x30
 18703 12a1 9F       		.byte	0x9f
 18704 12a2 AE000000 		.4byte	.LVL309
 18705 12a6 CA000000 		.4byte	.LVL312
 18706 12aa 0800     		.2byte	0x8
 18707 12ac 76       		.byte	0x76
 18708 12ad 00       		.sleb128 0
 18709 12ae 75       		.byte	0x75
 18710 12af 00       		.sleb128 0
 18711 12b0 1C       		.byte	0x1c
 18712 12b1 36       		.byte	0x36
 18713 12b2 1C       		.byte	0x1c
 18714 12b3 9F       		.byte	0x9f
 18715 12b4 00000000 		.4byte	0
 18716 12b8 00000000 		.4byte	0
 18717              	.LLST103:
 18718 12bc 42000000 		.4byte	.LVL301
 18719 12c0 52000000 		.4byte	.LVL302
 18720 12c4 0100     		.2byte	0x1
 18721 12c6 50       		.byte	0x50
 18722 12c7 5E000000 		.4byte	.LVL303
 18723 12cb 62000000 		.4byte	.LVL304
 18724 12cf 0100     		.2byte	0x1
 18725 12d1 50       		.byte	0x50
 18726 12d2 00000000 		.4byte	0
 18727 12d6 00000000 		.4byte	0
 18728              	.LLST123:
 18729 12da 00000000 		.4byte	.LVL352
 18730 12de 0B000000 		.4byte	.LVL353-1
 18731 12e2 0100     		.2byte	0x1
 18732 12e4 50       		.byte	0x50
 18733 12e5 0B000000 		.4byte	.LVL353-1
 18734 12e9 E4000000 		.4byte	.LVL369
 18735 12ed 0100     		.2byte	0x1
 18736 12ef 56       		.byte	0x56
 18737 12f0 E4000000 		.4byte	.LVL369
 18738 12f4 5A010000 		.4byte	.LVL382
 18739 12f8 0400     		.2byte	0x4
 18740 12fa F3       		.byte	0xf3
 18741 12fb 01       		.uleb128 0x1
 18742 12fc 50       		.byte	0x50
ARM GAS  /tmp/cccFXynL.s 			page 331


 18743 12fd 9F       		.byte	0x9f
 18744 12fe 5A010000 		.4byte	.LVL382
 18745 1302 70010000 		.4byte	.LVL386
 18746 1306 0100     		.2byte	0x1
 18747 1308 56       		.byte	0x56
 18748 1309 70010000 		.4byte	.LVL386
 18749 130d 76010000 		.4byte	.LVL387
 18750 1311 0400     		.2byte	0x4
 18751 1313 F3       		.byte	0xf3
 18752 1314 01       		.uleb128 0x1
 18753 1315 50       		.byte	0x50
 18754 1316 9F       		.byte	0x9f
 18755 1317 76010000 		.4byte	.LVL387
 18756 131b 7E010000 		.4byte	.LVL390
 18757 131f 0100     		.2byte	0x1
 18758 1321 56       		.byte	0x56
 18759 1322 7E010000 		.4byte	.LVL390
 18760 1326 F0010000 		.4byte	.LFE270
 18761 132a 0400     		.2byte	0x4
 18762 132c F3       		.byte	0xf3
 18763 132d 01       		.uleb128 0x1
 18764 132e 50       		.byte	0x50
 18765 132f 9F       		.byte	0x9f
 18766 1330 00000000 		.4byte	0
 18767 1334 00000000 		.4byte	0
 18768              	.LLST124:
 18769 1338 00000000 		.4byte	.LVL352
 18770 133c 0B000000 		.4byte	.LVL353-1
 18771 1340 0100     		.2byte	0x1
 18772 1342 51       		.byte	0x51
 18773 1343 0B000000 		.4byte	.LVL353-1
 18774 1347 F0010000 		.4byte	.LFE270
 18775 134b 0400     		.2byte	0x4
 18776 134d F3       		.byte	0xf3
 18777 134e 01       		.uleb128 0x1
 18778 134f 51       		.byte	0x51
 18779 1350 9F       		.byte	0x9f
 18780 1351 00000000 		.4byte	0
 18781 1355 00000000 		.4byte	0
 18782              	.LLST125:
 18783 1359 0E000000 		.4byte	.LVL354
 18784 135d 10000000 		.4byte	.LVL355
 18785 1361 0100     		.2byte	0x1
 18786 1363 50       		.byte	0x50
 18787 1364 10000000 		.4byte	.LVL355
 18788 1368 9A010000 		.4byte	.LVL394
 18789 136c 0100     		.2byte	0x1
 18790 136e 54       		.byte	0x54
 18791 136f 00000000 		.4byte	0
 18792 1373 00000000 		.4byte	0
 18793              	.LLST126:
 18794 1377 28000000 		.4byte	.LVL358
 18795 137b 2E000000 		.4byte	.LVL359
 18796 137f 0100     		.2byte	0x1
 18797 1381 50       		.byte	0x50
 18798 1382 2E000000 		.4byte	.LVL359
 18799 1386 E2000000 		.4byte	.LVL368
ARM GAS  /tmp/cccFXynL.s 			page 332


 18800 138a 0100     		.2byte	0x1
 18801 138c 55       		.byte	0x55
 18802 138d 5A010000 		.4byte	.LVL382
 18803 1391 62010000 		.4byte	.LVL384
 18804 1395 0100     		.2byte	0x1
 18805 1397 55       		.byte	0x55
 18806 1398 76010000 		.4byte	.LVL387
 18807 139c 7E010000 		.4byte	.LVL390
 18808 13a0 0100     		.2byte	0x1
 18809 13a2 55       		.byte	0x55
 18810 13a3 00000000 		.4byte	0
 18811 13a7 00000000 		.4byte	0
 18812              	.LLST127:
 18813 13ab 84000000 		.4byte	.LVL361
 18814 13af 88000000 		.4byte	.LVL362
 18815 13b3 0100     		.2byte	0x1
 18816 13b5 50       		.byte	0x50
 18817 13b6 88000000 		.4byte	.LVL362
 18818 13ba 9A010000 		.4byte	.LVL394
 18819 13be 0100     		.2byte	0x1
 18820 13c0 58       		.byte	0x58
 18821 13c1 00000000 		.4byte	0
 18822 13c5 00000000 		.4byte	0
 18823              	.LLST128:
 18824 13c9 BC000000 		.4byte	.LVL365
 18825 13cd C6000000 		.4byte	.LVL366
 18826 13d1 0100     		.2byte	0x1
 18827 13d3 50       		.byte	0x50
 18828 13d4 76010000 		.4byte	.LVL387
 18829 13d8 78010000 		.4byte	.LVL388
 18830 13dc 0100     		.2byte	0x1
 18831 13de 50       		.byte	0x50
 18832 13df 00000000 		.4byte	0
 18833 13e3 00000000 		.4byte	0
 18834              	.LLST97:
 18835 13e7 00000000 		.4byte	.LVL277
 18836 13eb 07000000 		.4byte	.LVL278-1
 18837 13ef 0100     		.2byte	0x1
 18838 13f1 50       		.byte	0x50
 18839 13f2 07000000 		.4byte	.LVL278-1
 18840 13f6 1A000000 		.4byte	.LVL282
 18841 13fa 0100     		.2byte	0x1
 18842 13fc 54       		.byte	0x54
 18843 13fd 1A000000 		.4byte	.LVL282
 18844 1401 1D000000 		.4byte	.LVL283-1
 18845 1405 0100     		.2byte	0x1
 18846 1407 50       		.byte	0x50
 18847 1408 1D000000 		.4byte	.LVL283-1
 18848 140c 26000000 		.4byte	.LVL285
 18849 1410 0100     		.2byte	0x1
 18850 1412 54       		.byte	0x54
 18851 1413 26000000 		.4byte	.LVL285
 18852 1417 29000000 		.4byte	.LVL286-1
 18853 141b 0100     		.2byte	0x1
 18854 141d 50       		.byte	0x50
 18855 141e 29000000 		.4byte	.LVL286-1
 18856 1422 3A000000 		.4byte	.LVL288
ARM GAS  /tmp/cccFXynL.s 			page 333


 18857 1426 0100     		.2byte	0x1
 18858 1428 54       		.byte	0x54
 18859 1429 3A000000 		.4byte	.LVL288
 18860 142d 3C000000 		.4byte	.LVL289
 18861 1431 0100     		.2byte	0x1
 18862 1433 50       		.byte	0x50
 18863 1434 3C000000 		.4byte	.LVL289
 18864 1438 3E000000 		.4byte	.LVL290
 18865 143c 0100     		.2byte	0x1
 18866 143e 54       		.byte	0x54
 18867 143f 3E000000 		.4byte	.LVL290
 18868 1443 40000000 		.4byte	.LVL291
 18869 1447 0100     		.2byte	0x1
 18870 1449 50       		.byte	0x50
 18871 144a 40000000 		.4byte	.LVL291
 18872 144e 42000000 		.4byte	.LVL292
 18873 1452 0100     		.2byte	0x1
 18874 1454 54       		.byte	0x54
 18875 1455 42000000 		.4byte	.LVL292
 18876 1459 4C000000 		.4byte	.LFE269
 18877 145d 0400     		.2byte	0x4
 18878 145f F3       		.byte	0xf3
 18879 1460 01       		.uleb128 0x1
 18880 1461 50       		.byte	0x50
 18881 1462 9F       		.byte	0x9f
 18882 1463 00000000 		.4byte	0
 18883 1467 00000000 		.4byte	0
 18884              	.LLST98:
 18885 146b 0E000000 		.4byte	.LVL279
 18886 146f 1A000000 		.4byte	.LVL282
 18887 1473 0200     		.2byte	0x2
 18888 1475 30       		.byte	0x30
 18889 1476 9F       		.byte	0x9f
 18890 1477 1E000000 		.4byte	.LVL283
 18891 147b 24000000 		.4byte	.LVL284
 18892 147f 0100     		.2byte	0x1
 18893 1481 50       		.byte	0x50
 18894 1482 00000000 		.4byte	0
 18895 1486 00000000 		.4byte	0
 18896              	.LLST99:
 18897 148a 18000000 		.4byte	.LVL281
 18898 148e 1A000000 		.4byte	.LVL282
 18899 1492 0100     		.2byte	0x1
 18900 1494 50       		.byte	0x50
 18901 1495 1A000000 		.4byte	.LVL282
 18902 1499 42000000 		.4byte	.LVL292
 18903 149d 0100     		.2byte	0x1
 18904 149f 55       		.byte	0x55
 18905 14a0 00000000 		.4byte	0
 18906 14a4 00000000 		.4byte	0
 18907              	.LLST96:
 18908 14a8 00000000 		.4byte	.LVL272
 18909 14ac 06000000 		.4byte	.LVL273
 18910 14b0 0100     		.2byte	0x1
 18911 14b2 50       		.byte	0x50
 18912 14b3 06000000 		.4byte	.LVL273
 18913 14b7 10000000 		.4byte	.LVL275
ARM GAS  /tmp/cccFXynL.s 			page 334


 18914 14bb 0100     		.2byte	0x1
 18915 14bd 54       		.byte	0x54
 18916 14be 10000000 		.4byte	.LVL275
 18917 14c2 13000000 		.4byte	.LVL276-1
 18918 14c6 0100     		.2byte	0x1
 18919 14c8 50       		.byte	0x50
 18920 14c9 13000000 		.4byte	.LVL276-1
 18921 14cd 14000000 		.4byte	.LFE268
 18922 14d1 0400     		.2byte	0x4
 18923 14d3 F3       		.byte	0xf3
 18924 14d4 01       		.uleb128 0x1
 18925 14d5 50       		.byte	0x50
 18926 14d6 9F       		.byte	0x9f
 18927 14d7 00000000 		.4byte	0
 18928 14db 00000000 		.4byte	0
 18929              	.LLST0:
 18930 14df 00000000 		.4byte	.LVL0
 18931 14e3 08000000 		.4byte	.LVL1
 18932 14e7 0100     		.2byte	0x1
 18933 14e9 50       		.byte	0x50
 18934 14ea 08000000 		.4byte	.LVL1
 18935 14ee 14000000 		.4byte	.LFE267
 18936 14f2 0400     		.2byte	0x4
 18937 14f4 F3       		.byte	0xf3
 18938 14f5 01       		.uleb128 0x1
 18939 14f6 50       		.byte	0x50
 18940 14f7 9F       		.byte	0x9f
 18941 14f8 00000000 		.4byte	0
 18942 14fc 00000000 		.4byte	0
 18943              	.LLST1:
 18944 1500 08000000 		.4byte	.LVL1
 18945 1504 0B000000 		.4byte	.LVL2-1
 18946 1508 0100     		.2byte	0x1
 18947 150a 50       		.byte	0x50
 18948 150b 00000000 		.4byte	0
 18949 150f 00000000 		.4byte	0
 18950              	.LLST114:
 18951 1513 00000000 		.4byte	.LVL337
 18952 1517 0C000000 		.4byte	.LVL338
 18953 151b 0100     		.2byte	0x1
 18954 151d 50       		.byte	0x50
 18955 151e 0C000000 		.4byte	.LVL338
 18956 1522 2C000000 		.4byte	.LVL342
 18957 1526 0100     		.2byte	0x1
 18958 1528 54       		.byte	0x54
 18959 1529 2C000000 		.4byte	.LVL342
 18960 152d 30000000 		.4byte	.LFE266
 18961 1531 0400     		.2byte	0x4
 18962 1533 F3       		.byte	0xf3
 18963 1534 01       		.uleb128 0x1
 18964 1535 50       		.byte	0x50
 18965 1536 9F       		.byte	0x9f
 18966 1537 00000000 		.4byte	0
 18967 153b 00000000 		.4byte	0
 18968              	.LLST115:
 18969 153f 00000000 		.4byte	.LVL337
 18970 1543 16000000 		.4byte	.LVL340
ARM GAS  /tmp/cccFXynL.s 			page 335


 18971 1547 0100     		.2byte	0x1
 18972 1549 51       		.byte	0x51
 18973 154a 16000000 		.4byte	.LVL340
 18974 154e 1B000000 		.4byte	.LVL341-1
 18975 1552 0100     		.2byte	0x1
 18976 1554 52       		.byte	0x52
 18977 1555 1B000000 		.4byte	.LVL341-1
 18978 1559 2C000000 		.4byte	.LVL342
 18979 155d 0100     		.2byte	0x1
 18980 155f 55       		.byte	0x55
 18981 1560 2C000000 		.4byte	.LVL342
 18982 1564 2F000000 		.4byte	.LVL343-1
 18983 1568 0100     		.2byte	0x1
 18984 156a 51       		.byte	0x51
 18985 156b 2F000000 		.4byte	.LVL343-1
 18986 156f 30000000 		.4byte	.LFE266
 18987 1573 0400     		.2byte	0x4
 18988 1575 F3       		.byte	0xf3
 18989 1576 01       		.uleb128 0x1
 18990 1577 51       		.byte	0x51
 18991 1578 9F       		.byte	0x9f
 18992 1579 00000000 		.4byte	0
 18993 157d 00000000 		.4byte	0
 18994              	.LLST116:
 18995 1581 00000000 		.4byte	.LVL337
 18996 1585 12000000 		.4byte	.LVL339
 18997 1589 0100     		.2byte	0x1
 18998 158b 52       		.byte	0x52
 18999 158c 12000000 		.4byte	.LVL339
 19000 1590 2C000000 		.4byte	.LVL342
 19001 1594 0100     		.2byte	0x1
 19002 1596 56       		.byte	0x56
 19003 1597 2C000000 		.4byte	.LVL342
 19004 159b 2F000000 		.4byte	.LVL343-1
 19005 159f 0100     		.2byte	0x1
 19006 15a1 52       		.byte	0x52
 19007 15a2 2F000000 		.4byte	.LVL343-1
 19008 15a6 30000000 		.4byte	.LFE266
 19009 15aa 0400     		.2byte	0x4
 19010 15ac F3       		.byte	0xf3
 19011 15ad 01       		.uleb128 0x1
 19012 15ae 52       		.byte	0x52
 19013 15af 9F       		.byte	0x9f
 19014 15b0 00000000 		.4byte	0
 19015 15b4 00000000 		.4byte	0
 19016              	.LLST117:
 19017 15b8 00000000 		.4byte	.LVL337
 19018 15bc 1B000000 		.4byte	.LVL341-1
 19019 15c0 0100     		.2byte	0x1
 19020 15c2 53       		.byte	0x53
 19021 15c3 1B000000 		.4byte	.LVL341-1
 19022 15c7 2C000000 		.4byte	.LVL342
 19023 15cb 0100     		.2byte	0x1
 19024 15cd 57       		.byte	0x57
 19025 15ce 2C000000 		.4byte	.LVL342
 19026 15d2 2F000000 		.4byte	.LVL343-1
 19027 15d6 0100     		.2byte	0x1
ARM GAS  /tmp/cccFXynL.s 			page 336


 19028 15d8 53       		.byte	0x53
 19029 15d9 2F000000 		.4byte	.LVL343-1
 19030 15dd 30000000 		.4byte	.LFE266
 19031 15e1 0400     		.2byte	0x4
 19032 15e3 F3       		.byte	0xf3
 19033 15e4 01       		.uleb128 0x1
 19034 15e5 53       		.byte	0x53
 19035 15e6 9F       		.byte	0x9f
 19036 15e7 00000000 		.4byte	0
 19037 15eb 00000000 		.4byte	0
 19038              	.LLST118:
 19039 15ef 00000000 		.4byte	.LVL344
 19040 15f3 0A000000 		.4byte	.LVL345
 19041 15f7 0100     		.2byte	0x1
 19042 15f9 50       		.byte	0x50
 19043 15fa 0A000000 		.4byte	.LVL345
 19044 15fe 2A000000 		.4byte	.LVL348
 19045 1602 0100     		.2byte	0x1
 19046 1604 54       		.byte	0x54
 19047 1605 2A000000 		.4byte	.LVL348
 19048 1609 2E000000 		.4byte	.LFE265
 19049 160d 0400     		.2byte	0x4
 19050 160f F3       		.byte	0xf3
 19051 1610 01       		.uleb128 0x1
 19052 1611 50       		.byte	0x50
 19053 1612 9F       		.byte	0x9f
 19054 1613 00000000 		.4byte	0
 19055 1617 00000000 		.4byte	0
 19056              	.LLST119:
 19057 161b 00000000 		.4byte	.LVL344
 19058 161f 12000000 		.4byte	.LVL346
 19059 1623 0100     		.2byte	0x1
 19060 1625 51       		.byte	0x51
 19061 1626 12000000 		.4byte	.LVL346
 19062 162a 2A000000 		.4byte	.LVL348
 19063 162e 0100     		.2byte	0x1
 19064 1630 55       		.byte	0x55
 19065 1631 2A000000 		.4byte	.LVL348
 19066 1635 2D000000 		.4byte	.LVL349-1
 19067 1639 0100     		.2byte	0x1
 19068 163b 51       		.byte	0x51
 19069 163c 2D000000 		.4byte	.LVL349-1
 19070 1640 2E000000 		.4byte	.LFE265
 19071 1644 0400     		.2byte	0x4
 19072 1646 F3       		.byte	0xf3
 19073 1647 01       		.uleb128 0x1
 19074 1648 51       		.byte	0x51
 19075 1649 9F       		.byte	0x9f
 19076 164a 00000000 		.4byte	0
 19077 164e 00000000 		.4byte	0
 19078              	.LLST120:
 19079 1652 00000000 		.4byte	.LVL344
 19080 1656 19000000 		.4byte	.LVL347-1
 19081 165a 0100     		.2byte	0x1
 19082 165c 52       		.byte	0x52
 19083 165d 19000000 		.4byte	.LVL347-1
 19084 1661 2A000000 		.4byte	.LVL348
ARM GAS  /tmp/cccFXynL.s 			page 337


 19085 1665 0100     		.2byte	0x1
 19086 1667 56       		.byte	0x56
 19087 1668 2A000000 		.4byte	.LVL348
 19088 166c 2D000000 		.4byte	.LVL349-1
 19089 1670 0100     		.2byte	0x1
 19090 1672 52       		.byte	0x52
 19091 1673 2D000000 		.4byte	.LVL349-1
 19092 1677 2E000000 		.4byte	.LFE265
 19093 167b 0400     		.2byte	0x4
 19094 167d F3       		.byte	0xf3
 19095 167e 01       		.uleb128 0x1
 19096 167f 52       		.byte	0x52
 19097 1680 9F       		.byte	0x9f
 19098 1681 00000000 		.4byte	0
 19099 1685 00000000 		.4byte	0
 19100              	.LLST121:
 19101 1689 00000000 		.4byte	.LVL344
 19102 168d 19000000 		.4byte	.LVL347-1
 19103 1691 0100     		.2byte	0x1
 19104 1693 53       		.byte	0x53
 19105 1694 19000000 		.4byte	.LVL347-1
 19106 1698 2A000000 		.4byte	.LVL348
 19107 169c 0100     		.2byte	0x1
 19108 169e 57       		.byte	0x57
 19109 169f 2A000000 		.4byte	.LVL348
 19110 16a3 2D000000 		.4byte	.LVL349-1
 19111 16a7 0100     		.2byte	0x1
 19112 16a9 53       		.byte	0x53
 19113 16aa 2D000000 		.4byte	.LVL349-1
 19114 16ae 2E000000 		.4byte	.LFE265
 19115 16b2 0400     		.2byte	0x4
 19116 16b4 F3       		.byte	0xf3
 19117 16b5 01       		.uleb128 0x1
 19118 16b6 53       		.byte	0x53
 19119 16b7 9F       		.byte	0x9f
 19120 16b8 00000000 		.4byte	0
 19121 16bc 00000000 		.4byte	0
 19122              	.LLST105:
 19123 16c0 00000000 		.4byte	.LVL326
 19124 16c4 20000000 		.4byte	.LVL328
 19125 16c8 0100     		.2byte	0x1
 19126 16ca 52       		.byte	0x52
 19127 16cb 20000000 		.4byte	.LVL328
 19128 16cf 76000000 		.4byte	.LVL335
 19129 16d3 0100     		.2byte	0x1
 19130 16d5 5A       		.byte	0x5a
 19131 16d6 76000000 		.4byte	.LVL335
 19132 16da 84000000 		.4byte	.LFE292
 19133 16de 0400     		.2byte	0x4
 19134 16e0 F3       		.byte	0xf3
 19135 16e1 01       		.uleb128 0x1
 19136 16e2 52       		.byte	0x52
 19137 16e3 9F       		.byte	0x9f
 19138 16e4 00000000 		.4byte	0
 19139 16e8 00000000 		.4byte	0
 19140              	.LLST106:
 19141 16ec 00000000 		.4byte	.LVL326
ARM GAS  /tmp/cccFXynL.s 			page 338


 19142 16f0 34000000 		.4byte	.LVL330
 19143 16f4 0100     		.2byte	0x1
 19144 16f6 53       		.byte	0x53
 19145 16f7 34000000 		.4byte	.LVL330
 19146 16fb 84000000 		.4byte	.LFE292
 19147 16ff 0400     		.2byte	0x4
 19148 1701 F3       		.byte	0xf3
 19149 1702 01       		.uleb128 0x1
 19150 1703 53       		.byte	0x53
 19151 1704 9F       		.byte	0x9f
 19152 1705 00000000 		.4byte	0
 19153 1709 00000000 		.4byte	0
 19154              	.LLST107:
 19155 170d 00000000 		.4byte	.LVL326
 19156 1711 7C000000 		.4byte	.LVL336
 19157 1715 0200     		.2byte	0x2
 19158 1717 91       		.byte	0x91
 19159 1718 00       		.sleb128 0
 19160 1719 7C000000 		.4byte	.LVL336
 19161 171d 84000000 		.4byte	.LFE292
 19162 1721 0200     		.2byte	0x2
 19163 1723 7D       		.byte	0x7d
 19164 1724 00       		.sleb128 0
 19165 1725 00000000 		.4byte	0
 19166 1729 00000000 		.4byte	0
 19167              	.LLST108:
 19168 172d 08000000 		.4byte	.LVL327
 19169 1731 34000000 		.4byte	.LVL330
 19170 1735 0100     		.2byte	0x1
 19171 1737 51       		.byte	0x51
 19172 1738 00000000 		.4byte	0
 19173 173c 00000000 		.4byte	0
 19174              	.LLST109:
 19175 1740 2A000000 		.4byte	.LVL329
 19176 1744 76000000 		.4byte	.LVL335
 19177 1748 0100     		.2byte	0x1
 19178 174a 57       		.byte	0x57
 19179 174b 00000000 		.4byte	0
 19180 174f 00000000 		.4byte	0
 19181              	.LLST110:
 19182 1753 2A000000 		.4byte	.LVL329
 19183 1757 76000000 		.4byte	.LVL335
 19184 175b 0100     		.2byte	0x1
 19185 175d 56       		.byte	0x56
 19186 175e 00000000 		.4byte	0
 19187 1762 00000000 		.4byte	0
 19188              	.LLST111:
 19189 1766 2A000000 		.4byte	.LVL329
 19190 176a 76000000 		.4byte	.LVL335
 19191 176e 0100     		.2byte	0x1
 19192 1770 59       		.byte	0x59
 19193 1771 00000000 		.4byte	0
 19194 1775 00000000 		.4byte	0
 19195              	.LLST112:
 19196 1779 2A000000 		.4byte	.LVL329
 19197 177d 76000000 		.4byte	.LVL335
 19198 1781 0100     		.2byte	0x1
ARM GAS  /tmp/cccFXynL.s 			page 339


 19199 1783 58       		.byte	0x58
 19200 1784 00000000 		.4byte	0
 19201 1788 00000000 		.4byte	0
 19202              	.LLST113:
 19203 178c 3A000000 		.4byte	.LVL331
 19204 1790 76000000 		.4byte	.LVL335
 19205 1794 0100     		.2byte	0x1
 19206 1796 54       		.byte	0x54
 19207 1797 00000000 		.4byte	0
 19208 179b 00000000 		.4byte	0
 19209              	.LLST122:
 19210 179f 00000000 		.4byte	.LVL350
 19211 17a3 04000000 		.4byte	.LVL351
 19212 17a7 0100     		.2byte	0x1
 19213 17a9 50       		.byte	0x50
 19214 17aa 04000000 		.4byte	.LVL351
 19215 17ae 06000000 		.4byte	.LFE263
 19216 17b2 0400     		.2byte	0x4
 19217 17b4 F3       		.byte	0xf3
 19218 17b5 01       		.uleb128 0x1
 19219 17b6 50       		.byte	0x50
 19220 17b7 9F       		.byte	0x9f
 19221 17b8 00000000 		.4byte	0
 19222 17bc 00000000 		.4byte	0
 19223              		.section	.debug_aranges,"",%progbits
 19224 0000 C4000000 		.4byte	0xc4
 19225 0004 0200     		.2byte	0x2
 19226 0006 00000000 		.4byte	.Ldebug_info0
 19227 000a 04       		.byte	0x4
 19228 000b 00       		.byte	0
 19229 000c 0000     		.2byte	0
 19230 000e 0000     		.2byte	0
 19231 0010 00000000 		.4byte	.LFB267
 19232 0014 14000000 		.4byte	.LFE267-.LFB267
 19233 0018 00000000 		.4byte	.LFB289
 19234 001c E8000000 		.4byte	.LFE289-.LFB289
 19235 0020 00000000 		.4byte	.LFB287
 19236 0024 4C000000 		.4byte	.LFE287-.LFB287
 19237 0028 00000000 		.4byte	.LFB286
 19238 002c 54010000 		.4byte	.LFE286-.LFB286
 19239 0030 00000000 		.4byte	.LFB276
 19240 0034 20000000 		.4byte	.LFE276-.LFB276
 19241 0038 00000000 		.4byte	.LFB272
 19242 003c 68000000 		.4byte	.LFE272-.LFB272
 19243 0040 00000000 		.4byte	.LFB279
 19244 0044 64000000 		.4byte	.LFE279-.LFB279
 19245 0048 00000000 		.4byte	.LFB281
 19246 004c 94000000 		.4byte	.LFE281-.LFB281
 19247 0050 00000000 		.4byte	.LFB280
 19248 0054 10040000 		.4byte	.LFE280-.LFB280
 19249 0058 00000000 		.4byte	.LFB274
 19250 005c CC000000 		.4byte	.LFE274-.LFB274
 19251 0060 00000000 		.4byte	.LFB273
 19252 0064 B8000000 		.4byte	.LFE273-.LFB273
 19253 0068 00000000 		.4byte	.LFB268
 19254 006c 14000000 		.4byte	.LFE268-.LFB268
 19255 0070 00000000 		.4byte	.LFB269
ARM GAS  /tmp/cccFXynL.s 			page 340


 19256 0074 4C000000 		.4byte	.LFE269-.LFB269
 19257 0078 00000000 		.4byte	.LFB271
 19258 007c F4000000 		.4byte	.LFE271-.LFB271
 19259 0080 00000000 		.4byte	.LFB278
 19260 0084 68000000 		.4byte	.LFE278-.LFB278
 19261 0088 00000000 		.4byte	.LFB292
 19262 008c 84000000 		.4byte	.LFE292-.LFB292
 19263 0090 00000000 		.4byte	.LFB266
 19264 0094 30000000 		.4byte	.LFE266-.LFB266
 19265 0098 00000000 		.4byte	.LFB265
 19266 009c 2E000000 		.4byte	.LFE265-.LFB265
 19267 00a0 00000000 		.4byte	.LFB263
 19268 00a4 06000000 		.4byte	.LFE263-.LFB263
 19269 00a8 00000000 		.4byte	.LFB270
 19270 00ac F0010000 		.4byte	.LFE270-.LFB270
 19271 00b0 00000000 		.4byte	.LFB275
 19272 00b4 40000000 		.4byte	.LFE275-.LFB275
 19273 00b8 00000000 		.4byte	.LFB283
 19274 00bc B4000000 		.4byte	.LFE283-.LFB283
 19275 00c0 00000000 		.4byte	0
 19276 00c4 00000000 		.4byte	0
 19277              		.section	.debug_ranges,"",%progbits
 19278              	.Ldebug_ranges0:
 19279 0000 C8000000 		.4byte	.LBB58
 19280 0004 CA000000 		.4byte	.LBE58
 19281 0008 CC000000 		.4byte	.LBB62
 19282 000c E8000000 		.4byte	.LBE62
 19283 0010 1E010000 		.4byte	.LBB63
 19284 0014 30010000 		.4byte	.LBE63
 19285 0018 00000000 		.4byte	0
 19286 001c 00000000 		.4byte	0
 19287 0020 AE000000 		.4byte	.LBB79
 19288 0024 FA000000 		.4byte	.LBE79
 19289 0028 1E020000 		.4byte	.LBB102
 19290 002c 22020000 		.4byte	.LBE102
 19291 0030 00000000 		.4byte	0
 19292 0034 00000000 		.4byte	0
 19293 0038 28010000 		.4byte	.LBB82
 19294 003c F6010000 		.4byte	.LBE82
 19295 0040 F8010000 		.4byte	.LBB91
 19296 0044 FC010000 		.4byte	.LBE91
 19297 0048 26020000 		.4byte	.LBB103
 19298 004c 2A020000 		.4byte	.LBE103
 19299 0050 DA030000 		.4byte	.LBB105
 19300 0054 E4030000 		.4byte	.LBE105
 19301 0058 00000000 		.4byte	0
 19302 005c 00000000 		.4byte	0
 19303 0060 64010000 		.4byte	.LBB84
 19304 0064 F6010000 		.4byte	.LBE84
 19305 0068 F8010000 		.4byte	.LBB85
 19306 006c FC010000 		.4byte	.LBE85
 19307 0070 26020000 		.4byte	.LBB86
 19308 0074 2A020000 		.4byte	.LBE86
 19309 0078 DA030000 		.4byte	.LBB87
 19310 007c E4030000 		.4byte	.LBE87
 19311 0080 00000000 		.4byte	0
 19312 0084 00000000 		.4byte	0
ARM GAS  /tmp/cccFXynL.s 			page 341


 19313 0088 FC010000 		.4byte	.LBB92
 19314 008c 14020000 		.4byte	.LBE92
 19315 0090 2A020000 		.4byte	.LBB104
 19316 0094 DA030000 		.4byte	.LBE104
 19317 0098 E4030000 		.4byte	.LBB106
 19318 009c 10040000 		.4byte	.LBE106
 19319 00a0 00000000 		.4byte	0
 19320 00a4 00000000 		.4byte	0
 19321 00a8 2A020000 		.4byte	.LBB93
 19322 00ac B4020000 		.4byte	.LBE93
 19323 00b0 E8020000 		.4byte	.LBB100
 19324 00b4 DA030000 		.4byte	.LBE100
 19325 00b8 E4030000 		.4byte	.LBB101
 19326 00bc 10040000 		.4byte	.LBE101
 19327 00c0 00000000 		.4byte	0
 19328 00c4 00000000 		.4byte	0
 19329 00c8 88030000 		.4byte	.LBB95
 19330 00cc DA030000 		.4byte	.LBE95
 19331 00d0 E4030000 		.4byte	.LBB96
 19332 00d4 E8030000 		.4byte	.LBE96
 19333 00d8 EC030000 		.4byte	.LBB97
 19334 00dc 10040000 		.4byte	.LBE97
 19335 00e0 00000000 		.4byte	0
 19336 00e4 00000000 		.4byte	0
 19337 00e8 20000000 		.4byte	.LBB109
 19338 00ec 24000000 		.4byte	.LBE109
 19339 00f0 26000000 		.4byte	.LBB112
 19340 00f4 2E000000 		.4byte	.LBE112
 19341 00f8 00000000 		.4byte	0
 19342 00fc 00000000 		.4byte	0
 19343 0100 00000000 		.4byte	.LBB123
 19344 0104 02000000 		.4byte	.LBE123
 19345 0108 06000000 		.4byte	.LBB126
 19346 010c 0A000000 		.4byte	.LBE126
 19347 0110 00000000 		.4byte	0
 19348 0114 00000000 		.4byte	0
 19349 0118 00000000 		.4byte	.LFB267
 19350 011c 14000000 		.4byte	.LFE267
 19351 0120 00000000 		.4byte	.LFB289
 19352 0124 E8000000 		.4byte	.LFE289
 19353 0128 00000000 		.4byte	.LFB287
 19354 012c 4C000000 		.4byte	.LFE287
 19355 0130 00000000 		.4byte	.LFB286
 19356 0134 54010000 		.4byte	.LFE286
 19357 0138 00000000 		.4byte	.LFB276
 19358 013c 20000000 		.4byte	.LFE276
 19359 0140 00000000 		.4byte	.LFB272
 19360 0144 68000000 		.4byte	.LFE272
 19361 0148 00000000 		.4byte	.LFB279
 19362 014c 64000000 		.4byte	.LFE279
 19363 0150 00000000 		.4byte	.LFB281
 19364 0154 94000000 		.4byte	.LFE281
 19365 0158 00000000 		.4byte	.LFB280
 19366 015c 10040000 		.4byte	.LFE280
 19367 0160 00000000 		.4byte	.LFB274
 19368 0164 CC000000 		.4byte	.LFE274
 19369 0168 00000000 		.4byte	.LFB273
ARM GAS  /tmp/cccFXynL.s 			page 342


 19370 016c B8000000 		.4byte	.LFE273
 19371 0170 00000000 		.4byte	.LFB268
 19372 0174 14000000 		.4byte	.LFE268
 19373 0178 00000000 		.4byte	.LFB269
 19374 017c 4C000000 		.4byte	.LFE269
 19375 0180 00000000 		.4byte	.LFB271
 19376 0184 F4000000 		.4byte	.LFE271
 19377 0188 00000000 		.4byte	.LFB278
 19378 018c 68000000 		.4byte	.LFE278
 19379 0190 00000000 		.4byte	.LFB292
 19380 0194 84000000 		.4byte	.LFE292
 19381 0198 00000000 		.4byte	.LFB266
 19382 019c 30000000 		.4byte	.LFE266
 19383 01a0 00000000 		.4byte	.LFB265
 19384 01a4 2E000000 		.4byte	.LFE265
 19385 01a8 00000000 		.4byte	.LFB263
 19386 01ac 06000000 		.4byte	.LFE263
 19387 01b0 00000000 		.4byte	.LFB270
 19388 01b4 F0010000 		.4byte	.LFE270
 19389 01b8 00000000 		.4byte	.LFB275
 19390 01bc 40000000 		.4byte	.LFE275
 19391 01c0 00000000 		.4byte	.LFB283
 19392 01c4 B4000000 		.4byte	.LFE283
 19393 01c8 00000000 		.4byte	0
 19394 01cc 00000000 		.4byte	0
 19395              		.section	.debug_line,"",%progbits
 19396              	.Ldebug_line0:
 19397 0000 D70B0000 		.section	.debug_str,"MS",%progbits,1
 19397      0200DE05 
 19397      00000201 
 19397      FB0E0D00 
 19397      01010101 
 19398              	.LASF497:
 19399 0000 5553425F 		.ascii	"USB_STOP\000"
 19399      53544F50 
 19399      00
 19400              	.LASF252:
 19401 0009 706F7274 		.ascii	"port_intctx\000"
 19401      5F696E74 
 19401      63747800 
 19402              	.LASF273:
 19403 0015 63685F70 		.ascii	"ch_ptrsize\000"
 19403      74727369 
 19403      7A6500
 19404              	.LASF720:
 19405 0020 54415247 		.ascii	"TARGET_WATCH_READ\000"
 19405      45545F57 
 19405      41544348 
 19405      5F524541 
 19405      4400
 19406              	.LASF452:
 19407 0032 6576656E 		.ascii	"event\000"
 19407      7400
 19408              	.LASF791:
 19409 0038 72657365 		.ascii	"reserved\000"
 19409      72766564 
 19409      00
ARM GAS  /tmp/cccFXynL.s 			page 343


 19410              	.LASF361:
 19411 0041 43414E5F 		.ascii	"CAN_STARTING\000"
 19411      53544152 
 19411      54494E47 
 19411      00
 19412              	.LASF750:
 19413 004e 54415247 		.ascii	"TARGET_SEEK_SET\000"
 19413      45545F53 
 19413      45454B5F 
 19413      53455400 
 19414              	.LASF894:
 19415 005e 636F6D6D 		.ascii	"commands_printf\000"
 19415      616E6473 
 19415      5F707269 
 19415      6E746600 
 19416              	.LASF787:
 19417 006e 73706563 		.ascii	"specific_name\000"
 19417      69666963 
 19417      5F6E616D 
 19417      6500
 19418              	.LASF725:
 19419 007c 54415247 		.ascii	"TARGET_EINTR\000"
 19419      45545F45 
 19419      494E5452 
 19419      00
 19420              	.LASF144:
 19421 0089 6D73675F 		.ascii	"msg_t\000"
 19421      7400
 19422              	.LASF388:
 19423 008f 4F504D4F 		.ascii	"OPMODE_SMBUS_DEVICE\000"
 19423      44455F53 
 19423      4D425553 
 19423      5F444556 
 19423      49434500 
 19424              	.LASF666:
 19425 00a3 72656663 		.ascii	"refcnt\000"
 19425      6E7400
 19426              	.LASF777:
 19427 00aa 65726173 		.ascii	"erased\000"
 19427      656400
 19428              	.LASF735:
 19429 00b1 54415247 		.ascii	"TARGET_EMFILE\000"
 19429      45545F45 
 19429      4D46494C 
 19429      4500
 19430              	.LASF557:
 19431 00bf 44494550 		.ascii	"DIEPTXF0\000"
 19431      54584630 
 19431      00
 19432              	.LASF634:
 19433 00c8 55534244 		.ascii	"USBD1\000"
 19433      3100
 19434              	.LASF360:
 19435 00ce 43414E5F 		.ascii	"CAN_STOP\000"
 19435      53544F50 
 19435      00
 19436              	.LASF286:
ARM GAS  /tmp/cccFXynL.s 			page 344


 19437 00d7 63665F6F 		.ascii	"cf_off_time\000"
 19437      66665F74 
 19437      696D6500 
 19438              	.LASF199:
 19439 00e3 63685F73 		.ascii	"ch_system_t\000"
 19439      79737465 
 19439      6D5F7400 
 19440              	.LASF3:
 19441 00ef 5F5F7569 		.ascii	"__uint8_t\000"
 19441      6E74385F 
 19441      7400
 19442              	.LASF259:
 19443 00f9 77747365 		.ascii	"wtsemp\000"
 19443      6D7000
 19444              	.LASF314:
 19445 0100 5F426F6F 		.ascii	"_Bool\000"
 19445      6C00
 19446              	.LASF911:
 19447 0106 61646976 		.ascii	"adiv5_ap_write\000"
 19447      355F6170 
 19447      5F777269 
 19447      746500
 19448              	.LASF406:
 19449 0115 646D6172 		.ascii	"dmarx\000"
 19449      7800
 19450              	.LASF74:
 19451 011b 5F6D6273 		.ascii	"_mbstate\000"
 19451      74617465 
 19451      00
 19452              	.LASF53:
 19453 0124 5F617465 		.ascii	"_atexit\000"
 19453      78697400 
 19454              	.LASF711:
 19455 012c 54415247 		.ascii	"TARGET_HALT_REQUEST\000"
 19455      45545F48 
 19455      414C545F 
 19455      52455155 
 19455      45535400 
 19456              	.LASF576:
 19457 0140 72657376 		.ascii	"resvd700\000"
 19457      64373030 
 19457      00
 19458              	.LASF587:
 19459 0149 44564255 		.ascii	"DVBUSDIS\000"
 19459      53444953 
 19459      00
 19460              	.LASF400:
 19461 0152 6572726F 		.ascii	"errors\000"
 19461      727300
 19462              	.LASF470:
 19463 0159 73706963 		.ascii	"spicallback_t\000"
 19463      616C6C62 
 19463      61636B5F 
 19463      7400
 19464              	.LASF195:
 19465 0167 76745F73 		.ascii	"vt_systime\000"
 19465      79737469 
ARM GAS  /tmp/cccFXynL.s 			page 345


 19465      6D6500
 19466              	.LASF495:
 19467 0172 75736265 		.ascii	"usbep_t\000"
 19467      705F7400 
 19468              	.LASF43:
 19469 017a 5F5F746D 		.ascii	"__tm_mon\000"
 19469      5F6D6F6E 
 19469      00
 19470              	.LASF51:
 19471 0183 5F666E74 		.ascii	"_fntypes\000"
 19471      79706573 
 19471      00
 19472              	.LASF708:
 19473 018c 74617267 		.ascii	"target_halt_reason\000"
 19473      65745F68 
 19473      616C745F 
 19473      72656173 
 19473      6F6E00
 19474              	.LASF268:
 19475 019f 6D5F6E65 		.ascii	"m_next\000"
 19475      787400
 19476              	.LASF349:
 19477 01a6 50434461 		.ascii	"PCData\000"
 19477      746100
 19478              	.LASF81:
 19479 01ad 5F696E63 		.ascii	"_inc\000"
 19479      00
 19480              	.LASF54:
 19481 01b2 5F696E64 		.ascii	"_ind\000"
 19481      00
 19482              	.LASF857:
 19483 01b7 636F7274 		.ascii	"cortexm_run_stub\000"
 19483      65786D5F 
 19483      72756E5F 
 19483      73747562 
 19483      00
 19484              	.LASF458:
 19485 01c8 72656164 		.ascii	"read\000"
 19485      00
 19486              	.LASF907:
 19487 01cd 74617267 		.ascii	"target_list_free\000"
 19487      65745F6C 
 19487      6973745F 
 19487      66726565 
 19487      00
 19488              	.LASF561:
 19489 01de 47434346 		.ascii	"GCCFG\000"
 19489      4700
 19490              	.LASF848:
 19491 01e4 73746570 		.ascii	"step\000"
 19491      00
 19492              	.LASF846:
 19493 01e9 73707365 		.ascii	"spsel\000"
 19493      6C00
 19494              	.LASF425:
 19495 01ef 42445452 		.ascii	"BDTR\000"
 19495      00
ARM GAS  /tmp/cccFXynL.s 			page 346


 19496              	.LASF761:
 19497 01f4 73746174 		.ascii	"stat\000"
 19497      00
 19498              	.LASF869:
 19499 01f9 73746172 		.ascii	"start_time\000"
 19499      745F7469 
 19499      6D6500
 19500              	.LASF704:
 19501 0204 70726976 		.ascii	"priv\000"
 19501      00
 19502              	.LASF398:
 19503 0209 49324343 		.ascii	"I2CConfig\000"
 19503      6F6E6669 
 19503      6700
 19504              	.LASF15:
 19505 0213 75696E74 		.ascii	"uint16_t\000"
 19505      31365F74 
 19505      00
 19506              	.LASF923:
 19507 021c 706C6174 		.ascii	"platform_time_ms\000"
 19507      666F726D 
 19507      5F74696D 
 19507      655F6D73 
 19507      00
 19508              	.LASF407:
 19509 022d 646D6174 		.ascii	"dmatx\000"
 19509      7800
 19510              	.LASF675:
 19511 0233 61707365 		.ascii	"apsel\000"
 19511      6C00
 19512              	.LASF632:
 19513 0239 736F665F 		.ascii	"sof_cb\000"
 19513      636200
 19514              	.LASF667:
 19515 0240 64705F69 		.ascii	"dp_idcode\000"
 19515      64636F64 
 19515      6500
 19516              	.LASF60:
 19517 024a 5F666C61 		.ascii	"_flags\000"
 19517      677300
 19518              	.LASF703:
 19519 0251 6E657874 		.ascii	"next\000"
 19519      00
 19520              	.LASF342:
 19521 0256 6F737065 		.ascii	"ospeedr\000"
 19521      65647200 
 19522              	.LASF771:
 19523 025e 6C656E67 		.ascii	"length\000"
 19523      746800
 19524              	.LASF686:
 19525 0265 72656773 		.ascii	"regs_size\000"
 19525      5F73697A 
 19525      6500
 19526              	.LASF564:
 19527 026f 44494550 		.ascii	"DIEPTXF\000"
 19527      54584600 
 19528              	.LASF292:
ARM GAS  /tmp/cccFXynL.s 			page 347


 19529 0277 656C5F6E 		.ascii	"el_next\000"
 19529      65787400 
 19530              	.LASF480:
 19531 027f 696E5F70 		.ascii	"in_params\000"
 19531      6172616D 
 19531      7300
 19532              	.LASF91:
 19533 0289 5F637674 		.ascii	"_cvtlen\000"
 19533      6C656E00 
 19534              	.LASF176:
 19535 0291 63685F74 		.ascii	"ch_threads_queue\000"
 19535      68726561 
 19535      64735F71 
 19535      75657565 
 19535      00
 19536              	.LASF810:
 19537 02a2 64636163 		.ascii	"dcache_minline\000"
 19537      68655F6D 
 19537      696E6C69 
 19537      6E6500
 19538              	.LASF95:
 19539 02b1 5F736967 		.ascii	"_sig_func\000"
 19539      5F66756E 
 19539      6300
 19540              	.LASF861:
 19541 02bb 636F7274 		.ascii	"cortexm_regs_write\000"
 19541      65786D5F 
 19541      72656773 
 19541      5F777269 
 19541      746500
 19542              	.LASF155:
 19543 02ce 705F6E65 		.ascii	"p_newer\000"
 19543      77657200 
 19544              	.LASF895:
 19545 02d6 74635F73 		.ascii	"tc_system\000"
 19545      79737465 
 19545      6D00
 19546              	.LASF574:
 19547 02e0 48505254 		.ascii	"HPRT\000"
 19547      00
 19548              	.LASF855:
 19549 02e5 636F7274 		.ascii	"cortexm_reset\000"
 19549      65786D5F 
 19549      72657365 
 19549      7400
 19550              	.LASF528:
 19551 02f3 4843494E 		.ascii	"HCINT\000"
 19551      5400
 19552              	.LASF808:
 19553 02f9 64656D63 		.ascii	"demcr\000"
 19553      7200
 19554              	.LASF799:
 19555 02ff 636F7274 		.ascii	"cortexm_cmd_list\000"
 19555      65786D5F 
 19555      636D645F 
 19555      6C697374 
 19555      00
ARM GAS  /tmp/cccFXynL.s 			page 348


 19556              	.LASF283:
 19557 0310 63665F6F 		.ascii	"cf_off_flags\000"
 19557      66665F66 
 19557      6C616773 
 19557      00
 19558              	.LASF73:
 19559 031d 5F6C6F63 		.ascii	"_lock\000"
 19559      6B00
 19560              	.LASF69:
 19561 0323 5F6E6275 		.ascii	"_nbuf\000"
 19561      6600
 19562              	.LASF464:
 19563 0329 5350495F 		.ascii	"SPI_STOP\000"
 19563      53544F50 
 19563      00
 19564              	.LASF773:
 19565 0332 74617267 		.ascii	"target_flash\000"
 19565      65745F66 
 19565      6C617368 
 19565      00
 19566              	.LASF127:
 19567 033f 5F756E75 		.ascii	"_unused\000"
 19567      73656400 
 19568              	.LASF348:
 19569 0347 50424461 		.ascii	"PBData\000"
 19569      746100
 19570              	.LASF806:
 19571 034e 68775F62 		.ascii	"hw_breakpoint\000"
 19571      7265616B 
 19571      706F696E 
 19571      7400
 19572              	.LASF853:
 19573 035c 636F7274 		.ascii	"cortexm_halt_resume\000"
 19573      65786D5F 
 19573      68616C74 
 19573      5F726573 
 19573      756D6500 
 19574              	.LASF271:
 19575 0370 63685F73 		.ascii	"ch_size\000"
 19575      697A6500 
 19576              	.LASF653:
 19577 0378 69725F70 		.ascii	"ir_postscan\000"
 19577      6F737473 
 19577      63616E00 
 19578              	.LASF570:
 19579 0384 48505458 		.ascii	"HPTXSTS\000"
 19579      53545300 
 19580              	.LASF341:
 19581 038c 6F747970 		.ascii	"otyper\000"
 19581      657200
 19582              	.LASF924:
 19583 0393 61646976 		.ascii	"adiv5_ap_unref\000"
 19583      355F6170 
 19583      5F756E72 
 19583      656600
 19584              	.LASF332:
 19585 03a2 4F545950 		.ascii	"OTYPER\000"
ARM GAS  /tmp/cccFXynL.s 			page 349


 19585      455200
 19586              	.LASF468:
 19587 03a9 73706973 		.ascii	"spistate_t\000"
 19587      74617465 
 19587      5F7400
 19588              	.LASF526:
 19589 03b4 48434348 		.ascii	"HCCHAR\000"
 19589      415200
 19590              	.LASF382:
 19591 03bb 4932435F 		.ascii	"I2C_ACTIVE_RX\000"
 19591      41435449 
 19591      56455F52 
 19591      5800
 19592              	.LASF149:
 19593 03c9 74687265 		.ascii	"thread_t\000"
 19593      61645F74 
 19593      00
 19594              	.LASF294:
 19595 03d2 656C5F65 		.ascii	"el_events\000"
 19595      76656E74 
 19595      7300
 19596              	.LASF880:
 19597 03dc 72616D5F 		.ascii	"ram_end\000"
 19597      656E6400 
 19598              	.LASF762:
 19599 03e4 66737461 		.ascii	"fstat\000"
 19599      7400
 19600              	.LASF373:
 19601 03ea 736C6565 		.ascii	"sleep_event\000"
 19601      705F6576 
 19601      656E7400 
 19602              	.LASF194:
 19603 03f6 63685F76 		.ascii	"ch_virtual_timers_list\000"
 19603      69727475 
 19603      616C5F74 
 19603      696D6572 
 19603      735F6C69 
 19604              	.LASF327:
 19605 040d 76656374 		.ascii	"vector\000"
 19605      6F7200
 19606              	.LASF552:
 19607 0414 47494E54 		.ascii	"GINTSTS\000"
 19607      53545300 
 19608              	.LASF763:
 19609 041c 67657474 		.ascii	"gettimeofday\000"
 19609      696D656F 
 19609      66646179 
 19609      00
 19610              	.LASF16:
 19611 0429 696E7433 		.ascii	"int32_t\000"
 19611      325F7400 
 19612              	.LASF396:
 19613 0431 636C6F63 		.ascii	"clock_speed\000"
 19613      6B5F7370 
 19613      65656400 
 19614              	.LASF148:
 19615 043d 73797374 		.ascii	"systime_t\000"
ARM GAS  /tmp/cccFXynL.s 			page 350


 19615      696D655F 
 19615      7400
 19616              	.LASF839:
 19617 0447 626B7074 		.ascii	"bkpt_instr\000"
 19617      5F696E73 
 19617      747200
 19618              	.LASF375:
 19619 0452 43414E44 		.ascii	"CANDriver\000"
 19619      72697665 
 19619      7200
 19620              	.LASF644:
 19621 045c 6D61736B 		.ascii	"mask\000"
 19621      00
 19622              	.LASF105:
 19623 0461 5F616464 		.ascii	"_add\000"
 19623      00
 19624              	.LASF233:
 19625 0466 4D304152 		.ascii	"M0AR\000"
 19625      00
 19626              	.LASF533:
 19627 046b 72657376 		.ascii	"resvd1c\000"
 19627      64316300 
 19628              	.LASF819:
 19629 0473 44425F44 		.ascii	"DB_DEMCR\000"
 19629      454D4352 
 19629      00
 19630              	.LASF386:
 19631 047c 69326366 		.ascii	"i2cflags_t\000"
 19631      6C616773 
 19631      5F7400
 19632              	.LASF571:
 19633 0487 4841494E 		.ascii	"HAINT\000"
 19633      5400
 19634              	.LASF228:
 19635 048d 46413152 		.ascii	"FA1R\000"
 19635      00
 19636              	.LASF722:
 19637 0492 74617267 		.ascii	"target_errno\000"
 19637      65745F65 
 19637      72726E6F 
 19637      00
 19638              	.LASF568:
 19639 049f 48464E55 		.ascii	"HFNUM\000"
 19639      4D00
 19640              	.LASF310:
 19641 04a5 716E6F74 		.ascii	"qnotify_t\000"
 19641      6966795F 
 19641      7400
 19642              	.LASF325:
 19643 04af 69736869 		.ascii	"ishift\000"
 19643      667400
 19644              	.LASF933:
 19645 04b6 5F5F6275 		.ascii	"__builtin_memset\000"
 19645      696C7469 
 19645      6E5F6D65 
 19645      6D736574 
 19645      00
ARM GAS  /tmp/cccFXynL.s 			page 351


 19646              	.LASF305:
 19647 04c7 715F746F 		.ascii	"q_top\000"
 19647      7000
 19648              	.LASF62:
 19649 04cd 5F6C6266 		.ascii	"_lbfsize\000"
 19649      73697A65 
 19649      00
 19650              	.LASF519:
 19651 04d6 75645F73 		.ascii	"ud_string\000"
 19651      7472696E 
 19651      6700
 19652              	.LASF399:
 19653 04e0 49324344 		.ascii	"I2CDriver\000"
 19653      72697665 
 19653      7200
 19654              	.LASF672:
 19655 04ea 61626F72 		.ascii	"abort\000"
 19655      7400
 19656              	.LASF381:
 19657 04f0 4932435F 		.ascii	"I2C_ACTIVE_TX\000"
 19657      41435449 
 19657      56455F54 
 19657      5800
 19658              	.LASF387:
 19659 04fe 4F504D4F 		.ascii	"OPMODE_I2C\000"
 19659      44455F49 
 19659      324300
 19660              	.LASF580:
 19661 0509 72657376 		.ascii	"resvd80C\000"
 19661      64383043 
 19661      00
 19662              	.LASF629:
 19663 0512 6576656E 		.ascii	"event_cb\000"
 19663      745F6362 
 19663      00
 19664              	.LASF726:
 19665 051b 54415247 		.ascii	"TARGET_EBADF\000"
 19665      45545F45 
 19665      42414446 
 19665      00
 19666              	.LASF547:
 19667 0528 474F5447 		.ascii	"GOTGCTL\000"
 19667      43544C00 
 19668              	.LASF913:
 19669 0530 74617267 		.ascii	"target_new\000"
 19669      65745F6E 
 19669      657700
 19670              	.LASF522:
 19671 053b 75736265 		.ascii	"usbepcallback_t\000"
 19671      7063616C 
 19671      6C626163 
 19671      6B5F7400 
 19672              	.LASF72:
 19673 054b 5F646174 		.ascii	"_data\000"
 19673      6100
 19674              	.LASF202:
 19675 0551 76746C69 		.ascii	"vtlist\000"
ARM GAS  /tmp/cccFXynL.s 			page 352


 19675      737400
 19676              	.LASF411:
 19677 0558 4943555F 		.ascii	"ICU_READY\000"
 19677      52454144 
 19677      5900
 19678              	.LASF925:
 19679 0562 66726565 		.ascii	"free\000"
 19679      00
 19680              	.LASF238:
 19681 0567 54524953 		.ascii	"TRISE\000"
 19681      4500
 19682              	.LASF586:
 19683 056d 72657376 		.ascii	"resvd824\000"
 19683      64383234 
 19683      00
 19684              	.LASF164:
 19685 0576 705F7761 		.ascii	"p_waiting\000"
 19685      6974696E 
 19685      6700
 19686              	.LASF837:
 19687 0580 72656773 		.ascii	"regs\000"
 19687      00
 19688              	.LASF418:
 19689 0585 70636372 		.ascii	"pccrp\000"
 19689      7000
 19690              	.LASF302:
 19691 058b 715F7761 		.ascii	"q_waiting\000"
 19691      6974696E 
 19691      6700
 19692              	.LASF210:
 19693 0595 43414E5F 		.ascii	"CAN_TxMailBox_TypeDef\000"
 19693      54784D61 
 19693      696C426F 
 19693      785F5479 
 19693      70654465 
 19694              	.LASF201:
 19695 05ab 726C6973 		.ascii	"rlist\000"
 19695      7400
 19696              	.LASF173:
 19697 05b1 74687265 		.ascii	"threads_list_t\000"
 19697      6164735F 
 19697      6C697374 
 19697      5F7400
 19698              	.LASF254:
 19699 05c0 746D5F63 		.ascii	"tm_calibration_t\000"
 19699      616C6962 
 19699      72617469 
 19699      6F6E5F74 
 19699      00
 19700              	.LASF311:
 19701 05d1 696E7075 		.ascii	"input_queue_t\000"
 19701      745F7175 
 19701      6575655F 
 19701      7400
 19702              	.LASF128:
 19703 05df 5F5F6C6F 		.ascii	"__lock\000"
 19703      636B00
ARM GAS  /tmp/cccFXynL.s 			page 353


 19704              	.LASF391:
 19705 05e6 5354445F 		.ascii	"STD_DUTY_CYCLE\000"
 19705      44555459 
 19705      5F435943 
 19705      4C4500
 19706              	.LASF76:
 19707 05f5 5F726565 		.ascii	"_reent\000"
 19707      6E7400
 19708              	.LASF279:
 19709 05fc 63665F6F 		.ascii	"cf_off_older\000"
 19709      66665F6F 
 19709      6C646572 
 19709      00
 19710              	.LASF859:
 19711 0609 64657374 		.ascii	"dest\000"
 19711      00
 19712              	.LASF614:
 19713 060e 72787175 		.ascii	"rxqueued\000"
 19713      65756564 
 19713      00
 19714              	.LASF724:
 19715 0617 54415247 		.ascii	"TARGET_ENOENT\000"
 19715      45545F45 
 19715      4E4F454E 
 19715      5400
 19716              	.LASF436:
 19717 0625 69637563 		.ascii	"icuchannel_t\000"
 19717      68616E6E 
 19717      656C5F74 
 19717      00
 19718              	.LASF364:
 19719 0632 63616E73 		.ascii	"canstate_t\000"
 19719      74617465 
 19719      5F7400
 19720              	.LASF230:
 19721 063d 7346696C 		.ascii	"sFilterRegister\000"
 19721      74657252 
 19721      65676973 
 19721      74657200 
 19722              	.LASF97:
 19723 064d 5F5F7366 		.ascii	"__sf\000"
 19723      00
 19724              	.LASF585:
 19725 0652 72657376 		.ascii	"resvd820\000"
 19725      64383230 
 19725      00
 19726              	.LASF57:
 19727 065b 5F626173 		.ascii	"_base\000"
 19727      6500
 19728              	.LASF395:
 19729 0661 6F705F6D 		.ascii	"op_mode\000"
 19729      6F646500 
 19730              	.LASF114:
 19731 0669 5F6D6274 		.ascii	"_mbtowc_state\000"
 19731      6F77635F 
 19731      73746174 
 19731      6500
ARM GAS  /tmp/cccFXynL.s 			page 354


 19732              	.LASF876:
 19733 0677 696E7661 		.ascii	"invalidate\000"
 19733      6C696461 
 19733      746500
 19734              	.LASF736:
 19735 0682 54415247 		.ascii	"TARGET_ENFILE\000"
 19735      45545F45 
 19735      4E46494C 
 19735      4500
 19736              	.LASF378:
 19737 0690 4932435F 		.ascii	"I2C_UNINIT\000"
 19737      554E494E 
 19737      495400
 19738              	.LASF918:
 19739 069b 73746D33 		.ascii	"stm32f4_probe\000"
 19739      3266345F 
 19739      70726F62 
 19739      6500
 19740              	.LASF447:
 19741 06a9 53445F55 		.ascii	"SD_UNINIT\000"
 19741      4E494E49 
 19741      5400
 19742              	.LASF648:
 19743 06b3 64725F70 		.ascii	"dr_prescan\000"
 19743      72657363 
 19743      616E00
 19744              	.LASF826:
 19745 06be 61726763 		.ascii	"argc\000"
 19745      00
 19746              	.LASF689:
 19747 06c3 72656773 		.ascii	"regs_write\000"
 19747      5F777269 
 19747      746500
 19748              	.LASF789:
 19749 06ce 62726561 		.ascii	"breakwatch\000"
 19749      6B776174 
 19749      636800
 19750              	.LASF143:
 19751 06d9 74707269 		.ascii	"tprio_t\000"
 19751      6F5F7400 
 19752              	.LASF589:
 19753 06e1 72657376 		.ascii	"resvd830\000"
 19753      64383330 
 19753      00
 19754              	.LASF647:
 19755 06ea 696E6E65 		.ascii	"innermost_exception\000"
 19755      726D6F73 
 19755      745F6578 
 19755      63657074 
 19755      696F6E00 
 19756              	.LASF38:
 19757 06fe 5F5F746D 		.ascii	"__tm\000"
 19757      00
 19758              	.LASF700:
 19759 0703 666C6173 		.ascii	"flash\000"
 19759      6800
 19760              	.LASF889:
ARM GAS  /tmp/cccFXynL.s 			page 355


 19761 0709 74617267 		.ascii	"target_mem_read16\000"
 19761      65745F6D 
 19761      656D5F72 
 19761      65616431 
 19761      3600
 19762              	.LASF591:
 19763 071b 72657376 		.ascii	"resvd838\000"
 19763      64383338 
 19763      00
 19764              	.LASF394:
 19765 0724 69326364 		.ascii	"i2cdutycycle_t\000"
 19765      75747963 
 19765      79636C65 
 19765      5F7400
 19766              	.LASF841:
 19767 0733 68667372 		.ascii	"hfsr\000"
 19767      00
 19768              	.LASF794:
 19769 0738 6F707461 		.ascii	"optarg\000"
 19769      726700
 19770              	.LASF592:
 19771 073f 72657376 		.ascii	"resvd83C\000"
 19771      64383343 
 19771      00
 19772              	.LASF402:
 19773 0748 74687265 		.ascii	"thread\000"
 19773      616400
 19774              	.LASF588:
 19775 074f 44564255 		.ascii	"DVBUSPULSE\000"
 19775      5350554C 
 19775      534500
 19776              	.LASF486:
 19777 075a 73657475 		.ascii	"setup\000"
 19777      7000
 19778              	.LASF463:
 19779 0760 5350495F 		.ascii	"SPI_UNINIT\000"
 19779      554E494E 
 19779      495400
 19780              	.LASF540:
 19781 076b 44545846 		.ascii	"DTXFSTS\000"
 19781      53545300 
 19782              	.LASF380:
 19783 0773 4932435F 		.ascii	"I2C_READY\000"
 19783      52454144 
 19783      5900
 19784              	.LASF824:
 19785 077d 70666C61 		.ascii	"pflag\000"
 19785      6700
 19786              	.LASF171:
 19787 0783 6D6F746F 		.ascii	"motor_selected\000"
 19787      725F7365 
 19787      6C656374 
 19787      656400
 19788              	.LASF46:
 19789 0792 5F5F746D 		.ascii	"__tm_yday\000"
 19789      5F796461 
 19789      7900
ARM GAS  /tmp/cccFXynL.s 			page 356


 19790              	.LASF809:
 19791 079c 6861735F 		.ascii	"has_cache\000"
 19791      63616368 
 19791      6500
 19792              	.LASF424:
 19793 07a6 43434552 		.ascii	"CCER\000"
 19793      00
 19794              	.LASF245:
 19795 07ab 49325350 		.ascii	"I2SPR\000"
 19795      5200
 19796              	.LASF643:
 19797 07b1 74797065 		.ascii	"type\000"
 19797      00
 19798              	.LASF549:
 19799 07b6 47414842 		.ascii	"GAHBCFG\000"
 19799      43464700 
 19800              	.LASF20:
 19801 07be 5F4C4F43 		.ascii	"_LOCK_T\000"
 19801      4B5F5400 
 19802              	.LASF760:
 19803 07c6 756E6C69 		.ascii	"unlink\000"
 19803      6E6B00
 19804              	.LASF593:
 19805 07cd 72657376 		.ascii	"resvd840\000"
 19805      64383430 
 19805      00
 19806              	.LASF241:
 19807 07d6 43524350 		.ascii	"CRCPR\000"
 19807      5200
 19808              	.LASF701:
 19809 07dc 64726976 		.ascii	"driver\000"
 19809      657200
 19810              	.LASF776:
 19811 07e3 646F6E65 		.ascii	"done\000"
 19811      00
 19812              	.LASF4:
 19813 07e8 5F5F7569 		.ascii	"__uint16_t\000"
 19813      6E743136 
 19813      5F7400
 19814              	.LASF608:
 19815 07f3 74787175 		.ascii	"txqueued\000"
 19815      65756564 
 19815      00
 19816              	.LASF166:
 19817 07fc 705F6D73 		.ascii	"p_msg\000"
 19817      6700
 19818              	.LASF106:
 19819 0802 5F756E75 		.ascii	"_unused_rand\000"
 19819      7365645F 
 19819      72616E64 
 19819      00
 19820              	.LASF555:
 19821 080f 47525853 		.ascii	"GRXSTSP\000"
 19821      54535000 
 19822              	.LASF554:
 19823 0817 47525853 		.ascii	"GRXSTSR\000"
 19823      54535200 
ARM GAS  /tmp/cccFXynL.s 			page 357


 19824              	.LASF234:
 19825 081f 4D314152 		.ascii	"M1AR\000"
 19825      00
 19826              	.LASF493:
 19827 0824 77616974 		.ascii	"wait\000"
 19827      00
 19828              	.LASF235:
 19829 0829 444D415F 		.ascii	"DMA_Stream_TypeDef\000"
 19829      53747265 
 19829      616D5F54 
 19829      79706544 
 19829      656600
 19830              	.LASF500:
 19831 083c 5553425F 		.ascii	"USB_ACTIVE\000"
 19831      41435449 
 19831      564500
 19832              	.LASF908:
 19833 0847 706C6174 		.ascii	"platform_delay\000"
 19833      666F726D 
 19833      5F64656C 
 19833      617900
 19834              	.LASF905:
 19835 0856 74617267 		.ascii	"target_mem_read32\000"
 19835      65745F6D 
 19835      656D5F72 
 19835      65616433 
 19835      3200
 19836              	.LASF851:
 19837 0868 77617463 		.ascii	"watch\000"
 19837      6800
 19838              	.LASF656:
 19839 086e 63757272 		.ascii	"current_ir\000"
 19839      656E745F 
 19839      697200
 19840              	.LASF798:
 19841 0879 6F707472 		.ascii	"optreset\000"
 19841      65736574 
 19841      00
 19842              	.LASF754:
 19843 0882 64657374 		.ascii	"destroy_callback\000"
 19843      726F795F 
 19843      63616C6C 
 19843      6261636B 
 19843      00
 19844              	.LASF542:
 19845 0893 73746D33 		.ascii	"stm32_otg_in_ep_t\000"
 19845      325F6F74 
 19845      675F696E 
 19845      5F65705F 
 19845      7400
 19846              	.LASF616:
 19847 08a5 7278636E 		.ascii	"rxcnt\000"
 19847      7400
 19848              	.LASF404:
 19849 08ab 7278646D 		.ascii	"rxdmamode\000"
 19849      616D6F64 
 19849      6500
ARM GAS  /tmp/cccFXynL.s 			page 358


 19850              	.LASF88:
 19851 08b5 5F726573 		.ascii	"_result_k\000"
 19851      756C745F 
 19851      6B00
 19852              	.LASF437:
 19853 08bf 6D6F6465 		.ascii	"mode\000"
 19853      00
 19854              	.LASF80:
 19855 08c4 5F737464 		.ascii	"_stderr\000"
 19855      65727200 
 19856              	.LASF87:
 19857 08cc 5F726573 		.ascii	"_result\000"
 19857      756C7400 
 19858              	.LASF430:
 19859 08d4 4943555F 		.ascii	"ICU_INPUT_ACTIVE_HIGH\000"
 19859      494E5055 
 19859      545F4143 
 19859      54495645 
 19859      5F484947 
 19860              	.LASF779:
 19861 08ea 6275665F 		.ascii	"buf_addr\000"
 19861      61646472 
 19861      00
 19862              	.LASF50:
 19863 08f3 5F64736F 		.ascii	"_dso_handle\000"
 19863      5F68616E 
 19863      646C6500 
 19864              	.LASF473:
 19865 08ff 73737061 		.ascii	"sspad\000"
 19865      6400
 19866              	.LASF405:
 19867 0905 7478646D 		.ascii	"txdmamode\000"
 19867      616D6F64 
 19867      6500
 19868              	.LASF133:
 19869 090f 5F5F676E 		.ascii	"__gnuc_va_list\000"
 19869      75635F76 
 19869      615F6C69 
 19869      737400
 19870              	.LASF811:
 19871 091e 636F7274 		.ascii	"cortexm_driver_str\000"
 19871      65786D5F 
 19871      64726976 
 19871      65725F73 
 19871      747200
 19872              	.LASF45:
 19873 0931 5F5F746D 		.ascii	"__tm_wday\000"
 19873      5F776461 
 19873      7900
 19874              	.LASF47:
 19875 093b 5F5F746D 		.ascii	"__tm_isdst\000"
 19875      5F697364 
 19875      737400
 19876              	.LASF706:
 19877 0946 74617267 		.ascii	"target_addr\000"
 19877      65745F61 
 19877      64647200 
ARM GAS  /tmp/cccFXynL.s 			page 359


 19878              	.LASF727:
 19879 0952 54415247 		.ascii	"TARGET_EACCES\000"
 19879      45545F45 
 19879      41434345 
 19879      5300
 19880              	.LASF250:
 19881 0960 73746B61 		.ascii	"stkalign_t\000"
 19881      6C69676E 
 19881      5F7400
 19882              	.LASF601:
 19883 096b 72785F66 		.ascii	"rx_fifo_size\000"
 19883      69666F5F 
 19883      73697A65 
 19883      00
 19884              	.LASF699:
 19885 0978 74617267 		.ascii	"target_storage\000"
 19885      65745F73 
 19885      746F7261 
 19885      676500
 19886              	.LASF693:
 19887 0987 68616C74 		.ascii	"halt_poll\000"
 19887      5F706F6C 
 19887      6C00
 19888              	.LASF877:
 19889 0991 63616368 		.ascii	"cache_reg\000"
 19889      655F7265 
 19889      6700
 19890              	.LASF793:
 19891 099b 656E7669 		.ascii	"environ\000"
 19891      726F6E00 
 19892              	.LASF783:
 19893 09a3 636F6D6D 		.ascii	"command_s\000"
 19893      616E645F 
 19893      7300
 19894              	.LASF374:
 19895 09ad 77616B65 		.ascii	"wakeup_event\000"
 19895      75705F65 
 19895      76656E74 
 19895      00
 19896              	.LASF189:
 19897 09ba 76745F70 		.ascii	"vt_prev\000"
 19897      72657600 
 19898              	.LASF471:
 19899 09c2 656E645F 		.ascii	"end_cb\000"
 19899      636200
 19900              	.LASF619:
 19901 09c9 73657475 		.ascii	"setup_cb\000"
 19901      705F6362 
 19901      00
 19902              	.LASF1:
 19903 09d2 756E7369 		.ascii	"unsigned char\000"
 19903      676E6564 
 19903      20636861 
 19903      7200
 19904              	.LASF79:
 19905 09e0 5F737464 		.ascii	"_stdout\000"
 19905      6F757400 
ARM GAS  /tmp/cccFXynL.s 			page 360


 19906              	.LASF291:
 19907 09e8 6576656E 		.ascii	"event_listener\000"
 19907      745F6C69 
 19907      7374656E 
 19907      657200
 19908              	.LASF368:
 19909 09f7 74787175 		.ascii	"txqueue\000"
 19909      65756500 
 19910              	.LASF264:
 19911 09ff 735F636E 		.ascii	"s_cnt\000"
 19911      7400
 19912              	.LASF177:
 19913 0a05 72656164 		.ascii	"ready_list_t\000"
 19913      795F6C69 
 19913      73745F74 
 19913      00
 19914              	.LASF150:
 19915 0a12 63685F74 		.ascii	"ch_thread\000"
 19915      68726561 
 19915      6400
 19916              	.LASF389:
 19917 0a1c 4F504D4F 		.ascii	"OPMODE_SMBUS_HOST\000"
 19917      44455F53 
 19917      4D425553 
 19917      5F484F53 
 19917      5400
 19918              	.LASF660:
 19919 0a2e 414C4947 		.ascii	"ALIGN_BYTE\000"
 19919      4E5F4259 
 19919      544500
 19920              	.LASF900:
 19921 0a39 74635F69 		.ascii	"tc_isatty\000"
 19921      73617474 
 19921      7900
 19922              	.LASF121:
 19923 0a43 5F6D6273 		.ascii	"_mbsrtowcs_state\000"
 19923      72746F77 
 19923      63735F73 
 19923      74617465 
 19923      00
 19924              	.LASF36:
 19925 0a54 5F776473 		.ascii	"_wds\000"
 19925      00
 19926              	.LASF674:
 19927 0a59 41444976 		.ascii	"ADIv5_AP_s\000"
 19927      355F4150 
 19927      5F7300
 19928              	.LASF677:
 19929 0a64 41444976 		.ascii	"ADIv5_AP_t\000"
 19929      355F4150 
 19929      5F7400
 19930              	.LASF313:
 19931 0a6f 666C6F61 		.ascii	"float\000"
 19931      7400
 19932              	.LASF740:
 19933 0a75 54415247 		.ascii	"TARGET_EROFS\000"
 19933      45545F45 
ARM GAS  /tmp/cccFXynL.s 			page 361


 19933      524F4653 
 19933      00
 19934              	.LASF883:
 19935 0a82 61646976 		.ascii	"adiv5_dp_error\000"
 19935      355F6470 
 19935      5F657272 
 19935      6F7200
 19936              	.LASF646:
 19937 0a91 6F757465 		.ascii	"outer\000"
 19937      7200
 19938              	.LASF737:
 19939 0a97 54415247 		.ascii	"TARGET_EFBIG\000"
 19939      45545F45 
 19939      46424947 
 19939      00
 19940              	.LASF363:
 19941 0aa4 43414E5F 		.ascii	"CAN_SLEEP\000"
 19941      534C4545 
 19941      5000
 19942              	.LASF931:
 19943 0aae 636F7274 		.ascii	"cortexm_ap\000"
 19943      65786D5F 
 19943      617000
 19944              	.LASF319:
 19945 0ab9 72756E74 		.ascii	"runtime\000"
 19945      696D6500 
 19946              	.LASF764:
 19947 0ac1 69736174 		.ascii	"isatty\000"
 19947      747900
 19948              	.LASF58:
 19949 0ac8 5F73697A 		.ascii	"_size\000"
 19949      6500
 19950              	.LASF196:
 19951 0ace 73797374 		.ascii	"system_debug_t\000"
 19951      656D5F64 
 19951      65627567 
 19951      5F7400
 19952              	.LASF852:
 19953 0add 64667372 		.ascii	"dfsr\000"
 19953      00
 19954              	.LASF421:
 19955 0ae2 44494552 		.ascii	"DIER\000"
 19955      00
 19956              	.LASF685:
 19957 0ae7 6D656D5F 		.ascii	"mem_write\000"
 19957      77726974 
 19957      6500
 19958              	.LASF678:
 19959 0af1 74617267 		.ascii	"target\000"
 19959      657400
 19960              	.LASF154:
 19961 0af8 705F6374 		.ascii	"p_ctx\000"
 19961      7800
 19962              	.LASF192:
 19963 0afe 76745F70 		.ascii	"vt_par\000"
 19963      617200
 19964              	.LASF698:
ARM GAS  /tmp/cccFXynL.s 			page 362


 19965 0b05 74617267 		.ascii	"target_options\000"
 19965      65745F6F 
 19965      7074696F 
 19965      6E7300
 19966              	.LASF888:
 19967 0b14 74617267 		.ascii	"target_check_error\000"
 19967      65745F63 
 19967      6865636B 
 19967      5F657272 
 19967      6F7200
 19968              	.LASF768:
 19969 0b27 74617267 		.ascii	"target_list\000"
 19969      65745F6C 
 19969      69737400 
 19970              	.LASF65:
 19971 0b33 5F777269 		.ascii	"_write\000"
 19971      746500
 19972              	.LASF243:
 19973 0b3a 54584352 		.ascii	"TXCRCR\000"
 19973      435200
 19974              	.LASF636:
 19975 0b41 73656E64 		.ascii	"send_buffer_mutex\000"
 19975      5F627566 
 19975      6665725F 
 19975      6D757465 
 19975      7800
 19976              	.LASF377:
 19977 0b53 43414E44 		.ascii	"CAND2\000"
 19977      3200
 19978              	.LASF802:
 19979 0b59 6F6E5F62 		.ascii	"on_bkpt\000"
 19979      6B707400 
 19980              	.LASF393:
 19981 0b61 46415354 		.ascii	"FAST_DUTY_CYCLE_16_9\000"
 19981      5F445554 
 19981      595F4359 
 19981      434C455F 
 19981      31365F39 
 19982              	.LASF441:
 19983 0b76 6F766572 		.ascii	"overflow_cb\000"
 19983      666C6F77 
 19983      5F636200 
 19984              	.LASF18:
 19985 0b82 75696E74 		.ascii	"uint64_t\000"
 19985      36345F74 
 19985      00
 19986              	.LASF22:
 19987 0b8b 5F5F6D6F 		.ascii	"__mode_t\000"
 19987      64655F74 
 19987      00
 19988              	.LASF288:
 19989 0b94 63685F64 		.ascii	"ch_debug\000"
 19989      65627567 
 19989      00
 19990              	.LASF679:
 19991 0b9d 74617267 		.ascii	"target_s\000"
 19991      65745F73 
ARM GAS  /tmp/cccFXynL.s 			page 363


 19991      00
 19992              	.LASF222:
 19993 0ba6 464D3152 		.ascii	"FM1R\000"
 19993      00
 19994              	.LASF865:
 19995 0bab 636F7274 		.ascii	"cortexm_probe\000"
 19995      65786D5F 
 19995      70726F62 
 19995      6500
 19996              	.LASF356:
 19997 0bb9 50414C43 		.ascii	"PALConfig\000"
 19997      6F6E6669 
 19997      6700
 19998              	.LASF639:
 19999 0bc3 706C6174 		.ascii	"platform_swclk_port\000"
 19999      666F726D 
 19999      5F737763 
 19999      6C6B5F70 
 19999      6F727400 
 20000              	.LASF523:
 20001 0bd7 75736265 		.ascii	"usbeventcb_t\000"
 20001      76656E74 
 20001      63625F74 
 20001      00
 20002              	.LASF661:
 20003 0be4 414C4947 		.ascii	"ALIGN_HALFWORD\000"
 20003      4E5F4841 
 20003      4C46574F 
 20003      524400
 20004              	.LASF44:
 20005 0bf3 5F5F746D 		.ascii	"__tm_year\000"
 20005      5F796561 
 20005      7200
 20006              	.LASF290:
 20007 0bfd 6576656E 		.ascii	"event_listener_t\000"
 20007      745F6C69 
 20007      7374656E 
 20007      65725F74 
 20007      00
 20008              	.LASF843:
 20009 0c0e 73746163 		.ascii	"stack\000"
 20009      6B00
 20010              	.LASF602:
 20011 0c14 6F74675F 		.ascii	"otg_ram_size\000"
 20011      72616D5F 
 20011      73697A65 
 20011      00
 20012              	.LASF896:
 20013 0c21 74617267 		.ascii	"target_regs_write\000"
 20013      65745F72 
 20013      6567735F 
 20013      77726974 
 20013      6500
 20014              	.LASF830:
 20015 0c33 636F7274 		.ascii	"cortexm_check_watch\000"
 20015      65786D5F 
 20015      63686563 
ARM GAS  /tmp/cccFXynL.s 			page 364


 20015      6B5F7761 
 20015      74636800 
 20016              	.LASF604:
 20017 0c47 73746D33 		.ascii	"stm32_otg_params_t\000"
 20017      325F6F74 
 20017      675F7061 
 20017      72616D73 
 20017      5F7400
 20018              	.LASF596:
 20019 0c5a 72657376 		.ascii	"resvdD00\000"
 20019      64443030 
 20019      00
 20020              	.LASF242:
 20021 0c63 52584352 		.ascii	"RXCRCR\000"
 20021      435200
 20022              	.LASF613:
 20023 0c6a 72786275 		.ascii	"rxbuf\000"
 20023      6600
 20024              	.LASF104:
 20025 0c70 5F6D756C 		.ascii	"_mult\000"
 20025      7400
 20026              	.LASF265:
 20027 0c76 63685F6D 		.ascii	"ch_mutex\000"
 20027      75746578 
 20027      00
 20028              	.LASF756:
 20029 0c7f 6F70656E 		.ascii	"open\000"
 20029      00
 20030              	.LASF371:
 20031 0c84 7478656D 		.ascii	"txempty_event\000"
 20031      7074795F 
 20031      6576656E 
 20031      7400
 20032              	.LASF353:
 20033 0c92 50474461 		.ascii	"PGData\000"
 20033      746100
 20034              	.LASF928:
 20035 0c99 474E5520 		.ascii	"GNU C99 7.3.1 20180622 (release) [ARM/embedded-7-br"
 20035      43393920 
 20035      372E332E 
 20035      31203230 
 20035      31383036 
 20036 0ccc 616E6368 		.ascii	"anch revision 261907] -mcpu=cortex-m4 -mfloat-abi=h"
 20036      20726576 
 20036      6973696F 
 20036      6E203236 
 20036      31393037 
 20037 0cff 61726420 		.ascii	"ard -mfpu=fpv4-sp-d16 -mno-thumb-interwork -mthumb "
 20037      2D6D6670 
 20037      753D6670 
 20037      76342D73 
 20037      702D6431 
 20038 0d32 2D676764 		.ascii	"-ggdb -O2 -std=gnu99 -fomit-frame-pointer -falign-f"
 20038      62202D4F 
 20038      32202D73 
 20038      74643D67 
 20038      6E753939 
ARM GAS  /tmp/cccFXynL.s 			page 365


 20039 0d65 756E6374 		.ascii	"unctions=16 -ffunction-sections -fdata-sections -fn"
 20039      696F6E73 
 20039      3D313620 
 20039      2D666675 
 20039      6E637469 
 20040 0d98 6F2D636F 		.ascii	"o-common -fsingle-precision-constant\000"
 20040      6D6D6F6E 
 20040      202D6673 
 20040      696E676C 
 20040      652D7072 
 20041              	.LASF119:
 20042 0dbd 5F6D6272 		.ascii	"_mbrlen_state\000"
 20042      6C656E5F 
 20042      73746174 
 20042      6500
 20043              	.LASF641:
 20044 0dcb 6A6D705F 		.ascii	"jmp_buf\000"
 20044      62756600 
 20045              	.LASF658:
 20046 0dd3 6A746167 		.ascii	"jtag_devs\000"
 20046      5F646576 
 20046      7300
 20047              	.LASF882:
 20048 0ddd 76616C75 		.ascii	"value\000"
 20048      6500
 20049              	.LASF278:
 20050 0de3 63665F6F 		.ascii	"cf_off_newer\000"
 20050      66665F6E 
 20050      65776572 
 20050      00
 20051              	.LASF713:
 20052 0df0 54415247 		.ascii	"TARGET_HALT_BREAKPOINT\000"
 20052      45545F48 
 20052      414C545F 
 20052      42524541 
 20052      4B504F49 
 20053              	.LASF581:
 20054 0e07 44494550 		.ascii	"DIEPMSK\000"
 20054      4D534B00 
 20055              	.LASF548:
 20056 0e0f 474F5447 		.ascii	"GOTGINT\000"
 20056      494E5400 
 20057              	.LASF733:
 20058 0e17 54415247 		.ascii	"TARGET_EISDIR\000"
 20058      45545F45 
 20058      49534449 
 20058      5200
 20059              	.LASF621:
 20060 0e25 6F75745F 		.ascii	"out_cb\000"
 20060      636200
 20061              	.LASF572:
 20062 0e2c 4841494E 		.ascii	"HAINTMSK\000"
 20062      544D534B 
 20062      00
 20063              	.LASF481:
 20064 0e35 6F75745F 		.ascii	"out_params\000"
 20064      70617261 
ARM GAS  /tmp/cccFXynL.s 			page 366


 20064      6D7300
 20065              	.LASF136:
 20066 0e40 76615F6C 		.ascii	"va_list\000"
 20066      69737400 
 20067              	.LASF78:
 20068 0e48 5F737464 		.ascii	"_stdin\000"
 20068      696E00
 20069              	.LASF126:
 20070 0e4f 5F6E6D61 		.ascii	"_nmalloc\000"
 20070      6C6C6F63 
 20070      00
 20071              	.LASF443:
 20072 0e58 64696572 		.ascii	"dier\000"
 20072      00
 20073              	.LASF569:
 20074 0e5d 72657376 		.ascii	"resvd40C\000"
 20074      64343043 
 20074      00
 20075              	.LASF899:
 20076 0e66 74635F6C 		.ascii	"tc_lseek\000"
 20076      7365656B 
 20076      00
 20077              	.LASF903:
 20078 0e6f 74635F63 		.ascii	"tc_close\000"
 20078      6C6F7365 
 20078      00
 20079              	.LASF712:
 20080 0e78 54415247 		.ascii	"TARGET_HALT_STEPPING\000"
 20080      45545F48 
 20080      414C545F 
 20080      53544550 
 20080      50494E47 
 20081              	.LASF186:
 20082 0e8d 76697274 		.ascii	"virtual_timer_t\000"
 20082      75616C5F 
 20082      74696D65 
 20082      725F7400 
 20083              	.LASF181:
 20084 0e9d 725F6374 		.ascii	"r_ctx\000"
 20084      7800
 20085              	.LASF188:
 20086 0ea3 76745F6E 		.ascii	"vt_next\000"
 20086      65787400 
 20087              	.LASF729:
 20088 0eab 54415247 		.ascii	"TARGET_EBUSY\000"
 20088      45545F45 
 20088      42555359 
 20088      00
 20089              	.LASF138:
 20090 0eb8 7274636E 		.ascii	"rtcnt_t\000"
 20090      745F7400 
 20091              	.LASF401:
 20092 0ec0 6D757465 		.ascii	"mutex\000"
 20092      7800
 20093              	.LASF790:
 20094 0ec6 73697A65 		.ascii	"size\000"
 20094      00
ARM GAS  /tmp/cccFXynL.s 			page 367


 20095              	.LASF887:
 20096 0ecb 74635F70 		.ascii	"tc_printf\000"
 20096      72696E74 
 20096      6600
 20097              	.LASF822:
 20098 0ed5 73797363 		.ascii	"syscall\000"
 20098      616C6C00 
 20099              	.LASF856:
 20100 0edd 636F7274 		.ascii	"cortexm_pc_read\000"
 20100      65786D5F 
 20100      70635F72 
 20100      65616400 
 20101              	.LASF492:
 20102 0eed 74787065 		.ascii	"txpending\000"
 20102      6E64696E 
 20102      6700
 20103              	.LASF416:
 20104 0ef7 636C6F63 		.ascii	"clock\000"
 20104      6B00
 20105              	.LASF829:
 20106 0efd 636F7274 		.ascii	"cortexm_hostio_request\000"
 20106      65786D5F 
 20106      686F7374 
 20106      696F5F72 
 20106      65717565 
 20107              	.LASF330:
 20108 0f14 636C6561 		.ascii	"clear\000"
 20108      7200
 20109              	.LASF428:
 20110 0f1a 43435852 		.ascii	"CCXR\000"
 20110      00
 20111              	.LASF231:
 20112 0f1f 43414E5F 		.ascii	"CAN_TypeDef\000"
 20112      54797065 
 20112      44656600 
 20113              	.LASF21:
 20114 0f2b 5F6F6666 		.ascii	"_off_t\000"
 20114      5F7400
 20115              	.LASF536:
 20116 0f32 72657376 		.ascii	"resvd4\000"
 20116      643400
 20117              	.LASF792:
 20118 0f39 636F7274 		.ascii	"cortexm_wait_timeout\000"
 20118      65786D5F 
 20118      77616974 
 20118      5F74696D 
 20118      656F7574 
 20119              	.LASF448:
 20120 0f4e 53445F53 		.ascii	"SD_STOP\000"
 20120      544F5000 
 20121              	.LASF649:
 20122 0f56 6A746167 		.ascii	"jtag_dev_s\000"
 20122      5F646576 
 20122      5F7300
 20123              	.LASF527:
 20124 0f61 72657376 		.ascii	"resvd8\000"
 20124      643800
ARM GAS  /tmp/cccFXynL.s 			page 368


 20125              	.LASF19:
 20126 0f68 73697A65 		.ascii	"size_t\000"
 20126      5F7400
 20127              	.LASF109:
 20128 0f6f 5F6C6F63 		.ascii	"_localtime_buf\000"
 20128      616C7469 
 20128      6D655F62 
 20128      756600
 20129              	.LASF594:
 20130 0f7e 72657376 		.ascii	"resvd880\000"
 20130      64383830 
 20130      00
 20131              	.LASF27:
 20132 0f87 5F5F636F 		.ascii	"__count\000"
 20132      756E7400 
 20133              	.LASF14:
 20134 0f8f 75696E74 		.ascii	"uint8_t\000"
 20134      385F7400 
 20135              	.LASF531:
 20136 0f97 72657376 		.ascii	"resvd14\000"
 20136      64313400 
 20137              	.LASF359:
 20138 0f9f 43414E5F 		.ascii	"CAN_UNINIT\000"
 20138      554E494E 
 20138      495400
 20139              	.LASF532:
 20140 0faa 72657376 		.ascii	"resvd18\000"
 20140      64313800 
 20141              	.LASF183:
 20142 0fb2 725F6F6C 		.ascii	"r_older\000"
 20142      64657200 
 20143              	.LASF152:
 20144 0fba 705F7072 		.ascii	"p_prev\000"
 20144      657600
 20145              	.LASF280:
 20146 0fc1 63665F6F 		.ascii	"cf_off_name\000"
 20146      66665F6E 
 20146      616D6500 
 20147              	.LASF590:
 20148 0fcd 44494550 		.ascii	"DIEPEMPMSK\000"
 20148      454D504D 
 20148      534B00
 20149              	.LASF535:
 20150 0fd8 44494550 		.ascii	"DIEPCTL\000"
 20150      43544C00 
 20151              	.LASF296:
 20152 0fe0 656C5F77 		.ascii	"el_wflags\000"
 20152      666C6167 
 20152      7300
 20153              	.LASF490:
 20154 0fea 6F746770 		.ascii	"otgparams\000"
 20154      6172616D 
 20154      7300
 20155              	.LASF256:
 20156 0ff4 65786974 		.ascii	"exitcode\000"
 20156      636F6465 
 20156      00
ARM GAS  /tmp/cccFXynL.s 			page 369


 20157              	.LASF350:
 20158 0ffd 50444461 		.ascii	"PDData\000"
 20158      746100
 20159              	.LASF92:
 20160 1004 5F637674 		.ascii	"_cvtbuf\000"
 20160      62756600 
 20161              	.LASF625:
 20162 100c 6F75745F 		.ascii	"out_state\000"
 20162      73746174 
 20162      6500
 20163              	.LASF300:
 20164 1016 696F5F71 		.ascii	"io_queue_t\000"
 20164      75657565 
 20164      5F7400
 20165              	.LASF683:
 20166 1021 63686563 		.ascii	"check_error\000"
 20166      6B5F6572 
 20166      726F7200 
 20167              	.LASF662:
 20168 102d 414C4947 		.ascii	"ALIGN_WORD\000"
 20168      4E5F574F 
 20168      524400
 20169              	.LASF379:
 20170 1038 4932435F 		.ascii	"I2C_STOP\000"
 20170      53544F50 
 20170      00
 20171              	.LASF403:
 20172 1041 61646472 		.ascii	"addr\000"
 20172      00
 20173              	.LASF216:
 20174 1046 52463052 		.ascii	"RF0R\000"
 20174      00
 20175              	.LASF322:
 20176 104b 675F6261 		.ascii	"g_backup\000"
 20176      636B7570 
 20176      00
 20177              	.LASF372:
 20178 1054 6572726F 		.ascii	"error_event\000"
 20178      725F6576 
 20178      656E7400 
 20179              	.LASF247:
 20180 1060 47545052 		.ascii	"GTPR\000"
 20180      00
 20181              	.LASF753:
 20182 1065 74617267 		.ascii	"target_controller\000"
 20182      65745F63 
 20182      6F6E7472 
 20182      6F6C6C65 
 20182      7200
 20183              	.LASF333:
 20184 1077 4F535045 		.ascii	"OSPEEDR\000"
 20184      45445200 
 20185              	.LASF559:
 20186 107f 72657376 		.ascii	"resvd30\000"
 20186      64333000 
 20187              	.LASF26:
 20188 1087 5F5F7763 		.ascii	"__wchb\000"
ARM GAS  /tmp/cccFXynL.s 			page 370


 20188      686200
 20189              	.LASF120:
 20190 108e 5F6D6272 		.ascii	"_mbrtowc_state\000"
 20190      746F7763 
 20190      5F737461 
 20190      746500
 20191              	.LASF445:
 20192 109d 49435544 		.ascii	"ICUD4\000"
 20192      3400
 20193              	.LASF41:
 20194 10a3 5F5F746D 		.ascii	"__tm_hour\000"
 20194      5F686F75 
 20194      7200
 20195              	.LASF446:
 20196 10ad 49435544 		.ascii	"ICUD9\000"
 20196      3900
 20197              	.LASF456:
 20198 10b3 53657269 		.ascii	"SerialDriverVMT\000"
 20198      616C4472 
 20198      69766572 
 20198      564D5400 
 20199              	.LASF509:
 20200 10c3 5553425F 		.ascii	"USB_EP0_ERROR\000"
 20200      4550305F 
 20200      4552524F 
 20200      5200
 20201              	.LASF317:
 20202 10d1 6F646F6D 		.ascii	"odometer\000"
 20202      65746572 
 20202      00
 20203              	.LASF24:
 20204 10da 77696E74 		.ascii	"wint_t\000"
 20204      5F7400
 20205              	.LASF93:
 20206 10e1 5F6E6577 		.ascii	"_new\000"
 20206      00
 20207              	.LASF598:
 20208 10e6 72657376 		.ascii	"resvdE04\000"
 20208      64453034 
 20208      00
 20209              	.LASF603:
 20210 10ef 6E756D5F 		.ascii	"num_endpoints\000"
 20210      656E6470 
 20210      6F696E74 
 20210      7300
 20211              	.LASF747:
 20212 10fd 54415247 		.ascii	"TARGET_O_CREAT\000"
 20212      45545F4F 
 20212      5F435245 
 20212      415400
 20213              	.LASF611:
 20214 110c 746F7473 		.ascii	"totsize\000"
 20214      697A6500 
 20215              	.LASF100:
 20216 1114 5F6E696F 		.ascii	"_niobs\000"
 20216      627300
 20217              	.LASF281:
ARM GAS  /tmp/cccFXynL.s 			page 371


 20218 111b 63665F6F 		.ascii	"cf_off_stklimit\000"
 20218      66665F73 
 20218      746B6C69 
 20218      6D697400 
 20219              	.LASF525:
 20220 112b 75736267 		.ascii	"usbgetdescriptor_t\000"
 20220      65746465 
 20220      73637269 
 20220      70746F72 
 20220      5F7400
 20221              	.LASF744:
 20222 113e 54415247 		.ascii	"TARGET_O_WRONLY\000"
 20222      45545F4F 
 20222      5F57524F 
 20222      4E4C5900 
 20223              	.LASF184:
 20224 114e 725F6375 		.ascii	"r_current\000"
 20224      7272656E 
 20224      7400
 20225              	.LASF77:
 20226 1158 5F657272 		.ascii	"_errno\000"
 20226      6E6F00
 20227              	.LASF504:
 20228 115f 5553425F 		.ascii	"USB_EP0_TX\000"
 20228      4550305F 
 20228      545800
 20229              	.LASF482:
 20230 116a 65703073 		.ascii	"ep0state\000"
 20230      74617465 
 20230      00
 20231              	.LASF884:
 20232 1173 61646976 		.ascii	"adiv5_dp_read\000"
 20232      355F6470 
 20232      5F726561 
 20232      6400
 20233              	.LASF42:
 20234 1181 5F5F746D 		.ascii	"__tm_mday\000"
 20234      5F6D6461 
 20234      7900
 20235              	.LASF324:
 20236 118b 69666372 		.ascii	"ifcr\000"
 20236      00
 20237              	.LASF623:
 20238 1190 6F75745F 		.ascii	"out_maxsize\000"
 20238      6D617873 
 20238      697A6500 
 20239              	.LASF800:
 20240 119c 636F7274 		.ascii	"cortexm_priv\000"
 20240      65786D5F 
 20240      70726976 
 20240      00
 20241              	.LASF339:
 20242 11a9 73746D33 		.ascii	"stm32_gpio_t\000"
 20242      325F6770 
 20242      696F5F74 
 20242      00
 20243              	.LASF255:
ARM GAS  /tmp/cccFXynL.s 			page 372


 20244 11b6 7264796D 		.ascii	"rdymsg\000"
 20244      736700
 20245              	.LASF49:
 20246 11bd 5F666E61 		.ascii	"_fnargs\000"
 20246      72677300 
 20247              	.LASF207:
 20248 11c5 54445452 		.ascii	"TDTR\000"
 20248      00
 20249              	.LASF680:
 20250 11ca 61747461 		.ascii	"attached\000"
 20250      63686564 
 20250      00
 20251              	.LASF215:
 20252 11d3 43414E5F 		.ascii	"CAN_FilterRegister_TypeDef\000"
 20252      46696C74 
 20252      65725265 
 20252      67697374 
 20252      65725F54 
 20253              	.LASF714:
 20254 11ee 54415247 		.ascii	"TARGET_HALT_WATCHPOINT\000"
 20254      45545F48 
 20254      414C545F 
 20254      57415443 
 20254      48504F49 
 20255              	.LASF562:
 20256 1205 72657376 		.ascii	"resvd58\000"
 20256      64353800 
 20257              	.LASF835:
 20258 120d 6477745F 		.ascii	"dwt_mask\000"
 20258      6D61736B 
 20258      00
 20259              	.LASF612:
 20260 1216 55534249 		.ascii	"USBInEndpointState\000"
 20260      6E456E64 
 20260      706F696E 
 20260      74537461 
 20260      746500
 20261              	.LASF153:
 20262 1229 705F7072 		.ascii	"p_prio\000"
 20262      696F00
 20263              	.LASF728:
 20264 1230 54415247 		.ascii	"TARGET_EFAULT\000"
 20264      45545F45 
 20264      4641554C 
 20264      5400
 20265              	.LASF301:
 20266 123e 696F5F71 		.ascii	"io_queue\000"
 20266      75657565 
 20266      00
 20267              	.LASF705:
 20268 1247 70726976 		.ascii	"priv_free\000"
 20268      5F667265 
 20268      6500
 20269              	.LASF347:
 20270 1251 50414461 		.ascii	"PAData\000"
 20270      746100
 20271              	.LASF11:
ARM GAS  /tmp/cccFXynL.s 			page 373


 20272 1258 5F5F7569 		.ascii	"__uint64_t\000"
 20272      6E743634 
 20272      5F7400
 20273              	.LASF33:
 20274 1263 5F6E6578 		.ascii	"_next\000"
 20274      7400
 20275              	.LASF821:
 20276 1269 70617261 		.ascii	"params\000"
 20276      6D7300
 20277              	.LASF508:
 20278 1270 5553425F 		.ascii	"USB_EP0_SENDING_STS\000"
 20278      4550305F 
 20278      53454E44 
 20278      494E475F 
 20278      53545300 
 20279              	.LASF117:
 20280 1284 5F736967 		.ascii	"_signal_buf\000"
 20280      6E616C5F 
 20280      62756600 
 20281              	.LASF717:
 20282 1290 54415247 		.ascii	"TARGET_BREAK_SOFT\000"
 20282      45545F42 
 20282      5245414B 
 20282      5F534F46 
 20282      5400
 20283              	.LASF440:
 20284 12a2 70657269 		.ascii	"period_cb\000"
 20284      6F645F63 
 20284      6200
 20285              	.LASF384:
 20286 12ac 69326373 		.ascii	"i2cstate_t\000"
 20286      74617465 
 20286      5F7400
 20287              	.LASF63:
 20288 12b7 5F636F6F 		.ascii	"_cookie\000"
 20288      6B696500 
 20289              	.LASF668:
 20290 12bf 74617267 		.ascii	"targetid\000"
 20290      65746964 
 20290      00
 20291              	.LASF510:
 20292 12c8 75736265 		.ascii	"usbep0state_t\000"
 20292      70307374 
 20292      6174655F 
 20292      7400
 20293              	.LASF702:
 20294 12d6 636F6D6D 		.ascii	"commands\000"
 20294      616E6473 
 20294      00
 20295              	.LASF219:
 20296 12df 7354784D 		.ascii	"sTxMailBox\000"
 20296      61696C42 
 20296      6F7800
 20297              	.LASF466:
 20298 12ea 5350495F 		.ascii	"SPI_ACTIVE\000"
 20298      41435449 
 20298      564500
ARM GAS  /tmp/cccFXynL.s 			page 374


 20299              	.LASF304:
 20300 12f5 715F6275 		.ascii	"q_buffer\000"
 20300      66666572 
 20300      00
 20301              	.LASF151:
 20302 12fe 705F6E65 		.ascii	"p_next\000"
 20302      787400
 20303              	.LASF408:
 20304 1305 49324344 		.ascii	"I2CD2\000"
 20304      3200
 20305              	.LASF477:
 20306 130b 55534244 		.ascii	"USBDriver\000"
 20306      72697665 
 20306      7200
 20307              	.LASF595:
 20308 1315 72657376 		.ascii	"resvd8C0\000"
 20308      64384330 
 20308      00
 20309              	.LASF633:
 20310 131e 55534243 		.ascii	"USBConfig\000"
 20310      6F6E6669 
 20310      6700
 20311              	.LASF538:
 20312 1328 72657376 		.ascii	"resvdC\000"
 20312      644300
 20313              	.LASF442:
 20314 132f 6368616E 		.ascii	"channel\000"
 20314      6E656C00 
 20315              	.LASF770:
 20316 1337 73746172 		.ascii	"start\000"
 20316      7400
 20317              	.LASF774:
 20318 133d 626C6F63 		.ascii	"blocksize\000"
 20318      6B73697A 
 20318      6500
 20319              	.LASF454:
 20320 1347 6F717565 		.ascii	"oqueue\000"
 20320      756500
 20321              	.LASF141:
 20322 134e 74726566 		.ascii	"trefs_t\000"
 20322      735F7400 
 20323              	.LASF170:
 20324 1356 705F6D70 		.ascii	"p_mpool\000"
 20324      6F6F6C00 
 20325              	.LASF847:
 20326 135e 66706361 		.ascii	"fpca\000"
 20326      00
 20327              	.LASF240:
 20328 1363 4932435F 		.ascii	"I2C_TypeDef\000"
 20328      54797065 
 20328      44656600 
 20329              	.LASF721:
 20330 136f 54415247 		.ascii	"TARGET_WATCH_ACCESS\000"
 20330      45545F57 
 20330      41544348 
 20330      5F414343 
 20330      45535300 
ARM GAS  /tmp/cccFXynL.s 			page 375


 20331              	.LASF39:
 20332 1383 5F5F746D 		.ascii	"__tm_sec\000"
 20332      5F736563 
 20332      00
 20333              	.LASF626:
 20334 138c 696E5F6D 		.ascii	"in_multiplier\000"
 20334      756C7469 
 20334      706C6965 
 20334      7200
 20335              	.LASF893:
 20336 139a 74617267 		.ascii	"target_regs_read\000"
 20336      65745F72 
 20336      6567735F 
 20336      72656164 
 20336      00
 20337              	.LASF48:
 20338 13ab 5F6F6E5F 		.ascii	"_on_exit_args\000"
 20338      65786974 
 20338      5F617267 
 20338      7300
 20339              	.LASF769:
 20340 13b9 74617267 		.ascii	"target_ram\000"
 20340      65745F72 
 20340      616D00
 20341              	.LASF251:
 20342 13c4 636F6E74 		.ascii	"context\000"
 20342      65787400 
 20343              	.LASF139:
 20344 13cc 746D6F64 		.ascii	"tmode_t\000"
 20344      655F7400 
 20345              	.LASF742:
 20346 13d4 74617267 		.ascii	"target_open_flags\000"
 20346      65745F6F 
 20346      70656E5F 
 20346      666C6167 
 20346      7300
 20347              	.LASF579:
 20348 13e6 44535453 		.ascii	"DSTS\000"
 20348      00
 20349              	.LASF688:
 20350 13eb 72656773 		.ascii	"regs_read\000"
 20350      5F726561 
 20350      6400
 20351              	.LASF335:
 20352 13f5 42535252 		.ascii	"BSRR\000"
 20352      00
 20353              	.LASF328:
 20354 13fa 73746D33 		.ascii	"stm32_dma_stream_t\000"
 20354      325F646D 
 20354      615F7374 
 20354      7265616D 
 20354      5F7400
 20355              	.LASF631:
 20356 140d 72657175 		.ascii	"requests_hook_cb\000"
 20356      65737473 
 20356      5F686F6F 
 20356      6B5F6362 
ARM GAS  /tmp/cccFXynL.s 			page 376


 20356      00
 20357              	.LASF122:
 20358 141e 5F776372 		.ascii	"_wcrtomb_state\000"
 20358      746F6D62 
 20358      5F737461 
 20358      746500
 20359              	.LASF640:
 20360 142d 706C6174 		.ascii	"platform_swclk_pin\000"
 20360      666F726D 
 20360      5F737763 
 20360      6C6B5F70 
 20360      696E00
 20361              	.LASF609:
 20362 1440 74787369 		.ascii	"txsize\000"
 20362      7A6500
 20363              	.LASF732:
 20364 1447 54415247 		.ascii	"TARGET_ENOTDIR\000"
 20364      45545F45 
 20364      4E4F5444 
 20364      495200
 20365              	.LASF858:
 20366 1456 636F7274 		.ascii	"cortexm_mem_write_sized\000"
 20366      65786D5F 
 20366      6D656D5F 
 20366      77726974 
 20366      655F7369 
 20367              	.LASF833:
 20368 146e 636F7274 		.ascii	"cortexm_breakwatch_set\000"
 20368      65786D5F 
 20368      62726561 
 20368      6B776174 
 20368      63685F73 
 20369              	.LASF748:
 20370 1485 54415247 		.ascii	"TARGET_O_TRUNC\000"
 20370      45545F4F 
 20370      5F545255 
 20370      4E4300
 20371              	.LASF266:
 20372 1494 6D5F7175 		.ascii	"m_queue\000"
 20372      65756500 
 20373              	.LASF932:
 20374 149c 6D656D73 		.ascii	"memset\000"
 20374      657400
 20375              	.LASF383:
 20376 14a3 4932435F 		.ascii	"I2C_LOCKED\000"
 20376      4C4F434B 
 20376      454400
 20377              	.LASF439:
 20378 14ae 77696474 		.ascii	"width_cb\000"
 20378      685F6362 
 20378      00
 20379              	.LASF498:
 20380 14b7 5553425F 		.ascii	"USB_READY\000"
 20380      52454144 
 20380      5900
 20381              	.LASF462:
 20382 14c1 72656164 		.ascii	"readt\000"
ARM GAS  /tmp/cccFXynL.s 			page 377


 20382      7400
 20383              	.LASF801:
 20384 14c7 73746570 		.ascii	"stepping\000"
 20384      70696E67 
 20384      00
 20385              	.LASF551:
 20386 14d0 47525354 		.ascii	"GRSTCTL\000"
 20386      43544C00 
 20387              	.LASF32:
 20388 14d8 5F5F554C 		.ascii	"__ULong\000"
 20388      6F6E6700 
 20389              	.LASF198:
 20390 14e0 70616E69 		.ascii	"panic_msg\000"
 20390      635F6D73 
 20390      6700
 20391              	.LASF467:
 20392 14ea 5350495F 		.ascii	"SPI_COMPLETE\000"
 20392      434F4D50 
 20392      4C455445 
 20392      00
 20393              	.LASF182:
 20394 14f7 725F6E65 		.ascii	"r_newer\000"
 20394      77657200 
 20395              	.LASF516:
 20396 14ff 5553425F 		.ascii	"USB_EVENT_STALLED\000"
 20396      4556454E 
 20396      545F5354 
 20396      414C4C45 
 20396      4400
 20397              	.LASF863:
 20398 1511 636F7274 		.ascii	"cortexm_detach\000"
 20398      65786D5F 
 20398      64657461 
 20398      636800
 20399              	.LASF287:
 20400 1520 63686465 		.ascii	"chdebug_t\000"
 20400      6275675F 
 20400      7400
 20401              	.LASF650:
 20402 152a 64725F70 		.ascii	"dr_postscan\000"
 20402      6F737473 
 20402      63616E00 
 20403              	.LASF615:
 20404 1536 72787369 		.ascii	"rxsize\000"
 20404      7A6500
 20405              	.LASF412:
 20406 153d 4943555F 		.ascii	"ICU_WAITING\000"
 20406      57414954 
 20406      494E4700 
 20407              	.LASF530:
 20408 1549 48435453 		.ascii	"HCTSIZ\000"
 20408      495A00
 20409              	.LASF723:
 20410 1550 54415247 		.ascii	"TARGET_EPERM\000"
 20410      45545F45 
 20410      5045524D 
 20410      00
ARM GAS  /tmp/cccFXynL.s 			page 378


 20411              	.LASF513:
 20412 155d 5553425F 		.ascii	"USB_EVENT_CONFIGURED\000"
 20412      4556454E 
 20412      545F434F 
 20412      4E464947 
 20412      55524544 
 20413              	.LASF797:
 20414 1572 6F70746F 		.ascii	"optopt\000"
 20414      707400
 20415              	.LASF663:
 20416 1579 414C4947 		.ascii	"ALIGN_DWORD\000"
 20416      4E5F4457 
 20416      4F524400 
 20417              	.LASF459:
 20418 1585 70757474 		.ascii	"putt\000"
 20418      00
 20419              	.LASF684:
 20420 158a 6D656D5F 		.ascii	"mem_read\000"
 20420      72656164 
 20420      00
 20421              	.LASF142:
 20422 1593 74736C69 		.ascii	"tslices_t\000"
 20422      6365735F 
 20422      7400
 20423              	.LASF107:
 20424 159d 5F737472 		.ascii	"_strtok_last\000"
 20424      746F6B5F 
 20424      6C617374 
 20424      00
 20425              	.LASF921:
 20426 15aa 73746D33 		.ascii	"stm32l4_probe\000"
 20426      326C345F 
 20426      70726F62 
 20426      6500
 20427              	.LASF274:
 20428 15b8 63685F74 		.ascii	"ch_timesize\000"
 20428      696D6573 
 20428      697A6500 
 20429              	.LASF635:
 20430 15c4 73656E64 		.ascii	"send_buffer_global\000"
 20430      5F627566 
 20430      6665725F 
 20430      676C6F62 
 20430      616C00
 20431              	.LASF690:
 20432 15d7 72657365 		.ascii	"reset\000"
 20432      7400
 20433              	.LASF494:
 20434 15dd 77615F70 		.ascii	"wa_pump\000"
 20434      756D7000 
 20435              	.LASF299:
 20436 15e5 6576656E 		.ascii	"event_source_t\000"
 20436      745F736F 
 20436      75726365 
 20436      5F7400
 20437              	.LASF565:
 20438 15f4 72657376 		.ascii	"resvd140\000"
ARM GAS  /tmp/cccFXynL.s 			page 379


 20438      64313430 
 20438      00
 20439              	.LASF190:
 20440 15fd 76745F64 		.ascii	"vt_delta\000"
 20440      656C7461 
 20440      00
 20441              	.LASF103:
 20442 1606 5F736565 		.ascii	"_seed\000"
 20442      6400
 20443              	.LASF66:
 20444 160c 5F736565 		.ascii	"_seek\000"
 20444      6B00
 20445              	.LASF514:
 20446 1612 5553425F 		.ascii	"USB_EVENT_SUSPEND\000"
 20446      4556454E 
 20446      545F5355 
 20446      5350454E 
 20446      4400
 20447              	.LASF831:
 20448 1624 636F7274 		.ascii	"cortexm_vector_catch\000"
 20448      65786D5F 
 20448      76656374 
 20448      6F725F63 
 20448      61746368 
 20449              	.LASF765:
 20450 1639 73797374 		.ascii	"system\000"
 20450      656D00
 20451              	.LASF543:
 20452 1640 444F4550 		.ascii	"DOEPCTL\000"
 20452      43544C00 
 20453              	.LASF5:
 20454 1648 73686F72 		.ascii	"short unsigned int\000"
 20454      7420756E 
 20454      7369676E 
 20454      65642069 
 20454      6E7400
 20455              	.LASF687:
 20456 165b 74646573 		.ascii	"tdesc\000"
 20456      6300
 20457              	.LASF0:
 20458 1661 7369676E 		.ascii	"signed char\000"
 20458      65642063 
 20458      68617200 
 20459              	.LASF162:
 20460 166d 705F7072 		.ascii	"p_preempt\000"
 20460      65656D70 
 20460      7400
 20461              	.LASF163:
 20462 1677 705F7469 		.ascii	"p_time\000"
 20462      6D6500
 20463              	.LASF209:
 20464 167e 54444852 		.ascii	"TDHR\000"
 20464      00
 20465              	.LASF507:
 20466 1683 5553425F 		.ascii	"USB_EP0_RX\000"
 20466      4550305F 
 20466      525800
ARM GAS  /tmp/cccFXynL.s 			page 380


 20467              	.LASF805:
 20468 168e 68775F77 		.ascii	"hw_watchpoint_max\000"
 20468      61746368 
 20468      706F696E 
 20468      745F6D61 
 20468      7800
 20469              	.LASF734:
 20470 16a0 54415247 		.ascii	"TARGET_EINVAL\000"
 20470      45545F45 
 20470      494E5641 
 20470      4C00
 20471              	.LASF738:
 20472 16ae 54415247 		.ascii	"TARGET_ENOSPC\000"
 20472      45545F45 
 20472      4E4F5350 
 20472      4300
 20473              	.LASF825:
 20474 16bc 66696C65 		.ascii	"filename\000"
 20474      6E616D65 
 20474      00
 20475              	.LASF487:
 20476 16c5 73746174 		.ascii	"status\000"
 20476      757300
 20477              	.LASF520:
 20478 16cc 55534244 		.ascii	"USBDescriptor\000"
 20478      65736372 
 20478      6970746F 
 20478      7200
 20479              	.LASF90:
 20480 16da 5F667265 		.ascii	"_freelist\000"
 20480      656C6973 
 20480      7400
 20481              	.LASF488:
 20482 16e4 61646472 		.ascii	"address\000"
 20482      65737300 
 20483              	.LASF165:
 20484 16ec 705F6D73 		.ascii	"p_msgqueue\000"
 20484      67717565 
 20484      756500
 20485              	.LASF681:
 20486 16f7 61747461 		.ascii	"attach\000"
 20486      636800
 20487              	.LASF284:
 20488 16fe 63665F6F 		.ascii	"cf_off_refs\000"
 20488      66665F72 
 20488      65667300 
 20489              	.LASF282:
 20490 170a 63665F6F 		.ascii	"cf_off_state\000"
 20490      66665F73 
 20490      74617465 
 20490      00
 20491              	.LASF267:
 20492 1717 6D5F6F77 		.ascii	"m_owner\000"
 20492      6E657200 
 20493              	.LASF71:
 20494 171f 5F6F6666 		.ascii	"_offset\000"
 20494      73657400 
ARM GAS  /tmp/cccFXynL.s 			page 381


 20495              	.LASF206:
 20496 1727 53797374 		.ascii	"SystemCoreClock\000"
 20496      656D436F 
 20496      7265436C 
 20496      6F636B00 
 20497              	.LASF891:
 20498 1737 74617267 		.ascii	"target_mem_read\000"
 20498      65745F6D 
 20498      656D5F72 
 20498      65616400 
 20499              	.LASF654:
 20500 1747 6964636F 		.ascii	"idcode\000"
 20500      646500
 20501              	.LASF366:
 20502 174e 73746174 		.ascii	"state\000"
 20502      6500
 20503              	.LASF873:
 20504 1754 636F7274 		.ascii	"cortexm_mem_read\000"
 20504      65786D5F 
 20504      6D656D5F 
 20504      72656164 
 20504      00
 20505              	.LASF272:
 20506 1765 63685F76 		.ascii	"ch_version\000"
 20506      65727369 
 20506      6F6E00
 20507              	.LASF316:
 20508 1770 6F646F6D 		.ascii	"odometer_init_flag\000"
 20508      65746572 
 20508      5F696E69 
 20508      745F666C 
 20508      616700
 20509              	.LASF56:
 20510 1783 5F5F7362 		.ascii	"__sbuf\000"
 20510      756600
 20511              	.LASF506:
 20512 178a 5553425F 		.ascii	"USB_EP0_WAITING_STS\000"
 20512      4550305F 
 20512      57414954 
 20512      494E475F 
 20512      53545300 
 20513              	.LASF116:
 20514 179e 5F6C3634 		.ascii	"_l64a_buf\000"
 20514      615F6275 
 20514      6600
 20515              	.LASF213:
 20516 17a8 52444852 		.ascii	"RDHR\000"
 20516      00
 20517              	.LASF796:
 20518 17ad 6F707465 		.ascii	"opterr\000"
 20518      727200
 20519              	.LASF426:
 20520 17b4 444D4152 		.ascii	"DMAR\000"
 20520      00
 20521              	.LASF200:
 20522 17b9 63685F73 		.ascii	"ch_system\000"
 20522      79737465 
ARM GAS  /tmp/cccFXynL.s 			page 382


 20522      6D00
 20523              	.LASF912:
 20524 17c3 74617267 		.ascii	"target_halt_request\000"
 20524      65745F68 
 20524      616C745F 
 20524      72657175 
 20524      65737400 
 20525              	.LASF786:
 20526 17d7 74617267 		.ascii	"target_command_s\000"
 20526      65745F63 
 20526      6F6D6D61 
 20526      6E645F73 
 20526      00
 20527              	.LASF759:
 20528 17e8 72656E61 		.ascii	"rename\000"
 20528      6D6500
 20529              	.LASF108:
 20530 17ef 5F617363 		.ascii	"_asctime_buf\000"
 20530      74696D65 
 20530      5F627566 
 20530      00
 20531              	.LASF320:
 20532 17fc 6261636B 		.ascii	"backup_data\000"
 20532      75705F64 
 20532      61746100 
 20533              	.LASF745:
 20534 1808 54415247 		.ascii	"TARGET_O_RDWR\000"
 20534      45545F4F 
 20534      5F524457 
 20534      5200
 20535              	.LASF25:
 20536 1816 5F5F7763 		.ascii	"__wch\000"
 20536      6800
 20537              	.LASF262:
 20538 181c 63685F73 		.ascii	"ch_semaphore\000"
 20538      656D6170 
 20538      686F7265 
 20538      00
 20539              	.LASF123:
 20540 1829 5F776373 		.ascii	"_wcsrtombs_state\000"
 20540      72746F6D 
 20540      62735F73 
 20540      74617465 
 20540      00
 20541              	.LASF539:
 20542 183a 44494550 		.ascii	"DIEPTSIZ\000"
 20542      5453495A 
 20542      00
 20543              	.LASF758:
 20544 1843 6C736565 		.ascii	"lseek\000"
 20544      6B00
 20545              	.LASF757:
 20546 1849 636C6F73 		.ascii	"close\000"
 20546      6500
 20547              	.LASF175:
 20548 184f 74687265 		.ascii	"threads_queue_t\000"
 20548      6164735F 
ARM GAS  /tmp/cccFXynL.s 			page 383


 20548      71756575 
 20548      655F7400 
 20549              	.LASF161:
 20550 185f 705F7265 		.ascii	"p_refs\000"
 20550      667300
 20551              	.LASF618:
 20552 1866 65705F6D 		.ascii	"ep_mode\000"
 20552      6F646500 
 20553              	.LASF546:
 20554 186e 73746D33 		.ascii	"stm32_otg_out_ep_t\000"
 20554      325F6F74 
 20554      675F6F75 
 20554      745F6570 
 20554      5F7400
 20555              	.LASF208:
 20556 1881 54444C52 		.ascii	"TDLR\000"
 20556      00
 20557              	.LASF7:
 20558 1886 6C6F6E67 		.ascii	"long int\000"
 20558      20696E74 
 20558      00
 20559              	.LASF203:
 20560 188f 6D61696E 		.ascii	"mainthread\000"
 20560      74687265 
 20560      616400
 20561              	.LASF868:
 20562 189a 636F7274 		.ascii	"cortexm_forced_halt\000"
 20562      65786D5F 
 20562      666F7263 
 20562      65645F68 
 20562      616C7400 
 20563              	.LASF484:
 20564 18ae 6570306E 		.ascii	"ep0n\000"
 20564      00
 20565              	.LASF385:
 20566 18b3 69326361 		.ascii	"i2caddr_t\000"
 20566      6464725F 
 20566      7400
 20567              	.LASF115:
 20568 18bd 5F776374 		.ascii	"_wctomb_state\000"
 20568      6F6D625F 
 20568      73746174 
 20568      6500
 20569              	.LASF743:
 20570 18cb 54415247 		.ascii	"TARGET_O_RDONLY\000"
 20570      45545F4F 
 20570      5F52444F 
 20570      4E4C5900 
 20571              	.LASF303:
 20572 18db 715F636F 		.ascii	"q_counter\000"
 20572      756E7465 
 20572      7200
 20573              	.LASF354:
 20574 18e5 50484461 		.ascii	"PHData\000"
 20574      746100
 20575              	.LASF357:
 20576 18ec 696F706F 		.ascii	"ioportid_t\000"
ARM GAS  /tmp/cccFXynL.s 			page 384


 20576      72746964 
 20576      5F7400
 20577              	.LASF566:
 20578 18f7 48434647 		.ascii	"HCFG\000"
 20578      00
 20579              	.LASF813:
 20580 18fc 7265676E 		.ascii	"regnum_cortex_mf\000"
 20580      756D5F63 
 20580      6F727465 
 20580      785F6D66 
 20580      00
 20581              	.LASF101:
 20582 190d 5F696F62 		.ascii	"_iobs\000"
 20582      7300
 20583              	.LASF82:
 20584 1913 5F656D65 		.ascii	"_emergency\000"
 20584      7267656E 
 20584      637900
 20585              	.LASF460:
 20586 191e 67657474 		.ascii	"gett\000"
 20586      00
 20587              	.LASF476:
 20588 1923 53504944 		.ascii	"SPID3\000"
 20588      3300
 20589              	.LASF785:
 20590 1929 68656C70 		.ascii	"help\000"
 20590      00
 20591              	.LASF739:
 20592 192e 54415247 		.ascii	"TARGET_ESPIPE\000"
 20592      45545F45 
 20592      53504950 
 20592      4500
 20593              	.LASF840:
 20594 193c 636F7274 		.ascii	"cortexm_fault_unwind\000"
 20594      65786D5F 
 20594      6661756C 
 20594      745F756E 
 20594      77696E64 
 20595              	.LASF258:
 20596 1951 77747472 		.ascii	"wttrp\000"
 20596      7000
 20597              	.LASF307:
 20598 1957 715F7264 		.ascii	"q_rdptr\000"
 20598      70747200 
 20599              	.LASF125:
 20600 195f 5F6E6578 		.ascii	"_nextf\000"
 20600      746600
 20601              	.LASF457:
 20602 1966 77726974 		.ascii	"write\000"
 20602      6500
 20603              	.LASF111:
 20604 196c 5F72616E 		.ascii	"_rand_next\000"
 20604      645F6E65 
 20604      787400
 20605              	.LASF453:
 20606 1977 69717565 		.ascii	"iqueue\000"
 20606      756500
ARM GAS  /tmp/cccFXynL.s 			page 385


 20607              	.LASF620:
 20608 197e 696E5F63 		.ascii	"in_cb\000"
 20608      6200
 20609              	.LASF746:
 20610 1984 54415247 		.ascii	"TARGET_O_APPEND\000"
 20610      45545F4F 
 20610      5F415050 
 20610      454E4400 
 20611              	.LASF544:
 20612 1994 444F4550 		.ascii	"DOEPINT\000"
 20612      494E5400 
 20613              	.LASF336:
 20614 199c 4C434B52 		.ascii	"LCKR\000"
 20614      00
 20615              	.LASF691:
 20616 19a1 65787465 		.ascii	"extended_reset\000"
 20616      6E646564 
 20616      5F726573 
 20616      657400
 20617              	.LASF450:
 20618 19b0 73647374 		.ascii	"sdstate_t\000"
 20618      6174655F 
 20618      7400
 20619              	.LASF17:
 20620 19ba 75696E74 		.ascii	"uint32_t\000"
 20620      33325F74 
 20620      00
 20621              	.LASF321:
 20622 19c3 636F6E66 		.ascii	"conf_general_permanent_nrf_found\000"
 20622      5F67656E 
 20622      6572616C 
 20622      5F706572 
 20622      6D616E65 
 20623              	.LASF881:
 20624 19e4 61646976 		.ascii	"adiv5_dp_low_access\000"
 20624      355F6470 
 20624      5F6C6F77 
 20624      5F616363 
 20624      65737300 
 20625              	.LASF919:
 20626 19f8 73746D33 		.ascii	"stm32h7_probe\000"
 20626      3268375F 
 20626      70726F62 
 20626      6500
 20627              	.LASF34:
 20628 1a06 5F6D6178 		.ascii	"_maxwds\000"
 20628      77647300 
 20629              	.LASF524:
 20630 1a0e 75736272 		.ascii	"usbreqhandler_t\000"
 20630      65716861 
 20630      6E646C65 
 20630      725F7400 
 20631              	.LASF212:
 20632 1a1e 52444C52 		.ascii	"RDLR\000"
 20632      00
 20633              	.LASF249:
 20634 1a23 72656761 		.ascii	"regarm_t\000"
ARM GAS  /tmp/cccFXynL.s 			page 386


 20634      726D5F74 
 20634      00
 20635              	.LASF145:
 20636 1a2c 6576656E 		.ascii	"eventmask_t\000"
 20636      746D6173 
 20636      6B5F7400 
 20637              	.LASF132:
 20638 1a38 7375626F 		.ascii	"suboptarg\000"
 20638      70746172 
 20638      6700
 20639              	.LASF818:
 20640 1a42 44425F44 		.ascii	"DB_DCRDR\000"
 20640      43524452 
 20640      00
 20641              	.LASF226:
 20642 1a4b 46464131 		.ascii	"FFA1R\000"
 20642      5200
 20643              	.LASF217:
 20644 1a51 52463152 		.ascii	"RF1R\000"
 20644      00
 20645              	.LASF499:
 20646 1a56 5553425F 		.ascii	"USB_SELECTED\000"
 20646      53454C45 
 20646      43544544 
 20646      00
 20647              	.LASF362:
 20648 1a63 43414E5F 		.ascii	"CAN_READY\000"
 20648      52454144 
 20648      5900
 20649              	.LASF652:
 20650 1a6d 69725F70 		.ascii	"ir_prescan\000"
 20650      72657363 
 20650      616E00
 20651              	.LASF9:
 20652 1a78 6C6F6E67 		.ascii	"long unsigned int\000"
 20652      20756E73 
 20652      69676E65 
 20652      6420696E 
 20652      7400
 20653              	.LASF645:
 20654 1a8a 6A6D7062 		.ascii	"jmpbuf\000"
 20654      756600
 20655              	.LASF306:
 20656 1a91 715F7772 		.ascii	"q_wrptr\000"
 20656      70747200 
 20657              	.LASF772:
 20658 1a99 666C6173 		.ascii	"flash_erase_func\000"
 20658      685F6572 
 20658      6173655F 
 20658      66756E63 
 20658      00
 20659              	.LASF655:
 20660 1aaa 64657363 		.ascii	"descr\000"
 20660      7200
 20661              	.LASF415:
 20662 1ab0 49435544 		.ascii	"ICUDriver\000"
 20662      72697665 
ARM GAS  /tmp/cccFXynL.s 			page 387


 20662      7200
 20663              	.LASF444:
 20664 1aba 49435543 		.ascii	"ICUConfig\000"
 20664      6F6E6669 
 20664      6700
 20665              	.LASF838:
 20666 1ac4 72656173 		.ascii	"reason\000"
 20666      6F6E00
 20667              	.LASF512:
 20668 1acb 5553425F 		.ascii	"USB_EVENT_ADDRESS\000"
 20668      4556454E 
 20668      545F4144 
 20668      44524553 
 20668      5300
 20669              	.LASF318:
 20670 1add 72756E74 		.ascii	"runtime_init_flag\000"
 20670      696D655F 
 20670      696E6974 
 20670      5F666C61 
 20670      6700
 20671              	.LASF804:
 20672 1aef 666C6173 		.ascii	"flash_patch_revision\000"
 20672      685F7061 
 20672      7463685F 
 20672      72657669 
 20672      73696F6E 
 20673              	.LASF370:
 20674 1b04 72786675 		.ascii	"rxfull_event\000"
 20674      6C6C5F65 
 20674      76656E74 
 20674      00
 20675              	.LASF517:
 20676 1b11 75736265 		.ascii	"usbevent_t\000"
 20676      76656E74 
 20676      5F7400
 20677              	.LASF67:
 20678 1b1c 5F636C6F 		.ascii	"_close\000"
 20678      736500
 20679              	.LASF916:
 20680 1b23 74617267 		.ascii	"target_add_commands\000"
 20680      65745F61 
 20680      64645F63 
 20680      6F6D6D61 
 20680      6E647300 
 20681              	.LASF31:
 20682 1b37 63686172 		.ascii	"char\000"
 20682      00
 20683              	.LASF365:
 20684 1b3c 43414E43 		.ascii	"CANConfig\000"
 20684      6F6E6669 
 20684      6700
 20685              	.LASF351:
 20686 1b46 50454461 		.ascii	"PEData\000"
 20686      746100
 20687              	.LASF179:
 20688 1b4d 725F7175 		.ascii	"r_queue\000"
 20688      65756500 
ARM GAS  /tmp/cccFXynL.s 			page 388


 20689              	.LASF99:
 20690 1b55 5F676C75 		.ascii	"_glue\000"
 20690      6500
 20691              	.LASF696:
 20692 1b5b 62726561 		.ascii	"breakwatch_clear\000"
 20692      6B776174 
 20692      63685F63 
 20692      6C656172 
 20692      00
 20693              	.LASF820:
 20694 1b6c 61726D5F 		.ascii	"arm_regs\000"
 20694      72656773 
 20694      00
 20695              	.LASF556:
 20696 1b75 47525846 		.ascii	"GRXFSIZ\000"
 20696      53495A00 
 20697              	.LASF695:
 20698 1b7d 62726561 		.ascii	"breakwatch_set\000"
 20698      6B776174 
 20698      63685F73 
 20698      657400
 20699              	.LASF455:
 20700 1b8c 75736172 		.ascii	"usart\000"
 20700      7400
 20701              	.LASF309:
 20702 1b92 715F6C69 		.ascii	"q_link\000"
 20702      6E6B00
 20703              	.LASF886:
 20704 1b99 74617267 		.ascii	"target_mem_write32\000"
 20704      65745F6D 
 20704      656D5F77 
 20704      72697465 
 20704      333200
 20705              	.LASF741:
 20706 1bac 54415247 		.ascii	"TARGET_ENAMETOOLONG\000"
 20706      45545F45 
 20706      4E414D45 
 20706      544F4F4C 
 20706      4F4E4700 
 20707              	.LASF434:
 20708 1bc0 4943555F 		.ascii	"ICU_CHANNEL_1\000"
 20708      4348414E 
 20708      4E454C5F 
 20708      3100
 20709              	.LASF710:
 20710 1bce 54415247 		.ascii	"TARGET_HALT_ERROR\000"
 20710      45545F48 
 20710      414C545F 
 20710      4552524F 
 20710      5200
 20711              	.LASF665:
 20712 1be0 41444976 		.ascii	"ADIv5_DP_s\000"
 20712      355F4450 
 20712      5F7300
 20713              	.LASF673:
 20714 1beb 41444976 		.ascii	"ADIv5_DP_t\000"
 20714      355F4450 
ARM GAS  /tmp/cccFXynL.s 			page 389


 20714      5F7400
 20715              	.LASF37:
 20716 1bf6 5F426967 		.ascii	"_Bigint\000"
 20716      696E7400 
 20717              	.LASF814:
 20718 1bfe 74646573 		.ascii	"tdesc_cortex_m\000"
 20718      635F636F 
 20718      72746578 
 20718      5F6D00
 20719              	.LASF553:
 20720 1c0d 47494E54 		.ascii	"GINTMSK\000"
 20720      4D534B00 
 20721              	.LASF419:
 20722 1c15 69637563 		.ascii	"icucallback_t\000"
 20722      616C6C62 
 20722      61636B5F 
 20722      7400
 20723              	.LASF558:
 20724 1c23 484E5054 		.ascii	"HNPTXSTS\000"
 20724      58535453 
 20724      00
 20725              	.LASF664:
 20726 1c2c 6661756C 		.ascii	"fault\000"
 20726      7400
 20727              	.LASF489:
 20728 1c32 636F6E66 		.ascii	"configuration\000"
 20728      69677572 
 20728      6174696F 
 20728      6E00
 20729              	.LASF94:
 20730 1c40 5F617465 		.ascii	"_atexit0\000"
 20730      78697430 
 20730      00
 20731              	.LASF707:
 20732 1c49 616C6967 		.ascii	"align\000"
 20732      6E00
 20733              	.LASF897:
 20734 1c4f 74635F72 		.ascii	"tc_rename\000"
 20734      656E616D 
 20734      6500
 20735              	.LASF346:
 20736 1c59 73746D33 		.ascii	"stm32_gpio_setup_t\000"
 20736      325F6770 
 20736      696F5F73 
 20736      65747570 
 20736      5F7400
 20737              	.LASF866:
 20738 1c6c 666F7263 		.ascii	"forced\000"
 20738      656400
 20739              	.LASF431:
 20740 1c73 4943555F 		.ascii	"ICU_INPUT_ACTIVE_LOW\000"
 20740      494E5055 
 20740      545F4143 
 20740      54495645 
 20740      5F4C4F57 
 20741              	.LASF329:
 20742 1c88 5F73746D 		.ascii	"_stm32_dma_streams\000"
ARM GAS  /tmp/cccFXynL.s 			page 390


 20742      33325F64 
 20742      6D615F73 
 20742      74726561 
 20742      6D7300
 20743              	.LASF118:
 20744 1c9b 5F676574 		.ascii	"_getdate_err\000"
 20744      64617465 
 20744      5F657272 
 20744      00
 20745              	.LASF433:
 20746 1ca8 69637566 		.ascii	"icufreq_t\000"
 20746      7265715F 
 20746      7400
 20747              	.LASF751:
 20748 1cb2 54415247 		.ascii	"TARGET_SEEK_CUR\000"
 20748      45545F53 
 20748      45454B5F 
 20748      43555200 
 20749              	.LASF803:
 20750 1cc2 68775F77 		.ascii	"hw_watchpoint\000"
 20750      61746368 
 20750      706F696E 
 20750      7400
 20751              	.LASF832:
 20752 1cd0 636F7274 		.ascii	"cortexm_breakwatch_clear\000"
 20752      65786D5F 
 20752      62726561 
 20752      6B776174 
 20752      63685F63 
 20753              	.LASF828:
 20754 1ce9 76656374 		.ascii	"vectors\000"
 20754      6F727300 
 20755              	.LASF927:
 20756 1cf1 61646976 		.ascii	"adiv5_mem_read\000"
 20756      355F6D65 
 20756      6D5F7265 
 20756      616400
 20757              	.LASF158:
 20758 1d00 705F7374 		.ascii	"p_stklimit\000"
 20758      6B6C696D 
 20758      697400
 20759              	.LASF147:
 20760 1d0b 636E745F 		.ascii	"cnt_t\000"
 20760      7400
 20761              	.LASF505:
 20762 1d11 5553425F 		.ascii	"USB_EP0_WAITING_TX0\000"
 20762      4550305F 
 20762      57414954 
 20762      494E475F 
 20762      54583000 
 20763              	.LASF483:
 20764 1d25 6570306E 		.ascii	"ep0next\000"
 20764      65787400 
 20765              	.LASF715:
 20766 1d2d 54415247 		.ascii	"TARGET_HALT_FAULT\000"
 20766      45545F48 
 20766      414C545F 
ARM GAS  /tmp/cccFXynL.s 			page 391


 20766      4641554C 
 20766      5400
 20767              	.LASF716:
 20768 1d3f 74617267 		.ascii	"target_breakwatch\000"
 20768      65745F62 
 20768      7265616B 
 20768      77617463 
 20768      6800
 20769              	.LASF534:
 20770 1d51 73746D33 		.ascii	"stm32_otg_host_chn_t\000"
 20770      325F6F74 
 20770      675F686F 
 20770      73745F63 
 20770      686E5F74 
 20771              	.LASF338:
 20772 1d66 41465248 		.ascii	"AFRH\000"
 20772      00
 20773              	.LASF337:
 20774 1d6b 4146524C 		.ascii	"AFRL\000"
 20774      00
 20775              	.LASF671:
 20776 1d70 6C6F775F 		.ascii	"low_access\000"
 20776      61636365 
 20776      737300
 20777              	.LASF749:
 20778 1d7b 74617267 		.ascii	"target_seek_flag\000"
 20778      65745F73 
 20778      65656B5F 
 20778      666C6167 
 20778      00
 20779              	.LASF130:
 20780 1d8c 5F696D70 		.ascii	"_impure_ptr\000"
 20780      7572655F 
 20780      70747200 
 20781              	.LASF285:
 20782 1d98 63665F6F 		.ascii	"cf_off_preempt\000"
 20782      66665F70 
 20782      7265656D 
 20782      707400
 20783              	.LASF70:
 20784 1da7 5F626C6B 		.ascii	"_blksize\000"
 20784      73697A65 
 20784      00
 20785              	.LASF854:
 20786 1db0 636F7274 		.ascii	"cortexm_halt_request\000"
 20786      65786D5F 
 20786      68616C74 
 20786      5F726571 
 20786      75657374 
 20787              	.LASF529:
 20788 1dc5 4843494E 		.ascii	"HCINTMSK\000"
 20788      544D534B 
 20788      00
 20789              	.LASF68:
 20790 1dce 5F756275 		.ascii	"_ubuf\000"
 20790      6600
 20791              	.LASF367:
ARM GAS  /tmp/cccFXynL.s 			page 392


 20792 1dd4 636F6E66 		.ascii	"config\000"
 20792      696700
 20793              	.LASF113:
 20794 1ddb 5F6D626C 		.ascii	"_mblen_state\000"
 20794      656E5F73 
 20794      74617465 
 20794      00
 20795              	.LASF96:
 20796 1de8 5F5F7367 		.ascii	"__sglue\000"
 20796      6C756500 
 20797              	.LASF129:
 20798 1df0 5F5F6C6F 		.ascii	"__locale_t\000"
 20798      63616C65 
 20798      5F7400
 20799              	.LASF778:
 20800 1dfb 6275665F 		.ascii	"buf_size\000"
 20800      73697A65 
 20800      00
 20801              	.LASF914:
 20802 1e04 61646976 		.ascii	"adiv5_ap_ref\000"
 20802      355F6170 
 20802      5F726566 
 20802      00
 20803              	.LASF86:
 20804 1e11 5F5F636C 		.ascii	"__cleanup\000"
 20804      65616E75 
 20804      7000
 20805              	.LASF898:
 20806 1e1b 74635F75 		.ascii	"tc_unlink\000"
 20806      6E6C696E 
 20806      6B00
 20807              	.LASF719:
 20808 1e25 54415247 		.ascii	"TARGET_WATCH_WRITE\000"
 20808      45545F57 
 20808      41544348 
 20808      5F575249 
 20808      544500
 20809              	.LASF413:
 20810 1e38 4943555F 		.ascii	"ICU_ACTIVE\000"
 20810      41435449 
 20810      564500
 20811              	.LASF651:
 20812 1e43 69725F6C 		.ascii	"ir_len\000"
 20812      656E00
 20813              	.LASF185:
 20814 1e4a 76746675 		.ascii	"vtfunc_t\000"
 20814      6E635F74 
 20814      00
 20815              	.LASF214:
 20816 1e53 43414E5F 		.ascii	"CAN_FIFOMailBox_TypeDef\000"
 20816      4649464F 
 20816      4D61696C 
 20816      426F785F 
 20816      54797065 
 20817              	.LASF892:
 20818 1e6b 74635F6F 		.ascii	"tc_open\000"
 20818      70656E00 
ARM GAS  /tmp/cccFXynL.s 			page 393


 20819              	.LASF257:
 20820 1e73 77746F62 		.ascii	"wtobjp\000"
 20820      6A7000
 20821              	.LASF23:
 20822 1e7a 5F66706F 		.ascii	"_fpos_t\000"
 20822      735F7400 
 20823              	.LASF61:
 20824 1e82 5F66696C 		.ascii	"_file\000"
 20824      6500
 20825              	.LASF169:
 20826 1e88 705F7265 		.ascii	"p_realprio\000"
 20826      616C7072 
 20826      696F00
 20827              	.LASF308:
 20828 1e93 715F6E6F 		.ascii	"q_notify\000"
 20828      74696679 
 20828      00
 20829              	.LASF260:
 20830 1e9c 77746D74 		.ascii	"wtmtxp\000"
 20830      787000
 20831              	.LASF59:
 20832 1ea3 5F5F7346 		.ascii	"__sFILE\000"
 20832      494C4500 
 20833              	.LASF920:
 20834 1eab 73746D33 		.ascii	"stm32l0_probe\000"
 20834      326C305F 
 20834      70726F62 
 20834      6500
 20835              	.LASF775:
 20836 1eb9 65726173 		.ascii	"erase\000"
 20836      6500
 20837              	.LASF315:
 20838 1ebf 646F7562 		.ascii	"double\000"
 20838      6C6500
 20839              	.LASF55:
 20840 1ec6 5F666E73 		.ascii	"_fns\000"
 20840      00
 20841              	.LASF617:
 20842 1ecb 5553424F 		.ascii	"USBOutEndpointState\000"
 20842      7574456E 
 20842      64706F69 
 20842      6E745374 
 20842      61746500 
 20843              	.LASF573:
 20844 1edf 72657376 		.ascii	"resvd41C\000"
 20844      64343143 
 20844      00
 20845              	.LASF29:
 20846 1ee8 5F6D6273 		.ascii	"_mbstate_t\000"
 20846      74617465 
 20846      5F7400
 20847              	.LASF124:
 20848 1ef3 5F685F65 		.ascii	"_h_errno\000"
 20848      72726E6F 
 20848      00
 20849              	.LASF878:
 20850 1efc 6D696E6C 		.ascii	"minline\000"
ARM GAS  /tmp/cccFXynL.s 			page 394


 20850      696E6500 
 20851              	.LASF862:
 20852 1f04 636F7274 		.ascii	"cortexm_regs_read\000"
 20852      65786D5F 
 20852      72656773 
 20852      5F726561 
 20852      6400
 20853              	.LASF638:
 20854 1f16 706C6174 		.ascii	"platform_swdio_pin\000"
 20854      666F726D 
 20854      5F737764 
 20854      696F5F70 
 20854      696E00
 20855              	.LASF211:
 20856 1f29 52445452 		.ascii	"RDTR\000"
 20856      00
 20857              	.LASF842:
 20858 1f2e 63667372 		.ascii	"cfsr\000"
 20858      00
 20859              	.LASF827:
 20860 1f33 61726776 		.ascii	"argv\000"
 20860      00
 20861              	.LASF511:
 20862 1f38 5553425F 		.ascii	"USB_EVENT_RESET\000"
 20862      4556454E 
 20862      545F5245 
 20862      53455400 
 20863              	.LASF178:
 20864 1f48 63685F72 		.ascii	"ch_ready_list\000"
 20864      65616479 
 20864      5F6C6973 
 20864      7400
 20865              	.LASF334:
 20866 1f56 50555044 		.ascii	"PUPDR\000"
 20866      5200
 20867              	.LASF6:
 20868 1f5c 5F5F696E 		.ascii	"__int32_t\000"
 20868      7433325F 
 20868      7400
 20869              	.LASF8:
 20870 1f66 5F5F7569 		.ascii	"__uint32_t\000"
 20870      6E743332 
 20870      5F7400
 20871              	.LASF755:
 20872 1f71 7072696E 		.ascii	"printf\000"
 20872      746600
 20873              	.LASF417:
 20874 1f78 77636372 		.ascii	"wccrp\000"
 20874      7000
 20875              	.LASF197:
 20876 1f7e 63685F73 		.ascii	"ch_system_debug\000"
 20876      79737465 
 20876      6D5F6465 
 20876      62756700 
 20877              	.LASF915:
 20878 1f8e 63616C6C 		.ascii	"calloc\000"
 20878      6F6300
ARM GAS  /tmp/cccFXynL.s 			page 395


 20879              	.LASF860:
 20880 1f95 64617461 		.ascii	"data\000"
 20880      00
 20881              	.LASF584:
 20882 1f9a 4441494E 		.ascii	"DAINTMSK\000"
 20882      544D534B 
 20882      00
 20883              	.LASF890:
 20884 1fa3 72616973 		.ascii	"raise_exception\000"
 20884      655F6578 
 20884      63657074 
 20884      696F6E00 
 20885              	.LASF28:
 20886 1fb3 5F5F7661 		.ascii	"__value\000"
 20886      6C756500 
 20887              	.LASF503:
 20888 1fbb 5553425F 		.ascii	"USB_EP0_WAITING_SETUP\000"
 20888      4550305F 
 20888      57414954 
 20888      494E475F 
 20888      53455455 
 20889              	.LASF52:
 20890 1fd1 5F69735F 		.ascii	"_is_cxa\000"
 20890      63786100 
 20891              	.LASF345:
 20892 1fd9 61667268 		.ascii	"afrh\000"
 20892      00
 20893              	.LASF410:
 20894 1fde 4943555F 		.ascii	"ICU_STOP\000"
 20894      53544F50 
 20894      00
 20895              	.LASF344:
 20896 1fe7 6166726C 		.ascii	"afrl\000"
 20896      00
 20897              	.LASF752:
 20898 1fec 54415247 		.ascii	"TARGET_SEEK_END\000"
 20898      45545F53 
 20898      45454B5F 
 20898      454E4400 
 20899              	.LASF607:
 20900 1ffc 71756575 		.ascii	"queue\000"
 20900      6500
 20901              	.LASF485:
 20902 2002 65703065 		.ascii	"ep0endcb\000"
 20902      6E646362 
 20902      00
 20903              	.LASF326:
 20904 200b 73656C66 		.ascii	"selfindex\000"
 20904      696E6465 
 20904      7800
 20905              	.LASF289:
 20906 2015 6D757465 		.ascii	"mutex_t\000"
 20906      785F7400 
 20907              	.LASF89:
 20908 201d 5F703573 		.ascii	"_p5s\000"
 20908      00
 20909              	.LASF167:
ARM GAS  /tmp/cccFXynL.s 			page 396


 20910 2022 705F6570 		.ascii	"p_epending\000"
 20910      656E6469 
 20910      6E6700
 20911              	.LASF577:
 20912 202d 44434647 		.ascii	"DCFG\000"
 20912      00
 20913              	.LASF331:
 20914 2032 4D4F4445 		.ascii	"MODER\000"
 20914      5200
 20915              	.LASF929:
 20916 2038 626C6163 		.ascii	"blackmagic/target/cortexm.c\000"
 20916      6B6D6167 
 20916      69632F74 
 20916      61726765 
 20916      742F636F 
 20917              	.LASF676:
 20918 2054 62617365 		.ascii	"base\000"
 20918      00
 20919              	.LASF836:
 20920 2059 6C6F6164 		.ascii	"loadaddr\000"
 20920      61646472 
 20920      00
 20921              	.LASF901:
 20922 2062 74635F72 		.ascii	"tc_read\000"
 20922      65616400 
 20923              	.LASF218:
 20924 206a 52455345 		.ascii	"RESERVED0\000"
 20924      52564544 
 20924      3000
 20925              	.LASF221:
 20926 2074 52455345 		.ascii	"RESERVED1\000"
 20926      52564544 
 20926      3100
 20927              	.LASF223:
 20928 207e 52455345 		.ascii	"RESERVED2\000"
 20928      52564544 
 20928      3200
 20929              	.LASF225:
 20930 2088 52455345 		.ascii	"RESERVED3\000"
 20930      52564544 
 20930      3300
 20931              	.LASF227:
 20932 2092 52455345 		.ascii	"RESERVED4\000"
 20932      52564544 
 20932      3400
 20933              	.LASF229:
 20934 209c 52455345 		.ascii	"RESERVED5\000"
 20934      52564544 
 20934      3500
 20935              	.LASF731:
 20936 20a6 54415247 		.ascii	"TARGET_ENODEV\000"
 20936      45545F45 
 20936      4E4F4445 
 20936      5600
 20937              	.LASF628:
 20938 20b4 55534245 		.ascii	"USBEndpointConfig\000"
 20938      6E64706F 
ARM GAS  /tmp/cccFXynL.s 			page 397


 20938      696E7443 
 20938      6F6E6669 
 20938      6700
 20939              	.LASF369:
 20940 20c6 72787175 		.ascii	"rxqueue\000"
 20940      65756500 
 20941              	.LASF575:
 20942 20ce 72657376 		.ascii	"resvd444\000"
 20942      64343434 
 20942      00
 20943              	.LASF358:
 20944 20d7 70616C5F 		.ascii	"pal_default_config\000"
 20944      64656661 
 20944      756C745F 
 20944      636F6E66 
 20944      696700
 20945              	.LASF293:
 20946 20ea 656C5F6C 		.ascii	"el_listener\000"
 20946      69737465 
 20946      6E657200 
 20947              	.LASF606:
 20948 20f6 6C696E65 		.ascii	"linear\000"
 20948      617200
 20949              	.LASF429:
 20950 20fd 73746D33 		.ascii	"stm32_tim_t\000"
 20950      325F7469 
 20950      6D5F7400 
 20951              	.LASF849:
 20952 2109 64686373 		.ascii	"dhcsr\000"
 20952      7200
 20953              	.LASF180:
 20954 210f 725F7072 		.ascii	"r_prio\000"
 20954      696F00
 20955              	.LASF491:
 20956 2116 706D6E65 		.ascii	"pmnext\000"
 20956      787400
 20957              	.LASF812:
 20958 211d 7265676E 		.ascii	"regnum_cortex_m\000"
 20958      756D5F63 
 20958      6F727465 
 20958      785F6D00 
 20959              	.LASF137:
 20960 212d 6D6F6465 		.ascii	"mode_t\000"
 20960      5F7400
 20961              	.LASF782:
 20962 2134 636D645F 		.ascii	"cmd_handler\000"
 20962      68616E64 
 20962      6C657200 
 20963              	.LASF205:
 20964 2140 49544D5F 		.ascii	"ITM_RxBuffer\000"
 20964      52784275 
 20964      66666572 
 20964      00
 20965              	.LASF435:
 20966 214d 4943555F 		.ascii	"ICU_CHANNEL_2\000"
 20966      4348414E 
 20966      4E454C5F 
ARM GAS  /tmp/cccFXynL.s 			page 398


 20966      3200
 20967              	.LASF874:
 20968 215b 636F7274 		.ascii	"cortexm_pc_write\000"
 20968      65786D5F 
 20968      70635F77 
 20968      72697465 
 20968      00
 20969              	.LASF12:
 20970 216c 6C6F6E67 		.ascii	"long long unsigned int\000"
 20970      206C6F6E 
 20970      6720756E 
 20970      7369676E 
 20970      65642069 
 20971              	.LASF253:
 20972 2183 6F666673 		.ascii	"offset\000"
 20972      657400
 20973              	.LASF475:
 20974 218a 53504944 		.ascii	"SPID1\000"
 20974      3100
 20975              	.LASF917:
 20976 2190 73746D33 		.ascii	"stm32f1_probe\000"
 20976      3266315F 
 20976      70726F62 
 20976      6500
 20977              	.LASF730:
 20978 219e 54415247 		.ascii	"TARGET_EEXIST\000"
 20978      45545F45 
 20978      45584953 
 20978      5400
 20979              	.LASF232:
 20980 21ac 4E445452 		.ascii	"NDTR\000"
 20980      00
 20981              	.LASF298:
 20982 21b1 65735F6E 		.ascii	"es_next\000"
 20982      65787400 
 20983              	.LASF110:
 20984 21b9 5F67616D 		.ascii	"_gamma_signgam\000"
 20984      6D615F73 
 20984      69676E67 
 20984      616D00
 20985              	.LASF541:
 20986 21c8 72657376 		.ascii	"resvd1C\000"
 20986      64314300 
 20987              	.LASF204:
 20988 21d0 69646C65 		.ascii	"idle_thread_wa\000"
 20988      5F746872 
 20988      6561645F 
 20988      776100
 20989              	.LASF537:
 20990 21df 44494550 		.ascii	"DIEPINT\000"
 20990      494E5400 
 20991              	.LASF414:
 20992 21e7 69637573 		.ascii	"icustate_t\000"
 20992      74617465 
 20992      5F7400
 20993              	.LASF246:
 20994 21f2 5350495F 		.ascii	"SPI_TypeDef\000"
ARM GAS  /tmp/cccFXynL.s 			page 399


 20994      54797065 
 20994      44656600 
 20995              	.LASF191:
 20996 21fe 76745F66 		.ascii	"vt_func\000"
 20996      756E6300 
 20997              	.LASF420:
 20998 2206 534D4352 		.ascii	"SMCR\000"
 20998      00
 20999              	.LASF864:
 21000 220b 636F7274 		.ascii	"cortexm_attach\000"
 21000      65786D5F 
 21000      61747461 
 21000      636800
 21001              	.LASF582:
 21002 221a 444F4550 		.ascii	"DOEPMSK\000"
 21002      4D534B00 
 21003              	.LASF870:
 21004 2222 636F7274 		.ascii	"cortexm_priv_free\000"
 21004      65786D5F 
 21004      70726976 
 21004      5F667265 
 21004      6500
 21005              	.LASF187:
 21006 2234 63685F76 		.ascii	"ch_virtual_timer\000"
 21006      69727475 
 21006      616C5F74 
 21006      696D6572 
 21006      00
 21007              	.LASF160:
 21008 2245 705F666C 		.ascii	"p_flags\000"
 21008      61677300 
 21009              	.LASF670:
 21010 224d 6572726F 		.ascii	"error\000"
 21010      7200
 21011              	.LASF261:
 21012 2253 65776D61 		.ascii	"ewmask\000"
 21012      736B00
 21013              	.LASF295:
 21014 225a 656C5F66 		.ascii	"el_flags\000"
 21014      6C616773 
 21014      00
 21015              	.LASF875:
 21016 2263 636F7274 		.ascii	"cortexm_cache_clean\000"
 21016      65786D5F 
 21016      63616368 
 21016      655F636C 
 21016      65616E00 
 21017              	.LASF816:
 21018 2277 44425F44 		.ascii	"DB_DHCSR\000"
 21018      48435352 
 21018      00
 21019              	.LASF297:
 21020 2280 6576656E 		.ascii	"event_source\000"
 21020      745F736F 
 21020      75726365 
 21020      00
 21021              	.LASF871:
ARM GAS  /tmp/cccFXynL.s 			page 400


 21022 228d 636F7274 		.ascii	"cortexm_check_error\000"
 21022      65786D5F 
 21022      63686563 
 21022      6B5F6572 
 21022      726F7200 
 21023              	.LASF168:
 21024 22a1 705F6D74 		.ascii	"p_mtxlist\000"
 21024      786C6973 
 21024      7400
 21025              	.LASF780:
 21026 22ab 666C6173 		.ascii	"flash_write_func\000"
 21026      685F7772 
 21026      6974655F 
 21026      66756E63 
 21026      00
 21027              	.LASF376:
 21028 22bc 43414E44 		.ascii	"CAND1\000"
 21028      3100
 21029              	.LASF224:
 21030 22c2 46533152 		.ascii	"FS1R\000"
 21030      00
 21031              	.LASF140:
 21032 22c7 74737461 		.ascii	"tstate_t\000"
 21032      74655F74 
 21032      00
 21033              	.LASF131:
 21034 22d0 5F676C6F 		.ascii	"_global_impure_ptr\000"
 21034      62616C5F 
 21034      696D7075 
 21034      72655F70 
 21034      747200
 21035              	.LASF583:
 21036 22e3 4441494E 		.ascii	"DAINT\000"
 21036      5400
 21037              	.LASF474:
 21038 22e9 53504943 		.ascii	"SPIConfig\000"
 21038      6F6E6669 
 21038      6700
 21039              	.LASF83:
 21040 22f3 5F756E73 		.ascii	"_unspecified_locale_info\000"
 21040      70656369 
 21040      66696564 
 21040      5F6C6F63 
 21040      616C655F 
 21041              	.LASF343:
 21042 230c 70757064 		.ascii	"pupdr\000"
 21042      7200
 21043              	.LASF478:
 21044 2312 7472616E 		.ascii	"transmitting\000"
 21044      736D6974 
 21044      74696E67 
 21044      00
 21045              	.LASF157:
 21046 231f 705F6E61 		.ascii	"p_name\000"
 21046      6D6500
 21047              	.LASF85:
 21048 2326 5F5F7364 		.ascii	"__sdidinit\000"
ARM GAS  /tmp/cccFXynL.s 			page 401


 21048      6964696E 
 21048      697400
 21049              	.LASF451:
 21050 2331 53657269 		.ascii	"SerialDriver\000"
 21050      616C4472 
 21050      69766572 
 21050      00
 21051              	.LASF502:
 21052 233e 75736273 		.ascii	"usbstate_t\000"
 21052      74617465 
 21052      5F7400
 21053              	.LASF545:
 21054 2349 444F4550 		.ascii	"DOEPTSIZ\000"
 21054      5453495A 
 21054      00
 21055              	.LASF135:
 21056 2352 5F5F6170 		.ascii	"__ap\000"
 21056      00
 21057              	.LASF277:
 21058 2357 63665F6F 		.ascii	"cf_off_ctx\000"
 21058      66665F63 
 21058      747800
 21059              	.LASF30:
 21060 2362 5F666C6F 		.ascii	"_flock_t\000"
 21060      636B5F74 
 21060      00
 21061              	.LASF193:
 21062 236b 76697274 		.ascii	"virtual_timers_list_t\000"
 21062      75616C5F 
 21062      74696D65 
 21062      72735F6C 
 21062      6973745F 
 21063              	.LASF501:
 21064 2381 5553425F 		.ascii	"USB_SUSPENDED\000"
 21064      53555350 
 21064      454E4445 
 21064      4400
 21065              	.LASF340:
 21066 238f 6D6F6465 		.ascii	"moder\000"
 21066      7200
 21067              	.LASF904:
 21068 2395 74617267 		.ascii	"target_halt_resume\000"
 21068      65745F68 
 21068      616C745F 
 21068      72657375 
 21068      6D6500
 21069              	.LASF766:
 21070 23a8 6572726E 		.ascii	"errno_\000"
 21070      6F5F00
 21071              	.LASF469:
 21072 23af 53504944 		.ascii	"SPIDriver\000"
 21072      72697665 
 21072      7200
 21073              	.LASF642:
 21074 23b9 65786365 		.ascii	"exception\000"
 21074      7074696F 
 21074      6E00
ARM GAS  /tmp/cccFXynL.s 			page 402


 21075              	.LASF263:
 21076 23c3 735F7175 		.ascii	"s_queue\000"
 21076      65756500 
 21077              	.LASF850:
 21078 23cb 636F7274 		.ascii	"cortexm_halt_poll\000"
 21078      65786D5F 
 21078      68616C74 
 21078      5F706F6C 
 21078      6C00
 21079              	.LASF244:
 21080 23dd 49325343 		.ascii	"I2SCFGR\000"
 21080      46475200 
 21081              	.LASF834:
 21082 23e5 6477745F 		.ascii	"dwt_func\000"
 21082      66756E63 
 21082      00
 21083              	.LASF781:
 21084 23ee 666C6173 		.ascii	"flash_done_func\000"
 21084      685F646F 
 21084      6E655F66 
 21084      756E6300 
 21085              	.LASF795:
 21086 23fe 6F707469 		.ascii	"optind\000"
 21086      6E6400
 21087              	.LASF269:
 21088 2405 63685F69 		.ascii	"ch_identifier\000"
 21088      64656E74 
 21088      69666965 
 21088      7200
 21089              	.LASF461:
 21090 2413 77726974 		.ascii	"writet\000"
 21090      657400
 21091              	.LASF817:
 21092 241a 44425F44 		.ascii	"DB_DCRSR\000"
 21092      43525352 
 21092      00
 21093              	.LASF10:
 21094 2423 6C6F6E67 		.ascii	"long long int\000"
 21094      206C6F6E 
 21094      6720696E 
 21094      7400
 21095              	.LASF563:
 21096 2431 48505458 		.ascii	"HPTXFSIZ\000"
 21096      4653495A 
 21096      00
 21097              	.LASF276:
 21098 243a 63665F6F 		.ascii	"cf_off_prio\000"
 21098      66665F70 
 21098      72696F00 
 21099              	.LASF75:
 21100 2446 5F666C61 		.ascii	"_flags2\000"
 21100      67733200 
 21101              	.LASF845:
 21102 244e 6672616D 		.ascii	"framesize\000"
 21102      6573697A 
 21102      6500
 21103              	.LASF784:
ARM GAS  /tmp/cccFXynL.s 			page 403


 21104 2458 68616E64 		.ascii	"handler\000"
 21104      6C657200 
 21105              	.LASF682:
 21106 2460 64657461 		.ascii	"detach\000"
 21106      636800
 21107              	.LASF432:
 21108 2467 6963756D 		.ascii	"icumode_t\000"
 21108      6F64655F 
 21108      7400
 21109              	.LASF610:
 21110 2471 7478636E 		.ascii	"txcnt\000"
 21110      7400
 21111              	.LASF630:
 21112 2477 6765745F 		.ascii	"get_descriptor_cb\000"
 21112      64657363 
 21112      72697074 
 21112      6F725F63 
 21112      6200
 21113              	.LASF84:
 21114 2489 5F6C6F63 		.ascii	"_locale\000"
 21114      616C6500 
 21115              	.LASF146:
 21116 2491 6576656E 		.ascii	"eventflags_t\000"
 21116      74666C61 
 21116      67735F74 
 21116      00
 21117              	.LASF465:
 21118 249e 5350495F 		.ascii	"SPI_READY\000"
 21118      52454144 
 21118      5900
 21119              	.LASF906:
 21120 24a8 7365746A 		.ascii	"setjmp\000"
 21120      6D7000
 21121              	.LASF692:
 21122 24af 68616C74 		.ascii	"halt_request\000"
 21122      5F726571 
 21122      75657374 
 21122      00
 21123              	.LASF909:
 21124 24bc 706C6174 		.ascii	"platform_srst_set_val\000"
 21124      666F726D 
 21124      5F737273 
 21124      745F7365 
 21124      745F7661 
 21125              	.LASF902:
 21126 24d2 74635F77 		.ascii	"tc_write\000"
 21126      72697465 
 21126      00
 21127              	.LASF867:
 21128 24db 63706163 		.ascii	"cpacr\000"
 21128      7200
 21129              	.LASF788:
 21130 24e1 636D6473 		.ascii	"cmds\000"
 21130      00
 21131              	.LASF599:
 21132 24e6 4649464F 		.ascii	"FIFO\000"
 21132      00
ARM GAS  /tmp/cccFXynL.s 			page 404


 21133              	.LASF872:
 21134 24eb 636F7274 		.ascii	"cortexm_mem_write\000"
 21134      65786D5F 
 21134      6D656D5F 
 21134      77726974 
 21134      6500
 21135              	.LASF220:
 21136 24fd 73464946 		.ascii	"sFIFOMailBox\000"
 21136      4F4D6169 
 21136      6C426F78 
 21136      00
 21137              	.LASF659:
 21138 250a 6A746167 		.ascii	"jtag_dev_count\000"
 21138      5F646576 
 21138      5F636F75 
 21138      6E7400
 21139              	.LASF637:
 21140 2519 706C6174 		.ascii	"platform_swdio_port\000"
 21140      666F726D 
 21140      5F737764 
 21140      696F5F70 
 21140      6F727400 
 21141              	.LASF578:
 21142 252d 4443544C 		.ascii	"DCTL\000"
 21142      00
 21143              	.LASF926:
 21144 2532 61646976 		.ascii	"adiv5_mem_write\000"
 21144      355F6D65 
 21144      6D5F7772 
 21144      69746500 
 21145              	.LASF605:
 21146 2542 74786275 		.ascii	"txbuf\000"
 21146      6600
 21147              	.LASF597:
 21148 2548 50434743 		.ascii	"PCGCCTL\000"
 21148      43544C00 
 21149              	.LASF515:
 21150 2550 5553425F 		.ascii	"USB_EVENT_WAKEUP\000"
 21150      4556454E 
 21150      545F5741 
 21150      4B455550 
 21150      00
 21151              	.LASF697:
 21152 2561 62775F6C 		.ascii	"bw_list\000"
 21152      69737400 
 21153              	.LASF156:
 21154 2569 705F6F6C 		.ascii	"p_older\000"
 21154      64657200 
 21155              	.LASF355:
 21156 2571 50494461 		.ascii	"PIData\000"
 21156      746100
 21157              	.LASF627:
 21158 2578 73657475 		.ascii	"setup_buf\000"
 21158      705F6275 
 21158      6600
 21159              	.LASF560:
 21160 2582 72657376 		.ascii	"resvd34\000"
ARM GAS  /tmp/cccFXynL.s 			page 405


 21160      64333400 
 21161              	.LASF472:
 21162 258a 7373706F 		.ascii	"ssport\000"
 21162      727400
 21163              	.LASF409:
 21164 2591 4943555F 		.ascii	"ICU_UNINIT\000"
 21164      554E494E 
 21164      495400
 21165              	.LASF172:
 21166 259c 74687265 		.ascii	"thread_reference_t\000"
 21166      61645F72 
 21166      65666572 
 21166      656E6365 
 21166      5F7400
 21167              	.LASF479:
 21168 25af 72656365 		.ascii	"receiving\000"
 21168      6976696E 
 21168      6700
 21169              	.LASF98:
 21170 25b9 5F5F4649 		.ascii	"__FILE\000"
 21170      4C4500
 21171              	.LASF815:
 21172 25c0 74646573 		.ascii	"tdesc_cortex_mf\000"
 21172      635F636F 
 21172      72746578 
 21172      5F6D6600 
 21173              	.LASF438:
 21174 25d0 66726571 		.ascii	"frequency\000"
 21174      75656E63 
 21174      7900
 21175              	.LASF844:
 21176 25da 72657463 		.ascii	"retcode\000"
 21176      6F646500 
 21177              	.LASF35:
 21178 25e2 5F736967 		.ascii	"_sign\000"
 21178      6E00
 21179              	.LASF624:
 21180 25e8 696E5F73 		.ascii	"in_state\000"
 21180      74617465 
 21180      00
 21181              	.LASF657:
 21182 25f1 6A746167 		.ascii	"jtag_dev_t\000"
 21182      5F646576 
 21182      5F7400
 21183              	.LASF40:
 21184 25fc 5F5F746D 		.ascii	"__tm_min\000"
 21184      5F6D696E 
 21184      00
 21185              	.LASF930:
 21186 2605 2F626C64 		.ascii	"/bldc\000"
 21186      6300
 21187              	.LASF392:
 21188 260b 46415354 		.ascii	"FAST_DUTY_CYCLE_2\000"
 21188      5F445554 
 21188      595F4359 
 21188      434C455F 
 21188      3200
ARM GAS  /tmp/cccFXynL.s 			page 406


 21189              	.LASF922:
 21190 261d 6E726635 		.ascii	"nrf51_probe\000"
 21190      315F7072 
 21190      6F626500 
 21191              	.LASF275:
 21192 2629 63685F74 		.ascii	"ch_threadsize\000"
 21192      68726561 
 21192      6473697A 
 21192      6500
 21193              	.LASF239:
 21194 2637 464C5452 		.ascii	"FLTR\000"
 21194      00
 21195              	.LASF422:
 21196 263c 43434D52 		.ascii	"CCMR1\000"
 21196      3100
 21197              	.LASF423:
 21198 2642 43434D52 		.ascii	"CCMR2\000"
 21198      3200
 21199              	.LASF427:
 21200 2648 43434D52 		.ascii	"CCMR3\000"
 21200      3300
 21201              	.LASF13:
 21202 264e 756E7369 		.ascii	"unsigned int\000"
 21202      676E6564 
 21202      20696E74 
 21202      00
 21203              	.LASF112:
 21204 265b 5F723438 		.ascii	"_r48\000"
 21204      00
 21205              	.LASF567:
 21206 2660 48464952 		.ascii	"HFIR\000"
 21206      00
 21207              	.LASF496:
 21208 2665 5553425F 		.ascii	"USB_UNINIT\000"
 21208      554E494E 
 21208      495400
 21209              	.LASF323:
 21210 2670 73747265 		.ascii	"stream\000"
 21210      616D00
 21211              	.LASF718:
 21212 2677 54415247 		.ascii	"TARGET_BREAK_HARD\000"
 21212      45545F42 
 21212      5245414B 
 21212      5F484152 
 21212      4400
 21213              	.LASF390:
 21214 2689 6932636F 		.ascii	"i2copmode_t\000"
 21214      706D6F64 
 21214      655F7400 
 21215              	.LASF910:
 21216 2695 61646976 		.ascii	"adiv5_mem_write_sized\000"
 21216      355F6D65 
 21216      6D5F7772 
 21216      6974655F 
 21216      73697A65 
 21217              	.LASF807:
 21218 26ab 68775F62 		.ascii	"hw_breakpoint_max\000"
ARM GAS  /tmp/cccFXynL.s 			page 407


 21218      7265616B 
 21218      706F696E 
 21218      745F6D61 
 21218      7800
 21219              	.LASF885:
 21220 26bd 73747263 		.ascii	"strcmp\000"
 21220      6D7000
 21221              	.LASF767:
 21222 26c4 696E7465 		.ascii	"interrupted\000"
 21222      72727570 
 21222      74656400 
 21223              	.LASF270:
 21224 26d0 63685F7A 		.ascii	"ch_zero\000"
 21224      65726F00 
 21225              	.LASF2:
 21226 26d8 73686F72 		.ascii	"short int\000"
 21226      7420696E 
 21226      7400
 21227              	.LASF521:
 21228 26e2 75736263 		.ascii	"usbcallback_t\000"
 21228      616C6C62 
 21228      61636B5F 
 21228      7400
 21229              	.LASF64:
 21230 26f0 5F726561 		.ascii	"_read\000"
 21230      6400
 21231              	.LASF709:
 21232 26f6 54415247 		.ascii	"TARGET_HALT_RUNNING\000"
 21232      45545F48 
 21232      414C545F 
 21232      52554E4E 
 21232      494E4700 
 21233              	.LASF550:
 21234 270a 47555342 		.ascii	"GUSBCFG\000"
 21234      43464700 
 21235              	.LASF248:
 21236 2712 55534152 		.ascii	"USART_TypeDef\000"
 21236      545F5479 
 21236      70654465 
 21236      6600
 21237              	.LASF312:
 21238 2720 6F757470 		.ascii	"output_queue_t\000"
 21238      75745F71 
 21238      75657565 
 21238      5F7400
 21239              	.LASF102:
 21240 272f 5F72616E 		.ascii	"_rand48\000"
 21240      64343800 
 21241              	.LASF600:
 21242 2737 73746D33 		.ascii	"stm32_otg_t\000"
 21242      325F6F74 
 21242      675F7400 
 21243              	.LASF397:
 21244 2743 64757479 		.ascii	"duty_cycle\000"
 21244      5F637963 
 21244      6C6500
 21245              	.LASF879:
ARM GAS  /tmp/cccFXynL.s 			page 408


 21246 274e 6D656D5F 		.ascii	"mem_end\000"
 21246      656E6400 
 21247              	.LASF518:
 21248 2756 75645F73 		.ascii	"ud_size\000"
 21248      697A6500 
 21249              	.LASF669:
 21250 275e 64705F72 		.ascii	"dp_read\000"
 21250      65616400 
 21251              	.LASF622:
 21252 2766 696E5F6D 		.ascii	"in_maxsize\000"
 21252      61787369 
 21252      7A6500
 21253              	.LASF134:
 21254 2771 5F5F7661 		.ascii	"__va_list\000"
 21254      5F6C6973 
 21254      7400
 21255              	.LASF352:
 21256 277b 50464461 		.ascii	"PFData\000"
 21256      746100
 21257              	.LASF823:
 21258 2782 666C6167 		.ascii	"flags\000"
 21258      7300
 21259              	.LASF159:
 21260 2788 705F7374 		.ascii	"p_state\000"
 21260      61746500 
 21261              	.LASF174:
 21262 2790 63685F74 		.ascii	"ch_threads_list\000"
 21262      68726561 
 21262      64735F6C 
 21262      69737400 
 21263              	.LASF236:
 21264 27a0 4F415231 		.ascii	"OAR1\000"
 21264      00
 21265              	.LASF237:
 21266 27a5 4F415232 		.ascii	"OAR2\000"
 21266      00
 21267              	.LASF694:
 21268 27aa 68616C74 		.ascii	"halt_resume\000"
 21268      5F726573 
 21268      756D6500 
 21269              	.LASF449:
 21270 27b6 53445F52 		.ascii	"SD_READY\000"
 21270      45414459 
 21270      00
 21271              		.ident	"GCC: (GNU Tools for Arm Embedded Processors 7-2018-q3-update) 7.3.1 20180622 (release) [AR
ARM GAS  /tmp/cccFXynL.s 			page 409


DEFINED SYMBOLS
                            *ABS*:0000000000000000 cortexm.c
     /tmp/cccFXynL.s:18     .text.cortexm_check_error:0000000000000000 $t
     /tmp/cccFXynL.s:25     .text.cortexm_check_error:0000000000000000 cortexm_check_error
     /tmp/cccFXynL.s:65     .text.cortexm_vector_catch:0000000000000000 $t
     /tmp/cccFXynL.s:72     .text.cortexm_vector_catch:0000000000000000 cortexm_vector_catch
     /tmp/cccFXynL.s:251    .text.cortexm_vector_catch:00000000000000d0 $d
     /tmp/cccFXynL.s:262    .text.cortexm_breakwatch_clear:0000000000000000 $t
     /tmp/cccFXynL.s:269    .text.cortexm_breakwatch_clear:0000000000000000 cortexm_breakwatch_clear
     /tmp/cccFXynL.s:351    .text.cortexm_breakwatch_clear:0000000000000048 $d
     /tmp/cccFXynL.s:356    .text.cortexm_breakwatch_set:0000000000000000 $t
     /tmp/cccFXynL.s:363    .text.cortexm_breakwatch_set:0000000000000000 cortexm_breakwatch_set
     /tmp/cccFXynL.s:630    .text.cortexm_breakwatch_set:0000000000000140 $d
     /tmp/cccFXynL.s:639    .text.cortexm_pc_read:0000000000000000 $t
     /tmp/cccFXynL.s:646    .text.cortexm_pc_read:0000000000000000 cortexm_pc_read
     /tmp/cccFXynL.s:680    .text.cortexm_pc_read:0000000000000018 $d
     /tmp/cccFXynL.s:686    .text.cortexm_detach:0000000000000000 $t
     /tmp/cccFXynL.s:694    .text.cortexm_detach:0000000000000000 cortexm_detach
     /tmp/cccFXynL.s:784    .text.cortexm_detach:0000000000000058 $d
     /tmp/cccFXynL.s:792    .text.cortexm_halt_request:0000000000000000 $t
     /tmp/cccFXynL.s:800    .text.cortexm_halt_request:0000000000000000 cortexm_halt_request
     /tmp/cccFXynL.s:874    .text.cortexm_halt_request:0000000000000054 $d
     /tmp/cccFXynL.s:882    .text.cortexm_halt_resume:0000000000000000 $t
     /tmp/cccFXynL.s:890    .text.cortexm_halt_resume:0000000000000000 cortexm_halt_resume
     /tmp/cccFXynL.s:1006   .text.cortexm_halt_resume:0000000000000078 $d
     /tmp/cccFXynL.s:1020   .text.cortexm_halt_poll:0000000000000000 $t
     /tmp/cccFXynL.s:1027   .text.cortexm_halt_poll:0000000000000000 cortexm_halt_poll
     /tmp/cccFXynL.s:1534   .text.cortexm_halt_poll:000000000000027e $d
     /tmp/cccFXynL.s:1593   .text.cortexm_halt_poll:00000000000002c4 $d
     /tmp/cccFXynL.s:1607   .text.cortexm_halt_poll:00000000000002e8 $t
     /tmp/cccFXynL.s:1815   .text.cortexm_halt_poll:0000000000000408 $d
     /tmp/cccFXynL.s:1825   .text.cortexm_regs_write:0000000000000000 $t
     /tmp/cccFXynL.s:1832   .text.cortexm_regs_write:0000000000000000 cortexm_regs_write
     /tmp/cccFXynL.s:2010   .text.cortexm_regs_write:00000000000000c0 $d
     /tmp/cccFXynL.s:2017   .text.cortexm_regs_read:0000000000000000 $t
     /tmp/cccFXynL.s:2024   .text.cortexm_regs_read:0000000000000000 cortexm_regs_read
     /tmp/cccFXynL.s:2196   .text.cortexm_regs_read:00000000000000ac $d
     /tmp/cccFXynL.s:2203   .text.cortexm_priv_free:0000000000000000 $t
     /tmp/cccFXynL.s:2210   .text.cortexm_priv_free:0000000000000000 cortexm_priv_free
     /tmp/cccFXynL.s:2243   .text.cortexm_forced_halt:0000000000000000 $t
     /tmp/cccFXynL.s:2250   .text.cortexm_forced_halt:0000000000000000 cortexm_forced_halt
     /tmp/cccFXynL.s:2330   .text.cortexm_forced_halt:0000000000000044 $d
     /tmp/cccFXynL.s:2336   .text.cortexm_attach:0000000000000000 $t
     /tmp/cccFXynL.s:2344   .text.cortexm_attach:0000000000000000 cortexm_attach
     /tmp/cccFXynL.s:2502   .text.cortexm_attach:00000000000000dc $d
     /tmp/cccFXynL.s:2512   .text.cortexm_reset:0000000000000000 $t
     /tmp/cccFXynL.s:2520   .text.cortexm_reset:0000000000000000 cortexm_reset
     /tmp/cccFXynL.s:2603   .text.cortexm_reset:0000000000000058 $d
     /tmp/cccFXynL.s:2611   .text.cortexm_cache_clean.isra.1:0000000000000000 $t
     /tmp/cccFXynL.s:2618   .text.cortexm_cache_clean.isra.1:0000000000000000 cortexm_cache_clean.isra.1
     /tmp/cccFXynL.s:2728   .text.cortexm_cache_clean.isra.1:000000000000007c $d
     /tmp/cccFXynL.s:2734   .text.cortexm_mem_write:0000000000000000 $t
     /tmp/cccFXynL.s:2741   .text.cortexm_mem_write:0000000000000000 cortexm_mem_write
     /tmp/cccFXynL.s:2809   .text.cortexm_mem_read:0000000000000000 $t
     /tmp/cccFXynL.s:2816   .text.cortexm_mem_read:0000000000000000 cortexm_mem_read
     /tmp/cccFXynL.s:2880   .text.cortexm_ap:0000000000000000 $t
     /tmp/cccFXynL.s:2888   .text.cortexm_ap:0000000000000000 cortexm_ap
ARM GAS  /tmp/cccFXynL.s 			page 410


     /tmp/cccFXynL.s:2906   .text.cortexm_probe:0000000000000000 $t
     /tmp/cccFXynL.s:2914   .text.cortexm_probe:0000000000000000 cortexm_probe
     /tmp/cccFXynL.s:3221   .text.cortexm_probe:000000000000019c $d
     /tmp/cccFXynL.s:3246   .text.cortexm_mem_write_sized:0000000000000000 $t
     /tmp/cccFXynL.s:3254   .text.cortexm_mem_write_sized:0000000000000000 cortexm_mem_write_sized
     /tmp/cccFXynL.s:3321   .text.cortexm_run_stub:0000000000000000 $t
     /tmp/cccFXynL.s:3329   .text.cortexm_run_stub:0000000000000000 cortexm_run_stub
     /tmp/cccFXynL.s:3476   .text.cortexm_run_stub:00000000000000b0 $d
     /tmp/cccFXynL.s:3518   .rodata.cortexm_cmd_list:0000000000000000 cortexm_cmd_list
     /tmp/cccFXynL.s:3482   .rodata:0000000000000000 $d
     /tmp/cccFXynL.s:3504   .rodata.CSWTCH.44:0000000000000000 $d
     /tmp/cccFXynL.s:3508   .rodata.CSWTCH.44:0000000000000000 CSWTCH.44
     /tmp/cccFXynL.s:3514   .rodata.cortexm_cmd_list:0000000000000000 $d
     /tmp/cccFXynL.s:3526   .rodata.cortexm_driver_str:0000000000000000 $d
     /tmp/cccFXynL.s:3530   .rodata.cortexm_driver_str:0000000000000000 cortexm_driver_str
     /tmp/cccFXynL.s:3533   .rodata.cortexm_halt_poll.str1.4:0000000000000000 $d
     /tmp/cccFXynL.s:3540   .rodata.cortexm_halt_request.str1.4:0000000000000000 $d
     /tmp/cccFXynL.s:3544   .rodata.cortexm_run_stub.str1.4:0000000000000000 $d
     /tmp/cccFXynL.s:3548   .rodata.cortexm_vector_catch.str1.4:0000000000000000 $d
     /tmp/cccFXynL.s:3560   .rodata.regnum_cortex_m:0000000000000000 $d
     /tmp/cccFXynL.s:3564   .rodata.regnum_cortex_m:0000000000000000 regnum_cortex_m
     /tmp/cccFXynL.s:3586   .rodata.regnum_cortex_mf:0000000000000000 $d
     /tmp/cccFXynL.s:3590   .rodata.regnum_cortex_mf:0000000000000000 regnum_cortex_mf
     /tmp/cccFXynL.s:3625   .rodata.str1.4:0000000000000000 $d
     /tmp/cccFXynL.s:3653   .rodata.tdesc_cortex_m:0000000000000000 $d
     /tmp/cccFXynL.s:3657   .rodata.tdesc_cortex_m:0000000000000000 tdesc_cortex_m
     /tmp/cccFXynL.s:3660   .rodata.tdesc_cortex_mf:0000000000000000 $d
     /tmp/cccFXynL.s:3664   .rodata.tdesc_cortex_mf:0000000000000000 tdesc_cortex_mf
     /tmp/cccFXynL.s:1553   .text.cortexm_halt_poll:0000000000000291 $d
     /tmp/cccFXynL.s:1553   .text.cortexm_halt_poll:0000000000000292 $t

UNDEFINED SYMBOLS
tc_printf
strcmp
target_mem_write32
target_mem_read32
setjmp
innermost_exception
target_mem_read16
target_list_free
target_regs_read
target_mem_read
target_check_error
target_regs_write
commands_printf
tc_system
target_halt_resume
tc_rename
tc_unlink
tc_lseek
tc_isatty
tc_read
tc_write
tc_close
tc_open
adiv5_ap_write
adiv5_ap_unref
ARM GAS  /tmp/cccFXynL.s 			page 411


free
target_halt_request
platform_srst_set_val
platform_time_ms
cortexm_wait_timeout
platform_delay
adiv5_mem_write
adiv5_mem_read
target_new
adiv5_ap_ref
calloc
target_add_commands
stm32f1_probe
stm32f4_probe
stm32h7_probe
stm32l0_probe
stm32l4_probe
nrf51_probe
adiv5_mem_write_sized
memset
raise_exception
