ARM GAS  /tmp/cccFXynL.s 			page 1


   1              		.cpu cortex-m4
   2              		.eabi_attribute 27, 1
   3              		.eabi_attribute 28, 1
   4              		.eabi_attribute 20, 1
   5              		.eabi_attribute 21, 1
   6              		.eabi_attribute 23, 3
   7              		.eabi_attribute 24, 1
   8              		.eabi_attribute 25, 1
   9              		.eabi_attribute 26, 1
  10              		.eabi_attribute 30, 2
  11              		.eabi_attribute 34, 1
  12              		.eabi_attribute 18, 4
  13              		.file	"cortexm.c"
  14              		.text
  15              	.Ltext0:
  16              		.cfi_sections	.debug_frame
  17              		.section	.text.cortexm_check_error,"ax",%progbits
  18              		.align	1
  19              		.p2align 4,,15
  20              		.syntax unified
  21              		.thumb
  22              		.thumb_func
  23              		.fpu fpv4-sp-d16
  24              		.type	cortexm_check_error, %function
  25              	cortexm_check_error:
  26              	.LFB267:
  27              		.file 1 "blackmagic/target/cortexm.c"
  28              		.loc 1 232 0
  29              		.cfi_startproc
  30              		@ args = 0, pretend = 0, frame = 0
  31              		@ frame_needed = 0, uses_anonymous_args = 0
  32              	.LVL0:
  33 0000 08B5     		push	{r3, lr}
  34              		.cfi_def_cfa_offset 8
  35              		.cfi_offset 3, -8
  36              		.cfi_offset 14, -4
  37              	.LBB52:
  38              	.LBB53:
  39              		.loc 1 191 0
  40 0002 C36E     		ldr	r3, [r0, #108]
  41              	.LBE53:
  42              	.LBE52:
  43              		.loc 1 234 0
  44 0004 1B68     		ldr	r3, [r3]
  45 0006 5868     		ldr	r0, [r3, #4]
  46              	.LVL1:
  47              	.LBB54:
  48              	.LBB55:
  49              		.file 2 "blackmagic/target/adiv5.h"
  50              		.loc 2 147 0
  51 0008 4369     		ldr	r3, [r0, #20]
  52 000a 9847     		blx	r3
  53              	.LVL2:
  54              	.LBE55:
  55              	.LBE54:
  56              		.loc 1 235 0
  57 000c 0030     		adds	r0, r0, #0
ARM GAS  /tmp/cccFXynL.s 			page 2


  58 000e 18BF     		it	ne
  59 0010 0120     		movne	r0, #1
  60 0012 08BD     		pop	{r3, pc}
  61              		.cfi_endproc
  62              	.LFE267:
  63              		.size	cortexm_check_error, .-cortexm_check_error
  64              		.section	.text.cortexm_vector_catch,"ax",%progbits
  65              		.align	1
  66              		.p2align 4,,15
  67              		.syntax unified
  68              		.thumb
  69              		.thumb_func
  70              		.fpu fpv4-sp-d16
  71              		.type	cortexm_vector_catch, %function
  72              	cortexm_vector_catch:
  73              	.LFB289:
  74              		.loc 1 860 0
  75              		.cfi_startproc
  76              		@ args = 0, pretend = 0, frame = 56
  77              		@ frame_needed = 0, uses_anonymous_args = 0
  78              	.LVL3:
  79 0000 2DE9F04F 		push	{r4, r5, r6, r7, r8, r9, r10, fp, lr}
  80              		.cfi_def_cfa_offset 36
  81              		.cfi_offset 4, -36
  82              		.cfi_offset 5, -32
  83              		.cfi_offset 6, -28
  84              		.cfi_offset 7, -24
  85              		.cfi_offset 8, -20
  86              		.cfi_offset 9, -16
  87              		.cfi_offset 10, -12
  88              		.cfi_offset 11, -8
  89              		.cfi_offset 14, -4
  90              		.loc 1 862 0
  91 0004 324E     		ldr	r6, .L29
  92              		.loc 1 860 0
  93 0006 8046     		mov	r8, r0
  94 0008 8A46     		mov	r10, r1
  95 000a 1546     		mov	r5, r2
  96              		.loc 1 862 0
  97 000c 0FCE     		ldmia	r6!, {r0, r1, r2, r3}
  98              	.LVL4:
  99              		.loc 1 860 0
 100 000e 8FB0     		sub	sp, sp, #60
 101              		.cfi_def_cfa_offset 96
 102              		.loc 1 862 0
 103 0010 03AC     		add	r4, sp, #12
 104 0012 0FC4     		stmia	r4!, {r0, r1, r2, r3}
 105 0014 0FCE     		ldmia	r6!, {r0, r1, r2, r3}
 106 0016 0FC4     		stmia	r4!, {r0, r1, r2, r3}
 107 0018 96E80700 		ldm	r6, {r0, r1, r2}
 108              		.loc 1 866 0
 109 001c BAF1020F 		cmp	r10, #2
 110              		.loc 1 861 0
 111 0020 D8F86C70 		ldr	r7, [r8, #108]
 112              	.LVL5:
 113              		.loc 1 862 0
 114 0024 84E80700 		stm	r4, {r0, r1, r2}
ARM GAS  /tmp/cccFXynL.s 			page 3


 115              		.loc 1 866 0
 116 0028 05DD     		ble	.L5
 117              		.loc 1 866 0 is_stmt 0 discriminator 1
 118 002a 6B68     		ldr	r3, [r5, #4]
 119 002c 1B78     		ldrb	r3, [r3]	@ zero_extendqisi2
 120 002e 0193     		str	r3, [sp, #4]
 121 0030 643B     		subs	r3, r3, #100
 122 0032 012B     		cmp	r3, #1
 123 0034 27D9     		bls	.L27
 124              	.L5:
 125              		.loc 1 867 0 is_stmt 1
 126 0036 2749     		ldr	r1, .L29+4
 127 0038 4046     		mov	r0, r8
 128 003a FFF7FEFF 		bl	tc_printf
 129              	.LVL6:
 130              	.L7:
 131              		.loc 1 886 0
 132 003e 2649     		ldr	r1, .L29+8
 133              		.loc 1 891 0
 134 0040 264E     		ldr	r6, .L29+12
 135              		.loc 1 886 0
 136 0042 4046     		mov	r0, r8
 137 0044 FFF7FEFF 		bl	tc_printf
 138              	.LVL7:
 139 0048 03AD     		add	r5, sp, #12
 140              		.loc 1 887 0
 141 004a 0024     		movs	r4, #0
 142              		.loc 1 890 0
 143 004c 4FF00109 		mov	r9, #1
 144 0050 01E0     		b	.L14
 145              	.LVL8:
 146              	.L13:
 147              		.loc 1 887 0 discriminator 2
 148 0052 0B2C     		cmp	r4, #11
 149 0054 0FD0     		beq	.L28
 150              	.LVL9:
 151              	.L14:
 152              		.loc 1 888 0
 153 0056 55F8042B 		ldr	r2, [r5], #4
 154              		.loc 1 890 0
 155 005a 09FA04F3 		lsl	r3, r9, r4
 156              		.loc 1 887 0
 157 005e 0134     		adds	r4, r4, #1
 158              	.LVL10:
 159              		.loc 1 888 0
 160 0060 002A     		cmp	r2, #0
 161 0062 F6D0     		beq	.L13
 162              		.loc 1 890 0
 163 0064 396A     		ldr	r1, [r7, #32]
 164 0066 0B42     		tst	r3, r1
 165 0068 F3D0     		beq	.L13
 166              		.loc 1 891 0
 167 006a 3146     		mov	r1, r6
 168 006c 4046     		mov	r0, r8
 169 006e FFF7FEFF 		bl	tc_printf
 170              	.LVL11:
 171              		.loc 1 887 0
ARM GAS  /tmp/cccFXynL.s 			page 4


 172 0072 0B2C     		cmp	r4, #11
 173 0074 EFD1     		bne	.L14
 174              	.L28:
 175              		.loc 1 893 0
 176 0076 4046     		mov	r0, r8
 177 0078 1949     		ldr	r1, .L29+16
 178 007a FFF7FEFF 		bl	tc_printf
 179              	.LVL12:
 180              		.loc 1 895 0
 181 007e 0120     		movs	r0, #1
 182 0080 0FB0     		add	sp, sp, #60
 183              		.cfi_remember_state
 184              		.cfi_def_cfa_offset 36
 185              		@ sp needed
 186 0082 BDE8F08F 		pop	{r4, r5, r6, r7, r8, r9, r10, fp, pc}
 187              	.LVL13:
 188              	.L27:
 189              		.cfi_restore_state
 190 0086 05EB8A0A 		add	r10, r5, r10, lsl #2
 191              	.LVL14:
 192              	.LBB56:
 193              		.loc 1 870 0
 194 008a 0026     		movs	r6, #0
 195              	.LBB57:
 196              		.loc 1 875 0
 197 008c 4FF00109 		mov	r9, #1
 198              	.LVL15:
 199              	.L6:
 200 0090 0DF10C0B 		add	fp, sp, #12
 201              		.loc 1 873 0
 202 0094 0024     		movs	r4, #0
 203              	.LVL16:
 204              	.L9:
 205              		.loc 1 874 0
 206 0096 5BF8043B 		ldr	r3, [fp], #4
 207 009a 1846     		mov	r0, r3
 208 009c 33B1     		cbz	r3, .L8
 209              		.loc 1 874 0 is_stmt 0 discriminator 1
 210 009e 2968     		ldr	r1, [r5]
 211 00a0 FFF7FEFF 		bl	strcmp
 212              	.LVL17:
 213 00a4 10B9     		cbnz	r0, .L8
 214              		.loc 1 875 0 is_stmt 1
 215 00a6 09FA04F3 		lsl	r3, r9, r4
 216 00aa 1E43     		orrs	r6, r6, r3
 217              	.LVL18:
 218              	.L8:
 219              		.loc 1 873 0 discriminator 2
 220 00ac 0134     		adds	r4, r4, #1
 221              	.LVL19:
 222 00ae 0B2C     		cmp	r4, #11
 223 00b0 F1D1     		bne	.L9
 224              	.LVL20:
 225 00b2 0435     		adds	r5, r5, #4
 226              		.loc 1 872 0 discriminator 2
 227 00b4 5545     		cmp	r5, r10
 228 00b6 EBD1     		bne	.L6
ARM GAS  /tmp/cccFXynL.s 			page 5


 229              	.LBE57:
 230              		.loc 1 878 0
 231 00b8 019B     		ldr	r3, [sp, #4]
 232 00ba 3A6A     		ldr	r2, [r7, #32]
 233              		.loc 1 883 0
 234 00bc 0949     		ldr	r1, .L29+20
 235              		.loc 1 878 0
 236 00be 652B     		cmp	r3, #101
 237              		.loc 1 879 0
 238 00c0 0CBF     		ite	eq
 239 00c2 3243     		orreq	r2, r2, r6
 240              		.loc 1 881 0
 241 00c4 B243     		bicne	r2, r2, r6
 242 00c6 3A62     		str	r2, [r7, #32]
 243              		.loc 1 883 0
 244 00c8 4046     		mov	r0, r8
 245 00ca FFF7FEFF 		bl	target_mem_write32
 246              	.LVL21:
 247 00ce B6E7     		b	.L7
 248              	.L30:
 249              		.align	2
 250              	.L29:
 251 00d0 00000000 		.word	.LANCHOR0
 252 00d4 00000000 		.word	.LC11
 253 00d8 54000000 		.word	.LC12
 254 00dc 68000000 		.word	.LC13
 255 00e0 6C000000 		.word	.LC14
 256 00e4 FCED00E0 		.word	-536809988
 257              	.LBE56:
 258              		.cfi_endproc
 259              	.LFE289:
 260              		.size	cortexm_vector_catch, .-cortexm_vector_catch
 261              		.section	.text.cortexm_breakwatch_clear,"ax",%progbits
 262              		.align	1
 263              		.p2align 4,,15
 264              		.syntax unified
 265              		.thumb
 266              		.thumb_func
 267              		.fpu fpv4-sp-d16
 268              		.type	cortexm_breakwatch_clear, %function
 269              	cortexm_breakwatch_clear:
 270              	.LFB287:
 271              		.loc 1 822 0
 272              		.cfi_startproc
 273              		@ args = 0, pretend = 0, frame = 0
 274              		@ frame_needed = 0, uses_anonymous_args = 0
 275              	.LVL22:
 276              		.loc 1 825 0
 277 0000 0A79     		ldrb	r2, [r1, #4]	@ zero_extendqisi2
 278              		.loc 1 824 0
 279 0002 0969     		ldr	r1, [r1, #16]
 280              	.LVL23:
 281              		.loc 1 825 0
 282 0004 012A     		cmp	r2, #1
 283              		.loc 1 822 0
 284 0006 38B5     		push	{r3, r4, r5, lr}
 285              		.cfi_def_cfa_offset 16
ARM GAS  /tmp/cccFXynL.s 			page 6


 286              		.cfi_offset 3, -16
 287              		.cfi_offset 4, -12
 288              		.cfi_offset 5, -8
 289              		.cfi_offset 14, -4
 290              		.loc 1 823 0
 291 0008 C36E     		ldr	r3, [r0, #108]
 292              	.LVL24:
 293              		.loc 1 825 0
 294 000a 0FD0     		beq	.L33
 295 000c 0CD3     		bcc	.L35
 296 000e 042A     		cmp	r2, #4
 297 0010 0AD8     		bhi	.L35
 298              		.loc 1 833 0
 299 0012 0B44     		add	r3, r3, r1
 300              	.LVL25:
 301              		.loc 1 834 0
 302 0014 0C4D     		ldr	r5, .L38
 303              		.loc 1 833 0
 304 0016 0024     		movs	r4, #0
 305 0018 9C71     		strb	r4, [r3, #6]
 306              		.loc 1 834 0
 307 001a 2246     		mov	r2, r4
 308 001c 05EB0111 		add	r1, r5, r1, lsl #4
 309              	.LVL26:
 310 0020 FFF7FEFF 		bl	target_mem_write32
 311              	.LVL27:
 312              		.loc 1 835 0
 313 0024 2046     		mov	r0, r4
 314              		.loc 1 839 0
 315 0026 38BD     		pop	{r3, r4, r5, pc}
 316              	.LVL28:
 317              	.L35:
 318              		.loc 1 837 0
 319 0028 0120     		movs	r0, #1
 320              	.LVL29:
 321              		.loc 1 839 0
 322 002a 38BD     		pop	{r3, r4, r5, pc}
 323              	.LVL30:
 324              	.L33:
 325              		.loc 1 827 0
 326 002c 0B44     		add	r3, r3, r1
 327              	.LVL31:
 328              		.loc 1 828 0
 329 002e 01F16051 		add	r1, r1, #939524096
 330              	.LVL32:
 331              		.loc 1 827 0
 332 0032 0024     		movs	r4, #0
 333              		.loc 1 828 0
 334 0034 01F60201 		addw	r1, r1, #2050
 335              	.LVL33:
 336 0038 8900     		lsls	r1, r1, #2
 337              	.LVL34:
 338              		.loc 1 827 0
 339 003a 1C75     		strb	r4, [r3, #20]
 340              		.loc 1 828 0
 341 003c 2246     		mov	r2, r4
 342 003e FFF7FEFF 		bl	target_mem_write32
ARM GAS  /tmp/cccFXynL.s 			page 7


 343              	.LVL35:
 344              		.loc 1 829 0
 345 0042 2046     		mov	r0, r4
 346              		.loc 1 839 0
 347 0044 38BD     		pop	{r3, r4, r5, pc}
 348              	.L39:
 349 0046 00BF     		.align	2
 350              	.L38:
 351 0048 281000E0 		.word	-536866776
 352              		.cfi_endproc
 353              	.LFE287:
 354              		.size	cortexm_breakwatch_clear, .-cortexm_breakwatch_clear
 355              		.section	.text.cortexm_breakwatch_set,"ax",%progbits
 356              		.align	1
 357              		.p2align 4,,15
 358              		.syntax unified
 359              		.thumb
 360              		.thumb_func
 361              		.fpu fpv4-sp-d16
 362              		.type	cortexm_breakwatch_set, %function
 363              	cortexm_breakwatch_set:
 364              	.LFB286:
 365              		.loc 1 773 0
 366              		.cfi_startproc
 367              		@ args = 0, pretend = 0, frame = 0
 368              		@ frame_needed = 0, uses_anonymous_args = 0
 369              	.LVL36:
 370              		.loc 1 778 0
 371 0000 0B79     		ldrb	r3, [r1, #4]	@ zero_extendqisi2
 372              		.loc 1 776 0
 373 0002 8A68     		ldr	r2, [r1, #8]
 374              		.loc 1 778 0
 375 0004 012B     		cmp	r3, #1
 376              		.loc 1 773 0
 377 0006 2DE9F041 		push	{r4, r5, r6, r7, r8, lr}
 378              		.cfi_def_cfa_offset 24
 379              		.cfi_offset 4, -24
 380              		.cfi_offset 5, -20
 381              		.cfi_offset 6, -16
 382              		.cfi_offset 7, -12
 383              		.cfi_offset 8, -8
 384              		.cfi_offset 14, -4
 385              		.loc 1 773 0
 386 000a 0646     		mov	r6, r0
 387 000c 0D46     		mov	r5, r1
 388              		.loc 1 774 0
 389 000e C06E     		ldr	r0, [r0, #108]
 390              	.LVL37:
 391              		.loc 1 778 0
 392 0010 1CD0     		beq	.L42
 393 0012 18D3     		bcc	.L61
 394 0014 042B     		cmp	r3, #4
 395 0016 16D8     		bhi	.L61
 396              	.LVL38:
 397              		.loc 1 801 0
 398 0018 D0F810C0 		ldr	ip, [r0, #16]
 399 001c BCF1000F 		cmp	ip, #0
ARM GAS  /tmp/cccFXynL.s 			page 8


 400 0020 0DD0     		beq	.L64
 401              		.loc 1 802 0
 402 0022 8479     		ldrb	r4, [r0, #6]	@ zero_extendqisi2
 403 0024 002C     		cmp	r4, #0
 404 0026 00F08580 		beq	.L71
 405 002a C11D     		adds	r1, r0, #7
 406              	.LVL39:
 407              		.loc 1 801 0
 408 002c 0023     		movs	r3, #0
 409 002e 03E0     		b	.L52
 410              	.LVL40:
 411              	.L53:
 412              		.loc 1 802 0
 413 0030 11F8017B 		ldrb	r7, [r1], #1	@ zero_extendqisi2
 414 0034 87B3     		cbz	r7, .L72
 415 0036 2346     		mov	r3, r4
 416              	.LVL41:
 417              	.L52:
 418              		.loc 1 801 0 discriminator 2
 419 0038 5C1C     		adds	r4, r3, #1
 420              	.LVL42:
 421 003a 6445     		cmp	r4, ip
 422 003c F8D1     		bne	.L53
 423              	.LVL43:
 424              	.L64:
 425              		.loc 1 806 0
 426 003e 4FF0FF30 		mov	r0, #-1
 427              	.LVL44:
 428              		.loc 1 819 0
 429 0042 BDE8F081 		pop	{r4, r5, r6, r7, r8, pc}
 430              	.LVL45:
 431              	.L61:
 432              		.loc 1 817 0
 433 0046 0120     		movs	r0, #1
 434              	.LVL46:
 435              		.loc 1 819 0
 436 0048 BDE8F081 		pop	{r4, r5, r6, r7, r8, pc}
 437              	.LVL47:
 438              	.L42:
 439              		.loc 1 780 0
 440 004c C368     		ldr	r3, [r0, #12]
 441 004e B3B1     		cbz	r3, .L73
 442              	.L46:
 443              		.loc 1 786 0
 444 0050 D0F81CC0 		ldr	ip, [r0, #28]
 445              		.loc 1 784 0
 446 0054 42F00102 		orr	r2, r2, #1
 447              	.LVL48:
 448              		.loc 1 786 0
 449 0058 BCF1000F 		cmp	ip, #0
 450 005c EFD0     		beq	.L64
 451              		.loc 1 787 0
 452 005e 047D     		ldrb	r4, [r0, #20]	@ zero_extendqisi2
 453 0060 002C     		cmp	r4, #0
 454 0062 65D0     		beq	.L74
 455 0064 00F11501 		add	r1, r0, #21
 456              	.LVL49:
ARM GAS  /tmp/cccFXynL.s 			page 9


 457              		.loc 1 786 0
 458 0068 0023     		movs	r3, #0
 459 006a 04E0     		b	.L50
 460              	.LVL50:
 461              	.L51:
 462              		.loc 1 787 0
 463 006c 11F8017B 		ldrb	r7, [r1], #1	@ zero_extendqisi2
 464 0070 002F     		cmp	r7, #0
 465 0072 45D0     		beq	.L75
 466 0074 2346     		mov	r3, r4
 467              	.LVL51:
 468              	.L50:
 469              		.loc 1 786 0 discriminator 2
 470 0076 5C1C     		adds	r4, r3, #1
 471              	.LVL52:
 472 0078 A445     		cmp	ip, r4
 473 007a F7D1     		bne	.L51
 474 007c DFE7     		b	.L64
 475              	.LVL53:
 476              	.L73:
 477              		.loc 1 782 0
 478 007e 12F0020F 		tst	r2, #2
 479              		.loc 1 781 0
 480 0082 22F06042 		bic	r2, r2, #-536870912
 481              	.LVL54:
 482 0086 22F00302 		bic	r2, r2, #3
 483              	.LVL55:
 484              		.loc 1 782 0
 485 008a 0CBF     		ite	eq
 486 008c 4FF08043 		moveq	r3, #1073741824
 487 0090 4FF00043 		movne	r3, #-2147483648
 488 0094 1A43     		orrs	r2, r2, r3
 489              	.LVL56:
 490 0096 DBE7     		b	.L46
 491              	.LVL57:
 492              	.L72:
 493 0098 03F16063 		add	r3, r3, #234881024
 494 009c 03F20313 		addw	r3, r3, #259
 495 00a0 1901     		lsls	r1, r3, #4
 496 00a2 0F1D     		adds	r7, r1, #4
 497 00a4 01F10808 		add	r8, r1, #8
 498              	.LVL58:
 499              	.L45:
 500              		.loc 1 808 0
 501 00a8 2044     		add	r0, r0, r4
 502              	.LVL59:
 503 00aa 0123     		movs	r3, #1
 504 00ac 8371     		strb	r3, [r0, #6]
 505              		.loc 1 810 0
 506 00ae 3046     		mov	r0, r6
 507 00b0 FFF7FEFF 		bl	target_mem_write32
 508              	.LVL60:
 509 00b4 EB68     		ldr	r3, [r5, #12]
 510 00b6 013B     		subs	r3, r3, #1
 511 00b8 032B     		cmp	r3, #3
 512 00ba 1DD9     		bls	.L59
 513              		.loc 1 811 0
ARM GAS  /tmp/cccFXynL.s 			page 10


 514 00bc 4FF0FF32 		mov	r2, #-1
 515              	.L60:
 516              	.LVL61:
 517 00c0 3946     		mov	r1, r7
 518 00c2 3046     		mov	r0, r6
 519 00c4 FFF7FEFF 		bl	target_mem_write32
 520              	.LVL62:
 521              	.LBB58:
 522              	.LBB59:
 523              		.loc 1 757 0
 524 00c8 F26C     		ldr	r2, [r6, #76]
 525              	.LBE59:
 526              	.LBE58:
 527              		.loc 1 812 0
 528 00ca 2B79     		ldrb	r3, [r5, #4]	@ zero_extendqisi2
 529              	.LVL63:
 530              	.LBB62:
 531              	.LBB60:
 532              		.loc 1 755 0
 533 00cc 12F0010F 		tst	r2, #1
 534 00d0 0CBF     		ite	eq
 535 00d2 4FF40062 		moveq	r2, #2048
 536 00d6 0022     		movne	r2, #0
 537              	.LVL64:
 538              		.loc 1 760 0
 539 00d8 032B     		cmp	r3, #3
 540 00da 26D0     		beq	.L56
 541 00dc 042B     		cmp	r3, #4
 542 00de 21D0     		beq	.L57
 543 00e0 022B     		cmp	r3, #2
 544 00e2 1CD0     		beq	.L76
 545              		.loc 1 768 0
 546 00e4 4FF0FF32 		mov	r2, #-1
 547              	.LVL65:
 548              	.L55:
 549              	.LBE60:
 550              	.LBE62:
 551              		.loc 1 812 0
 552 00e8 3046     		mov	r0, r6
 553 00ea 4146     		mov	r1, r8
 554 00ec FFF7FEFF 		bl	target_mem_write32
 555              	.LVL66:
 556              		.loc 1 814 0
 557 00f0 2C61     		str	r4, [r5, #16]
 558              		.loc 1 815 0
 559 00f2 0020     		movs	r0, #0
 560              		.loc 1 819 0
 561 00f4 BDE8F081 		pop	{r4, r5, r6, r7, r8, pc}
 562              	.LVL67:
 563              	.L59:
 564 00f8 114A     		ldr	r2, .L77
 565 00fa 52F82320 		ldr	r2, [r2, r3, lsl #2]
 566 00fe DFE7     		b	.L60
 567              	.LVL68:
 568              	.L75:
 569 0100 03F16053 		add	r3, r3, #939524096
 570 0104 03F60303 		addw	r3, r3, #2051
ARM GAS  /tmp/cccFXynL.s 			page 11


 571 0108 9900     		lsls	r1, r3, #2
 572              	.LVL69:
 573              	.L49:
 574              		.loc 1 793 0
 575 010a 0319     		adds	r3, r0, r4
 576 010c 0127     		movs	r7, #1
 577              		.loc 1 794 0
 578 010e 3046     		mov	r0, r6
 579              	.LVL70:
 580              		.loc 1 793 0
 581 0110 1F75     		strb	r7, [r3, #20]
 582              		.loc 1 794 0
 583 0112 FFF7FEFF 		bl	target_mem_write32
 584              	.LVL71:
 585              		.loc 1 795 0
 586 0116 2C61     		str	r4, [r5, #16]
 587              		.loc 1 796 0
 588 0118 0020     		movs	r0, #0
 589              		.loc 1 819 0
 590 011a BDE8F081 		pop	{r4, r5, r6, r7, r8, pc}
 591              	.LVL72:
 592              	.L76:
 593              	.LBB63:
 594              	.LBB61:
 595              		.loc 1 762 0
 596 011e 42F00602 		orr	r2, r2, #6
 597              	.LVL73:
 598 0122 E1E7     		b	.L55
 599              	.LVL74:
 600              	.L57:
 601              		.loc 1 766 0
 602 0124 42F00702 		orr	r2, r2, #7
 603              	.LVL75:
 604 0128 DEE7     		b	.L55
 605              	.LVL76:
 606              	.L56:
 607              		.loc 1 764 0
 608 012a 42F00502 		orr	r2, r2, #5
 609              	.LVL77:
 610 012e DBE7     		b	.L55
 611              	.LVL78:
 612              	.L74:
 613              	.LBE61:
 614              	.LBE63:
 615              		.loc 1 787 0
 616 0130 0449     		ldr	r1, .L77+4
 617              	.LVL79:
 618 0132 EAE7     		b	.L49
 619              	.LVL80:
 620              	.L71:
 621              		.loc 1 802 0
 622 0134 DFF81880 		ldr	r8, .L77+16
 623 0138 034F     		ldr	r7, .L77+8
 624 013a 0449     		ldr	r1, .L77+12
 625              	.LVL81:
 626 013c B4E7     		b	.L45
 627              	.L78:
ARM GAS  /tmp/cccFXynL.s 			page 12


 628 013e 00BF     		.align	2
 629              	.L77:
 630 0140 00000000 		.word	.LANCHOR1
 631 0144 082000E0 		.word	-536862712
 632 0148 241000E0 		.word	-536866780
 633 014c 201000E0 		.word	-536866784
 634 0150 281000E0 		.word	-536866776
 635              		.cfi_endproc
 636              	.LFE286:
 637              		.size	cortexm_breakwatch_set, .-cortexm_breakwatch_set
 638              		.section	.text.cortexm_pc_read,"ax",%progbits
 639              		.align	1
 640              		.p2align 4,,15
 641              		.syntax unified
 642              		.thumb
 643              		.thumb_func
 644              		.fpu fpv4-sp-d16
 645              		.type	cortexm_pc_read, %function
 646              	cortexm_pc_read:
 647              	.LFB276:
 648              		.loc 1 488 0
 649              		.cfi_startproc
 650              		@ args = 0, pretend = 0, frame = 0
 651              		@ frame_needed = 0, uses_anonymous_args = 0
 652              	.LVL82:
 653 0000 10B5     		push	{r4, lr}
 654              		.cfi_def_cfa_offset 8
 655              		.cfi_offset 4, -8
 656              		.cfi_offset 14, -4
 657              		.loc 1 489 0
 658 0002 0549     		ldr	r1, .L81
 659              		.loc 1 488 0
 660 0004 0446     		mov	r4, r0
 661              		.loc 1 489 0
 662 0006 0F22     		movs	r2, #15
 663 0008 FFF7FEFF 		bl	target_mem_write32
 664              	.LVL83:
 665              		.loc 1 490 0
 666 000c 2046     		mov	r0, r4
 667 000e 0349     		ldr	r1, .L81+4
 668              		.loc 1 491 0
 669 0010 BDE81040 		pop	{r4, lr}
 670              		.cfi_restore 14
 671              		.cfi_restore 4
 672              		.cfi_def_cfa_offset 0
 673              	.LVL84:
 674              		.loc 1 490 0
 675 0014 FFF7FEBF 		b	target_mem_read32
 676              	.LVL85:
 677              	.L82:
 678              		.align	2
 679              	.L81:
 680 0018 F4ED00E0 		.word	-536809996
 681 001c F8ED00E0 		.word	-536809992
 682              		.cfi_endproc
 683              	.LFE276:
 684              		.size	cortexm_pc_read, .-cortexm_pc_read
ARM GAS  /tmp/cccFXynL.s 			page 13


 685              		.section	.text.cortexm_detach,"ax",%progbits
 686              		.align	1
 687              		.p2align 4,,15
 688              		.global	cortexm_detach
 689              		.syntax unified
 690              		.thumb
 691              		.thumb_func
 692              		.fpu fpv4-sp-d16
 693              		.type	cortexm_detach, %function
 694              	cortexm_detach:
 695              	.LFB272:
 696              		.loc 1 394 0
 697              		.cfi_startproc
 698              		@ args = 0, pretend = 0, frame = 0
 699              		@ frame_needed = 0, uses_anonymous_args = 0
 700              	.LVL86:
 701 0000 F8B5     		push	{r3, r4, r5, r6, r7, lr}
 702              		.cfi_def_cfa_offset 24
 703              		.cfi_offset 3, -24
 704              		.cfi_offset 4, -20
 705              		.cfi_offset 5, -16
 706              		.cfi_offset 6, -12
 707              		.cfi_offset 7, -8
 708              		.cfi_offset 14, -4
 709              		.loc 1 395 0
 710 0002 C76E     		ldr	r7, [r0, #108]
 711              	.LVL87:
 712              		.loc 1 399 0
 713 0004 FB69     		ldr	r3, [r7, #28]
 714              		.loc 1 394 0
 715 0006 0646     		mov	r6, r0
 716              		.loc 1 399 0
 717 0008 63B1     		cbz	r3, .L84
 718 000a 134D     		ldr	r5, .L97
 719 000c 0024     		movs	r4, #0
 720              	.LVL88:
 721              	.L85:
 722              		.loc 1 400 0 discriminator 3
 723 000e 2946     		mov	r1, r5
 724 0010 0022     		movs	r2, #0
 725 0012 3046     		mov	r0, r6
 726 0014 FFF7FEFF 		bl	target_mem_write32
 727              	.LVL89:
 728              		.loc 1 399 0 discriminator 3
 729 0018 FB69     		ldr	r3, [r7, #28]
 730 001a 0134     		adds	r4, r4, #1
 731              	.LVL90:
 732 001c A342     		cmp	r3, r4
 733 001e 05F10405 		add	r5, r5, #4
 734 0022 F4D8     		bhi	.L85
 735              	.LVL91:
 736              	.L84:
 737              		.loc 1 403 0
 738 0024 3B69     		ldr	r3, [r7, #16]
 739 0026 63B1     		cbz	r3, .L86
 740 0028 0C4D     		ldr	r5, .L97+4
 741 002a 0024     		movs	r4, #0
ARM GAS  /tmp/cccFXynL.s 			page 14


 742              	.LVL92:
 743              	.L87:
 744              		.loc 1 404 0 discriminator 3
 745 002c 2946     		mov	r1, r5
 746 002e 0022     		movs	r2, #0
 747 0030 3046     		mov	r0, r6
 748 0032 FFF7FEFF 		bl	target_mem_write32
 749              	.LVL93:
 750              		.loc 1 403 0 discriminator 3
 751 0036 3B69     		ldr	r3, [r7, #16]
 752 0038 0134     		adds	r4, r4, #1
 753              	.LVL94:
 754 003a A342     		cmp	r3, r4
 755 003c 05F11005 		add	r5, r5, #16
 756 0040 F4D8     		bhi	.L87
 757              	.LVL95:
 758              	.L86:
 759              		.loc 1 407 0
 760 0042 3046     		mov	r0, r6
 761 0044 0649     		ldr	r1, .L97+8
 762 0046 074A     		ldr	r2, .L97+12
 763 0048 FFF7FEFF 		bl	target_mem_write32
 764              	.LVL96:
 765              		.loc 1 409 0
 766 004c 3046     		mov	r0, r6
 767 004e 0021     		movs	r1, #0
 768              		.loc 1 410 0
 769 0050 BDE8F840 		pop	{r3, r4, r5, r6, r7, lr}
 770              		.cfi_restore 14
 771              		.cfi_restore 7
 772              		.cfi_restore 6
 773              		.cfi_restore 5
 774              		.cfi_restore 4
 775              		.cfi_restore 3
 776              		.cfi_def_cfa_offset 0
 777              	.LVL97:
 778              		.loc 1 409 0
 779 0054 FFF7FEBF 		b	target_mem_read32
 780              	.LVL98:
 781              	.L98:
 782              		.align	2
 783              	.L97:
 784 0058 082000E0 		.word	-536862712
 785 005c 281000E0 		.word	-536866776
 786 0060 F0ED00E0 		.word	-536810000
 787 0064 00005FA0 		.word	-1604386816
 788              		.cfi_endproc
 789              	.LFE272:
 790              		.size	cortexm_detach, .-cortexm_detach
 791              		.section	.text.cortexm_halt_request,"ax",%progbits
 792              		.align	1
 793              		.p2align 4,,15
 794              		.global	cortexm_halt_request
 795              		.syntax unified
 796              		.thumb
 797              		.thumb_func
 798              		.fpu fpv4-sp-d16
ARM GAS  /tmp/cccFXynL.s 			page 15


 799              		.type	cortexm_halt_request, %function
 800              	cortexm_halt_request:
 801              	.LFB279:
 802              		.loc 1 536 0
 803              		.cfi_startproc
 804              		@ args = 0, pretend = 0, frame = 120
 805              		@ frame_needed = 0, uses_anonymous_args = 0
 806              	.LVL99:
 807 0000 70B5     		push	{r4, r5, r6, lr}
 808              		.cfi_def_cfa_offset 16
 809              		.cfi_offset 4, -16
 810              		.cfi_offset 5, -12
 811              		.cfi_offset 6, -8
 812              		.cfi_offset 14, -4
 813              		.loc 1 538 0
 814 0002 144B     		ldr	r3, .L107
 815              		.loc 1 536 0
 816 0004 9EB0     		sub	sp, sp, #120
 817              		.cfi_def_cfa_offset 136
 818              		.loc 1 538 0
 819 0006 0021     		movs	r1, #0
 820 0008 0391     		str	r1, [sp, #12]
 821 000a 1A68     		ldr	r2, [r3]
 822              		.loc 1 536 0
 823 000c 0190     		str	r0, [sp, #4]
 824              		.loc 1 538 0
 825 000e 03AC     		add	r4, sp, #12
 826 0010 0221     		movs	r1, #2
 827 0012 06A8     		add	r0, sp, #24
 828              	.LVL100:
 829 0014 0591     		str	r1, [sp, #20]
 830 0016 1C60     		str	r4, [r3]
 831 0018 1D92     		str	r2, [sp, #116]
 832 001a FFF7FEFF 		bl	setjmp
 833              	.LVL101:
 834 001e 80B9     		cbnz	r0, .L101
 835 0020 0C4C     		ldr	r4, .L107
 836 0022 2268     		ldr	r2, [r4]
 837 0024 03AB     		add	r3, sp, #12
 838 0026 9A42     		cmp	r2, r3
 839 0028 0BD1     		bne	.L101
 840              		.loc 1 539 0
 841 002a 0B4E     		ldr	r6, .L107+4
 842 002c 0B4D     		ldr	r5, .L107+8
 843              	.L102:
 844 002e 0198     		ldr	r0, [sp, #4]
 845 0030 3246     		mov	r2, r6
 846 0032 2946     		mov	r1, r5
 847 0034 FFF7FEFF 		bl	target_mem_write32
 848              	.LVL102:
 849              		.loc 1 538 0
 850 0038 1D9B     		ldr	r3, [sp, #116]
 851 003a 2360     		str	r3, [r4]
 852 003c 03AA     		add	r2, sp, #12
 853 003e 9342     		cmp	r3, r2
 854 0040 F5D0     		beq	.L102
 855              	.L101:
ARM GAS  /tmp/cccFXynL.s 			page 16


 856              		.loc 1 543 0
 857 0042 039B     		ldr	r3, [sp, #12]
 858 0044 1BB1     		cbz	r3, .L99
 859              		.loc 1 544 0
 860 0046 0198     		ldr	r0, [sp, #4]
 861 0048 0549     		ldr	r1, .L107+12
 862 004a FFF7FEFF 		bl	tc_printf
 863              	.LVL103:
 864              	.L99:
 865              		.loc 1 546 0
 866 004e 1EB0     		add	sp, sp, #120
 867              		.cfi_def_cfa_offset 16
 868              		@ sp needed
 869 0050 70BD     		pop	{r4, r5, r6, pc}
 870              	.LVL104:
 871              	.L108:
 872 0052 00BF     		.align	2
 873              	.L107:
 874 0054 00000000 		.word	innermost_exception
 875 0058 03005FA0 		.word	-1604386813
 876 005c F0ED00E0 		.word	-536810000
 877 0060 00000000 		.word	.LC15
 878              		.cfi_endproc
 879              	.LFE279:
 880              		.size	cortexm_halt_request, .-cortexm_halt_request
 881              		.section	.text.cortexm_halt_resume,"ax",%progbits
 882              		.align	1
 883              		.p2align 4,,15
 884              		.global	cortexm_halt_resume
 885              		.syntax unified
 886              		.thumb
 887              		.thumb_func
 888              		.fpu fpv4-sp-d16
 889              		.type	cortexm_halt_resume, %function
 890              	cortexm_halt_resume:
 891              	.LFB281:
 892              		.loc 1 612 0
 893              		.cfi_startproc
 894              		@ args = 0, pretend = 0, frame = 0
 895              		@ frame_needed = 0, uses_anonymous_args = 0
 896              	.LVL105:
 897 0000 F8B5     		push	{r3, r4, r5, r6, r7, lr}
 898              		.cfi_def_cfa_offset 24
 899              		.cfi_offset 3, -24
 900              		.cfi_offset 4, -20
 901              		.cfi_offset 5, -16
 902              		.cfi_offset 6, -12
 903              		.cfi_offset 7, -8
 904              		.cfi_offset 14, -4
 905              		.loc 1 613 0
 906 0002 C66E     		ldr	r6, [r0, #108]
 907              	.LVL106:
 908              		.loc 1 617 0
 909 0004 1C4C     		ldr	r4, .L122
 910 0006 1D4A     		ldr	r2, .L122+4
 911              		.loc 1 620 0
 912 0008 3379     		ldrb	r3, [r6, #4]	@ zero_extendqisi2
ARM GAS  /tmp/cccFXynL.s 			page 17


 913              		.loc 1 617 0
 914 000a 0029     		cmp	r1, #0
 915 000c 18BF     		it	ne
 916 000e 1446     		movne	r4, r2
 917              	.LVL107:
 918              		.loc 1 620 0
 919 0010 8B42     		cmp	r3, r1
 920              		.loc 1 612 0
 921 0012 0746     		mov	r7, r0
 922              		.loc 1 620 0
 923 0014 06D0     		beq	.L111
 924 0016 0D46     		mov	r5, r1
 925              		.loc 1 621 0
 926 0018 44F00202 		orr	r2, r4, #2
 927 001c 1849     		ldr	r1, .L122+8
 928              	.LVL108:
 929 001e FFF7FEFF 		bl	target_mem_write32
 930              	.LVL109:
 931              		.loc 1 622 0
 932 0022 3571     		strb	r5, [r6, #4]
 933              	.L111:
 934              		.loc 1 625 0
 935 0024 7379     		ldrb	r3, [r6, #5]	@ zero_extendqisi2
 936 0026 73B9     		cbnz	r3, .L121
 937              	.L113:
 938              		.loc 1 631 0
 939 0028 96F82430 		ldrb	r3, [r6, #36]	@ zero_extendqisi2
 940 002c 23B1     		cbz	r3, .L115
 941              		.loc 1 632 0
 942 002e 0022     		movs	r2, #0
 943 0030 1449     		ldr	r1, .L122+12
 944 0032 3846     		mov	r0, r7
 945 0034 FFF7FEFF 		bl	target_mem_write32
 946              	.LVL110:
 947              	.L115:
 948              		.loc 1 634 0
 949 0038 2246     		mov	r2, r4
 950 003a 3846     		mov	r0, r7
 951 003c 1049     		ldr	r1, .L122+8
 952              		.loc 1 635 0
 953 003e BDE8F840 		pop	{r3, r4, r5, r6, r7, lr}
 954              		.cfi_remember_state
 955              		.cfi_restore 14
 956              		.cfi_restore 7
 957              		.cfi_restore 6
 958              		.cfi_restore 5
 959              		.cfi_restore 4
 960              		.cfi_restore 3
 961              		.cfi_def_cfa_offset 0
 962              	.LVL111:
 963              		.loc 1 634 0
 964 0042 FFF7FEBF 		b	target_mem_write32
 965              	.LVL112:
 966              	.L121:
 967              		.cfi_restore_state
 968              	.LBB67:
 969              		.loc 1 626 0
ARM GAS  /tmp/cccFXynL.s 			page 18


 970 0046 3846     		mov	r0, r7
 971 0048 FFF7FEFF 		bl	cortexm_pc_read
 972              	.LVL113:
 973              		.loc 1 627 0
 974 004c 0146     		mov	r1, r0
 975              		.loc 1 626 0
 976 004e 0546     		mov	r5, r0
 977              	.LVL114:
 978              		.loc 1 627 0
 979 0050 3846     		mov	r0, r7
 980              	.LVL115:
 981 0052 FFF7FEFF 		bl	target_mem_read16
 982              	.LVL116:
 983 0056 00F47F40 		and	r0, r0, #65280
 984 005a B0F53E4F 		cmp	r0, #48640
 985 005e E3D1     		bne	.L113
 986              	.LVL117:
 987              	.LBB68:
 988              	.LBB69:
 989              		.loc 1 495 0
 990 0060 AA1C     		adds	r2, r5, #2
 991              	.LVL118:
 992 0062 3846     		mov	r0, r7
 993 0064 0849     		ldr	r1, .L122+16
 994 0066 FFF7FEFF 		bl	target_mem_write32
 995              	.LVL119:
 996              		.loc 1 496 0
 997 006a 084A     		ldr	r2, .L122+20
 998 006c 0849     		ldr	r1, .L122+24
 999 006e 3846     		mov	r0, r7
 1000 0070 FFF7FEFF 		bl	target_mem_write32
 1001              	.LVL120:
 1002 0074 D8E7     		b	.L113
 1003              	.L123:
 1004 0076 00BF     		.align	2
 1005              	.L122:
 1006 0078 01005FA0 		.word	-1604386815
 1007 007c 0D005FA0 		.word	-1604386803
 1008 0080 F0ED00E0 		.word	-536810000
 1009 0084 50EF00E0 		.word	-536809648
 1010 0088 F8ED00E0 		.word	-536809992
 1011 008c 0F000100 		.word	65551
 1012 0090 F4ED00E0 		.word	-536809996
 1013              	.LBE69:
 1014              	.LBE68:
 1015              	.LBE67:
 1016              		.cfi_endproc
 1017              	.LFE281:
 1018              		.size	cortexm_halt_resume, .-cortexm_halt_resume
 1019              		.section	.text.cortexm_halt_poll,"ax",%progbits
 1020              		.align	1
 1021              		.p2align 4,,15
 1022              		.syntax unified
 1023              		.thumb
 1024              		.thumb_func
 1025              		.fpu fpv4-sp-d16
 1026              		.type	cortexm_halt_poll, %function
ARM GAS  /tmp/cccFXynL.s 			page 19


 1027              	cortexm_halt_poll:
 1028              	.LFB280:
 1029              		.loc 1 549 0
 1030              		.cfi_startproc
 1031              		@ args = 0, pretend = 0, frame = 208
 1032              		@ frame_needed = 1, uses_anonymous_args = 0
 1033              	.LVL121:
 1034 0000 2DE9F047 		push	{r4, r5, r6, r7, r8, r9, r10, lr}
 1035              		.cfi_def_cfa_offset 32
 1036              		.cfi_offset 4, -32
 1037              		.cfi_offset 5, -28
 1038              		.cfi_offset 6, -24
 1039              		.cfi_offset 7, -20
 1040              		.cfi_offset 8, -16
 1041              		.cfi_offset 9, -12
 1042              		.cfi_offset 10, -8
 1043              		.cfi_offset 14, -4
 1044 0004 B6B0     		sub	sp, sp, #216
 1045              		.cfi_def_cfa_offset 248
 1046              		.loc 1 554 0
 1047 0006 AF4B     		ldr	r3, .L196
 1048              		.loc 1 549 0
 1049 0008 02AF     		add	r7, sp, #8
 1050              		.cfi_def_cfa 7, 240
 1051              		.loc 1 549 0
 1052 000a 8446     		mov	ip, r0
 1053              		.loc 1 554 0
 1054 000c 07F16406 		add	r6, r7, #100
 1055 0010 1C68     		ldr	r4, [r3]
 1056              		.loc 1 549 0
 1057 0012 F860     		str	r0, [r7, #12]
 1058              		.loc 1 552 0
 1059 0014 0022     		movs	r2, #0
 1060              		.loc 1 554 0
 1061 0016 4FF0FF35 		mov	r5, #-1
 1062 001a 1E60     		str	r6, [r3]
 1063 001c 07F17000 		add	r0, r7, #112
 1064              	.LVL122:
 1065              		.loc 1 550 0
 1066 0020 DCF86C30 		ldr	r3, [ip, #108]
 1067              		.loc 1 552 0
 1068 0024 7A61     		str	r2, [r7, #20]
 1069              		.loc 1 549 0
 1070 0026 7960     		str	r1, [r7, #4]
 1071              		.loc 1 554 0
 1072 0028 7A66     		str	r2, [r7, #100]
 1073              		.loc 1 550 0
 1074 002a BB60     		str	r3, [r7, #8]
 1075              	.LVL123:
 1076              		.loc 1 554 0
 1077 002c FD66     		str	r5, [r7, #108]
 1078 002e C7F8CC40 		str	r4, [r7, #204]
 1079 0032 FFF7FEFF 		bl	setjmp
 1080              	.LVL124:
 1081 0036 80B9     		cbnz	r0, .L126
 1082 0038 A24D     		ldr	r5, .L196
 1083 003a 2C68     		ldr	r4, [r5]
ARM GAS  /tmp/cccFXynL.s 			page 20


 1084 003c 07F16403 		add	r3, r7, #100
 1085 0040 9C42     		cmp	r4, r3
 1086 0042 0AD1     		bne	.L126
 1087              		.loc 1 557 0
 1088 0044 A04E     		ldr	r6, .L196+4
 1089              	.L127:
 1090 0046 F868     		ldr	r0, [r7, #12]
 1091 0048 3146     		mov	r1, r6
 1092 004a FFF7FEFF 		bl	target_mem_read32
 1093              	.LVL125:
 1094 004e 7861     		str	r0, [r7, #20]
 1095              		.loc 1 554 0
 1096 0050 D7F8CC30 		ldr	r3, [r7, #204]
 1097 0054 2B60     		str	r3, [r5]
 1098 0056 A342     		cmp	r3, r4
 1099 0058 F5D0     		beq	.L127
 1100              	.L126:
 1101              		.loc 1 559 0
 1102 005a 7C6E     		ldr	r4, [r7, #100]
 1103 005c 012C     		cmp	r4, #1
 1104 005e 50D0     		beq	.L129
 1105 0060 022C     		cmp	r4, #2
 1106 0062 04D1     		bne	.L191
 1107              	.LVL126:
 1108              	.L175:
 1109              		.loc 1 566 0
 1110 0064 0020     		movs	r0, #0
 1111              	.L186:
 1112              		.loc 1 609 0
 1113 0066 D037     		adds	r7, r7, #208
 1114              		.cfi_remember_state
 1115              		.cfi_def_cfa_offset 32
 1116 0068 BD46     		mov	sp, r7
 1117              		.cfi_def_cfa_register 13
 1118              		@ sp needed
 1119 006a BDE8F087 		pop	{r4, r5, r6, r7, r8, r9, r10, pc}
 1120              	.LVL127:
 1121              	.L191:
 1122              		.cfi_restore_state
 1123              		.loc 1 569 0
 1124 006e 7B69     		ldr	r3, [r7, #20]
 1125 0070 9C03     		lsls	r4, r3, #14
 1126 0072 F7D5     		bpl	.L175
 1127              		.loc 1 573 0
 1128 0074 FE68     		ldr	r6, [r7, #12]
 1129 0076 954D     		ldr	r5, .L196+8
 1130 0078 3046     		mov	r0, r6
 1131 007a 2946     		mov	r1, r5
 1132 007c FFF7FEFF 		bl	target_mem_read32
 1133              	.LVL128:
 1134              		.loc 1 574 0
 1135 0080 2946     		mov	r1, r5
 1136              		.loc 1 573 0
 1137 0082 0446     		mov	r4, r0
 1138              	.LVL129:
 1139              		.loc 1 574 0
 1140 0084 0246     		mov	r2, r0
ARM GAS  /tmp/cccFXynL.s 			page 21


 1141 0086 3046     		mov	r0, r6
 1142              	.LVL130:
 1143 0088 FFF7FEFF 		bl	target_mem_write32
 1144              	.LVL131:
 1145              		.loc 1 576 0
 1146 008c 2007     		lsls	r0, r4, #28
 1147 008e 4BD4     		bmi	.L192
 1148              	.L133:
 1149              		.loc 1 580 0
 1150 0090 04F00203 		and	r3, r4, #2
 1151 0094 002B     		cmp	r3, #0
 1152 0096 BA68     		ldr	r2, [r7, #8]
 1153 0098 14BF     		ite	ne
 1154 009a 0123     		movne	r3, #1
 1155 009c 0023     		moveq	r3, #0
 1156 009e 5371     		strb	r3, [r2, #5]
 1157              		.loc 1 581 0
 1158 00a0 40F0AC80 		bne	.L193
 1159              		.loc 1 597 0
 1160 00a4 6307     		lsls	r3, r4, #29
 1161 00a6 33D5     		bpl	.L194
 1162              	.L165:
 1163              		.loc 1 598 0
 1164 00a8 7B68     		ldr	r3, [r7, #4]
 1165 00aa 002B     		cmp	r3, #0
 1166 00ac 3AD0     		beq	.L181
 1167              	.LVL132:
 1168              	.LBB79:
 1169              	.LBB80:
 1170              		.loc 1 843 0
 1171 00ae FB68     		ldr	r3, [r7, #12]
 1172 00b0 DE6E     		ldr	r6, [r3, #108]
 1173              	.LVL133:
 1174              		.loc 1 846 0
 1175 00b2 3369     		ldr	r3, [r6, #16]
 1176 00b4 002B     		cmp	r3, #0
 1177 00b6 00F0B280 		beq	.L172
 1178              		.loc 1 849 0
 1179 00ba DFF82482 		ldr	r8, .L196+28
 1180 00be B51D     		adds	r5, r6, #6
 1181              		.loc 1 846 0
 1182 00c0 0024     		movs	r4, #0
 1183              	.LVL134:
 1184 00c2 03E0     		b	.L169
 1185              	.LVL135:
 1186              	.L171:
 1187 00c4 3369     		ldr	r3, [r6, #16]
 1188 00c6 0134     		adds	r4, r4, #1
 1189              	.LVL136:
 1190 00c8 9C42     		cmp	r4, r3
 1191 00ca 0BD2     		bcs	.L170
 1192              	.LVL137:
 1193              	.L169:
 1194              		.loc 1 848 0
 1195 00cc 15F8013B 		ldrb	r3, [r5], #1	@ zero_extendqisi2
 1196 00d0 002B     		cmp	r3, #0
 1197 00d2 F7D0     		beq	.L171
ARM GAS  /tmp/cccFXynL.s 			page 22


 1198              		.loc 1 849 0
 1199 00d4 08EB0411 		add	r1, r8, r4, lsl #4
 1200 00d8 F868     		ldr	r0, [r7, #12]
 1201 00da FFF7FEFF 		bl	target_mem_read32
 1202              	.LVL138:
 1203              		.loc 1 848 0
 1204 00de C101     		lsls	r1, r0, #7
 1205 00e0 F0D5     		bpl	.L171
 1206 00e2 3369     		ldr	r3, [r6, #16]
 1207              	.L170:
 1208              		.loc 1 853 0
 1209 00e4 A342     		cmp	r3, r4
 1210 00e6 00F09A80 		beq	.L172
 1211              		.loc 1 856 0
 1212 00ea 04F16061 		add	r1, r4, #234881024
 1213 00ee 01F58171 		add	r1, r1, #258
 1214 00f2 0901     		lsls	r1, r1, #4
 1215 00f4 F868     		ldr	r0, [r7, #12]
 1216 00f6 FFF7FEFF 		bl	target_mem_read32
 1217              	.LVL139:
 1218              	.L167:
 1219              	.LBE80:
 1220              	.LBE79:
 1221              		.loc 1 599 0
 1222 00fa 7B68     		ldr	r3, [r7, #4]
 1223 00fc 1860     		str	r0, [r3]
 1224              		.loc 1 600 0
 1225 00fe 0520     		movs	r0, #5
 1226 0100 B1E7     		b	.L186
 1227              	.L129:
 1228              		.loc 1 562 0
 1229 0102 FFF7FEFF 		bl	target_list_free
 1230              	.LVL140:
 1231              		.loc 1 563 0
 1232 0106 2046     		mov	r0, r4
 1233              		.loc 1 609 0
 1234 0108 D037     		adds	r7, r7, #208
 1235              		.cfi_remember_state
 1236              		.cfi_def_cfa_offset 32
 1237 010a BD46     		mov	sp, r7
 1238              		.cfi_def_cfa_register 13
 1239              	.LVL141:
 1240              		@ sp needed
 1241 010c BDE8F087 		pop	{r4, r5, r6, r7, r8, r9, r10, pc}
 1242              	.LVL142:
 1243              	.L194:
 1244              		.cfi_restore_state
 1245              		.loc 1 605 0
 1246 0110 E207     		lsls	r2, r4, #31
 1247 0112 40F18280 		bpl	.L173
 1248              		.loc 1 606 0
 1249 0116 BB68     		ldr	r3, [r7, #8]
 1250 0118 1B79     		ldrb	r3, [r3, #4]	@ zero_extendqisi2
 1251 011a 002B     		cmp	r3, #0
 1252 011c 00F08180 		beq	.L163
 1253 0120 0320     		movs	r0, #3
 1254 0122 A0E7     		b	.L186
ARM GAS  /tmp/cccFXynL.s 			page 23


 1255              	.L181:
 1256              		.loc 1 600 0
 1257 0124 0520     		movs	r0, #5
 1258 0126 9EE7     		b	.L186
 1259              	.L192:
 1260              	.LVL143:
 1261              	.LBB82:
 1262              	.LBB83:
 1263              		.loc 1 639 0
 1264 0128 D7F80CA0 		ldr	r10, [r7, #12]
 1265 012c DFF8B481 		ldr	r8, .L196+32
 1266              		.loc 1 640 0
 1267 0130 674E     		ldr	r6, .L196+12
 1268              		.loc 1 639 0
 1269 0132 4146     		mov	r1, r8
 1270 0134 5046     		mov	r0, r10
 1271 0136 FFF7FEFF 		bl	target_mem_read32
 1272              	.LVL144:
 1273              		.loc 1 640 0
 1274 013a 3146     		mov	r1, r6
 1275              		.loc 1 639 0
 1276 013c 0546     		mov	r5, r0
 1277              	.LVL145:
 1278              		.loc 1 640 0
 1279 013e 5046     		mov	r0, r10
 1280              	.LVL146:
 1281 0140 FFF7FEFF 		bl	target_mem_read32
 1282              	.LVL147:
 1283              		.loc 1 641 0
 1284 0144 2A46     		mov	r2, r5
 1285              		.loc 1 640 0
 1286 0146 8146     		mov	r9, r0
 1287              	.LVL148:
 1288              		.loc 1 641 0
 1289 0148 4146     		mov	r1, r8
 1290 014a 5046     		mov	r0, r10
 1291              	.LVL149:
 1292 014c FFF7FEFF 		bl	target_mem_write32
 1293              	.LVL150:
 1294              		.loc 1 642 0
 1295 0150 3146     		mov	r1, r6
 1296 0152 4A46     		mov	r2, r9
 1297 0154 5046     		mov	r0, r10
 1298 0156 FFF7FEFF 		bl	target_mem_write32
 1299              	.LVL151:
 1300              		.loc 1 645 0
 1301 015a 6900     		lsls	r1, r5, #1
 1302 015c 02D4     		bmi	.L134
 1303 015e B9F1000F 		cmp	r9, #0
 1304 0162 95D0     		beq	.L133
 1305              	.L134:
 1306              	.LBB84:
 1307              		.loc 1 647 0
 1308 0164 F868     		ldr	r0, [r7, #12]
 1309 0166 C369     		ldr	r3, [r0, #28]
 1310 0168 23F00303 		bic	r3, r3, #3
 1311 016c 0A33     		adds	r3, r3, #10
ARM GAS  /tmp/cccFXynL.s 			page 24


 1312 016e 23F00703 		bic	r3, r3, #7
 1313              		.loc 1 645 0
 1314 0172 E846     		mov	r8, sp
 1315              	.LVL152:
 1316              		.loc 1 647 0
 1317 0174 ADEB030D 		sub	sp, sp, r3
 1318 0178 02AD     		add	r5, sp, #8
 1319              	.LVL153:
 1320              		.loc 1 651 0
 1321 017a 2946     		mov	r1, r5
 1322 017c FFF7FEFF 		bl	target_regs_read
 1323              	.LVL154:
 1324              		.loc 1 653 0
 1325 0180 AE6B     		ldr	r6, [r5, #56]
 1326              	.LVL155:
 1327              		.loc 1 658 0
 1328 0182 D7F80CA0 		ldr	r10, [r7, #12]
 1329              		.loc 1 657 0
 1330 0186 16F00409 		ands	r9, r6, #4
 1331              	.LVL156:
 1332 018a 14BF     		ite	ne
 1333 018c AA6C     		ldrne	r2, [r5, #72]
 1334 018e 6A6C     		ldreq	r2, [r5, #68]
 1335              	.LVL157:
 1336              		.loc 1 658 0
 1337 0190 2023     		movs	r3, #32
 1338 0192 07F14401 		add	r1, r7, #68
 1339 0196 5046     		mov	r0, r10
 1340 0198 FFF7FEFF 		bl	target_mem_read
 1341              	.LVL158:
 1342              		.loc 1 659 0
 1343 019c 5046     		mov	r0, r10
 1344 019e FFF7FEFF 		bl	target_check_error
 1345              	.LVL159:
 1346 01a2 0028     		cmp	r0, #0
 1347 01a4 3FD1     		bne	.L138
 1348              		.loc 1 661 0
 1349 01a6 BB6D     		ldr	r3, [r7, #88]
 1350              		.loc 1 666 0
 1351 01a8 3A6E     		ldr	r2, [r7, #96]
 1352              		.loc 1 661 0
 1353 01aa AB63     		str	r3, [r5, #56]
 1354              		.loc 1 665 0
 1355 01ac 16F01006 		ands	r6, r6, #16
 1356              	.LVL160:
 1357              		.loc 1 662 0
 1358 01b0 FB6D     		ldr	r3, [r7, #92]
 1359 01b2 EB63     		str	r3, [r5, #60]
 1360              		.loc 1 665 0
 1361 01b4 14BF     		ite	ne
 1362 01b6 2023     		movne	r3, #32
 1363 01b8 6823     		moveq	r3, #104
 1364              	.LVL161:
 1365              		.loc 1 666 0
 1366 01ba 9205     		lsls	r2, r2, #22
 1367              		.loc 1 667 0
 1368 01bc 48BF     		it	mi
ARM GAS  /tmp/cccFXynL.s 			page 25


 1369 01be 0433     		addmi	r3, r3, #4
 1370              	.LVL162:
 1371              		.loc 1 669 0
 1372 01c0 B9F1000F 		cmp	r9, #0
 1373 01c4 00F00981 		beq	.L141
 1374              		.loc 1 671 0
 1375 01c8 D5E91212 		ldrd	r1, r2, [r5, #72]
 1376 01cc 0B44     		add	r3, r3, r1
 1377              	.LVL163:
 1378              		.loc 1 670 0
 1379 01ce 42F08062 		orr	r2, r2, #67108864
 1380              		.loc 1 671 0
 1381 01d2 C5E91232 		strd	r3, r2, [r5, #72]
 1382 01d6 6B63     		str	r3, [r5, #52]
 1383              	.L142:
 1384              		.loc 1 676 0
 1385 01d8 1EB9     		cbnz	r6, .L143
 1386              		.loc 1 677 0
 1387 01da EB6C     		ldr	r3, [r5, #76]
 1388 01dc 43F00073 		orr	r3, r3, #33554432
 1389 01e0 EB64     		str	r3, [r5, #76]
 1390              	.L143:
 1391              		.loc 1 685 0
 1392 01e2 FC68     		ldr	r4, [r7, #12]
 1393              	.LVL164:
 1394 01e4 3B4A     		ldr	r2, .L196+16
 1395 01e6 3C49     		ldr	r1, .L196+20
 1396 01e8 2046     		mov	r0, r4
 1397 01ea FFF7FEFF 		bl	target_mem_write32
 1398              	.LVL165:
 1399              		.loc 1 689 0
 1400 01ee 2046     		mov	r0, r4
 1401 01f0 2946     		mov	r1, r5
 1402 01f2 FFF7FEFF 		bl	target_regs_write
 1403              	.LVL166:
 1404              	.LBE84:
 1405              	.LBE83:
 1406              	.LBE82:
 1407              		.loc 1 577 0
 1408 01f6 0620     		movs	r0, #6
 1409              	.LBB91:
 1410              	.LBB88:
 1411              	.LBB85:
 1412 01f8 C546     		mov	sp, r8
 1413              	.LVL167:
 1414 01fa 34E7     		b	.L186
 1415              	.LVL168:
 1416              	.L193:
 1417              	.LBE85:
 1418              	.LBE88:
 1419              	.LBE91:
 1420              	.LBB92:
 1421              		.loc 1 584 0
 1422 01fc FD68     		ldr	r5, [r7, #12]
 1423 01fe 2846     		mov	r0, r5
 1424 0200 FFF7FEFF 		bl	cortexm_pc_read
 1425              	.LVL169:
ARM GAS  /tmp/cccFXynL.s 			page 26


 1426              		.loc 1 586 0
 1427 0204 0146     		mov	r1, r0
 1428 0206 2846     		mov	r0, r5
 1429              	.LVL170:
 1430 0208 FFF7FEFF 		bl	target_mem_read16
 1431              	.LVL171:
 1432              		.loc 1 587 0
 1433 020c 4BF6AB63 		movw	r3, #48811
 1434 0210 9842     		cmp	r0, r3
 1435 0212 0AD0     		beq	.L195
 1436              	.LBE92:
 1437              		.loc 1 597 0
 1438 0214 6007     		lsls	r0, r4, #29
 1439              	.LVL172:
 1440 0216 3FF547AF 		bmi	.L165
 1441              	.L173:
 1442              		.loc 1 603 0
 1443 021a 0420     		movs	r0, #4
 1444 021c 23E7     		b	.L186
 1445              	.LVL173:
 1446              	.L172:
 1447              	.LBB102:
 1448              	.LBB81:
 1449              		.loc 1 854 0
 1450 021e 0020     		movs	r0, #0
 1451 0220 6BE7     		b	.L167
 1452              	.LVL174:
 1453              	.L163:
 1454              	.LBE81:
 1455              	.LBE102:
 1456              		.loc 1 606 0 discriminator 2
 1457 0222 0220     		movs	r0, #2
 1458 0224 1FE7     		b	.L186
 1459              	.LVL175:
 1460              	.L138:
 1461              	.LBB103:
 1462              	.LBB89:
 1463              	.LBB86:
 1464 0226 C546     		mov	sp, r8
 1465              	.LVL176:
 1466 0228 32E7     		b	.L133
 1467              	.LVL177:
 1468              	.L195:
 1469              	.LBE86:
 1470              	.LBE89:
 1471              	.LBE103:
 1472              	.LBB104:
 1473              	.LBB93:
 1474              	.LBB94:
 1475              		.loc 1 929 0
 1476 022a FC68     		ldr	r4, [r7, #12]
 1477              	.LVL178:
 1478 022c E369     		ldr	r3, [r4, #28]
 1479              		.loc 1 932 0
 1480 022e 6268     		ldr	r2, [r4, #4]
 1481              		.loc 1 929 0
 1482 0230 9B00     		lsls	r3, r3, #2
ARM GAS  /tmp/cccFXynL.s 			page 27


 1483 0232 0A33     		adds	r3, r3, #10
 1484 0234 23F00703 		bic	r3, r3, #7
 1485              		.loc 1 928 0
 1486 0238 6E46     		mov	r6, sp
 1487              	.LVL179:
 1488              		.loc 1 929 0
 1489 023a ADEB030D 		sub	sp, sp, r3
 1490 023e 02AD     		add	r5, sp, #8
 1491              	.LVL180:
 1492              		.loc 1 932 0
 1493 0240 0023     		movs	r3, #0
 1494              		.loc 1 929 0
 1495 0242 2046     		mov	r0, r4
 1496              	.LVL181:
 1497              		.loc 1 932 0
 1498 0244 82F83930 		strb	r3, [r2, #57]
 1499              		.loc 1 933 0
 1500 0248 2946     		mov	r1, r5
 1501 024a FFF7FEFF 		bl	target_regs_read
 1502              	.LVL182:
 1503              		.loc 1 934 0
 1504 024e 6A68     		ldr	r2, [r5, #4]
 1505 0250 1023     		movs	r3, #16
 1506 0252 07F11C01 		add	r1, r7, #28
 1507 0256 2046     		mov	r0, r4
 1508 0258 FFF7FEFF 		bl	target_mem_read
 1509              	.LVL183:
 1510              		.loc 1 938 0
 1511 025c B96A     		ldr	r1, [r7, #40]
 1512              		.loc 1 935 0
 1513 025e 2C68     		ldr	r4, [r5]
 1514              	.LVL184:
 1515              		.loc 1 938 0
 1516 0260 1E48     		ldr	r0, .L196+24
 1517 0262 D7E90723 		ldrd	r2, r3, [r7, #28]
 1518 0266 0191     		str	r1, [sp, #4]
 1519              	.LVL185:
 1520 0268 796A     		ldr	r1, [r7, #36]
 1521 026a 0091     		str	r1, [sp]
 1522 026c 2146     		mov	r1, r4
 1523              		.loc 1 940 0
 1524 026e 013C     		subs	r4, r4, #1
 1525              	.LVL186:
 1526              		.loc 1 938 0
 1527 0270 FFF7FEFF 		bl	commands_printf
 1528              	.LVL187:
 1529              		.loc 1 940 0
 1530 0274 122C     		cmp	r4, #18
 1531 0276 00F2B780 		bhi	.L178
 1532 027a DFE804F0 		tbb	[pc, r4]
 1533              	.L148:
 1534 027e 85       		.byte	(.L147-.L148)/2
 1535 027f 7F       		.byte	(.L149-.L148)/2
 1536 0280 78       		.byte	(.L150-.L148)/2
 1537 0281 B5       		.byte	(.L178-.L148)/2
 1538 0282 6E       		.byte	(.L151-.L148)/2
 1539 0283 62       		.byte	(.L152-.L148)/2
ARM GAS  /tmp/cccFXynL.s 			page 28


 1540 0284 B5       		.byte	(.L178-.L148)/2
 1541 0285 B5       		.byte	(.L178-.L148)/2
 1542 0286 5C       		.byte	(.L153-.L148)/2
 1543 0287 54       		.byte	(.L154-.L148)/2
 1544 0288 B5       		.byte	(.L178-.L148)/2
 1545 0289 4E       		.byte	(.L155-.L148)/2
 1546 028a B5       		.byte	(.L178-.L148)/2
 1547 028b 46       		.byte	(.L156-.L148)/2
 1548 028c 3A       		.byte	(.L157-.L148)/2
 1549 028d B5       		.byte	(.L178-.L148)/2
 1550 028e B5       		.byte	(.L178-.L148)/2
 1551 028f 0A       		.byte	(.L158-.L148)/2
 1552 0290 35       		.byte	(.L159-.L148)/2
 1553 0291 00       		.p2align 1
 1554              	.L158:
 1555              		.loc 1 1003 0
 1556 0292 D7E90712 		ldrd	r1, r2, [r7, #28]
 1557 0296 F868     		ldr	r0, [r7, #12]
 1558 0298 0132     		adds	r2, r2, #1
 1559 029a 0139     		subs	r1, r1, #1
 1560 029c FFF7FEFF 		bl	tc_system
 1561              	.LVL188:
 1562              	.L146:
 1563              		.loc 1 1020 0
 1564 02a0 FC68     		ldr	r4, [r7, #12]
 1565              		.loc 1 1019 0
 1566 02a2 2860     		str	r0, [r5]
 1567              		.loc 1 1020 0
 1568 02a4 2946     		mov	r1, r5
 1569 02a6 2046     		mov	r0, r4
 1570              	.LVL189:
 1571 02a8 FFF7FEFF 		bl	target_regs_write
 1572              	.LVL190:
 1573              		.loc 1 1022 0
 1574 02ac 6368     		ldr	r3, [r4, #4]
 1575 02ae 93F83930 		ldrb	r3, [r3, #57]	@ zero_extendqisi2
 1576 02b2 B546     		mov	sp, r6
 1577              	.LVL191:
 1578              	.LBE94:
 1579              	.LBE93:
 1580              		.loc 1 588 0
 1581 02b4 002B     		cmp	r3, #0
 1582 02b6 B4D1     		bne	.L163
 1583              		.loc 1 591 0
 1584 02b8 BB68     		ldr	r3, [r7, #8]
 1585 02ba 2046     		mov	r0, r4
 1586 02bc 1979     		ldrb	r1, [r3, #4]	@ zero_extendqisi2
 1587 02be FFF7FEFF 		bl	target_halt_resume
 1588              	.LVL192:
 1589 02c2 CFE6     		b	.L175
 1590              	.L197:
 1591              		.align	2
 1592              	.L196:
 1593 02c4 00000000 		.word	innermost_exception
 1594 02c8 F0ED00E0 		.word	-536810000
 1595 02cc 30ED00E0 		.word	-536810192
 1596 02d0 28ED00E0 		.word	-536810200
ARM GAS  /tmp/cccFXynL.s 			page 29


 1597 02d4 0200FA05 		.word	100270082
 1598 02d8 0CED00E0 		.word	-536810228
 1599 02dc 00000000 		.word	.LC16
 1600 02e0 281000E0 		.word	-536866776
 1601 02e4 2CED00E0 		.word	-536810196
 1602              	.LVL193:
 1603              	.L159:
 1604              	.LBB100:
 1605              	.LBB98:
 1606              		.loc 1 1011 0
 1607 02e8 FB68     		ldr	r3, [r7, #12]
 1608 02ea 5B68     		ldr	r3, [r3, #4]
 1609 02ec 93F83800 		ldrb	r0, [r3, #56]	@ zero_extendqisi2
 1610              	.LVL194:
 1611 02f0 D6E7     		b	.L146
 1612              	.LVL195:
 1613              	.L157:
 1614              		.loc 1 997 0
 1615 02f2 BB6A     		ldr	r3, [r7, #40]
 1616              		.loc 1 996 0
 1617 02f4 D7E90712 		ldrd	r1, r2, [r7, #28]
 1618              		.loc 1 997 0
 1619 02f8 0133     		adds	r3, r3, #1
 1620              		.loc 1 996 0
 1621 02fa 0093     		str	r3, [sp]
 1622 02fc 0132     		adds	r2, r2, #1
 1623 02fe 0139     		subs	r1, r1, #1
 1624 0300 7B6A     		ldr	r3, [r7, #36]
 1625 0302 F868     		ldr	r0, [r7, #12]
 1626 0304 FFF7FEFF 		bl	tc_rename
 1627              	.LVL196:
 1628 0308 CAE7     		b	.L146
 1629              	.L156:
 1630              		.loc 1 1000 0
 1631 030a D7E90712 		ldrd	r1, r2, [r7, #28]
 1632 030e F868     		ldr	r0, [r7, #12]
 1633 0310 0132     		adds	r2, r2, #1
 1634 0312 0139     		subs	r1, r1, #1
 1635 0314 FFF7FEFF 		bl	tc_unlink
 1636              	.LVL197:
 1637 0318 C2E7     		b	.L146
 1638              	.L155:
 1639              		.loc 1 1007 0
 1640 031a FB68     		ldr	r3, [r7, #12]
 1641 031c 5B68     		ldr	r3, [r3, #4]
 1642 031e 0020     		movs	r0, #0
 1643 0320 83F83800 		strb	r0, [r3, #56]
 1644 0324 BCE7     		b	.L146
 1645              	.L154:
 1646              		.loc 1 993 0
 1647 0326 D7E90712 		ldrd	r1, r2, [r7, #28]
 1648 032a 0023     		movs	r3, #0
 1649 032c 0139     		subs	r1, r1, #1
 1650 032e F868     		ldr	r0, [r7, #12]
 1651 0330 FFF7FEFF 		bl	tc_lseek
 1652              	.LVL198:
 1653 0334 B4E7     		b	.L146
ARM GAS  /tmp/cccFXynL.s 			page 30


 1654              	.L153:
 1655              		.loc 1 990 0
 1656 0336 F969     		ldr	r1, [r7, #28]
 1657 0338 F868     		ldr	r0, [r7, #12]
 1658 033a 0139     		subs	r1, r1, #1
 1659 033c FFF7FEFF 		bl	tc_isatty
 1660              	.LVL199:
 1661 0340 AEE7     		b	.L146
 1662              	.L152:
 1663              		.loc 1 977 0
 1664 0342 07F11C01 		add	r1, r7, #28
 1665 0346 0EC9     		ldm	r1, {r1, r2, r3}
 1666 0348 F868     		ldr	r0, [r7, #12]
 1667 034a 0139     		subs	r1, r1, #1
 1668 034c FFF7FEFF 		bl	tc_read
 1669              	.LVL200:
 1670              		.loc 1 978 0
 1671 0350 0028     		cmp	r0, #0
 1672 0352 A5DD     		ble	.L146
 1673              	.L190:
 1674              		.loc 1 984 0
 1675 0354 7B6A     		ldr	r3, [r7, #36]
 1676 0356 181A     		subs	r0, r3, r0
 1677              	.LVL201:
 1678 0358 A2E7     		b	.L146
 1679              	.LVL202:
 1680              	.L151:
 1681              		.loc 1 982 0
 1682 035a 07F11C01 		add	r1, r7, #28
 1683 035e 0EC9     		ldm	r1, {r1, r2, r3}
 1684 0360 F868     		ldr	r0, [r7, #12]
 1685 0362 0139     		subs	r1, r1, #1
 1686 0364 FFF7FEFF 		bl	tc_write
 1687              	.LVL203:
 1688              		.loc 1 983 0
 1689 0368 0028     		cmp	r0, #0
 1690 036a F3DC     		bgt	.L190
 1691 036c 98E7     		b	.L146
 1692              	.LVL204:
 1693              	.L150:
 1694              		.loc 1 987 0
 1695 036e 0123     		movs	r3, #1
 1696 0370 6A68     		ldr	r2, [r5, #4]
 1697 0372 F868     		ldr	r0, [r7, #12]
 1698 0374 0221     		movs	r1, #2
 1699 0376 FFF7FEFF 		bl	tc_write
 1700              	.LVL205:
 1701 037a 91E7     		b	.L146
 1702              	.L149:
 1703              		.loc 1 974 0
 1704 037c F969     		ldr	r1, [r7, #28]
 1705 037e F868     		ldr	r0, [r7, #12]
 1706 0380 0139     		subs	r1, r1, #1
 1707 0382 FFF7FEFF 		bl	tc_close
 1708              	.LVL206:
 1709 0386 8BE7     		b	.L146
 1710              	.L147:
ARM GAS  /tmp/cccFXynL.s 			page 31


 1711              	.LBB95:
 1712              		.loc 1 944 0
 1713 0388 DFF880E0 		ldr	lr, .L198+4
 1714              		.loc 1 952 0
 1715 038c 3C6A     		ldr	r4, [r7, #32]
 1716              	.LVL207:
 1717              		.loc 1 944 0
 1718 038e BEE80F00 		ldmia	lr!, {r0, r1, r2, r3}
 1719 0392 07F12C0C 		add	ip, r7, #44
 1720 0396 ACE80F00 		stmia	ip!, {r0, r1, r2, r3}
 1721 039a 9EE80300 		ldm	lr, {r0, r1}
 1722              		.loc 1 952 0
 1723 039e 6408     		lsrs	r4, r4, #1
 1724              		.loc 1 944 0
 1725 03a0 8CE80300 		stm	ip, {r0, r1}
 1726              		.loc 1 952 0
 1727 03a4 07F1D003 		add	r3, r7, #208
 1728 03a8 03EB8400 		add	r0, r3, r4, lsl #2
 1729              		.loc 1 955 0
 1730 03ac 07F11801 		add	r1, r7, #24
 1731              		.loc 1 952 0
 1732 03b0 50F8A44C 		ldr	r4, [r0, #-164]
 1733              	.LVL208:
 1734              		.loc 1 955 0
 1735 03b4 FA69     		ldr	r2, [r7, #28]
 1736 03b6 F868     		ldr	r0, [r7, #12]
 1737 03b8 0423     		movs	r3, #4
 1738 03ba FFF7FEFF 		bl	target_mem_read
 1739              	.LVL209:
 1740              		.loc 1 957 0
 1741 03be 07F11800 		add	r0, r7, #24
 1742 03c2 1149     		ldr	r1, .L198
 1743 03c4 FFF7FEFF 		bl	strcmp
 1744              	.LVL210:
 1745 03c8 80B9     		cbnz	r0, .L160
 1746              		.loc 1 958 0
 1747 03ca 5CB1     		cbz	r4, .L179
 1748              		.loc 1 961 0
 1749 03cc 14F4806F 		tst	r4, #1024
 1750 03d0 0CBF     		ite	eq
 1751 03d2 0220     		moveq	r0, #2
 1752 03d4 0120     		movne	r0, #1
 1753              	.LVL211:
 1754              	.L189:
 1755              		.loc 1 970 0
 1756 03d6 0130     		adds	r0, r0, #1
 1757              	.LVL212:
 1758 03d8 62E7     		b	.L146
 1759              	.LVL213:
 1760              	.L141:
 1761              	.LBE95:
 1762              	.LBE98:
 1763              	.LBE100:
 1764              	.LBE104:
 1765              	.LBB105:
 1766              	.LBB90:
 1767              	.LBB87:
ARM GAS  /tmp/cccFXynL.s 			page 32


 1768              		.loc 1 673 0
 1769 03da 6A6C     		ldr	r2, [r5, #68]
 1770 03dc 1344     		add	r3, r3, r2
 1771              	.LVL214:
 1772 03de 6B64     		str	r3, [r5, #68]
 1773 03e0 6B63     		str	r3, [r5, #52]
 1774 03e2 F9E6     		b	.L142
 1775              	.LVL215:
 1776              	.L179:
 1777              	.LBE87:
 1778              	.LBE90:
 1779              	.LBE105:
 1780              	.LBB106:
 1781              	.LBB101:
 1782              	.LBB99:
 1783              	.LBB96:
 1784              		.loc 1 959 0
 1785 03e4 2046     		mov	r0, r4
 1786              	.LVL216:
 1787 03e6 F6E7     		b	.L189
 1788              	.LVL217:
 1789              	.L178:
 1790              	.LBE96:
 1791              		.loc 1 936 0
 1792 03e8 0020     		movs	r0, #0
 1793 03ea 59E7     		b	.L146
 1794              	.LVL218:
 1795              	.L160:
 1796              	.LBB97:
 1797              		.loc 1 968 0
 1798 03ec 7A6A     		ldr	r2, [r7, #36]
 1799 03ee 4FF4D273 		mov	r3, #420
 1800 03f2 0093     		str	r3, [sp]
 1801 03f4 0132     		adds	r2, r2, #1
 1802 03f6 A3B2     		uxth	r3, r4
 1803 03f8 F969     		ldr	r1, [r7, #28]
 1804 03fa F868     		ldr	r0, [r7, #12]
 1805 03fc FFF7FEFF 		bl	tc_open
 1806              	.LVL219:
 1807              		.loc 1 969 0
 1808 0400 441C     		adds	r4, r0, #1
 1809              	.LVL220:
 1810 0402 E8D1     		bne	.L189
 1811 0404 4CE7     		b	.L146
 1812              	.L199:
 1813 0406 00BF     		.align	2
 1814              	.L198:
 1815 0408 24000000 		.word	.LC17
 1816 040c 2C000000 		.word	.LANCHOR0+44
 1817              	.LBE97:
 1818              	.LBE99:
 1819              	.LBE101:
 1820              	.LBE106:
 1821              		.cfi_endproc
 1822              	.LFE280:
 1823              		.size	cortexm_halt_poll, .-cortexm_halt_poll
 1824              		.section	.text.cortexm_regs_write,"ax",%progbits
ARM GAS  /tmp/cccFXynL.s 			page 33


 1825              		.align	1
 1826              		.p2align 4,,15
 1827              		.syntax unified
 1828              		.thumb
 1829              		.thumb_func
 1830              		.fpu fpv4-sp-d16
 1831              		.type	cortexm_regs_write, %function
 1832              	cortexm_regs_write:
 1833              	.LFB274:
 1834              		.loc 1 446 0
 1835              		.cfi_startproc
 1836              		@ args = 0, pretend = 0, frame = 0
 1837              		@ frame_needed = 0, uses_anonymous_args = 0
 1838              	.LVL221:
 1839 0000 2DE9F84F 		push	{r3, r4, r5, r6, r7, r8, r9, r10, fp, lr}
 1840              		.cfi_def_cfa_offset 40
 1841              		.cfi_offset 3, -40
 1842              		.cfi_offset 4, -36
 1843              		.cfi_offset 5, -32
 1844              		.cfi_offset 6, -28
 1845              		.cfi_offset 7, -24
 1846              		.cfi_offset 8, -20
 1847              		.cfi_offset 9, -16
 1848              		.cfi_offset 10, -12
 1849              		.cfi_offset 11, -8
 1850              		.cfi_offset 14, -4
 1851              	.LBB107:
 1852              	.LBB108:
 1853              		.loc 1 191 0
 1854 0004 C36E     		ldr	r3, [r0, #108]
 1855 0006 2E4F     		ldr	r7, .L211
 1856 0008 1D68     		ldr	r5, [r3]
 1857              	.LBE108:
 1858              	.LBE107:
 1859              		.loc 1 452 0
 1860 000a AA69     		ldr	r2, [r5, #24]
 1861              		.loc 1 446 0
 1862 000c 8946     		mov	r9, r1
 1863              		.loc 1 452 0
 1864 000e 42F00202 		orr	r2, r2, #2
 1865 0012 4FF48071 		mov	r1, #256
 1866              	.LVL222:
 1867              		.loc 1 446 0
 1868 0016 8246     		mov	r10, r0
 1869              	.LVL223:
 1870              		.loc 1 452 0
 1871 0018 2846     		mov	r0, r5
 1872              	.LVL224:
 1873 001a FFF7FEFF 		bl	adiv5_ap_write
 1874              	.LVL225:
 1875              		.loc 1 456 0
 1876 001e 6868     		ldr	r0, [r5, #4]
 1877              	.LVL226:
 1878              	.LBB109:
 1879              	.LBB110:
 1880              		.loc 2 153 0
 1881 0020 284B     		ldr	r3, .L211+4
ARM GAS  /tmp/cccFXynL.s 			page 34


 1882 0022 8469     		ldr	r4, [r0, #24]
 1883              	.LBE110:
 1884              	.LBE109:
 1885              		.loc 1 460 0
 1886 0024 C846     		mov	r8, r9
 1887              	.LBB112:
 1888              	.LBB111:
 1889              		.loc 2 153 0
 1890 0026 4FF48272 		mov	r2, #260
 1891 002a 0021     		movs	r1, #0
 1892 002c A047     		blx	r4
 1893              	.LVL227:
 1894              	.LBE111:
 1895              	.LBE112:
 1896              		.loc 1 460 0
 1897 002e 2846     		mov	r0, r5
 1898 0030 58F8502B 		ldr	r2, [r8], #80
 1899 0034 4FF48C71 		mov	r1, #280
 1900 0038 FFF7FEFF 		bl	adiv5_ap_write
 1901              	.LVL228:
 1902              		.loc 1 461 0
 1903 003c 6868     		ldr	r0, [r5, #4]
 1904              	.LBB113:
 1905              	.LBB114:
 1906              		.loc 2 153 0
 1907 003e 4FF48033 		mov	r3, #65536
 1908 0042 8469     		ldr	r4, [r0, #24]
 1909 0044 4FF48A72 		mov	r2, #276
 1910 0048 0021     		movs	r1, #0
 1911 004a A047     		blx	r4
 1912              	.LVL229:
 1913 004c 0126     		movs	r6, #1
 1914              	.LBE114:
 1915              	.LBE113:
 1916              		.loc 1 460 0
 1917 004e 09F10404 		add	r4, r9, #4
 1918              	.LVL230:
 1919 0052 01E0     		b	.L202
 1920              	.LVL231:
 1921              	.L209:
 1922 0054 57F8046F 		ldr	r6, [r7, #4]!
 1923              	.L202:
 1924              		.loc 1 464 0 discriminator 3
 1925 0058 6868     		ldr	r0, [r5, #4]
 1926              	.LVL232:
 1927              	.LBB115:
 1928              	.LBB116:
 1929              		.loc 2 153 0 discriminator 3
 1930 005a 54F8043B 		ldr	r3, [r4], #4
 1931              	.LVL233:
 1932 005e D0F818B0 		ldr	fp, [r0, #24]
 1933 0062 4FF48C72 		mov	r2, #280
 1934 0066 0021     		movs	r1, #0
 1935 0068 D847     		blx	fp
 1936              	.LVL234:
 1937              	.LBE116:
 1938              	.LBE115:
ARM GAS  /tmp/cccFXynL.s 			page 35


 1939              		.loc 1 466 0 discriminator 3
 1940 006a 6868     		ldr	r0, [r5, #4]
 1941              	.LVL235:
 1942              	.LBB117:
 1943              	.LBB118:
 1944              		.loc 2 153 0 discriminator 3
 1945 006c 46F48033 		orr	r3, r6, #65536
 1946              	.LVL236:
 1947 0070 4FF48A72 		mov	r2, #276
 1948 0074 8669     		ldr	r6, [r0, #24]
 1949 0076 0021     		movs	r1, #0
 1950 0078 B047     		blx	r6
 1951              	.LVL237:
 1952              	.LBE118:
 1953              	.LBE117:
 1954              		.loc 1 463 0 discriminator 3
 1955 007a 4445     		cmp	r4, r8
 1956 007c EAD1     		bne	.L209
 1957              		.loc 1 469 0
 1958 007e DAF84C30 		ldr	r3, [r10, #76]
 1959 0082 9B07     		lsls	r3, r3, #30
 1960 0084 19D5     		bpl	.L200
 1961 0086 104F     		ldr	r7, .L211+8
 1962 0088 09F1D409 		add	r9, r9, #212
 1963              	.LVL238:
 1964 008c 2126     		movs	r6, #33
 1965 008e 01E0     		b	.L204
 1966              	.L210:
 1967 0090 57F8046F 		ldr	r6, [r7, #4]!
 1968              	.L204:
 1969              		.loc 1 471 0 discriminator 3
 1970 0094 6868     		ldr	r0, [r5, #4]
 1971              	.LVL239:
 1972              	.LBB119:
 1973              	.LBB120:
 1974              		.loc 2 153 0 discriminator 3
 1975 0096 54F8043B 		ldr	r3, [r4], #4
 1976              	.LVL240:
 1977 009a D0F81880 		ldr	r8, [r0, #24]
 1978 009e 4FF48C72 		mov	r2, #280
 1979 00a2 0021     		movs	r1, #0
 1980 00a4 C047     		blx	r8
 1981              	.LVL241:
 1982              	.LBE120:
 1983              	.LBE119:
 1984              		.loc 1 473 0 discriminator 3
 1985 00a6 6868     		ldr	r0, [r5, #4]
 1986              	.LVL242:
 1987              	.LBB121:
 1988              	.LBB122:
 1989              		.loc 2 153 0 discriminator 3
 1990 00a8 46F48033 		orr	r3, r6, #65536
 1991              	.LVL243:
 1992 00ac 4FF48A72 		mov	r2, #276
 1993 00b0 8669     		ldr	r6, [r0, #24]
 1994 00b2 0021     		movs	r1, #0
 1995 00b4 B047     		blx	r6
ARM GAS  /tmp/cccFXynL.s 			page 36


 1996              	.LVL244:
 1997              	.LBE122:
 1998              	.LBE121:
 1999              		.loc 1 470 0 discriminator 3
 2000 00b6 A145     		cmp	r9, r4
 2001 00b8 EAD1     		bne	.L210
 2002              	.LVL245:
 2003              	.L200:
 2004              		.loc 1 477 0
 2005 00ba BDE8F88F 		pop	{r3, r4, r5, r6, r7, r8, r9, r10, fp, pc}
 2006              	.LVL246:
 2007              	.L212:
 2008 00be 00BF     		.align	2
 2009              	.L211:
 2010 00c0 04000000 		.word	.LANCHOR2+4
 2011 00c4 F0ED00E0 		.word	-536810000
 2012 00c8 00000000 		.word	.LANCHOR3
 2013              		.cfi_endproc
 2014              	.LFE274:
 2015              		.size	cortexm_regs_write, .-cortexm_regs_write
 2016              		.section	.text.cortexm_regs_read,"ax",%progbits
 2017              		.align	1
 2018              		.p2align 4,,15
 2019              		.syntax unified
 2020              		.thumb
 2021              		.thumb_func
 2022              		.fpu fpv4-sp-d16
 2023              		.type	cortexm_regs_read, %function
 2024              	cortexm_regs_read:
 2025              	.LFB273:
 2026              		.loc 1 415 0
 2027              		.cfi_startproc
 2028              		@ args = 0, pretend = 0, frame = 0
 2029              		@ frame_needed = 0, uses_anonymous_args = 0
 2030              	.LVL247:
 2031              	.LBB123:
 2032              	.LBB124:
 2033              		.loc 1 191 0
 2034 0000 C36E     		ldr	r3, [r0, #108]
 2035              	.LBE124:
 2036              	.LBE123:
 2037              		.loc 1 415 0
 2038 0002 2DE9F047 		push	{r4, r5, r6, r7, r8, r9, r10, lr}
 2039              		.cfi_def_cfa_offset 32
 2040              		.cfi_offset 4, -32
 2041              		.cfi_offset 5, -28
 2042              		.cfi_offset 6, -24
 2043              		.cfi_offset 7, -20
 2044              		.cfi_offset 8, -16
 2045              		.cfi_offset 9, -12
 2046              		.cfi_offset 10, -8
 2047              		.cfi_offset 14, -4
 2048              	.LBB126:
 2049              	.LBB125:
 2050              		.loc 1 191 0
 2051 0006 1D68     		ldr	r5, [r3]
 2052 0008 284E     		ldr	r6, .L224
ARM GAS  /tmp/cccFXynL.s 			page 37


 2053              	.LBE125:
 2054              	.LBE126:
 2055              		.loc 1 421 0
 2056 000a AA69     		ldr	r2, [r5, #24]
 2057              		.loc 1 415 0
 2058 000c 8846     		mov	r8, r1
 2059              		.loc 1 421 0
 2060 000e 42F00202 		orr	r2, r2, #2
 2061 0012 4FF48071 		mov	r1, #256
 2062              	.LVL248:
 2063              		.loc 1 415 0
 2064 0016 8146     		mov	r9, r0
 2065              	.LVL249:
 2066              		.loc 1 421 0
 2067 0018 2846     		mov	r0, r5
 2068              	.LVL250:
 2069 001a FFF7FEFF 		bl	adiv5_ap_write
 2070              	.LVL251:
 2071              		.loc 1 425 0
 2072 001e 6868     		ldr	r0, [r5, #4]
 2073              	.LVL252:
 2074              	.LBB127:
 2075              	.LBB128:
 2076              		.loc 2 153 0
 2077 0020 234B     		ldr	r3, .L224+4
 2078 0022 8469     		ldr	r4, [r0, #24]
 2079 0024 4FF48272 		mov	r2, #260
 2080 0028 0021     		movs	r1, #0
 2081 002a A047     		blx	r4
 2082              	.LVL253:
 2083              	.LBE128:
 2084              	.LBE127:
 2085              		.loc 1 429 0
 2086 002c 2846     		mov	r0, r5
 2087 002e 0022     		movs	r2, #0
 2088 0030 4FF48A71 		mov	r1, #276
 2089 0034 FFF7FEFF 		bl	adiv5_ap_write
 2090              	.LVL254:
 2091              		.loc 1 430 0
 2092 0038 6868     		ldr	r0, [r5, #4]
 2093              	.LBB129:
 2094              	.LBB130:
 2095              		.loc 2 142 0
 2096 003a 4FF48C71 		mov	r1, #280
 2097 003e 0369     		ldr	r3, [r0, #16]
 2098 0040 9847     		blx	r3
 2099              	.LVL255:
 2100              	.LBE130:
 2101              	.LBE129:
 2102              		.loc 1 430 0
 2103 0042 4746     		mov	r7, r8
 2104 0044 08F10404 		add	r4, r8, #4
 2105              	.LVL256:
 2106 0048 47F8500B 		str	r0, [r7], #80
 2107              	.LVL257:
 2108 004c 0123     		movs	r3, #1
 2109 004e 01E0     		b	.L215
ARM GAS  /tmp/cccFXynL.s 			page 38


 2110              	.LVL258:
 2111              	.L222:
 2112 0050 56F8043F 		ldr	r3, [r6, #4]!
 2113              	.L215:
 2114              		.loc 1 432 0 discriminator 3
 2115 0054 6868     		ldr	r0, [r5, #4]
 2116              	.LVL259:
 2117              	.LBB131:
 2118              	.LBB132:
 2119              		.loc 2 153 0 discriminator 3
 2120 0056 4FF48A72 		mov	r2, #276
 2121 005a 0021     		movs	r1, #0
 2122 005c D0F818A0 		ldr	r10, [r0, #24]
 2123 0060 D047     		blx	r10
 2124              	.LVL260:
 2125              	.LBE132:
 2126              	.LBE131:
 2127              		.loc 1 434 0 discriminator 3
 2128 0062 6868     		ldr	r0, [r5, #4]
 2129              	.LVL261:
 2130              	.LBB133:
 2131              	.LBB134:
 2132              		.loc 2 142 0 discriminator 3
 2133 0064 4FF48C71 		mov	r1, #280
 2134 0068 0369     		ldr	r3, [r0, #16]
 2135 006a 9847     		blx	r3
 2136              	.LVL262:
 2137              	.LBE134:
 2138              	.LBE133:
 2139              		.loc 1 434 0 discriminator 3
 2140 006c 44F8040B 		str	r0, [r4], #4
 2141              	.LVL263:
 2142              		.loc 1 431 0 discriminator 3
 2143 0070 BC42     		cmp	r4, r7
 2144 0072 EDD1     		bne	.L222
 2145              		.loc 1 436 0
 2146 0074 D9F84C30 		ldr	r3, [r9, #76]
 2147 0078 9B07     		lsls	r3, r3, #30
 2148 007a 15D5     		bpl	.L213
 2149 007c 0D4E     		ldr	r6, .L224+8
 2150 007e 08F1D408 		add	r8, r8, #212
 2151              	.LVL264:
 2152 0082 2123     		movs	r3, #33
 2153 0084 01E0     		b	.L217
 2154              	.L223:
 2155 0086 56F8043F 		ldr	r3, [r6, #4]!
 2156              	.L217:
 2157              		.loc 1 438 0 discriminator 3
 2158 008a 6868     		ldr	r0, [r5, #4]
 2159              	.LVL265:
 2160              	.LBB135:
 2161              	.LBB136:
 2162              		.loc 2 153 0 discriminator 3
 2163 008c 4FF48A72 		mov	r2, #276
 2164 0090 0021     		movs	r1, #0
 2165 0092 8769     		ldr	r7, [r0, #24]
 2166 0094 B847     		blx	r7
ARM GAS  /tmp/cccFXynL.s 			page 39


 2167              	.LVL266:
 2168              	.LBE136:
 2169              	.LBE135:
 2170              		.loc 1 441 0 discriminator 3
 2171 0096 6868     		ldr	r0, [r5, #4]
 2172              	.LVL267:
 2173              	.LBB137:
 2174              	.LBB138:
 2175              		.loc 2 142 0 discriminator 3
 2176 0098 4FF48C71 		mov	r1, #280
 2177 009c 0369     		ldr	r3, [r0, #16]
 2178 009e 9847     		blx	r3
 2179              	.LVL268:
 2180              	.LBE138:
 2181              	.LBE137:
 2182              		.loc 1 441 0 discriminator 3
 2183 00a0 44F8040B 		str	r0, [r4], #4
 2184              	.LVL269:
 2185              		.loc 1 437 0 discriminator 3
 2186 00a4 A045     		cmp	r8, r4
 2187 00a6 EED1     		bne	.L223
 2188              	.LVL270:
 2189              	.L213:
 2190              		.loc 1 443 0
 2191 00a8 BDE8F087 		pop	{r4, r5, r6, r7, r8, r9, r10, pc}
 2192              	.LVL271:
 2193              	.L225:
 2194              		.align	2
 2195              	.L224:
 2196 00ac 04000000 		.word	.LANCHOR2+4
 2197 00b0 F0ED00E0 		.word	-536810000
 2198 00b4 00000000 		.word	.LANCHOR3
 2199              		.cfi_endproc
 2200              	.LFE273:
 2201              		.size	cortexm_regs_read, .-cortexm_regs_read
 2202              		.section	.text.cortexm_priv_free,"ax",%progbits
 2203              		.align	1
 2204              		.p2align 4,,15
 2205              		.syntax unified
 2206              		.thumb
 2207              		.thumb_func
 2208              		.fpu fpv4-sp-d16
 2209              		.type	cortexm_priv_free, %function
 2210              	cortexm_priv_free:
 2211              	.LFB268:
 2212              		.loc 1 238 0
 2213              		.cfi_startproc
 2214              		@ args = 0, pretend = 0, frame = 0
 2215              		@ frame_needed = 0, uses_anonymous_args = 0
 2216              	.LVL272:
 2217 0000 10B5     		push	{r4, lr}
 2218              		.cfi_def_cfa_offset 8
 2219              		.cfi_offset 4, -8
 2220              		.cfi_offset 14, -4
 2221              		.loc 1 238 0
 2222 0002 0446     		mov	r4, r0
 2223              		.loc 1 239 0
ARM GAS  /tmp/cccFXynL.s 			page 40


 2224 0004 0068     		ldr	r0, [r0]
 2225              	.LVL273:
 2226 0006 FFF7FEFF 		bl	adiv5_ap_unref
 2227              	.LVL274:
 2228              		.loc 1 240 0
 2229 000a 2046     		mov	r0, r4
 2230              		.loc 1 241 0
 2231 000c BDE81040 		pop	{r4, lr}
 2232              		.cfi_restore 14
 2233              		.cfi_restore 4
 2234              		.cfi_def_cfa_offset 0
 2235              	.LVL275:
 2236              		.loc 1 240 0
 2237 0010 FFF7FEBF 		b	free
 2238              	.LVL276:
 2239              		.cfi_endproc
 2240              	.LFE268:
 2241              		.size	cortexm_priv_free, .-cortexm_priv_free
 2242              		.section	.text.cortexm_forced_halt,"ax",%progbits
 2243              		.align	1
 2244              		.p2align 4,,15
 2245              		.syntax unified
 2246              		.thumb
 2247              		.thumb_func
 2248              		.fpu fpv4-sp-d16
 2249              		.type	cortexm_forced_halt, %function
 2250              	cortexm_forced_halt:
 2251              	.LFB269:
 2252              		.loc 1 244 0
 2253              		.cfi_startproc
 2254              		@ args = 0, pretend = 0, frame = 0
 2255              		@ frame_needed = 0, uses_anonymous_args = 0
 2256              	.LVL277:
 2257 0000 F8B5     		push	{r3, r4, r5, r6, r7, lr}
 2258              		.cfi_def_cfa_offset 24
 2259              		.cfi_offset 3, -24
 2260              		.cfi_offset 4, -20
 2261              		.cfi_offset 5, -16
 2262              		.cfi_offset 6, -12
 2263              		.cfi_offset 7, -8
 2264              		.cfi_offset 14, -4
 2265              		.loc 1 244 0
 2266 0002 0446     		mov	r4, r0
 2267              		.loc 1 245 0
 2268 0004 FFF7FEFF 		bl	target_halt_request
 2269              	.LVL278:
 2270              		.loc 1 246 0
 2271 0008 0020     		movs	r0, #0
 2272 000a FFF7FEFF 		bl	platform_srst_set_val
 2273              	.LVL279:
 2274              		.loc 1 248 0
 2275 000e FFF7FEFF 		bl	platform_time_ms
 2276              	.LVL280:
 2277 0012 0C4F     		ldr	r7, .L234
 2278              		.loc 1 252 0
 2279 0014 0C4E     		ldr	r6, .L234+4
 2280              		.loc 1 248 0
ARM GAS  /tmp/cccFXynL.s 			page 41


 2281 0016 0546     		mov	r5, r0
 2282              	.LVL281:
 2283              		.loc 1 251 0
 2284 0018 07E0     		b	.L229
 2285              	.LVL282:
 2286              	.L231:
 2287              		.loc 1 252 0
 2288 001a FFF7FEFF 		bl	target_mem_read32
 2289              	.LVL283:
 2290              		.loc 1 253 0
 2291 001e B0F1031F 		cmp	r0, #196611
 2292              		.loc 1 256 0
 2293 0022 2046     		mov	r0, r4
 2294              	.LVL284:
 2295              		.loc 1 253 0
 2296 0024 0BD0     		beq	.L232
 2297              	.LVL285:
 2298              		.loc 1 256 0
 2299 0026 FFF7FEFF 		bl	target_halt_request
 2300              	.LVL286:
 2301              	.L229:
 2302              		.loc 1 251 0
 2303 002a FFF7FEFF 		bl	platform_time_ms
 2304              	.LVL287:
 2305 002e 3B68     		ldr	r3, [r7]
 2306 0030 2B44     		add	r3, r3, r5
 2307 0032 9842     		cmp	r0, r3
 2308              		.loc 1 252 0
 2309 0034 3146     		mov	r1, r6
 2310 0036 2046     		mov	r0, r4
 2311              		.loc 1 251 0
 2312 0038 EFD3     		bcc	.L231
 2313              	.LVL288:
 2314              		.loc 1 259 0
 2315 003a 0020     		movs	r0, #0
 2316              	.LVL289:
 2317              		.loc 1 261 0
 2318 003c F8BD     		pop	{r3, r4, r5, r6, r7, pc}
 2319              	.LVL290:
 2320              	.L232:
 2321              		.loc 1 260 0
 2322 003e 0120     		movs	r0, #1
 2323              	.LVL291:
 2324              		.loc 1 261 0
 2325 0040 F8BD     		pop	{r3, r4, r5, r6, r7, pc}
 2326              	.LVL292:
 2327              	.L235:
 2328 0042 00BF     		.align	2
 2329              	.L234:
 2330 0044 00000000 		.word	cortexm_wait_timeout
 2331 0048 F0ED00E0 		.word	-536810000
 2332              		.cfi_endproc
 2333              	.LFE269:
 2334              		.size	cortexm_forced_halt, .-cortexm_forced_halt
 2335              		.section	.text.cortexm_attach,"ax",%progbits
 2336              		.align	1
 2337              		.p2align 4,,15
ARM GAS  /tmp/cccFXynL.s 			page 42


 2338              		.global	cortexm_attach
 2339              		.syntax unified
 2340              		.thumb
 2341              		.thumb_func
 2342              		.fpu fpv4-sp-d16
 2343              		.type	cortexm_attach, %function
 2344              	cortexm_attach:
 2345              	.LFB271:
 2346              		.loc 1 345 0
 2347              		.cfi_startproc
 2348              		@ args = 0, pretend = 0, frame = 0
 2349              		@ frame_needed = 0, uses_anonymous_args = 0
 2350              	.LVL293:
 2351 0000 2DE9F047 		push	{r4, r5, r6, r7, r8, r9, r10, lr}
 2352              		.cfi_def_cfa_offset 32
 2353              		.cfi_offset 4, -32
 2354              		.cfi_offset 5, -28
 2355              		.cfi_offset 6, -24
 2356              		.cfi_offset 7, -20
 2357              		.cfi_offset 8, -16
 2358              		.cfi_offset 9, -12
 2359              		.cfi_offset 10, -8
 2360              		.cfi_offset 14, -4
 2361              		.loc 1 345 0
 2362 0004 0446     		mov	r4, r0
 2363              		.loc 1 346 0
 2364 0006 C56E     		ldr	r5, [r0, #108]
 2365              	.LVL294:
 2366              		.loc 1 351 0
 2367 0008 FFF7FEFF 		bl	target_check_error
 2368              	.LVL295:
 2369              		.loc 1 353 0
 2370 000c 2046     		mov	r0, r4
 2371 000e FFF7FEFF 		bl	target_halt_request
 2372              	.LVL296:
 2373              		.loc 1 354 0
 2374 0012 2046     		mov	r0, r4
 2375 0014 FFF7FEFF 		bl	cortexm_forced_halt
 2376              	.LVL297:
 2377 0018 8046     		mov	r8, r0
 2378 001a 10B9     		cbnz	r0, .L256
 2379              		.loc 1 391 0
 2380 001c 4046     		mov	r0, r8
 2381 001e BDE8F087 		pop	{r4, r5, r6, r7, r8, r9, r10, pc}
 2382              	.LVL298:
 2383              	.L256:
 2384              		.loc 1 358 0
 2385 0022 2A6A     		ldr	r2, [r5, #32]
 2386 0024 2D49     		ldr	r1, .L257
 2387 0026 2046     		mov	r0, r4
 2388 0028 FFF7FEFF 		bl	target_mem_write32
 2389              	.LVL299:
 2390              		.loc 1 361 0
 2391 002c 1F22     		movs	r2, #31
 2392 002e 2C49     		ldr	r1, .L257+4
 2393 0030 2046     		mov	r0, r4
 2394 0032 FFF7FEFF 		bl	target_mem_write32
ARM GAS  /tmp/cccFXynL.s 			page 43


 2395              	.LVL300:
 2396              		.loc 1 364 0
 2397 0036 0623     		movs	r3, #6
 2398 0038 EB61     		str	r3, [r5, #28]
 2399              		.loc 1 365 0
 2400 003a 2A49     		ldr	r1, .L257+8
 2401 003c 2046     		mov	r0, r4
 2402 003e FFF7FEFF 		bl	target_mem_read32
 2403              	.LVL301:
 2404              		.loc 1 366 0
 2405 0042 EA69     		ldr	r2, [r5, #28]
 2406              		.loc 1 370 0
 2407 0044 2849     		ldr	r1, .L257+12
 2408              		.loc 1 366 0
 2409 0046 C0F30313 		ubfx	r3, r0, #4, #4
 2410 004a 9342     		cmp	r3, r2
 2411              		.loc 1 367 0
 2412 004c 38BF     		it	cc
 2413 004e EB61     		strcc	r3, [r5, #28]
 2414              		.loc 1 368 0
 2415 0050 000F     		lsrs	r0, r0, #28
 2416              	.LVL302:
 2417              		.loc 1 369 0
 2418 0052 0423     		movs	r3, #4
 2419 0054 C5E90303 		strd	r0, r3, [r5, #12]
 2420              		.loc 1 370 0
 2421 0058 2046     		mov	r0, r4
 2422 005a FFF7FEFF 		bl	target_mem_read32
 2423              	.LVL303:
 2424              		.loc 1 371 0
 2425 005e 2B69     		ldr	r3, [r5, #16]
 2426 0060 000F     		lsrs	r0, r0, #28
 2427              	.LVL304:
 2428 0062 9842     		cmp	r0, r3
 2429              		.loc 1 375 0
 2430 0064 EB69     		ldr	r3, [r5, #28]
 2431              		.loc 1 372 0
 2432 0066 88BF     		it	hi
 2433 0068 2861     		strhi	r0, [r5, #16]
 2434              		.loc 1 375 0
 2435 006a B3B1     		cbz	r3, .L240
 2436 006c 6FF01309 		mvn	r9, #19
 2437 0070 1E4F     		ldr	r7, .L257+16
 2438 0072 A9EB0509 		sub	r9, r9, r5
 2439 0076 05F11406 		add	r6, r5, #20
 2440              		.loc 1 376 0
 2441 007a 4FF0000A 		mov	r10, #0
 2442              	.LVL305:
 2443              	.L241:
 2444              		.loc 1 376 0 is_stmt 0 discriminator 3
 2445 007e 0022     		movs	r2, #0
 2446 0080 3946     		mov	r1, r7
 2447 0082 2046     		mov	r0, r4
 2448 0084 FFF7FEFF 		bl	target_mem_write32
 2449              	.LVL306:
 2450              		.loc 1 377 0 is_stmt 1 discriminator 3
 2451 0088 06F801AB 		strb	r10, [r6], #1
ARM GAS  /tmp/cccFXynL.s 			page 44


 2452              	.LVL307:
 2453              		.loc 1 375 0 discriminator 3
 2454 008c EA69     		ldr	r2, [r5, #28]
 2455 008e 09EB0603 		add	r3, r9, r6
 2456 0092 9A42     		cmp	r2, r3
 2457 0094 07F10407 		add	r7, r7, #4
 2458 0098 F1D8     		bhi	.L241
 2459              	.LVL308:
 2460              	.L240:
 2461              		.loc 1 381 0
 2462 009a 2B69     		ldr	r3, [r5, #16]
 2463 009c ABB1     		cbz	r3, .L242
 2464 009e 6FF00509 		mvn	r9, #5
 2465 00a2 134F     		ldr	r7, .L257+20
 2466 00a4 A9EB0509 		sub	r9, r9, r5
 2467 00a8 AE1D     		adds	r6, r5, #6
 2468              		.loc 1 382 0
 2469 00aa 4FF0000A 		mov	r10, #0
 2470              	.LVL309:
 2471              	.L243:
 2472              		.loc 1 382 0 is_stmt 0 discriminator 3
 2473 00ae 0022     		movs	r2, #0
 2474 00b0 3946     		mov	r1, r7
 2475 00b2 2046     		mov	r0, r4
 2476 00b4 FFF7FEFF 		bl	target_mem_write32
 2477              	.LVL310:
 2478              		.loc 1 383 0 is_stmt 1 discriminator 3
 2479 00b8 06F801AB 		strb	r10, [r6], #1
 2480              	.LVL311:
 2481              		.loc 1 381 0 discriminator 3
 2482 00bc 2A69     		ldr	r2, [r5, #16]
 2483 00be 09EB0603 		add	r3, r9, r6
 2484 00c2 9A42     		cmp	r2, r3
 2485 00c4 07F11007 		add	r7, r7, #16
 2486 00c8 F1D8     		bhi	.L243
 2487              	.LVL312:
 2488              	.L242:
 2489              		.loc 1 387 0
 2490 00ca 2046     		mov	r0, r4
 2491 00cc 0322     		movs	r2, #3
 2492 00ce 0549     		ldr	r1, .L257+8
 2493 00d0 FFF7FEFF 		bl	target_mem_write32
 2494              	.LVL313:
 2495              		.loc 1 391 0
 2496 00d4 4046     		mov	r0, r8
 2497 00d6 BDE8F087 		pop	{r4, r5, r6, r7, r8, r9, r10, pc}
 2498              	.LVL314:
 2499              	.L258:
 2500 00da 00BF     		.align	2
 2501              	.L257:
 2502 00dc FCED00E0 		.word	-536809988
 2503 00e0 30ED00E0 		.word	-536810192
 2504 00e4 002000E0 		.word	-536862720
 2505 00e8 001000E0 		.word	-536866816
 2506 00ec 082000E0 		.word	-536862712
 2507 00f0 281000E0 		.word	-536866776
 2508              		.cfi_endproc
ARM GAS  /tmp/cccFXynL.s 			page 45


 2509              	.LFE271:
 2510              		.size	cortexm_attach, .-cortexm_attach
 2511              		.section	.text.cortexm_reset,"ax",%progbits
 2512              		.align	1
 2513              		.p2align 4,,15
 2514              		.global	cortexm_reset
 2515              		.syntax unified
 2516              		.thumb
 2517              		.thumb_func
 2518              		.fpu fpv4-sp-d16
 2519              		.type	cortexm_reset, %function
 2520              	cortexm_reset:
 2521              	.LFB278:
 2522              		.loc 1 502 0
 2523              		.cfi_startproc
 2524              		@ args = 0, pretend = 0, frame = 0
 2525              		@ frame_needed = 0, uses_anonymous_args = 0
 2526              	.LVL315:
 2527 0000 38B5     		push	{r3, r4, r5, lr}
 2528              		.cfi_def_cfa_offset 16
 2529              		.cfi_offset 3, -16
 2530              		.cfi_offset 4, -12
 2531              		.cfi_offset 5, -8
 2532              		.cfi_offset 14, -4
 2533              		.loc 1 502 0
 2534 0002 0446     		mov	r4, r0
 2535              		.loc 1 503 0
 2536 0004 C06C     		ldr	r0, [r0, #76]
 2537              	.LVL316:
 2538 0006 10F00405 		ands	r5, r0, #4
 2539 000a 1DD0     		beq	.L268
 2540              	.L260:
 2541              		.loc 1 509 0
 2542 000c 1249     		ldr	r1, .L269
 2543 000e 2046     		mov	r0, r4
 2544 0010 FFF7FEFF 		bl	target_mem_read32
 2545              	.LVL317:
 2546              		.loc 1 515 0
 2547 0014 114A     		ldr	r2, .L269+4
 2548 0016 1249     		ldr	r1, .L269+8
 2549 0018 2046     		mov	r0, r4
 2550 001a FFF7FEFF 		bl	target_mem_write32
 2551              	.LVL318:
 2552              		.loc 1 519 0
 2553 001e 236B     		ldr	r3, [r4, #48]
 2554 0020 0BB1     		cbz	r3, .L261
 2555              		.loc 1 520 0
 2556 0022 2046     		mov	r0, r4
 2557 0024 9847     		blx	r3
 2558              	.LVL319:
 2559              	.L261:
 2560              		.loc 1 524 0 discriminator 1
 2561 0026 0C4D     		ldr	r5, .L269
 2562              	.L262:
 2563 0028 2946     		mov	r1, r5
 2564 002a 2046     		mov	r0, r4
 2565 002c FFF7FEFF 		bl	target_mem_read32
ARM GAS  /tmp/cccFXynL.s 			page 46


 2566              	.LVL320:
 2567 0030 8301     		lsls	r3, r0, #6
 2568 0032 F9D4     		bmi	.L262
 2569              		.loc 1 527 0
 2570 0034 2046     		mov	r0, r4
 2571 0036 1F22     		movs	r2, #31
 2572 0038 0A49     		ldr	r1, .L269+12
 2573 003a FFF7FEFF 		bl	target_mem_write32
 2574              	.LVL321:
 2575              		.loc 1 532 0
 2576 003e 0120     		movs	r0, #1
 2577              		.loc 1 533 0
 2578 0040 BDE83840 		pop	{r3, r4, r5, lr}
 2579              		.cfi_remember_state
 2580              		.cfi_restore 14
 2581              		.cfi_restore 5
 2582              		.cfi_restore 4
 2583              		.cfi_restore 3
 2584              		.cfi_def_cfa_offset 0
 2585              	.LVL322:
 2586              		.loc 1 532 0
 2587 0044 FFF7FEBF 		b	platform_delay
 2588              	.LVL323:
 2589              	.L268:
 2590              		.cfi_restore_state
 2591              		.loc 1 504 0
 2592 0048 0120     		movs	r0, #1
 2593 004a FFF7FEFF 		bl	platform_srst_set_val
 2594              	.LVL324:
 2595              		.loc 1 505 0
 2596 004e 2846     		mov	r0, r5
 2597 0050 FFF7FEFF 		bl	platform_srst_set_val
 2598              	.LVL325:
 2599 0054 DAE7     		b	.L260
 2600              	.L270:
 2601 0056 00BF     		.align	2
 2602              	.L269:
 2603 0058 F0ED00E0 		.word	-536810000
 2604 005c 0400FA05 		.word	100270084
 2605 0060 0CED00E0 		.word	-536810228
 2606 0064 30ED00E0 		.word	-536810192
 2607              		.cfi_endproc
 2608              	.LFE278:
 2609              		.size	cortexm_reset, .-cortexm_reset
 2610              		.section	.text.cortexm_cache_clean.isra.1,"ax",%progbits
 2611              		.align	1
 2612              		.p2align 4,,15
 2613              		.syntax unified
 2614              		.thumb
 2615              		.thumb_func
 2616              		.fpu fpv4-sp-d16
 2617              		.type	cortexm_cache_clean.isra.1, %function
 2618              	cortexm_cache_clean.isra.1:
 2619              	.LFB292:
 2620              		.loc 1 194 0
 2621              		.cfi_startproc
 2622              		@ args = 4, pretend = 0, frame = 8
ARM GAS  /tmp/cccFXynL.s 			page 47


 2623              		@ frame_needed = 0, uses_anonymous_args = 0
 2624              	.LVL326:
 2625 0000 2DE9F04F 		push	{r4, r5, r6, r7, r8, r9, r10, fp, lr}
 2626              		.cfi_def_cfa_offset 36
 2627              		.cfi_offset 4, -36
 2628              		.cfi_offset 5, -32
 2629              		.cfi_offset 6, -28
 2630              		.cfi_offset 7, -24
 2631              		.cfi_offset 8, -20
 2632              		.cfi_offset 9, -16
 2633              		.cfi_offset 10, -12
 2634              		.cfi_offset 11, -8
 2635              		.cfi_offset 14, -4
 2636 0004 0D46     		mov	r5, r1
 2637              		.loc 1 196 0
 2638 0006 0968     		ldr	r1, [r1]
 2639              	.LVL327:
 2640              		.loc 1 194 0
 2641 0008 83B0     		sub	sp, sp, #12
 2642              		.cfi_def_cfa_offset 48
 2643              		.loc 1 194 0
 2644 000a 8046     		mov	r8, r0
 2645              		.loc 1 197 0
 2646 000c 91F82400 		ldrb	r0, [r1, #36]	@ zero_extendqisi2
 2647              		.loc 1 194 0
 2648 0010 9DF83040 		ldrb	r4, [sp, #48]	@ zero_extendqisi2
 2649              		.loc 1 197 0
 2650 0014 78B3     		cbz	r0, .L271
 2651 0016 8E6A     		ldr	r6, [r1, #40]
 2652 0018 6EB3     		cbz	r6, .L271
 2653 001a 9246     		mov	r10, r2
 2654              		.loc 1 199 0
 2655 001c 174F     		ldr	r7, .L290
 2656 001e 184A     		ldr	r2, .L290+4
 2657              	.LVL328:
 2658              		.loc 1 203 0
 2659 0020 0AEB0309 		add	r9, r10, r3
 2660              		.loc 1 199 0
 2661 0024 002C     		cmp	r4, #0
 2662 0026 18BF     		it	ne
 2663 0028 1746     		movne	r7, r2
 2664              	.LVL329:
 2665              	.LBB139:
 2666              		.loc 1 205 0
 2667 002a B8F1000F 		cmp	r8, #0
 2668 002e 22D0     		beq	.L271
 2669 0030 C6F1000B 		rsb	fp, r6, #0
 2670              	.LVL330:
 2671              	.L276:
 2672              	.LBB140:
 2673              		.loc 1 207 0
 2674 0034 D8E90034 		ldrd	r3, r4, [r8]
 2675 0038 1C44     		add	r4, r4, r3
 2676              	.LVL331:
 2677 003a 4C45     		cmp	r4, r9
 2678 003c 28BF     		it	cs
 2679 003e 4C46     		movcs	r4, r9
ARM GAS  /tmp/cccFXynL.s 			page 48


 2680              	.LVL332:
 2681              		.loc 1 214 0
 2682 0040 9A45     		cmp	r10, r3
 2683 0042 2CBF     		ite	cs
 2684 0044 0BEA0A03 		andcs	r3, fp, r10
 2685 0048 0BEA0303 		andcc	r3, fp, r3
 2686 004c A342     		cmp	r3, r4
 2687 004e 0193     		str	r3, [sp, #4]
 2688 0050 0CD2     		bcs	.L274
 2689              	.L275:
 2690              	.LBB141:
 2691              	.LBB142:
 2692              		.loc 1 191 0
 2693 0052 2A68     		ldr	r2, [r5]
 2694              	.LBE142:
 2695              	.LBE141:
 2696              		.loc 1 215 0
 2697 0054 0423     		movs	r3, #4
 2698 0056 1068     		ldr	r0, [r2]
 2699 0058 3946     		mov	r1, r7
 2700 005a 0DEB0302 		add	r2, sp, r3
 2701 005e FFF7FEFF 		bl	adiv5_mem_write
 2702              	.LVL333:
 2703              		.loc 1 214 0
 2704 0062 019B     		ldr	r3, [sp, #4]
 2705 0064 3344     		add	r3, r3, r6
 2706 0066 A342     		cmp	r3, r4
 2707 0068 0193     		str	r3, [sp, #4]
 2708 006a F2D3     		bcc	.L275
 2709              	.L274:
 2710              	.LBE140:
 2711              		.loc 1 205 0
 2712 006c D8F80880 		ldr	r8, [r8, #8]
 2713              	.LVL334:
 2714 0070 B8F1000F 		cmp	r8, #0
 2715 0074 DED1     		bne	.L276
 2716              	.LVL335:
 2717              	.L271:
 2718              	.LBE139:
 2719              		.loc 1 217 0
 2720 0076 03B0     		add	sp, sp, #12
 2721              		.cfi_def_cfa_offset 36
 2722              		@ sp needed
 2723 0078 BDE8F08F 		pop	{r4, r5, r6, r7, r8, r9, r10, fp, pc}
 2724              	.LVL336:
 2725              	.L291:
 2726              		.align	2
 2727              	.L290:
 2728 007c 68EF00E0 		.word	-536809624
 2729 0080 70EF00E0 		.word	-536809616
 2730              		.cfi_endproc
 2731              	.LFE292:
 2732              		.size	cortexm_cache_clean.isra.1, .-cortexm_cache_clean.isra.1
 2733              		.section	.text.cortexm_mem_write,"ax",%progbits
 2734              		.align	1
 2735              		.p2align 4,,15
 2736              		.syntax unified
ARM GAS  /tmp/cccFXynL.s 			page 49


 2737              		.thumb
 2738              		.thumb_func
 2739              		.fpu fpv4-sp-d16
 2740              		.type	cortexm_mem_write, %function
 2741              	cortexm_mem_write:
 2742              	.LFB266:
 2743              		.loc 1 226 0
 2744              		.cfi_startproc
 2745              		@ args = 0, pretend = 0, frame = 0
 2746              		@ frame_needed = 0, uses_anonymous_args = 0
 2747              	.LVL337:
 2748 0000 F0B5     		push	{r4, r5, r6, r7, lr}
 2749              		.cfi_def_cfa_offset 20
 2750              		.cfi_offset 4, -20
 2751              		.cfi_offset 5, -16
 2752              		.cfi_offset 6, -12
 2753              		.cfi_offset 7, -8
 2754              		.cfi_offset 14, -4
 2755 0002 83B0     		sub	sp, sp, #12
 2756              		.cfi_def_cfa_offset 32
 2757              		.loc 1 226 0
 2758 0004 0446     		mov	r4, r0
 2759              		.loc 1 227 0
 2760 0006 0127     		movs	r7, #1
 2761              		.loc 1 226 0
 2762 0008 0D46     		mov	r5, r1
 2763              		.loc 1 227 0
 2764 000a 806D     		ldr	r0, [r0, #88]
 2765              	.LVL338:
 2766 000c 0097     		str	r7, [sp]
 2767              		.loc 1 226 0
 2768 000e 1646     		mov	r6, r2
 2769              		.loc 1 227 0
 2770 0010 0A46     		mov	r2, r1
 2771              	.LVL339:
 2772 0012 04F16C01 		add	r1, r4, #108
 2773              	.LVL340:
 2774              		.loc 1 226 0
 2775 0016 1F46     		mov	r7, r3
 2776              		.loc 1 227 0
 2777 0018 FFF7FEFF 		bl	cortexm_cache_clean.isra.1
 2778              	.LVL341:
 2779              	.LBB143:
 2780              	.LBB144:
 2781              		.loc 1 191 0
 2782 001c E26E     		ldr	r2, [r4, #108]
 2783              	.LBE144:
 2784              	.LBE143:
 2785              		.loc 1 228 0
 2786 001e 1068     		ldr	r0, [r2]
 2787 0020 3B46     		mov	r3, r7
 2788 0022 3246     		mov	r2, r6
 2789 0024 2946     		mov	r1, r5
 2790              		.loc 1 229 0
 2791 0026 03B0     		add	sp, sp, #12
 2792              		.cfi_def_cfa_offset 20
 2793              		@ sp needed
ARM GAS  /tmp/cccFXynL.s 			page 50


 2794 0028 BDE8F040 		pop	{r4, r5, r6, r7, lr}
 2795              		.cfi_restore 14
 2796              		.cfi_restore 7
 2797              		.cfi_restore 6
 2798              		.cfi_restore 5
 2799              		.cfi_restore 4
 2800              		.cfi_def_cfa_offset 0
 2801              	.LVL342:
 2802              		.loc 1 228 0
 2803 002c FFF7FEBF 		b	adiv5_mem_write
 2804              	.LVL343:
 2805              		.cfi_endproc
 2806              	.LFE266:
 2807              		.size	cortexm_mem_write, .-cortexm_mem_write
 2808              		.section	.text.cortexm_mem_read,"ax",%progbits
 2809              		.align	1
 2810              		.p2align 4,,15
 2811              		.syntax unified
 2812              		.thumb
 2813              		.thumb_func
 2814              		.fpu fpv4-sp-d16
 2815              		.type	cortexm_mem_read, %function
 2816              	cortexm_mem_read:
 2817              	.LFB265:
 2818              		.loc 1 220 0
 2819              		.cfi_startproc
 2820              		@ args = 0, pretend = 0, frame = 0
 2821              		@ frame_needed = 0, uses_anonymous_args = 0
 2822              	.LVL344:
 2823 0000 F0B5     		push	{r4, r5, r6, r7, lr}
 2824              		.cfi_def_cfa_offset 20
 2825              		.cfi_offset 4, -20
 2826              		.cfi_offset 5, -16
 2827              		.cfi_offset 6, -12
 2828              		.cfi_offset 7, -8
 2829              		.cfi_offset 14, -4
 2830 0002 83B0     		sub	sp, sp, #12
 2831              		.cfi_def_cfa_offset 32
 2832              		.loc 1 220 0
 2833 0004 0446     		mov	r4, r0
 2834              		.loc 1 221 0
 2835 0006 0025     		movs	r5, #0
 2836 0008 806D     		ldr	r0, [r0, #88]
 2837              	.LVL345:
 2838 000a 0095     		str	r5, [sp]
 2839              		.loc 1 220 0
 2840 000c 0D46     		mov	r5, r1
 2841              		.loc 1 221 0
 2842 000e 04F16C01 		add	r1, r4, #108
 2843              	.LVL346:
 2844              		.loc 1 220 0
 2845 0012 1646     		mov	r6, r2
 2846 0014 1F46     		mov	r7, r3
 2847              		.loc 1 221 0
 2848 0016 FFF7FEFF 		bl	cortexm_cache_clean.isra.1
 2849              	.LVL347:
 2850              	.LBB145:
ARM GAS  /tmp/cccFXynL.s 			page 51


 2851              	.LBB146:
 2852              		.loc 1 191 0
 2853 001a E26E     		ldr	r2, [r4, #108]
 2854              	.LBE146:
 2855              	.LBE145:
 2856              		.loc 1 222 0
 2857 001c 1068     		ldr	r0, [r2]
 2858 001e 3B46     		mov	r3, r7
 2859 0020 3246     		mov	r2, r6
 2860 0022 2946     		mov	r1, r5
 2861              		.loc 1 223 0
 2862 0024 03B0     		add	sp, sp, #12
 2863              		.cfi_def_cfa_offset 20
 2864              		@ sp needed
 2865 0026 BDE8F040 		pop	{r4, r5, r6, r7, lr}
 2866              		.cfi_restore 14
 2867              		.cfi_restore 7
 2868              		.cfi_restore 6
 2869              		.cfi_restore 5
 2870              		.cfi_restore 4
 2871              		.cfi_def_cfa_offset 0
 2872              	.LVL348:
 2873              		.loc 1 222 0
 2874 002a FFF7FEBF 		b	adiv5_mem_read
 2875              	.LVL349:
 2876              		.cfi_endproc
 2877              	.LFE265:
 2878              		.size	cortexm_mem_read, .-cortexm_mem_read
 2879 002e 00BF     		.section	.text.cortexm_ap,"ax",%progbits
 2880              		.align	1
 2881              		.p2align 4,,15
 2882              		.global	cortexm_ap
 2883              		.syntax unified
 2884              		.thumb
 2885              		.thumb_func
 2886              		.fpu fpv4-sp-d16
 2887              		.type	cortexm_ap, %function
 2888              	cortexm_ap:
 2889              	.LFB263:
 2890              		.loc 1 190 0
 2891              		.cfi_startproc
 2892              		@ args = 0, pretend = 0, frame = 0
 2893              		@ frame_needed = 0, uses_anonymous_args = 0
 2894              		@ link register save eliminated.
 2895              	.LVL350:
 2896              		.loc 1 191 0
 2897 0000 C36E     		ldr	r3, [r0, #108]
 2898              		.loc 1 192 0
 2899 0002 1868     		ldr	r0, [r3]
 2900              	.LVL351:
 2901 0004 7047     		bx	lr
 2902              		.cfi_endproc
 2903              	.LFE263:
 2904              		.size	cortexm_ap, .-cortexm_ap
 2905 0006 00BF     		.section	.text.cortexm_probe,"ax",%progbits
 2906              		.align	1
 2907              		.p2align 4,,15
ARM GAS  /tmp/cccFXynL.s 			page 52


 2908              		.global	cortexm_probe
 2909              		.syntax unified
 2910              		.thumb
 2911              		.thumb_func
 2912              		.fpu fpv4-sp-d16
 2913              		.type	cortexm_probe, %function
 2914              	cortexm_probe:
 2915              	.LFB270:
 2916              		.loc 1 264 0
 2917              		.cfi_startproc
 2918              		@ args = 0, pretend = 0, frame = 0
 2919              		@ frame_needed = 0, uses_anonymous_args = 0
 2920              	.LVL352:
 2921 0000 2DE9F041 		push	{r4, r5, r6, r7, r8, lr}
 2922              		.cfi_def_cfa_offset 24
 2923              		.cfi_offset 4, -24
 2924              		.cfi_offset 5, -20
 2925              		.cfi_offset 6, -16
 2926              		.cfi_offset 7, -12
 2927              		.cfi_offset 8, -8
 2928              		.cfi_offset 14, -4
 2929              		.loc 1 264 0
 2930 0004 0646     		mov	r6, r0
 2931 0006 0F46     		mov	r7, r1
 2932              		.loc 1 267 0
 2933 0008 FFF7FEFF 		bl	target_new
 2934              	.LVL353:
 2935 000c 0446     		mov	r4, r0
 2936              	.LVL354:
 2937              		.loc 1 268 0
 2938 000e 3046     		mov	r0, r6
 2939              	.LVL355:
 2940 0010 FFF7FEFF 		bl	adiv5_ap_ref
 2941              	.LVL356:
 2942              		.loc 1 269 0
 2943 0014 2C21     		movs	r1, #44
 2944 0016 0120     		movs	r0, #1
 2945 0018 FFF7FEFF 		bl	calloc
 2946              	.LVL357:
 2947              		.loc 1 271 0
 2948 001c DFF8C0C1 		ldr	ip, .L319+68
 2949              		.loc 1 275 0
 2950 0020 5E49     		ldr	r1, .L319
 2951              		.loc 1 276 0
 2952 0022 5F4B     		ldr	r3, .L319+4
 2953              		.loc 1 278 0
 2954 0024 5F4A     		ldr	r2, .L319+8
 2955              		.loc 1 269 0
 2956 0026 0546     		mov	r5, r0
 2957              	.LVL358:
 2958              		.loc 1 271 0
 2959 0028 C4E91B5C 		strd	r5, ip, [r4, #108]
 2960              		.loc 1 274 0
 2961 002c 5E48     		ldr	r0, .L319+12
 2962              	.LVL359:
 2963              		.loc 1 272 0
 2964 002e 2E60     		str	r6, [r5]
ARM GAS  /tmp/cccFXynL.s 			page 53


 2965              		.loc 1 275 0
 2966 0030 6161     		str	r1, [r4, #20]
 2967              		.loc 1 276 0
 2968 0032 A361     		str	r3, [r4, #24]
 2969              		.loc 1 284 0
 2970 0034 5D49     		ldr	r1, .L319+16
 2971              		.loc 1 285 0
 2972 0036 5E4B     		ldr	r3, .L319+20
 2973              		.loc 1 280 0
 2974 0038 DFF8A8C1 		ldr	ip, .L319+72
 2975              		.loc 1 274 0
 2976 003c 2061     		str	r0, [r4, #16]
 2977              		.loc 1 284 0
 2978 003e 2162     		str	r1, [r4, #32]
 2979              		.loc 1 281 0
 2980 0040 5C48     		ldr	r0, .L319+24
 2981              		.loc 1 289 0
 2982 0042 5D49     		ldr	r1, .L319+28
 2983              		.loc 1 285 0
 2984 0044 6362     		str	r3, [r4, #36]
 2985              		.loc 1 290 0
 2986 0046 5D4B     		ldr	r3, .L319+32
 2987              		.loc 1 280 0
 2988 0048 C4F808C0 		str	ip, [r4, #8]
 2989              		.loc 1 281 0
 2990 004c E060     		str	r0, [r4, #12]
 2991              		.loc 1 286 0
 2992 004e DFF898C1 		ldr	ip, .L319+76
 2993              		.loc 1 288 0
 2994 0052 5B48     		ldr	r0, .L319+36
 2995              		.loc 1 289 0
 2996 0054 6163     		str	r1, [r4, #52]
 2997              		.loc 1 290 0
 2998 0056 A363     		str	r3, [r4, #56]
 2999              		.loc 1 294 0
 3000 0058 5A49     		ldr	r1, .L319+40
 3001              		.loc 1 295 0
 3002 005a 5B4B     		ldr	r3, .L319+44
 3003              		.loc 1 286 0
 3004 005c C4F828C0 		str	ip, [r4, #40]
 3005              		.loc 1 288 0
 3006 0060 E062     		str	r0, [r4, #44]
 3007              		.loc 1 291 0
 3008 0062 DFF888C1 		ldr	ip, .L319+80
 3009 0066 C4F83CC0 		str	ip, [r4, #60]
 3010              		.loc 1 292 0
 3011 006a 5020     		movs	r0, #80
 3012              		.loc 1 295 0
 3013 006c C4E91013 		strd	r1, r3, [r4, #64]
 3014              		.loc 1 278 0
 3015 0070 2266     		str	r2, [r4, #96]
 3016              		.loc 1 292 0
 3017 0072 E061     		str	r0, [r4, #28]
 3018              		.loc 1 297 0
 3019 0074 5549     		ldr	r1, .L319+48
 3020 0076 2046     		mov	r0, r4
 3021 0078 FFF7FEFF 		bl	target_add_commands
ARM GAS  /tmp/cccFXynL.s 			page 54


 3022              	.LVL360:
 3023              		.loc 1 300 0
 3024 007c 5449     		ldr	r1, .L319+52
 3025 007e 2046     		mov	r0, r4
 3026 0080 FFF7FEFF 		bl	target_mem_read32
 3027              	.LVL361:
 3028              		.loc 1 301 0
 3029 0084 40F47008 		orr	r8, r0, #15728640
 3030              	.LVL362:
 3031              		.loc 1 302 0
 3032 0088 4246     		mov	r2, r8
 3033 008a 2046     		mov	r0, r4
 3034 008c 5049     		ldr	r1, .L319+52
 3035 008e FFF7FEFF 		bl	target_mem_write32
 3036              	.LVL363:
 3037              		.loc 1 303 0
 3038 0092 2046     		mov	r0, r4
 3039 0094 4E49     		ldr	r1, .L319+52
 3040 0096 FFF7FEFF 		bl	target_mem_read32
 3041              	.LVL364:
 3042 009a 4045     		cmp	r0, r8
 3043 009c 08D1     		bne	.L298
 3044              		.loc 1 304 0
 3045 009e E26C     		ldr	r2, [r4, #76]
 3046              		.loc 1 305 0
 3047 00a0 E369     		ldr	r3, [r4, #28]
 3048              		.loc 1 306 0
 3049 00a2 4C49     		ldr	r1, .L319+56
 3050 00a4 2162     		str	r1, [r4, #32]
 3051              		.loc 1 304 0
 3052 00a6 42F00202 		orr	r2, r2, #2
 3053              		.loc 1 305 0
 3054 00aa 8433     		adds	r3, r3, #132
 3055              		.loc 1 304 0
 3056 00ac E264     		str	r2, [r4, #76]
 3057              		.loc 1 305 0
 3058 00ae E361     		str	r3, [r4, #28]
 3059              	.L298:
 3060              		.loc 1 310 0
 3061 00b0 494B     		ldr	r3, .L319+60
 3062 00b2 2B62     		str	r3, [r5, #32]
 3063              		.loc 1 314 0
 3064 00b4 4949     		ldr	r1, .L319+64
 3065 00b6 2046     		mov	r0, r4
 3066 00b8 FFF7FEFF 		bl	target_mem_read32
 3067              	.LVL365:
 3068              		.loc 1 315 0
 3069 00bc 430F     		lsrs	r3, r0, #29
 3070 00be 042B     		cmp	r3, #4
 3071 00c0 59D1     		bne	.L299
 3072              		.loc 1 317 0
 3073 00c2 00F00F00 		and	r0, r0, #15
 3074              	.LVL366:
 3075 00c6 8340     		lsls	r3, r3, r0
 3076              		.loc 1 316 0
 3077 00c8 0122     		movs	r2, #1
 3078              		.loc 1 317 0
ARM GAS  /tmp/cccFXynL.s 			page 55


 3079 00ca AB62     		str	r3, [r5, #40]
 3080              		.loc 1 316 0
 3081 00cc 85F82420 		strb	r2, [r5, #36]
 3082              	.L300:
 3083              		.loc 1 326 0
 3084 00d0 1FB1     		cbz	r7, .L304
 3085              		.loc 1 326 0 is_stmt 0 discriminator 1
 3086 00d2 7368     		ldr	r3, [r6, #4]
 3087 00d4 DB68     		ldr	r3, [r3, #12]
 3088 00d6 002B     		cmp	r3, #0
 3089 00d8 3FD0     		beq	.L317
 3090              	.L304:
 3091              		.loc 1 333 0 is_stmt 1
 3092 00da 2046     		mov	r0, r4
 3093 00dc FFF7FEFF 		bl	stm32f1_probe
 3094              	.LVL367:
 3095 00e0 0546     		mov	r5, r0
 3096              	.LVL368:
 3097 00e2 0646     		mov	r6, r0
 3098              	.LVL369:
 3099 00e4 90BB     		cbnz	r0, .L318
 3100              	.L311:
 3101              		.loc 1 333 0 is_stmt 0 discriminator 2
 3102 00e6 2046     		mov	r0, r4
 3103 00e8 FFF7FEFF 		bl	target_check_error
 3104              	.LVL370:
 3105              		.loc 1 334 0 is_stmt 1 discriminator 2
 3106 00ec 2046     		mov	r0, r4
 3107 00ee FFF7FEFF 		bl	stm32f4_probe
 3108              	.LVL371:
 3109 00f2 0546     		mov	r5, r0
 3110 00f4 0746     		mov	r7, r0
 3111 00f6 0028     		cmp	r0, #0
 3112 00f8 41D1     		bne	.L315
 3113 00fa 2046     		mov	r0, r4
 3114 00fc FFF7FEFF 		bl	target_check_error
 3115              	.LVL372:
 3116              		.loc 1 335 0 discriminator 2
 3117 0100 2046     		mov	r0, r4
 3118 0102 FFF7FEFF 		bl	stm32h7_probe
 3119              	.LVL373:
 3120 0106 0546     		mov	r5, r0
 3121 0108 0646     		mov	r6, r0
 3122 010a 0028     		cmp	r0, #0
 3123 010c 3ED1     		bne	.L314
 3124 010e 2046     		mov	r0, r4
 3125 0110 FFF7FEFF 		bl	target_check_error
 3126              	.LVL374:
 3127              		.loc 1 336 0 discriminator 2
 3128 0114 2046     		mov	r0, r4
 3129 0116 FFF7FEFF 		bl	stm32l0_probe
 3130              	.LVL375:
 3131 011a 0546     		mov	r5, r0
 3132 011c 0746     		mov	r7, r0
 3133 011e 70BB     		cbnz	r0, .L315
 3134 0120 2046     		mov	r0, r4
 3135 0122 FFF7FEFF 		bl	target_check_error
ARM GAS  /tmp/cccFXynL.s 			page 56


 3136              	.LVL376:
 3137              		.loc 1 337 0 discriminator 2
 3138 0126 2046     		mov	r0, r4
 3139 0128 FFF7FEFF 		bl	stm32l4_probe
 3140              	.LVL377:
 3141 012c 0546     		mov	r5, r0
 3142 012e 0646     		mov	r6, r0
 3143 0130 60BB     		cbnz	r0, .L314
 3144 0132 2046     		mov	r0, r4
 3145 0134 FFF7FEFF 		bl	target_check_error
 3146              	.LVL378:
 3147              		.loc 1 338 0 discriminator 2
 3148 0138 2046     		mov	r0, r4
 3149 013a FFF7FEFF 		bl	nrf51_probe
 3150              	.LVL379:
 3151 013e 0546     		mov	r5, r0
 3152 0140 E8B9     		cbnz	r0, .L315
 3153 0142 2046     		mov	r0, r4
 3154 0144 FFF7FEFF 		bl	target_check_error
 3155              	.LVL380:
 3156              		.loc 1 341 0 discriminator 2
 3157 0148 0125     		movs	r5, #1
 3158 014a 03E0     		b	.L305
 3159              	.L318:
 3160              		.loc 1 333 0 discriminator 1
 3161 014c 2046     		mov	r0, r4
 3162 014e 0021     		movs	r1, #0
 3163 0150 FFF7FEFF 		bl	target_halt_resume
 3164              	.LVL381:
 3165              	.L305:
 3166              		.loc 1 342 0
 3167 0154 2846     		mov	r0, r5
 3168 0156 BDE8F081 		pop	{r4, r5, r6, r7, r8, pc}
 3169              	.LVL382:
 3170              	.L317:
 3171              		.loc 1 327 0
 3172 015a 2046     		mov	r0, r4
 3173 015c FFF7FEFF 		bl	cortexm_forced_halt
 3174              	.LVL383:
 3175 0160 0546     		mov	r5, r0
 3176              	.LVL384:
 3177 0162 0028     		cmp	r0, #0
 3178 0164 F6D0     		beq	.L305
 3179              		.loc 1 333 0
 3180 0166 2046     		mov	r0, r4
 3181 0168 FFF7FEFF 		bl	stm32f1_probe
 3182              	.LVL385:
 3183 016c 0546     		mov	r5, r0
 3184 016e 0646     		mov	r6, r0
 3185              	.LVL386:
 3186 0170 0028     		cmp	r0, #0
 3187 0172 B8D0     		beq	.L311
 3188 0174 EAE7     		b	.L318
 3189              	.LVL387:
 3190              	.L299:
 3191              		.loc 1 319 0
 3192 0176 2046     		mov	r0, r4
ARM GAS  /tmp/cccFXynL.s 			page 57


 3193              	.LVL388:
 3194 0178 FFF7FEFF 		bl	target_check_error
 3195              	.LVL389:
 3196 017c A8E7     		b	.L300
 3197              	.LVL390:
 3198              	.L315:
 3199              		.loc 1 338 0 discriminator 1
 3200 017e 2046     		mov	r0, r4
 3201 0180 3146     		mov	r1, r6
 3202 0182 FFF7FEFF 		bl	target_halt_resume
 3203              	.LVL391:
 3204              		.loc 1 342 0 discriminator 1
 3205 0186 2846     		mov	r0, r5
 3206 0188 BDE8F081 		pop	{r4, r5, r6, r7, r8, pc}
 3207              	.LVL392:
 3208              	.L314:
 3209              		.loc 1 337 0 discriminator 1
 3210 018c 2046     		mov	r0, r4
 3211 018e 3946     		mov	r1, r7
 3212 0190 FFF7FEFF 		bl	target_halt_resume
 3213              	.LVL393:
 3214              		.loc 1 342 0 discriminator 1
 3215 0194 2846     		mov	r0, r5
 3216 0196 BDE8F081 		pop	{r4, r5, r6, r7, r8, pc}
 3217              	.LVL394:
 3218              	.L320:
 3219 019a 00BF     		.align	2
 3220              	.L319:
 3221 019c 00000000 		.word	cortexm_mem_read
 3222 01a0 00000000 		.word	cortexm_mem_write
 3223 01a4 00000000 		.word	.LANCHOR4
 3224 01a8 00000000 		.word	cortexm_check_error
 3225 01ac 00000000 		.word	.LANCHOR5
 3226 01b0 00000000 		.word	cortexm_regs_read
 3227 01b4 00000000 		.word	cortexm_detach
 3228 01b8 00000000 		.word	cortexm_halt_request
 3229 01bc 00000000 		.word	cortexm_halt_poll
 3230 01c0 00000000 		.word	cortexm_reset
 3231 01c4 00000000 		.word	cortexm_breakwatch_set
 3232 01c8 00000000 		.word	cortexm_breakwatch_clear
 3233 01cc 00000000 		.word	.LANCHOR6
 3234 01d0 88ED00E0 		.word	-536810104
 3235 01d4 00000000 		.word	.LANCHOR7
 3236 01d8 01040001 		.word	16778241
 3237 01dc 7CED00E0 		.word	-536810116
 3238 01e0 00000000 		.word	cortexm_priv_free
 3239 01e4 00000000 		.word	cortexm_attach
 3240 01e8 00000000 		.word	cortexm_regs_write
 3241 01ec 00000000 		.word	cortexm_halt_resume
 3242              		.cfi_endproc
 3243              	.LFE270:
 3244              		.size	cortexm_probe, .-cortexm_probe
 3245              		.section	.text.cortexm_mem_write_sized,"ax",%progbits
 3246              		.align	1
 3247              		.p2align 4,,15
 3248              		.global	cortexm_mem_write_sized
 3249              		.syntax unified
ARM GAS  /tmp/cccFXynL.s 			page 58


 3250              		.thumb
 3251              		.thumb_func
 3252              		.fpu fpv4-sp-d16
 3253              		.type	cortexm_mem_write_sized, %function
 3254              	cortexm_mem_write_sized:
 3255              	.LFB275:
 3256              		.loc 1 481 0
 3257              		.cfi_startproc
 3258              		@ args = 4, pretend = 0, frame = 0
 3259              		@ frame_needed = 0, uses_anonymous_args = 0
 3260              	.LVL395:
 3261 0000 2DE9F041 		push	{r4, r5, r6, r7, r8, lr}
 3262              		.cfi_def_cfa_offset 24
 3263              		.cfi_offset 4, -24
 3264              		.cfi_offset 5, -20
 3265              		.cfi_offset 6, -16
 3266              		.cfi_offset 7, -12
 3267              		.cfi_offset 8, -8
 3268              		.cfi_offset 14, -4
 3269 0004 82B0     		sub	sp, sp, #8
 3270              		.cfi_def_cfa_offset 32
 3271              		.loc 1 481 0
 3272 0006 0446     		mov	r4, r0
 3273              		.loc 1 482 0
 3274 0008 0127     		movs	r7, #1
 3275              		.loc 1 481 0
 3276 000a 0D46     		mov	r5, r1
 3277              		.loc 1 482 0
 3278 000c 806D     		ldr	r0, [r0, #88]
 3279              	.LVL396:
 3280 000e 0097     		str	r7, [sp]
 3281              		.loc 1 481 0
 3282 0010 1646     		mov	r6, r2
 3283              		.loc 1 482 0
 3284 0012 0A46     		mov	r2, r1
 3285              	.LVL397:
 3286 0014 04F16C01 		add	r1, r4, #108
 3287              	.LVL398:
 3288              		.loc 1 481 0
 3289 0018 1F46     		mov	r7, r3
 3290 001a 9DF82080 		ldrb	r8, [sp, #32]	@ zero_extendqisi2
 3291              		.loc 1 482 0
 3292 001e FFF7FEFF 		bl	cortexm_cache_clean.isra.1
 3293              	.LVL399:
 3294              	.LBB147:
 3295              	.LBB148:
 3296              		.loc 1 191 0
 3297 0022 E36E     		ldr	r3, [r4, #108]
 3298              	.LBE148:
 3299              	.LBE147:
 3300              		.loc 1 483 0
 3301 0024 3246     		mov	r2, r6
 3302 0026 1868     		ldr	r0, [r3]
 3303 0028 CDF80080 		str	r8, [sp]
 3304 002c 3B46     		mov	r3, r7
 3305 002e 2946     		mov	r1, r5
 3306 0030 FFF7FEFF 		bl	adiv5_mem_write_sized
ARM GAS  /tmp/cccFXynL.s 			page 59


 3307              	.LVL400:
 3308              		.loc 1 484 0
 3309 0034 2046     		mov	r0, r4
 3310 0036 FFF7FEFF 		bl	target_check_error
 3311              	.LVL401:
 3312              		.loc 1 485 0
 3313 003a 02B0     		add	sp, sp, #8
 3314              		.cfi_def_cfa_offset 24
 3315              		@ sp needed
 3316 003c BDE8F081 		pop	{r4, r5, r6, r7, r8, pc}
 3317              		.cfi_endproc
 3318              	.LFE275:
 3319              		.size	cortexm_mem_write_sized, .-cortexm_mem_write_sized
 3320              		.section	.text.cortexm_run_stub,"ax",%progbits
 3321              		.align	1
 3322              		.p2align 4,,15
 3323              		.global	cortexm_run_stub
 3324              		.syntax unified
 3325              		.thumb
 3326              		.thumb_func
 3327              		.fpu fpv4-sp-d16
 3328              		.type	cortexm_run_stub, %function
 3329              	cortexm_run_stub:
 3330              	.LFB283:
 3331              		.loc 1 698 0
 3332              		.cfi_startproc
 3333              		@ args = 8, pretend = 0, frame = 0
 3334              		@ frame_needed = 1, uses_anonymous_args = 0
 3335              	.LVL402:
 3336 0000 2DE9F845 		push	{r3, r4, r5, r6, r7, r8, r10, lr}
 3337              		.cfi_def_cfa_offset 32
 3338              		.cfi_offset 3, -32
 3339              		.cfi_offset 4, -28
 3340              		.cfi_offset 5, -24
 3341              		.cfi_offset 6, -20
 3342              		.cfi_offset 7, -16
 3343              		.cfi_offset 8, -12
 3344              		.cfi_offset 10, -8
 3345              		.cfi_offset 14, -4
 3346 0004 0D46     		mov	r5, r1
 3347              		.loc 1 699 0
 3348 0006 C169     		ldr	r1, [r0, #28]
 3349              	.LVL403:
 3350 0008 21F00301 		bic	r1, r1, #3
 3351              		.loc 1 698 0
 3352 000c 0446     		mov	r4, r0
 3353              	.LVL404:
 3354              		.loc 1 699 0
 3355 000e 01F10A00 		add	r0, r1, #10
 3356              	.LVL405:
 3357 0012 20F00700 		bic	r0, r0, #7
 3358              		.loc 1 698 0
 3359 0016 00AF     		add	r7, sp, #0
 3360              		.cfi_def_cfa_register 7
 3361              		.loc 1 699 0
 3362 0018 ADEB000D 		sub	sp, sp, r0
 3363 001c E846     		mov	r8, sp
ARM GAS  /tmp/cccFXynL.s 			page 60


 3364              	.LVL406:
 3365              		.loc 1 698 0
 3366 001e 1E46     		mov	r6, r3
 3367 0020 9246     		mov	r10, r2
 3368              		.loc 1 701 0
 3369 0022 4046     		mov	r0, r8
 3370 0024 0A46     		mov	r2, r1
 3371              	.LVL407:
 3372 0026 0021     		movs	r1, #0
 3373 0028 FFF7FEFF 		bl	memset
 3374              	.LVL408:
 3375              		.loc 1 703 0
 3376 002c C8E900A6 		strd	r10, r6, [r8]
 3377              		.loc 1 704 0
 3378 0030 3E6A     		ldr	r6, [r7, #32]
 3379              	.LVL409:
 3380 0032 C8F80860 		str	r6, [r8, #8]
 3381              		.loc 1 707 0
 3382 0036 4FF08073 		mov	r3, #16777216
 3383              		.loc 1 708 0
 3384 003a 0022     		movs	r2, #0
 3385              		.loc 1 710 0
 3386 003c 2046     		mov	r0, r4
 3387              		.loc 1 705 0
 3388 003e 7E6A     		ldr	r6, [r7, #36]
 3389 0040 C8F80C60 		str	r6, [r8, #12]
 3390              		.loc 1 710 0
 3391 0044 4146     		mov	r1, r8
 3392              		.loc 1 707 0
 3393 0046 C8E90F53 		strd	r5, r3, [r8, #60]
 3394              		.loc 1 708 0
 3395 004a C8F84C20 		str	r2, [r8, #76]
 3396              		.loc 1 710 0
 3397 004e FFF7FEFF 		bl	cortexm_regs_write
 3398              	.LVL410:
 3399              		.loc 1 712 0
 3400 0052 2046     		mov	r0, r4
 3401 0054 FFF7FEFF 		bl	target_check_error
 3402              	.LVL411:
 3403 0058 20BB     		cbnz	r0, .L329
 3404              		.loc 1 717 0
 3405 005a 0146     		mov	r1, r0
 3406 005c 2046     		mov	r0, r4
 3407 005e FFF7FEFF 		bl	cortexm_halt_resume
 3408              	.LVL412:
 3409              	.L325:
 3410              		.loc 1 718 0 discriminator 1
 3411 0062 0021     		movs	r1, #0
 3412 0064 2046     		mov	r0, r4
 3413 0066 FFF7FEFF 		bl	cortexm_halt_poll
 3414              	.LVL413:
 3415 006a 0028     		cmp	r0, #0
 3416 006c F9D0     		beq	.L325
 3417              		.loc 1 721 0
 3418 006e 0128     		cmp	r0, #1
 3419 0070 10D0     		beq	.L333
 3420              		.loc 1 724 0
ARM GAS  /tmp/cccFXynL.s 			page 61


 3421 0072 0428     		cmp	r0, #4
 3422 0074 19D1     		bne	.L328
 3423              		.loc 1 727 0
 3424 0076 2046     		mov	r0, r4
 3425              	.LVL414:
 3426 0078 FFF7FEFF 		bl	cortexm_pc_read
 3427              	.LVL415:
 3428              		.loc 1 728 0
 3429 007c 0146     		mov	r1, r0
 3430 007e 2046     		mov	r0, r4
 3431              	.LVL416:
 3432 0080 FFF7FEFF 		bl	target_mem_read16
 3433              	.LVL417:
 3434              		.loc 1 729 0
 3435 0084 C0F30F23 		ubfx	r3, r0, #8, #16
 3436 0088 BE2B     		cmp	r3, #190
 3437 008a 0ED1     		bne	.L328
 3438              		.loc 1 732 0
 3439 008c C0B2     		uxtb	r0, r0
 3440              	.LVL418:
 3441              	.L323:
 3442              		.loc 1 733 0
 3443 008e BD46     		mov	sp, r7
 3444              		.cfi_remember_state
 3445              		.cfi_def_cfa_register 13
 3446              		@ sp needed
 3447 0090 BDE8F885 		pop	{r3, r4, r5, r6, r7, r8, r10, pc}
 3448              	.LVL419:
 3449              	.L333:
 3450              		.cfi_restore_state
 3451              		.loc 1 722 0
 3452 0094 0649     		ldr	r1, .L334
 3453 0096 FFF7FEFF 		bl	raise_exception
 3454              	.LVL420:
 3455              		.loc 1 725 0
 3456 009a 6FF00100 		mvn	r0, #1
 3457              		.loc 1 733 0
 3458 009e BD46     		mov	sp, r7
 3459              		.cfi_remember_state
 3460              		.cfi_def_cfa_register 13
 3461              		@ sp needed
 3462 00a0 BDE8F885 		pop	{r3, r4, r5, r6, r7, r8, r10, pc}
 3463              	.LVL421:
 3464              	.L329:
 3465              		.cfi_restore_state
 3466              		.loc 1 713 0
 3467 00a4 4FF0FF30 		mov	r0, #-1
 3468 00a8 F1E7     		b	.L323
 3469              	.L328:
 3470              		.loc 1 725 0
 3471 00aa 6FF00100 		mvn	r0, #1
 3472 00ae EEE7     		b	.L323
 3473              	.L335:
 3474              		.align	2
 3475              	.L334:
 3476 00b0 00000000 		.word	.LC18
 3477              		.cfi_endproc
ARM GAS  /tmp/cccFXynL.s 			page 62


 3478              	.LFE283:
 3479              		.size	cortexm_run_stub, .-cortexm_run_stub
 3480              		.global	cortexm_cmd_list
 3481              		.section	.rodata
 3482              		.align	2
 3483              		.set	.LANCHOR0,. + 0
 3484              	.LC10:
 3485 0000 00000000 		.word	.LC0
 3486 0004 00000000 		.word	0
 3487 0008 00000000 		.word	0
 3488 000c 00000000 		.word	0
 3489 0010 08000000 		.word	.LC1
 3490 0014 0C000000 		.word	.LC2
 3491 0018 14000000 		.word	.LC3
 3492 001c 18000000 		.word	.LC4
 3493 0020 20000000 		.word	.LC5
 3494 0024 24000000 		.word	.LC6
 3495 0028 28000000 		.word	.LC7
 3496              	.LC9:
 3497 002c 00000000 		.word	0
 3498 0030 02000000 		.word	2
 3499 0034 01060000 		.word	1537
 3500 0038 02060000 		.word	1538
 3501 003c 09020000 		.word	521
 3502 0040 0A020000 		.word	522
 3503              		.section	.rodata.CSWTCH.44,"a",%progbits
 3504              		.align	2
 3505              		.set	.LANCHOR1,. + 0
 3506              		.type	CSWTCH.44, %object
 3507              		.size	CSWTCH.44, 16
 3508              	CSWTCH.44:
 3509 0000 00000000 		.word	0
 3510 0004 01000000 		.word	1
 3511 0008 FFFFFFFF 		.word	-1
 3512 000c 03000000 		.word	3
 3513              		.section	.rodata.cortexm_cmd_list,"a",%progbits
 3514              		.align	2
 3515              		.set	.LANCHOR6,. + 0
 3516              		.type	cortexm_cmd_list, %object
 3517              		.size	cortexm_cmd_list, 24
 3518              	cortexm_cmd_list:
 3519 0000 30000000 		.word	.LC19
 3520 0004 00000000 		.word	cortexm_vector_catch
 3521 0008 40000000 		.word	.LC20
 3522 000c 00000000 		.word	0
 3523 0010 00000000 		.word	0
 3524 0014 00000000 		.word	0
 3525              		.section	.rodata.cortexm_driver_str,"a",%progbits
 3526              		.align	2
 3527              		.set	.LANCHOR4,. + 0
 3528              		.type	cortexm_driver_str, %object
 3529              		.size	cortexm_driver_str, 13
 3530              	cortexm_driver_str:
 3531 0000 41524D20 		.ascii	"ARM Cortex-M\000"
 3531      436F7274 
 3531      65782D4D 
 3531      00
ARM GAS  /tmp/cccFXynL.s 			page 63


 3532              		.section	.rodata.cortexm_halt_poll.str1.4,"aMS",%progbits,1
 3533              		.align	2
 3534              	.LC16:
 3535 0000 73797363 		.ascii	"syscall 0lx%lx (%lx %lx %lx %lx)\012\000"
 3535      616C6C20 
 3535      306C7825 
 3535      6C782028 
 3535      256C7820 
 3536 0022 0000     		.space	2
 3537              	.LC17:
 3538 0024 3A747400 		.ascii	":tt\000"
 3539              		.section	.rodata.cortexm_halt_request.str1.4,"aMS",%progbits,1
 3540              		.align	2
 3541              	.LC15:
 3542 0000 54696D65 		.ascii	"Timeout sending interrupt, is target in WFI?\012\000"
 3542      6F757420 
 3542      73656E64 
 3542      696E6720 
 3542      696E7465 
 3543              		.section	.rodata.cortexm_run_stub.str1.4,"aMS",%progbits,1
 3544              		.align	2
 3545              	.LC18:
 3546 0000 54617267 		.ascii	"Target lost in stub\000"
 3546      6574206C 
 3546      6F737420 
 3546      696E2073 
 3546      74756200 
 3547              		.section	.rodata.cortexm_vector_catch.str1.4,"aMS",%progbits,1
 3548              		.align	2
 3549              	.LC11:
 3550 0000 75736167 		.ascii	"usage: monitor vector_catch (enable|disable) (hard|"
 3550      653A206D 
 3550      6F6E6974 
 3550      6F722076 
 3550      6563746F 
 3551 0033 696E747C 		.ascii	"int|bus|stat|chk|nocp|mm|reset)\012\000"
 3551      6275737C 
 3551      73746174 
 3551      7C63686B 
 3551      7C6E6F63 
 3552              	.LC12:
 3553 0054 43617463 		.ascii	"Catching vectors: \000"
 3553      68696E67 
 3553      20766563 
 3553      746F7273 
 3553      3A2000
 3554 0067 00       		.space	1
 3555              	.LC13:
 3556 0068 25732000 		.ascii	"%s \000"
 3557              	.LC14:
 3558 006c 0A00     		.ascii	"\012\000"
 3559              		.section	.rodata.regnum_cortex_m,"a",%progbits
 3560              		.align	2
 3561              		.set	.LANCHOR2,. + 0
 3562              		.type	regnum_cortex_m, %object
 3563              		.size	regnum_cortex_m, 80
 3564              	regnum_cortex_m:
ARM GAS  /tmp/cccFXynL.s 			page 64


 3565 0000 00000000 		.word	0
 3566 0004 01000000 		.word	1
 3567 0008 02000000 		.word	2
 3568 000c 03000000 		.word	3
 3569 0010 04000000 		.word	4
 3570 0014 05000000 		.word	5
 3571 0018 06000000 		.word	6
 3572 001c 07000000 		.word	7
 3573 0020 08000000 		.word	8
 3574 0024 09000000 		.word	9
 3575 0028 0A000000 		.word	10
 3576 002c 0B000000 		.word	11
 3577 0030 0C000000 		.word	12
 3578 0034 0D000000 		.word	13
 3579 0038 0E000000 		.word	14
 3580 003c 0F000000 		.word	15
 3581 0040 10000000 		.word	16
 3582 0044 11000000 		.word	17
 3583 0048 12000000 		.word	18
 3584 004c 14000000 		.word	20
 3585              		.section	.rodata.regnum_cortex_mf,"a",%progbits
 3586              		.align	2
 3587              		.set	.LANCHOR3,. + 0
 3588              		.type	regnum_cortex_mf, %object
 3589              		.size	regnum_cortex_mf, 132
 3590              	regnum_cortex_mf:
 3591 0000 21000000 		.word	33
 3592 0004 40000000 		.word	64
 3593 0008 41000000 		.word	65
 3594 000c 42000000 		.word	66
 3595 0010 43000000 		.word	67
 3596 0014 44000000 		.word	68
 3597 0018 45000000 		.word	69
 3598 001c 46000000 		.word	70
 3599 0020 47000000 		.word	71
 3600 0024 48000000 		.word	72
 3601 0028 49000000 		.word	73
 3602 002c 4A000000 		.word	74
 3603 0030 4B000000 		.word	75
 3604 0034 4C000000 		.word	76
 3605 0038 4D000000 		.word	77
 3606 003c 4E000000 		.word	78
 3607 0040 4F000000 		.word	79
 3608 0044 50000000 		.word	80
 3609 0048 51000000 		.word	81
 3610 004c 52000000 		.word	82
 3611 0050 53000000 		.word	83
 3612 0054 54000000 		.word	84
 3613 0058 55000000 		.word	85
 3614 005c 56000000 		.word	86
 3615 0060 57000000 		.word	87
 3616 0064 58000000 		.word	88
 3617 0068 59000000 		.word	89
 3618 006c 5A000000 		.word	90
 3619 0070 5B000000 		.word	91
 3620 0074 5C000000 		.word	92
 3621 0078 5D000000 		.word	93
ARM GAS  /tmp/cccFXynL.s 			page 65


 3622 007c 5E000000 		.word	94
 3623 0080 5F000000 		.word	95
 3624              		.section	.rodata.str1.4,"aMS",%progbits,1
 3625              		.align	2
 3626              	.LC0:
 3627 0000 72657365 		.ascii	"reset\000"
 3627      7400
 3628 0006 0000     		.space	2
 3629              	.LC1:
 3630 0008 6D6D00   		.ascii	"mm\000"
 3631 000b 00       		.space	1
 3632              	.LC2:
 3633 000c 6E6F6370 		.ascii	"nocp\000"
 3633      00
 3634 0011 000000   		.space	3
 3635              	.LC3:
 3636 0014 63686B00 		.ascii	"chk\000"
 3637              	.LC4:
 3638 0018 73746174 		.ascii	"stat\000"
 3638      00
 3639 001d 000000   		.space	3
 3640              	.LC5:
 3641 0020 62757300 		.ascii	"bus\000"
 3642              	.LC6:
 3643 0024 696E7400 		.ascii	"int\000"
 3644              	.LC7:
 3645 0028 68617264 		.ascii	"hard\000"
 3645      00
 3646 002d 000000   		.space	3
 3647              	.LC19:
 3648 0030 76656374 		.ascii	"vector_catch\000"
 3648      6F725F63 
 3648      61746368 
 3648      00
 3649 003d 000000   		.space	3
 3650              	.LC20:
 3651 0040 43617463 		.ascii	"Catch exception vectors\000"
 3651      68206578 
 3651      63657074 
 3651      696F6E20 
 3651      76656374 
 3652              		.section	.rodata.tdesc_cortex_m,"a",%progbits
 3653              		.align	2
 3654              		.set	.LANCHOR5,. + 0
 3655              		.type	tdesc_cortex_m, %object
 3656              		.size	tdesc_cortex_m, 8
 3657              	tdesc_cortex_m:
 3658 0000 4E6F2064 		.ascii	"No desc\000"
 3658      65736300 
 3659              		.section	.rodata.tdesc_cortex_mf,"a",%progbits
 3660              		.align	2
 3661              		.set	.LANCHOR7,. + 0
 3662              		.type	tdesc_cortex_mf, %object
 3663              		.size	tdesc_cortex_mf, 8
 3664              	tdesc_cortex_mf:
 3665 0000 4E6F2064 		.ascii	"No desc\000"
 3665      65736300 
ARM GAS  /tmp/cccFXynL.s 			page 66


 3666              		.text
 3667              	.Letext0:
 3668              		.file 3 "/usr/arm-none-eabi/include/machine/_default_types.h"
 3669              		.file 4 "/usr/arm-none-eabi/include/sys/_stdint.h"
 3670              		.file 5 "/usr/lib/gcc/arm-none-eabi/7.3.1/include/stddef.h"
 3671              		.file 6 "/usr/arm-none-eabi/include/sys/lock.h"
 3672              		.file 7 "/usr/arm-none-eabi/include/sys/_types.h"
 3673              		.file 8 "/usr/arm-none-eabi/include/sys/reent.h"
 3674              		.file 9 "/usr/arm-none-eabi/include/stdlib.h"
 3675              		.file 10 "/usr/lib/gcc/arm-none-eabi/7.3.1/include/stdarg.h"
 3676              		.file 11 "<built-in>"
 3677              		.file 12 "/usr/arm-none-eabi/include/stdio.h"
 3678              		.file 13 "/usr/arm-none-eabi/include/sys/types.h"
 3679              		.file 14 "ChibiOS_3.0.5/os/rt/ports/ARMCMx/compilers/GCC/chtypes.h"
 3680              		.file 15 "ChibiOS_3.0.5/os/rt/include/chsystypes.h"
 3681              		.file 16 "ChibiOS_3.0.5/os/rt/include/chschd.h"
 3682              		.file 17 "ChibiOS_3.0.5/os/ext/CMSIS/include/core_cm4.h"
 3683              		.file 18 "ChibiOS_3.0.5/os/ext/CMSIS/ST/system_stm32f4xx.h"
 3684              		.file 19 "ChibiOS_3.0.5/os/ext/CMSIS/ST/stm32f407xx.h"
 3685              		.file 20 "ChibiOS_3.0.5/os/rt/ports/ARMCMx/chcore.h"
 3686              		.file 21 "ChibiOS_3.0.5/os/rt/ports/ARMCMx/chcore_v7m.h"
 3687              		.file 22 "ChibiOS_3.0.5/os/rt/include/chtm.h"
 3688              		.file 23 "ChibiOS_3.0.5/os/rt/include/chsem.h"
 3689              		.file 24 "ChibiOS_3.0.5/os/rt/include/chmtx.h"
 3690              		.file 25 "ChibiOS_3.0.5/os/rt/include/chregistry.h"
 3691              		.file 26 "ChibiOS_3.0.5/os/rt/include/chevents.h"
 3692              		.file 27 "ChibiOS_3.0.5/os/rt/include/chqueues.h"
 3693              		.file 28 "./datatypes.h"
 3694              		.file 29 "./conf_general.h"
 3695              		.file 30 "ChibiOS_3.0.5/os/hal/ports/STM32/STM32F4xx/stm32_dma.h"
 3696              		.file 31 "ChibiOS_3.0.5/os/hal/ports/STM32/LLD/GPIOv2/pal_lld.h"
 3697              		.file 32 "ChibiOS_3.0.5/os/hal/include/can.h"
 3698              		.file 33 "ChibiOS_3.0.5/os/hal/ports/STM32/LLD/can_lld.h"
 3699              		.file 34 "ChibiOS_3.0.5/os/hal/include/i2c.h"
 3700              		.file 35 "ChibiOS_3.0.5/os/hal/ports/STM32/LLD/I2Cv1/i2c_lld.h"
 3701              		.file 36 "ChibiOS_3.0.5/os/hal/include/icu.h"
 3702              		.file 37 "ChibiOS_3.0.5/os/hal/ports/STM32/LLD/TIMv1/icu_lld.h"
 3703              		.file 38 "ChibiOS_3.0.5/os/hal/ports/STM32/LLD/TIMv1/stm32_tim.h"
 3704              		.file 39 "ChibiOS_3.0.5/os/hal/include/serial.h"
 3705              		.file 40 "ChibiOS_3.0.5/os/hal/ports/STM32/LLD/USARTv1/serial_lld.h"
 3706              		.file 41 "ChibiOS_3.0.5/os/hal/include/spi.h"
 3707              		.file 42 "ChibiOS_3.0.5/os/hal/ports/STM32/LLD/SPIv1/spi_lld.h"
 3708              		.file 43 "ChibiOS_3.0.5/os/hal/include/usb.h"
 3709              		.file 44 "ChibiOS_3.0.5/os/hal/ports/STM32/LLD/OTGv1/usb_lld.h"
 3710              		.file 45 "ChibiOS_3.0.5/os/hal/ports/STM32/LLD/OTGv1/stm32_otg.h"
 3711              		.file 46 "./commands.h"
 3712              		.file 47 "blackmagic/platform.h"
 3713              		.file 48 "/usr/arm-none-eabi/include/machine/setjmp.h"
 3714              		.file 49 "blackmagic/exception.h"
 3715              		.file 50 "blackmagic/target/jtag_scan.h"
 3716              		.file 51 "blackmagic/target.h"
 3717              		.file 52 "blackmagic/target/target_internal.h"
 3718              		.file 53 "blackmagic/target/cortexm.h"
 3719              		.file 54 "/usr/arm-none-eabi/include/sys/unistd.h"
 3720              		.file 55 "/usr/arm-none-eabi/include/string.h"
 3721              		.file 56 "/usr/arm-none-eabi/include/setjmp.h"
 3722              		.file 57 "blackmagic/platform_support.h"
ARM GAS  /tmp/cccFXynL.s 			page 67


 3723              		.file 58 "blackmagic/timing.h"