ARM GAS  /tmp/ccWyHV08.s 			page 1


   1              		.cpu cortex-m4
   2              		.eabi_attribute 27, 1
   3              		.eabi_attribute 28, 1
   4              		.eabi_attribute 20, 1
   5              		.eabi_attribute 21, 1
   6              		.eabi_attribute 23, 3
   7              		.eabi_attribute 24, 1
   8              		.eabi_attribute 25, 1
   9              		.eabi_attribute 26, 1
  10              		.eabi_attribute 30, 2
  11              		.eabi_attribute 34, 1
  12              		.eabi_attribute 18, 4
  13              		.file	"digital_filter.c"
  14              		.text
  15              	.Ltext0:
  16              		.cfi_sections	.debug_frame
  17              		.global	__aeabi_f2d
  18              		.global	__aeabi_d2f
  19              		.section	.text.filter_fft,"ax",%progbits
  20              		.align	1
  21              		.p2align 4,,15
  22              		.global	filter_fft
  23              		.syntax unified
  24              		.thumb
  25              		.thumb_func
  26              		.fpu fpv4-sp-d16
  27              		.type	filter_fft, %function
  28              	filter_fft:
  29              	.LFB0:
  30              		.file 1 "digital_filter.c"
  31              		.loc 1 25 0
  32              		.cfi_startproc
  33              		@ args = 0, pretend = 0, frame = 16
  34              		@ frame_needed = 0, uses_anonymous_args = 0
  35              	.LVL0:
  36 0000 2DE9F04F 		push	{r4, r5, r6, r7, r8, r9, r10, fp, lr}
  37              		.cfi_def_cfa_offset 36
  38              		.cfi_offset 4, -36
  39              		.cfi_offset 5, -32
  40              		.cfi_offset 6, -28
  41              		.cfi_offset 7, -24
  42              		.cfi_offset 8, -20
  43              		.cfi_offset 9, -16
  44              		.cfi_offset 10, -12
  45              		.cfi_offset 11, -8
  46              		.cfi_offset 14, -4
  47 0004 2DED068B 		vpush.64	{d8, d9, d10}
  48              		.cfi_def_cfa_offset 60
  49              		.cfi_offset 80, -60
  50              		.cfi_offset 81, -56
  51              		.cfi_offset 82, -52
  52              		.cfi_offset 83, -48
  53              		.cfi_offset 84, -44
  54              		.cfi_offset 85, -40
  55              		.loc 1 30 0
  56 0008 0126     		movs	r6, #1
  57              		.loc 1 25 0
ARM GAS  /tmp/ccWyHV08.s 			page 2


  58 000a 85B0     		sub	sp, sp, #20
  59              		.cfi_def_cfa_offset 80
  60              		.loc 1 30 0
  61 000c 8E40     		lsls	r6, r6, r1
  62              	.LVL1:
  63              		.loc 1 35 0
  64 000e 012E     		cmp	r6, #1
  65              		.loc 1 25 0
  66 0010 0091     		str	r1, [sp]
  67 0012 CDE90202 		strd	r0, r2, [sp, #8]
  68 0016 0193     		str	r3, [sp, #4]
  69              	.LVL2:
  70              		.loc 1 35 0
  71 0018 2FDD     		ble	.L2
  72 001a 1446     		mov	r4, r2
  73 001c 1846     		mov	r0, r3
  74              	.LVL3:
  75              		.loc 1 34 0
  76 001e 0022     		movs	r2, #0
  77              	.LVL4:
  78 0020 2346     		mov	r3, r4
  79              	.LVL5:
  80 0022 DDF80490 		ldr	r9, [sp, #4]
  81 0026 7510     		asrs	r5, r6, #1
  82              	.LVL6:
  83              		.loc 1 35 0
  84 0028 1146     		mov	r1, r2
  85              	.LVL7:
  86 002a 0434     		adds	r4, r4, #4
  87              	.LVL8:
  88 002c 0430     		adds	r0, r0, #4
  89              	.LVL9:
  90 002e 771E     		subs	r7, r6, #1
  91 0030 9846     		mov	r8, r3
  92              	.LVL10:
  93              	.L3:
  94              		.loc 1 45 0
  95 0032 9542     		cmp	r5, r2
  96 0034 2B46     		mov	r3, r5
  97 0036 03DC     		bgt	.L7
  98              	.LVL11:
  99              	.L8:
 100              		.loc 1 46 0
 101 0038 D21A     		subs	r2, r2, r3
 102              	.LVL12:
 103              		.loc 1 47 0
 104 003a 5B10     		asrs	r3, r3, #1
 105              	.LVL13:
 106              		.loc 1 45 0
 107 003c 9A42     		cmp	r2, r3
 108 003e FBDA     		bge	.L8
 109              	.L7:
 110              		.loc 1 35 0 discriminator 2
 111 0040 0131     		adds	r1, r1, #1
 112 0042 B942     		cmp	r1, r7
 113              		.loc 1 49 0 discriminator 2
 114 0044 1A44     		add	r2, r2, r3
ARM GAS  /tmp/ccWyHV08.s 			page 3


 115              	.LVL14:
 116              		.loc 1 35 0 discriminator 2
 117 0046 18D0     		beq	.L2
 118              		.loc 1 36 0
 119 0048 8A42     		cmp	r2, r1
 120 004a 13DD     		ble	.L6
 121              		.loc 1 39 0
 122 004c 9300     		lsls	r3, r2, #2
 123              	.LVL15:
 124 004e 08EB030C 		add	ip, r8, r3
 125              		.loc 1 40 0
 126 0052 4B44     		add	r3, r3, r9
 127              		.loc 1 39 0
 128 0054 DCF800B0 		ldr	fp, [ip]	@ float
 129              		.loc 1 37 0
 130 0058 D4F800A0 		ldr	r10, [r4]	@ float
 131              	.LVL16:
 132              		.loc 1 38 0
 133 005c D0F800E0 		ldr	lr, [r0]	@ float
 134              	.LVL17:
 135              		.loc 1 39 0
 136 0060 C4F800B0 		str	fp, [r4]	@ float
 137              		.loc 1 40 0
 138 0064 D3F800B0 		ldr	fp, [r3]	@ float
 139 0068 C0F800B0 		str	fp, [r0]	@ float
 140              		.loc 1 41 0
 141 006c CCF800A0 		str	r10, [ip]	@ float
 142              		.loc 1 42 0
 143 0070 C3F800E0 		str	lr, [r3]	@ float
 144              	.LVL18:
 145              	.L6:
 146 0074 0434     		adds	r4, r4, #4
 147 0076 0430     		adds	r0, r0, #4
 148 0078 DBE7     		b	.L3
 149              	.LVL19:
 150              	.L2:
 151              		.loc 1 56 0
 152 007a 009B     		ldr	r3, [sp]
 153 007c 002B     		cmp	r3, #0
 154 007e 40F39480 		ble	.L5
 155              		.loc 1 54 0
 156 0082 9FED5AAA 		vldr.32	s20, .L33
 157              		.loc 1 53 0
 158 0086 FFEE009A 		vmov.f32	s19, #-1.0e+0
 159              		.loc 1 60 0
 160 008a B0EE4A9A 		vmov.f32	s18, s20
 161              		.loc 1 55 0
 162 008e 4FF0010A 		mov	r10, #1
 163              		.loc 1 56 0
 164 0092 0027     		movs	r7, #0
 165              		.loc 1 59 0
 166 0094 F7EE008A 		vmov.f32	s17, #1.0e+0
 167              		.loc 1 75 0
 168 0098 B6EE008A 		vmov.f32	s16, #5.0e-1
 169              	.LVL20:
 170              	.L4:
 171              		.loc 1 61 0
ARM GAS  /tmp/ccWyHV08.s 			page 4


 172 009c BAF1000F 		cmp	r10, #0
 173              		.loc 1 58 0
 174 00a0 4FEA4A08 		lsl	r8, r10, #1
 175              	.LVL21:
 176              		.loc 1 61 0
 177 00a4 53DD     		ble	.L10
 178 00a6 DDF80C90 		ldr	r9, [sp, #12]
 179 00aa DDF804E0 		ldr	lr, [sp, #4]
 180 00ae 4FEACA04 		lsl	r4, r10, #3
 181 00b2 4FEA8A0B 		lsl	fp, r10, #2
 182              		.loc 1 60 0
 183 00b6 B0EE495A 		vmov.f32	s10, s18
 184              		.loc 1 59 0
 185 00ba F7EE004A 		vmov.f32	s9, #1.0e+0
 186              		.loc 1 61 0
 187 00be 4FF0000C 		mov	ip, #0
 188              	.LVL22:
 189              	.L11:
 190              		.loc 1 62 0
 191 00c2 6645     		cmp	r6, ip
 192 00c4 31DD     		ble	.L14
 193 00c6 0BEB0900 		add	r0, fp, r9
 194 00ca 0BEB0E01 		add	r1, fp, lr
 195 00ce 7246     		mov	r2, lr
 196 00d0 4B46     		mov	r3, r9
 197 00d2 6546     		mov	r5, ip
 198              	.LVL23:
 199              	.L12:
 200              		.loc 1 64 0 discriminator 3
 201 00d4 91ED006A 		vldr.32	s12, [r1]
 202 00d8 D0ED005A 		vldr.32	s11, [r0]
 203              		.loc 1 66 0 discriminator 3
 204 00dc D3ED006A 		vldr.32	s13, [r3]
 205              		.loc 1 64 0 discriminator 3
 206 00e0 25EE467A 		vnmul.f32	s14, s10, s12
 207              		.loc 1 65 0 discriminator 3
 208 00e4 65EE857A 		vmul.f32	s15, s11, s10
 209              		.loc 1 64 0 discriminator 3
 210 00e8 A5EEA47A 		vfma.f32	s14, s11, s9
 211              	.LVL24:
 212              		.loc 1 62 0 discriminator 3
 213 00ec 4544     		add	r5, r5, r8
 214              	.LVL25:
 215 00ee AE42     		cmp	r6, r5
 216              		.loc 1 65 0 discriminator 3
 217 00f0 E6EE247A 		vfma.f32	s15, s12, s9
 218              	.LVL26:
 219              		.loc 1 66 0 discriminator 3
 220 00f4 76EEC76A 		vsub.f32	s13, s13, s14
 221 00f8 C0ED006A 		vstr.32	s13, [r0]
 222              		.loc 1 67 0 discriminator 3
 223 00fc D2ED006A 		vldr.32	s13, [r2]
 224 0100 76EEE76A 		vsub.f32	s13, s13, s15
 225 0104 2044     		add	r0, r0, r4
 226 0106 C1ED006A 		vstr.32	s13, [r1]
 227              		.loc 1 68 0 discriminator 3
 228 010a D3ED006A 		vldr.32	s13, [r3]
ARM GAS  /tmp/ccWyHV08.s 			page 5


 229 010e 36EE877A 		vadd.f32	s14, s13, s14
 230              	.LVL27:
 231 0112 2144     		add	r1, r1, r4
 232 0114 83ED007A 		vstr.32	s14, [r3]
 233              		.loc 1 69 0 discriminator 3
 234 0118 92ED007A 		vldr.32	s14, [r2]
 235 011c 77EE277A 		vadd.f32	s15, s14, s15
 236              	.LVL28:
 237 0120 2344     		add	r3, r3, r4
 238 0122 C2ED007A 		vstr.32	s15, [r2]
 239 0126 2244     		add	r2, r2, r4
 240              		.loc 1 62 0 discriminator 3
 241 0128 D4DC     		bgt	.L12
 242              	.LVL29:
 243              	.L14:
 244              		.loc 1 71 0
 245 012a 65EE4A7A 		vnmul.f32	s15, s10, s20
 246              	.LVL30:
 247              		.loc 1 61 0
 248 012e 0CF1010C 		add	ip, ip, #1
 249              		.loc 1 73 0
 250 0132 E9EEA47A 		vfma.f32	s15, s19, s9
 251              	.LVL31:
 252              		.loc 1 61 0
 253 0136 D445     		cmp	ip, r10
 254 0138 09F10409 		add	r9, r9, #4
 255              		.loc 1 72 0
 256 013c 29EE855A 		vmul.f32	s10, s19, s10
 257              	.LVL32:
 258 0140 0EF1040E 		add	lr, lr, #4
 259 0144 AAEE245A 		vfma.f32	s10, s20, s9
 260              	.LVL33:
 261              		.loc 1 73 0
 262 0148 F0EE674A 		vmov.f32	s9, s15
 263              		.loc 1 61 0
 264 014c B9D1     		bne	.L11
 265              	.LVL34:
 266              	.L10:
 267              		.loc 1 75 0
 268 014e 78EEE97A 		vsub.f32	s15, s17, s19
 269 0152 67EE887A 		vmul.f32	s15, s15, s16
 270 0156 17EE900A 		vmov	r0, s15
 271 015a FFF7FEFF 		bl	__aeabi_f2d
 272              	.LVL35:
 273 015e 41EC100B 		vmov	d0, r0, r1
 274 0162 FFF7FEFF 		bl	sqrt
 275              	.LVL36:
 276 0166 51EC100B 		vmov	r0, r1, d0
 277 016a FFF7FEFF 		bl	__aeabi_d2f
 278              	.LVL37:
 279              		.loc 1 76 0
 280 016e 029B     		ldr	r3, [sp, #8]
 281              		.loc 1 75 0
 282 0170 0AEE100A 		vmov	s20, r0
 283              	.LVL38:
 284              		.loc 1 76 0
 285 0174 0BB1     		cbz	r3, .L15
ARM GAS  /tmp/ccWyHV08.s 			page 6


 286              		.loc 1 77 0
 287 0176 B1EE4AAA 		vneg.f32	s20, s20
 288              	.LVL39:
 289              	.L15:
 290              		.loc 1 79 0 discriminator 2
 291 017a 79EEA89A 		vadd.f32	s19, s19, s17
 292              	.LVL40:
 293              		.loc 1 56 0 discriminator 2
 294 017e 0137     		adds	r7, r7, #1
 295              	.LVL41:
 296              		.loc 1 79 0 discriminator 2
 297 0180 69EE887A 		vmul.f32	s15, s19, s16
 298              		.loc 1 58 0 discriminator 2
 299 0184 C246     		mov	r10, r8
 300              	.LVL42:
 301              		.loc 1 79 0 discriminator 2
 302 0186 17EE900A 		vmov	r0, s15
 303 018a FFF7FEFF 		bl	__aeabi_f2d
 304              	.LVL43:
 305 018e 41EC100B 		vmov	d0, r0, r1
 306 0192 FFF7FEFF 		bl	sqrt
 307              	.LVL44:
 308 0196 51EC100B 		vmov	r0, r1, d0
 309 019a FFF7FEFF 		bl	__aeabi_d2f
 310              	.LVL45:
 311              		.loc 1 56 0 discriminator 2
 312 019e 009B     		ldr	r3, [sp]
 313 01a0 BB42     		cmp	r3, r7
 314              		.loc 1 79 0 discriminator 2
 315 01a2 09EE900A 		vmov	s19, r0
 316              	.LVL46:
 317              		.loc 1 56 0 discriminator 2
 318 01a6 7FF479AF 		bne	.L4
 319              	.LVL47:
 320              	.L5:
 321              		.loc 1 83 0
 322 01aa 029B     		ldr	r3, [sp, #8]
 323 01ac CBB1     		cbz	r3, .L1
 324              	.LVL48:
 325              		.loc 1 84 0
 326 01ae 002E     		cmp	r6, #0
 327 01b0 17DD     		ble	.L1
 328 01b2 009A     		ldr	r2, [sp]
 329 01b4 039B     		ldr	r3, [sp, #12]
 330 01b6 07EE906A 		vmov	s15, r6	@ int
 331 01ba 0421     		movs	r1, #4
 332 01bc 9140     		lsls	r1, r1, r2
 333 01be F8EEE77A 		vcvt.f32.s32	s15, s15
 334 01c2 019A     		ldr	r2, [sp, #4]
 335 01c4 1944     		add	r1, r1, r3
 336              	.LVL49:
 337              	.L17:
 338              		.loc 1 85 0 discriminator 3
 339 01c6 D3ED006A 		vldr.32	s13, [r3]
 340 01ca 86EEA77A 		vdiv.f32	s14, s13, s15
 341 01ce A3EC017A 		vstmia.32	r3!, {s14}
 342              		.loc 1 86 0 discriminator 3
ARM GAS  /tmp/ccWyHV08.s 			page 7


 343 01d2 D2ED006A 		vldr.32	s13, [r2]
 344 01d6 86EEA77A 		vdiv.f32	s14, s13, s15
 345              		.loc 1 84 0 discriminator 3
 346 01da 8B42     		cmp	r3, r1
 347              		.loc 1 86 0 discriminator 3
 348 01dc A2EC017A 		vstmia.32	r2!, {s14}
 349              		.loc 1 84 0 discriminator 3
 350 01e0 F1D1     		bne	.L17
 351              	.L1:
 352              		.loc 1 89 0
 353 01e2 05B0     		add	sp, sp, #20
 354              		.cfi_def_cfa_offset 60
 355              	.LVL50:
 356              		@ sp needed
 357 01e4 BDEC068B 		vldm	sp!, {d8-d10}
 358              		.cfi_restore 84
 359              		.cfi_restore 85
 360              		.cfi_restore 82
 361              		.cfi_restore 83
 362              		.cfi_restore 80
 363              		.cfi_restore 81
 364              		.cfi_def_cfa_offset 36
 365 01e8 BDE8F08F 		pop	{r4, r5, r6, r7, r8, r9, r10, fp, pc}
 366              	.LVL51:
 367              	.L34:
 368              		.align	2
 369              	.L33:
 370 01ec 00000000 		.word	0
 371              		.cfi_endproc
 372              	.LFE0:
 373              		.size	filter_fft, .-filter_fft
 374              		.section	.text.filter_dft,"ax",%progbits
 375              		.align	1
 376              		.p2align 4,,15
 377              		.global	filter_dft
 378              		.syntax unified
 379              		.thumb
 380              		.thumb_func
 381              		.fpu fpv4-sp-d16
 382              		.type	filter_dft, %function
 383              	filter_dft:
 384              	.LFB1:
 385              		.loc 1 92 0
 386              		.cfi_startproc
 387              		@ args = 0, pretend = 0, frame = 32
 388              		@ frame_needed = 1, uses_anonymous_args = 0
 389              	.LVL52:
 390 0000 2DE9F04F 		push	{r4, r5, r6, r7, r8, r9, r10, fp, lr}
 391              		.cfi_def_cfa_offset 36
 392              		.cfi_offset 4, -36
 393              		.cfi_offset 5, -32
 394              		.cfi_offset 6, -28
 395              		.cfi_offset 7, -24
 396              		.cfi_offset 8, -20
 397              		.cfi_offset 9, -16
 398              		.cfi_offset 10, -12
 399              		.cfi_offset 11, -8
ARM GAS  /tmp/ccWyHV08.s 			page 8


 400              		.cfi_offset 14, -4
 401 0004 2DED088B 		vpush.64	{d8, d9, d10, d11}
 402              		.cfi_def_cfa_offset 68
 403              		.cfi_offset 80, -68
 404              		.cfi_offset 81, -64
 405              		.cfi_offset 82, -60
 406              		.cfi_offset 83, -56
 407              		.cfi_offset 84, -52
 408              		.cfi_offset 85, -48
 409              		.cfi_offset 86, -44
 410              		.cfi_offset 87, -40
 411 0008 89B0     		sub	sp, sp, #36
 412              		.cfi_def_cfa_offset 104
 413 000a 00AF     		add	r7, sp, #0
 414              		.cfi_def_cfa_register 7
 415 000c 8C00     		lsls	r4, r1, #2
 416 000e 3C61     		str	r4, [r7, #16]
 417              		.loc 1 97 0
 418 0010 0028     		cmp	r0, #0
 419 0012 7BD0     		beq	.L36
 420              	.LVL53:
 421              		.loc 1 103 0
 422 0014 04F10A00 		add	r0, r4, #10
 423 0018 20F00700 		bic	r0, r0, #7
 424 001c ADEB000D 		sub	sp, sp, r0
 425 0020 C7F814D0 		str	sp, [r7, #20]
 426              	.LVL54:
 427              		.loc 1 106 0
 428 0024 0029     		cmp	r1, #0
 429              		.loc 1 104 0
 430 0026 ADEB000D 		sub	sp, sp, r0
 431              	.LVL55:
 432 002a EB46     		mov	fp, sp
 433              	.LVL56:
 434              		.loc 1 106 0
 435 002c 68DD     		ble	.L35
 436              		.loc 1 98 0
 437 002e 0120     		movs	r0, #1
 438              		.loc 1 106 0
 439 0030 DFED47BA 		vldr.32	s23, .L50
 440              		.loc 1 98 0
 441 0034 F860     		str	r0, [r7, #12]
 442              	.LVL57:
 443              	.L37:
 444 0036 07EE901A 		vmov	s15, r1	@ int
 445 003a C7E90632 		strd	r3, r2, [r7, #24]
 446 003e D7F81490 		ldr	r9, [r7, #20]
 447              		.loc 1 107 0
 448 0042 DFED44AA 		vldr.32	s21, .L50+4
 449 0046 C7F804B0 		str	fp, [r7, #4]
 450              		.loc 1 98 0
 451 004a 0023     		movs	r3, #0
 452              	.LVL58:
 453 004c B8EEE7BA 		vcvt.f32.s32	s22, s15
 454 0050 0C46     		mov	r4, r1
 455 0052 DA46     		mov	r10, fp
 456 0054 1D46     		mov	r5, r3
ARM GAS  /tmp/ccWyHV08.s 			page 9


 457 0056 C7F80890 		str	r9, [r7, #8]
 458              	.LVL59:
 459              	.L40:
 460              		.loc 1 109 0
 461 005a 07EE905A 		vmov	s15, r5	@ int
 462 005e F8EEE77A 		vcvt.f32.s32	s15, s15
 463 0062 9FED3C9A 		vldr.32	s18, .L50+4
 464              		.loc 1 107 0
 465 0066 E9EC01AA 		vstmia.32	r9!, {s21}
 466              		.loc 1 109 0
 467 006a 67EEAB7A 		vmul.f32	s15, s15, s23
 468 006e D7E9066B 		ldrd	r6, fp, [r7, #24]
 469 0072 87EE8BAA 		vdiv.f32	s20, s15, s22
 470              	.LVL60:
 471              		.loc 1 110 0
 472 0076 4FF00008 		mov	r8, #0
 473              		.loc 1 109 0
 474 007a F0EE499A 		vmov.f32	s19, s18
 475              		.loc 1 108 0
 476 007e EAEC01AA 		vstmia.32	r10!, {s21}
 477              	.LVL61:
 478              	.L39:
 479              		.loc 1 111 0 discriminator 3
 480 0082 07EE908A 		vmov	s15, r8	@ int
 481 0086 B8EEE78A 		vcvt.f32.s32	s16, s15
 482              		.loc 1 110 0 discriminator 3
 483 008a 08F10108 		add	r8, r8, #1
 484              	.LVL62:
 485              		.loc 1 111 0 discriminator 3
 486 008e 28EE0A8A 		vmul.f32	s16, s16, s20
 487 0092 B0EE480A 		vmov.f32	s0, s16
 488 0096 FFF7FEFF 		bl	cosf
 489              	.LVL63:
 490 009a F0EE408A 		vmov.f32	s17, s0
 491              	.LVL64:
 492              		.loc 1 112 0 discriminator 3
 493 009e B0EE480A 		vmov.f32	s0, s16
 494              	.LVL65:
 495 00a2 FFF7FEFF 		bl	sinf
 496              	.LVL66:
 497              		.loc 1 113 0 discriminator 3
 498 00a6 F6EC017A 		vldmia.32	r6!, {s15}
 499 00aa FBEC016A 		vldmia.32	fp!, {s13}
 500 00ae 20EE677A 		vnmul.f32	s14, s0, s15
 501              		.loc 1 114 0 discriminator 3
 502 00b2 67EEA87A 		vmul.f32	s15, s15, s17
 503              		.loc 1 113 0 discriminator 3
 504 00b6 A6EEA87A 		vfma.f32	s14, s13, s17
 505              		.loc 1 110 0 discriminator 3
 506 00ba 4445     		cmp	r4, r8
 507              		.loc 1 114 0 discriminator 3
 508 00bc E6EE807A 		vfma.f32	s15, s13, s0
 509              		.loc 1 113 0 discriminator 3
 510 00c0 79EE879A 		vadd.f32	s19, s19, s14
 511              		.loc 1 114 0 discriminator 3
 512 00c4 39EE279A 		vadd.f32	s18, s18, s15
 513              		.loc 1 110 0 discriminator 3
ARM GAS  /tmp/ccWyHV08.s 			page 10


 514 00c8 DBD1     		bne	.L39
 515              		.loc 1 106 0
 516 00ca 0135     		adds	r5, r5, #1
 517              	.LVL67:
 518 00cc AC42     		cmp	r4, r5
 519 00ce 49ED019A 		vstr.32	s19, [r9, #-4]
 520 00d2 0AED019A 		vstr.32	s18, [r10, #-4]
 521 00d6 C0DC     		bgt	.L40
 522              		.loc 1 119 0
 523 00d8 D7E90283 		ldrd	r8, r3, [r7, #8]
 524              	.LVL68:
 525 00dc 012B     		cmp	r3, #1
 526 00de D7E90523 		ldrd	r2, r3, [r7, #20]
 527 00e2 3969     		ldr	r1, [r7, #16]
 528 00e4 FE69     		ldr	r6, [r7, #28]
 529 00e6 0A44     		add	r2, r2, r1
 530 00e8 7968     		ldr	r1, [r7, #4]
 531 00ea 22D0     		beq	.L42
 532              	.LVL69:
 533              	.L43:
 534              		.loc 1 126 0 discriminator 3
 535 00ec 58F8044B 		ldr	r4, [r8], #4	@ float
 536              		.loc 1 127 0 discriminator 3
 537 00f0 51F8040B 		ldr	r0, [r1], #4	@ float
 538              		.loc 1 126 0 discriminator 3
 539 00f4 46F8044B 		str	r4, [r6], #4	@ float
 540              		.loc 1 125 0 discriminator 3
 541 00f8 4245     		cmp	r2, r8
 542              		.loc 1 127 0 discriminator 3
 543 00fa 43F8040B 		str	r0, [r3], #4	@ float
 544              		.loc 1 125 0 discriminator 3
 545 00fe F5D1     		bne	.L43
 546              	.LVL70:
 547              	.L35:
 548              		.loc 1 130 0
 549 0100 2437     		adds	r7, r7, #36
 550              		.cfi_remember_state
 551              		.cfi_def_cfa_offset 68
 552              	.LVL71:
 553 0102 BD46     		mov	sp, r7
 554              		.cfi_def_cfa_register 13
 555              	.LVL72:
 556              		@ sp needed
 557 0104 BDEC088B 		vldm	sp!, {d8-d11}
 558              		.cfi_restore 86
 559              		.cfi_restore 87
 560              		.cfi_restore 84
 561              		.cfi_restore 85
 562              		.cfi_restore 82
 563              		.cfi_restore 83
 564              		.cfi_restore 80
 565              		.cfi_restore 81
 566              		.cfi_def_cfa_offset 36
 567 0108 BDE8F08F 		pop	{r4, r5, r6, r7, r8, r9, r10, fp, pc}
 568              	.LVL73:
 569              	.L36:
 570              		.cfi_restore_state
ARM GAS  /tmp/ccWyHV08.s 			page 11


 571              		.loc 1 103 0
 572 010c 3869     		ldr	r0, [r7, #16]
 573 010e 0A30     		adds	r0, r0, #10
 574 0110 20F00700 		bic	r0, r0, #7
 575 0114 ADEB000D 		sub	sp, sp, r0
 576 0118 C7F814D0 		str	sp, [r7, #20]
 577              	.LVL74:
 578              		.loc 1 106 0
 579 011c 0029     		cmp	r1, #0
 580              		.loc 1 104 0
 581 011e ADEB000D 		sub	sp, sp, r0
 582              	.LVL75:
 583 0122 EB46     		mov	fp, sp
 584              	.LVL76:
 585              		.loc 1 106 0
 586 0124 ECDD     		ble	.L35
 587              		.loc 1 100 0
 588 0126 4FF0FF30 		mov	r0, #-1
 589              		.loc 1 106 0
 590 012a DFED0BBA 		vldr.32	s23, .L50+8
 591              		.loc 1 100 0
 592 012e F860     		str	r0, [r7, #12]
 593 0130 81E7     		b	.L37
 594              	.LVL77:
 595              	.L42:
 596              		.loc 1 121 0 discriminator 3
 597 0132 F8EC017A 		vldmia.32	r8!, {s15}
 598              		.loc 1 122 0 discriminator 3
 599 0136 F1EC016A 		vldmia.32	r1!, {s13}
 600              		.loc 1 121 0 discriminator 3
 601 013a 87EE8B7A 		vdiv.f32	s14, s15, s22
 602              		.loc 1 120 0 discriminator 3
 603 013e 9045     		cmp	r8, r2
 604              		.loc 1 122 0 discriminator 3
 605 0140 C6EE8B7A 		vdiv.f32	s15, s13, s22
 606              		.loc 1 121 0 discriminator 3
 607 0144 A6EC017A 		vstmia.32	r6!, {s14}
 608              		.loc 1 122 0 discriminator 3
 609 0148 E3EC017A 		vstmia.32	r3!, {s15}
 610              		.loc 1 120 0 discriminator 3
 611 014c F1D1     		bne	.L42
 612 014e D7E7     		b	.L35
 613              	.L51:
 614              		.align	2
 615              	.L50:
 616 0150 DB0FC9C0 		.word	3234402267
 617 0154 00000000 		.word	0
 618 0158 DB0FC940 		.word	1086918619
 619              		.cfi_endproc
 620              	.LFE1:
 621              		.size	filter_dft, .-filter_dft
 622              		.section	.text.filter_fftshift,"ax",%progbits
 623              		.align	1
 624              		.p2align 4,,15
 625              		.global	filter_fftshift
 626              		.syntax unified
 627              		.thumb
ARM GAS  /tmp/ccWyHV08.s 			page 12


 628              		.thumb_func
 629              		.fpu fpv4-sp-d16
 630              		.type	filter_fftshift, %function
 631              	filter_fftshift:
 632              	.LFB2:
 633              		.loc 1 132 0
 634              		.cfi_startproc
 635              		@ args = 0, pretend = 0, frame = 0
 636              		@ frame_needed = 0, uses_anonymous_args = 0
 637              		@ link register save eliminated.
 638              	.LVL78:
 639              	.LBB11:
 640              		.loc 1 133 0
 641 0000 01EBD171 		add	r1, r1, r1, lsr #31
 642              	.LVL79:
 643 0004 4910     		asrs	r1, r1, #1
 644 0006 0029     		cmp	r1, #0
 645 0008 0EDD     		ble	.L57
 646 000a 00EB8101 		add	r1, r0, r1, lsl #2
 647              	.LBE11:
 648              		.loc 1 132 0
 649 000e 10B4     		push	{r4}
 650              		.cfi_def_cfa_offset 4
 651              		.cfi_offset 4, -4
 652 0010 0C46     		mov	r4, r1
 653              	.LVL80:
 654              	.L54:
 655              	.LBB14:
 656              	.LBB12:
 657              		.loc 1 135 0 discriminator 3
 658 0012 0A68     		ldr	r2, [r1]	@ float
 659              		.loc 1 134 0 discriminator 3
 660 0014 0368     		ldr	r3, [r0]	@ float
 661              	.LVL81:
 662              		.loc 1 137 0 discriminator 3
 663 0016 40F8042B 		str	r2, [r0], #4	@ float
 664              	.LBE12:
 665              		.loc 1 133 0 discriminator 3
 666 001a A042     		cmp	r0, r4
 667              	.LBB13:
 668              		.loc 1 138 0 discriminator 3
 669 001c 41F8043B 		str	r3, [r1], #4	@ float
 670              	.LBE13:
 671              		.loc 1 133 0 discriminator 3
 672 0020 F7D1     		bne	.L54
 673              	.LBE14:
 674              		.loc 1 140 0
 675 0022 5DF8044B 		ldr	r4, [sp], #4
 676              		.cfi_restore 4
 677              		.cfi_def_cfa_offset 0
 678 0026 7047     		bx	lr
 679              	.LVL82:
 680              	.L57:
 681 0028 7047     		bx	lr
 682              		.cfi_endproc
 683              	.LFE2:
 684              		.size	filter_fftshift, .-filter_fftshift
ARM GAS  /tmp/ccWyHV08.s 			page 13


 685              		.section	.text.filter_hamming,"ax",%progbits
 686              		.align	1
 687              		.p2align 4,,15
 688              		.global	filter_hamming
 689              		.syntax unified
 690              		.thumb
 691              		.thumb_func
 692              		.fpu fpv4-sp-d16
 693              		.type	filter_hamming, %function
 694              	filter_hamming:
 695              	.LFB3:
 696              		.loc 1 142 0
 697              		.cfi_startproc
 698              		@ args = 0, pretend = 0, frame = 0
 699              		@ frame_needed = 0, uses_anonymous_args = 0
 700              	.LVL83:
 701 0000 F8B5     		push	{r3, r4, r5, r6, r7, lr}
 702              		.cfi_def_cfa_offset 24
 703              		.cfi_offset 3, -24
 704              		.cfi_offset 4, -20
 705              		.cfi_offset 5, -16
 706              		.cfi_offset 6, -12
 707              		.cfi_offset 7, -8
 708              		.cfi_offset 14, -4
 709              		.loc 1 143 0
 710 0002 11F00106 		ands	r6, r1, #1
 711              		.loc 1 142 0
 712 0006 2DED068B 		vpush.64	{d8, d9, d10}
 713              		.cfi_def_cfa_offset 48
 714              		.cfi_offset 80, -48
 715              		.cfi_offset 81, -44
 716              		.cfi_offset 82, -40
 717              		.cfi_offset 83, -36
 718              		.cfi_offset 84, -32
 719              		.cfi_offset 85, -28
 720              		.loc 1 142 0
 721 000a 0D46     		mov	r5, r1
 722              		.loc 1 143 0
 723 000c 28D0     		beq	.L61
 724              	.LVL84:
 725              	.LBB21:
 726              		.loc 1 150 0
 727 000e 0029     		cmp	r1, #0
 728 0010 23DD     		ble	.L60
 729 0012 4B1E     		subs	r3, r1, #1
 730 0014 08EE903A 		vmov	s17, r3	@ int
 731              		.loc 1 151 0
 732 0018 9FED2BAA 		vldr.32	s20, .L69
 733 001c DFED2B9A 		vldr.32	s19, .L69+4
 734 0020 9FED2B9A 		vldr.32	s18, .L69+8
 735 0024 F8EEE88A 		vcvt.f32.s32	s17, s17
 736 0028 0446     		mov	r4, r0
 737              		.loc 1 150 0
 738 002a 0026     		movs	r6, #0
 739              	.LVL85:
 740              	.L65:
 741              		.loc 1 151 0 discriminator 3
ARM GAS  /tmp/ccWyHV08.s 			page 14


 742 002c 07EE906A 		vmov	s15, r6	@ int
 743 0030 B8EEE70A 		vcvt.f32.s32	s0, s15
 744 0034 94ED008A 		vldr.32	s16, [r4]
 745 0038 20EE0A0A 		vmul.f32	s0, s0, s20
 746              		.loc 1 150 0 discriminator 3
 747 003c 0136     		adds	r6, r6, #1
 748              	.LVL86:
 749              		.loc 1 151 0 discriminator 3
 750 003e 80EE280A 		vdiv.f32	s0, s0, s17
 751 0042 FFF7FEFF 		bl	cosf
 752              	.LVL87:
 753              		.loc 1 150 0 discriminator 3
 754 0046 B542     		cmp	r5, r6
 755              		.loc 1 151 0 discriminator 3
 756 0048 F0EE497A 		vmov.f32	s15, s18
 757 004c E0EE697A 		vfms.f32	s15, s0, s19
 758 0050 67EE887A 		vmul.f32	s15, s15, s16
 759 0054 E4EC017A 		vstmia.32	r4!, {s15}
 760              		.loc 1 150 0 discriminator 3
 761 0058 E8D1     		bne	.L65
 762              	.LVL88:
 763              	.L60:
 764              	.LBE21:
 765              		.loc 1 154 0
 766 005a BDEC068B 		vldm	sp!, {d8-d10}
 767              		.cfi_remember_state
 768              		.cfi_restore 84
 769              		.cfi_restore 85
 770              		.cfi_restore 82
 771              		.cfi_restore 83
 772              		.cfi_restore 80
 773              		.cfi_restore 81
 774              		.cfi_def_cfa_offset 24
 775 005e F8BD     		pop	{r3, r4, r5, r6, r7, pc}
 776              	.LVL89:
 777              	.L61:
 778              		.cfi_restore_state
 779              	.LBB22:
 780              	.LBB23:
 781              		.loc 1 144 0
 782 0060 01EBD177 		add	r7, r1, r1, lsr #31
 783 0064 7F10     		asrs	r7, r7, #1
 784 0066 002F     		cmp	r7, #0
 785 0068 F7DD     		ble	.L60
 786 006a 4B1E     		subs	r3, r1, #1
 787 006c 08EE103A 		vmov	s16, r3	@ int
 788              	.LBB24:
 789              		.loc 1 145 0
 790 0070 DFED159A 		vldr.32	s19, .L69
 791 0074 9FED159A 		vldr.32	s18, .L69+4
 792 0078 DFED158A 		vldr.32	s17, .L69+8
 793 007c B8EEC88A 		vcvt.f32.s32	s16, s16
 794 0080 0446     		mov	r4, r0
 795 0082 00EB8105 		add	r5, r0, r1, lsl #2
 796              	.LVL90:
 797              	.L64:
 798 0086 07EE906A 		vmov	s15, r6	@ int
ARM GAS  /tmp/ccWyHV08.s 			page 15


 799 008a B8EEE70A 		vcvt.f32.s32	s0, s15
 800              	.LBE24:
 801              		.loc 1 144 0
 802 008e 0136     		adds	r6, r6, #1
 803              	.LVL91:
 804              	.LBB25:
 805              		.loc 1 145 0
 806 0090 20EE290A 		vmul.f32	s0, s0, s19
 807 0094 80EE080A 		vdiv.f32	s0, s0, s16
 808 0098 FFF7FEFF 		bl	cosf
 809              	.LVL92:
 810              	.LBE25:
 811              		.loc 1 144 0
 812 009c BE42     		cmp	r6, r7
 813              	.LBB26:
 814              		.loc 1 145 0
 815 009e F0EE686A 		vmov.f32	s13, s17
 816 00a2 E0EE496A 		vfms.f32	s13, s0, s18
 817              	.LVL93:
 818              		.loc 1 146 0
 819 00a6 94ED007A 		vldr.32	s14, [r4]
 820 00aa 26EE877A 		vmul.f32	s14, s13, s14
 821 00ae A4EC017A 		vstmia.32	r4!, {s14}
 822              		.loc 1 147 0
 823 00b2 75ED017A 		vldmdb.32	r5!, {s15}
 824 00b6 67EEA67A 		vmul.f32	s15, s15, s13
 825 00ba C5ED007A 		vstr.32	s15, [r5]
 826              	.LBE26:
 827              		.loc 1 144 0
 828 00be E2D1     		bne	.L64
 829              	.LBE23:
 830              	.LBE22:
 831              		.loc 1 154 0
 832 00c0 BDEC068B 		vldm	sp!, {d8-d10}
 833              		.cfi_restore 84
 834              		.cfi_restore 85
 835              		.cfi_restore 82
 836              		.cfi_restore 83
 837              		.cfi_restore 80
 838              		.cfi_restore 81
 839              		.cfi_def_cfa_offset 24
 840 00c4 F8BD     		pop	{r3, r4, r5, r6, r7, pc}
 841              	.LVL94:
 842              	.L70:
 843 00c6 00BF     		.align	2
 844              	.L69:
 845 00c8 DB0FC940 		.word	1086918619
 846 00cc 1F85EB3E 		.word	1055622431
 847 00d0 713D0A3F 		.word	1057635697
 848              		.cfi_endproc
 849              	.LFE3:
 850              		.size	filter_hamming, .-filter_hamming
 851              		.section	.text.filter_zeroPad,"ax",%progbits
 852              		.align	1
 853              		.p2align 4,,15
 854              		.global	filter_zeroPad
 855              		.syntax unified
ARM GAS  /tmp/ccWyHV08.s 			page 16


 856              		.thumb
 857              		.thumb_func
 858              		.fpu fpv4-sp-d16
 859              		.type	filter_zeroPad, %function
 860              	filter_zeroPad:
 861              	.LFB4:
 862              		.loc 1 156 0
 863              		.cfi_startproc
 864              		@ args = 0, pretend = 0, frame = 0
 865              		@ frame_needed = 0, uses_anonymous_args = 0
 866              		@ link register save eliminated.
 867              	.LVL95:
 868              	.LBB27:
 869              		.loc 1 157 0
 870 0000 002B     		cmp	r3, #0
 871 0002 12DD     		ble	.L78
 872              	.LBE27:
 873              		.loc 1 156 0
 874 0004 70B4     		push	{r4, r5, r6}
 875              		.cfi_def_cfa_offset 12
 876              		.cfi_offset 4, -12
 877              		.cfi_offset 5, -8
 878              		.cfi_offset 6, -4
 879              	.LBB28:
 880              		.loc 1 161 0
 881 0006 0026     		movs	r6, #0
 882              		.loc 1 157 0
 883 0008 0024     		movs	r4, #0
 884              	.LVL96:
 885              	.L75:
 886              		.loc 1 158 0
 887 000a A242     		cmp	r2, r4
 888              		.loc 1 159 0
 889 000c C4BF     		itt	gt
 890 000e 0568     		ldrgt	r5, [r0]	@ float
 891 0010 0D60     		strgt	r5, [r1]	@ float
 892              		.loc 1 157 0
 893 0012 04F10104 		add	r4, r4, #1
 894              	.LVL97:
 895              		.loc 1 161 0
 896 0016 D8BF     		it	le
 897 0018 0E60     		strle	r6, [r1]	@ float
 898              		.loc 1 157 0
 899 001a A342     		cmp	r3, r4
 900 001c 00F10400 		add	r0, r0, #4
 901 0020 01F10401 		add	r1, r1, #4
 902 0024 F1D1     		bne	.L75
 903              	.LBE28:
 904              		.loc 1 164 0
 905 0026 70BC     		pop	{r4, r5, r6}
 906              		.cfi_restore 6
 907              		.cfi_restore 5
 908              		.cfi_restore 4
 909              		.cfi_def_cfa_offset 0
 910              	.LVL98:
 911 0028 7047     		bx	lr
 912              	.LVL99:
ARM GAS  /tmp/ccWyHV08.s 			page 17


 913              	.L78:
 914 002a 7047     		bx	lr
 915              		.cfi_endproc
 916              	.LFE4:
 917              		.size	filter_zeroPad, .-filter_zeroPad
 918              		.section	.text.filter_create_fir_lowpass,"ax",%progbits
 919              		.align	1
 920              		.p2align 4,,15
 921              		.global	filter_create_fir_lowpass
 922              		.syntax unified
 923              		.thumb
 924              		.thumb_func
 925              		.fpu fpv4-sp-d16
 926              		.type	filter_create_fir_lowpass, %function
 927              	filter_create_fir_lowpass:
 928              	.LFB5:
 929              		.loc 1 166 0
 930              		.cfi_startproc
 931              		@ args = 0, pretend = 0, frame = 0
 932              		@ frame_needed = 1, uses_anonymous_args = 0
 933              	.LVL100:
 934 0000 2DE9F843 		push	{r3, r4, r5, r6, r7, r8, r9, lr}
 935              		.cfi_def_cfa_offset 32
 936              		.cfi_offset 3, -32
 937              		.cfi_offset 4, -28
 938              		.cfi_offset 5, -24
 939              		.cfi_offset 6, -20
 940              		.cfi_offset 7, -16
 941              		.cfi_offset 8, -12
 942              		.cfi_offset 9, -8
 943              		.cfi_offset 14, -4
 944              		.loc 1 168 0
 945 0004 0423     		movs	r3, #4
 946 0006 8B40     		lsls	r3, r3, r1
 947 0008 0A33     		adds	r3, r3, #10
 948              		.loc 1 167 0
 949 000a 0126     		movs	r6, #1
 950              		.loc 1 168 0
 951 000c 23F00703 		bic	r3, r3, #7
 952              		.loc 1 167 0
 953 0010 8E40     		lsls	r6, r6, r1
 954              	.LVL101:
 955              		.loc 1 166 0
 956 0012 00AF     		add	r7, sp, #0
 957              		.cfi_def_cfa_register 7
 958              	.LBB29:
 959              		.loc 1 170 0
 960 0014 002E     		cmp	r6, #0
 961              	.LBE29:
 962              		.loc 1 168 0
 963 0016 ADEB030D 		sub	sp, sp, r3
 964              		.loc 1 166 0
 965 001a 8046     		mov	r8, r0
 966 001c 9146     		mov	r9, r2
 967              		.loc 1 168 0
 968 001e 6B46     		mov	r3, sp
 969              	.LVL102:
ARM GAS  /tmp/ccWyHV08.s 			page 18


 970              	.LBB30:
 971              		.loc 1 170 0
 972 0020 1DDD     		ble	.L82
 973              		.loc 1 171 0
 974 0022 07EE906A 		vmov	s15, r6	@ int
 975 0026 F8EEE77A 		vcvt.f32.s32	s15, s15
 976              		.loc 1 174 0
 977 002a 4FF0000C 		mov	ip, #0
 978              		.loc 1 171 0
 979 002e 27EE800A 		vmul.f32	s0, s15, s0
 980              	.LVL103:
 981 0032 1C46     		mov	r4, r3
 982 0034 FDEEC07A 		vcvt.s32.f32	s15, s0
 983              		.loc 1 170 0
 984 0038 0022     		movs	r2, #0
 985              	.LVL104:
 986              		.loc 1 171 0
 987 003a 17EE905A 		vmov	r5, s15	@ int
 988              		.loc 1 172 0
 989 003e 4FF07E5E 		mov	lr, #1065353216
 990              	.LVL105:
 991              	.L85:
 992              		.loc 1 171 0
 993 0042 9542     		cmp	r5, r2
 994              		.loc 1 170 0
 995 0044 02F10102 		add	r2, r2, #1
 996              	.LVL106:
 997              		.loc 1 172 0
 998 0048 CCBF     		ite	gt
 999 004a C0F800E0 		strgt	lr, [r0]	@ float
 1000              		.loc 1 174 0
 1001 004e C0F800C0 		strle	ip, [r0]	@ float
 1002              		.loc 1 170 0
 1003 0052 9642     		cmp	r6, r2
 1004              		.loc 1 176 0
 1005 0054 44F804CB 		str	ip, [r4], #4	@ float
 1006 0058 00F10400 		add	r0, r0, #4
 1007              		.loc 1 170 0
 1008 005c F1D1     		bne	.L85
 1009              	.LVL107:
 1010              	.L82:
 1011              	.LBE30:
 1012              	.LBB31:
 1013              		.loc 1 180 0
 1014 005e 06EBD670 		add	r0, r6, r6, lsr #31
 1015 0062 4010     		asrs	r0, r0, #1
 1016 0064 0028     		cmp	r0, #0
 1017 0066 23DD     		ble	.L86
 1018 0068 0422     		movs	r2, #4
 1019 006a 8A40     		lsls	r2, r2, r1
 1020 006c 08EB8000 		add	r0, r8, r0, lsl #2
 1021 0070 4244     		add	r2, r2, r8
 1022 0072 4546     		mov	r5, r8
 1023 0074 4446     		mov	r4, r8
 1024              	.LVL108:
 1025              	.L87:
 1026              		.loc 1 181 0 discriminator 3
ARM GAS  /tmp/ccWyHV08.s 			page 19


 1027 0076 54F804CB 		ldr	ip, [r4], #4	@ float
 1028 007a 42F804CD 		str	ip, [r2, #-4]!	@ float
 1029              		.loc 1 180 0 discriminator 3
 1030 007e 8442     		cmp	r4, r0
 1031 0080 F9D1     		bne	.L87
 1032              	.LBE31:
 1033              		.loc 1 184 0
 1034 0082 4246     		mov	r2, r8
 1035 0084 0120     		movs	r0, #1
 1036 0086 FFF7FEFF 		bl	filter_fft
 1037              	.LVL109:
 1038 008a 2346     		mov	r3, r4
 1039              	.LVL110:
 1040              	.L89:
 1041              	.LBB32:
 1042              	.LBB33:
 1043              	.LBB34:
 1044              		.loc 1 135 0
 1045 008c 1968     		ldr	r1, [r3]	@ float
 1046              		.loc 1 134 0
 1047 008e 2A68     		ldr	r2, [r5]	@ float
 1048              	.LVL111:
 1049              		.loc 1 137 0
 1050 0090 45F8041B 		str	r1, [r5], #4	@ float
 1051              	.LBE34:
 1052              		.loc 1 133 0
 1053 0094 AC42     		cmp	r4, r5
 1054              	.LBB35:
 1055              		.loc 1 138 0
 1056 0096 43F8042B 		str	r2, [r3], #4	@ float
 1057              	.LBE35:
 1058              		.loc 1 133 0
 1059 009a F7D1     		bne	.L89
 1060              	.LVL112:
 1061              	.L91:
 1062              	.LBE33:
 1063              	.LBE32:
 1064              		.loc 1 187 0
 1065 009c B9F1000F 		cmp	r9, #0
 1066 00a0 03D0     		beq	.L81
 1067              		.loc 1 188 0
 1068 00a2 3146     		mov	r1, r6
 1069 00a4 4046     		mov	r0, r8
 1070 00a6 FFF7FEFF 		bl	filter_hamming
 1071              	.LVL113:
 1072              	.L81:
 1073              		.loc 1 190 0
 1074 00aa BD46     		mov	sp, r7
 1075              		.cfi_remember_state
 1076              		.cfi_def_cfa_register 13
 1077              	.LVL114:
 1078              		@ sp needed
 1079 00ac BDE8F883 		pop	{r3, r4, r5, r6, r7, r8, r9, pc}
 1080              	.LVL115:
 1081              	.L86:
 1082              		.cfi_restore_state
 1083              		.loc 1 184 0
ARM GAS  /tmp/ccWyHV08.s 			page 20


 1084 00b0 4246     		mov	r2, r8
 1085 00b2 0120     		movs	r0, #1
 1086 00b4 FFF7FEFF 		bl	filter_fft
 1087              	.LVL116:
 1088 00b8 F0E7     		b	.L91
 1089              		.cfi_endproc
 1090              	.LFE5:
 1091              		.size	filter_create_fir_lowpass, .-filter_create_fir_lowpass
 1092 00ba 00BF     		.section	.text.filter_run_fir_iteration,"ax",%progbits
 1093              		.align	1
 1094              		.p2align 4,,15
 1095              		.global	filter_run_fir_iteration
 1096              		.syntax unified
 1097              		.thumb
 1098              		.thumb_func
 1099              		.fpu fpv4-sp-d16
 1100              		.type	filter_run_fir_iteration, %function
 1101              	filter_run_fir_iteration:
 1102              	.LFB6:
 1103              		.loc 1 203 0
 1104              		.cfi_startproc
 1105              		@ args = 0, pretend = 0, frame = 0
 1106              		@ frame_needed = 0, uses_anonymous_args = 0
 1107              		@ link register save eliminated.
 1108              	.LVL117:
 1109 0000 70B4     		push	{r4, r5, r6}
 1110              		.cfi_def_cfa_offset 12
 1111              		.cfi_offset 4, -12
 1112              		.cfi_offset 5, -8
 1113              		.cfi_offset 6, -4
 1114              		.loc 1 205 0
 1115 0002 0126     		movs	r6, #1
 1116 0004 9640     		lsls	r6, r6, r2
 1117              	.LVL118:
 1118              		.loc 1 206 0
 1119 0006 C2F12004 		rsb	r4, r2, #32
 1120 000a 4FF0FF35 		mov	r5, #-1
 1121              	.LBB36:
 1122              		.loc 1 208 0
 1123 000e 002E     		cmp	r6, #0
 1124              	.LBE36:
 1125              		.loc 1 206 0
 1126 0010 25FA04F5 		lsr	r5, r5, r4
 1127              	.LVL119:
 1128              	.LBB37:
 1129              		.loc 1 208 0
 1130 0014 13DD     		ble	.L103
 1131 0016 0424     		movs	r4, #4
 1132 0018 9440     		lsls	r4, r4, r2
 1133              	.LBE37:
 1134              		.loc 1 204 0
 1135 001a 9FED0B0A 		vldr.32	s0, .L106
 1136 001e 0C44     		add	r4, r4, r1
 1137              	.LVL120:
 1138              	.L102:
 1139              	.LBB38:
 1140              		.loc 1 209 0 discriminator 3
ARM GAS  /tmp/ccWyHV08.s 			page 21


 1141 0020 00EB8302 		add	r2, r0, r3, lsl #2
 1142 0024 B1EC017A 		vldmia.32	r1!, {s14}
 1143 0028 D2ED007A 		vldr.32	s15, [r2]
 1144              		.loc 1 210 0 discriminator 3
 1145 002c 0133     		adds	r3, r3, #1
 1146              	.LVL121:
 1147              		.loc 1 208 0 discriminator 3
 1148 002e 8C42     		cmp	r4, r1
 1149              		.loc 1 211 0 discriminator 3
 1150 0030 03EA0503 		and	r3, r3, r5
 1151              	.LVL122:
 1152              		.loc 1 209 0 discriminator 3
 1153 0034 A7EE270A 		vfma.f32	s0, s14, s15
 1154              	.LVL123:
 1155              		.loc 1 208 0 discriminator 3
 1156 0038 F2D1     		bne	.L102
 1157              	.LBE38:
 1158              		.loc 1 215 0
 1159 003a 70BC     		pop	{r4, r5, r6}
 1160              		.cfi_remember_state
 1161              		.cfi_restore 6
 1162              		.cfi_restore 5
 1163              		.cfi_restore 4
 1164              		.cfi_def_cfa_offset 0
 1165              	.LVL124:
 1166 003c 7047     		bx	lr
 1167              	.LVL125:
 1168              	.L103:
 1169              		.cfi_restore_state
 1170              		.loc 1 204 0
 1171 003e 9FED020A 		vldr.32	s0, .L106
 1172              		.loc 1 215 0
 1173 0042 70BC     		pop	{r4, r5, r6}
 1174              		.cfi_restore 6
 1175              		.cfi_restore 5
 1176              		.cfi_restore 4
 1177              		.cfi_def_cfa_offset 0
 1178              	.LVL126:
 1179 0044 7047     		bx	lr
 1180              	.L107:
 1181 0046 00BF     		.align	2
 1182              	.L106:
 1183 0048 00000000 		.word	0
 1184              		.cfi_endproc
 1185              	.LFE6:
 1186              		.size	filter_run_fir_iteration, .-filter_run_fir_iteration
 1187              		.section	.text.filter_add_sample,"ax",%progbits
 1188              		.align	1
 1189              		.p2align 4,,15
 1190              		.global	filter_add_sample
 1191              		.syntax unified
 1192              		.thumb
 1193              		.thumb_func
 1194              		.fpu fpv4-sp-d16
 1195              		.type	filter_add_sample, %function
 1196              	filter_add_sample:
 1197              	.LFB7:
ARM GAS  /tmp/ccWyHV08.s 			page 22


 1198              		.loc 1 229 0
 1199              		.cfi_startproc
 1200              		@ args = 0, pretend = 0, frame = 0
 1201              		@ frame_needed = 0, uses_anonymous_args = 0
 1202              		@ link register save eliminated.
 1203              	.LVL127:
 1204 0000 10B4     		push	{r4}
 1205              		.cfi_def_cfa_offset 4
 1206              		.cfi_offset 4, -4
 1207              		.loc 1 231 0
 1208 0002 1468     		ldr	r4, [r2]
 1209              		.loc 1 230 0
 1210 0004 4FF0FF33 		mov	r3, #-1
 1211 0008 C1F12001 		rsb	r1, r1, #32
 1212              	.LVL128:
 1213 000c 23FA01F1 		lsr	r1, r3, r1
 1214              	.LVL129:
 1215              		.loc 1 232 0
 1216 0010 631C     		adds	r3, r4, #1
 1217              		.loc 1 231 0
 1218 0012 00EB8400 		add	r0, r0, r4, lsl #2
 1219              	.LVL130:
 1220              		.loc 1 233 0
 1221 0016 1940     		ands	r1, r1, r3
 1222              	.LVL131:
 1223              		.loc 1 231 0
 1224 0018 80ED000A 		vstr.32	s0, [r0]
 1225              		.loc 1 234 0
 1226 001c 5DF8044B 		ldr	r4, [sp], #4
 1227              		.cfi_restore 4
 1228              		.cfi_def_cfa_offset 0
 1229              		.loc 1 233 0
 1230 0020 1160     		str	r1, [r2]
 1231              		.loc 1 234 0
 1232 0022 7047     		bx	lr
 1233              		.cfi_endproc
 1234              	.LFE7:
 1235              		.size	filter_add_sample, .-filter_add_sample
 1236              		.text
 1237              	.Letext0:
 1238              		.file 2 "/usr/arm-none-eabi/include/machine/_default_types.h"
 1239              		.file 3 "/usr/arm-none-eabi/include/sys/_stdint.h"
 1240              		.file 4 "/usr/arm-none-eabi/include/sys/lock.h"
 1241              		.file 5 "/usr/arm-none-eabi/include/sys/_types.h"
 1242              		.file 6 "/usr/lib/gcc/arm-none-eabi/7.3.1/include/stddef.h"
 1243              		.file 7 "/usr/arm-none-eabi/include/sys/reent.h"
 1244              		.file 8 "/usr/arm-none-eabi/include/math.h"