ARM GAS  /tmp/ccsoqR9L.s 			page 1


   1              		.cpu cortex-m4
   2              		.eabi_attribute 27, 1
   3              		.eabi_attribute 28, 1
   4              		.eabi_attribute 20, 1
   5              		.eabi_attribute 21, 1
   6              		.eabi_attribute 23, 3
   7              		.eabi_attribute 24, 1
   8              		.eabi_attribute 25, 1
   9              		.eabi_attribute 26, 1
  10              		.eabi_attribute 30, 2
  11              		.eabi_attribute 34, 1
  12              		.eabi_attribute 18, 4
  13              		.file	"eeprom.c"
  14              		.text
  15              	.Ltext0:
  16              		.cfi_sections	.debug_frame
  17              		.section	.text.EE_VerifyPageFullWriteVariable,"ax",%progbits
  18              		.align	1
  19              		.p2align 4,,15
  20              		.syntax unified
  21              		.thumb
  22              		.thumb_func
  23              		.fpu fpv4-sp-d16
  24              		.type	EE_VerifyPageFullWriteVariable, %function
  25              	EE_VerifyPageFullWriteVariable:
  26              	.LFB224:
  27              		.file 1 "eeprom.c"
  28              		.loc 1 479 0
  29              		.cfi_startproc
  30              		@ args = 0, pretend = 0, frame = 0
  31              		@ frame_needed = 0, uses_anonymous_args = 0
  32              	.LVL0:
  33 0000 38B5     		push	{r3, r4, r5, lr}
  34              		.cfi_def_cfa_offset 16
  35              		.cfi_offset 3, -16
  36              		.cfi_offset 4, -12
  37              		.cfi_offset 5, -8
  38              		.cfi_offset 14, -4
  39              	.LBB9:
  40              	.LBB10:
  41              		.loc 1 411 0
  42 0002 1B4A     		ldr	r2, .L19
  43              		.loc 1 414 0
  44 0004 1B4B     		ldr	r3, .L19+4
  45              		.loc 1 411 0
  46 0006 1288     		ldrh	r2, [r2]
  47              		.loc 1 414 0
  48 0008 1B88     		ldrh	r3, [r3]
  49 000a 9CB2     		uxth	r4, r3
  50              		.loc 1 411 0
  51 000c 92B2     		uxth	r2, r2
  52              	.LVL1:
  53              		.loc 1 420 0
  54 000e ECB9     		cbnz	r4, .L2
  55              		.loc 1 423 0
  56 0010 4EF6EE63 		movw	r3, #61166
  57              		.loc 1 425 0
ARM GAS  /tmp/ccsoqR9L.s 			page 2


  58 0014 D31A     		subs	r3, r2, r3
  59 0016 18BF     		it	ne
  60 0018 0123     		movne	r3, #1
  61              	.L3:
  62              	.LBE10:
  63              	.LBE9:
  64              		.loc 1 494 0
  65 001a 03F50054 		add	r4, r3, #8192
  66              	.LVL2:
  67              		.loc 1 497 0
  68 001e 164A     		ldr	r2, .L19+8
  69              	.LVL3:
  70              		.loc 1 494 0
  71 0020 0134     		adds	r4, r4, #1
  72              		.loc 1 497 0
  73 0022 0133     		adds	r3, r3, #1
  74              		.loc 1 494 0
  75 0024 A403     		lsls	r4, r4, #14
  76              	.LVL4:
  77              		.loc 1 497 0
  78 0026 02EB8332 		add	r2, r2, r3, lsl #14
  79              	.LVL5:
  80              		.loc 1 500 0
  81 002a 9442     		cmp	r4, r2
  82 002c 03D3     		bcc	.L8
  83 002e 15E0     		b	.L10
  84              	.L6:
  85              		.loc 1 520 0
  86 0030 0434     		adds	r4, r4, #4
  87              	.LVL6:
  88              		.loc 1 500 0
  89 0032 A242     		cmp	r2, r4
  90 0034 12D9     		bls	.L10
  91              	.L8:
  92              		.loc 1 503 0
  93 0036 2368     		ldr	r3, [r4]
  94 0038 0133     		adds	r3, r3, #1
  95 003a F9D1     		bne	.L6
  96 003c 0546     		mov	r5, r0
  97              		.loc 1 506 0
  98 003e 2046     		mov	r0, r4
  99              	.LVL7:
 100 0040 FFF7FEFF 		bl	FLASH_ProgramHalfWord
 101              	.LVL8:
 102              		.loc 1 508 0
 103 0044 0928     		cmp	r0, #9
 104 0046 0DD0     		beq	.L7
 105              	.LVL9:
 106              	.L17:
 107              		.loc 1 515 0
 108 0048 80B2     		uxth	r0, r0
 109              	.LVL10:
 110              		.loc 1 526 0
 111 004a 38BD     		pop	{r3, r4, r5, pc}
 112              	.LVL11:
 113              	.L2:
 114              	.LBB12:
ARM GAS  /tmp/ccsoqR9L.s 			page 3


 115              	.LBB11:
 116              		.loc 1 432 0
 117 004c 42B9     		cbnz	r2, .L9
 118              		.loc 1 435 0
 119 004e 4EF6EE63 		movw	r3, #61166
 120              		.loc 1 425 0
 121 0052 E31A     		subs	r3, r4, r3
 122 0054 B3FA83F3 		clz	r3, r3
 123 0058 5B09     		lsrs	r3, r3, #5
 124 005a DEE7     		b	.L3
 125              	.LVL12:
 126              	.L10:
 127              	.LBE11:
 128              	.LBE12:
 129              		.loc 1 525 0
 130 005c 8020     		movs	r0, #128
 131              	.LVL13:
 132              		.loc 1 526 0
 133 005e 38BD     		pop	{r3, r4, r5, pc}
 134              	.LVL14:
 135              	.L9:
 136              		.loc 1 490 0
 137 0060 AB20     		movs	r0, #171
 138              	.LVL15:
 139              		.loc 1 526 0
 140 0062 38BD     		pop	{r3, r4, r5, pc}
 141              	.LVL16:
 142              	.L7:
 143              		.loc 1 513 0
 144 0064 2946     		mov	r1, r5
 145 0066 A01C     		adds	r0, r4, #2
 146              	.LVL17:
 147 0068 FFF7FEFF 		bl	FLASH_ProgramHalfWord
 148              	.LVL18:
 149 006c ECE7     		b	.L17
 150              	.L20:
 151 006e 00BF     		.align	2
 152              	.L19:
 153 0070 00400008 		.word	134234112
 154 0074 00800008 		.word	134250496
 155 0078 FE3F0008 		.word	134234110
 156              		.cfi_endproc
 157              	.LFE224:
 158              		.size	EE_VerifyPageFullWriteVariable, .-EE_VerifyPageFullWriteVariable
 159              		.section	.text.EE_EraseSectorIfNotEmpty.constprop.1,"ax",%progbits
 160              		.align	1
 161              		.p2align 4,,15
 162              		.syntax unified
 163              		.thumb
 164              		.thumb_func
 165              		.fpu fpv4-sp-d16
 166              		.type	EE_EraseSectorIfNotEmpty.constprop.1, %function
 167              	EE_EraseSectorIfNotEmpty.constprop.1:
 168              	.LFB228:
 169              		.loc 1 632 0
 170              		.cfi_startproc
 171              		@ args = 0, pretend = 0, frame = 0
ARM GAS  /tmp/ccsoqR9L.s 			page 4


 172              		@ frame_needed = 0, uses_anonymous_args = 0
 173              	.LVL19:
 174 0000 10B5     		push	{r4, lr}
 175              		.cfi_def_cfa_offset 8
 176              		.cfi_offset 4, -8
 177              		.cfi_offset 14, -4
 178              		.loc 1 632 0
 179 0002 0446     		mov	r4, r0
 180              		.loc 1 633 0
 181 0004 FFF7FEFF 		bl	flash_helper_get_sector_address
 182              	.LVL20:
 183 0008 00F57F52 		add	r2, r0, #16320
 184 000c 3F32     		adds	r2, r2, #63
 185 000e 0138     		subs	r0, r0, #1
 186              	.LVL21:
 187 0010 01E0     		b	.L24
 188              	.LVL22:
 189              	.L22:
 190              	.LBB13:
 191              		.loc 1 635 0
 192 0012 9042     		cmp	r0, r2
 193 0014 09D0     		beq	.L27
 194              	.LVL23:
 195              	.L24:
 196              		.loc 1 636 0
 197 0016 10F8013F 		ldrb	r3, [r0, #1]!	@ zero_extendqisi2
 198              	.LVL24:
 199 001a FF2B     		cmp	r3, #255
 200 001c F9D0     		beq	.L22
 201              		.loc 1 637 0
 202 001e 2046     		mov	r0, r4
 203              	.LVL25:
 204 0020 0221     		movs	r1, #2
 205 0022 FFF7FEFF 		bl	FLASH_EraseSector
 206              	.LVL26:
 207 0026 80B2     		uxth	r0, r0
 208              	.LBE13:
 209              		.loc 1 642 0
 210 0028 10BD     		pop	{r4, pc}
 211              	.LVL27:
 212              	.L27:
 213              		.loc 1 641 0
 214 002a 0920     		movs	r0, #9
 215              	.LVL28:
 216              		.loc 1 642 0
 217 002c 10BD     		pop	{r4, pc}
 218              		.cfi_endproc
 219              	.LFE228:
 220              		.size	EE_EraseSectorIfNotEmpty.constprop.1, .-EE_EraseSectorIfNotEmpty.constprop.1
 221 002e 00BF     		.section	.text.EE_Format,"ax",%progbits
 222              		.align	1
 223              		.p2align 4,,15
 224              		.syntax unified
 225              		.thumb
 226              		.thumb_func
 227              		.fpu fpv4-sp-d16
 228              		.type	EE_Format, %function
ARM GAS  /tmp/ccsoqR9L.s 			page 5


 229              	EE_Format:
 230              	.LFB222:
 231              		.loc 1 369 0
 232              		.cfi_startproc
 233              		@ args = 0, pretend = 0, frame = 0
 234              		@ frame_needed = 0, uses_anonymous_args = 0
 235              	.LVL29:
 236 0000 08B5     		push	{r3, lr}
 237              		.cfi_def_cfa_offset 8
 238              		.cfi_offset 3, -8
 239              		.cfi_offset 14, -4
 240              		.loc 1 373 0
 241 0002 0820     		movs	r0, #8
 242 0004 FFF7FEFF 		bl	EE_EraseSectorIfNotEmpty.constprop.1
 243              	.LVL30:
 244 0008 C0B2     		uxtb	r0, r0
 245              	.LVL31:
 246              		.loc 1 376 0
 247 000a 0928     		cmp	r0, #9
 248 000c 00D0     		beq	.L31
 249              	.L29:
 250              		.loc 1 395 0
 251 000e 08BD     		pop	{r3, pc}
 252              	.L31:
 253              		.loc 1 382 0
 254 0010 0021     		movs	r1, #0
 255 0012 0548     		ldr	r0, .L32
 256              	.LVL32:
 257 0014 FFF7FEFF 		bl	FLASH_ProgramHalfWord
 258              	.LVL33:
 259              		.loc 1 385 0
 260 0018 0928     		cmp	r0, #9
 261 001a F8D1     		bne	.L29
 262              	.LBB16:
 263              		.loc 1 391 0
 264 001c 1020     		movs	r0, #16
 265              	.LVL34:
 266 001e FFF7FEFF 		bl	EE_EraseSectorIfNotEmpty.constprop.1
 267              	.LVL35:
 268 0022 C0B2     		uxtb	r0, r0
 269              	.LBE16:
 270              		.loc 1 395 0
 271 0024 08BD     		pop	{r3, pc}
 272              	.L33:
 273 0026 00BF     		.align	2
 274              	.L32:
 275 0028 00400008 		.word	134234112
 276              		.cfi_endproc
 277              	.LFE222:
 278              		.size	EE_Format, .-EE_Format
 279              		.section	.text.EE_ReadVariable,"ax",%progbits
 280              		.align	1
 281              		.p2align 4,,15
 282              		.global	EE_ReadVariable
 283              		.syntax unified
 284              		.thumb
 285              		.thumb_func
ARM GAS  /tmp/ccsoqR9L.s 			page 6


 286              		.fpu fpv4-sp-d16
 287              		.type	EE_ReadVariable, %function
 288              	EE_ReadVariable:
 289              	.LFB220:
 290              		.loc 1 272 0
 291              		.cfi_startproc
 292              		@ args = 0, pretend = 0, frame = 0
 293              		@ frame_needed = 0, uses_anonymous_args = 0
 294              		@ link register save eliminated.
 295              	.LVL36:
 296              	.LBB17:
 297              	.LBB18:
 298              		.loc 1 411 0
 299 0000 144B     		ldr	r3, .L46
 300              		.loc 1 414 0
 301 0002 154A     		ldr	r2, .L46+4
 302              		.loc 1 411 0
 303 0004 1B88     		ldrh	r3, [r3]
 304              		.loc 1 414 0
 305 0006 1288     		ldrh	r2, [r2]
 306              		.loc 1 411 0
 307 0008 9BB2     		uxth	r3, r3
 308              	.LVL37:
 309              	.LBE18:
 310              	.LBE17:
 311              		.loc 1 272 0
 312 000a 10B4     		push	{r4}
 313              		.cfi_def_cfa_offset 4
 314              		.cfi_offset 4, -4
 315              	.LBB20:
 316              	.LBB19:
 317              		.loc 1 450 0
 318 000c 2BB1     		cbz	r3, .L40
 319 000e 92B2     		uxth	r2, r2
 320              		.loc 1 454 0
 321 0010 DAB9     		cbnz	r2, .L45
 322 0012 124B     		ldr	r3, .L46+8
 323              	.LVL38:
 324 0014 124C     		ldr	r4, .L46+12
 325 0016 1A46     		mov	r2, r3
 326              	.LVL39:
 327 0018 02E0     		b	.L35
 328              	.LVL40:
 329              	.L40:
 330              		.loc 1 450 0
 331 001a 124B     		ldr	r3, .L46+16
 332              	.LVL41:
 333 001c 124C     		ldr	r4, .L46+20
 334 001e 1A46     		mov	r2, r3
 335              	.LVL42:
 336              	.L35:
 337              	.LBE19:
 338              	.LBE20:
 339              		.loc 1 296 0
 340 0020 1288     		ldrh	r2, [r2]
 341              	.LVL43:
 342              		.loc 1 299 0
ARM GAS  /tmp/ccsoqR9L.s 			page 7


 343 0022 9042     		cmp	r0, r2
 344 0024 03D1     		bne	.L37
 345 0026 09E0     		b	.L39
 346              	.LVL44:
 347              	.L38:
 348              		.loc 1 296 0
 349 0028 1A88     		ldrh	r2, [r3]
 350              	.LVL45:
 351              		.loc 1 299 0
 352 002a 9042     		cmp	r0, r2
 353 002c 06D0     		beq	.L39
 354              	.LVL46:
 355              	.L37:
 356              		.loc 1 312 0
 357 002e 043B     		subs	r3, r3, #4
 358              	.LVL47:
 359              		.loc 1 293 0
 360 0030 A342     		cmp	r3, r4
 361 0032 F9D8     		bhi	.L38
 362              		.loc 1 274 0
 363 0034 0120     		movs	r0, #1
 364              	.LVL48:
 365              		.loc 1 318 0
 366 0036 5DF8044B 		ldr	r4, [sp], #4
 367              		.cfi_remember_state
 368              		.cfi_restore 4
 369              		.cfi_def_cfa_offset 0
 370 003a 7047     		bx	lr
 371              	.LVL49:
 372              	.L39:
 373              		.cfi_restore_state
 374              		.loc 1 302 0
 375 003c 33F8023C 		ldrh	r3, [r3, #-2]
 376 0040 0B80     		strh	r3, [r1]	@ movhi
 377              	.LVL50:
 378              		.loc 1 305 0
 379 0042 0020     		movs	r0, #0
 380              	.LVL51:
 381              		.loc 1 318 0
 382 0044 5DF8044B 		ldr	r4, [sp], #4
 383              		.cfi_remember_state
 384              		.cfi_restore 4
 385              		.cfi_def_cfa_offset 0
 386 0048 7047     		bx	lr
 387              	.LVL52:
 388              	.L45:
 389              		.cfi_restore_state
 390              		.loc 1 283 0
 391 004a AB20     		movs	r0, #171
 392              	.LVL53:
 393              		.loc 1 318 0
 394 004c 5DF8044B 		ldr	r4, [sp], #4
 395              		.cfi_restore 4
 396              		.cfi_def_cfa_offset 0
 397 0050 7047     		bx	lr
 398              	.L47:
 399 0052 00BF     		.align	2
ARM GAS  /tmp/ccsoqR9L.s 			page 8


 400              	.L46:
 401 0054 00400008 		.word	134234112
 402 0058 00800008 		.word	134250496
 403 005c FEBF0008 		.word	134266878
 404 0060 02800008 		.word	134250498
 405 0064 FE7F0008 		.word	134250494
 406 0068 02400008 		.word	134234114
 407              		.cfi_endproc
 408              	.LFE220:
 409              		.size	EE_ReadVariable, .-EE_ReadVariable
 410              		.section	.text.EE_Init,"ax",%progbits
 411              		.align	1
 412              		.p2align 4,,15
 413              		.global	EE_Init
 414              		.syntax unified
 415              		.thumb
 416              		.thumb_func
 417              		.fpu fpv4-sp-d16
 418              		.type	EE_Init, %function
 419              	EE_Init:
 420              	.LFB219:
 421              		.loc 1 57 0
 422              		.cfi_startproc
 423              		@ args = 0, pretend = 0, frame = 0
 424              		@ frame_needed = 0, uses_anonymous_args = 0
 425              	.LVL54:
 426 0000 2DE9F041 		push	{r4, r5, r6, r7, r8, lr}
 427              		.cfi_def_cfa_offset 24
 428              		.cfi_offset 4, -24
 429              		.cfi_offset 5, -20
 430              		.cfi_offset 6, -16
 431              		.cfi_offset 7, -12
 432              		.cfi_offset 8, -8
 433              		.cfi_offset 14, -4
 434              		.loc 1 65 0
 435 0004 484D     		ldr	r5, .L86
 436              		.loc 1 67 0
 437 0006 494E     		ldr	r6, .L86+4
 438              		.loc 1 65 0
 439 0008 2C88     		ldrh	r4, [r5]
 440              		.loc 1 67 0
 441 000a 3388     		ldrh	r3, [r6]
 442              		.loc 1 65 0
 443 000c A4B2     		uxth	r4, r4
 444              	.LVL55:
 445              		.loc 1 70 0
 446 000e 4EF6EE62 		movw	r2, #61166
 447 0012 9442     		cmp	r4, r2
 448              		.loc 1 67 0
 449 0014 9BB2     		uxth	r3, r3
 450              	.LVL56:
 451              		.loc 1 70 0
 452 0016 49D0     		beq	.L50
 453 0018 4FF6FF71 		movw	r1, #65535
 454 001c 8C42     		cmp	r4, r1
 455 001e 36D0     		beq	.L51
 456 0020 24B1     		cbz	r4, .L85
ARM GAS  /tmp/ccsoqR9L.s 			page 9


 457              	.L79:
 458              		.loc 1 249 0
 459 0022 FFF7FEFF 		bl	EE_Format
 460              	.LVL57:
 461 0026 80B2     		uxth	r0, r0
 462              	.LVL58:
 463              	.L55:
 464              		.loc 1 259 0
 465 0028 BDE8F081 		pop	{r4, r5, r6, r7, r8, pc}
 466              	.LVL59:
 467              	.L85:
 468              		.loc 1 184 0
 469 002c 002B     		cmp	r3, #0
 470 002e F8D0     		beq	.L79
 471              		.loc 1 194 0
 472 0030 8B42     		cmp	r3, r1
 473 0032 64D0     		beq	.L84
 474 0034 3E4D     		ldr	r5, .L86+8
 475              		.loc 1 209 0
 476 0036 3F4F     		ldr	r7, .L86+12
 477              		.loc 1 216 0
 478 0038 DFF8FC80 		ldr	r8, .L86+16
 479              		.loc 1 61 0
 480 003c 4FF0FF36 		mov	r6, #-1
 481              	.LVL60:
 482              	.L65:
 483              		.loc 1 209 0
 484 0040 35F8023B 		ldrh	r3, [r5], #2
 485 0044 3A88     		ldrh	r2, [r7]
 486              		.loc 1 216 0
 487 0046 3C49     		ldr	r1, .L86+16
 488              		.loc 1 209 0
 489 0048 9342     		cmp	r3, r2
 490              		.loc 1 211 0
 491 004a 08BF     		it	eq
 492 004c 26B2     		sxtheq	r6, r4
 493              	.LVL61:
 494              		.loc 1 213 0
 495 004e B442     		cmp	r4, r6
 496              		.loc 1 216 0
 497 0050 1846     		mov	r0, r3
 498 0052 04F10104 		add	r4, r4, #1
 499              	.LVL62:
 500              		.loc 1 213 0
 501 0056 0BD0     		beq	.L67
 502              		.loc 1 216 0
 503 0058 FFF7FEFF 		bl	EE_ReadVariable
 504              	.LVL63:
 505              		.loc 1 218 0
 506 005c 0128     		cmp	r0, #1
 507 005e 07D0     		beq	.L67
 508              		.loc 1 221 0
 509 0060 B8F80010 		ldrh	r1, [r8]
 510 0064 35F8020C 		ldrh	r0, [r5, #-2]
 511              	.LVL64:
 512 0068 FFF7FEFF 		bl	EE_VerifyPageFullWriteVariable
 513              	.LVL65:
ARM GAS  /tmp/ccsoqR9L.s 			page 10


 514              		.loc 1 223 0
 515 006c 0928     		cmp	r0, #9
 516 006e DBD1     		bne	.L55
 517              	.LVL66:
 518              	.L67:
 519              		.loc 1 207 0
 520 0070 B4F59B6F 		cmp	r4, #1240
 521 0074 E4D1     		bne	.L65
 522              		.loc 1 231 0
 523 0076 0021     		movs	r1, #0
 524 0078 2C48     		ldr	r0, .L86+4
 525 007a FFF7FEFF 		bl	FLASH_ProgramHalfWord
 526              	.LVL67:
 527 007e 80B2     		uxth	r0, r0
 528              	.LVL68:
 529              		.loc 1 233 0
 530 0080 0928     		cmp	r0, #9
 531 0082 D1D1     		bne	.L55
 532              	.LVL69:
 533              	.L83:
 534              		.loc 1 238 0
 535 0084 0820     		movs	r0, #8
 536              		.loc 1 259 0
 537 0086 BDE8F041 		pop	{r4, r5, r6, r7, r8, lr}
 538              		.cfi_remember_state
 539              		.cfi_restore 14
 540              		.cfi_restore 8
 541              		.cfi_restore 7
 542              		.cfi_restore 6
 543              		.cfi_restore 5
 544              		.cfi_restore 4
 545              		.cfi_def_cfa_offset 0
 546              		.loc 1 238 0
 547 008a FFF7FEBF 		b	EE_EraseSectorIfNotEmpty.constprop.1
 548              	.LVL70:
 549              	.L51:
 550              		.cfi_restore_state
 551              		.loc 1 73 0
 552 008e 002B     		cmp	r3, #0
 553 0090 F8D0     		beq	.L83
 554              		.loc 1 83 0
 555 0092 9342     		cmp	r3, r2
 556 0094 C5D1     		bne	.L79
 557              		.loc 1 86 0
 558 0096 0820     		movs	r0, #8
 559 0098 FFF7FEFF 		bl	EE_EraseSectorIfNotEmpty.constprop.1
 560              	.LVL71:
 561              		.loc 1 88 0
 562 009c 0928     		cmp	r0, #9
 563 009e C3D1     		bne	.L55
 564              		.loc 1 93 0
 565 00a0 3046     		mov	r0, r6
 566              	.LVL72:
 567 00a2 0021     		movs	r1, #0
 568 00a4 FFF7FEFF 		bl	FLASH_ProgramHalfWord
 569              	.LVL73:
 570 00a8 80B2     		uxth	r0, r0
ARM GAS  /tmp/ccsoqR9L.s 			page 11


 571              	.LVL74:
 572 00aa BDE7     		b	.L55
 573              	.LVL75:
 574              	.L50:
 575              		.loc 1 113 0
 576 00ac 63BB     		cbnz	r3, .L56
 577 00ae 204D     		ldr	r5, .L86+8
 578              		.loc 1 118 0
 579 00b0 224E     		ldr	r6, .L86+20
 580              		.loc 1 125 0
 581 00b2 214F     		ldr	r7, .L86+16
 582              		.loc 1 113 0
 583 00b4 1C46     		mov	r4, r3
 584              	.LVL76:
 585              		.loc 1 61 0
 586 00b6 4FF0FF38 		mov	r8, #-1
 587              	.LVL77:
 588              	.L59:
 589              		.loc 1 118 0
 590 00ba 35F8023B 		ldrh	r3, [r5], #2
 591 00be 3288     		ldrh	r2, [r6]
 592              		.loc 1 125 0
 593 00c0 1D49     		ldr	r1, .L86+16
 594              		.loc 1 118 0
 595 00c2 9342     		cmp	r3, r2
 596              		.loc 1 120 0
 597 00c4 08BF     		it	eq
 598 00c6 0FFA84F8 		sxtheq	r8, r4
 599              	.LVL78:
 600              		.loc 1 122 0
 601 00ca 4445     		cmp	r4, r8
 602              		.loc 1 125 0
 603 00cc 1846     		mov	r0, r3
 604 00ce 04F10104 		add	r4, r4, #1
 605              	.LVL79:
 606              		.loc 1 122 0
 607 00d2 0AD0     		beq	.L61
 608              		.loc 1 125 0
 609 00d4 FFF7FEFF 		bl	EE_ReadVariable
 610              	.LVL80:
 611              		.loc 1 127 0
 612 00d8 0128     		cmp	r0, #1
 613 00da 06D0     		beq	.L61
 614              		.loc 1 130 0
 615 00dc 3988     		ldrh	r1, [r7]
 616 00de 35F8020C 		ldrh	r0, [r5, #-2]
 617              	.LVL81:
 618 00e2 FFF7FEFF 		bl	EE_VerifyPageFullWriteVariable
 619              	.LVL82:
 620              		.loc 1 132 0
 621 00e6 0928     		cmp	r0, #9
 622 00e8 9ED1     		bne	.L55
 623              	.LVL83:
 624              	.L61:
 625              		.loc 1 116 0
 626 00ea B4F59B6F 		cmp	r4, #1240
 627 00ee E4D1     		bne	.L59
ARM GAS  /tmp/ccsoqR9L.s 			page 12


 628              		.loc 1 140 0
 629 00f0 0021     		movs	r1, #0
 630 00f2 0D48     		ldr	r0, .L86
 631 00f4 FFF7FEFF 		bl	FLASH_ProgramHalfWord
 632              	.LVL84:
 633 00f8 80B2     		uxth	r0, r0
 634              	.LVL85:
 635              		.loc 1 142 0
 636 00fa 0928     		cmp	r0, #9
 637 00fc 94D1     		bne	.L55
 638              	.LVL86:
 639              	.L84:
 640              		.loc 1 197 0
 641 00fe 1020     		movs	r0, #16
 642              		.loc 1 259 0
 643 0100 BDE8F041 		pop	{r4, r5, r6, r7, r8, lr}
 644              		.cfi_remember_state
 645              		.cfi_restore 14
 646              		.cfi_restore 8
 647              		.cfi_restore 7
 648              		.cfi_restore 6
 649              		.cfi_restore 5
 650              		.cfi_restore 4
 651              		.cfi_def_cfa_offset 0
 652              		.loc 1 197 0
 653 0104 FFF7FEBF 		b	EE_EraseSectorIfNotEmpty.constprop.1
 654              	.LVL87:
 655              	.L56:
 656              		.cfi_restore_state
 657              		.loc 1 154 0
 658 0108 4FF6FF72 		movw	r2, #65535
 659 010c 9342     		cmp	r3, r2
 660 010e 88D1     		bne	.L79
 661              		.loc 1 157 0
 662 0110 1020     		movs	r0, #16
 663 0112 FFF7FEFF 		bl	EE_EraseSectorIfNotEmpty.constprop.1
 664              	.LVL88:
 665              		.loc 1 159 0
 666 0116 0928     		cmp	r0, #9
 667 0118 86D1     		bne	.L55
 668              		.loc 1 164 0
 669 011a 2846     		mov	r0, r5
 670              	.LVL89:
 671 011c 0021     		movs	r1, #0
 672 011e FFF7FEFF 		bl	FLASH_ProgramHalfWord
 673              	.LVL90:
 674 0122 80B2     		uxth	r0, r0
 675              	.LVL91:
 676 0124 80E7     		b	.L55
 677              	.L87:
 678 0126 00BF     		.align	2
 679              	.L86:
 680 0128 00400008 		.word	134234112
 681 012c 00800008 		.word	134250496
 682 0130 00000000 		.word	VirtAddVarTab
 683 0134 06800008 		.word	134250502
 684 0138 00000000 		.word	.LANCHOR0
ARM GAS  /tmp/ccsoqR9L.s 			page 13


 685 013c 06400008 		.word	134234118
 686              		.cfi_endproc
 687              	.LFE219:
 688              		.size	EE_Init, .-EE_Init
 689              		.section	.text.EE_WriteVariable,"ax",%progbits
 690              		.align	1
 691              		.p2align 4,,15
 692              		.global	EE_WriteVariable
 693              		.syntax unified
 694              		.thumb
 695              		.thumb_func
 696              		.fpu fpv4-sp-d16
 697              		.type	EE_WriteVariable, %function
 698              	EE_WriteVariable:
 699              	.LFB221:
 700              		.loc 1 331 0
 701              		.cfi_startproc
 702              		@ args = 0, pretend = 0, frame = 8
 703              		@ frame_needed = 0, uses_anonymous_args = 0
 704              	.LVL92:
 705 0000 2DE9F043 		push	{r4, r5, r6, r7, r8, r9, lr}
 706              		.cfi_def_cfa_offset 28
 707              		.cfi_offset 4, -28
 708              		.cfi_offset 5, -24
 709              		.cfi_offset 6, -20
 710              		.cfi_offset 7, -16
 711              		.cfi_offset 8, -12
 712              		.cfi_offset 9, -8
 713              		.cfi_offset 14, -4
 714 0004 83B0     		sub	sp, sp, #12
 715              		.cfi_def_cfa_offset 40
 716              		.loc 1 332 0
 717 0006 02AB     		add	r3, sp, #8
 718 0008 0022     		movs	r2, #0
 719 000a 23F8022D 		strh	r2, [r3, #-2]!	@ movhi
 720              		.loc 1 331 0
 721 000e 0C46     		mov	r4, r1
 722              		.loc 1 333 0
 723 0010 1946     		mov	r1, r3
 724              	.LVL93:
 725              		.loc 1 331 0
 726 0012 0546     		mov	r5, r0
 727              		.loc 1 333 0
 728 0014 FFF7FEFF 		bl	EE_ReadVariable
 729              	.LVL94:
 730 0018 18B9     		cbnz	r0, .L89
 731              		.loc 1 334 0
 732 001a BDF80630 		ldrh	r3, [sp, #6]
 733 001e A342     		cmp	r3, r4
 734 0020 3BD0     		beq	.L98
 735              	.L89:
 736              	.LVL95:
 737              		.loc 1 342 0
 738 0022 2A4B     		ldr	r3, .L113
 739 0024 5B68     		ldr	r3, [r3, #4]
 740 0026 5B07     		lsls	r3, r3, #29
 741 0028 08D4     		bmi	.L99
ARM GAS  /tmp/ccsoqR9L.s 			page 14


 742              		.loc 1 349 0
 743 002a 2146     		mov	r1, r4
 744 002c 2846     		mov	r0, r5
 745 002e FFF7FEFF 		bl	EE_VerifyPageFullWriteVariable
 746              	.LVL96:
 747              		.loc 1 352 0
 748 0032 8028     		cmp	r0, #128
 749 0034 33D0     		beq	.L112
 750              	.LVL97:
 751              	.L90:
 752              		.loc 1 360 0
 753 0036 03B0     		add	sp, sp, #12
 754              		.cfi_remember_state
 755              		.cfi_def_cfa_offset 28
 756              		@ sp needed
 757 0038 BDE8F083 		pop	{r4, r5, r6, r7, r8, r9, pc}
 758              	.LVL98:
 759              	.L99:
 760              		.cfi_restore_state
 761              		.loc 1 344 0
 762 003c 0720     		movs	r0, #7
 763              		.loc 1 360 0
 764 003e 03B0     		add	sp, sp, #12
 765              		.cfi_remember_state
 766              		.cfi_def_cfa_offset 28
 767              		@ sp needed
 768 0040 BDE8F083 		pop	{r4, r5, r6, r7, r8, r9, pc}
 769              	.LVL99:
 770              	.L92:
 771              		.cfi_restore_state
 772              	.LBB25:
 773              	.LBB26:
 774              		.loc 1 580 0
 775 0044 2146     		mov	r1, r4
 776 0046 2846     		mov	r0, r5
 777              	.LVL100:
 778 0048 FFF7FEFF 		bl	EE_VerifyPageFullWriteVariable
 779              	.LVL101:
 780              		.loc 1 582 0
 781 004c 0928     		cmp	r0, #9
 782 004e F2D1     		bne	.L90
 783 0050 1F4C     		ldr	r4, .L113+4
 784              	.LVL102:
 785              		.loc 1 593 0
 786 0052 DFF88090 		ldr	r9, .L113+8
 787 0056 04F51B68 		add	r8, r4, #2480
 788              	.LVL103:
 789              	.L94:
 790              		.loc 1 590 0
 791 005a 34F8023B 		ldrh	r3, [r4], #2
 792              		.loc 1 593 0
 793 005e 1D49     		ldr	r1, .L113+8
 794              		.loc 1 590 0
 795 0060 9D42     		cmp	r5, r3
 796              		.loc 1 593 0
 797 0062 1846     		mov	r0, r3
 798              		.loc 1 590 0
ARM GAS  /tmp/ccsoqR9L.s 			page 15


 799 0064 0BD0     		beq	.L96
 800              		.loc 1 593 0
 801 0066 FFF7FEFF 		bl	EE_ReadVariable
 802              	.LVL104:
 803              		.loc 1 595 0
 804 006a 0128     		cmp	r0, #1
 805 006c 07D0     		beq	.L96
 806              		.loc 1 598 0
 807 006e B9F80010 		ldrh	r1, [r9]
 808 0072 34F8020C 		ldrh	r0, [r4, #-2]
 809              	.LVL105:
 810 0076 FFF7FEFF 		bl	EE_VerifyPageFullWriteVariable
 811              	.LVL106:
 812              		.loc 1 600 0
 813 007a 0928     		cmp	r0, #9
 814 007c DBD1     		bne	.L90
 815              	.LVL107:
 816              	.L96:
 817              		.loc 1 588 0
 818 007e A045     		cmp	r8, r4
 819 0080 EBD1     		bne	.L94
 820              		.loc 1 609 0
 821 0082 3846     		mov	r0, r7
 822 0084 FFF7FEFF 		bl	EE_EraseSectorIfNotEmpty.constprop.1
 823              	.LVL108:
 824              		.loc 1 611 0
 825 0088 C0B2     		uxtb	r0, r0
 826 008a 0928     		cmp	r0, #9
 827 008c 1AD1     		bne	.L111
 828              		.loc 1 617 0
 829 008e 3046     		mov	r0, r6
 830              	.LVL109:
 831 0090 0021     		movs	r1, #0
 832 0092 FFF7FEFF 		bl	FLASH_ProgramHalfWord
 833              	.LVL110:
 834              		.loc 1 619 0
 835 0096 0928     		cmp	r0, #9
 836 0098 14D1     		bne	.L111
 837              	.LVL111:
 838              	.L98:
 839              	.LBE26:
 840              	.LBE25:
 841              		.loc 1 335 0
 842 009a 0920     		movs	r0, #9
 843 009c CBE7     		b	.L90
 844              	.LVL112:
 845              	.L112:
 846              	.LBB30:
 847              	.LBB29:
 848              	.LBB27:
 849              	.LBB28:
 850              		.loc 1 411 0
 851 009e 0E4E     		ldr	r6, .L113+12
 852              		.loc 1 414 0
 853 00a0 0E48     		ldr	r0, .L113+16
 854              	.LVL113:
 855              		.loc 1 411 0
ARM GAS  /tmp/ccsoqR9L.s 			page 16


 856 00a2 3388     		ldrh	r3, [r6]
 857              		.loc 1 414 0
 858 00a4 0288     		ldrh	r2, [r0]
 859              		.loc 1 411 0
 860 00a6 9BB2     		uxth	r3, r3
 861              	.LVL114:
 862              		.loc 1 414 0
 863 00a8 92B2     		uxth	r2, r2
 864              	.LVL115:
 865              		.loc 1 450 0
 866 00aa 13B1     		cbz	r3, .L100
 867              		.loc 1 454 0
 868 00ac 62B9     		cbnz	r2, .L101
 869              	.LBE28:
 870              	.LBE27:
 871              		.loc 1 556 0
 872 00ae 1027     		movs	r7, #16
 873 00b0 01E0     		b	.L91
 874              	.L100:
 875              		.loc 1 561 0
 876 00b2 0646     		mov	r6, r0
 877              		.loc 1 564 0
 878 00b4 0827     		movs	r7, #8
 879              	.L91:
 880              	.LVL116:
 881              		.loc 1 572 0
 882 00b6 4EF6EE61 		movw	r1, #61166
 883 00ba 3046     		mov	r0, r6
 884 00bc FFF7FEFF 		bl	FLASH_ProgramHalfWord
 885              	.LVL117:
 886              		.loc 1 574 0
 887 00c0 0928     		cmp	r0, #9
 888 00c2 BFD0     		beq	.L92
 889              	.LVL118:
 890              	.L111:
 891              		.loc 1 621 0
 892 00c4 80B2     		uxth	r0, r0
 893 00c6 B6E7     		b	.L90
 894              	.LVL119:
 895              	.L101:
 896              		.loc 1 568 0
 897 00c8 AB20     		movs	r0, #171
 898 00ca B4E7     		b	.L90
 899              	.L114:
 900              		.align	2
 901              	.L113:
 902 00cc 00700040 		.word	1073770496
 903 00d0 00000000 		.word	VirtAddVarTab
 904 00d4 00000000 		.word	.LANCHOR0
 905 00d8 00400008 		.word	134234112
 906 00dc 00800008 		.word	134250496
 907              	.LBE29:
 908              	.LBE30:
 909              		.cfi_endproc
 910              	.LFE221:
 911              		.size	EE_WriteVariable, .-EE_WriteVariable
 912              		.global	DataVar
ARM GAS  /tmp/ccsoqR9L.s 			page 17


 913              		.section	.bss.DataVar,"aw",%nobits
 914              		.align	1
 915              		.set	.LANCHOR0,. + 0
 916              		.type	DataVar, %object
 917              		.size	DataVar, 2
 918              	DataVar:
 919 0000 0000     		.space	2
 920              		.text
 921              	.Letext0:
 922              		.file 2 "/usr/arm-none-eabi/include/machine/_default_types.h"
 923              		.file 3 "/usr/arm-none-eabi/include/sys/_stdint.h"
 924              		.file 4 "ChibiOS_3.0.5/os/ext/CMSIS/include/core_cm4.h"
 925              		.file 5 "ChibiOS_3.0.5/os/ext/CMSIS/ST/system_stm32f4xx.h"
 926              		.file 6 "ChibiOS_3.0.5/os/ext/CMSIS/ST/stm32f407xx.h"
 927              		.file 7 "ChibiOS_3.0.5/ext/stdperiph_stm32f4/inc/stm32f4xx_flash.h"
 928              		.file 8 "/usr/lib/gcc/arm-none-eabi/7.3.1/include/stddef.h"
 929              		.file 9 "ChibiOS_3.0.5/os/rt/ports/ARMCMx/compilers/GCC/chtypes.h"
 930              		.file 10 "ChibiOS_3.0.5/os/rt/include/chsystypes.h"
 931              		.file 11 "ChibiOS_3.0.5/os/rt/include/chschd.h"
 932              		.file 12 "ChibiOS_3.0.5/os/rt/ports/ARMCMx/chcore.h"
 933              		.file 13 "ChibiOS_3.0.5/os/rt/ports/ARMCMx/chcore_v7m.h"
 934              		.file 14 "ChibiOS_3.0.5/os/rt/include/chtm.h"
 935              		.file 15 "ChibiOS_3.0.5/os/rt/include/chsem.h"
 936              		.file 16 "ChibiOS_3.0.5/os/rt/include/chmtx.h"
 937              		.file 17 "ChibiOS_3.0.5/os/rt/include/chregistry.h"
 938              		.file 18 "datatypes.h"
 939              		.file 19 "conf_general.h"
 940              		.file 20 "flash_helper.h"
 941              		.section	.debug_info,"",%progbits
 942              	.Ldebug_info0:
 943 0000 73100000 		.4byte	0x1073
 944 0004 0400     		.2byte	0x4
 945 0006 00000000 		.4byte	.Ldebug_abbrev0
 946 000a 04       		.byte	0x4
 947 000b 01       		.uleb128 0x1
 948 000c 5C000000 		.4byte	.LASF186
 949 0010 0C       		.byte	0xc
 950 0011 4A020000 		.4byte	.LASF187
 951 0015 1D070000 		.4byte	.LASF188
 952 0019 48000000 		.4byte	.Ldebug_ranges0+0x48
 953 001d 00000000 		.4byte	0
 954 0021 00000000 		.4byte	.Ldebug_line0
 955 0025 02       		.uleb128 0x2
 956 0026 01       		.byte	0x1
 957 0027 06       		.byte	0x6
 958 0028 3E020000 		.4byte	.LASF0
 959 002c 03       		.uleb128 0x3
 960 002d 36000000 		.4byte	.LASF2
 961 0031 02       		.byte	0x2
 962 0032 2B       		.byte	0x2b
 963 0033 37000000 		.4byte	0x37
 964 0037 02       		.uleb128 0x2
 965 0038 01       		.byte	0x1
 966 0039 08       		.byte	0x8
 967 003a 35060000 		.4byte	.LASF1
 968 003e 03       		.uleb128 0x3
 969 003f 46030000 		.4byte	.LASF3
ARM GAS  /tmp/ccsoqR9L.s 			page 18


 970 0043 02       		.byte	0x2
 971 0044 37       		.byte	0x37
 972 0045 49000000 		.4byte	0x49
 973 0049 02       		.uleb128 0x2
 974 004a 02       		.byte	0x2
 975 004b 05       		.byte	0x5
 976 004c 64060000 		.4byte	.LASF4
 977 0050 03       		.uleb128 0x3
 978 0051 C0070000 		.4byte	.LASF5
 979 0055 02       		.byte	0x2
 980 0056 39       		.byte	0x39
 981 0057 5B000000 		.4byte	0x5b
 982 005b 02       		.uleb128 0x2
 983 005c 02       		.byte	0x2
 984 005d 07       		.byte	0x7
 985 005e FF030000 		.4byte	.LASF6
 986 0062 03       		.uleb128 0x3
 987 0063 AB040000 		.4byte	.LASF7
 988 0067 02       		.byte	0x2
 989 0068 4D       		.byte	0x4d
 990 0069 6D000000 		.4byte	0x6d
 991 006d 02       		.uleb128 0x2
 992 006e 04       		.byte	0x4
 993 006f 05       		.byte	0x5
 994 0070 D2020000 		.4byte	.LASF8
 995 0074 03       		.uleb128 0x3
 996 0075 F8070000 		.4byte	.LASF9
 997 0079 02       		.byte	0x2
 998 007a 4F       		.byte	0x4f
 999 007b 7F000000 		.4byte	0x7f
 1000 007f 02       		.uleb128 0x2
 1001 0080 04       		.byte	0x4
 1002 0081 07       		.byte	0x7
 1003 0082 6B070000 		.4byte	.LASF10
 1004 0086 02       		.uleb128 0x2
 1005 0087 08       		.byte	0x8
 1006 0088 05       		.byte	0x5
 1007 0089 30020000 		.4byte	.LASF11
 1008 008d 03       		.uleb128 0x3
 1009 008e BA050000 		.4byte	.LASF12
 1010 0092 02       		.byte	0x2
 1011 0093 69       		.byte	0x69
 1012 0094 98000000 		.4byte	0x98
 1013 0098 02       		.uleb128 0x2
 1014 0099 08       		.byte	0x8
 1015 009a 07       		.byte	0x7
 1016 009b 88010000 		.4byte	.LASF13
 1017 009f 04       		.uleb128 0x4
 1018 00a0 04       		.byte	0x4
 1019 00a1 05       		.byte	0x5
 1020 00a2 696E7400 		.ascii	"int\000"
 1021 00a6 02       		.uleb128 0x2
 1022 00a7 04       		.byte	0x4
 1023 00a8 07       		.byte	0x7
 1024 00a9 7F030000 		.4byte	.LASF14
 1025 00ad 03       		.uleb128 0x3
 1026 00ae F0070000 		.4byte	.LASF15
ARM GAS  /tmp/ccsoqR9L.s 			page 19


 1027 00b2 03       		.byte	0x3
 1028 00b3 18       		.byte	0x18
 1029 00b4 2C000000 		.4byte	0x2c
 1030 00b8 03       		.uleb128 0x3
 1031 00b9 28020000 		.4byte	.LASF16
 1032 00bd 03       		.byte	0x3
 1033 00be 20       		.byte	0x20
 1034 00bf 3E000000 		.4byte	0x3e
 1035 00c3 03       		.uleb128 0x3
 1036 00c4 E4020000 		.4byte	.LASF17
 1037 00c8 03       		.byte	0x3
 1038 00c9 24       		.byte	0x24
 1039 00ca 50000000 		.4byte	0x50
 1040 00ce 03       		.uleb128 0x3
 1041 00cf 2D060000 		.4byte	.LASF18
 1042 00d3 03       		.byte	0x3
 1043 00d4 2C       		.byte	0x2c
 1044 00d5 62000000 		.4byte	0x62
 1045 00d9 05       		.uleb128 0x5
 1046 00da CE000000 		.4byte	0xce
 1047 00de 03       		.uleb128 0x3
 1048 00df 83090000 		.4byte	.LASF19
 1049 00e3 03       		.byte	0x3
 1050 00e4 30       		.byte	0x30
 1051 00e5 74000000 		.4byte	0x74
 1052 00e9 05       		.uleb128 0x5
 1053 00ea DE000000 		.4byte	0xde
 1054 00ee 03       		.uleb128 0x3
 1055 00ef 21000000 		.4byte	.LASF20
 1056 00f3 03       		.byte	0x3
 1057 00f4 3C       		.byte	0x3c
 1058 00f5 8D000000 		.4byte	0x8d
 1059 00f9 06       		.uleb128 0x6
 1060 00fa E4010000 		.4byte	.LASF21
 1061 00fe 04       		.byte	0x4
 1062 00ff A706     		.2byte	0x6a7
 1063 0101 D9000000 		.4byte	0xd9
 1064 0105 07       		.uleb128 0x7
 1065 0106 94030000 		.4byte	.LASF22
 1066 010a 05       		.byte	0x5
 1067 010b 4C       		.byte	0x4c
 1068 010c DE000000 		.4byte	0xde
 1069 0110 08       		.uleb128 0x8
 1070 0111 08       		.byte	0x8
 1071 0112 06       		.byte	0x6
 1072 0113 5D02     		.2byte	0x25d
 1073 0115 33010000 		.4byte	0x133
 1074 0119 09       		.uleb128 0x9
 1075 011a 435200   		.ascii	"CR\000"
 1076 011d 06       		.byte	0x6
 1077 011e 5F02     		.2byte	0x25f
 1078 0120 E9000000 		.4byte	0xe9
 1079 0124 00       		.byte	0
 1080 0125 09       		.uleb128 0x9
 1081 0126 43535200 		.ascii	"CSR\000"
 1082 012a 06       		.byte	0x6
 1083 012b 6002     		.2byte	0x260
ARM GAS  /tmp/ccsoqR9L.s 			page 20


 1084 012d E9000000 		.4byte	0xe9
 1085 0131 04       		.byte	0x4
 1086 0132 00       		.byte	0
 1087 0133 0A       		.uleb128 0xa
 1088 0134 27080000 		.4byte	.LASF23
 1089 0138 06       		.byte	0x6
 1090 0139 6102     		.2byte	0x261
 1091 013b 10010000 		.4byte	0x110
 1092 013f 0B       		.uleb128 0xb
 1093 0140 07       		.byte	0x7
 1094 0141 01       		.byte	0x1
 1095 0142 37000000 		.4byte	0x37
 1096 0146 07       		.byte	0x7
 1097 0147 35       		.byte	0x35
 1098 0148 83010000 		.4byte	0x183
 1099 014c 0C       		.uleb128 0xc
 1100 014d 80020000 		.4byte	.LASF24
 1101 0151 01       		.byte	0x1
 1102 0152 0C       		.uleb128 0xc
 1103 0153 6A080000 		.4byte	.LASF25
 1104 0157 02       		.byte	0x2
 1105 0158 0C       		.uleb128 0xc
 1106 0159 A9070000 		.4byte	.LASF26
 1107 015d 03       		.byte	0x3
 1108 015e 0C       		.uleb128 0xc
 1109 015f 8C070000 		.4byte	.LASF27
 1110 0163 04       		.byte	0x4
 1111 0164 0C       		.uleb128 0xc
 1112 0165 23070000 		.4byte	.LASF28
 1113 0169 05       		.byte	0x5
 1114 016a 0C       		.uleb128 0xc
 1115 016b 23090000 		.4byte	.LASF29
 1116 016f 06       		.byte	0x6
 1117 0170 0C       		.uleb128 0xc
 1118 0171 A6050000 		.4byte	.LASF30
 1119 0175 07       		.byte	0x7
 1120 0176 0C       		.uleb128 0xc
 1121 0177 56090000 		.4byte	.LASF31
 1122 017b 08       		.byte	0x8
 1123 017c 0C       		.uleb128 0xc
 1124 017d 39090000 		.4byte	.LASF32
 1125 0181 09       		.byte	0x9
 1126 0182 00       		.byte	0
 1127 0183 03       		.uleb128 0x3
 1128 0184 10030000 		.4byte	.LASF33
 1129 0188 07       		.byte	0x7
 1130 0189 3F       		.byte	0x3f
 1131 018a 3F010000 		.4byte	0x13f
 1132 018e 03       		.uleb128 0x3
 1133 018f 50030000 		.4byte	.LASF34
 1134 0193 08       		.byte	0x8
 1135 0194 D8       		.byte	0xd8
 1136 0195 A6000000 		.4byte	0xa6
 1137 0199 03       		.uleb128 0x3
 1138 019a 06050000 		.4byte	.LASF35
 1139 019e 09       		.byte	0x9
 1140 019f 45       		.byte	0x45
ARM GAS  /tmp/ccsoqR9L.s 			page 21


 1141 01a0 DE000000 		.4byte	0xde
 1142 01a4 03       		.uleb128 0x3
 1143 01a5 AB060000 		.4byte	.LASF36
 1144 01a9 09       		.byte	0x9
 1145 01aa 48       		.byte	0x48
 1146 01ab AD000000 		.4byte	0xad
 1147 01af 03       		.uleb128 0x3
 1148 01b0 DB020000 		.4byte	.LASF37
 1149 01b4 09       		.byte	0x9
 1150 01b5 49       		.byte	0x49
 1151 01b6 AD000000 		.4byte	0xad
 1152 01ba 03       		.uleb128 0x3
 1153 01bb D4050000 		.4byte	.LASF38
 1154 01bf 09       		.byte	0x9
 1155 01c0 4A       		.byte	0x4a
 1156 01c1 AD000000 		.4byte	0xad
 1157 01c5 03       		.uleb128 0x3
 1158 01c6 AB020000 		.4byte	.LASF39
 1159 01ca 09       		.byte	0x9
 1160 01cb 4B       		.byte	0x4b
 1161 01cc AD000000 		.4byte	0xad
 1162 01d0 03       		.uleb128 0x3
 1163 01d1 0A060000 		.4byte	.LASF40
 1164 01d5 09       		.byte	0x9
 1165 01d6 4C       		.byte	0x4c
 1166 01d7 DE000000 		.4byte	0xde
 1167 01db 03       		.uleb128 0x3
 1168 01dc 3D040000 		.4byte	.LASF41
 1169 01e0 09       		.byte	0x9
 1170 01e1 4D       		.byte	0x4d
 1171 01e2 CE000000 		.4byte	0xce
 1172 01e6 03       		.uleb128 0x3
 1173 01e7 2A000000 		.4byte	.LASF42
 1174 01eb 09       		.byte	0x9
 1175 01ec 4F       		.byte	0x4f
 1176 01ed DE000000 		.4byte	0xde
 1177 01f1 03       		.uleb128 0x3
 1178 01f2 6E030000 		.4byte	.LASF43
 1179 01f6 09       		.byte	0x9
 1180 01f7 51       		.byte	0x51
 1181 01f8 CE000000 		.4byte	0xce
 1182 01fc 03       		.uleb128 0x3
 1183 01fd DB070000 		.4byte	.LASF44
 1184 0201 0A       		.byte	0xa
 1185 0202 33       		.byte	0x33
 1186 0203 DE000000 		.4byte	0xde
 1187 0207 05       		.uleb128 0x5
 1188 0208 FC010000 		.4byte	0x1fc
 1189 020c 03       		.uleb128 0x3
 1190 020d CB070000 		.4byte	.LASF45
 1191 0211 0A       		.byte	0xa
 1192 0212 3F       		.byte	0x3f
 1193 0213 17020000 		.4byte	0x217
 1194 0217 0D       		.uleb128 0xd
 1195 0218 33040000 		.4byte	.LASF69
 1196 021c 50       		.byte	0x50
 1197 021d 0B       		.byte	0xb
ARM GAS  /tmp/ccsoqR9L.s 			page 22


 1198 021e C2       		.byte	0xc2
 1199 021f 35030000 		.4byte	0x335
 1200 0223 0E       		.uleb128 0xe
 1201 0224 A4060000 		.4byte	.LASF46
 1202 0228 0B       		.byte	0xb
 1203 0229 C3       		.byte	0xc3
 1204 022a 40030000 		.4byte	0x340
 1205 022e 00       		.byte	0
 1206 022f 0E       		.uleb128 0xe
 1207 0230 03060000 		.4byte	.LASF47
 1208 0234 0B       		.byte	0xb
 1209 0235 C5       		.byte	0xc5
 1210 0236 40030000 		.4byte	0x340
 1211 023a 04       		.byte	0x4
 1212 023b 0E       		.uleb128 0xe
 1213 023c 02020000 		.4byte	.LASF48
 1214 0240 0B       		.byte	0xb
 1215 0241 C7       		.byte	0xc7
 1216 0242 D0010000 		.4byte	0x1d0
 1217 0246 08       		.byte	0x8
 1218 0247 0E       		.uleb128 0xe
 1219 0248 8C090000 		.4byte	.LASF49
 1220 024c 0B       		.byte	0xb
 1221 024d C8       		.byte	0xc8
 1222 024e 69050000 		.4byte	0x569
 1223 0252 0C       		.byte	0xc
 1224 0253 0E       		.uleb128 0xe
 1225 0254 F7020000 		.4byte	.LASF50
 1226 0258 0B       		.byte	0xb
 1227 0259 CA       		.byte	0xca
 1228 025a 40030000 		.4byte	0x340
 1229 025e 10       		.byte	0x10
 1230 025f 0E       		.uleb128 0xe
 1231 0260 7E050000 		.4byte	.LASF51
 1232 0264 0B       		.byte	0xb
 1233 0265 CB       		.byte	0xcb
 1234 0266 40030000 		.4byte	0x340
 1235 026a 14       		.byte	0x14
 1236 026b 0E       		.uleb128 0xe
 1237 026c F7080000 		.4byte	.LASF52
 1238 0270 0B       		.byte	0xb
 1239 0271 D2       		.byte	0xd2
 1240 0272 AE070000 		.4byte	0x7ae
 1241 0276 18       		.byte	0x18
 1242 0277 0E       		.uleb128 0xe
 1243 0278 74030000 		.4byte	.LASF53
 1244 027c 0B       		.byte	0xb
 1245 027d D8       		.byte	0xd8
 1246 027e C5070000 		.4byte	0x7c5
 1247 0282 1C       		.byte	0x1c
 1248 0283 0E       		.uleb128 0xe
 1249 0284 6E060000 		.4byte	.LASF54
 1250 0288 0B       		.byte	0xb
 1251 0289 DD       		.byte	0xdd
 1252 028a AF010000 		.4byte	0x1af
 1253 028e 20       		.byte	0x20
 1254 028f 0E       		.uleb128 0xe
ARM GAS  /tmp/ccsoqR9L.s 			page 23


 1255 0290 C2060000 		.4byte	.LASF55
 1256 0294 0B       		.byte	0xb
 1257 0295 E1       		.byte	0xe1
 1258 0296 A4010000 		.4byte	0x1a4
 1259 029a 21       		.byte	0x21
 1260 029b 0E       		.uleb128 0xe
 1261 029c 84080000 		.4byte	.LASF56
 1262 02a0 0B       		.byte	0xb
 1263 02a1 E6       		.byte	0xe6
 1264 02a2 BA010000 		.4byte	0x1ba
 1265 02a6 22       		.byte	0x22
 1266 02a7 0E       		.uleb128 0xe
 1267 02a8 88060000 		.4byte	.LASF57
 1268 02ac 0B       		.byte	0xb
 1269 02ad EC       		.byte	0xec
 1270 02ae C5010000 		.4byte	0x1c5
 1271 02b2 23       		.byte	0x23
 1272 02b3 0E       		.uleb128 0xe
 1273 02b4 33080000 		.4byte	.LASF58
 1274 02b8 0B       		.byte	0xb
 1275 02b9 F3       		.byte	0xf3
 1276 02ba 07020000 		.4byte	0x207
 1277 02be 24       		.byte	0x24
 1278 02bf 09       		.uleb128 0x9
 1279 02c0 705F7500 		.ascii	"p_u\000"
 1280 02c4 0B       		.byte	0xb
 1281 02c5 3101     		.2byte	0x131
 1282 02c7 E9060000 		.4byte	0x6e9
 1283 02cb 28       		.byte	0x28
 1284 02cc 0F       		.uleb128 0xf
 1285 02cd 92090000 		.4byte	.LASF59
 1286 02d1 0B       		.byte	0xb
 1287 02d2 3601     		.2byte	0x136
 1288 02d4 46030000 		.4byte	0x346
 1289 02d8 2C       		.byte	0x2c
 1290 02d9 0F       		.uleb128 0xf
 1291 02da 48080000 		.4byte	.LASF60
 1292 02de 0B       		.byte	0xb
 1293 02df 3C01     		.2byte	0x13c
 1294 02e1 6A030000 		.4byte	0x36a
 1295 02e5 30       		.byte	0x30
 1296 02e6 0F       		.uleb128 0xf
 1297 02e7 33090000 		.4byte	.LASF61
 1298 02eb 0B       		.byte	0xb
 1299 02ec 4001     		.2byte	0x140
 1300 02ee DB010000 		.4byte	0x1db
 1301 02f2 38       		.byte	0x38
 1302 02f3 0F       		.uleb128 0xf
 1303 02f4 12070000 		.4byte	.LASF62
 1304 02f8 0B       		.byte	0xb
 1305 02f9 4601     		.2byte	0x146
 1306 02fb E6010000 		.4byte	0x1e6
 1307 02ff 3C       		.byte	0x3c
 1308 0300 0F       		.uleb128 0xf
 1309 0301 5A060000 		.4byte	.LASF63
 1310 0305 0B       		.byte	0xb
 1311 0306 4D01     		.2byte	0x14d
ARM GAS  /tmp/ccsoqR9L.s 			page 24


 1312 0308 A8070000 		.4byte	0x7a8
 1313 030c 40       		.byte	0x40
 1314 030d 0F       		.uleb128 0xf
 1315 030e E5070000 		.4byte	.LASF64
 1316 0312 0B       		.byte	0xb
 1317 0313 5101     		.2byte	0x151
 1318 0315 D0010000 		.4byte	0x1d0
 1319 0319 44       		.byte	0x44
 1320 031a 0F       		.uleb128 0xf
 1321 031b 70020000 		.4byte	.LASF65
 1322 031f 0B       		.byte	0xb
 1323 0320 5801     		.2byte	0x158
 1324 0322 1D040000 		.4byte	0x41d
 1325 0326 48       		.byte	0x48
 1326 0327 0F       		.uleb128 0xf
 1327 0328 8B080000 		.4byte	.LASF66
 1328 032c 0B       		.byte	0xb
 1329 032d 6201     		.2byte	0x162
 1330 032f 9F000000 		.4byte	0x9f
 1331 0333 4C       		.byte	0x4c
 1332 0334 00       		.byte	0
 1333 0335 03       		.uleb128 0x3
 1334 0336 0E050000 		.4byte	.LASF67
 1335 033a 0A       		.byte	0xa
 1336 033b 44       		.byte	0x44
 1337 033c 40030000 		.4byte	0x340
 1338 0340 10       		.uleb128 0x10
 1339 0341 04       		.byte	0x4
 1340 0342 0C020000 		.4byte	0x20c
 1341 0346 03       		.uleb128 0x3
 1342 0347 14090000 		.4byte	.LASF68
 1343 034b 0A       		.byte	0xa
 1344 034c 49       		.byte	0x49
 1345 034d 51030000 		.4byte	0x351
 1346 0351 0D       		.uleb128 0xd
 1347 0352 52070000 		.4byte	.LASF70
 1348 0356 04       		.byte	0x4
 1349 0357 0B       		.byte	0xb
 1350 0358 B0       		.byte	0xb0
 1351 0359 6A030000 		.4byte	0x36a
 1352 035d 0E       		.uleb128 0xe
 1353 035e A4060000 		.4byte	.LASF46
 1354 0362 0B       		.byte	0xb
 1355 0363 B1       		.byte	0xb1
 1356 0364 40030000 		.4byte	0x340
 1357 0368 00       		.byte	0
 1358 0369 00       		.byte	0
 1359 036a 03       		.uleb128 0x3
 1360 036b D7060000 		.4byte	.LASF71
 1361 036f 0A       		.byte	0xa
 1362 0370 50       		.byte	0x50
 1363 0371 75030000 		.4byte	0x375
 1364 0375 0D       		.uleb128 0xd
 1365 0376 F1010000 		.4byte	.LASF72
 1366 037a 08       		.byte	0x8
 1367 037b 0B       		.byte	0xb
 1368 037c B7       		.byte	0xb7
ARM GAS  /tmp/ccsoqR9L.s 			page 25


 1369 037d 9A030000 		.4byte	0x39a
 1370 0381 0E       		.uleb128 0xe
 1371 0382 A4060000 		.4byte	.LASF46
 1372 0386 0B       		.byte	0xb
 1373 0387 B8       		.byte	0xb8
 1374 0388 40030000 		.4byte	0x340
 1375 038c 00       		.byte	0
 1376 038d 0E       		.uleb128 0xe
 1377 038e 03060000 		.4byte	.LASF47
 1378 0392 0B       		.byte	0xb
 1379 0393 B9       		.byte	0xb9
 1380 0394 40030000 		.4byte	0x340
 1381 0398 04       		.byte	0x4
 1382 0399 00       		.byte	0
 1383 039a 03       		.uleb128 0x3
 1384 039b 0D000000 		.4byte	.LASF73
 1385 039f 0A       		.byte	0xa
 1386 03a0 57       		.byte	0x57
 1387 03a1 A5030000 		.4byte	0x3a5
 1388 03a5 11       		.uleb128 0x11
 1389 03a6 CC030000 		.4byte	.LASF74
 1390 03aa 1C       		.byte	0x1c
 1391 03ab 0B       		.byte	0xb
 1392 03ac 9001     		.2byte	0x190
 1393 03ae 01040000 		.4byte	0x401
 1394 03b2 0F       		.uleb128 0xf
 1395 03b3 3F070000 		.4byte	.LASF75
 1396 03b7 0B       		.byte	0xb
 1397 03b8 9101     		.2byte	0x191
 1398 03ba 6A030000 		.4byte	0x36a
 1399 03be 00       		.byte	0
 1400 03bf 0F       		.uleb128 0xf
 1401 03c0 FF040000 		.4byte	.LASF76
 1402 03c4 0B       		.byte	0xb
 1403 03c5 9201     		.2byte	0x192
 1404 03c7 D0010000 		.4byte	0x1d0
 1405 03cb 08       		.byte	0x8
 1406 03cc 0F       		.uleb128 0xf
 1407 03cd 86050000 		.4byte	.LASF77
 1408 03d1 0B       		.byte	0xb
 1409 03d2 9401     		.2byte	0x194
 1410 03d4 69050000 		.4byte	0x569
 1411 03d8 0C       		.byte	0xc
 1412 03d9 0F       		.uleb128 0xf
 1413 03da 1D030000 		.4byte	.LASF78
 1414 03de 0B       		.byte	0xb
 1415 03df 9701     		.2byte	0x197
 1416 03e1 40030000 		.4byte	0x340
 1417 03e5 10       		.byte	0x10
 1418 03e6 0F       		.uleb128 0xf
 1419 03e7 9E050000 		.4byte	.LASF79
 1420 03eb 0B       		.byte	0xb
 1421 03ec 9801     		.2byte	0x198
 1422 03ee 40030000 		.4byte	0x340
 1423 03f2 14       		.byte	0x14
 1424 03f3 0F       		.uleb128 0xf
 1425 03f4 94050000 		.4byte	.LASF80
ARM GAS  /tmp/ccsoqR9L.s 			page 26


 1426 03f8 0B       		.byte	0xb
 1427 03f9 9B01     		.2byte	0x19b
 1428 03fb 40030000 		.4byte	0x340
 1429 03ff 18       		.byte	0x18
 1430 0400 00       		.byte	0
 1431 0401 03       		.uleb128 0x3
 1432 0402 DA030000 		.4byte	.LASF81
 1433 0406 0A       		.byte	0xa
 1434 0407 5C       		.byte	0x5c
 1435 0408 0C040000 		.4byte	0x40c
 1436 040c 10       		.uleb128 0x10
 1437 040d 04       		.byte	0x4
 1438 040e 12040000 		.4byte	0x412
 1439 0412 12       		.uleb128 0x12
 1440 0413 1D040000 		.4byte	0x41d
 1441 0417 13       		.uleb128 0x13
 1442 0418 1D040000 		.4byte	0x41d
 1443 041c 00       		.byte	0
 1444 041d 14       		.uleb128 0x14
 1445 041e 04       		.byte	0x4
 1446 041f 03       		.uleb128 0x3
 1447 0420 F3050000 		.4byte	.LASF82
 1448 0424 0A       		.byte	0xa
 1449 0425 61       		.byte	0x61
 1450 0426 2A040000 		.4byte	0x42a
 1451 042a 11       		.uleb128 0x11
 1452 042b E7060000 		.4byte	.LASF83
 1453 042f 14       		.byte	0x14
 1454 0430 0B       		.byte	0xb
 1455 0431 6B01     		.2byte	0x16b
 1456 0433 79040000 		.4byte	0x479
 1457 0437 0F       		.uleb128 0xf
 1458 0438 8C030000 		.4byte	.LASF84
 1459 043c 0B       		.byte	0xb
 1460 043d 6C01     		.2byte	0x16c
 1461 043f CB070000 		.4byte	0x7cb
 1462 0443 00       		.byte	0
 1463 0444 0F       		.uleb128 0xf
 1464 0445 2E030000 		.4byte	.LASF85
 1465 0449 0B       		.byte	0xb
 1466 044a 6D01     		.2byte	0x16d
 1467 044c CB070000 		.4byte	0x7cb
 1468 0450 04       		.byte	0x4
 1469 0451 0F       		.uleb128 0xf
 1470 0452 AB030000 		.4byte	.LASF86
 1471 0456 0B       		.byte	0xb
 1472 0457 6E01     		.2byte	0x16e
 1473 0459 FC010000 		.4byte	0x1fc
 1474 045d 08       		.byte	0x8
 1475 045e 0F       		.uleb128 0xf
 1476 045f 80010000 		.4byte	.LASF87
 1477 0463 0B       		.byte	0xb
 1478 0464 6F01     		.2byte	0x16f
 1479 0466 01040000 		.4byte	0x401
 1480 046a 0C       		.byte	0xc
 1481 046b 0F       		.uleb128 0xf
 1482 046c 63080000 		.4byte	.LASF88
ARM GAS  /tmp/ccsoqR9L.s 			page 27


 1483 0470 0B       		.byte	0xb
 1484 0471 7101     		.2byte	0x171
 1485 0473 1D040000 		.4byte	0x41d
 1486 0477 10       		.byte	0x10
 1487 0478 00       		.byte	0
 1488 0479 03       		.uleb128 0x3
 1489 047a C2010000 		.4byte	.LASF89
 1490 047e 0A       		.byte	0xa
 1491 047f 66       		.byte	0x66
 1492 0480 84040000 		.4byte	0x484
 1493 0484 11       		.uleb128 0x11
 1494 0485 32050000 		.4byte	.LASF90
 1495 0489 10       		.byte	0x10
 1496 048a 0B       		.byte	0xb
 1497 048b 7B01     		.2byte	0x17b
 1498 048d C6040000 		.4byte	0x4c6
 1499 0491 0F       		.uleb128 0xf
 1500 0492 8C030000 		.4byte	.LASF84
 1501 0496 0B       		.byte	0xb
 1502 0497 7C01     		.2byte	0x17c
 1503 0499 CB070000 		.4byte	0x7cb
 1504 049d 00       		.byte	0
 1505 049e 0F       		.uleb128 0xf
 1506 049f 2E030000 		.4byte	.LASF85
 1507 04a3 0B       		.byte	0xb
 1508 04a4 7E01     		.2byte	0x17e
 1509 04a6 CB070000 		.4byte	0x7cb
 1510 04aa 04       		.byte	0x4
 1511 04ab 0F       		.uleb128 0xf
 1512 04ac AB030000 		.4byte	.LASF86
 1513 04b0 0B       		.byte	0xb
 1514 04b1 8001     		.2byte	0x180
 1515 04b3 FC010000 		.4byte	0x1fc
 1516 04b7 08       		.byte	0x8
 1517 04b8 0F       		.uleb128 0xf
 1518 04b9 47070000 		.4byte	.LASF91
 1519 04bd 0B       		.byte	0xb
 1520 04be 8201     		.2byte	0x182
 1521 04c0 07020000 		.4byte	0x207
 1522 04c4 0C       		.byte	0xc
 1523 04c5 00       		.byte	0
 1524 04c6 03       		.uleb128 0x3
 1525 04c7 B4030000 		.4byte	.LASF92
 1526 04cb 0A       		.byte	0xa
 1527 04cc 6B       		.byte	0x6b
 1528 04cd D1040000 		.4byte	0x4d1
 1529 04d1 11       		.uleb128 0x11
 1530 04d2 17060000 		.4byte	.LASF93
 1531 04d6 04       		.byte	0x4
 1532 04d7 0B       		.byte	0xb
 1533 04d8 A201     		.2byte	0x1a2
 1534 04da EC040000 		.4byte	0x4ec
 1535 04de 0F       		.uleb128 0xf
 1536 04df 0A080000 		.4byte	.LASF94
 1537 04e3 0B       		.byte	0xb
 1538 04e4 AA01     		.2byte	0x1aa
 1539 04e6 B4070000 		.4byte	0x7b4
ARM GAS  /tmp/ccsoqR9L.s 			page 28


 1540 04ea 00       		.byte	0
 1541 04eb 00       		.byte	0
 1542 04ec 03       		.uleb128 0x3
 1543 04ed 5E040000 		.4byte	.LASF95
 1544 04f1 0A       		.byte	0xa
 1545 04f2 70       		.byte	0x70
 1546 04f3 F7040000 		.4byte	0x4f7
 1547 04f7 15       		.uleb128 0x15
 1548 04f8 C8020000 		.4byte	.LASF96
 1549 04fc 6802     		.2byte	0x268
 1550 04fe 0B       		.byte	0xb
 1551 04ff C201     		.2byte	0x1c2
 1552 0501 53050000 		.4byte	0x553
 1553 0505 0F       		.uleb128 0xf
 1554 0506 A2080000 		.4byte	.LASF97
 1555 050a 0B       		.byte	0xb
 1556 050b C601     		.2byte	0x1c6
 1557 050d 9A030000 		.4byte	0x39a
 1558 0511 00       		.byte	0
 1559 0512 0F       		.uleb128 0xf
 1560 0513 55000000 		.4byte	.LASF98
 1561 0517 0B       		.byte	0xb
 1562 0518 CA01     		.2byte	0x1ca
 1563 051a 79040000 		.4byte	0x479
 1564 051e 1C       		.byte	0x1c
 1565 051f 09       		.uleb128 0x9
 1566 0520 64626700 		.ascii	"dbg\000"
 1567 0524 0B       		.byte	0xb
 1568 0525 CE01     		.2byte	0x1ce
 1569 0527 C6040000 		.4byte	0x4c6
 1570 052b 2C       		.byte	0x2c
 1571 052c 0F       		.uleb128 0xf
 1572 052d B0010000 		.4byte	.LASF99
 1573 0531 0B       		.byte	0xb
 1574 0532 D201     		.2byte	0x1d2
 1575 0534 0C020000 		.4byte	0x20c
 1576 0538 30       		.byte	0x30
 1577 0539 09       		.uleb128 0x9
 1578 053a 746D00   		.ascii	"tm\000"
 1579 053d 0B       		.byte	0xb
 1580 053e D701     		.2byte	0x1d7
 1581 0540 DE060000 		.4byte	0x6de
 1582 0544 80       		.byte	0x80
 1583 0545 0F       		.uleb128 0xf
 1584 0546 5F030000 		.4byte	.LASF100
 1585 054a 0B       		.byte	0xb
 1586 054b E301     		.2byte	0x1e3
 1587 054d D1070000 		.4byte	0x7d1
 1588 0551 88       		.byte	0x88
 1589 0552 00       		.byte	0
 1590 0553 03       		.uleb128 0x3
 1591 0554 25030000 		.4byte	.LASF101
 1592 0558 0C       		.byte	0xc
 1593 0559 65       		.byte	0x65
 1594 055a 1D040000 		.4byte	0x41d
 1595 055e 03       		.uleb128 0x3
 1596 055f C0040000 		.4byte	.LASF102
ARM GAS  /tmp/ccsoqR9L.s 			page 29


 1597 0563 0C       		.byte	0xc
 1598 0564 6D       		.byte	0x6d
 1599 0565 EE000000 		.4byte	0xee
 1600 0569 0D       		.uleb128 0xd
 1601 056a F7030000 		.4byte	.LASF103
 1602 056e 04       		.byte	0x4
 1603 056f 0C       		.byte	0xc
 1604 0570 89       		.byte	0x89
 1605 0571 82050000 		.4byte	0x582
 1606 0575 16       		.uleb128 0x16
 1607 0576 72313300 		.ascii	"r13\000"
 1608 057a 0C       		.byte	0xc
 1609 057b 8A       		.byte	0x8a
 1610 057c C3060000 		.4byte	0x6c3
 1611 0580 00       		.byte	0
 1612 0581 00       		.byte	0
 1613 0582 0D       		.uleb128 0xd
 1614 0583 49000000 		.4byte	.LASF104
 1615 0587 64       		.byte	0x64
 1616 0588 0D       		.byte	0xd
 1617 0589 F4       		.byte	0xf4
 1618 058a C3060000 		.4byte	0x6c3
 1619 058e 16       		.uleb128 0x16
 1620 058f 73313600 		.ascii	"s16\000"
 1621 0593 0D       		.byte	0xd
 1622 0594 F6       		.byte	0xf6
 1623 0595 53050000 		.4byte	0x553
 1624 0599 00       		.byte	0
 1625 059a 16       		.uleb128 0x16
 1626 059b 73313700 		.ascii	"s17\000"
 1627 059f 0D       		.byte	0xd
 1628 05a0 F7       		.byte	0xf7
 1629 05a1 53050000 		.4byte	0x553
 1630 05a5 04       		.byte	0x4
 1631 05a6 16       		.uleb128 0x16
 1632 05a7 73313800 		.ascii	"s18\000"
 1633 05ab 0D       		.byte	0xd
 1634 05ac F8       		.byte	0xf8
 1635 05ad 53050000 		.4byte	0x553
 1636 05b1 08       		.byte	0x8
 1637 05b2 16       		.uleb128 0x16
 1638 05b3 73313900 		.ascii	"s19\000"
 1639 05b7 0D       		.byte	0xd
 1640 05b8 F9       		.byte	0xf9
 1641 05b9 53050000 		.4byte	0x553
 1642 05bd 0C       		.byte	0xc
 1643 05be 16       		.uleb128 0x16
 1644 05bf 73323000 		.ascii	"s20\000"
 1645 05c3 0D       		.byte	0xd
 1646 05c4 FA       		.byte	0xfa
 1647 05c5 53050000 		.4byte	0x553
 1648 05c9 10       		.byte	0x10
 1649 05ca 16       		.uleb128 0x16
 1650 05cb 73323100 		.ascii	"s21\000"
 1651 05cf 0D       		.byte	0xd
 1652 05d0 FB       		.byte	0xfb
 1653 05d1 53050000 		.4byte	0x553
ARM GAS  /tmp/ccsoqR9L.s 			page 30


 1654 05d5 14       		.byte	0x14
 1655 05d6 16       		.uleb128 0x16
 1656 05d7 73323200 		.ascii	"s22\000"
 1657 05db 0D       		.byte	0xd
 1658 05dc FC       		.byte	0xfc
 1659 05dd 53050000 		.4byte	0x553
 1660 05e1 18       		.byte	0x18
 1661 05e2 16       		.uleb128 0x16
 1662 05e3 73323300 		.ascii	"s23\000"
 1663 05e7 0D       		.byte	0xd
 1664 05e8 FD       		.byte	0xfd
 1665 05e9 53050000 		.4byte	0x553
 1666 05ed 1C       		.byte	0x1c
 1667 05ee 16       		.uleb128 0x16
 1668 05ef 73323400 		.ascii	"s24\000"
 1669 05f3 0D       		.byte	0xd
 1670 05f4 FE       		.byte	0xfe
 1671 05f5 53050000 		.4byte	0x553
 1672 05f9 20       		.byte	0x20
 1673 05fa 16       		.uleb128 0x16
 1674 05fb 73323500 		.ascii	"s25\000"
 1675 05ff 0D       		.byte	0xd
 1676 0600 FF       		.byte	0xff
 1677 0601 53050000 		.4byte	0x553
 1678 0605 24       		.byte	0x24
 1679 0606 09       		.uleb128 0x9
 1680 0607 73323600 		.ascii	"s26\000"
 1681 060b 0D       		.byte	0xd
 1682 060c 0001     		.2byte	0x100
 1683 060e 53050000 		.4byte	0x553
 1684 0612 28       		.byte	0x28
 1685 0613 09       		.uleb128 0x9
 1686 0614 73323700 		.ascii	"s27\000"
 1687 0618 0D       		.byte	0xd
 1688 0619 0101     		.2byte	0x101
 1689 061b 53050000 		.4byte	0x553
 1690 061f 2C       		.byte	0x2c
 1691 0620 09       		.uleb128 0x9
 1692 0621 73323800 		.ascii	"s28\000"
 1693 0625 0D       		.byte	0xd
 1694 0626 0201     		.2byte	0x102
 1695 0628 53050000 		.4byte	0x553
 1696 062c 30       		.byte	0x30
 1697 062d 09       		.uleb128 0x9
 1698 062e 73323900 		.ascii	"s29\000"
 1699 0632 0D       		.byte	0xd
 1700 0633 0301     		.2byte	0x103
 1701 0635 53050000 		.4byte	0x553
 1702 0639 34       		.byte	0x34
 1703 063a 09       		.uleb128 0x9
 1704 063b 73333000 		.ascii	"s30\000"
 1705 063f 0D       		.byte	0xd
 1706 0640 0401     		.2byte	0x104
 1707 0642 53050000 		.4byte	0x553
 1708 0646 38       		.byte	0x38
 1709 0647 09       		.uleb128 0x9
 1710 0648 73333100 		.ascii	"s31\000"
ARM GAS  /tmp/ccsoqR9L.s 			page 31


 1711 064c 0D       		.byte	0xd
 1712 064d 0501     		.2byte	0x105
 1713 064f 53050000 		.4byte	0x553
 1714 0653 3C       		.byte	0x3c
 1715 0654 09       		.uleb128 0x9
 1716 0655 723400   		.ascii	"r4\000"
 1717 0658 0D       		.byte	0xd
 1718 0659 0701     		.2byte	0x107
 1719 065b 53050000 		.4byte	0x553
 1720 065f 40       		.byte	0x40
 1721 0660 09       		.uleb128 0x9
 1722 0661 723500   		.ascii	"r5\000"
 1723 0664 0D       		.byte	0xd
 1724 0665 0801     		.2byte	0x108
 1725 0667 53050000 		.4byte	0x553
 1726 066b 44       		.byte	0x44
 1727 066c 09       		.uleb128 0x9
 1728 066d 723600   		.ascii	"r6\000"
 1729 0670 0D       		.byte	0xd
 1730 0671 0901     		.2byte	0x109
 1731 0673 53050000 		.4byte	0x553
 1732 0677 48       		.byte	0x48
 1733 0678 09       		.uleb128 0x9
 1734 0679 723700   		.ascii	"r7\000"
 1735 067c 0D       		.byte	0xd
 1736 067d 0A01     		.2byte	0x10a
 1737 067f 53050000 		.4byte	0x553
 1738 0683 4C       		.byte	0x4c
 1739 0684 09       		.uleb128 0x9
 1740 0685 723800   		.ascii	"r8\000"
 1741 0688 0D       		.byte	0xd
 1742 0689 0B01     		.2byte	0x10b
 1743 068b 53050000 		.4byte	0x553
 1744 068f 50       		.byte	0x50
 1745 0690 09       		.uleb128 0x9
 1746 0691 723900   		.ascii	"r9\000"
 1747 0694 0D       		.byte	0xd
 1748 0695 0C01     		.2byte	0x10c
 1749 0697 53050000 		.4byte	0x553
 1750 069b 54       		.byte	0x54
 1751 069c 09       		.uleb128 0x9
 1752 069d 72313000 		.ascii	"r10\000"
 1753 06a1 0D       		.byte	0xd
 1754 06a2 0D01     		.2byte	0x10d
 1755 06a4 53050000 		.4byte	0x553
 1756 06a8 58       		.byte	0x58
 1757 06a9 09       		.uleb128 0x9
 1758 06aa 72313100 		.ascii	"r11\000"
 1759 06ae 0D       		.byte	0xd
 1760 06af 0E01     		.2byte	0x10e
 1761 06b1 53050000 		.4byte	0x553
 1762 06b5 5C       		.byte	0x5c
 1763 06b6 09       		.uleb128 0x9
 1764 06b7 6C7200   		.ascii	"lr\000"
 1765 06ba 0D       		.byte	0xd
 1766 06bb 0F01     		.2byte	0x10f
 1767 06bd 53050000 		.4byte	0x553
ARM GAS  /tmp/ccsoqR9L.s 			page 32


 1768 06c1 60       		.byte	0x60
 1769 06c2 00       		.byte	0
 1770 06c3 10       		.uleb128 0x10
 1771 06c4 04       		.byte	0x4
 1772 06c5 82050000 		.4byte	0x582
 1773 06c9 17       		.uleb128 0x17
 1774 06ca 04       		.byte	0x4
 1775 06cb 0E       		.byte	0xe
 1776 06cc 38       		.byte	0x38
 1777 06cd DE060000 		.4byte	0x6de
 1778 06d1 0E       		.uleb128 0xe
 1779 06d2 20080000 		.4byte	.LASF105
 1780 06d6 0E       		.byte	0xe
 1781 06d7 3C       		.byte	0x3c
 1782 06d8 99010000 		.4byte	0x199
 1783 06dc 00       		.byte	0
 1784 06dd 00       		.byte	0
 1785 06de 03       		.uleb128 0x3
 1786 06df 21050000 		.4byte	.LASF106
 1787 06e3 0E       		.byte	0xe
 1788 06e4 3D       		.byte	0x3d
 1789 06e5 C9060000 		.4byte	0x6c9
 1790 06e9 18       		.uleb128 0x18
 1791 06ea 04       		.byte	0x4
 1792 06eb 0B       		.byte	0xb
 1793 06ec FA       		.byte	0xfa
 1794 06ed 46070000 		.4byte	0x746
 1795 06f1 19       		.uleb128 0x19
 1796 06f2 1A000000 		.4byte	.LASF107
 1797 06f6 0B       		.byte	0xb
 1798 06f7 0101     		.2byte	0x101
 1799 06f9 DB010000 		.4byte	0x1db
 1800 06fd 19       		.uleb128 0x19
 1801 06fe 07030000 		.4byte	.LASF108
 1802 0702 0B       		.byte	0xb
 1803 0703 0801     		.2byte	0x108
 1804 0705 DB010000 		.4byte	0x1db
 1805 0709 19       		.uleb128 0x19
 1806 070a A4020000 		.4byte	.LASF109
 1807 070e 0B       		.byte	0xb
 1808 070f 0F01     		.2byte	0x10f
 1809 0711 1D040000 		.4byte	0x41d
 1810 0715 19       		.uleb128 0x19
 1811 0716 C2020000 		.4byte	.LASF110
 1812 071a 0B       		.byte	0xb
 1813 071b 1601     		.2byte	0x116
 1814 071d 46070000 		.4byte	0x746
 1815 0721 19       		.uleb128 0x19
 1816 0722 A4030000 		.4byte	.LASF111
 1817 0726 0B       		.byte	0xb
 1818 0727 1E01     		.2byte	0x11e
 1819 0729 71070000 		.4byte	0x771
 1820 072d 19       		.uleb128 0x19
 1821 072e 03080000 		.4byte	.LASF112
 1822 0732 0B       		.byte	0xb
 1823 0733 2701     		.2byte	0x127
 1824 0735 A8070000 		.4byte	0x7a8
ARM GAS  /tmp/ccsoqR9L.s 			page 33


 1825 0739 19       		.uleb128 0x19
 1826 073a 9D060000 		.4byte	.LASF113
 1827 073e 0B       		.byte	0xb
 1828 073f 2F01     		.2byte	0x12f
 1829 0741 E6010000 		.4byte	0x1e6
 1830 0745 00       		.byte	0
 1831 0746 10       		.uleb128 0x10
 1832 0747 04       		.byte	0x4
 1833 0748 35030000 		.4byte	0x335
 1834 074c 0D       		.uleb128 0xd
 1835 074d 05070000 		.4byte	.LASF114
 1836 0751 0C       		.byte	0xc
 1837 0752 0F       		.byte	0xf
 1838 0753 34       		.byte	0x34
 1839 0754 71070000 		.4byte	0x771
 1840 0758 0E       		.uleb128 0xe
 1841 0759 FF020000 		.4byte	.LASF115
 1842 075d 0F       		.byte	0xf
 1843 075e 35       		.byte	0x35
 1844 075f 6A030000 		.4byte	0x36a
 1845 0763 00       		.byte	0
 1846 0764 0E       		.uleb128 0xe
 1847 0765 F1030000 		.4byte	.LASF116
 1848 0769 0F       		.byte	0xf
 1849 076a 37       		.byte	0x37
 1850 076b F1010000 		.4byte	0x1f1
 1851 076f 08       		.byte	0x8
 1852 0770 00       		.byte	0
 1853 0771 10       		.uleb128 0x10
 1854 0772 04       		.byte	0x4
 1855 0773 4C070000 		.4byte	0x74c
 1856 0777 0D       		.uleb128 0xd
 1857 0778 EE080000 		.4byte	.LASF117
 1858 077c 10       		.byte	0x10
 1859 077d 10       		.byte	0x10
 1860 077e 39       		.byte	0x39
 1861 077f A8070000 		.4byte	0x7a8
 1862 0783 0E       		.uleb128 0xe
 1863 0784 78020000 		.4byte	.LASF118
 1864 0788 10       		.byte	0x10
 1865 0789 3A       		.byte	0x3a
 1866 078a 6A030000 		.4byte	0x36a
 1867 078e 00       		.byte	0
 1868 078f 0E       		.uleb128 0xe
 1869 0790 6C090000 		.4byte	.LASF119
 1870 0794 10       		.byte	0x10
 1871 0795 3C       		.byte	0x3c
 1872 0796 40030000 		.4byte	0x340
 1873 079a 08       		.byte	0x8
 1874 079b 0E       		.uleb128 0xe
 1875 079c D4070000 		.4byte	.LASF120
 1876 07a0 10       		.byte	0x10
 1877 07a1 3E       		.byte	0x3e
 1878 07a2 03090000 		.4byte	0x903
 1879 07a6 0C       		.byte	0xc
 1880 07a7 00       		.byte	0
 1881 07a8 10       		.uleb128 0x10
ARM GAS  /tmp/ccsoqR9L.s 			page 34


 1882 07a9 04       		.byte	0x4
 1883 07aa 77070000 		.4byte	0x777
 1884 07ae 10       		.uleb128 0x10
 1885 07af 04       		.byte	0x4
 1886 07b0 C0070000 		.4byte	0x7c0
 1887 07b4 05       		.uleb128 0x5
 1888 07b5 AE070000 		.4byte	0x7ae
 1889 07b9 02       		.uleb128 0x2
 1890 07ba 01       		.byte	0x1
 1891 07bb 08       		.byte	0x8
 1892 07bc 87070000 		.4byte	.LASF121
 1893 07c0 1A       		.uleb128 0x1a
 1894 07c1 B9070000 		.4byte	0x7b9
 1895 07c5 10       		.uleb128 0x10
 1896 07c6 04       		.byte	0x4
 1897 07c7 5E050000 		.4byte	0x55e
 1898 07cb 10       		.uleb128 0x10
 1899 07cc 04       		.byte	0x4
 1900 07cd 1F040000 		.4byte	0x41f
 1901 07d1 1B       		.uleb128 0x1b
 1902 07d2 5E050000 		.4byte	0x55e
 1903 07d6 E1070000 		.4byte	0x7e1
 1904 07da 1C       		.uleb128 0x1c
 1905 07db A6000000 		.4byte	0xa6
 1906 07df 3B       		.byte	0x3b
 1907 07e0 00       		.byte	0
 1908 07e1 1D       		.uleb128 0x1d
 1909 07e2 636800   		.ascii	"ch\000"
 1910 07e5 0B       		.byte	0xb
 1911 07e6 0902     		.2byte	0x209
 1912 07e8 EC040000 		.4byte	0x4ec
 1913 07ec 17       		.uleb128 0x17
 1914 07ed 16       		.byte	0x16
 1915 07ee 11       		.byte	0x11
 1916 07ef 34       		.byte	0x34
 1917 07f0 CD080000 		.4byte	0x8cd
 1918 07f4 0E       		.uleb128 0xe
 1919 07f5 E3030000 		.4byte	.LASF122
 1920 07f9 11       		.byte	0x11
 1921 07fa 35       		.byte	0x35
 1922 07fb CD080000 		.4byte	0x8cd
 1923 07ff 00       		.byte	0
 1924 0800 0E       		.uleb128 0xe
 1925 0801 CB040000 		.4byte	.LASF123
 1926 0805 11       		.byte	0x11
 1927 0806 36       		.byte	0x36
 1928 0807 AD000000 		.4byte	0xad
 1929 080b 04       		.byte	0x4
 1930 080c 0E       		.uleb128 0xe
 1931 080d 8C050000 		.4byte	.LASF124
 1932 0811 11       		.byte	0x11
 1933 0812 37       		.byte	0x37
 1934 0813 AD000000 		.4byte	0xad
 1935 0817 05       		.byte	0x5
 1936 0818 0E       		.uleb128 0xe
 1937 0819 92060000 		.4byte	.LASF125
 1938 081d 11       		.byte	0x11
ARM GAS  /tmp/ccsoqR9L.s 			page 35


 1939 081e 38       		.byte	0x38
 1940 081f C3000000 		.4byte	0xc3
 1941 0823 06       		.byte	0x6
 1942 0824 0E       		.uleb128 0xe
 1943 0825 E8050000 		.4byte	.LASF126
 1944 0829 11       		.byte	0x11
 1945 082a 39       		.byte	0x39
 1946 082b AD000000 		.4byte	0xad
 1947 082f 08       		.byte	0x8
 1948 0830 0E       		.uleb128 0xe
 1949 0831 5A050000 		.4byte	.LASF127
 1950 0835 11       		.byte	0x11
 1951 0836 3A       		.byte	0x3a
 1952 0837 AD000000 		.4byte	0xad
 1953 083b 09       		.byte	0x9
 1954 083c 0E       		.uleb128 0xe
 1955 083d 48090000 		.4byte	.LASF128
 1956 0841 11       		.byte	0x11
 1957 0842 3B       		.byte	0x3b
 1958 0843 AD000000 		.4byte	0xad
 1959 0847 0A       		.byte	0xa
 1960 0848 0E       		.uleb128 0xe
 1961 0849 14080000 		.4byte	.LASF129
 1962 084d 11       		.byte	0x11
 1963 084e 3C       		.byte	0x3c
 1964 084f AD000000 		.4byte	0xad
 1965 0853 0B       		.byte	0xb
 1966 0854 0E       		.uleb128 0xe
 1967 0855 79080000 		.4byte	.LASF130
 1968 0859 11       		.byte	0x11
 1969 085a 3D       		.byte	0x3d
 1970 085b AD000000 		.4byte	0xad
 1971 085f 0C       		.byte	0xc
 1972 0860 0E       		.uleb128 0xe
 1973 0861 F8060000 		.4byte	.LASF131
 1974 0865 11       		.byte	0x11
 1975 0866 3E       		.byte	0x3e
 1976 0867 AD000000 		.4byte	0xad
 1977 086b 0D       		.byte	0xd
 1978 086c 0E       		.uleb128 0xe
 1979 086d 00000000 		.4byte	.LASF132
 1980 0871 11       		.byte	0x11
 1981 0872 3F       		.byte	0x3f
 1982 0873 AD000000 		.4byte	0xad
 1983 0877 0E       		.byte	0xe
 1984 0878 0E       		.uleb128 0xe
 1985 0879 72050000 		.4byte	.LASF133
 1986 087d 11       		.byte	0x11
 1987 087e 40       		.byte	0x40
 1988 087f AD000000 		.4byte	0xad
 1989 0883 0F       		.byte	0xf
 1990 0884 0E       		.uleb128 0xe
 1991 0885 53020000 		.4byte	.LASF134
 1992 0889 11       		.byte	0x11
 1993 088a 41       		.byte	0x41
 1994 088b AD000000 		.4byte	0xad
 1995 088f 10       		.byte	0x10
ARM GAS  /tmp/ccsoqR9L.s 			page 36


 1996 0890 0E       		.uleb128 0xe
 1997 0891 09020000 		.4byte	.LASF135
 1998 0895 11       		.byte	0x11
 1999 0896 43       		.byte	0x43
 2000 0897 AD000000 		.4byte	0xad
 2001 089b 11       		.byte	0x11
 2002 089c 0E       		.uleb128 0xe
 2003 089d 63020000 		.4byte	.LASF136
 2004 08a1 11       		.byte	0x11
 2005 08a2 44       		.byte	0x44
 2006 08a3 AD000000 		.4byte	0xad
 2007 08a7 12       		.byte	0x12
 2008 08a8 0E       		.uleb128 0xe
 2009 08a9 D3040000 		.4byte	.LASF137
 2010 08ad 11       		.byte	0x11
 2011 08ae 45       		.byte	0x45
 2012 08af AD000000 		.4byte	0xad
 2013 08b3 13       		.byte	0x13
 2014 08b4 0E       		.uleb128 0xe
 2015 08b5 B3060000 		.4byte	.LASF138
 2016 08b9 11       		.byte	0x11
 2017 08ba 46       		.byte	0x46
 2018 08bb AD000000 		.4byte	0xad
 2019 08bf 14       		.byte	0x14
 2020 08c0 0E       		.uleb128 0xe
 2021 08c1 81040000 		.4byte	.LASF139
 2022 08c5 11       		.byte	0x11
 2023 08c6 48       		.byte	0x48
 2024 08c7 AD000000 		.4byte	0xad
 2025 08cb 15       		.byte	0x15
 2026 08cc 00       		.byte	0
 2027 08cd 1B       		.uleb128 0x1b
 2028 08ce B9070000 		.4byte	0x7b9
 2029 08d2 DD080000 		.4byte	0x8dd
 2030 08d6 1C       		.uleb128 0x1c
 2031 08d7 A6000000 		.4byte	0xa6
 2032 08db 03       		.byte	0x3
 2033 08dc 00       		.byte	0
 2034 08dd 03       		.uleb128 0x3
 2035 08de ED020000 		.4byte	.LASF140
 2036 08e2 11       		.byte	0x11
 2037 08e3 49       		.byte	0x49
 2038 08e4 EC070000 		.4byte	0x7ec
 2039 08e8 1A       		.uleb128 0x1a
 2040 08e9 DD080000 		.4byte	0x8dd
 2041 08ed 07       		.uleb128 0x7
 2042 08ee C3030000 		.4byte	.LASF141
 2043 08f2 11       		.byte	0x11
 2044 08f3 6E       		.byte	0x6e
 2045 08f4 E8080000 		.4byte	0x8e8
 2046 08f8 03       		.uleb128 0x3
 2047 08f9 57030000 		.4byte	.LASF142
 2048 08fd 10       		.byte	0x10
 2049 08fe 34       		.byte	0x34
 2050 08ff 77070000 		.4byte	0x777
 2051 0903 10       		.uleb128 0x10
 2052 0904 04       		.byte	0x4
ARM GAS  /tmp/ccsoqR9L.s 			page 37


 2053 0905 F8080000 		.4byte	0x8f8
 2054 0909 10       		.uleb128 0x10
 2055 090a 04       		.byte	0x4
 2056 090b AD000000 		.4byte	0xad
 2057 090f 02       		.uleb128 0x2
 2058 0910 04       		.byte	0x4
 2059 0911 04       		.byte	0x4
 2060 0912 C5050000 		.4byte	.LASF143
 2061 0916 02       		.uleb128 0x2
 2062 0917 01       		.byte	0x1
 2063 0918 02       		.byte	0x2
 2064 0919 27060000 		.4byte	.LASF144
 2065 091d 02       		.uleb128 0x2
 2066 091e 08       		.byte	0x8
 2067 091f 04       		.byte	0x4
 2068 0920 74090000 		.4byte	.LASF145
 2069 0924 08       		.uleb128 0x8
 2070 0925 18       		.byte	0x18
 2071 0926 12       		.byte	0x12
 2072 0927 3D05     		.2byte	0x53d
 2073 0929 62090000 		.4byte	0x962
 2074 092d 0F       		.uleb128 0xf
 2075 092e DB080000 		.4byte	.LASF146
 2076 0932 12       		.byte	0x12
 2077 0933 3E05     		.2byte	0x53e
 2078 0935 DE000000 		.4byte	0xde
 2079 0939 00       		.byte	0
 2080 093a 0F       		.uleb128 0xf
 2081 093b 62070000 		.4byte	.LASF147
 2082 093f 12       		.byte	0x12
 2083 0940 3F05     		.2byte	0x53f
 2084 0942 EE000000 		.4byte	0xee
 2085 0946 04       		.byte	0x4
 2086 0947 0F       		.uleb128 0xf
 2087 0948 16020000 		.4byte	.LASF148
 2088 094c 12       		.byte	0x12
 2089 094d 4105     		.2byte	0x541
 2090 094f DE000000 		.4byte	0xde
 2091 0953 0C       		.byte	0xc
 2092 0954 0F       		.uleb128 0xf
 2093 0955 7B090000 		.4byte	.LASF149
 2094 0959 12       		.byte	0x12
 2095 095a 4205     		.2byte	0x542
 2096 095c EE000000 		.4byte	0xee
 2097 0960 10       		.byte	0x10
 2098 0961 00       		.byte	0
 2099 0962 0A       		.uleb128 0xa
 2100 0963 33070000 		.4byte	.LASF150
 2101 0967 12       		.byte	0x12
 2102 0968 4305     		.2byte	0x543
 2103 096a 24090000 		.4byte	0x924
 2104 096e 05       		.uleb128 0x5
 2105 096f 62090000 		.4byte	0x962
 2106 0973 06       		.uleb128 0x6
 2107 0974 12040000 		.4byte	.LASF151
 2108 0978 13       		.byte	0x13
 2109 0979 6201     		.2byte	0x162
ARM GAS  /tmp/ccsoqR9L.s 			page 38


 2110 097b 16090000 		.4byte	0x916
 2111 097f 06       		.uleb128 0x6
 2112 0980 CB050000 		.4byte	.LASF152
 2113 0984 13       		.byte	0x13
 2114 0985 6301     		.2byte	0x163
 2115 0987 6E090000 		.4byte	0x96e
 2116 098b 1E       		.uleb128 0x1e
 2117 098c 9A080000 		.4byte	.LASF153
 2118 0990 01       		.byte	0x1
 2119 0991 24       		.byte	0x24
 2120 0992 C3000000 		.4byte	0xc3
 2121 0996 05       		.uleb128 0x5
 2122 0997 03       		.byte	0x3
 2123 0998 00000000 		.4byte	DataVar
 2124 099c 1B       		.uleb128 0x1b
 2125 099d C3000000 		.4byte	0xc3
 2126 09a1 AD090000 		.4byte	0x9ad
 2127 09a5 1F       		.uleb128 0x1f
 2128 09a6 A6000000 		.4byte	0xa6
 2129 09aa D704     		.2byte	0x4d7
 2130 09ac 00       		.byte	0
 2131 09ad 07       		.uleb128 0x7
 2132 09ae 3A080000 		.4byte	.LASF154
 2133 09b2 01       		.byte	0x1
 2134 09b3 27       		.byte	0x27
 2135 09b4 9C090000 		.4byte	0x99c
 2136 09b8 20       		.uleb128 0x20
 2137 09b9 8B020000 		.4byte	.LASF158
 2138 09bd 01       		.byte	0x1
 2139 09be 7802     		.2byte	0x278
 2140 09c0 C3000000 		.4byte	0xc3
 2141 09c4 01       		.byte	0x1
 2142 09c5 FA090000 		.4byte	0x9fa
 2143 09c9 21       		.uleb128 0x21
 2144 09ca B5020000 		.4byte	.LASF155
 2145 09ce 01       		.byte	0x1
 2146 09cf 7802     		.2byte	0x278
 2147 09d1 DE000000 		.4byte	0xde
 2148 09d5 21       		.uleb128 0x21
 2149 09d6 9C070000 		.4byte	.LASF156
 2150 09da 01       		.byte	0x1
 2151 09db 7802     		.2byte	0x278
 2152 09dd AD000000 		.4byte	0xad
 2153 09e1 22       		.uleb128 0x22
 2154 09e2 12060000 		.4byte	.LASF157
 2155 09e6 01       		.byte	0x1
 2156 09e7 7902     		.2byte	0x279
 2157 09e9 09090000 		.4byte	0x909
 2158 09ed 23       		.uleb128 0x23
 2159 09ee 24       		.uleb128 0x24
 2160 09ef 6900     		.ascii	"i\000"
 2161 09f1 01       		.byte	0x1
 2162 09f2 7B02     		.2byte	0x27b
 2163 09f4 A6000000 		.4byte	0xa6
 2164 09f8 00       		.byte	0
 2165 09f9 00       		.byte	0
 2166 09fa 20       		.uleb128 0x20
ARM GAS  /tmp/ccsoqR9L.s 			page 39


 2167 09fb 36030000 		.4byte	.LASF159
 2168 09ff 01       		.byte	0x1
 2169 0a00 1B02     		.2byte	0x21b
 2170 0a02 C3000000 		.4byte	0xc3
 2171 0a06 01       		.byte	0x1
 2172 0a07 780A0000 		.4byte	0xa78
 2173 0a0b 21       		.uleb128 0x21
 2174 0a0c 8D040000 		.4byte	.LASF160
 2175 0a10 01       		.byte	0x1
 2176 0a11 1B02     		.2byte	0x21b
 2177 0a13 C3000000 		.4byte	0xc3
 2178 0a17 21       		.uleb128 0x21
 2179 0a18 B7080000 		.4byte	.LASF161
 2180 0a1c 01       		.byte	0x1
 2181 0a1d 1B02     		.2byte	0x21b
 2182 0a1f C3000000 		.4byte	0xc3
 2183 0a23 22       		.uleb128 0x22
 2184 0a24 D8010000 		.4byte	.LASF162
 2185 0a28 01       		.byte	0x1
 2186 0a29 1D02     		.2byte	0x21d
 2187 0a2b 83010000 		.4byte	0x183
 2188 0a2f 22       		.uleb128 0x22
 2189 0a30 A8080000 		.4byte	.LASF163
 2190 0a34 01       		.byte	0x1
 2191 0a35 1E02     		.2byte	0x21e
 2192 0a37 DE000000 		.4byte	0xde
 2193 0a3b 22       		.uleb128 0x22
 2194 0a3c 54040000 		.4byte	.LASF164
 2195 0a40 01       		.byte	0x1
 2196 0a41 1F02     		.2byte	0x21f
 2197 0a43 C3000000 		.4byte	0xc3
 2198 0a47 22       		.uleb128 0x22
 2199 0a48 7D070000 		.4byte	.LASF165
 2200 0a4c 01       		.byte	0x1
 2201 0a4d 2002     		.2byte	0x220
 2202 0a4f C3000000 		.4byte	0xc3
 2203 0a53 22       		.uleb128 0x22
 2204 0a54 BB010000 		.4byte	.LASF166
 2205 0a58 01       		.byte	0x1
 2206 0a59 2002     		.2byte	0x220
 2207 0a5b C3000000 		.4byte	0xc3
 2208 0a5f 22       		.uleb128 0x22
 2209 0a60 CA060000 		.4byte	.LASF167
 2210 0a64 01       		.byte	0x1
 2211 0a65 2102     		.2byte	0x221
 2212 0a67 C3000000 		.4byte	0xc3
 2213 0a6b 22       		.uleb128 0x22
 2214 0a6c B5040000 		.4byte	.LASF168
 2215 0a70 01       		.byte	0x1
 2216 0a71 2102     		.2byte	0x221
 2217 0a73 C3000000 		.4byte	0xc3
 2218 0a77 00       		.byte	0
 2219 0a78 25       		.uleb128 0x25
 2220 0a79 BC080000 		.4byte	.LASF189
 2221 0a7d 01       		.byte	0x1
 2222 0a7e DE01     		.2byte	0x1de
 2223 0a80 C3000000 		.4byte	0xc3
ARM GAS  /tmp/ccsoqR9L.s 			page 40


 2224 0a84 00000000 		.4byte	.LFB224
 2225 0a88 7C000000 		.4byte	.LFE224-.LFB224
 2226 0a8c 01       		.uleb128 0x1
 2227 0a8d 9C       		.byte	0x9c
 2228 0a8e 4D0B0000 		.4byte	0xb4d
 2229 0a92 26       		.uleb128 0x26
 2230 0a93 8D040000 		.4byte	.LASF160
 2231 0a97 01       		.byte	0x1
 2232 0a98 DE01     		.2byte	0x1de
 2233 0a9a C3000000 		.4byte	0xc3
 2234 0a9e 00000000 		.4byte	.LLST0
 2235 0aa2 26       		.uleb128 0x26
 2236 0aa3 B7080000 		.4byte	.LASF161
 2237 0aa7 01       		.byte	0x1
 2238 0aa8 DE01     		.2byte	0x1de
 2239 0aaa C3000000 		.4byte	0xc3
 2240 0aae 53000000 		.4byte	.LLST1
 2241 0ab2 27       		.uleb128 0x27
 2242 0ab3 D8010000 		.4byte	.LASF162
 2243 0ab7 01       		.byte	0x1
 2244 0ab8 E001     		.2byte	0x1e0
 2245 0aba 83010000 		.4byte	0x183
 2246 0abe 8D000000 		.4byte	.LLST2
 2247 0ac2 28       		.uleb128 0x28
 2248 0ac3 7D070000 		.4byte	.LASF165
 2249 0ac7 01       		.byte	0x1
 2250 0ac8 E101     		.2byte	0x1e1
 2251 0aca C3000000 		.4byte	0xc3
 2252 0ace 00       		.byte	0
 2253 0acf 27       		.uleb128 0x27
 2254 0ad0 99040000 		.4byte	.LASF169
 2255 0ad4 01       		.byte	0x1
 2256 0ad5 E201     		.2byte	0x1e2
 2257 0ad7 DE000000 		.4byte	0xde
 2258 0adb C3000000 		.4byte	.LLST3
 2259 0adf 27       		.uleb128 0x27
 2260 0ae0 6A040000 		.4byte	.LASF170
 2261 0ae4 01       		.byte	0x1
 2262 0ae5 E201     		.2byte	0x1e2
 2263 0ae7 DE000000 		.4byte	0xde
 2264 0aeb 1C010000 		.4byte	.LLST4
 2265 0aef 29       		.uleb128 0x29
 2266 0af0 4D0B0000 		.4byte	0xb4d
 2267 0af4 02000000 		.4byte	.LBB9
 2268 0af8 00000000 		.4byte	.Ldebug_ranges0+0
 2269 0afc 01       		.byte	0x1
 2270 0afd E501     		.2byte	0x1e5
 2271 0aff 220B0000 		.4byte	0xb22
 2272 0b03 2A       		.uleb128 0x2a
 2273 0b04 5E0B0000 		.4byte	0xb5e
 2274 0b08 01       		.byte	0x1
 2275 0b09 2B       		.uleb128 0x2b
 2276 0b0a 00000000 		.4byte	.Ldebug_ranges0+0
 2277 0b0e 2C       		.uleb128 0x2c
 2278 0b0f 6A0B0000 		.4byte	0xb6a
 2279 0b13 6A010000 		.4byte	.LLST5
 2280 0b17 2C       		.uleb128 0x2c
ARM GAS  /tmp/ccsoqR9L.s 			page 41


 2281 0b18 760B0000 		.4byte	0xb76
 2282 0b1c 9F010000 		.4byte	.LLST6
 2283 0b20 00       		.byte	0
 2284 0b21 00       		.byte	0
 2285 0b22 2D       		.uleb128 0x2d
 2286 0b23 44000000 		.4byte	.LVL8
 2287 0b27 53100000 		.4byte	0x1053
 2288 0b2b 360B0000 		.4byte	0xb36
 2289 0b2f 2E       		.uleb128 0x2e
 2290 0b30 01       		.uleb128 0x1
 2291 0b31 50       		.byte	0x50
 2292 0b32 02       		.uleb128 0x2
 2293 0b33 74       		.byte	0x74
 2294 0b34 00       		.sleb128 0
 2295 0b35 00       		.byte	0
 2296 0b36 2F       		.uleb128 0x2f
 2297 0b37 6C000000 		.4byte	.LVL18
 2298 0b3b 53100000 		.4byte	0x1053
 2299 0b3f 2E       		.uleb128 0x2e
 2300 0b40 01       		.uleb128 0x1
 2301 0b41 50       		.byte	0x50
 2302 0b42 02       		.uleb128 0x2
 2303 0b43 74       		.byte	0x74
 2304 0b44 02       		.sleb128 2
 2305 0b45 2E       		.uleb128 0x2e
 2306 0b46 01       		.uleb128 0x1
 2307 0b47 51       		.byte	0x51
 2308 0b48 02       		.uleb128 0x2
 2309 0b49 75       		.byte	0x75
 2310 0b4a 00       		.sleb128 0
 2311 0b4b 00       		.byte	0
 2312 0b4c 00       		.byte	0
 2313 0b4d 20       		.uleb128 0x20
 2314 0b4e 43040000 		.4byte	.LASF171
 2315 0b52 01       		.byte	0x1
 2316 0b53 9601     		.2byte	0x196
 2317 0b55 C3000000 		.4byte	0xc3
 2318 0b59 01       		.byte	0x1
 2319 0b5a 830B0000 		.4byte	0xb83
 2320 0b5e 21       		.uleb128 0x21
 2321 0b5f 50060000 		.4byte	.LASF172
 2322 0b63 01       		.byte	0x1
 2323 0b64 9601     		.2byte	0x196
 2324 0b66 AD000000 		.4byte	0xad
 2325 0b6a 22       		.uleb128 0x22
 2326 0b6b DC050000 		.4byte	.LASF173
 2327 0b6f 01       		.byte	0x1
 2328 0b70 9801     		.2byte	0x198
 2329 0b72 C3000000 		.4byte	0xc3
 2330 0b76 22       		.uleb128 0x22
 2331 0b77 66050000 		.4byte	.LASF174
 2332 0b7b 01       		.byte	0x1
 2333 0b7c 9801     		.2byte	0x198
 2334 0b7e C3000000 		.4byte	0xc3
 2335 0b82 00       		.byte	0
 2336 0b83 20       		.uleb128 0x20
 2337 0b84 A1040000 		.4byte	.LASF175
ARM GAS  /tmp/ccsoqR9L.s 			page 42


 2338 0b88 01       		.byte	0x1
 2339 0b89 7001     		.2byte	0x170
 2340 0b8b 83010000 		.4byte	0x183
 2341 0b8f 01       		.byte	0x1
 2342 0b90 A10B0000 		.4byte	0xba1
 2343 0b94 22       		.uleb128 0x22
 2344 0b95 D8010000 		.4byte	.LASF162
 2345 0b99 01       		.byte	0x1
 2346 0b9a 7201     		.2byte	0x172
 2347 0b9c 83010000 		.4byte	0x183
 2348 0ba0 00       		.byte	0
 2349 0ba1 30       		.uleb128 0x30
 2350 0ba2 9F010000 		.4byte	.LASF178
 2351 0ba6 01       		.byte	0x1
 2352 0ba7 4A01     		.2byte	0x14a
 2353 0ba9 C3000000 		.4byte	0xc3
 2354 0bad 00000000 		.4byte	.LFB221
 2355 0bb1 E0000000 		.4byte	.LFE221-.LFB221
 2356 0bb5 01       		.uleb128 0x1
 2357 0bb6 9C       		.byte	0x9c
 2358 0bb7 4C0D0000 		.4byte	0xd4c
 2359 0bbb 26       		.uleb128 0x26
 2360 0bbc 8D040000 		.4byte	.LASF160
 2361 0bc0 01       		.byte	0x1
 2362 0bc1 4A01     		.2byte	0x14a
 2363 0bc3 C3000000 		.4byte	0xc3
 2364 0bc7 D4010000 		.4byte	.LLST25
 2365 0bcb 26       		.uleb128 0x26
 2366 0bcc B7080000 		.4byte	.LASF161
 2367 0bd0 01       		.byte	0x1
 2368 0bd1 4A01     		.2byte	0x14a
 2369 0bd3 C3000000 		.4byte	0xc3
 2370 0bd7 F5010000 		.4byte	.LLST26
 2371 0bdb 31       		.uleb128 0x31
 2372 0bdc 40000000 		.4byte	.LASF176
 2373 0be0 01       		.byte	0x1
 2374 0be1 4C01     		.2byte	0x14c
 2375 0be3 C3000000 		.4byte	0xc3
 2376 0be7 02       		.uleb128 0x2
 2377 0be8 91       		.byte	0x91
 2378 0be9 5E       		.sleb128 -34
 2379 0bea 27       		.uleb128 0x27
 2380 0beb B9070000 		.4byte	.LASF177
 2381 0bef 01       		.byte	0x1
 2382 0bf0 5301     		.2byte	0x153
 2383 0bf2 C3000000 		.4byte	0xc3
 2384 0bf6 16020000 		.4byte	.LLST27
 2385 0bfa 29       		.uleb128 0x29
 2386 0bfb FA090000 		.4byte	0x9fa
 2387 0bff 44000000 		.4byte	.LBB25
 2388 0c03 30000000 		.4byte	.Ldebug_ranges0+0x30
 2389 0c07 01       		.byte	0x1
 2390 0c08 6301     		.2byte	0x163
 2391 0c0a 1B0D0000 		.4byte	0xd1b
 2392 0c0e 32       		.uleb128 0x32
 2393 0c0f 170A0000 		.4byte	0xa17
 2394 0c13 4C020000 		.4byte	.LLST28
ARM GAS  /tmp/ccsoqR9L.s 			page 43


 2395 0c17 32       		.uleb128 0x32
 2396 0c18 0B0A0000 		.4byte	0xa0b
 2397 0c1c 75020000 		.4byte	.LLST29
 2398 0c20 2B       		.uleb128 0x2b
 2399 0c21 30000000 		.4byte	.Ldebug_ranges0+0x30
 2400 0c25 2C       		.uleb128 0x2c
 2401 0c26 230A0000 		.4byte	0xa23
 2402 0c2a 93020000 		.4byte	.LLST30
 2403 0c2e 2C       		.uleb128 0x2c
 2404 0c2f 2F0A0000 		.4byte	0xa2f
 2405 0c33 DF020000 		.4byte	.LLST31
 2406 0c37 2C       		.uleb128 0x2c
 2407 0c38 3B0A0000 		.4byte	0xa3b
 2408 0c3c 1D030000 		.4byte	.LLST32
 2409 0c40 2C       		.uleb128 0x2c
 2410 0c41 470A0000 		.4byte	0xa47
 2411 0c45 53030000 		.4byte	.LLST33
 2412 0c49 2C       		.uleb128 0x2c
 2413 0c4a 530A0000 		.4byte	0xa53
 2414 0c4e 73030000 		.4byte	.LLST34
 2415 0c52 2C       		.uleb128 0x2c
 2416 0c53 5F0A0000 		.4byte	0xa5f
 2417 0c57 9F030000 		.4byte	.LLST35
 2418 0c5b 2C       		.uleb128 0x2c
 2419 0c5c 6B0A0000 		.4byte	0xa6b
 2420 0c60 E1030000 		.4byte	.LLST36
 2421 0c64 33       		.uleb128 0x33
 2422 0c65 4D0B0000 		.4byte	0xb4d
 2423 0c69 9E000000 		.4byte	.LBB27
 2424 0c6d 10000000 		.4byte	.LBE27-.LBB27
 2425 0c71 01       		.byte	0x1
 2426 0c72 2402     		.2byte	0x224
 2427 0c74 9E0C0000 		.4byte	0xc9e
 2428 0c78 32       		.uleb128 0x32
 2429 0c79 5E0B0000 		.4byte	0xb5e
 2430 0c7d 53030000 		.4byte	.LLST33
 2431 0c81 34       		.uleb128 0x34
 2432 0c82 9E000000 		.4byte	.LBB28
 2433 0c86 10000000 		.4byte	.LBE28-.LBB28
 2434 0c8a 2C       		.uleb128 0x2c
 2435 0c8b 6A0B0000 		.4byte	0xb6a
 2436 0c8f 18040000 		.4byte	.LLST38
 2437 0c93 2C       		.uleb128 0x2c
 2438 0c94 760B0000 		.4byte	0xb76
 2439 0c98 42040000 		.4byte	.LLST39
 2440 0c9c 00       		.byte	0
 2441 0c9d 00       		.byte	0
 2442 0c9e 2D       		.uleb128 0x2d
 2443 0c9f 4C000000 		.4byte	.LVL101
 2444 0ca3 780A0000 		.4byte	0xa78
 2445 0ca7 B80C0000 		.4byte	0xcb8
 2446 0cab 2E       		.uleb128 0x2e
 2447 0cac 01       		.uleb128 0x1
 2448 0cad 50       		.byte	0x50
 2449 0cae 02       		.uleb128 0x2
 2450 0caf 75       		.byte	0x75
 2451 0cb0 00       		.sleb128 0
ARM GAS  /tmp/ccsoqR9L.s 			page 44


 2452 0cb1 2E       		.uleb128 0x2e
 2453 0cb2 01       		.uleb128 0x1
 2454 0cb3 51       		.byte	0x51
 2455 0cb4 02       		.uleb128 0x2
 2456 0cb5 74       		.byte	0x74
 2457 0cb6 00       		.sleb128 0
 2458 0cb7 00       		.byte	0
 2459 0cb8 2D       		.uleb128 0x2d
 2460 0cb9 6A000000 		.4byte	.LVL104
 2461 0cbd 4C0D0000 		.4byte	0xd4c
 2462 0cc1 CC0C0000 		.4byte	0xccc
 2463 0cc5 2E       		.uleb128 0x2e
 2464 0cc6 01       		.uleb128 0x1
 2465 0cc7 51       		.byte	0x51
 2466 0cc8 02       		.uleb128 0x2
 2467 0cc9 71       		.byte	0x71
 2468 0cca 00       		.sleb128 0
 2469 0ccb 00       		.byte	0
 2470 0ccc 35       		.uleb128 0x35
 2471 0ccd 7A000000 		.4byte	.LVL106
 2472 0cd1 780A0000 		.4byte	0xa78
 2473 0cd5 2D       		.uleb128 0x2d
 2474 0cd6 88000000 		.4byte	.LVL108
 2475 0cda 7D0F0000 		.4byte	0xf7d
 2476 0cde E90C0000 		.4byte	0xce9
 2477 0ce2 2E       		.uleb128 0x2e
 2478 0ce3 01       		.uleb128 0x1
 2479 0ce4 50       		.byte	0x50
 2480 0ce5 02       		.uleb128 0x2
 2481 0ce6 77       		.byte	0x77
 2482 0ce7 00       		.sleb128 0
 2483 0ce8 00       		.byte	0
 2484 0ce9 2D       		.uleb128 0x2d
 2485 0cea 96000000 		.4byte	.LVL110
 2486 0cee 53100000 		.4byte	0x1053
 2487 0cf2 020D0000 		.4byte	0xd02
 2488 0cf6 2E       		.uleb128 0x2e
 2489 0cf7 01       		.uleb128 0x1
 2490 0cf8 50       		.byte	0x50
 2491 0cf9 02       		.uleb128 0x2
 2492 0cfa 76       		.byte	0x76
 2493 0cfb 00       		.sleb128 0
 2494 0cfc 2E       		.uleb128 0x2e
 2495 0cfd 01       		.uleb128 0x1
 2496 0cfe 51       		.byte	0x51
 2497 0cff 01       		.uleb128 0x1
 2498 0d00 30       		.byte	0x30
 2499 0d01 00       		.byte	0
 2500 0d02 2F       		.uleb128 0x2f
 2501 0d03 C0000000 		.4byte	.LVL117
 2502 0d07 53100000 		.4byte	0x1053
 2503 0d0b 2E       		.uleb128 0x2e
 2504 0d0c 01       		.uleb128 0x1
 2505 0d0d 50       		.byte	0x50
 2506 0d0e 02       		.uleb128 0x2
 2507 0d0f 76       		.byte	0x76
 2508 0d10 00       		.sleb128 0
ARM GAS  /tmp/ccsoqR9L.s 			page 45


 2509 0d11 2E       		.uleb128 0x2e
 2510 0d12 01       		.uleb128 0x1
 2511 0d13 51       		.byte	0x51
 2512 0d14 03       		.uleb128 0x3
 2513 0d15 0B       		.byte	0xb
 2514 0d16 EEEE     		.2byte	0xeeee
 2515 0d18 00       		.byte	0
 2516 0d19 00       		.byte	0
 2517 0d1a 00       		.byte	0
 2518 0d1b 2D       		.uleb128 0x2d
 2519 0d1c 18000000 		.4byte	.LVL94
 2520 0d20 4C0D0000 		.4byte	0xd4c
 2521 0d24 350D0000 		.4byte	0xd35
 2522 0d28 2E       		.uleb128 0x2e
 2523 0d29 01       		.uleb128 0x1
 2524 0d2a 50       		.byte	0x50
 2525 0d2b 02       		.uleb128 0x2
 2526 0d2c 75       		.byte	0x75
 2527 0d2d 00       		.sleb128 0
 2528 0d2e 2E       		.uleb128 0x2e
 2529 0d2f 01       		.uleb128 0x1
 2530 0d30 51       		.byte	0x51
 2531 0d31 02       		.uleb128 0x2
 2532 0d32 71       		.byte	0x71
 2533 0d33 00       		.sleb128 0
 2534 0d34 00       		.byte	0
 2535 0d35 2F       		.uleb128 0x2f
 2536 0d36 32000000 		.4byte	.LVL96
 2537 0d3a 780A0000 		.4byte	0xa78
 2538 0d3e 2E       		.uleb128 0x2e
 2539 0d3f 01       		.uleb128 0x1
 2540 0d40 50       		.byte	0x50
 2541 0d41 02       		.uleb128 0x2
 2542 0d42 75       		.byte	0x75
 2543 0d43 00       		.sleb128 0
 2544 0d44 2E       		.uleb128 0x2e
 2545 0d45 01       		.uleb128 0x1
 2546 0d46 51       		.byte	0x51
 2547 0d47 02       		.uleb128 0x2
 2548 0d48 74       		.byte	0x74
 2549 0d49 00       		.sleb128 0
 2550 0d4a 00       		.byte	0
 2551 0d4b 00       		.byte	0
 2552 0d4c 30       		.uleb128 0x30
 2553 0d4d 53080000 		.4byte	.LASF179
 2554 0d51 01       		.byte	0x1
 2555 0d52 0F01     		.2byte	0x10f
 2556 0d54 C3000000 		.4byte	0xc3
 2557 0d58 00000000 		.4byte	.LFB220
 2558 0d5c 6C000000 		.4byte	.LFE220-.LFB220
 2559 0d60 01       		.uleb128 0x1
 2560 0d61 9C       		.byte	0x9c
 2561 0d62 010E0000 		.4byte	0xe01
 2562 0d66 26       		.uleb128 0x26
 2563 0d67 8D040000 		.4byte	.LASF160
 2564 0d6b 01       		.byte	0x1
 2565 0d6c 0F01     		.2byte	0x10f
ARM GAS  /tmp/ccsoqR9L.s 			page 46


 2566 0d6e C3000000 		.4byte	0xc3
 2567 0d72 6C040000 		.4byte	.LLST11
 2568 0d76 36       		.uleb128 0x36
 2569 0d77 B7080000 		.4byte	.LASF161
 2570 0d7b 01       		.byte	0x1
 2571 0d7c 0F01     		.2byte	0x10f
 2572 0d7e 010E0000 		.4byte	0xe01
 2573 0d82 01       		.uleb128 0x1
 2574 0d83 51       		.byte	0x51
 2575 0d84 28       		.uleb128 0x28
 2576 0d85 7D070000 		.4byte	.LASF165
 2577 0d89 01       		.byte	0x1
 2578 0d8a 1101     		.2byte	0x111
 2579 0d8c C3000000 		.4byte	0xc3
 2580 0d90 00       		.byte	0
 2581 0d91 27       		.uleb128 0x27
 2582 0d92 43060000 		.4byte	.LASF180
 2583 0d96 01       		.byte	0x1
 2584 0d97 1201     		.2byte	0x112
 2585 0d99 C3000000 		.4byte	0xc3
 2586 0d9d BF040000 		.4byte	.LLST12
 2587 0da1 27       		.uleb128 0x27
 2588 0da2 B5040000 		.4byte	.LASF168
 2589 0da6 01       		.byte	0x1
 2590 0da7 1201     		.2byte	0x112
 2591 0da9 C3000000 		.4byte	0xc3
 2592 0dad F9040000 		.4byte	.LLST13
 2593 0db1 27       		.uleb128 0x27
 2594 0db2 99040000 		.4byte	.LASF169
 2595 0db6 01       		.byte	0x1
 2596 0db7 1301     		.2byte	0x113
 2597 0db9 DE000000 		.4byte	0xde
 2598 0dbd 25050000 		.4byte	.LLST14
 2599 0dc1 27       		.uleb128 0x27
 2600 0dc2 49050000 		.4byte	.LASF181
 2601 0dc6 01       		.byte	0x1
 2602 0dc7 1301     		.2byte	0x113
 2603 0dc9 DE000000 		.4byte	0xde
 2604 0dcd 58050000 		.4byte	.LLST15
 2605 0dd1 37       		.uleb128 0x37
 2606 0dd2 4D0B0000 		.4byte	0xb4d
 2607 0dd6 00000000 		.4byte	.LBB17
 2608 0dda 18000000 		.4byte	.Ldebug_ranges0+0x18
 2609 0dde 01       		.byte	0x1
 2610 0ddf 1601     		.2byte	0x116
 2611 0de1 2A       		.uleb128 0x2a
 2612 0de2 5E0B0000 		.4byte	0xb5e
 2613 0de6 00       		.byte	0
 2614 0de7 2B       		.uleb128 0x2b
 2615 0de8 18000000 		.4byte	.Ldebug_ranges0+0x18
 2616 0dec 2C       		.uleb128 0x2c
 2617 0ded 6A0B0000 		.4byte	0xb6a
 2618 0df1 80050000 		.4byte	.LLST16
 2619 0df5 2C       		.uleb128 0x2c
 2620 0df6 760B0000 		.4byte	0xb76
 2621 0dfa B5050000 		.4byte	.LLST17
 2622 0dfe 00       		.byte	0
ARM GAS  /tmp/ccsoqR9L.s 			page 47


 2623 0dff 00       		.byte	0
 2624 0e00 00       		.byte	0
 2625 0e01 10       		.uleb128 0x10
 2626 0e02 04       		.byte	0x4
 2627 0e03 C3000000 		.4byte	0xc3
 2628 0e07 38       		.uleb128 0x38
 2629 0e08 79040000 		.4byte	.LASF182
 2630 0e0c 01       		.byte	0x1
 2631 0e0d 38       		.byte	0x38
 2632 0e0e C3000000 		.4byte	0xc3
 2633 0e12 00000000 		.4byte	.LFB219
 2634 0e16 40010000 		.4byte	.LFE219-.LFB219
 2635 0e1a 01       		.uleb128 0x1
 2636 0e1b 9C       		.byte	0x9c
 2637 0e1c 7D0F0000 		.4byte	0xf7d
 2638 0e20 39       		.uleb128 0x39
 2639 0e21 DC050000 		.4byte	.LASF173
 2640 0e25 01       		.byte	0x1
 2641 0e26 3A       		.byte	0x3a
 2642 0e27 C3000000 		.4byte	0xc3
 2643 0e2b EA050000 		.4byte	.LLST18
 2644 0e2f 39       		.uleb128 0x39
 2645 0e30 66050000 		.4byte	.LASF174
 2646 0e34 01       		.byte	0x1
 2647 0e35 3A       		.byte	0x3a
 2648 0e36 C3000000 		.4byte	0xc3
 2649 0e3a 2A060000 		.4byte	.LLST19
 2650 0e3e 39       		.uleb128 0x39
 2651 0e3f BB010000 		.4byte	.LASF166
 2652 0e43 01       		.byte	0x1
 2653 0e44 3B       		.byte	0x3b
 2654 0e45 C3000000 		.4byte	0xc3
 2655 0e49 75060000 		.4byte	.LLST20
 2656 0e4d 39       		.uleb128 0x39
 2657 0e4e CA060000 		.4byte	.LASF167
 2658 0e52 01       		.byte	0x1
 2659 0e53 3C       		.byte	0x3c
 2660 0e54 C3000000 		.4byte	0xc3
 2661 0e58 C3060000 		.4byte	.LLST21
 2662 0e5c 39       		.uleb128 0x39
 2663 0e5d B5040000 		.4byte	.LASF168
 2664 0e61 01       		.byte	0x1
 2665 0e62 3C       		.byte	0x3c
 2666 0e63 C3000000 		.4byte	0xc3
 2667 0e67 11070000 		.4byte	.LLST22
 2668 0e6b 3A       		.uleb128 0x3a
 2669 0e6c 7800     		.ascii	"x\000"
 2670 0e6e 01       		.byte	0x1
 2671 0e6f 3D       		.byte	0x3d
 2672 0e70 B8000000 		.4byte	0xb8
 2673 0e74 5F070000 		.4byte	.LLST23
 2674 0e78 39       		.uleb128 0x39
 2675 0e79 D8010000 		.4byte	.LASF162
 2676 0e7d 01       		.byte	0x1
 2677 0e7e 3E       		.byte	0x3e
 2678 0e7f C3000000 		.4byte	0xc3
 2679 0e83 B1070000 		.4byte	.LLST24
ARM GAS  /tmp/ccsoqR9L.s 			page 48


 2680 0e87 35       		.uleb128 0x35
 2681 0e88 26000000 		.4byte	.LVL57
 2682 0e8c 830B0000 		.4byte	0xb83
 2683 0e90 2D       		.uleb128 0x2d
 2684 0e91 5C000000 		.4byte	.LVL63
 2685 0e95 4C0D0000 		.4byte	0xd4c
 2686 0e99 A40E0000 		.4byte	0xea4
 2687 0e9d 2E       		.uleb128 0x2e
 2688 0e9e 01       		.uleb128 0x1
 2689 0e9f 51       		.byte	0x51
 2690 0ea0 02       		.uleb128 0x2
 2691 0ea1 71       		.byte	0x71
 2692 0ea2 00       		.sleb128 0
 2693 0ea3 00       		.byte	0
 2694 0ea4 35       		.uleb128 0x35
 2695 0ea5 6C000000 		.4byte	.LVL65
 2696 0ea9 780A0000 		.4byte	0xa78
 2697 0ead 2D       		.uleb128 0x2d
 2698 0eae 7E000000 		.4byte	.LVL67
 2699 0eb2 53100000 		.4byte	0x1053
 2700 0eb6 C90E0000 		.4byte	0xec9
 2701 0eba 2E       		.uleb128 0x2e
 2702 0ebb 01       		.uleb128 0x1
 2703 0ebc 50       		.byte	0x50
 2704 0ebd 05       		.uleb128 0x5
 2705 0ebe 0C       		.byte	0xc
 2706 0ebf 00800008 		.4byte	0x8008000
 2707 0ec3 2E       		.uleb128 0x2e
 2708 0ec4 01       		.uleb128 0x1
 2709 0ec5 51       		.byte	0x51
 2710 0ec6 01       		.uleb128 0x1
 2711 0ec7 30       		.byte	0x30
 2712 0ec8 00       		.byte	0
 2713 0ec9 3B       		.uleb128 0x3b
 2714 0eca 8E000000 		.4byte	.LVL70
 2715 0ece 7D0F0000 		.4byte	0xf7d
 2716 0ed2 DC0E0000 		.4byte	0xedc
 2717 0ed6 2E       		.uleb128 0x2e
 2718 0ed7 01       		.uleb128 0x1
 2719 0ed8 50       		.byte	0x50
 2720 0ed9 01       		.uleb128 0x1
 2721 0eda 38       		.byte	0x38
 2722 0edb 00       		.byte	0
 2723 0edc 2D       		.uleb128 0x2d
 2724 0edd 9C000000 		.4byte	.LVL71
 2725 0ee1 7D0F0000 		.4byte	0xf7d
 2726 0ee5 EF0E0000 		.4byte	0xeef
 2727 0ee9 2E       		.uleb128 0x2e
 2728 0eea 01       		.uleb128 0x1
 2729 0eeb 50       		.byte	0x50
 2730 0eec 01       		.uleb128 0x1
 2731 0eed 38       		.byte	0x38
 2732 0eee 00       		.byte	0
 2733 0eef 2D       		.uleb128 0x2d
 2734 0ef0 A8000000 		.4byte	.LVL73
 2735 0ef4 53100000 		.4byte	0x1053
 2736 0ef8 080F0000 		.4byte	0xf08
ARM GAS  /tmp/ccsoqR9L.s 			page 49


 2737 0efc 2E       		.uleb128 0x2e
 2738 0efd 01       		.uleb128 0x1
 2739 0efe 50       		.byte	0x50
 2740 0eff 02       		.uleb128 0x2
 2741 0f00 76       		.byte	0x76
 2742 0f01 00       		.sleb128 0
 2743 0f02 2E       		.uleb128 0x2e
 2744 0f03 01       		.uleb128 0x1
 2745 0f04 51       		.byte	0x51
 2746 0f05 01       		.uleb128 0x1
 2747 0f06 30       		.byte	0x30
 2748 0f07 00       		.byte	0
 2749 0f08 2D       		.uleb128 0x2d
 2750 0f09 D8000000 		.4byte	.LVL80
 2751 0f0d 4C0D0000 		.4byte	0xd4c
 2752 0f11 1C0F0000 		.4byte	0xf1c
 2753 0f15 2E       		.uleb128 0x2e
 2754 0f16 01       		.uleb128 0x1
 2755 0f17 51       		.byte	0x51
 2756 0f18 02       		.uleb128 0x2
 2757 0f19 71       		.byte	0x71
 2758 0f1a 00       		.sleb128 0
 2759 0f1b 00       		.byte	0
 2760 0f1c 35       		.uleb128 0x35
 2761 0f1d E6000000 		.4byte	.LVL82
 2762 0f21 780A0000 		.4byte	0xa78
 2763 0f25 2D       		.uleb128 0x2d
 2764 0f26 F8000000 		.4byte	.LVL84
 2765 0f2a 53100000 		.4byte	0x1053
 2766 0f2e 410F0000 		.4byte	0xf41
 2767 0f32 2E       		.uleb128 0x2e
 2768 0f33 01       		.uleb128 0x1
 2769 0f34 50       		.byte	0x50
 2770 0f35 05       		.uleb128 0x5
 2771 0f36 0C       		.byte	0xc
 2772 0f37 00400008 		.4byte	0x8004000
 2773 0f3b 2E       		.uleb128 0x2e
 2774 0f3c 01       		.uleb128 0x1
 2775 0f3d 51       		.byte	0x51
 2776 0f3e 01       		.uleb128 0x1
 2777 0f3f 30       		.byte	0x30
 2778 0f40 00       		.byte	0
 2779 0f41 3B       		.uleb128 0x3b
 2780 0f42 08010000 		.4byte	.LVL87
 2781 0f46 7D0F0000 		.4byte	0xf7d
 2782 0f4a 540F0000 		.4byte	0xf54
 2783 0f4e 2E       		.uleb128 0x2e
 2784 0f4f 01       		.uleb128 0x1
 2785 0f50 50       		.byte	0x50
 2786 0f51 01       		.uleb128 0x1
 2787 0f52 40       		.byte	0x40
 2788 0f53 00       		.byte	0
 2789 0f54 2D       		.uleb128 0x2d
 2790 0f55 16010000 		.4byte	.LVL88
 2791 0f59 7D0F0000 		.4byte	0xf7d
 2792 0f5d 670F0000 		.4byte	0xf67
 2793 0f61 2E       		.uleb128 0x2e
ARM GAS  /tmp/ccsoqR9L.s 			page 50


 2794 0f62 01       		.uleb128 0x1
 2795 0f63 50       		.byte	0x50
 2796 0f64 01       		.uleb128 0x1
 2797 0f65 40       		.byte	0x40
 2798 0f66 00       		.byte	0
 2799 0f67 2F       		.uleb128 0x2f
 2800 0f68 22010000 		.4byte	.LVL90
 2801 0f6c 53100000 		.4byte	0x1053
 2802 0f70 2E       		.uleb128 0x2e
 2803 0f71 01       		.uleb128 0x1
 2804 0f72 50       		.byte	0x50
 2805 0f73 02       		.uleb128 0x2
 2806 0f74 75       		.byte	0x75
 2807 0f75 00       		.sleb128 0
 2808 0f76 2E       		.uleb128 0x2e
 2809 0f77 01       		.uleb128 0x1
 2810 0f78 51       		.byte	0x51
 2811 0f79 01       		.uleb128 0x1
 2812 0f7a 30       		.byte	0x30
 2813 0f7b 00       		.byte	0
 2814 0f7c 00       		.byte	0
 2815 0f7d 3C       		.uleb128 0x3c
 2816 0f7e B8090000 		.4byte	0x9b8
 2817 0f82 00000000 		.4byte	.LFB228
 2818 0f86 2E000000 		.4byte	.LFE228-.LFB228
 2819 0f8a 01       		.uleb128 0x1
 2820 0f8b 9C       		.byte	0x9c
 2821 0f8c E90F0000 		.4byte	0xfe9
 2822 0f90 32       		.uleb128 0x32
 2823 0f91 C9090000 		.4byte	0x9c9
 2824 0f95 FB070000 		.4byte	.LLST7
 2825 0f99 2C       		.uleb128 0x2c
 2826 0f9a E1090000 		.4byte	0x9e1
 2827 0f9e 19080000 		.4byte	.LLST8
 2828 0fa2 2A       		.uleb128 0x2a
 2829 0fa3 D5090000 		.4byte	0x9d5
 2830 0fa7 02       		.byte	0x2
 2831 0fa8 3D       		.uleb128 0x3d
 2832 0fa9 ED090000 		.4byte	0x9ed
 2833 0fad 12000000 		.4byte	.LBB13
 2834 0fb1 16000000 		.4byte	.LBE13-.LBB13
 2835 0fb5 D80F0000 		.4byte	0xfd8
 2836 0fb9 2C       		.uleb128 0x2c
 2837 0fba EE090000 		.4byte	0x9ee
 2838 0fbe 57080000 		.4byte	.LLST9
 2839 0fc2 2F       		.uleb128 0x2f
 2840 0fc3 26000000 		.4byte	.LVL26
 2841 0fc7 5F100000 		.4byte	0x105f
 2842 0fcb 2E       		.uleb128 0x2e
 2843 0fcc 01       		.uleb128 0x1
 2844 0fcd 50       		.byte	0x50
 2845 0fce 02       		.uleb128 0x2
 2846 0fcf 74       		.byte	0x74
 2847 0fd0 00       		.sleb128 0
 2848 0fd1 2E       		.uleb128 0x2e
 2849 0fd2 01       		.uleb128 0x1
 2850 0fd3 51       		.byte	0x51
ARM GAS  /tmp/ccsoqR9L.s 			page 51


 2851 0fd4 01       		.uleb128 0x1
 2852 0fd5 32       		.byte	0x32
 2853 0fd6 00       		.byte	0
 2854 0fd7 00       		.byte	0
 2855 0fd8 2F       		.uleb128 0x2f
 2856 0fd9 08000000 		.4byte	.LVL20
 2857 0fdd 6B100000 		.4byte	0x106b
 2858 0fe1 2E       		.uleb128 0x2e
 2859 0fe2 01       		.uleb128 0x1
 2860 0fe3 50       		.byte	0x50
 2861 0fe4 02       		.uleb128 0x2
 2862 0fe5 74       		.byte	0x74
 2863 0fe6 00       		.sleb128 0
 2864 0fe7 00       		.byte	0
 2865 0fe8 00       		.byte	0
 2866 0fe9 3C       		.uleb128 0x3c
 2867 0fea 830B0000 		.4byte	0xb83
 2868 0fee 00000000 		.4byte	.LFB222
 2869 0ff2 2C000000 		.4byte	.LFE222-.LFB222
 2870 0ff6 01       		.uleb128 0x1
 2871 0ff7 9C       		.byte	0x9c
 2872 0ff8 53100000 		.4byte	0x1053
 2873 0ffc 2C       		.uleb128 0x2c
 2874 0ffd 940B0000 		.4byte	0xb94
 2875 1001 93080000 		.4byte	.LLST10
 2876 1005 3E       		.uleb128 0x3e
 2877 1006 1C000000 		.4byte	.LBB16
 2878 100a 08000000 		.4byte	.LBE16-.LBB16
 2879 100e 27100000 		.4byte	0x1027
 2880 1012 3F       		.uleb128 0x3f
 2881 1013 FC0F0000 		.4byte	0xffc
 2882 1017 2F       		.uleb128 0x2f
 2883 1018 22000000 		.4byte	.LVL35
 2884 101c 7D0F0000 		.4byte	0xf7d
 2885 1020 2E       		.uleb128 0x2e
 2886 1021 01       		.uleb128 0x1
 2887 1022 50       		.byte	0x50
 2888 1023 01       		.uleb128 0x1
 2889 1024 40       		.byte	0x40
 2890 1025 00       		.byte	0
 2891 1026 00       		.byte	0
 2892 1027 2D       		.uleb128 0x2d
 2893 1028 08000000 		.4byte	.LVL30
 2894 102c 7D0F0000 		.4byte	0xf7d
 2895 1030 3A100000 		.4byte	0x103a
 2896 1034 2E       		.uleb128 0x2e
 2897 1035 01       		.uleb128 0x1
 2898 1036 50       		.byte	0x50
 2899 1037 01       		.uleb128 0x1
 2900 1038 38       		.byte	0x38
 2901 1039 00       		.byte	0
 2902 103a 2F       		.uleb128 0x2f
 2903 103b 18000000 		.4byte	.LVL33
 2904 103f 53100000 		.4byte	0x1053
 2905 1043 2E       		.uleb128 0x2e
 2906 1044 01       		.uleb128 0x1
 2907 1045 50       		.byte	0x50
ARM GAS  /tmp/ccsoqR9L.s 			page 52


 2908 1046 05       		.uleb128 0x5
 2909 1047 0C       		.byte	0xc
 2910 1048 00400008 		.4byte	0x8004000
 2911 104c 2E       		.uleb128 0x2e
 2912 104d 01       		.uleb128 0x1
 2913 104e 51       		.byte	0x51
 2914 104f 01       		.uleb128 0x1
 2915 1050 30       		.byte	0x30
 2916 1051 00       		.byte	0
 2917 1052 00       		.byte	0
 2918 1053 40       		.uleb128 0x40
 2919 1054 FE080000 		.4byte	.LASF183
 2920 1058 FE080000 		.4byte	.LASF183
 2921 105c 07       		.byte	0x7
 2922 105d C001     		.2byte	0x1c0
 2923 105f 40       		.uleb128 0x40
 2924 1060 76060000 		.4byte	.LASF184
 2925 1064 76060000 		.4byte	.LASF184
 2926 1068 07       		.byte	0x7
 2927 1069 BA01     		.2byte	0x1ba
 2928 106b 41       		.uleb128 0x41
 2929 106c DF040000 		.4byte	.LASF185
 2930 1070 DF040000 		.4byte	.LASF185
 2931 1074 14       		.byte	0x14
 2932 1075 28       		.byte	0x28
 2933 1076 00       		.byte	0
 2934              		.section	.debug_abbrev,"",%progbits
 2935              	.Ldebug_abbrev0:
 2936 0000 01       		.uleb128 0x1
 2937 0001 11       		.uleb128 0x11
 2938 0002 01       		.byte	0x1
 2939 0003 25       		.uleb128 0x25
 2940 0004 0E       		.uleb128 0xe
 2941 0005 13       		.uleb128 0x13
 2942 0006 0B       		.uleb128 0xb
 2943 0007 03       		.uleb128 0x3
 2944 0008 0E       		.uleb128 0xe
 2945 0009 1B       		.uleb128 0x1b
 2946 000a 0E       		.uleb128 0xe
 2947 000b 55       		.uleb128 0x55
 2948 000c 17       		.uleb128 0x17
 2949 000d 11       		.uleb128 0x11
 2950 000e 01       		.uleb128 0x1
 2951 000f 10       		.uleb128 0x10
 2952 0010 17       		.uleb128 0x17
 2953 0011 00       		.byte	0
 2954 0012 00       		.byte	0
 2955 0013 02       		.uleb128 0x2
 2956 0014 24       		.uleb128 0x24
 2957 0015 00       		.byte	0
 2958 0016 0B       		.uleb128 0xb
 2959 0017 0B       		.uleb128 0xb
 2960 0018 3E       		.uleb128 0x3e
 2961 0019 0B       		.uleb128 0xb
 2962 001a 03       		.uleb128 0x3
 2963 001b 0E       		.uleb128 0xe
 2964 001c 00       		.byte	0
ARM GAS  /tmp/ccsoqR9L.s 			page 53


 2965 001d 00       		.byte	0
 2966 001e 03       		.uleb128 0x3
 2967 001f 16       		.uleb128 0x16
 2968 0020 00       		.byte	0
 2969 0021 03       		.uleb128 0x3
 2970 0022 0E       		.uleb128 0xe
 2971 0023 3A       		.uleb128 0x3a
 2972 0024 0B       		.uleb128 0xb
 2973 0025 3B       		.uleb128 0x3b
 2974 0026 0B       		.uleb128 0xb
 2975 0027 49       		.uleb128 0x49
 2976 0028 13       		.uleb128 0x13
 2977 0029 00       		.byte	0
 2978 002a 00       		.byte	0
 2979 002b 04       		.uleb128 0x4
 2980 002c 24       		.uleb128 0x24
 2981 002d 00       		.byte	0
 2982 002e 0B       		.uleb128 0xb
 2983 002f 0B       		.uleb128 0xb
 2984 0030 3E       		.uleb128 0x3e
 2985 0031 0B       		.uleb128 0xb
 2986 0032 03       		.uleb128 0x3
 2987 0033 08       		.uleb128 0x8
 2988 0034 00       		.byte	0
 2989 0035 00       		.byte	0
 2990 0036 05       		.uleb128 0x5
 2991 0037 35       		.uleb128 0x35
 2992 0038 00       		.byte	0
 2993 0039 49       		.uleb128 0x49
 2994 003a 13       		.uleb128 0x13
 2995 003b 00       		.byte	0
 2996 003c 00       		.byte	0
 2997 003d 06       		.uleb128 0x6
 2998 003e 34       		.uleb128 0x34
 2999 003f 00       		.byte	0
 3000 0040 03       		.uleb128 0x3
 3001 0041 0E       		.uleb128 0xe
 3002 0042 3A       		.uleb128 0x3a
 3003 0043 0B       		.uleb128 0xb
 3004 0044 3B       		.uleb128 0x3b
 3005 0045 05       		.uleb128 0x5
 3006 0046 49       		.uleb128 0x49
 3007 0047 13       		.uleb128 0x13
 3008 0048 3F       		.uleb128 0x3f
 3009 0049 19       		.uleb128 0x19
 3010 004a 3C       		.uleb128 0x3c
 3011 004b 19       		.uleb128 0x19
 3012 004c 00       		.byte	0
 3013 004d 00       		.byte	0
 3014 004e 07       		.uleb128 0x7
 3015 004f 34       		.uleb128 0x34
 3016 0050 00       		.byte	0
 3017 0051 03       		.uleb128 0x3
 3018 0052 0E       		.uleb128 0xe
 3019 0053 3A       		.uleb128 0x3a
 3020 0054 0B       		.uleb128 0xb
 3021 0055 3B       		.uleb128 0x3b
ARM GAS  /tmp/ccsoqR9L.s 			page 54


 3022 0056 0B       		.uleb128 0xb
 3023 0057 49       		.uleb128 0x49
 3024 0058 13       		.uleb128 0x13
 3025 0059 3F       		.uleb128 0x3f
 3026 005a 19       		.uleb128 0x19
 3027 005b 3C       		.uleb128 0x3c
 3028 005c 19       		.uleb128 0x19
 3029 005d 00       		.byte	0
 3030 005e 00       		.byte	0
 3031 005f 08       		.uleb128 0x8
 3032 0060 13       		.uleb128 0x13
 3033 0061 01       		.byte	0x1
 3034 0062 0B       		.uleb128 0xb
 3035 0063 0B       		.uleb128 0xb
 3036 0064 3A       		.uleb128 0x3a
 3037 0065 0B       		.uleb128 0xb
 3038 0066 3B       		.uleb128 0x3b
 3039 0067 05       		.uleb128 0x5
 3040 0068 01       		.uleb128 0x1
 3041 0069 13       		.uleb128 0x13
 3042 006a 00       		.byte	0
 3043 006b 00       		.byte	0
 3044 006c 09       		.uleb128 0x9
 3045 006d 0D       		.uleb128 0xd
 3046 006e 00       		.byte	0
 3047 006f 03       		.uleb128 0x3
 3048 0070 08       		.uleb128 0x8
 3049 0071 3A       		.uleb128 0x3a
 3050 0072 0B       		.uleb128 0xb
 3051 0073 3B       		.uleb128 0x3b
 3052 0074 05       		.uleb128 0x5
 3053 0075 49       		.uleb128 0x49
 3054 0076 13       		.uleb128 0x13
 3055 0077 38       		.uleb128 0x38
 3056 0078 0B       		.uleb128 0xb
 3057 0079 00       		.byte	0
 3058 007a 00       		.byte	0
 3059 007b 0A       		.uleb128 0xa
 3060 007c 16       		.uleb128 0x16
 3061 007d 00       		.byte	0
 3062 007e 03       		.uleb128 0x3
 3063 007f 0E       		.uleb128 0xe
 3064 0080 3A       		.uleb128 0x3a
 3065 0081 0B       		.uleb128 0xb
 3066 0082 3B       		.uleb128 0x3b
 3067 0083 05       		.uleb128 0x5
 3068 0084 49       		.uleb128 0x49
 3069 0085 13       		.uleb128 0x13
 3070 0086 00       		.byte	0
 3071 0087 00       		.byte	0
 3072 0088 0B       		.uleb128 0xb
 3073 0089 04       		.uleb128 0x4
 3074 008a 01       		.byte	0x1
 3075 008b 3E       		.uleb128 0x3e
 3076 008c 0B       		.uleb128 0xb
 3077 008d 0B       		.uleb128 0xb
 3078 008e 0B       		.uleb128 0xb
ARM GAS  /tmp/ccsoqR9L.s 			page 55


 3079 008f 49       		.uleb128 0x49
 3080 0090 13       		.uleb128 0x13
 3081 0091 3A       		.uleb128 0x3a
 3082 0092 0B       		.uleb128 0xb
 3083 0093 3B       		.uleb128 0x3b
 3084 0094 0B       		.uleb128 0xb
 3085 0095 01       		.uleb128 0x1
 3086 0096 13       		.uleb128 0x13
 3087 0097 00       		.byte	0
 3088 0098 00       		.byte	0
 3089 0099 0C       		.uleb128 0xc
 3090 009a 28       		.uleb128 0x28
 3091 009b 00       		.byte	0
 3092 009c 03       		.uleb128 0x3
 3093 009d 0E       		.uleb128 0xe
 3094 009e 1C       		.uleb128 0x1c
 3095 009f 0B       		.uleb128 0xb
 3096 00a0 00       		.byte	0
 3097 00a1 00       		.byte	0
 3098 00a2 0D       		.uleb128 0xd
 3099 00a3 13       		.uleb128 0x13
 3100 00a4 01       		.byte	0x1
 3101 00a5 03       		.uleb128 0x3
 3102 00a6 0E       		.uleb128 0xe
 3103 00a7 0B       		.uleb128 0xb
 3104 00a8 0B       		.uleb128 0xb
 3105 00a9 3A       		.uleb128 0x3a
 3106 00aa 0B       		.uleb128 0xb
 3107 00ab 3B       		.uleb128 0x3b
 3108 00ac 0B       		.uleb128 0xb
 3109 00ad 01       		.uleb128 0x1
 3110 00ae 13       		.uleb128 0x13
 3111 00af 00       		.byte	0
 3112 00b0 00       		.byte	0
 3113 00b1 0E       		.uleb128 0xe
 3114 00b2 0D       		.uleb128 0xd
 3115 00b3 00       		.byte	0
 3116 00b4 03       		.uleb128 0x3
 3117 00b5 0E       		.uleb128 0xe
 3118 00b6 3A       		.uleb128 0x3a
 3119 00b7 0B       		.uleb128 0xb
 3120 00b8 3B       		.uleb128 0x3b
 3121 00b9 0B       		.uleb128 0xb
 3122 00ba 49       		.uleb128 0x49
 3123 00bb 13       		.uleb128 0x13
 3124 00bc 38       		.uleb128 0x38
 3125 00bd 0B       		.uleb128 0xb
 3126 00be 00       		.byte	0
 3127 00bf 00       		.byte	0
 3128 00c0 0F       		.uleb128 0xf
 3129 00c1 0D       		.uleb128 0xd
 3130 00c2 00       		.byte	0
 3131 00c3 03       		.uleb128 0x3
 3132 00c4 0E       		.uleb128 0xe
 3133 00c5 3A       		.uleb128 0x3a
 3134 00c6 0B       		.uleb128 0xb
 3135 00c7 3B       		.uleb128 0x3b
ARM GAS  /tmp/ccsoqR9L.s 			page 56


 3136 00c8 05       		.uleb128 0x5
 3137 00c9 49       		.uleb128 0x49
 3138 00ca 13       		.uleb128 0x13
 3139 00cb 38       		.uleb128 0x38
 3140 00cc 0B       		.uleb128 0xb
 3141 00cd 00       		.byte	0
 3142 00ce 00       		.byte	0
 3143 00cf 10       		.uleb128 0x10
 3144 00d0 0F       		.uleb128 0xf
 3145 00d1 00       		.byte	0
 3146 00d2 0B       		.uleb128 0xb
 3147 00d3 0B       		.uleb128 0xb
 3148 00d4 49       		.uleb128 0x49
 3149 00d5 13       		.uleb128 0x13
 3150 00d6 00       		.byte	0
 3151 00d7 00       		.byte	0
 3152 00d8 11       		.uleb128 0x11
 3153 00d9 13       		.uleb128 0x13
 3154 00da 01       		.byte	0x1
 3155 00db 03       		.uleb128 0x3
 3156 00dc 0E       		.uleb128 0xe
 3157 00dd 0B       		.uleb128 0xb
 3158 00de 0B       		.uleb128 0xb
 3159 00df 3A       		.uleb128 0x3a
 3160 00e0 0B       		.uleb128 0xb
 3161 00e1 3B       		.uleb128 0x3b
 3162 00e2 05       		.uleb128 0x5
 3163 00e3 01       		.uleb128 0x1
 3164 00e4 13       		.uleb128 0x13
 3165 00e5 00       		.byte	0
 3166 00e6 00       		.byte	0
 3167 00e7 12       		.uleb128 0x12
 3168 00e8 15       		.uleb128 0x15
 3169 00e9 01       		.byte	0x1
 3170 00ea 27       		.uleb128 0x27
 3171 00eb 19       		.uleb128 0x19
 3172 00ec 01       		.uleb128 0x1
 3173 00ed 13       		.uleb128 0x13
 3174 00ee 00       		.byte	0
 3175 00ef 00       		.byte	0
 3176 00f0 13       		.uleb128 0x13
 3177 00f1 05       		.uleb128 0x5
 3178 00f2 00       		.byte	0
 3179 00f3 49       		.uleb128 0x49
 3180 00f4 13       		.uleb128 0x13
 3181 00f5 00       		.byte	0
 3182 00f6 00       		.byte	0
 3183 00f7 14       		.uleb128 0x14
 3184 00f8 0F       		.uleb128 0xf
 3185 00f9 00       		.byte	0
 3186 00fa 0B       		.uleb128 0xb
 3187 00fb 0B       		.uleb128 0xb
 3188 00fc 00       		.byte	0
 3189 00fd 00       		.byte	0
 3190 00fe 15       		.uleb128 0x15
 3191 00ff 13       		.uleb128 0x13
 3192 0100 01       		.byte	0x1
ARM GAS  /tmp/ccsoqR9L.s 			page 57


 3193 0101 03       		.uleb128 0x3
 3194 0102 0E       		.uleb128 0xe
 3195 0103 0B       		.uleb128 0xb
 3196 0104 05       		.uleb128 0x5
 3197 0105 3A       		.uleb128 0x3a
 3198 0106 0B       		.uleb128 0xb
 3199 0107 3B       		.uleb128 0x3b
 3200 0108 05       		.uleb128 0x5
 3201 0109 01       		.uleb128 0x1
 3202 010a 13       		.uleb128 0x13
 3203 010b 00       		.byte	0
 3204 010c 00       		.byte	0
 3205 010d 16       		.uleb128 0x16
 3206 010e 0D       		.uleb128 0xd
 3207 010f 00       		.byte	0
 3208 0110 03       		.uleb128 0x3
 3209 0111 08       		.uleb128 0x8
 3210 0112 3A       		.uleb128 0x3a
 3211 0113 0B       		.uleb128 0xb
 3212 0114 3B       		.uleb128 0x3b
 3213 0115 0B       		.uleb128 0xb
 3214 0116 49       		.uleb128 0x49
 3215 0117 13       		.uleb128 0x13
 3216 0118 38       		.uleb128 0x38
 3217 0119 0B       		.uleb128 0xb
 3218 011a 00       		.byte	0
 3219 011b 00       		.byte	0
 3220 011c 17       		.uleb128 0x17
 3221 011d 13       		.uleb128 0x13
 3222 011e 01       		.byte	0x1
 3223 011f 0B       		.uleb128 0xb
 3224 0120 0B       		.uleb128 0xb
 3225 0121 3A       		.uleb128 0x3a
 3226 0122 0B       		.uleb128 0xb
 3227 0123 3B       		.uleb128 0x3b
 3228 0124 0B       		.uleb128 0xb
 3229 0125 01       		.uleb128 0x1
 3230 0126 13       		.uleb128 0x13
 3231 0127 00       		.byte	0
 3232 0128 00       		.byte	0
 3233 0129 18       		.uleb128 0x18
 3234 012a 17       		.uleb128 0x17
 3235 012b 01       		.byte	0x1
 3236 012c 0B       		.uleb128 0xb
 3237 012d 0B       		.uleb128 0xb
 3238 012e 3A       		.uleb128 0x3a
 3239 012f 0B       		.uleb128 0xb
 3240 0130 3B       		.uleb128 0x3b
 3241 0131 0B       		.uleb128 0xb
 3242 0132 01       		.uleb128 0x1
 3243 0133 13       		.uleb128 0x13
 3244 0134 00       		.byte	0
 3245 0135 00       		.byte	0
 3246 0136 19       		.uleb128 0x19
 3247 0137 0D       		.uleb128 0xd
 3248 0138 00       		.byte	0
 3249 0139 03       		.uleb128 0x3
ARM GAS  /tmp/ccsoqR9L.s 			page 58


 3250 013a 0E       		.uleb128 0xe
 3251 013b 3A       		.uleb128 0x3a
 3252 013c 0B       		.uleb128 0xb
 3253 013d 3B       		.uleb128 0x3b
 3254 013e 05       		.uleb128 0x5
 3255 013f 49       		.uleb128 0x49
 3256 0140 13       		.uleb128 0x13
 3257 0141 00       		.byte	0
 3258 0142 00       		.byte	0
 3259 0143 1A       		.uleb128 0x1a
 3260 0144 26       		.uleb128 0x26
 3261 0145 00       		.byte	0
 3262 0146 49       		.uleb128 0x49
 3263 0147 13       		.uleb128 0x13
 3264 0148 00       		.byte	0
 3265 0149 00       		.byte	0
 3266 014a 1B       		.uleb128 0x1b
 3267 014b 01       		.uleb128 0x1
 3268 014c 01       		.byte	0x1
 3269 014d 49       		.uleb128 0x49
 3270 014e 13       		.uleb128 0x13
 3271 014f 01       		.uleb128 0x1
 3272 0150 13       		.uleb128 0x13
 3273 0151 00       		.byte	0
 3274 0152 00       		.byte	0
 3275 0153 1C       		.uleb128 0x1c
 3276 0154 21       		.uleb128 0x21
 3277 0155 00       		.byte	0
 3278 0156 49       		.uleb128 0x49
 3279 0157 13       		.uleb128 0x13
 3280 0158 2F       		.uleb128 0x2f
 3281 0159 0B       		.uleb128 0xb
 3282 015a 00       		.byte	0
 3283 015b 00       		.byte	0
 3284 015c 1D       		.uleb128 0x1d
 3285 015d 34       		.uleb128 0x34
 3286 015e 00       		.byte	0
 3287 015f 03       		.uleb128 0x3
 3288 0160 08       		.uleb128 0x8
 3289 0161 3A       		.uleb128 0x3a
 3290 0162 0B       		.uleb128 0xb
 3291 0163 3B       		.uleb128 0x3b
 3292 0164 05       		.uleb128 0x5
 3293 0165 49       		.uleb128 0x49
 3294 0166 13       		.uleb128 0x13
 3295 0167 3F       		.uleb128 0x3f
 3296 0168 19       		.uleb128 0x19
 3297 0169 3C       		.uleb128 0x3c
 3298 016a 19       		.uleb128 0x19
 3299 016b 00       		.byte	0
 3300 016c 00       		.byte	0
 3301 016d 1E       		.uleb128 0x1e
 3302 016e 34       		.uleb128 0x34
 3303 016f 00       		.byte	0
 3304 0170 03       		.uleb128 0x3
 3305 0171 0E       		.uleb128 0xe
 3306 0172 3A       		.uleb128 0x3a
ARM GAS  /tmp/ccsoqR9L.s 			page 59


 3307 0173 0B       		.uleb128 0xb
 3308 0174 3B       		.uleb128 0x3b
 3309 0175 0B       		.uleb128 0xb
 3310 0176 49       		.uleb128 0x49
 3311 0177 13       		.uleb128 0x13
 3312 0178 3F       		.uleb128 0x3f
 3313 0179 19       		.uleb128 0x19
 3314 017a 02       		.uleb128 0x2
 3315 017b 18       		.uleb128 0x18
 3316 017c 00       		.byte	0
 3317 017d 00       		.byte	0
 3318 017e 1F       		.uleb128 0x1f
 3319 017f 21       		.uleb128 0x21
 3320 0180 00       		.byte	0
 3321 0181 49       		.uleb128 0x49
 3322 0182 13       		.uleb128 0x13
 3323 0183 2F       		.uleb128 0x2f
 3324 0184 05       		.uleb128 0x5
 3325 0185 00       		.byte	0
 3326 0186 00       		.byte	0
 3327 0187 20       		.uleb128 0x20
 3328 0188 2E       		.uleb128 0x2e
 3329 0189 01       		.byte	0x1
 3330 018a 03       		.uleb128 0x3
 3331 018b 0E       		.uleb128 0xe
 3332 018c 3A       		.uleb128 0x3a
 3333 018d 0B       		.uleb128 0xb
 3334 018e 3B       		.uleb128 0x3b
 3335 018f 05       		.uleb128 0x5
 3336 0190 27       		.uleb128 0x27
 3337 0191 19       		.uleb128 0x19
 3338 0192 49       		.uleb128 0x49
 3339 0193 13       		.uleb128 0x13
 3340 0194 20       		.uleb128 0x20
 3341 0195 0B       		.uleb128 0xb
 3342 0196 01       		.uleb128 0x1
 3343 0197 13       		.uleb128 0x13
 3344 0198 00       		.byte	0
 3345 0199 00       		.byte	0
 3346 019a 21       		.uleb128 0x21
 3347 019b 05       		.uleb128 0x5
 3348 019c 00       		.byte	0
 3349 019d 03       		.uleb128 0x3
 3350 019e 0E       		.uleb128 0xe
 3351 019f 3A       		.uleb128 0x3a
 3352 01a0 0B       		.uleb128 0xb
 3353 01a1 3B       		.uleb128 0x3b
 3354 01a2 05       		.uleb128 0x5
 3355 01a3 49       		.uleb128 0x49
 3356 01a4 13       		.uleb128 0x13
 3357 01a5 00       		.byte	0
 3358 01a6 00       		.byte	0
 3359 01a7 22       		.uleb128 0x22
 3360 01a8 34       		.uleb128 0x34
 3361 01a9 00       		.byte	0
 3362 01aa 03       		.uleb128 0x3
 3363 01ab 0E       		.uleb128 0xe
ARM GAS  /tmp/ccsoqR9L.s 			page 60


 3364 01ac 3A       		.uleb128 0x3a
 3365 01ad 0B       		.uleb128 0xb
 3366 01ae 3B       		.uleb128 0x3b
 3367 01af 05       		.uleb128 0x5
 3368 01b0 49       		.uleb128 0x49
 3369 01b1 13       		.uleb128 0x13
 3370 01b2 00       		.byte	0
 3371 01b3 00       		.byte	0
 3372 01b4 23       		.uleb128 0x23
 3373 01b5 0B       		.uleb128 0xb
 3374 01b6 01       		.byte	0x1
 3375 01b7 00       		.byte	0
 3376 01b8 00       		.byte	0
 3377 01b9 24       		.uleb128 0x24
 3378 01ba 34       		.uleb128 0x34
 3379 01bb 00       		.byte	0
 3380 01bc 03       		.uleb128 0x3
 3381 01bd 08       		.uleb128 0x8
 3382 01be 3A       		.uleb128 0x3a
 3383 01bf 0B       		.uleb128 0xb
 3384 01c0 3B       		.uleb128 0x3b
 3385 01c1 05       		.uleb128 0x5
 3386 01c2 49       		.uleb128 0x49
 3387 01c3 13       		.uleb128 0x13
 3388 01c4 00       		.byte	0
 3389 01c5 00       		.byte	0
 3390 01c6 25       		.uleb128 0x25
 3391 01c7 2E       		.uleb128 0x2e
 3392 01c8 01       		.byte	0x1
 3393 01c9 03       		.uleb128 0x3
 3394 01ca 0E       		.uleb128 0xe
 3395 01cb 3A       		.uleb128 0x3a
 3396 01cc 0B       		.uleb128 0xb
 3397 01cd 3B       		.uleb128 0x3b
 3398 01ce 05       		.uleb128 0x5
 3399 01cf 27       		.uleb128 0x27
 3400 01d0 19       		.uleb128 0x19
 3401 01d1 49       		.uleb128 0x49
 3402 01d2 13       		.uleb128 0x13
 3403 01d3 11       		.uleb128 0x11
 3404 01d4 01       		.uleb128 0x1
 3405 01d5 12       		.uleb128 0x12
 3406 01d6 06       		.uleb128 0x6
 3407 01d7 40       		.uleb128 0x40
 3408 01d8 18       		.uleb128 0x18
 3409 01d9 9742     		.uleb128 0x2117
 3410 01db 19       		.uleb128 0x19
 3411 01dc 01       		.uleb128 0x1
 3412 01dd 13       		.uleb128 0x13
 3413 01de 00       		.byte	0
 3414 01df 00       		.byte	0
 3415 01e0 26       		.uleb128 0x26
 3416 01e1 05       		.uleb128 0x5
 3417 01e2 00       		.byte	0
 3418 01e3 03       		.uleb128 0x3
 3419 01e4 0E       		.uleb128 0xe
 3420 01e5 3A       		.uleb128 0x3a
ARM GAS  /tmp/ccsoqR9L.s 			page 61


 3421 01e6 0B       		.uleb128 0xb
 3422 01e7 3B       		.uleb128 0x3b
 3423 01e8 05       		.uleb128 0x5
 3424 01e9 49       		.uleb128 0x49
 3425 01ea 13       		.uleb128 0x13
 3426 01eb 02       		.uleb128 0x2
 3427 01ec 17       		.uleb128 0x17
 3428 01ed 00       		.byte	0
 3429 01ee 00       		.byte	0
 3430 01ef 27       		.uleb128 0x27
 3431 01f0 34       		.uleb128 0x34
 3432 01f1 00       		.byte	0
 3433 01f2 03       		.uleb128 0x3
 3434 01f3 0E       		.uleb128 0xe
 3435 01f4 3A       		.uleb128 0x3a
 3436 01f5 0B       		.uleb128 0xb
 3437 01f6 3B       		.uleb128 0x3b
 3438 01f7 05       		.uleb128 0x5
 3439 01f8 49       		.uleb128 0x49
 3440 01f9 13       		.uleb128 0x13
 3441 01fa 02       		.uleb128 0x2
 3442 01fb 17       		.uleb128 0x17
 3443 01fc 00       		.byte	0
 3444 01fd 00       		.byte	0
 3445 01fe 28       		.uleb128 0x28
 3446 01ff 34       		.uleb128 0x34
 3447 0200 00       		.byte	0
 3448 0201 03       		.uleb128 0x3
 3449 0202 0E       		.uleb128 0xe
 3450 0203 3A       		.uleb128 0x3a
 3451 0204 0B       		.uleb128 0xb
 3452 0205 3B       		.uleb128 0x3b
 3453 0206 05       		.uleb128 0x5
 3454 0207 49       		.uleb128 0x49
 3455 0208 13       		.uleb128 0x13
 3456 0209 1C       		.uleb128 0x1c
 3457 020a 0B       		.uleb128 0xb
 3458 020b 00       		.byte	0
 3459 020c 00       		.byte	0
 3460 020d 29       		.uleb128 0x29
 3461 020e 1D       		.uleb128 0x1d
 3462 020f 01       		.byte	0x1
 3463 0210 31       		.uleb128 0x31
 3464 0211 13       		.uleb128 0x13
 3465 0212 52       		.uleb128 0x52
 3466 0213 01       		.uleb128 0x1
 3467 0214 55       		.uleb128 0x55
 3468 0215 17       		.uleb128 0x17
 3469 0216 58       		.uleb128 0x58
 3470 0217 0B       		.uleb128 0xb
 3471 0218 59       		.uleb128 0x59
 3472 0219 05       		.uleb128 0x5
 3473 021a 01       		.uleb128 0x1
 3474 021b 13       		.uleb128 0x13
 3475 021c 00       		.byte	0
 3476 021d 00       		.byte	0
 3477 021e 2A       		.uleb128 0x2a
ARM GAS  /tmp/ccsoqR9L.s 			page 62


 3478 021f 05       		.uleb128 0x5
 3479 0220 00       		.byte	0
 3480 0221 31       		.uleb128 0x31
 3481 0222 13       		.uleb128 0x13
 3482 0223 1C       		.uleb128 0x1c
 3483 0224 0B       		.uleb128 0xb
 3484 0225 00       		.byte	0
 3485 0226 00       		.byte	0
 3486 0227 2B       		.uleb128 0x2b
 3487 0228 0B       		.uleb128 0xb
 3488 0229 01       		.byte	0x1
 3489 022a 55       		.uleb128 0x55
 3490 022b 17       		.uleb128 0x17
 3491 022c 00       		.byte	0
 3492 022d 00       		.byte	0
 3493 022e 2C       		.uleb128 0x2c
 3494 022f 34       		.uleb128 0x34
 3495 0230 00       		.byte	0
 3496 0231 31       		.uleb128 0x31
 3497 0232 13       		.uleb128 0x13
 3498 0233 02       		.uleb128 0x2
 3499 0234 17       		.uleb128 0x17
 3500 0235 00       		.byte	0
 3501 0236 00       		.byte	0
 3502 0237 2D       		.uleb128 0x2d
 3503 0238 898201   		.uleb128 0x4109
 3504 023b 01       		.byte	0x1
 3505 023c 11       		.uleb128 0x11
 3506 023d 01       		.uleb128 0x1
 3507 023e 31       		.uleb128 0x31
 3508 023f 13       		.uleb128 0x13
 3509 0240 01       		.uleb128 0x1
 3510 0241 13       		.uleb128 0x13
 3511 0242 00       		.byte	0
 3512 0243 00       		.byte	0
 3513 0244 2E       		.uleb128 0x2e
 3514 0245 8A8201   		.uleb128 0x410a
 3515 0248 00       		.byte	0
 3516 0249 02       		.uleb128 0x2
 3517 024a 18       		.uleb128 0x18
 3518 024b 9142     		.uleb128 0x2111
 3519 024d 18       		.uleb128 0x18
 3520 024e 00       		.byte	0
 3521 024f 00       		.byte	0
 3522 0250 2F       		.uleb128 0x2f
 3523 0251 898201   		.uleb128 0x4109
 3524 0254 01       		.byte	0x1
 3525 0255 11       		.uleb128 0x11
 3526 0256 01       		.uleb128 0x1
 3527 0257 31       		.uleb128 0x31
 3528 0258 13       		.uleb128 0x13
 3529 0259 00       		.byte	0
 3530 025a 00       		.byte	0
 3531 025b 30       		.uleb128 0x30
 3532 025c 2E       		.uleb128 0x2e
 3533 025d 01       		.byte	0x1
 3534 025e 3F       		.uleb128 0x3f
ARM GAS  /tmp/ccsoqR9L.s 			page 63


 3535 025f 19       		.uleb128 0x19
 3536 0260 03       		.uleb128 0x3
 3537 0261 0E       		.uleb128 0xe
 3538 0262 3A       		.uleb128 0x3a
 3539 0263 0B       		.uleb128 0xb
 3540 0264 3B       		.uleb128 0x3b
 3541 0265 05       		.uleb128 0x5
 3542 0266 27       		.uleb128 0x27
 3543 0267 19       		.uleb128 0x19
 3544 0268 49       		.uleb128 0x49
 3545 0269 13       		.uleb128 0x13
 3546 026a 11       		.uleb128 0x11
 3547 026b 01       		.uleb128 0x1
 3548 026c 12       		.uleb128 0x12
 3549 026d 06       		.uleb128 0x6
 3550 026e 40       		.uleb128 0x40
 3551 026f 18       		.uleb128 0x18
 3552 0270 9742     		.uleb128 0x2117
 3553 0272 19       		.uleb128 0x19
 3554 0273 01       		.uleb128 0x1
 3555 0274 13       		.uleb128 0x13
 3556 0275 00       		.byte	0
 3557 0276 00       		.byte	0
 3558 0277 31       		.uleb128 0x31
 3559 0278 34       		.uleb128 0x34
 3560 0279 00       		.byte	0
 3561 027a 03       		.uleb128 0x3
 3562 027b 0E       		.uleb128 0xe
 3563 027c 3A       		.uleb128 0x3a
 3564 027d 0B       		.uleb128 0xb
 3565 027e 3B       		.uleb128 0x3b
 3566 027f 05       		.uleb128 0x5
 3567 0280 49       		.uleb128 0x49
 3568 0281 13       		.uleb128 0x13
 3569 0282 02       		.uleb128 0x2
 3570 0283 18       		.uleb128 0x18
 3571 0284 00       		.byte	0
 3572 0285 00       		.byte	0
 3573 0286 32       		.uleb128 0x32
 3574 0287 05       		.uleb128 0x5
 3575 0288 00       		.byte	0
 3576 0289 31       		.uleb128 0x31
 3577 028a 13       		.uleb128 0x13
 3578 028b 02       		.uleb128 0x2
 3579 028c 17       		.uleb128 0x17
 3580 028d 00       		.byte	0
 3581 028e 00       		.byte	0
 3582 028f 33       		.uleb128 0x33
 3583 0290 1D       		.uleb128 0x1d
 3584 0291 01       		.byte	0x1
 3585 0292 31       		.uleb128 0x31
 3586 0293 13       		.uleb128 0x13
 3587 0294 11       		.uleb128 0x11
 3588 0295 01       		.uleb128 0x1
 3589 0296 12       		.uleb128 0x12
 3590 0297 06       		.uleb128 0x6
 3591 0298 58       		.uleb128 0x58
ARM GAS  /tmp/ccsoqR9L.s 			page 64


 3592 0299 0B       		.uleb128 0xb
 3593 029a 59       		.uleb128 0x59
 3594 029b 05       		.uleb128 0x5
 3595 029c 01       		.uleb128 0x1
 3596 029d 13       		.uleb128 0x13
 3597 029e 00       		.byte	0
 3598 029f 00       		.byte	0
 3599 02a0 34       		.uleb128 0x34
 3600 02a1 0B       		.uleb128 0xb
 3601 02a2 01       		.byte	0x1
 3602 02a3 11       		.uleb128 0x11
 3603 02a4 01       		.uleb128 0x1
 3604 02a5 12       		.uleb128 0x12
 3605 02a6 06       		.uleb128 0x6
 3606 02a7 00       		.byte	0
 3607 02a8 00       		.byte	0
 3608 02a9 35       		.uleb128 0x35
 3609 02aa 898201   		.uleb128 0x4109
 3610 02ad 00       		.byte	0
 3611 02ae 11       		.uleb128 0x11
 3612 02af 01       		.uleb128 0x1
 3613 02b0 31       		.uleb128 0x31
 3614 02b1 13       		.uleb128 0x13
 3615 02b2 00       		.byte	0
 3616 02b3 00       		.byte	0
 3617 02b4 36       		.uleb128 0x36
 3618 02b5 05       		.uleb128 0x5
 3619 02b6 00       		.byte	0
 3620 02b7 03       		.uleb128 0x3
 3621 02b8 0E       		.uleb128 0xe
 3622 02b9 3A       		.uleb128 0x3a
 3623 02ba 0B       		.uleb128 0xb
 3624 02bb 3B       		.uleb128 0x3b
 3625 02bc 05       		.uleb128 0x5
 3626 02bd 49       		.uleb128 0x49
 3627 02be 13       		.uleb128 0x13
 3628 02bf 02       		.uleb128 0x2
 3629 02c0 18       		.uleb128 0x18
 3630 02c1 00       		.byte	0
 3631 02c2 00       		.byte	0
 3632 02c3 37       		.uleb128 0x37
 3633 02c4 1D       		.uleb128 0x1d
 3634 02c5 01       		.byte	0x1
 3635 02c6 31       		.uleb128 0x31
 3636 02c7 13       		.uleb128 0x13
 3637 02c8 52       		.uleb128 0x52
 3638 02c9 01       		.uleb128 0x1
 3639 02ca 55       		.uleb128 0x55
 3640 02cb 17       		.uleb128 0x17
 3641 02cc 58       		.uleb128 0x58
 3642 02cd 0B       		.uleb128 0xb
 3643 02ce 59       		.uleb128 0x59
 3644 02cf 05       		.uleb128 0x5
 3645 02d0 00       		.byte	0
 3646 02d1 00       		.byte	0
 3647 02d2 38       		.uleb128 0x38
 3648 02d3 2E       		.uleb128 0x2e
ARM GAS  /tmp/ccsoqR9L.s 			page 65


 3649 02d4 01       		.byte	0x1
 3650 02d5 3F       		.uleb128 0x3f
 3651 02d6 19       		.uleb128 0x19
 3652 02d7 03       		.uleb128 0x3
 3653 02d8 0E       		.uleb128 0xe
 3654 02d9 3A       		.uleb128 0x3a
 3655 02da 0B       		.uleb128 0xb
 3656 02db 3B       		.uleb128 0x3b
 3657 02dc 0B       		.uleb128 0xb
 3658 02dd 27       		.uleb128 0x27
 3659 02de 19       		.uleb128 0x19
 3660 02df 49       		.uleb128 0x49
 3661 02e0 13       		.uleb128 0x13
 3662 02e1 11       		.uleb128 0x11
 3663 02e2 01       		.uleb128 0x1
 3664 02e3 12       		.uleb128 0x12
 3665 02e4 06       		.uleb128 0x6
 3666 02e5 40       		.uleb128 0x40
 3667 02e6 18       		.uleb128 0x18
 3668 02e7 9742     		.uleb128 0x2117
 3669 02e9 19       		.uleb128 0x19
 3670 02ea 01       		.uleb128 0x1
 3671 02eb 13       		.uleb128 0x13
 3672 02ec 00       		.byte	0
 3673 02ed 00       		.byte	0
 3674 02ee 39       		.uleb128 0x39
 3675 02ef 34       		.uleb128 0x34
 3676 02f0 00       		.byte	0
 3677 02f1 03       		.uleb128 0x3
 3678 02f2 0E       		.uleb128 0xe
 3679 02f3 3A       		.uleb128 0x3a
 3680 02f4 0B       		.uleb128 0xb
 3681 02f5 3B       		.uleb128 0x3b
 3682 02f6 0B       		.uleb128 0xb
 3683 02f7 49       		.uleb128 0x49
 3684 02f8 13       		.uleb128 0x13
 3685 02f9 02       		.uleb128 0x2
 3686 02fa 17       		.uleb128 0x17
 3687 02fb 00       		.byte	0
 3688 02fc 00       		.byte	0
 3689 02fd 3A       		.uleb128 0x3a
 3690 02fe 34       		.uleb128 0x34
 3691 02ff 00       		.byte	0
 3692 0300 03       		.uleb128 0x3
 3693 0301 08       		.uleb128 0x8
 3694 0302 3A       		.uleb128 0x3a
 3695 0303 0B       		.uleb128 0xb
 3696 0304 3B       		.uleb128 0x3b
 3697 0305 0B       		.uleb128 0xb
 3698 0306 49       		.uleb128 0x49
 3699 0307 13       		.uleb128 0x13
 3700 0308 02       		.uleb128 0x2
 3701 0309 17       		.uleb128 0x17
 3702 030a 00       		.byte	0
 3703 030b 00       		.byte	0
 3704 030c 3B       		.uleb128 0x3b
 3705 030d 898201   		.uleb128 0x4109
ARM GAS  /tmp/ccsoqR9L.s 			page 66


 3706 0310 01       		.byte	0x1
 3707 0311 11       		.uleb128 0x11
 3708 0312 01       		.uleb128 0x1
 3709 0313 9542     		.uleb128 0x2115
 3710 0315 19       		.uleb128 0x19
 3711 0316 31       		.uleb128 0x31
 3712 0317 13       		.uleb128 0x13
 3713 0318 01       		.uleb128 0x1
 3714 0319 13       		.uleb128 0x13
 3715 031a 00       		.byte	0
 3716 031b 00       		.byte	0
 3717 031c 3C       		.uleb128 0x3c
 3718 031d 2E       		.uleb128 0x2e
 3719 031e 01       		.byte	0x1
 3720 031f 31       		.uleb128 0x31
 3721 0320 13       		.uleb128 0x13
 3722 0321 11       		.uleb128 0x11
 3723 0322 01       		.uleb128 0x1
 3724 0323 12       		.uleb128 0x12
 3725 0324 06       		.uleb128 0x6
 3726 0325 40       		.uleb128 0x40
 3727 0326 18       		.uleb128 0x18
 3728 0327 9742     		.uleb128 0x2117
 3729 0329 19       		.uleb128 0x19
 3730 032a 01       		.uleb128 0x1
 3731 032b 13       		.uleb128 0x13
 3732 032c 00       		.byte	0
 3733 032d 00       		.byte	0
 3734 032e 3D       		.uleb128 0x3d
 3735 032f 0B       		.uleb128 0xb
 3736 0330 01       		.byte	0x1
 3737 0331 31       		.uleb128 0x31
 3738 0332 13       		.uleb128 0x13
 3739 0333 11       		.uleb128 0x11
 3740 0334 01       		.uleb128 0x1
 3741 0335 12       		.uleb128 0x12
 3742 0336 06       		.uleb128 0x6
 3743 0337 01       		.uleb128 0x1
 3744 0338 13       		.uleb128 0x13
 3745 0339 00       		.byte	0
 3746 033a 00       		.byte	0
 3747 033b 3E       		.uleb128 0x3e
 3748 033c 0B       		.uleb128 0xb
 3749 033d 01       		.byte	0x1
 3750 033e 11       		.uleb128 0x11
 3751 033f 01       		.uleb128 0x1
 3752 0340 12       		.uleb128 0x12
 3753 0341 06       		.uleb128 0x6
 3754 0342 01       		.uleb128 0x1
 3755 0343 13       		.uleb128 0x13
 3756 0344 00       		.byte	0
 3757 0345 00       		.byte	0
 3758 0346 3F       		.uleb128 0x3f
 3759 0347 34       		.uleb128 0x34
 3760 0348 00       		.byte	0
 3761 0349 31       		.uleb128 0x31
 3762 034a 13       		.uleb128 0x13
ARM GAS  /tmp/ccsoqR9L.s 			page 67


 3763 034b 00       		.byte	0
 3764 034c 00       		.byte	0
 3765 034d 40       		.uleb128 0x40
 3766 034e 2E       		.uleb128 0x2e
 3767 034f 00       		.byte	0
 3768 0350 3F       		.uleb128 0x3f
 3769 0351 19       		.uleb128 0x19
 3770 0352 3C       		.uleb128 0x3c
 3771 0353 19       		.uleb128 0x19
 3772 0354 6E       		.uleb128 0x6e
 3773 0355 0E       		.uleb128 0xe
 3774 0356 03       		.uleb128 0x3
 3775 0357 0E       		.uleb128 0xe
 3776 0358 3A       		.uleb128 0x3a
 3777 0359 0B       		.uleb128 0xb
 3778 035a 3B       		.uleb128 0x3b
 3779 035b 05       		.uleb128 0x5
 3780 035c 00       		.byte	0
 3781 035d 00       		.byte	0
 3782 035e 41       		.uleb128 0x41
 3783 035f 2E       		.uleb128 0x2e
 3784 0360 00       		.byte	0
 3785 0361 3F       		.uleb128 0x3f
 3786 0362 19       		.uleb128 0x19
 3787 0363 3C       		.uleb128 0x3c
 3788 0364 19       		.uleb128 0x19
 3789 0365 6E       		.uleb128 0x6e
 3790 0366 0E       		.uleb128 0xe
 3791 0367 03       		.uleb128 0x3
 3792 0368 0E       		.uleb128 0xe
 3793 0369 3A       		.uleb128 0x3a
 3794 036a 0B       		.uleb128 0xb
 3795 036b 3B       		.uleb128 0x3b
 3796 036c 0B       		.uleb128 0xb
 3797 036d 00       		.byte	0
 3798 036e 00       		.byte	0
 3799 036f 00       		.byte	0
 3800              		.section	.debug_loc,"",%progbits
 3801              	.Ldebug_loc0:
 3802              	.LLST0:
 3803 0000 00000000 		.4byte	.LVL0
 3804 0004 40000000 		.4byte	.LVL7
 3805 0008 0100     		.2byte	0x1
 3806 000a 50       		.byte	0x50
 3807 000b 40000000 		.4byte	.LVL7
 3808 000f 4C000000 		.4byte	.LVL11
 3809 0013 0400     		.2byte	0x4
 3810 0015 F3       		.byte	0xf3
 3811 0016 01       		.uleb128 0x1
 3812 0017 50       		.byte	0x50
 3813 0018 9F       		.byte	0x9f
 3814 0019 4C000000 		.4byte	.LVL11
 3815 001d 5E000000 		.4byte	.LVL13
 3816 0021 0100     		.2byte	0x1
 3817 0023 50       		.byte	0x50
 3818 0024 5E000000 		.4byte	.LVL13
 3819 0028 60000000 		.4byte	.LVL14
ARM GAS  /tmp/ccsoqR9L.s 			page 68


 3820 002c 0400     		.2byte	0x4
 3821 002e F3       		.byte	0xf3
 3822 002f 01       		.uleb128 0x1
 3823 0030 50       		.byte	0x50
 3824 0031 9F       		.byte	0x9f
 3825 0032 60000000 		.4byte	.LVL14
 3826 0036 62000000 		.4byte	.LVL15
 3827 003a 0100     		.2byte	0x1
 3828 003c 50       		.byte	0x50
 3829 003d 62000000 		.4byte	.LVL15
 3830 0041 7C000000 		.4byte	.LFE224
 3831 0045 0400     		.2byte	0x4
 3832 0047 F3       		.byte	0xf3
 3833 0048 01       		.uleb128 0x1
 3834 0049 50       		.byte	0x50
 3835 004a 9F       		.byte	0x9f
 3836 004b 00000000 		.4byte	0
 3837 004f 00000000 		.4byte	0
 3838              	.LLST1:
 3839 0053 00000000 		.4byte	.LVL0
 3840 0057 43000000 		.4byte	.LVL8-1
 3841 005b 0100     		.2byte	0x1
 3842 005d 51       		.byte	0x51
 3843 005e 43000000 		.4byte	.LVL8-1
 3844 0062 4C000000 		.4byte	.LVL11
 3845 0066 0400     		.2byte	0x4
 3846 0068 F3       		.byte	0xf3
 3847 0069 01       		.uleb128 0x1
 3848 006a 51       		.byte	0x51
 3849 006b 9F       		.byte	0x9f
 3850 006c 4C000000 		.4byte	.LVL11
 3851 0070 64000000 		.4byte	.LVL16
 3852 0074 0100     		.2byte	0x1
 3853 0076 51       		.byte	0x51
 3854 0077 64000000 		.4byte	.LVL16
 3855 007b 7C000000 		.4byte	.LFE224
 3856 007f 0400     		.2byte	0x4
 3857 0081 F3       		.byte	0xf3
 3858 0082 01       		.uleb128 0x1
 3859 0083 51       		.byte	0x51
 3860 0084 9F       		.byte	0x9f
 3861 0085 00000000 		.4byte	0
 3862 0089 00000000 		.4byte	0
 3863              	.LLST2:
 3864 008d 00000000 		.4byte	.LVL0
 3865 0091 44000000 		.4byte	.LVL8
 3866 0095 0200     		.2byte	0x2
 3867 0097 39       		.byte	0x39
 3868 0098 9F       		.byte	0x9f
 3869 0099 44000000 		.4byte	.LVL8
 3870 009d 4A000000 		.4byte	.LVL10
 3871 00a1 0100     		.2byte	0x1
 3872 00a3 50       		.byte	0x50
 3873 00a4 4C000000 		.4byte	.LVL11
 3874 00a8 64000000 		.4byte	.LVL16
 3875 00ac 0200     		.2byte	0x2
 3876 00ae 39       		.byte	0x39
ARM GAS  /tmp/ccsoqR9L.s 			page 69


 3877 00af 9F       		.byte	0x9f
 3878 00b0 64000000 		.4byte	.LVL16
 3879 00b4 68000000 		.4byte	.LVL17
 3880 00b8 0100     		.2byte	0x1
 3881 00ba 50       		.byte	0x50
 3882 00bb 00000000 		.4byte	0
 3883 00bf 00000000 		.4byte	0
 3884              	.LLST3:
 3885 00c3 00000000 		.4byte	.LVL0
 3886 00c7 26000000 		.4byte	.LVL4
 3887 00cb 0600     		.2byte	0x6
 3888 00cd 0C       		.byte	0xc
 3889 00ce 00400008 		.4byte	0x8004000
 3890 00d2 9F       		.byte	0x9f
 3891 00d3 26000000 		.4byte	.LVL4
 3892 00d7 4C000000 		.4byte	.LVL11
 3893 00db 0100     		.2byte	0x1
 3894 00dd 54       		.byte	0x54
 3895 00de 4C000000 		.4byte	.LVL11
 3896 00e2 5C000000 		.4byte	.LVL12
 3897 00e6 0600     		.2byte	0x6
 3898 00e8 0C       		.byte	0xc
 3899 00e9 00400008 		.4byte	0x8004000
 3900 00ed 9F       		.byte	0x9f
 3901 00ee 5C000000 		.4byte	.LVL12
 3902 00f2 60000000 		.4byte	.LVL14
 3903 00f6 0100     		.2byte	0x1
 3904 00f8 54       		.byte	0x54
 3905 00f9 60000000 		.4byte	.LVL14
 3906 00fd 64000000 		.4byte	.LVL16
 3907 0101 0600     		.2byte	0x6
 3908 0103 0C       		.byte	0xc
 3909 0104 00400008 		.4byte	0x8004000
 3910 0108 9F       		.byte	0x9f
 3911 0109 64000000 		.4byte	.LVL16
 3912 010d 7C000000 		.4byte	.LFE224
 3913 0111 0100     		.2byte	0x1
 3914 0113 54       		.byte	0x54
 3915 0114 00000000 		.4byte	0
 3916 0118 00000000 		.4byte	0
 3917              	.LLST4:
 3918 011c 00000000 		.4byte	.LVL0
 3919 0120 2A000000 		.4byte	.LVL5
 3920 0124 0600     		.2byte	0x6
 3921 0126 0C       		.byte	0xc
 3922 0127 00800008 		.4byte	0x8008000
 3923 012b 9F       		.byte	0x9f
 3924 012c 2A000000 		.4byte	.LVL5
 3925 0130 43000000 		.4byte	.LVL8-1
 3926 0134 0100     		.2byte	0x1
 3927 0136 52       		.byte	0x52
 3928 0137 4C000000 		.4byte	.LVL11
 3929 013b 5C000000 		.4byte	.LVL12
 3930 013f 0600     		.2byte	0x6
 3931 0141 0C       		.byte	0xc
 3932 0142 00800008 		.4byte	0x8008000
 3933 0146 9F       		.byte	0x9f
ARM GAS  /tmp/ccsoqR9L.s 			page 70


 3934 0147 5C000000 		.4byte	.LVL12
 3935 014b 60000000 		.4byte	.LVL14
 3936 014f 0100     		.2byte	0x1
 3937 0151 52       		.byte	0x52
 3938 0152 60000000 		.4byte	.LVL14
 3939 0156 64000000 		.4byte	.LVL16
 3940 015a 0600     		.2byte	0x6
 3941 015c 0C       		.byte	0xc
 3942 015d 00800008 		.4byte	0x8008000
 3943 0161 9F       		.byte	0x9f
 3944 0162 00000000 		.4byte	0
 3945 0166 00000000 		.4byte	0
 3946              	.LLST5:
 3947 016a 00000000 		.4byte	.LVL0
 3948 016e 0E000000 		.4byte	.LVL1
 3949 0172 0200     		.2byte	0x2
 3950 0174 36       		.byte	0x36
 3951 0175 9F       		.byte	0x9f
 3952 0176 0E000000 		.4byte	.LVL1
 3953 017a 20000000 		.4byte	.LVL3
 3954 017e 0100     		.2byte	0x1
 3955 0180 52       		.byte	0x52
 3956 0181 4C000000 		.4byte	.LVL11
 3957 0185 5C000000 		.4byte	.LVL12
 3958 0189 0100     		.2byte	0x1
 3959 018b 52       		.byte	0x52
 3960 018c 60000000 		.4byte	.LVL14
 3961 0190 64000000 		.4byte	.LVL16
 3962 0194 0100     		.2byte	0x1
 3963 0196 52       		.byte	0x52
 3964 0197 00000000 		.4byte	0
 3965 019b 00000000 		.4byte	0
 3966              	.LLST6:
 3967 019f 00000000 		.4byte	.LVL0
 3968 01a3 0E000000 		.4byte	.LVL1
 3969 01a7 0200     		.2byte	0x2
 3970 01a9 36       		.byte	0x36
 3971 01aa 9F       		.byte	0x9f
 3972 01ab 0E000000 		.4byte	.LVL1
 3973 01af 1E000000 		.4byte	.LVL2
 3974 01b3 0100     		.2byte	0x1
 3975 01b5 54       		.byte	0x54
 3976 01b6 4C000000 		.4byte	.LVL11
 3977 01ba 5C000000 		.4byte	.LVL12
 3978 01be 0100     		.2byte	0x1
 3979 01c0 54       		.byte	0x54
 3980 01c1 60000000 		.4byte	.LVL14
 3981 01c5 64000000 		.4byte	.LVL16
 3982 01c9 0100     		.2byte	0x1
 3983 01cb 54       		.byte	0x54
 3984 01cc 00000000 		.4byte	0
 3985 01d0 00000000 		.4byte	0
 3986              	.LLST25:
 3987 01d4 00000000 		.4byte	.LVL92
 3988 01d8 17000000 		.4byte	.LVL94-1
 3989 01dc 0100     		.2byte	0x1
 3990 01de 50       		.byte	0x50
ARM GAS  /tmp/ccsoqR9L.s 			page 71


 3991 01df 17000000 		.4byte	.LVL94-1
 3992 01e3 E0000000 		.4byte	.LFE221
 3993 01e7 0400     		.2byte	0x4
 3994 01e9 F3       		.byte	0xf3
 3995 01ea 01       		.uleb128 0x1
 3996 01eb 50       		.byte	0x50
 3997 01ec 9F       		.byte	0x9f
 3998 01ed 00000000 		.4byte	0
 3999 01f1 00000000 		.4byte	0
 4000              	.LLST26:
 4001 01f5 00000000 		.4byte	.LVL92
 4002 01f9 12000000 		.4byte	.LVL93
 4003 01fd 0100     		.2byte	0x1
 4004 01ff 51       		.byte	0x51
 4005 0200 12000000 		.4byte	.LVL93
 4006 0204 E0000000 		.4byte	.LFE221
 4007 0208 0400     		.2byte	0x4
 4008 020a F3       		.byte	0xf3
 4009 020b 01       		.uleb128 0x1
 4010 020c 51       		.byte	0x51
 4011 020d 9F       		.byte	0x9f
 4012 020e 00000000 		.4byte	0
 4013 0212 00000000 		.4byte	0
 4014              	.LLST27:
 4015 0216 22000000 		.4byte	.LVL95
 4016 021a 32000000 		.4byte	.LVL96
 4017 021e 0200     		.2byte	0x2
 4018 0220 30       		.byte	0x30
 4019 0221 9F       		.byte	0x9f
 4020 0222 32000000 		.4byte	.LVL96
 4021 0226 36000000 		.4byte	.LVL97
 4022 022a 0100     		.2byte	0x1
 4023 022c 50       		.byte	0x50
 4024 022d 3C000000 		.4byte	.LVL98
 4025 0231 44000000 		.4byte	.LVL99
 4026 0235 0200     		.2byte	0x2
 4027 0237 30       		.byte	0x30
 4028 0238 9F       		.byte	0x9f
 4029 0239 9E000000 		.4byte	.LVL112
 4030 023d A2000000 		.4byte	.LVL113
 4031 0241 0100     		.2byte	0x1
 4032 0243 50       		.byte	0x50
 4033 0244 00000000 		.4byte	0
 4034 0248 00000000 		.4byte	0
 4035              	.LLST28:
 4036 024c 44000000 		.4byte	.LVL99
 4037 0250 52000000 		.4byte	.LVL102
 4038 0254 0100     		.2byte	0x1
 4039 0256 54       		.byte	0x54
 4040 0257 9E000000 		.4byte	.LVL112
 4041 025b C4000000 		.4byte	.LVL118
 4042 025f 0100     		.2byte	0x1
 4043 0261 54       		.byte	0x54
 4044 0262 C8000000 		.4byte	.LVL119
 4045 0266 E0000000 		.4byte	.LFE221
 4046 026a 0100     		.2byte	0x1
 4047 026c 54       		.byte	0x54
ARM GAS  /tmp/ccsoqR9L.s 			page 72


 4048 026d 00000000 		.4byte	0
 4049 0271 00000000 		.4byte	0
 4050              	.LLST29:
 4051 0275 44000000 		.4byte	.LVL99
 4052 0279 9A000000 		.4byte	.LVL111
 4053 027d 0100     		.2byte	0x1
 4054 027f 55       		.byte	0x55
 4055 0280 9E000000 		.4byte	.LVL112
 4056 0284 E0000000 		.4byte	.LFE221
 4057 0288 0100     		.2byte	0x1
 4058 028a 55       		.byte	0x55
 4059 028b 00000000 		.4byte	0
 4060 028f 00000000 		.4byte	0
 4061              	.LLST30:
 4062 0293 44000000 		.4byte	.LVL99
 4063 0297 48000000 		.4byte	.LVL100
 4064 029b 0100     		.2byte	0x1
 4065 029d 50       		.byte	0x50
 4066 029e 88000000 		.4byte	.LVL108
 4067 02a2 90000000 		.4byte	.LVL109
 4068 02a6 0100     		.2byte	0x1
 4069 02a8 50       		.byte	0x50
 4070 02a9 96000000 		.4byte	.LVL110
 4071 02ad 9A000000 		.4byte	.LVL111
 4072 02b1 0100     		.2byte	0x1
 4073 02b3 50       		.byte	0x50
 4074 02b4 9E000000 		.4byte	.LVL112
 4075 02b8 C0000000 		.4byte	.LVL117
 4076 02bc 0200     		.2byte	0x2
 4077 02be 39       		.byte	0x39
 4078 02bf 9F       		.byte	0x9f
 4079 02c0 C0000000 		.4byte	.LVL117
 4080 02c4 C4000000 		.4byte	.LVL118
 4081 02c8 0100     		.2byte	0x1
 4082 02ca 50       		.byte	0x50
 4083 02cb C8000000 		.4byte	.LVL119
 4084 02cf E0000000 		.4byte	.LFE221
 4085 02d3 0200     		.2byte	0x2
 4086 02d5 39       		.byte	0x39
 4087 02d6 9F       		.byte	0x9f
 4088 02d7 00000000 		.4byte	0
 4089 02db 00000000 		.4byte	0
 4090              	.LLST31:
 4091 02df 44000000 		.4byte	.LVL99
 4092 02e3 9A000000 		.4byte	.LVL111
 4093 02e7 0100     		.2byte	0x1
 4094 02e9 56       		.byte	0x56
 4095 02ea 9E000000 		.4byte	.LVL112
 4096 02ee B6000000 		.4byte	.LVL116
 4097 02f2 0600     		.2byte	0x6
 4098 02f4 0C       		.byte	0xc
 4099 02f5 00400008 		.4byte	0x8004000
 4100 02f9 9F       		.byte	0x9f
 4101 02fa B6000000 		.4byte	.LVL116
 4102 02fe C8000000 		.4byte	.LVL119
 4103 0302 0100     		.2byte	0x1
 4104 0304 56       		.byte	0x56
ARM GAS  /tmp/ccsoqR9L.s 			page 73


 4105 0305 C8000000 		.4byte	.LVL119
 4106 0309 E0000000 		.4byte	.LFE221
 4107 030d 0600     		.2byte	0x6
 4108 030f 0C       		.byte	0xc
 4109 0310 00400008 		.4byte	0x8004000
 4110 0314 9F       		.byte	0x9f
 4111 0315 00000000 		.4byte	0
 4112 0319 00000000 		.4byte	0
 4113              	.LLST32:
 4114 031d 44000000 		.4byte	.LVL99
 4115 0321 9A000000 		.4byte	.LVL111
 4116 0325 0100     		.2byte	0x1
 4117 0327 57       		.byte	0x57
 4118 0328 9E000000 		.4byte	.LVL112
 4119 032c B6000000 		.4byte	.LVL116
 4120 0330 0200     		.2byte	0x2
 4121 0332 30       		.byte	0x30
 4122 0333 9F       		.byte	0x9f
 4123 0334 B6000000 		.4byte	.LVL116
 4124 0338 C8000000 		.4byte	.LVL119
 4125 033c 0100     		.2byte	0x1
 4126 033e 57       		.byte	0x57
 4127 033f C8000000 		.4byte	.LVL119
 4128 0343 E0000000 		.4byte	.LFE221
 4129 0347 0200     		.2byte	0x2
 4130 0349 30       		.byte	0x30
 4131 034a 9F       		.byte	0x9f
 4132 034b 00000000 		.4byte	0
 4133 034f 00000000 		.4byte	0
 4134              	.LLST33:
 4135 0353 44000000 		.4byte	.LVL99
 4136 0357 9A000000 		.4byte	.LVL111
 4137 035b 0200     		.2byte	0x2
 4138 035d 30       		.byte	0x30
 4139 035e 9F       		.byte	0x9f
 4140 035f 9E000000 		.4byte	.LVL112
 4141 0363 E0000000 		.4byte	.LFE221
 4142 0367 0200     		.2byte	0x2
 4143 0369 30       		.byte	0x30
 4144 036a 9F       		.byte	0x9f
 4145 036b 00000000 		.4byte	0
 4146 036f 00000000 		.4byte	0
 4147              	.LLST34:
 4148 0373 44000000 		.4byte	.LVL99
 4149 0377 5A000000 		.4byte	.LVL103
 4150 037b 0200     		.2byte	0x2
 4151 037d 30       		.byte	0x30
 4152 037e 9F       		.byte	0x9f
 4153 037f 9E000000 		.4byte	.LVL112
 4154 0383 C4000000 		.4byte	.LVL118
 4155 0387 0200     		.2byte	0x2
 4156 0389 30       		.byte	0x30
 4157 038a 9F       		.byte	0x9f
 4158 038b C8000000 		.4byte	.LVL119
 4159 038f E0000000 		.4byte	.LFE221
 4160 0393 0200     		.2byte	0x2
 4161 0395 30       		.byte	0x30
ARM GAS  /tmp/ccsoqR9L.s 			page 74


 4162 0396 9F       		.byte	0x9f
 4163 0397 00000000 		.4byte	0
 4164 039b 00000000 		.4byte	0
 4165              	.LLST35:
 4166 039f 44000000 		.4byte	.LVL99
 4167 03a3 4C000000 		.4byte	.LVL101
 4168 03a7 0200     		.2byte	0x2
 4169 03a9 30       		.byte	0x30
 4170 03aa 9F       		.byte	0x9f
 4171 03ab 4C000000 		.4byte	.LVL101
 4172 03af 5A000000 		.4byte	.LVL103
 4173 03b3 0100     		.2byte	0x1
 4174 03b5 50       		.byte	0x50
 4175 03b6 7A000000 		.4byte	.LVL106
 4176 03ba 7E000000 		.4byte	.LVL107
 4177 03be 0100     		.2byte	0x1
 4178 03c0 50       		.byte	0x50
 4179 03c1 9E000000 		.4byte	.LVL112
 4180 03c5 C4000000 		.4byte	.LVL118
 4181 03c9 0200     		.2byte	0x2
 4182 03cb 30       		.byte	0x30
 4183 03cc 9F       		.byte	0x9f
 4184 03cd C8000000 		.4byte	.LVL119
 4185 03d1 E0000000 		.4byte	.LFE221
 4186 03d5 0200     		.2byte	0x2
 4187 03d7 30       		.byte	0x30
 4188 03d8 9F       		.byte	0x9f
 4189 03d9 00000000 		.4byte	0
 4190 03dd 00000000 		.4byte	0
 4191              	.LLST36:
 4192 03e1 44000000 		.4byte	.LVL99
 4193 03e5 5A000000 		.4byte	.LVL103
 4194 03e9 0200     		.2byte	0x2
 4195 03eb 30       		.byte	0x30
 4196 03ec 9F       		.byte	0x9f
 4197 03ed 6A000000 		.4byte	.LVL104
 4198 03f1 76000000 		.4byte	.LVL105
 4199 03f5 0100     		.2byte	0x1
 4200 03f7 50       		.byte	0x50
 4201 03f8 9E000000 		.4byte	.LVL112
 4202 03fc C4000000 		.4byte	.LVL118
 4203 0400 0200     		.2byte	0x2
 4204 0402 30       		.byte	0x30
 4205 0403 9F       		.byte	0x9f
 4206 0404 C8000000 		.4byte	.LVL119
 4207 0408 E0000000 		.4byte	.LFE221
 4208 040c 0200     		.2byte	0x2
 4209 040e 30       		.byte	0x30
 4210 040f 9F       		.byte	0x9f
 4211 0410 00000000 		.4byte	0
 4212 0414 00000000 		.4byte	0
 4213              	.LLST38:
 4214 0418 9E000000 		.4byte	.LVL112
 4215 041c A8000000 		.4byte	.LVL114
 4216 0420 0200     		.2byte	0x2
 4217 0422 36       		.byte	0x36
 4218 0423 9F       		.byte	0x9f
ARM GAS  /tmp/ccsoqR9L.s 			page 75


 4219 0424 A8000000 		.4byte	.LVL114
 4220 0428 BF000000 		.4byte	.LVL117-1
 4221 042c 0100     		.2byte	0x1
 4222 042e 53       		.byte	0x53
 4223 042f C8000000 		.4byte	.LVL119
 4224 0433 E0000000 		.4byte	.LFE221
 4225 0437 0100     		.2byte	0x1
 4226 0439 53       		.byte	0x53
 4227 043a 00000000 		.4byte	0
 4228 043e 00000000 		.4byte	0
 4229              	.LLST39:
 4230 0442 9E000000 		.4byte	.LVL112
 4231 0446 AA000000 		.4byte	.LVL115
 4232 044a 0200     		.2byte	0x2
 4233 044c 36       		.byte	0x36
 4234 044d 9F       		.byte	0x9f
 4235 044e AA000000 		.4byte	.LVL115
 4236 0452 BF000000 		.4byte	.LVL117-1
 4237 0456 0100     		.2byte	0x1
 4238 0458 52       		.byte	0x52
 4239 0459 C8000000 		.4byte	.LVL119
 4240 045d E0000000 		.4byte	.LFE221
 4241 0461 0100     		.2byte	0x1
 4242 0463 52       		.byte	0x52
 4243 0464 00000000 		.4byte	0
 4244 0468 00000000 		.4byte	0
 4245              	.LLST11:
 4246 046c 00000000 		.4byte	.LVL36
 4247 0470 36000000 		.4byte	.LVL48
 4248 0474 0100     		.2byte	0x1
 4249 0476 50       		.byte	0x50
 4250 0477 36000000 		.4byte	.LVL48
 4251 047b 3C000000 		.4byte	.LVL49
 4252 047f 0400     		.2byte	0x4
 4253 0481 F3       		.byte	0xf3
 4254 0482 01       		.uleb128 0x1
 4255 0483 50       		.byte	0x50
 4256 0484 9F       		.byte	0x9f
 4257 0485 3C000000 		.4byte	.LVL49
 4258 0489 44000000 		.4byte	.LVL51
 4259 048d 0100     		.2byte	0x1
 4260 048f 50       		.byte	0x50
 4261 0490 44000000 		.4byte	.LVL51
 4262 0494 4A000000 		.4byte	.LVL52
 4263 0498 0400     		.2byte	0x4
 4264 049a F3       		.byte	0xf3
 4265 049b 01       		.uleb128 0x1
 4266 049c 50       		.byte	0x50
 4267 049d 9F       		.byte	0x9f
 4268 049e 4A000000 		.4byte	.LVL52
 4269 04a2 4C000000 		.4byte	.LVL53
 4270 04a6 0100     		.2byte	0x1
 4271 04a8 50       		.byte	0x50
 4272 04a9 4C000000 		.4byte	.LVL53
 4273 04ad 6C000000 		.4byte	.LFE220
 4274 04b1 0400     		.2byte	0x4
 4275 04b3 F3       		.byte	0xf3
ARM GAS  /tmp/ccsoqR9L.s 			page 76


 4276 04b4 01       		.uleb128 0x1
 4277 04b5 50       		.byte	0x50
 4278 04b6 9F       		.byte	0x9f
 4279 04b7 00000000 		.4byte	0
 4280 04bb 00000000 		.4byte	0
 4281              	.LLST12:
 4282 04bf 00000000 		.4byte	.LVL36
 4283 04c3 22000000 		.4byte	.LVL43
 4284 04c7 0400     		.2byte	0x4
 4285 04c9 0A       		.byte	0xa
 4286 04ca 5555     		.2byte	0x5555
 4287 04cc 9F       		.byte	0x9f
 4288 04cd 22000000 		.4byte	.LVL43
 4289 04d1 28000000 		.4byte	.LVL44
 4290 04d5 0100     		.2byte	0x1
 4291 04d7 52       		.byte	0x52
 4292 04d8 2A000000 		.4byte	.LVL45
 4293 04dc 2E000000 		.4byte	.LVL46
 4294 04e0 0100     		.2byte	0x1
 4295 04e2 52       		.byte	0x52
 4296 04e3 4A000000 		.4byte	.LVL52
 4297 04e7 6C000000 		.4byte	.LFE220
 4298 04eb 0400     		.2byte	0x4
 4299 04ed 0A       		.byte	0xa
 4300 04ee 5555     		.2byte	0x5555
 4301 04f0 9F       		.byte	0x9f
 4302 04f1 00000000 		.4byte	0
 4303 04f5 00000000 		.4byte	0
 4304              	.LLST13:
 4305 04f9 00000000 		.4byte	.LVL36
 4306 04fd 42000000 		.4byte	.LVL50
 4307 0501 0200     		.2byte	0x2
 4308 0503 31       		.byte	0x31
 4309 0504 9F       		.byte	0x9f
 4310 0505 42000000 		.4byte	.LVL50
 4311 0509 4A000000 		.4byte	.LVL52
 4312 050d 0200     		.2byte	0x2
 4313 050f 30       		.byte	0x30
 4314 0510 9F       		.byte	0x9f
 4315 0511 4A000000 		.4byte	.LVL52
 4316 0515 6C000000 		.4byte	.LFE220
 4317 0519 0200     		.2byte	0x2
 4318 051b 31       		.byte	0x31
 4319 051c 9F       		.byte	0x9f
 4320 051d 00000000 		.4byte	0
 4321 0521 00000000 		.4byte	0
 4322              	.LLST14:
 4323 0525 00000000 		.4byte	.LVL36
 4324 0529 20000000 		.4byte	.LVL42
 4325 052d 0600     		.2byte	0x6
 4326 052f 0C       		.byte	0xc
 4327 0530 00400008 		.4byte	0x8004000
 4328 0534 9F       		.byte	0x9f
 4329 0535 28000000 		.4byte	.LVL44
 4330 0539 3C000000 		.4byte	.LVL49
 4331 053d 0100     		.2byte	0x1
 4332 053f 53       		.byte	0x53
ARM GAS  /tmp/ccsoqR9L.s 			page 77


 4333 0540 4A000000 		.4byte	.LVL52
 4334 0544 6C000000 		.4byte	.LFE220
 4335 0548 0600     		.2byte	0x6
 4336 054a 0C       		.byte	0xc
 4337 054b 00400008 		.4byte	0x8004000
 4338 054f 9F       		.byte	0x9f
 4339 0550 00000000 		.4byte	0
 4340 0554 00000000 		.4byte	0
 4341              	.LLST15:
 4342 0558 00000000 		.4byte	.LVL36
 4343 055c 20000000 		.4byte	.LVL42
 4344 0560 0600     		.2byte	0x6
 4345 0562 0C       		.byte	0xc
 4346 0563 00400008 		.4byte	0x8004000
 4347 0567 9F       		.byte	0x9f
 4348 0568 4A000000 		.4byte	.LVL52
 4349 056c 6C000000 		.4byte	.LFE220
 4350 0570 0600     		.2byte	0x6
 4351 0572 0C       		.byte	0xc
 4352 0573 00400008 		.4byte	0x8004000
 4353 0577 9F       		.byte	0x9f
 4354 0578 00000000 		.4byte	0
 4355 057c 00000000 		.4byte	0
 4356              	.LLST16:
 4357 0580 00000000 		.4byte	.LVL36
 4358 0584 0A000000 		.4byte	.LVL37
 4359 0588 0200     		.2byte	0x2
 4360 058a 36       		.byte	0x36
 4361 058b 9F       		.byte	0x9f
 4362 058c 0A000000 		.4byte	.LVL37
 4363 0590 14000000 		.4byte	.LVL38
 4364 0594 0100     		.2byte	0x1
 4365 0596 53       		.byte	0x53
 4366 0597 1A000000 		.4byte	.LVL40
 4367 059b 1C000000 		.4byte	.LVL41
 4368 059f 0100     		.2byte	0x1
 4369 05a1 53       		.byte	0x53
 4370 05a2 4A000000 		.4byte	.LVL52
 4371 05a6 6C000000 		.4byte	.LFE220
 4372 05aa 0100     		.2byte	0x1
 4373 05ac 53       		.byte	0x53
 4374 05ad 00000000 		.4byte	0
 4375 05b1 00000000 		.4byte	0
 4376              	.LLST17:
 4377 05b5 00000000 		.4byte	.LVL36
 4378 05b9 0A000000 		.4byte	.LVL37
 4379 05bd 0200     		.2byte	0x2
 4380 05bf 36       		.byte	0x36
 4381 05c0 9F       		.byte	0x9f
 4382 05c1 0A000000 		.4byte	.LVL37
 4383 05c5 18000000 		.4byte	.LVL39
 4384 05c9 0100     		.2byte	0x1
 4385 05cb 52       		.byte	0x52
 4386 05cc 1A000000 		.4byte	.LVL40
 4387 05d0 20000000 		.4byte	.LVL42
 4388 05d4 0100     		.2byte	0x1
 4389 05d6 52       		.byte	0x52
ARM GAS  /tmp/ccsoqR9L.s 			page 78


 4390 05d7 4A000000 		.4byte	.LVL52
 4391 05db 6C000000 		.4byte	.LFE220
 4392 05df 0100     		.2byte	0x1
 4393 05e1 52       		.byte	0x52
 4394 05e2 00000000 		.4byte	0
 4395 05e6 00000000 		.4byte	0
 4396              	.LLST18:
 4397 05ea 00000000 		.4byte	.LVL54
 4398 05ee 0E000000 		.4byte	.LVL55
 4399 05f2 0200     		.2byte	0x2
 4400 05f4 36       		.byte	0x36
 4401 05f5 9F       		.byte	0x9f
 4402 05f6 0E000000 		.4byte	.LVL55
 4403 05fa 28000000 		.4byte	.LVL58
 4404 05fe 0100     		.2byte	0x1
 4405 0600 54       		.byte	0x54
 4406 0601 2C000000 		.4byte	.LVL59
 4407 0605 40000000 		.4byte	.LVL60
 4408 0609 0100     		.2byte	0x1
 4409 060b 54       		.byte	0x54
 4410 060c 8E000000 		.4byte	.LVL70
 4411 0610 B6000000 		.4byte	.LVL76
 4412 0614 0100     		.2byte	0x1
 4413 0616 54       		.byte	0x54
 4414 0617 08010000 		.4byte	.LVL87
 4415 061b 40010000 		.4byte	.LFE219
 4416 061f 0100     		.2byte	0x1
 4417 0621 54       		.byte	0x54
 4418 0622 00000000 		.4byte	0
 4419 0626 00000000 		.4byte	0
 4420              	.LLST19:
 4421 062a 00000000 		.4byte	.LVL54
 4422 062e 16000000 		.4byte	.LVL56
 4423 0632 0200     		.2byte	0x2
 4424 0634 36       		.byte	0x36
 4425 0635 9F       		.byte	0x9f
 4426 0636 16000000 		.4byte	.LVL56
 4427 063a 25000000 		.4byte	.LVL57-1
 4428 063e 0100     		.2byte	0x1
 4429 0640 53       		.byte	0x53
 4430 0641 2C000000 		.4byte	.LVL59
 4431 0645 40000000 		.4byte	.LVL60
 4432 0649 0100     		.2byte	0x1
 4433 064b 53       		.byte	0x53
 4434 064c 8E000000 		.4byte	.LVL70
 4435 0650 9B000000 		.4byte	.LVL71-1
 4436 0654 0100     		.2byte	0x1
 4437 0656 53       		.byte	0x53
 4438 0657 AC000000 		.4byte	.LVL75
 4439 065b BA000000 		.4byte	.LVL77
 4440 065f 0100     		.2byte	0x1
 4441 0661 53       		.byte	0x53
 4442 0662 08010000 		.4byte	.LVL87
 4443 0666 15010000 		.4byte	.LVL88-1
 4444 066a 0100     		.2byte	0x1
 4445 066c 53       		.byte	0x53
 4446 066d 00000000 		.4byte	0
ARM GAS  /tmp/ccsoqR9L.s 			page 79


 4447 0671 00000000 		.4byte	0
 4448              	.LLST20:
 4449 0675 00000000 		.4byte	.LVL54
 4450 0679 28000000 		.4byte	.LVL58
 4451 067d 0200     		.2byte	0x2
 4452 067f 30       		.byte	0x30
 4453 0680 9F       		.byte	0x9f
 4454 0681 2C000000 		.4byte	.LVL59
 4455 0685 40000000 		.4byte	.LVL60
 4456 0689 0200     		.2byte	0x2
 4457 068b 30       		.byte	0x30
 4458 068c 9F       		.byte	0x9f
 4459 068d 40000000 		.4byte	.LVL60
 4460 0691 56000000 		.4byte	.LVL62
 4461 0695 0100     		.2byte	0x1
 4462 0697 54       		.byte	0x54
 4463 0698 8E000000 		.4byte	.LVL70
 4464 069c BA000000 		.4byte	.LVL77
 4465 06a0 0200     		.2byte	0x2
 4466 06a2 30       		.byte	0x30
 4467 06a3 9F       		.byte	0x9f
 4468 06a4 BA000000 		.4byte	.LVL77
 4469 06a8 D2000000 		.4byte	.LVL79
 4470 06ac 0100     		.2byte	0x1
 4471 06ae 54       		.byte	0x54
 4472 06af 08010000 		.4byte	.LVL87
 4473 06b3 40010000 		.4byte	.LFE219
 4474 06b7 0200     		.2byte	0x2
 4475 06b9 30       		.byte	0x30
 4476 06ba 9F       		.byte	0x9f
 4477 06bb 00000000 		.4byte	0
 4478 06bf 00000000 		.4byte	0
 4479              	.LLST21:
 4480 06c3 00000000 		.4byte	.LVL54
 4481 06c7 28000000 		.4byte	.LVL58
 4482 06cb 0200     		.2byte	0x2
 4483 06cd 30       		.byte	0x30
 4484 06ce 9F       		.byte	0x9f
 4485 06cf 2C000000 		.4byte	.LVL59
 4486 06d3 40000000 		.4byte	.LVL60
 4487 06d7 0200     		.2byte	0x2
 4488 06d9 30       		.byte	0x30
 4489 06da 9F       		.byte	0x9f
 4490 06db 6C000000 		.4byte	.LVL65
 4491 06df 70000000 		.4byte	.LVL66
 4492 06e3 0100     		.2byte	0x1
 4493 06e5 50       		.byte	0x50
 4494 06e6 8E000000 		.4byte	.LVL70
 4495 06ea BA000000 		.4byte	.LVL77
 4496 06ee 0200     		.2byte	0x2
 4497 06f0 30       		.byte	0x30
 4498 06f1 9F       		.byte	0x9f
 4499 06f2 E6000000 		.4byte	.LVL82
 4500 06f6 EA000000 		.4byte	.LVL83
 4501 06fa 0100     		.2byte	0x1
 4502 06fc 50       		.byte	0x50
 4503 06fd 08010000 		.4byte	.LVL87
ARM GAS  /tmp/ccsoqR9L.s 			page 80


 4504 0701 40010000 		.4byte	.LFE219
 4505 0705 0200     		.2byte	0x2
 4506 0707 30       		.byte	0x30
 4507 0708 9F       		.byte	0x9f
 4508 0709 00000000 		.4byte	0
 4509 070d 00000000 		.4byte	0
 4510              	.LLST22:
 4511 0711 00000000 		.4byte	.LVL54
 4512 0715 28000000 		.4byte	.LVL58
 4513 0719 0200     		.2byte	0x2
 4514 071b 30       		.byte	0x30
 4515 071c 9F       		.byte	0x9f
 4516 071d 2C000000 		.4byte	.LVL59
 4517 0721 40000000 		.4byte	.LVL60
 4518 0725 0200     		.2byte	0x2
 4519 0727 30       		.byte	0x30
 4520 0728 9F       		.byte	0x9f
 4521 0729 5C000000 		.4byte	.LVL63
 4522 072d 68000000 		.4byte	.LVL64
 4523 0731 0100     		.2byte	0x1
 4524 0733 50       		.byte	0x50
 4525 0734 8E000000 		.4byte	.LVL70
 4526 0738 BA000000 		.4byte	.LVL77
 4527 073c 0200     		.2byte	0x2
 4528 073e 30       		.byte	0x30
 4529 073f 9F       		.byte	0x9f
 4530 0740 D8000000 		.4byte	.LVL80
 4531 0744 E2000000 		.4byte	.LVL81
 4532 0748 0100     		.2byte	0x1
 4533 074a 50       		.byte	0x50
 4534 074b 08010000 		.4byte	.LVL87
 4535 074f 40010000 		.4byte	.LFE219
 4536 0753 0200     		.2byte	0x2
 4537 0755 30       		.byte	0x30
 4538 0756 9F       		.byte	0x9f
 4539 0757 00000000 		.4byte	0
 4540 075b 00000000 		.4byte	0
 4541              	.LLST23:
 4542 075f 00000000 		.4byte	.LVL54
 4543 0763 28000000 		.4byte	.LVL58
 4544 0767 0300     		.2byte	0x3
 4545 0769 09       		.byte	0x9
 4546 076a FF       		.byte	0xff
 4547 076b 9F       		.byte	0x9f
 4548 076c 2C000000 		.4byte	.LVL59
 4549 0770 40000000 		.4byte	.LVL60
 4550 0774 0300     		.2byte	0x3
 4551 0776 09       		.byte	0x9
 4552 0777 FF       		.byte	0xff
 4553 0778 9F       		.byte	0x9f
 4554 0779 40000000 		.4byte	.LVL60
 4555 077d 84000000 		.4byte	.LVL69
 4556 0781 0100     		.2byte	0x1
 4557 0783 56       		.byte	0x56
 4558 0784 8E000000 		.4byte	.LVL70
 4559 0788 BA000000 		.4byte	.LVL77
 4560 078c 0300     		.2byte	0x3
ARM GAS  /tmp/ccsoqR9L.s 			page 81


 4561 078e 09       		.byte	0x9
 4562 078f FF       		.byte	0xff
 4563 0790 9F       		.byte	0x9f
 4564 0791 BA000000 		.4byte	.LVL77
 4565 0795 FE000000 		.4byte	.LVL86
 4566 0799 0100     		.2byte	0x1
 4567 079b 58       		.byte	0x58
 4568 079c 08010000 		.4byte	.LVL87
 4569 07a0 40010000 		.4byte	.LFE219
 4570 07a4 0300     		.2byte	0x3
 4571 07a6 09       		.byte	0x9
 4572 07a7 FF       		.byte	0xff
 4573 07a8 9F       		.byte	0x9f
 4574 07a9 00000000 		.4byte	0
 4575 07ad 00000000 		.4byte	0
 4576              	.LLST24:
 4577 07b1 80000000 		.4byte	.LVL68
 4578 07b5 84000000 		.4byte	.LVL69
 4579 07b9 0100     		.2byte	0x1
 4580 07bb 50       		.byte	0x50
 4581 07bc 9C000000 		.4byte	.LVL71
 4582 07c0 A2000000 		.4byte	.LVL72
 4583 07c4 0100     		.2byte	0x1
 4584 07c6 50       		.byte	0x50
 4585 07c7 AA000000 		.4byte	.LVL74
 4586 07cb AC000000 		.4byte	.LVL75
 4587 07cf 0100     		.2byte	0x1
 4588 07d1 50       		.byte	0x50
 4589 07d2 FA000000 		.4byte	.LVL85
 4590 07d6 FE000000 		.4byte	.LVL86
 4591 07da 0100     		.2byte	0x1
 4592 07dc 50       		.byte	0x50
 4593 07dd 16010000 		.4byte	.LVL88
 4594 07e1 1C010000 		.4byte	.LVL89
 4595 07e5 0100     		.2byte	0x1
 4596 07e7 50       		.byte	0x50
 4597 07e8 24010000 		.4byte	.LVL91
 4598 07ec 40010000 		.4byte	.LFE219
 4599 07f0 0100     		.2byte	0x1
 4600 07f2 50       		.byte	0x50
 4601 07f3 00000000 		.4byte	0
 4602 07f7 00000000 		.4byte	0
 4603              	.LLST7:
 4604 07fb 00000000 		.4byte	.LVL19
 4605 07ff 07000000 		.4byte	.LVL20-1
 4606 0803 0100     		.2byte	0x1
 4607 0805 50       		.byte	0x50
 4608 0806 07000000 		.4byte	.LVL20-1
 4609 080a 2E000000 		.4byte	.LFE228
 4610 080e 0100     		.2byte	0x1
 4611 0810 54       		.byte	0x54
 4612 0811 00000000 		.4byte	0
 4613 0815 00000000 		.4byte	0
 4614              	.LLST8:
 4615 0819 08000000 		.4byte	.LVL20
 4616 081d 10000000 		.4byte	.LVL21
 4617 0821 0100     		.2byte	0x1
ARM GAS  /tmp/ccsoqR9L.s 			page 82


 4618 0823 50       		.byte	0x50
 4619 0824 10000000 		.4byte	.LVL21
 4620 0828 12000000 		.4byte	.LVL22
 4621 082c 0300     		.2byte	0x3
 4622 082e 70       		.byte	0x70
 4623 082f 01       		.sleb128 1
 4624 0830 9F       		.byte	0x9f
 4625 0831 12000000 		.4byte	.LVL22
 4626 0835 25000000 		.4byte	.LVL26-1
 4627 0839 0500     		.2byte	0x5
 4628 083b 72       		.byte	0x72
 4629 083c 81807F   		.sleb128 -16383
 4630 083f 9F       		.byte	0x9f
 4631 0840 2A000000 		.4byte	.LVL27
 4632 0844 2E000000 		.4byte	.LFE228
 4633 0848 0500     		.2byte	0x5
 4634 084a 72       		.byte	0x72
 4635 084b 81807F   		.sleb128 -16383
 4636 084e 9F       		.byte	0x9f
 4637 084f 00000000 		.4byte	0
 4638 0853 00000000 		.4byte	0
 4639              	.LLST9:
 4640 0857 08000000 		.4byte	.LVL20
 4641 085b 12000000 		.4byte	.LVL22
 4642 085f 0200     		.2byte	0x2
 4643 0861 30       		.byte	0x30
 4644 0862 9F       		.byte	0x9f
 4645 0863 12000000 		.4byte	.LVL22
 4646 0867 20000000 		.4byte	.LVL25
 4647 086b 0A00     		.2byte	0xa
 4648 086d 70       		.byte	0x70
 4649 086e 00       		.sleb128 0
 4650 086f 72       		.byte	0x72
 4651 0870 00       		.sleb128 0
 4652 0871 1C       		.byte	0x1c
 4653 0872 23       		.byte	0x23
 4654 0873 808001   		.uleb128 0x4000
 4655 0876 9F       		.byte	0x9f
 4656 0877 2A000000 		.4byte	.LVL27
 4657 087b 2C000000 		.4byte	.LVL28
 4658 087f 0A00     		.2byte	0xa
 4659 0881 70       		.byte	0x70
 4660 0882 00       		.sleb128 0
 4661 0883 72       		.byte	0x72
 4662 0884 00       		.sleb128 0
 4663 0885 1C       		.byte	0x1c
 4664 0886 23       		.byte	0x23
 4665 0887 808001   		.uleb128 0x4000
 4666 088a 9F       		.byte	0x9f
 4667 088b 00000000 		.4byte	0
 4668 088f 00000000 		.4byte	0
 4669              	.LLST10:
 4670 0893 00000000 		.4byte	.LVL29
 4671 0897 0A000000 		.4byte	.LVL31
 4672 089b 0200     		.2byte	0x2
 4673 089d 39       		.byte	0x39
 4674 089e 9F       		.byte	0x9f
ARM GAS  /tmp/ccsoqR9L.s 			page 83


 4675 089f 0A000000 		.4byte	.LVL31
 4676 08a3 14000000 		.4byte	.LVL32
 4677 08a7 0100     		.2byte	0x1
 4678 08a9 50       		.byte	0x50
 4679 08aa 18000000 		.4byte	.LVL33
 4680 08ae 1E000000 		.4byte	.LVL34
 4681 08b2 0100     		.2byte	0x1
 4682 08b4 50       		.byte	0x50
 4683 08b5 00000000 		.4byte	0
 4684 08b9 00000000 		.4byte	0
 4685              		.section	.debug_aranges,"",%progbits
 4686 0000 44000000 		.4byte	0x44
 4687 0004 0200     		.2byte	0x2
 4688 0006 00000000 		.4byte	.Ldebug_info0
 4689 000a 04       		.byte	0x4
 4690 000b 00       		.byte	0
 4691 000c 0000     		.2byte	0
 4692 000e 0000     		.2byte	0
 4693 0010 00000000 		.4byte	.LFB224
 4694 0014 7C000000 		.4byte	.LFE224-.LFB224
 4695 0018 00000000 		.4byte	.LFB228
 4696 001c 2E000000 		.4byte	.LFE228-.LFB228
 4697 0020 00000000 		.4byte	.LFB222
 4698 0024 2C000000 		.4byte	.LFE222-.LFB222
 4699 0028 00000000 		.4byte	.LFB220
 4700 002c 6C000000 		.4byte	.LFE220-.LFB220
 4701 0030 00000000 		.4byte	.LFB219
 4702 0034 40010000 		.4byte	.LFE219-.LFB219
 4703 0038 00000000 		.4byte	.LFB221
 4704 003c E0000000 		.4byte	.LFE221-.LFB221
 4705 0040 00000000 		.4byte	0
 4706 0044 00000000 		.4byte	0
 4707              		.section	.debug_ranges,"",%progbits
 4708              	.Ldebug_ranges0:
 4709 0000 02000000 		.4byte	.LBB9
 4710 0004 1A000000 		.4byte	.LBE9
 4711 0008 4C000000 		.4byte	.LBB12
 4712 000c 5C000000 		.4byte	.LBE12
 4713 0010 00000000 		.4byte	0
 4714 0014 00000000 		.4byte	0
 4715 0018 00000000 		.4byte	.LBB17
 4716 001c 0A000000 		.4byte	.LBE17
 4717 0020 0C000000 		.4byte	.LBB20
 4718 0024 20000000 		.4byte	.LBE20
 4719 0028 00000000 		.4byte	0
 4720 002c 00000000 		.4byte	0
 4721 0030 44000000 		.4byte	.LBB25
 4722 0034 9A000000 		.4byte	.LBE25
 4723 0038 9E000000 		.4byte	.LBB30
 4724 003c E0000000 		.4byte	.LBE30
 4725 0040 00000000 		.4byte	0
 4726 0044 00000000 		.4byte	0
 4727 0048 00000000 		.4byte	.LFB224
 4728 004c 7C000000 		.4byte	.LFE224
 4729 0050 00000000 		.4byte	.LFB228
 4730 0054 2E000000 		.4byte	.LFE228
 4731 0058 00000000 		.4byte	.LFB222
ARM GAS  /tmp/ccsoqR9L.s 			page 84


 4732 005c 2C000000 		.4byte	.LFE222
 4733 0060 00000000 		.4byte	.LFB220
 4734 0064 6C000000 		.4byte	.LFE220
 4735 0068 00000000 		.4byte	.LFB219
 4736 006c 40010000 		.4byte	.LFE219
 4737 0070 00000000 		.4byte	.LFB221
 4738 0074 E0000000 		.4byte	.LFE221
 4739 0078 00000000 		.4byte	0
 4740 007c 00000000 		.4byte	0
 4741              		.section	.debug_line,"",%progbits
 4742              	.Ldebug_line0:
 4743 0000 21040000 		.section	.debug_str,"MS",%progbits,1
 4743      02007E02 
 4743      00000201 
 4743      FB0E0D00 
 4743      01010101 
 4744              	.LASF132:
 4745 0000 63665F6F 		.ascii	"cf_off_older\000"
 4745      66665F6F 
 4745      6C646572 
 4745      00
 4746              	.LASF73:
 4747 000d 72656164 		.ascii	"ready_list_t\000"
 4747      795F6C69 
 4747      73745F74 
 4747      00
 4748              	.LASF107:
 4749 001a 7264796D 		.ascii	"rdymsg\000"
 4749      736700
 4750              	.LASF20:
 4751 0021 75696E74 		.ascii	"uint64_t\000"
 4751      36345F74 
 4751      00
 4752              	.LASF42:
 4753 002a 6576656E 		.ascii	"eventmask_t\000"
 4753      746D6173 
 4753      6B5F7400 
 4754              	.LASF2:
 4755 0036 5F5F7569 		.ascii	"__uint8_t\000"
 4755      6E74385F 
 4755      7400
 4756              	.LASF176:
 4757 0040 64617461 		.ascii	"data_old\000"
 4757      5F6F6C64 
 4757      00
 4758              	.LASF104:
 4759 0049 706F7274 		.ascii	"port_intctx\000"
 4759      5F696E74 
 4759      63747800 
 4760              	.LASF98:
 4761 0055 76746C69 		.ascii	"vtlist\000"
 4761      737400
 4762              	.LASF186:
 4763 005c 474E5520 		.ascii	"GNU C99 7.3.1 20180622 (release) [ARM/embedded-7-br"
 4763      43393920 
 4763      372E332E 
 4763      31203230 
ARM GAS  /tmp/ccsoqR9L.s 			page 85


 4763      31383036 
 4764 008f 616E6368 		.ascii	"anch revision 261907] -mcpu=cortex-m4 -mfloat-abi=h"
 4764      20726576 
 4764      6973696F 
 4764      6E203236 
 4764      31393037 
 4765 00c2 61726420 		.ascii	"ard -mfpu=fpv4-sp-d16 -mno-thumb-interwork -mthumb "
 4765      2D6D6670 
 4765      753D6670 
 4765      76342D73 
 4765      702D6431 
 4766 00f5 2D676764 		.ascii	"-ggdb -O2 -std=gnu99 -fomit-frame-pointer -falign-f"
 4766      62202D4F 
 4766      32202D73 
 4766      74643D67 
 4766      6E753939 
 4767 0128 756E6374 		.ascii	"unctions=16 -ffunction-sections -fdata-sections -fn"
 4767      696F6E73 
 4767      3D313620 
 4767      2D666675 
 4767      6E637469 
 4768 015b 6F2D636F 		.ascii	"o-common -fsingle-precision-constant\000"
 4768      6D6D6F6E 
 4768      202D6673 
 4768      696E676C 
 4768      652D7072 
 4769              	.LASF87:
 4770 0180 76745F66 		.ascii	"vt_func\000"
 4770      756E6300 
 4771              	.LASF13:
 4772 0188 6C6F6E67 		.ascii	"long long unsigned int\000"
 4772      206C6F6E 
 4772      6720756E 
 4772      7369676E 
 4772      65642069 
 4773              	.LASF178:
 4774 019f 45455F57 		.ascii	"EE_WriteVariable\000"
 4774      72697465 
 4774      56617269 
 4774      61626C65 
 4774      00
 4775              	.LASF99:
 4776 01b0 6D61696E 		.ascii	"mainthread\000"
 4776      74687265 
 4776      616400
 4777              	.LASF166:
 4778 01bb 56617249 		.ascii	"VarIdx\000"
 4778      647800
 4779              	.LASF89:
 4780 01c2 76697274 		.ascii	"virtual_timers_list_t\000"
 4780      75616C5F 
 4780      74696D65 
 4780      72735F6C 
 4780      6973745F 
 4781              	.LASF162:
 4782 01d8 466C6173 		.ascii	"FlashStatus\000"
 4782      68537461 
ARM GAS  /tmp/ccsoqR9L.s 			page 86


 4782      74757300 
 4783              	.LASF21:
 4784 01e4 49544D5F 		.ascii	"ITM_RxBuffer\000"
 4784      52784275 
 4784      66666572 
 4784      00
 4785              	.LASF72:
 4786 01f1 63685F74 		.ascii	"ch_threads_queue\000"
 4786      68726561 
 4786      64735F71 
 4786      75657565 
 4786      00
 4787              	.LASF48:
 4788 0202 705F7072 		.ascii	"p_prio\000"
 4788      696F00
 4789              	.LASF135:
 4790 0209 63665F6F 		.ascii	"cf_off_state\000"
 4790      66665F73 
 4790      74617465 
 4790      00
 4791              	.LASF148:
 4792 0216 72756E74 		.ascii	"runtime_init_flag\000"
 4792      696D655F 
 4792      696E6974 
 4792      5F666C61 
 4792      6700
 4793              	.LASF16:
 4794 0228 696E7431 		.ascii	"int16_t\000"
 4794      365F7400 
 4795              	.LASF11:
 4796 0230 6C6F6E67 		.ascii	"long long int\000"
 4796      206C6F6E 
 4796      6720696E 
 4796      7400
 4797              	.LASF0:
 4798 023e 7369676E 		.ascii	"signed char\000"
 4798      65642063 
 4798      68617200 
 4799              	.LASF187:
 4800 024a 65657072 		.ascii	"eeprom.c\000"
 4800      6F6D2E63 
 4800      00
 4801              	.LASF134:
 4802 0253 63665F6F 		.ascii	"cf_off_stklimit\000"
 4802      66665F73 
 4802      746B6C69 
 4802      6D697400 
 4803              	.LASF136:
 4804 0263 63665F6F 		.ascii	"cf_off_flags\000"
 4804      66665F66 
 4804      6C616773 
 4804      00
 4805              	.LASF65:
 4806 0270 705F6D70 		.ascii	"p_mpool\000"
 4806      6F6F6C00 
 4807              	.LASF118:
 4808 0278 6D5F7175 		.ascii	"m_queue\000"
ARM GAS  /tmp/ccsoqR9L.s 			page 87


 4808      65756500 
 4809              	.LASF24:
 4810 0280 464C4153 		.ascii	"FLASH_BUSY\000"
 4810      485F4255 
 4810      535900
 4811              	.LASF158:
 4812 028b 45455F45 		.ascii	"EE_EraseSectorIfNotEmpty\000"
 4812      72617365 
 4812      53656374 
 4812      6F724966 
 4812      4E6F7445 
 4813              	.LASF109:
 4814 02a4 77746F62 		.ascii	"wtobjp\000"
 4814      6A7000
 4815              	.LASF39:
 4816 02ab 74736C69 		.ascii	"tslices_t\000"
 4816      6365735F 
 4816      7400
 4817              	.LASF155:
 4818 02b5 464C4153 		.ascii	"FLASH_Sector\000"
 4818      485F5365 
 4818      63746F72 
 4818      00
 4819              	.LASF110:
 4820 02c2 77747472 		.ascii	"wttrp\000"
 4820      7000
 4821              	.LASF96:
 4822 02c8 63685F73 		.ascii	"ch_system\000"
 4822      79737465 
 4822      6D00
 4823              	.LASF8:
 4824 02d2 6C6F6E67 		.ascii	"long int\000"
 4824      20696E74 
 4824      00
 4825              	.LASF37:
 4826 02db 74737461 		.ascii	"tstate_t\000"
 4826      74655F74 
 4826      00
 4827              	.LASF17:
 4828 02e4 75696E74 		.ascii	"uint16_t\000"
 4828      31365F74 
 4828      00
 4829              	.LASF140:
 4830 02ed 63686465 		.ascii	"chdebug_t\000"
 4830      6275675F 
 4830      7400
 4831              	.LASF50:
 4832 02f7 705F6E65 		.ascii	"p_newer\000"
 4832      77657200 
 4833              	.LASF115:
 4834 02ff 735F7175 		.ascii	"s_queue\000"
 4834      65756500 
 4835              	.LASF108:
 4836 0307 65786974 		.ascii	"exitcode\000"
 4836      636F6465 
 4836      00
 4837              	.LASF33:
ARM GAS  /tmp/ccsoqR9L.s 			page 88


 4838 0310 464C4153 		.ascii	"FLASH_Status\000"
 4838      485F5374 
 4838      61747573 
 4838      00
 4839              	.LASF78:
 4840 031d 725F6E65 		.ascii	"r_newer\000"
 4840      77657200 
 4841              	.LASF101:
 4842 0325 72656761 		.ascii	"regarm_t\000"
 4842      726D5F74 
 4842      00
 4843              	.LASF85:
 4844 032e 76745F70 		.ascii	"vt_prev\000"
 4844      72657600 
 4845              	.LASF159:
 4846 0336 45455F50 		.ascii	"EE_PageTransfer\000"
 4846      61676554 
 4846      72616E73 
 4846      66657200 
 4847              	.LASF3:
 4848 0346 5F5F696E 		.ascii	"__int16_t\000"
 4848      7431365F 
 4848      7400
 4849              	.LASF34:
 4850 0350 73697A65 		.ascii	"size_t\000"
 4850      5F7400
 4851              	.LASF142:
 4852 0357 6D757465 		.ascii	"mutex_t\000"
 4852      785F7400 
 4853              	.LASF100:
 4854 035f 69646C65 		.ascii	"idle_thread_wa\000"
 4854      5F746872 
 4854      6561645F 
 4854      776100
 4855              	.LASF43:
 4856 036e 636E745F 		.ascii	"cnt_t\000"
 4856      7400
 4857              	.LASF53:
 4858 0374 705F7374 		.ascii	"p_stklimit\000"
 4858      6B6C696D 
 4858      697400
 4859              	.LASF14:
 4860 037f 756E7369 		.ascii	"unsigned int\000"
 4860      676E6564 
 4860      20696E74 
 4860      00
 4861              	.LASF84:
 4862 038c 76745F6E 		.ascii	"vt_next\000"
 4862      65787400 
 4863              	.LASF22:
 4864 0394 53797374 		.ascii	"SystemCoreClock\000"
 4864      656D436F 
 4864      7265436C 
 4864      6F636B00 
 4865              	.LASF111:
 4866 03a4 77747365 		.ascii	"wtsemp\000"
 4866      6D7000
ARM GAS  /tmp/ccsoqR9L.s 			page 89


 4867              	.LASF86:
 4868 03ab 76745F64 		.ascii	"vt_delta\000"
 4868      656C7461 
 4868      00
 4869              	.LASF92:
 4870 03b4 73797374 		.ascii	"system_debug_t\000"
 4870      656D5F64 
 4870      65627567 
 4870      5F7400
 4871              	.LASF141:
 4872 03c3 63685F64 		.ascii	"ch_debug\000"
 4872      65627567 
 4872      00
 4873              	.LASF74:
 4874 03cc 63685F72 		.ascii	"ch_ready_list\000"
 4874      65616479 
 4874      5F6C6973 
 4874      7400
 4875              	.LASF81:
 4876 03da 76746675 		.ascii	"vtfunc_t\000"
 4876      6E635F74 
 4876      00
 4877              	.LASF122:
 4878 03e3 63685F69 		.ascii	"ch_identifier\000"
 4878      64656E74 
 4878      69666965 
 4878      7200
 4879              	.LASF116:
 4880 03f1 735F636E 		.ascii	"s_cnt\000"
 4880      7400
 4881              	.LASF103:
 4882 03f7 636F6E74 		.ascii	"context\000"
 4882      65787400 
 4883              	.LASF6:
 4884 03ff 73686F72 		.ascii	"short unsigned int\000"
 4884      7420756E 
 4884      7369676E 
 4884      65642069 
 4884      6E7400
 4885              	.LASF151:
 4886 0412 636F6E66 		.ascii	"conf_general_permanent_nrf_found\000"
 4886      5F67656E 
 4886      6572616C 
 4886      5F706572 
 4886      6D616E65 
 4887              	.LASF69:
 4888 0433 63685F74 		.ascii	"ch_thread\000"
 4888      68726561 
 4888      6400
 4889              	.LASF41:
 4890 043d 6D73675F 		.ascii	"msg_t\000"
 4890      7400
 4891              	.LASF171:
 4892 0443 45455F46 		.ascii	"EE_FindValidPage\000"
 4892      696E6456 
 4892      616C6964 
 4892      50616765 
ARM GAS  /tmp/ccsoqR9L.s 			page 90


 4892      00
 4893              	.LASF164:
 4894 0454 4F6C6450 		.ascii	"OldPageId\000"
 4894      61676549 
 4894      6400
 4895              	.LASF95:
 4896 045e 63685F73 		.ascii	"ch_system_t\000"
 4896      79737465 
 4896      6D5F7400 
 4897              	.LASF170:
 4898 046a 50616765 		.ascii	"PageEndAddress\000"
 4898      456E6441 
 4898      64647265 
 4898      737300
 4899              	.LASF182:
 4900 0479 45455F49 		.ascii	"EE_Init\000"
 4900      6E697400 
 4901              	.LASF139:
 4902 0481 63665F6F 		.ascii	"cf_off_time\000"
 4902      66665F74 
 4902      696D6500 
 4903              	.LASF160:
 4904 048d 56697274 		.ascii	"VirtAddress\000"
 4904      41646472 
 4904      65737300 
 4905              	.LASF169:
 4906 0499 41646472 		.ascii	"Address\000"
 4906      65737300 
 4907              	.LASF175:
 4908 04a1 45455F46 		.ascii	"EE_Format\000"
 4908      6F726D61 
 4908      7400
 4909              	.LASF7:
 4910 04ab 5F5F696E 		.ascii	"__int32_t\000"
 4910      7433325F 
 4910      7400
 4911              	.LASF168:
 4912 04b5 52656164 		.ascii	"ReadStatus\000"
 4912      53746174 
 4912      757300
 4913              	.LASF102:
 4914 04c0 73746B61 		.ascii	"stkalign_t\000"
 4914      6C69676E 
 4914      5F7400
 4915              	.LASF123:
 4916 04cb 63685F7A 		.ascii	"ch_zero\000"
 4916      65726F00 
 4917              	.LASF137:
 4918 04d3 63665F6F 		.ascii	"cf_off_refs\000"
 4918      66665F72 
 4918      65667300 
 4919              	.LASF185:
 4920 04df 666C6173 		.ascii	"flash_helper_get_sector_address\000"
 4920      685F6865 
 4920      6C706572 
 4920      5F676574 
 4920      5F736563 
ARM GAS  /tmp/ccsoqR9L.s 			page 91


 4921              	.LASF76:
 4922 04ff 725F7072 		.ascii	"r_prio\000"
 4922      696F00
 4923              	.LASF35:
 4924 0506 7274636E 		.ascii	"rtcnt_t\000"
 4924      745F7400 
 4925              	.LASF67:
 4926 050e 74687265 		.ascii	"thread_reference_t\000"
 4926      61645F72 
 4926      65666572 
 4926      656E6365 
 4926      5F7400
 4927              	.LASF106:
 4928 0521 746D5F63 		.ascii	"tm_calibration_t\000"
 4928      616C6962 
 4928      72617469 
 4928      6F6E5F74 
 4928      00
 4929              	.LASF90:
 4930 0532 63685F76 		.ascii	"ch_virtual_timers_list\000"
 4930      69727475 
 4930      616C5F74 
 4930      696D6572 
 4930      735F6C69 
 4931              	.LASF181:
 4932 0549 50616765 		.ascii	"PageStartAddress\000"
 4932      53746172 
 4932      74416464 
 4932      72657373 
 4932      00
 4933              	.LASF127:
 4934 055a 63685F74 		.ascii	"ch_timesize\000"
 4934      696D6573 
 4934      697A6500 
 4935              	.LASF174:
 4936 0566 50616765 		.ascii	"PageStatus1\000"
 4936      53746174 
 4936      75733100 
 4937              	.LASF133:
 4938 0572 63665F6F 		.ascii	"cf_off_name\000"
 4938      66665F6E 
 4938      616D6500 
 4939              	.LASF51:
 4940 057e 705F6F6C 		.ascii	"p_older\000"
 4940      64657200 
 4941              	.LASF77:
 4942 0586 725F6374 		.ascii	"r_ctx\000"
 4942      7800
 4943              	.LASF124:
 4944 058c 63685F73 		.ascii	"ch_size\000"
 4944      697A6500 
 4945              	.LASF80:
 4946 0594 725F6375 		.ascii	"r_current\000"
 4946      7272656E 
 4946      7400
 4947              	.LASF79:
 4948 059e 725F6F6C 		.ascii	"r_older\000"
ARM GAS  /tmp/ccsoqR9L.s 			page 92


 4948      64657200 
 4949              	.LASF30:
 4950 05a6 464C4153 		.ascii	"FLASH_ERROR_PROGRAM\000"
 4950      485F4552 
 4950      524F525F 
 4950      50524F47 
 4950      52414D00 
 4951              	.LASF12:
 4952 05ba 5F5F7569 		.ascii	"__uint64_t\000"
 4952      6E743634 
 4952      5F7400
 4953              	.LASF143:
 4954 05c5 666C6F61 		.ascii	"float\000"
 4954      7400
 4955              	.LASF152:
 4956 05cb 675F6261 		.ascii	"g_backup\000"
 4956      636B7570 
 4956      00
 4957              	.LASF38:
 4958 05d4 74726566 		.ascii	"trefs_t\000"
 4958      735F7400 
 4959              	.LASF173:
 4960 05dc 50616765 		.ascii	"PageStatus0\000"
 4960      53746174 
 4960      75733000 
 4961              	.LASF126:
 4962 05e8 63685F70 		.ascii	"ch_ptrsize\000"
 4962      74727369 
 4962      7A6500
 4963              	.LASF82:
 4964 05f3 76697274 		.ascii	"virtual_timer_t\000"
 4964      75616C5F 
 4964      74696D65 
 4964      725F7400 
 4965              	.LASF47:
 4966 0603 705F7072 		.ascii	"p_prev\000"
 4966      657600
 4967              	.LASF40:
 4968 060a 74707269 		.ascii	"tprio_t\000"
 4968      6F5F7400 
 4969              	.LASF157:
 4970 0612 61646472 		.ascii	"addr\000"
 4970      00
 4971              	.LASF93:
 4972 0617 63685F73 		.ascii	"ch_system_debug\000"
 4972      79737465 
 4972      6D5F6465 
 4972      62756700 
 4973              	.LASF144:
 4974 0627 5F426F6F 		.ascii	"_Bool\000"
 4974      6C00
 4975              	.LASF18:
 4976 062d 696E7433 		.ascii	"int32_t\000"
 4976      325F7400 
 4977              	.LASF1:
 4978 0635 756E7369 		.ascii	"unsigned char\000"
 4978      676E6564 
ARM GAS  /tmp/ccsoqR9L.s 			page 93


 4978      20636861 
 4978      7200
 4979              	.LASF180:
 4980 0643 41646472 		.ascii	"AddressValue\000"
 4980      65737356 
 4980      616C7565 
 4980      00
 4981              	.LASF172:
 4982 0650 4F706572 		.ascii	"Operation\000"
 4982      6174696F 
 4982      6E00
 4983              	.LASF63:
 4984 065a 705F6D74 		.ascii	"p_mtxlist\000"
 4984      786C6973 
 4984      7400
 4985              	.LASF4:
 4986 0664 73686F72 		.ascii	"short int\000"
 4986      7420696E 
 4986      7400
 4987              	.LASF54:
 4988 066e 705F7374 		.ascii	"p_state\000"
 4988      61746500 
 4989              	.LASF184:
 4990 0676 464C4153 		.ascii	"FLASH_EraseSector\000"
 4990      485F4572 
 4990      61736553 
 4990      6563746F 
 4990      7200
 4991              	.LASF57:
 4992 0688 705F7072 		.ascii	"p_preempt\000"
 4992      65656D70 
 4992      7400
 4993              	.LASF125:
 4994 0692 63685F76 		.ascii	"ch_version\000"
 4994      65727369 
 4994      6F6E00
 4995              	.LASF113:
 4996 069d 65776D61 		.ascii	"ewmask\000"
 4996      736B00
 4997              	.LASF46:
 4998 06a4 705F6E65 		.ascii	"p_next\000"
 4998      787400
 4999              	.LASF36:
 5000 06ab 746D6F64 		.ascii	"tmode_t\000"
 5000      655F7400 
 5001              	.LASF138:
 5002 06b3 63665F6F 		.ascii	"cf_off_preempt\000"
 5002      66665F70 
 5002      7265656D 
 5002      707400
 5003              	.LASF55:
 5004 06c2 705F666C 		.ascii	"p_flags\000"
 5004      61677300 
 5005              	.LASF167:
 5006 06ca 45657072 		.ascii	"EepromStatus\000"
 5006      6F6D5374 
 5006      61747573 
ARM GAS  /tmp/ccsoqR9L.s 			page 94


 5006      00
 5007              	.LASF71:
 5008 06d7 74687265 		.ascii	"threads_queue_t\000"
 5008      6164735F 
 5008      71756575 
 5008      655F7400 
 5009              	.LASF83:
 5010 06e7 63685F76 		.ascii	"ch_virtual_timer\000"
 5010      69727475 
 5010      616C5F74 
 5010      696D6572 
 5010      00
 5011              	.LASF131:
 5012 06f8 63665F6F 		.ascii	"cf_off_newer\000"
 5012      66665F6E 
 5012      65776572 
 5012      00
 5013              	.LASF114:
 5014 0705 63685F73 		.ascii	"ch_semaphore\000"
 5014      656D6170 
 5014      686F7265 
 5014      00
 5015              	.LASF62:
 5016 0712 705F6570 		.ascii	"p_epending\000"
 5016      656E6469 
 5016      6E6700
 5017              	.LASF188:
 5018 071d 2F626C64 		.ascii	"/bldc\000"
 5018      6300
 5019              	.LASF28:
 5020 0723 464C4153 		.ascii	"FLASH_ERROR_PGA\000"
 5020      485F4552 
 5020      524F525F 
 5020      50474100 
 5021              	.LASF150:
 5022 0733 6261636B 		.ascii	"backup_data\000"
 5022      75705F64 
 5022      61746100 
 5023              	.LASF75:
 5024 073f 725F7175 		.ascii	"r_queue\000"
 5024      65756500 
 5025              	.LASF91:
 5026 0747 76745F73 		.ascii	"vt_systime\000"
 5026      79737469 
 5026      6D6500
 5027              	.LASF70:
 5028 0752 63685F74 		.ascii	"ch_threads_list\000"
 5028      68726561 
 5028      64735F6C 
 5028      69737400 
 5029              	.LASF147:
 5030 0762 6F646F6D 		.ascii	"odometer\000"
 5030      65746572 
 5030      00
 5031              	.LASF10:
 5032 076b 6C6F6E67 		.ascii	"long unsigned int\000"
 5032      20756E73 
ARM GAS  /tmp/ccsoqR9L.s 			page 95


 5032      69676E65 
 5032      6420696E 
 5032      7400
 5033              	.LASF165:
 5034 077d 56616C69 		.ascii	"ValidPage\000"
 5034      64506167 
 5034      6500
 5035              	.LASF121:
 5036 0787 63686172 		.ascii	"char\000"
 5036      00
 5037              	.LASF27:
 5038 078c 464C4153 		.ascii	"FLASH_ERROR_PGP\000"
 5038      485F4552 
 5038      524F525F 
 5038      50475000 
 5039              	.LASF156:
 5040 079c 566F6C74 		.ascii	"VoltageRange\000"
 5040      61676552 
 5040      616E6765 
 5040      00
 5041              	.LASF26:
 5042 07a9 464C4153 		.ascii	"FLASH_ERROR_PGS\000"
 5042      485F4552 
 5042      524F525F 
 5042      50475300 
 5043              	.LASF177:
 5044 07b9 53746174 		.ascii	"Status\000"
 5044      757300
 5045              	.LASF5:
 5046 07c0 5F5F7569 		.ascii	"__uint16_t\000"
 5046      6E743136 
 5046      5F7400
 5047              	.LASF45:
 5048 07cb 74687265 		.ascii	"thread_t\000"
 5048      61645F74 
 5048      00
 5049              	.LASF120:
 5050 07d4 6D5F6E65 		.ascii	"m_next\000"
 5050      787400
 5051              	.LASF44:
 5052 07db 73797374 		.ascii	"systime_t\000"
 5052      696D655F 
 5052      7400
 5053              	.LASF64:
 5054 07e5 705F7265 		.ascii	"p_realprio\000"
 5054      616C7072 
 5054      696F00
 5055              	.LASF15:
 5056 07f0 75696E74 		.ascii	"uint8_t\000"
 5056      385F7400 
 5057              	.LASF9:
 5058 07f8 5F5F7569 		.ascii	"__uint32_t\000"
 5058      6E743332 
 5058      5F7400
 5059              	.LASF112:
 5060 0803 77746D74 		.ascii	"wtmtxp\000"
 5060      787000
ARM GAS  /tmp/ccsoqR9L.s 			page 96


 5061              	.LASF94:
 5062 080a 70616E69 		.ascii	"panic_msg\000"
 5062      635F6D73 
 5062      6700
 5063              	.LASF129:
 5064 0814 63665F6F 		.ascii	"cf_off_prio\000"
 5064      66665F70 
 5064      72696F00 
 5065              	.LASF105:
 5066 0820 6F666673 		.ascii	"offset\000"
 5066      657400
 5067              	.LASF23:
 5068 0827 5057525F 		.ascii	"PWR_TypeDef\000"
 5068      54797065 
 5068      44656600 
 5069              	.LASF58:
 5070 0833 705F7469 		.ascii	"p_time\000"
 5070      6D6500
 5071              	.LASF154:
 5072 083a 56697274 		.ascii	"VirtAddVarTab\000"
 5072      41646456 
 5072      61725461 
 5072      6200
 5073              	.LASF60:
 5074 0848 705F6D73 		.ascii	"p_msgqueue\000"
 5074      67717565 
 5074      756500
 5075              	.LASF179:
 5076 0853 45455F52 		.ascii	"EE_ReadVariable\000"
 5076      65616456 
 5076      61726961 
 5076      626C6500 
 5077              	.LASF88:
 5078 0863 76745F70 		.ascii	"vt_par\000"
 5078      617200
 5079              	.LASF25:
 5080 086a 464C4153 		.ascii	"FLASH_ERROR_RD\000"
 5080      485F4552 
 5080      524F525F 
 5080      524400
 5081              	.LASF130:
 5082 0879 63665F6F 		.ascii	"cf_off_ctx\000"
 5082      66665F63 
 5082      747800
 5083              	.LASF56:
 5084 0884 705F7265 		.ascii	"p_refs\000"
 5084      667300
 5085              	.LASF66:
 5086 088b 6D6F746F 		.ascii	"motor_selected\000"
 5086      725F7365 
 5086      6C656374 
 5086      656400
 5087              	.LASF153:
 5088 089a 44617461 		.ascii	"DataVar\000"
 5088      56617200 
 5089              	.LASF97:
 5090 08a2 726C6973 		.ascii	"rlist\000"
ARM GAS  /tmp/ccsoqR9L.s 			page 97


 5090      7400
 5091              	.LASF163:
 5092 08a8 4E657750 		.ascii	"NewPageAddress\000"
 5092      61676541 
 5092      64647265 
 5092      737300
 5093              	.LASF161:
 5094 08b7 44617461 		.ascii	"Data\000"
 5094      00
 5095              	.LASF189:
 5096 08bc 45455F56 		.ascii	"EE_VerifyPageFullWriteVariable\000"
 5096      65726966 
 5096      79506167 
 5096      6546756C 
 5096      6C577269 
 5097              	.LASF146:
 5098 08db 6F646F6D 		.ascii	"odometer_init_flag\000"
 5098      65746572 
 5098      5F696E69 
 5098      745F666C 
 5098      616700
 5099              	.LASF117:
 5100 08ee 63685F6D 		.ascii	"ch_mutex\000"
 5100      75746578 
 5100      00
 5101              	.LASF52:
 5102 08f7 705F6E61 		.ascii	"p_name\000"
 5102      6D6500
 5103              	.LASF183:
 5104 08fe 464C4153 		.ascii	"FLASH_ProgramHalfWord\000"
 5104      485F5072 
 5104      6F677261 
 5104      6D48616C 
 5104      66576F72 
 5105              	.LASF68:
 5106 0914 74687265 		.ascii	"threads_list_t\000"
 5106      6164735F 
 5106      6C697374 
 5106      5F7400
 5107              	.LASF29:
 5108 0923 464C4153 		.ascii	"FLASH_ERROR_WRP\000"
 5108      485F4552 
 5108      524F525F 
 5108      57525000 
 5109              	.LASF61:
 5110 0933 705F6D73 		.ascii	"p_msg\000"
 5110      6700
 5111              	.LASF32:
 5112 0939 464C4153 		.ascii	"FLASH_COMPLETE\000"
 5112      485F434F 
 5112      4D504C45 
 5112      544500
 5113              	.LASF128:
 5114 0948 63685F74 		.ascii	"ch_threadsize\000"
 5114      68726561 
 5114      6473697A 
 5114      6500
ARM GAS  /tmp/ccsoqR9L.s 			page 98


 5115              	.LASF31:
 5116 0956 464C4153 		.ascii	"FLASH_ERROR_OPERATION\000"
 5116      485F4552 
 5116      524F525F 
 5116      4F504552 
 5116      4154494F 
 5117              	.LASF119:
 5118 096c 6D5F6F77 		.ascii	"m_owner\000"
 5118      6E657200 
 5119              	.LASF145:
 5120 0974 646F7562 		.ascii	"double\000"
 5120      6C6500
 5121              	.LASF149:
 5122 097b 72756E74 		.ascii	"runtime\000"
 5122      696D6500 
 5123              	.LASF19:
 5124 0983 75696E74 		.ascii	"uint32_t\000"
 5124      33325F74 
 5124      00
 5125              	.LASF49:
 5126 098c 705F6374 		.ascii	"p_ctx\000"
 5126      7800
 5127              	.LASF59:
 5128 0992 705F7761 		.ascii	"p_waiting\000"
 5128      6974696E 
 5128      6700
 5129              		.ident	"GCC: (GNU Tools for Arm Embedded Processors 7-2018-q3-update) 7.3.1 20180622 (release) [AR
ARM GAS  /tmp/ccsoqR9L.s 			page 99


DEFINED SYMBOLS
                            *ABS*:0000000000000000 eeprom.c
     /tmp/ccsoqR9L.s:18     .text.EE_VerifyPageFullWriteVariable:0000000000000000 $t
     /tmp/ccsoqR9L.s:25     .text.EE_VerifyPageFullWriteVariable:0000000000000000 EE_VerifyPageFullWriteVariable
     /tmp/ccsoqR9L.s:153    .text.EE_VerifyPageFullWriteVariable:0000000000000070 $d
     /tmp/ccsoqR9L.s:160    .text.EE_EraseSectorIfNotEmpty.constprop.1:0000000000000000 $t
     /tmp/ccsoqR9L.s:167    .text.EE_EraseSectorIfNotEmpty.constprop.1:0000000000000000 EE_EraseSectorIfNotEmpty.constprop.1
     /tmp/ccsoqR9L.s:222    .text.EE_Format:0000000000000000 $t
     /tmp/ccsoqR9L.s:229    .text.EE_Format:0000000000000000 EE_Format
     /tmp/ccsoqR9L.s:275    .text.EE_Format:0000000000000028 $d
     /tmp/ccsoqR9L.s:280    .text.EE_ReadVariable:0000000000000000 $t
     /tmp/ccsoqR9L.s:288    .text.EE_ReadVariable:0000000000000000 EE_ReadVariable
     /tmp/ccsoqR9L.s:401    .text.EE_ReadVariable:0000000000000054 $d
     /tmp/ccsoqR9L.s:411    .text.EE_Init:0000000000000000 $t
     /tmp/ccsoqR9L.s:419    .text.EE_Init:0000000000000000 EE_Init
     /tmp/ccsoqR9L.s:680    .text.EE_Init:0000000000000128 $d
     /tmp/ccsoqR9L.s:690    .text.EE_WriteVariable:0000000000000000 $t
     /tmp/ccsoqR9L.s:698    .text.EE_WriteVariable:0000000000000000 EE_WriteVariable
     /tmp/ccsoqR9L.s:902    .text.EE_WriteVariable:00000000000000cc $d
     /tmp/ccsoqR9L.s:918    .bss.DataVar:0000000000000000 DataVar
     /tmp/ccsoqR9L.s:914    .bss.DataVar:0000000000000000 $d

UNDEFINED SYMBOLS
FLASH_ProgramHalfWord
flash_helper_get_sector_address
FLASH_EraseSector
VirtAddVarTab
