ARM GAS  /tmp/ccB9eNXv.s 			page 1


   1              		.cpu cortex-m4
   2              		.eabi_attribute 27, 1
   3              		.eabi_attribute 28, 1
   4              		.eabi_attribute 20, 1
   5              		.eabi_attribute 21, 1
   6              		.eabi_attribute 23, 3
   7              		.eabi_attribute 24, 1
   8              		.eabi_attribute 25, 1
   9              		.eabi_attribute 26, 1
  10              		.eabi_attribute 30, 2
  11              		.eabi_attribute 34, 1
  12              		.eabi_attribute 18, 4
  13              		.file	"encoder.c"
  14              		.text
  15              	.Ltext0:
  16              		.cfi_sections	.debug_frame
  17              		.section	.text.encoder_spi_get_error_cnt,"ax",%progbits
  18              		.align	1
  19              		.p2align 4,,15
  20              		.global	encoder_spi_get_error_cnt
  21              		.syntax unified
  22              		.thumb
  23              		.thumb_func
  24              		.fpu fpv4-sp-d16
  25              		.type	encoder_spi_get_error_cnt, %function
  26              	encoder_spi_get_error_cnt:
  27              	.LFB256:
  28              		.file 1 "encoder.c"
  29              		.loc 1 176 0
  30              		.cfi_startproc
  31              		@ args = 0, pretend = 0, frame = 0
  32              		@ frame_needed = 0, uses_anonymous_args = 0
  33              		@ link register save eliminated.
  34              		.loc 1 177 0
  35 0000 014B     		ldr	r3, .L3
  36              		.loc 1 178 0
  37 0002 1868     		ldr	r0, [r3]
  38 0004 7047     		bx	lr
  39              	.L4:
  40 0006 00BF     		.align	2
  41              	.L3:
  42 0008 00000000 		.word	.LANCHOR0
  43              		.cfi_endproc
  44              	.LFE256:
  45              		.size	encoder_spi_get_error_cnt, .-encoder_spi_get_error_cnt
  46              		.section	.text.encoder_spi_get_val,"ax",%progbits
  47              		.align	1
  48              		.p2align 4,,15
  49              		.global	encoder_spi_get_val
  50              		.syntax unified
  51              		.thumb
  52              		.thumb_func
  53              		.fpu fpv4-sp-d16
  54              		.type	encoder_spi_get_val, %function
  55              	encoder_spi_get_val:
  56              	.LFB257:
  57              		.loc 1 180 0
ARM GAS  /tmp/ccB9eNXv.s 			page 2


  58              		.cfi_startproc
  59              		@ args = 0, pretend = 0, frame = 0
  60              		@ frame_needed = 0, uses_anonymous_args = 0
  61              		@ link register save eliminated.
  62              		.loc 1 181 0
  63 0000 014B     		ldr	r3, .L6
  64              		.loc 1 182 0
  65 0002 1868     		ldr	r0, [r3]
  66 0004 7047     		bx	lr
  67              	.L7:
  68 0006 00BF     		.align	2
  69              	.L6:
  70 0008 00000000 		.word	.LANCHOR1
  71              		.cfi_endproc
  72              	.LFE257:
  73              		.size	encoder_spi_get_val, .-encoder_spi_get_val
  74              		.section	.text.encoder_spi_get_error_rate,"ax",%progbits
  75              		.align	1
  76              		.p2align 4,,15
  77              		.global	encoder_spi_get_error_rate
  78              		.syntax unified
  79              		.thumb
  80              		.thumb_func
  81              		.fpu fpv4-sp-d16
  82              		.type	encoder_spi_get_error_rate, %function
  83              	encoder_spi_get_error_rate:
  84              	.LFB258:
  85              		.loc 1 184 0
  86              		.cfi_startproc
  87              		@ args = 0, pretend = 0, frame = 0
  88              		@ frame_needed = 0, uses_anonymous_args = 0
  89              		@ link register save eliminated.
  90              		.loc 1 185 0
  91 0000 014B     		ldr	r3, .L9
  92              		.loc 1 186 0
  93 0002 93ED000A 		vldr.32	s0, [r3]
  94 0006 7047     		bx	lr
  95              	.L10:
  96              		.align	2
  97              	.L9:
  98 0008 00000000 		.word	.LANCHOR2
  99              		.cfi_endproc
 100              	.LFE258:
 101              		.size	encoder_spi_get_error_rate, .-encoder_spi_get_error_rate
 102              		.section	.text.encoder_get_no_magnet_error_cnt,"ax",%progbits
 103              		.align	1
 104              		.p2align 4,,15
 105              		.global	encoder_get_no_magnet_error_cnt
 106              		.syntax unified
 107              		.thumb
 108              		.thumb_func
 109              		.fpu fpv4-sp-d16
 110              		.type	encoder_get_no_magnet_error_cnt, %function
 111              	encoder_get_no_magnet_error_cnt:
 112              	.LFB259:
 113              		.loc 1 188 0
 114              		.cfi_startproc
ARM GAS  /tmp/ccB9eNXv.s 			page 3


 115              		@ args = 0, pretend = 0, frame = 0
 116              		@ frame_needed = 0, uses_anonymous_args = 0
 117              		@ link register save eliminated.
 118              		.loc 1 189 0
 119 0000 014B     		ldr	r3, .L12
 120              		.loc 1 190 0
 121 0002 1868     		ldr	r0, [r3]
 122 0004 7047     		bx	lr
 123              	.L13:
 124 0006 00BF     		.align	2
 125              	.L12:
 126 0008 00000000 		.word	.LANCHOR3
 127              		.cfi_endproc
 128              	.LFE259:
 129              		.size	encoder_get_no_magnet_error_cnt, .-encoder_get_no_magnet_error_cnt
 130              		.section	.text.encoder_get_no_magnet_error_rate,"ax",%progbits
 131              		.align	1
 132              		.p2align 4,,15
 133              		.global	encoder_get_no_magnet_error_rate
 134              		.syntax unified
 135              		.thumb
 136              		.thumb_func
 137              		.fpu fpv4-sp-d16
 138              		.type	encoder_get_no_magnet_error_rate, %function
 139              	encoder_get_no_magnet_error_rate:
 140              	.LFB260:
 141              		.loc 1 192 0
 142              		.cfi_startproc
 143              		@ args = 0, pretend = 0, frame = 0
 144              		@ frame_needed = 0, uses_anonymous_args = 0
 145              		@ link register save eliminated.
 146              		.loc 1 193 0
 147 0000 014B     		ldr	r3, .L15
 148              		.loc 1 194 0
 149 0002 93ED000A 		vldr.32	s0, [r3]
 150 0006 7047     		bx	lr
 151              	.L16:
 152              		.align	2
 153              	.L15:
 154 0008 00000000 		.word	.LANCHOR4
 155              		.cfi_endproc
 156              	.LFE260:
 157              		.size	encoder_get_no_magnet_error_rate, .-encoder_get_no_magnet_error_rate
 158              		.section	.text.encoder_resolver_loss_of_tracking_error_rate,"ax",%progbits
 159              		.align	1
 160              		.p2align 4,,15
 161              		.global	encoder_resolver_loss_of_tracking_error_rate
 162              		.syntax unified
 163              		.thumb
 164              		.thumb_func
 165              		.fpu fpv4-sp-d16
 166              		.type	encoder_resolver_loss_of_tracking_error_rate, %function
 167              	encoder_resolver_loss_of_tracking_error_rate:
 168              	.LFB261:
 169              		.loc 1 196 0
 170              		.cfi_startproc
 171              		@ args = 0, pretend = 0, frame = 0
ARM GAS  /tmp/ccB9eNXv.s 			page 4


 172              		@ frame_needed = 0, uses_anonymous_args = 0
 173              		@ link register save eliminated.
 174              		.loc 1 197 0
 175 0000 014B     		ldr	r3, .L18
 176              		.loc 1 198 0
 177 0002 93ED000A 		vldr.32	s0, [r3]
 178 0006 7047     		bx	lr
 179              	.L19:
 180              		.align	2
 181              	.L18:
 182 0008 00000000 		.word	.LANCHOR5
 183              		.cfi_endproc
 184              	.LFE261:
 185              		.size	encoder_resolver_loss_of_tracking_error_rate, .-encoder_resolver_loss_of_tracking_error_rate
 186              		.section	.text.encoder_resolver_degradation_of_signal_error_rate,"ax",%progbits
 187              		.align	1
 188              		.p2align 4,,15
 189              		.global	encoder_resolver_degradation_of_signal_error_rate
 190              		.syntax unified
 191              		.thumb
 192              		.thumb_func
 193              		.fpu fpv4-sp-d16
 194              		.type	encoder_resolver_degradation_of_signal_error_rate, %function
 195              	encoder_resolver_degradation_of_signal_error_rate:
 196              	.LFB262:
 197              		.loc 1 200 0
 198              		.cfi_startproc
 199              		@ args = 0, pretend = 0, frame = 0
 200              		@ frame_needed = 0, uses_anonymous_args = 0
 201              		@ link register save eliminated.
 202              		.loc 1 201 0
 203 0000 014B     		ldr	r3, .L21
 204              		.loc 1 202 0
 205 0002 93ED000A 		vldr.32	s0, [r3]
 206 0006 7047     		bx	lr
 207              	.L22:
 208              		.align	2
 209              	.L21:
 210 0008 00000000 		.word	.LANCHOR6
 211              		.cfi_endproc
 212              	.LFE262:
 213              		.size	encoder_resolver_degradation_of_signal_error_rate, .-encoder_resolver_degradation_of_signal_
 214              		.section	.text.encoder_resolver_loss_of_signal_error_rate,"ax",%progbits
 215              		.align	1
 216              		.p2align 4,,15
 217              		.global	encoder_resolver_loss_of_signal_error_rate
 218              		.syntax unified
 219              		.thumb
 220              		.thumb_func
 221              		.fpu fpv4-sp-d16
 222              		.type	encoder_resolver_loss_of_signal_error_rate, %function
 223              	encoder_resolver_loss_of_signal_error_rate:
 224              	.LFB263:
 225              		.loc 1 204 0
 226              		.cfi_startproc
 227              		@ args = 0, pretend = 0, frame = 0
 228              		@ frame_needed = 0, uses_anonymous_args = 0
ARM GAS  /tmp/ccB9eNXv.s 			page 5


 229              		@ link register save eliminated.
 230              		.loc 1 205 0
 231 0000 014B     		ldr	r3, .L24
 232              		.loc 1 206 0
 233 0002 93ED000A 		vldr.32	s0, [r3]
 234 0006 7047     		bx	lr
 235              	.L25:
 236              		.align	2
 237              	.L24:
 238 0008 00000000 		.word	.LANCHOR7
 239              		.cfi_endproc
 240              	.LFE263:
 241              		.size	encoder_resolver_loss_of_signal_error_rate, .-encoder_resolver_loss_of_signal_error_rate
 242              		.section	.text.encoder_resolver_loss_of_tracking_error_cnt,"ax",%progbits
 243              		.align	1
 244              		.p2align 4,,15
 245              		.global	encoder_resolver_loss_of_tracking_error_cnt
 246              		.syntax unified
 247              		.thumb
 248              		.thumb_func
 249              		.fpu fpv4-sp-d16
 250              		.type	encoder_resolver_loss_of_tracking_error_cnt, %function
 251              	encoder_resolver_loss_of_tracking_error_cnt:
 252              	.LFB264:
 253              		.loc 1 208 0
 254              		.cfi_startproc
 255              		@ args = 0, pretend = 0, frame = 0
 256              		@ frame_needed = 0, uses_anonymous_args = 0
 257              		@ link register save eliminated.
 258              		.loc 1 209 0
 259 0000 014B     		ldr	r3, .L27
 260              		.loc 1 210 0
 261 0002 1868     		ldr	r0, [r3]
 262 0004 7047     		bx	lr
 263              	.L28:
 264 0006 00BF     		.align	2
 265              	.L27:
 266 0008 00000000 		.word	.LANCHOR8
 267              		.cfi_endproc
 268              	.LFE264:
 269              		.size	encoder_resolver_loss_of_tracking_error_cnt, .-encoder_resolver_loss_of_tracking_error_cnt
 270              		.section	.text.encoder_resolver_degradation_of_signal_error_cnt,"ax",%progbits
 271              		.align	1
 272              		.p2align 4,,15
 273              		.global	encoder_resolver_degradation_of_signal_error_cnt
 274              		.syntax unified
 275              		.thumb
 276              		.thumb_func
 277              		.fpu fpv4-sp-d16
 278              		.type	encoder_resolver_degradation_of_signal_error_cnt, %function
 279              	encoder_resolver_degradation_of_signal_error_cnt:
 280              	.LFB265:
 281              		.loc 1 212 0
 282              		.cfi_startproc
 283              		@ args = 0, pretend = 0, frame = 0
 284              		@ frame_needed = 0, uses_anonymous_args = 0
 285              		@ link register save eliminated.
ARM GAS  /tmp/ccB9eNXv.s 			page 6


 286              		.loc 1 213 0
 287 0000 014B     		ldr	r3, .L30
 288              		.loc 1 214 0
 289 0002 1868     		ldr	r0, [r3]
 290 0004 7047     		bx	lr
 291              	.L31:
 292 0006 00BF     		.align	2
 293              	.L30:
 294 0008 00000000 		.word	.LANCHOR9
 295              		.cfi_endproc
 296              	.LFE265:
 297              		.size	encoder_resolver_degradation_of_signal_error_cnt, .-encoder_resolver_degradation_of_signal_e
 298              		.section	.text.encoder_resolver_loss_of_signal_error_cnt,"ax",%progbits
 299              		.align	1
 300              		.p2align 4,,15
 301              		.global	encoder_resolver_loss_of_signal_error_cnt
 302              		.syntax unified
 303              		.thumb
 304              		.thumb_func
 305              		.fpu fpv4-sp-d16
 306              		.type	encoder_resolver_loss_of_signal_error_cnt, %function
 307              	encoder_resolver_loss_of_signal_error_cnt:
 308              	.LFB266:
 309              		.loc 1 216 0
 310              		.cfi_startproc
 311              		@ args = 0, pretend = 0, frame = 0
 312              		@ frame_needed = 0, uses_anonymous_args = 0
 313              		@ link register save eliminated.
 314              		.loc 1 217 0
 315 0000 014B     		ldr	r3, .L33
 316              		.loc 1 218 0
 317 0002 1868     		ldr	r0, [r3]
 318 0004 7047     		bx	lr
 319              	.L34:
 320 0006 00BF     		.align	2
 321              	.L33:
 322 0008 00000000 		.word	.LANCHOR10
 323              		.cfi_endproc
 324              	.LFE266:
 325              		.size	encoder_resolver_loss_of_signal_error_cnt, .-encoder_resolver_loss_of_signal_error_cnt
 326              		.section	.text.encoder_sincos_get_signal_below_min_error_cnt,"ax",%progbits
 327              		.align	1
 328              		.p2align 4,,15
 329              		.global	encoder_sincos_get_signal_below_min_error_cnt
 330              		.syntax unified
 331              		.thumb
 332              		.thumb_func
 333              		.fpu fpv4-sp-d16
 334              		.type	encoder_sincos_get_signal_below_min_error_cnt, %function
 335              	encoder_sincos_get_signal_below_min_error_cnt:
 336              	.LFB267:
 337              		.loc 1 220 0
 338              		.cfi_startproc
 339              		@ args = 0, pretend = 0, frame = 0
 340              		@ frame_needed = 0, uses_anonymous_args = 0
 341              		@ link register save eliminated.
 342              		.loc 1 221 0
ARM GAS  /tmp/ccB9eNXv.s 			page 7


 343 0000 014B     		ldr	r3, .L36
 344              		.loc 1 222 0
 345 0002 1868     		ldr	r0, [r3]
 346 0004 7047     		bx	lr
 347              	.L37:
 348 0006 00BF     		.align	2
 349              	.L36:
 350 0008 00000000 		.word	.LANCHOR11
 351              		.cfi_endproc
 352              	.LFE267:
 353              		.size	encoder_sincos_get_signal_below_min_error_cnt, .-encoder_sincos_get_signal_below_min_error_c
 354              		.section	.text.encoder_sincos_get_signal_above_max_error_cnt,"ax",%progbits
 355              		.align	1
 356              		.p2align 4,,15
 357              		.global	encoder_sincos_get_signal_above_max_error_cnt
 358              		.syntax unified
 359              		.thumb
 360              		.thumb_func
 361              		.fpu fpv4-sp-d16
 362              		.type	encoder_sincos_get_signal_above_max_error_cnt, %function
 363              	encoder_sincos_get_signal_above_max_error_cnt:
 364              	.LFB268:
 365              		.loc 1 224 0
 366              		.cfi_startproc
 367              		@ args = 0, pretend = 0, frame = 0
 368              		@ frame_needed = 0, uses_anonymous_args = 0
 369              		@ link register save eliminated.
 370              		.loc 1 225 0
 371 0000 014B     		ldr	r3, .L39
 372              		.loc 1 226 0
 373 0002 1868     		ldr	r0, [r3]
 374 0004 7047     		bx	lr
 375              	.L40:
 376 0006 00BF     		.align	2
 377              	.L39:
 378 0008 00000000 		.word	.LANCHOR12
 379              		.cfi_endproc
 380              	.LFE268:
 381              		.size	encoder_sincos_get_signal_above_max_error_cnt, .-encoder_sincos_get_signal_above_max_error_c
 382              		.section	.text.encoder_sincos_get_signal_below_min_error_rate,"ax",%progbits
 383              		.align	1
 384              		.p2align 4,,15
 385              		.global	encoder_sincos_get_signal_below_min_error_rate
 386              		.syntax unified
 387              		.thumb
 388              		.thumb_func
 389              		.fpu fpv4-sp-d16
 390              		.type	encoder_sincos_get_signal_below_min_error_rate, %function
 391              	encoder_sincos_get_signal_below_min_error_rate:
 392              	.LFB269:
 393              		.loc 1 228 0
 394              		.cfi_startproc
 395              		@ args = 0, pretend = 0, frame = 0
 396              		@ frame_needed = 0, uses_anonymous_args = 0
 397              		@ link register save eliminated.
 398              		.loc 1 229 0
 399 0000 014B     		ldr	r3, .L42
ARM GAS  /tmp/ccB9eNXv.s 			page 8


 400              		.loc 1 230 0
 401 0002 93ED000A 		vldr.32	s0, [r3]
 402 0006 7047     		bx	lr
 403              	.L43:
 404              		.align	2
 405              	.L42:
 406 0008 00000000 		.word	.LANCHOR13
 407              		.cfi_endproc
 408              	.LFE269:
 409              		.size	encoder_sincos_get_signal_below_min_error_rate, .-encoder_sincos_get_signal_below_min_error_
 410              		.section	.text.encoder_sincos_get_signal_above_max_error_rate,"ax",%progbits
 411              		.align	1
 412              		.p2align 4,,15
 413              		.global	encoder_sincos_get_signal_above_max_error_rate
 414              		.syntax unified
 415              		.thumb
 416              		.thumb_func
 417              		.fpu fpv4-sp-d16
 418              		.type	encoder_sincos_get_signal_above_max_error_rate, %function
 419              	encoder_sincos_get_signal_above_max_error_rate:
 420              	.LFB270:
 421              		.loc 1 232 0
 422              		.cfi_startproc
 423              		@ args = 0, pretend = 0, frame = 0
 424              		@ frame_needed = 0, uses_anonymous_args = 0
 425              		@ link register save eliminated.
 426              		.loc 1 233 0
 427 0000 014B     		ldr	r3, .L45
 428              		.loc 1 234 0
 429 0002 93ED000A 		vldr.32	s0, [r3]
 430 0006 7047     		bx	lr
 431              	.L46:
 432              		.align	2
 433              	.L45:
 434 0008 00000000 		.word	.LANCHOR14
 435              		.cfi_endproc
 436              	.LFE270:
 437              		.size	encoder_sincos_get_signal_above_max_error_rate, .-encoder_sincos_get_signal_above_max_error_
 438              		.section	.text.encoder_ts5700n8501_get_raw_status,"ax",%progbits
 439              		.align	1
 440              		.p2align 4,,15
 441              		.global	encoder_ts5700n8501_get_raw_status
 442              		.syntax unified
 443              		.thumb
 444              		.thumb_func
 445              		.fpu fpv4-sp-d16
 446              		.type	encoder_ts5700n8501_get_raw_status, %function
 447              	encoder_ts5700n8501_get_raw_status:
 448              	.LFB271:
 449              		.loc 1 236 0
 450              		.cfi_startproc
 451              		@ args = 0, pretend = 0, frame = 0
 452              		@ frame_needed = 0, uses_anonymous_args = 0
 453              		@ link register save eliminated.
 454              		.loc 1 238 0
 455 0000 0048     		ldr	r0, .L48
 456 0002 7047     		bx	lr
ARM GAS  /tmp/ccB9eNXv.s 			page 9


 457              	.L49:
 458              		.align	2
 459              	.L48:
 460 0004 00000000 		.word	.LANCHOR15
 461              		.cfi_endproc
 462              	.LFE271:
 463              		.size	encoder_ts5700n8501_get_raw_status, .-encoder_ts5700n8501_get_raw_status
 464              		.section	.text.encoder_ts57n8501_get_abm,"ax",%progbits
 465              		.align	1
 466              		.p2align 4,,15
 467              		.global	encoder_ts57n8501_get_abm
 468              		.syntax unified
 469              		.thumb
 470              		.thumb_func
 471              		.fpu fpv4-sp-d16
 472              		.type	encoder_ts57n8501_get_abm, %function
 473              	encoder_ts57n8501_get_abm:
 474              	.LFB272:
 475              		.loc 1 240 0
 476              		.cfi_startproc
 477              		@ args = 0, pretend = 0, frame = 0
 478              		@ frame_needed = 0, uses_anonymous_args = 0
 479              		@ link register save eliminated.
 480              		.loc 1 241 0
 481 0000 034B     		ldr	r3, .L51
 482 0002 1879     		ldrb	r0, [r3, #4]	@ zero_extendqisi2
 483              		.loc 1 242 0
 484 0004 5B79     		ldrb	r3, [r3, #5]	@ zero_extendqisi2
 485              		.loc 1 241 0
 486 0006 40EA0320 		orr	r0, r0, r3, lsl #8
 487              		.loc 1 243 0
 488 000a 00B2     		sxth	r0, r0
 489 000c 7047     		bx	lr
 490              	.L52:
 491 000e 00BF     		.align	2
 492              	.L51:
 493 0010 00000000 		.word	.LANCHOR15
 494              		.cfi_endproc
 495              	.LFE272:
 496              		.size	encoder_ts57n8501_get_abm, .-encoder_ts57n8501_get_abm
 497              		.section	.text.encoder_ts57n8501_reset_errors,"ax",%progbits
 498              		.align	1
 499              		.p2align 4,,15
 500              		.global	encoder_ts57n8501_reset_errors
 501              		.syntax unified
 502              		.thumb
 503              		.thumb_func
 504              		.fpu fpv4-sp-d16
 505              		.type	encoder_ts57n8501_reset_errors, %function
 506              	encoder_ts57n8501_reset_errors:
 507              	.LFB273:
 508              		.loc 1 245 0
 509              		.cfi_startproc
 510              		@ args = 0, pretend = 0, frame = 0
 511              		@ frame_needed = 0, uses_anonymous_args = 0
 512              		@ link register save eliminated.
 513              		.loc 1 246 0
ARM GAS  /tmp/ccB9eNXv.s 			page 10


 514 0000 014B     		ldr	r3, .L54
 515 0002 0122     		movs	r2, #1
 516 0004 1A70     		strb	r2, [r3]
 517              		.loc 1 247 0
 518 0006 7047     		bx	lr
 519              	.L55:
 520              		.align	2
 521              	.L54:
 522 0008 00000000 		.word	.LANCHOR16
 523              		.cfi_endproc
 524              	.LFE273:
 525              		.size	encoder_ts57n8501_reset_errors, .-encoder_ts57n8501_reset_errors
 526              		.section	.text.encoder_ts57n8501_reset_multiturn,"ax",%progbits
 527              		.align	1
 528              		.p2align 4,,15
 529              		.global	encoder_ts57n8501_reset_multiturn
 530              		.syntax unified
 531              		.thumb
 532              		.thumb_func
 533              		.fpu fpv4-sp-d16
 534              		.type	encoder_ts57n8501_reset_multiturn, %function
 535              	encoder_ts57n8501_reset_multiturn:
 536              	.LFB274:
 537              		.loc 1 249 0
 538              		.cfi_startproc
 539              		@ args = 0, pretend = 0, frame = 0
 540              		@ frame_needed = 0, uses_anonymous_args = 0
 541              		@ link register save eliminated.
 542              		.loc 1 250 0
 543 0000 014B     		ldr	r3, .L57
 544 0002 0122     		movs	r2, #1
 545 0004 1A70     		strb	r2, [r3]
 546              		.loc 1 251 0
 547 0006 7047     		bx	lr
 548              	.L58:
 549              		.align	2
 550              	.L57:
 551 0008 00000000 		.word	.LANCHOR17
 552              		.cfi_endproc
 553              	.LFE274:
 554              		.size	encoder_ts57n8501_reset_multiturn, .-encoder_ts57n8501_reset_multiturn
 555              		.section	.text.encoder_deinit,"ax",%progbits
 556              		.align	1
 557              		.p2align 4,,15
 558              		.global	encoder_deinit
 559              		.syntax unified
 560              		.thumb
 561              		.thumb_func
 562              		.fpu fpv4-sp-d16
 563              		.type	encoder_deinit, %function
 564              	encoder_deinit:
 565              	.LFB275:
 566              		.loc 1 253 0
 567              		.cfi_startproc
 568              		@ args = 0, pretend = 0, frame = 0
 569              		@ frame_needed = 0, uses_anonymous_args = 0
 570 0000 38B5     		push	{r3, r4, r5, lr}
ARM GAS  /tmp/ccB9eNXv.s 			page 11


 571              		.cfi_def_cfa_offset 16
 572              		.cfi_offset 3, -16
 573              		.cfi_offset 4, -12
 574              		.cfi_offset 5, -8
 575              		.cfi_offset 14, -4
 576              		.loc 1 254 0
 577 0002 1720     		movs	r0, #23
 578 0004 FFF7FEFF 		bl	nvicDisableVector
 579              	.LVL0:
 580              		.loc 1 255 0
 581 0008 1D20     		movs	r0, #29
 582 000a FFF7FEFF 		bl	nvicDisableVector
 583              	.LVL1:
 584              		.loc 1 257 0
 585 000e 2848     		ldr	r0, .L69
 586              		.loc 1 270 0
 587 0010 284C     		ldr	r4, .L69+4
 588              		.loc 1 257 0
 589 0012 FFF7FEFF 		bl	TIM_DeInit
 590              	.LVL2:
 591              		.loc 1 259 0
 592 0016 2022     		movs	r2, #32
 593 0018 8021     		movs	r1, #128
 594 001a 2748     		ldr	r0, .L69+8
 595 001c FFF7FEFF 		bl	_pal_lld_setgroupmode
 596              	.LVL3:
 597              		.loc 1 260 0
 598 0020 2022     		movs	r2, #32
 599 0022 4021     		movs	r1, #64
 600 0024 2448     		ldr	r0, .L69+8
 601 0026 FFF7FEFF 		bl	_pal_lld_setgroupmode
 602              	.LVL4:
 603              		.loc 1 261 0
 604 002a 2022     		movs	r2, #32
 605 002c 4FF48071 		mov	r1, #256
 606 0030 2148     		ldr	r0, .L69+8
 607 0032 FFF7FEFF 		bl	_pal_lld_setgroupmode
 608              	.LVL5:
 609              		.loc 1 264 0
 610 0036 2148     		ldr	r0, .L69+12
 611 0038 FFF7FEFF 		bl	spiStop
 612              	.LVL6:
 613              		.loc 1 267 0
 614 003c 2022     		movs	r2, #32
 615 003e 4021     		movs	r1, #64
 616 0040 1D48     		ldr	r0, .L69+8
 617 0042 FFF7FEFF 		bl	_pal_lld_setgroupmode
 618              	.LVL7:
 619              		.loc 1 268 0
 620 0046 2022     		movs	r2, #32
 621 0048 8021     		movs	r1, #128
 622 004a 1B48     		ldr	r0, .L69+8
 623 004c FFF7FEFF 		bl	_pal_lld_setgroupmode
 624              	.LVL8:
 625              		.loc 1 270 0
 626 0050 2378     		ldrb	r3, [r4]	@ zero_extendqisi2
 627 0052 052B     		cmp	r3, #5
ARM GAS  /tmp/ccB9eNXv.s 			page 12


 628 0054 0DD0     		beq	.L68
 629              	.L60:
 630              		.loc 1 285 0
 631 0056 1A4A     		ldr	r2, .L69+16
 632              		.loc 1 283 0
 633 0058 1A49     		ldr	r1, .L69+20
 634              		.loc 1 286 0
 635 005a 1B4D     		ldr	r5, .L69+24
 636              		.loc 1 287 0
 637 005c 1B48     		ldr	r0, .L69+28
 638              		.loc 1 285 0
 639 005e 0023     		movs	r3, #0
 640 0060 1360     		str	r3, [r2]	@ float
 641              		.loc 1 283 0
 642 0062 0022     		movs	r2, #0
 643 0064 0A70     		strb	r2, [r1]
 644              		.loc 1 288 0
 645 0066 1A49     		ldr	r1, .L69+32
 646              		.loc 1 284 0
 647 0068 2270     		strb	r2, [r4]
 648              		.loc 1 286 0
 649 006a 2B60     		str	r3, [r5]	@ float
 650              		.loc 1 287 0
 651 006c 0360     		str	r3, [r0]	@ float
 652              		.loc 1 288 0
 653 006e 0B60     		str	r3, [r1]	@ float
 654              		.loc 1 289 0
 655 0070 38BD     		pop	{r3, r4, r5, pc}
 656              	.L68:
 657              		.loc 1 271 0
 658 0072 184B     		ldr	r3, .L69+36
 659              		.loc 1 272 0
 660 0074 184D     		ldr	r5, .L69+40
 661              		.loc 1 271 0
 662 0076 0122     		movs	r2, #1
 663 0078 1A70     		strb	r2, [r3]
 664              		.loc 1 272 0
 665 007a 2B78     		ldrb	r3, [r5]	@ zero_extendqisi2
 666 007c 2BB1     		cbz	r3, .L61
 667              	.L62:
 668              		.loc 1 273 0
 669 007e 0A20     		movs	r0, #10
 670 0080 FFF7FEFF 		bl	chThdSleep
 671              	.LVL9:
 672              		.loc 1 272 0
 673 0084 2B78     		ldrb	r3, [r5]	@ zero_extendqisi2
 674 0086 002B     		cmp	r3, #0
 675 0088 F9D1     		bne	.L62
 676              	.L61:
 677              		.loc 1 276 0
 678 008a 2022     		movs	r2, #32
 679 008c 4FF48061 		mov	r1, #1024
 680 0090 1248     		ldr	r0, .L69+44
 681 0092 FFF7FEFF 		bl	_pal_lld_setgroupmode
 682              	.LVL10:
 683              		.loc 1 277 0
 684 0096 2022     		movs	r2, #32
ARM GAS  /tmp/ccB9eNXv.s 			page 13


 685 0098 4FF40061 		mov	r1, #2048
 686 009c 0F48     		ldr	r0, .L69+44
 687 009e FFF7FEFF 		bl	_pal_lld_setgroupmode
 688              	.LVL11:
 689              		.loc 1 279 0
 690 00a2 0322     		movs	r2, #3
 691 00a4 2021     		movs	r1, #32
 692 00a6 0E48     		ldr	r0, .L69+48
 693 00a8 FFF7FEFF 		bl	_pal_lld_setgroupmode
 694              	.LVL12:
 695 00ac D3E7     		b	.L60
 696              	.L70:
 697 00ae 00BF     		.align	2
 698              	.L69:
 699 00b0 00040040 		.word	1073742848
 700 00b4 00000000 		.word	.LANCHOR18
 701 00b8 00080240 		.word	1073874944
 702 00bc 00000000 		.word	SPID1
 703 00c0 00000000 		.word	.LANCHOR22
 704 00c4 00000000 		.word	.LANCHOR21
 705 00c8 00000000 		.word	.LANCHOR2
 706 00cc 00000000 		.word	.LANCHOR13
 707 00d0 00000000 		.word	.LANCHOR14
 708 00d4 00000000 		.word	.LANCHOR19
 709 00d8 00000000 		.word	.LANCHOR20
 710 00dc 00040240 		.word	1073873920
 711 00e0 00000240 		.word	1073872896
 712              		.cfi_endproc
 713              	.LFE275:
 714              		.size	encoder_deinit, .-encoder_deinit
 715              		.section	.text.encoder_init_abi,"ax",%progbits
 716              		.align	1
 717              		.p2align 4,,15
 718              		.global	encoder_init_abi
 719              		.syntax unified
 720              		.thumb
 721              		.thumb_func
 722              		.fpu fpv4-sp-d16
 723              		.type	encoder_init_abi, %function
 724              	encoder_init_abi:
 725              	.LFB276:
 726              		.loc 1 291 0
 727              		.cfi_startproc
 728              		@ args = 0, pretend = 0, frame = 8
 729              		@ frame_needed = 0, uses_anonymous_args = 0
 730              	.LVL13:
 731 0000 70B5     		push	{r4, r5, r6, lr}
 732              		.cfi_def_cfa_offset 16
 733              		.cfi_offset 4, -16
 734              		.cfi_offset 5, -12
 735              		.cfi_offset 6, -8
 736              		.cfi_offset 14, -4
 737              		.loc 1 296 0
 738 0002 284E     		ldr	r6, .L73
 739              		.loc 1 298 0
 740 0004 284C     		ldr	r4, .L73+4
 741              		.loc 1 295 0
ARM GAS  /tmp/ccB9eNXv.s 			page 14


 742 0006 294B     		ldr	r3, .L73+8
 743              		.loc 1 296 0
 744 0008 3060     		str	r0, [r6]
 745              		.loc 1 291 0
 746 000a 82B0     		sub	sp, sp, #8
 747              		.cfi_def_cfa_offset 24
 748              		.loc 1 295 0
 749 000c 0025     		movs	r5, #0
 750              		.loc 1 298 0
 751 000e 2046     		mov	r0, r4
 752              	.LVL14:
 753 0010 4FF48172 		mov	r2, #258
 754 0014 4021     		movs	r1, #64
 755              		.loc 1 295 0
 756 0016 1D70     		strb	r5, [r3]
 757              		.loc 1 298 0
 758 0018 FFF7FEFF 		bl	_pal_lld_setgroupmode
 759              	.LVL15:
 760              		.loc 1 299 0
 761 001c 4FF48172 		mov	r2, #258
 762 0020 2046     		mov	r0, r4
 763 0022 8021     		movs	r1, #128
 764 0024 FFF7FEFF 		bl	_pal_lld_setgroupmode
 765              	.LVL16:
 766              		.loc 1 303 0
 767 0028 0121     		movs	r1, #1
 768 002a 0220     		movs	r0, #2
 769              		.loc 1 308 0
 770 002c A4F50134 		sub	r4, r4, #132096
 771              		.loc 1 303 0
 772 0030 FFF7FEFF 		bl	RCC_APB1PeriphClockCmd
 773              	.LVL17:
 774              		.loc 1 306 0
 775 0034 0121     		movs	r1, #1
 776 0036 4FF48040 		mov	r0, #16384
 777 003a FFF7FEFF 		bl	RCC_APB2PeriphClockCmd
 778              	.LVL18:
 779              		.loc 1 308 0
 780 003e 2A46     		mov	r2, r5
 781 0040 2B46     		mov	r3, r5
 782 0042 2046     		mov	r0, r4
 783 0044 0321     		movs	r1, #3
 784 0046 FFF7FEFF 		bl	TIM_EncoderInterfaceConfig
 785              	.LVL19:
 786              		.loc 1 311 0
 787 004a 3168     		ldr	r1, [r6]
 788 004c 2046     		mov	r0, r4
 789 004e 0139     		subs	r1, r1, #1
 790 0050 FFF7FEFF 		bl	TIM_SetAutoreload
 791              	.LVL20:
 792              		.loc 1 314 0
 793 0054 A369     		ldr	r3, [r4, #24]
 794 0056 43F4C043 		orr	r3, r3, #24576
 795 005a 43F06003 		orr	r3, r3, #96
 796 005e A361     		str	r3, [r4, #24]
 797              		.loc 1 315 0
 798 0060 E369     		ldr	r3, [r4, #28]
ARM GAS  /tmp/ccB9eNXv.s 			page 15


 799 0062 43F06003 		orr	r3, r3, #96
 800 0066 E361     		str	r3, [r4, #28]
 801              		.loc 1 317 0
 802 0068 2046     		mov	r0, r4
 803 006a 0121     		movs	r1, #1
 804 006c FFF7FEFF 		bl	TIM_Cmd
 805              	.LVL21:
 806              		.loc 1 322 0
 807 0070 0821     		movs	r1, #8
 808 0072 0220     		movs	r0, #2
 809 0074 FFF7FEFF 		bl	SYSCFG_EXTILineConfig
 810              	.LVL22:
 811              		.loc 1 328 0
 812 0078 0124     		movs	r4, #1
 813              		.loc 1 325 0
 814 007a 4FF48072 		mov	r2, #256
 815              		.loc 1 327 0
 816 007e 0823     		movs	r3, #8
 817              		.loc 1 329 0
 818 0080 6846     		mov	r0, sp
 819              		.loc 1 327 0
 820 0082 8DF80530 		strb	r3, [sp, #5]
 821              		.loc 1 325 0
 822 0086 0092     		str	r2, [sp]
 823              		.loc 1 326 0
 824 0088 8DF80450 		strb	r5, [sp, #4]
 825              		.loc 1 328 0
 826 008c 8DF80640 		strb	r4, [sp, #6]
 827              		.loc 1 329 0
 828 0090 FFF7FEFF 		bl	EXTI_Init
 829              	.LVL23:
 830              		.loc 1 332 0
 831 0094 2946     		mov	r1, r5
 832 0096 1720     		movs	r0, #23
 833 0098 FFF7FEFF 		bl	nvicEnableVector
 834              	.LVL24:
 835              		.loc 1 334 0
 836 009c 044B     		ldr	r3, .L73+12
 837 009e 1C70     		strb	r4, [r3]
 838              		.loc 1 335 0
 839 00a0 02B0     		add	sp, sp, #8
 840              		.cfi_def_cfa_offset 16
 841              		@ sp needed
 842 00a2 70BD     		pop	{r4, r5, r6, pc}
 843              	.L74:
 844              		.align	2
 845              	.L73:
 846 00a4 00000000 		.word	.LANCHOR23
 847 00a8 00080240 		.word	1073874944
 848 00ac 00000000 		.word	.LANCHOR21
 849 00b0 00000000 		.word	.LANCHOR18
 850              		.cfi_endproc
 851              	.LFE276:
 852              		.size	encoder_init_abi, .-encoder_init_abi
 853              		.section	.text.encoder_init_as5047p_spi,"ax",%progbits
 854              		.align	1
 855              		.p2align 4,,15
ARM GAS  /tmp/ccB9eNXv.s 			page 16


 856              		.global	encoder_init_as5047p_spi
 857              		.syntax unified
 858              		.thumb
 859              		.thumb_func
 860              		.fpu fpv4-sp-d16
 861              		.type	encoder_init_as5047p_spi, %function
 862              	encoder_init_as5047p_spi:
 863              	.LFB277:
 864              		.loc 1 337 0
 865              		.cfi_startproc
 866              		@ args = 0, pretend = 0, frame = 16
 867              		@ frame_needed = 0, uses_anonymous_args = 0
 868 0000 30B5     		push	{r4, r5, lr}
 869              		.cfi_def_cfa_offset 12
 870              		.cfi_offset 4, -12
 871              		.cfi_offset 5, -8
 872              		.cfi_offset 14, -4
 873              		.loc 1 340 0
 874 0002 1E4D     		ldr	r5, .L77
 875              		.loc 1 359 0
 876 0004 1E4C     		ldr	r4, .L77+4
 877              		.loc 1 337 0
 878 0006 85B0     		sub	sp, sp, #20
 879              		.cfi_def_cfa_offset 32
 880              		.loc 1 340 0
 881 0008 2846     		mov	r0, r5
 882 000a 0022     		movs	r2, #0
 883 000c 8021     		movs	r1, #128
 884 000e FFF7FEFF 		bl	_pal_lld_setgroupmode
 885              	.LVL25:
 886              		.loc 1 341 0
 887 0012 2846     		mov	r0, r5
 888 0014 1922     		movs	r2, #25
 889 0016 4021     		movs	r1, #64
 890 0018 FFF7FEFF 		bl	_pal_lld_setgroupmode
 891              	.LVL26:
 892              		.loc 1 342 0
 893 001c 2846     		mov	r0, r5
 894 001e 1922     		movs	r2, #25
 895 0020 4FF48071 		mov	r1, #256
 896 0024 FFF7FEFF 		bl	_pal_lld_setgroupmode
 897              	.LVL27:
 898              		.loc 1 351 0
 899 0028 0121     		movs	r1, #1
 900 002a 0220     		movs	r0, #2
 901 002c FFF7FEFF 		bl	RCC_APB1PeriphClockCmd
 902              	.LVL28:
 903              		.loc 1 354 0
 904 0030 0023     		movs	r3, #0
 905              		.loc 1 359 0
 906 0032 2046     		mov	r0, r4
 907              		.loc 1 355 0
 908 0034 41F26702 		movw	r2, #4199
 909              		.loc 1 359 0
 910 0038 01A9     		add	r1, sp, #4
 911              		.loc 1 354 0
 912 003a 0193     		str	r3, [sp, #4]
ARM GAS  /tmp/ccB9eNXv.s 			page 17


 913              		.loc 1 356 0
 914 003c ADF80C30 		strh	r3, [sp, #12]	@ movhi
 915              		.loc 1 357 0
 916 0040 8DF80E30 		strb	r3, [sp, #14]
 917              		.loc 1 355 0
 918 0044 0292     		str	r2, [sp, #8]
 919              		.loc 1 359 0
 920 0046 FFF7FEFF 		bl	TIM_TimeBaseInit
 921              	.LVL29:
 922              		.loc 1 362 0
 923 004a 0122     		movs	r2, #1
 924 004c 1146     		mov	r1, r2
 925 004e 2046     		mov	r0, r4
 926 0050 FFF7FEFF 		bl	TIM_ITConfig
 927              	.LVL30:
 928              		.loc 1 365 0
 929 0054 2046     		mov	r0, r4
 930 0056 0121     		movs	r1, #1
 931 0058 FFF7FEFF 		bl	TIM_Cmd
 932              	.LVL31:
 933              		.loc 1 367 0
 934 005c 0621     		movs	r1, #6
 935 005e 1D20     		movs	r0, #29
 936 0060 FFF7FEFF 		bl	nvicEnableVector
 937              	.LVL32:
 938              		.loc 1 369 0
 939 0064 074C     		ldr	r4, .L77+8
 940              		.loc 1 370 0
 941 0066 0849     		ldr	r1, .L77+12
 942              		.loc 1 371 0
 943 0068 084B     		ldr	r3, .L77+16
 944 006a 0022     		movs	r2, #0
 945              		.loc 1 369 0
 946 006c 0225     		movs	r5, #2
 947              		.loc 1 370 0
 948 006e 0120     		movs	r0, #1
 949              		.loc 1 369 0
 950 0070 2570     		strb	r5, [r4]
 951              		.loc 1 370 0
 952 0072 0870     		strb	r0, [r1]
 953              		.loc 1 371 0
 954 0074 1A60     		str	r2, [r3]	@ float
 955              		.loc 1 373 0
 956 0076 05B0     		add	sp, sp, #20
 957              		.cfi_def_cfa_offset 12
 958              		@ sp needed
 959 0078 30BD     		pop	{r4, r5, pc}
 960              	.L78:
 961 007a 00BF     		.align	2
 962              	.L77:
 963 007c 00080240 		.word	1073874944
 964 0080 00040040 		.word	1073742848
 965 0084 00000000 		.word	.LANCHOR18
 966 0088 00000000 		.word	.LANCHOR21
 967 008c 00000000 		.word	.LANCHOR2
 968              		.cfi_endproc
 969              	.LFE277:
ARM GAS  /tmp/ccB9eNXv.s 			page 18


 970              		.size	encoder_init_as5047p_spi, .-encoder_init_as5047p_spi
 971              		.section	.text.encoder_init_mt6816_spi,"ax",%progbits
 972              		.align	1
 973              		.p2align 4,,15
 974              		.global	encoder_init_mt6816_spi
 975              		.syntax unified
 976              		.thumb
 977              		.thumb_func
 978              		.fpu fpv4-sp-d16
 979              		.type	encoder_init_mt6816_spi, %function
 980              	encoder_init_mt6816_spi:
 981              	.LFB278:
 982              		.loc 1 375 0
 983              		.cfi_startproc
 984              		@ args = 0, pretend = 0, frame = 16
 985              		@ frame_needed = 0, uses_anonymous_args = 0
 986 0000 30B5     		push	{r4, r5, lr}
 987              		.cfi_def_cfa_offset 12
 988              		.cfi_offset 4, -12
 989              		.cfi_offset 5, -8
 990              		.cfi_offset 14, -4
 991              		.loc 1 379 0
 992 0002 224D     		ldr	r5, .L81
 993              		.loc 1 399 0
 994 0004 224C     		ldr	r4, .L81+4
 995              		.loc 1 375 0
 996 0006 85B0     		sub	sp, sp, #20
 997              		.cfi_def_cfa_offset 32
 998              		.loc 1 379 0
 999 0008 2846     		mov	r0, r5
 1000 000a 40F21A32 		movw	r2, #794
 1001 000e 4021     		movs	r1, #64
 1002 0010 FFF7FEFF 		bl	_pal_lld_setgroupmode
 1003              	.LVL33:
 1004              		.loc 1 380 0
 1005 0014 2846     		mov	r0, r5
 1006 0016 40F21A32 		movw	r2, #794
 1007 001a 8021     		movs	r1, #128
 1008 001c FFF7FEFF 		bl	_pal_lld_setgroupmode
 1009              	.LVL34:
 1010              		.loc 1 381 0
 1011 0020 1922     		movs	r2, #25
 1012 0022 2846     		mov	r0, r5
 1013 0024 4FF48071 		mov	r1, #256
 1014 0028 FFF7FEFF 		bl	_pal_lld_setgroupmode
 1015              	.LVL35:
 1016              		.loc 1 388 0
 1017 002c 1949     		ldr	r1, .L81+8
 1018 002e 1A48     		ldr	r0, .L81+12
 1019 0030 FFF7FEFF 		bl	spiStart
 1020              	.LVL36:
 1021              		.loc 1 391 0
 1022 0034 0121     		movs	r1, #1
 1023 0036 0220     		movs	r0, #2
 1024 0038 FFF7FEFF 		bl	RCC_APB1PeriphClockCmd
 1025              	.LVL37:
 1026              		.loc 1 394 0
ARM GAS  /tmp/ccB9eNXv.s 			page 19


 1027 003c 0023     		movs	r3, #0
 1028              		.loc 1 399 0
 1029 003e 2046     		mov	r0, r4
 1030              		.loc 1 395 0
 1031 0040 41F26702 		movw	r2, #4199
 1032              		.loc 1 399 0
 1033 0044 01A9     		add	r1, sp, #4
 1034              		.loc 1 394 0
 1035 0046 0193     		str	r3, [sp, #4]
 1036              		.loc 1 396 0
 1037 0048 ADF80C30 		strh	r3, [sp, #12]	@ movhi
 1038              		.loc 1 397 0
 1039 004c 8DF80E30 		strb	r3, [sp, #14]
 1040              		.loc 1 395 0
 1041 0050 0292     		str	r2, [sp, #8]
 1042              		.loc 1 399 0
 1043 0052 FFF7FEFF 		bl	TIM_TimeBaseInit
 1044              	.LVL38:
 1045              		.loc 1 402 0
 1046 0056 0122     		movs	r2, #1
 1047 0058 1146     		mov	r1, r2
 1048 005a 2046     		mov	r0, r4
 1049 005c FFF7FEFF 		bl	TIM_ITConfig
 1050              	.LVL39:
 1051              		.loc 1 405 0
 1052 0060 2046     		mov	r0, r4
 1053 0062 0121     		movs	r1, #1
 1054 0064 FFF7FEFF 		bl	TIM_Cmd
 1055              	.LVL40:
 1056              		.loc 1 407 0
 1057 0068 0621     		movs	r1, #6
 1058 006a 1D20     		movs	r0, #29
 1059 006c FFF7FEFF 		bl	nvicEnableVector
 1060              	.LVL41:
 1061              		.loc 1 411 0
 1062 0070 0A48     		ldr	r0, .L81+16
 1063              		.loc 1 409 0
 1064 0072 0B4C     		ldr	r4, .L81+20
 1065              		.loc 1 410 0
 1066 0074 0B49     		ldr	r1, .L81+24
 1067              		.loc 1 412 0
 1068 0076 0C4A     		ldr	r2, .L81+28
 1069              		.loc 1 411 0
 1070 0078 0023     		movs	r3, #0
 1071 007a 0360     		str	r3, [r0]	@ float
 1072              		.loc 1 409 0
 1073 007c 0625     		movs	r5, #6
 1074              		.loc 1 410 0
 1075 007e 0120     		movs	r0, #1
 1076              		.loc 1 409 0
 1077 0080 2570     		strb	r5, [r4]
 1078              		.loc 1 410 0
 1079 0082 0870     		strb	r0, [r1]
 1080              		.loc 1 412 0
 1081 0084 1360     		str	r3, [r2]	@ float
 1082              		.loc 1 414 0
 1083 0086 05B0     		add	sp, sp, #20
ARM GAS  /tmp/ccB9eNXv.s 			page 20


 1084              		.cfi_def_cfa_offset 12
 1085              		@ sp needed
 1086 0088 30BD     		pop	{r4, r5, pc}
 1087              	.L82:
 1088 008a 00BF     		.align	2
 1089              	.L81:
 1090 008c 00080240 		.word	1073874944
 1091 0090 00040040 		.word	1073742848
 1092 0094 00000000 		.word	.LANCHOR24
 1093 0098 00000000 		.word	SPID1
 1094 009c 00000000 		.word	.LANCHOR2
 1095 00a0 00000000 		.word	.LANCHOR18
 1096 00a4 00000000 		.word	.LANCHOR21
 1097 00a8 00000000 		.word	.LANCHOR4
 1098              		.cfi_endproc
 1099              	.LFE278:
 1100              		.size	encoder_init_mt6816_spi, .-encoder_init_mt6816_spi
 1101              		.section	.text.encoder_init_ad2s1205_spi,"ax",%progbits
 1102              		.align	1
 1103              		.p2align 4,,15
 1104              		.global	encoder_init_ad2s1205_spi
 1105              		.syntax unified
 1106              		.thumb
 1107              		.thumb_func
 1108              		.fpu fpv4-sp-d16
 1109              		.type	encoder_init_ad2s1205_spi, %function
 1110              	encoder_init_ad2s1205_spi:
 1111              	.LFB279:
 1112              		.loc 1 416 0
 1113              		.cfi_startproc
 1114              		@ args = 0, pretend = 0, frame = 16
 1115              		@ frame_needed = 0, uses_anonymous_args = 0
 1116 0000 70B5     		push	{r4, r5, r6, lr}
 1117              		.cfi_def_cfa_offset 16
 1118              		.cfi_offset 4, -16
 1119              		.cfi_offset 5, -12
 1120              		.cfi_offset 6, -8
 1121              		.cfi_offset 14, -4
 1122              		.loc 1 419 0
 1123 0002 2248     		ldr	r0, .L85
 1124              		.loc 1 420 0
 1125 0004 224C     		ldr	r4, .L85+4
 1126              		.loc 1 421 0
 1127 0006 2349     		ldr	r1, .L85+8
 1128              		.loc 1 425 0
 1129 0008 234E     		ldr	r6, .L85+12
 1130              		.loc 1 422 0
 1131 000a 244A     		ldr	r2, .L85+16
 1132              		.loc 1 455 0
 1133 000c 244D     		ldr	r5, .L85+20
 1134              		.loc 1 419 0
 1135 000e 0023     		movs	r3, #0
 1136 0010 0360     		str	r3, [r0]	@ float
 1137              		.loc 1 420 0
 1138 0012 2360     		str	r3, [r4]	@ float
 1139              		.loc 1 421 0
 1140 0014 0B60     		str	r3, [r1]	@ float
ARM GAS  /tmp/ccB9eNXv.s 			page 21


 1141              		.loc 1 422 0
 1142 0016 0024     		movs	r4, #0
 1143              		.loc 1 423 0
 1144 0018 224B     		ldr	r3, .L85+24
 1145              		.loc 1 422 0
 1146 001a 1460     		str	r4, [r2]
 1147              		.loc 1 416 0
 1148 001c 84B0     		sub	sp, sp, #16
 1149              		.cfi_def_cfa_offset 32
 1150              		.loc 1 425 0
 1151 001e 3046     		mov	r0, r6
 1152 0020 2246     		mov	r2, r4
 1153 0022 8021     		movs	r1, #128
 1154              		.loc 1 423 0
 1155 0024 1C60     		str	r4, [r3]
 1156              		.loc 1 425 0
 1157 0026 FFF7FEFF 		bl	_pal_lld_setgroupmode
 1158              	.LVL42:
 1159              		.loc 1 426 0
 1160 002a 3046     		mov	r0, r6
 1161 002c 1922     		movs	r2, #25
 1162 002e 4021     		movs	r1, #64
 1163 0030 FFF7FEFF 		bl	_pal_lld_setgroupmode
 1164              	.LVL43:
 1165              		.loc 1 427 0
 1166 0034 1922     		movs	r2, #25
 1167 0036 3046     		mov	r0, r6
 1168 0038 4FF48071 		mov	r1, #256
 1169 003c FFF7FEFF 		bl	_pal_lld_setgroupmode
 1170              	.LVL44:
 1171              		.loc 1 447 0
 1172 0040 0121     		movs	r1, #1
 1173 0042 0220     		movs	r0, #2
 1174 0044 FFF7FEFF 		bl	RCC_APB1PeriphClockCmd
 1175              	.LVL45:
 1176              		.loc 1 451 0
 1177 0048 41F26703 		movw	r3, #4199
 1178              		.loc 1 455 0
 1179 004c 2846     		mov	r0, r5
 1180 004e 01A9     		add	r1, sp, #4
 1181              		.loc 1 451 0
 1182 0050 0293     		str	r3, [sp, #8]
 1183              		.loc 1 450 0
 1184 0052 0194     		str	r4, [sp, #4]
 1185              		.loc 1 452 0
 1186 0054 ADF80C40 		strh	r4, [sp, #12]	@ movhi
 1187              		.loc 1 453 0
 1188 0058 8DF80E40 		strb	r4, [sp, #14]
 1189              		.loc 1 455 0
 1190 005c FFF7FEFF 		bl	TIM_TimeBaseInit
 1191              	.LVL46:
 1192              		.loc 1 458 0
 1193 0060 0122     		movs	r2, #1
 1194 0062 1146     		mov	r1, r2
 1195 0064 2846     		mov	r0, r5
 1196 0066 FFF7FEFF 		bl	TIM_ITConfig
 1197              	.LVL47:
ARM GAS  /tmp/ccB9eNXv.s 			page 22


 1198              		.loc 1 461 0
 1199 006a 2846     		mov	r0, r5
 1200 006c 0121     		movs	r1, #1
 1201 006e FFF7FEFF 		bl	TIM_Cmd
 1202              	.LVL48:
 1203              		.loc 1 463 0
 1204 0072 0621     		movs	r1, #6
 1205 0074 1D20     		movs	r0, #29
 1206 0076 FFF7FEFF 		bl	nvicEnableVector
 1207              	.LVL49:
 1208              		.loc 1 465 0
 1209 007a 0B49     		ldr	r1, .L85+28
 1210              		.loc 1 466 0
 1211 007c 0B4B     		ldr	r3, .L85+32
 1212              		.loc 1 465 0
 1213 007e 0320     		movs	r0, #3
 1214              		.loc 1 466 0
 1215 0080 0122     		movs	r2, #1
 1216              		.loc 1 465 0
 1217 0082 0870     		strb	r0, [r1]
 1218              		.loc 1 466 0
 1219 0084 1A70     		strb	r2, [r3]
 1220              		.loc 1 467 0
 1221 0086 04B0     		add	sp, sp, #16
 1222              		.cfi_def_cfa_offset 16
 1223              		@ sp needed
 1224 0088 70BD     		pop	{r4, r5, r6, pc}
 1225              	.L86:
 1226 008a 00BF     		.align	2
 1227              	.L85:
 1228 008c 00000000 		.word	.LANCHOR5
 1229 0090 00000000 		.word	.LANCHOR6
 1230 0094 00000000 		.word	.LANCHOR7
 1231 0098 00080240 		.word	1073874944
 1232 009c 00000000 		.word	.LANCHOR8
 1233 00a0 00040040 		.word	1073742848
 1234 00a4 00000000 		.word	.LANCHOR10
 1235 00a8 00000000 		.word	.LANCHOR18
 1236 00ac 00000000 		.word	.LANCHOR21
 1237              		.cfi_endproc
 1238              	.LFE279:
 1239              		.size	encoder_init_ad2s1205_spi, .-encoder_init_ad2s1205_spi
 1240              		.section	.text.encoder_init_sincos,"ax",%progbits
 1241              		.align	1
 1242              		.p2align 4,,15
 1243              		.global	encoder_init_sincos
 1244              		.syntax unified
 1245              		.thumb
 1246              		.thumb_func
 1247              		.fpu fpv4-sp-d16
 1248              		.type	encoder_init_sincos, %function
 1249              	encoder_init_sincos:
 1250              	.LFB280:
 1251              		.loc 1 470 0
 1252              		.cfi_startproc
 1253              		@ args = 0, pretend = 0, frame = 0
 1254              		@ frame_needed = 0, uses_anonymous_args = 0
ARM GAS  /tmp/ccB9eNXv.s 			page 23


 1255              		@ link register save eliminated.
 1256              	.LVL50:
 1257 0000 70B4     		push	{r4, r5, r6}
 1258              		.cfi_def_cfa_offset 12
 1259              		.cfi_offset 4, -12
 1260              		.cfi_offset 5, -8
 1261              		.cfi_offset 6, -4
 1262              		.loc 1 480 0
 1263 0002 084B     		ldr	r3, .L89
 1264              		.loc 1 478 0
 1265 0004 084E     		ldr	r6, .L89+4
 1266              		.loc 1 479 0
 1267 0006 094D     		ldr	r5, .L89+8
 1268              		.loc 1 488 0
 1269 0008 094C     		ldr	r4, .L89+12
 1270              		.loc 1 489 0
 1271 000a 0A48     		ldr	r0, .L89+16
 1272              		.loc 1 481 0
 1273 000c 0A49     		ldr	r1, .L89+20
 1274              		.loc 1 480 0
 1275 000e 0022     		movs	r2, #0
 1276 0010 1A60     		str	r2, [r3]	@ float
 1277              		.loc 1 478 0
 1278 0012 0023     		movs	r3, #0
 1279 0014 3360     		str	r3, [r6]
 1280              		.loc 1 479 0
 1281 0016 2B60     		str	r3, [r5]
 1282              		.loc 1 488 0
 1283 0018 2370     		strb	r3, [r4]
 1284              		.loc 1 489 0
 1285 001a 0370     		strb	r3, [r0]
 1286              		.loc 1 481 0
 1287 001c 0A60     		str	r2, [r1]	@ float
 1288              		.loc 1 491 0
 1289 001e 70BC     		pop	{r4, r5, r6}
 1290              		.cfi_restore 6
 1291              		.cfi_restore 5
 1292              		.cfi_restore 4
 1293              		.cfi_def_cfa_offset 0
 1294 0020 7047     		bx	lr
 1295              	.L90:
 1296 0022 00BF     		.align	2
 1297              	.L89:
 1298 0024 00000000 		.word	.LANCHOR13
 1299 0028 00000000 		.word	.LANCHOR11
 1300 002c 00000000 		.word	.LANCHOR12
 1301 0030 00000000 		.word	.LANCHOR18
 1302 0034 00000000 		.word	.LANCHOR21
 1303 0038 00000000 		.word	.LANCHOR14
 1304              		.cfi_endproc
 1305              	.LFE280:
 1306              		.size	encoder_init_sincos, .-encoder_init_sincos
 1307              		.section	.text.encoder_init_ts5700n8501,"ax",%progbits
 1308              		.align	1
 1309              		.p2align 4,,15
 1310              		.global	encoder_init_ts5700n8501
 1311              		.syntax unified
ARM GAS  /tmp/ccB9eNXv.s 			page 24


 1312              		.thumb
 1313              		.thumb_func
 1314              		.fpu fpv4-sp-d16
 1315              		.type	encoder_init_ts5700n8501, %function
 1316              	encoder_init_ts5700n8501:
 1317              	.LFB281:
 1318              		.loc 1 493 0
 1319              		.cfi_startproc
 1320              		@ args = 0, pretend = 0, frame = 0
 1321              		@ frame_needed = 0, uses_anonymous_args = 0
 1322 0000 30B5     		push	{r4, r5, lr}
 1323              		.cfi_def_cfa_offset 12
 1324              		.cfi_offset 4, -12
 1325              		.cfi_offset 5, -8
 1326              		.cfi_offset 14, -4
 1327              		.loc 1 496 0
 1328 0002 0D4B     		ldr	r3, .L93
 1329              		.loc 1 498 0
 1330 0004 0D4D     		ldr	r5, .L93+4
 1331              		.loc 1 495 0
 1332 0006 0E49     		ldr	r1, .L93+8
 1333              		.loc 1 494 0
 1334 0008 0E4A     		ldr	r2, .L93+12
 1335              		.loc 1 497 0
 1336 000a 0F48     		ldr	r0, .L93+16
 1337              		.loc 1 493 0
 1338 000c 83B0     		sub	sp, sp, #12
 1339              		.cfi_def_cfa_offset 24
 1340              		.loc 1 496 0
 1341 000e 0024     		movs	r4, #0
 1342 0010 1C60     		str	r4, [r3]	@ float
 1343              		.loc 1 497 0
 1344 0012 0024     		movs	r4, #0
 1345              		.loc 1 495 0
 1346 0014 0123     		movs	r3, #1
 1347              		.loc 1 501 0
 1348 0016 0094     		str	r4, [sp]
 1349              		.loc 1 498 0
 1350 0018 2B70     		strb	r3, [r5]
 1351              		.loc 1 499 0
 1352 001a 0C4D     		ldr	r5, .L93+20
 1353              		.loc 1 495 0
 1354 001c 0B70     		strb	r3, [r1]
 1355              		.loc 1 494 0
 1356 001e 0521     		movs	r1, #5
 1357 0020 1170     		strb	r1, [r2]
 1358              		.loc 1 497 0
 1359 0022 0460     		str	r4, [r0]
 1360              		.loc 1 501 0
 1361 0024 0A4B     		ldr	r3, .L93+24
 1362              		.loc 1 499 0
 1363 0026 2C70     		strb	r4, [r5]
 1364              		.loc 1 501 0
 1365 0028 3622     		movs	r2, #54
 1366 002a 4FF46871 		mov	r1, #928
 1367 002e 0948     		ldr	r0, .L93+28
 1368 0030 FFF7FEFF 		bl	chThdCreateStatic
ARM GAS  /tmp/ccB9eNXv.s 			page 25


 1369              	.LVL51:
 1370              		.loc 1 503 0
 1371 0034 03B0     		add	sp, sp, #12
 1372              		.cfi_def_cfa_offset 12
 1373              		@ sp needed
 1374 0036 30BD     		pop	{r4, r5, pc}
 1375              	.L94:
 1376              		.align	2
 1377              	.L93:
 1378 0038 00000000 		.word	.LANCHOR2
 1379 003c 00000000 		.word	.LANCHOR20
 1380 0040 00000000 		.word	.LANCHOR21
 1381 0044 00000000 		.word	.LANCHOR18
 1382 0048 00000000 		.word	.LANCHOR0
 1383 004c 00000000 		.word	.LANCHOR19
 1384 0050 00000000 		.word	ts5700n8501_thread
 1385 0054 00000000 		.word	.LANCHOR25
 1386              		.cfi_endproc
 1387              	.LFE281:
 1388              		.size	encoder_init_ts5700n8501, .-encoder_init_ts5700n8501
 1389              		.section	.text.encoder_is_configured,"ax",%progbits
 1390              		.align	1
 1391              		.p2align 4,,15
 1392              		.global	encoder_is_configured
 1393              		.syntax unified
 1394              		.thumb
 1395              		.thumb_func
 1396              		.fpu fpv4-sp-d16
 1397              		.type	encoder_is_configured, %function
 1398              	encoder_is_configured:
 1399              	.LFB282:
 1400              		.loc 1 505 0
 1401              		.cfi_startproc
 1402              		@ args = 0, pretend = 0, frame = 0
 1403              		@ frame_needed = 0, uses_anonymous_args = 0
 1404              		@ link register save eliminated.
 1405              		.loc 1 506 0
 1406 0000 024B     		ldr	r3, .L96
 1407 0002 1878     		ldrb	r0, [r3]	@ zero_extendqisi2
 1408              		.loc 1 507 0
 1409 0004 0030     		adds	r0, r0, #0
 1410 0006 18BF     		it	ne
 1411 0008 0120     		movne	r0, #1
 1412 000a 7047     		bx	lr
 1413              	.L97:
 1414              		.align	2
 1415              	.L96:
 1416 000c 00000000 		.word	.LANCHOR18
 1417              		.cfi_endproc
 1418              	.LFE282:
 1419              		.size	encoder_is_configured, .-encoder_is_configured
 1420              		.section	.text.encoder_read_deg,"ax",%progbits
 1421              		.align	1
 1422              		.p2align 4,,15
 1423              		.global	encoder_read_deg
 1424              		.syntax unified
 1425              		.thumb
ARM GAS  /tmp/ccB9eNXv.s 			page 26


 1426              		.thumb_func
 1427              		.fpu fpv4-sp-d16
 1428              		.type	encoder_read_deg, %function
 1429              	encoder_read_deg:
 1430              	.LFB283:
 1431              		.loc 1 515 0
 1432              		.cfi_startproc
 1433              		@ args = 0, pretend = 0, frame = 0
 1434              		@ frame_needed = 0, uses_anonymous_args = 0
 1435              		@ link register save eliminated.
 1436              		.loc 1 518 0
 1437 0000 154B     		ldr	r3, .L107
 1438 0002 1B78     		ldrb	r3, [r3]	@ zero_extendqisi2
 1439 0004 062B     		cmp	r3, #6
 1440 0006 07D8     		bhi	.L102
 1441 0008 0122     		movs	r2, #1
 1442 000a 02FA03F3 		lsl	r3, r2, r3
 1443 000e 13F06C0F 		tst	r3, #108
 1444 0012 05D1     		bne	.L101
 1445 0014 9B07     		lsls	r3, r3, #30
 1446 0016 0AD4     		bmi	.L106
 1447              	.L102:
 1448 0018 104B     		ldr	r3, .L107+4
 1449 001a 93ED000A 		vldr.32	s0, [r3]
 1450 001e 7047     		bx	lr
 1451              	.L101:
 1452              		.loc 1 527 0
 1453 0020 0F4A     		ldr	r2, .L107+8
 1454 0022 0E4B     		ldr	r3, .L107+4
 1455 0024 92ED000A 		vldr.32	s0, [r2]
 1456 0028 83ED000A 		vstr.32	s0, [r3]
 1457              		.loc 1 565 0
 1458 002c 7047     		bx	lr
 1459              	.L106:
 1460              		.loc 1 520 0
 1461 002e 0D4A     		ldr	r2, .L107+12
 1462 0030 0D4B     		ldr	r3, .L107+16
 1463 0032 D2ED097A 		vldr.32	s15, [r2, #36]	@ int
 1464 0036 93ED007A 		vldr.32	s14, [r3]	@ int
 1465 003a DFED0C6A 		vldr.32	s13, .L107+20
 1466 003e 074B     		ldr	r3, .L107+4
 1467 0040 F8EE677A 		vcvt.f32.u32	s15, s15
 1468 0044 B8EE477A 		vcvt.f32.u32	s14, s14
 1469 0048 67EEA67A 		vmul.f32	s15, s15, s13
 1470 004c 87EE870A 		vdiv.f32	s0, s15, s14
 1471 0050 83ED000A 		vstr.32	s0, [r3]
 1472              		.loc 1 521 0
 1473 0054 7047     		bx	lr
 1474              	.L108:
 1475 0056 00BF     		.align	2
 1476              	.L107:
 1477 0058 00000000 		.word	.LANCHOR18
 1478 005c 00000000 		.word	.LANCHOR26
 1479 0060 00000000 		.word	.LANCHOR22
 1480 0064 00040040 		.word	1073742848
 1481 0068 00000000 		.word	.LANCHOR23
 1482 006c 0000B443 		.word	1135869952
ARM GAS  /tmp/ccB9eNXv.s 			page 27


 1483              		.cfi_endproc
 1484              	.LFE283:
 1485              		.size	encoder_read_deg, .-encoder_read_deg
 1486              		.section	.text.encoder_read_deg_multiturn,"ax",%progbits
 1487              		.align	1
 1488              		.p2align 4,,15
 1489              		.global	encoder_read_deg_multiturn
 1490              		.syntax unified
 1491              		.thumb
 1492              		.thumb_func
 1493              		.fpu fpv4-sp-d16
 1494              		.type	encoder_read_deg_multiturn, %function
 1495              	encoder_read_deg_multiturn:
 1496              	.LFB284:
 1497              		.loc 1 570 0
 1498              		.cfi_startproc
 1499              		@ args = 0, pretend = 0, frame = 0
 1500              		@ frame_needed = 0, uses_anonymous_args = 0
 1501 0000 08B5     		push	{r3, lr}
 1502              		.cfi_def_cfa_offset 8
 1503              		.cfi_offset 3, -8
 1504              		.cfi_offset 14, -4
 1505              		.loc 1 571 0
 1506 0002 1A4B     		ldr	r3, .L117
 1507 0004 1B78     		ldrb	r3, [r3]	@ zero_extendqisi2
 1508 0006 052B     		cmp	r3, #5
 1509 0008 2BD1     		bne	.L110
 1510              	.LBB377:
 1511              	.LBB378:
 1512              	.LBB379:
 1513              		.loc 1 241 0
 1514 000a 194A     		ldr	r2, .L117+4
 1515              	.LBE379:
 1516              	.LBE378:
 1517              		.loc 1 574 0
 1518 000c 9FED197A 		vldr.32	s14, .L117+8
 1519              	.LBB381:
 1520              	.LBB380:
 1521              		.loc 1 241 0
 1522 0010 1379     		ldrb	r3, [r2, #4]	@ zero_extendqisi2
 1523              		.loc 1 242 0
 1524 0012 5379     		ldrb	r3, [r2, #5]	@ zero_extendqisi2
 1525              	.LBE380:
 1526              	.LBE381:
 1527              	.LBB382:
 1528              	.LBB383:
 1529              		.loc 1 241 0
 1530 0014 1379     		ldrb	r3, [r2, #4]	@ zero_extendqisi2
 1531              		.loc 1 242 0
 1532 0016 5279     		ldrb	r2, [r2, #5]	@ zero_extendqisi2
 1533              		.loc 1 241 0
 1534 0018 43EA0223 		orr	r3, r3, r2, lsl #8
 1535              	.LBE383:
 1536              	.LBE382:
 1537              		.loc 1 573 0
 1538 001c 1BB2     		sxth	r3, r3
 1539 001e 07EE903A 		vmov	s15, r3	@ int
ARM GAS  /tmp/ccB9eNXv.s 			page 28


 1540 0022 F8EEE77A 		vcvt.f32.s32	s15, s15
 1541              	.LVL52:
 1542              		.loc 1 574 0
 1543 0026 F0EEE76A 		vabs.f32	s13, s15
 1544 002a F4EEC76A 		vcmpe.f32	s13, s14
 1545 002e F1EE10FA 		vmrs	APSR_nzcv, FPSCR
 1546 0032 13DD     		ble	.L116
 1547              	.LVL53:
 1548              	.LBB384:
 1549              	.LBB385:
 1550              		.loc 1 250 0
 1551 0034 104B     		ldr	r3, .L117+12
 1552 0036 0122     		movs	r2, #1
 1553 0038 B0EE476A 		vmov.f32	s12, s14
 1554 003c 1A70     		strb	r2, [r3]
 1555              	.LVL54:
 1556              	.L112:
 1557              	.LBE385:
 1558              	.LBE384:
 1559              		.loc 1 581 0
 1560 003e FFF7FEFF 		bl	encoder_read_deg
 1561              	.LVL55:
 1562 0042 DFED0E7A 		vldr.32	s15, .L117+16
 1563 0046 DFED0E6A 		vldr.32	s13, .L117+20
 1564 004a 66EE277A 		vmul.f32	s15, s12, s15
 1565 004e 80EE267A 		vdiv.f32	s14, s0, s13
 1566 0052 87EEA60A 		vdiv.f32	s0, s15, s13
 1567 0056 30EE070A 		vadd.f32	s0, s0, s14
 1568              	.LBE377:
 1569              		.loc 1 585 0
 1570 005a 08BD     		pop	{r3, pc}
 1571              	.LVL56:
 1572              	.L116:
 1573 005c 37EE876A 		vadd.f32	s12, s15, s14
 1574 0060 EDE7     		b	.L112
 1575              	.LVL57:
 1576              	.L110:
 1577 0062 BDE80840 		pop	{r3, lr}
 1578              		.cfi_restore 14
 1579              		.cfi_restore 3
 1580              		.cfi_def_cfa_offset 0
 1581              		.loc 1 583 0
 1582 0066 FFF7FEBF 		b	encoder_read_deg
 1583              	.LVL58:
 1584              	.L118:
 1585 006a 00BF     		.align	2
 1586              	.L117:
 1587 006c 00000000 		.word	.LANCHOR18
 1588 0070 00000000 		.word	.LANCHOR15
 1589 0074 00409C45 		.word	1167867904
 1590 0078 00000000 		.word	.LANCHOR17
 1591 007c 0000B443 		.word	1135869952
 1592 0080 00401C46 		.word	1176256512
 1593              		.cfi_endproc
 1594              	.LFE284:
 1595              		.size	encoder_read_deg_multiturn, .-encoder_read_deg_multiturn
 1596              		.section	.text.encoder_reset,"ax",%progbits
ARM GAS  /tmp/ccB9eNXv.s 			page 29


 1597              		.align	1
 1598              		.p2align 4,,15
 1599              		.global	encoder_reset
 1600              		.syntax unified
 1601              		.thumb
 1602              		.thumb_func
 1603              		.fpu fpv4-sp-d16
 1604              		.type	encoder_reset, %function
 1605              	encoder_reset:
 1606              	.LFB285:
 1607              		.loc 1 590 0
 1608              		.cfi_startproc
 1609              		@ args = 0, pretend = 0, frame = 0
 1610              		@ frame_needed = 0, uses_anonymous_args = 0
 1611              		@ link register save eliminated.
 1612              	.LBB386:
 1613              	.LBB387:
 1614              		.file 2 "ChibiOS_3.0.5/os/ext/CMSIS/include/core_cmInstr.h"
 1615              		.loc 2 327 0
 1616              		.syntax unified
 1617              	@ 327 "ChibiOS_3.0.5/os/ext/CMSIS/include/core_cmInstr.h" 1
 1618 0000 00BF     		nop
 1619              	@ 0 "" 2
 1620              		.thumb
 1621              		.syntax unified
 1622              	.LBE387:
 1623              	.LBE386:
 1624              	.LBB388:
 1625              	.LBB389:
 1626              		.syntax unified
 1627              	@ 327 "ChibiOS_3.0.5/os/ext/CMSIS/include/core_cmInstr.h" 1
 1628 0002 00BF     		nop
 1629              	@ 0 "" 2
 1630              		.thumb
 1631              		.syntax unified
 1632              	.LBE389:
 1633              	.LBE388:
 1634              	.LBB390:
 1635              	.LBB391:
 1636              		.syntax unified
 1637              	@ 327 "ChibiOS_3.0.5/os/ext/CMSIS/include/core_cmInstr.h" 1
 1638 0004 00BF     		nop
 1639              	@ 0 "" 2
 1640              		.thumb
 1641              		.syntax unified
 1642              	.LBE391:
 1643              	.LBE390:
 1644              	.LBB392:
 1645              	.LBB393:
 1646              		.syntax unified
 1647              	@ 327 "ChibiOS_3.0.5/os/ext/CMSIS/include/core_cmInstr.h" 1
 1648 0006 00BF     		nop
 1649              	@ 0 "" 2
 1650              		.thumb
 1651              		.syntax unified
 1652              	.LBE393:
 1653              	.LBE392:
ARM GAS  /tmp/ccB9eNXv.s 			page 30


 1654              		.loc 1 597 0
 1655 0008 144B     		ldr	r3, .L126
 1656 000a 1B69     		ldr	r3, [r3, #16]
 1657 000c DB05     		lsls	r3, r3, #23
 1658 000e 1DD5     		bpl	.L119
 1659              	.LBB394:
 1660              		.loc 1 602 0
 1661 0010 134A     		ldr	r2, .L126+4
 1662              		.loc 1 598 0
 1663 0012 1449     		ldr	r1, .L126+8
 1664              		.loc 1 602 0
 1665 0014 1378     		ldrb	r3, [r2]	@ zero_extendqisi2
 1666              		.loc 1 598 0
 1667 0016 486A     		ldr	r0, [r1, #36]
 1668              	.LVL59:
 1669              		.loc 1 602 0
 1670 0018 9BB1     		cbz	r3, .L122
 1671              		.loc 1 600 0
 1672 001a 1349     		ldr	r1, .L126+12
 1673 001c 134B     		ldr	r3, .L126+16
 1674 001e 0968     		ldr	r1, [r1]
 1675 0020 A3FB01C3 		umull	ip, r3, r3, r1
 1676 0024 1B09     		lsrs	r3, r3, #4
 1677              		.loc 1 604 0
 1678 0026 C91A     		subs	r1, r1, r3
 1679 0028 8142     		cmp	r1, r0
 1680 002a 10D3     		bcc	.L123
 1681              		.loc 1 604 0 is_stmt 0 discriminator 1
 1682 002c 9842     		cmp	r0, r3
 1683 002e 0ED3     		bcc	.L123
 1684              		.loc 1 608 0 is_stmt 1
 1685 0030 0F49     		ldr	r1, .L126+20
 1686 0032 0B68     		ldr	r3, [r1]
 1687 0034 0133     		adds	r3, r3, #1
 1688              		.loc 1 610 0
 1689 0036 052B     		cmp	r3, #5
 1690              		.loc 1 608 0
 1691 0038 0B60     		str	r3, [r1]
 1692              		.loc 1 610 0
 1693 003a 07DD     		ble	.L119
 1694              		.loc 1 611 0
 1695 003c 0023     		movs	r3, #0
 1696 003e 1370     		strb	r3, [r2]
 1697 0040 7047     		bx	lr
 1698              	.L122:
 1699              		.loc 1 617 0
 1700 0042 0B48     		ldr	r0, .L126+20
 1701              	.LVL60:
 1702              		.loc 1 615 0
 1703 0044 4B62     		str	r3, [r1, #36]
 1704              	.LVL61:
 1705              		.loc 1 616 0
 1706 0046 0121     		movs	r1, #1
 1707              		.loc 1 617 0
 1708 0048 0360     		str	r3, [r0]
 1709              		.loc 1 616 0
 1710 004a 1170     		strb	r1, [r2]
ARM GAS  /tmp/ccB9eNXv.s 			page 31


 1711              	.L119:
 1712              	.LBE394:
 1713              		.loc 1 620 0
 1714 004c 7047     		bx	lr
 1715              	.LVL62:
 1716              	.L123:
 1717              	.LBB395:
 1718              		.loc 1 605 0
 1719 004e 0549     		ldr	r1, .L126+8
 1720              		.loc 1 606 0
 1721 0050 074A     		ldr	r2, .L126+20
 1722              		.loc 1 605 0
 1723 0052 0023     		movs	r3, #0
 1724 0054 4B62     		str	r3, [r1, #36]
 1725              	.LVL63:
 1726              		.loc 1 606 0
 1727 0056 1360     		str	r3, [r2]
 1728 0058 7047     		bx	lr
 1729              	.L127:
 1730 005a 00BF     		.align	2
 1731              	.L126:
 1732 005c 00080240 		.word	1073874944
 1733 0060 00000000 		.word	.LANCHOR21
 1734 0064 00040040 		.word	1073742848
 1735 0068 00000000 		.word	.LANCHOR23
 1736 006c CDCCCCCC 		.word	-858993459
 1737 0070 00000000 		.word	.LANCHOR27
 1738              	.LBE395:
 1739              		.cfi_endproc
 1740              	.LFE285:
 1741              		.size	encoder_reset, .-encoder_reset
 1742              		.section	.text.encoder_AS504x_get_diag,"ax",%progbits
 1743              		.align	1
 1744              		.p2align 4,,15
 1745              		.global	encoder_AS504x_get_diag
 1746              		.syntax unified
 1747              		.thumb
 1748              		.thumb_func
 1749              		.fpu fpv4-sp-d16
 1750              		.type	encoder_AS504x_get_diag, %function
 1751              	encoder_AS504x_get_diag:
 1752              	.LFB288:
 1753              		.loc 1 750 0
 1754              		.cfi_startproc
 1755              		@ args = 0, pretend = 0, frame = 0
 1756              		@ frame_needed = 0, uses_anonymous_args = 0
 1757              		@ link register save eliminated.
 1758              	.LVL64:
 1759              		.loc 1 751 0
 1760 0000 064B     		ldr	r3, .L130
 1761              		.loc 1 750 0
 1762 0002 10B4     		push	{r4}
 1763              		.cfi_def_cfa_offset 4
 1764              		.cfi_offset 4, -4
 1765              		.loc 1 750 0
 1766 0004 0446     		mov	r4, r0
 1767              		.loc 1 751 0
ARM GAS  /tmp/ccB9eNXv.s 			page 32


 1768 0006 07CB     		ldmia	r3!, {r0, r1, r2}
 1769              	.LVL65:
 1770 0008 1B88     		ldrh	r3, [r3]	@ unaligned
 1771 000a 2060     		str	r0, [r4]	@ unaligned
 1772 000c A381     		strh	r3, [r4, #12]	@ unaligned
 1773              		.loc 1 752 0
 1774 000e 2046     		mov	r0, r4
 1775              		.loc 1 751 0
 1776 0010 6160     		str	r1, [r4, #4]	@ unaligned
 1777 0012 A260     		str	r2, [r4, #8]	@ unaligned
 1778              		.loc 1 752 0
 1779 0014 5DF8044B 		ldr	r4, [sp], #4
 1780              		.cfi_restore 4
 1781              		.cfi_def_cfa_offset 0
 1782              	.LVL66:
 1783 0018 7047     		bx	lr
 1784              	.L131:
 1785 001a 00BF     		.align	2
 1786              	.L130:
 1787 001c 00000000 		.word	.LANCHOR28
 1788              		.cfi_endproc
 1789              	.LFE288:
 1790              		.size	encoder_AS504x_get_diag, .-encoder_AS504x_get_diag
 1791              		.section	.text.encoder_tim_isr,"ax",%progbits
 1792              		.align	1
 1793              		.p2align 4,,15
 1794              		.global	encoder_tim_isr
 1795              		.syntax unified
 1796              		.thumb
 1797              		.thumb_func
 1798              		.fpu fpv4-sp-d16
 1799              		.type	encoder_tim_isr, %function
 1800              	encoder_tim_isr:
 1801              	.LFB289:
 1802              		.loc 1 754 0
 1803              		.cfi_startproc
 1804              		@ args = 0, pretend = 0, frame = 8
 1805              		@ frame_needed = 0, uses_anonymous_args = 0
 1806 0000 2DE9F041 		push	{r4, r5, r6, r7, r8, lr}
 1807              		.cfi_def_cfa_offset 24
 1808              		.cfi_offset 4, -24
 1809              		.cfi_offset 5, -20
 1810              		.cfi_offset 6, -16
 1811              		.cfi_offset 7, -12
 1812              		.cfi_offset 8, -8
 1813              		.cfi_offset 14, -4
 1814              		.loc 1 757 0
 1815 0004 C04C     		ldr	r4, .L169
 1816 0006 2378     		ldrb	r3, [r4]	@ zero_extendqisi2
 1817 0008 022B     		cmp	r3, #2
 1818              		.loc 1 754 0
 1819 000a 82B0     		sub	sp, sp, #8
 1820              		.cfi_def_cfa_offset 32
 1821              		.loc 1 757 0
 1822 000c 00F0C580 		beq	.L165
 1823              	.L133:
 1824              		.loc 1 819 0
ARM GAS  /tmp/ccB9eNXv.s 			page 33


 1825 0010 062B     		cmp	r3, #6
 1826 0012 7CD0     		beq	.L166
 1827              	.L141:
 1828              		.loc 1 853 0
 1829 0014 032B     		cmp	r3, #3
 1830 0016 02D0     		beq	.L167
 1831              	.L132:
 1832              		.loc 1 925 0
 1833 0018 02B0     		add	sp, sp, #8
 1834              		.cfi_remember_state
 1835              		.cfi_def_cfa_offset 24
 1836              		@ sp needed
 1837 001a BDE8F081 		pop	{r4, r5, r6, r7, r8, pc}
 1838              	.L167:
 1839              		.cfi_restore_state
 1840              	.LBB454:
 1841              		.loc 1 859 0
 1842 001e BB4C     		ldr	r4, .L169+4
 1843 0020 4023     		movs	r3, #64
 1844 0022 2383     		strh	r3, [r4, #24]	@ movhi
 1845              	.LBB455:
 1846              	.LBB456:
 1847              	.LBB457:
 1848              		.loc 2 327 0
 1849              		.syntax unified
 1850              	@ 327 "ChibiOS_3.0.5/os/ext/CMSIS/include/core_cmInstr.h" 1
 1851 0024 00BF     		nop
 1852              	@ 0 "" 2
 1853              		.thumb
 1854              		.syntax unified
 1855              	.LBE457:
 1856              	.LBE456:
 1857              	.LBB458:
 1858              	.LBB459:
 1859              		.syntax unified
 1860              	@ 327 "ChibiOS_3.0.5/os/ext/CMSIS/include/core_cmInstr.h" 1
 1861 0026 00BF     		nop
 1862              	@ 0 "" 2
 1863              		.thumb
 1864              		.syntax unified
 1865              	.LBE459:
 1866              	.LBE458:
 1867              	.LBB460:
 1868              	.LBB461:
 1869              		.syntax unified
 1870              	@ 327 "ChibiOS_3.0.5/os/ext/CMSIS/include/core_cmInstr.h" 1
 1871 0028 00BF     		nop
 1872              	@ 0 "" 2
 1873              		.thumb
 1874              		.syntax unified
 1875              	.LBE461:
 1876              	.LBE460:
 1877              	.LBB462:
 1878              	.LBB463:
 1879              		.syntax unified
 1880              	@ 327 "ChibiOS_3.0.5/os/ext/CMSIS/include/core_cmInstr.h" 1
 1881 002a 00BF     		nop
ARM GAS  /tmp/ccB9eNXv.s 			page 34


 1882              	@ 0 "" 2
 1883              		.thumb
 1884              		.syntax unified
 1885              	.LBE463:
 1886              	.LBE462:
 1887              	.LBE455:
 1888              	.LBB464:
 1889              	.LBB465:
 1890              		.loc 1 998 0
 1891 002c 4FF48075 		mov	r5, #256
 1892 0030 6583     		strh	r5, [r4, #26]	@ movhi
 1893              		.loc 1 999 0
 1894 0032 FFF7FEFF 		bl	spi_AS5047_cs_delay
 1895              	.LVL67:
 1896              	.LBE465:
 1897              	.LBE464:
 1898              	.LBB466:
 1899              	.LBB467:
 1900              	.LBB468:
 1901              		.loc 2 327 0
 1902              		.syntax unified
 1903              	@ 327 "ChibiOS_3.0.5/os/ext/CMSIS/include/core_cmInstr.h" 1
 1904 0036 00BF     		nop
 1905              	@ 0 "" 2
 1906              		.thumb
 1907              		.syntax unified
 1908              	.LBE468:
 1909              	.LBE467:
 1910              	.LBB469:
 1911              	.LBB470:
 1912              		.syntax unified
 1913              	@ 327 "ChibiOS_3.0.5/os/ext/CMSIS/include/core_cmInstr.h" 1
 1914 0038 00BF     		nop
 1915              	@ 0 "" 2
 1916              		.thumb
 1917              		.syntax unified
 1918              	.LBE470:
 1919              	.LBE469:
 1920              	.LBB471:
 1921              	.LBB472:
 1922              		.syntax unified
 1923              	@ 327 "ChibiOS_3.0.5/os/ext/CMSIS/include/core_cmInstr.h" 1
 1924 003a 00BF     		nop
 1925              	@ 0 "" 2
 1926              		.thumb
 1927              		.syntax unified
 1928              	.LBE472:
 1929              	.LBE471:
 1930              	.LBB473:
 1931              	.LBB474:
 1932              		.syntax unified
 1933              	@ 327 "ChibiOS_3.0.5/os/ext/CMSIS/include/core_cmInstr.h" 1
 1934 003c 00BF     		nop
 1935              	@ 0 "" 2
 1936              		.thumb
 1937              		.syntax unified
 1938              	.LBE474:
ARM GAS  /tmp/ccB9eNXv.s 			page 35


 1939              	.LBE473:
 1940              	.LBE466:
 1941              		.loc 1 864 0
 1942 003e 0DF10600 		add	r0, sp, #6
 1943 0042 FFF7FEFF 		bl	spi_transfer.isra.1.constprop.2
 1944              	.LVL68:
 1945              	.LBB475:
 1946              	.LBB476:
 1947              		.loc 1 1003 0
 1948 0046 2583     		strh	r5, [r4, #24]	@ movhi
 1949              		.loc 1 1004 0
 1950 0048 FFF7FEFF 		bl	spi_AS5047_cs_delay
 1951              	.LVL69:
 1952              	.LBE476:
 1953              	.LBE475:
 1954              		.loc 1 867 0
 1955 004c BDF80620 		ldrh	r2, [sp, #6]
 1956 0050 AF4B     		ldr	r3, .L169+8
 1957 0052 1A60     		str	r2, [r3]
 1958              	.LVL70:
 1959              		.loc 1 871 0
 1960 0054 1307     		lsls	r3, r2, #28
 1961 0056 DFD5     		bpl	.L132
 1962              	.LVL71:
 1963 0058 82EA1223 		eor	r3, r2, r2, lsr #8
 1964 005c 83EA1313 		eor	r3, r3, r3, lsr #4
 1965 0060 83EA9303 		eor	r3, r3, r3, lsr #2
 1966 0064 83EA5303 		eor	r3, r3, r3, lsr #1
 1967              	.LBB477:
 1968              		.loc 1 875 0
 1969 0068 12F00601 		ands	r1, r2, #6
 1970 006c 03F00103 		and	r3, r3, #1
 1971 0070 00F0AE81 		beq	.L156
 1972              		.loc 1 873 0
 1973 0074 82F00400 		eor	r0, r2, #4
 1974              		.loc 1 874 0
 1975 0078 82F00201 		eor	r1, r2, #2
 1976              		.loc 1 873 0
 1977 007c C0F38000 		ubfx	r0, r0, #2, #1
 1978              		.loc 1 874 0
 1979 0080 C1F34001 		ubfx	r1, r1, #1, #1
 1980 0084 0025     		movs	r5, #0
 1981              	.L147:
 1982              	.LVL72:
 1983 0086 A34C     		ldr	r4, .L169+12
 1984 0088 D4ED007A 		vldr.32	s15, [r4]
 1985              		.loc 1 883 0
 1986 008c 002B     		cmp	r3, #0
 1987 008e 00F02781 		beq	.L148
 1988              		.loc 1 884 0
 1989 0092 9FEDA17A 		vldr.32	s14, .L169+16
 1990 0096 E7EEC77A 		vfms.f32	s15, s15, s14
 1991              		.loc 1 877 0
 1992 009a 0123     		movs	r3, #1
 1993              		.loc 1 884 0
 1994 009c C4ED007A 		vstr.32	s15, [r4]
 1995              	.L149:
ARM GAS  /tmp/ccB9eNXv.s 			page 36


 1996              	.LVL73:
 1997 00a0 9E4C     		ldr	r4, .L169+20
 1998              		.loc 1 892 0
 1999 00a2 1209     		lsrs	r2, r2, #4
 2000              	.LVL74:
 2001 00a4 ADF80620 		strh	r2, [sp, #6]	@ movhi
 2002 00a8 D4ED007A 		vldr.32	s15, [r4]
 2003              		.loc 1 895 0
 2004 00ac 0029     		cmp	r1, #0
 2005 00ae 00F01081 		beq	.L150
 2006              	.LVL75:
 2007              		.loc 1 898 0
 2008 00b2 B7EE007A 		vmov.f32	s14, #1.0e+0
 2009 00b6 37EEC77A 		vsub.f32	s14, s15, s14
 2010 00ba DFED976A 		vldr.32	s13, .L169+16
 2011              		.loc 1 897 0
 2012 00be 984A     		ldr	r2, .L169+24
 2013              		.loc 1 898 0
 2014 00c0 E7EE667A 		vfms.f32	s15, s14, s13
 2015              		.loc 1 897 0
 2016 00c4 1368     		ldr	r3, [r2]
 2017 00c6 0133     		adds	r3, r3, #1
 2018 00c8 1360     		str	r3, [r2]
 2019              		.loc 1 898 0
 2020 00ca C4ED007A 		vstr.32	s15, [r4]
 2021              		.loc 1 896 0
 2022 00ce 0023     		movs	r3, #0
 2023              	.LVL76:
 2024              	.L151:
 2025 00d0 944A     		ldr	r2, .L169+28
 2026 00d2 9549     		ldr	r1, .L169+32
 2027              	.LVL77:
 2028 00d4 D2ED007A 		vldr.32	s15, [r2]
 2029 00d8 91ED007A 		vldr.32	s14, [r1]
 2030              		.loc 1 903 0
 2031 00dc 0028     		cmp	r0, #0
 2032 00de 00F0D080 		beq	.L152
 2033              	.LVL78:
 2034              		.loc 1 906 0
 2035 00e2 F7EE006A 		vmov.f32	s13, #1.0e+0
 2036 00e6 77EEE66A 		vsub.f32	s13, s15, s13
 2037 00ea 9FED8B6A 		vldr.32	s12, .L169+16
 2038              		.loc 1 905 0
 2039 00ee 8F48     		ldr	r0, .L169+36
 2040              	.LVL79:
 2041              		.loc 1 906 0
 2042 00f0 E6EEC67A 		vfms.f32	s15, s13, s12
 2043              		.loc 1 905 0
 2044 00f4 0368     		ldr	r3, [r0]
 2045 00f6 0133     		adds	r3, r3, #1
 2046              		.loc 1 906 0
 2047 00f8 C2ED007A 		vstr.32	s15, [r2]
 2048              		.loc 1 905 0
 2049 00fc 0360     		str	r3, [r0]
 2050              		.loc 1 911 0
 2051 00fe 002D     		cmp	r5, #0
 2052 0100 40F0C880 		bne	.L153
ARM GAS  /tmp/ccB9eNXv.s 			page 37


 2053              		.loc 1 916 0
 2054 0104 A7EE467A 		vfms.f32	s14, s14, s12
 2055 0108 81ED007A 		vstr.32	s14, [r1]
 2056 010c 84E7     		b	.L132
 2057              	.LVL80:
 2058              	.L166:
 2059              	.LBE477:
 2060              	.LBE454:
 2061              	.LBB482:
 2062              	.LBB483:
 2063              	.LBB484:
 2064              		.loc 1 998 0
 2065 010e 7F4E     		ldr	r6, .L169+4
 2066 0110 4FF48077 		mov	r7, #256
 2067 0114 7783     		strh	r7, [r6, #26]	@ movhi
 2068              		.loc 1 999 0
 2069 0116 FFF7FEFF 		bl	spi_AS5047_cs_delay
 2070              	.LVL81:
 2071              	.LBE484:
 2072              	.LBE483:
 2073              		.loc 1 826 0
 2074 011a 4FF40341 		mov	r1, #33536
 2075 011e 8448     		ldr	r0, .L169+40
 2076 0120 FFF7FEFF 		bl	spi_lld_polled_exchange
 2077              	.LVL82:
 2078              	.LBB485:
 2079              	.LBB486:
 2080              		.loc 1 1003 0
 2081 0124 3783     		strh	r7, [r6, #24]	@ movhi
 2082              	.LBE486:
 2083              	.LBE485:
 2084              		.loc 1 826 0
 2085 0126 8046     		mov	r8, r0
 2086              	.LVL83:
 2087              	.LBB488:
 2088              	.LBB487:
 2089              		.loc 1 1004 0
 2090 0128 FFF7FEFF 		bl	spi_AS5047_cs_delay
 2091              	.LVL84:
 2092              	.LBE487:
 2093              	.LBE488:
 2094              	.LBB489:
 2095              	.LBB490:
 2096              	.LBB491:
 2097              		.loc 2 327 0
 2098              		.syntax unified
 2099              	@ 327 "ChibiOS_3.0.5/os/ext/CMSIS/include/core_cmInstr.h" 1
 2100 012c 00BF     		nop
 2101              	@ 0 "" 2
 2102              		.thumb
 2103              		.syntax unified
 2104              	.LBE491:
 2105              	.LBE490:
 2106              	.LBB492:
 2107              	.LBB493:
 2108              		.syntax unified
 2109              	@ 327 "ChibiOS_3.0.5/os/ext/CMSIS/include/core_cmInstr.h" 1
ARM GAS  /tmp/ccB9eNXv.s 			page 38


 2110 012e 00BF     		nop
 2111              	@ 0 "" 2
 2112              		.thumb
 2113              		.syntax unified
 2114              	.LBE493:
 2115              	.LBE492:
 2116              	.LBB494:
 2117              	.LBB495:
 2118              		.syntax unified
 2119              	@ 327 "ChibiOS_3.0.5/os/ext/CMSIS/include/core_cmInstr.h" 1
 2120 0130 00BF     		nop
 2121              	@ 0 "" 2
 2122              		.thumb
 2123              		.syntax unified
 2124              	.LBE495:
 2125              	.LBE494:
 2126              	.LBB496:
 2127              	.LBB497:
 2128              		.syntax unified
 2129              	@ 327 "ChibiOS_3.0.5/os/ext/CMSIS/include/core_cmInstr.h" 1
 2130 0132 00BF     		nop
 2131              	@ 0 "" 2
 2132              		.thumb
 2133              		.syntax unified
 2134              	.LBE497:
 2135              	.LBE496:
 2136              	.LBE489:
 2137              	.LBB498:
 2138              	.LBB499:
 2139              		.loc 1 998 0
 2140 0134 7783     		strh	r7, [r6, #26]	@ movhi
 2141              		.loc 1 999 0
 2142 0136 FFF7FEFF 		bl	spi_AS5047_cs_delay
 2143              	.LVL85:
 2144              	.LBE499:
 2145              	.LBE498:
 2146              		.loc 1 830 0
 2147 013a 4FF40441 		mov	r1, #33792
 2148 013e 7C48     		ldr	r0, .L169+40
 2149 0140 FFF7FEFF 		bl	spi_lld_polled_exchange
 2150              	.LVL86:
 2151              	.LBB500:
 2152              	.LBB501:
 2153              		.loc 1 1003 0
 2154 0144 3783     		strh	r7, [r6, #24]	@ movhi
 2155              	.LBE501:
 2156              	.LBE500:
 2157              		.loc 1 830 0
 2158 0146 0546     		mov	r5, r0
 2159              	.LVL87:
 2160              	.LBB503:
 2161              	.LBB502:
 2162              		.loc 1 1004 0
 2163 0148 FFF7FEFF 		bl	spi_AS5047_cs_delay
 2164              	.LVL88:
 2165              	.LBE502:
 2166              	.LBE503:
ARM GAS  /tmp/ccB9eNXv.s 			page 39


 2167              		.loc 1 833 0
 2168 014c 45EA0820 		orr	r0, r5, r8, lsl #8
 2169 0150 80B2     		uxth	r0, r0
 2170              	.LBB504:
 2171              	.LBB505:
 2172              		.loc 1 624 0
 2173 0152 80EA1023 		eor	r3, r0, r0, lsr #8
 2174              		.loc 1 625 0
 2175 0156 83EA1313 		eor	r3, r3, r3, lsr #4
 2176              		.loc 1 626 0
 2177 015a 83EA9303 		eor	r3, r3, r3, lsr #2
 2178              	.LBE505:
 2179              	.LBE504:
 2180              		.loc 1 834 0
 2181 015e 6C4A     		ldr	r2, .L169+8
 2182              		.loc 1 833 0
 2183 0160 ADF80600 		strh	r0, [sp, #6]	@ movhi
 2184              	.LBB507:
 2185              	.LBB506:
 2186              		.loc 1 627 0
 2187 0164 83EA5303 		eor	r3, r3, r3, lsr #1
 2188              	.LBE506:
 2189              	.LBE507:
 2190              		.loc 1 836 0
 2191 0168 DD07     		lsls	r5, r3, #31
 2192              	.LVL89:
 2193              		.loc 1 834 0
 2194 016a 1060     		str	r0, [r2]
 2195              		.loc 1 836 0
 2196 016c 76D4     		bmi	.L142
 2197 016e 714A     		ldr	r2, .L169+44
 2198              		.loc 1 837 0
 2199 0170 8107     		lsls	r1, r0, #30
 2200 0172 D2ED007A 		vldr.32	s15, [r2]
 2201 0176 40F1F180 		bpl	.L143
 2202              		.loc 1 839 0
 2203 017a B7EE007A 		vmov.f32	s14, #1.0e+0
 2204 017e 37EEC77A 		vsub.f32	s14, s15, s14
 2205 0182 DFED656A 		vldr.32	s13, .L169+16
 2206              		.loc 1 838 0
 2207 0186 6C48     		ldr	r0, .L169+48
 2208 0188 2378     		ldrb	r3, [r4]	@ zero_extendqisi2
 2209 018a 0168     		ldr	r1, [r0]
 2210              		.loc 1 839 0
 2211 018c E7EE667A 		vfms.f32	s15, s14, s13
 2212              		.loc 1 838 0
 2213 0190 0131     		adds	r1, r1, #1
 2214 0192 0160     		str	r1, [r0]
 2215              		.loc 1 839 0
 2216 0194 C2ED007A 		vstr.32	s15, [r2]
 2217 0198 3CE7     		b	.L141
 2218              	.LVL90:
 2219              	.L165:
 2220              	.LBE482:
 2221              	.LBB508:
 2222              	.LBB509:
 2223              		.loc 1 998 0
ARM GAS  /tmp/ccB9eNXv.s 			page 40


 2224 019a 5C4D     		ldr	r5, .L169+4
 2225 019c 4FF48076 		mov	r6, #256
 2226 01a0 6E83     		strh	r6, [r5, #26]	@ movhi
 2227              		.loc 1 999 0
 2228 01a2 FFF7FEFF 		bl	spi_AS5047_cs_delay
 2229              	.LVL91:
 2230              	.LBE509:
 2231              	.LBE508:
 2232              		.loc 1 791 0
 2233 01a6 0DF10600 		add	r0, sp, #6
 2234 01aa FFF7FEFF 		bl	spi_transfer.isra.1.constprop.2
 2235              	.LVL92:
 2236              	.LBB510:
 2237              	.LBB511:
 2238              		.loc 1 1003 0
 2239 01ae 2E83     		strh	r6, [r5, #24]	@ movhi
 2240              		.loc 1 1004 0
 2241 01b0 FFF7FEFF 		bl	spi_AS5047_cs_delay
 2242              	.LVL93:
 2243              	.LBE511:
 2244              	.LBE510:
 2245              		.loc 1 793 0
 2246 01b4 BDF80620 		ldrh	r2, [sp, #6]
 2247 01b8 5548     		ldr	r0, .L169+8
 2248              		.loc 1 795 0
 2249 01ba 531E     		subs	r3, r2, #1
 2250 01bc 9BB2     		uxth	r3, r3
 2251 01be 4FF6FD71 		movw	r1, #65533
 2252 01c2 8B42     		cmp	r3, r1
 2253              		.loc 1 793 0
 2254 01c4 0260     		str	r2, [r0]
 2255              		.loc 1 795 0
 2256 01c6 31D8     		bhi	.L168
 2257              	.LBB512:
 2258              	.LBB513:
 2259              		.loc 1 742 0
 2260 01c8 5C49     		ldr	r1, .L169+52
 2261              	.LBE513:
 2262              	.LBE512:
 2263              		.loc 1 798 0
 2264 01ca 5D48     		ldr	r0, .L169+56
 2265              	.LBB517:
 2266              	.LBB514:
 2267              		.loc 1 742 0
 2268 01cc 0B68     		ldr	r3, [r1]
 2269              	.LBE514:
 2270              	.LBE517:
 2271              		.loc 1 798 0
 2272 01ce 0025     		movs	r5, #0
 2273 01d0 0560     		str	r5, [r0]
 2274              	.LVL94:
 2275              	.LBB518:
 2276              	.LBB515:
 2277              		.loc 1 742 0
 2278 01d2 002B     		cmp	r3, #0
 2279 01d4 00F09380 		beq	.L137
 2280              		.loc 1 743 0
ARM GAS  /tmp/ccB9eNXv.s 			page 41


 2281 01d8 013B     		subs	r3, r3, #1
 2282 01da 0B60     		str	r3, [r1]
 2283              	.LVL95:
 2284              	.L155:
 2285              	.LBE515:
 2286              	.LBE518:
 2287              	.LBB519:
 2288              	.LBB520:
 2289              		.loc 1 624 0
 2290 01dc 82EA1223 		eor	r3, r2, r2, lsr #8
 2291              	.LVL96:
 2292              		.loc 1 625 0
 2293 01e0 83EA1313 		eor	r3, r3, r3, lsr #4
 2294              	.LVL97:
 2295              		.loc 1 626 0
 2296 01e4 83EA9303 		eor	r3, r3, r3, lsr #2
 2297              	.LVL98:
 2298 01e8 4A49     		ldr	r1, .L169+12
 2299              		.loc 1 627 0
 2300 01ea 83EA5303 		eor	r3, r3, r3, lsr #1
 2301              	.LBE520:
 2302              	.LBE519:
 2303              		.loc 1 808 0
 2304 01ee DE07     		lsls	r6, r3, #31
 2305 01f0 D1ED007A 		vldr.32	s15, [r1]
 2306 01f4 5DD4     		bmi	.L140
 2307              		.loc 1 809 0
 2308 01f6 C2F30D02 		ubfx	r2, r2, #0, #14
 2309              		.loc 1 810 0
 2310 01fa 07EE102A 		vmov	s14, r2	@ int
 2311 01fe DFED515A 		vldr.32	s11, .L169+60
 2312              		.loc 1 811 0
 2313 0202 9FED456A 		vldr.32	s12, .L169+16
 2314              		.loc 1 810 0
 2315 0206 DFED506A 		vldr.32	s13, .L169+64
 2316 020a 5048     		ldr	r0, .L169+68
 2317              		.loc 1 809 0
 2318 020c ADF80620 		strh	r2, [sp, #6]	@ movhi
 2319              		.loc 1 810 0
 2320 0210 B8EE477A 		vcvt.f32.u32	s14, s14
 2321              		.loc 1 811 0
 2322 0214 E7EEC67A 		vfms.f32	s15, s15, s12
 2323 0218 2378     		ldrb	r3, [r4]	@ zero_extendqisi2
 2324              		.loc 1 810 0
 2325 021a 27EE257A 		vmul.f32	s14, s14, s11
 2326              		.loc 1 811 0
 2327 021e C1ED007A 		vstr.32	s15, [r1]
 2328              		.loc 1 810 0
 2329 0222 27EE267A 		vmul.f32	s14, s14, s13
 2330 0226 80ED007A 		vstr.32	s14, [r0]
 2331              		.loc 1 811 0
 2332 022a F1E6     		b	.L133
 2333              	.L168:
 2334              		.loc 1 796 0
 2335 022c 4449     		ldr	r1, .L169+56
 2336 022e 0B68     		ldr	r3, [r1]
 2337              		.loc 1 802 0
ARM GAS  /tmp/ccB9eNXv.s 			page 42


 2338 0230 44F61F60 		movw	r0, #19999
 2339              		.loc 1 796 0
 2340 0234 0133     		adds	r3, r3, #1
 2341              		.loc 1 802 0
 2342 0236 8342     		cmp	r3, r0
 2343              		.loc 1 796 0
 2344 0238 0B60     		str	r3, [r1]
 2345              		.loc 1 802 0
 2346 023a CFD9     		bls	.L155
 2347              	.LVL99:
 2348              	.LBB521:
 2349              	.LBB522:
 2350              	.LBB523:
 2351              		.loc 1 735 0
 2352 023c 3F48     		ldr	r0, .L169+52
 2353 023e 0368     		ldr	r3, [r0]
 2354 0240 0133     		adds	r3, r3, #1
 2355              		.loc 1 737 0
 2356 0242 042B     		cmp	r3, #4
 2357              		.loc 1 738 0
 2358 0244 84BF     		itt	hi
 2359 0246 0523     		movhi	r3, #5
 2360              		.loc 1 739 0
 2361 0248 414D     		ldrhi	r5, .L169+72
 2362              		.loc 1 738 0
 2363 024a 0360     		str	r3, [r0]
 2364              	.LVL100:
 2365              		.loc 1 739 0
 2366 024c 88BF     		it	hi
 2367 024e 0026     		movhi	r6, #0
 2368              	.LBE523:
 2369              	.LBE522:
 2370              	.LBE521:
 2371              		.loc 1 804 0
 2372 0250 44F62063 		movw	r3, #20000
 2373              	.LBB526:
 2374              	.LBB525:
 2375              	.LBB524:
 2376              		.loc 1 739 0
 2377 0254 88BF     		it	hi
 2378 0256 2E70     		strbhi	r6, [r5]
 2379              	.LBE524:
 2380              	.LBE525:
 2381              	.LBE526:
 2382              		.loc 1 804 0
 2383 0258 0B60     		str	r3, [r1]
 2384 025a BFE7     		b	.L155
 2385              	.LVL101:
 2386              	.L142:
 2387              	.LBB527:
 2388              		.loc 1 848 0
 2389 025c 2D49     		ldr	r1, .L169+12
 2390 025e DFED2E6A 		vldr.32	s13, .L169+16
 2391 0262 D1ED007A 		vldr.32	s15, [r1]
 2392              		.loc 1 847 0
 2393 0266 3B48     		ldr	r0, .L169+76
 2394 0268 2378     		ldrb	r3, [r4]	@ zero_extendqisi2
ARM GAS  /tmp/ccB9eNXv.s 			page 43


 2395 026a 0268     		ldr	r2, [r0]
 2396              		.loc 1 848 0
 2397 026c B7EE007A 		vmov.f32	s14, #1.0e+0
 2398 0270 37EEC77A 		vsub.f32	s14, s15, s14
 2399              		.loc 1 847 0
 2400 0274 0132     		adds	r2, r2, #1
 2401              		.loc 1 848 0
 2402 0276 E7EE667A 		vfms.f32	s15, s14, s13
 2403              		.loc 1 847 0
 2404 027a 0260     		str	r2, [r0]
 2405              		.loc 1 848 0
 2406 027c C1ED007A 		vstr.32	s15, [r1]
 2407 0280 C8E6     		b	.L141
 2408              	.LVL102:
 2409              	.L152:
 2410              	.LBE527:
 2411              	.LBB528:
 2412              	.LBB478:
 2413              		.loc 1 908 0
 2414 0282 DFED256A 		vldr.32	s13, .L169+16
 2415 0286 E7EEE67A 		vfms.f32	s15, s15, s13
 2416 028a C2ED007A 		vstr.32	s15, [r2]
 2417              		.loc 1 911 0
 2418 028e 002D     		cmp	r5, #0
 2419 0290 00F08580 		beq	.L154
 2420              	.LVL103:
 2421              	.L153:
 2422              		.loc 1 914 0
 2423 0294 F7EE007A 		vmov.f32	s15, #1.0e+0
 2424 0298 77EE677A 		vsub.f32	s15, s14, s15
 2425 029c DFED1E6A 		vldr.32	s13, .L169+16
 2426              		.loc 1 913 0
 2427 02a0 2D4A     		ldr	r2, .L169+80
 2428              		.loc 1 914 0
 2429 02a2 A7EEE67A 		vfms.f32	s14, s15, s13
 2430              		.loc 1 913 0
 2431 02a6 1368     		ldr	r3, [r2]
 2432 02a8 0133     		adds	r3, r3, #1
 2433              		.loc 1 914 0
 2434 02aa 81ED007A 		vstr.32	s14, [r1]
 2435              		.loc 1 913 0
 2436 02ae 1360     		str	r3, [r2]
 2437 02b0 B2E6     		b	.L132
 2438              	.LVL104:
 2439              	.L140:
 2440              	.LBE478:
 2441              	.LBE528:
 2442              		.loc 1 814 0
 2443 02b2 B7EE007A 		vmov.f32	s14, #1.0e+0
 2444 02b6 37EEC77A 		vsub.f32	s14, s15, s14
 2445 02ba DFED176A 		vldr.32	s13, .L169+16
 2446              		.loc 1 813 0
 2447 02be 2548     		ldr	r0, .L169+76
 2448 02c0 2378     		ldrb	r3, [r4]	@ zero_extendqisi2
 2449 02c2 0268     		ldr	r2, [r0]
 2450              		.loc 1 814 0
 2451 02c4 E7EE667A 		vfms.f32	s15, s14, s13
ARM GAS  /tmp/ccB9eNXv.s 			page 44


 2452              		.loc 1 813 0
 2453 02c8 0132     		adds	r2, r2, #1
 2454 02ca 0260     		str	r2, [r0]
 2455              		.loc 1 814 0
 2456 02cc C1ED007A 		vstr.32	s15, [r1]
 2457 02d0 9EE6     		b	.L133
 2458              	.LVL105:
 2459              	.L150:
 2460              	.LBB529:
 2461              	.LBB479:
 2462              		.loc 1 900 0
 2463 02d2 9FED117A 		vldr.32	s14, .L169+16
 2464 02d6 E7EEC77A 		vfms.f32	s15, s15, s14
 2465 02da C4ED007A 		vstr.32	s15, [r4]
 2466 02de F7E6     		b	.L151
 2467              	.LVL106:
 2468              	.L148:
 2469              		.loc 1 888 0
 2470 02e0 B7EE007A 		vmov.f32	s14, #1.0e+0
 2471 02e4 37EEC77A 		vsub.f32	s14, s15, s14
 2472 02e8 DFED0B6A 		vldr.32	s13, .L169+16
 2473              		.loc 1 887 0
 2474 02ec 194F     		ldr	r7, .L169+76
 2475              		.loc 1 888 0
 2476 02ee E7EE667A 		vfms.f32	s15, s14, s13
 2477              		.loc 1 887 0
 2478 02f2 3E68     		ldr	r6, [r7]
 2479 02f4 0136     		adds	r6, r6, #1
 2480              		.loc 1 888 0
 2481 02f6 C4ED007A 		vstr.32	s15, [r4]
 2482              		.loc 1 887 0
 2483 02fa 3E60     		str	r6, [r7]
 2484 02fc D0E6     		b	.L149
 2485              	.LVL107:
 2486              	.L137:
 2487              	.LBE479:
 2488              	.LBE529:
 2489              	.LBB530:
 2490              	.LBB516:
 2491              		.loc 1 745 0
 2492 02fe 144B     		ldr	r3, .L169+72
 2493 0300 0121     		movs	r1, #1
 2494 0302 1970     		strb	r1, [r3]
 2495 0304 6AE7     		b	.L155
 2496              	.L170:
 2497 0306 00BF     		.align	2
 2498              	.L169:
 2499 0308 00000000 		.word	.LANCHOR18
 2500 030c 00080240 		.word	1073874944
 2501 0310 00000000 		.word	.LANCHOR1
 2502 0314 00000000 		.word	.LANCHOR2
 2503 0318 17B75138 		.word	944879383
 2504 031c 00000000 		.word	.LANCHOR5
 2505 0320 00000000 		.word	.LANCHOR8
 2506 0324 00000000 		.word	.LANCHOR6
 2507 0328 00000000 		.word	.LANCHOR7
 2508 032c 00000000 		.word	.LANCHOR9
ARM GAS  /tmp/ccB9eNXv.s 			page 45


 2509 0330 00000000 		.word	SPID1
 2510 0334 00000000 		.word	.LANCHOR4
 2511 0338 00000000 		.word	.LANCHOR3
 2512 033c 00000000 		.word	.LANCHOR30
 2513 0340 00000000 		.word	.LANCHOR29
 2514 0344 0000B443 		.word	1135869952
 2515 0348 00008038 		.word	947912704
 2516 034c 00000000 		.word	.LANCHOR22
 2517 0350 00000000 		.word	.LANCHOR28
 2518 0354 00000000 		.word	.LANCHOR0
 2519 0358 00000000 		.word	.LANCHOR10
 2520              	.LVL108:
 2521              	.L143:
 2522              	.LBE516:
 2523              	.LBE530:
 2524              	.LBB531:
 2525              		.loc 1 841 0
 2526 035c 8008     		lsrs	r0, r0, #2
 2527              		.loc 1 843 0
 2528 035e 1E49     		ldr	r1, .L171
 2529 0360 9FED1E6A 		vldr.32	s12, .L171+4
 2530 0364 D1ED006A 		vldr.32	s13, [r1]
 2531              		.loc 1 842 0
 2532 0368 9FED1D5A 		vldr.32	s10, .L171+8
 2533 036c DFED1D5A 		vldr.32	s11, .L171+12
 2534 0370 1D4D     		ldr	r5, .L171+16
 2535 0372 2378     		ldrb	r3, [r4]	@ zero_extendqisi2
 2536              		.loc 1 841 0
 2537 0374 ADF80600 		strh	r0, [sp, #6]	@ movhi
 2538              		.loc 1 842 0
 2539 0378 07EE100A 		vmov	s14, r0	@ int
 2540 037c B8EE477A 		vcvt.f32.u32	s14, s14
 2541              		.loc 1 843 0
 2542 0380 E6EEC66A 		vfms.f32	s13, s13, s12
 2543              		.loc 1 842 0
 2544 0384 27EE057A 		vmul.f32	s14, s14, s10
 2545              		.loc 1 844 0
 2546 0388 E7EEC67A 		vfms.f32	s15, s15, s12
 2547              		.loc 1 842 0
 2548 038c 27EE257A 		vmul.f32	s14, s14, s11
 2549              		.loc 1 843 0
 2550 0390 C1ED006A 		vstr.32	s13, [r1]
 2551              		.loc 1 842 0
 2552 0394 85ED007A 		vstr.32	s14, [r5]
 2553              		.loc 1 844 0
 2554 0398 C2ED007A 		vstr.32	s15, [r2]
 2555 039c 3AE6     		b	.L141
 2556              	.LVL109:
 2557              	.L154:
 2558              	.LBE531:
 2559              	.LBB532:
 2560              	.LBB480:
 2561              		.loc 1 916 0
 2562 039e A7EE667A 		vfms.f32	s14, s14, s13
 2563 03a2 81ED007A 		vstr.32	s14, [r1]
 2564              		.loc 1 919 0
 2565 03a6 002B     		cmp	r3, #0
ARM GAS  /tmp/ccB9eNXv.s 			page 46


 2566 03a8 3FF436AE 		beq	.L132
 2567              		.loc 1 921 0
 2568 03ac BDF80630 		ldrh	r3, [sp, #6]
 2569              	.LVL110:
 2570 03b0 DFED0B6A 		vldr.32	s13, .L171+8
 2571 03b4 9FED0D7A 		vldr.32	s14, .L171+20
 2572 03b8 07EE903A 		vmov	s15, r3	@ int
 2573 03bc F8EE677A 		vcvt.f32.u32	s15, s15
 2574 03c0 094B     		ldr	r3, .L171+16
 2575 03c2 67EEA67A 		vmul.f32	s15, s15, s13
 2576 03c6 67EE877A 		vmul.f32	s15, s15, s14
 2577 03ca C3ED007A 		vstr.32	s15, [r3]
 2578              	.LBE480:
 2579              	.LBE532:
 2580              		.loc 1 925 0
 2581 03ce 23E6     		b	.L132
 2582              	.LVL111:
 2583              	.L156:
 2584              	.LBB533:
 2585              	.LBB481:
 2586              		.loc 1 880 0
 2587 03d0 0846     		mov	r0, r1
 2588              		.loc 1 875 0
 2589 03d2 0125     		movs	r5, #1
 2590 03d4 57E6     		b	.L147
 2591              	.L172:
 2592 03d6 00BF     		.align	2
 2593              	.L171:
 2594 03d8 00000000 		.word	.LANCHOR2
 2595 03dc 17B75138 		.word	944879383
 2596 03e0 0000B443 		.word	1135869952
 2597 03e4 00008038 		.word	947912704
 2598 03e8 00000000 		.word	.LANCHOR22
 2599 03ec 00008039 		.word	964689920
 2600              	.LBE481:
 2601              	.LBE533:
 2602              		.cfi_endproc
 2603              	.LFE289:
 2604              		.size	encoder_tim_isr, .-encoder_tim_isr
 2605              		.section	.text.encoder_set_counts,"ax",%progbits
 2606              		.align	1
 2607              		.p2align 4,,15
 2608              		.global	encoder_set_counts
 2609              		.syntax unified
 2610              		.thumb
 2611              		.thumb_func
 2612              		.fpu fpv4-sp-d16
 2613              		.type	encoder_set_counts, %function
 2614              	encoder_set_counts:
 2615              	.LFB290:
 2616              		.loc 1 933 0
 2617              		.cfi_startproc
 2618              		@ args = 0, pretend = 0, frame = 0
 2619              		@ frame_needed = 0, uses_anonymous_args = 0
 2620              	.LVL112:
 2621              		.loc 1 934 0
 2622 0000 074A     		ldr	r2, .L176
ARM GAS  /tmp/ccB9eNXv.s 			page 47


 2623              		.loc 1 933 0
 2624 0002 08B5     		push	{r3, lr}
 2625              		.cfi_def_cfa_offset 8
 2626              		.cfi_offset 3, -8
 2627              		.cfi_offset 14, -4
 2628              		.loc 1 934 0
 2629 0004 1368     		ldr	r3, [r2]
 2630 0006 8342     		cmp	r3, r0
 2631 0008 08D0     		beq	.L173
 2632 000a 0346     		mov	r3, r0
 2633              		.loc 1 936 0
 2634 000c 411E     		subs	r1, r0, #1
 2635 000e 0548     		ldr	r0, .L176+4
 2636              	.LVL113:
 2637              		.loc 1 935 0
 2638 0010 1360     		str	r3, [r2]
 2639              		.loc 1 936 0
 2640 0012 FFF7FEFF 		bl	TIM_SetAutoreload
 2641              	.LVL114:
 2642              		.loc 1 937 0
 2643 0016 044B     		ldr	r3, .L176+8
 2644 0018 0022     		movs	r2, #0
 2645 001a 1A70     		strb	r2, [r3]
 2646              	.L173:
 2647              		.loc 1 939 0
 2648 001c 08BD     		pop	{r3, pc}
 2649              	.L177:
 2650 001e 00BF     		.align	2
 2651              	.L176:
 2652 0020 00000000 		.word	.LANCHOR23
 2653 0024 00040040 		.word	1073742848
 2654 0028 00000000 		.word	.LANCHOR21
 2655              		.cfi_endproc
 2656              	.LFE290:
 2657              		.size	encoder_set_counts, .-encoder_set_counts
 2658              		.section	.text.encoder_index_found,"ax",%progbits
 2659              		.align	1
 2660              		.p2align 4,,15
 2661              		.global	encoder_index_found
 2662              		.syntax unified
 2663              		.thumb
 2664              		.thumb_func
 2665              		.fpu fpv4-sp-d16
 2666              		.type	encoder_index_found, %function
 2667              	encoder_index_found:
 2668              	.LFB291:
 2669              		.loc 1 947 0
 2670              		.cfi_startproc
 2671              		@ args = 0, pretend = 0, frame = 0
 2672              		@ frame_needed = 0, uses_anonymous_args = 0
 2673              		@ link register save eliminated.
 2674              		.loc 1 948 0
 2675 0000 014B     		ldr	r3, .L179
 2676              		.loc 1 949 0
 2677 0002 1878     		ldrb	r0, [r3]	@ zero_extendqisi2
 2678 0004 7047     		bx	lr
 2679              	.L180:
ARM GAS  /tmp/ccB9eNXv.s 			page 48


 2680 0006 00BF     		.align	2
 2681              	.L179:
 2682 0008 00000000 		.word	.LANCHOR21
 2683              		.cfi_endproc
 2684              	.LFE291:
 2685              		.size	encoder_index_found, .-encoder_index_found
 2686              		.section	.text.spi_AS5047_cs_delay,"ax",%progbits
 2687              		.align	1
 2688              		.p2align 4,,15
 2689              		.syntax unified
 2690              		.thumb
 2691              		.thumb_func
 2692              		.fpu fpv4-sp-d16
 2693              		.type	spi_AS5047_cs_delay, %function
 2694              	spi_AS5047_cs_delay:
 2695              	.LFB296:
 2696              		.loc 1 1014 0
 2697              		.cfi_startproc
 2698              		@ args = 0, pretend = 0, frame = 0
 2699              		@ frame_needed = 0, uses_anonymous_args = 0
 2700              		@ link register save eliminated.
 2701              	.LBB534:
 2702              	.LBB535:
 2703              		.loc 2 327 0
 2704              		.syntax unified
 2705              	@ 327 "ChibiOS_3.0.5/os/ext/CMSIS/include/core_cmInstr.h" 1
 2706 0000 00BF     		nop
 2707              	@ 0 "" 2
 2708              		.thumb
 2709              		.syntax unified
 2710              	.LBE535:
 2711              	.LBE534:
 2712              	.LBB536:
 2713              	.LBB537:
 2714              		.syntax unified
 2715              	@ 327 "ChibiOS_3.0.5/os/ext/CMSIS/include/core_cmInstr.h" 1
 2716 0002 00BF     		nop
 2717              	@ 0 "" 2
 2718              		.thumb
 2719              		.syntax unified
 2720              	.LBE537:
 2721              	.LBE536:
 2722              	.LBB538:
 2723              	.LBB539:
 2724              		.syntax unified
 2725              	@ 327 "ChibiOS_3.0.5/os/ext/CMSIS/include/core_cmInstr.h" 1
 2726 0004 00BF     		nop
 2727              	@ 0 "" 2
 2728              		.thumb
 2729              		.syntax unified
 2730              	.LBE539:
 2731              	.LBE538:
 2732              	.LBB540:
 2733              	.LBB541:
 2734              		.syntax unified
 2735              	@ 327 "ChibiOS_3.0.5/os/ext/CMSIS/include/core_cmInstr.h" 1
 2736 0006 00BF     		nop
ARM GAS  /tmp/ccB9eNXv.s 			page 49


 2737              	@ 0 "" 2
 2738              		.thumb
 2739              		.syntax unified
 2740              	.LBE541:
 2741              	.LBE540:
 2742              	.LBB542:
 2743              	.LBB543:
 2744              		.syntax unified
 2745              	@ 327 "ChibiOS_3.0.5/os/ext/CMSIS/include/core_cmInstr.h" 1
 2746 0008 00BF     		nop
 2747              	@ 0 "" 2
 2748              		.thumb
 2749              		.syntax unified
 2750              	.LBE543:
 2751              	.LBE542:
 2752              	.LBB544:
 2753              	.LBB545:
 2754              		.syntax unified
 2755              	@ 327 "ChibiOS_3.0.5/os/ext/CMSIS/include/core_cmInstr.h" 1
 2756 000a 00BF     		nop
 2757              	@ 0 "" 2
 2758              		.thumb
 2759              		.syntax unified
 2760              	.LBE545:
 2761              	.LBE544:
 2762              	.LBB546:
 2763              	.LBB547:
 2764              		.syntax unified
 2765              	@ 327 "ChibiOS_3.0.5/os/ext/CMSIS/include/core_cmInstr.h" 1
 2766 000c 00BF     		nop
 2767              	@ 0 "" 2
 2768              		.thumb
 2769              		.syntax unified
 2770              	.LBE547:
 2771              	.LBE546:
 2772              	.LBB548:
 2773              	.LBB549:
 2774              		.syntax unified
 2775              	@ 327 "ChibiOS_3.0.5/os/ext/CMSIS/include/core_cmInstr.h" 1
 2776 000e 00BF     		nop
 2777              	@ 0 "" 2
 2778              		.thumb
 2779              		.syntax unified
 2780              	.LBE549:
 2781              	.LBE548:
 2782              	.LBB550:
 2783              	.LBB551:
 2784              		.syntax unified
 2785              	@ 327 "ChibiOS_3.0.5/os/ext/CMSIS/include/core_cmInstr.h" 1
 2786 0010 00BF     		nop
 2787              	@ 0 "" 2
 2788              		.thumb
 2789              		.syntax unified
 2790              	.LBE551:
 2791              	.LBE550:
 2792              	.LBB552:
 2793              	.LBB553:
ARM GAS  /tmp/ccB9eNXv.s 			page 50


 2794              		.syntax unified
 2795              	@ 327 "ChibiOS_3.0.5/os/ext/CMSIS/include/core_cmInstr.h" 1
 2796 0012 00BF     		nop
 2797              	@ 0 "" 2
 2798              		.thumb
 2799              		.syntax unified
 2800              	.LBE553:
 2801              	.LBE552:
 2802              	.LBB554:
 2803              	.LBB555:
 2804              		.syntax unified
 2805              	@ 327 "ChibiOS_3.0.5/os/ext/CMSIS/include/core_cmInstr.h" 1
 2806 0014 00BF     		nop
 2807              	@ 0 "" 2
 2808              		.thumb
 2809              		.syntax unified
 2810              	.LBE555:
 2811              	.LBE554:
 2812              	.LBB556:
 2813              	.LBB557:
 2814              		.syntax unified
 2815              	@ 327 "ChibiOS_3.0.5/os/ext/CMSIS/include/core_cmInstr.h" 1
 2816 0016 00BF     		nop
 2817              	@ 0 "" 2
 2818              		.thumb
 2819              		.syntax unified
 2820              	.LBE557:
 2821              	.LBE556:
 2822              	.LBB558:
 2823              	.LBB559:
 2824              		.syntax unified
 2825              	@ 327 "ChibiOS_3.0.5/os/ext/CMSIS/include/core_cmInstr.h" 1
 2826 0018 00BF     		nop
 2827              	@ 0 "" 2
 2828              		.thumb
 2829              		.syntax unified
 2830              	.LBE559:
 2831              	.LBE558:
 2832              	.LBB560:
 2833              	.LBB561:
 2834              		.syntax unified
 2835              	@ 327 "ChibiOS_3.0.5/os/ext/CMSIS/include/core_cmInstr.h" 1
 2836 001a 00BF     		nop
 2837              	@ 0 "" 2
 2838              		.thumb
 2839              		.syntax unified
 2840              	.LBE561:
 2841              	.LBE560:
 2842              	.LBB562:
 2843              	.LBB563:
 2844              		.syntax unified
 2845              	@ 327 "ChibiOS_3.0.5/os/ext/CMSIS/include/core_cmInstr.h" 1
 2846 001c 00BF     		nop
 2847              	@ 0 "" 2
 2848              		.thumb
 2849              		.syntax unified
 2850              	.LBE563:
ARM GAS  /tmp/ccB9eNXv.s 			page 51


 2851              	.LBE562:
 2852              	.LBB564:
 2853              	.LBB565:
 2854              		.syntax unified
 2855              	@ 327 "ChibiOS_3.0.5/os/ext/CMSIS/include/core_cmInstr.h" 1
 2856 001e 00BF     		nop
 2857              	@ 0 "" 2
 2858              		.thumb
 2859              		.syntax unified
 2860              	.LBE565:
 2861              	.LBE564:
 2862              	.LBB566:
 2863              	.LBB567:
 2864              		.syntax unified
 2865              	@ 327 "ChibiOS_3.0.5/os/ext/CMSIS/include/core_cmInstr.h" 1
 2866 0020 00BF     		nop
 2867              	@ 0 "" 2
 2868              		.thumb
 2869              		.syntax unified
 2870              	.LBE567:
 2871              	.LBE566:
 2872              	.LBB568:
 2873              	.LBB569:
 2874              		.syntax unified
 2875              	@ 327 "ChibiOS_3.0.5/os/ext/CMSIS/include/core_cmInstr.h" 1
 2876 0022 00BF     		nop
 2877              	@ 0 "" 2
 2878              		.thumb
 2879              		.syntax unified
 2880              	.LBE569:
 2881              	.LBE568:
 2882              	.LBB570:
 2883              	.LBB571:
 2884              		.syntax unified
 2885              	@ 327 "ChibiOS_3.0.5/os/ext/CMSIS/include/core_cmInstr.h" 1
 2886 0024 00BF     		nop
 2887              	@ 0 "" 2
 2888              		.thumb
 2889              		.syntax unified
 2890              	.LBE571:
 2891              	.LBE570:
 2892              	.LBB572:
 2893              	.LBB573:
 2894              		.syntax unified
 2895              	@ 327 "ChibiOS_3.0.5/os/ext/CMSIS/include/core_cmInstr.h" 1
 2896 0026 00BF     		nop
 2897              	@ 0 "" 2
 2898              		.thumb
 2899              		.syntax unified
 2900              	.LBE573:
 2901              	.LBE572:
 2902              	.LBB574:
 2903              	.LBB575:
 2904              		.syntax unified
 2905              	@ 327 "ChibiOS_3.0.5/os/ext/CMSIS/include/core_cmInstr.h" 1
 2906 0028 00BF     		nop
 2907              	@ 0 "" 2
ARM GAS  /tmp/ccB9eNXv.s 			page 52


 2908              		.thumb
 2909              		.syntax unified
 2910              	.LBE575:
 2911              	.LBE574:
 2912              	.LBB576:
 2913              	.LBB577:
 2914              		.syntax unified
 2915              	@ 327 "ChibiOS_3.0.5/os/ext/CMSIS/include/core_cmInstr.h" 1
 2916 002a 00BF     		nop
 2917              	@ 0 "" 2
 2918              		.thumb
 2919              		.syntax unified
 2920              	.LBE577:
 2921              	.LBE576:
 2922              	.LBB578:
 2923              	.LBB579:
 2924              		.syntax unified
 2925              	@ 327 "ChibiOS_3.0.5/os/ext/CMSIS/include/core_cmInstr.h" 1
 2926 002c 00BF     		nop
 2927              	@ 0 "" 2
 2928              		.thumb
 2929              		.syntax unified
 2930              	.LBE579:
 2931              	.LBE578:
 2932              	.LBB580:
 2933              	.LBB581:
 2934              		.syntax unified
 2935              	@ 327 "ChibiOS_3.0.5/os/ext/CMSIS/include/core_cmInstr.h" 1
 2936 002e 00BF     		nop
 2937              	@ 0 "" 2
 2938              		.thumb
 2939              		.syntax unified
 2940              	.LBE581:
 2941              	.LBE580:
 2942              	.LBB582:
 2943              	.LBB583:
 2944              		.syntax unified
 2945              	@ 327 "ChibiOS_3.0.5/os/ext/CMSIS/include/core_cmInstr.h" 1
 2946 0030 00BF     		nop
 2947              	@ 0 "" 2
 2948              		.thumb
 2949              		.syntax unified
 2950              	.LBE583:
 2951              	.LBE582:
 2952              	.LBB584:
 2953              	.LBB585:
 2954              		.syntax unified
 2955              	@ 327 "ChibiOS_3.0.5/os/ext/CMSIS/include/core_cmInstr.h" 1
 2956 0032 00BF     		nop
 2957              	@ 0 "" 2
 2958              		.thumb
 2959              		.syntax unified
 2960              	.LBE585:
 2961              	.LBE584:
 2962              	.LBB586:
 2963              	.LBB587:
 2964              		.syntax unified
ARM GAS  /tmp/ccB9eNXv.s 			page 53


 2965              	@ 327 "ChibiOS_3.0.5/os/ext/CMSIS/include/core_cmInstr.h" 1
 2966 0034 00BF     		nop
 2967              	@ 0 "" 2
 2968              		.thumb
 2969              		.syntax unified
 2970              	.LBE587:
 2971              	.LBE586:
 2972              	.LBB588:
 2973              	.LBB589:
 2974              		.syntax unified
 2975              	@ 327 "ChibiOS_3.0.5/os/ext/CMSIS/include/core_cmInstr.h" 1
 2976 0036 00BF     		nop
 2977              	@ 0 "" 2
 2978              		.thumb
 2979              		.syntax unified
 2980              	.LBE589:
 2981              	.LBE588:
 2982              	.LBB590:
 2983              	.LBB591:
 2984              		.syntax unified
 2985              	@ 327 "ChibiOS_3.0.5/os/ext/CMSIS/include/core_cmInstr.h" 1
 2986 0038 00BF     		nop
 2987              	@ 0 "" 2
 2988              		.thumb
 2989              		.syntax unified
 2990              	.LBE591:
 2991              	.LBE590:
 2992              	.LBB592:
 2993              	.LBB593:
 2994              		.syntax unified
 2995              	@ 327 "ChibiOS_3.0.5/os/ext/CMSIS/include/core_cmInstr.h" 1
 2996 003a 00BF     		nop
 2997              	@ 0 "" 2
 2998              		.thumb
 2999              		.syntax unified
 3000              	.LBE593:
 3001              	.LBE592:
 3002              	.LBB594:
 3003              	.LBB595:
 3004              		.syntax unified
 3005              	@ 327 "ChibiOS_3.0.5/os/ext/CMSIS/include/core_cmInstr.h" 1
 3006 003c 00BF     		nop
 3007              	@ 0 "" 2
 3008              		.thumb
 3009              		.syntax unified
 3010              	.LBE595:
 3011              	.LBE594:
 3012              	.LBB596:
 3013              	.LBB597:
 3014              		.syntax unified
 3015              	@ 327 "ChibiOS_3.0.5/os/ext/CMSIS/include/core_cmInstr.h" 1
 3016 003e 00BF     		nop
 3017              	@ 0 "" 2
 3018              		.thumb
 3019              		.syntax unified
 3020              	.LBE597:
 3021              	.LBE596:
ARM GAS  /tmp/ccB9eNXv.s 			page 54


 3022              	.LBB598:
 3023              	.LBB599:
 3024              		.syntax unified
 3025              	@ 327 "ChibiOS_3.0.5/os/ext/CMSIS/include/core_cmInstr.h" 1
 3026 0040 00BF     		nop
 3027              	@ 0 "" 2
 3028              		.thumb
 3029              		.syntax unified
 3030              	.LBE599:
 3031              	.LBE598:
 3032              	.LBB600:
 3033              	.LBB601:
 3034              		.syntax unified
 3035              	@ 327 "ChibiOS_3.0.5/os/ext/CMSIS/include/core_cmInstr.h" 1
 3036 0042 00BF     		nop
 3037              	@ 0 "" 2
 3038              		.thumb
 3039              		.syntax unified
 3040              	.LBE601:
 3041              	.LBE600:
 3042              	.LBB602:
 3043              	.LBB603:
 3044              		.syntax unified
 3045              	@ 327 "ChibiOS_3.0.5/os/ext/CMSIS/include/core_cmInstr.h" 1
 3046 0044 00BF     		nop
 3047              	@ 0 "" 2
 3048              		.thumb
 3049              		.syntax unified
 3050              	.LBE603:
 3051              	.LBE602:
 3052              	.LBB604:
 3053              	.LBB605:
 3054              		.syntax unified
 3055              	@ 327 "ChibiOS_3.0.5/os/ext/CMSIS/include/core_cmInstr.h" 1
 3056 0046 00BF     		nop
 3057              	@ 0 "" 2
 3058              		.thumb
 3059              		.syntax unified
 3060              	.LBE605:
 3061              	.LBE604:
 3062              	.LBB606:
 3063              	.LBB607:
 3064              		.syntax unified
 3065              	@ 327 "ChibiOS_3.0.5/os/ext/CMSIS/include/core_cmInstr.h" 1
 3066 0048 00BF     		nop
 3067              	@ 0 "" 2
 3068              		.thumb
 3069              		.syntax unified
 3070              	.LBE607:
 3071              	.LBE606:
 3072              	.LBB608:
 3073              	.LBB609:
 3074              		.syntax unified
 3075              	@ 327 "ChibiOS_3.0.5/os/ext/CMSIS/include/core_cmInstr.h" 1
 3076 004a 00BF     		nop
 3077              	@ 0 "" 2
 3078              		.thumb
ARM GAS  /tmp/ccB9eNXv.s 			page 55


 3079              		.syntax unified
 3080              	.LBE609:
 3081              	.LBE608:
 3082              	.LBB610:
 3083              	.LBB611:
 3084              		.syntax unified
 3085              	@ 327 "ChibiOS_3.0.5/os/ext/CMSIS/include/core_cmInstr.h" 1
 3086 004c 00BF     		nop
 3087              	@ 0 "" 2
 3088              		.thumb
 3089              		.syntax unified
 3090              	.LBE611:
 3091              	.LBE610:
 3092              	.LBB612:
 3093              	.LBB613:
 3094              		.syntax unified
 3095              	@ 327 "ChibiOS_3.0.5/os/ext/CMSIS/include/core_cmInstr.h" 1
 3096 004e 00BF     		nop
 3097              	@ 0 "" 2
 3098              		.thumb
 3099              		.syntax unified
 3100              	.LBE613:
 3101              	.LBE612:
 3102              		.loc 1 1029 0
 3103 0050 7047     		bx	lr
 3104              		.cfi_endproc
 3105              	.LFE296:
 3106              		.size	spi_AS5047_cs_delay, .-spi_AS5047_cs_delay
 3107 0052 00BF     		.section	.text.TS5700N8501_delay_uart,"ax",%progbits
 3108              		.align	1
 3109              		.p2align 4
 3110              		.global	TS5700N8501_delay_uart
 3111              		.syntax unified
 3112              		.thumb
 3113              		.thumb_func
 3114              		.fpu fpv4-sp-d16
 3115              		.type	TS5700N8501_delay_uart, %function
 3116              	TS5700N8501_delay_uart:
 3117              	.LFB297:
 3118              		.loc 1 1034 0
 3119              		.cfi_startproc
 3120              		@ args = 0, pretend = 0, frame = 0
 3121              		@ frame_needed = 1, uses_anonymous_args = 0
 3122              		@ link register save eliminated.
 3123 0000 80B4     		push	{r7}
 3124              		.cfi_def_cfa_offset 4
 3125              		.cfi_offset 7, -4
 3126 0002 00AF     		add	r7, sp, #0
 3127              		.cfi_def_cfa_register 7
 3128              	.LBB614:
 3129              	.LBB615:
 3130              		.loc 2 327 0
 3131              		.syntax unified
 3132              	@ 327 "ChibiOS_3.0.5/os/ext/CMSIS/include/core_cmInstr.h" 1
 3133 0004 00BF     		nop
 3134              	@ 0 "" 2
 3135              		.thumb
ARM GAS  /tmp/ccB9eNXv.s 			page 56


 3136              		.syntax unified
 3137              	.LBE615:
 3138              	.LBE614:
 3139              	.LBB616:
 3140              	.LBB617:
 3141              		.syntax unified
 3142              	@ 327 "ChibiOS_3.0.5/os/ext/CMSIS/include/core_cmInstr.h" 1
 3143 0006 00BF     		nop
 3144              	@ 0 "" 2
 3145              		.thumb
 3146              		.syntax unified
 3147              	.LBE617:
 3148              	.LBE616:
 3149              	.LBB618:
 3150              	.LBB619:
 3151              		.syntax unified
 3152              	@ 327 "ChibiOS_3.0.5/os/ext/CMSIS/include/core_cmInstr.h" 1
 3153 0008 00BF     		nop
 3154              	@ 0 "" 2
 3155              		.thumb
 3156              		.syntax unified
 3157              	.LBE619:
 3158              	.LBE618:
 3159              	.LBB620:
 3160              	.LBB621:
 3161              		.syntax unified
 3162              	@ 327 "ChibiOS_3.0.5/os/ext/CMSIS/include/core_cmInstr.h" 1
 3163 000a 00BF     		nop
 3164              	@ 0 "" 2
 3165              		.thumb
 3166              		.syntax unified
 3167              	.LBE621:
 3168              	.LBE620:
 3169              	.LBB622:
 3170              	.LBB623:
 3171              		.syntax unified
 3172              	@ 327 "ChibiOS_3.0.5/os/ext/CMSIS/include/core_cmInstr.h" 1
 3173 000c 00BF     		nop
 3174              	@ 0 "" 2
 3175              		.thumb
 3176              		.syntax unified
 3177              	.LBE623:
 3178              	.LBE622:
 3179              	.LBB624:
 3180              	.LBB625:
 3181              		.syntax unified
 3182              	@ 327 "ChibiOS_3.0.5/os/ext/CMSIS/include/core_cmInstr.h" 1
 3183 000e 00BF     		nop
 3184              	@ 0 "" 2
 3185              		.thumb
 3186              		.syntax unified
 3187              	.LBE625:
 3188              	.LBE624:
 3189              	.LBB626:
 3190              	.LBB627:
 3191              		.syntax unified
 3192              	@ 327 "ChibiOS_3.0.5/os/ext/CMSIS/include/core_cmInstr.h" 1
ARM GAS  /tmp/ccB9eNXv.s 			page 57


 3193 0010 00BF     		nop
 3194              	@ 0 "" 2
 3195              		.thumb
 3196              		.syntax unified
 3197              	.LBE627:
 3198              	.LBE626:
 3199              	.LBB628:
 3200              	.LBB629:
 3201              		.syntax unified
 3202              	@ 327 "ChibiOS_3.0.5/os/ext/CMSIS/include/core_cmInstr.h" 1
 3203 0012 00BF     		nop
 3204              	@ 0 "" 2
 3205              		.thumb
 3206              		.syntax unified
 3207              	.LBE629:
 3208              	.LBE628:
 3209              	.LBB630:
 3210              	.LBB631:
 3211              		.syntax unified
 3212              	@ 327 "ChibiOS_3.0.5/os/ext/CMSIS/include/core_cmInstr.h" 1
 3213 0014 00BF     		nop
 3214              	@ 0 "" 2
 3215              		.thumb
 3216              		.syntax unified
 3217              	.LBE631:
 3218              	.LBE630:
 3219              	.LBB632:
 3220              	.LBB633:
 3221              		.syntax unified
 3222              	@ 327 "ChibiOS_3.0.5/os/ext/CMSIS/include/core_cmInstr.h" 1
 3223 0016 00BF     		nop
 3224              	@ 0 "" 2
 3225              		.thumb
 3226              		.syntax unified
 3227              	.LBE633:
 3228              	.LBE632:
 3229              	.LBB634:
 3230              	.LBB635:
 3231              		.syntax unified
 3232              	@ 327 "ChibiOS_3.0.5/os/ext/CMSIS/include/core_cmInstr.h" 1
 3233 0018 00BF     		nop
 3234              	@ 0 "" 2
 3235              		.thumb
 3236              		.syntax unified
 3237              	.LBE635:
 3238              	.LBE634:
 3239              	.LBB636:
 3240              	.LBB637:
 3241              		.syntax unified
 3242              	@ 327 "ChibiOS_3.0.5/os/ext/CMSIS/include/core_cmInstr.h" 1
 3243 001a 00BF     		nop
 3244              	@ 0 "" 2
 3245              		.thumb
 3246              		.syntax unified
 3247              	.LBE637:
 3248              	.LBE636:
 3249              	.LBB638:
ARM GAS  /tmp/ccB9eNXv.s 			page 58


 3250              	.LBB639:
 3251              		.syntax unified
 3252              	@ 327 "ChibiOS_3.0.5/os/ext/CMSIS/include/core_cmInstr.h" 1
 3253 001c 00BF     		nop
 3254              	@ 0 "" 2
 3255              		.thumb
 3256              		.syntax unified
 3257              	.LBE639:
 3258              	.LBE638:
 3259              	.LBB640:
 3260              	.LBB641:
 3261              		.syntax unified
 3262              	@ 327 "ChibiOS_3.0.5/os/ext/CMSIS/include/core_cmInstr.h" 1
 3263 001e 00BF     		nop
 3264              	@ 0 "" 2
 3265              		.thumb
 3266              		.syntax unified
 3267              	.LBE641:
 3268              	.LBE640:
 3269              	.LBB642:
 3270              	.LBB643:
 3271              		.syntax unified
 3272              	@ 327 "ChibiOS_3.0.5/os/ext/CMSIS/include/core_cmInstr.h" 1
 3273 0020 00BF     		nop
 3274              	@ 0 "" 2
 3275              		.thumb
 3276              		.syntax unified
 3277              	.LBE643:
 3278              	.LBE642:
 3279              	.LBB644:
 3280              	.LBB645:
 3281              		.syntax unified
 3282              	@ 327 "ChibiOS_3.0.5/os/ext/CMSIS/include/core_cmInstr.h" 1
 3283 0022 00BF     		nop
 3284              	@ 0 "" 2
 3285              		.thumb
 3286              		.syntax unified
 3287              	.LBE645:
 3288              	.LBE644:
 3289              	.LBB646:
 3290              	.LBB647:
 3291              		.syntax unified
 3292              	@ 327 "ChibiOS_3.0.5/os/ext/CMSIS/include/core_cmInstr.h" 1
 3293 0024 00BF     		nop
 3294              	@ 0 "" 2
 3295              		.thumb
 3296              		.syntax unified
 3297              	.LBE647:
 3298              	.LBE646:
 3299              		.loc 1 1041 0
 3300 0026 00BF     		nop
 3301 0028 BD46     		mov	sp, r7
 3302              		.cfi_def_cfa_register 13
 3303              		@ sp needed
 3304 002a 5DF8047B 		ldr	r7, [sp], #4
 3305              		.cfi_restore 7
 3306              		.cfi_def_cfa_offset 0
ARM GAS  /tmp/ccB9eNXv.s 			page 59


 3307 002e 7047     		bx	lr
 3308              		.cfi_endproc
 3309              	.LFE297:
 3310              		.size	TS5700N8501_delay_uart, .-TS5700N8501_delay_uart
 3311              		.section	.text.TS5700N8501_send_byte,"ax",%progbits
 3312              		.align	1
 3313              		.p2align 4
 3314              		.syntax unified
 3315              		.thumb
 3316              		.thumb_func
 3317              		.fpu fpv4-sp-d16
 3318              		.type	TS5700N8501_send_byte, %function
 3319              	TS5700N8501_send_byte:
 3320              	.LFB298:
 3321              		.loc 1 1050 0
 3322              		.cfi_startproc
 3323              		@ args = 0, pretend = 0, frame = 16
 3324              		@ frame_needed = 1, uses_anonymous_args = 0
 3325              	.LVL115:
 3326 0000 80B5     		push	{r7, lr}
 3327              		.cfi_def_cfa_offset 8
 3328              		.cfi_offset 7, -8
 3329              		.cfi_offset 14, -4
 3330 0002 84B0     		sub	sp, sp, #16
 3331              		.cfi_def_cfa_offset 24
 3332 0004 00AF     		add	r7, sp, #0
 3333              		.cfi_def_cfa_register 7
 3334 0006 0346     		mov	r3, r0
 3335 0008 FB71     		strb	r3, [r7, #7]
 3336              		.loc 1 1051 0
 3337 000a FFF7FEFF 		bl	utils_sys_lock_cnt
 3338              	.LVL116:
 3339              		.loc 1 1053 0
 3340 000e 2F4B     		ldr	r3, .L190
 3341 0010 2022     		movs	r2, #32
 3342 0012 1A83     		strh	r2, [r3, #24]	@ movhi
 3343              		.loc 1 1055 0
 3344 0014 FFF7FEFF 		bl	TS5700N8501_delay_uart
 3345              	.LVL117:
 3346              		.loc 1 1056 0
 3347 0018 2D4B     		ldr	r3, .L190+4
 3348 001a 4FF08062 		mov	r2, #67108864
 3349 001e 9A61     		str	r2, [r3, #24]
 3350              	.LBB648:
 3351              	.LBB649:
 3352              		.loc 2 327 0
 3353              		.syntax unified
 3354              	@ 327 "ChibiOS_3.0.5/os/ext/CMSIS/include/core_cmInstr.h" 1
 3355 0020 00BF     		nop
 3356              	@ 0 "" 2
 3357              		.thumb
 3358              		.syntax unified
 3359              	.LBE649:
 3360              	.LBE648:
 3361              	.LBB650:
 3362              	.LBB651:
 3363              		.syntax unified
ARM GAS  /tmp/ccB9eNXv.s 			page 60


 3364              	@ 327 "ChibiOS_3.0.5/os/ext/CMSIS/include/core_cmInstr.h" 1
 3365 0022 00BF     		nop
 3366              	@ 0 "" 2
 3367              		.thumb
 3368              		.syntax unified
 3369              	.LBE651:
 3370              	.LBE650:
 3371              	.LBB652:
 3372              	.LBB653:
 3373              		.syntax unified
 3374              	@ 327 "ChibiOS_3.0.5/os/ext/CMSIS/include/core_cmInstr.h" 1
 3375 0024 00BF     		nop
 3376              	@ 0 "" 2
 3377              		.thumb
 3378              		.syntax unified
 3379              	.LBE653:
 3380              	.LBE652:
 3381              	.LBB654:
 3382              	.LBB655:
 3383              		.syntax unified
 3384              	@ 327 "ChibiOS_3.0.5/os/ext/CMSIS/include/core_cmInstr.h" 1
 3385 0026 00BF     		nop
 3386              	@ 0 "" 2
 3387              		.thumb
 3388              		.syntax unified
 3389              	.LBE655:
 3390              	.LBE654:
 3391              	.LBB656:
 3392              	.LBB657:
 3393              		.syntax unified
 3394              	@ 327 "ChibiOS_3.0.5/os/ext/CMSIS/include/core_cmInstr.h" 1
 3395 0028 00BF     		nop
 3396              	@ 0 "" 2
 3397              		.thumb
 3398              		.syntax unified
 3399              	.LBE657:
 3400              	.LBE656:
 3401              	.LBB658:
 3402              	.LBB659:
 3403              		.syntax unified
 3404              	@ 327 "ChibiOS_3.0.5/os/ext/CMSIS/include/core_cmInstr.h" 1
 3405 002a 00BF     		nop
 3406              	@ 0 "" 2
 3407              		.thumb
 3408              		.syntax unified
 3409              	.LBE659:
 3410              	.LBE658:
 3411              	.LBB660:
 3412              	.LBB661:
 3413              		.syntax unified
 3414              	@ 327 "ChibiOS_3.0.5/os/ext/CMSIS/include/core_cmInstr.h" 1
 3415 002c 00BF     		nop
 3416              	@ 0 "" 2
 3417              		.thumb
 3418              		.syntax unified
 3419              	.LBE661:
 3420              	.LBE660:
ARM GAS  /tmp/ccB9eNXv.s 			page 61


 3421              	.LBB662:
 3422              	.LBB663:
 3423              		.syntax unified
 3424              	@ 327 "ChibiOS_3.0.5/os/ext/CMSIS/include/core_cmInstr.h" 1
 3425 002e 00BF     		nop
 3426              	@ 0 "" 2
 3427              		.thumb
 3428              		.syntax unified
 3429              	.LBE663:
 3430              	.LBE662:
 3431              	.LBB664:
 3432              	.LBB665:
 3433              		.syntax unified
 3434              	@ 327 "ChibiOS_3.0.5/os/ext/CMSIS/include/core_cmInstr.h" 1
 3435 0030 00BF     		nop
 3436              	@ 0 "" 2
 3437              		.thumb
 3438              		.syntax unified
 3439              	.LBE665:
 3440              	.LBE664:
 3441              	.LBB666:
 3442              	.LBB667:
 3443              		.syntax unified
 3444              	@ 327 "ChibiOS_3.0.5/os/ext/CMSIS/include/core_cmInstr.h" 1
 3445 0032 00BF     		nop
 3446              	@ 0 "" 2
 3447              		.thumb
 3448              		.syntax unified
 3449              	.LBE667:
 3450              	.LBE666:
 3451              	.LBB668:
 3452              	.LBB669:
 3453              		.syntax unified
 3454              	@ 327 "ChibiOS_3.0.5/os/ext/CMSIS/include/core_cmInstr.h" 1
 3455 0034 00BF     		nop
 3456              	@ 0 "" 2
 3457              		.thumb
 3458              		.syntax unified
 3459              	.LBE669:
 3460              	.LBE668:
 3461              	.LBB670:
 3462              	.LBB671:
 3463              		.syntax unified
 3464              	@ 327 "ChibiOS_3.0.5/os/ext/CMSIS/include/core_cmInstr.h" 1
 3465 0036 00BF     		nop
 3466              	@ 0 "" 2
 3467              		.thumb
 3468              		.syntax unified
 3469              	.LBE671:
 3470              	.LBE670:
 3471              	.LBB672:
 3472              	.LBB673:
 3473              		.syntax unified
 3474              	@ 327 "ChibiOS_3.0.5/os/ext/CMSIS/include/core_cmInstr.h" 1
 3475 0038 00BF     		nop
 3476              	@ 0 "" 2
 3477              		.thumb
ARM GAS  /tmp/ccB9eNXv.s 			page 62


 3478              		.syntax unified
 3479              	.LBE673:
 3480              	.LBE672:
 3481              	.LBB674:
 3482              	.LBB675:
 3483              		.syntax unified
 3484              	@ 327 "ChibiOS_3.0.5/os/ext/CMSIS/include/core_cmInstr.h" 1
 3485 003a 00BF     		nop
 3486              	@ 0 "" 2
 3487              		.thumb
 3488              		.syntax unified
 3489              	.LBE675:
 3490              	.LBE674:
 3491              	.LBB676:
 3492              	.LBB677:
 3493              		.syntax unified
 3494              	@ 327 "ChibiOS_3.0.5/os/ext/CMSIS/include/core_cmInstr.h" 1
 3495 003c 00BF     		nop
 3496              	@ 0 "" 2
 3497              		.thumb
 3498              		.syntax unified
 3499              	.LBE677:
 3500              	.LBE676:
 3501              	.LBB678:
 3502              		.loc 1 1062 0
 3503 003e 0023     		movs	r3, #0
 3504 0040 FB60     		str	r3, [r7, #12]
 3505              	.LVL118:
 3506 0042 1FE0     		b	.L184
 3507              	.L189:
 3508              		.loc 1 1063 0
 3509 0044 FA79     		ldrb	r2, [r7, #7]	@ zero_extendqisi2
 3510 0046 8021     		movs	r1, #128
 3511 0048 FB68     		ldr	r3, [r7, #12]
 3512              	.LVL119:
 3513 004a 41FA03F3 		asr	r3, r1, r3
 3514 004e 1340     		ands	r3, r3, r2
 3515 0050 002B     		cmp	r3, #0
 3516 0052 02D1     		bne	.L185
 3517              		.loc 1 1063 0 is_stmt 0 discriminator 1
 3518 0054 4FF08062 		mov	r2, #67108864
 3519 0058 00E0     		b	.L186
 3520              	.L185:
 3521              		.loc 1 1063 0 discriminator 2
 3522 005a 0022     		movs	r2, #0
 3523              	.L186:
 3524              		.loc 1 1063 0 discriminator 4
 3525 005c F979     		ldrb	r1, [r7, #7]	@ zero_extendqisi2
 3526 005e 8020     		movs	r0, #128
 3527 0060 FB68     		ldr	r3, [r7, #12]
 3528 0062 40FA03F3 		asr	r3, r0, r3
 3529 0066 0B40     		ands	r3, r3, r1
 3530 0068 002B     		cmp	r3, #0
 3531 006a 02D0     		beq	.L187
 3532              		.loc 1 1063 0 discriminator 5
 3533 006c 4FF48063 		mov	r3, #1024
 3534 0070 00E0     		b	.L188
ARM GAS  /tmp/ccB9eNXv.s 			page 63


 3535              	.L187:
 3536              		.loc 1 1063 0 discriminator 6
 3537 0072 0023     		movs	r3, #0
 3538              	.L188:
 3539              		.loc 1 1063 0 discriminator 8
 3540 0074 1649     		ldr	r1, .L190+4
 3541 0076 1343     		orrs	r3, r3, r2
 3542 0078 8B61     		str	r3, [r1, #24]
 3543              		.loc 1 1065 0 is_stmt 1 discriminator 8
 3544 007a FFF7FEFF 		bl	TS5700N8501_delay_uart
 3545              	.LVL120:
 3546              		.loc 1 1062 0 discriminator 8
 3547 007e FB68     		ldr	r3, [r7, #12]
 3548 0080 0133     		adds	r3, r3, #1
 3549 0082 FB60     		str	r3, [r7, #12]
 3550              	.LVL121:
 3551              	.L184:
 3552              		.loc 1 1062 0 is_stmt 0 discriminator 2
 3553 0084 FB68     		ldr	r3, [r7, #12]
 3554 0086 072B     		cmp	r3, #7
 3555 0088 DCDD     		ble	.L189
 3556              	.LBE678:
 3557              	.LBB679:
 3558              	.LBB680:
 3559              		.loc 2 327 0 is_stmt 1
 3560              		.syntax unified
 3561              	@ 327 "ChibiOS_3.0.5/os/ext/CMSIS/include/core_cmInstr.h" 1
 3562 008a 00BF     		nop
 3563              	@ 0 "" 2
 3564              		.thumb
 3565              		.syntax unified
 3566              	.LBE680:
 3567              	.LBE679:
 3568              	.LBB681:
 3569              	.LBB682:
 3570              		.syntax unified
 3571              	@ 327 "ChibiOS_3.0.5/os/ext/CMSIS/include/core_cmInstr.h" 1
 3572 008c 00BF     		nop
 3573              	@ 0 "" 2
 3574              		.thumb
 3575              		.syntax unified
 3576              	.LBE682:
 3577              	.LBE681:
 3578              	.LBB683:
 3579              	.LBB684:
 3580              		.syntax unified
 3581              	@ 327 "ChibiOS_3.0.5/os/ext/CMSIS/include/core_cmInstr.h" 1
 3582 008e 00BF     		nop
 3583              	@ 0 "" 2
 3584              		.thumb
 3585              		.syntax unified
 3586              	.LBE684:
 3587              	.LBE683:
 3588              	.LBB685:
 3589              	.LBB686:
 3590              		.syntax unified
 3591              	@ 327 "ChibiOS_3.0.5/os/ext/CMSIS/include/core_cmInstr.h" 1
ARM GAS  /tmp/ccB9eNXv.s 			page 64


 3592 0090 00BF     		nop
 3593              	@ 0 "" 2
 3594              		.thumb
 3595              		.syntax unified
 3596              	.LBE686:
 3597              	.LBE685:
 3598              	.LBB687:
 3599              	.LBB688:
 3600              		.syntax unified
 3601              	@ 327 "ChibiOS_3.0.5/os/ext/CMSIS/include/core_cmInstr.h" 1
 3602 0092 00BF     		nop
 3603              	@ 0 "" 2
 3604              		.thumb
 3605              		.syntax unified
 3606              	.LBE688:
 3607              	.LBE687:
 3608              	.LBB689:
 3609              	.LBB690:
 3610              		.syntax unified
 3611              	@ 327 "ChibiOS_3.0.5/os/ext/CMSIS/include/core_cmInstr.h" 1
 3612 0094 00BF     		nop
 3613              	@ 0 "" 2
 3614              		.thumb
 3615              		.syntax unified
 3616              	.LBE690:
 3617              	.LBE689:
 3618              	.LBB691:
 3619              	.LBB692:
 3620              		.syntax unified
 3621              	@ 327 "ChibiOS_3.0.5/os/ext/CMSIS/include/core_cmInstr.h" 1
 3622 0096 00BF     		nop
 3623              	@ 0 "" 2
 3624              		.thumb
 3625              		.syntax unified
 3626              	.LBE692:
 3627              	.LBE691:
 3628              	.LBB693:
 3629              	.LBB694:
 3630              		.syntax unified
 3631              	@ 327 "ChibiOS_3.0.5/os/ext/CMSIS/include/core_cmInstr.h" 1
 3632 0098 00BF     		nop
 3633              	@ 0 "" 2
 3634              		.thumb
 3635              		.syntax unified
 3636              	.LBE694:
 3637              	.LBE693:
 3638              	.LBB695:
 3639              	.LBB696:
 3640              		.syntax unified
 3641              	@ 327 "ChibiOS_3.0.5/os/ext/CMSIS/include/core_cmInstr.h" 1
 3642 009a 00BF     		nop
 3643              	@ 0 "" 2
 3644              		.thumb
 3645              		.syntax unified
 3646              	.LBE696:
 3647              	.LBE695:
 3648              	.LBB697:
ARM GAS  /tmp/ccB9eNXv.s 			page 65


 3649              	.LBB698:
 3650              		.syntax unified
 3651              	@ 327 "ChibiOS_3.0.5/os/ext/CMSIS/include/core_cmInstr.h" 1
 3652 009c 00BF     		nop
 3653              	@ 0 "" 2
 3654              		.thumb
 3655              		.syntax unified
 3656              	.LBE698:
 3657              	.LBE697:
 3658              	.LBB699:
 3659              	.LBB700:
 3660              		.syntax unified
 3661              	@ 327 "ChibiOS_3.0.5/os/ext/CMSIS/include/core_cmInstr.h" 1
 3662 009e 00BF     		nop
 3663              	@ 0 "" 2
 3664              		.thumb
 3665              		.syntax unified
 3666              	.LBE700:
 3667              	.LBE699:
 3668              	.LBB701:
 3669              	.LBB702:
 3670              		.syntax unified
 3671              	@ 327 "ChibiOS_3.0.5/os/ext/CMSIS/include/core_cmInstr.h" 1
 3672 00a0 00BF     		nop
 3673              	@ 0 "" 2
 3674              		.thumb
 3675              		.syntax unified
 3676              	.LBE702:
 3677              	.LBE701:
 3678              	.LBB703:
 3679              	.LBB704:
 3680              		.syntax unified
 3681              	@ 327 "ChibiOS_3.0.5/os/ext/CMSIS/include/core_cmInstr.h" 1
 3682 00a2 00BF     		nop
 3683              	@ 0 "" 2
 3684              		.thumb
 3685              		.syntax unified
 3686              	.LBE704:
 3687              	.LBE703:
 3688              	.LBB705:
 3689              	.LBB706:
 3690              		.syntax unified
 3691              	@ 327 "ChibiOS_3.0.5/os/ext/CMSIS/include/core_cmInstr.h" 1
 3692 00a4 00BF     		nop
 3693              	@ 0 "" 2
 3694              		.thumb
 3695              		.syntax unified
 3696              	.LBE706:
 3697              	.LBE705:
 3698              	.LBB707:
 3699              	.LBB708:
 3700              		.syntax unified
 3701              	@ 327 "ChibiOS_3.0.5/os/ext/CMSIS/include/core_cmInstr.h" 1
 3702 00a6 00BF     		nop
 3703              	@ 0 "" 2
 3704              		.thumb
 3705              		.syntax unified
ARM GAS  /tmp/ccB9eNXv.s 			page 66


 3706              	.LBE708:
 3707              	.LBE707:
 3708              	.LBB709:
 3709              	.LBB710:
 3710              		.syntax unified
 3711              	@ 327 "ChibiOS_3.0.5/os/ext/CMSIS/include/core_cmInstr.h" 1
 3712 00a8 00BF     		nop
 3713              	@ 0 "" 2
 3714              		.thumb
 3715              		.syntax unified
 3716              	.LBE710:
 3717              	.LBE709:
 3718              	.LBB711:
 3719              	.LBB712:
 3720              		.syntax unified
 3721              	@ 327 "ChibiOS_3.0.5/os/ext/CMSIS/include/core_cmInstr.h" 1
 3722 00aa 00BF     		nop
 3723              	@ 0 "" 2
 3724              		.thumb
 3725              		.syntax unified
 3726              	.LBE712:
 3727              	.LBE711:
 3728              	.LBB713:
 3729              	.LBB714:
 3730              		.syntax unified
 3731              	@ 327 "ChibiOS_3.0.5/os/ext/CMSIS/include/core_cmInstr.h" 1
 3732 00ac 00BF     		nop
 3733              	@ 0 "" 2
 3734              		.thumb
 3735              		.syntax unified
 3736              	.LBE714:
 3737              	.LBE713:
 3738              		.loc 1 1073 0
 3739 00ae 084B     		ldr	r3, .L190+4
 3740 00b0 4FF48062 		mov	r2, #1024
 3741 00b4 9A61     		str	r2, [r3, #24]
 3742              		.loc 1 1074 0
 3743 00b6 FFF7FEFF 		bl	TS5700N8501_delay_uart
 3744              	.LVL122:
 3745              		.loc 1 1076 0
 3746 00ba 044B     		ldr	r3, .L190
 3747 00bc 2022     		movs	r2, #32
 3748 00be 5A83     		strh	r2, [r3, #26]	@ movhi
 3749              		.loc 1 1078 0
 3750 00c0 FFF7FEFF 		bl	utils_sys_unlock_cnt
 3751              	.LVL123:
 3752              		.loc 1 1079 0
 3753 00c4 00BF     		nop
 3754 00c6 1037     		adds	r7, r7, #16
 3755              		.cfi_def_cfa_offset 8
 3756 00c8 BD46     		mov	sp, r7
 3757              		.cfi_def_cfa_register 13
 3758              	.LVL124:
 3759              		@ sp needed
 3760 00ca 80BD     		pop	{r7, pc}
 3761              	.L191:
 3762              		.align	2
ARM GAS  /tmp/ccB9eNXv.s 			page 67


 3763              	.L190:
 3764 00cc 00000240 		.word	1073872896
 3765 00d0 00040240 		.word	1073873920
 3766              		.cfi_endproc
 3767              	.LFE298:
 3768              		.size	TS5700N8501_send_byte, .-TS5700N8501_send_byte
 3769              		.section	.text.ts5700n8501_thread,"ax",%progbits
 3770              		.align	1
 3771              		.p2align 4,,15
 3772              		.syntax unified
 3773              		.thumb
 3774              		.thumb_func
 3775              		.fpu fpv4-sp-d16
 3776              		.type	ts5700n8501_thread, %function
 3777              	ts5700n8501_thread:
 3778              	.LFB299:
 3779              		.loc 1 1083 0
 3780              		.cfi_startproc
 3781              		@ args = 0, pretend = 0, frame = 16
 3782              		@ frame_needed = 0, uses_anonymous_args = 0
 3783              	.LVL125:
 3784 0000 2DE9F043 		push	{r4, r5, r6, r7, r8, r9, lr}
 3785              		.cfi_def_cfa_offset 28
 3786              		.cfi_offset 4, -28
 3787              		.cfi_offset 5, -24
 3788              		.cfi_offset 6, -20
 3789              		.cfi_offset 7, -16
 3790              		.cfi_offset 8, -12
 3791              		.cfi_offset 9, -8
 3792              		.cfi_offset 14, -4
 3793              	.LBB715:
 3794              	.LBB716:
 3795              		.file 3 "ChibiOS_3.0.5/os/rt/include/chregistry.h"
 3796              		.loc 3 135 0
 3797 0004 654B     		ldr	r3, .L223
 3798 0006 664A     		ldr	r2, .L223+4
 3799 0008 9B69     		ldr	r3, [r3, #24]
 3800              	.LBE716:
 3801              	.LBE715:
 3802              		.loc 1 1088 0
 3803 000a 6649     		ldr	r1, .L223+8
 3804 000c 6648     		ldr	r0, .L223+12
 3805              	.LVL126:
 3806              	.LBB718:
 3807              		.loc 1 1103 0
 3808 000e DFF8D081 		ldr	r8, .L223+68
 3809              	.LBE718:
 3810              		.loc 1 1083 0
 3811 0012 2DED048B 		vpush.64	{d8, d9}
 3812              		.cfi_def_cfa_offset 44
 3813              		.cfi_offset 80, -44
 3814              		.cfi_offset 81, -40
 3815              		.cfi_offset 82, -36
 3816              		.cfi_offset 83, -32
 3817              	.LBB724:
 3818              	.LBB717:
 3819              		.loc 3 135 0
ARM GAS  /tmp/ccB9eNXv.s 			page 68


 3820 0016 9A61     		str	r2, [r3, #24]
 3821              	.LVL127:
 3822              	.LBE717:
 3823              	.LBE724:
 3824              		.loc 1 1083 0
 3825 0018 85B0     		sub	sp, sp, #20
 3826              		.cfi_def_cfa_offset 64
 3827              		.loc 1 1088 0
 3828 001a FFF7FEFF 		bl	sdStart
 3829              	.LVL128:
 3830              		.loc 1 1089 0
 3831 001e 3922     		movs	r2, #57
 3832 0020 4FF48061 		mov	r1, #1024
 3833 0024 6148     		ldr	r0, .L223+16
 3834 0026 FFF7FEFF 		bl	_pal_lld_setgroupmode
 3835              	.LVL129:
 3836              		.loc 1 1092 0
 3837 002a 40F2BA32 		movw	r2, #954
 3838 002e 4FF40061 		mov	r1, #2048
 3839 0032 5E48     		ldr	r0, .L223+16
 3840 0034 FFF7FEFF 		bl	_pal_lld_setgroupmode
 3841              	.LVL130:
 3842              		.loc 1 1096 0
 3843 0038 3922     		movs	r2, #57
 3844 003a 2021     		movs	r1, #32
 3845 003c 5C48     		ldr	r0, .L223+20
 3846 003e FFF7FEFF 		bl	_pal_lld_setgroupmode
 3847              	.LVL131:
 3848              	.LBB725:
 3849              		.loc 1 1103 0
 3850 0042 98F80030 		ldrb	r3, [r8]	@ zero_extendqisi2
 3851 0046 002B     		cmp	r3, #0
 3852 0048 50D1     		bne	.L205
 3853 004a 5A4F     		ldr	r7, .L223+24
 3854 004c 5A4E     		ldr	r6, .L223+28
 3855 004e 5B4D     		ldr	r5, .L223+32
 3856              		.loc 1 1162 0
 3857 0050 9FED5B8A 		vldr.32	s16, .L223+36
 3858              	.LBB719:
 3859              		.loc 1 1149 0
 3860 0054 9FED5B9A 		vldr.32	s18, .L223+40
 3861 0058 DFED5B8A 		vldr.32	s17, .L223+44
 3862              	.L193:
 3863              	.LBE719:
 3864              		.loc 1 1108 0
 3865 005c 3B78     		ldrb	r3, [r7]	@ zero_extendqisi2
 3866 005e 002B     		cmp	r3, #0
 3867 0060 40F08C80 		bne	.L220
 3868              	.L194:
 3869              		.loc 1 1117 0
 3870 0064 3378     		ldrb	r3, [r6]	@ zero_extendqisi2
 3871 0066 002B     		cmp	r3, #0
 3872 0068 7DD1     		bne	.L221
 3873              	.L196:
 3874              		.loc 1 1126 0
 3875 006a 5820     		movs	r0, #88
 3876 006c FFF7FEFF 		bl	TS5700N8501_send_byte
ARM GAS  /tmp/ccB9eNXv.s 			page 69


 3877              	.LVL132:
 3878              		.loc 1 1128 0
 3879 0070 0220     		movs	r0, #2
 3880 0072 FFF7FEFF 		bl	chThdSleep
 3881              	.LVL133:
 3882              		.loc 1 1133 0
 3883 0076 0021     		movs	r1, #0
 3884 0078 5448     		ldr	r0, .L223+48
 3885 007a FFF7FEFF 		bl	chIQGetTimeout
 3886              	.LVL134:
 3887              		.loc 1 1134 0
 3888 007e 411C     		adds	r1, r0, #1
 3889              		.loc 1 1133 0
 3890 0080 0346     		mov	r3, r0
 3891              	.LVL135:
 3892              		.loc 1 1134 0
 3893 0082 00F08680 		beq	.L198
 3894              		.loc 1 1138 0
 3895 0086 DFF84491 		ldr	r9, .L223+48
 3896              		.loc 1 1131 0
 3897 008a 0024     		movs	r4, #0
 3898              	.LVL136:
 3899              	.L200:
 3900              		.loc 1 1135 0
 3901 008c 0A2C     		cmp	r4, #10
 3902              		.loc 1 1138 0
 3903 008e 4FF00001 		mov	r1, #0
 3904 0092 4846     		mov	r0, r9
 3905              	.LVL137:
 3906              		.loc 1 1135 0
 3907 0094 04DC     		bgt	.L199
 3908              		.loc 1 1136 0
 3909 0096 04AA     		add	r2, sp, #16
 3910 0098 2244     		add	r2, r2, r4
 3911 009a 0134     		adds	r4, r4, #1
 3912              	.LVL138:
 3913 009c 02F80C3C 		strb	r3, [r2, #-12]
 3914              	.LVL139:
 3915              	.L199:
 3916              		.loc 1 1138 0
 3917 00a0 FFF7FEFF 		bl	chIQGetTimeout
 3918              	.LVL140:
 3919              		.loc 1 1134 0
 3920 00a4 421C     		adds	r2, r0, #1
 3921              		.loc 1 1138 0
 3922 00a6 0346     		mov	r3, r0
 3923              	.LVL141:
 3924              		.loc 1 1134 0
 3925 00a8 F0D1     		bne	.L200
 3926              	.LVL142:
 3927              	.LBB720:
 3928              		.loc 1 1142 0
 3929 00aa 012C     		cmp	r4, #1
 3930 00ac 74D0     		beq	.L206
 3931 00ae 0DF10303 		add	r3, sp, #3
 3932 00b2 1819     		adds	r0, r3, r4
 3933              	.LVL143:
ARM GAS  /tmp/ccB9eNXv.s 			page 70


 3934 00b4 0022     		movs	r2, #0
 3935              	.LVL144:
 3936 00b6 01AB     		add	r3, sp, #4
 3937              	.LVL145:
 3938              	.L202:
 3939              		.loc 1 1143 0 discriminator 3
 3940 00b8 13F8011B 		ldrb	r1, [r3], #1	@ zero_extendqisi2
 3941              	.LVL146:
 3942              		.loc 1 1142 0 discriminator 3
 3943 00bc 9842     		cmp	r0, r3
 3944              		.loc 1 1143 0 discriminator 3
 3945 00be 82EA0102 		eor	r2, r2, r1
 3946              	.LVL147:
 3947              		.loc 1 1142 0 discriminator 3
 3948 00c2 F9D1     		bne	.L202
 3949              	.LVL148:
 3950              	.L201:
 3951              	.LBE720:
 3952              		.loc 1 1146 0
 3953 00c4 0B2C     		cmp	r4, #11
 3954 00c6 D5ED007A 		vldr.32	s15, [r5]
 3955 00ca 17D0     		beq	.L222
 3956              	.LVL149:
 3957              	.L203:
 3958              		.loc 1 1162 0
 3959 00cc B7EE007A 		vmov.f32	s14, #1.0e+0
 3960 00d0 37EEC77A 		vsub.f32	s14, s15, s14
 3961              		.loc 1 1161 0
 3962 00d4 3E4A     		ldr	r2, .L223+52
 3963              		.loc 1 1162 0
 3964 00d6 E7EE487A 		vfms.f32	s15, s14, s16
 3965              		.loc 1 1161 0
 3966 00da 1368     		ldr	r3, [r2]
 3967 00dc 0133     		adds	r3, r3, #1
 3968 00de 1360     		str	r3, [r2]
 3969              		.loc 1 1162 0
 3970 00e0 C5ED007A 		vstr.32	s15, [r5]
 3971              	.L204:
 3972              		.loc 1 1103 0
 3973 00e4 98F80030 		ldrb	r3, [r8]	@ zero_extendqisi2
 3974 00e8 002B     		cmp	r3, #0
 3975 00ea B7D0     		beq	.L193
 3976              	.L205:
 3977              		.loc 1 1104 0
 3978 00ec 394B     		ldr	r3, .L223+56
 3979 00ee 0022     		movs	r2, #0
 3980 00f0 1A70     		strb	r2, [r3]
 3981              	.LBE725:
 3982              		.loc 1 1165 0
 3983 00f2 05B0     		add	sp, sp, #20
 3984              		.cfi_remember_state
 3985              		.cfi_def_cfa_offset 44
 3986              		@ sp needed
 3987 00f4 BDEC048B 		vldm	sp!, {d8-d9}
 3988              		.cfi_restore 82
 3989              		.cfi_restore 83
 3990              		.cfi_restore 80
ARM GAS  /tmp/ccB9eNXv.s 			page 71


 3991              		.cfi_restore 81
 3992              		.cfi_def_cfa_offset 28
 3993 00f8 BDE8F083 		pop	{r4, r5, r6, r7, r8, r9, pc}
 3994              	.LVL150:
 3995              	.L222:
 3996              		.cfi_restore_state
 3997              	.LBB726:
 3998              		.loc 1 1146 0 discriminator 1
 3999 00fc 9DF80E30 		ldrb	r3, [sp, #14]	@ zero_extendqisi2
 4000 0100 9342     		cmp	r3, r2
 4001 0102 E3D1     		bne	.L203
 4002              	.LBB721:
 4003              		.loc 1 1152 0
 4004 0104 344B     		ldr	r3, .L223+60
 4005              		.loc 1 1147 0
 4006 0106 9DF80810 		ldrb	r1, [sp, #8]	@ zero_extendqisi2
 4007 010a 9DF80700 		ldrb	r0, [sp, #7]	@ zero_extendqisi2
 4008              		.loc 1 1152 0
 4009 010e 9DF80520 		ldrb	r2, [sp, #5]	@ zero_extendqisi2
 4010 0112 1A70     		strb	r2, [r3]
 4011              		.loc 1 1147 0
 4012 0114 9DF80640 		ldrb	r4, [sp, #6]	@ zero_extendqisi2
 4013              	.LVL151:
 4014              		.loc 1 1148 0
 4015 0118 DFF8C8C0 		ldr	ip, .L223+72
 4016              		.loc 1 1153 0
 4017 011c 5C70     		strb	r4, [r3, #1]
 4018              		.loc 1 1147 0
 4019 011e 0A04     		lsls	r2, r1, #16
 4020 0120 02EB0022 		add	r2, r2, r0, lsl #8
 4021 0124 2244     		add	r2, r2, r4
 4022              	.LVL152:
 4023              		.loc 1 1149 0
 4024 0126 07EE102A 		vmov	s14, r2	@ int
 4025              		.loc 1 1150 0
 4026 012a E7EEC87A 		vfms.f32	s15, s15, s16
 4027              		.loc 1 1154 0
 4028 012e 9870     		strb	r0, [r3, #2]
 4029              		.loc 1 1155 0
 4030 0130 D970     		strb	r1, [r3, #3]
 4031              		.loc 1 1149 0
 4032 0132 B8EEC77A 		vcvt.f32.s32	s14, s14
 4033              		.loc 1 1156 0
 4034 0136 9DF80A10 		ldrb	r1, [sp, #10]	@ zero_extendqisi2
 4035              		.loc 1 1149 0
 4036 013a 2848     		ldr	r0, .L223+64
 4037              		.loc 1 1150 0
 4038 013c C5ED007A 		vstr.32	s15, [r5]
 4039              		.loc 1 1149 0
 4040 0140 27EE097A 		vmul.f32	s14, s14, s18
 4041              		.loc 1 1156 0
 4042 0144 1971     		strb	r1, [r3, #4]
 4043              		.loc 1 1149 0
 4044 0146 67EE287A 		vmul.f32	s15, s14, s17
 4045              		.loc 1 1157 0
 4046 014a 9DF80B40 		ldrb	r4, [sp, #11]	@ zero_extendqisi2
 4047              		.loc 1 1148 0
ARM GAS  /tmp/ccB9eNXv.s 			page 72


 4048 014e CCF80020 		str	r2, [ip]
 4049              		.loc 1 1158 0
 4050 0152 9DF80C10 		ldrb	r1, [sp, #12]	@ zero_extendqisi2
 4051              		.loc 1 1159 0
 4052 0156 9DF80D20 		ldrb	r2, [sp, #13]	@ zero_extendqisi2
 4053              	.LVL153:
 4054              		.loc 1 1157 0
 4055 015a 5C71     		strb	r4, [r3, #5]
 4056              		.loc 1 1149 0
 4057 015c C0ED007A 		vstr.32	s15, [r0]
 4058              		.loc 1 1158 0
 4059 0160 9971     		strb	r1, [r3, #6]
 4060              		.loc 1 1159 0
 4061 0162 DA71     		strb	r2, [r3, #7]
 4062              	.LBE721:
 4063              		.loc 1 1146 0
 4064 0164 BEE7     		b	.L204
 4065              	.LVL154:
 4066              	.L221:
 4067 0166 1424     		movs	r4, #20
 4068              	.L197:
 4069              	.LVL155:
 4070              	.LBB722:
 4071              		.loc 1 1119 0 discriminator 3
 4072 0168 4620     		movs	r0, #70
 4073 016a FFF7FEFF 		bl	TS5700N8501_send_byte
 4074              	.LVL156:
 4075              		.loc 1 1120 0 discriminator 3
 4076 016e 0220     		movs	r0, #2
 4077 0170 FFF7FEFF 		bl	chThdSleep
 4078              	.LVL157:
 4079              		.loc 1 1118 0 discriminator 3
 4080 0174 013C     		subs	r4, r4, #1
 4081              	.LVL158:
 4082 0176 F7D1     		bne	.L197
 4083              	.LBE722:
 4084              		.loc 1 1123 0
 4085 0178 3470     		strb	r4, [r6]
 4086 017a 76E7     		b	.L196
 4087              	.LVL159:
 4088              	.L220:
 4089 017c 1424     		movs	r4, #20
 4090              	.L195:
 4091              	.LVL160:
 4092              	.LBB723:
 4093              		.loc 1 1110 0 discriminator 3
 4094 017e 5D20     		movs	r0, #93
 4095 0180 FFF7FEFF 		bl	TS5700N8501_send_byte
 4096              	.LVL161:
 4097              		.loc 1 1111 0 discriminator 3
 4098 0184 0220     		movs	r0, #2
 4099 0186 FFF7FEFF 		bl	chThdSleep
 4100              	.LVL162:
 4101              		.loc 1 1109 0 discriminator 3
 4102 018a 013C     		subs	r4, r4, #1
 4103              	.LVL163:
 4104 018c F7D1     		bne	.L195
ARM GAS  /tmp/ccB9eNXv.s 			page 73


 4105              	.LBE723:
 4106              		.loc 1 1114 0
 4107 018e 3C70     		strb	r4, [r7]
 4108 0190 68E7     		b	.L194
 4109              	.LVL164:
 4110              	.L198:
 4111 0192 D5ED007A 		vldr.32	s15, [r5]
 4112 0196 99E7     		b	.L203
 4113              	.LVL165:
 4114              	.L206:
 4115              		.loc 1 1141 0
 4116 0198 0022     		movs	r2, #0
 4117 019a 93E7     		b	.L201
 4118              	.L224:
 4119              		.align	2
 4120              	.L223:
 4121 019c 00000000 		.word	ch
 4122 01a0 00000000 		.word	.LANCHOR31
 4123 01a4 00000000 		.word	.LANCHOR32
 4124 01a8 00000000 		.word	SD3
 4125 01ac 00040240 		.word	1073873920
 4126 01b0 00000240 		.word	1073872896
 4127 01b4 00000000 		.word	.LANCHOR16
 4128 01b8 00000000 		.word	.LANCHOR17
 4129 01bc 00000000 		.word	.LANCHOR2
 4130 01c0 17B75138 		.word	944879383
 4131 01c4 00000037 		.word	922746880
 4132 01c8 0000B443 		.word	1135869952
 4133 01cc 0C000000 		.word	SD3+12
 4134 01d0 00000000 		.word	.LANCHOR0
 4135 01d4 00000000 		.word	.LANCHOR20
 4136 01d8 00000000 		.word	.LANCHOR15
 4137 01dc 00000000 		.word	.LANCHOR22
 4138 01e0 00000000 		.word	.LANCHOR19
 4139 01e4 00000000 		.word	.LANCHOR1
 4140              	.LBE726:
 4141              		.cfi_endproc
 4142              	.LFE299:
 4143              		.size	ts5700n8501_thread, .-ts5700n8501_thread
 4144              		.section	.text.spi_transfer.isra.1.constprop.2,"ax",%progbits
 4145              		.align	1
 4146              		.p2align 4,,15
 4147              		.syntax unified
 4148              		.thumb
 4149              		.thumb_func
 4150              		.fpu fpv4-sp-d16
 4151              		.type	spi_transfer.isra.1.constprop.2, %function
 4152              	spi_transfer.isra.1.constprop.2:
 4153              	.LFB302:
 4154              		.loc 1 952 0
 4155              		.cfi_startproc
 4156              		@ args = 0, pretend = 0, frame = 0
 4157              		@ frame_needed = 0, uses_anonymous_args = 0
 4158              	.LVL166:
 4159              	.LBB727:
 4160              	.LBB728:
 4161              	.LBB729:
ARM GAS  /tmp/ccB9eNXv.s 			page 74


 4162              	.LBB730:
 4163              		.loc 1 968 0
 4164 0000 194A     		ldr	r2, .L233
 4165              	.LBE730:
 4166              	.LBE729:
 4167              	.LBE728:
 4168              	.LBE727:
 4169              		.loc 1 952 0
 4170 0002 F0B5     		push	{r4, r5, r6, r7, lr}
 4171              		.cfi_def_cfa_offset 20
 4172              		.cfi_offset 4, -20
 4173              		.cfi_offset 5, -16
 4174              		.cfi_offset 6, -12
 4175              		.cfi_offset 7, -8
 4176              		.cfi_offset 14, -4
 4177              	.LBB761:
 4178              	.LBB759:
 4179              		.loc 1 961 0
 4180 0004 0021     		movs	r1, #0
 4181              	.LBE759:
 4182              	.LBE761:
 4183              		.loc 1 952 0
 4184 0006 8646     		mov	lr, r0
 4185 0008 1026     		movs	r6, #16
 4186              	.LBB762:
 4187              	.LBB760:
 4188              	.LBB758:
 4189              	.LBB757:
 4190              		.loc 1 968 0
 4191 000a 4FF04007 		mov	r7, #64	@ movhi
 4192              	.LVL167:
 4193              	.L227:
 4194 000e 1783     		strh	r7, [r2, #24]	@ movhi
 4195              	.LBB731:
 4196              	.LBB732:
 4197              	.LBB733:
 4198              		.loc 2 327 0
 4199              		.syntax unified
 4200              	@ 327 "ChibiOS_3.0.5/os/ext/CMSIS/include/core_cmInstr.h" 1
 4201 0010 00BF     		nop
 4202              	@ 0 "" 2
 4203              		.thumb
 4204              		.syntax unified
 4205              	.LBE733:
 4206              	.LBE732:
 4207              	.LBB734:
 4208              	.LBB735:
 4209              		.syntax unified
 4210              	@ 327 "ChibiOS_3.0.5/os/ext/CMSIS/include/core_cmInstr.h" 1
 4211 0012 00BF     		nop
 4212              	@ 0 "" 2
 4213              		.thumb
 4214              		.syntax unified
 4215              	.LBE735:
 4216              	.LBE734:
 4217              	.LBB736:
 4218              	.LBB737:
ARM GAS  /tmp/ccB9eNXv.s 			page 75


 4219              		.syntax unified
 4220              	@ 327 "ChibiOS_3.0.5/os/ext/CMSIS/include/core_cmInstr.h" 1
 4221 0014 00BF     		nop
 4222              	@ 0 "" 2
 4223              		.thumb
 4224              		.syntax unified
 4225              	.LBE737:
 4226              	.LBE736:
 4227              	.LBB738:
 4228              	.LBB739:
 4229              		.syntax unified
 4230              	@ 327 "ChibiOS_3.0.5/os/ext/CMSIS/include/core_cmInstr.h" 1
 4231 0016 00BF     		nop
 4232              	@ 0 "" 2
 4233              	.LVL168:
 4234              		.thumb
 4235              		.syntax unified
 4236              	.LBE739:
 4237              	.LBE738:
 4238              	.LBE731:
 4239              		.loc 1 972 0
 4240 0018 1369     		ldr	r3, [r2, #16]
 4241              	.LVL169:
 4242              	.LBB740:
 4243              	.LBB741:
 4244              		.loc 2 327 0
 4245              		.syntax unified
 4246              	@ 327 "ChibiOS_3.0.5/os/ext/CMSIS/include/core_cmInstr.h" 1
 4247 001a 00BF     		nop
 4248              	@ 0 "" 2
 4249              		.thumb
 4250              		.syntax unified
 4251              	.LBE741:
 4252              	.LBE740:
 4253              		.loc 1 974 0
 4254 001c 1069     		ldr	r0, [r2, #16]
 4255              	.LVL170:
 4256              	.LBB742:
 4257              	.LBB743:
 4258              		.loc 2 327 0
 4259              		.syntax unified
 4260              	@ 327 "ChibiOS_3.0.5/os/ext/CMSIS/include/core_cmInstr.h" 1
 4261 001e 00BF     		nop
 4262              	@ 0 "" 2
 4263              		.thumb
 4264              		.syntax unified
 4265              	.LBE743:
 4266              	.LBE742:
 4267              		.loc 1 976 0
 4268 0020 1469     		ldr	r4, [r2, #16]
 4269              	.LVL171:
 4270              	.LBB744:
 4271              	.LBB745:
 4272              		.loc 2 327 0
 4273              		.syntax unified
 4274              	@ 327 "ChibiOS_3.0.5/os/ext/CMSIS/include/core_cmInstr.h" 1
 4275 0022 00BF     		nop
ARM GAS  /tmp/ccB9eNXv.s 			page 76


 4276              	@ 0 "" 2
 4277              		.thumb
 4278              		.syntax unified
 4279              	.LBE745:
 4280              	.LBE744:
 4281              		.loc 1 978 0
 4282 0024 1569     		ldr	r5, [r2, #16]
 4283              	.LVL172:
 4284              	.LBB746:
 4285              	.LBB747:
 4286              		.loc 2 327 0
 4287              		.syntax unified
 4288              	@ 327 "ChibiOS_3.0.5/os/ext/CMSIS/include/core_cmInstr.h" 1
 4289 0026 00BF     		nop
 4290              	@ 0 "" 2
 4291              		.thumb
 4292              		.syntax unified
 4293              	.LBE747:
 4294              	.LBE746:
 4295              		.loc 1 974 0
 4296 0028 C0F3C01C 		ubfx	ip, r0, #7, #1
 4297              		.loc 1 972 0
 4298 002c C3F3C013 		ubfx	r3, r3, #7, #1
 4299              	.LVL173:
 4300              		.loc 1 974 0
 4301 0030 6344     		add	r3, r3, ip
 4302              		.loc 1 976 0
 4303 0032 C4F3C01C 		ubfx	ip, r4, #7, #1
 4304              		.loc 1 980 0
 4305 0036 1469     		ldr	r4, [r2, #16]
 4306              		.loc 1 976 0
 4307 0038 6344     		add	r3, r3, ip
 4308              		.loc 1 978 0
 4309 003a C5F3C015 		ubfx	r5, r5, #7, #1
 4310 003e 2B44     		add	r3, r3, r5
 4311              		.loc 1 980 0
 4312 0040 C4F3C014 		ubfx	r4, r4, #7, #1
 4313 0044 2344     		add	r3, r3, r4
 4314              		.loc 1 982 0
 4315 0046 4900     		lsls	r1, r1, #1
 4316              	.LVL174:
 4317              		.loc 1 983 0
 4318 0048 022B     		cmp	r3, #2
 4319              		.loc 1 982 0
 4320 004a 89B2     		uxth	r1, r1
 4321              	.LVL175:
 4322              		.loc 1 983 0
 4323 004c 01D9     		bls	.L229
 4324              		.loc 1 984 0
 4325 004e 41F00101 		orr	r1, r1, #1
 4326              	.LVL176:
 4327              	.L229:
 4328              		.loc 1 987 0
 4329 0052 5783     		strh	r7, [r2, #26]	@ movhi
 4330              	.LBB748:
 4331              	.LBB749:
 4332              	.LBB750:
ARM GAS  /tmp/ccB9eNXv.s 			page 77


 4333              		.loc 2 327 0
 4334              		.syntax unified
 4335              	@ 327 "ChibiOS_3.0.5/os/ext/CMSIS/include/core_cmInstr.h" 1
 4336 0054 00BF     		nop
 4337              	@ 0 "" 2
 4338              		.thumb
 4339              		.syntax unified
 4340              	.LBE750:
 4341              	.LBE749:
 4342              	.LBB751:
 4343              	.LBB752:
 4344              		.syntax unified
 4345              	@ 327 "ChibiOS_3.0.5/os/ext/CMSIS/include/core_cmInstr.h" 1
 4346 0056 00BF     		nop
 4347              	@ 0 "" 2
 4348              		.thumb
 4349              		.syntax unified
 4350              	.LBE752:
 4351              	.LBE751:
 4352              	.LBB753:
 4353              	.LBB754:
 4354              		.syntax unified
 4355              	@ 327 "ChibiOS_3.0.5/os/ext/CMSIS/include/core_cmInstr.h" 1
 4356 0058 00BF     		nop
 4357              	@ 0 "" 2
 4358              		.thumb
 4359              		.syntax unified
 4360              	.LBE754:
 4361              	.LBE753:
 4362              	.LBB755:
 4363              	.LBB756:
 4364              		.syntax unified
 4365              	@ 327 "ChibiOS_3.0.5/os/ext/CMSIS/include/core_cmInstr.h" 1
 4366 005a 00BF     		nop
 4367              	@ 0 "" 2
 4368              	.LVL177:
 4369              		.thumb
 4370              		.syntax unified
 4371              	.LBE756:
 4372              	.LBE755:
 4373              	.LBE748:
 4374              	.LBE757:
 4375              		.loc 1 963 0
 4376 005c 013E     		subs	r6, r6, #1
 4377              	.LVL178:
 4378 005e D6D1     		bne	.L227
 4379              	.LBE758:
 4380              		.loc 1 992 0
 4381 0060 AEF80010 		strh	r1, [lr]	@ movhi
 4382              	.LVL179:
 4383              	.LBE760:
 4384              	.LBE762:
 4385              		.loc 1 995 0
 4386 0064 F0BD     		pop	{r4, r5, r6, r7, pc}
 4387              	.LVL180:
 4388              	.L234:
 4389 0066 00BF     		.align	2
ARM GAS  /tmp/ccB9eNXv.s 			page 78


 4390              	.L233:
 4391 0068 00080240 		.word	1073874944
 4392              		.cfi_endproc
 4393              	.LFE302:
 4394              		.size	spi_transfer.isra.1.constprop.2, .-spi_transfer.isra.1.constprop.2
 4395              		.section	.rodata
 4396              		.align	2
 4397              		.set	.LANCHOR31,. + 0
 4398              	.LC0:
 4399 0000 54533537 		.ascii	"TS5700N8501\000"
 4399      30304E38 
 4399      35303100 
 4400              		.section	.bss.AS504x_data_last_invalid_counter,"aw",%nobits
 4401              		.align	2
 4402              		.set	.LANCHOR29,. + 0
 4403              		.type	AS504x_data_last_invalid_counter, %object
 4404              		.size	AS504x_data_last_invalid_counter, 4
 4405              	AS504x_data_last_invalid_counter:
 4406 0000 00000000 		.space	4
 4407              		.section	.bss.AS504x_sensor_diag,"aw",%nobits
 4408              		.align	2
 4409              		.set	.LANCHOR28,. + 0
 4410              		.type	AS504x_sensor_diag, %object
 4411              		.size	AS504x_sensor_diag, 14
 4412              	AS504x_sensor_diag:
 4413 0000 00000000 		.space	14
 4413      00000000 
 4413      00000000 
 4413      0000
 4414              		.section	.bss.AS504x_spi_communication_error_count,"aw",%nobits
 4415              		.align	2
 4416              		.set	.LANCHOR30,. + 0
 4417              		.type	AS504x_spi_communication_error_count, %object
 4418              		.size	AS504x_spi_communication_error_count, 4
 4419              	AS504x_spi_communication_error_count:
 4420 0000 00000000 		.space	4
 4421              		.section	.bss.angle.12426,"aw",%nobits
 4422              		.align	2
 4423              		.set	.LANCHOR26,. + 0
 4424              		.type	angle.12426, %object
 4425              		.size	angle.12426, 4
 4426              	angle.12426:
 4427 0000 00000000 		.space	4
 4428              		.section	.bss.bad_pulses.12442,"aw",%nobits
 4429              		.align	2
 4430              		.set	.LANCHOR27,. + 0
 4431              		.type	bad_pulses.12442, %object
 4432              		.size	bad_pulses.12442, 4
 4433              	bad_pulses.12442:
 4434 0000 00000000 		.space	4
 4435              		.section	.bss.cos_gain,"aw",%nobits
 4436              		.align	2
 4437              		.type	cos_gain, %object
 4438              		.size	cos_gain, 4
 4439              	cos_gain:
 4440 0000 00000000 		.space	4
 4441              		.section	.bss.cos_offset,"aw",%nobits
ARM GAS  /tmp/ccB9eNXv.s 			page 79


 4442              		.align	2
 4443              		.type	cos_offset, %object
 4444              		.size	cos_offset, 4
 4445              	cos_offset:
 4446 0000 00000000 		.space	4
 4447              		.section	.bss.encoder_no_magnet_error_cnt,"aw",%nobits
 4448              		.align	2
 4449              		.set	.LANCHOR3,. + 0
 4450              		.type	encoder_no_magnet_error_cnt, %object
 4451              		.size	encoder_no_magnet_error_cnt, 4
 4452              	encoder_no_magnet_error_cnt:
 4453 0000 00000000 		.space	4
 4454              		.section	.bss.encoder_no_magnet_error_rate,"aw",%nobits
 4455              		.align	2
 4456              		.set	.LANCHOR4,. + 0
 4457              		.type	encoder_no_magnet_error_rate, %object
 4458              		.size	encoder_no_magnet_error_rate, 4
 4459              	encoder_no_magnet_error_rate:
 4460 0000 00000000 		.space	4
 4461              		.section	.bss.index_found,"aw",%nobits
 4462              		.set	.LANCHOR21,. + 0
 4463              		.type	index_found, %object
 4464              		.size	index_found, 1
 4465              	index_found:
 4466 0000 00       		.space	1
 4467              		.section	.bss.last_enc_angle,"aw",%nobits
 4468              		.align	2
 4469              		.set	.LANCHOR22,. + 0
 4470              		.type	last_enc_angle, %object
 4471              		.size	last_enc_angle, 4
 4472              	last_enc_angle:
 4473 0000 00000000 		.space	4
 4474              		.section	.bss.mode,"aw",%nobits
 4475              		.set	.LANCHOR18,. + 0
 4476              		.type	mode, %object
 4477              		.size	mode, 1
 4478              	mode:
 4479 0000 00       		.space	1
 4480              		.section	.bss.resolver_degradation_of_signal_error_cnt,"aw",%nobits
 4481              		.align	2
 4482              		.set	.LANCHOR9,. + 0
 4483              		.type	resolver_degradation_of_signal_error_cnt, %object
 4484              		.size	resolver_degradation_of_signal_error_cnt, 4
 4485              	resolver_degradation_of_signal_error_cnt:
 4486 0000 00000000 		.space	4
 4487              		.section	.bss.resolver_degradation_of_signal_error_rate,"aw",%nobits
 4488              		.align	2
 4489              		.set	.LANCHOR6,. + 0
 4490              		.type	resolver_degradation_of_signal_error_rate, %object
 4491              		.size	resolver_degradation_of_signal_error_rate, 4
 4492              	resolver_degradation_of_signal_error_rate:
 4493 0000 00000000 		.space	4
 4494              		.section	.bss.resolver_loss_of_signal_error_cnt,"aw",%nobits
 4495              		.align	2
 4496              		.set	.LANCHOR10,. + 0
 4497              		.type	resolver_loss_of_signal_error_cnt, %object
 4498              		.size	resolver_loss_of_signal_error_cnt, 4
ARM GAS  /tmp/ccB9eNXv.s 			page 80


 4499              	resolver_loss_of_signal_error_cnt:
 4500 0000 00000000 		.space	4
 4501              		.section	.bss.resolver_loss_of_signal_error_rate,"aw",%nobits
 4502              		.align	2
 4503              		.set	.LANCHOR7,. + 0
 4504              		.type	resolver_loss_of_signal_error_rate, %object
 4505              		.size	resolver_loss_of_signal_error_rate, 4
 4506              	resolver_loss_of_signal_error_rate:
 4507 0000 00000000 		.space	4
 4508              		.section	.bss.resolver_loss_of_tracking_error_cnt,"aw",%nobits
 4509              		.align	2
 4510              		.set	.LANCHOR8,. + 0
 4511              		.type	resolver_loss_of_tracking_error_cnt, %object
 4512              		.size	resolver_loss_of_tracking_error_cnt, 4
 4513              	resolver_loss_of_tracking_error_cnt:
 4514 0000 00000000 		.space	4
 4515              		.section	.bss.resolver_loss_of_tracking_error_rate,"aw",%nobits
 4516              		.align	2
 4517              		.set	.LANCHOR5,. + 0
 4518              		.type	resolver_loss_of_tracking_error_rate, %object
 4519              		.size	resolver_loss_of_tracking_error_rate, 4
 4520              	resolver_loss_of_tracking_error_rate:
 4521 0000 00000000 		.space	4
 4522              		.section	.bss.sin_gain,"aw",%nobits
 4523              		.align	2
 4524              		.type	sin_gain, %object
 4525              		.size	sin_gain, 4
 4526              	sin_gain:
 4527 0000 00000000 		.space	4
 4528              		.section	.bss.sin_offset,"aw",%nobits
 4529              		.align	2
 4530              		.type	sin_offset, %object
 4531              		.size	sin_offset, 4
 4532              	sin_offset:
 4533 0000 00000000 		.space	4
 4534              		.section	.bss.sincos_filter_constant,"aw",%nobits
 4535              		.align	2
 4536              		.type	sincos_filter_constant, %object
 4537              		.size	sincos_filter_constant, 4
 4538              	sincos_filter_constant:
 4539 0000 00000000 		.space	4
 4540              		.section	.bss.sincos_signal_above_max_error_cnt,"aw",%nobits
 4541              		.align	2
 4542              		.set	.LANCHOR12,. + 0
 4543              		.type	sincos_signal_above_max_error_cnt, %object
 4544              		.size	sincos_signal_above_max_error_cnt, 4
 4545              	sincos_signal_above_max_error_cnt:
 4546 0000 00000000 		.space	4
 4547              		.section	.bss.sincos_signal_above_max_error_rate,"aw",%nobits
 4548              		.align	2
 4549              		.set	.LANCHOR14,. + 0
 4550              		.type	sincos_signal_above_max_error_rate, %object
 4551              		.size	sincos_signal_above_max_error_rate, 4
 4552              	sincos_signal_above_max_error_rate:
 4553 0000 00000000 		.space	4
 4554              		.section	.bss.sincos_signal_below_min_error_cnt,"aw",%nobits
 4555              		.align	2
ARM GAS  /tmp/ccB9eNXv.s 			page 81


 4556              		.set	.LANCHOR11,. + 0
 4557              		.type	sincos_signal_below_min_error_cnt, %object
 4558              		.size	sincos_signal_below_min_error_cnt, 4
 4559              	sincos_signal_below_min_error_cnt:
 4560 0000 00000000 		.space	4
 4561              		.section	.bss.sincos_signal_low_error_rate,"aw",%nobits
 4562              		.align	2
 4563              		.set	.LANCHOR13,. + 0
 4564              		.type	sincos_signal_low_error_rate, %object
 4565              		.size	sincos_signal_low_error_rate, 4
 4566              	sincos_signal_low_error_rate:
 4567 0000 00000000 		.space	4
 4568              		.section	.bss.spi_error_cnt,"aw",%nobits
 4569              		.align	2
 4570              		.set	.LANCHOR0,. + 0
 4571              		.type	spi_error_cnt, %object
 4572              		.size	spi_error_cnt, 4
 4573              	spi_error_cnt:
 4574 0000 00000000 		.space	4
 4575              		.section	.bss.spi_error_rate,"aw",%nobits
 4576              		.align	2
 4577              		.set	.LANCHOR2,. + 0
 4578              		.type	spi_error_rate, %object
 4579              		.size	spi_error_rate, 4
 4580              	spi_error_rate:
 4581 0000 00000000 		.space	4
 4582              		.section	.bss.spi_val,"aw",%nobits
 4583              		.align	2
 4584              		.set	.LANCHOR1,. + 0
 4585              		.type	spi_val, %object
 4586              		.size	spi_val, 4
 4587              	spi_val:
 4588 0000 00000000 		.space	4
 4589              		.section	.bss.ts5700n8501_is_running,"aw",%nobits
 4590              		.set	.LANCHOR20,. + 0
 4591              		.type	ts5700n8501_is_running, %object
 4592              		.size	ts5700n8501_is_running, 1
 4593              	ts5700n8501_is_running:
 4594 0000 00       		.space	1
 4595              		.section	.bss.ts5700n8501_raw_status,"aw",%nobits
 4596              		.align	2
 4597              		.set	.LANCHOR15,. + 0
 4598              		.type	ts5700n8501_raw_status, %object
 4599              		.size	ts5700n8501_raw_status, 8
 4600              	ts5700n8501_raw_status:
 4601 0000 00000000 		.space	8
 4601      00000000 
 4602              		.section	.bss.ts5700n8501_reset_errors,"aw",%nobits
 4603              		.set	.LANCHOR16,. + 0
 4604              		.type	ts5700n8501_reset_errors, %object
 4605              		.size	ts5700n8501_reset_errors, 1
 4606              	ts5700n8501_reset_errors:
 4607 0000 00       		.space	1
 4608              		.section	.bss.ts5700n8501_reset_multiturn,"aw",%nobits
 4609              		.set	.LANCHOR17,. + 0
 4610              		.type	ts5700n8501_reset_multiturn, %object
 4611              		.size	ts5700n8501_reset_multiturn, 1
ARM GAS  /tmp/ccB9eNXv.s 			page 82


 4612              	ts5700n8501_reset_multiturn:
 4613 0000 00       		.space	1
 4614              		.section	.bss.ts5700n8501_thread_wa,"aw",%nobits
 4615              		.align	3
 4616              		.set	.LANCHOR25,. + 0
 4617              		.type	ts5700n8501_thread_wa, %object
 4618              		.size	ts5700n8501_thread_wa, 928
 4619              	ts5700n8501_thread_wa:
 4620 0000 00000000 		.space	928
 4620      00000000 
 4620      00000000 
 4620      00000000 
 4620      00000000 
 4621              		.section	.data.TS5700N8501_uart_cfg,"aw",%progbits
 4622              		.align	2
 4623              		.set	.LANCHOR32,. + 0
 4624              		.type	TS5700N8501_uart_cfg, %object
 4625              		.size	TS5700N8501_uart_cfg, 12
 4626              	TS5700N8501_uart_cfg:
 4627 0000 A0252600 		.word	2500000
 4628 0004 0000     		.short	0
 4629 0006 0040     		.short	16384
 4630 0008 0000     		.short	0
 4631 000a 0000     		.space	2
 4632              		.section	.data.enc_counts,"aw",%progbits
 4633              		.align	2
 4634              		.set	.LANCHOR23,. + 0
 4635              		.type	enc_counts, %object
 4636              		.size	enc_counts, 4
 4637              	enc_counts:
 4638 0000 10270000 		.word	10000
 4639              		.section	.data.ts5700n8501_stop_now,"aw",%progbits
 4640              		.set	.LANCHOR19,. + 0
 4641              		.type	ts5700n8501_stop_now, %object
 4642              		.size	ts5700n8501_stop_now, 1
 4643              	ts5700n8501_stop_now:
 4644 0000 01       		.byte	1
 4645              		.section	.rodata.mt6816_spi_cfg,"a",%progbits
 4646              		.align	2
 4647              		.set	.LANCHOR24,. + 0
 4648              		.type	mt6816_spi_cfg, %object
 4649              		.size	mt6816_spi_cfg, 12
 4650              	mt6816_spi_cfg:
 4651 0000 00000000 		.word	0
 4652 0004 00080240 		.word	1073874944
 4653 0008 0800     		.short	8
 4654 000a 0B08     		.short	2059
 4655              		.section	.rodata.spi_data_err_raised,"a",%progbits
 4656              		.type	spi_data_err_raised, %object
 4657              		.size	spi_data_err_raised, 1
 4658              	spi_data_err_raised:
 4659 0000 00       		.space	1
 4660              		.text
 4661              	.Letext0:
 4662              		.file 4 "/usr/arm-none-eabi/include/machine/_default_types.h"
 4663              		.file 5 "/usr/arm-none-eabi/include/sys/_stdint.h"
 4664              		.file 6 "/usr/lib/gcc/arm-none-eabi/7.3.1/include/stddef.h"
ARM GAS  /tmp/ccB9eNXv.s 			page 83


 4665              		.file 7 "ChibiOS_3.0.5/os/rt/ports/ARMCMx/compilers/GCC/chtypes.h"
 4666              		.file 8 "ChibiOS_3.0.5/os/rt/include/chsystypes.h"
 4667              		.file 9 "ChibiOS_3.0.5/os/rt/include/chschd.h"
 4668              		.file 10 "ChibiOS_3.0.5/os/ext/CMSIS/include/core_cm4.h"
 4669              		.file 11 "ChibiOS_3.0.5/os/ext/CMSIS/ST/system_stm32f4xx.h"
 4670              		.file 12 "ChibiOS_3.0.5/os/ext/CMSIS/ST/stm32f407xx.h"
 4671              		.file 13 "ChibiOS_3.0.5/os/ext/CMSIS/ST/stm32f4xx.h"
 4672              		.file 14 "ChibiOS_3.0.5/os/rt/ports/ARMCMx/chcore.h"
 4673              		.file 15 "ChibiOS_3.0.5/os/rt/ports/ARMCMx/chcore_v7m.h"
 4674              		.file 16 "ChibiOS_3.0.5/os/rt/include/chtm.h"
 4675              		.file 17 "ChibiOS_3.0.5/os/rt/include/chsem.h"
 4676              		.file 18 "ChibiOS_3.0.5/os/rt/include/chmtx.h"
 4677              		.file 19 "ChibiOS_3.0.5/os/rt/include/chevents.h"
 4678              		.file 20 "ChibiOS_3.0.5/os/rt/include/chqueues.h"
 4679              		.file 21 "datatypes.h"
 4680              		.file 22 "ChibiOS_3.0.5/ext/stdperiph_stm32f4/inc/stm32f4xx_exti.h"
 4681              		.file 23 "ChibiOS_3.0.5/ext/stdperiph_stm32f4/inc/stm32f4xx_tim.h"
 4682              		.file 24 "conf_general.h"
 4683              		.file 25 "ChibiOS_3.0.5/os/hal/ports/STM32/STM32F4xx/stm32_dma.h"
 4684              		.file 26 "ChibiOS_3.0.5/os/hal/ports/STM32/LLD/GPIOv2/pal_lld.h"
 4685              		.file 27 "ChibiOS_3.0.5/os/hal/include/can.h"
 4686              		.file 28 "ChibiOS_3.0.5/os/hal/ports/STM32/LLD/can_lld.h"
 4687              		.file 29 "ChibiOS_3.0.5/os/hal/include/i2c.h"
 4688              		.file 30 "ChibiOS_3.0.5/os/hal/ports/STM32/LLD/I2Cv1/i2c_lld.h"
 4689              		.file 31 "ChibiOS_3.0.5/os/hal/include/icu.h"
 4690              		.file 32 "ChibiOS_3.0.5/os/hal/ports/STM32/LLD/TIMv1/icu_lld.h"
 4691              		.file 33 "ChibiOS_3.0.5/os/hal/ports/STM32/LLD/TIMv1/stm32_tim.h"
 4692              		.file 34 "ChibiOS_3.0.5/os/hal/include/serial.h"
 4693              		.file 35 "ChibiOS_3.0.5/os/hal/ports/STM32/LLD/USARTv1/serial_lld.h"
 4694              		.file 36 "ChibiOS_3.0.5/os/hal/include/spi.h"
 4695              		.file 37 "ChibiOS_3.0.5/os/hal/ports/STM32/LLD/SPIv1/spi_lld.h"
 4696              		.file 38 "ChibiOS_3.0.5/os/hal/include/usb.h"
 4697              		.file 39 "ChibiOS_3.0.5/os/hal/ports/STM32/LLD/OTGv1/usb_lld.h"
 4698              		.file 40 "ChibiOS_3.0.5/os/hal/ports/STM32/LLD/OTGv1/stm32_otg.h"
 4699              		.file 41 "mc_interface.h"
 4700              		.file 42 "utils.h"
 4701              		.file 43 "/usr/arm-none-eabi/include/sys/lock.h"
 4702              		.file 44 "/usr/arm-none-eabi/include/sys/_types.h"
 4703              		.file 45 "/usr/arm-none-eabi/include/sys/reent.h"
 4704              		.file 46 "/usr/arm-none-eabi/include/math.h"
 4705              		.file 47 "ChibiOS_3.0.5/os/rt/include/chthreads.h"
 4706              		.file 48 "ChibiOS_3.0.5/ext/stdperiph_stm32f4/inc/stm32f4xx_rcc.h"
 4707              		.file 49 "ChibiOS_3.0.5/os/hal/ports/common/ARMCMx/nvic.h"
 4708              		.file 50 "ChibiOS_3.0.5/ext/stdperiph_stm32f4/inc/stm32f4xx_syscfg.h"