ARM GAS  /tmp/ccB9eNXv.s 			page 1


   1              		.cpu cortex-m4
   2              		.eabi_attribute 27, 1
   3              		.eabi_attribute 28, 1
   4              		.eabi_attribute 20, 1
   5              		.eabi_attribute 21, 1
   6              		.eabi_attribute 23, 3
   7              		.eabi_attribute 24, 1
   8              		.eabi_attribute 25, 1
   9              		.eabi_attribute 26, 1
  10              		.eabi_attribute 30, 2
  11              		.eabi_attribute 34, 1
  12              		.eabi_attribute 18, 4
  13              		.file	"encoder.c"
  14              		.text
  15              	.Ltext0:
  16              		.cfi_sections	.debug_frame
  17              		.section	.text.encoder_spi_get_error_cnt,"ax",%progbits
  18              		.align	1
  19              		.p2align 4,,15
  20              		.global	encoder_spi_get_error_cnt
  21              		.syntax unified
  22              		.thumb
  23              		.thumb_func
  24              		.fpu fpv4-sp-d16
  25              		.type	encoder_spi_get_error_cnt, %function
  26              	encoder_spi_get_error_cnt:
  27              	.LFB256:
  28              		.file 1 "encoder.c"
  29              		.loc 1 176 0
  30              		.cfi_startproc
  31              		@ args = 0, pretend = 0, frame = 0
  32              		@ frame_needed = 0, uses_anonymous_args = 0
  33              		@ link register save eliminated.
  34              		.loc 1 177 0
  35 0000 014B     		ldr	r3, .L3
  36              		.loc 1 178 0
  37 0002 1868     		ldr	r0, [r3]
  38 0004 7047     		bx	lr
  39              	.L4:
  40 0006 00BF     		.align	2
  41              	.L3:
  42 0008 00000000 		.word	.LANCHOR0
  43              		.cfi_endproc
  44              	.LFE256:
  45              		.size	encoder_spi_get_error_cnt, .-encoder_spi_get_error_cnt
  46              		.section	.text.encoder_spi_get_val,"ax",%progbits
  47              		.align	1
  48              		.p2align 4,,15
  49              		.global	encoder_spi_get_val
  50              		.syntax unified
  51              		.thumb
  52              		.thumb_func
  53              		.fpu fpv4-sp-d16
  54              		.type	encoder_spi_get_val, %function
  55              	encoder_spi_get_val:
  56              	.LFB257:
  57              		.loc 1 180 0
ARM GAS  /tmp/ccB9eNXv.s 			page 2


  58              		.cfi_startproc
  59              		@ args = 0, pretend = 0, frame = 0
  60              		@ frame_needed = 0, uses_anonymous_args = 0
  61              		@ link register save eliminated.
  62              		.loc 1 181 0
  63 0000 014B     		ldr	r3, .L6
  64              		.loc 1 182 0
  65 0002 1868     		ldr	r0, [r3]
  66 0004 7047     		bx	lr
  67              	.L7:
  68 0006 00BF     		.align	2
  69              	.L6:
  70 0008 00000000 		.word	.LANCHOR1
  71              		.cfi_endproc
  72              	.LFE257:
  73              		.size	encoder_spi_get_val, .-encoder_spi_get_val
  74              		.section	.text.encoder_spi_get_error_rate,"ax",%progbits
  75              		.align	1
  76              		.p2align 4,,15
  77              		.global	encoder_spi_get_error_rate
  78              		.syntax unified
  79              		.thumb
  80              		.thumb_func
  81              		.fpu fpv4-sp-d16
  82              		.type	encoder_spi_get_error_rate, %function
  83              	encoder_spi_get_error_rate:
  84              	.LFB258:
  85              		.loc 1 184 0
  86              		.cfi_startproc
  87              		@ args = 0, pretend = 0, frame = 0
  88              		@ frame_needed = 0, uses_anonymous_args = 0
  89              		@ link register save eliminated.
  90              		.loc 1 185 0
  91 0000 014B     		ldr	r3, .L9
  92              		.loc 1 186 0
  93 0002 93ED000A 		vldr.32	s0, [r3]
  94 0006 7047     		bx	lr
  95              	.L10:
  96              		.align	2
  97              	.L9:
  98 0008 00000000 		.word	.LANCHOR2
  99              		.cfi_endproc
 100              	.LFE258:
 101              		.size	encoder_spi_get_error_rate, .-encoder_spi_get_error_rate
 102              		.section	.text.encoder_get_no_magnet_error_cnt,"ax",%progbits
 103              		.align	1
 104              		.p2align 4,,15
 105              		.global	encoder_get_no_magnet_error_cnt
 106              		.syntax unified
 107              		.thumb
 108              		.thumb_func
 109              		.fpu fpv4-sp-d16
 110              		.type	encoder_get_no_magnet_error_cnt, %function
 111              	encoder_get_no_magnet_error_cnt:
 112              	.LFB259:
 113              		.loc 1 188 0
 114              		.cfi_startproc
ARM GAS  /tmp/ccB9eNXv.s 			page 3


 115              		@ args = 0, pretend = 0, frame = 0
 116              		@ frame_needed = 0, uses_anonymous_args = 0
 117              		@ link register save eliminated.
 118              		.loc 1 189 0
 119 0000 014B     		ldr	r3, .L12
 120              		.loc 1 190 0
 121 0002 1868     		ldr	r0, [r3]
 122 0004 7047     		bx	lr
 123              	.L13:
 124 0006 00BF     		.align	2
 125              	.L12:
 126 0008 00000000 		.word	.LANCHOR3
 127              		.cfi_endproc
 128              	.LFE259:
 129              		.size	encoder_get_no_magnet_error_cnt, .-encoder_get_no_magnet_error_cnt
 130              		.section	.text.encoder_get_no_magnet_error_rate,"ax",%progbits
 131              		.align	1
 132              		.p2align 4,,15
 133              		.global	encoder_get_no_magnet_error_rate
 134              		.syntax unified
 135              		.thumb
 136              		.thumb_func
 137              		.fpu fpv4-sp-d16
 138              		.type	encoder_get_no_magnet_error_rate, %function
 139              	encoder_get_no_magnet_error_rate:
 140              	.LFB260:
 141              		.loc 1 192 0
 142              		.cfi_startproc
 143              		@ args = 0, pretend = 0, frame = 0
 144              		@ frame_needed = 0, uses_anonymous_args = 0
 145              		@ link register save eliminated.
 146              		.loc 1 193 0
 147 0000 014B     		ldr	r3, .L15
 148              		.loc 1 194 0
 149 0002 93ED000A 		vldr.32	s0, [r3]
 150 0006 7047     		bx	lr
 151              	.L16:
 152              		.align	2
 153              	.L15:
 154 0008 00000000 		.word	.LANCHOR4
 155              		.cfi_endproc
 156              	.LFE260:
 157              		.size	encoder_get_no_magnet_error_rate, .-encoder_get_no_magnet_error_rate
 158              		.section	.text.encoder_resolver_loss_of_tracking_error_rate,"ax",%progbits
 159              		.align	1
 160              		.p2align 4,,15
 161              		.global	encoder_resolver_loss_of_tracking_error_rate
 162              		.syntax unified
 163              		.thumb
 164              		.thumb_func
 165              		.fpu fpv4-sp-d16
 166              		.type	encoder_resolver_loss_of_tracking_error_rate, %function
 167              	encoder_resolver_loss_of_tracking_error_rate:
 168              	.LFB261:
 169              		.loc 1 196 0
 170              		.cfi_startproc
 171              		@ args = 0, pretend = 0, frame = 0
ARM GAS  /tmp/ccB9eNXv.s 			page 4


 172              		@ frame_needed = 0, uses_anonymous_args = 0
 173              		@ link register save eliminated.
 174              		.loc 1 197 0
 175 0000 014B     		ldr	r3, .L18
 176              		.loc 1 198 0
 177 0002 93ED000A 		vldr.32	s0, [r3]
 178 0006 7047     		bx	lr
 179              	.L19:
 180              		.align	2
 181              	.L18:
 182 0008 00000000 		.word	.LANCHOR5
 183              		.cfi_endproc
 184              	.LFE261:
 185              		.size	encoder_resolver_loss_of_tracking_error_rate, .-encoder_resolver_loss_of_tracking_error_rate
 186              		.section	.text.encoder_resolver_degradation_of_signal_error_rate,"ax",%progbits
 187              		.align	1
 188              		.p2align 4,,15
 189              		.global	encoder_resolver_degradation_of_signal_error_rate
 190              		.syntax unified
 191              		.thumb
 192              		.thumb_func
 193              		.fpu fpv4-sp-d16
 194              		.type	encoder_resolver_degradation_of_signal_error_rate, %function
 195              	encoder_resolver_degradation_of_signal_error_rate:
 196              	.LFB262:
 197              		.loc 1 200 0
 198              		.cfi_startproc
 199              		@ args = 0, pretend = 0, frame = 0
 200              		@ frame_needed = 0, uses_anonymous_args = 0
 201              		@ link register save eliminated.
 202              		.loc 1 201 0
 203 0000 014B     		ldr	r3, .L21
 204              		.loc 1 202 0
 205 0002 93ED000A 		vldr.32	s0, [r3]
 206 0006 7047     		bx	lr
 207              	.L22:
 208              		.align	2
 209              	.L21:
 210 0008 00000000 		.word	.LANCHOR6
 211              		.cfi_endproc
 212              	.LFE262:
 213              		.size	encoder_resolver_degradation_of_signal_error_rate, .-encoder_resolver_degradation_of_signal_
 214              		.section	.text.encoder_resolver_loss_of_signal_error_rate,"ax",%progbits
 215              		.align	1
 216              		.p2align 4,,15
 217              		.global	encoder_resolver_loss_of_signal_error_rate
 218              		.syntax unified
 219              		.thumb
 220              		.thumb_func
 221              		.fpu fpv4-sp-d16
 222              		.type	encoder_resolver_loss_of_signal_error_rate, %function
 223              	encoder_resolver_loss_of_signal_error_rate:
 224              	.LFB263:
 225              		.loc 1 204 0
 226              		.cfi_startproc
 227              		@ args = 0, pretend = 0, frame = 0
 228              		@ frame_needed = 0, uses_anonymous_args = 0
ARM GAS  /tmp/ccB9eNXv.s 			page 5


 229              		@ link register save eliminated.
 230              		.loc 1 205 0
 231 0000 014B     		ldr	r3, .L24
 232              		.loc 1 206 0
 233 0002 93ED000A 		vldr.32	s0, [r3]
 234 0006 7047     		bx	lr
 235              	.L25:
 236              		.align	2
 237              	.L24:
 238 0008 00000000 		.word	.LANCHOR7
 239              		.cfi_endproc
 240              	.LFE263:
 241              		.size	encoder_resolver_loss_of_signal_error_rate, .-encoder_resolver_loss_of_signal_error_rate
 242              		.section	.text.encoder_resolver_loss_of_tracking_error_cnt,"ax",%progbits
 243              		.align	1
 244              		.p2align 4,,15
 245              		.global	encoder_resolver_loss_of_tracking_error_cnt
 246              		.syntax unified
 247              		.thumb
 248              		.thumb_func
 249              		.fpu fpv4-sp-d16
 250              		.type	encoder_resolver_loss_of_tracking_error_cnt, %function
 251              	encoder_resolver_loss_of_tracking_error_cnt:
 252              	.LFB264:
 253              		.loc 1 208 0
 254              		.cfi_startproc
 255              		@ args = 0, pretend = 0, frame = 0
 256              		@ frame_needed = 0, uses_anonymous_args = 0
 257              		@ link register save eliminated.
 258              		.loc 1 209 0
 259 0000 014B     		ldr	r3, .L27
 260              		.loc 1 210 0
 261 0002 1868     		ldr	r0, [r3]
 262 0004 7047     		bx	lr
 263              	.L28:
 264 0006 00BF     		.align	2
 265              	.L27:
 266 0008 00000000 		.word	.LANCHOR8
 267              		.cfi_endproc
 268              	.LFE264:
 269              		.size	encoder_resolver_loss_of_tracking_error_cnt, .-encoder_resolver_loss_of_tracking_error_cnt
 270              		.section	.text.encoder_resolver_degradation_of_signal_error_cnt,"ax",%progbits
 271              		.align	1
 272              		.p2align 4,,15
 273              		.global	encoder_resolver_degradation_of_signal_error_cnt
 274              		.syntax unified
 275              		.thumb
 276              		.thumb_func
 277              		.fpu fpv4-sp-d16
 278              		.type	encoder_resolver_degradation_of_signal_error_cnt, %function
 279              	encoder_resolver_degradation_of_signal_error_cnt:
 280              	.LFB265:
 281              		.loc 1 212 0
 282              		.cfi_startproc
 283              		@ args = 0, pretend = 0, frame = 0
 284              		@ frame_needed = 0, uses_anonymous_args = 0
 285              		@ link register save eliminated.
ARM GAS  /tmp/ccB9eNXv.s 			page 6


 286              		.loc 1 213 0
 287 0000 014B     		ldr	r3, .L30
 288              		.loc 1 214 0
 289 0002 1868     		ldr	r0, [r3]
 290 0004 7047     		bx	lr
 291              	.L31:
 292 0006 00BF     		.align	2
 293              	.L30:
 294 0008 00000000 		.word	.LANCHOR9
 295              		.cfi_endproc
 296              	.LFE265:
 297              		.size	encoder_resolver_degradation_of_signal_error_cnt, .-encoder_resolver_degradation_of_signal_e
 298              		.section	.text.encoder_resolver_loss_of_signal_error_cnt,"ax",%progbits
 299              		.align	1
 300              		.p2align 4,,15
 301              		.global	encoder_resolver_loss_of_signal_error_cnt
 302              		.syntax unified
 303              		.thumb
 304              		.thumb_func
 305              		.fpu fpv4-sp-d16
 306              		.type	encoder_resolver_loss_of_signal_error_cnt, %function
 307              	encoder_resolver_loss_of_signal_error_cnt:
 308              	.LFB266:
 309              		.loc 1 216 0
 310              		.cfi_startproc
 311              		@ args = 0, pretend = 0, frame = 0
 312              		@ frame_needed = 0, uses_anonymous_args = 0
 313              		@ link register save eliminated.
 314              		.loc 1 217 0
 315 0000 014B     		ldr	r3, .L33
 316              		.loc 1 218 0
 317 0002 1868     		ldr	r0, [r3]
 318 0004 7047     		bx	lr
 319              	.L34:
 320 0006 00BF     		.align	2
 321              	.L33:
 322 0008 00000000 		.word	.LANCHOR10
 323              		.cfi_endproc
 324              	.LFE266:
 325              		.size	encoder_resolver_loss_of_signal_error_cnt, .-encoder_resolver_loss_of_signal_error_cnt
 326              		.section	.text.encoder_sincos_get_signal_below_min_error_cnt,"ax",%progbits
 327              		.align	1
 328              		.p2align 4,,15
 329              		.global	encoder_sincos_get_signal_below_min_error_cnt
 330              		.syntax unified
 331              		.thumb
 332              		.thumb_func
 333              		.fpu fpv4-sp-d16
 334              		.type	encoder_sincos_get_signal_below_min_error_cnt, %function
 335              	encoder_sincos_get_signal_below_min_error_cnt:
 336              	.LFB267:
 337              		.loc 1 220 0
 338              		.cfi_startproc
 339              		@ args = 0, pretend = 0, frame = 0
 340              		@ frame_needed = 0, uses_anonymous_args = 0
 341              		@ link register save eliminated.
 342              		.loc 1 221 0
ARM GAS  /tmp/ccB9eNXv.s 			page 7


 343 0000 014B     		ldr	r3, .L36
 344              		.loc 1 222 0
 345 0002 1868     		ldr	r0, [r3]
 346 0004 7047     		bx	lr
 347              	.L37:
 348 0006 00BF     		.align	2
 349              	.L36:
 350 0008 00000000 		.word	.LANCHOR11
 351              		.cfi_endproc
 352              	.LFE267:
 353              		.size	encoder_sincos_get_signal_below_min_error_cnt, .-encoder_sincos_get_signal_below_min_error_c
 354              		.section	.text.encoder_sincos_get_signal_above_max_error_cnt,"ax",%progbits
 355              		.align	1
 356              		.p2align 4,,15
 357              		.global	encoder_sincos_get_signal_above_max_error_cnt
 358              		.syntax unified
 359              		.thumb
 360              		.thumb_func
 361              		.fpu fpv4-sp-d16
 362              		.type	encoder_sincos_get_signal_above_max_error_cnt, %function
 363              	encoder_sincos_get_signal_above_max_error_cnt:
 364              	.LFB268:
 365              		.loc 1 224 0
 366              		.cfi_startproc
 367              		@ args = 0, pretend = 0, frame = 0
 368              		@ frame_needed = 0, uses_anonymous_args = 0
 369              		@ link register save eliminated.
 370              		.loc 1 225 0
 371 0000 014B     		ldr	r3, .L39
 372              		.loc 1 226 0
 373 0002 1868     		ldr	r0, [r3]
 374 0004 7047     		bx	lr
 375              	.L40:
 376 0006 00BF     		.align	2
 377              	.L39:
 378 0008 00000000 		.word	.LANCHOR12
 379              		.cfi_endproc
 380              	.LFE268:
 381              		.size	encoder_sincos_get_signal_above_max_error_cnt, .-encoder_sincos_get_signal_above_max_error_c
 382              		.section	.text.encoder_sincos_get_signal_below_min_error_rate,"ax",%progbits
 383              		.align	1
 384              		.p2align 4,,15
 385              		.global	encoder_sincos_get_signal_below_min_error_rate
 386              		.syntax unified
 387              		.thumb
 388              		.thumb_func
 389              		.fpu fpv4-sp-d16
 390              		.type	encoder_sincos_get_signal_below_min_error_rate, %function
 391              	encoder_sincos_get_signal_below_min_error_rate:
 392              	.LFB269:
 393              		.loc 1 228 0
 394              		.cfi_startproc
 395              		@ args = 0, pretend = 0, frame = 0
 396              		@ frame_needed = 0, uses_anonymous_args = 0
 397              		@ link register save eliminated.
 398              		.loc 1 229 0
 399 0000 014B     		ldr	r3, .L42
ARM GAS  /tmp/ccB9eNXv.s 			page 8


 400              		.loc 1 230 0
 401 0002 93ED000A 		vldr.32	s0, [r3]
 402 0006 7047     		bx	lr
 403              	.L43:
 404              		.align	2
 405              	.L42:
 406 0008 00000000 		.word	.LANCHOR13
 407              		.cfi_endproc
 408              	.LFE269:
 409              		.size	encoder_sincos_get_signal_below_min_error_rate, .-encoder_sincos_get_signal_below_min_error_
 410              		.section	.text.encoder_sincos_get_signal_above_max_error_rate,"ax",%progbits
 411              		.align	1
 412              		.p2align 4,,15
 413              		.global	encoder_sincos_get_signal_above_max_error_rate
 414              		.syntax unified
 415              		.thumb
 416              		.thumb_func
 417              		.fpu fpv4-sp-d16
 418              		.type	encoder_sincos_get_signal_above_max_error_rate, %function
 419              	encoder_sincos_get_signal_above_max_error_rate:
 420              	.LFB270:
 421              		.loc 1 232 0
 422              		.cfi_startproc
 423              		@ args = 0, pretend = 0, frame = 0
 424              		@ frame_needed = 0, uses_anonymous_args = 0
 425              		@ link register save eliminated.
 426              		.loc 1 233 0
 427 0000 014B     		ldr	r3, .L45
 428              		.loc 1 234 0
 429 0002 93ED000A 		vldr.32	s0, [r3]
 430 0006 7047     		bx	lr
 431              	.L46:
 432              		.align	2
 433              	.L45:
 434 0008 00000000 		.word	.LANCHOR14
 435              		.cfi_endproc
 436              	.LFE270:
 437              		.size	encoder_sincos_get_signal_above_max_error_rate, .-encoder_sincos_get_signal_above_max_error_
 438              		.section	.text.encoder_ts5700n8501_get_raw_status,"ax",%progbits
 439              		.align	1
 440              		.p2align 4,,15
 441              		.global	encoder_ts5700n8501_get_raw_status
 442              		.syntax unified
 443              		.thumb
 444              		.thumb_func
 445              		.fpu fpv4-sp-d16
 446              		.type	encoder_ts5700n8501_get_raw_status, %function
 447              	encoder_ts5700n8501_get_raw_status:
 448              	.LFB271:
 449              		.loc 1 236 0
 450              		.cfi_startproc
 451              		@ args = 0, pretend = 0, frame = 0
 452              		@ frame_needed = 0, uses_anonymous_args = 0
 453              		@ link register save eliminated.
 454              		.loc 1 238 0
 455 0000 0048     		ldr	r0, .L48
 456 0002 7047     		bx	lr
ARM GAS  /tmp/ccB9eNXv.s 			page 9


 457              	.L49:
 458              		.align	2
 459              	.L48:
 460 0004 00000000 		.word	.LANCHOR15
 461              		.cfi_endproc
 462              	.LFE271:
 463              		.size	encoder_ts5700n8501_get_raw_status, .-encoder_ts5700n8501_get_raw_status
 464              		.section	.text.encoder_ts57n8501_get_abm,"ax",%progbits
 465              		.align	1
 466              		.p2align 4,,15
 467              		.global	encoder_ts57n8501_get_abm
 468              		.syntax unified
 469              		.thumb
 470              		.thumb_func
 471              		.fpu fpv4-sp-d16
 472              		.type	encoder_ts57n8501_get_abm, %function
 473              	encoder_ts57n8501_get_abm:
 474              	.LFB272:
 475              		.loc 1 240 0
 476              		.cfi_startproc
 477              		@ args = 0, pretend = 0, frame = 0
 478              		@ frame_needed = 0, uses_anonymous_args = 0
 479              		@ link register save eliminated.
 480              		.loc 1 241 0
 481 0000 034B     		ldr	r3, .L51
 482 0002 1879     		ldrb	r0, [r3, #4]	@ zero_extendqisi2
 483              		.loc 1 242 0
 484 0004 5B79     		ldrb	r3, [r3, #5]	@ zero_extendqisi2
 485              		.loc 1 241 0
 486 0006 40EA0320 		orr	r0, r0, r3, lsl #8
 487              		.loc 1 243 0
 488 000a 00B2     		sxth	r0, r0
 489 000c 7047     		bx	lr
 490              	.L52:
 491 000e 00BF     		.align	2
 492              	.L51:
 493 0010 00000000 		.word	.LANCHOR15
 494              		.cfi_endproc
 495              	.LFE272:
 496              		.size	encoder_ts57n8501_get_abm, .-encoder_ts57n8501_get_abm
 497              		.section	.text.encoder_ts57n8501_reset_errors,"ax",%progbits
 498              		.align	1
 499              		.p2align 4,,15
 500              		.global	encoder_ts57n8501_reset_errors
 501              		.syntax unified
 502              		.thumb
 503              		.thumb_func
 504              		.fpu fpv4-sp-d16
 505              		.type	encoder_ts57n8501_reset_errors, %function
 506              	encoder_ts57n8501_reset_errors:
 507              	.LFB273:
 508              		.loc 1 245 0
 509              		.cfi_startproc
 510              		@ args = 0, pretend = 0, frame = 0
 511              		@ frame_needed = 0, uses_anonymous_args = 0
 512              		@ link register save eliminated.
 513              		.loc 1 246 0
ARM GAS  /tmp/ccB9eNXv.s 			page 10


 514 0000 014B     		ldr	r3, .L54
 515 0002 0122     		movs	r2, #1
 516 0004 1A70     		strb	r2, [r3]
 517              		.loc 1 247 0
 518 0006 7047     		bx	lr
 519              	.L55:
 520              		.align	2
 521              	.L54:
 522 0008 00000000 		.word	.LANCHOR16
 523              		.cfi_endproc
 524              	.LFE273:
 525              		.size	encoder_ts57n8501_reset_errors, .-encoder_ts57n8501_reset_errors
 526              		.section	.text.encoder_ts57n8501_reset_multiturn,"ax",%progbits
 527              		.align	1
 528              		.p2align 4,,15
 529              		.global	encoder_ts57n8501_reset_multiturn
 530              		.syntax unified
 531              		.thumb
 532              		.thumb_func
 533              		.fpu fpv4-sp-d16
 534              		.type	encoder_ts57n8501_reset_multiturn, %function
 535              	encoder_ts57n8501_reset_multiturn:
 536              	.LFB274:
 537              		.loc 1 249 0
 538              		.cfi_startproc
 539              		@ args = 0, pretend = 0, frame = 0
 540              		@ frame_needed = 0, uses_anonymous_args = 0
 541              		@ link register save eliminated.
 542              		.loc 1 250 0
 543 0000 014B     		ldr	r3, .L57
 544 0002 0122     		movs	r2, #1
 545 0004 1A70     		strb	r2, [r3]
 546              		.loc 1 251 0
 547 0006 7047     		bx	lr
 548              	.L58:
 549              		.align	2
 550              	.L57:
 551 0008 00000000 		.word	.LANCHOR17
 552              		.cfi_endproc
 553              	.LFE274:
 554              		.size	encoder_ts57n8501_reset_multiturn, .-encoder_ts57n8501_reset_multiturn
 555              		.section	.text.encoder_deinit,"ax",%progbits
 556              		.align	1
 557              		.p2align 4,,15
 558              		.global	encoder_deinit
 559              		.syntax unified
 560              		.thumb
 561              		.thumb_func
 562              		.fpu fpv4-sp-d16
 563              		.type	encoder_deinit, %function
 564              	encoder_deinit:
 565              	.LFB275:
 566              		.loc 1 253 0
 567              		.cfi_startproc
 568              		@ args = 0, pretend = 0, frame = 0
 569              		@ frame_needed = 0, uses_anonymous_args = 0
 570 0000 38B5     		push	{r3, r4, r5, lr}
ARM GAS  /tmp/ccB9eNXv.s 			page 11


 571              		.cfi_def_cfa_offset 16
 572              		.cfi_offset 3, -16
 573              		.cfi_offset 4, -12
 574              		.cfi_offset 5, -8
 575              		.cfi_offset 14, -4
 576              		.loc 1 254 0
 577 0002 1720     		movs	r0, #23
 578 0004 FFF7FEFF 		bl	nvicDisableVector
 579              	.LVL0:
 580              		.loc 1 255 0
 581 0008 1D20     		movs	r0, #29
 582 000a FFF7FEFF 		bl	nvicDisableVector
 583              	.LVL1:
 584              		.loc 1 257 0
 585 000e 2848     		ldr	r0, .L69
 586              		.loc 1 270 0
 587 0010 284C     		ldr	r4, .L69+4
 588              		.loc 1 257 0
 589 0012 FFF7FEFF 		bl	TIM_DeInit
 590              	.LVL2:
 591              		.loc 1 259 0
 592 0016 2022     		movs	r2, #32
 593 0018 8021     		movs	r1, #128
 594 001a 2748     		ldr	r0, .L69+8
 595 001c FFF7FEFF 		bl	_pal_lld_setgroupmode
 596              	.LVL3:
 597              		.loc 1 260 0
 598 0020 2022     		movs	r2, #32
 599 0022 4021     		movs	r1, #64
 600 0024 2448     		ldr	r0, .L69+8
 601 0026 FFF7FEFF 		bl	_pal_lld_setgroupmode
 602              	.LVL4:
 603              		.loc 1 261 0
 604 002a 2022     		movs	r2, #32
 605 002c 4FF48071 		mov	r1, #256
 606 0030 2148     		ldr	r0, .L69+8
 607 0032 FFF7FEFF 		bl	_pal_lld_setgroupmode
 608              	.LVL5:
 609              		.loc 1 264 0
 610 0036 2148     		ldr	r0, .L69+12
 611 0038 FFF7FEFF 		bl	spiStop
 612              	.LVL6:
 613              		.loc 1 267 0
 614 003c 2022     		movs	r2, #32
 615 003e 4021     		movs	r1, #64
 616 0040 1D48     		ldr	r0, .L69+8
 617 0042 FFF7FEFF 		bl	_pal_lld_setgroupmode
 618              	.LVL7:
 619              		.loc 1 268 0
 620 0046 2022     		movs	r2, #32
 621 0048 8021     		movs	r1, #128
 622 004a 1B48     		ldr	r0, .L69+8
 623 004c FFF7FEFF 		bl	_pal_lld_setgroupmode
 624              	.LVL8:
 625              		.loc 1 270 0
 626 0050 2378     		ldrb	r3, [r4]	@ zero_extendqisi2
 627 0052 052B     		cmp	r3, #5
ARM GAS  /tmp/ccB9eNXv.s 			page 12


 628 0054 0DD0     		beq	.L68
 629              	.L60:
 630              		.loc 1 285 0
 631 0056 1A4A     		ldr	r2, .L69+16
 632              		.loc 1 283 0
 633 0058 1A49     		ldr	r1, .L69+20
 634              		.loc 1 286 0
 635 005a 1B4D     		ldr	r5, .L69+24
 636              		.loc 1 287 0
 637 005c 1B48     		ldr	r0, .L69+28
 638              		.loc 1 285 0
 639 005e 0023     		movs	r3, #0
 640 0060 1360     		str	r3, [r2]	@ float
 641              		.loc 1 283 0
 642 0062 0022     		movs	r2, #0
 643 0064 0A70     		strb	r2, [r1]
 644              		.loc 1 288 0
 645 0066 1A49     		ldr	r1, .L69+32
 646              		.loc 1 284 0
 647 0068 2270     		strb	r2, [r4]
 648              		.loc 1 286 0
 649 006a 2B60     		str	r3, [r5]	@ float
 650              		.loc 1 287 0
 651 006c 0360     		str	r3, [r0]	@ float
 652              		.loc 1 288 0
 653 006e 0B60     		str	r3, [r1]	@ float
 654              		.loc 1 289 0
 655 0070 38BD     		pop	{r3, r4, r5, pc}
 656              	.L68:
 657              		.loc 1 271 0
 658 0072 184B     		ldr	r3, .L69+36
 659              		.loc 1 272 0
 660 0074 184D     		ldr	r5, .L69+40
 661              		.loc 1 271 0
 662 0076 0122     		movs	r2, #1
 663 0078 1A70     		strb	r2, [r3]
 664              		.loc 1 272 0
 665 007a 2B78     		ldrb	r3, [r5]	@ zero_extendqisi2
 666 007c 2BB1     		cbz	r3, .L61
 667              	.L62:
 668              		.loc 1 273 0
 669 007e 0A20     		movs	r0, #10
 670 0080 FFF7FEFF 		bl	chThdSleep
 671              	.LVL9:
 672              		.loc 1 272 0
 673 0084 2B78     		ldrb	r3, [r5]	@ zero_extendqisi2
 674 0086 002B     		cmp	r3, #0
 675 0088 F9D1     		bne	.L62
 676              	.L61:
 677              		.loc 1 276 0
 678 008a 2022     		movs	r2, #32
 679 008c 4FF48061 		mov	r1, #1024
 680 0090 1248     		ldr	r0, .L69+44
 681 0092 FFF7FEFF 		bl	_pal_lld_setgroupmode
 682              	.LVL10:
 683              		.loc 1 277 0
 684 0096 2022     		movs	r2, #32
ARM GAS  /tmp/ccB9eNXv.s 			page 13


 685 0098 4FF40061 		mov	r1, #2048
 686 009c 0F48     		ldr	r0, .L69+44
 687 009e FFF7FEFF 		bl	_pal_lld_setgroupmode
 688              	.LVL11:
 689              		.loc 1 279 0
 690 00a2 0322     		movs	r2, #3
 691 00a4 2021     		movs	r1, #32
 692 00a6 0E48     		ldr	r0, .L69+48
 693 00a8 FFF7FEFF 		bl	_pal_lld_setgroupmode
 694              	.LVL12:
 695 00ac D3E7     		b	.L60
 696              	.L70:
 697 00ae 00BF     		.align	2
 698              	.L69:
 699 00b0 00040040 		.word	1073742848
 700 00b4 00000000 		.word	.LANCHOR18
 701 00b8 00080240 		.word	1073874944
 702 00bc 00000000 		.word	SPID1
 703 00c0 00000000 		.word	.LANCHOR22
 704 00c4 00000000 		.word	.LANCHOR21
 705 00c8 00000000 		.word	.LANCHOR2
 706 00cc 00000000 		.word	.LANCHOR13
 707 00d0 00000000 		.word	.LANCHOR14
 708 00d4 00000000 		.word	.LANCHOR19
 709 00d8 00000000 		.word	.LANCHOR20
 710 00dc 00040240 		.word	1073873920
 711 00e0 00000240 		.word	1073872896
 712              		.cfi_endproc
 713              	.LFE275:
 714              		.size	encoder_deinit, .-encoder_deinit
 715              		.section	.text.encoder_init_abi,"ax",%progbits
 716              		.align	1
 717              		.p2align 4,,15
 718              		.global	encoder_init_abi
 719              		.syntax unified
 720              		.thumb
 721              		.thumb_func
 722              		.fpu fpv4-sp-d16
 723              		.type	encoder_init_abi, %function
 724              	encoder_init_abi:
 725              	.LFB276:
 726              		.loc 1 291 0
 727              		.cfi_startproc
 728              		@ args = 0, pretend = 0, frame = 8
 729              		@ frame_needed = 0, uses_anonymous_args = 0
 730              	.LVL13:
 731 0000 70B5     		push	{r4, r5, r6, lr}
 732              		.cfi_def_cfa_offset 16
 733              		.cfi_offset 4, -16
 734              		.cfi_offset 5, -12
 735              		.cfi_offset 6, -8
 736              		.cfi_offset 14, -4
 737              		.loc 1 296 0
 738 0002 284E     		ldr	r6, .L73
 739              		.loc 1 298 0
 740 0004 284C     		ldr	r4, .L73+4
 741              		.loc 1 295 0
ARM GAS  /tmp/ccB9eNXv.s 			page 14


 742 0006 294B     		ldr	r3, .L73+8
 743              		.loc 1 296 0
 744 0008 3060     		str	r0, [r6]
 745              		.loc 1 291 0
 746 000a 82B0     		sub	sp, sp, #8
 747              		.cfi_def_cfa_offset 24
 748              		.loc 1 295 0
 749 000c 0025     		movs	r5, #0
 750              		.loc 1 298 0
 751 000e 2046     		mov	r0, r4
 752              	.LVL14:
 753 0010 4FF48172 		mov	r2, #258
 754 0014 4021     		movs	r1, #64
 755              		.loc 1 295 0
 756 0016 1D70     		strb	r5, [r3]
 757              		.loc 1 298 0
 758 0018 FFF7FEFF 		bl	_pal_lld_setgroupmode
 759              	.LVL15:
 760              		.loc 1 299 0
 761 001c 4FF48172 		mov	r2, #258
 762 0020 2046     		mov	r0, r4
 763 0022 8021     		movs	r1, #128
 764 0024 FFF7FEFF 		bl	_pal_lld_setgroupmode
 765              	.LVL16:
 766              		.loc 1 303 0
 767 0028 0121     		movs	r1, #1
 768 002a 0220     		movs	r0, #2
 769              		.loc 1 308 0
 770 002c A4F50134 		sub	r4, r4, #132096
 771              		.loc 1 303 0
 772 0030 FFF7FEFF 		bl	RCC_APB1PeriphClockCmd
 773              	.LVL17:
 774              		.loc 1 306 0
 775 0034 0121     		movs	r1, #1
 776 0036 4FF48040 		mov	r0, #16384
 777 003a FFF7FEFF 		bl	RCC_APB2PeriphClockCmd
 778              	.LVL18:
 779              		.loc 1 308 0
 780 003e 2A46     		mov	r2, r5
 781 0040 2B46     		mov	r3, r5
 782 0042 2046     		mov	r0, r4
 783 0044 0321     		movs	r1, #3
 784 0046 FFF7FEFF 		bl	TIM_EncoderInterfaceConfig
 785              	.LVL19:
 786              		.loc 1 311 0
 787 004a 3168     		ldr	r1, [r6]
 788 004c 2046     		mov	r0, r4
 789 004e 0139     		subs	r1, r1, #1
 790 0050 FFF7FEFF 		bl	TIM_SetAutoreload
 791              	.LVL20:
 792              		.loc 1 314 0
 793 0054 A369     		ldr	r3, [r4, #24]
 794 0056 43F4C043 		orr	r3, r3, #24576
 795 005a 43F06003 		orr	r3, r3, #96
 796 005e A361     		str	r3, [r4, #24]
 797              		.loc 1 315 0
 798 0060 E369     		ldr	r3, [r4, #28]
ARM GAS  /tmp/ccB9eNXv.s 			page 15


 799 0062 43F06003 		orr	r3, r3, #96
 800 0066 E361     		str	r3, [r4, #28]
 801              		.loc 1 317 0
 802 0068 2046     		mov	r0, r4
 803 006a 0121     		movs	r1, #1
 804 006c FFF7FEFF 		bl	TIM_Cmd
 805              	.LVL21:
 806              		.loc 1 322 0
 807 0070 0821     		movs	r1, #8
 808 0072 0220     		movs	r0, #2
 809 0074 FFF7FEFF 		bl	SYSCFG_EXTILineConfig
 810              	.LVL22:
 811              		.loc 1 328 0
 812 0078 0124     		movs	r4, #1
 813              		.loc 1 325 0
 814 007a 4FF48072 		mov	r2, #256
 815              		.loc 1 327 0
 816 007e 0823     		movs	r3, #8
 817              		.loc 1 329 0
 818 0080 6846     		mov	r0, sp
 819              		.loc 1 327 0
 820 0082 8DF80530 		strb	r3, [sp, #5]
 821              		.loc 1 325 0
 822 0086 0092     		str	r2, [sp]
 823              		.loc 1 326 0
 824 0088 8DF80450 		strb	r5, [sp, #4]
 825              		.loc 1 328 0
 826 008c 8DF80640 		strb	r4, [sp, #6]
 827              		.loc 1 329 0
 828 0090 FFF7FEFF 		bl	EXTI_Init
 829              	.LVL23:
 830              		.loc 1 332 0
 831 0094 2946     		mov	r1, r5
 832 0096 1720     		movs	r0, #23
 833 0098 FFF7FEFF 		bl	nvicEnableVector
 834              	.LVL24:
 835              		.loc 1 334 0
 836 009c 044B     		ldr	r3, .L73+12
 837 009e 1C70     		strb	r4, [r3]
 838              		.loc 1 335 0
 839 00a0 02B0     		add	sp, sp, #8
 840              		.cfi_def_cfa_offset 16
 841              		@ sp needed
 842 00a2 70BD     		pop	{r4, r5, r6, pc}
 843              	.L74:
 844              		.align	2
 845              	.L73:
 846 00a4 00000000 		.word	.LANCHOR23
 847 00a8 00080240 		.word	1073874944
 848 00ac 00000000 		.word	.LANCHOR21
 849 00b0 00000000 		.word	.LANCHOR18
 850              		.cfi_endproc
 851              	.LFE276:
 852              		.size	encoder_init_abi, .-encoder_init_abi
 853              		.section	.text.encoder_init_as5047p_spi,"ax",%progbits
 854              		.align	1
 855              		.p2align 4,,15
ARM GAS  /tmp/ccB9eNXv.s 			page 16


 856              		.global	encoder_init_as5047p_spi
 857              		.syntax unified
 858              		.thumb
 859              		.thumb_func
 860              		.fpu fpv4-sp-d16
 861              		.type	encoder_init_as5047p_spi, %function
 862              	encoder_init_as5047p_spi:
 863              	.LFB277:
 864              		.loc 1 337 0
 865              		.cfi_startproc
 866              		@ args = 0, pretend = 0, frame = 16
 867              		@ frame_needed = 0, uses_anonymous_args = 0
 868 0000 30B5     		push	{r4, r5, lr}
 869              		.cfi_def_cfa_offset 12
 870              		.cfi_offset 4, -12
 871              		.cfi_offset 5, -8
 872              		.cfi_offset 14, -4
 873              		.loc 1 340 0
 874 0002 1E4D     		ldr	r5, .L77
 875              		.loc 1 359 0
 876 0004 1E4C     		ldr	r4, .L77+4
 877              		.loc 1 337 0
 878 0006 85B0     		sub	sp, sp, #20
 879              		.cfi_def_cfa_offset 32
 880              		.loc 1 340 0
 881 0008 2846     		mov	r0, r5
 882 000a 0022     		movs	r2, #0
 883 000c 8021     		movs	r1, #128
 884 000e FFF7FEFF 		bl	_pal_lld_setgroupmode
 885              	.LVL25:
 886              		.loc 1 341 0
 887 0012 2846     		mov	r0, r5
 888 0014 1922     		movs	r2, #25
 889 0016 4021     		movs	r1, #64
 890 0018 FFF7FEFF 		bl	_pal_lld_setgroupmode
 891              	.LVL26:
 892              		.loc 1 342 0
 893 001c 2846     		mov	r0, r5
 894 001e 1922     		movs	r2, #25
 895 0020 4FF48071 		mov	r1, #256
 896 0024 FFF7FEFF 		bl	_pal_lld_setgroupmode
 897              	.LVL27:
 898              		.loc 1 351 0
 899 0028 0121     		movs	r1, #1
 900 002a 0220     		movs	r0, #2
 901 002c FFF7FEFF 		bl	RCC_APB1PeriphClockCmd
 902              	.LVL28:
 903              		.loc 1 354 0
 904 0030 0023     		movs	r3, #0
 905              		.loc 1 359 0
 906 0032 2046     		mov	r0, r4
 907              		.loc 1 355 0
 908 0034 41F26702 		movw	r2, #4199
 909              		.loc 1 359 0
 910 0038 01A9     		add	r1, sp, #4
 911              		.loc 1 354 0
 912 003a 0193     		str	r3, [sp, #4]
ARM GAS  /tmp/ccB9eNXv.s 			page 17


 913              		.loc 1 356 0
 914 003c ADF80C30 		strh	r3, [sp, #12]	@ movhi
 915              		.loc 1 357 0
 916 0040 8DF80E30 		strb	r3, [sp, #14]
 917              		.loc 1 355 0
 918 0044 0292     		str	r2, [sp, #8]
 919              		.loc 1 359 0
 920 0046 FFF7FEFF 		bl	TIM_TimeBaseInit
 921              	.LVL29:
 922              		.loc 1 362 0
 923 004a 0122     		movs	r2, #1
 924 004c 1146     		mov	r1, r2
 925 004e 2046     		mov	r0, r4
 926 0050 FFF7FEFF 		bl	TIM_ITConfig
 927              	.LVL30:
 928              		.loc 1 365 0
 929 0054 2046     		mov	r0, r4
 930 0056 0121     		movs	r1, #1
 931 0058 FFF7FEFF 		bl	TIM_Cmd
 932              	.LVL31:
 933              		.loc 1 367 0
 934 005c 0621     		movs	r1, #6
 935 005e 1D20     		movs	r0, #29
 936 0060 FFF7FEFF 		bl	nvicEnableVector
 937              	.LVL32:
 938              		.loc 1 369 0
 939 0064 074C     		ldr	r4, .L77+8
 940              		.loc 1 370 0
 941 0066 0849     		ldr	r1, .L77+12
 942              		.loc 1 371 0
 943 0068 084B     		ldr	r3, .L77+16
 944 006a 0022     		movs	r2, #0
 945              		.loc 1 369 0
 946 006c 0225     		movs	r5, #2
 947              		.loc 1 370 0
 948 006e 0120     		movs	r0, #1
 949              		.loc 1 369 0
 950 0070 2570     		strb	r5, [r4]
 951              		.loc 1 370 0
 952 0072 0870     		strb	r0, [r1]
 953              		.loc 1 371 0
 954 0074 1A60     		str	r2, [r3]	@ float
 955              		.loc 1 373 0
 956 0076 05B0     		add	sp, sp, #20
 957              		.cfi_def_cfa_offset 12
 958              		@ sp needed
 959 0078 30BD     		pop	{r4, r5, pc}
 960              	.L78:
 961 007a 00BF     		.align	2
 962              	.L77:
 963 007c 00080240 		.word	1073874944
 964 0080 00040040 		.word	1073742848
 965 0084 00000000 		.word	.LANCHOR18
 966 0088 00000000 		.word	.LANCHOR21
 967 008c 00000000 		.word	.LANCHOR2
 968              		.cfi_endproc
 969              	.LFE277:
ARM GAS  /tmp/ccB9eNXv.s 			page 18


 970              		.size	encoder_init_as5047p_spi, .-encoder_init_as5047p_spi
 971              		.section	.text.encoder_init_mt6816_spi,"ax",%progbits
 972              		.align	1
 973              		.p2align 4,,15
 974              		.global	encoder_init_mt6816_spi
 975              		.syntax unified
 976              		.thumb
 977              		.thumb_func
 978              		.fpu fpv4-sp-d16
 979              		.type	encoder_init_mt6816_spi, %function
 980              	encoder_init_mt6816_spi:
 981              	.LFB278:
 982              		.loc 1 375 0
 983              		.cfi_startproc
 984              		@ args = 0, pretend = 0, frame = 16
 985              		@ frame_needed = 0, uses_anonymous_args = 0
 986 0000 30B5     		push	{r4, r5, lr}
 987              		.cfi_def_cfa_offset 12
 988              		.cfi_offset 4, -12
 989              		.cfi_offset 5, -8
 990              		.cfi_offset 14, -4
 991              		.loc 1 379 0
 992 0002 224D     		ldr	r5, .L81
 993              		.loc 1 399 0
 994 0004 224C     		ldr	r4, .L81+4
 995              		.loc 1 375 0
 996 0006 85B0     		sub	sp, sp, #20
 997              		.cfi_def_cfa_offset 32
 998              		.loc 1 379 0
 999 0008 2846     		mov	r0, r5
 1000 000a 40F21A32 		movw	r2, #794
 1001 000e 4021     		movs	r1, #64
 1002 0010 FFF7FEFF 		bl	_pal_lld_setgroupmode
 1003              	.LVL33:
 1004              		.loc 1 380 0
 1005 0014 2846     		mov	r0, r5
 1006 0016 40F21A32 		movw	r2, #794
 1007 001a 8021     		movs	r1, #128
 1008 001c FFF7FEFF 		bl	_pal_lld_setgroupmode
 1009              	.LVL34:
 1010              		.loc 1 381 0
 1011 0020 1922     		movs	r2, #25
 1012 0022 2846     		mov	r0, r5
 1013 0024 4FF48071 		mov	r1, #256
 1014 0028 FFF7FEFF 		bl	_pal_lld_setgroupmode
 1015              	.LVL35:
 1016              		.loc 1 388 0
 1017 002c 1949     		ldr	r1, .L81+8
 1018 002e 1A48     		ldr	r0, .L81+12
 1019 0030 FFF7FEFF 		bl	spiStart
 1020              	.LVL36:
 1021              		.loc 1 391 0
 1022 0034 0121     		movs	r1, #1
 1023 0036 0220     		movs	r0, #2
 1024 0038 FFF7FEFF 		bl	RCC_APB1PeriphClockCmd
 1025              	.LVL37:
 1026              		.loc 1 394 0
ARM GAS  /tmp/ccB9eNXv.s 			page 19


 1027 003c 0023     		movs	r3, #0
 1028              		.loc 1 399 0
 1029 003e 2046     		mov	r0, r4
 1030              		.loc 1 395 0
 1031 0040 41F26702 		movw	r2, #4199
 1032              		.loc 1 399 0
 1033 0044 01A9     		add	r1, sp, #4
 1034              		.loc 1 394 0
 1035 0046 0193     		str	r3, [sp, #4]
 1036              		.loc 1 396 0
 1037 0048 ADF80C30 		strh	r3, [sp, #12]	@ movhi
 1038              		.loc 1 397 0
 1039 004c 8DF80E30 		strb	r3, [sp, #14]
 1040              		.loc 1 395 0
 1041 0050 0292     		str	r2, [sp, #8]
 1042              		.loc 1 399 0
 1043 0052 FFF7FEFF 		bl	TIM_TimeBaseInit
 1044              	.LVL38:
 1045              		.loc 1 402 0
 1046 0056 0122     		movs	r2, #1
 1047 0058 1146     		mov	r1, r2
 1048 005a 2046     		mov	r0, r4
 1049 005c FFF7FEFF 		bl	TIM_ITConfig
 1050              	.LVL39:
 1051              		.loc 1 405 0
 1052 0060 2046     		mov	r0, r4
 1053 0062 0121     		movs	r1, #1
 1054 0064 FFF7FEFF 		bl	TIM_Cmd
 1055              	.LVL40:
 1056              		.loc 1 407 0
 1057 0068 0621     		movs	r1, #6
 1058 006a 1D20     		movs	r0, #29
 1059 006c FFF7FEFF 		bl	nvicEnableVector
 1060              	.LVL41:
 1061              		.loc 1 411 0
 1062 0070 0A48     		ldr	r0, .L81+16
 1063              		.loc 1 409 0
 1064 0072 0B4C     		ldr	r4, .L81+20
 1065              		.loc 1 410 0
 1066 0074 0B49     		ldr	r1, .L81+24
 1067              		.loc 1 412 0
 1068 0076 0C4A     		ldr	r2, .L81+28
 1069              		.loc 1 411 0
 1070 0078 0023     		movs	r3, #0
 1071 007a 0360     		str	r3, [r0]	@ float
 1072              		.loc 1 409 0
 1073 007c 0625     		movs	r5, #6
 1074              		.loc 1 410 0
 1075 007e 0120     		movs	r0, #1
 1076              		.loc 1 409 0
 1077 0080 2570     		strb	r5, [r4]
 1078              		.loc 1 410 0
 1079 0082 0870     		strb	r0, [r1]
 1080              		.loc 1 412 0
 1081 0084 1360     		str	r3, [r2]	@ float
 1082              		.loc 1 414 0
 1083 0086 05B0     		add	sp, sp, #20
ARM GAS  /tmp/ccB9eNXv.s 			page 20


 1084              		.cfi_def_cfa_offset 12
 1085              		@ sp needed
 1086 0088 30BD     		pop	{r4, r5, pc}
 1087              	.L82:
 1088 008a 00BF     		.align	2
 1089              	.L81:
 1090 008c 00080240 		.word	1073874944
 1091 0090 00040040 		.word	1073742848
 1092 0094 00000000 		.word	.LANCHOR24
 1093 0098 00000000 		.word	SPID1
 1094 009c 00000000 		.word	.LANCHOR2
 1095 00a0 00000000 		.word	.LANCHOR18
 1096 00a4 00000000 		.word	.LANCHOR21
 1097 00a8 00000000 		.word	.LANCHOR4
 1098              		.cfi_endproc
 1099              	.LFE278:
 1100              		.size	encoder_init_mt6816_spi, .-encoder_init_mt6816_spi
 1101              		.section	.text.encoder_init_ad2s1205_spi,"ax",%progbits
 1102              		.align	1
 1103              		.p2align 4,,15
 1104              		.global	encoder_init_ad2s1205_spi
 1105              		.syntax unified
 1106              		.thumb
 1107              		.thumb_func
 1108              		.fpu fpv4-sp-d16
 1109              		.type	encoder_init_ad2s1205_spi, %function
 1110              	encoder_init_ad2s1205_spi:
 1111              	.LFB279:
 1112              		.loc 1 416 0
 1113              		.cfi_startproc
 1114              		@ args = 0, pretend = 0, frame = 16
 1115              		@ frame_needed = 0, uses_anonymous_args = 0
 1116 0000 70B5     		push	{r4, r5, r6, lr}
 1117              		.cfi_def_cfa_offset 16
 1118              		.cfi_offset 4, -16
 1119              		.cfi_offset 5, -12
 1120              		.cfi_offset 6, -8
 1121              		.cfi_offset 14, -4
 1122              		.loc 1 419 0
 1123 0002 2248     		ldr	r0, .L85
 1124              		.loc 1 420 0
 1125 0004 224C     		ldr	r4, .L85+4
 1126              		.loc 1 421 0
 1127 0006 2349     		ldr	r1, .L85+8
 1128              		.loc 1 425 0
 1129 0008 234E     		ldr	r6, .L85+12
 1130              		.loc 1 422 0
 1131 000a 244A     		ldr	r2, .L85+16
 1132              		.loc 1 455 0
 1133 000c 244D     		ldr	r5, .L85+20
 1134              		.loc 1 419 0
 1135 000e 0023     		movs	r3, #0
 1136 0010 0360     		str	r3, [r0]	@ float
 1137              		.loc 1 420 0
 1138 0012 2360     		str	r3, [r4]	@ float
 1139              		.loc 1 421 0
 1140 0014 0B60     		str	r3, [r1]	@ float
ARM GAS  /tmp/ccB9eNXv.s 			page 21


 1141              		.loc 1 422 0
 1142 0016 0024     		movs	r4, #0
 1143              		.loc 1 423 0
 1144 0018 224B     		ldr	r3, .L85+24
 1145              		.loc 1 422 0
 1146 001a 1460     		str	r4, [r2]
 1147              		.loc 1 416 0
 1148 001c 84B0     		sub	sp, sp, #16
 1149              		.cfi_def_cfa_offset 32
 1150              		.loc 1 425 0
 1151 001e 3046     		mov	r0, r6
 1152 0020 2246     		mov	r2, r4
 1153 0022 8021     		movs	r1, #128
 1154              		.loc 1 423 0
 1155 0024 1C60     		str	r4, [r3]
 1156              		.loc 1 425 0
 1157 0026 FFF7FEFF 		bl	_pal_lld_setgroupmode
 1158              	.LVL42:
 1159              		.loc 1 426 0
 1160 002a 3046     		mov	r0, r6
 1161 002c 1922     		movs	r2, #25
 1162 002e 4021     		movs	r1, #64
 1163 0030 FFF7FEFF 		bl	_pal_lld_setgroupmode
 1164              	.LVL43:
 1165              		.loc 1 427 0
 1166 0034 1922     		movs	r2, #25
 1167 0036 3046     		mov	r0, r6
 1168 0038 4FF48071 		mov	r1, #256
 1169 003c FFF7FEFF 		bl	_pal_lld_setgroupmode
 1170              	.LVL44:
 1171              		.loc 1 447 0
 1172 0040 0121     		movs	r1, #1
 1173 0042 0220     		movs	r0, #2
 1174 0044 FFF7FEFF 		bl	RCC_APB1PeriphClockCmd
 1175              	.LVL45:
 1176              		.loc 1 451 0
 1177 0048 41F26703 		movw	r3, #4199
 1178              		.loc 1 455 0
 1179 004c 2846     		mov	r0, r5
 1180 004e 01A9     		add	r1, sp, #4
 1181              		.loc 1 451 0
 1182 0050 0293     		str	r3, [sp, #8]
 1183              		.loc 1 450 0
 1184 0052 0194     		str	r4, [sp, #4]
 1185              		.loc 1 452 0
 1186 0054 ADF80C40 		strh	r4, [sp, #12]	@ movhi
 1187              		.loc 1 453 0
 1188 0058 8DF80E40 		strb	r4, [sp, #14]
 1189              		.loc 1 455 0
 1190 005c FFF7FEFF 		bl	TIM_TimeBaseInit
 1191              	.LVL46:
 1192              		.loc 1 458 0
 1193 0060 0122     		movs	r2, #1
 1194 0062 1146     		mov	r1, r2
 1195 0064 2846     		mov	r0, r5
 1196 0066 FFF7FEFF 		bl	TIM_ITConfig
 1197              	.LVL47:
ARM GAS  /tmp/ccB9eNXv.s 			page 22


 1198              		.loc 1 461 0
 1199 006a 2846     		mov	r0, r5
 1200 006c 0121     		movs	r1, #1
 1201 006e FFF7FEFF 		bl	TIM_Cmd
 1202              	.LVL48:
 1203              		.loc 1 463 0
 1204 0072 0621     		movs	r1, #6
 1205 0074 1D20     		movs	r0, #29
 1206 0076 FFF7FEFF 		bl	nvicEnableVector
 1207              	.LVL49:
 1208              		.loc 1 465 0
 1209 007a 0B49     		ldr	r1, .L85+28
 1210              		.loc 1 466 0
 1211 007c 0B4B     		ldr	r3, .L85+32
 1212              		.loc 1 465 0
 1213 007e 0320     		movs	r0, #3
 1214              		.loc 1 466 0
 1215 0080 0122     		movs	r2, #1
 1216              		.loc 1 465 0
 1217 0082 0870     		strb	r0, [r1]
 1218              		.loc 1 466 0
 1219 0084 1A70     		strb	r2, [r3]
 1220              		.loc 1 467 0
 1221 0086 04B0     		add	sp, sp, #16
 1222              		.cfi_def_cfa_offset 16
 1223              		@ sp needed
 1224 0088 70BD     		pop	{r4, r5, r6, pc}
 1225              	.L86:
 1226 008a 00BF     		.align	2
 1227              	.L85:
 1228 008c 00000000 		.word	.LANCHOR5
 1229 0090 00000000 		.word	.LANCHOR6
 1230 0094 00000000 		.word	.LANCHOR7
 1231 0098 00080240 		.word	1073874944
 1232 009c 00000000 		.word	.LANCHOR8
 1233 00a0 00040040 		.word	1073742848
 1234 00a4 00000000 		.word	.LANCHOR10
 1235 00a8 00000000 		.word	.LANCHOR18
 1236 00ac 00000000 		.word	.LANCHOR21
 1237              		.cfi_endproc
 1238              	.LFE279:
 1239              		.size	encoder_init_ad2s1205_spi, .-encoder_init_ad2s1205_spi
 1240              		.section	.text.encoder_init_sincos,"ax",%progbits
 1241              		.align	1
 1242              		.p2align 4,,15
 1243              		.global	encoder_init_sincos
 1244              		.syntax unified
 1245              		.thumb
 1246              		.thumb_func
 1247              		.fpu fpv4-sp-d16
 1248              		.type	encoder_init_sincos, %function
 1249              	encoder_init_sincos:
 1250              	.LFB280:
 1251              		.loc 1 470 0
 1252              		.cfi_startproc
 1253              		@ args = 0, pretend = 0, frame = 0
 1254              		@ frame_needed = 0, uses_anonymous_args = 0
ARM GAS  /tmp/ccB9eNXv.s 			page 23


 1255              		@ link register save eliminated.
 1256              	.LVL50:
 1257 0000 70B4     		push	{r4, r5, r6}
 1258              		.cfi_def_cfa_offset 12
 1259              		.cfi_offset 4, -12
 1260              		.cfi_offset 5, -8
 1261              		.cfi_offset 6, -4
 1262              		.loc 1 480 0
 1263 0002 084B     		ldr	r3, .L89
 1264              		.loc 1 478 0
 1265 0004 084E     		ldr	r6, .L89+4
 1266              		.loc 1 479 0
 1267 0006 094D     		ldr	r5, .L89+8
 1268              		.loc 1 488 0
 1269 0008 094C     		ldr	r4, .L89+12
 1270              		.loc 1 489 0
 1271 000a 0A48     		ldr	r0, .L89+16
 1272              		.loc 1 481 0
 1273 000c 0A49     		ldr	r1, .L89+20
 1274              		.loc 1 480 0
 1275 000e 0022     		movs	r2, #0
 1276 0010 1A60     		str	r2, [r3]	@ float
 1277              		.loc 1 478 0
 1278 0012 0023     		movs	r3, #0
 1279 0014 3360     		str	r3, [r6]
 1280              		.loc 1 479 0
 1281 0016 2B60     		str	r3, [r5]
 1282              		.loc 1 488 0
 1283 0018 2370     		strb	r3, [r4]
 1284              		.loc 1 489 0
 1285 001a 0370     		strb	r3, [r0]
 1286              		.loc 1 481 0
 1287 001c 0A60     		str	r2, [r1]	@ float
 1288              		.loc 1 491 0
 1289 001e 70BC     		pop	{r4, r5, r6}
 1290              		.cfi_restore 6
 1291              		.cfi_restore 5
 1292              		.cfi_restore 4
 1293              		.cfi_def_cfa_offset 0
 1294 0020 7047     		bx	lr
 1295              	.L90:
 1296 0022 00BF     		.align	2
 1297              	.L89:
 1298 0024 00000000 		.word	.LANCHOR13
 1299 0028 00000000 		.word	.LANCHOR11
 1300 002c 00000000 		.word	.LANCHOR12
 1301 0030 00000000 		.word	.LANCHOR18
 1302 0034 00000000 		.word	.LANCHOR21
 1303 0038 00000000 		.word	.LANCHOR14
 1304              		.cfi_endproc
 1305              	.LFE280:
 1306              		.size	encoder_init_sincos, .-encoder_init_sincos
 1307              		.section	.text.encoder_init_ts5700n8501,"ax",%progbits
 1308              		.align	1
 1309              		.p2align 4,,15
 1310              		.global	encoder_init_ts5700n8501
 1311              		.syntax unified
ARM GAS  /tmp/ccB9eNXv.s 			page 24


 1312              		.thumb
 1313              		.thumb_func
 1314              		.fpu fpv4-sp-d16
 1315              		.type	encoder_init_ts5700n8501, %function
 1316              	encoder_init_ts5700n8501:
 1317              	.LFB281:
 1318              		.loc 1 493 0
 1319              		.cfi_startproc
 1320              		@ args = 0, pretend = 0, frame = 0
 1321              		@ frame_needed = 0, uses_anonymous_args = 0
 1322 0000 30B5     		push	{r4, r5, lr}
 1323              		.cfi_def_cfa_offset 12
 1324              		.cfi_offset 4, -12
 1325              		.cfi_offset 5, -8
 1326              		.cfi_offset 14, -4
 1327              		.loc 1 496 0
 1328 0002 0D4B     		ldr	r3, .L93
 1329              		.loc 1 498 0
 1330 0004 0D4D     		ldr	r5, .L93+4
 1331              		.loc 1 495 0
 1332 0006 0E49     		ldr	r1, .L93+8
 1333              		.loc 1 494 0
 1334 0008 0E4A     		ldr	r2, .L93+12
 1335              		.loc 1 497 0
 1336 000a 0F48     		ldr	r0, .L93+16
 1337              		.loc 1 493 0
 1338 000c 83B0     		sub	sp, sp, #12
 1339              		.cfi_def_cfa_offset 24
 1340              		.loc 1 496 0
 1341 000e 0024     		movs	r4, #0
 1342 0010 1C60     		str	r4, [r3]	@ float
 1343              		.loc 1 497 0
 1344 0012 0024     		movs	r4, #0
 1345              		.loc 1 495 0
 1346 0014 0123     		movs	r3, #1
 1347              		.loc 1 501 0
 1348 0016 0094     		str	r4, [sp]
 1349              		.loc 1 498 0
 1350 0018 2B70     		strb	r3, [r5]
 1351              		.loc 1 499 0
 1352 001a 0C4D     		ldr	r5, .L93+20
 1353              		.loc 1 495 0
 1354 001c 0B70     		strb	r3, [r1]
 1355              		.loc 1 494 0
 1356 001e 0521     		movs	r1, #5
 1357 0020 1170     		strb	r1, [r2]
 1358              		.loc 1 497 0
 1359 0022 0460     		str	r4, [r0]
 1360              		.loc 1 501 0
 1361 0024 0A4B     		ldr	r3, .L93+24
 1362              		.loc 1 499 0
 1363 0026 2C70     		strb	r4, [r5]
 1364              		.loc 1 501 0
 1365 0028 3622     		movs	r2, #54
 1366 002a 4FF46871 		mov	r1, #928
 1367 002e 0948     		ldr	r0, .L93+28
 1368 0030 FFF7FEFF 		bl	chThdCreateStatic
ARM GAS  /tmp/ccB9eNXv.s 			page 25


 1369              	.LVL51:
 1370              		.loc 1 503 0
 1371 0034 03B0     		add	sp, sp, #12
 1372              		.cfi_def_cfa_offset 12
 1373              		@ sp needed
 1374 0036 30BD     		pop	{r4, r5, pc}
 1375              	.L94:
 1376              		.align	2
 1377              	.L93:
 1378 0038 00000000 		.word	.LANCHOR2
 1379 003c 00000000 		.word	.LANCHOR20
 1380 0040 00000000 		.word	.LANCHOR21
 1381 0044 00000000 		.word	.LANCHOR18
 1382 0048 00000000 		.word	.LANCHOR0
 1383 004c 00000000 		.word	.LANCHOR19
 1384 0050 00000000 		.word	ts5700n8501_thread
 1385 0054 00000000 		.word	.LANCHOR25
 1386              		.cfi_endproc
 1387              	.LFE281:
 1388              		.size	encoder_init_ts5700n8501, .-encoder_init_ts5700n8501
 1389              		.section	.text.encoder_is_configured,"ax",%progbits
 1390              		.align	1
 1391              		.p2align 4,,15
 1392              		.global	encoder_is_configured
 1393              		.syntax unified
 1394              		.thumb
 1395              		.thumb_func
 1396              		.fpu fpv4-sp-d16
 1397              		.type	encoder_is_configured, %function
 1398              	encoder_is_configured:
 1399              	.LFB282:
 1400              		.loc 1 505 0
 1401              		.cfi_startproc
 1402              		@ args = 0, pretend = 0, frame = 0
 1403              		@ frame_needed = 0, uses_anonymous_args = 0
 1404              		@ link register save eliminated.
 1405              		.loc 1 506 0
 1406 0000 024B     		ldr	r3, .L96
 1407 0002 1878     		ldrb	r0, [r3]	@ zero_extendqisi2
 1408              		.loc 1 507 0
 1409 0004 0030     		adds	r0, r0, #0
 1410 0006 18BF     		it	ne
 1411 0008 0120     		movne	r0, #1
 1412 000a 7047     		bx	lr
 1413              	.L97:
 1414              		.align	2
 1415              	.L96:
 1416 000c 00000000 		.word	.LANCHOR18
 1417              		.cfi_endproc
 1418              	.LFE282:
 1419              		.size	encoder_is_configured, .-encoder_is_configured
 1420              		.section	.text.encoder_read_deg,"ax",%progbits
 1421              		.align	1
 1422              		.p2align 4,,15
 1423              		.global	encoder_read_deg
 1424              		.syntax unified
 1425              		.thumb
ARM GAS  /tmp/ccB9eNXv.s 			page 26


 1426              		.thumb_func
 1427              		.fpu fpv4-sp-d16
 1428              		.type	encoder_read_deg, %function
 1429              	encoder_read_deg:
 1430              	.LFB283:
 1431              		.loc 1 515 0
 1432              		.cfi_startproc
 1433              		@ args = 0, pretend = 0, frame = 0
 1434              		@ frame_needed = 0, uses_anonymous_args = 0
 1435              		@ link register save eliminated.
 1436              		.loc 1 518 0
 1437 0000 154B     		ldr	r3, .L107
 1438 0002 1B78     		ldrb	r3, [r3]	@ zero_extendqisi2
 1439 0004 062B     		cmp	r3, #6
 1440 0006 07D8     		bhi	.L102
 1441 0008 0122     		movs	r2, #1
 1442 000a 02FA03F3 		lsl	r3, r2, r3
 1443 000e 13F06C0F 		tst	r3, #108
 1444 0012 05D1     		bne	.L101
 1445 0014 9B07     		lsls	r3, r3, #30
 1446 0016 0AD4     		bmi	.L106
 1447              	.L102:
 1448 0018 104B     		ldr	r3, .L107+4
 1449 001a 93ED000A 		vldr.32	s0, [r3]
 1450 001e 7047     		bx	lr
 1451              	.L101:
 1452              		.loc 1 527 0
 1453 0020 0F4A     		ldr	r2, .L107+8
 1454 0022 0E4B     		ldr	r3, .L107+4
 1455 0024 92ED000A 		vldr.32	s0, [r2]
 1456 0028 83ED000A 		vstr.32	s0, [r3]
 1457              		.loc 1 565 0
 1458 002c 7047     		bx	lr
 1459              	.L106:
 1460              		.loc 1 520 0
 1461 002e 0D4A     		ldr	r2, .L107+12
 1462 0030 0D4B     		ldr	r3, .L107+16
 1463 0032 D2ED097A 		vldr.32	s15, [r2, #36]	@ int
 1464 0036 93ED007A 		vldr.32	s14, [r3]	@ int
 1465 003a DFED0C6A 		vldr.32	s13, .L107+20
 1466 003e 074B     		ldr	r3, .L107+4
 1467 0040 F8EE677A 		vcvt.f32.u32	s15, s15
 1468 0044 B8EE477A 		vcvt.f32.u32	s14, s14
 1469 0048 67EEA67A 		vmul.f32	s15, s15, s13
 1470 004c 87EE870A 		vdiv.f32	s0, s15, s14
 1471 0050 83ED000A 		vstr.32	s0, [r3]
 1472              		.loc 1 521 0
 1473 0054 7047     		bx	lr
 1474              	.L108:
 1475 0056 00BF     		.align	2
 1476              	.L107:
 1477 0058 00000000 		.word	.LANCHOR18
 1478 005c 00000000 		.word	.LANCHOR26
 1479 0060 00000000 		.word	.LANCHOR22
 1480 0064 00040040 		.word	1073742848
 1481 0068 00000000 		.word	.LANCHOR23
 1482 006c 0000B443 		.word	1135869952
ARM GAS  /tmp/ccB9eNXv.s 			page 27


 1483              		.cfi_endproc
 1484              	.LFE283:
 1485              		.size	encoder_read_deg, .-encoder_read_deg
 1486              		.section	.text.encoder_read_deg_multiturn,"ax",%progbits
 1487              		.align	1
 1488              		.p2align 4,,15
 1489              		.global	encoder_read_deg_multiturn
 1490              		.syntax unified
 1491              		.thumb
 1492              		.thumb_func
 1493              		.fpu fpv4-sp-d16
 1494              		.type	encoder_read_deg_multiturn, %function
 1495              	encoder_read_deg_multiturn:
 1496              	.LFB284:
 1497              		.loc 1 570 0
 1498              		.cfi_startproc
 1499              		@ args = 0, pretend = 0, frame = 0
 1500              		@ frame_needed = 0, uses_anonymous_args = 0
 1501 0000 08B5     		push	{r3, lr}
 1502              		.cfi_def_cfa_offset 8
 1503              		.cfi_offset 3, -8
 1504              		.cfi_offset 14, -4
 1505              		.loc 1 571 0
 1506 0002 1A4B     		ldr	r3, .L117
 1507 0004 1B78     		ldrb	r3, [r3]	@ zero_extendqisi2
 1508 0006 052B     		cmp	r3, #5
 1509 0008 2BD1     		bne	.L110
 1510              	.LBB377:
 1511              	.LBB378:
 1512              	.LBB379:
 1513              		.loc 1 241 0
 1514 000a 194A     		ldr	r2, .L117+4
 1515              	.LBE379:
 1516              	.LBE378:
 1517              		.loc 1 574 0
 1518 000c 9FED197A 		vldr.32	s14, .L117+8
 1519              	.LBB381:
 1520              	.LBB380:
 1521              		.loc 1 241 0
 1522 0010 1379     		ldrb	r3, [r2, #4]	@ zero_extendqisi2
 1523              		.loc 1 242 0
 1524 0012 5379     		ldrb	r3, [r2, #5]	@ zero_extendqisi2
 1525              	.LBE380:
 1526              	.LBE381:
 1527              	.LBB382:
 1528              	.LBB383:
 1529              		.loc 1 241 0
 1530 0014 1379     		ldrb	r3, [r2, #4]	@ zero_extendqisi2
 1531              		.loc 1 242 0
 1532 0016 5279     		ldrb	r2, [r2, #5]	@ zero_extendqisi2
 1533              		.loc 1 241 0
 1534 0018 43EA0223 		orr	r3, r3, r2, lsl #8
 1535              	.LBE383:
 1536              	.LBE382:
 1537              		.loc 1 573 0
 1538 001c 1BB2     		sxth	r3, r3
 1539 001e 07EE903A 		vmov	s15, r3	@ int
ARM GAS  /tmp/ccB9eNXv.s 			page 28


 1540 0022 F8EEE77A 		vcvt.f32.s32	s15, s15
 1541              	.LVL52:
 1542              		.loc 1 574 0
 1543 0026 F0EEE76A 		vabs.f32	s13, s15
 1544 002a F4EEC76A 		vcmpe.f32	s13, s14
 1545 002e F1EE10FA 		vmrs	APSR_nzcv, FPSCR
 1546 0032 13DD     		ble	.L116
 1547              	.LVL53:
 1548              	.LBB384:
 1549              	.LBB385:
 1550              		.loc 1 250 0
 1551 0034 104B     		ldr	r3, .L117+12
 1552 0036 0122     		movs	r2, #1
 1553 0038 B0EE476A 		vmov.f32	s12, s14
 1554 003c 1A70     		strb	r2, [r3]
 1555              	.LVL54:
 1556              	.L112:
 1557              	.LBE385:
 1558              	.LBE384:
 1559              		.loc 1 581 0
 1560 003e FFF7FEFF 		bl	encoder_read_deg
 1561              	.LVL55:
 1562 0042 DFED0E7A 		vldr.32	s15, .L117+16
 1563 0046 DFED0E6A 		vldr.32	s13, .L117+20
 1564 004a 66EE277A 		vmul.f32	s15, s12, s15
 1565 004e 80EE267A 		vdiv.f32	s14, s0, s13
 1566 0052 87EEA60A 		vdiv.f32	s0, s15, s13
 1567 0056 30EE070A 		vadd.f32	s0, s0, s14
 1568              	.LBE377:
 1569              		.loc 1 585 0
 1570 005a 08BD     		pop	{r3, pc}
 1571              	.LVL56:
 1572              	.L116:
 1573 005c 37EE876A 		vadd.f32	s12, s15, s14
 1574 0060 EDE7     		b	.L112
 1575              	.LVL57:
 1576              	.L110:
 1577 0062 BDE80840 		pop	{r3, lr}
 1578              		.cfi_restore 14
 1579              		.cfi_restore 3
 1580              		.cfi_def_cfa_offset 0
 1581              		.loc 1 583 0
 1582 0066 FFF7FEBF 		b	encoder_read_deg
 1583              	.LVL58:
 1584              	.L118:
 1585 006a 00BF     		.align	2
 1586              	.L117:
 1587 006c 00000000 		.word	.LANCHOR18
 1588 0070 00000000 		.word	.LANCHOR15
 1589 0074 00409C45 		.word	1167867904
 1590 0078 00000000 		.word	.LANCHOR17
 1591 007c 0000B443 		.word	1135869952
 1592 0080 00401C46 		.word	1176256512
 1593              		.cfi_endproc
 1594              	.LFE284:
 1595              		.size	encoder_read_deg_multiturn, .-encoder_read_deg_multiturn
 1596              		.section	.text.encoder_reset,"ax",%progbits
ARM GAS  /tmp/ccB9eNXv.s 			page 29


 1597              		.align	1
 1598              		.p2align 4,,15
 1599              		.global	encoder_reset
 1600              		.syntax unified
 1601              		.thumb
 1602              		.thumb_func
 1603              		.fpu fpv4-sp-d16
 1604              		.type	encoder_reset, %function
 1605              	encoder_reset:
 1606              	.LFB285:
 1607              		.loc 1 590 0
 1608              		.cfi_startproc
 1609              		@ args = 0, pretend = 0, frame = 0
 1610              		@ frame_needed = 0, uses_anonymous_args = 0
 1611              		@ link register save eliminated.
 1612              	.LBB386:
 1613              	.LBB387:
 1614              		.file 2 "ChibiOS_3.0.5/os/ext/CMSIS/include/core_cmInstr.h"
 1615              		.loc 2 327 0
 1616              		.syntax unified
 1617              	@ 327 "ChibiOS_3.0.5/os/ext/CMSIS/include/core_cmInstr.h" 1
 1618 0000 00BF     		nop
 1619              	@ 0 "" 2
 1620              		.thumb
 1621              		.syntax unified
 1622              	.LBE387:
 1623              	.LBE386:
 1624              	.LBB388:
 1625              	.LBB389:
 1626              		.syntax unified
 1627              	@ 327 "ChibiOS_3.0.5/os/ext/CMSIS/include/core_cmInstr.h" 1
 1628 0002 00BF     		nop
 1629              	@ 0 "" 2
 1630              		.thumb
 1631              		.syntax unified
 1632              	.LBE389:
 1633              	.LBE388:
 1634              	.LBB390:
 1635              	.LBB391:
 1636              		.syntax unified
 1637              	@ 327 "ChibiOS_3.0.5/os/ext/CMSIS/include/core_cmInstr.h" 1
 1638 0004 00BF     		nop
 1639              	@ 0 "" 2
 1640              		.thumb
 1641              		.syntax unified
 1642              	.LBE391:
 1643              	.LBE390:
 1644              	.LBB392:
 1645              	.LBB393:
 1646              		.syntax unified
 1647              	@ 327 "ChibiOS_3.0.5/os/ext/CMSIS/include/core_cmInstr.h" 1
 1648 0006 00BF     		nop
 1649              	@ 0 "" 2
 1650              		.thumb
 1651              		.syntax unified
 1652              	.LBE393:
 1653              	.LBE392:
ARM GAS  /tmp/ccB9eNXv.s 			page 30


 1654              		.loc 1 597 0
 1655 0008 144B     		ldr	r3, .L126
 1656 000a 1B69     		ldr	r3, [r3, #16]
 1657 000c DB05     		lsls	r3, r3, #23
 1658 000e 1DD5     		bpl	.L119
 1659              	.LBB394:
 1660              		.loc 1 602 0
 1661 0010 134A     		ldr	r2, .L126+4
 1662              		.loc 1 598 0
 1663 0012 1449     		ldr	r1, .L126+8
 1664              		.loc 1 602 0
 1665 0014 1378     		ldrb	r3, [r2]	@ zero_extendqisi2
 1666              		.loc 1 598 0
 1667 0016 486A     		ldr	r0, [r1, #36]
 1668              	.LVL59:
 1669              		.loc 1 602 0
 1670 0018 9BB1     		cbz	r3, .L122
 1671              		.loc 1 600 0
 1672 001a 1349     		ldr	r1, .L126+12
 1673 001c 134B     		ldr	r3, .L126+16
 1674 001e 0968     		ldr	r1, [r1]
 1675 0020 A3FB01C3 		umull	ip, r3, r3, r1
 1676 0024 1B09     		lsrs	r3, r3, #4
 1677              		.loc 1 604 0
 1678 0026 C91A     		subs	r1, r1, r3
 1679 0028 8142     		cmp	r1, r0
 1680 002a 10D3     		bcc	.L123
 1681              		.loc 1 604 0 is_stmt 0 discriminator 1
 1682 002c 9842     		cmp	r0, r3
 1683 002e 0ED3     		bcc	.L123
 1684              		.loc 1 608 0 is_stmt 1
 1685 0030 0F49     		ldr	r1, .L126+20
 1686 0032 0B68     		ldr	r3, [r1]
 1687 0034 0133     		adds	r3, r3, #1
 1688              		.loc 1 610 0
 1689 0036 052B     		cmp	r3, #5
 1690              		.loc 1 608 0
 1691 0038 0B60     		str	r3, [r1]
 1692              		.loc 1 610 0
 1693 003a 07DD     		ble	.L119
 1694              		.loc 1 611 0
 1695 003c 0023     		movs	r3, #0
 1696 003e 1370     		strb	r3, [r2]
 1697 0040 7047     		bx	lr
 1698              	.L122:
 1699              		.loc 1 617 0
 1700 0042 0B48     		ldr	r0, .L126+20
 1701              	.LVL60:
 1702              		.loc 1 615 0
 1703 0044 4B62     		str	r3, [r1, #36]
 1704              	.LVL61:
 1705              		.loc 1 616 0
 1706 0046 0121     		movs	r1, #1
 1707              		.loc 1 617 0
 1708 0048 0360     		str	r3, [r0]
 1709              		.loc 1 616 0
 1710 004a 1170     		strb	r1, [r2]
ARM GAS  /tmp/ccB9eNXv.s 			page 31


 1711              	.L119:
 1712              	.LBE394:
 1713              		.loc 1 620 0
 1714 004c 7047     		bx	lr
 1715              	.LVL62:
 1716              	.L123:
 1717              	.LBB395:
 1718              		.loc 1 605 0
 1719 004e 0549     		ldr	r1, .L126+8
 1720              		.loc 1 606 0
 1721 0050 074A     		ldr	r2, .L126+20
 1722              		.loc 1 605 0
 1723 0052 0023     		movs	r3, #0
 1724 0054 4B62     		str	r3, [r1, #36]
 1725              	.LVL63:
 1726              		.loc 1 606 0
 1727 0056 1360     		str	r3, [r2]
 1728 0058 7047     		bx	lr
 1729              	.L127:
 1730 005a 00BF     		.align	2
 1731              	.L126:
 1732 005c 00080240 		.word	1073874944
 1733 0060 00000000 		.word	.LANCHOR21
 1734 0064 00040040 		.word	1073742848
 1735 0068 00000000 		.word	.LANCHOR23
 1736 006c CDCCCCCC 		.word	-858993459
 1737 0070 00000000 		.word	.LANCHOR27
 1738              	.LBE395:
 1739              		.cfi_endproc
 1740              	.LFE285:
 1741              		.size	encoder_reset, .-encoder_reset
 1742              		.section	.text.encoder_AS504x_get_diag,"ax",%progbits
 1743              		.align	1
 1744              		.p2align 4,,15
 1745              		.global	encoder_AS504x_get_diag
 1746              		.syntax unified
 1747              		.thumb
 1748              		.thumb_func
 1749              		.fpu fpv4-sp-d16
 1750              		.type	encoder_AS504x_get_diag, %function
 1751              	encoder_AS504x_get_diag:
 1752              	.LFB288:
 1753              		.loc 1 750 0
 1754              		.cfi_startproc
 1755              		@ args = 0, pretend = 0, frame = 0
 1756              		@ frame_needed = 0, uses_anonymous_args = 0
 1757              		@ link register save eliminated.
 1758              	.LVL64:
 1759              		.loc 1 751 0
 1760 0000 064B     		ldr	r3, .L130
 1761              		.loc 1 750 0
 1762 0002 10B4     		push	{r4}
 1763              		.cfi_def_cfa_offset 4
 1764              		.cfi_offset 4, -4
 1765              		.loc 1 750 0
 1766 0004 0446     		mov	r4, r0
 1767              		.loc 1 751 0
ARM GAS  /tmp/ccB9eNXv.s 			page 32


 1768 0006 07CB     		ldmia	r3!, {r0, r1, r2}
 1769              	.LVL65:
 1770 0008 1B88     		ldrh	r3, [r3]	@ unaligned
 1771 000a 2060     		str	r0, [r4]	@ unaligned
 1772 000c A381     		strh	r3, [r4, #12]	@ unaligned
 1773              		.loc 1 752 0
 1774 000e 2046     		mov	r0, r4
 1775              		.loc 1 751 0
 1776 0010 6160     		str	r1, [r4, #4]	@ unaligned
 1777 0012 A260     		str	r2, [r4, #8]	@ unaligned
 1778              		.loc 1 752 0
 1779 0014 5DF8044B 		ldr	r4, [sp], #4
 1780              		.cfi_restore 4
 1781              		.cfi_def_cfa_offset 0
 1782              	.LVL66:
 1783 0018 7047     		bx	lr
 1784              	.L131:
 1785 001a 00BF     		.align	2
 1786              	.L130:
 1787 001c 00000000 		.word	.LANCHOR28
 1788              		.cfi_endproc
 1789              	.LFE288:
 1790              		.size	encoder_AS504x_get_diag, .-encoder_AS504x_get_diag
 1791              		.section	.text.encoder_tim_isr,"ax",%progbits
 1792              		.align	1
 1793              		.p2align 4,,15
 1794              		.global	encoder_tim_isr
 1795              		.syntax unified
 1796              		.thumb
 1797              		.thumb_func
 1798              		.fpu fpv4-sp-d16
 1799              		.type	encoder_tim_isr, %function
 1800              	encoder_tim_isr:
 1801              	.LFB289:
 1802              		.loc 1 754 0
 1803              		.cfi_startproc
 1804              		@ args = 0, pretend = 0, frame = 8
 1805              		@ frame_needed = 0, uses_anonymous_args = 0
 1806 0000 2DE9F041 		push	{r4, r5, r6, r7, r8, lr}
 1807              		.cfi_def_cfa_offset 24
 1808              		.cfi_offset 4, -24
 1809              		.cfi_offset 5, -20
 1810              		.cfi_offset 6, -16
 1811              		.cfi_offset 7, -12
 1812              		.cfi_offset 8, -8
 1813              		.cfi_offset 14, -4
 1814              		.loc 1 757 0
 1815 0004 C04C     		ldr	r4, .L169
 1816 0006 2378     		ldrb	r3, [r4]	@ zero_extendqisi2
 1817 0008 022B     		cmp	r3, #2
 1818              		.loc 1 754 0
 1819 000a 82B0     		sub	sp, sp, #8
 1820              		.cfi_def_cfa_offset 32
 1821              		.loc 1 757 0
 1822 000c 00F0C580 		beq	.L165
 1823              	.L133:
 1824              		.loc 1 819 0
ARM GAS  /tmp/ccB9eNXv.s 			page 33


 1825 0010 062B     		cmp	r3, #6
 1826 0012 7CD0     		beq	.L166
 1827              	.L141:
 1828              		.loc 1 853 0
 1829 0014 032B     		cmp	r3, #3
 1830 0016 02D0     		beq	.L167
 1831              	.L132:
 1832              		.loc 1 925 0
 1833 0018 02B0     		add	sp, sp, #8
 1834              		.cfi_remember_state
 1835              		.cfi_def_cfa_offset 24
 1836              		@ sp needed
 1837 001a BDE8F081 		pop	{r4, r5, r6, r7, r8, pc}
 1838              	.L167:
 1839              		.cfi_restore_state
 1840              	.LBB454:
 1841              		.loc 1 859 0
 1842 001e BB4C     		ldr	r4, .L169+4
 1843 0020 4023     		movs	r3, #64
 1844 0022 2383     		strh	r3, [r4, #24]	@ movhi
 1845              	.LBB455:
 1846              	.LBB456:
 1847              	.LBB457:
 1848              		.loc 2 327 0
 1849              		.syntax unified
 1850              	@ 327 "ChibiOS_3.0.5/os/ext/CMSIS/include/core_cmInstr.h" 1
 1851 0024 00BF     		nop
 1852              	@ 0 "" 2
 1853              		.thumb
 1854              		.syntax unified
 1855              	.LBE457:
 1856              	.LBE456:
 1857              	.LBB458:
 1858              	.LBB459:
 1859              		.syntax unified
 1860              	@ 327 "ChibiOS_3.0.5/os/ext/CMSIS/include/core_cmInstr.h" 1
 1861 0026 00BF     		nop
 1862              	@ 0 "" 2
 1863              		.thumb
 1864              		.syntax unified
 1865              	.LBE459:
 1866              	.LBE458:
 1867              	.LBB460:
 1868              	.LBB461:
 1869              		.syntax unified
 1870              	@ 327 "ChibiOS_3.0.5/os/ext/CMSIS/include/core_cmInstr.h" 1
 1871 0028 00BF     		nop
 1872              	@ 0 "" 2
 1873              		.thumb
 1874              		.syntax unified
 1875              	.LBE461:
 1876              	.LBE460:
 1877              	.LBB462:
 1878              	.LBB463:
 1879              		.syntax unified
 1880              	@ 327 "ChibiOS_3.0.5/os/ext/CMSIS/include/core_cmInstr.h" 1
 1881 002a 00BF     		nop
ARM GAS  /tmp/ccB9eNXv.s 			page 34


 1882              	@ 0 "" 2
 1883              		.thumb
 1884              		.syntax unified
 1885              	.LBE463:
 1886              	.LBE462:
 1887              	.LBE455:
 1888              	.LBB464:
 1889              	.LBB465:
 1890              		.loc 1 998 0
 1891 002c 4FF48075 		mov	r5, #256
 1892 0030 6583     		strh	r5, [r4, #26]	@ movhi
 1893              		.loc 1 999 0
 1894 0032 FFF7FEFF 		bl	spi_AS5047_cs_delay
 1895              	.LVL67:
 1896              	.LBE465:
 1897              	.LBE464:
 1898              	.LBB466:
 1899              	.LBB467:
 1900              	.LBB468:
 1901              		.loc 2 327 0
 1902              		.syntax unified
 1903              	@ 327 "ChibiOS_3.0.5/os/ext/CMSIS/include/core_cmInstr.h" 1
 1904 0036 00BF     		nop
 1905              	@ 0 "" 2
 1906              		.thumb
 1907              		.syntax unified
 1908              	.LBE468:
 1909              	.LBE467:
 1910              	.LBB469:
 1911              	.LBB470:
 1912              		.syntax unified
 1913              	@ 327 "ChibiOS_3.0.5/os/ext/CMSIS/include/core_cmInstr.h" 1
 1914 0038 00BF     		nop
 1915              	@ 0 "" 2
 1916              		.thumb
 1917              		.syntax unified
 1918              	.LBE470:
 1919              	.LBE469:
 1920              	.LBB471:
 1921              	.LBB472:
 1922              		.syntax unified
 1923              	@ 327 "ChibiOS_3.0.5/os/ext/CMSIS/include/core_cmInstr.h" 1
 1924 003a 00BF     		nop
 1925              	@ 0 "" 2
 1926              		.thumb
 1927              		.syntax unified
 1928              	.LBE472:
 1929              	.LBE471:
 1930              	.LBB473:
 1931              	.LBB474:
 1932              		.syntax unified
 1933              	@ 327 "ChibiOS_3.0.5/os/ext/CMSIS/include/core_cmInstr.h" 1
 1934 003c 00BF     		nop
 1935              	@ 0 "" 2
 1936              		.thumb
 1937              		.syntax unified
 1938              	.LBE474:
ARM GAS  /tmp/ccB9eNXv.s 			page 35


 1939              	.LBE473:
 1940              	.LBE466:
 1941              		.loc 1 864 0
 1942 003e 0DF10600 		add	r0, sp, #6
 1943 0042 FFF7FEFF 		bl	spi_transfer.isra.1.constprop.2
 1944              	.LVL68:
 1945              	.LBB475:
 1946              	.LBB476:
 1947              		.loc 1 1003 0
 1948 0046 2583     		strh	r5, [r4, #24]	@ movhi
 1949              		.loc 1 1004 0
 1950 0048 FFF7FEFF 		bl	spi_AS5047_cs_delay
 1951              	.LVL69:
 1952              	.LBE476:
 1953              	.LBE475:
 1954              		.loc 1 867 0
 1955 004c BDF80620 		ldrh	r2, [sp, #6]
 1956 0050 AF4B     		ldr	r3, .L169+8
 1957 0052 1A60     		str	r2, [r3]
 1958              	.LVL70:
 1959              		.loc 1 871 0
 1960 0054 1307     		lsls	r3, r2, #28
 1961 0056 DFD5     		bpl	.L132
 1962              	.LVL71:
 1963 0058 82EA1223 		eor	r3, r2, r2, lsr #8
 1964 005c 83EA1313 		eor	r3, r3, r3, lsr #4
 1965 0060 83EA9303 		eor	r3, r3, r3, lsr #2
 1966 0064 83EA5303 		eor	r3, r3, r3, lsr #1
 1967              	.LBB477:
 1968              		.loc 1 875 0
 1969 0068 12F00601 		ands	r1, r2, #6
 1970 006c 03F00103 		and	r3, r3, #1
 1971 0070 00F0AE81 		beq	.L156
 1972              		.loc 1 873 0
 1973 0074 82F00400 		eor	r0, r2, #4
 1974              		.loc 1 874 0
 1975 0078 82F00201 		eor	r1, r2, #2
 1976              		.loc 1 873 0
 1977 007c C0F38000 		ubfx	r0, r0, #2, #1
 1978              		.loc 1 874 0
 1979 0080 C1F34001 		ubfx	r1, r1, #1, #1
 1980 0084 0025     		movs	r5, #0
 1981              	.L147:
 1982              	.LVL72:
 1983 0086 A34C     		ldr	r4, .L169+12
 1984 0088 D4ED007A 		vldr.32	s15, [r4]
 1985              		.loc 1 883 0
 1986 008c 002B     		cmp	r3, #0
 1987 008e 00F02781 		beq	.L148
 1988              		.loc 1 884 0
 1989 0092 9FEDA17A 		vldr.32	s14, .L169+16
 1990 0096 E7EEC77A 		vfms.f32	s15, s15, s14
 1991              		.loc 1 877 0
 1992 009a 0123     		movs	r3, #1
 1993              		.loc 1 884 0
 1994 009c C4ED007A 		vstr.32	s15, [r4]
 1995              	.L149:
ARM GAS  /tmp/ccB9eNXv.s 			page 36


 1996              	.LVL73:
 1997 00a0 9E4C     		ldr	r4, .L169+20
 1998              		.loc 1 892 0
 1999 00a2 1209     		lsrs	r2, r2, #4
 2000              	.LVL74:
 2001 00a4 ADF80620 		strh	r2, [sp, #6]	@ movhi
 2002 00a8 D4ED007A 		vldr.32	s15, [r4]
 2003              		.loc 1 895 0
 2004 00ac 0029     		cmp	r1, #0
 2005 00ae 00F01081 		beq	.L150
 2006              	.LVL75:
 2007              		.loc 1 898 0
 2008 00b2 B7EE007A 		vmov.f32	s14, #1.0e+0
 2009 00b6 37EEC77A 		vsub.f32	s14, s15, s14
 2010 00ba DFED976A 		vldr.32	s13, .L169+16
 2011              		.loc 1 897 0
 2012 00be 984A     		ldr	r2, .L169+24
 2013              		.loc 1 898 0
 2014 00c0 E7EE667A 		vfms.f32	s15, s14, s13
 2015              		.loc 1 897 0
 2016 00c4 1368     		ldr	r3, [r2]
 2017 00c6 0133     		adds	r3, r3, #1
 2018 00c8 1360     		str	r3, [r2]
 2019              		.loc 1 898 0
 2020 00ca C4ED007A 		vstr.32	s15, [r4]
 2021              		.loc 1 896 0
 2022 00ce 0023     		movs	r3, #0
 2023              	.LVL76:
 2024              	.L151:
 2025 00d0 944A     		ldr	r2, .L169+28
 2026 00d2 9549     		ldr	r1, .L169+32
 2027              	.LVL77:
 2028 00d4 D2ED007A 		vldr.32	s15, [r2]
 2029 00d8 91ED007A 		vldr.32	s14, [r1]
 2030              		.loc 1 903 0
 2031 00dc 0028     		cmp	r0, #0
 2032 00de 00F0D080 		beq	.L152
 2033              	.LVL78:
 2034              		.loc 1 906 0
 2035 00e2 F7EE006A 		vmov.f32	s13, #1.0e+0
 2036 00e6 77EEE66A 		vsub.f32	s13, s15, s13
 2037 00ea 9FED8B6A 		vldr.32	s12, .L169+16
 2038              		.loc 1 905 0
 2039 00ee 8F48     		ldr	r0, .L169+36
 2040              	.LVL79:
 2041              		.loc 1 906 0
 2042 00f0 E6EEC67A 		vfms.f32	s15, s13, s12
 2043              		.loc 1 905 0
 2044 00f4 0368     		ldr	r3, [r0]
 2045 00f6 0133     		adds	r3, r3, #1
 2046              		.loc 1 906 0
 2047 00f8 C2ED007A 		vstr.32	s15, [r2]
 2048              		.loc 1 905 0
 2049 00fc 0360     		str	r3, [r0]
 2050              		.loc 1 911 0
 2051 00fe 002D     		cmp	r5, #0
 2052 0100 40F0C880 		bne	.L153
ARM GAS  /tmp/ccB9eNXv.s 			page 37


 2053              		.loc 1 916 0
 2054 0104 A7EE467A 		vfms.f32	s14, s14, s12
 2055 0108 81ED007A 		vstr.32	s14, [r1]
 2056 010c 84E7     		b	.L132
 2057              	.LVL80:
 2058              	.L166:
 2059              	.LBE477:
 2060              	.LBE454:
 2061              	.LBB482:
 2062              	.LBB483:
 2063              	.LBB484:
 2064              		.loc 1 998 0
 2065 010e 7F4E     		ldr	r6, .L169+4
 2066 0110 4FF48077 		mov	r7, #256
 2067 0114 7783     		strh	r7, [r6, #26]	@ movhi
 2068              		.loc 1 999 0
 2069 0116 FFF7FEFF 		bl	spi_AS5047_cs_delay
 2070              	.LVL81:
 2071              	.LBE484:
 2072              	.LBE483:
 2073              		.loc 1 826 0
 2074 011a 4FF40341 		mov	r1, #33536
 2075 011e 8448     		ldr	r0, .L169+40
 2076 0120 FFF7FEFF 		bl	spi_lld_polled_exchange
 2077              	.LVL82:
 2078              	.LBB485:
 2079              	.LBB486:
 2080              		.loc 1 1003 0
 2081 0124 3783     		strh	r7, [r6, #24]	@ movhi
 2082              	.LBE486:
 2083              	.LBE485:
 2084              		.loc 1 826 0
 2085 0126 8046     		mov	r8, r0
 2086              	.LVL83:
 2087              	.LBB488:
 2088              	.LBB487:
 2089              		.loc 1 1004 0
 2090 0128 FFF7FEFF 		bl	spi_AS5047_cs_delay
 2091              	.LVL84:
 2092              	.LBE487:
 2093              	.LBE488:
 2094              	.LBB489:
 2095              	.LBB490:
 2096              	.LBB491:
 2097              		.loc 2 327 0
 2098              		.syntax unified
 2099              	@ 327 "ChibiOS_3.0.5/os/ext/CMSIS/include/core_cmInstr.h" 1
 2100 012c 00BF     		nop
 2101              	@ 0 "" 2
 2102              		.thumb
 2103              		.syntax unified
 2104              	.LBE491:
 2105              	.LBE490:
 2106              	.LBB492:
 2107              	.LBB493:
 2108              		.syntax unified
 2109              	@ 327 "ChibiOS_3.0.5/os/ext/CMSIS/include/core_cmInstr.h" 1
ARM GAS  /tmp/ccB9eNXv.s 			page 38


 2110 012e 00BF     		nop
 2111              	@ 0 "" 2
 2112              		.thumb
 2113              		.syntax unified
 2114              	.LBE493:
 2115              	.LBE492:
 2116              	.LBB494:
 2117              	.LBB495:
 2118              		.syntax unified
 2119              	@ 327 "ChibiOS_3.0.5/os/ext/CMSIS/include/core_cmInstr.h" 1
 2120 0130 00BF     		nop
 2121              	@ 0 "" 2
 2122              		.thumb
 2123              		.syntax unified
 2124              	.LBE495:
 2125              	.LBE494:
 2126              	.LBB496:
 2127              	.LBB497:
 2128              		.syntax unified
 2129              	@ 327 "ChibiOS_3.0.5/os/ext/CMSIS/include/core_cmInstr.h" 1
 2130 0132 00BF     		nop
 2131              	@ 0 "" 2
 2132              		.thumb
 2133              		.syntax unified
 2134              	.LBE497:
 2135              	.LBE496:
 2136              	.LBE489:
 2137              	.LBB498:
 2138              	.LBB499:
 2139              		.loc 1 998 0
 2140 0134 7783     		strh	r7, [r6, #26]	@ movhi
 2141              		.loc 1 999 0
 2142 0136 FFF7FEFF 		bl	spi_AS5047_cs_delay
 2143              	.LVL85:
 2144              	.LBE499:
 2145              	.LBE498:
 2146              		.loc 1 830 0
 2147 013a 4FF40441 		mov	r1, #33792
 2148 013e 7C48     		ldr	r0, .L169+40
 2149 0140 FFF7FEFF 		bl	spi_lld_polled_exchange
 2150              	.LVL86:
 2151              	.LBB500:
 2152              	.LBB501:
 2153              		.loc 1 1003 0
 2154 0144 3783     		strh	r7, [r6, #24]	@ movhi
 2155              	.LBE501:
 2156              	.LBE500:
 2157              		.loc 1 830 0
 2158 0146 0546     		mov	r5, r0
 2159              	.LVL87:
 2160              	.LBB503:
 2161              	.LBB502:
 2162              		.loc 1 1004 0
 2163 0148 FFF7FEFF 		bl	spi_AS5047_cs_delay
 2164              	.LVL88:
 2165              	.LBE502:
 2166              	.LBE503:
ARM GAS  /tmp/ccB9eNXv.s 			page 39


 2167              		.loc 1 833 0
 2168 014c 45EA0820 		orr	r0, r5, r8, lsl #8
 2169 0150 80B2     		uxth	r0, r0
 2170              	.LBB504:
 2171              	.LBB505:
 2172              		.loc 1 624 0
 2173 0152 80EA1023 		eor	r3, r0, r0, lsr #8
 2174              		.loc 1 625 0
 2175 0156 83EA1313 		eor	r3, r3, r3, lsr #4
 2176              		.loc 1 626 0
 2177 015a 83EA9303 		eor	r3, r3, r3, lsr #2
 2178              	.LBE505:
 2179              	.LBE504:
 2180              		.loc 1 834 0
 2181 015e 6C4A     		ldr	r2, .L169+8
 2182              		.loc 1 833 0
 2183 0160 ADF80600 		strh	r0, [sp, #6]	@ movhi
 2184              	.LBB507:
 2185              	.LBB506:
 2186              		.loc 1 627 0
 2187 0164 83EA5303 		eor	r3, r3, r3, lsr #1
 2188              	.LBE506:
 2189              	.LBE507:
 2190              		.loc 1 836 0
 2191 0168 DD07     		lsls	r5, r3, #31
 2192              	.LVL89:
 2193              		.loc 1 834 0
 2194 016a 1060     		str	r0, [r2]
 2195              		.loc 1 836 0
 2196 016c 76D4     		bmi	.L142
 2197 016e 714A     		ldr	r2, .L169+44
 2198              		.loc 1 837 0
 2199 0170 8107     		lsls	r1, r0, #30
 2200 0172 D2ED007A 		vldr.32	s15, [r2]
 2201 0176 40F1F180 		bpl	.L143
 2202              		.loc 1 839 0
 2203 017a B7EE007A 		vmov.f32	s14, #1.0e+0
 2204 017e 37EEC77A 		vsub.f32	s14, s15, s14
 2205 0182 DFED656A 		vldr.32	s13, .L169+16
 2206              		.loc 1 838 0
 2207 0186 6C48     		ldr	r0, .L169+48
 2208 0188 2378     		ldrb	r3, [r4]	@ zero_extendqisi2
 2209 018a 0168     		ldr	r1, [r0]
 2210              		.loc 1 839 0
 2211 018c E7EE667A 		vfms.f32	s15, s14, s13
 2212              		.loc 1 838 0
 2213 0190 0131     		adds	r1, r1, #1
 2214 0192 0160     		str	r1, [r0]
 2215              		.loc 1 839 0
 2216 0194 C2ED007A 		vstr.32	s15, [r2]
 2217 0198 3CE7     		b	.L141
 2218              	.LVL90:
 2219              	.L165:
 2220              	.LBE482:
 2221              	.LBB508:
 2222              	.LBB509:
 2223              		.loc 1 998 0
ARM GAS  /tmp/ccB9eNXv.s 			page 40


 2224 019a 5C4D     		ldr	r5, .L169+4
 2225 019c 4FF48076 		mov	r6, #256
 2226 01a0 6E83     		strh	r6, [r5, #26]	@ movhi
 2227              		.loc 1 999 0
 2228 01a2 FFF7FEFF 		bl	spi_AS5047_cs_delay
 2229              	.LVL91:
 2230              	.LBE509:
 2231              	.LBE508:
 2232              		.loc 1 791 0
 2233 01a6 0DF10600 		add	r0, sp, #6
 2234 01aa FFF7FEFF 		bl	spi_transfer.isra.1.constprop.2
 2235              	.LVL92:
 2236              	.LBB510:
 2237              	.LBB511:
 2238              		.loc 1 1003 0
 2239 01ae 2E83     		strh	r6, [r5, #24]	@ movhi
 2240              		.loc 1 1004 0
 2241 01b0 FFF7FEFF 		bl	spi_AS5047_cs_delay
 2242              	.LVL93:
 2243              	.LBE511:
 2244              	.LBE510:
 2245              		.loc 1 793 0
 2246 01b4 BDF80620 		ldrh	r2, [sp, #6]
 2247 01b8 5548     		ldr	r0, .L169+8
 2248              		.loc 1 795 0
 2249 01ba 531E     		subs	r3, r2, #1
 2250 01bc 9BB2     		uxth	r3, r3
 2251 01be 4FF6FD71 		movw	r1, #65533
 2252 01c2 8B42     		cmp	r3, r1
 2253              		.loc 1 793 0
 2254 01c4 0260     		str	r2, [r0]
 2255              		.loc 1 795 0
 2256 01c6 31D8     		bhi	.L168
 2257              	.LBB512:
 2258              	.LBB513:
 2259              		.loc 1 742 0
 2260 01c8 5C49     		ldr	r1, .L169+52
 2261              	.LBE513:
 2262              	.LBE512:
 2263              		.loc 1 798 0
 2264 01ca 5D48     		ldr	r0, .L169+56
 2265              	.LBB517:
 2266              	.LBB514:
 2267              		.loc 1 742 0
 2268 01cc 0B68     		ldr	r3, [r1]
 2269              	.LBE514:
 2270              	.LBE517:
 2271              		.loc 1 798 0
 2272 01ce 0025     		movs	r5, #0
 2273 01d0 0560     		str	r5, [r0]
 2274              	.LVL94:
 2275              	.LBB518:
 2276              	.LBB515:
 2277              		.loc 1 742 0
 2278 01d2 002B     		cmp	r3, #0
 2279 01d4 00F09380 		beq	.L137
 2280              		.loc 1 743 0
ARM GAS  /tmp/ccB9eNXv.s 			page 41


 2281 01d8 013B     		subs	r3, r3, #1
 2282 01da 0B60     		str	r3, [r1]
 2283              	.LVL95:
 2284              	.L155:
 2285              	.LBE515:
 2286              	.LBE518:
 2287              	.LBB519:
 2288              	.LBB520:
 2289              		.loc 1 624 0
 2290 01dc 82EA1223 		eor	r3, r2, r2, lsr #8
 2291              	.LVL96:
 2292              		.loc 1 625 0
 2293 01e0 83EA1313 		eor	r3, r3, r3, lsr #4
 2294              	.LVL97:
 2295              		.loc 1 626 0
 2296 01e4 83EA9303 		eor	r3, r3, r3, lsr #2
 2297              	.LVL98:
 2298 01e8 4A49     		ldr	r1, .L169+12
 2299              		.loc 1 627 0
 2300 01ea 83EA5303 		eor	r3, r3, r3, lsr #1
 2301              	.LBE520:
 2302              	.LBE519:
 2303              		.loc 1 808 0
 2304 01ee DE07     		lsls	r6, r3, #31
 2305 01f0 D1ED007A 		vldr.32	s15, [r1]
 2306 01f4 5DD4     		bmi	.L140
 2307              		.loc 1 809 0
 2308 01f6 C2F30D02 		ubfx	r2, r2, #0, #14
 2309              		.loc 1 810 0
 2310 01fa 07EE102A 		vmov	s14, r2	@ int
 2311 01fe DFED515A 		vldr.32	s11, .L169+60
 2312              		.loc 1 811 0
 2313 0202 9FED456A 		vldr.32	s12, .L169+16
 2314              		.loc 1 810 0
 2315 0206 DFED506A 		vldr.32	s13, .L169+64
 2316 020a 5048     		ldr	r0, .L169+68
 2317              		.loc 1 809 0
 2318 020c ADF80620 		strh	r2, [sp, #6]	@ movhi
 2319              		.loc 1 810 0
 2320 0210 B8EE477A 		vcvt.f32.u32	s14, s14
 2321              		.loc 1 811 0
 2322 0214 E7EEC67A 		vfms.f32	s15, s15, s12
 2323 0218 2378     		ldrb	r3, [r4]	@ zero_extendqisi2
 2324              		.loc 1 810 0
 2325 021a 27EE257A 		vmul.f32	s14, s14, s11
 2326              		.loc 1 811 0
 2327 021e C1ED007A 		vstr.32	s15, [r1]
 2328              		.loc 1 810 0
 2329 0222 27EE267A 		vmul.f32	s14, s14, s13
 2330 0226 80ED007A 		vstr.32	s14, [r0]
 2331              		.loc 1 811 0
 2332 022a F1E6     		b	.L133
 2333              	.L168:
 2334              		.loc 1 796 0
 2335 022c 4449     		ldr	r1, .L169+56
 2336 022e 0B68     		ldr	r3, [r1]
 2337              		.loc 1 802 0
ARM GAS  /tmp/ccB9eNXv.s 			page 42


 2338 0230 44F61F60 		movw	r0, #19999
 2339              		.loc 1 796 0
 2340 0234 0133     		adds	r3, r3, #1
 2341              		.loc 1 802 0
 2342 0236 8342     		cmp	r3, r0
 2343              		.loc 1 796 0
 2344 0238 0B60     		str	r3, [r1]
 2345              		.loc 1 802 0
 2346 023a CFD9     		bls	.L155
 2347              	.LVL99:
 2348              	.LBB521:
 2349              	.LBB522:
 2350              	.LBB523:
 2351              		.loc 1 735 0
 2352 023c 3F48     		ldr	r0, .L169+52
 2353 023e 0368     		ldr	r3, [r0]
 2354 0240 0133     		adds	r3, r3, #1
 2355              		.loc 1 737 0
 2356 0242 042B     		cmp	r3, #4
 2357              		.loc 1 738 0
 2358 0244 84BF     		itt	hi
 2359 0246 0523     		movhi	r3, #5
 2360              		.loc 1 739 0
 2361 0248 414D     		ldrhi	r5, .L169+72
 2362              		.loc 1 738 0
 2363 024a 0360     		str	r3, [r0]
 2364              	.LVL100:
 2365              		.loc 1 739 0
 2366 024c 88BF     		it	hi
 2367 024e 0026     		movhi	r6, #0
 2368              	.LBE523:
 2369              	.LBE522:
 2370              	.LBE521:
 2371              		.loc 1 804 0
 2372 0250 44F62063 		movw	r3, #20000
 2373              	.LBB526:
 2374              	.LBB525:
 2375              	.LBB524:
 2376              		.loc 1 739 0
 2377 0254 88BF     		it	hi
 2378 0256 2E70     		strbhi	r6, [r5]
 2379              	.LBE524:
 2380              	.LBE525:
 2381              	.LBE526:
 2382              		.loc 1 804 0
 2383 0258 0B60     		str	r3, [r1]
 2384 025a BFE7     		b	.L155
 2385              	.LVL101:
 2386              	.L142:
 2387              	.LBB527:
 2388              		.loc 1 848 0
 2389 025c 2D49     		ldr	r1, .L169+12
 2390 025e DFED2E6A 		vldr.32	s13, .L169+16
 2391 0262 D1ED007A 		vldr.32	s15, [r1]
 2392              		.loc 1 847 0
 2393 0266 3B48     		ldr	r0, .L169+76
 2394 0268 2378     		ldrb	r3, [r4]	@ zero_extendqisi2
ARM GAS  /tmp/ccB9eNXv.s 			page 43


 2395 026a 0268     		ldr	r2, [r0]
 2396              		.loc 1 848 0
 2397 026c B7EE007A 		vmov.f32	s14, #1.0e+0
 2398 0270 37EEC77A 		vsub.f32	s14, s15, s14
 2399              		.loc 1 847 0
 2400 0274 0132     		adds	r2, r2, #1
 2401              		.loc 1 848 0
 2402 0276 E7EE667A 		vfms.f32	s15, s14, s13
 2403              		.loc 1 847 0
 2404 027a 0260     		str	r2, [r0]
 2405              		.loc 1 848 0
 2406 027c C1ED007A 		vstr.32	s15, [r1]
 2407 0280 C8E6     		b	.L141
 2408              	.LVL102:
 2409              	.L152:
 2410              	.LBE527:
 2411              	.LBB528:
 2412              	.LBB478:
 2413              		.loc 1 908 0
 2414 0282 DFED256A 		vldr.32	s13, .L169+16
 2415 0286 E7EEE67A 		vfms.f32	s15, s15, s13
 2416 028a C2ED007A 		vstr.32	s15, [r2]
 2417              		.loc 1 911 0
 2418 028e 002D     		cmp	r5, #0
 2419 0290 00F08580 		beq	.L154
 2420              	.LVL103:
 2421              	.L153:
 2422              		.loc 1 914 0
 2423 0294 F7EE007A 		vmov.f32	s15, #1.0e+0
 2424 0298 77EE677A 		vsub.f32	s15, s14, s15
 2425 029c DFED1E6A 		vldr.32	s13, .L169+16
 2426              		.loc 1 913 0
 2427 02a0 2D4A     		ldr	r2, .L169+80
 2428              		.loc 1 914 0
 2429 02a2 A7EEE67A 		vfms.f32	s14, s15, s13
 2430              		.loc 1 913 0
 2431 02a6 1368     		ldr	r3, [r2]
 2432 02a8 0133     		adds	r3, r3, #1
 2433              		.loc 1 914 0
 2434 02aa 81ED007A 		vstr.32	s14, [r1]
 2435              		.loc 1 913 0
 2436 02ae 1360     		str	r3, [r2]
 2437 02b0 B2E6     		b	.L132
 2438              	.LVL104:
 2439              	.L140:
 2440              	.LBE478:
 2441              	.LBE528:
 2442              		.loc 1 814 0
 2443 02b2 B7EE007A 		vmov.f32	s14, #1.0e+0
 2444 02b6 37EEC77A 		vsub.f32	s14, s15, s14
 2445 02ba DFED176A 		vldr.32	s13, .L169+16
 2446              		.loc 1 813 0
 2447 02be 2548     		ldr	r0, .L169+76
 2448 02c0 2378     		ldrb	r3, [r4]	@ zero_extendqisi2
 2449 02c2 0268     		ldr	r2, [r0]
 2450              		.loc 1 814 0
 2451 02c4 E7EE667A 		vfms.f32	s15, s14, s13
ARM GAS  /tmp/ccB9eNXv.s 			page 44


 2452              		.loc 1 813 0
 2453 02c8 0132     		adds	r2, r2, #1
 2454 02ca 0260     		str	r2, [r0]
 2455              		.loc 1 814 0
 2456 02cc C1ED007A 		vstr.32	s15, [r1]
 2457 02d0 9EE6     		b	.L133
 2458              	.LVL105:
 2459              	.L150:
 2460              	.LBB529:
 2461              	.LBB479:
 2462              		.loc 1 900 0
 2463 02d2 9FED117A 		vldr.32	s14, .L169+16
 2464 02d6 E7EEC77A 		vfms.f32	s15, s15, s14
 2465 02da C4ED007A 		vstr.32	s15, [r4]
 2466 02de F7E6     		b	.L151
 2467              	.LVL106:
 2468              	.L148:
 2469              		.loc 1 888 0
 2470 02e0 B7EE007A 		vmov.f32	s14, #1.0e+0
 2471 02e4 37EEC77A 		vsub.f32	s14, s15, s14
 2472 02e8 DFED0B6A 		vldr.32	s13, .L169+16
 2473              		.loc 1 887 0
 2474 02ec 194F     		ldr	r7, .L169+76
 2475              		.loc 1 888 0
 2476 02ee E7EE667A 		vfms.f32	s15, s14, s13
 2477              		.loc 1 887 0
 2478 02f2 3E68     		ldr	r6, [r7]
 2479 02f4 0136     		adds	r6, r6, #1
 2480              		.loc 1 888 0
 2481 02f6 C4ED007A 		vstr.32	s15, [r4]
 2482              		.loc 1 887 0
 2483 02fa 3E60     		str	r6, [r7]
 2484 02fc D0E6     		b	.L149
 2485              	.LVL107:
 2486              	.L137:
 2487              	.LBE479:
 2488              	.LBE529:
 2489              	.LBB530:
 2490              	.LBB516:
 2491              		.loc 1 745 0
 2492 02fe 144B     		ldr	r3, .L169+72
 2493 0300 0121     		movs	r1, #1
 2494 0302 1970     		strb	r1, [r3]
 2495 0304 6AE7     		b	.L155
 2496              	.L170:
 2497 0306 00BF     		.align	2
 2498              	.L169:
 2499 0308 00000000 		.word	.LANCHOR18
 2500 030c 00080240 		.word	1073874944
 2501 0310 00000000 		.word	.LANCHOR1
 2502 0314 00000000 		.word	.LANCHOR2
 2503 0318 17B75138 		.word	944879383
 2504 031c 00000000 		.word	.LANCHOR5
 2505 0320 00000000 		.word	.LANCHOR8
 2506 0324 00000000 		.word	.LANCHOR6
 2507 0328 00000000 		.word	.LANCHOR7
 2508 032c 00000000 		.word	.LANCHOR9
ARM GAS  /tmp/ccB9eNXv.s 			page 45


 2509 0330 00000000 		.word	SPID1
 2510 0334 00000000 		.word	.LANCHOR4
 2511 0338 00000000 		.word	.LANCHOR3
 2512 033c 00000000 		.word	.LANCHOR30
 2513 0340 00000000 		.word	.LANCHOR29
 2514 0344 0000B443 		.word	1135869952
 2515 0348 00008038 		.word	947912704
 2516 034c 00000000 		.word	.LANCHOR22
 2517 0350 00000000 		.word	.LANCHOR28
 2518 0354 00000000 		.word	.LANCHOR0
 2519 0358 00000000 		.word	.LANCHOR10
 2520              	.LVL108:
 2521              	.L143:
 2522              	.LBE516:
 2523              	.LBE530:
 2524              	.LBB531:
 2525              		.loc 1 841 0
 2526 035c 8008     		lsrs	r0, r0, #2
 2527              		.loc 1 843 0
 2528 035e 1E49     		ldr	r1, .L171
 2529 0360 9FED1E6A 		vldr.32	s12, .L171+4
 2530 0364 D1ED006A 		vldr.32	s13, [r1]
 2531              		.loc 1 842 0
 2532 0368 9FED1D5A 		vldr.32	s10, .L171+8
 2533 036c DFED1D5A 		vldr.32	s11, .L171+12
 2534 0370 1D4D     		ldr	r5, .L171+16
 2535 0372 2378     		ldrb	r3, [r4]	@ zero_extendqisi2
 2536              		.loc 1 841 0
 2537 0374 ADF80600 		strh	r0, [sp, #6]	@ movhi
 2538              		.loc 1 842 0
 2539 0378 07EE100A 		vmov	s14, r0	@ int
 2540 037c B8EE477A 		vcvt.f32.u32	s14, s14
 2541              		.loc 1 843 0
 2542 0380 E6EEC66A 		vfms.f32	s13, s13, s12
 2543              		.loc 1 842 0
 2544 0384 27EE057A 		vmul.f32	s14, s14, s10
 2545              		.loc 1 844 0
 2546 0388 E7EEC67A 		vfms.f32	s15, s15, s12
 2547              		.loc 1 842 0
 2548 038c 27EE257A 		vmul.f32	s14, s14, s11
 2549              		.loc 1 843 0
 2550 0390 C1ED006A 		vstr.32	s13, [r1]
 2551              		.loc 1 842 0
 2552 0394 85ED007A 		vstr.32	s14, [r5]
 2553              		.loc 1 844 0
 2554 0398 C2ED007A 		vstr.32	s15, [r2]
 2555 039c 3AE6     		b	.L141
 2556              	.LVL109:
 2557              	.L154:
 2558              	.LBE531:
 2559              	.LBB532:
 2560              	.LBB480:
 2561              		.loc 1 916 0
 2562 039e A7EE667A 		vfms.f32	s14, s14, s13
 2563 03a2 81ED007A 		vstr.32	s14, [r1]
 2564              		.loc 1 919 0
 2565 03a6 002B     		cmp	r3, #0
ARM GAS  /tmp/ccB9eNXv.s 			page 46


 2566 03a8 3FF436AE 		beq	.L132
 2567              		.loc 1 921 0
 2568 03ac BDF80630 		ldrh	r3, [sp, #6]
 2569              	.LVL110:
 2570 03b0 DFED0B6A 		vldr.32	s13, .L171+8
 2571 03b4 9FED0D7A 		vldr.32	s14, .L171+20
 2572 03b8 07EE903A 		vmov	s15, r3	@ int
 2573 03bc F8EE677A 		vcvt.f32.u32	s15, s15
 2574 03c0 094B     		ldr	r3, .L171+16
 2575 03c2 67EEA67A 		vmul.f32	s15, s15, s13
 2576 03c6 67EE877A 		vmul.f32	s15, s15, s14
 2577 03ca C3ED007A 		vstr.32	s15, [r3]
 2578              	.LBE480:
 2579              	.LBE532:
 2580              		.loc 1 925 0
 2581 03ce 23E6     		b	.L132
 2582              	.LVL111:
 2583              	.L156:
 2584              	.LBB533:
 2585              	.LBB481:
 2586              		.loc 1 880 0
 2587 03d0 0846     		mov	r0, r1
 2588              		.loc 1 875 0
 2589 03d2 0125     		movs	r5, #1
 2590 03d4 57E6     		b	.L147
 2591              	.L172:
 2592 03d6 00BF     		.align	2
 2593              	.L171:
 2594 03d8 00000000 		.word	.LANCHOR2
 2595 03dc 17B75138 		.word	944879383
 2596 03e0 0000B443 		.word	1135869952
 2597 03e4 00008038 		.word	947912704
 2598 03e8 00000000 		.word	.LANCHOR22
 2599 03ec 00008039 		.word	964689920
 2600              	.LBE481:
 2601              	.LBE533:
 2602              		.cfi_endproc
 2603              	.LFE289:
 2604              		.size	encoder_tim_isr, .-encoder_tim_isr
 2605              		.section	.text.encoder_set_counts,"ax",%progbits
 2606              		.align	1
 2607              		.p2align 4,,15
 2608              		.global	encoder_set_counts
 2609              		.syntax unified
 2610              		.thumb
 2611              		.thumb_func
 2612              		.fpu fpv4-sp-d16
 2613              		.type	encoder_set_counts, %function
 2614              	encoder_set_counts:
 2615              	.LFB290:
 2616              		.loc 1 933 0
 2617              		.cfi_startproc
 2618              		@ args = 0, pretend = 0, frame = 0
 2619              		@ frame_needed = 0, uses_anonymous_args = 0
 2620              	.LVL112:
 2621              		.loc 1 934 0
 2622 0000 074A     		ldr	r2, .L176
ARM GAS  /tmp/ccB9eNXv.s 			page 47


 2623              		.loc 1 933 0
 2624 0002 08B5     		push	{r3, lr}
 2625              		.cfi_def_cfa_offset 8
 2626              		.cfi_offset 3, -8
 2627              		.cfi_offset 14, -4
 2628              		.loc 1 934 0
 2629 0004 1368     		ldr	r3, [r2]
 2630 0006 8342     		cmp	r3, r0
 2631 0008 08D0     		beq	.L173
 2632 000a 0346     		mov	r3, r0
 2633              		.loc 1 936 0
 2634 000c 411E     		subs	r1, r0, #1
 2635 000e 0548     		ldr	r0, .L176+4
 2636              	.LVL113:
 2637              		.loc 1 935 0
 2638 0010 1360     		str	r3, [r2]
 2639              		.loc 1 936 0
 2640 0012 FFF7FEFF 		bl	TIM_SetAutoreload
 2641              	.LVL114:
 2642              		.loc 1 937 0
 2643 0016 044B     		ldr	r3, .L176+8
 2644 0018 0022     		movs	r2, #0
 2645 001a 1A70     		strb	r2, [r3]
 2646              	.L173:
 2647              		.loc 1 939 0
 2648 001c 08BD     		pop	{r3, pc}
 2649              	.L177:
 2650 001e 00BF     		.align	2
 2651              	.L176:
 2652 0020 00000000 		.word	.LANCHOR23
 2653 0024 00040040 		.word	1073742848
 2654 0028 00000000 		.word	.LANCHOR21
 2655              		.cfi_endproc
 2656              	.LFE290:
 2657              		.size	encoder_set_counts, .-encoder_set_counts
 2658              		.section	.text.encoder_index_found,"ax",%progbits
 2659              		.align	1
 2660              		.p2align 4,,15
 2661              		.global	encoder_index_found
 2662              		.syntax unified
 2663              		.thumb
 2664              		.thumb_func
 2665              		.fpu fpv4-sp-d16
 2666              		.type	encoder_index_found, %function
 2667              	encoder_index_found:
 2668              	.LFB291:
 2669              		.loc 1 947 0
 2670              		.cfi_startproc
 2671              		@ args = 0, pretend = 0, frame = 0
 2672              		@ frame_needed = 0, uses_anonymous_args = 0
 2673              		@ link register save eliminated.
 2674              		.loc 1 948 0
 2675 0000 014B     		ldr	r3, .L179
 2676              		.loc 1 949 0
 2677 0002 1878     		ldrb	r0, [r3]	@ zero_extendqisi2
 2678 0004 7047     		bx	lr
 2679              	.L180:
ARM GAS  /tmp/ccB9eNXv.s 			page 48


 2680 0006 00BF     		.align	2
 2681              	.L179:
 2682 0008 00000000 		.word	.LANCHOR21
 2683              		.cfi_endproc
 2684              	.LFE291:
 2685              		.size	encoder_index_found, .-encoder_index_found
 2686              		.section	.text.spi_AS5047_cs_delay,"ax",%progbits
 2687              		.align	1
 2688              		.p2align 4,,15
 2689              		.syntax unified
 2690              		.thumb
 2691              		.thumb_func
 2692              		.fpu fpv4-sp-d16
 2693              		.type	spi_AS5047_cs_delay, %function
 2694              	spi_AS5047_cs_delay:
 2695              	.LFB296:
 2696              		.loc 1 1014 0
 2697              		.cfi_startproc
 2698              		@ args = 0, pretend = 0, frame = 0
 2699              		@ frame_needed = 0, uses_anonymous_args = 0
 2700              		@ link register save eliminated.
 2701              	.LBB534:
 2702              	.LBB535:
 2703              		.loc 2 327 0
 2704              		.syntax unified
 2705              	@ 327 "ChibiOS_3.0.5/os/ext/CMSIS/include/core_cmInstr.h" 1
 2706 0000 00BF     		nop
 2707              	@ 0 "" 2
 2708              		.thumb
 2709              		.syntax unified
 2710              	.LBE535:
 2711              	.LBE534:
 2712              	.LBB536:
 2713              	.LBB537:
 2714              		.syntax unified
 2715              	@ 327 "ChibiOS_3.0.5/os/ext/CMSIS/include/core_cmInstr.h" 1
 2716 0002 00BF     		nop
 2717              	@ 0 "" 2
 2718              		.thumb
 2719              		.syntax unified
 2720              	.LBE537:
 2721              	.LBE536:
 2722              	.LBB538:
 2723              	.LBB539:
 2724              		.syntax unified
 2725              	@ 327 "ChibiOS_3.0.5/os/ext/CMSIS/include/core_cmInstr.h" 1
 2726 0004 00BF     		nop
 2727              	@ 0 "" 2
 2728              		.thumb
 2729              		.syntax unified
 2730              	.LBE539:
 2731              	.LBE538:
 2732              	.LBB540:
 2733              	.LBB541:
 2734              		.syntax unified
 2735              	@ 327 "ChibiOS_3.0.5/os/ext/CMSIS/include/core_cmInstr.h" 1
 2736 0006 00BF     		nop
ARM GAS  /tmp/ccB9eNXv.s 			page 49


 2737              	@ 0 "" 2
 2738              		.thumb
 2739              		.syntax unified
 2740              	.LBE541:
 2741              	.LBE540:
 2742              	.LBB542:
 2743              	.LBB543:
 2744              		.syntax unified
 2745              	@ 327 "ChibiOS_3.0.5/os/ext/CMSIS/include/core_cmInstr.h" 1
 2746 0008 00BF     		nop
 2747              	@ 0 "" 2
 2748              		.thumb
 2749              		.syntax unified
 2750              	.LBE543:
 2751              	.LBE542:
 2752              	.LBB544:
 2753              	.LBB545:
 2754              		.syntax unified
 2755              	@ 327 "ChibiOS_3.0.5/os/ext/CMSIS/include/core_cmInstr.h" 1
 2756 000a 00BF     		nop
 2757              	@ 0 "" 2
 2758              		.thumb
 2759              		.syntax unified
 2760              	.LBE545:
 2761              	.LBE544:
 2762              	.LBB546:
 2763              	.LBB547:
 2764              		.syntax unified
 2765              	@ 327 "ChibiOS_3.0.5/os/ext/CMSIS/include/core_cmInstr.h" 1
 2766 000c 00BF     		nop
 2767              	@ 0 "" 2
 2768              		.thumb
 2769              		.syntax unified
 2770              	.LBE547:
 2771              	.LBE546:
 2772              	.LBB548:
 2773              	.LBB549:
 2774              		.syntax unified
 2775              	@ 327 "ChibiOS_3.0.5/os/ext/CMSIS/include/core_cmInstr.h" 1
 2776 000e 00BF     		nop
 2777              	@ 0 "" 2
 2778              		.thumb
 2779              		.syntax unified
 2780              	.LBE549:
 2781              	.LBE548:
 2782              	.LBB550:
 2783              	.LBB551:
 2784              		.syntax unified
 2785              	@ 327 "ChibiOS_3.0.5/os/ext/CMSIS/include/core_cmInstr.h" 1
 2786 0010 00BF     		nop
 2787              	@ 0 "" 2
 2788              		.thumb
 2789              		.syntax unified
 2790              	.LBE551:
 2791              	.LBE550:
 2792              	.LBB552:
 2793              	.LBB553:
ARM GAS  /tmp/ccB9eNXv.s 			page 50


 2794              		.syntax unified
 2795              	@ 327 "ChibiOS_3.0.5/os/ext/CMSIS/include/core_cmInstr.h" 1
 2796 0012 00BF     		nop
 2797              	@ 0 "" 2
 2798              		.thumb
 2799              		.syntax unified
 2800              	.LBE553:
 2801              	.LBE552:
 2802              	.LBB554:
 2803              	.LBB555:
 2804              		.syntax unified
 2805              	@ 327 "ChibiOS_3.0.5/os/ext/CMSIS/include/core_cmInstr.h" 1
 2806 0014 00BF     		nop
 2807              	@ 0 "" 2
 2808              		.thumb
 2809              		.syntax unified
 2810              	.LBE555:
 2811              	.LBE554:
 2812              	.LBB556:
 2813              	.LBB557:
 2814              		.syntax unified
 2815              	@ 327 "ChibiOS_3.0.5/os/ext/CMSIS/include/core_cmInstr.h" 1
 2816 0016 00BF     		nop
 2817              	@ 0 "" 2
 2818              		.thumb
 2819              		.syntax unified
 2820              	.LBE557:
 2821              	.LBE556:
 2822              	.LBB558:
 2823              	.LBB559:
 2824              		.syntax unified
 2825              	@ 327 "ChibiOS_3.0.5/os/ext/CMSIS/include/core_cmInstr.h" 1
 2826 0018 00BF     		nop
 2827              	@ 0 "" 2
 2828              		.thumb
 2829              		.syntax unified
 2830              	.LBE559:
 2831              	.LBE558:
 2832              	.LBB560:
 2833              	.LBB561:
 2834              		.syntax unified
 2835              	@ 327 "ChibiOS_3.0.5/os/ext/CMSIS/include/core_cmInstr.h" 1
 2836 001a 00BF     		nop
 2837              	@ 0 "" 2
 2838              		.thumb
 2839              		.syntax unified
 2840              	.LBE561:
 2841              	.LBE560:
 2842              	.LBB562:
 2843              	.LBB563:
 2844              		.syntax unified
 2845              	@ 327 "ChibiOS_3.0.5/os/ext/CMSIS/include/core_cmInstr.h" 1
 2846 001c 00BF     		nop
 2847              	@ 0 "" 2
 2848              		.thumb
 2849              		.syntax unified
 2850              	.LBE563:
ARM GAS  /tmp/ccB9eNXv.s 			page 51


 2851              	.LBE562:
 2852              	.LBB564:
 2853              	.LBB565:
 2854              		.syntax unified
 2855              	@ 327 "ChibiOS_3.0.5/os/ext/CMSIS/include/core_cmInstr.h" 1
 2856 001e 00BF     		nop
 2857              	@ 0 "" 2
 2858              		.thumb
 2859              		.syntax unified
 2860              	.LBE565:
 2861              	.LBE564:
 2862              	.LBB566:
 2863              	.LBB567:
 2864              		.syntax unified
 2865              	@ 327 "ChibiOS_3.0.5/os/ext/CMSIS/include/core_cmInstr.h" 1
 2866 0020 00BF     		nop
 2867              	@ 0 "" 2
 2868              		.thumb
 2869              		.syntax unified
 2870              	.LBE567:
 2871              	.LBE566:
 2872              	.LBB568:
 2873              	.LBB569:
 2874              		.syntax unified
 2875              	@ 327 "ChibiOS_3.0.5/os/ext/CMSIS/include/core_cmInstr.h" 1
 2876 0022 00BF     		nop
 2877              	@ 0 "" 2
 2878              		.thumb
 2879              		.syntax unified
 2880              	.LBE569:
 2881              	.LBE568:
 2882              	.LBB570:
 2883              	.LBB571:
 2884              		.syntax unified
 2885              	@ 327 "ChibiOS_3.0.5/os/ext/CMSIS/include/core_cmInstr.h" 1
 2886 0024 00BF     		nop
 2887              	@ 0 "" 2
 2888              		.thumb
 2889              		.syntax unified
 2890              	.LBE571:
 2891              	.LBE570:
 2892              	.LBB572:
 2893              	.LBB573:
 2894              		.syntax unified
 2895              	@ 327 "ChibiOS_3.0.5/os/ext/CMSIS/include/core_cmInstr.h" 1
 2896 0026 00BF     		nop
 2897              	@ 0 "" 2
 2898              		.thumb
 2899              		.syntax unified
 2900              	.LBE573:
 2901              	.LBE572:
 2902              	.LBB574:
 2903              	.LBB575:
 2904              		.syntax unified
 2905              	@ 327 "ChibiOS_3.0.5/os/ext/CMSIS/include/core_cmInstr.h" 1
 2906 0028 00BF     		nop
 2907              	@ 0 "" 2
ARM GAS  /tmp/ccB9eNXv.s 			page 52


 2908              		.thumb
 2909              		.syntax unified
 2910              	.LBE575:
 2911              	.LBE574:
 2912              	.LBB576:
 2913              	.LBB577:
 2914              		.syntax unified
 2915              	@ 327 "ChibiOS_3.0.5/os/ext/CMSIS/include/core_cmInstr.h" 1
 2916 002a 00BF     		nop
 2917              	@ 0 "" 2
 2918              		.thumb
 2919              		.syntax unified
 2920              	.LBE577:
 2921              	.LBE576:
 2922              	.LBB578:
 2923              	.LBB579:
 2924              		.syntax unified
 2925              	@ 327 "ChibiOS_3.0.5/os/ext/CMSIS/include/core_cmInstr.h" 1
 2926 002c 00BF     		nop
 2927              	@ 0 "" 2
 2928              		.thumb
 2929              		.syntax unified
 2930              	.LBE579:
 2931              	.LBE578:
 2932              	.LBB580:
 2933              	.LBB581:
 2934              		.syntax unified
 2935              	@ 327 "ChibiOS_3.0.5/os/ext/CMSIS/include/core_cmInstr.h" 1
 2936 002e 00BF     		nop
 2937              	@ 0 "" 2
 2938              		.thumb
 2939              		.syntax unified
 2940              	.LBE581:
 2941              	.LBE580:
 2942              	.LBB582:
 2943              	.LBB583:
 2944              		.syntax unified
 2945              	@ 327 "ChibiOS_3.0.5/os/ext/CMSIS/include/core_cmInstr.h" 1
 2946 0030 00BF     		nop
 2947              	@ 0 "" 2
 2948              		.thumb
 2949              		.syntax unified
 2950              	.LBE583:
 2951              	.LBE582:
 2952              	.LBB584:
 2953              	.LBB585:
 2954              		.syntax unified
 2955              	@ 327 "ChibiOS_3.0.5/os/ext/CMSIS/include/core_cmInstr.h" 1
 2956 0032 00BF     		nop
 2957              	@ 0 "" 2
 2958              		.thumb
 2959              		.syntax unified
 2960              	.LBE585:
 2961              	.LBE584:
 2962              	.LBB586:
 2963              	.LBB587:
 2964              		.syntax unified
ARM GAS  /tmp/ccB9eNXv.s 			page 53


 2965              	@ 327 "ChibiOS_3.0.5/os/ext/CMSIS/include/core_cmInstr.h" 1
 2966 0034 00BF     		nop
 2967              	@ 0 "" 2
 2968              		.thumb
 2969              		.syntax unified
 2970              	.LBE587:
 2971              	.LBE586:
 2972              	.LBB588:
 2973              	.LBB589:
 2974              		.syntax unified
 2975              	@ 327 "ChibiOS_3.0.5/os/ext/CMSIS/include/core_cmInstr.h" 1
 2976 0036 00BF     		nop
 2977              	@ 0 "" 2
 2978              		.thumb
 2979              		.syntax unified
 2980              	.LBE589:
 2981              	.LBE588:
 2982              	.LBB590:
 2983              	.LBB591:
 2984              		.syntax unified
 2985              	@ 327 "ChibiOS_3.0.5/os/ext/CMSIS/include/core_cmInstr.h" 1
 2986 0038 00BF     		nop
 2987              	@ 0 "" 2
 2988              		.thumb
 2989              		.syntax unified
 2990              	.LBE591:
 2991              	.LBE590:
 2992              	.LBB592:
 2993              	.LBB593:
 2994              		.syntax unified
 2995              	@ 327 "ChibiOS_3.0.5/os/ext/CMSIS/include/core_cmInstr.h" 1
 2996 003a 00BF     		nop
 2997              	@ 0 "" 2
 2998              		.thumb
 2999              		.syntax unified
 3000              	.LBE593:
 3001              	.LBE592:
 3002              	.LBB594:
 3003              	.LBB595:
 3004              		.syntax unified
 3005              	@ 327 "ChibiOS_3.0.5/os/ext/CMSIS/include/core_cmInstr.h" 1
 3006 003c 00BF     		nop
 3007              	@ 0 "" 2
 3008              		.thumb
 3009              		.syntax unified
 3010              	.LBE595:
 3011              	.LBE594:
 3012              	.LBB596:
 3013              	.LBB597:
 3014              		.syntax unified
 3015              	@ 327 "ChibiOS_3.0.5/os/ext/CMSIS/include/core_cmInstr.h" 1
 3016 003e 00BF     		nop
 3017              	@ 0 "" 2
 3018              		.thumb
 3019              		.syntax unified
 3020              	.LBE597:
 3021              	.LBE596:
ARM GAS  /tmp/ccB9eNXv.s 			page 54


 3022              	.LBB598:
 3023              	.LBB599:
 3024              		.syntax unified
 3025              	@ 327 "ChibiOS_3.0.5/os/ext/CMSIS/include/core_cmInstr.h" 1
 3026 0040 00BF     		nop
 3027              	@ 0 "" 2
 3028              		.thumb
 3029              		.syntax unified
 3030              	.LBE599:
 3031              	.LBE598:
 3032              	.LBB600:
 3033              	.LBB601:
 3034              		.syntax unified
 3035              	@ 327 "ChibiOS_3.0.5/os/ext/CMSIS/include/core_cmInstr.h" 1
 3036 0042 00BF     		nop
 3037              	@ 0 "" 2
 3038              		.thumb
 3039              		.syntax unified
 3040              	.LBE601:
 3041              	.LBE600:
 3042              	.LBB602:
 3043              	.LBB603:
 3044              		.syntax unified
 3045              	@ 327 "ChibiOS_3.0.5/os/ext/CMSIS/include/core_cmInstr.h" 1
 3046 0044 00BF     		nop
 3047              	@ 0 "" 2
 3048              		.thumb
 3049              		.syntax unified
 3050              	.LBE603:
 3051              	.LBE602:
 3052              	.LBB604:
 3053              	.LBB605:
 3054              		.syntax unified
 3055              	@ 327 "ChibiOS_3.0.5/os/ext/CMSIS/include/core_cmInstr.h" 1
 3056 0046 00BF     		nop
 3057              	@ 0 "" 2
 3058              		.thumb
 3059              		.syntax unified
 3060              	.LBE605:
 3061              	.LBE604:
 3062              	.LBB606:
 3063              	.LBB607:
 3064              		.syntax unified
 3065              	@ 327 "ChibiOS_3.0.5/os/ext/CMSIS/include/core_cmInstr.h" 1
 3066 0048 00BF     		nop
 3067              	@ 0 "" 2
 3068              		.thumb
 3069              		.syntax unified
 3070              	.LBE607:
 3071              	.LBE606:
 3072              	.LBB608:
 3073              	.LBB609:
 3074              		.syntax unified
 3075              	@ 327 "ChibiOS_3.0.5/os/ext/CMSIS/include/core_cmInstr.h" 1
 3076 004a 00BF     		nop
 3077              	@ 0 "" 2
 3078              		.thumb
ARM GAS  /tmp/ccB9eNXv.s 			page 55


 3079              		.syntax unified
 3080              	.LBE609:
 3081              	.LBE608:
 3082              	.LBB610:
 3083              	.LBB611:
 3084              		.syntax unified
 3085              	@ 327 "ChibiOS_3.0.5/os/ext/CMSIS/include/core_cmInstr.h" 1
 3086 004c 00BF     		nop
 3087              	@ 0 "" 2
 3088              		.thumb
 3089              		.syntax unified
 3090              	.LBE611:
 3091              	.LBE610:
 3092              	.LBB612:
 3093              	.LBB613:
 3094              		.syntax unified
 3095              	@ 327 "ChibiOS_3.0.5/os/ext/CMSIS/include/core_cmInstr.h" 1
 3096 004e 00BF     		nop
 3097              	@ 0 "" 2
 3098              		.thumb
 3099              		.syntax unified
 3100              	.LBE613:
 3101              	.LBE612:
 3102              		.loc 1 1029 0
 3103 0050 7047     		bx	lr
 3104              		.cfi_endproc
 3105              	.LFE296:
 3106              		.size	spi_AS5047_cs_delay, .-spi_AS5047_cs_delay
 3107 0052 00BF     		.section	.text.TS5700N8501_delay_uart,"ax",%progbits
 3108              		.align	1
 3109              		.p2align 4
 3110              		.global	TS5700N8501_delay_uart
 3111              		.syntax unified
 3112              		.thumb
 3113              		.thumb_func
 3114              		.fpu fpv4-sp-d16
 3115              		.type	TS5700N8501_delay_uart, %function
 3116              	TS5700N8501_delay_uart:
 3117              	.LFB297:
 3118              		.loc 1 1034 0
 3119              		.cfi_startproc
 3120              		@ args = 0, pretend = 0, frame = 0
 3121              		@ frame_needed = 1, uses_anonymous_args = 0
 3122              		@ link register save eliminated.
 3123 0000 80B4     		push	{r7}
 3124              		.cfi_def_cfa_offset 4
 3125              		.cfi_offset 7, -4
 3126 0002 00AF     		add	r7, sp, #0
 3127              		.cfi_def_cfa_register 7
 3128              	.LBB614:
 3129              	.LBB615:
 3130              		.loc 2 327 0
 3131              		.syntax unified
 3132              	@ 327 "ChibiOS_3.0.5/os/ext/CMSIS/include/core_cmInstr.h" 1
 3133 0004 00BF     		nop
 3134              	@ 0 "" 2
 3135              		.thumb
ARM GAS  /tmp/ccB9eNXv.s 			page 56


 3136              		.syntax unified
 3137              	.LBE615:
 3138              	.LBE614:
 3139              	.LBB616:
 3140              	.LBB617:
 3141              		.syntax unified
 3142              	@ 327 "ChibiOS_3.0.5/os/ext/CMSIS/include/core_cmInstr.h" 1
 3143 0006 00BF     		nop
 3144              	@ 0 "" 2
 3145              		.thumb
 3146              		.syntax unified
 3147              	.LBE617:
 3148              	.LBE616:
 3149              	.LBB618:
 3150              	.LBB619:
 3151              		.syntax unified
 3152              	@ 327 "ChibiOS_3.0.5/os/ext/CMSIS/include/core_cmInstr.h" 1
 3153 0008 00BF     		nop
 3154              	@ 0 "" 2
 3155              		.thumb
 3156              		.syntax unified
 3157              	.LBE619:
 3158              	.LBE618:
 3159              	.LBB620:
 3160              	.LBB621:
 3161              		.syntax unified
 3162              	@ 327 "ChibiOS_3.0.5/os/ext/CMSIS/include/core_cmInstr.h" 1
 3163 000a 00BF     		nop
 3164              	@ 0 "" 2
 3165              		.thumb
 3166              		.syntax unified
 3167              	.LBE621:
 3168              	.LBE620:
 3169              	.LBB622:
 3170              	.LBB623:
 3171              		.syntax unified
 3172              	@ 327 "ChibiOS_3.0.5/os/ext/CMSIS/include/core_cmInstr.h" 1
 3173 000c 00BF     		nop
 3174              	@ 0 "" 2
 3175              		.thumb
 3176              		.syntax unified
 3177              	.LBE623:
 3178              	.LBE622:
 3179              	.LBB624:
 3180              	.LBB625:
 3181              		.syntax unified
 3182              	@ 327 "ChibiOS_3.0.5/os/ext/CMSIS/include/core_cmInstr.h" 1
 3183 000e 00BF     		nop
 3184              	@ 0 "" 2
 3185              		.thumb
 3186              		.syntax unified
 3187              	.LBE625:
 3188              	.LBE624:
 3189              	.LBB626:
 3190              	.LBB627:
 3191              		.syntax unified
 3192              	@ 327 "ChibiOS_3.0.5/os/ext/CMSIS/include/core_cmInstr.h" 1
ARM GAS  /tmp/ccB9eNXv.s 			page 57


 3193 0010 00BF     		nop
 3194              	@ 0 "" 2
 3195              		.thumb
 3196              		.syntax unified
 3197              	.LBE627:
 3198              	.LBE626:
 3199              	.LBB628:
 3200              	.LBB629:
 3201              		.syntax unified
 3202              	@ 327 "ChibiOS_3.0.5/os/ext/CMSIS/include/core_cmInstr.h" 1
 3203 0012 00BF     		nop
 3204              	@ 0 "" 2
 3205              		.thumb
 3206              		.syntax unified
 3207              	.LBE629:
 3208              	.LBE628:
 3209              	.LBB630:
 3210              	.LBB631:
 3211              		.syntax unified
 3212              	@ 327 "ChibiOS_3.0.5/os/ext/CMSIS/include/core_cmInstr.h" 1
 3213 0014 00BF     		nop
 3214              	@ 0 "" 2
 3215              		.thumb
 3216              		.syntax unified
 3217              	.LBE631:
 3218              	.LBE630:
 3219              	.LBB632:
 3220              	.LBB633:
 3221              		.syntax unified
 3222              	@ 327 "ChibiOS_3.0.5/os/ext/CMSIS/include/core_cmInstr.h" 1
 3223 0016 00BF     		nop
 3224              	@ 0 "" 2
 3225              		.thumb
 3226              		.syntax unified
 3227              	.LBE633:
 3228              	.LBE632:
 3229              	.LBB634:
 3230              	.LBB635:
 3231              		.syntax unified
 3232              	@ 327 "ChibiOS_3.0.5/os/ext/CMSIS/include/core_cmInstr.h" 1
 3233 0018 00BF     		nop
 3234              	@ 0 "" 2
 3235              		.thumb
 3236              		.syntax unified
 3237              	.LBE635:
 3238              	.LBE634:
 3239              	.LBB636:
 3240              	.LBB637:
 3241              		.syntax unified
 3242              	@ 327 "ChibiOS_3.0.5/os/ext/CMSIS/include/core_cmInstr.h" 1
 3243 001a 00BF     		nop
 3244              	@ 0 "" 2
 3245              		.thumb
 3246              		.syntax unified
 3247              	.LBE637:
 3248              	.LBE636:
 3249              	.LBB638:
ARM GAS  /tmp/ccB9eNXv.s 			page 58


 3250              	.LBB639:
 3251              		.syntax unified
 3252              	@ 327 "ChibiOS_3.0.5/os/ext/CMSIS/include/core_cmInstr.h" 1
 3253 001c 00BF     		nop
 3254              	@ 0 "" 2
 3255              		.thumb
 3256              		.syntax unified
 3257              	.LBE639:
 3258              	.LBE638:
 3259              	.LBB640:
 3260              	.LBB641:
 3261              		.syntax unified
 3262              	@ 327 "ChibiOS_3.0.5/os/ext/CMSIS/include/core_cmInstr.h" 1
 3263 001e 00BF     		nop
 3264              	@ 0 "" 2
 3265              		.thumb
 3266              		.syntax unified
 3267              	.LBE641:
 3268              	.LBE640:
 3269              	.LBB642:
 3270              	.LBB643:
 3271              		.syntax unified
 3272              	@ 327 "ChibiOS_3.0.5/os/ext/CMSIS/include/core_cmInstr.h" 1
 3273 0020 00BF     		nop
 3274              	@ 0 "" 2
 3275              		.thumb
 3276              		.syntax unified
 3277              	.LBE643:
 3278              	.LBE642:
 3279              	.LBB644:
 3280              	.LBB645:
 3281              		.syntax unified
 3282              	@ 327 "ChibiOS_3.0.5/os/ext/CMSIS/include/core_cmInstr.h" 1
 3283 0022 00BF     		nop
 3284              	@ 0 "" 2
 3285              		.thumb
 3286              		.syntax unified
 3287              	.LBE645:
 3288              	.LBE644:
 3289              	.LBB646:
 3290              	.LBB647:
 3291              		.syntax unified
 3292              	@ 327 "ChibiOS_3.0.5/os/ext/CMSIS/include/core_cmInstr.h" 1
 3293 0024 00BF     		nop
 3294              	@ 0 "" 2
 3295              		.thumb
 3296              		.syntax unified
 3297              	.LBE647:
 3298              	.LBE646:
 3299              		.loc 1 1041 0
 3300 0026 00BF     		nop
 3301 0028 BD46     		mov	sp, r7
 3302              		.cfi_def_cfa_register 13
 3303              		@ sp needed
 3304 002a 5DF8047B 		ldr	r7, [sp], #4
 3305              		.cfi_restore 7
 3306              		.cfi_def_cfa_offset 0
ARM GAS  /tmp/ccB9eNXv.s 			page 59


 3307 002e 7047     		bx	lr
 3308              		.cfi_endproc
 3309              	.LFE297:
 3310              		.size	TS5700N8501_delay_uart, .-TS5700N8501_delay_uart
 3311              		.section	.text.TS5700N8501_send_byte,"ax",%progbits
 3312              		.align	1
 3313              		.p2align 4
 3314              		.syntax unified
 3315              		.thumb
 3316              		.thumb_func
 3317              		.fpu fpv4-sp-d16
 3318              		.type	TS5700N8501_send_byte, %function
 3319              	TS5700N8501_send_byte:
 3320              	.LFB298:
 3321              		.loc 1 1050 0
 3322              		.cfi_startproc
 3323              		@ args = 0, pretend = 0, frame = 16
 3324              		@ frame_needed = 1, uses_anonymous_args = 0
 3325              	.LVL115:
 3326 0000 80B5     		push	{r7, lr}
 3327              		.cfi_def_cfa_offset 8
 3328              		.cfi_offset 7, -8
 3329              		.cfi_offset 14, -4
 3330 0002 84B0     		sub	sp, sp, #16
 3331              		.cfi_def_cfa_offset 24
 3332 0004 00AF     		add	r7, sp, #0
 3333              		.cfi_def_cfa_register 7
 3334 0006 0346     		mov	r3, r0
 3335 0008 FB71     		strb	r3, [r7, #7]
 3336              		.loc 1 1051 0
 3337 000a FFF7FEFF 		bl	utils_sys_lock_cnt
 3338              	.LVL116:
 3339              		.loc 1 1053 0
 3340 000e 2F4B     		ldr	r3, .L190
 3341 0010 2022     		movs	r2, #32
 3342 0012 1A83     		strh	r2, [r3, #24]	@ movhi
 3343              		.loc 1 1055 0
 3344 0014 FFF7FEFF 		bl	TS5700N8501_delay_uart
 3345              	.LVL117:
 3346              		.loc 1 1056 0
 3347 0018 2D4B     		ldr	r3, .L190+4
 3348 001a 4FF08062 		mov	r2, #67108864
 3349 001e 9A61     		str	r2, [r3, #24]
 3350              	.LBB648:
 3351              	.LBB649:
 3352              		.loc 2 327 0
 3353              		.syntax unified
 3354              	@ 327 "ChibiOS_3.0.5/os/ext/CMSIS/include/core_cmInstr.h" 1
 3355 0020 00BF     		nop
 3356              	@ 0 "" 2
 3357              		.thumb
 3358              		.syntax unified
 3359              	.LBE649:
 3360              	.LBE648:
 3361              	.LBB650:
 3362              	.LBB651:
 3363              		.syntax unified
ARM GAS  /tmp/ccB9eNXv.s 			page 60


 3364              	@ 327 "ChibiOS_3.0.5/os/ext/CMSIS/include/core_cmInstr.h" 1
 3365 0022 00BF     		nop
 3366              	@ 0 "" 2
 3367              		.thumb
 3368              		.syntax unified
 3369              	.LBE651:
 3370              	.LBE650:
 3371              	.LBB652:
 3372              	.LBB653:
 3373              		.syntax unified
 3374              	@ 327 "ChibiOS_3.0.5/os/ext/CMSIS/include/core_cmInstr.h" 1
 3375 0024 00BF     		nop
 3376              	@ 0 "" 2
 3377              		.thumb
 3378              		.syntax unified
 3379              	.LBE653:
 3380              	.LBE652:
 3381              	.LBB654:
 3382              	.LBB655:
 3383              		.syntax unified
 3384              	@ 327 "ChibiOS_3.0.5/os/ext/CMSIS/include/core_cmInstr.h" 1
 3385 0026 00BF     		nop
 3386              	@ 0 "" 2
 3387              		.thumb
 3388              		.syntax unified
 3389              	.LBE655:
 3390              	.LBE654:
 3391              	.LBB656:
 3392              	.LBB657:
 3393              		.syntax unified
 3394              	@ 327 "ChibiOS_3.0.5/os/ext/CMSIS/include/core_cmInstr.h" 1
 3395 0028 00BF     		nop
 3396              	@ 0 "" 2
 3397              		.thumb
 3398              		.syntax unified
 3399              	.LBE657:
 3400              	.LBE656:
 3401              	.LBB658:
 3402              	.LBB659:
 3403              		.syntax unified
 3404              	@ 327 "ChibiOS_3.0.5/os/ext/CMSIS/include/core_cmInstr.h" 1
 3405 002a 00BF     		nop
 3406              	@ 0 "" 2
 3407              		.thumb
 3408              		.syntax unified
 3409              	.LBE659:
 3410              	.LBE658:
 3411              	.LBB660:
 3412              	.LBB661:
 3413              		.syntax unified
 3414              	@ 327 "ChibiOS_3.0.5/os/ext/CMSIS/include/core_cmInstr.h" 1
 3415 002c 00BF     		nop
 3416              	@ 0 "" 2
 3417              		.thumb
 3418              		.syntax unified
 3419              	.LBE661:
 3420              	.LBE660:
ARM GAS  /tmp/ccB9eNXv.s 			page 61


 3421              	.LBB662:
 3422              	.LBB663:
 3423              		.syntax unified
 3424              	@ 327 "ChibiOS_3.0.5/os/ext/CMSIS/include/core_cmInstr.h" 1
 3425 002e 00BF     		nop
 3426              	@ 0 "" 2
 3427              		.thumb
 3428              		.syntax unified
 3429              	.LBE663:
 3430              	.LBE662:
 3431              	.LBB664:
 3432              	.LBB665:
 3433              		.syntax unified
 3434              	@ 327 "ChibiOS_3.0.5/os/ext/CMSIS/include/core_cmInstr.h" 1
 3435 0030 00BF     		nop
 3436              	@ 0 "" 2
 3437              		.thumb
 3438              		.syntax unified
 3439              	.LBE665:
 3440              	.LBE664:
 3441              	.LBB666:
 3442              	.LBB667:
 3443              		.syntax unified
 3444              	@ 327 "ChibiOS_3.0.5/os/ext/CMSIS/include/core_cmInstr.h" 1
 3445 0032 00BF     		nop
 3446              	@ 0 "" 2
 3447              		.thumb
 3448              		.syntax unified
 3449              	.LBE667:
 3450              	.LBE666:
 3451              	.LBB668:
 3452              	.LBB669:
 3453              		.syntax unified
 3454              	@ 327 "ChibiOS_3.0.5/os/ext/CMSIS/include/core_cmInstr.h" 1
 3455 0034 00BF     		nop
 3456              	@ 0 "" 2
 3457              		.thumb
 3458              		.syntax unified
 3459              	.LBE669:
 3460              	.LBE668:
 3461              	.LBB670:
 3462              	.LBB671:
 3463              		.syntax unified
 3464              	@ 327 "ChibiOS_3.0.5/os/ext/CMSIS/include/core_cmInstr.h" 1
 3465 0036 00BF     		nop
 3466              	@ 0 "" 2
 3467              		.thumb
 3468              		.syntax unified
 3469              	.LBE671:
 3470              	.LBE670:
 3471              	.LBB672:
 3472              	.LBB673:
 3473              		.syntax unified
 3474              	@ 327 "ChibiOS_3.0.5/os/ext/CMSIS/include/core_cmInstr.h" 1
 3475 0038 00BF     		nop
 3476              	@ 0 "" 2
 3477              		.thumb
ARM GAS  /tmp/ccB9eNXv.s 			page 62


 3478              		.syntax unified
 3479              	.LBE673:
 3480              	.LBE672:
 3481              	.LBB674:
 3482              	.LBB675:
 3483              		.syntax unified
 3484              	@ 327 "ChibiOS_3.0.5/os/ext/CMSIS/include/core_cmInstr.h" 1
 3485 003a 00BF     		nop
 3486              	@ 0 "" 2
 3487              		.thumb
 3488              		.syntax unified
 3489              	.LBE675:
 3490              	.LBE674:
 3491              	.LBB676:
 3492              	.LBB677:
 3493              		.syntax unified
 3494              	@ 327 "ChibiOS_3.0.5/os/ext/CMSIS/include/core_cmInstr.h" 1
 3495 003c 00BF     		nop
 3496              	@ 0 "" 2
 3497              		.thumb
 3498              		.syntax unified
 3499              	.LBE677:
 3500              	.LBE676:
 3501              	.LBB678:
 3502              		.loc 1 1062 0
 3503 003e 0023     		movs	r3, #0
 3504 0040 FB60     		str	r3, [r7, #12]
 3505              	.LVL118:
 3506 0042 1FE0     		b	.L184
 3507              	.L189:
 3508              		.loc 1 1063 0
 3509 0044 FA79     		ldrb	r2, [r7, #7]	@ zero_extendqisi2
 3510 0046 8021     		movs	r1, #128
 3511 0048 FB68     		ldr	r3, [r7, #12]
 3512              	.LVL119:
 3513 004a 41FA03F3 		asr	r3, r1, r3
 3514 004e 1340     		ands	r3, r3, r2
 3515 0050 002B     		cmp	r3, #0
 3516 0052 02D1     		bne	.L185
 3517              		.loc 1 1063 0 is_stmt 0 discriminator 1
 3518 0054 4FF08062 		mov	r2, #67108864
 3519 0058 00E0     		b	.L186
 3520              	.L185:
 3521              		.loc 1 1063 0 discriminator 2
 3522 005a 0022     		movs	r2, #0
 3523              	.L186:
 3524              		.loc 1 1063 0 discriminator 4
 3525 005c F979     		ldrb	r1, [r7, #7]	@ zero_extendqisi2
 3526 005e 8020     		movs	r0, #128
 3527 0060 FB68     		ldr	r3, [r7, #12]
 3528 0062 40FA03F3 		asr	r3, r0, r3
 3529 0066 0B40     		ands	r3, r3, r1
 3530 0068 002B     		cmp	r3, #0
 3531 006a 02D0     		beq	.L187
 3532              		.loc 1 1063 0 discriminator 5
 3533 006c 4FF48063 		mov	r3, #1024
 3534 0070 00E0     		b	.L188
ARM GAS  /tmp/ccB9eNXv.s 			page 63


 3535              	.L187:
 3536              		.loc 1 1063 0 discriminator 6
 3537 0072 0023     		movs	r3, #0
 3538              	.L188:
 3539              		.loc 1 1063 0 discriminator 8
 3540 0074 1649     		ldr	r1, .L190+4
 3541 0076 1343     		orrs	r3, r3, r2
 3542 0078 8B61     		str	r3, [r1, #24]
 3543              		.loc 1 1065 0 is_stmt 1 discriminator 8
 3544 007a FFF7FEFF 		bl	TS5700N8501_delay_uart
 3545              	.LVL120:
 3546              		.loc 1 1062 0 discriminator 8
 3547 007e FB68     		ldr	r3, [r7, #12]
 3548 0080 0133     		adds	r3, r3, #1
 3549 0082 FB60     		str	r3, [r7, #12]
 3550              	.LVL121:
 3551              	.L184:
 3552              		.loc 1 1062 0 is_stmt 0 discriminator 2
 3553 0084 FB68     		ldr	r3, [r7, #12]
 3554 0086 072B     		cmp	r3, #7
 3555 0088 DCDD     		ble	.L189
 3556              	.LBE678:
 3557              	.LBB679:
 3558              	.LBB680:
 3559              		.loc 2 327 0 is_stmt 1
 3560              		.syntax unified
 3561              	@ 327 "ChibiOS_3.0.5/os/ext/CMSIS/include/core_cmInstr.h" 1
 3562 008a 00BF     		nop
 3563              	@ 0 "" 2
 3564              		.thumb
 3565              		.syntax unified
 3566              	.LBE680:
 3567              	.LBE679:
 3568              	.LBB681:
 3569              	.LBB682:
 3570              		.syntax unified
 3571              	@ 327 "ChibiOS_3.0.5/os/ext/CMSIS/include/core_cmInstr.h" 1
 3572 008c 00BF     		nop
 3573              	@ 0 "" 2
 3574              		.thumb
 3575              		.syntax unified
 3576              	.LBE682:
 3577              	.LBE681:
 3578              	.LBB683:
 3579              	.LBB684:
 3580              		.syntax unified
 3581              	@ 327 "ChibiOS_3.0.5/os/ext/CMSIS/include/core_cmInstr.h" 1
 3582 008e 00BF     		nop
 3583              	@ 0 "" 2
 3584              		.thumb
 3585              		.syntax unified
 3586              	.LBE684:
 3587              	.LBE683:
 3588              	.LBB685:
 3589              	.LBB686:
 3590              		.syntax unified
 3591              	@ 327 "ChibiOS_3.0.5/os/ext/CMSIS/include/core_cmInstr.h" 1
ARM GAS  /tmp/ccB9eNXv.s 			page 64


 3592 0090 00BF     		nop
 3593              	@ 0 "" 2
 3594              		.thumb
 3595              		.syntax unified
 3596              	.LBE686:
 3597              	.LBE685:
 3598              	.LBB687:
 3599              	.LBB688:
 3600              		.syntax unified
 3601              	@ 327 "ChibiOS_3.0.5/os/ext/CMSIS/include/core_cmInstr.h" 1
 3602 0092 00BF     		nop
 3603              	@ 0 "" 2
 3604              		.thumb
 3605              		.syntax unified
 3606              	.LBE688:
 3607              	.LBE687:
 3608              	.LBB689:
 3609              	.LBB690:
 3610              		.syntax unified
 3611              	@ 327 "ChibiOS_3.0.5/os/ext/CMSIS/include/core_cmInstr.h" 1
 3612 0094 00BF     		nop
 3613              	@ 0 "" 2
 3614              		.thumb
 3615              		.syntax unified
 3616              	.LBE690:
 3617              	.LBE689:
 3618              	.LBB691:
 3619              	.LBB692:
 3620              		.syntax unified
 3621              	@ 327 "ChibiOS_3.0.5/os/ext/CMSIS/include/core_cmInstr.h" 1
 3622 0096 00BF     		nop
 3623              	@ 0 "" 2
 3624              		.thumb
 3625              		.syntax unified
 3626              	.LBE692:
 3627              	.LBE691:
 3628              	.LBB693:
 3629              	.LBB694:
 3630              		.syntax unified
 3631              	@ 327 "ChibiOS_3.0.5/os/ext/CMSIS/include/core_cmInstr.h" 1
 3632 0098 00BF     		nop
 3633              	@ 0 "" 2
 3634              		.thumb
 3635              		.syntax unified
 3636              	.LBE694:
 3637              	.LBE693:
 3638              	.LBB695:
 3639              	.LBB696:
 3640              		.syntax unified
 3641              	@ 327 "ChibiOS_3.0.5/os/ext/CMSIS/include/core_cmInstr.h" 1
 3642 009a 00BF     		nop
 3643              	@ 0 "" 2
 3644              		.thumb
 3645              		.syntax unified
 3646              	.LBE696:
 3647              	.LBE695:
 3648              	.LBB697:
ARM GAS  /tmp/ccB9eNXv.s 			page 65


 3649              	.LBB698:
 3650              		.syntax unified
 3651              	@ 327 "ChibiOS_3.0.5/os/ext/CMSIS/include/core_cmInstr.h" 1
 3652 009c 00BF     		nop
 3653              	@ 0 "" 2
 3654              		.thumb
 3655              		.syntax unified
 3656              	.LBE698:
 3657              	.LBE697:
 3658              	.LBB699:
 3659              	.LBB700:
 3660              		.syntax unified
 3661              	@ 327 "ChibiOS_3.0.5/os/ext/CMSIS/include/core_cmInstr.h" 1
 3662 009e 00BF     		nop
 3663              	@ 0 "" 2
 3664              		.thumb
 3665              		.syntax unified
 3666              	.LBE700:
 3667              	.LBE699:
 3668              	.LBB701:
 3669              	.LBB702:
 3670              		.syntax unified
 3671              	@ 327 "ChibiOS_3.0.5/os/ext/CMSIS/include/core_cmInstr.h" 1
 3672 00a0 00BF     		nop
 3673              	@ 0 "" 2
 3674              		.thumb
 3675              		.syntax unified
 3676              	.LBE702:
 3677              	.LBE701:
 3678              	.LBB703:
 3679              	.LBB704:
 3680              		.syntax unified
 3681              	@ 327 "ChibiOS_3.0.5/os/ext/CMSIS/include/core_cmInstr.h" 1
 3682 00a2 00BF     		nop
 3683              	@ 0 "" 2
 3684              		.thumb
 3685              		.syntax unified
 3686              	.LBE704:
 3687              	.LBE703:
 3688              	.LBB705:
 3689              	.LBB706:
 3690              		.syntax unified
 3691              	@ 327 "ChibiOS_3.0.5/os/ext/CMSIS/include/core_cmInstr.h" 1
 3692 00a4 00BF     		nop
 3693              	@ 0 "" 2
 3694              		.thumb
 3695              		.syntax unified
 3696              	.LBE706:
 3697              	.LBE705:
 3698              	.LBB707:
 3699              	.LBB708:
 3700              		.syntax unified
 3701              	@ 327 "ChibiOS_3.0.5/os/ext/CMSIS/include/core_cmInstr.h" 1
 3702 00a6 00BF     		nop
 3703              	@ 0 "" 2
 3704              		.thumb
 3705              		.syntax unified
ARM GAS  /tmp/ccB9eNXv.s 			page 66


 3706              	.LBE708:
 3707              	.LBE707:
 3708              	.LBB709:
 3709              	.LBB710:
 3710              		.syntax unified
 3711              	@ 327 "ChibiOS_3.0.5/os/ext/CMSIS/include/core_cmInstr.h" 1
 3712 00a8 00BF     		nop
 3713              	@ 0 "" 2
 3714              		.thumb
 3715              		.syntax unified
 3716              	.LBE710:
 3717              	.LBE709:
 3718              	.LBB711:
 3719              	.LBB712:
 3720              		.syntax unified
 3721              	@ 327 "ChibiOS_3.0.5/os/ext/CMSIS/include/core_cmInstr.h" 1
 3722 00aa 00BF     		nop
 3723              	@ 0 "" 2
 3724              		.thumb
 3725              		.syntax unified
 3726              	.LBE712:
 3727              	.LBE711:
 3728              	.LBB713:
 3729              	.LBB714:
 3730              		.syntax unified
 3731              	@ 327 "ChibiOS_3.0.5/os/ext/CMSIS/include/core_cmInstr.h" 1
 3732 00ac 00BF     		nop
 3733              	@ 0 "" 2
 3734              		.thumb
 3735              		.syntax unified
 3736              	.LBE714:
 3737              	.LBE713:
 3738              		.loc 1 1073 0
 3739 00ae 084B     		ldr	r3, .L190+4
 3740 00b0 4FF48062 		mov	r2, #1024
 3741 00b4 9A61     		str	r2, [r3, #24]
 3742              		.loc 1 1074 0
 3743 00b6 FFF7FEFF 		bl	TS5700N8501_delay_uart
 3744              	.LVL122:
 3745              		.loc 1 1076 0
 3746 00ba 044B     		ldr	r3, .L190
 3747 00bc 2022     		movs	r2, #32
 3748 00be 5A83     		strh	r2, [r3, #26]	@ movhi
 3749              		.loc 1 1078 0
 3750 00c0 FFF7FEFF 		bl	utils_sys_unlock_cnt
 3751              	.LVL123:
 3752              		.loc 1 1079 0
 3753 00c4 00BF     		nop
 3754 00c6 1037     		adds	r7, r7, #16
 3755              		.cfi_def_cfa_offset 8
 3756 00c8 BD46     		mov	sp, r7
 3757              		.cfi_def_cfa_register 13
 3758              	.LVL124:
 3759              		@ sp needed
 3760 00ca 80BD     		pop	{r7, pc}
 3761              	.L191:
 3762              		.align	2
ARM GAS  /tmp/ccB9eNXv.s 			page 67


 3763              	.L190:
 3764 00cc 00000240 		.word	1073872896
 3765 00d0 00040240 		.word	1073873920
 3766              		.cfi_endproc
 3767              	.LFE298:
 3768              		.size	TS5700N8501_send_byte, .-TS5700N8501_send_byte
 3769              		.section	.text.ts5700n8501_thread,"ax",%progbits
 3770              		.align	1
 3771              		.p2align 4,,15
 3772              		.syntax unified
 3773              		.thumb
 3774              		.thumb_func
 3775              		.fpu fpv4-sp-d16
 3776              		.type	ts5700n8501_thread, %function
 3777              	ts5700n8501_thread:
 3778              	.LFB299:
 3779              		.loc 1 1083 0
 3780              		.cfi_startproc
 3781              		@ args = 0, pretend = 0, frame = 16
 3782              		@ frame_needed = 0, uses_anonymous_args = 0
 3783              	.LVL125:
 3784 0000 2DE9F043 		push	{r4, r5, r6, r7, r8, r9, lr}
 3785              		.cfi_def_cfa_offset 28
 3786              		.cfi_offset 4, -28
 3787              		.cfi_offset 5, -24
 3788              		.cfi_offset 6, -20
 3789              		.cfi_offset 7, -16
 3790              		.cfi_offset 8, -12
 3791              		.cfi_offset 9, -8
 3792              		.cfi_offset 14, -4
 3793              	.LBB715:
 3794              	.LBB716:
 3795              		.file 3 "ChibiOS_3.0.5/os/rt/include/chregistry.h"
 3796              		.loc 3 135 0
 3797 0004 654B     		ldr	r3, .L223
 3798 0006 664A     		ldr	r2, .L223+4
 3799 0008 9B69     		ldr	r3, [r3, #24]
 3800              	.LBE716:
 3801              	.LBE715:
 3802              		.loc 1 1088 0
 3803 000a 6649     		ldr	r1, .L223+8
 3804 000c 6648     		ldr	r0, .L223+12
 3805              	.LVL126:
 3806              	.LBB718:
 3807              		.loc 1 1103 0
 3808 000e DFF8D081 		ldr	r8, .L223+68
 3809              	.LBE718:
 3810              		.loc 1 1083 0
 3811 0012 2DED048B 		vpush.64	{d8, d9}
 3812              		.cfi_def_cfa_offset 44
 3813              		.cfi_offset 80, -44
 3814              		.cfi_offset 81, -40
 3815              		.cfi_offset 82, -36
 3816              		.cfi_offset 83, -32
 3817              	.LBB724:
 3818              	.LBB717:
 3819              		.loc 3 135 0
ARM GAS  /tmp/ccB9eNXv.s 			page 68


 3820 0016 9A61     		str	r2, [r3, #24]
 3821              	.LVL127:
 3822              	.LBE717:
 3823              	.LBE724:
 3824              		.loc 1 1083 0
 3825 0018 85B0     		sub	sp, sp, #20
 3826              		.cfi_def_cfa_offset 64
 3827              		.loc 1 1088 0
 3828 001a FFF7FEFF 		bl	sdStart
 3829              	.LVL128:
 3830              		.loc 1 1089 0
 3831 001e 3922     		movs	r2, #57
 3832 0020 4FF48061 		mov	r1, #1024
 3833 0024 6148     		ldr	r0, .L223+16
 3834 0026 FFF7FEFF 		bl	_pal_lld_setgroupmode
 3835              	.LVL129:
 3836              		.loc 1 1092 0
 3837 002a 40F2BA32 		movw	r2, #954
 3838 002e 4FF40061 		mov	r1, #2048
 3839 0032 5E48     		ldr	r0, .L223+16
 3840 0034 FFF7FEFF 		bl	_pal_lld_setgroupmode
 3841              	.LVL130:
 3842              		.loc 1 1096 0
 3843 0038 3922     		movs	r2, #57
 3844 003a 2021     		movs	r1, #32
 3845 003c 5C48     		ldr	r0, .L223+20
 3846 003e FFF7FEFF 		bl	_pal_lld_setgroupmode
 3847              	.LVL131:
 3848              	.LBB725:
 3849              		.loc 1 1103 0
 3850 0042 98F80030 		ldrb	r3, [r8]	@ zero_extendqisi2
 3851 0046 002B     		cmp	r3, #0
 3852 0048 50D1     		bne	.L205
 3853 004a 5A4F     		ldr	r7, .L223+24
 3854 004c 5A4E     		ldr	r6, .L223+28
 3855 004e 5B4D     		ldr	r5, .L223+32
 3856              		.loc 1 1162 0
 3857 0050 9FED5B8A 		vldr.32	s16, .L223+36
 3858              	.LBB719:
 3859              		.loc 1 1149 0
 3860 0054 9FED5B9A 		vldr.32	s18, .L223+40
 3861 0058 DFED5B8A 		vldr.32	s17, .L223+44
 3862              	.L193:
 3863              	.LBE719:
 3864              		.loc 1 1108 0
 3865 005c 3B78     		ldrb	r3, [r7]	@ zero_extendqisi2
 3866 005e 002B     		cmp	r3, #0
 3867 0060 40F08C80 		bne	.L220
 3868              	.L194:
 3869              		.loc 1 1117 0
 3870 0064 3378     		ldrb	r3, [r6]	@ zero_extendqisi2
 3871 0066 002B     		cmp	r3, #0
 3872 0068 7DD1     		bne	.L221
 3873              	.L196:
 3874              		.loc 1 1126 0
 3875 006a 5820     		movs	r0, #88
 3876 006c FFF7FEFF 		bl	TS5700N8501_send_byte
ARM GAS  /tmp/ccB9eNXv.s 			page 69


 3877              	.LVL132:
 3878              		.loc 1 1128 0
 3879 0070 0220     		movs	r0, #2
 3880 0072 FFF7FEFF 		bl	chThdSleep
 3881              	.LVL133:
 3882              		.loc 1 1133 0
 3883 0076 0021     		movs	r1, #0
 3884 0078 5448     		ldr	r0, .L223+48
 3885 007a FFF7FEFF 		bl	chIQGetTimeout
 3886              	.LVL134:
 3887              		.loc 1 1134 0
 3888 007e 411C     		adds	r1, r0, #1
 3889              		.loc 1 1133 0
 3890 0080 0346     		mov	r3, r0
 3891              	.LVL135:
 3892              		.loc 1 1134 0
 3893 0082 00F08680 		beq	.L198
 3894              		.loc 1 1138 0
 3895 0086 DFF84491 		ldr	r9, .L223+48
 3896              		.loc 1 1131 0
 3897 008a 0024     		movs	r4, #0
 3898              	.LVL136:
 3899              	.L200:
 3900              		.loc 1 1135 0
 3901 008c 0A2C     		cmp	r4, #10
 3902              		.loc 1 1138 0
 3903 008e 4FF00001 		mov	r1, #0
 3904 0092 4846     		mov	r0, r9
 3905              	.LVL137:
 3906              		.loc 1 1135 0
 3907 0094 04DC     		bgt	.L199
 3908              		.loc 1 1136 0
 3909 0096 04AA     		add	r2, sp, #16
 3910 0098 2244     		add	r2, r2, r4
 3911 009a 0134     		adds	r4, r4, #1
 3912              	.LVL138:
 3913 009c 02F80C3C 		strb	r3, [r2, #-12]
 3914              	.LVL139:
 3915              	.L199:
 3916              		.loc 1 1138 0
 3917 00a0 FFF7FEFF 		bl	chIQGetTimeout
 3918              	.LVL140:
 3919              		.loc 1 1134 0
 3920 00a4 421C     		adds	r2, r0, #1
 3921              		.loc 1 1138 0
 3922 00a6 0346     		mov	r3, r0
 3923              	.LVL141:
 3924              		.loc 1 1134 0
 3925 00a8 F0D1     		bne	.L200
 3926              	.LVL142:
 3927              	.LBB720:
 3928              		.loc 1 1142 0
 3929 00aa 012C     		cmp	r4, #1
 3930 00ac 74D0     		beq	.L206
 3931 00ae 0DF10303 		add	r3, sp, #3
 3932 00b2 1819     		adds	r0, r3, r4
 3933              	.LVL143:
ARM GAS  /tmp/ccB9eNXv.s 			page 70


 3934 00b4 0022     		movs	r2, #0
 3935              	.LVL144:
 3936 00b6 01AB     		add	r3, sp, #4
 3937              	.LVL145:
 3938              	.L202:
 3939              		.loc 1 1143 0 discriminator 3
 3940 00b8 13F8011B 		ldrb	r1, [r3], #1	@ zero_extendqisi2
 3941              	.LVL146:
 3942              		.loc 1 1142 0 discriminator 3
 3943 00bc 9842     		cmp	r0, r3
 3944              		.loc 1 1143 0 discriminator 3
 3945 00be 82EA0102 		eor	r2, r2, r1
 3946              	.LVL147:
 3947              		.loc 1 1142 0 discriminator 3
 3948 00c2 F9D1     		bne	.L202
 3949              	.LVL148:
 3950              	.L201:
 3951              	.LBE720:
 3952              		.loc 1 1146 0
 3953 00c4 0B2C     		cmp	r4, #11
 3954 00c6 D5ED007A 		vldr.32	s15, [r5]
 3955 00ca 17D0     		beq	.L222
 3956              	.LVL149:
 3957              	.L203:
 3958              		.loc 1 1162 0
 3959 00cc B7EE007A 		vmov.f32	s14, #1.0e+0
 3960 00d0 37EEC77A 		vsub.f32	s14, s15, s14
 3961              		.loc 1 1161 0
 3962 00d4 3E4A     		ldr	r2, .L223+52
 3963              		.loc 1 1162 0
 3964 00d6 E7EE487A 		vfms.f32	s15, s14, s16
 3965              		.loc 1 1161 0
 3966 00da 1368     		ldr	r3, [r2]
 3967 00dc 0133     		adds	r3, r3, #1
 3968 00de 1360     		str	r3, [r2]
 3969              		.loc 1 1162 0
 3970 00e0 C5ED007A 		vstr.32	s15, [r5]
 3971              	.L204:
 3972              		.loc 1 1103 0
 3973 00e4 98F80030 		ldrb	r3, [r8]	@ zero_extendqisi2
 3974 00e8 002B     		cmp	r3, #0
 3975 00ea B7D0     		beq	.L193
 3976              	.L205:
 3977              		.loc 1 1104 0
 3978 00ec 394B     		ldr	r3, .L223+56
 3979 00ee 0022     		movs	r2, #0
 3980 00f0 1A70     		strb	r2, [r3]
 3981              	.LBE725:
 3982              		.loc 1 1165 0
 3983 00f2 05B0     		add	sp, sp, #20
 3984              		.cfi_remember_state
 3985              		.cfi_def_cfa_offset 44
 3986              		@ sp needed
 3987 00f4 BDEC048B 		vldm	sp!, {d8-d9}
 3988              		.cfi_restore 82
 3989              		.cfi_restore 83
 3990              		.cfi_restore 80
ARM GAS  /tmp/ccB9eNXv.s 			page 71


 3991              		.cfi_restore 81
 3992              		.cfi_def_cfa_offset 28
 3993 00f8 BDE8F083 		pop	{r4, r5, r6, r7, r8, r9, pc}
 3994              	.LVL150:
 3995              	.L222:
 3996              		.cfi_restore_state
 3997              	.LBB726:
 3998              		.loc 1 1146 0 discriminator 1
 3999 00fc 9DF80E30 		ldrb	r3, [sp, #14]	@ zero_extendqisi2
 4000 0100 9342     		cmp	r3, r2
 4001 0102 E3D1     		bne	.L203
 4002              	.LBB721:
 4003              		.loc 1 1152 0
 4004 0104 344B     		ldr	r3, .L223+60
 4005              		.loc 1 1147 0
 4006 0106 9DF80810 		ldrb	r1, [sp, #8]	@ zero_extendqisi2
 4007 010a 9DF80700 		ldrb	r0, [sp, #7]	@ zero_extendqisi2
 4008              		.loc 1 1152 0
 4009 010e 9DF80520 		ldrb	r2, [sp, #5]	@ zero_extendqisi2
 4010 0112 1A70     		strb	r2, [r3]
 4011              		.loc 1 1147 0
 4012 0114 9DF80640 		ldrb	r4, [sp, #6]	@ zero_extendqisi2
 4013              	.LVL151:
 4014              		.loc 1 1148 0
 4015 0118 DFF8C8C0 		ldr	ip, .L223+72
 4016              		.loc 1 1153 0
 4017 011c 5C70     		strb	r4, [r3, #1]
 4018              		.loc 1 1147 0
 4019 011e 0A04     		lsls	r2, r1, #16
 4020 0120 02EB0022 		add	r2, r2, r0, lsl #8
 4021 0124 2244     		add	r2, r2, r4
 4022              	.LVL152:
 4023              		.loc 1 1149 0
 4024 0126 07EE102A 		vmov	s14, r2	@ int
 4025              		.loc 1 1150 0
 4026 012a E7EEC87A 		vfms.f32	s15, s15, s16
 4027              		.loc 1 1154 0
 4028 012e 9870     		strb	r0, [r3, #2]
 4029              		.loc 1 1155 0
 4030 0130 D970     		strb	r1, [r3, #3]
 4031              		.loc 1 1149 0
 4032 0132 B8EEC77A 		vcvt.f32.s32	s14, s14
 4033              		.loc 1 1156 0
 4034 0136 9DF80A10 		ldrb	r1, [sp, #10]	@ zero_extendqisi2
 4035              		.loc 1 1149 0
 4036 013a 2848     		ldr	r0, .L223+64
 4037              		.loc 1 1150 0
 4038 013c C5ED007A 		vstr.32	s15, [r5]
 4039              		.loc 1 1149 0
 4040 0140 27EE097A 		vmul.f32	s14, s14, s18
 4041              		.loc 1 1156 0
 4042 0144 1971     		strb	r1, [r3, #4]
 4043              		.loc 1 1149 0
 4044 0146 67EE287A 		vmul.f32	s15, s14, s17
 4045              		.loc 1 1157 0
 4046 014a 9DF80B40 		ldrb	r4, [sp, #11]	@ zero_extendqisi2
 4047              		.loc 1 1148 0
ARM GAS  /tmp/ccB9eNXv.s 			page 72


 4048 014e CCF80020 		str	r2, [ip]
 4049              		.loc 1 1158 0
 4050 0152 9DF80C10 		ldrb	r1, [sp, #12]	@ zero_extendqisi2
 4051              		.loc 1 1159 0
 4052 0156 9DF80D20 		ldrb	r2, [sp, #13]	@ zero_extendqisi2
 4053              	.LVL153:
 4054              		.loc 1 1157 0
 4055 015a 5C71     		strb	r4, [r3, #5]
 4056              		.loc 1 1149 0
 4057 015c C0ED007A 		vstr.32	s15, [r0]
 4058              		.loc 1 1158 0
 4059 0160 9971     		strb	r1, [r3, #6]
 4060              		.loc 1 1159 0
 4061 0162 DA71     		strb	r2, [r3, #7]
 4062              	.LBE721:
 4063              		.loc 1 1146 0
 4064 0164 BEE7     		b	.L204
 4065              	.LVL154:
 4066              	.L221:
 4067 0166 1424     		movs	r4, #20
 4068              	.L197:
 4069              	.LVL155:
 4070              	.LBB722:
 4071              		.loc 1 1119 0 discriminator 3
 4072 0168 4620     		movs	r0, #70
 4073 016a FFF7FEFF 		bl	TS5700N8501_send_byte
 4074              	.LVL156:
 4075              		.loc 1 1120 0 discriminator 3
 4076 016e 0220     		movs	r0, #2
 4077 0170 FFF7FEFF 		bl	chThdSleep
 4078              	.LVL157:
 4079              		.loc 1 1118 0 discriminator 3
 4080 0174 013C     		subs	r4, r4, #1
 4081              	.LVL158:
 4082 0176 F7D1     		bne	.L197
 4083              	.LBE722:
 4084              		.loc 1 1123 0
 4085 0178 3470     		strb	r4, [r6]
 4086 017a 76E7     		b	.L196
 4087              	.LVL159:
 4088              	.L220:
 4089 017c 1424     		movs	r4, #20
 4090              	.L195:
 4091              	.LVL160:
 4092              	.LBB723:
 4093              		.loc 1 1110 0 discriminator 3
 4094 017e 5D20     		movs	r0, #93
 4095 0180 FFF7FEFF 		bl	TS5700N8501_send_byte
 4096              	.LVL161:
 4097              		.loc 1 1111 0 discriminator 3
 4098 0184 0220     		movs	r0, #2
 4099 0186 FFF7FEFF 		bl	chThdSleep
 4100              	.LVL162:
 4101              		.loc 1 1109 0 discriminator 3
 4102 018a 013C     		subs	r4, r4, #1
 4103              	.LVL163:
 4104 018c F7D1     		bne	.L195
ARM GAS  /tmp/ccB9eNXv.s 			page 73


 4105              	.LBE723:
 4106              		.loc 1 1114 0
 4107 018e 3C70     		strb	r4, [r7]
 4108 0190 68E7     		b	.L194
 4109              	.LVL164:
 4110              	.L198:
 4111 0192 D5ED007A 		vldr.32	s15, [r5]
 4112 0196 99E7     		b	.L203
 4113              	.LVL165:
 4114              	.L206:
 4115              		.loc 1 1141 0
 4116 0198 0022     		movs	r2, #0
 4117 019a 93E7     		b	.L201
 4118              	.L224:
 4119              		.align	2
 4120              	.L223:
 4121 019c 00000000 		.word	ch
 4122 01a0 00000000 		.word	.LANCHOR31
 4123 01a4 00000000 		.word	.LANCHOR32
 4124 01a8 00000000 		.word	SD3
 4125 01ac 00040240 		.word	1073873920
 4126 01b0 00000240 		.word	1073872896
 4127 01b4 00000000 		.word	.LANCHOR16
 4128 01b8 00000000 		.word	.LANCHOR17
 4129 01bc 00000000 		.word	.LANCHOR2
 4130 01c0 17B75138 		.word	944879383
 4131 01c4 00000037 		.word	922746880
 4132 01c8 0000B443 		.word	1135869952
 4133 01cc 0C000000 		.word	SD3+12
 4134 01d0 00000000 		.word	.LANCHOR0
 4135 01d4 00000000 		.word	.LANCHOR20
 4136 01d8 00000000 		.word	.LANCHOR15
 4137 01dc 00000000 		.word	.LANCHOR22
 4138 01e0 00000000 		.word	.LANCHOR19
 4139 01e4 00000000 		.word	.LANCHOR1
 4140              	.LBE726:
 4141              		.cfi_endproc
 4142              	.LFE299:
 4143              		.size	ts5700n8501_thread, .-ts5700n8501_thread
 4144              		.section	.text.spi_transfer.isra.1.constprop.2,"ax",%progbits
 4145              		.align	1
 4146              		.p2align 4,,15
 4147              		.syntax unified
 4148              		.thumb
 4149              		.thumb_func
 4150              		.fpu fpv4-sp-d16
 4151              		.type	spi_transfer.isra.1.constprop.2, %function
 4152              	spi_transfer.isra.1.constprop.2:
 4153              	.LFB302:
 4154              		.loc 1 952 0
 4155              		.cfi_startproc
 4156              		@ args = 0, pretend = 0, frame = 0
 4157              		@ frame_needed = 0, uses_anonymous_args = 0
 4158              	.LVL166:
 4159              	.LBB727:
 4160              	.LBB728:
 4161              	.LBB729:
ARM GAS  /tmp/ccB9eNXv.s 			page 74


 4162              	.LBB730:
 4163              		.loc 1 968 0
 4164 0000 194A     		ldr	r2, .L233
 4165              	.LBE730:
 4166              	.LBE729:
 4167              	.LBE728:
 4168              	.LBE727:
 4169              		.loc 1 952 0
 4170 0002 F0B5     		push	{r4, r5, r6, r7, lr}
 4171              		.cfi_def_cfa_offset 20
 4172              		.cfi_offset 4, -20
 4173              		.cfi_offset 5, -16
 4174              		.cfi_offset 6, -12
 4175              		.cfi_offset 7, -8
 4176              		.cfi_offset 14, -4
 4177              	.LBB761:
 4178              	.LBB759:
 4179              		.loc 1 961 0
 4180 0004 0021     		movs	r1, #0
 4181              	.LBE759:
 4182              	.LBE761:
 4183              		.loc 1 952 0
 4184 0006 8646     		mov	lr, r0
 4185 0008 1026     		movs	r6, #16
 4186              	.LBB762:
 4187              	.LBB760:
 4188              	.LBB758:
 4189              	.LBB757:
 4190              		.loc 1 968 0
 4191 000a 4FF04007 		mov	r7, #64	@ movhi
 4192              	.LVL167:
 4193              	.L227:
 4194 000e 1783     		strh	r7, [r2, #24]	@ movhi
 4195              	.LBB731:
 4196              	.LBB732:
 4197              	.LBB733:
 4198              		.loc 2 327 0
 4199              		.syntax unified
 4200              	@ 327 "ChibiOS_3.0.5/os/ext/CMSIS/include/core_cmInstr.h" 1
 4201 0010 00BF     		nop
 4202              	@ 0 "" 2
 4203              		.thumb
 4204              		.syntax unified
 4205              	.LBE733:
 4206              	.LBE732:
 4207              	.LBB734:
 4208              	.LBB735:
 4209              		.syntax unified
 4210              	@ 327 "ChibiOS_3.0.5/os/ext/CMSIS/include/core_cmInstr.h" 1
 4211 0012 00BF     		nop
 4212              	@ 0 "" 2
 4213              		.thumb
 4214              		.syntax unified
 4215              	.LBE735:
 4216              	.LBE734:
 4217              	.LBB736:
 4218              	.LBB737:
ARM GAS  /tmp/ccB9eNXv.s 			page 75


 4219              		.syntax unified
 4220              	@ 327 "ChibiOS_3.0.5/os/ext/CMSIS/include/core_cmInstr.h" 1
 4221 0014 00BF     		nop
 4222              	@ 0 "" 2
 4223              		.thumb
 4224              		.syntax unified
 4225              	.LBE737:
 4226              	.LBE736:
 4227              	.LBB738:
 4228              	.LBB739:
 4229              		.syntax unified
 4230              	@ 327 "ChibiOS_3.0.5/os/ext/CMSIS/include/core_cmInstr.h" 1
 4231 0016 00BF     		nop
 4232              	@ 0 "" 2
 4233              	.LVL168:
 4234              		.thumb
 4235              		.syntax unified
 4236              	.LBE739:
 4237              	.LBE738:
 4238              	.LBE731:
 4239              		.loc 1 972 0
 4240 0018 1369     		ldr	r3, [r2, #16]
 4241              	.LVL169:
 4242              	.LBB740:
 4243              	.LBB741:
 4244              		.loc 2 327 0
 4245              		.syntax unified
 4246              	@ 327 "ChibiOS_3.0.5/os/ext/CMSIS/include/core_cmInstr.h" 1
 4247 001a 00BF     		nop
 4248              	@ 0 "" 2
 4249              		.thumb
 4250              		.syntax unified
 4251              	.LBE741:
 4252              	.LBE740:
 4253              		.loc 1 974 0
 4254 001c 1069     		ldr	r0, [r2, #16]
 4255              	.LVL170:
 4256              	.LBB742:
 4257              	.LBB743:
 4258              		.loc 2 327 0
 4259              		.syntax unified
 4260              	@ 327 "ChibiOS_3.0.5/os/ext/CMSIS/include/core_cmInstr.h" 1
 4261 001e 00BF     		nop
 4262              	@ 0 "" 2
 4263              		.thumb
 4264              		.syntax unified
 4265              	.LBE743:
 4266              	.LBE742:
 4267              		.loc 1 976 0
 4268 0020 1469     		ldr	r4, [r2, #16]
 4269              	.LVL171:
 4270              	.LBB744:
 4271              	.LBB745:
 4272              		.loc 2 327 0
 4273              		.syntax unified
 4274              	@ 327 "ChibiOS_3.0.5/os/ext/CMSIS/include/core_cmInstr.h" 1
 4275 0022 00BF     		nop
ARM GAS  /tmp/ccB9eNXv.s 			page 76


 4276              	@ 0 "" 2
 4277              		.thumb
 4278              		.syntax unified
 4279              	.LBE745:
 4280              	.LBE744:
 4281              		.loc 1 978 0
 4282 0024 1569     		ldr	r5, [r2, #16]
 4283              	.LVL172:
 4284              	.LBB746:
 4285              	.LBB747:
 4286              		.loc 2 327 0
 4287              		.syntax unified
 4288              	@ 327 "ChibiOS_3.0.5/os/ext/CMSIS/include/core_cmInstr.h" 1
 4289 0026 00BF     		nop
 4290              	@ 0 "" 2
 4291              		.thumb
 4292              		.syntax unified
 4293              	.LBE747:
 4294              	.LBE746:
 4295              		.loc 1 974 0
 4296 0028 C0F3C01C 		ubfx	ip, r0, #7, #1
 4297              		.loc 1 972 0
 4298 002c C3F3C013 		ubfx	r3, r3, #7, #1
 4299              	.LVL173:
 4300              		.loc 1 974 0
 4301 0030 6344     		add	r3, r3, ip
 4302              		.loc 1 976 0
 4303 0032 C4F3C01C 		ubfx	ip, r4, #7, #1
 4304              		.loc 1 980 0
 4305 0036 1469     		ldr	r4, [r2, #16]
 4306              		.loc 1 976 0
 4307 0038 6344     		add	r3, r3, ip
 4308              		.loc 1 978 0
 4309 003a C5F3C015 		ubfx	r5, r5, #7, #1
 4310 003e 2B44     		add	r3, r3, r5
 4311              		.loc 1 980 0
 4312 0040 C4F3C014 		ubfx	r4, r4, #7, #1
 4313 0044 2344     		add	r3, r3, r4
 4314              		.loc 1 982 0
 4315 0046 4900     		lsls	r1, r1, #1
 4316              	.LVL174:
 4317              		.loc 1 983 0
 4318 0048 022B     		cmp	r3, #2
 4319              		.loc 1 982 0
 4320 004a 89B2     		uxth	r1, r1
 4321              	.LVL175:
 4322              		.loc 1 983 0
 4323 004c 01D9     		bls	.L229
 4324              		.loc 1 984 0
 4325 004e 41F00101 		orr	r1, r1, #1
 4326              	.LVL176:
 4327              	.L229:
 4328              		.loc 1 987 0
 4329 0052 5783     		strh	r7, [r2, #26]	@ movhi
 4330              	.LBB748:
 4331              	.LBB749:
 4332              	.LBB750:
ARM GAS  /tmp/ccB9eNXv.s 			page 77


 4333              		.loc 2 327 0
 4334              		.syntax unified
 4335              	@ 327 "ChibiOS_3.0.5/os/ext/CMSIS/include/core_cmInstr.h" 1
 4336 0054 00BF     		nop
 4337              	@ 0 "" 2
 4338              		.thumb
 4339              		.syntax unified
 4340              	.LBE750:
 4341              	.LBE749:
 4342              	.LBB751:
 4343              	.LBB752:
 4344              		.syntax unified
 4345              	@ 327 "ChibiOS_3.0.5/os/ext/CMSIS/include/core_cmInstr.h" 1
 4346 0056 00BF     		nop
 4347              	@ 0 "" 2
 4348              		.thumb
 4349              		.syntax unified
 4350              	.LBE752:
 4351              	.LBE751:
 4352              	.LBB753:
 4353              	.LBB754:
 4354              		.syntax unified
 4355              	@ 327 "ChibiOS_3.0.5/os/ext/CMSIS/include/core_cmInstr.h" 1
 4356 0058 00BF     		nop
 4357              	@ 0 "" 2
 4358              		.thumb
 4359              		.syntax unified
 4360              	.LBE754:
 4361              	.LBE753:
 4362              	.LBB755:
 4363              	.LBB756:
 4364              		.syntax unified
 4365              	@ 327 "ChibiOS_3.0.5/os/ext/CMSIS/include/core_cmInstr.h" 1
 4366 005a 00BF     		nop
 4367              	@ 0 "" 2
 4368              	.LVL177:
 4369              		.thumb
 4370              		.syntax unified
 4371              	.LBE756:
 4372              	.LBE755:
 4373              	.LBE748:
 4374              	.LBE757:
 4375              		.loc 1 963 0
 4376 005c 013E     		subs	r6, r6, #1
 4377              	.LVL178:
 4378 005e D6D1     		bne	.L227
 4379              	.LBE758:
 4380              		.loc 1 992 0
 4381 0060 AEF80010 		strh	r1, [lr]	@ movhi
 4382              	.LVL179:
 4383              	.LBE760:
 4384              	.LBE762:
 4385              		.loc 1 995 0
 4386 0064 F0BD     		pop	{r4, r5, r6, r7, pc}
 4387              	.LVL180:
 4388              	.L234:
 4389 0066 00BF     		.align	2
ARM GAS  /tmp/ccB9eNXv.s 			page 78


 4390              	.L233:
 4391 0068 00080240 		.word	1073874944
 4392              		.cfi_endproc
 4393              	.LFE302:
 4394              		.size	spi_transfer.isra.1.constprop.2, .-spi_transfer.isra.1.constprop.2
 4395              		.section	.rodata
 4396              		.align	2
 4397              		.set	.LANCHOR31,. + 0
 4398              	.LC0:
 4399 0000 54533537 		.ascii	"TS5700N8501\000"
 4399      30304E38 
 4399      35303100 
 4400              		.section	.bss.AS504x_data_last_invalid_counter,"aw",%nobits
 4401              		.align	2
 4402              		.set	.LANCHOR29,. + 0
 4403              		.type	AS504x_data_last_invalid_counter, %object
 4404              		.size	AS504x_data_last_invalid_counter, 4
 4405              	AS504x_data_last_invalid_counter:
 4406 0000 00000000 		.space	4
 4407              		.section	.bss.AS504x_sensor_diag,"aw",%nobits
 4408              		.align	2
 4409              		.set	.LANCHOR28,. + 0
 4410              		.type	AS504x_sensor_diag, %object
 4411              		.size	AS504x_sensor_diag, 14
 4412              	AS504x_sensor_diag:
 4413 0000 00000000 		.space	14
 4413      00000000 
 4413      00000000 
 4413      0000
 4414              		.section	.bss.AS504x_spi_communication_error_count,"aw",%nobits
 4415              		.align	2
 4416              		.set	.LANCHOR30,. + 0
 4417              		.type	AS504x_spi_communication_error_count, %object
 4418              		.size	AS504x_spi_communication_error_count, 4
 4419              	AS504x_spi_communication_error_count:
 4420 0000 00000000 		.space	4
 4421              		.section	.bss.angle.12426,"aw",%nobits
 4422              		.align	2
 4423              		.set	.LANCHOR26,. + 0
 4424              		.type	angle.12426, %object
 4425              		.size	angle.12426, 4
 4426              	angle.12426:
 4427 0000 00000000 		.space	4
 4428              		.section	.bss.bad_pulses.12442,"aw",%nobits
 4429              		.align	2
 4430              		.set	.LANCHOR27,. + 0
 4431              		.type	bad_pulses.12442, %object
 4432              		.size	bad_pulses.12442, 4
 4433              	bad_pulses.12442:
 4434 0000 00000000 		.space	4
 4435              		.section	.bss.cos_gain,"aw",%nobits
 4436              		.align	2
 4437              		.type	cos_gain, %object
 4438              		.size	cos_gain, 4
 4439              	cos_gain:
 4440 0000 00000000 		.space	4
 4441              		.section	.bss.cos_offset,"aw",%nobits
ARM GAS  /tmp/ccB9eNXv.s 			page 79


 4442              		.align	2
 4443              		.type	cos_offset, %object
 4444              		.size	cos_offset, 4
 4445              	cos_offset:
 4446 0000 00000000 		.space	4
 4447              		.section	.bss.encoder_no_magnet_error_cnt,"aw",%nobits
 4448              		.align	2
 4449              		.set	.LANCHOR3,. + 0
 4450              		.type	encoder_no_magnet_error_cnt, %object
 4451              		.size	encoder_no_magnet_error_cnt, 4
 4452              	encoder_no_magnet_error_cnt:
 4453 0000 00000000 		.space	4
 4454              		.section	.bss.encoder_no_magnet_error_rate,"aw",%nobits
 4455              		.align	2
 4456              		.set	.LANCHOR4,. + 0
 4457              		.type	encoder_no_magnet_error_rate, %object
 4458              		.size	encoder_no_magnet_error_rate, 4
 4459              	encoder_no_magnet_error_rate:
 4460 0000 00000000 		.space	4
 4461              		.section	.bss.index_found,"aw",%nobits
 4462              		.set	.LANCHOR21,. + 0
 4463              		.type	index_found, %object
 4464              		.size	index_found, 1
 4465              	index_found:
 4466 0000 00       		.space	1
 4467              		.section	.bss.last_enc_angle,"aw",%nobits
 4468              		.align	2
 4469              		.set	.LANCHOR22,. + 0
 4470              		.type	last_enc_angle, %object
 4471              		.size	last_enc_angle, 4
 4472              	last_enc_angle:
 4473 0000 00000000 		.space	4
 4474              		.section	.bss.mode,"aw",%nobits
 4475              		.set	.LANCHOR18,. + 0
 4476              		.type	mode, %object
 4477              		.size	mode, 1
 4478              	mode:
 4479 0000 00       		.space	1
 4480              		.section	.bss.resolver_degradation_of_signal_error_cnt,"aw",%nobits
 4481              		.align	2
 4482              		.set	.LANCHOR9,. + 0
 4483              		.type	resolver_degradation_of_signal_error_cnt, %object
 4484              		.size	resolver_degradation_of_signal_error_cnt, 4
 4485              	resolver_degradation_of_signal_error_cnt:
 4486 0000 00000000 		.space	4
 4487              		.section	.bss.resolver_degradation_of_signal_error_rate,"aw",%nobits
 4488              		.align	2
 4489              		.set	.LANCHOR6,. + 0
 4490              		.type	resolver_degradation_of_signal_error_rate, %object
 4491              		.size	resolver_degradation_of_signal_error_rate, 4
 4492              	resolver_degradation_of_signal_error_rate:
 4493 0000 00000000 		.space	4
 4494              		.section	.bss.resolver_loss_of_signal_error_cnt,"aw",%nobits
 4495              		.align	2
 4496              		.set	.LANCHOR10,. + 0
 4497              		.type	resolver_loss_of_signal_error_cnt, %object
 4498              		.size	resolver_loss_of_signal_error_cnt, 4
ARM GAS  /tmp/ccB9eNXv.s 			page 80


 4499              	resolver_loss_of_signal_error_cnt:
 4500 0000 00000000 		.space	4
 4501              		.section	.bss.resolver_loss_of_signal_error_rate,"aw",%nobits
 4502              		.align	2
 4503              		.set	.LANCHOR7,. + 0
 4504              		.type	resolver_loss_of_signal_error_rate, %object
 4505              		.size	resolver_loss_of_signal_error_rate, 4
 4506              	resolver_loss_of_signal_error_rate:
 4507 0000 00000000 		.space	4
 4508              		.section	.bss.resolver_loss_of_tracking_error_cnt,"aw",%nobits
 4509              		.align	2
 4510              		.set	.LANCHOR8,. + 0
 4511              		.type	resolver_loss_of_tracking_error_cnt, %object
 4512              		.size	resolver_loss_of_tracking_error_cnt, 4
 4513              	resolver_loss_of_tracking_error_cnt:
 4514 0000 00000000 		.space	4
 4515              		.section	.bss.resolver_loss_of_tracking_error_rate,"aw",%nobits
 4516              		.align	2
 4517              		.set	.LANCHOR5,. + 0
 4518              		.type	resolver_loss_of_tracking_error_rate, %object
 4519              		.size	resolver_loss_of_tracking_error_rate, 4
 4520              	resolver_loss_of_tracking_error_rate:
 4521 0000 00000000 		.space	4
 4522              		.section	.bss.sin_gain,"aw",%nobits
 4523              		.align	2
 4524              		.type	sin_gain, %object
 4525              		.size	sin_gain, 4
 4526              	sin_gain:
 4527 0000 00000000 		.space	4
 4528              		.section	.bss.sin_offset,"aw",%nobits
 4529              		.align	2
 4530              		.type	sin_offset, %object
 4531              		.size	sin_offset, 4
 4532              	sin_offset:
 4533 0000 00000000 		.space	4
 4534              		.section	.bss.sincos_filter_constant,"aw",%nobits
 4535              		.align	2
 4536              		.type	sincos_filter_constant, %object
 4537              		.size	sincos_filter_constant, 4
 4538              	sincos_filter_constant:
 4539 0000 00000000 		.space	4
 4540              		.section	.bss.sincos_signal_above_max_error_cnt,"aw",%nobits
 4541              		.align	2
 4542              		.set	.LANCHOR12,. + 0
 4543              		.type	sincos_signal_above_max_error_cnt, %object
 4544              		.size	sincos_signal_above_max_error_cnt, 4
 4545              	sincos_signal_above_max_error_cnt:
 4546 0000 00000000 		.space	4
 4547              		.section	.bss.sincos_signal_above_max_error_rate,"aw",%nobits
 4548              		.align	2
 4549              		.set	.LANCHOR14,. + 0
 4550              		.type	sincos_signal_above_max_error_rate, %object
 4551              		.size	sincos_signal_above_max_error_rate, 4
 4552              	sincos_signal_above_max_error_rate:
 4553 0000 00000000 		.space	4
 4554              		.section	.bss.sincos_signal_below_min_error_cnt,"aw",%nobits
 4555              		.align	2
ARM GAS  /tmp/ccB9eNXv.s 			page 81


 4556              		.set	.LANCHOR11,. + 0
 4557              		.type	sincos_signal_below_min_error_cnt, %object
 4558              		.size	sincos_signal_below_min_error_cnt, 4
 4559              	sincos_signal_below_min_error_cnt:
 4560 0000 00000000 		.space	4
 4561              		.section	.bss.sincos_signal_low_error_rate,"aw",%nobits
 4562              		.align	2
 4563              		.set	.LANCHOR13,. + 0
 4564              		.type	sincos_signal_low_error_rate, %object
 4565              		.size	sincos_signal_low_error_rate, 4
 4566              	sincos_signal_low_error_rate:
 4567 0000 00000000 		.space	4
 4568              		.section	.bss.spi_error_cnt,"aw",%nobits
 4569              		.align	2
 4570              		.set	.LANCHOR0,. + 0
 4571              		.type	spi_error_cnt, %object
 4572              		.size	spi_error_cnt, 4
 4573              	spi_error_cnt:
 4574 0000 00000000 		.space	4
 4575              		.section	.bss.spi_error_rate,"aw",%nobits
 4576              		.align	2
 4577              		.set	.LANCHOR2,. + 0
 4578              		.type	spi_error_rate, %object
 4579              		.size	spi_error_rate, 4
 4580              	spi_error_rate:
 4581 0000 00000000 		.space	4
 4582              		.section	.bss.spi_val,"aw",%nobits
 4583              		.align	2
 4584              		.set	.LANCHOR1,. + 0
 4585              		.type	spi_val, %object
 4586              		.size	spi_val, 4
 4587              	spi_val:
 4588 0000 00000000 		.space	4
 4589              		.section	.bss.ts5700n8501_is_running,"aw",%nobits
 4590              		.set	.LANCHOR20,. + 0
 4591              		.type	ts5700n8501_is_running, %object
 4592              		.size	ts5700n8501_is_running, 1
 4593              	ts5700n8501_is_running:
 4594 0000 00       		.space	1
 4595              		.section	.bss.ts5700n8501_raw_status,"aw",%nobits
 4596              		.align	2
 4597              		.set	.LANCHOR15,. + 0
 4598              		.type	ts5700n8501_raw_status, %object
 4599              		.size	ts5700n8501_raw_status, 8
 4600              	ts5700n8501_raw_status:
 4601 0000 00000000 		.space	8
 4601      00000000 
 4602              		.section	.bss.ts5700n8501_reset_errors,"aw",%nobits
 4603              		.set	.LANCHOR16,. + 0
 4604              		.type	ts5700n8501_reset_errors, %object
 4605              		.size	ts5700n8501_reset_errors, 1
 4606              	ts5700n8501_reset_errors:
 4607 0000 00       		.space	1
 4608              		.section	.bss.ts5700n8501_reset_multiturn,"aw",%nobits
 4609              		.set	.LANCHOR17,. + 0
 4610              		.type	ts5700n8501_reset_multiturn, %object
 4611              		.size	ts5700n8501_reset_multiturn, 1
ARM GAS  /tmp/ccB9eNXv.s 			page 82


 4612              	ts5700n8501_reset_multiturn:
 4613 0000 00       		.space	1
 4614              		.section	.bss.ts5700n8501_thread_wa,"aw",%nobits
 4615              		.align	3
 4616              		.set	.LANCHOR25,. + 0
 4617              		.type	ts5700n8501_thread_wa, %object
 4618              		.size	ts5700n8501_thread_wa, 928
 4619              	ts5700n8501_thread_wa:
 4620 0000 00000000 		.space	928
 4620      00000000 
 4620      00000000 
 4620      00000000 
 4620      00000000 
 4621              		.section	.data.TS5700N8501_uart_cfg,"aw",%progbits
 4622              		.align	2
 4623              		.set	.LANCHOR32,. + 0
 4624              		.type	TS5700N8501_uart_cfg, %object
 4625              		.size	TS5700N8501_uart_cfg, 12
 4626              	TS5700N8501_uart_cfg:
 4627 0000 A0252600 		.word	2500000
 4628 0004 0000     		.short	0
 4629 0006 0040     		.short	16384
 4630 0008 0000     		.short	0
 4631 000a 0000     		.space	2
 4632              		.section	.data.enc_counts,"aw",%progbits
 4633              		.align	2
 4634              		.set	.LANCHOR23,. + 0
 4635              		.type	enc_counts, %object
 4636              		.size	enc_counts, 4
 4637              	enc_counts:
 4638 0000 10270000 		.word	10000
 4639              		.section	.data.ts5700n8501_stop_now,"aw",%progbits
 4640              		.set	.LANCHOR19,. + 0
 4641              		.type	ts5700n8501_stop_now, %object
 4642              		.size	ts5700n8501_stop_now, 1
 4643              	ts5700n8501_stop_now:
 4644 0000 01       		.byte	1
 4645              		.section	.rodata.mt6816_spi_cfg,"a",%progbits
 4646              		.align	2
 4647              		.set	.LANCHOR24,. + 0
 4648              		.type	mt6816_spi_cfg, %object
 4649              		.size	mt6816_spi_cfg, 12
 4650              	mt6816_spi_cfg:
 4651 0000 00000000 		.word	0
 4652 0004 00080240 		.word	1073874944
 4653 0008 0800     		.short	8
 4654 000a 0B08     		.short	2059
 4655              		.section	.rodata.spi_data_err_raised,"a",%progbits
 4656              		.type	spi_data_err_raised, %object
 4657              		.size	spi_data_err_raised, 1
 4658              	spi_data_err_raised:
 4659 0000 00       		.space	1
 4660              		.text
 4661              	.Letext0:
 4662              		.file 4 "/usr/arm-none-eabi/include/machine/_default_types.h"
 4663              		.file 5 "/usr/arm-none-eabi/include/sys/_stdint.h"
 4664              		.file 6 "/usr/lib/gcc/arm-none-eabi/7.3.1/include/stddef.h"
ARM GAS  /tmp/ccB9eNXv.s 			page 83


 4665              		.file 7 "ChibiOS_3.0.5/os/rt/ports/ARMCMx/compilers/GCC/chtypes.h"
 4666              		.file 8 "ChibiOS_3.0.5/os/rt/include/chsystypes.h"
 4667              		.file 9 "ChibiOS_3.0.5/os/rt/include/chschd.h"
 4668              		.file 10 "ChibiOS_3.0.5/os/ext/CMSIS/include/core_cm4.h"
 4669              		.file 11 "ChibiOS_3.0.5/os/ext/CMSIS/ST/system_stm32f4xx.h"
 4670              		.file 12 "ChibiOS_3.0.5/os/ext/CMSIS/ST/stm32f407xx.h"
 4671              		.file 13 "ChibiOS_3.0.5/os/ext/CMSIS/ST/stm32f4xx.h"
 4672              		.file 14 "ChibiOS_3.0.5/os/rt/ports/ARMCMx/chcore.h"
 4673              		.file 15 "ChibiOS_3.0.5/os/rt/ports/ARMCMx/chcore_v7m.h"
 4674              		.file 16 "ChibiOS_3.0.5/os/rt/include/chtm.h"
 4675              		.file 17 "ChibiOS_3.0.5/os/rt/include/chsem.h"
 4676              		.file 18 "ChibiOS_3.0.5/os/rt/include/chmtx.h"
 4677              		.file 19 "ChibiOS_3.0.5/os/rt/include/chevents.h"
 4678              		.file 20 "ChibiOS_3.0.5/os/rt/include/chqueues.h"
 4679              		.file 21 "datatypes.h"
 4680              		.file 22 "ChibiOS_3.0.5/ext/stdperiph_stm32f4/inc/stm32f4xx_exti.h"
 4681              		.file 23 "ChibiOS_3.0.5/ext/stdperiph_stm32f4/inc/stm32f4xx_tim.h"
 4682              		.file 24 "conf_general.h"
 4683              		.file 25 "ChibiOS_3.0.5/os/hal/ports/STM32/STM32F4xx/stm32_dma.h"
 4684              		.file 26 "ChibiOS_3.0.5/os/hal/ports/STM32/LLD/GPIOv2/pal_lld.h"
 4685              		.file 27 "ChibiOS_3.0.5/os/hal/include/can.h"
 4686              		.file 28 "ChibiOS_3.0.5/os/hal/ports/STM32/LLD/can_lld.h"
 4687              		.file 29 "ChibiOS_3.0.5/os/hal/include/i2c.h"
 4688              		.file 30 "ChibiOS_3.0.5/os/hal/ports/STM32/LLD/I2Cv1/i2c_lld.h"
 4689              		.file 31 "ChibiOS_3.0.5/os/hal/include/icu.h"
 4690              		.file 32 "ChibiOS_3.0.5/os/hal/ports/STM32/LLD/TIMv1/icu_lld.h"
 4691              		.file 33 "ChibiOS_3.0.5/os/hal/ports/STM32/LLD/TIMv1/stm32_tim.h"
 4692              		.file 34 "ChibiOS_3.0.5/os/hal/include/serial.h"
 4693              		.file 35 "ChibiOS_3.0.5/os/hal/ports/STM32/LLD/USARTv1/serial_lld.h"
 4694              		.file 36 "ChibiOS_3.0.5/os/hal/include/spi.h"
 4695              		.file 37 "ChibiOS_3.0.5/os/hal/ports/STM32/LLD/SPIv1/spi_lld.h"
 4696              		.file 38 "ChibiOS_3.0.5/os/hal/include/usb.h"
 4697              		.file 39 "ChibiOS_3.0.5/os/hal/ports/STM32/LLD/OTGv1/usb_lld.h"
 4698              		.file 40 "ChibiOS_3.0.5/os/hal/ports/STM32/LLD/OTGv1/stm32_otg.h"
 4699              		.file 41 "mc_interface.h"
 4700              		.file 42 "utils.h"
 4701              		.file 43 "/usr/arm-none-eabi/include/sys/lock.h"
 4702              		.file 44 "/usr/arm-none-eabi/include/sys/_types.h"
 4703              		.file 45 "/usr/arm-none-eabi/include/sys/reent.h"
 4704              		.file 46 "/usr/arm-none-eabi/include/math.h"
 4705              		.file 47 "ChibiOS_3.0.5/os/rt/include/chthreads.h"
 4706              		.file 48 "ChibiOS_3.0.5/ext/stdperiph_stm32f4/inc/stm32f4xx_rcc.h"
 4707              		.file 49 "ChibiOS_3.0.5/os/hal/ports/common/ARMCMx/nvic.h"
 4708              		.file 50 "ChibiOS_3.0.5/ext/stdperiph_stm32f4/inc/stm32f4xx_syscfg.h"
 4709              		.section	.debug_info,"",%progbits
 4710              	.Ldebug_info0:
 4711 0000 934F0000 		.4byte	0x4f93
 4712 0004 0400     		.2byte	0x4
 4713 0006 00000000 		.4byte	.Ldebug_abbrev0
 4714 000a 04       		.byte	0x4
 4715 000b 01       		.uleb128 0x1
 4716 000c AD0D0000 		.4byte	.LASF904
 4717 0010 0C       		.byte	0xc
 4718 0011 1E090000 		.4byte	.LASF905
 4719 0015 B62A0000 		.4byte	.LASF906
 4720 0019 D8010000 		.4byte	.Ldebug_ranges0+0x1d8
 4721 001d 00000000 		.4byte	0
ARM GAS  /tmp/ccB9eNXv.s 			page 84


 4722 0021 00000000 		.4byte	.Ldebug_line0
 4723 0025 02       		.uleb128 0x2
 4724 0026 04       		.byte	0x4
 4725 0027 07       		.byte	0x7
 4726 0028 222B0000 		.4byte	.LASF0
 4727 002c 02       		.uleb128 0x2
 4728 002d 01       		.byte	0x1
 4729 002e 06       		.byte	0x6
 4730 002f 1C180000 		.4byte	.LASF1
 4731 0033 03       		.uleb128 0x3
 4732 0034 2F010000 		.4byte	.LASF3
 4733 0038 04       		.byte	0x4
 4734 0039 2B       		.byte	0x2b
 4735 003a 3E000000 		.4byte	0x3e
 4736 003e 02       		.uleb128 0x2
 4737 003f 01       		.byte	0x1
 4738 0040 08       		.byte	0x8
 4739 0041 BB0A0000 		.4byte	.LASF2
 4740 0045 03       		.uleb128 0x3
 4741 0046 14090000 		.4byte	.LASF4
 4742 004a 04       		.byte	0x4
 4743 004b 37       		.byte	0x37
 4744 004c 50000000 		.4byte	0x50
 4745 0050 02       		.uleb128 0x2
 4746 0051 02       		.byte	0x2
 4747 0052 05       		.byte	0x5
 4748 0053 5F2B0000 		.4byte	.LASF5
 4749 0057 03       		.uleb128 0x3
 4750 0058 28090000 		.4byte	.LASF6
 4751 005c 04       		.byte	0x4
 4752 005d 39       		.byte	0x39
 4753 005e 62000000 		.4byte	0x62
 4754 0062 02       		.uleb128 0x2
 4755 0063 02       		.byte	0x2
 4756 0064 07       		.byte	0x7
 4757 0065 09180000 		.4byte	.LASF7
 4758 0069 03       		.uleb128 0x3
 4759 006a FE220000 		.4byte	.LASF8
 4760 006e 04       		.byte	0x4
 4761 006f 4D       		.byte	0x4d
 4762 0070 74000000 		.4byte	0x74
 4763 0074 02       		.uleb128 0x2
 4764 0075 04       		.byte	0x4
 4765 0076 05       		.byte	0x5
 4766 0077 661B0000 		.4byte	.LASF9
 4767 007b 03       		.uleb128 0x3
 4768 007c 34230000 		.4byte	.LASF10
 4769 0080 04       		.byte	0x4
 4770 0081 4F       		.byte	0x4f
 4771 0082 86000000 		.4byte	0x86
 4772 0086 02       		.uleb128 0x2
 4773 0087 04       		.byte	0x4
 4774 0088 07       		.byte	0x7
 4775 0089 FE1D0000 		.4byte	.LASF11
 4776 008d 02       		.uleb128 0x2
 4777 008e 08       		.byte	0x8
 4778 008f 05       		.byte	0x5
ARM GAS  /tmp/ccB9eNXv.s 			page 85


 4779 0090 9E280000 		.4byte	.LASF12
 4780 0094 03       		.uleb128 0x3
 4781 0095 E5130000 		.4byte	.LASF13
 4782 0099 04       		.byte	0x4
 4783 009a 69       		.byte	0x69
 4784 009b 9F000000 		.4byte	0x9f
 4785 009f 02       		.uleb128 0x2
 4786 00a0 08       		.byte	0x8
 4787 00a1 07       		.byte	0x7
 4788 00a2 90250000 		.4byte	.LASF14
 4789 00a6 04       		.uleb128 0x4
 4790 00a7 04       		.byte	0x4
 4791 00a8 05       		.byte	0x5
 4792 00a9 696E7400 		.ascii	"int\000"
 4793 00ad 05       		.uleb128 0x5
 4794 00ae 25000000 		.4byte	0x25
 4795 00b2 03       		.uleb128 0x3
 4796 00b3 98100000 		.4byte	.LASF15
 4797 00b7 05       		.byte	0x5
 4798 00b8 18       		.byte	0x18
 4799 00b9 33000000 		.4byte	0x33
 4800 00bd 06       		.uleb128 0x6
 4801 00be B2000000 		.4byte	0xb2
 4802 00c2 05       		.uleb128 0x5
 4803 00c3 B2000000 		.4byte	0xb2
 4804 00c7 03       		.uleb128 0x3
 4805 00c8 01180000 		.4byte	.LASF16
 4806 00cc 05       		.byte	0x5
 4807 00cd 20       		.byte	0x20
 4808 00ce 45000000 		.4byte	0x45
 4809 00d2 03       		.uleb128 0x3
 4810 00d3 CB020000 		.4byte	.LASF17
 4811 00d7 05       		.byte	0x5
 4812 00d8 24       		.byte	0x24
 4813 00d9 57000000 		.4byte	0x57
 4814 00dd 06       		.uleb128 0x6
 4815 00de D2000000 		.4byte	0xd2
 4816 00e2 05       		.uleb128 0x5
 4817 00e3 D2000000 		.4byte	0xd2
 4818 00e7 03       		.uleb128 0x3
 4819 00e8 DE040000 		.4byte	.LASF18
 4820 00ec 05       		.byte	0x5
 4821 00ed 2C       		.byte	0x2c
 4822 00ee 69000000 		.4byte	0x69
 4823 00f2 06       		.uleb128 0x6
 4824 00f3 E7000000 		.4byte	0xe7
 4825 00f7 03       		.uleb128 0x3
 4826 00f8 F31C0000 		.4byte	.LASF19
 4827 00fc 05       		.byte	0x5
 4828 00fd 30       		.byte	0x30
 4829 00fe 7B000000 		.4byte	0x7b
 4830 0102 06       		.uleb128 0x6
 4831 0103 F7000000 		.4byte	0xf7
 4832 0107 03       		.uleb128 0x3
 4833 0108 B80C0000 		.4byte	.LASF20
 4834 010c 05       		.byte	0x5
 4835 010d 3C       		.byte	0x3c
ARM GAS  /tmp/ccB9eNXv.s 			page 86


 4836 010e 94000000 		.4byte	0x94
 4837 0112 03       		.uleb128 0x3
 4838 0113 60100000 		.4byte	.LASF21
 4839 0117 06       		.byte	0x6
 4840 0118 D8       		.byte	0xd8
 4841 0119 25000000 		.4byte	0x25
 4842 011d 06       		.uleb128 0x6
 4843 011e 12010000 		.4byte	0x112
 4844 0122 03       		.uleb128 0x3
 4845 0123 B70F0000 		.4byte	.LASF22
 4846 0127 07       		.byte	0x7
 4847 0128 45       		.byte	0x45
 4848 0129 F7000000 		.4byte	0xf7
 4849 012d 03       		.uleb128 0x3
 4850 012e A9150000 		.4byte	.LASF23
 4851 0132 07       		.byte	0x7
 4852 0133 48       		.byte	0x48
 4853 0134 B2000000 		.4byte	0xb2
 4854 0138 03       		.uleb128 0x3
 4855 0139 C3260000 		.4byte	.LASF24
 4856 013d 07       		.byte	0x7
 4857 013e 49       		.byte	0x49
 4858 013f B2000000 		.4byte	0xb2
 4859 0143 03       		.uleb128 0x3
 4860 0144 5C150000 		.4byte	.LASF25
 4861 0148 07       		.byte	0x7
 4862 0149 4A       		.byte	0x4a
 4863 014a B2000000 		.4byte	0xb2
 4864 014e 03       		.uleb128 0x3
 4865 014f 59170000 		.4byte	.LASF26
 4866 0153 07       		.byte	0x7
 4867 0154 4B       		.byte	0x4b
 4868 0155 B2000000 		.4byte	0xb2
 4869 0159 03       		.uleb128 0x3
 4870 015a 33080000 		.4byte	.LASF27
 4871 015e 07       		.byte	0x7
 4872 015f 4C       		.byte	0x4c
 4873 0160 F7000000 		.4byte	0xf7
 4874 0164 03       		.uleb128 0x3
 4875 0165 92000000 		.4byte	.LASF28
 4876 0169 07       		.byte	0x7
 4877 016a 4D       		.byte	0x4d
 4878 016b E7000000 		.4byte	0xe7
 4879 016f 03       		.uleb128 0x3
 4880 0170 771D0000 		.4byte	.LASF29
 4881 0174 07       		.byte	0x7
 4882 0175 4F       		.byte	0x4f
 4883 0176 F7000000 		.4byte	0xf7
 4884 017a 03       		.uleb128 0x3
 4885 017b 31290000 		.4byte	.LASF30
 4886 017f 07       		.byte	0x7
 4887 0180 50       		.byte	0x50
 4888 0181 F7000000 		.4byte	0xf7
 4889 0185 03       		.uleb128 0x3
 4890 0186 C2200000 		.4byte	.LASF31
 4891 018a 07       		.byte	0x7
 4892 018b 51       		.byte	0x51
ARM GAS  /tmp/ccB9eNXv.s 			page 87


 4893 018c E7000000 		.4byte	0xe7
 4894 0190 03       		.uleb128 0x3
 4895 0191 FE040000 		.4byte	.LASF32
 4896 0195 08       		.byte	0x8
 4897 0196 33       		.byte	0x33
 4898 0197 F7000000 		.4byte	0xf7
 4899 019b 06       		.uleb128 0x6
 4900 019c 90010000 		.4byte	0x190
 4901 01a0 03       		.uleb128 0x3
 4902 01a1 A1040000 		.4byte	.LASF33
 4903 01a5 08       		.byte	0x8
 4904 01a6 3F       		.byte	0x3f
 4905 01a7 AB010000 		.4byte	0x1ab
 4906 01ab 07       		.uleb128 0x7
 4907 01ac FB0A0000 		.4byte	.LASF57
 4908 01b0 50       		.byte	0x50
 4909 01b1 09       		.byte	0x9
 4910 01b2 C2       		.byte	0xc2
 4911 01b3 C9020000 		.4byte	0x2c9
 4912 01b7 08       		.uleb128 0x8
 4913 01b8 C2140000 		.4byte	.LASF34
 4914 01bc 09       		.byte	0x9
 4915 01bd C3       		.byte	0xc3
 4916 01be D4020000 		.4byte	0x2d4
 4917 01c2 00       		.byte	0
 4918 01c3 08       		.uleb128 0x8
 4919 01c4 B8100000 		.4byte	.LASF35
 4920 01c8 09       		.byte	0x9
 4921 01c9 C5       		.byte	0xc5
 4922 01ca D4020000 		.4byte	0x2d4
 4923 01ce 04       		.byte	0x4
 4924 01cf 08       		.uleb128 0x8
 4925 01d0 C5130000 		.4byte	.LASF36
 4926 01d4 09       		.byte	0x9
 4927 01d5 C7       		.byte	0xc7
 4928 01d6 59010000 		.4byte	0x159
 4929 01da 08       		.byte	0x8
 4930 01db 08       		.uleb128 0x8
 4931 01dc EC0B0000 		.4byte	.LASF37
 4932 01e0 09       		.byte	0x9
 4933 01e1 C8       		.byte	0xc8
 4934 01e2 0D0D0000 		.4byte	0xd0d
 4935 01e6 0C       		.byte	0xc
 4936 01e7 08       		.uleb128 0x8
 4937 01e8 71030000 		.4byte	.LASF38
 4938 01ec 09       		.byte	0x9
 4939 01ed CA       		.byte	0xca
 4940 01ee D4020000 		.4byte	0x2d4
 4941 01f2 10       		.byte	0x10
 4942 01f3 08       		.uleb128 0x8
 4943 01f4 A8290000 		.4byte	.LASF39
 4944 01f8 09       		.byte	0x9
 4945 01f9 CB       		.byte	0xcb
 4946 01fa D4020000 		.4byte	0x2d4
 4947 01fe 14       		.byte	0x14
 4948 01ff 08       		.uleb128 0x8
 4949 0200 34270000 		.4byte	.LASF40
ARM GAS  /tmp/ccB9eNXv.s 			page 88


 4950 0204 09       		.byte	0x9
 4951 0205 D2       		.byte	0xd2
 4952 0206 520F0000 		.4byte	0xf52
 4953 020a 18       		.byte	0x18
 4954 020b 08       		.uleb128 0x8
 4955 020c A3200000 		.4byte	.LASF41
 4956 0210 09       		.byte	0x9
 4957 0211 D8       		.byte	0xd8
 4958 0212 690F0000 		.4byte	0xf69
 4959 0216 1C       		.byte	0x1c
 4960 0217 08       		.uleb128 0x8
 4961 0218 2F2C0000 		.4byte	.LASF42
 4962 021c 09       		.byte	0x9
 4963 021d DD       		.byte	0xdd
 4964 021e 38010000 		.4byte	0x138
 4965 0222 20       		.byte	0x20
 4966 0223 08       		.uleb128 0x8
 4967 0224 7A260000 		.4byte	.LASF43
 4968 0228 09       		.byte	0x9
 4969 0229 E1       		.byte	0xe1
 4970 022a 2D010000 		.4byte	0x12d
 4971 022e 21       		.byte	0x21
 4972 022f 08       		.uleb128 0x8
 4973 0230 3F1B0000 		.4byte	.LASF44
 4974 0234 09       		.byte	0x9
 4975 0235 E6       		.byte	0xe6
 4976 0236 43010000 		.4byte	0x143
 4977 023a 22       		.byte	0x22
 4978 023b 08       		.uleb128 0x8
 4979 023c 40180000 		.4byte	.LASF45
 4980 0240 09       		.byte	0x9
 4981 0241 EC       		.byte	0xec
 4982 0242 4E010000 		.4byte	0x14e
 4983 0246 23       		.byte	0x23
 4984 0247 08       		.uleb128 0x8
 4985 0248 59180000 		.4byte	.LASF46
 4986 024c 09       		.byte	0x9
 4987 024d F3       		.byte	0xf3
 4988 024e 9B010000 		.4byte	0x19b
 4989 0252 24       		.byte	0x24
 4990 0253 09       		.uleb128 0x9
 4991 0254 705F7500 		.ascii	"p_u\000"
 4992 0258 09       		.byte	0x9
 4993 0259 3101     		.2byte	0x131
 4994 025b 8D0E0000 		.4byte	0xe8d
 4995 025f 28       		.byte	0x28
 4996 0260 0A       		.uleb128 0xa
 4997 0261 C8060000 		.4byte	.LASF47
 4998 0265 09       		.byte	0x9
 4999 0266 3601     		.2byte	0x136
 5000 0268 DA020000 		.4byte	0x2da
 5001 026c 2C       		.byte	0x2c
 5002 026d 0A       		.uleb128 0xa
 5003 026e 25190000 		.4byte	.LASF48
 5004 0272 09       		.byte	0x9
 5005 0273 3C01     		.2byte	0x13c
 5006 0275 FE020000 		.4byte	0x2fe
ARM GAS  /tmp/ccB9eNXv.s 			page 89


 5007 0279 30       		.byte	0x30
 5008 027a 0A       		.uleb128 0xa
 5009 027b 3C090000 		.4byte	.LASF49
 5010 027f 09       		.byte	0x9
 5011 0280 4001     		.2byte	0x140
 5012 0282 64010000 		.4byte	0x164
 5013 0286 38       		.byte	0x38
 5014 0287 0A       		.uleb128 0xa
 5015 0288 13240000 		.4byte	.LASF50
 5016 028c 09       		.byte	0x9
 5017 028d 4601     		.2byte	0x146
 5018 028f 6F010000 		.4byte	0x16f
 5019 0293 3C       		.byte	0x3c
 5020 0294 0A       		.uleb128 0xa
 5021 0295 AE260000 		.4byte	.LASF51
 5022 0299 09       		.byte	0x9
 5023 029a 4D01     		.2byte	0x14d
 5024 029c 4C0F0000 		.4byte	0xf4c
 5025 02a0 40       		.byte	0x40
 5026 02a1 0A       		.uleb128 0xa
 5027 02a2 1E220000 		.4byte	.LASF52
 5028 02a6 09       		.byte	0x9
 5029 02a7 5101     		.2byte	0x151
 5030 02a9 59010000 		.4byte	0x159
 5031 02ad 44       		.byte	0x44
 5032 02ae 0A       		.uleb128 0xa
 5033 02af 64150000 		.4byte	.LASF53
 5034 02b3 09       		.byte	0x9
 5035 02b4 5801     		.2byte	0x158
 5036 02b6 B1030000 		.4byte	0x3b1
 5037 02ba 48       		.byte	0x48
 5038 02bb 0A       		.uleb128 0xa
 5039 02bc AD080000 		.4byte	.LASF54
 5040 02c0 09       		.byte	0x9
 5041 02c1 6201     		.2byte	0x162
 5042 02c3 A6000000 		.4byte	0xa6
 5043 02c7 4C       		.byte	0x4c
 5044 02c8 00       		.byte	0
 5045 02c9 03       		.uleb128 0x3
 5046 02ca 1E2A0000 		.4byte	.LASF55
 5047 02ce 08       		.byte	0x8
 5048 02cf 44       		.byte	0x44
 5049 02d0 D4020000 		.4byte	0x2d4
 5050 02d4 0B       		.uleb128 0xb
 5051 02d5 04       		.byte	0x4
 5052 02d6 A0010000 		.4byte	0x1a0
 5053 02da 03       		.uleb128 0x3
 5054 02db 2C070000 		.4byte	.LASF56
 5055 02df 08       		.byte	0x8
 5056 02e0 49       		.byte	0x49
 5057 02e1 E5020000 		.4byte	0x2e5
 5058 02e5 07       		.uleb128 0x7
 5059 02e6 372C0000 		.4byte	.LASF58
 5060 02ea 04       		.byte	0x4
 5061 02eb 09       		.byte	0x9
 5062 02ec B0       		.byte	0xb0
 5063 02ed FE020000 		.4byte	0x2fe
ARM GAS  /tmp/ccB9eNXv.s 			page 90


 5064 02f1 08       		.uleb128 0x8
 5065 02f2 C2140000 		.4byte	.LASF34
 5066 02f6 09       		.byte	0x9
 5067 02f7 B1       		.byte	0xb1
 5068 02f8 D4020000 		.4byte	0x2d4
 5069 02fc 00       		.byte	0
 5070 02fd 00       		.byte	0
 5071 02fe 03       		.uleb128 0x3
 5072 02ff 141B0000 		.4byte	.LASF59
 5073 0303 08       		.byte	0x8
 5074 0304 50       		.byte	0x50
 5075 0305 09030000 		.4byte	0x309
 5076 0309 07       		.uleb128 0x7
 5077 030a 37030000 		.4byte	.LASF60
 5078 030e 08       		.byte	0x8
 5079 030f 09       		.byte	0x9
 5080 0310 B7       		.byte	0xb7
 5081 0311 2E030000 		.4byte	0x32e
 5082 0315 08       		.uleb128 0x8
 5083 0316 C2140000 		.4byte	.LASF34
 5084 031a 09       		.byte	0x9
 5085 031b B8       		.byte	0xb8
 5086 031c D4020000 		.4byte	0x2d4
 5087 0320 00       		.byte	0
 5088 0321 08       		.uleb128 0x8
 5089 0322 B8100000 		.4byte	.LASF35
 5090 0326 09       		.byte	0x9
 5091 0327 B9       		.byte	0xb9
 5092 0328 D4020000 		.4byte	0x2d4
 5093 032c 04       		.byte	0x4
 5094 032d 00       		.byte	0
 5095 032e 03       		.uleb128 0x3
 5096 032f EE0A0000 		.4byte	.LASF61
 5097 0333 08       		.byte	0x8
 5098 0334 57       		.byte	0x57
 5099 0335 39030000 		.4byte	0x339
 5100 0339 0C       		.uleb128 0xc
 5101 033a EA220000 		.4byte	.LASF62
 5102 033e 1C       		.byte	0x1c
 5103 033f 09       		.byte	0x9
 5104 0340 9001     		.2byte	0x190
 5105 0342 95030000 		.4byte	0x395
 5106 0346 0A       		.uleb128 0xa
 5107 0347 B81E0000 		.4byte	.LASF63
 5108 034b 09       		.byte	0x9
 5109 034c 9101     		.2byte	0x191
 5110 034e FE020000 		.4byte	0x2fe
 5111 0352 00       		.byte	0
 5112 0353 0A       		.uleb128 0xa
 5113 0354 2E250000 		.4byte	.LASF64
 5114 0358 09       		.byte	0x9
 5115 0359 9201     		.2byte	0x192
 5116 035b 59010000 		.4byte	0x159
 5117 035f 08       		.byte	0x8
 5118 0360 0A       		.uleb128 0xa
 5119 0361 890F0000 		.4byte	.LASF65
 5120 0365 09       		.byte	0x9
ARM GAS  /tmp/ccB9eNXv.s 			page 91


 5121 0366 9401     		.2byte	0x194
 5122 0368 0D0D0000 		.4byte	0xd0d
 5123 036c 0C       		.byte	0xc
 5124 036d 0A       		.uleb128 0xa
 5125 036e C1160000 		.4byte	.LASF66
 5126 0372 09       		.byte	0x9
 5127 0373 9701     		.2byte	0x197
 5128 0375 D4020000 		.4byte	0x2d4
 5129 0379 10       		.byte	0x10
 5130 037a 0A       		.uleb128 0xa
 5131 037b B0100000 		.4byte	.LASF67
 5132 037f 09       		.byte	0x9
 5133 0380 9801     		.2byte	0x198
 5134 0382 D4020000 		.4byte	0x2d4
 5135 0386 14       		.byte	0x14
 5136 0387 0A       		.uleb128 0xa
 5137 0388 040C0000 		.4byte	.LASF68
 5138 038c 09       		.byte	0x9
 5139 038d 9B01     		.2byte	0x19b
 5140 038f D4020000 		.4byte	0x2d4
 5141 0393 18       		.byte	0x18
 5142 0394 00       		.byte	0
 5143 0395 03       		.uleb128 0x3
 5144 0396 C3210000 		.4byte	.LASF69
 5145 039a 08       		.byte	0x8
 5146 039b 5C       		.byte	0x5c
 5147 039c A0030000 		.4byte	0x3a0
 5148 03a0 0B       		.uleb128 0xb
 5149 03a1 04       		.byte	0x4
 5150 03a2 A6030000 		.4byte	0x3a6
 5151 03a6 0D       		.uleb128 0xd
 5152 03a7 B1030000 		.4byte	0x3b1
 5153 03ab 0E       		.uleb128 0xe
 5154 03ac B1030000 		.4byte	0x3b1
 5155 03b0 00       		.byte	0
 5156 03b1 0F       		.uleb128 0xf
 5157 03b2 04       		.byte	0x4
 5158 03b3 03       		.uleb128 0x3
 5159 03b4 790F0000 		.4byte	.LASF70
 5160 03b8 08       		.byte	0x8
 5161 03b9 61       		.byte	0x61
 5162 03ba BE030000 		.4byte	0x3be
 5163 03be 0C       		.uleb128 0xc
 5164 03bf 69260000 		.4byte	.LASF71
 5165 03c3 14       		.byte	0x14
 5166 03c4 09       		.byte	0x9
 5167 03c5 6B01     		.2byte	0x16b
 5168 03c7 0D040000 		.4byte	0x40d
 5169 03cb 0A       		.uleb128 0xa
 5170 03cc 8F0F0000 		.4byte	.LASF72
 5171 03d0 09       		.byte	0x9
 5172 03d1 6C01     		.2byte	0x16c
 5173 03d3 6F0F0000 		.4byte	0xf6f
 5174 03d7 00       		.byte	0
 5175 03d8 0A       		.uleb128 0xa
 5176 03d9 910A0000 		.4byte	.LASF73
 5177 03dd 09       		.byte	0x9
ARM GAS  /tmp/ccB9eNXv.s 			page 92


 5178 03de 6D01     		.2byte	0x16d
 5179 03e0 6F0F0000 		.4byte	0xf6f
 5180 03e4 04       		.byte	0x4
 5181 03e5 0A       		.uleb128 0xa
 5182 03e6 B7170000 		.4byte	.LASF74
 5183 03ea 09       		.byte	0x9
 5184 03eb 6E01     		.2byte	0x16e
 5185 03ed 90010000 		.4byte	0x190
 5186 03f1 08       		.byte	0x8
 5187 03f2 0A       		.uleb128 0xa
 5188 03f3 35260000 		.4byte	.LASF75
 5189 03f7 09       		.byte	0x9
 5190 03f8 6F01     		.2byte	0x16f
 5191 03fa 95030000 		.4byte	0x395
 5192 03fe 0C       		.byte	0xc
 5193 03ff 0A       		.uleb128 0xa
 5194 0400 F20B0000 		.4byte	.LASF76
 5195 0404 09       		.byte	0x9
 5196 0405 7101     		.2byte	0x171
 5197 0407 B1030000 		.4byte	0x3b1
 5198 040b 10       		.byte	0x10
 5199 040c 00       		.byte	0
 5200 040d 03       		.uleb128 0x3
 5201 040e 8F270000 		.4byte	.LASF77
 5202 0412 08       		.byte	0x8
 5203 0413 66       		.byte	0x66
 5204 0414 18040000 		.4byte	0x418
 5205 0418 0C       		.uleb128 0xc
 5206 0419 C0040000 		.4byte	.LASF78
 5207 041d 10       		.byte	0x10
 5208 041e 09       		.byte	0x9
 5209 041f 7B01     		.2byte	0x17b
 5210 0421 5A040000 		.4byte	0x45a
 5211 0425 0A       		.uleb128 0xa
 5212 0426 8F0F0000 		.4byte	.LASF72
 5213 042a 09       		.byte	0x9
 5214 042b 7C01     		.2byte	0x17c
 5215 042d 6F0F0000 		.4byte	0xf6f
 5216 0431 00       		.byte	0
 5217 0432 0A       		.uleb128 0xa
 5218 0433 910A0000 		.4byte	.LASF73
 5219 0437 09       		.byte	0x9
 5220 0438 7E01     		.2byte	0x17e
 5221 043a 6F0F0000 		.4byte	0xf6f
 5222 043e 04       		.byte	0x4
 5223 043f 0A       		.uleb128 0xa
 5224 0440 B7170000 		.4byte	.LASF74
 5225 0444 09       		.byte	0x9
 5226 0445 8001     		.2byte	0x180
 5227 0447 90010000 		.4byte	0x190
 5228 044b 08       		.byte	0x8
 5229 044c 0A       		.uleb128 0xa
 5230 044d 1C020000 		.4byte	.LASF79
 5231 0451 09       		.byte	0x9
 5232 0452 8201     		.2byte	0x182
 5233 0454 9B010000 		.4byte	0x19b
 5234 0458 0C       		.byte	0xc
ARM GAS  /tmp/ccB9eNXv.s 			page 93


 5235 0459 00       		.byte	0
 5236 045a 03       		.uleb128 0x3
 5237 045b D80B0000 		.4byte	.LASF80
 5238 045f 08       		.byte	0x8
 5239 0460 6B       		.byte	0x6b
 5240 0461 65040000 		.4byte	0x465
 5241 0465 0C       		.uleb128 0xc
 5242 0466 45230000 		.4byte	.LASF81
 5243 046a 04       		.byte	0x4
 5244 046b 09       		.byte	0x9
 5245 046c A201     		.2byte	0x1a2
 5246 046e 80040000 		.4byte	0x480
 5247 0472 0A       		.uleb128 0xa
 5248 0473 A4160000 		.4byte	.LASF82
 5249 0477 09       		.byte	0x9
 5250 0478 AA01     		.2byte	0x1aa
 5251 047a 580F0000 		.4byte	0xf58
 5252 047e 00       		.byte	0
 5253 047f 00       		.byte	0
 5254 0480 03       		.uleb128 0x3
 5255 0481 23010000 		.4byte	.LASF83
 5256 0485 08       		.byte	0x8
 5257 0486 70       		.byte	0x70
 5258 0487 8B040000 		.4byte	0x48b
 5259 048b 10       		.uleb128 0x10
 5260 048c 4B1A0000 		.4byte	.LASF84
 5261 0490 6802     		.2byte	0x268
 5262 0492 09       		.byte	0x9
 5263 0493 C201     		.2byte	0x1c2
 5264 0495 E7040000 		.4byte	0x4e7
 5265 0499 0A       		.uleb128 0xa
 5266 049a 26070000 		.4byte	.LASF85
 5267 049e 09       		.byte	0x9
 5268 049f C601     		.2byte	0x1c6
 5269 04a1 2E030000 		.4byte	0x32e
 5270 04a5 00       		.byte	0
 5271 04a6 0A       		.uleb128 0xa
 5272 04a7 9F060000 		.4byte	.LASF86
 5273 04ab 09       		.byte	0x9
 5274 04ac CA01     		.2byte	0x1ca
 5275 04ae 0D040000 		.4byte	0x40d
 5276 04b2 1C       		.byte	0x1c
 5277 04b3 09       		.uleb128 0x9
 5278 04b4 64626700 		.ascii	"dbg\000"
 5279 04b8 09       		.byte	0x9
 5280 04b9 CE01     		.2byte	0x1ce
 5281 04bb 5A040000 		.4byte	0x45a
 5282 04bf 2C       		.byte	0x2c
 5283 04c0 0A       		.uleb128 0xa
 5284 04c1 801B0000 		.4byte	.LASF87
 5285 04c5 09       		.byte	0x9
 5286 04c6 D201     		.2byte	0x1d2
 5287 04c8 A0010000 		.4byte	0x1a0
 5288 04cc 30       		.byte	0x30
 5289 04cd 09       		.uleb128 0x9
 5290 04ce 746D00   		.ascii	"tm\000"
 5291 04d1 09       		.byte	0x9
ARM GAS  /tmp/ccB9eNXv.s 			page 94


 5292 04d2 D701     		.2byte	0x1d7
 5293 04d4 820E0000 		.4byte	0xe82
 5294 04d8 80       		.byte	0x80
 5295 04d9 0A       		.uleb128 0xa
 5296 04da 07260000 		.4byte	.LASF88
 5297 04de 09       		.byte	0x9
 5298 04df E301     		.2byte	0x1e3
 5299 04e1 750F0000 		.4byte	0xf75
 5300 04e5 88       		.byte	0x88
 5301 04e6 00       		.byte	0
 5302 04e7 11       		.uleb128 0x11
 5303 04e8 05       		.byte	0x5
 5304 04e9 01       		.byte	0x1
 5305 04ea 2C000000 		.4byte	0x2c
 5306 04ee 0C       		.byte	0xc
 5307 04ef 56       		.byte	0x56
 5308 04f0 0B070000 		.4byte	0x70b
 5309 04f4 12       		.uleb128 0x12
 5310 04f5 46240000 		.4byte	.LASF89
 5311 04f9 72       		.sleb128 -14
 5312 04fa 12       		.uleb128 0x12
 5313 04fb C6170000 		.4byte	.LASF90
 5314 04ff 74       		.sleb128 -12
 5315 0500 12       		.uleb128 0x12
 5316 0501 512C0000 		.4byte	.LASF91
 5317 0505 75       		.sleb128 -11
 5318 0506 12       		.uleb128 0x12
 5319 0507 99150000 		.4byte	.LASF92
 5320 050b 76       		.sleb128 -10
 5321 050c 12       		.uleb128 0x12
 5322 050d 5D060000 		.4byte	.LASF93
 5323 0511 7B       		.sleb128 -5
 5324 0512 12       		.uleb128 0x12
 5325 0513 40010000 		.4byte	.LASF94
 5326 0517 7C       		.sleb128 -4
 5327 0518 12       		.uleb128 0x12
 5328 0519 18280000 		.4byte	.LASF95
 5329 051d 7E       		.sleb128 -2
 5330 051e 12       		.uleb128 0x12
 5331 051f 77230000 		.4byte	.LASF96
 5332 0523 7F       		.sleb128 -1
 5333 0524 13       		.uleb128 0x13
 5334 0525 97070000 		.4byte	.LASF97
 5335 0529 00       		.byte	0
 5336 052a 13       		.uleb128 0x13
 5337 052b D02A0000 		.4byte	.LASF98
 5338 052f 01       		.byte	0x1
 5339 0530 13       		.uleb128 0x13
 5340 0531 870C0000 		.4byte	.LASF99
 5341 0535 02       		.byte	0x2
 5342 0536 13       		.uleb128 0x13
 5343 0537 85110000 		.4byte	.LASF100
 5344 053b 03       		.byte	0x3
 5345 053c 13       		.uleb128 0x13
 5346 053d 80120000 		.4byte	.LASF101
 5347 0541 04       		.byte	0x4
 5348 0542 13       		.uleb128 0x13
ARM GAS  /tmp/ccB9eNXv.s 			page 95


 5349 0543 2A040000 		.4byte	.LASF102
 5350 0547 05       		.byte	0x5
 5351 0548 13       		.uleb128 0x13
 5352 0549 F90B0000 		.4byte	.LASF103
 5353 054d 06       		.byte	0x6
 5354 054e 13       		.uleb128 0x13
 5355 054f 780B0000 		.4byte	.LASF104
 5356 0553 07       		.byte	0x7
 5357 0554 13       		.uleb128 0x13
 5358 0555 720A0000 		.4byte	.LASF105
 5359 0559 08       		.byte	0x8
 5360 055a 13       		.uleb128 0x13
 5361 055b 101E0000 		.4byte	.LASF106
 5362 055f 09       		.byte	0x9
 5363 0560 13       		.uleb128 0x13
 5364 0561 4C1D0000 		.4byte	.LASF107
 5365 0565 0A       		.byte	0xa
 5366 0566 13       		.uleb128 0x13
 5367 0567 0D160000 		.4byte	.LASF108
 5368 056b 0B       		.byte	0xb
 5369 056c 13       		.uleb128 0x13
 5370 056d C3220000 		.4byte	.LASF109
 5371 0571 0C       		.byte	0xc
 5372 0572 13       		.uleb128 0x13
 5373 0573 46220000 		.4byte	.LASF110
 5374 0577 0D       		.byte	0xd
 5375 0578 13       		.uleb128 0x13
 5376 0579 8F210000 		.4byte	.LASF111
 5377 057d 0E       		.byte	0xe
 5378 057e 13       		.uleb128 0x13
 5379 057f BF070000 		.4byte	.LASF112
 5380 0583 0F       		.byte	0xf
 5381 0584 13       		.uleb128 0x13
 5382 0585 FE060000 		.4byte	.LASF113
 5383 0589 10       		.byte	0x10
 5384 058a 13       		.uleb128 0x13
 5385 058b 46060000 		.4byte	.LASF114
 5386 058f 11       		.byte	0x11
 5387 0590 13       		.uleb128 0x13
 5388 0591 6E020000 		.4byte	.LASF115
 5389 0595 12       		.byte	0x12
 5390 0596 13       		.uleb128 0x13
 5391 0597 07150000 		.4byte	.LASF116
 5392 059b 13       		.byte	0x13
 5393 059c 13       		.uleb128 0x13
 5394 059d 93110000 		.4byte	.LASF117
 5395 05a1 14       		.byte	0x14
 5396 05a2 13       		.uleb128 0x13
 5397 05a3 CB100000 		.4byte	.LASF118
 5398 05a7 15       		.byte	0x15
 5399 05a8 13       		.uleb128 0x13
 5400 05a9 1E240000 		.4byte	.LASF119
 5401 05ad 16       		.byte	0x16
 5402 05ae 13       		.uleb128 0x13
 5403 05af 1F110000 		.4byte	.LASF120
 5404 05b3 17       		.byte	0x17
 5405 05b4 13       		.uleb128 0x13
ARM GAS  /tmp/ccB9eNXv.s 			page 96


 5406 05b5 F3160000 		.4byte	.LASF121
 5407 05b9 18       		.byte	0x18
 5408 05ba 13       		.uleb128 0x13
 5409 05bb E6240000 		.4byte	.LASF122
 5410 05bf 19       		.byte	0x19
 5411 05c0 13       		.uleb128 0x13
 5412 05c1 F2270000 		.4byte	.LASF123
 5413 05c5 1A       		.byte	0x1a
 5414 05c6 13       		.uleb128 0x13
 5415 05c7 281C0000 		.4byte	.LASF124
 5416 05cb 1B       		.byte	0x1b
 5417 05cc 13       		.uleb128 0x13
 5418 05cd 62000000 		.4byte	.LASF125
 5419 05d1 1C       		.byte	0x1c
 5420 05d2 13       		.uleb128 0x13
 5421 05d3 132C0000 		.4byte	.LASF126
 5422 05d7 1D       		.byte	0x1d
 5423 05d8 13       		.uleb128 0x13
 5424 05d9 692B0000 		.4byte	.LASF127
 5425 05dd 1E       		.byte	0x1e
 5426 05de 13       		.uleb128 0x13
 5427 05df 771F0000 		.4byte	.LASF128
 5428 05e3 1F       		.byte	0x1f
 5429 05e4 13       		.uleb128 0x13
 5430 05e5 B6270000 		.4byte	.LASF129
 5431 05e9 20       		.byte	0x20
 5432 05ea 13       		.uleb128 0x13
 5433 05eb 921F0000 		.4byte	.LASF130
 5434 05ef 21       		.byte	0x21
 5435 05f0 13       		.uleb128 0x13
 5436 05f1 24280000 		.4byte	.LASF131
 5437 05f5 22       		.byte	0x22
 5438 05f6 13       		.uleb128 0x13
 5439 05f7 590F0000 		.4byte	.LASF132
 5440 05fb 23       		.byte	0x23
 5441 05fc 13       		.uleb128 0x13
 5442 05fd DF0E0000 		.4byte	.LASF133
 5443 0601 24       		.byte	0x24
 5444 0602 13       		.uleb128 0x13
 5445 0603 9F1F0000 		.4byte	.LASF134
 5446 0607 25       		.byte	0x25
 5447 0608 13       		.uleb128 0x13
 5448 0609 251F0000 		.4byte	.LASF135
 5449 060d 26       		.byte	0x26
 5450 060e 13       		.uleb128 0x13
 5451 060f 9B1E0000 		.4byte	.LASF136
 5452 0613 27       		.byte	0x27
 5453 0614 13       		.uleb128 0x13
 5454 0615 D2190000 		.4byte	.LASF137
 5455 0619 28       		.byte	0x28
 5456 061a 13       		.uleb128 0x13
 5457 061b 54050000 		.4byte	.LASF138
 5458 061f 29       		.byte	0x29
 5459 0620 13       		.uleb128 0x13
 5460 0621 1F160000 		.4byte	.LASF139
 5461 0625 2A       		.byte	0x2a
 5462 0626 13       		.uleb128 0x13
ARM GAS  /tmp/ccB9eNXv.s 			page 97


 5463 0627 03010000 		.4byte	.LASF140
 5464 062b 2B       		.byte	0x2b
 5465 062c 13       		.uleb128 0x13
 5466 062d DC290000 		.4byte	.LASF141
 5467 0631 2C       		.byte	0x2c
 5468 0632 13       		.uleb128 0x13
 5469 0633 F41A0000 		.4byte	.LASF142
 5470 0637 2D       		.byte	0x2d
 5471 0638 13       		.uleb128 0x13
 5472 0639 F9070000 		.4byte	.LASF143
 5473 063d 2E       		.byte	0x2e
 5474 063e 13       		.uleb128 0x13
 5475 063f 98190000 		.4byte	.LASF144
 5476 0643 2F       		.byte	0x2f
 5477 0644 13       		.uleb128 0x13
 5478 0645 AA190000 		.4byte	.LASF145
 5479 0649 30       		.byte	0x30
 5480 064a 13       		.uleb128 0x13
 5481 064b 22050000 		.4byte	.LASF146
 5482 064f 31       		.byte	0x31
 5483 0650 13       		.uleb128 0x13
 5484 0651 B6120000 		.4byte	.LASF147
 5485 0655 32       		.byte	0x32
 5486 0656 13       		.uleb128 0x13
 5487 0657 FD200000 		.4byte	.LASF148
 5488 065b 33       		.byte	0x33
 5489 065c 13       		.uleb128 0x13
 5490 065d 5D1D0000 		.4byte	.LASF149
 5491 0661 34       		.byte	0x34
 5492 0662 13       		.uleb128 0x13
 5493 0663 7F210000 		.4byte	.LASF150
 5494 0667 35       		.byte	0x35
 5495 0668 13       		.uleb128 0x13
 5496 0669 5D190000 		.4byte	.LASF151
 5497 066d 36       		.byte	0x36
 5498 066e 13       		.uleb128 0x13
 5499 066f 6E110000 		.4byte	.LASF152
 5500 0673 37       		.byte	0x37
 5501 0674 13       		.uleb128 0x13
 5502 0675 AB1D0000 		.4byte	.LASF153
 5503 0679 38       		.byte	0x38
 5504 067a 13       		.uleb128 0x13
 5505 067b FC1C0000 		.4byte	.LASF154
 5506 067f 39       		.byte	0x39
 5507 0680 13       		.uleb128 0x13
 5508 0681 D4020000 		.4byte	.LASF155
 5509 0685 3A       		.byte	0x3a
 5510 0686 13       		.uleb128 0x13
 5511 0687 2F020000 		.4byte	.LASF156
 5512 068b 3B       		.byte	0x3b
 5513 068c 13       		.uleb128 0x13
 5514 068d 67010000 		.4byte	.LASF157
 5515 0691 3C       		.byte	0x3c
 5516 0692 13       		.uleb128 0x13
 5517 0693 6E230000 		.4byte	.LASF158
 5518 0697 3D       		.byte	0x3d
 5519 0698 13       		.uleb128 0x13
ARM GAS  /tmp/ccB9eNXv.s 			page 98


 5520 0699 EC000000 		.4byte	.LASF159
 5521 069d 3E       		.byte	0x3e
 5522 069e 13       		.uleb128 0x13
 5523 069f 14150000 		.4byte	.LASF160
 5524 06a3 3F       		.byte	0x3f
 5525 06a4 13       		.uleb128 0x13
 5526 06a5 D6180000 		.4byte	.LASF161
 5527 06a9 40       		.byte	0x40
 5528 06aa 13       		.uleb128 0x13
 5529 06ab 28180000 		.4byte	.LASF162
 5530 06af 41       		.byte	0x41
 5531 06b0 13       		.uleb128 0x13
 5532 06b1 E22B0000 		.4byte	.LASF163
 5533 06b5 42       		.byte	0x42
 5534 06b6 13       		.uleb128 0x13
 5535 06b7 6C000000 		.4byte	.LASF164
 5536 06bb 43       		.byte	0x43
 5537 06bc 13       		.uleb128 0x13
 5538 06bd 43150000 		.4byte	.LASF165
 5539 06c1 44       		.byte	0x44
 5540 06c2 13       		.uleb128 0x13
 5541 06c3 83140000 		.4byte	.LASF166
 5542 06c7 45       		.byte	0x45
 5543 06c8 13       		.uleb128 0x13
 5544 06c9 F0130000 		.4byte	.LASF167
 5545 06cd 46       		.byte	0x46
 5546 06ce 13       		.uleb128 0x13
 5547 06cf 09030000 		.4byte	.LASF168
 5548 06d3 47       		.byte	0x47
 5549 06d4 13       		.uleb128 0x13
 5550 06d5 C11F0000 		.4byte	.LASF169
 5551 06d9 48       		.byte	0x48
 5552 06da 13       		.uleb128 0x13
 5553 06db 49280000 		.4byte	.LASF170
 5554 06df 49       		.byte	0x49
 5555 06e0 13       		.uleb128 0x13
 5556 06e1 AE200000 		.4byte	.LASF171
 5557 06e5 4A       		.byte	0x4a
 5558 06e6 13       		.uleb128 0x13
 5559 06e7 380B0000 		.4byte	.LASF172
 5560 06eb 4B       		.byte	0x4b
 5561 06ec 13       		.uleb128 0x13
 5562 06ed 79010000 		.4byte	.LASF173
 5563 06f1 4C       		.byte	0x4c
 5564 06f2 13       		.uleb128 0x13
 5565 06f3 1C140000 		.4byte	.LASF174
 5566 06f7 4D       		.byte	0x4d
 5567 06f8 13       		.uleb128 0x13
 5568 06f9 39050000 		.4byte	.LASF175
 5569 06fd 4E       		.byte	0x4e
 5570 06fe 13       		.uleb128 0x13
 5571 06ff 4A1F0000 		.4byte	.LASF176
 5572 0703 50       		.byte	0x50
 5573 0704 13       		.uleb128 0x13
 5574 0705 8E170000 		.4byte	.LASF177
 5575 0709 51       		.byte	0x51
 5576 070a 00       		.byte	0
ARM GAS  /tmp/ccB9eNXv.s 			page 99


 5577 070b 14       		.uleb128 0x14
 5578 070c F7000000 		.4byte	0xf7
 5579 0710 1B070000 		.4byte	0x71b
 5580 0714 15       		.uleb128 0x15
 5581 0715 25000000 		.4byte	0x25
 5582 0719 07       		.byte	0x7
 5583 071a 00       		.byte	0
 5584 071b 16       		.uleb128 0x16
 5585 071c 75250000 		.4byte	.LASF178
 5586 0720 0A       		.byte	0xa
 5587 0721 A706     		.2byte	0x6a7
 5588 0723 F2000000 		.4byte	0xf2
 5589 0727 17       		.uleb128 0x17
 5590 0728 88190000 		.4byte	.LASF179
 5591 072c 0B       		.byte	0xb
 5592 072d 4C       		.byte	0x4c
 5593 072e F7000000 		.4byte	0xf7
 5594 0732 18       		.uleb128 0x18
 5595 0733 10       		.byte	0x10
 5596 0734 0C       		.byte	0xc
 5597 0735 E9       		.byte	0xe9
 5598 0736 6B070000 		.4byte	0x76b
 5599 073a 19       		.uleb128 0x19
 5600 073b 54495200 		.ascii	"TIR\000"
 5601 073f 0C       		.byte	0xc
 5602 0740 EB       		.byte	0xeb
 5603 0741 02010000 		.4byte	0x102
 5604 0745 00       		.byte	0
 5605 0746 08       		.uleb128 0x8
 5606 0747 76130000 		.4byte	.LASF180
 5607 074b 0C       		.byte	0xc
 5608 074c EC       		.byte	0xec
 5609 074d 02010000 		.4byte	0x102
 5610 0751 04       		.byte	0x4
 5611 0752 08       		.uleb128 0x8
 5612 0753 611B0000 		.4byte	.LASF181
 5613 0757 0C       		.byte	0xc
 5614 0758 ED       		.byte	0xed
 5615 0759 02010000 		.4byte	0x102
 5616 075d 08       		.byte	0x8
 5617 075e 08       		.uleb128 0x8
 5618 075f 60180000 		.4byte	.LASF182
 5619 0763 0C       		.byte	0xc
 5620 0764 EE       		.byte	0xee
 5621 0765 02010000 		.4byte	0x102
 5622 0769 0C       		.byte	0xc
 5623 076a 00       		.byte	0
 5624 076b 03       		.uleb128 0x3
 5625 076c 10070000 		.4byte	.LASF183
 5626 0770 0C       		.byte	0xc
 5627 0771 EF       		.byte	0xef
 5628 0772 32070000 		.4byte	0x732
 5629 0776 18       		.uleb128 0x18
 5630 0777 10       		.byte	0x10
 5631 0778 0C       		.byte	0xc
 5632 0779 F5       		.byte	0xf5
 5633 077a AF070000 		.4byte	0x7af
ARM GAS  /tmp/ccB9eNXv.s 			page 100


 5634 077e 19       		.uleb128 0x19
 5635 077f 52495200 		.ascii	"RIR\000"
 5636 0783 0C       		.byte	0xc
 5637 0784 F7       		.byte	0xf7
 5638 0785 02010000 		.4byte	0x102
 5639 0789 00       		.byte	0
 5640 078a 08       		.uleb128 0x8
 5641 078b BE220000 		.4byte	.LASF184
 5642 078f 0C       		.byte	0xc
 5643 0790 F8       		.byte	0xf8
 5644 0791 02010000 		.4byte	0x102
 5645 0795 04       		.byte	0x4
 5646 0796 08       		.uleb128 0x8
 5647 0797 471D0000 		.4byte	.LASF185
 5648 079b 0C       		.byte	0xc
 5649 079c F9       		.byte	0xf9
 5650 079d 02010000 		.4byte	0x102
 5651 07a1 08       		.byte	0x8
 5652 07a2 08       		.uleb128 0x8
 5653 07a3 011A0000 		.4byte	.LASF186
 5654 07a7 0C       		.byte	0xc
 5655 07a8 FA       		.byte	0xfa
 5656 07a9 02010000 		.4byte	0x102
 5657 07ad 0C       		.byte	0xc
 5658 07ae 00       		.byte	0
 5659 07af 03       		.uleb128 0x3
 5660 07b0 CC210000 		.4byte	.LASF187
 5661 07b4 0C       		.byte	0xc
 5662 07b5 FB       		.byte	0xfb
 5663 07b6 76070000 		.4byte	0x776
 5664 07ba 1A       		.uleb128 0x1a
 5665 07bb 08       		.byte	0x8
 5666 07bc 0C       		.byte	0xc
 5667 07bd 0101     		.2byte	0x101
 5668 07bf DE070000 		.4byte	0x7de
 5669 07c3 09       		.uleb128 0x9
 5670 07c4 46523100 		.ascii	"FR1\000"
 5671 07c8 0C       		.byte	0xc
 5672 07c9 0301     		.2byte	0x103
 5673 07cb 02010000 		.4byte	0x102
 5674 07cf 00       		.byte	0
 5675 07d0 09       		.uleb128 0x9
 5676 07d1 46523200 		.ascii	"FR2\000"
 5677 07d5 0C       		.byte	0xc
 5678 07d6 0401     		.2byte	0x104
 5679 07d8 02010000 		.4byte	0x102
 5680 07dc 04       		.byte	0x4
 5681 07dd 00       		.byte	0
 5682 07de 1B       		.uleb128 0x1b
 5683 07df 7B130000 		.4byte	.LASF188
 5684 07e3 0C       		.byte	0xc
 5685 07e4 0501     		.2byte	0x105
 5686 07e6 BA070000 		.4byte	0x7ba
 5687 07ea 1C       		.uleb128 0x1c
 5688 07eb 2003     		.2byte	0x320
 5689 07ed 0C       		.byte	0xc
 5690 07ee 0B01     		.2byte	0x10b
ARM GAS  /tmp/ccB9eNXv.s 			page 101


 5691 07f0 20090000 		.4byte	0x920
 5692 07f4 09       		.uleb128 0x9
 5693 07f5 4D435200 		.ascii	"MCR\000"
 5694 07f9 0C       		.byte	0xc
 5695 07fa 0D01     		.2byte	0x10d
 5696 07fc 02010000 		.4byte	0x102
 5697 0800 00       		.byte	0
 5698 0801 09       		.uleb128 0x9
 5699 0802 4D535200 		.ascii	"MSR\000"
 5700 0806 0C       		.byte	0xc
 5701 0807 0E01     		.2byte	0x10e
 5702 0809 02010000 		.4byte	0x102
 5703 080d 04       		.byte	0x4
 5704 080e 09       		.uleb128 0x9
 5705 080f 54535200 		.ascii	"TSR\000"
 5706 0813 0C       		.byte	0xc
 5707 0814 0F01     		.2byte	0x10f
 5708 0816 02010000 		.4byte	0x102
 5709 081a 08       		.byte	0x8
 5710 081b 0A       		.uleb128 0xa
 5711 081c BA110000 		.4byte	.LASF189
 5712 0820 0C       		.byte	0xc
 5713 0821 1001     		.2byte	0x110
 5714 0823 02010000 		.4byte	0x102
 5715 0827 0C       		.byte	0xc
 5716 0828 0A       		.uleb128 0xa
 5717 0829 8B120000 		.4byte	.LASF190
 5718 082d 0C       		.byte	0xc
 5719 082e 1101     		.2byte	0x111
 5720 0830 02010000 		.4byte	0x102
 5721 0834 10       		.byte	0x10
 5722 0835 09       		.uleb128 0x9
 5723 0836 49455200 		.ascii	"IER\000"
 5724 083a 0C       		.byte	0xc
 5725 083b 1201     		.2byte	0x112
 5726 083d 02010000 		.4byte	0x102
 5727 0841 14       		.byte	0x14
 5728 0842 09       		.uleb128 0x9
 5729 0843 45535200 		.ascii	"ESR\000"
 5730 0847 0C       		.byte	0xc
 5731 0848 1301     		.2byte	0x113
 5732 084a 02010000 		.4byte	0x102
 5733 084e 18       		.byte	0x18
 5734 084f 09       		.uleb128 0x9
 5735 0850 42545200 		.ascii	"BTR\000"
 5736 0854 0C       		.byte	0xc
 5737 0855 1401     		.2byte	0x114
 5738 0857 02010000 		.4byte	0x102
 5739 085b 1C       		.byte	0x1c
 5740 085c 0A       		.uleb128 0xa
 5741 085d 5A240000 		.4byte	.LASF191
 5742 0861 0C       		.byte	0xc
 5743 0862 1501     		.2byte	0x115
 5744 0864 20090000 		.4byte	0x920
 5745 0868 20       		.byte	0x20
 5746 0869 1D       		.uleb128 0x1d
 5747 086a A3140000 		.4byte	.LASF192
ARM GAS  /tmp/ccB9eNXv.s 			page 102


 5748 086e 0C       		.byte	0xc
 5749 086f 1601     		.2byte	0x116
 5750 0871 30090000 		.4byte	0x930
 5751 0875 8001     		.2byte	0x180
 5752 0877 1D       		.uleb128 0x1d
 5753 0878 5E290000 		.4byte	.LASF193
 5754 087c 0C       		.byte	0xc
 5755 087d 1701     		.2byte	0x117
 5756 087f 40090000 		.4byte	0x940
 5757 0883 B001     		.2byte	0x1b0
 5758 0885 1D       		.uleb128 0x1d
 5759 0886 64240000 		.4byte	.LASF194
 5760 088a 0C       		.byte	0xc
 5761 088b 1801     		.2byte	0x118
 5762 088d 50090000 		.4byte	0x950
 5763 0891 D001     		.2byte	0x1d0
 5764 0893 1E       		.uleb128 0x1e
 5765 0894 464D5200 		.ascii	"FMR\000"
 5766 0898 0C       		.byte	0xc
 5767 0899 1901     		.2byte	0x119
 5768 089b 02010000 		.4byte	0x102
 5769 089f 0002     		.2byte	0x200
 5770 08a1 1D       		.uleb128 0x1d
 5771 08a2 D20C0000 		.4byte	.LASF195
 5772 08a6 0C       		.byte	0xc
 5773 08a7 1A01     		.2byte	0x11a
 5774 08a9 02010000 		.4byte	0x102
 5775 08ad 0402     		.2byte	0x204
 5776 08af 1D       		.uleb128 0x1d
 5777 08b0 6E240000 		.4byte	.LASF196
 5778 08b4 0C       		.byte	0xc
 5779 08b5 1B01     		.2byte	0x11b
 5780 08b7 F7000000 		.4byte	0xf7
 5781 08bb 0802     		.2byte	0x208
 5782 08bd 1D       		.uleb128 0x1d
 5783 08be BE260000 		.4byte	.LASF197
 5784 08c2 0C       		.byte	0xc
 5785 08c3 1C01     		.2byte	0x11c
 5786 08c5 02010000 		.4byte	0x102
 5787 08c9 0C02     		.2byte	0x20c
 5788 08cb 1D       		.uleb128 0x1d
 5789 08cc 78240000 		.4byte	.LASF198
 5790 08d0 0C       		.byte	0xc
 5791 08d1 1D01     		.2byte	0x11d
 5792 08d3 F7000000 		.4byte	0xf7
 5793 08d7 1002     		.2byte	0x210
 5794 08d9 1D       		.uleb128 0x1d
 5795 08da BD1D0000 		.4byte	.LASF199
 5796 08de 0C       		.byte	0xc
 5797 08df 1E01     		.2byte	0x11e
 5798 08e1 02010000 		.4byte	0x102
 5799 08e5 1402     		.2byte	0x214
 5800 08e7 1D       		.uleb128 0x1d
 5801 08e8 82240000 		.4byte	.LASF200
 5802 08ec 0C       		.byte	0xc
 5803 08ed 1F01     		.2byte	0x11f
 5804 08ef F7000000 		.4byte	0xf7
ARM GAS  /tmp/ccB9eNXv.s 			page 103


 5805 08f3 1802     		.2byte	0x218
 5806 08f5 1D       		.uleb128 0x1d
 5807 08f6 85050000 		.4byte	.LASF201
 5808 08fa 0C       		.byte	0xc
 5809 08fb 2001     		.2byte	0x120
 5810 08fd 02010000 		.4byte	0x102
 5811 0901 1C02     		.2byte	0x21c
 5812 0903 1D       		.uleb128 0x1d
 5813 0904 8C240000 		.4byte	.LASF202
 5814 0908 0C       		.byte	0xc
 5815 0909 2101     		.2byte	0x121
 5816 090b 0B070000 		.4byte	0x70b
 5817 090f 2002     		.2byte	0x220
 5818 0911 1D       		.uleb128 0x1d
 5819 0912 A1070000 		.4byte	.LASF203
 5820 0916 0C       		.byte	0xc
 5821 0917 2201     		.2byte	0x122
 5822 0919 60090000 		.4byte	0x960
 5823 091d 4002     		.2byte	0x240
 5824 091f 00       		.byte	0
 5825 0920 14       		.uleb128 0x14
 5826 0921 F7000000 		.4byte	0xf7
 5827 0925 30090000 		.4byte	0x930
 5828 0929 15       		.uleb128 0x15
 5829 092a 25000000 		.4byte	0x25
 5830 092e 57       		.byte	0x57
 5831 092f 00       		.byte	0
 5832 0930 14       		.uleb128 0x14
 5833 0931 6B070000 		.4byte	0x76b
 5834 0935 40090000 		.4byte	0x940
 5835 0939 15       		.uleb128 0x15
 5836 093a 25000000 		.4byte	0x25
 5837 093e 02       		.byte	0x2
 5838 093f 00       		.byte	0
 5839 0940 14       		.uleb128 0x14
 5840 0941 AF070000 		.4byte	0x7af
 5841 0945 50090000 		.4byte	0x950
 5842 0949 15       		.uleb128 0x15
 5843 094a 25000000 		.4byte	0x25
 5844 094e 01       		.byte	0x1
 5845 094f 00       		.byte	0
 5846 0950 14       		.uleb128 0x14
 5847 0951 F7000000 		.4byte	0xf7
 5848 0955 60090000 		.4byte	0x960
 5849 0959 15       		.uleb128 0x15
 5850 095a 25000000 		.4byte	0x25
 5851 095e 0B       		.byte	0xb
 5852 095f 00       		.byte	0
 5853 0960 14       		.uleb128 0x14
 5854 0961 DE070000 		.4byte	0x7de
 5855 0965 70090000 		.4byte	0x970
 5856 0969 15       		.uleb128 0x15
 5857 096a 25000000 		.4byte	0x25
 5858 096e 1B       		.byte	0x1b
 5859 096f 00       		.byte	0
 5860 0970 1B       		.uleb128 0x1b
 5861 0971 31100000 		.4byte	.LASF204
ARM GAS  /tmp/ccB9eNXv.s 			page 104


 5862 0975 0C       		.byte	0xc
 5863 0976 2301     		.2byte	0x123
 5864 0978 EA070000 		.4byte	0x7ea
 5865 097c 1A       		.uleb128 0x1a
 5866 097d 18       		.byte	0x18
 5867 097e 0C       		.byte	0xc
 5868 097f 6B01     		.2byte	0x16b
 5869 0981 D3090000 		.4byte	0x9d3
 5870 0985 09       		.uleb128 0x9
 5871 0986 435200   		.ascii	"CR\000"
 5872 0989 0C       		.byte	0xc
 5873 098a 6D01     		.2byte	0x16d
 5874 098c 02010000 		.4byte	0x102
 5875 0990 00       		.byte	0
 5876 0991 0A       		.uleb128 0xa
 5877 0992 E3250000 		.4byte	.LASF205
 5878 0996 0C       		.byte	0xc
 5879 0997 6E01     		.2byte	0x16e
 5880 0999 02010000 		.4byte	0x102
 5881 099d 04       		.byte	0x4
 5882 099e 09       		.uleb128 0x9
 5883 099f 50415200 		.ascii	"PAR\000"
 5884 09a3 0C       		.byte	0xc
 5885 09a4 6F01     		.2byte	0x16f
 5886 09a6 02010000 		.4byte	0x102
 5887 09aa 08       		.byte	0x8
 5888 09ab 0A       		.uleb128 0xa
 5889 09ac 2C050000 		.4byte	.LASF206
 5890 09b0 0C       		.byte	0xc
 5891 09b1 7001     		.2byte	0x170
 5892 09b3 02010000 		.4byte	0x102
 5893 09b7 0C       		.byte	0xc
 5894 09b8 0A       		.uleb128 0xa
 5895 09b9 68090000 		.4byte	.LASF207
 5896 09bd 0C       		.byte	0xc
 5897 09be 7101     		.2byte	0x171
 5898 09c0 02010000 		.4byte	0x102
 5899 09c4 10       		.byte	0x10
 5900 09c5 09       		.uleb128 0x9
 5901 09c6 46435200 		.ascii	"FCR\000"
 5902 09ca 0C       		.byte	0xc
 5903 09cb 7201     		.2byte	0x172
 5904 09cd 02010000 		.4byte	0x102
 5905 09d1 14       		.byte	0x14
 5906 09d2 00       		.byte	0
 5907 09d3 1B       		.uleb128 0x1b
 5908 09d4 7B090000 		.4byte	.LASF208
 5909 09d8 0C       		.byte	0xc
 5910 09d9 7301     		.2byte	0x173
 5911 09db 7C090000 		.4byte	0x97c
 5912 09df 14       		.uleb128 0x14
 5913 09e0 02010000 		.4byte	0x102
 5914 09e4 EF090000 		.4byte	0x9ef
 5915 09e8 15       		.uleb128 0x15
 5916 09e9 25000000 		.4byte	0x25
 5917 09ed 01       		.byte	0x1
 5918 09ee 00       		.byte	0
ARM GAS  /tmp/ccB9eNXv.s 			page 105


 5919 09ef 06       		.uleb128 0x6
 5920 09f0 DF090000 		.4byte	0x9df
 5921 09f4 14       		.uleb128 0x14
 5922 09f5 02010000 		.4byte	0x102
 5923 09f9 040A0000 		.4byte	0xa04
 5924 09fd 15       		.uleb128 0x15
 5925 09fe 25000000 		.4byte	0x25
 5926 0a02 03       		.byte	0x3
 5927 0a03 00       		.byte	0
 5928 0a04 06       		.uleb128 0x6
 5929 0a05 F4090000 		.4byte	0x9f4
 5930 0a09 1A       		.uleb128 0x1a
 5931 0a0a 28       		.byte	0x28
 5932 0a0b 0C       		.byte	0xc
 5933 0a0c 3F02     		.2byte	0x23f
 5934 0a0e 940A0000 		.4byte	0xa94
 5935 0a12 09       		.uleb128 0x9
 5936 0a13 43523100 		.ascii	"CR1\000"
 5937 0a17 0C       		.byte	0xc
 5938 0a18 4102     		.2byte	0x241
 5939 0a1a 02010000 		.4byte	0x102
 5940 0a1e 00       		.byte	0
 5941 0a1f 09       		.uleb128 0x9
 5942 0a20 43523200 		.ascii	"CR2\000"
 5943 0a24 0C       		.byte	0xc
 5944 0a25 4202     		.2byte	0x242
 5945 0a27 02010000 		.4byte	0x102
 5946 0a2b 04       		.byte	0x4
 5947 0a2c 0A       		.uleb128 0xa
 5948 0a2d 472C0000 		.4byte	.LASF209
 5949 0a31 0C       		.byte	0xc
 5950 0a32 4302     		.2byte	0x243
 5951 0a34 02010000 		.4byte	0x102
 5952 0a38 08       		.byte	0x8
 5953 0a39 0A       		.uleb128 0xa
 5954 0a3a 4C2C0000 		.4byte	.LASF210
 5955 0a3e 0C       		.byte	0xc
 5956 0a3f 4402     		.2byte	0x244
 5957 0a41 02010000 		.4byte	0x102
 5958 0a45 0C       		.byte	0xc
 5959 0a46 09       		.uleb128 0x9
 5960 0a47 445200   		.ascii	"DR\000"
 5961 0a4a 0C       		.byte	0xc
 5962 0a4b 4502     		.2byte	0x245
 5963 0a4d 02010000 		.4byte	0x102
 5964 0a51 10       		.byte	0x10
 5965 0a52 09       		.uleb128 0x9
 5966 0a53 53523100 		.ascii	"SR1\000"
 5967 0a57 0C       		.byte	0xc
 5968 0a58 4602     		.2byte	0x246
 5969 0a5a 02010000 		.4byte	0x102
 5970 0a5e 14       		.byte	0x14
 5971 0a5f 09       		.uleb128 0x9
 5972 0a60 53523200 		.ascii	"SR2\000"
 5973 0a64 0C       		.byte	0xc
 5974 0a65 4702     		.2byte	0x247
 5975 0a67 02010000 		.4byte	0x102
ARM GAS  /tmp/ccB9eNXv.s 			page 106


 5976 0a6b 18       		.byte	0x18
 5977 0a6c 09       		.uleb128 0x9
 5978 0a6d 43435200 		.ascii	"CCR\000"
 5979 0a71 0C       		.byte	0xc
 5980 0a72 4802     		.2byte	0x248
 5981 0a74 02010000 		.4byte	0x102
 5982 0a78 1C       		.byte	0x1c
 5983 0a79 0A       		.uleb128 0xa
 5984 0a7a B9060000 		.4byte	.LASF211
 5985 0a7e 0C       		.byte	0xc
 5986 0a7f 4902     		.2byte	0x249
 5987 0a81 02010000 		.4byte	0x102
 5988 0a85 20       		.byte	0x20
 5989 0a86 0A       		.uleb128 0xa
 5990 0a87 E72A0000 		.4byte	.LASF212
 5991 0a8b 0C       		.byte	0xc
 5992 0a8c 4A02     		.2byte	0x24a
 5993 0a8e 02010000 		.4byte	0x102
 5994 0a92 24       		.byte	0x24
 5995 0a93 00       		.byte	0
 5996 0a94 1B       		.uleb128 0x1b
 5997 0a95 F5190000 		.4byte	.LASF213
 5998 0a99 0C       		.byte	0xc
 5999 0a9a 4B02     		.2byte	0x24b
 6000 0a9c 090A0000 		.4byte	0xa09
 6001 0aa0 1A       		.uleb128 0x1a
 6002 0aa1 24       		.byte	0x24
 6003 0aa2 0C       		.byte	0xc
 6004 0aa3 DB02     		.2byte	0x2db
 6005 0aa5 1D0B0000 		.4byte	0xb1d
 6006 0aa9 09       		.uleb128 0x9
 6007 0aaa 43523100 		.ascii	"CR1\000"
 6008 0aae 0C       		.byte	0xc
 6009 0aaf DD02     		.2byte	0x2dd
 6010 0ab1 02010000 		.4byte	0x102
 6011 0ab5 00       		.byte	0
 6012 0ab6 09       		.uleb128 0x9
 6013 0ab7 43523200 		.ascii	"CR2\000"
 6014 0abb 0C       		.byte	0xc
 6015 0abc DE02     		.2byte	0x2de
 6016 0abe 02010000 		.4byte	0x102
 6017 0ac2 04       		.byte	0x4
 6018 0ac3 09       		.uleb128 0x9
 6019 0ac4 535200   		.ascii	"SR\000"
 6020 0ac7 0C       		.byte	0xc
 6021 0ac8 DF02     		.2byte	0x2df
 6022 0aca 02010000 		.4byte	0x102
 6023 0ace 08       		.byte	0x8
 6024 0acf 09       		.uleb128 0x9
 6025 0ad0 445200   		.ascii	"DR\000"
 6026 0ad3 0C       		.byte	0xc
 6027 0ad4 E002     		.2byte	0x2e0
 6028 0ad6 02010000 		.4byte	0x102
 6029 0ada 0C       		.byte	0xc
 6030 0adb 0A       		.uleb128 0xa
 6031 0adc 0E090000 		.4byte	.LASF214
 6032 0ae0 0C       		.byte	0xc
ARM GAS  /tmp/ccB9eNXv.s 			page 107


 6033 0ae1 E102     		.2byte	0x2e1
 6034 0ae3 02010000 		.4byte	0x102
 6035 0ae7 10       		.byte	0x10
 6036 0ae8 0A       		.uleb128 0xa
 6037 0ae9 7A0D0000 		.4byte	.LASF215
 6038 0aed 0C       		.byte	0xc
 6039 0aee E202     		.2byte	0x2e2
 6040 0af0 02010000 		.4byte	0x102
 6041 0af4 14       		.byte	0x14
 6042 0af5 0A       		.uleb128 0xa
 6043 0af6 2C0C0000 		.4byte	.LASF216
 6044 0afa 0C       		.byte	0xc
 6045 0afb E302     		.2byte	0x2e3
 6046 0afd 02010000 		.4byte	0x102
 6047 0b01 18       		.byte	0x18
 6048 0b02 0A       		.uleb128 0xa
 6049 0b03 56280000 		.4byte	.LASF217
 6050 0b07 0C       		.byte	0xc
 6051 0b08 E402     		.2byte	0x2e4
 6052 0b0a 02010000 		.4byte	0x102
 6053 0b0e 1C       		.byte	0x1c
 6054 0b0f 0A       		.uleb128 0xa
 6055 0b10 EF080000 		.4byte	.LASF218
 6056 0b14 0C       		.byte	0xc
 6057 0b15 E502     		.2byte	0x2e5
 6058 0b17 02010000 		.4byte	0x102
 6059 0b1b 20       		.byte	0x20
 6060 0b1c 00       		.byte	0
 6061 0b1d 1B       		.uleb128 0x1b
 6062 0b1e 29260000 		.4byte	.LASF219
 6063 0b22 0C       		.byte	0xc
 6064 0b23 E602     		.2byte	0x2e6
 6065 0b25 A00A0000 		.4byte	0xaa0
 6066 0b29 1A       		.uleb128 0x1a
 6067 0b2a 54       		.byte	0x54
 6068 0b2b 0C       		.byte	0xc
 6069 0b2c EC02     		.2byte	0x2ec
 6070 0b2e 420C0000 		.4byte	0xc42
 6071 0b32 09       		.uleb128 0x9
 6072 0b33 43523100 		.ascii	"CR1\000"
 6073 0b37 0C       		.byte	0xc
 6074 0b38 EE02     		.2byte	0x2ee
 6075 0b3a 02010000 		.4byte	0x102
 6076 0b3e 00       		.byte	0
 6077 0b3f 09       		.uleb128 0x9
 6078 0b40 43523200 		.ascii	"CR2\000"
 6079 0b44 0C       		.byte	0xc
 6080 0b45 EF02     		.2byte	0x2ef
 6081 0b47 02010000 		.4byte	0x102
 6082 0b4b 04       		.byte	0x4
 6083 0b4c 0A       		.uleb128 0xa
 6084 0b4d 3D260000 		.4byte	.LASF220
 6085 0b51 0C       		.byte	0xc
 6086 0b52 F002     		.2byte	0x2f0
 6087 0b54 02010000 		.4byte	0x102
 6088 0b58 08       		.byte	0x8
 6089 0b59 0A       		.uleb128 0xa
ARM GAS  /tmp/ccB9eNXv.s 			page 108


 6090 0b5a E70B0000 		.4byte	.LASF221
 6091 0b5e 0C       		.byte	0xc
 6092 0b5f F102     		.2byte	0x2f1
 6093 0b61 02010000 		.4byte	0x102
 6094 0b65 0C       		.byte	0xc
 6095 0b66 09       		.uleb128 0x9
 6096 0b67 535200   		.ascii	"SR\000"
 6097 0b6a 0C       		.byte	0xc
 6098 0b6b F202     		.2byte	0x2f2
 6099 0b6d 02010000 		.4byte	0x102
 6100 0b71 10       		.byte	0x10
 6101 0b72 09       		.uleb128 0x9
 6102 0b73 45475200 		.ascii	"EGR\000"
 6103 0b77 0C       		.byte	0xc
 6104 0b78 F302     		.2byte	0x2f3
 6105 0b7a 02010000 		.4byte	0x102
 6106 0b7e 14       		.byte	0x14
 6107 0b7f 0A       		.uleb128 0xa
 6108 0b80 102B0000 		.4byte	.LASF222
 6109 0b84 0C       		.byte	0xc
 6110 0b85 F402     		.2byte	0x2f4
 6111 0b87 02010000 		.4byte	0x102
 6112 0b8b 18       		.byte	0x18
 6113 0b8c 0A       		.uleb128 0xa
 6114 0b8d 162B0000 		.4byte	.LASF223
 6115 0b91 0C       		.byte	0xc
 6116 0b92 F502     		.2byte	0x2f5
 6117 0b94 02010000 		.4byte	0x102
 6118 0b98 1C       		.byte	0x1c
 6119 0b99 0A       		.uleb128 0xa
 6120 0b9a EA080000 		.4byte	.LASF224
 6121 0b9e 0C       		.byte	0xc
 6122 0b9f F602     		.2byte	0x2f6
 6123 0ba1 02010000 		.4byte	0x102
 6124 0ba5 20       		.byte	0x20
 6125 0ba6 09       		.uleb128 0x9
 6126 0ba7 434E5400 		.ascii	"CNT\000"
 6127 0bab 0C       		.byte	0xc
 6128 0bac F702     		.2byte	0x2f7
 6129 0bae 02010000 		.4byte	0x102
 6130 0bb2 24       		.byte	0x24
 6131 0bb3 09       		.uleb128 0x9
 6132 0bb4 50534300 		.ascii	"PSC\000"
 6133 0bb8 0C       		.byte	0xc
 6134 0bb9 F802     		.2byte	0x2f8
 6135 0bbb 02010000 		.4byte	0x102
 6136 0bbf 28       		.byte	0x28
 6137 0bc0 09       		.uleb128 0x9
 6138 0bc1 41525200 		.ascii	"ARR\000"
 6139 0bc5 0C       		.byte	0xc
 6140 0bc6 F902     		.2byte	0x2f9
 6141 0bc8 02010000 		.4byte	0x102
 6142 0bcc 2C       		.byte	0x2c
 6143 0bcd 09       		.uleb128 0x9
 6144 0bce 52435200 		.ascii	"RCR\000"
 6145 0bd2 0C       		.byte	0xc
 6146 0bd3 FA02     		.2byte	0x2fa
ARM GAS  /tmp/ccB9eNXv.s 			page 109


 6147 0bd5 02010000 		.4byte	0x102
 6148 0bd9 30       		.byte	0x30
 6149 0bda 0A       		.uleb128 0xa
 6150 0bdb CB120000 		.4byte	.LASF225
 6151 0bdf 0C       		.byte	0xc
 6152 0be0 FB02     		.2byte	0x2fb
 6153 0be2 02010000 		.4byte	0x102
 6154 0be6 34       		.byte	0x34
 6155 0be7 0A       		.uleb128 0xa
 6156 0be8 D0120000 		.4byte	.LASF226
 6157 0bec 0C       		.byte	0xc
 6158 0bed FC02     		.2byte	0x2fc
 6159 0bef 02010000 		.4byte	0x102
 6160 0bf3 38       		.byte	0x38
 6161 0bf4 0A       		.uleb128 0xa
 6162 0bf5 D5120000 		.4byte	.LASF227
 6163 0bf9 0C       		.byte	0xc
 6164 0bfa FD02     		.2byte	0x2fd
 6165 0bfc 02010000 		.4byte	0x102
 6166 0c00 3C       		.byte	0x3c
 6167 0c01 0A       		.uleb128 0xa
 6168 0c02 DA120000 		.4byte	.LASF228
 6169 0c06 0C       		.byte	0xc
 6170 0c07 FE02     		.2byte	0x2fe
 6171 0c09 02010000 		.4byte	0x102
 6172 0c0d 40       		.byte	0x40
 6173 0c0e 0A       		.uleb128 0xa
 6174 0c0f BC020000 		.4byte	.LASF229
 6175 0c13 0C       		.byte	0xc
 6176 0c14 FF02     		.2byte	0x2ff
 6177 0c16 02010000 		.4byte	0x102
 6178 0c1a 44       		.byte	0x44
 6179 0c1b 09       		.uleb128 0x9
 6180 0c1c 44435200 		.ascii	"DCR\000"
 6181 0c20 0C       		.byte	0xc
 6182 0c21 0003     		.2byte	0x300
 6183 0c23 02010000 		.4byte	0x102
 6184 0c27 48       		.byte	0x48
 6185 0c28 0A       		.uleb128 0xa
 6186 0c29 2E1A0000 		.4byte	.LASF230
 6187 0c2d 0C       		.byte	0xc
 6188 0c2e 0103     		.2byte	0x301
 6189 0c30 02010000 		.4byte	0x102
 6190 0c34 4C       		.byte	0x4c
 6191 0c35 09       		.uleb128 0x9
 6192 0c36 4F5200   		.ascii	"OR\000"
 6193 0c39 0C       		.byte	0xc
 6194 0c3a 0203     		.2byte	0x302
 6195 0c3c 02010000 		.4byte	0x102
 6196 0c40 50       		.byte	0x50
 6197 0c41 00       		.byte	0
 6198 0c42 1B       		.uleb128 0x1b
 6199 0c43 DA150000 		.4byte	.LASF231
 6200 0c47 0C       		.byte	0xc
 6201 0c48 0303     		.2byte	0x303
 6202 0c4a 290B0000 		.4byte	0xb29
 6203 0c4e 1A       		.uleb128 0x1a
ARM GAS  /tmp/ccB9eNXv.s 			page 110


 6204 0c4f 1C       		.byte	0x1c
 6205 0c50 0C       		.byte	0xc
 6206 0c51 0903     		.2byte	0x309
 6207 0c53 B10C0000 		.4byte	0xcb1
 6208 0c57 09       		.uleb128 0x9
 6209 0c58 535200   		.ascii	"SR\000"
 6210 0c5b 0C       		.byte	0xc
 6211 0c5c 0B03     		.2byte	0x30b
 6212 0c5e 02010000 		.4byte	0x102
 6213 0c62 00       		.byte	0
 6214 0c63 09       		.uleb128 0x9
 6215 0c64 445200   		.ascii	"DR\000"
 6216 0c67 0C       		.byte	0xc
 6217 0c68 0C03     		.2byte	0x30c
 6218 0c6a 02010000 		.4byte	0x102
 6219 0c6e 04       		.byte	0x4
 6220 0c6f 09       		.uleb128 0x9
 6221 0c70 42525200 		.ascii	"BRR\000"
 6222 0c74 0C       		.byte	0xc
 6223 0c75 0D03     		.2byte	0x30d
 6224 0c77 02010000 		.4byte	0x102
 6225 0c7b 08       		.byte	0x8
 6226 0c7c 09       		.uleb128 0x9
 6227 0c7d 43523100 		.ascii	"CR1\000"
 6228 0c81 0C       		.byte	0xc
 6229 0c82 0E03     		.2byte	0x30e
 6230 0c84 02010000 		.4byte	0x102
 6231 0c88 0C       		.byte	0xc
 6232 0c89 09       		.uleb128 0x9
 6233 0c8a 43523200 		.ascii	"CR2\000"
 6234 0c8e 0C       		.byte	0xc
 6235 0c8f 0F03     		.2byte	0x30f
 6236 0c91 02010000 		.4byte	0x102
 6237 0c95 10       		.byte	0x10
 6238 0c96 09       		.uleb128 0x9
 6239 0c97 43523300 		.ascii	"CR3\000"
 6240 0c9b 0C       		.byte	0xc
 6241 0c9c 1003     		.2byte	0x310
 6242 0c9e 02010000 		.4byte	0x102
 6243 0ca2 14       		.byte	0x14
 6244 0ca3 0A       		.uleb128 0xa
 6245 0ca4 B12A0000 		.4byte	.LASF232
 6246 0ca8 0C       		.byte	0xc
 6247 0ca9 1103     		.2byte	0x311
 6248 0cab 02010000 		.4byte	0x102
 6249 0caf 18       		.byte	0x18
 6250 0cb0 00       		.byte	0
 6251 0cb1 1B       		.uleb128 0x1b
 6252 0cb2 8F2B0000 		.4byte	.LASF233
 6253 0cb6 0C       		.byte	0xc
 6254 0cb7 1203     		.2byte	0x312
 6255 0cb9 4E0C0000 		.4byte	0xc4e
 6256 0cbd 14       		.uleb128 0x14
 6257 0cbe 02010000 		.4byte	0x102
 6258 0cc2 CD0C0000 		.4byte	0xccd
 6259 0cc6 15       		.uleb128 0x15
 6260 0cc7 25000000 		.4byte	0x25
ARM GAS  /tmp/ccB9eNXv.s 			page 111


 6261 0ccb 0E       		.byte	0xe
 6262 0ccc 00       		.byte	0
 6263 0ccd 06       		.uleb128 0x6
 6264 0cce BD0C0000 		.4byte	0xcbd
 6265 0cd2 11       		.uleb128 0x11
 6266 0cd3 07       		.byte	0x7
 6267 0cd4 01       		.byte	0x1
 6268 0cd5 3E000000 		.4byte	0x3e
 6269 0cd9 0D       		.byte	0xd
 6270 0cda BF       		.byte	0xbf
 6271 0cdb EC0C0000 		.4byte	0xcec
 6272 0cdf 13       		.uleb128 0x13
 6273 0ce0 CA0C0000 		.4byte	.LASF234
 6274 0ce4 00       		.byte	0
 6275 0ce5 13       		.uleb128 0x13
 6276 0ce6 7D0A0000 		.4byte	.LASF235
 6277 0cea 01       		.byte	0x1
 6278 0ceb 00       		.byte	0
 6279 0cec 03       		.uleb128 0x3
 6280 0ced 5E230000 		.4byte	.LASF236
 6281 0cf1 0D       		.byte	0xd
 6282 0cf2 C2       		.byte	0xc2
 6283 0cf3 D20C0000 		.4byte	0xcd2
 6284 0cf7 03       		.uleb128 0x3
 6285 0cf8 6E1D0000 		.4byte	.LASF237
 6286 0cfc 0E       		.byte	0xe
 6287 0cfd 65       		.byte	0x65
 6288 0cfe B1030000 		.4byte	0x3b1
 6289 0d02 03       		.uleb128 0x3
 6290 0d03 5A0A0000 		.4byte	.LASF238
 6291 0d07 0E       		.byte	0xe
 6292 0d08 6D       		.byte	0x6d
 6293 0d09 07010000 		.4byte	0x107
 6294 0d0d 07       		.uleb128 0x7
 6295 0d0e 8D1C0000 		.4byte	.LASF239
 6296 0d12 04       		.byte	0x4
 6297 0d13 0E       		.byte	0xe
 6298 0d14 89       		.byte	0x89
 6299 0d15 260D0000 		.4byte	0xd26
 6300 0d19 19       		.uleb128 0x19
 6301 0d1a 72313300 		.ascii	"r13\000"
 6302 0d1e 0E       		.byte	0xe
 6303 0d1f 8A       		.byte	0x8a
 6304 0d20 670E0000 		.4byte	0xe67
 6305 0d24 00       		.byte	0
 6306 0d25 00       		.byte	0
 6307 0d26 07       		.uleb128 0x7
 6308 0d27 32000000 		.4byte	.LASF240
 6309 0d2b 64       		.byte	0x64
 6310 0d2c 0F       		.byte	0xf
 6311 0d2d F4       		.byte	0xf4
 6312 0d2e 670E0000 		.4byte	0xe67
 6313 0d32 19       		.uleb128 0x19
 6314 0d33 73313600 		.ascii	"s16\000"
 6315 0d37 0F       		.byte	0xf
 6316 0d38 F6       		.byte	0xf6
 6317 0d39 F70C0000 		.4byte	0xcf7
ARM GAS  /tmp/ccB9eNXv.s 			page 112


 6318 0d3d 00       		.byte	0
 6319 0d3e 19       		.uleb128 0x19
 6320 0d3f 73313700 		.ascii	"s17\000"
 6321 0d43 0F       		.byte	0xf
 6322 0d44 F7       		.byte	0xf7
 6323 0d45 F70C0000 		.4byte	0xcf7
 6324 0d49 04       		.byte	0x4
 6325 0d4a 19       		.uleb128 0x19
 6326 0d4b 73313800 		.ascii	"s18\000"
 6327 0d4f 0F       		.byte	0xf
 6328 0d50 F8       		.byte	0xf8
 6329 0d51 F70C0000 		.4byte	0xcf7
 6330 0d55 08       		.byte	0x8
 6331 0d56 19       		.uleb128 0x19
 6332 0d57 73313900 		.ascii	"s19\000"
 6333 0d5b 0F       		.byte	0xf
 6334 0d5c F9       		.byte	0xf9
 6335 0d5d F70C0000 		.4byte	0xcf7
 6336 0d61 0C       		.byte	0xc
 6337 0d62 19       		.uleb128 0x19
 6338 0d63 73323000 		.ascii	"s20\000"
 6339 0d67 0F       		.byte	0xf
 6340 0d68 FA       		.byte	0xfa
 6341 0d69 F70C0000 		.4byte	0xcf7
 6342 0d6d 10       		.byte	0x10
 6343 0d6e 19       		.uleb128 0x19
 6344 0d6f 73323100 		.ascii	"s21\000"
 6345 0d73 0F       		.byte	0xf
 6346 0d74 FB       		.byte	0xfb
 6347 0d75 F70C0000 		.4byte	0xcf7
 6348 0d79 14       		.byte	0x14
 6349 0d7a 19       		.uleb128 0x19
 6350 0d7b 73323200 		.ascii	"s22\000"
 6351 0d7f 0F       		.byte	0xf
 6352 0d80 FC       		.byte	0xfc
 6353 0d81 F70C0000 		.4byte	0xcf7
 6354 0d85 18       		.byte	0x18
 6355 0d86 19       		.uleb128 0x19
 6356 0d87 73323300 		.ascii	"s23\000"
 6357 0d8b 0F       		.byte	0xf
 6358 0d8c FD       		.byte	0xfd
 6359 0d8d F70C0000 		.4byte	0xcf7
 6360 0d91 1C       		.byte	0x1c
 6361 0d92 19       		.uleb128 0x19
 6362 0d93 73323400 		.ascii	"s24\000"
 6363 0d97 0F       		.byte	0xf
 6364 0d98 FE       		.byte	0xfe
 6365 0d99 F70C0000 		.4byte	0xcf7
 6366 0d9d 20       		.byte	0x20
 6367 0d9e 19       		.uleb128 0x19
 6368 0d9f 73323500 		.ascii	"s25\000"
 6369 0da3 0F       		.byte	0xf
 6370 0da4 FF       		.byte	0xff
 6371 0da5 F70C0000 		.4byte	0xcf7
 6372 0da9 24       		.byte	0x24
 6373 0daa 09       		.uleb128 0x9
 6374 0dab 73323600 		.ascii	"s26\000"
ARM GAS  /tmp/ccB9eNXv.s 			page 113


 6375 0daf 0F       		.byte	0xf
 6376 0db0 0001     		.2byte	0x100
 6377 0db2 F70C0000 		.4byte	0xcf7
 6378 0db6 28       		.byte	0x28
 6379 0db7 09       		.uleb128 0x9
 6380 0db8 73323700 		.ascii	"s27\000"
 6381 0dbc 0F       		.byte	0xf
 6382 0dbd 0101     		.2byte	0x101
 6383 0dbf F70C0000 		.4byte	0xcf7
 6384 0dc3 2C       		.byte	0x2c
 6385 0dc4 09       		.uleb128 0x9
 6386 0dc5 73323800 		.ascii	"s28\000"
 6387 0dc9 0F       		.byte	0xf
 6388 0dca 0201     		.2byte	0x102
 6389 0dcc F70C0000 		.4byte	0xcf7
 6390 0dd0 30       		.byte	0x30
 6391 0dd1 09       		.uleb128 0x9
 6392 0dd2 73323900 		.ascii	"s29\000"
 6393 0dd6 0F       		.byte	0xf
 6394 0dd7 0301     		.2byte	0x103
 6395 0dd9 F70C0000 		.4byte	0xcf7
 6396 0ddd 34       		.byte	0x34
 6397 0dde 09       		.uleb128 0x9
 6398 0ddf 73333000 		.ascii	"s30\000"
 6399 0de3 0F       		.byte	0xf
 6400 0de4 0401     		.2byte	0x104
 6401 0de6 F70C0000 		.4byte	0xcf7
 6402 0dea 38       		.byte	0x38
 6403 0deb 09       		.uleb128 0x9
 6404 0dec 73333100 		.ascii	"s31\000"
 6405 0df0 0F       		.byte	0xf
 6406 0df1 0501     		.2byte	0x105
 6407 0df3 F70C0000 		.4byte	0xcf7
 6408 0df7 3C       		.byte	0x3c
 6409 0df8 09       		.uleb128 0x9
 6410 0df9 723400   		.ascii	"r4\000"
 6411 0dfc 0F       		.byte	0xf
 6412 0dfd 0701     		.2byte	0x107
 6413 0dff F70C0000 		.4byte	0xcf7
 6414 0e03 40       		.byte	0x40
 6415 0e04 09       		.uleb128 0x9
 6416 0e05 723500   		.ascii	"r5\000"
 6417 0e08 0F       		.byte	0xf
 6418 0e09 0801     		.2byte	0x108
 6419 0e0b F70C0000 		.4byte	0xcf7
 6420 0e0f 44       		.byte	0x44
 6421 0e10 09       		.uleb128 0x9
 6422 0e11 723600   		.ascii	"r6\000"
 6423 0e14 0F       		.byte	0xf
 6424 0e15 0901     		.2byte	0x109
 6425 0e17 F70C0000 		.4byte	0xcf7
 6426 0e1b 48       		.byte	0x48
 6427 0e1c 09       		.uleb128 0x9
 6428 0e1d 723700   		.ascii	"r7\000"
 6429 0e20 0F       		.byte	0xf
 6430 0e21 0A01     		.2byte	0x10a
 6431 0e23 F70C0000 		.4byte	0xcf7
ARM GAS  /tmp/ccB9eNXv.s 			page 114


 6432 0e27 4C       		.byte	0x4c
 6433 0e28 09       		.uleb128 0x9
 6434 0e29 723800   		.ascii	"r8\000"
 6435 0e2c 0F       		.byte	0xf
 6436 0e2d 0B01     		.2byte	0x10b
 6437 0e2f F70C0000 		.4byte	0xcf7
 6438 0e33 50       		.byte	0x50
 6439 0e34 09       		.uleb128 0x9
 6440 0e35 723900   		.ascii	"r9\000"
 6441 0e38 0F       		.byte	0xf
 6442 0e39 0C01     		.2byte	0x10c
 6443 0e3b F70C0000 		.4byte	0xcf7
 6444 0e3f 54       		.byte	0x54
 6445 0e40 09       		.uleb128 0x9
 6446 0e41 72313000 		.ascii	"r10\000"
 6447 0e45 0F       		.byte	0xf
 6448 0e46 0D01     		.2byte	0x10d
 6449 0e48 F70C0000 		.4byte	0xcf7
 6450 0e4c 58       		.byte	0x58
 6451 0e4d 09       		.uleb128 0x9
 6452 0e4e 72313100 		.ascii	"r11\000"
 6453 0e52 0F       		.byte	0xf
 6454 0e53 0E01     		.2byte	0x10e
 6455 0e55 F70C0000 		.4byte	0xcf7
 6456 0e59 5C       		.byte	0x5c
 6457 0e5a 09       		.uleb128 0x9
 6458 0e5b 6C7200   		.ascii	"lr\000"
 6459 0e5e 0F       		.byte	0xf
 6460 0e5f 0F01     		.2byte	0x10f
 6461 0e61 F70C0000 		.4byte	0xcf7
 6462 0e65 60       		.byte	0x60
 6463 0e66 00       		.byte	0
 6464 0e67 0B       		.uleb128 0xb
 6465 0e68 04       		.byte	0x4
 6466 0e69 260D0000 		.4byte	0xd26
 6467 0e6d 18       		.uleb128 0x18
 6468 0e6e 04       		.byte	0x4
 6469 0e6f 10       		.byte	0x10
 6470 0e70 38       		.byte	0x38
 6471 0e71 820E0000 		.4byte	0xe82
 6472 0e75 08       		.uleb128 0x8
 6473 0e76 AF250000 		.4byte	.LASF241
 6474 0e7a 10       		.byte	0x10
 6475 0e7b 3C       		.byte	0x3c
 6476 0e7c 22010000 		.4byte	0x122
 6477 0e80 00       		.byte	0
 6478 0e81 00       		.byte	0
 6479 0e82 03       		.uleb128 0x3
 6480 0e83 8D2A0000 		.4byte	.LASF242
 6481 0e87 10       		.byte	0x10
 6482 0e88 3D       		.byte	0x3d
 6483 0e89 6D0E0000 		.4byte	0xe6d
 6484 0e8d 1F       		.uleb128 0x1f
 6485 0e8e 04       		.byte	0x4
 6486 0e8f 09       		.byte	0x9
 6487 0e90 FA       		.byte	0xfa
 6488 0e91 EA0E0000 		.4byte	0xeea
ARM GAS  /tmp/ccB9eNXv.s 			page 115


 6489 0e95 20       		.uleb128 0x20
 6490 0e96 67130000 		.4byte	.LASF243
 6491 0e9a 09       		.byte	0x9
 6492 0e9b 0101     		.2byte	0x101
 6493 0e9d 64010000 		.4byte	0x164
 6494 0ea1 20       		.uleb128 0x20
 6495 0ea2 5F090000 		.4byte	.LASF244
 6496 0ea6 09       		.byte	0x9
 6497 0ea7 0801     		.2byte	0x108
 6498 0ea9 64010000 		.4byte	0x164
 6499 0ead 20       		.uleb128 0x20
 6500 0eae 09220000 		.4byte	.LASF245
 6501 0eb2 09       		.byte	0x9
 6502 0eb3 0F01     		.2byte	0x10f
 6503 0eb5 B1030000 		.4byte	0x3b1
 6504 0eb9 20       		.uleb128 0x20
 6505 0eba 7F1C0000 		.4byte	.LASF246
 6506 0ebe 09       		.byte	0x9
 6507 0ebf 1601     		.2byte	0x116
 6508 0ec1 EA0E0000 		.4byte	0xeea
 6509 0ec5 20       		.uleb128 0x20
 6510 0ec6 39010000 		.4byte	.LASF247
 6511 0eca 09       		.byte	0x9
 6512 0ecb 1E01     		.2byte	0x11e
 6513 0ecd 150F0000 		.4byte	0xf15
 6514 0ed1 20       		.uleb128 0x20
 6515 0ed2 3F220000 		.4byte	.LASF248
 6516 0ed6 09       		.byte	0x9
 6517 0ed7 2701     		.2byte	0x127
 6518 0ed9 4C0F0000 		.4byte	0xf4c
 6519 0edd 20       		.uleb128 0x20
 6520 0ede 82260000 		.4byte	.LASF249
 6521 0ee2 09       		.byte	0x9
 6522 0ee3 2F01     		.2byte	0x12f
 6523 0ee5 6F010000 		.4byte	0x16f
 6524 0ee9 00       		.byte	0
 6525 0eea 0B       		.uleb128 0xb
 6526 0eeb 04       		.byte	0x4
 6527 0eec C9020000 		.4byte	0x2c9
 6528 0ef0 07       		.uleb128 0x7
 6529 0ef1 971A0000 		.4byte	.LASF250
 6530 0ef5 0C       		.byte	0xc
 6531 0ef6 11       		.byte	0x11
 6532 0ef7 34       		.byte	0x34
 6533 0ef8 150F0000 		.4byte	0xf15
 6534 0efc 08       		.uleb128 0x8
 6535 0efd 41280000 		.4byte	.LASF251
 6536 0f01 11       		.byte	0x11
 6537 0f02 35       		.byte	0x35
 6538 0f03 FE020000 		.4byte	0x2fe
 6539 0f07 00       		.byte	0
 6540 0f08 08       		.uleb128 0x8
 6541 0f09 E80A0000 		.4byte	.LASF252
 6542 0f0d 11       		.byte	0x11
 6543 0f0e 37       		.byte	0x37
 6544 0f0f 85010000 		.4byte	0x185
 6545 0f13 08       		.byte	0x8
ARM GAS  /tmp/ccB9eNXv.s 			page 116


 6546 0f14 00       		.byte	0
 6547 0f15 0B       		.uleb128 0xb
 6548 0f16 04       		.byte	0x4
 6549 0f17 F00E0000 		.4byte	0xef0
 6550 0f1b 07       		.uleb128 0x7
 6551 0f1c 8F0D0000 		.4byte	.LASF253
 6552 0f20 10       		.byte	0x10
 6553 0f21 12       		.byte	0x12
 6554 0f22 39       		.byte	0x39
 6555 0f23 4C0F0000 		.4byte	0xf4c
 6556 0f27 08       		.uleb128 0x8
 6557 0f28 D31B0000 		.4byte	.LASF254
 6558 0f2c 12       		.byte	0x12
 6559 0f2d 3A       		.byte	0x3a
 6560 0f2e FE020000 		.4byte	0x2fe
 6561 0f32 00       		.byte	0
 6562 0f33 08       		.uleb128 0x8
 6563 0f34 6B190000 		.4byte	.LASF255
 6564 0f38 12       		.byte	0x12
 6565 0f39 3C       		.byte	0x3c
 6566 0f3a D4020000 		.4byte	0x2d4
 6567 0f3e 08       		.byte	0x8
 6568 0f3f 08       		.uleb128 0x8
 6569 0f40 67020000 		.4byte	.LASF256
 6570 0f44 12       		.byte	0x12
 6571 0f45 3E       		.byte	0x3e
 6572 0f46 A7100000 		.4byte	0x10a7
 6573 0f4a 0C       		.byte	0xc
 6574 0f4b 00       		.byte	0
 6575 0f4c 0B       		.uleb128 0xb
 6576 0f4d 04       		.byte	0x4
 6577 0f4e 1B0F0000 		.4byte	0xf1b
 6578 0f52 0B       		.uleb128 0xb
 6579 0f53 04       		.byte	0x4
 6580 0f54 640F0000 		.4byte	0xf64
 6581 0f58 06       		.uleb128 0x6
 6582 0f59 520F0000 		.4byte	0xf52
 6583 0f5d 02       		.uleb128 0x2
 6584 0f5e 01       		.byte	0x1
 6585 0f5f 08       		.byte	0x8
 6586 0f60 961E0000 		.4byte	.LASF257
 6587 0f64 05       		.uleb128 0x5
 6588 0f65 5D0F0000 		.4byte	0xf5d
 6589 0f69 0B       		.uleb128 0xb
 6590 0f6a 04       		.byte	0x4
 6591 0f6b 020D0000 		.4byte	0xd02
 6592 0f6f 0B       		.uleb128 0xb
 6593 0f70 04       		.byte	0x4
 6594 0f71 B3030000 		.4byte	0x3b3
 6595 0f75 14       		.uleb128 0x14
 6596 0f76 020D0000 		.4byte	0xd02
 6597 0f7a 850F0000 		.4byte	0xf85
 6598 0f7e 15       		.uleb128 0x15
 6599 0f7f 25000000 		.4byte	0x25
 6600 0f83 3B       		.byte	0x3b
 6601 0f84 00       		.byte	0
 6602 0f85 21       		.uleb128 0x21
ARM GAS  /tmp/ccB9eNXv.s 			page 117


 6603 0f86 636800   		.ascii	"ch\000"
 6604 0f89 09       		.byte	0x9
 6605 0f8a 0902     		.2byte	0x209
 6606 0f8c 80040000 		.4byte	0x480
 6607 0f90 18       		.uleb128 0x18
 6608 0f91 16       		.byte	0x16
 6609 0f92 03       		.byte	0x3
 6610 0f93 34       		.byte	0x34
 6611 0f94 71100000 		.4byte	0x1071
 6612 0f98 08       		.uleb128 0x8
 6613 0f99 7A280000 		.4byte	.LASF258
 6614 0f9d 03       		.byte	0x3
 6615 0f9e 35       		.byte	0x35
 6616 0f9f 71100000 		.4byte	0x1071
 6617 0fa3 00       		.byte	0
 6618 0fa4 08       		.uleb128 0x8
 6619 0fa5 572B0000 		.4byte	.LASF259
 6620 0fa9 03       		.byte	0x3
 6621 0faa 36       		.byte	0x36
 6622 0fab B2000000 		.4byte	0xb2
 6623 0faf 04       		.byte	0x4
 6624 0fb0 08       		.uleb128 0x8
 6625 0fb1 13040000 		.4byte	.LASF260
 6626 0fb5 03       		.byte	0x3
 6627 0fb6 37       		.byte	0x37
 6628 0fb7 B2000000 		.4byte	0xb2
 6629 0fbb 05       		.byte	0x5
 6630 0fbc 08       		.uleb128 0x8
 6631 0fbd B4190000 		.4byte	.LASF261
 6632 0fc1 03       		.byte	0x3
 6633 0fc2 38       		.byte	0x38
 6634 0fc3 D2000000 		.4byte	0xd2
 6635 0fc7 06       		.byte	0x6
 6636 0fc8 08       		.uleb128 0x8
 6637 0fc9 3E000000 		.4byte	.LASF262
 6638 0fcd 03       		.byte	0x3
 6639 0fce 39       		.byte	0x39
 6640 0fcf B2000000 		.4byte	0xb2
 6641 0fd3 08       		.byte	0x8
 6642 0fd4 08       		.uleb128 0x8
 6643 0fd5 82170000 		.4byte	.LASF263
 6644 0fd9 03       		.byte	0x3
 6645 0fda 3A       		.byte	0x3a
 6646 0fdb B2000000 		.4byte	0xb2
 6647 0fdf 09       		.byte	0x9
 6648 0fe0 08       		.uleb128 0x8
 6649 0fe1 D92A0000 		.4byte	.LASF264
 6650 0fe5 03       		.byte	0x3
 6651 0fe6 3B       		.byte	0x3b
 6652 0fe7 B2000000 		.4byte	0xb2
 6653 0feb 0A       		.byte	0xa
 6654 0fec 08       		.uleb128 0x8
 6655 0fed B5280000 		.4byte	.LASF265
 6656 0ff1 03       		.byte	0x3
 6657 0ff2 3C       		.byte	0x3c
 6658 0ff3 B2000000 		.4byte	0xb2
 6659 0ff7 0B       		.byte	0xb
ARM GAS  /tmp/ccB9eNXv.s 			page 118


 6660 0ff8 08       		.uleb128 0x8
 6661 0ff9 3B070000 		.4byte	.LASF266
 6662 0ffd 03       		.byte	0x3
 6663 0ffe 3D       		.byte	0x3d
 6664 0fff B2000000 		.4byte	0xb2
 6665 1003 0C       		.byte	0xc
 6666 1004 08       		.uleb128 0x8
 6667 1005 E90E0000 		.4byte	.LASF267
 6668 1009 03       		.byte	0x3
 6669 100a 3E       		.byte	0x3e
 6670 100b B2000000 		.4byte	0xb2
 6671 100f 0D       		.byte	0xd
 6672 1010 08       		.uleb128 0x8
 6673 1011 74070000 		.4byte	.LASF268
 6674 1015 03       		.byte	0x3
 6675 1016 3F       		.byte	0x3f
 6676 1017 B2000000 		.4byte	0xb2
 6677 101b 0E       		.byte	0xe
 6678 101c 08       		.uleb128 0x8
 6679 101d BF100000 		.4byte	.LASF269
 6680 1021 03       		.byte	0x3
 6681 1022 40       		.byte	0x40
 6682 1023 B2000000 		.4byte	0xb2
 6683 1027 0F       		.byte	0xf
 6684 1028 08       		.uleb128 0x8
 6685 1029 12050000 		.4byte	.LASF270
 6686 102d 03       		.byte	0x3
 6687 102e 41       		.byte	0x41
 6688 102f B2000000 		.4byte	0xb2
 6689 1033 10       		.byte	0x10
 6690 1034 08       		.uleb128 0x8
 6691 1035 0F0A0000 		.4byte	.LASF271
 6692 1039 03       		.byte	0x3
 6693 103a 43       		.byte	0x43
 6694 103b B2000000 		.4byte	0xb2
 6695 103f 11       		.byte	0x11
 6696 1040 08       		.uleb128 0x8
 6697 1041 B0030000 		.4byte	.LASF272
 6698 1045 03       		.byte	0x3
 6699 1046 44       		.byte	0x44
 6700 1047 B2000000 		.4byte	0xb2
 6701 104b 12       		.byte	0x12
 6702 104c 08       		.uleb128 0x8
 6703 104d 51190000 		.4byte	.LASF273
 6704 1051 03       		.byte	0x3
 6705 1052 45       		.byte	0x45
 6706 1053 B2000000 		.4byte	0xb2
 6707 1057 13       		.byte	0x13
 6708 1058 08       		.uleb128 0x8
 6709 1059 32210000 		.4byte	.LASF274
 6710 105d 03       		.byte	0x3
 6711 105e 46       		.byte	0x46
 6712 105f B2000000 		.4byte	0xb2
 6713 1063 14       		.byte	0x14
 6714 1064 08       		.uleb128 0x8
 6715 1065 17010000 		.4byte	.LASF275
 6716 1069 03       		.byte	0x3
ARM GAS  /tmp/ccB9eNXv.s 			page 119


 6717 106a 48       		.byte	0x48
 6718 106b B2000000 		.4byte	0xb2
 6719 106f 15       		.byte	0x15
 6720 1070 00       		.byte	0
 6721 1071 14       		.uleb128 0x14
 6722 1072 5D0F0000 		.4byte	0xf5d
 6723 1076 81100000 		.4byte	0x1081
 6724 107a 15       		.uleb128 0x15
 6725 107b 25000000 		.4byte	0x25
 6726 107f 03       		.byte	0x3
 6727 1080 00       		.byte	0
 6728 1081 03       		.uleb128 0x3
 6729 1082 06170000 		.4byte	.LASF276
 6730 1086 03       		.byte	0x3
 6731 1087 49       		.byte	0x49
 6732 1088 900F0000 		.4byte	0xf90
 6733 108c 05       		.uleb128 0x5
 6734 108d 81100000 		.4byte	0x1081
 6735 1091 17       		.uleb128 0x17
 6736 1092 C10C0000 		.4byte	.LASF277
 6737 1096 03       		.byte	0x3
 6738 1097 6E       		.byte	0x6e
 6739 1098 8C100000 		.4byte	0x108c
 6740 109c 03       		.uleb128 0x3
 6741 109d 06240000 		.4byte	.LASF278
 6742 10a1 12       		.byte	0x12
 6743 10a2 34       		.byte	0x34
 6744 10a3 1B0F0000 		.4byte	0xf1b
 6745 10a7 0B       		.uleb128 0xb
 6746 10a8 04       		.byte	0x4
 6747 10a9 9C100000 		.4byte	0x109c
 6748 10ad 03       		.uleb128 0x3
 6749 10ae 070D0000 		.4byte	.LASF279
 6750 10b2 13       		.byte	0x13
 6751 10b3 34       		.byte	0x34
 6752 10b4 B8100000 		.4byte	0x10b8
 6753 10b8 07       		.uleb128 0x7
 6754 10b9 D10A0000 		.4byte	.LASF280
 6755 10bd 14       		.byte	0x14
 6756 10be 13       		.byte	0x13
 6757 10bf 39       		.byte	0x39
 6758 10c0 01110000 		.4byte	0x1101
 6759 10c4 08       		.uleb128 0x8
 6760 10c5 1D030000 		.4byte	.LASF281
 6761 10c9 13       		.byte	0x13
 6762 10ca 3A       		.byte	0x3a
 6763 10cb 01110000 		.4byte	0x1101
 6764 10cf 00       		.byte	0
 6765 10d0 08       		.uleb128 0x8
 6766 10d1 79060000 		.4byte	.LASF282
 6767 10d5 13       		.byte	0x13
 6768 10d6 3D       		.byte	0x3d
 6769 10d7 D4020000 		.4byte	0x2d4
 6770 10db 04       		.byte	0x4
 6771 10dc 08       		.uleb128 0x8
 6772 10dd AA040000 		.4byte	.LASF283
 6773 10e1 13       		.byte	0x13
ARM GAS  /tmp/ccB9eNXv.s 			page 120


 6774 10e2 3F       		.byte	0x3f
 6775 10e3 6F010000 		.4byte	0x16f
 6776 10e7 08       		.byte	0x8
 6777 10e8 08       		.uleb128 0x8
 6778 10e9 98260000 		.4byte	.LASF284
 6779 10ed 13       		.byte	0x13
 6780 10ee 41       		.byte	0x41
 6781 10ef 7A010000 		.4byte	0x17a
 6782 10f3 0C       		.byte	0xc
 6783 10f4 08       		.uleb128 0x8
 6784 10f5 0B110000 		.4byte	.LASF285
 6785 10f9 13       		.byte	0x13
 6786 10fa 43       		.byte	0x43
 6787 10fb 7A010000 		.4byte	0x17a
 6788 10ff 10       		.byte	0x10
 6789 1100 00       		.byte	0
 6790 1101 0B       		.uleb128 0xb
 6791 1102 04       		.byte	0x4
 6792 1103 AD100000 		.4byte	0x10ad
 6793 1107 07       		.uleb128 0x7
 6794 1108 A1260000 		.4byte	.LASF286
 6795 110c 04       		.byte	0x4
 6796 110d 13       		.byte	0x13
 6797 110e 4A       		.byte	0x4a
 6798 110f 20110000 		.4byte	0x1120
 6799 1113 08       		.uleb128 0x8
 6800 1114 E8250000 		.4byte	.LASF287
 6801 1118 13       		.byte	0x13
 6802 1119 4B       		.byte	0x4b
 6803 111a 01110000 		.4byte	0x1101
 6804 111e 00       		.byte	0
 6805 111f 00       		.byte	0
 6806 1120 03       		.uleb128 0x3
 6807 1121 9F170000 		.4byte	.LASF288
 6808 1125 13       		.byte	0x13
 6809 1126 4E       		.byte	0x4e
 6810 1127 07110000 		.4byte	0x1107
 6811 112b 03       		.uleb128 0x3
 6812 112c 45110000 		.4byte	.LASF289
 6813 1130 14       		.byte	0x14
 6814 1131 3F       		.byte	0x3f
 6815 1132 36110000 		.4byte	0x1136
 6816 1136 07       		.uleb128 0x7
 6817 1137 D5130000 		.4byte	.LASF290
 6818 113b 24       		.byte	0x24
 6819 113c 14       		.byte	0x14
 6820 113d 4D       		.byte	0x4d
 6821 113e A3110000 		.4byte	0x11a3
 6822 1142 08       		.uleb128 0x8
 6823 1143 50250000 		.4byte	.LASF291
 6824 1147 14       		.byte	0x14
 6825 1148 4E       		.byte	0x4e
 6826 1149 FE020000 		.4byte	0x2fe
 6827 114d 00       		.byte	0
 6828 114e 08       		.uleb128 0x8
 6829 114f 84230000 		.4byte	.LASF292
 6830 1153 14       		.byte	0x14
ARM GAS  /tmp/ccB9eNXv.s 			page 121


 6831 1154 4F       		.byte	0x4f
 6832 1155 1D010000 		.4byte	0x11d
 6833 1159 08       		.byte	0x8
 6834 115a 08       		.uleb128 0x8
 6835 115b B9140000 		.4byte	.LASF293
 6836 115f 14       		.byte	0x14
 6837 1160 50       		.byte	0x50
 6838 1161 C5110000 		.4byte	0x11c5
 6839 1165 0C       		.byte	0xc
 6840 1166 08       		.uleb128 0x8
 6841 1167 F0050000 		.4byte	.LASF294
 6842 116b 14       		.byte	0x14
 6843 116c 51       		.byte	0x51
 6844 116d C5110000 		.4byte	0x11c5
 6845 1171 10       		.byte	0x10
 6846 1172 08       		.uleb128 0x8
 6847 1173 1B1E0000 		.4byte	.LASF295
 6848 1177 14       		.byte	0x14
 6849 1178 53       		.byte	0x53
 6850 1179 C5110000 		.4byte	0x11c5
 6851 117d 14       		.byte	0x14
 6852 117e 08       		.uleb128 0x8
 6853 117f 851C0000 		.4byte	.LASF296
 6854 1183 14       		.byte	0x14
 6855 1184 54       		.byte	0x54
 6856 1185 C5110000 		.4byte	0x11c5
 6857 1189 18       		.byte	0x18
 6858 118a 08       		.uleb128 0x8
 6859 118b 36220000 		.4byte	.LASF297
 6860 118f 14       		.byte	0x14
 6861 1190 55       		.byte	0x55
 6862 1191 A3110000 		.4byte	0x11a3
 6863 1195 1C       		.byte	0x1c
 6864 1196 08       		.uleb128 0x8
 6865 1197 F11E0000 		.4byte	.LASF298
 6866 119b 14       		.byte	0x14
 6867 119c 56       		.byte	0x56
 6868 119d B1030000 		.4byte	0x3b1
 6869 11a1 20       		.byte	0x20
 6870 11a2 00       		.byte	0
 6871 11a3 03       		.uleb128 0x3
 6872 11a4 D0050000 		.4byte	.LASF299
 6873 11a8 14       		.byte	0x14
 6874 11a9 42       		.byte	0x42
 6875 11aa AE110000 		.4byte	0x11ae
 6876 11ae 0B       		.uleb128 0xb
 6877 11af 04       		.byte	0x4
 6878 11b0 B4110000 		.4byte	0x11b4
 6879 11b4 0D       		.uleb128 0xd
 6880 11b5 BF110000 		.4byte	0x11bf
 6881 11b9 0E       		.uleb128 0xe
 6882 11ba BF110000 		.4byte	0x11bf
 6883 11be 00       		.byte	0
 6884 11bf 0B       		.uleb128 0xb
 6885 11c0 04       		.byte	0x4
 6886 11c1 2B110000 		.4byte	0x112b
 6887 11c5 0B       		.uleb128 0xb
ARM GAS  /tmp/ccB9eNXv.s 			page 122


 6888 11c6 04       		.byte	0x4
 6889 11c7 B2000000 		.4byte	0xb2
 6890 11cb 03       		.uleb128 0x3
 6891 11cc 46070000 		.4byte	.LASF300
 6892 11d0 14       		.byte	0x14
 6893 11d1 64       		.byte	0x64
 6894 11d2 2B110000 		.4byte	0x112b
 6895 11d6 03       		.uleb128 0x3
 6896 11d7 BF2B0000 		.4byte	.LASF301
 6897 11db 14       		.byte	0x14
 6898 11dc 71       		.byte	0x71
 6899 11dd 2B110000 		.4byte	0x112b
 6900 11e1 22       		.uleb128 0x22
 6901 11e2 12010000 		.4byte	0x112
 6902 11e6 FA110000 		.4byte	0x11fa
 6903 11ea 0E       		.uleb128 0xe
 6904 11eb B1030000 		.4byte	0x3b1
 6905 11ef 0E       		.uleb128 0xe
 6906 11f0 FA110000 		.4byte	0x11fa
 6907 11f4 0E       		.uleb128 0xe
 6908 11f5 12010000 		.4byte	0x112
 6909 11f9 00       		.byte	0
 6910 11fa 0B       		.uleb128 0xb
 6911 11fb 04       		.byte	0x4
 6912 11fc C2000000 		.4byte	0xc2
 6913 1200 0B       		.uleb128 0xb
 6914 1201 04       		.byte	0x4
 6915 1202 E1110000 		.4byte	0x11e1
 6916 1206 22       		.uleb128 0x22
 6917 1207 12010000 		.4byte	0x112
 6918 120b 1F120000 		.4byte	0x121f
 6919 120f 0E       		.uleb128 0xe
 6920 1210 B1030000 		.4byte	0x3b1
 6921 1214 0E       		.uleb128 0xe
 6922 1215 C5110000 		.4byte	0x11c5
 6923 1219 0E       		.uleb128 0xe
 6924 121a 12010000 		.4byte	0x112
 6925 121e 00       		.byte	0
 6926 121f 0B       		.uleb128 0xb
 6927 1220 04       		.byte	0x4
 6928 1221 06120000 		.4byte	0x1206
 6929 1225 22       		.uleb128 0x22
 6930 1226 64010000 		.4byte	0x164
 6931 122a 39120000 		.4byte	0x1239
 6932 122e 0E       		.uleb128 0xe
 6933 122f B1030000 		.4byte	0x3b1
 6934 1233 0E       		.uleb128 0xe
 6935 1234 B2000000 		.4byte	0xb2
 6936 1238 00       		.byte	0
 6937 1239 0B       		.uleb128 0xb
 6938 123a 04       		.byte	0x4
 6939 123b 25120000 		.4byte	0x1225
 6940 123f 22       		.uleb128 0x22
 6941 1240 64010000 		.4byte	0x164
 6942 1244 4E120000 		.4byte	0x124e
 6943 1248 0E       		.uleb128 0xe
 6944 1249 B1030000 		.4byte	0x3b1
ARM GAS  /tmp/ccB9eNXv.s 			page 123


 6945 124d 00       		.byte	0
 6946 124e 0B       		.uleb128 0xb
 6947 124f 04       		.byte	0x4
 6948 1250 3F120000 		.4byte	0x123f
 6949 1254 02       		.uleb128 0x2
 6950 1255 04       		.byte	0x4
 6951 1256 04       		.byte	0x4
 6952 1257 720B0000 		.4byte	.LASF302
 6953 125b 06       		.uleb128 0x6
 6954 125c 54120000 		.4byte	0x1254
 6955 1260 05       		.uleb128 0x5
 6956 1261 54120000 		.4byte	0x1254
 6957 1265 02       		.uleb128 0x2
 6958 1266 01       		.byte	0x1
 6959 1267 02       		.byte	0x2
 6960 1268 52010000 		.4byte	.LASF303
 6961 126c 06       		.uleb128 0x6
 6962 126d 65120000 		.4byte	0x1265
 6963 1271 14       		.uleb128 0x14
 6964 1272 B2000000 		.4byte	0xb2
 6965 1276 81120000 		.4byte	0x1281
 6966 127a 15       		.uleb128 0x15
 6967 127b 25000000 		.4byte	0x25
 6968 127f 07       		.byte	0x7
 6969 1280 00       		.byte	0
 6970 1281 14       		.uleb128 0x14
 6971 1282 3E000000 		.4byte	0x3e
 6972 1286 91120000 		.4byte	0x1291
 6973 128a 15       		.uleb128 0x15
 6974 128b 25000000 		.4byte	0x25
 6975 128f 02       		.byte	0x2
 6976 1290 00       		.byte	0
 6977 1291 1A       		.uleb128 0x1a
 6978 1292 0E       		.byte	0xe
 6979 1293 15       		.byte	0x15
 6980 1294 4903     		.2byte	0x349
 6981 1296 1D130000 		.4byte	0x131d
 6982 129a 0A       		.uleb128 0xa
 6983 129b 99090000 		.4byte	.LASF304
 6984 129f 15       		.byte	0x15
 6985 12a0 4A03     		.2byte	0x34a
 6986 12a2 B2000000 		.4byte	0xb2
 6987 12a6 00       		.byte	0
 6988 12a7 0A       		.uleb128 0xa
 6989 12a8 311F0000 		.4byte	.LASF305
 6990 12ac 15       		.byte	0x15
 6991 12ad 4B03     		.2byte	0x34b
 6992 12af B2000000 		.4byte	0xb2
 6993 12b3 01       		.byte	0x1
 6994 12b4 0A       		.uleb128 0xa
 6995 12b5 E0280000 		.4byte	.LASF306
 6996 12b9 15       		.byte	0x15
 6997 12ba 4C03     		.2byte	0x34c
 6998 12bc D2000000 		.4byte	0xd2
 6999 12c0 02       		.byte	0x2
 7000 12c1 0A       		.uleb128 0xa
 7001 12c2 3B1F0000 		.4byte	.LASF307
ARM GAS  /tmp/ccB9eNXv.s 			page 124


 7002 12c6 15       		.byte	0x15
 7003 12c7 4D03     		.2byte	0x34d
 7004 12c9 B2000000 		.4byte	0xb2
 7005 12cd 04       		.byte	0x4
 7006 12ce 0A       		.uleb128 0xa
 7007 12cf F6200000 		.4byte	.LASF308
 7008 12d3 15       		.byte	0x15
 7009 12d4 4E03     		.2byte	0x34e
 7010 12d6 B2000000 		.4byte	0xb2
 7011 12da 05       		.byte	0x5
 7012 12db 0A       		.uleb128 0xa
 7013 12dc 4B160000 		.4byte	.LASF309
 7014 12e0 15       		.byte	0x15
 7015 12e1 4F03     		.2byte	0x34f
 7016 12e3 B2000000 		.4byte	0xb2
 7017 12e7 06       		.byte	0x6
 7018 12e8 0A       		.uleb128 0xa
 7019 12e9 6C120000 		.4byte	.LASF310
 7020 12ed 15       		.byte	0x15
 7021 12ee 5003     		.2byte	0x350
 7022 12f0 B2000000 		.4byte	0xb2
 7023 12f4 07       		.byte	0x7
 7024 12f5 0A       		.uleb128 0xa
 7025 12f6 571C0000 		.4byte	.LASF311
 7026 12fa 15       		.byte	0x15
 7027 12fb 5103     		.2byte	0x351
 7028 12fd D2000000 		.4byte	0xd2
 7029 1301 08       		.byte	0x8
 7030 1302 0A       		.uleb128 0xa
 7031 1303 48290000 		.4byte	.LASF312
 7032 1307 15       		.byte	0x15
 7033 1308 5203     		.2byte	0x352
 7034 130a D2000000 		.4byte	0xd2
 7035 130e 0A       		.byte	0xa
 7036 130f 0A       		.uleb128 0xa
 7037 1310 E11A0000 		.4byte	.LASF313
 7038 1314 15       		.byte	0x15
 7039 1315 5303     		.2byte	0x353
 7040 1317 D2000000 		.4byte	0xd2
 7041 131b 0C       		.byte	0xc
 7042 131c 00       		.byte	0
 7043 131d 1B       		.uleb128 0x1b
 7044 131e E6040000 		.4byte	.LASF314
 7045 1322 15       		.byte	0x15
 7046 1323 5403     		.2byte	0x354
 7047 1325 91120000 		.4byte	0x1291
 7048 1329 02       		.uleb128 0x2
 7049 132a 08       		.byte	0x8
 7050 132b 04       		.byte	0x4
 7051 132c 60220000 		.4byte	.LASF315
 7052 1330 1A       		.uleb128 0x1a
 7053 1331 18       		.byte	0x18
 7054 1332 15       		.byte	0x15
 7055 1333 3D05     		.2byte	0x53d
 7056 1335 6E130000 		.4byte	0x136e
 7057 1339 0A       		.uleb128 0xa
 7058 133a BF190000 		.4byte	.LASF316
ARM GAS  /tmp/ccB9eNXv.s 			page 125


 7059 133e 15       		.byte	0x15
 7060 133f 3E05     		.2byte	0x53e
 7061 1341 F7000000 		.4byte	0xf7
 7062 1345 00       		.byte	0
 7063 1346 0A       		.uleb128 0xa
 7064 1347 E81E0000 		.4byte	.LASF317
 7065 134b 15       		.byte	0x15
 7066 134c 3F05     		.2byte	0x53f
 7067 134e 07010000 		.4byte	0x107
 7068 1352 04       		.byte	0x4
 7069 1353 0A       		.uleb128 0xa
 7070 1354 651E0000 		.4byte	.LASF318
 7071 1358 15       		.byte	0x15
 7072 1359 4105     		.2byte	0x541
 7073 135b F7000000 		.4byte	0xf7
 7074 135f 0C       		.byte	0xc
 7075 1360 0A       		.uleb128 0xa
 7076 1361 AF0B0000 		.4byte	.LASF319
 7077 1365 15       		.byte	0x15
 7078 1366 4205     		.2byte	0x542
 7079 1368 07010000 		.4byte	0x107
 7080 136c 10       		.byte	0x10
 7081 136d 00       		.byte	0
 7082 136e 1B       		.uleb128 0x1b
 7083 136f 7D1A0000 		.4byte	.LASF320
 7084 1373 15       		.byte	0x15
 7085 1374 4305     		.2byte	0x543
 7086 1376 30130000 		.4byte	0x1330
 7087 137a 06       		.uleb128 0x6
 7088 137b 6E130000 		.4byte	0x136e
 7089 137f 11       		.uleb128 0x11
 7090 1380 07       		.byte	0x7
 7091 1381 01       		.byte	0x1
 7092 1382 3E000000 		.4byte	0x3e
 7093 1386 16       		.byte	0x16
 7094 1387 37       		.byte	0x37
 7095 1388 99130000 		.4byte	0x1399
 7096 138c 13       		.uleb128 0x13
 7097 138d D7010000 		.4byte	.LASF321
 7098 1391 00       		.byte	0
 7099 1392 13       		.uleb128 0x13
 7100 1393 032C0000 		.4byte	.LASF322
 7101 1397 04       		.byte	0x4
 7102 1398 00       		.byte	0
 7103 1399 03       		.uleb128 0x3
 7104 139a 692A0000 		.4byte	.LASF323
 7105 139e 16       		.byte	0x16
 7106 139f 3A       		.byte	0x3a
 7107 13a0 7F130000 		.4byte	0x137f
 7108 13a4 11       		.uleb128 0x11
 7109 13a5 07       		.byte	0x7
 7110 13a6 01       		.byte	0x1
 7111 13a7 3E000000 		.4byte	0x3e
 7112 13ab 16       		.byte	0x16
 7113 13ac 43       		.byte	0x43
 7114 13ad C4130000 		.4byte	0x13c4
 7115 13b1 13       		.uleb128 0x13
ARM GAS  /tmp/ccB9eNXv.s 			page 126


 7116 13b2 96130000 		.4byte	.LASF324
 7117 13b6 08       		.byte	0x8
 7118 13b7 13       		.uleb128 0x13
 7119 13b8 C8110000 		.4byte	.LASF325
 7120 13bc 0C       		.byte	0xc
 7121 13bd 13       		.uleb128 0x13
 7122 13be F61F0000 		.4byte	.LASF326
 7123 13c2 10       		.byte	0x10
 7124 13c3 00       		.byte	0
 7125 13c4 03       		.uleb128 0x3
 7126 13c5 3C250000 		.4byte	.LASF327
 7127 13c9 16       		.byte	0x16
 7128 13ca 47       		.byte	0x47
 7129 13cb A4130000 		.4byte	0x13a4
 7130 13cf 18       		.uleb128 0x18
 7131 13d0 08       		.byte	0x8
 7132 13d1 16       		.byte	0x16
 7133 13d2 50       		.byte	0x50
 7134 13d3 08140000 		.4byte	0x1408
 7135 13d7 08       		.uleb128 0x8
 7136 13d8 36180000 		.4byte	.LASF328
 7137 13dc 16       		.byte	0x16
 7138 13dd 52       		.byte	0x52
 7139 13de F7000000 		.4byte	0xf7
 7140 13e2 00       		.byte	0
 7141 13e3 08       		.uleb128 0x8
 7142 13e4 79140000 		.4byte	.LASF329
 7143 13e8 16       		.byte	0x16
 7144 13e9 55       		.byte	0x55
 7145 13ea 99130000 		.4byte	0x1399
 7146 13ee 04       		.byte	0x4
 7147 13ef 08       		.uleb128 0x8
 7148 13f0 CF140000 		.4byte	.LASF330
 7149 13f4 16       		.byte	0x16
 7150 13f5 58       		.byte	0x58
 7151 13f6 C4130000 		.4byte	0x13c4
 7152 13fa 05       		.byte	0x5
 7153 13fb 08       		.uleb128 0x8
 7154 13fc 78110000 		.4byte	.LASF331
 7155 1400 16       		.byte	0x16
 7156 1401 5B       		.byte	0x5b
 7157 1402 EC0C0000 		.4byte	0xcec
 7158 1406 06       		.byte	0x6
 7159 1407 00       		.byte	0
 7160 1408 03       		.uleb128 0x3
 7161 1409 1B0C0000 		.4byte	.LASF332
 7162 140d 16       		.byte	0x16
 7163 140e 5D       		.byte	0x5d
 7164 140f CF130000 		.4byte	0x13cf
 7165 1413 18       		.uleb128 0x18
 7166 1414 0C       		.byte	0xc
 7167 1415 17       		.byte	0x17
 7168 1416 37       		.byte	0x37
 7169 1417 58140000 		.4byte	0x1458
 7170 141b 08       		.uleb128 0x8
 7171 141c 970F0000 		.4byte	.LASF333
 7172 1420 17       		.byte	0x17
ARM GAS  /tmp/ccB9eNXv.s 			page 127


 7173 1421 39       		.byte	0x39
 7174 1422 D2000000 		.4byte	0xd2
 7175 1426 00       		.byte	0
 7176 1427 08       		.uleb128 0x8
 7177 1428 DB1B0000 		.4byte	.LASF334
 7178 142c 17       		.byte	0x17
 7179 142d 3C       		.byte	0x3c
 7180 142e D2000000 		.4byte	0xd2
 7181 1432 02       		.byte	0x2
 7182 1433 08       		.uleb128 0x8
 7183 1434 2E0D0000 		.4byte	.LASF335
 7184 1438 17       		.byte	0x17
 7185 1439 3F       		.byte	0x3f
 7186 143a F7000000 		.4byte	0xf7
 7187 143e 04       		.byte	0x4
 7188 143f 08       		.uleb128 0x8
 7189 1440 DA030000 		.4byte	.LASF336
 7190 1444 17       		.byte	0x17
 7191 1445 43       		.byte	0x43
 7192 1446 D2000000 		.4byte	0xd2
 7193 144a 08       		.byte	0x8
 7194 144b 08       		.uleb128 0x8
 7195 144c C20B0000 		.4byte	.LASF337
 7196 1450 17       		.byte	0x17
 7197 1451 46       		.byte	0x46
 7198 1452 B2000000 		.4byte	0xb2
 7199 1456 0A       		.byte	0xa
 7200 1457 00       		.byte	0
 7201 1458 03       		.uleb128 0x3
 7202 1459 EB1B0000 		.4byte	.LASF338
 7203 145d 17       		.byte	0x17
 7204 145e 4E       		.byte	0x4e
 7205 145f 13140000 		.4byte	0x1413
 7206 1463 16       		.uleb128 0x16
 7207 1464 0E1D0000 		.4byte	.LASF339
 7208 1468 18       		.byte	0x18
 7209 1469 6201     		.2byte	0x162
 7210 146b 65120000 		.4byte	0x1265
 7211 146f 16       		.uleb128 0x16
 7212 1470 BF110000 		.4byte	.LASF340
 7213 1474 18       		.byte	0x18
 7214 1475 6301     		.2byte	0x163
 7215 1477 7A130000 		.4byte	0x137a
 7216 147b 18       		.uleb128 0x18
 7217 147c 0C       		.byte	0xc
 7218 147d 19       		.byte	0x19
 7219 147e DA       		.byte	0xda
 7220 147f C0140000 		.4byte	0x14c0
 7221 1483 08       		.uleb128 0x8
 7222 1484 442B0000 		.4byte	.LASF341
 7223 1488 19       		.byte	0x19
 7224 1489 DB       		.byte	0xdb
 7225 148a C0140000 		.4byte	0x14c0
 7226 148e 00       		.byte	0
 7227 148f 08       		.uleb128 0x8
 7228 1490 49130000 		.4byte	.LASF342
 7229 1494 19       		.byte	0x19
ARM GAS  /tmp/ccB9eNXv.s 			page 128


 7230 1495 DC       		.byte	0xdc
 7231 1496 C6140000 		.4byte	0x14c6
 7232 149a 04       		.byte	0x4
 7233 149b 08       		.uleb128 0x8
 7234 149c DA050000 		.4byte	.LASF343
 7235 14a0 19       		.byte	0x19
 7236 14a1 DD       		.byte	0xdd
 7237 14a2 B2000000 		.4byte	0xb2
 7238 14a6 08       		.byte	0x8
 7239 14a7 08       		.uleb128 0x8
 7240 14a8 FC230000 		.4byte	.LASF344
 7241 14ac 19       		.byte	0x19
 7242 14ad DF       		.byte	0xdf
 7243 14ae B2000000 		.4byte	0xb2
 7244 14b2 09       		.byte	0x9
 7245 14b3 08       		.uleb128 0x8
 7246 14b4 D7040000 		.4byte	.LASF345
 7247 14b8 19       		.byte	0x19
 7248 14b9 E0       		.byte	0xe0
 7249 14ba B2000000 		.4byte	0xb2
 7250 14be 0A       		.byte	0xa
 7251 14bf 00       		.byte	0
 7252 14c0 0B       		.uleb128 0xb
 7253 14c1 04       		.byte	0x4
 7254 14c2 D3090000 		.4byte	0x9d3
 7255 14c6 0B       		.uleb128 0xb
 7256 14c7 04       		.byte	0x4
 7257 14c8 02010000 		.4byte	0x102
 7258 14cc 03       		.uleb128 0x3
 7259 14cd 21060000 		.4byte	.LASF346
 7260 14d1 19       		.byte	0x19
 7261 14d2 E1       		.byte	0xe1
 7262 14d3 7B140000 		.4byte	0x147b
 7263 14d7 05       		.uleb128 0x5
 7264 14d8 CC140000 		.4byte	0x14cc
 7265 14dc 14       		.uleb128 0x14
 7266 14dd D7140000 		.4byte	0x14d7
 7267 14e1 EC140000 		.4byte	0x14ec
 7268 14e5 15       		.uleb128 0x15
 7269 14e6 25000000 		.4byte	0x25
 7270 14ea 0F       		.byte	0xf
 7271 14eb 00       		.byte	0
 7272 14ec 05       		.uleb128 0x5
 7273 14ed DC140000 		.4byte	0x14dc
 7274 14f1 16       		.uleb128 0x16
 7275 14f2 12200000 		.4byte	.LASF347
 7276 14f6 19       		.byte	0x19
 7277 14f7 BB01     		.2byte	0x1bb
 7278 14f9 EC140000 		.4byte	0x14ec
 7279 14fd 22       		.uleb128 0x22
 7280 14fe 64010000 		.4byte	0x164
 7281 1502 16150000 		.4byte	0x1516
 7282 1506 0E       		.uleb128 0xe
 7283 1507 B1030000 		.4byte	0x3b1
 7284 150b 0E       		.uleb128 0xe
 7285 150c B2000000 		.4byte	0xb2
 7286 1510 0E       		.uleb128 0xe
ARM GAS  /tmp/ccB9eNXv.s 			page 129


 7287 1511 90010000 		.4byte	0x190
 7288 1515 00       		.byte	0
 7289 1516 0B       		.uleb128 0xb
 7290 1517 04       		.byte	0x4
 7291 1518 FD140000 		.4byte	0x14fd
 7292 151c 22       		.uleb128 0x22
 7293 151d 64010000 		.4byte	0x164
 7294 1521 30150000 		.4byte	0x1530
 7295 1525 0E       		.uleb128 0xe
 7296 1526 B1030000 		.4byte	0x3b1
 7297 152a 0E       		.uleb128 0xe
 7298 152b 90010000 		.4byte	0x190
 7299 152f 00       		.byte	0
 7300 1530 0B       		.uleb128 0xb
 7301 1531 04       		.byte	0x4
 7302 1532 1C150000 		.4byte	0x151c
 7303 1536 22       		.uleb128 0x22
 7304 1537 12010000 		.4byte	0x112
 7305 153b 54150000 		.4byte	0x1554
 7306 153f 0E       		.uleb128 0xe
 7307 1540 B1030000 		.4byte	0x3b1
 7308 1544 0E       		.uleb128 0xe
 7309 1545 FA110000 		.4byte	0x11fa
 7310 1549 0E       		.uleb128 0xe
 7311 154a 12010000 		.4byte	0x112
 7312 154e 0E       		.uleb128 0xe
 7313 154f 90010000 		.4byte	0x190
 7314 1553 00       		.byte	0
 7315 1554 0B       		.uleb128 0xb
 7316 1555 04       		.byte	0x4
 7317 1556 36150000 		.4byte	0x1536
 7318 155a 22       		.uleb128 0x22
 7319 155b 12010000 		.4byte	0x112
 7320 155f 78150000 		.4byte	0x1578
 7321 1563 0E       		.uleb128 0xe
 7322 1564 B1030000 		.4byte	0x3b1
 7323 1568 0E       		.uleb128 0xe
 7324 1569 C5110000 		.4byte	0x11c5
 7325 156d 0E       		.uleb128 0xe
 7326 156e 12010000 		.4byte	0x112
 7327 1572 0E       		.uleb128 0xe
 7328 1573 90010000 		.4byte	0x190
 7329 1577 00       		.byte	0
 7330 1578 0B       		.uleb128 0xb
 7331 1579 04       		.byte	0x4
 7332 157a 5A150000 		.4byte	0x155a
 7333 157e 18       		.uleb128 0x18
 7334 157f 04       		.byte	0x4
 7335 1580 1A       		.byte	0x1a
 7336 1581 B3       		.byte	0xb3
 7337 1582 9F150000 		.4byte	0x159f
 7338 1586 19       		.uleb128 0x19
 7339 1587 73657400 		.ascii	"set\000"
 7340 158b 1A       		.byte	0x1a
 7341 158c B4       		.byte	0xb4
 7342 158d D2000000 		.4byte	0xd2
 7343 1591 00       		.byte	0
ARM GAS  /tmp/ccB9eNXv.s 			page 130


 7344 1592 08       		.uleb128 0x8
 7345 1593 26100000 		.4byte	.LASF348
 7346 1597 1A       		.byte	0x1a
 7347 1598 B5       		.byte	0xb5
 7348 1599 D2000000 		.4byte	0xd2
 7349 159d 02       		.byte	0x2
 7350 159e 00       		.byte	0
 7351 159f 1F       		.uleb128 0x1f
 7352 15a0 04       		.byte	0x4
 7353 15a1 1A       		.byte	0x1a
 7354 15a2 B1       		.byte	0xb1
 7355 15a3 BA150000 		.4byte	0x15ba
 7356 15a7 23       		.uleb128 0x23
 7357 15a8 5700     		.ascii	"W\000"
 7358 15aa 1A       		.byte	0x1a
 7359 15ab B2       		.byte	0xb2
 7360 15ac F7000000 		.4byte	0xf7
 7361 15b0 23       		.uleb128 0x23
 7362 15b1 4800     		.ascii	"H\000"
 7363 15b3 1A       		.byte	0x1a
 7364 15b4 B6       		.byte	0xb6
 7365 15b5 7E150000 		.4byte	0x157e
 7366 15b9 00       		.byte	0
 7367 15ba 06       		.uleb128 0x6
 7368 15bb 9F150000 		.4byte	0x159f
 7369 15bf 18       		.uleb128 0x18
 7370 15c0 2C       		.byte	0x2c
 7371 15c1 1A       		.byte	0x1a
 7372 15c2 A9       		.byte	0xa9
 7373 15c3 4C160000 		.4byte	0x164c
 7374 15c7 08       		.uleb128 0x8
 7375 15c8 2C240000 		.4byte	.LASF349
 7376 15cc 1A       		.byte	0x1a
 7377 15cd AB       		.byte	0xab
 7378 15ce 02010000 		.4byte	0x102
 7379 15d2 00       		.byte	0
 7380 15d3 08       		.uleb128 0x8
 7381 15d4 63040000 		.4byte	.LASF350
 7382 15d8 1A       		.byte	0x1a
 7383 15d9 AC       		.byte	0xac
 7384 15da 02010000 		.4byte	0x102
 7385 15de 04       		.byte	0x4
 7386 15df 08       		.uleb128 0x8
 7387 15e0 03120000 		.4byte	.LASF351
 7388 15e4 1A       		.byte	0x1a
 7389 15e5 AD       		.byte	0xad
 7390 15e6 02010000 		.4byte	0x102
 7391 15ea 08       		.byte	0x8
 7392 15eb 08       		.uleb128 0x8
 7393 15ec F8220000 		.4byte	.LASF352
 7394 15f0 1A       		.byte	0x1a
 7395 15f1 AE       		.byte	0xae
 7396 15f2 02010000 		.4byte	0x102
 7397 15f6 0C       		.byte	0xc
 7398 15f7 19       		.uleb128 0x19
 7399 15f8 49445200 		.ascii	"IDR\000"
 7400 15fc 1A       		.byte	0x1a
ARM GAS  /tmp/ccB9eNXv.s 			page 131


 7401 15fd AF       		.byte	0xaf
 7402 15fe 02010000 		.4byte	0x102
 7403 1602 10       		.byte	0x10
 7404 1603 19       		.uleb128 0x19
 7405 1604 4F445200 		.ascii	"ODR\000"
 7406 1608 1A       		.byte	0x1a
 7407 1609 B0       		.byte	0xb0
 7408 160a 02010000 		.4byte	0x102
 7409 160e 14       		.byte	0x14
 7410 160f 08       		.uleb128 0x8
 7411 1610 D5150000 		.4byte	.LASF353
 7412 1614 1A       		.byte	0x1a
 7413 1615 B7       		.byte	0xb7
 7414 1616 BA150000 		.4byte	0x15ba
 7415 161a 18       		.byte	0x18
 7416 161b 08       		.uleb128 0x8
 7417 161c D11C0000 		.4byte	.LASF354
 7418 1620 1A       		.byte	0x1a
 7419 1621 B8       		.byte	0xb8
 7420 1622 02010000 		.4byte	0x102
 7421 1626 1C       		.byte	0x1c
 7422 1627 08       		.uleb128 0x8
 7423 1628 21210000 		.4byte	.LASF355
 7424 162c 1A       		.byte	0x1a
 7425 162d B9       		.byte	0xb9
 7426 162e 02010000 		.4byte	0x102
 7427 1632 20       		.byte	0x20
 7428 1633 08       		.uleb128 0x8
 7429 1634 1C210000 		.4byte	.LASF356
 7430 1638 1A       		.byte	0x1a
 7431 1639 BA       		.byte	0xba
 7432 163a 02010000 		.4byte	0x102
 7433 163e 24       		.byte	0x24
 7434 163f 19       		.uleb128 0x19
 7435 1640 42525200 		.ascii	"BRR\000"
 7436 1644 1A       		.byte	0x1a
 7437 1645 BB       		.byte	0xbb
 7438 1646 02010000 		.4byte	0x102
 7439 164a 28       		.byte	0x28
 7440 164b 00       		.byte	0
 7441 164c 03       		.uleb128 0x3
 7442 164d 5A130000 		.4byte	.LASF357
 7443 1651 1A       		.byte	0x1a
 7444 1652 BC       		.byte	0xbc
 7445 1653 BF150000 		.4byte	0x15bf
 7446 1657 18       		.uleb128 0x18
 7447 1658 1C       		.byte	0x1c
 7448 1659 1A       		.byte	0x1a
 7449 165a C1       		.byte	0xc1
 7450 165b B4160000 		.4byte	0x16b4
 7451 165f 08       		.uleb128 0x8
 7452 1660 31280000 		.4byte	.LASF358
 7453 1664 1A       		.byte	0x1a
 7454 1665 C3       		.byte	0xc3
 7455 1666 F7000000 		.4byte	0xf7
 7456 166a 00       		.byte	0
 7457 166b 08       		.uleb128 0x8
ARM GAS  /tmp/ccB9eNXv.s 			page 132


 7458 166c 23040000 		.4byte	.LASF359
 7459 1670 1A       		.byte	0x1a
 7460 1671 C5       		.byte	0xc5
 7461 1672 F7000000 		.4byte	0xf7
 7462 1676 04       		.byte	0x4
 7463 1677 08       		.uleb128 0x8
 7464 1678 FA020000 		.4byte	.LASF360
 7465 167c 1A       		.byte	0x1a
 7466 167d C7       		.byte	0xc7
 7467 167e F7000000 		.4byte	0xf7
 7468 1682 08       		.byte	0x8
 7469 1683 08       		.uleb128 0x8
 7470 1684 FF260000 		.4byte	.LASF361
 7471 1688 1A       		.byte	0x1a
 7472 1689 C9       		.byte	0xc9
 7473 168a F7000000 		.4byte	0xf7
 7474 168e 0C       		.byte	0xc
 7475 168f 19       		.uleb128 0x19
 7476 1690 6F647200 		.ascii	"odr\000"
 7477 1694 1A       		.byte	0x1a
 7478 1695 CB       		.byte	0xcb
 7479 1696 F7000000 		.4byte	0xf7
 7480 169a 10       		.byte	0x10
 7481 169b 08       		.uleb128 0x8
 7482 169c C1230000 		.4byte	.LASF362
 7483 16a0 1A       		.byte	0x1a
 7484 16a1 CD       		.byte	0xcd
 7485 16a2 F7000000 		.4byte	0xf7
 7486 16a6 14       		.byte	0x14
 7487 16a7 08       		.uleb128 0x8
 7488 16a8 B3230000 		.4byte	.LASF363
 7489 16ac 1A       		.byte	0x1a
 7490 16ad CF       		.byte	0xcf
 7491 16ae F7000000 		.4byte	0xf7
 7492 16b2 18       		.byte	0x18
 7493 16b3 00       		.byte	0
 7494 16b4 03       		.uleb128 0x3
 7495 16b5 CE1F0000 		.4byte	.LASF364
 7496 16b9 1A       		.byte	0x1a
 7497 16ba D0       		.byte	0xd0
 7498 16bb 57160000 		.4byte	0x1657
 7499 16bf 18       		.uleb128 0x18
 7500 16c0 FC       		.byte	0xfc
 7501 16c1 1A       		.byte	0x1a
 7502 16c2 D9       		.byte	0xd9
 7503 16c3 34170000 		.4byte	0x1734
 7504 16c7 08       		.uleb128 0x8
 7505 16c8 DE130000 		.4byte	.LASF365
 7506 16cc 1A       		.byte	0x1a
 7507 16cd DC       		.byte	0xdc
 7508 16ce B4160000 		.4byte	0x16b4
 7509 16d2 00       		.byte	0
 7510 16d3 08       		.uleb128 0x8
 7511 16d4 EC030000 		.4byte	.LASF366
 7512 16d8 1A       		.byte	0x1a
 7513 16d9 E0       		.byte	0xe0
 7514 16da B4160000 		.4byte	0x16b4
ARM GAS  /tmp/ccB9eNXv.s 			page 133


 7515 16de 1C       		.byte	0x1c
 7516 16df 08       		.uleb128 0x8
 7517 16e0 77020000 		.4byte	.LASF367
 7518 16e4 1A       		.byte	0x1a
 7519 16e5 E4       		.byte	0xe4
 7520 16e6 B4160000 		.4byte	0x16b4
 7521 16ea 38       		.byte	0x38
 7522 16eb 08       		.uleb128 0x8
 7523 16ec 2C110000 		.4byte	.LASF368
 7524 16f0 1A       		.byte	0x1a
 7525 16f1 E8       		.byte	0xe8
 7526 16f2 B4160000 		.4byte	0x16b4
 7527 16f6 54       		.byte	0x54
 7528 16f7 08       		.uleb128 0x8
 7529 16f8 B11E0000 		.4byte	.LASF369
 7530 16fc 1A       		.byte	0x1a
 7531 16fd EC       		.byte	0xec
 7532 16fe B4160000 		.4byte	0x16b4
 7533 1702 70       		.byte	0x70
 7534 1703 08       		.uleb128 0x8
 7535 1704 282C0000 		.4byte	.LASF370
 7536 1708 1A       		.byte	0x1a
 7537 1709 F0       		.byte	0xf0
 7538 170a B4160000 		.4byte	0x16b4
 7539 170e 8C       		.byte	0x8c
 7540 170f 08       		.uleb128 0x8
 7541 1710 A60D0000 		.4byte	.LASF371
 7542 1714 1A       		.byte	0x1a
 7543 1715 F4       		.byte	0xf4
 7544 1716 B4160000 		.4byte	0x16b4
 7545 171a A8       		.byte	0xa8
 7546 171b 08       		.uleb128 0x8
 7547 171c 031C0000 		.4byte	.LASF372
 7548 1720 1A       		.byte	0x1a
 7549 1721 F8       		.byte	0xf8
 7550 1722 B4160000 		.4byte	0x16b4
 7551 1726 C4       		.byte	0xc4
 7552 1727 08       		.uleb128 0x8
 7553 1728 B0290000 		.4byte	.LASF373
 7554 172c 1A       		.byte	0x1a
 7555 172d FC       		.byte	0xfc
 7556 172e B4160000 		.4byte	0x16b4
 7557 1732 E0       		.byte	0xe0
 7558 1733 00       		.byte	0
 7559 1734 03       		.uleb128 0x3
 7560 1735 E00C0000 		.4byte	.LASF374
 7561 1739 1A       		.byte	0x1a
 7562 173a FE       		.byte	0xfe
 7563 173b BF160000 		.4byte	0x16bf
 7564 173f 05       		.uleb128 0x5
 7565 1740 34170000 		.4byte	0x1734
 7566 1744 1B       		.uleb128 0x1b
 7567 1745 E2170000 		.4byte	.LASF375
 7568 1749 1A       		.byte	0x1a
 7569 174a 0E01     		.2byte	0x10e
 7570 174c F7000000 		.4byte	0xf7
 7571 1750 1B       		.uleb128 0x1b
ARM GAS  /tmp/ccB9eNXv.s 			page 134


 7572 1751 1D1C0000 		.4byte	.LASF376
 7573 1755 1A       		.byte	0x1a
 7574 1756 1B01     		.2byte	0x11b
 7575 1758 5C170000 		.4byte	0x175c
 7576 175c 0B       		.uleb128 0xb
 7577 175d 04       		.byte	0x4
 7578 175e 4C160000 		.4byte	0x164c
 7579 1762 16       		.uleb128 0x16
 7580 1763 B9240000 		.4byte	.LASF377
 7581 1767 1A       		.byte	0x1a
 7582 1768 DA01     		.2byte	0x1da
 7583 176a 3F170000 		.4byte	0x173f
 7584 176e 11       		.uleb128 0x11
 7585 176f 07       		.byte	0x7
 7586 1770 01       		.byte	0x1
 7587 1771 3E000000 		.4byte	0x3e
 7588 1775 1B       		.byte	0x1b
 7589 1776 5F       		.byte	0x5f
 7590 1777 9A170000 		.4byte	0x179a
 7591 177b 13       		.uleb128 0x13
 7592 177c B70B0000 		.4byte	.LASF378
 7593 1780 00       		.byte	0
 7594 1781 13       		.uleb128 0x13
 7595 1782 FA000000 		.4byte	.LASF379
 7596 1786 01       		.byte	0x1
 7597 1787 13       		.uleb128 0x13
 7598 1788 78000000 		.4byte	.LASF380
 7599 178c 02       		.byte	0x2
 7600 178d 13       		.uleb128 0x13
 7601 178e 6A070000 		.4byte	.LASF381
 7602 1792 03       		.byte	0x3
 7603 1793 13       		.uleb128 0x13
 7604 1794 A50B0000 		.4byte	.LASF382
 7605 1798 04       		.byte	0x4
 7606 1799 00       		.byte	0
 7607 179a 03       		.uleb128 0x3
 7608 179b D9100000 		.4byte	.LASF383
 7609 179f 1B       		.byte	0x1b
 7610 17a0 65       		.byte	0x65
 7611 17a1 6E170000 		.4byte	0x176e
 7612 17a5 18       		.uleb128 0x18
 7613 17a6 08       		.byte	0x8
 7614 17a7 1C       		.byte	0x1c
 7615 17a8 F4       		.byte	0xf4
 7616 17a9 C7170000 		.4byte	0x17c7
 7617 17ad 19       		.uleb128 0x19
 7618 17ae 6D637200 		.ascii	"mcr\000"
 7619 17b2 1C       		.byte	0x1c
 7620 17b3 FA       		.byte	0xfa
 7621 17b4 F7000000 		.4byte	0xf7
 7622 17b8 00       		.byte	0
 7623 17b9 09       		.uleb128 0x9
 7624 17ba 62747200 		.ascii	"btr\000"
 7625 17be 1C       		.byte	0x1c
 7626 17bf 0001     		.2byte	0x100
 7627 17c1 F7000000 		.4byte	0xf7
 7628 17c5 04       		.byte	0x4
ARM GAS  /tmp/ccB9eNXv.s 			page 135


 7629 17c6 00       		.byte	0
 7630 17c7 1B       		.uleb128 0x1b
 7631 17c8 A71E0000 		.4byte	.LASF384
 7632 17cc 1C       		.byte	0x1c
 7633 17cd 0101     		.2byte	0x101
 7634 17cf A5170000 		.4byte	0x17a5
 7635 17d3 05       		.uleb128 0x5
 7636 17d4 C7170000 		.4byte	0x17c7
 7637 17d8 1A       		.uleb128 0x1a
 7638 17d9 30       		.byte	0x30
 7639 17da 1C       		.byte	0x1c
 7640 17db 0601     		.2byte	0x106
 7641 17dd 64180000 		.4byte	0x1864
 7642 17e1 0A       		.uleb128 0xa
 7643 17e2 A3020000 		.4byte	.LASF385
 7644 17e6 1C       		.byte	0x1c
 7645 17e7 0A01     		.2byte	0x10a
 7646 17e9 9A170000 		.4byte	0x179a
 7647 17ed 00       		.byte	0
 7648 17ee 0A       		.uleb128 0xa
 7649 17ef 58210000 		.4byte	.LASF386
 7650 17f3 1C       		.byte	0x1c
 7651 17f4 0E01     		.2byte	0x10e
 7652 17f6 64180000 		.4byte	0x1864
 7653 17fa 04       		.byte	0x4
 7654 17fb 0A       		.uleb128 0xa
 7655 17fc E00A0000 		.4byte	.LASF387
 7656 1800 1C       		.byte	0x1c
 7657 1801 1201     		.2byte	0x112
 7658 1803 FE020000 		.4byte	0x2fe
 7659 1807 08       		.byte	0x8
 7660 1808 0A       		.uleb128 0xa
 7661 1809 A8240000 		.4byte	.LASF388
 7662 180d 1C       		.byte	0x1c
 7663 180e 1601     		.2byte	0x116
 7664 1810 FE020000 		.4byte	0x2fe
 7665 1814 10       		.byte	0x10
 7666 1815 0A       		.uleb128 0xa
 7667 1816 771E0000 		.4byte	.LASF389
 7668 181a 1C       		.byte	0x1c
 7669 181b 2301     		.2byte	0x123
 7670 181d 20110000 		.4byte	0x1120
 7671 1821 18       		.byte	0x18
 7672 1822 0A       		.uleb128 0xa
 7673 1823 980D0000 		.4byte	.LASF390
 7674 1827 1C       		.byte	0x1c
 7675 1828 2A01     		.2byte	0x12a
 7676 182a 20110000 		.4byte	0x1120
 7677 182e 1C       		.byte	0x1c
 7678 182f 0A       		.uleb128 0xa
 7679 1830 DD110000 		.4byte	.LASF391
 7680 1834 1C       		.byte	0x1c
 7681 1835 3001     		.2byte	0x130
 7682 1837 20110000 		.4byte	0x1120
 7683 183b 20       		.byte	0x20
 7684 183c 0A       		.uleb128 0xa
 7685 183d B4040000 		.4byte	.LASF392
ARM GAS  /tmp/ccB9eNXv.s 			page 136


 7686 1841 1C       		.byte	0x1c
 7687 1842 3501     		.2byte	0x135
 7688 1844 20110000 		.4byte	0x1120
 7689 1848 24       		.byte	0x24
 7690 1849 0A       		.uleb128 0xa
 7691 184a 840A0000 		.4byte	.LASF393
 7692 184e 1C       		.byte	0x1c
 7693 184f 3901     		.2byte	0x139
 7694 1851 20110000 		.4byte	0x1120
 7695 1855 28       		.byte	0x28
 7696 1856 09       		.uleb128 0x9
 7697 1857 63616E00 		.ascii	"can\000"
 7698 185b 1C       		.byte	0x1c
 7699 185c 3F01     		.2byte	0x13f
 7700 185e 6A180000 		.4byte	0x186a
 7701 1862 2C       		.byte	0x2c
 7702 1863 00       		.byte	0
 7703 1864 0B       		.uleb128 0xb
 7704 1865 04       		.byte	0x4
 7705 1866 D3170000 		.4byte	0x17d3
 7706 186a 0B       		.uleb128 0xb
 7707 186b 04       		.byte	0x4
 7708 186c 70090000 		.4byte	0x970
 7709 1870 1B       		.uleb128 0x1b
 7710 1871 08050000 		.4byte	.LASF394
 7711 1875 1C       		.byte	0x1c
 7712 1876 4001     		.2byte	0x140
 7713 1878 D8170000 		.4byte	0x17d8
 7714 187c 16       		.uleb128 0x16
 7715 187d B8260000 		.4byte	.LASF395
 7716 1881 1C       		.byte	0x1c
 7717 1882 4B01     		.2byte	0x14b
 7718 1884 70180000 		.4byte	0x1870
 7719 1888 16       		.uleb128 0x16
 7720 1889 640C0000 		.4byte	.LASF396
 7721 188d 1C       		.byte	0x1c
 7722 188e 4F01     		.2byte	0x14f
 7723 1890 70180000 		.4byte	0x1870
 7724 1894 11       		.uleb128 0x11
 7725 1895 07       		.byte	0x7
 7726 1896 01       		.byte	0x1
 7727 1897 3E000000 		.4byte	0x3e
 7728 189b 1D       		.byte	0x1d
 7729 189c 4C       		.byte	0x4c
 7730 189d C6180000 		.4byte	0x18c6
 7731 18a1 13       		.uleb128 0x13
 7732 18a2 EE070000 		.4byte	.LASF397
 7733 18a6 00       		.byte	0
 7734 18a7 13       		.uleb128 0x13
 7735 18a8 DC140000 		.4byte	.LASF398
 7736 18ac 01       		.byte	0x1
 7737 18ad 13       		.uleb128 0x13
 7738 18ae 57080000 		.4byte	.LASF399
 7739 18b2 02       		.byte	0x2
 7740 18b3 13       		.uleb128 0x13
 7741 18b4 13060000 		.4byte	.LASF400
 7742 18b8 03       		.byte	0x3
ARM GAS  /tmp/ccB9eNXv.s 			page 137


 7743 18b9 13       		.uleb128 0x13
 7744 18ba 93040000 		.4byte	.LASF401
 7745 18be 04       		.byte	0x4
 7746 18bf 13       		.uleb128 0x13
 7747 18c0 37160000 		.4byte	.LASF402
 7748 18c4 05       		.byte	0x5
 7749 18c5 00       		.byte	0
 7750 18c6 03       		.uleb128 0x3
 7751 18c7 52140000 		.4byte	.LASF403
 7752 18cb 1D       		.byte	0x1d
 7753 18cc 53       		.byte	0x53
 7754 18cd 94180000 		.4byte	0x1894
 7755 18d1 1B       		.uleb128 0x1b
 7756 18d2 95060000 		.4byte	.LASF404
 7757 18d6 1E       		.byte	0x1e
 7758 18d7 6A01     		.2byte	0x16a
 7759 18d9 D2000000 		.4byte	0xd2
 7760 18dd 1B       		.uleb128 0x1b
 7761 18de 43050000 		.4byte	.LASF405
 7762 18e2 1E       		.byte	0x1e
 7763 18e3 6F01     		.2byte	0x16f
 7764 18e5 F7000000 		.4byte	0xf7
 7765 18e9 24       		.uleb128 0x24
 7766 18ea 07       		.byte	0x7
 7767 18eb 01       		.byte	0x1
 7768 18ec 3E000000 		.4byte	0x3e
 7769 18f0 1E       		.byte	0x1e
 7770 18f1 7401     		.2byte	0x174
 7771 18f3 0A190000 		.4byte	0x190a
 7772 18f7 13       		.uleb128 0x13
 7773 18f8 A6110000 		.4byte	.LASF406
 7774 18fc 01       		.byte	0x1
 7775 18fd 13       		.uleb128 0x13
 7776 18fe 98000000 		.4byte	.LASF407
 7777 1902 02       		.byte	0x2
 7778 1903 13       		.uleb128 0x13
 7779 1904 050B0000 		.4byte	.LASF408
 7780 1908 03       		.byte	0x3
 7781 1909 00       		.byte	0
 7782 190a 1B       		.uleb128 0x1b
 7783 190b 4B2B0000 		.4byte	.LASF409
 7784 190f 1E       		.byte	0x1e
 7785 1910 7801     		.2byte	0x178
 7786 1912 E9180000 		.4byte	0x18e9
 7787 1916 24       		.uleb128 0x24
 7788 1917 07       		.byte	0x7
 7789 1918 01       		.byte	0x1
 7790 1919 3E000000 		.4byte	0x3e
 7791 191d 1E       		.byte	0x1e
 7792 191e 7D01     		.2byte	0x17d
 7793 1920 37190000 		.4byte	0x1937
 7794 1924 13       		.uleb128 0x13
 7795 1925 5B070000 		.4byte	.LASF410
 7796 1929 01       		.byte	0x1
 7797 192a 13       		.uleb128 0x13
 7798 192b FD090000 		.4byte	.LASF411
 7799 192f 02       		.byte	0x2
ARM GAS  /tmp/ccB9eNXv.s 			page 138


 7800 1930 13       		.uleb128 0x13
 7801 1931 970C0000 		.4byte	.LASF412
 7802 1935 03       		.byte	0x3
 7803 1936 00       		.byte	0
 7804 1937 1B       		.uleb128 0x1b
 7805 1938 6A080000 		.4byte	.LASF413
 7806 193c 1E       		.byte	0x1e
 7807 193d 8101     		.2byte	0x181
 7808 193f 16190000 		.4byte	0x1916
 7809 1943 1A       		.uleb128 0x1a
 7810 1944 0C       		.byte	0xc
 7811 1945 1E       		.byte	0x1e
 7812 1946 8601     		.2byte	0x186
 7813 1948 74190000 		.4byte	0x1974
 7814 194c 0A       		.uleb128 0xa
 7815 194d D1070000 		.4byte	.LASF414
 7816 1951 1E       		.byte	0x1e
 7817 1952 8801     		.2byte	0x188
 7818 1954 0A190000 		.4byte	0x190a
 7819 1958 00       		.byte	0
 7820 1959 0A       		.uleb128 0xa
 7821 195a F2040000 		.4byte	.LASF415
 7822 195e 1E       		.byte	0x1e
 7823 195f 8901     		.2byte	0x189
 7824 1961 F7000000 		.4byte	0xf7
 7825 1965 04       		.byte	0x4
 7826 1966 0A       		.uleb128 0xa
 7827 1967 F02B0000 		.4byte	.LASF416
 7828 196b 1E       		.byte	0x1e
 7829 196c 8C01     		.2byte	0x18c
 7830 196e 37190000 		.4byte	0x1937
 7831 1972 08       		.byte	0x8
 7832 1973 00       		.byte	0
 7833 1974 1B       		.uleb128 0x1b
 7834 1975 C1020000 		.4byte	.LASF417
 7835 1979 1E       		.byte	0x1e
 7836 197a 8E01     		.2byte	0x18e
 7837 197c 43190000 		.4byte	0x1943
 7838 1980 05       		.uleb128 0x5
 7839 1981 74190000 		.4byte	0x1974
 7840 1985 1B       		.uleb128 0x1b
 7841 1986 09060000 		.4byte	.LASF418
 7842 198a 1E       		.byte	0x1e
 7843 198b 9301     		.2byte	0x193
 7844 198d 91190000 		.4byte	0x1991
 7845 1991 0C       		.uleb128 0xc
 7846 1992 09060000 		.4byte	.LASF418
 7847 1996 38       		.byte	0x38
 7848 1997 1E       		.byte	0x1e
 7849 1998 9801     		.2byte	0x198
 7850 199a 2E1A0000 		.4byte	0x1a2e
 7851 199e 0A       		.uleb128 0xa
 7852 199f A3020000 		.4byte	.LASF385
 7853 19a3 1E       		.byte	0x1e
 7854 19a4 9C01     		.2byte	0x19c
 7855 19a6 C6180000 		.4byte	0x18c6
 7856 19aa 00       		.byte	0
ARM GAS  /tmp/ccB9eNXv.s 			page 139


 7857 19ab 0A       		.uleb128 0xa
 7858 19ac 58210000 		.4byte	.LASF386
 7859 19b0 1E       		.byte	0x1e
 7860 19b1 A001     		.2byte	0x1a0
 7861 19b3 2E1A0000 		.4byte	0x1a2e
 7862 19b7 04       		.byte	0x4
 7863 19b8 0A       		.uleb128 0xa
 7864 19b9 BA010000 		.4byte	.LASF419
 7865 19bd 1E       		.byte	0x1e
 7866 19be A401     		.2byte	0x1a4
 7867 19c0 DD180000 		.4byte	0x18dd
 7868 19c4 08       		.byte	0x8
 7869 19c5 0A       		.uleb128 0xa
 7870 19c6 BF0F0000 		.4byte	.LASF420
 7871 19ca 1E       		.byte	0x1e
 7872 19cb A901     		.2byte	0x1a9
 7873 19cd 9C100000 		.4byte	0x109c
 7874 19d1 0C       		.byte	0xc
 7875 19d2 0A       		.uleb128 0xa
 7876 19d3 82080000 		.4byte	.LASF421
 7877 19d7 1E       		.byte	0x1e
 7878 19d8 B201     		.2byte	0x1b2
 7879 19da C9020000 		.4byte	0x2c9
 7880 19de 1C       		.byte	0x1c
 7881 19df 0A       		.uleb128 0xa
 7882 19e0 A1110000 		.4byte	.LASF422
 7883 19e4 1E       		.byte	0x1e
 7884 19e5 B601     		.2byte	0x1b6
 7885 19e7 D1180000 		.4byte	0x18d1
 7886 19eb 20       		.byte	0x20
 7887 19ec 0A       		.uleb128 0xa
 7888 19ed BE090000 		.4byte	.LASF423
 7889 19f1 1E       		.byte	0x1e
 7890 19f2 BA01     		.2byte	0x1ba
 7891 19f4 F7000000 		.4byte	0xf7
 7892 19f8 24       		.byte	0x24
 7893 19f9 0A       		.uleb128 0xa
 7894 19fa 220A0000 		.4byte	.LASF424
 7895 19fe 1E       		.byte	0x1e
 7896 19ff BE01     		.2byte	0x1be
 7897 1a01 F7000000 		.4byte	0xf7
 7898 1a05 28       		.byte	0x28
 7899 1a06 0A       		.uleb128 0xa
 7900 1a07 58010000 		.4byte	.LASF425
 7901 1a0b 1E       		.byte	0x1e
 7902 1a0c C201     		.2byte	0x1c2
 7903 1a0e 341A0000 		.4byte	0x1a34
 7904 1a12 2C       		.byte	0x2c
 7905 1a13 0A       		.uleb128 0xa
 7906 1a14 E6020000 		.4byte	.LASF426
 7907 1a18 1E       		.byte	0x1e
 7908 1a19 C601     		.2byte	0x1c6
 7909 1a1b 341A0000 		.4byte	0x1a34
 7910 1a1f 30       		.byte	0x30
 7911 1a20 09       		.uleb128 0x9
 7912 1a21 69326300 		.ascii	"i2c\000"
 7913 1a25 1E       		.byte	0x1e
ARM GAS  /tmp/ccB9eNXv.s 			page 140


 7914 1a26 CA01     		.2byte	0x1ca
 7915 1a28 3A1A0000 		.4byte	0x1a3a
 7916 1a2c 34       		.byte	0x34
 7917 1a2d 00       		.byte	0
 7918 1a2e 0B       		.uleb128 0xb
 7919 1a2f 04       		.byte	0x4
 7920 1a30 80190000 		.4byte	0x1980
 7921 1a34 0B       		.uleb128 0xb
 7922 1a35 04       		.byte	0x4
 7923 1a36 D7140000 		.4byte	0x14d7
 7924 1a3a 0B       		.uleb128 0xb
 7925 1a3b 04       		.byte	0x4
 7926 1a3c 940A0000 		.4byte	0xa94
 7927 1a40 16       		.uleb128 0x16
 7928 1a41 C9140000 		.4byte	.LASF427
 7929 1a45 1E       		.byte	0x1e
 7930 1a46 E401     		.2byte	0x1e4
 7931 1a48 85190000 		.4byte	0x1985
 7932 1a4c 11       		.uleb128 0x11
 7933 1a4d 07       		.byte	0x7
 7934 1a4e 01       		.byte	0x1
 7935 1a4f 3E000000 		.4byte	0x3e
 7936 1a53 1F       		.byte	0x1f
 7937 1a54 31       		.byte	0x31
 7938 1a55 781A0000 		.4byte	0x1a78
 7939 1a59 13       		.uleb128 0x13
 7940 1a5a 132A0000 		.4byte	.LASF428
 7941 1a5e 00       		.byte	0
 7942 1a5f 13       		.uleb128 0x13
 7943 1a60 B8230000 		.4byte	.LASF429
 7944 1a64 01       		.byte	0x1
 7945 1a65 13       		.uleb128 0x13
 7946 1a66 A6060000 		.4byte	.LASF430
 7947 1a6a 02       		.byte	0x2
 7948 1a6b 13       		.uleb128 0x13
 7949 1a6c 2C170000 		.4byte	.LASF431
 7950 1a70 03       		.byte	0x3
 7951 1a71 13       		.uleb128 0x13
 7952 1a72 B8210000 		.4byte	.LASF432
 7953 1a76 04       		.byte	0x4
 7954 1a77 00       		.byte	0
 7955 1a78 03       		.uleb128 0x3
 7956 1a79 1E260000 		.4byte	.LASF433
 7957 1a7d 1F       		.byte	0x1f
 7958 1a7e 37       		.byte	0x37
 7959 1a7f 4C1A0000 		.4byte	0x1a4c
 7960 1a83 03       		.uleb128 0x3
 7961 1a84 231E0000 		.4byte	.LASF434
 7962 1a88 1F       		.byte	0x1f
 7963 1a89 3C       		.byte	0x3c
 7964 1a8a 8E1A0000 		.4byte	0x1a8e
 7965 1a8e 0C       		.uleb128 0xc
 7966 1a8f 231E0000 		.4byte	.LASF434
 7967 1a93 18       		.byte	0x18
 7968 1a94 20       		.byte	0x20
 7969 1a95 3101     		.2byte	0x131
 7970 1a97 EA1A0000 		.4byte	0x1aea
ARM GAS  /tmp/ccB9eNXv.s 			page 141


 7971 1a9b 0A       		.uleb128 0xa
 7972 1a9c A3020000 		.4byte	.LASF385
 7973 1aa0 20       		.byte	0x20
 7974 1aa1 3501     		.2byte	0x135
 7975 1aa3 781A0000 		.4byte	0x1a78
 7976 1aa7 00       		.byte	0
 7977 1aa8 0A       		.uleb128 0xa
 7978 1aa9 58210000 		.4byte	.LASF386
 7979 1aad 20       		.byte	0x20
 7980 1aae 3901     		.2byte	0x139
 7981 1ab0 EF1C0000 		.4byte	0x1cef
 7982 1ab4 04       		.byte	0x4
 7983 1ab5 0A       		.uleb128 0xa
 7984 1ab6 20100000 		.4byte	.LASF435
 7985 1aba 20       		.byte	0x20
 7986 1abb 4101     		.2byte	0x141
 7987 1abd F7000000 		.4byte	0xf7
 7988 1ac1 08       		.byte	0x8
 7989 1ac2 09       		.uleb128 0x9
 7990 1ac3 74696D00 		.ascii	"tim\000"
 7991 1ac7 20       		.byte	0x20
 7992 1ac8 4501     		.2byte	0x145
 7993 1aca F51C0000 		.4byte	0x1cf5
 7994 1ace 0C       		.byte	0xc
 7995 1acf 0A       		.uleb128 0xa
 7996 1ad0 3F230000 		.4byte	.LASF436
 7997 1ad4 20       		.byte	0x20
 7998 1ad5 4901     		.2byte	0x149
 7999 1ad7 C6140000 		.4byte	0x14c6
 8000 1adb 10       		.byte	0x10
 8001 1adc 0A       		.uleb128 0xa
 8002 1add D2060000 		.4byte	.LASF437
 8003 1ae1 20       		.byte	0x20
 8004 1ae2 4D01     		.2byte	0x14d
 8005 1ae4 C6140000 		.4byte	0x14c6
 8006 1ae8 14       		.byte	0x14
 8007 1ae9 00       		.byte	0
 8008 1aea 03       		.uleb128 0x3
 8009 1aeb 601F0000 		.4byte	.LASF438
 8010 1aef 1F       		.byte	0x1f
 8011 1af0 43       		.byte	0x43
 8012 1af1 F51A0000 		.4byte	0x1af5
 8013 1af5 0B       		.uleb128 0xb
 8014 1af6 04       		.byte	0x4
 8015 1af7 FB1A0000 		.4byte	0x1afb
 8016 1afb 0D       		.uleb128 0xd
 8017 1afc 061B0000 		.4byte	0x1b06
 8018 1b00 0E       		.uleb128 0xe
 8019 1b01 061B0000 		.4byte	0x1b06
 8020 1b05 00       		.byte	0
 8021 1b06 0B       		.uleb128 0xb
 8022 1b07 04       		.byte	0x4
 8023 1b08 831A0000 		.4byte	0x1a83
 8024 1b0c 1A       		.uleb128 0x1a
 8025 1b0d 60       		.byte	0x60
 8026 1b0e 21       		.byte	0x21
 8027 1b0f 9E01     		.2byte	0x19e
ARM GAS  /tmp/ccB9eNXv.s 			page 142


 8028 1b11 181C0000 		.4byte	0x1c18
 8029 1b15 09       		.uleb128 0x9
 8030 1b16 43523100 		.ascii	"CR1\000"
 8031 1b1a 21       		.byte	0x21
 8032 1b1b 9F01     		.2byte	0x19f
 8033 1b1d 02010000 		.4byte	0x102
 8034 1b21 00       		.byte	0
 8035 1b22 09       		.uleb128 0x9
 8036 1b23 43523200 		.ascii	"CR2\000"
 8037 1b27 21       		.byte	0x21
 8038 1b28 A001     		.2byte	0x1a0
 8039 1b2a 02010000 		.4byte	0x102
 8040 1b2e 04       		.byte	0x4
 8041 1b2f 0A       		.uleb128 0xa
 8042 1b30 3D260000 		.4byte	.LASF220
 8043 1b34 21       		.byte	0x21
 8044 1b35 A101     		.2byte	0x1a1
 8045 1b37 02010000 		.4byte	0x102
 8046 1b3b 08       		.byte	0x8
 8047 1b3c 0A       		.uleb128 0xa
 8048 1b3d E70B0000 		.4byte	.LASF221
 8049 1b41 21       		.byte	0x21
 8050 1b42 A201     		.2byte	0x1a2
 8051 1b44 02010000 		.4byte	0x102
 8052 1b48 0C       		.byte	0xc
 8053 1b49 09       		.uleb128 0x9
 8054 1b4a 535200   		.ascii	"SR\000"
 8055 1b4d 21       		.byte	0x21
 8056 1b4e A301     		.2byte	0x1a3
 8057 1b50 02010000 		.4byte	0x102
 8058 1b54 10       		.byte	0x10
 8059 1b55 09       		.uleb128 0x9
 8060 1b56 45475200 		.ascii	"EGR\000"
 8061 1b5a 21       		.byte	0x21
 8062 1b5b A401     		.2byte	0x1a4
 8063 1b5d 02010000 		.4byte	0x102
 8064 1b61 14       		.byte	0x14
 8065 1b62 0A       		.uleb128 0xa
 8066 1b63 102B0000 		.4byte	.LASF222
 8067 1b67 21       		.byte	0x21
 8068 1b68 A501     		.2byte	0x1a5
 8069 1b6a 02010000 		.4byte	0x102
 8070 1b6e 18       		.byte	0x18
 8071 1b6f 0A       		.uleb128 0xa
 8072 1b70 162B0000 		.4byte	.LASF223
 8073 1b74 21       		.byte	0x21
 8074 1b75 A601     		.2byte	0x1a6
 8075 1b77 02010000 		.4byte	0x102
 8076 1b7b 1C       		.byte	0x1c
 8077 1b7c 0A       		.uleb128 0xa
 8078 1b7d EA080000 		.4byte	.LASF224
 8079 1b81 21       		.byte	0x21
 8080 1b82 A701     		.2byte	0x1a7
 8081 1b84 02010000 		.4byte	0x102
 8082 1b88 20       		.byte	0x20
 8083 1b89 09       		.uleb128 0x9
 8084 1b8a 434E5400 		.ascii	"CNT\000"
ARM GAS  /tmp/ccB9eNXv.s 			page 143


 8085 1b8e 21       		.byte	0x21
 8086 1b8f A801     		.2byte	0x1a8
 8087 1b91 02010000 		.4byte	0x102
 8088 1b95 24       		.byte	0x24
 8089 1b96 09       		.uleb128 0x9
 8090 1b97 50534300 		.ascii	"PSC\000"
 8091 1b9b 21       		.byte	0x21
 8092 1b9c A901     		.2byte	0x1a9
 8093 1b9e 02010000 		.4byte	0x102
 8094 1ba2 28       		.byte	0x28
 8095 1ba3 09       		.uleb128 0x9
 8096 1ba4 41525200 		.ascii	"ARR\000"
 8097 1ba8 21       		.byte	0x21
 8098 1ba9 AA01     		.2byte	0x1aa
 8099 1bab 02010000 		.4byte	0x102
 8100 1baf 2C       		.byte	0x2c
 8101 1bb0 09       		.uleb128 0x9
 8102 1bb1 52435200 		.ascii	"RCR\000"
 8103 1bb5 21       		.byte	0x21
 8104 1bb6 AB01     		.2byte	0x1ab
 8105 1bb8 02010000 		.4byte	0x102
 8106 1bbc 30       		.byte	0x30
 8107 1bbd 09       		.uleb128 0x9
 8108 1bbe 43435200 		.ascii	"CCR\000"
 8109 1bc2 21       		.byte	0x21
 8110 1bc3 AC01     		.2byte	0x1ac
 8111 1bc5 040A0000 		.4byte	0xa04
 8112 1bc9 34       		.byte	0x34
 8113 1bca 0A       		.uleb128 0xa
 8114 1bcb BC020000 		.4byte	.LASF229
 8115 1bcf 21       		.byte	0x21
 8116 1bd0 AD01     		.2byte	0x1ad
 8117 1bd2 02010000 		.4byte	0x102
 8118 1bd6 44       		.byte	0x44
 8119 1bd7 09       		.uleb128 0x9
 8120 1bd8 44435200 		.ascii	"DCR\000"
 8121 1bdc 21       		.byte	0x21
 8122 1bdd AE01     		.2byte	0x1ae
 8123 1bdf 02010000 		.4byte	0x102
 8124 1be3 48       		.byte	0x48
 8125 1be4 0A       		.uleb128 0xa
 8126 1be5 2E1A0000 		.4byte	.LASF230
 8127 1be9 21       		.byte	0x21
 8128 1bea AF01     		.2byte	0x1af
 8129 1bec 02010000 		.4byte	0x102
 8130 1bf0 4C       		.byte	0x4c
 8131 1bf1 09       		.uleb128 0x9
 8132 1bf2 4F5200   		.ascii	"OR\000"
 8133 1bf5 21       		.byte	0x21
 8134 1bf6 B001     		.2byte	0x1b0
 8135 1bf8 02010000 		.4byte	0x102
 8136 1bfc 50       		.byte	0x50
 8137 1bfd 0A       		.uleb128 0xa
 8138 1bfe 1C2B0000 		.4byte	.LASF439
 8139 1c02 21       		.byte	0x21
 8140 1c03 B101     		.2byte	0x1b1
 8141 1c05 02010000 		.4byte	0x102
ARM GAS  /tmp/ccB9eNXv.s 			page 144


 8142 1c09 54       		.byte	0x54
 8143 1c0a 0A       		.uleb128 0xa
 8144 1c0b 2C100000 		.4byte	.LASF440
 8145 1c0f 21       		.byte	0x21
 8146 1c10 B201     		.2byte	0x1b2
 8147 1c12 EF090000 		.4byte	0x9ef
 8148 1c16 58       		.byte	0x58
 8149 1c17 00       		.byte	0
 8150 1c18 1B       		.uleb128 0x1b
 8151 1c19 13250000 		.4byte	.LASF441
 8152 1c1d 21       		.byte	0x21
 8153 1c1e B301     		.2byte	0x1b3
 8154 1c20 0C1B0000 		.4byte	0x1b0c
 8155 1c24 11       		.uleb128 0x11
 8156 1c25 07       		.byte	0x7
 8157 1c26 01       		.byte	0x1
 8158 1c27 3E000000 		.4byte	0x3e
 8159 1c2b 20       		.byte	0x20
 8160 1c2c EE       		.byte	0xee
 8161 1c2d 3E1C0000 		.4byte	0x1c3e
 8162 1c31 13       		.uleb128 0x13
 8163 1c32 E7090000 		.4byte	.LASF442
 8164 1c36 00       		.byte	0
 8165 1c37 13       		.uleb128 0x13
 8166 1c38 E11F0000 		.4byte	.LASF443
 8167 1c3c 01       		.byte	0x1
 8168 1c3d 00       		.byte	0
 8169 1c3e 03       		.uleb128 0x3
 8170 1c3f 07290000 		.4byte	.LASF444
 8171 1c43 20       		.byte	0x20
 8172 1c44 F1       		.byte	0xf1
 8173 1c45 241C0000 		.4byte	0x1c24
 8174 1c49 03       		.uleb128 0x3
 8175 1c4a 6A200000 		.4byte	.LASF445
 8176 1c4e 20       		.byte	0x20
 8177 1c4f F6       		.byte	0xf6
 8178 1c50 F7000000 		.4byte	0xf7
 8179 1c54 11       		.uleb128 0x11
 8180 1c55 07       		.byte	0x7
 8181 1c56 01       		.byte	0x1
 8182 1c57 3E000000 		.4byte	0x3e
 8183 1c5b 20       		.byte	0x20
 8184 1c5c FB       		.byte	0xfb
 8185 1c5d 6E1C0000 		.4byte	0x1c6e
 8186 1c61 13       		.uleb128 0x13
 8187 1c62 3A1C0000 		.4byte	.LASF446
 8188 1c66 00       		.byte	0
 8189 1c67 13       		.uleb128 0x13
 8190 1c68 82250000 		.4byte	.LASF447
 8191 1c6c 01       		.byte	0x1
 8192 1c6d 00       		.byte	0
 8193 1c6e 03       		.uleb128 0x3
 8194 1c6f 8A070000 		.4byte	.LASF448
 8195 1c73 20       		.byte	0x20
 8196 1c74 FE       		.byte	0xfe
 8197 1c75 541C0000 		.4byte	0x1c54
 8198 1c79 1A       		.uleb128 0x1a
ARM GAS  /tmp/ccB9eNXv.s 			page 145


 8199 1c7a 1C       		.byte	0x1c
 8200 1c7b 20       		.byte	0x20
 8201 1c7c 0901     		.2byte	0x109
 8202 1c7e DE1C0000 		.4byte	0x1cde
 8203 1c82 0A       		.uleb128 0xa
 8204 1c83 D2090000 		.4byte	.LASF449
 8205 1c87 20       		.byte	0x20
 8206 1c88 0D01     		.2byte	0x10d
 8207 1c8a 3E1C0000 		.4byte	0x1c3e
 8208 1c8e 00       		.byte	0
 8209 1c8f 0A       		.uleb128 0xa
 8210 1c90 5F2A0000 		.4byte	.LASF450
 8211 1c94 20       		.byte	0x20
 8212 1c95 1301     		.2byte	0x113
 8213 1c97 491C0000 		.4byte	0x1c49
 8214 1c9b 04       		.byte	0x4
 8215 1c9c 0A       		.uleb128 0xa
 8216 1c9d 42160000 		.4byte	.LASF451
 8217 1ca1 20       		.byte	0x20
 8218 1ca2 1701     		.2byte	0x117
 8219 1ca4 EA1A0000 		.4byte	0x1aea
 8220 1ca8 08       		.byte	0x8
 8221 1ca9 0A       		.uleb128 0xa
 8222 1caa 48140000 		.4byte	.LASF452
 8223 1cae 20       		.byte	0x20
 8224 1caf 1B01     		.2byte	0x11b
 8225 1cb1 EA1A0000 		.4byte	0x1aea
 8226 1cb5 0C       		.byte	0xc
 8227 1cb6 0A       		.uleb128 0xa
 8228 1cb7 AC0C0000 		.4byte	.LASF453
 8229 1cbb 20       		.byte	0x20
 8230 1cbc 1F01     		.2byte	0x11f
 8231 1cbe EA1A0000 		.4byte	0x1aea
 8232 1cc2 10       		.byte	0x10
 8233 1cc3 0A       		.uleb128 0xa
 8234 1cc4 FF140000 		.4byte	.LASF454
 8235 1cc8 20       		.byte	0x20
 8236 1cc9 2501     		.2byte	0x125
 8237 1ccb 6E1C0000 		.4byte	0x1c6e
 8238 1ccf 14       		.byte	0x14
 8239 1cd0 0A       		.uleb128 0xa
 8240 1cd1 4B0F0000 		.4byte	.LASF455
 8241 1cd5 20       		.byte	0x20
 8242 1cd6 2B01     		.2byte	0x12b
 8243 1cd8 F7000000 		.4byte	0xf7
 8244 1cdc 18       		.byte	0x18
 8245 1cdd 00       		.byte	0
 8246 1cde 1B       		.uleb128 0x1b
 8247 1cdf 2D1E0000 		.4byte	.LASF456
 8248 1ce3 20       		.byte	0x20
 8249 1ce4 2C01     		.2byte	0x12c
 8250 1ce6 791C0000 		.4byte	0x1c79
 8251 1cea 05       		.uleb128 0x5
 8252 1ceb DE1C0000 		.4byte	0x1cde
 8253 1cef 0B       		.uleb128 0xb
 8254 1cf0 04       		.byte	0x4
 8255 1cf1 EA1C0000 		.4byte	0x1cea
ARM GAS  /tmp/ccB9eNXv.s 			page 146


 8256 1cf5 0B       		.uleb128 0xb
 8257 1cf6 04       		.byte	0x4
 8258 1cf7 181C0000 		.4byte	0x1c18
 8259 1cfb 16       		.uleb128 0x16
 8260 1cfc 22120000 		.4byte	.LASF457
 8261 1d00 20       		.byte	0x20
 8262 1d01 8A01     		.2byte	0x18a
 8263 1d03 831A0000 		.4byte	0x1a83
 8264 1d07 16       		.uleb128 0x16
 8265 1d08 32120000 		.4byte	.LASF458
 8266 1d0c 20       		.byte	0x20
 8267 1d0d 9601     		.2byte	0x196
 8268 1d0f 831A0000 		.4byte	0x1a83
 8269 1d13 11       		.uleb128 0x11
 8270 1d14 07       		.byte	0x7
 8271 1d15 01       		.byte	0x1
 8272 1d16 3E000000 		.4byte	0x3e
 8273 1d1a 22       		.byte	0x22
 8274 1d1b 55       		.byte	0x55
 8275 1d1c 331D0000 		.4byte	0x1d33
 8276 1d20 13       		.uleb128 0x13
 8277 1d21 06080000 		.4byte	.LASF459
 8278 1d25 00       		.byte	0
 8279 1d26 13       		.uleb128 0x13
 8280 1d27 51100000 		.4byte	.LASF460
 8281 1d2b 01       		.byte	0x1
 8282 1d2c 13       		.uleb128 0x13
 8283 1d2d 5F2C0000 		.4byte	.LASF461
 8284 1d31 02       		.byte	0x2
 8285 1d32 00       		.byte	0
 8286 1d33 03       		.uleb128 0x3
 8287 1d34 D61C0000 		.4byte	.LASF462
 8288 1d38 22       		.byte	0x22
 8289 1d39 59       		.byte	0x59
 8290 1d3a 131D0000 		.4byte	0x1d13
 8291 1d3e 03       		.uleb128 0x3
 8292 1d3f 46270000 		.4byte	.LASF463
 8293 1d43 22       		.byte	0x22
 8294 1d44 5E       		.byte	0x5e
 8295 1d45 491D0000 		.4byte	0x1d49
 8296 1d49 25       		.uleb128 0x25
 8297 1d4a 46270000 		.4byte	.LASF463
 8298 1d4e 5801     		.2byte	0x158
 8299 1d50 22       		.byte	0x22
 8300 1d51 78       		.byte	0x78
 8301 1d52 B61D0000 		.4byte	0x1db6
 8302 1d56 19       		.uleb128 0x19
 8303 1d57 766D7400 		.ascii	"vmt\000"
 8304 1d5b 22       		.byte	0x22
 8305 1d5c 7A       		.byte	0x7a
 8306 1d5d B41E0000 		.4byte	0x1eb4
 8307 1d61 00       		.byte	0
 8308 1d62 08       		.uleb128 0x8
 8309 1d63 49000000 		.4byte	.LASF464
 8310 1d67 22       		.byte	0x22
 8311 1d68 7B       		.byte	0x7b
 8312 1d69 20110000 		.4byte	0x1120
ARM GAS  /tmp/ccB9eNXv.s 			page 147


 8313 1d6d 04       		.byte	0x4
 8314 1d6e 08       		.uleb128 0x8
 8315 1d6f A3020000 		.4byte	.LASF385
 8316 1d73 22       		.byte	0x22
 8317 1d74 7B       		.byte	0x7b
 8318 1d75 331D0000 		.4byte	0x1d33
 8319 1d79 08       		.byte	0x8
 8320 1d7a 08       		.uleb128 0x8
 8321 1d7b A61C0000 		.4byte	.LASF465
 8322 1d7f 22       		.byte	0x22
 8323 1d80 7B       		.byte	0x7b
 8324 1d81 CB110000 		.4byte	0x11cb
 8325 1d85 0C       		.byte	0xc
 8326 1d86 08       		.uleb128 0x8
 8327 1d87 55150000 		.4byte	.LASF466
 8328 1d8b 22       		.byte	0x22
 8329 1d8c 7B       		.byte	0x7b
 8330 1d8d D6110000 		.4byte	0x11d6
 8331 1d91 30       		.byte	0x30
 8332 1d92 19       		.uleb128 0x19
 8333 1d93 696200   		.ascii	"ib\000"
 8334 1d96 22       		.byte	0x22
 8335 1d97 7B       		.byte	0x7b
 8336 1d98 BA1E0000 		.4byte	0x1eba
 8337 1d9c 54       		.byte	0x54
 8338 1d9d 19       		.uleb128 0x19
 8339 1d9e 6F6200   		.ascii	"ob\000"
 8340 1da1 22       		.byte	0x22
 8341 1da2 7B       		.byte	0x7b
 8342 1da3 BA1E0000 		.4byte	0x1eba
 8343 1da7 D4       		.byte	0xd4
 8344 1da8 26       		.uleb128 0x26
 8345 1da9 E21E0000 		.4byte	.LASF467
 8346 1dad 22       		.byte	0x22
 8347 1dae 7B       		.byte	0x7b
 8348 1daf CA1E0000 		.4byte	0x1eca
 8349 1db3 5401     		.2byte	0x154
 8350 1db5 00       		.byte	0
 8351 1db6 18       		.uleb128 0x18
 8352 1db7 0C       		.byte	0xc
 8353 1db8 23       		.byte	0x23
 8354 1db9 D7       		.byte	0xd7
 8355 1dba EF1D0000 		.4byte	0x1def
 8356 1dbe 08       		.uleb128 0x8
 8357 1dbf E4220000 		.4byte	.LASF468
 8358 1dc3 23       		.byte	0x23
 8359 1dc4 DB       		.byte	0xdb
 8360 1dc5 F7000000 		.4byte	0xf7
 8361 1dc9 00       		.byte	0
 8362 1dca 19       		.uleb128 0x19
 8363 1dcb 63723100 		.ascii	"cr1\000"
 8364 1dcf 23       		.byte	0x23
 8365 1dd0 E0       		.byte	0xe0
 8366 1dd1 D2000000 		.4byte	0xd2
 8367 1dd5 04       		.byte	0x4
 8368 1dd6 19       		.uleb128 0x19
 8369 1dd7 63723200 		.ascii	"cr2\000"
ARM GAS  /tmp/ccB9eNXv.s 			page 148


 8370 1ddb 23       		.byte	0x23
 8371 1ddc E4       		.byte	0xe4
 8372 1ddd D2000000 		.4byte	0xd2
 8373 1de1 06       		.byte	0x6
 8374 1de2 19       		.uleb128 0x19
 8375 1de3 63723300 		.ascii	"cr3\000"
 8376 1de7 23       		.byte	0x23
 8377 1de8 E8       		.byte	0xe8
 8378 1de9 D2000000 		.4byte	0xd2
 8379 1ded 08       		.byte	0x8
 8380 1dee 00       		.byte	0
 8381 1def 03       		.uleb128 0x3
 8382 1df0 73190000 		.4byte	.LASF469
 8383 1df4 23       		.byte	0x23
 8384 1df5 E9       		.byte	0xe9
 8385 1df6 B61D0000 		.4byte	0x1db6
 8386 1dfa 21       		.uleb128 0x21
 8387 1dfb 53443100 		.ascii	"SD1\000"
 8388 1dff 23       		.byte	0x23
 8389 1e00 0F01     		.2byte	0x10f
 8390 1e02 3E1D0000 		.4byte	0x1d3e
 8391 1e06 21       		.uleb128 0x21
 8392 1e07 53443200 		.ascii	"SD2\000"
 8393 1e0b 23       		.byte	0x23
 8394 1e0c 1201     		.2byte	0x112
 8395 1e0e 3E1D0000 		.4byte	0x1d3e
 8396 1e12 21       		.uleb128 0x21
 8397 1e13 53443300 		.ascii	"SD3\000"
 8398 1e17 23       		.byte	0x23
 8399 1e18 1501     		.2byte	0x115
 8400 1e1a 3E1D0000 		.4byte	0x1d3e
 8401 1e1e 21       		.uleb128 0x21
 8402 1e1f 53443400 		.ascii	"SD4\000"
 8403 1e23 23       		.byte	0x23
 8404 1e24 1801     		.2byte	0x118
 8405 1e26 3E1D0000 		.4byte	0x1d3e
 8406 1e2a 21       		.uleb128 0x21
 8407 1e2b 53443500 		.ascii	"SD5\000"
 8408 1e2f 23       		.byte	0x23
 8409 1e30 1B01     		.2byte	0x11b
 8410 1e32 3E1D0000 		.4byte	0x1d3e
 8411 1e36 21       		.uleb128 0x21
 8412 1e37 53443600 		.ascii	"SD6\000"
 8413 1e3b 23       		.byte	0x23
 8414 1e3c 1E01     		.2byte	0x11e
 8415 1e3e 3E1D0000 		.4byte	0x1d3e
 8416 1e42 07       		.uleb128 0x7
 8417 1e43 4E120000 		.4byte	.LASF470
 8418 1e47 20       		.byte	0x20
 8419 1e48 22       		.byte	0x22
 8420 1e49 6D       		.byte	0x6d
 8421 1e4a AF1E0000 		.4byte	0x1eaf
 8422 1e4e 08       		.uleb128 0x8
 8423 1e4f 951C0000 		.4byte	.LASF471
 8424 1e53 22       		.byte	0x22
 8425 1e54 6E       		.byte	0x6e
 8426 1e55 00120000 		.4byte	0x1200
ARM GAS  /tmp/ccB9eNXv.s 			page 149


 8427 1e59 00       		.byte	0
 8428 1e5a 08       		.uleb128 0x8
 8429 1e5b A9020000 		.4byte	.LASF472
 8430 1e5f 22       		.byte	0x22
 8431 1e60 6E       		.byte	0x6e
 8432 1e61 1F120000 		.4byte	0x121f
 8433 1e65 04       		.byte	0x4
 8434 1e66 19       		.uleb128 0x19
 8435 1e67 70757400 		.ascii	"put\000"
 8436 1e6b 22       		.byte	0x22
 8437 1e6c 6E       		.byte	0x6e
 8438 1e6d 39120000 		.4byte	0x1239
 8439 1e71 08       		.byte	0x8
 8440 1e72 19       		.uleb128 0x19
 8441 1e73 67657400 		.ascii	"get\000"
 8442 1e77 22       		.byte	0x22
 8443 1e78 6E       		.byte	0x6e
 8444 1e79 4E120000 		.4byte	0x124e
 8445 1e7d 0C       		.byte	0xc
 8446 1e7e 08       		.uleb128 0x8
 8447 1e7f 54170000 		.4byte	.LASF473
 8448 1e83 22       		.byte	0x22
 8449 1e84 6E       		.byte	0x6e
 8450 1e85 16150000 		.4byte	0x1516
 8451 1e89 10       		.byte	0x10
 8452 1e8a 08       		.uleb128 0x8
 8453 1e8b 741C0000 		.4byte	.LASF474
 8454 1e8f 22       		.byte	0x22
 8455 1e90 6E       		.byte	0x6e
 8456 1e91 30150000 		.4byte	0x1530
 8457 1e95 14       		.byte	0x14
 8458 1e96 08       		.uleb128 0x8
 8459 1e97 97280000 		.4byte	.LASF475
 8460 1e9b 22       		.byte	0x22
 8461 1e9c 6E       		.byte	0x6e
 8462 1e9d 54150000 		.4byte	0x1554
 8463 1ea1 18       		.byte	0x18
 8464 1ea2 08       		.uleb128 0x8
 8465 1ea3 61160000 		.4byte	.LASF476
 8466 1ea7 22       		.byte	0x22
 8467 1ea8 6E       		.byte	0x6e
 8468 1ea9 78150000 		.4byte	0x1578
 8469 1ead 1C       		.byte	0x1c
 8470 1eae 00       		.byte	0
 8471 1eaf 05       		.uleb128 0x5
 8472 1eb0 421E0000 		.4byte	0x1e42
 8473 1eb4 0B       		.uleb128 0xb
 8474 1eb5 04       		.byte	0x4
 8475 1eb6 AF1E0000 		.4byte	0x1eaf
 8476 1eba 14       		.uleb128 0x14
 8477 1ebb B2000000 		.4byte	0xb2
 8478 1ebf CA1E0000 		.4byte	0x1eca
 8479 1ec3 15       		.uleb128 0x15
 8480 1ec4 25000000 		.4byte	0x25
 8481 1ec8 7F       		.byte	0x7f
 8482 1ec9 00       		.byte	0
 8483 1eca 0B       		.uleb128 0xb
ARM GAS  /tmp/ccB9eNXv.s 			page 150


 8484 1ecb 04       		.byte	0x4
 8485 1ecc B10C0000 		.4byte	0xcb1
 8486 1ed0 11       		.uleb128 0x11
 8487 1ed1 07       		.byte	0x7
 8488 1ed2 01       		.byte	0x1
 8489 1ed3 3E000000 		.4byte	0x3e
 8490 1ed7 24       		.byte	0x24
 8491 1ed8 46       		.byte	0x46
 8492 1ed9 FC1E0000 		.4byte	0x1efc
 8493 1edd 13       		.uleb128 0x13
 8494 1ede 9A080000 		.4byte	.LASF477
 8495 1ee2 00       		.byte	0
 8496 1ee3 13       		.uleb128 0x13
 8497 1ee4 C9030000 		.4byte	.LASF478
 8498 1ee8 01       		.byte	0x1
 8499 1ee9 13       		.uleb128 0x13
 8500 1eea 3E290000 		.4byte	.LASF479
 8501 1eee 02       		.byte	0x2
 8502 1eef 13       		.uleb128 0x13
 8503 1ef0 AE140000 		.4byte	.LASF480
 8504 1ef4 03       		.byte	0x3
 8505 1ef5 13       		.uleb128 0x13
 8506 1ef6 AE160000 		.4byte	.LASF481
 8507 1efa 04       		.byte	0x4
 8508 1efb 00       		.byte	0
 8509 1efc 03       		.uleb128 0x3
 8510 1efd 6A040000 		.4byte	.LASF482
 8511 1f01 24       		.byte	0x24
 8512 1f02 4C       		.byte	0x4c
 8513 1f03 D01E0000 		.4byte	0x1ed0
 8514 1f07 1B       		.uleb128 0x1b
 8515 1f08 CC260000 		.4byte	.LASF483
 8516 1f0c 25       		.byte	0x25
 8517 1f0d 9601     		.2byte	0x196
 8518 1f0f 131F0000 		.4byte	0x1f13
 8519 1f13 0C       		.uleb128 0xc
 8520 1f14 CC260000 		.4byte	.LASF483
 8521 1f18 30       		.byte	0x30
 8522 1f19 25       		.byte	0x25
 8523 1f1a BA01     		.2byte	0x1ba
 8524 1f1c 961F0000 		.4byte	0x1f96
 8525 1f20 0A       		.uleb128 0xa
 8526 1f21 A3020000 		.4byte	.LASF385
 8527 1f25 25       		.byte	0x25
 8528 1f26 BE01     		.2byte	0x1be
 8529 1f28 FC1E0000 		.4byte	0x1efc
 8530 1f2c 00       		.byte	0
 8531 1f2d 0A       		.uleb128 0xa
 8532 1f2e 58210000 		.4byte	.LASF386
 8533 1f32 25       		.byte	0x25
 8534 1f33 C201     		.2byte	0x1c2
 8535 1f35 08200000 		.4byte	0x2008
 8536 1f39 04       		.byte	0x4
 8537 1f3a 0A       		.uleb128 0xa
 8538 1f3b 82080000 		.4byte	.LASF421
 8539 1f3f 25       		.byte	0x25
 8540 1f40 C701     		.2byte	0x1c7
ARM GAS  /tmp/ccB9eNXv.s 			page 151


 8541 1f42 C9020000 		.4byte	0x2c9
 8542 1f46 08       		.byte	0x8
 8543 1f47 0A       		.uleb128 0xa
 8544 1f48 BF0F0000 		.4byte	.LASF420
 8545 1f4c 25       		.byte	0x25
 8546 1f4d CD01     		.2byte	0x1cd
 8547 1f4f 9C100000 		.4byte	0x109c
 8548 1f53 0C       		.byte	0xc
 8549 1f54 09       		.uleb128 0x9
 8550 1f55 73706900 		.ascii	"spi\000"
 8551 1f59 25       		.byte	0x25
 8552 1f5a D601     		.2byte	0x1d6
 8553 1f5c 0E200000 		.4byte	0x200e
 8554 1f60 1C       		.byte	0x1c
 8555 1f61 0A       		.uleb128 0xa
 8556 1f62 58010000 		.4byte	.LASF425
 8557 1f66 25       		.byte	0x25
 8558 1f67 DA01     		.2byte	0x1da
 8559 1f69 341A0000 		.4byte	0x1a34
 8560 1f6d 20       		.byte	0x20
 8561 1f6e 0A       		.uleb128 0xa
 8562 1f6f E6020000 		.4byte	.LASF426
 8563 1f73 25       		.byte	0x25
 8564 1f74 DE01     		.2byte	0x1de
 8565 1f76 341A0000 		.4byte	0x1a34
 8566 1f7a 24       		.byte	0x24
 8567 1f7b 0A       		.uleb128 0xa
 8568 1f7c BE090000 		.4byte	.LASF423
 8569 1f80 25       		.byte	0x25
 8570 1f81 E201     		.2byte	0x1e2
 8571 1f83 F7000000 		.4byte	0xf7
 8572 1f87 28       		.byte	0x28
 8573 1f88 0A       		.uleb128 0xa
 8574 1f89 220A0000 		.4byte	.LASF424
 8575 1f8d 25       		.byte	0x25
 8576 1f8e E601     		.2byte	0x1e6
 8577 1f90 F7000000 		.4byte	0xf7
 8578 1f94 2C       		.byte	0x2c
 8579 1f95 00       		.byte	0
 8580 1f96 1B       		.uleb128 0x1b
 8581 1f97 0E020000 		.4byte	.LASF484
 8582 1f9b 25       		.byte	0x25
 8583 1f9c 9E01     		.2byte	0x19e
 8584 1f9e A21F0000 		.4byte	0x1fa2
 8585 1fa2 0B       		.uleb128 0xb
 8586 1fa3 04       		.byte	0x4
 8587 1fa4 A81F0000 		.4byte	0x1fa8
 8588 1fa8 0D       		.uleb128 0xd
 8589 1fa9 B31F0000 		.4byte	0x1fb3
 8590 1fad 0E       		.uleb128 0xe
 8591 1fae B31F0000 		.4byte	0x1fb3
 8592 1fb2 00       		.byte	0
 8593 1fb3 0B       		.uleb128 0xb
 8594 1fb4 04       		.byte	0x4
 8595 1fb5 071F0000 		.4byte	0x1f07
 8596 1fb9 1A       		.uleb128 0x1a
 8597 1fba 0C       		.byte	0xc
ARM GAS  /tmp/ccB9eNXv.s 			page 152


 8598 1fbb 25       		.byte	0x25
 8599 1fbc A301     		.2byte	0x1a3
 8600 1fbe F71F0000 		.4byte	0x1ff7
 8601 1fc2 0A       		.uleb128 0xa
 8602 1fc3 990A0000 		.4byte	.LASF485
 8603 1fc7 25       		.byte	0x25
 8604 1fc8 A701     		.2byte	0x1a7
 8605 1fca 961F0000 		.4byte	0x1f96
 8606 1fce 00       		.byte	0
 8607 1fcf 0A       		.uleb128 0xa
 8608 1fd0 042A0000 		.4byte	.LASF486
 8609 1fd4 25       		.byte	0x25
 8610 1fd5 AC01     		.2byte	0x1ac
 8611 1fd7 50170000 		.4byte	0x1750
 8612 1fdb 04       		.byte	0x4
 8613 1fdc 0A       		.uleb128 0xa
 8614 1fdd 1C0A0000 		.4byte	.LASF487
 8615 1fe1 25       		.byte	0x25
 8616 1fe2 B001     		.2byte	0x1b0
 8617 1fe4 D2000000 		.4byte	0xd2
 8618 1fe8 08       		.byte	0x8
 8619 1fe9 09       		.uleb128 0x9
 8620 1fea 63723100 		.ascii	"cr1\000"
 8621 1fee 25       		.byte	0x25
 8622 1fef B401     		.2byte	0x1b4
 8623 1ff1 D2000000 		.4byte	0xd2
 8624 1ff5 0A       		.byte	0xa
 8625 1ff6 00       		.byte	0
 8626 1ff7 1B       		.uleb128 0x1b
 8627 1ff8 DC260000 		.4byte	.LASF488
 8628 1ffc 25       		.byte	0x25
 8629 1ffd B501     		.2byte	0x1b5
 8630 1fff B91F0000 		.4byte	0x1fb9
 8631 2003 05       		.uleb128 0x5
 8632 2004 F71F0000 		.4byte	0x1ff7
 8633 2008 0B       		.uleb128 0xb
 8634 2009 04       		.byte	0x4
 8635 200a 03200000 		.4byte	0x2003
 8636 200e 0B       		.uleb128 0xb
 8637 200f 04       		.byte	0x4
 8638 2010 1D0B0000 		.4byte	0xb1d
 8639 2014 16       		.uleb128 0x16
 8640 2015 6E1C0000 		.4byte	.LASF489
 8641 2019 25       		.byte	0x25
 8642 201a F201     		.2byte	0x1f2
 8643 201c 071F0000 		.4byte	0x1f07
 8644 2020 16       		.uleb128 0x16
 8645 2021 791C0000 		.4byte	.LASF490
 8646 2025 25       		.byte	0x25
 8647 2026 FA01     		.2byte	0x1fa
 8648 2028 071F0000 		.4byte	0x1f07
 8649 202c 03       		.uleb128 0x3
 8650 202d 9E2A0000 		.4byte	.LASF491
 8651 2031 26       		.byte	0x26
 8652 2032 FA       		.byte	0xfa
 8653 2033 37200000 		.4byte	0x2037
 8654 2037 10       		.uleb128 0x10
ARM GAS  /tmp/ccB9eNXv.s 			page 153


 8655 2038 9E2A0000 		.4byte	.LASF491
 8656 203c 8802     		.2byte	0x288
 8657 203e 27       		.byte	0x27
 8658 203f 7701     		.2byte	0x177
 8659 2041 63210000 		.4byte	0x2163
 8660 2045 0A       		.uleb128 0xa
 8661 2046 A3020000 		.4byte	.LASF385
 8662 204a 27       		.byte	0x27
 8663 204b 7B01     		.2byte	0x17b
 8664 204d A1210000 		.4byte	0x21a1
 8665 2051 00       		.byte	0
 8666 2052 0A       		.uleb128 0xa
 8667 2053 58210000 		.4byte	.LASF386
 8668 2057 27       		.byte	0x27
 8669 2058 7F01     		.2byte	0x17f
 8670 205a C42A0000 		.4byte	0x2ac4
 8671 205e 04       		.byte	0x4
 8672 205f 0A       		.uleb128 0xa
 8673 2060 05270000 		.4byte	.LASF492
 8674 2064 27       		.byte	0x27
 8675 2065 8301     		.2byte	0x183
 8676 2067 D2000000 		.4byte	0xd2
 8677 206b 08       		.byte	0x8
 8678 206c 0A       		.uleb128 0xa
 8679 206d 4E2A0000 		.4byte	.LASF493
 8680 2071 27       		.byte	0x27
 8681 2072 8701     		.2byte	0x187
 8682 2074 D2000000 		.4byte	0xd2
 8683 2078 0A       		.byte	0xa
 8684 2079 09       		.uleb128 0x9
 8685 207a 65706300 		.ascii	"epc\000"
 8686 207e 27       		.byte	0x27
 8687 207f 8B01     		.2byte	0x18b
 8688 2081 CA2A0000 		.4byte	0x2aca
 8689 2085 0C       		.byte	0xc
 8690 2086 0A       		.uleb128 0xa
 8691 2087 25030000 		.4byte	.LASF494
 8692 208b 27       		.byte	0x27
 8693 208c 9201     		.2byte	0x192
 8694 208e E02A0000 		.4byte	0x2ae0
 8695 2092 1C       		.byte	0x1c
 8696 2093 0A       		.uleb128 0xa
 8697 2094 300F0000 		.4byte	.LASF495
 8698 2098 27       		.byte	0x27
 8699 2099 9901     		.2byte	0x199
 8700 209b E02A0000 		.4byte	0x2ae0
 8701 209f 28       		.byte	0x28
 8702 20a0 0A       		.uleb128 0xa
 8703 20a1 04130000 		.4byte	.LASF496
 8704 20a5 27       		.byte	0x27
 8705 20a6 9D01     		.2byte	0x19d
 8706 20a8 E6210000 		.4byte	0x21e6
 8707 20ac 34       		.byte	0x34
 8708 20ad 0A       		.uleb128 0xa
 8709 20ae 71060000 		.4byte	.LASF497
 8710 20b2 27       		.byte	0x27
 8711 20b3 A101     		.2byte	0x1a1
ARM GAS  /tmp/ccB9eNXv.s 			page 154


 8712 20b5 C5110000 		.4byte	0x11c5
 8713 20b9 38       		.byte	0x38
 8714 20ba 0A       		.uleb128 0xa
 8715 20bb CE1B0000 		.4byte	.LASF498
 8716 20bf 27       		.byte	0x27
 8717 20c0 A501     		.2byte	0x1a5
 8718 20c2 12010000 		.4byte	0x112
 8719 20c6 3C       		.byte	0x3c
 8720 20c7 0A       		.uleb128 0xa
 8721 20c8 DC230000 		.4byte	.LASF499
 8722 20cc 27       		.byte	0x27
 8723 20cd A901     		.2byte	0x1a9
 8724 20cf 66220000 		.4byte	0x2266
 8725 20d3 40       		.byte	0x40
 8726 20d4 0A       		.uleb128 0xa
 8727 20d5 94080000 		.4byte	.LASF500
 8728 20d9 27       		.byte	0x27
 8729 20da AD01     		.2byte	0x1ad
 8730 20dc 71120000 		.4byte	0x1271
 8731 20e0 44       		.byte	0x44
 8732 20e1 0A       		.uleb128 0xa
 8733 20e2 A8180000 		.4byte	.LASF501
 8734 20e6 27       		.byte	0x27
 8735 20e7 B101     		.2byte	0x1b1
 8736 20e9 D2000000 		.4byte	0xd2
 8737 20ed 4C       		.byte	0x4c
 8738 20ee 0A       		.uleb128 0xa
 8739 20ef 06190000 		.4byte	.LASF502
 8740 20f3 27       		.byte	0x27
 8741 20f4 B501     		.2byte	0x1b5
 8742 20f6 B2000000 		.4byte	0xb2
 8743 20fa 4E       		.byte	0x4e
 8744 20fb 0A       		.uleb128 0xa
 8745 20fc 841F0000 		.4byte	.LASF503
 8746 2100 27       		.byte	0x27
 8747 2101 B901     		.2byte	0x1b9
 8748 2103 B2000000 		.4byte	0xb2
 8749 2107 4F       		.byte	0x4f
 8750 2108 09       		.uleb128 0x9
 8751 2109 6F746700 		.ascii	"otg\000"
 8752 210d 27       		.byte	0x27
 8753 210e C101     		.2byte	0x1c1
 8754 2110 F02A0000 		.4byte	0x2af0
 8755 2114 50       		.byte	0x50
 8756 2115 0A       		.uleb128 0xa
 8757 2116 15110000 		.4byte	.LASF504
 8758 211a 27       		.byte	0x27
 8759 211b C501     		.2byte	0x1c5
 8760 211d F62A0000 		.4byte	0x2af6
 8761 2121 54       		.byte	0x54
 8762 2122 0A       		.uleb128 0xa
 8763 2123 35250000 		.4byte	.LASF505
 8764 2127 27       		.byte	0x27
 8765 2128 C901     		.2byte	0x1c9
 8766 212a F7000000 		.4byte	0xf7
 8767 212e 58       		.byte	0x58
 8768 212f 0A       		.uleb128 0xa
ARM GAS  /tmp/ccB9eNXv.s 			page 155


 8769 2130 16100000 		.4byte	.LASF506
 8770 2134 27       		.byte	0x27
 8771 2135 CD01     		.2byte	0x1cd
 8772 2137 F7000000 		.4byte	0xf7
 8773 213b 5C       		.byte	0x5c
 8774 213c 0A       		.uleb128 0xa
 8775 213d 6D090000 		.4byte	.LASF507
 8776 2141 27       		.byte	0x27
 8777 2142 D101     		.2byte	0x1d1
 8778 2144 C9020000 		.4byte	0x2c9
 8779 2148 60       		.byte	0x60
 8780 2149 09       		.uleb128 0x9
 8781 214a 747200   		.ascii	"tr\000"
 8782 214d 27       		.byte	0x27
 8783 214e D601     		.2byte	0x1d6
 8784 2150 C9020000 		.4byte	0x2c9
 8785 2154 64       		.byte	0x64
 8786 2155 0A       		.uleb128 0xa
 8787 2156 97170000 		.4byte	.LASF508
 8788 215a 27       		.byte	0x27
 8789 215b DA01     		.2byte	0x1da
 8790 215d FC2A0000 		.4byte	0x2afc
 8791 2161 68       		.byte	0x68
 8792 2162 00       		.byte	0
 8793 2163 03       		.uleb128 0x3
 8794 2164 27020000 		.4byte	.LASF509
 8795 2168 26       		.byte	0x26
 8796 2169 FF       		.byte	0xff
 8797 216a B2000000 		.4byte	0xb2
 8798 216e 24       		.uleb128 0x24
 8799 216f 07       		.byte	0x7
 8800 2170 01       		.byte	0x1
 8801 2171 3E000000 		.4byte	0x3e
 8802 2175 26       		.byte	0x26
 8803 2176 0401     		.2byte	0x104
 8804 2178 A1210000 		.4byte	0x21a1
 8805 217c 13       		.uleb128 0x13
 8806 217d 392B0000 		.4byte	.LASF510
 8807 2181 00       		.byte	0
 8808 2182 13       		.uleb128 0x13
 8809 2183 00000000 		.4byte	.LASF511
 8810 2187 01       		.byte	0x1
 8811 2188 13       		.uleb128 0x13
 8812 2189 57160000 		.4byte	.LASF512
 8813 218d 02       		.byte	0x2
 8814 218e 13       		.uleb128 0x13
 8815 218f C31D0000 		.4byte	.LASF513
 8816 2193 03       		.byte	0x3
 8817 2194 13       		.uleb128 0x13
 8818 2195 8E090000 		.4byte	.LASF514
 8819 2199 04       		.byte	0x4
 8820 219a 13       		.uleb128 0x13
 8821 219b 0A280000 		.4byte	.LASF515
 8822 219f 05       		.byte	0x5
 8823 21a0 00       		.byte	0
 8824 21a1 1B       		.uleb128 0x1b
 8825 21a2 62270000 		.4byte	.LASF516
ARM GAS  /tmp/ccB9eNXv.s 			page 156


 8826 21a6 26       		.byte	0x26
 8827 21a7 0B01     		.2byte	0x10b
 8828 21a9 6E210000 		.4byte	0x216e
 8829 21ad 24       		.uleb128 0x24
 8830 21ae 07       		.byte	0x7
 8831 21af 01       		.byte	0x1
 8832 21b0 3E000000 		.4byte	0x3e
 8833 21b4 26       		.byte	0x26
 8834 21b5 1901     		.2byte	0x119
 8835 21b7 E6210000 		.4byte	0x21e6
 8836 21bb 13       		.uleb128 0x13
 8837 21bc 8E230000 		.4byte	.LASF517
 8838 21c0 00       		.byte	0
 8839 21c1 13       		.uleb128 0x13
 8840 21c2 F9120000 		.4byte	.LASF518
 8841 21c6 01       		.byte	0x1
 8842 21c7 13       		.uleb128 0x13
 8843 21c8 E2200000 		.4byte	.LASF519
 8844 21cc 02       		.byte	0x2
 8845 21cd 13       		.uleb128 0x13
 8846 21ce E1190000 		.4byte	.LASF520
 8847 21d2 03       		.byte	0x3
 8848 21d3 13       		.uleb128 0x13
 8849 21d4 65180000 		.4byte	.LASF521
 8850 21d8 04       		.byte	0x4
 8851 21d9 13       		.uleb128 0x13
 8852 21da 28140000 		.4byte	.LASF522
 8853 21de 05       		.byte	0x5
 8854 21df 13       		.uleb128 0x13
 8855 21e0 5E120000 		.4byte	.LASF523
 8856 21e4 06       		.byte	0x6
 8857 21e5 00       		.byte	0
 8858 21e6 1B       		.uleb128 0x1b
 8859 21e7 95140000 		.4byte	.LASF524
 8860 21eb 26       		.byte	0x26
 8861 21ec 2101     		.2byte	0x121
 8862 21ee AD210000 		.4byte	0x21ad
 8863 21f2 24       		.uleb128 0x24
 8864 21f3 07       		.byte	0x7
 8865 21f4 01       		.byte	0x1
 8866 21f5 3E000000 		.4byte	0x3e
 8867 21f9 26       		.byte	0x26
 8868 21fa 2601     		.2byte	0x126
 8869 21fc 25220000 		.4byte	0x2225
 8870 2200 13       		.uleb128 0x13
 8871 2201 9B1D0000 		.4byte	.LASF525
 8872 2205 00       		.byte	0
 8873 2206 13       		.uleb128 0x13
 8874 2207 531E0000 		.4byte	.LASF526
 8875 220b 01       		.byte	0x1
 8876 220c 13       		.uleb128 0x13
 8877 220d 3F170000 		.4byte	.LASF527
 8878 2211 02       		.byte	0x2
 8879 2212 13       		.uleb128 0x13
 8880 2213 EF170000 		.4byte	.LASF528
 8881 2217 03       		.byte	0x3
 8882 2218 13       		.uleb128 0x13
ARM GAS  /tmp/ccB9eNXv.s 			page 157


 8883 2219 97290000 		.4byte	.LASF529
 8884 221d 04       		.byte	0x4
 8885 221e 13       		.uleb128 0x13
 8886 221f E1160000 		.4byte	.LASF530
 8887 2223 05       		.byte	0x5
 8888 2224 00       		.byte	0
 8889 2225 1B       		.uleb128 0x1b
 8890 2226 841E0000 		.4byte	.LASF531
 8891 222a 26       		.byte	0x26
 8892 222b 2D01     		.2byte	0x12d
 8893 222d F2210000 		.4byte	0x21f2
 8894 2231 1A       		.uleb128 0x1a
 8895 2232 08       		.byte	0x8
 8896 2233 26       		.byte	0x26
 8897 2234 3201     		.2byte	0x132
 8898 2236 55220000 		.4byte	0x2255
 8899 223a 0A       		.uleb128 0xa
 8900 223b FB2B0000 		.4byte	.LASF532
 8901 223f 26       		.byte	0x26
 8902 2240 3601     		.2byte	0x136
 8903 2242 12010000 		.4byte	0x112
 8904 2246 00       		.byte	0
 8905 2247 0A       		.uleb128 0xa
 8906 2248 FF050000 		.4byte	.LASF533
 8907 224c 26       		.byte	0x26
 8908 224d 3A01     		.2byte	0x13a
 8909 224f FA110000 		.4byte	0x11fa
 8910 2253 04       		.byte	0x4
 8911 2254 00       		.byte	0
 8912 2255 1B       		.uleb128 0x1b
 8913 2256 AF180000 		.4byte	.LASF534
 8914 225a 26       		.byte	0x26
 8915 225b 3B01     		.2byte	0x13b
 8916 225d 31220000 		.4byte	0x2231
 8917 2261 05       		.uleb128 0x5
 8918 2262 55220000 		.4byte	0x2255
 8919 2266 1B       		.uleb128 0x1b
 8920 2267 732B0000 		.4byte	.LASF535
 8921 226b 26       		.byte	0x26
 8922 226c 4301     		.2byte	0x143
 8923 226e 72220000 		.4byte	0x2272
 8924 2272 0B       		.uleb128 0xb
 8925 2273 04       		.byte	0x4
 8926 2274 78220000 		.4byte	0x2278
 8927 2278 0D       		.uleb128 0xd
 8928 2279 83220000 		.4byte	0x2283
 8929 227d 0E       		.uleb128 0xe
 8930 227e 83220000 		.4byte	0x2283
 8931 2282 00       		.byte	0
 8932 2283 0B       		.uleb128 0xb
 8933 2284 04       		.byte	0x4
 8934 2285 2C200000 		.4byte	0x202c
 8935 2289 1B       		.uleb128 0x1b
 8936 228a 85060000 		.4byte	.LASF536
 8937 228e 26       		.byte	0x26
 8938 228f 4C01     		.2byte	0x14c
 8939 2291 95220000 		.4byte	0x2295
ARM GAS  /tmp/ccB9eNXv.s 			page 158


 8940 2295 0B       		.uleb128 0xb
 8941 2296 04       		.byte	0x4
 8942 2297 9B220000 		.4byte	0x229b
 8943 229b 0D       		.uleb128 0xd
 8944 229c AB220000 		.4byte	0x22ab
 8945 22a0 0E       		.uleb128 0xe
 8946 22a1 83220000 		.4byte	0x2283
 8947 22a5 0E       		.uleb128 0xe
 8948 22a6 63210000 		.4byte	0x2163
 8949 22aa 00       		.byte	0
 8950 22ab 1B       		.uleb128 0x1b
 8951 22ac EA0C0000 		.4byte	.LASF537
 8952 22b0 26       		.byte	0x26
 8953 22b1 5501     		.2byte	0x155
 8954 22b3 B7220000 		.4byte	0x22b7
 8955 22b7 0B       		.uleb128 0xb
 8956 22b8 04       		.byte	0x4
 8957 22b9 BD220000 		.4byte	0x22bd
 8958 22bd 0D       		.uleb128 0xd
 8959 22be CD220000 		.4byte	0x22cd
 8960 22c2 0E       		.uleb128 0xe
 8961 22c3 83220000 		.4byte	0x2283
 8962 22c7 0E       		.uleb128 0xe
 8963 22c8 25220000 		.4byte	0x2225
 8964 22cc 00       		.byte	0
 8965 22cd 1B       		.uleb128 0x1b
 8966 22ce 371D0000 		.4byte	.LASF538
 8967 22d2 26       		.byte	0x26
 8968 22d3 6101     		.2byte	0x161
 8969 22d5 D9220000 		.4byte	0x22d9
 8970 22d9 0B       		.uleb128 0xb
 8971 22da 04       		.byte	0x4
 8972 22db DF220000 		.4byte	0x22df
 8973 22df 22       		.uleb128 0x22
 8974 22e0 65120000 		.4byte	0x1265
 8975 22e4 EE220000 		.4byte	0x22ee
 8976 22e8 0E       		.uleb128 0xe
 8977 22e9 83220000 		.4byte	0x2283
 8978 22ed 00       		.byte	0
 8979 22ee 1B       		.uleb128 0x1b
 8980 22ef DF120000 		.4byte	.LASF539
 8981 22f3 26       		.byte	0x26
 8982 22f4 6601     		.2byte	0x166
 8983 22f6 FA220000 		.4byte	0x22fa
 8984 22fa 0B       		.uleb128 0xb
 8985 22fb 04       		.byte	0x4
 8986 22fc 00230000 		.4byte	0x2300
 8987 2300 22       		.uleb128 0x22
 8988 2301 1E230000 		.4byte	0x231e
 8989 2305 1E230000 		.4byte	0x231e
 8990 2309 0E       		.uleb128 0xe
 8991 230a 83220000 		.4byte	0x2283
 8992 230e 0E       		.uleb128 0xe
 8993 230f B2000000 		.4byte	0xb2
 8994 2313 0E       		.uleb128 0xe
 8995 2314 B2000000 		.4byte	0xb2
 8996 2318 0E       		.uleb128 0xe
ARM GAS  /tmp/ccB9eNXv.s 			page 159


 8997 2319 D2000000 		.4byte	0xd2
 8998 231d 00       		.byte	0
 8999 231e 0B       		.uleb128 0xb
 9000 231f 04       		.byte	0x4
 9001 2320 61220000 		.4byte	0x2261
 9002 2324 18       		.uleb128 0x18
 9003 2325 20       		.byte	0x20
 9004 2326 28       		.byte	0x28
 9005 2327 35       		.byte	0x35
 9006 2328 8D230000 		.4byte	0x238d
 9007 232c 08       		.uleb128 0x8
 9008 232d 75040000 		.4byte	.LASF540
 9009 2331 28       		.byte	0x28
 9010 2332 36       		.byte	0x36
 9011 2333 02010000 		.4byte	0x102
 9012 2337 00       		.byte	0
 9013 2338 08       		.uleb128 0x8
 9014 2339 59100000 		.4byte	.LASF541
 9015 233d 28       		.byte	0x28
 9016 233e 38       		.byte	0x38
 9017 233f 02010000 		.4byte	0x102
 9018 2343 04       		.byte	0x4
 9019 2344 08       		.uleb128 0x8
 9020 2345 92030000 		.4byte	.LASF542
 9021 2349 28       		.byte	0x28
 9022 234a 39       		.byte	0x39
 9023 234b 02010000 		.4byte	0x102
 9024 234f 08       		.byte	0x8
 9025 2350 08       		.uleb128 0x8
 9026 2351 49210000 		.4byte	.LASF543
 9027 2355 28       		.byte	0x28
 9028 2356 3A       		.byte	0x3a
 9029 2357 02010000 		.4byte	0x102
 9030 235b 0C       		.byte	0xc
 9031 235c 08       		.uleb128 0x8
 9032 235d 38170000 		.4byte	.LASF544
 9033 2361 28       		.byte	0x28
 9034 2362 3C       		.byte	0x3c
 9035 2363 02010000 		.4byte	0x102
 9036 2367 10       		.byte	0x10
 9037 2368 08       		.uleb128 0x8
 9038 2369 A0100000 		.4byte	.LASF545
 9039 236d 28       		.byte	0x28
 9040 236e 3E       		.byte	0x3e
 9041 236f 02010000 		.4byte	0x102
 9042 2373 14       		.byte	0x14
 9043 2374 08       		.uleb128 0x8
 9044 2375 A8100000 		.4byte	.LASF546
 9045 2379 28       		.byte	0x28
 9046 237a 3F       		.byte	0x3f
 9047 237b 02010000 		.4byte	0x102
 9048 237f 18       		.byte	0x18
 9049 2380 08       		.uleb128 0x8
 9050 2381 31050000 		.4byte	.LASF547
 9051 2385 28       		.byte	0x28
 9052 2386 40       		.byte	0x40
 9053 2387 02010000 		.4byte	0x102
ARM GAS  /tmp/ccB9eNXv.s 			page 160


 9054 238b 1C       		.byte	0x1c
 9055 238c 00       		.byte	0
 9056 238d 03       		.uleb128 0x3
 9057 238e 07210000 		.4byte	.LASF548
 9058 2392 28       		.byte	0x28
 9059 2393 41       		.byte	0x41
 9060 2394 24230000 		.4byte	0x2324
 9061 2398 18       		.uleb128 0x18
 9062 2399 20       		.byte	0x20
 9063 239a 28       		.byte	0x28
 9064 239b 46       		.byte	0x46
 9065 239c 01240000 		.4byte	0x2401
 9066 23a0 08       		.uleb128 0x8
 9067 23a1 FB100000 		.4byte	.LASF549
 9068 23a5 28       		.byte	0x28
 9069 23a6 47       		.byte	0x47
 9070 23a7 02010000 		.4byte	0x102
 9071 23ab 00       		.byte	0
 9072 23ac 08       		.uleb128 0x8
 9073 23ad 44100000 		.4byte	.LASF550
 9074 23b1 28       		.byte	0x28
 9075 23b2 49       		.byte	0x49
 9076 23b3 02010000 		.4byte	0x102
 9077 23b7 04       		.byte	0x4
 9078 23b8 08       		.uleb128 0x8
 9079 23b9 16260000 		.4byte	.LASF551
 9080 23bd 28       		.byte	0x28
 9081 23be 4A       		.byte	0x4a
 9082 23bf 02010000 		.4byte	0x102
 9083 23c3 08       		.byte	0x8
 9084 23c4 08       		.uleb128 0x8
 9085 23c5 F8140000 		.4byte	.LASF552
 9086 23c9 28       		.byte	0x28
 9087 23ca 4C       		.byte	0x4c
 9088 23cb 02010000 		.4byte	0x102
 9089 23cf 0C       		.byte	0xc
 9090 23d0 08       		.uleb128 0x8
 9091 23d1 D81A0000 		.4byte	.LASF553
 9092 23d5 28       		.byte	0x28
 9093 23d6 4D       		.byte	0x4d
 9094 23d7 02010000 		.4byte	0x102
 9095 23db 10       		.byte	0x10
 9096 23dc 08       		.uleb128 0x8
 9097 23dd A0100000 		.4byte	.LASF545
 9098 23e1 28       		.byte	0x28
 9099 23e2 4F       		.byte	0x4f
 9100 23e3 02010000 		.4byte	0x102
 9101 23e7 14       		.byte	0x14
 9102 23e8 08       		.uleb128 0x8
 9103 23e9 A5080000 		.4byte	.LASF554
 9104 23ed 28       		.byte	0x28
 9105 23ee 50       		.byte	0x50
 9106 23ef 02010000 		.4byte	0x102
 9107 23f3 18       		.byte	0x18
 9108 23f4 08       		.uleb128 0x8
 9109 23f5 FF250000 		.4byte	.LASF555
 9110 23f9 28       		.byte	0x28
ARM GAS  /tmp/ccB9eNXv.s 			page 161


 9111 23fa 52       		.byte	0x52
 9112 23fb 02010000 		.4byte	0x102
 9113 23ff 1C       		.byte	0x1c
 9114 2400 00       		.byte	0
 9115 2401 03       		.uleb128 0x3
 9116 2402 A6090000 		.4byte	.LASF556
 9117 2406 28       		.byte	0x28
 9118 2407 53       		.byte	0x53
 9119 2408 98230000 		.4byte	0x2398
 9120 240c 18       		.uleb128 0x18
 9121 240d 20       		.byte	0x20
 9122 240e 28       		.byte	0x28
 9123 240f 58       		.byte	0x58
 9124 2410 75240000 		.4byte	0x2475
 9125 2414 08       		.uleb128 0x8
 9126 2415 41210000 		.4byte	.LASF557
 9127 2419 28       		.byte	0x28
 9128 241a 59       		.byte	0x59
 9129 241b 02010000 		.4byte	0x102
 9130 241f 00       		.byte	0
 9131 2420 08       		.uleb128 0x8
 9132 2421 44100000 		.4byte	.LASF550
 9133 2425 28       		.byte	0x28
 9134 2426 5B       		.byte	0x5b
 9135 2427 02010000 		.4byte	0x102
 9136 242b 04       		.byte	0x4
 9137 242c 08       		.uleb128 0x8
 9138 242d C91C0000 		.4byte	.LASF558
 9139 2431 28       		.byte	0x28
 9140 2432 5C       		.byte	0x5c
 9141 2433 02010000 		.4byte	0x102
 9142 2437 08       		.byte	0x8
 9143 2438 08       		.uleb128 0x8
 9144 2439 F8140000 		.4byte	.LASF552
 9145 243d 28       		.byte	0x28
 9146 243e 5E       		.byte	0x5e
 9147 243f 02010000 		.4byte	0x102
 9148 2443 0C       		.byte	0xc
 9149 2444 08       		.uleb128 0x8
 9150 2445 6D270000 		.4byte	.LASF559
 9151 2449 28       		.byte	0x28
 9152 244a 5F       		.byte	0x5f
 9153 244b 02010000 		.4byte	0x102
 9154 244f 10       		.byte	0x10
 9155 2450 08       		.uleb128 0x8
 9156 2451 A0100000 		.4byte	.LASF545
 9157 2455 28       		.byte	0x28
 9158 2456 61       		.byte	0x61
 9159 2457 02010000 		.4byte	0x102
 9160 245b 14       		.byte	0x14
 9161 245c 08       		.uleb128 0x8
 9162 245d A8100000 		.4byte	.LASF546
 9163 2461 28       		.byte	0x28
 9164 2462 62       		.byte	0x62
 9165 2463 02010000 		.4byte	0x102
 9166 2467 18       		.byte	0x18
 9167 2468 08       		.uleb128 0x8
ARM GAS  /tmp/ccB9eNXv.s 			page 162


 9168 2469 FF250000 		.4byte	.LASF555
 9169 246d 28       		.byte	0x28
 9170 246e 63       		.byte	0x63
 9171 246f 02010000 		.4byte	0x102
 9172 2473 1C       		.byte	0x1c
 9173 2474 00       		.byte	0
 9174 2475 03       		.uleb128 0x3
 9175 2476 4E1B0000 		.4byte	.LASF560
 9176 247a 28       		.byte	0x28
 9177 247b 64       		.byte	0x64
 9178 247c 0C240000 		.4byte	0x240c
 9179 2480 27       		.uleb128 0x27
 9180 2481 00100100 		.4byte	0x11000
 9181 2485 28       		.byte	0x28
 9182 2486 69       		.byte	0x69
 9183 2487 5D270000 		.4byte	0x275d
 9184 248b 08       		.uleb128 0x8
 9185 248c 69060000 		.4byte	.LASF561
 9186 2490 28       		.byte	0x28
 9187 2491 6A       		.byte	0x6a
 9188 2492 02010000 		.4byte	0x102
 9189 2496 00       		.byte	0
 9190 2497 08       		.uleb128 0x8
 9191 2498 180F0000 		.4byte	.LASF562
 9192 249c 28       		.byte	0x28
 9193 249d 6B       		.byte	0x6b
 9194 249e 02010000 		.4byte	0x102
 9195 24a2 04       		.byte	0x4
 9196 24a3 08       		.uleb128 0x8
 9197 24a4 F5080000 		.4byte	.LASF563
 9198 24a8 28       		.byte	0x28
 9199 24a9 6C       		.byte	0x6c
 9200 24aa 02010000 		.4byte	0x102
 9201 24ae 08       		.byte	0x8
 9202 24af 08       		.uleb128 0x8
 9203 24b0 872B0000 		.4byte	.LASF564
 9204 24b4 28       		.byte	0x28
 9205 24b5 6D       		.byte	0x6d
 9206 24b6 02010000 		.4byte	0x102
 9207 24ba 0C       		.byte	0xc
 9208 24bb 08       		.uleb128 0x8
 9209 24bc 80160000 		.4byte	.LASF565
 9210 24c0 28       		.byte	0x28
 9211 24c1 6E       		.byte	0x6e
 9212 24c2 02010000 		.4byte	0x102
 9213 24c6 10       		.byte	0x10
 9214 24c7 08       		.uleb128 0x8
 9215 24c8 870D0000 		.4byte	.LASF566
 9216 24cc 28       		.byte	0x28
 9217 24cd 6F       		.byte	0x6f
 9218 24ce 02010000 		.4byte	0x102
 9219 24d2 14       		.byte	0x14
 9220 24d3 08       		.uleb128 0x8
 9221 24d4 581F0000 		.4byte	.LASF567
 9222 24d8 28       		.byte	0x28
 9223 24d9 70       		.byte	0x70
 9224 24da 02010000 		.4byte	0x102
ARM GAS  /tmp/ccB9eNXv.s 			page 163


 9225 24de 18       		.byte	0x18
 9226 24df 08       		.uleb128 0x8
 9227 24e0 57090000 		.4byte	.LASF568
 9228 24e4 28       		.byte	0x28
 9229 24e5 71       		.byte	0x71
 9230 24e6 02010000 		.4byte	0x102
 9231 24ea 1C       		.byte	0x1c
 9232 24eb 08       		.uleb128 0x8
 9233 24ec 4F090000 		.4byte	.LASF569
 9234 24f0 28       		.byte	0x28
 9235 24f1 73       		.byte	0x73
 9236 24f2 02010000 		.4byte	0x102
 9237 24f6 20       		.byte	0x20
 9238 24f7 08       		.uleb128 0x8
 9239 24f8 DA1E0000 		.4byte	.LASF570
 9240 24fc 28       		.byte	0x28
 9241 24fd 75       		.byte	0x75
 9242 24fe 02010000 		.4byte	0x102
 9243 2502 24       		.byte	0x24
 9244 2503 08       		.uleb128 0x8
 9245 2504 E3000000 		.4byte	.LASF571
 9246 2508 28       		.byte	0x28
 9247 2509 76       		.byte	0x76
 9248 250a 02010000 		.4byte	0x102
 9249 250e 28       		.byte	0x28
 9250 250f 08       		.uleb128 0x8
 9251 2510 6E1F0000 		.4byte	.LASF572
 9252 2514 28       		.byte	0x28
 9253 2515 78       		.byte	0x78
 9254 2516 02010000 		.4byte	0x102
 9255 251a 2C       		.byte	0x2c
 9256 251b 08       		.uleb128 0x8
 9257 251c 0B120000 		.4byte	.LASF573
 9258 2520 28       		.byte	0x28
 9259 2521 7A       		.byte	0x7a
 9260 2522 02010000 		.4byte	0x102
 9261 2526 30       		.byte	0x30
 9262 2527 08       		.uleb128 0x8
 9263 2528 1A120000 		.4byte	.LASF574
 9264 252c 28       		.byte	0x28
 9265 252d 7B       		.byte	0x7b
 9266 252e 02010000 		.4byte	0x102
 9267 2532 34       		.byte	0x34
 9268 2533 08       		.uleb128 0x8
 9269 2534 B6020000 		.4byte	.LASF575
 9270 2538 28       		.byte	0x28
 9271 2539 7C       		.byte	0x7c
 9272 253a 02010000 		.4byte	0x102
 9273 253e 38       		.byte	0x38
 9274 253f 19       		.uleb128 0x19
 9275 2540 43494400 		.ascii	"CID\000"
 9276 2544 28       		.byte	0x28
 9277 2545 7D       		.byte	0x7d
 9278 2546 02010000 		.4byte	0x102
 9279 254a 3C       		.byte	0x3c
 9280 254b 08       		.uleb128 0x8
 9281 254c AA130000 		.4byte	.LASF576
ARM GAS  /tmp/ccB9eNXv.s 			page 164


 9282 2550 28       		.byte	0x28
 9283 2551 7E       		.byte	0x7e
 9284 2552 6D270000 		.4byte	0x276d
 9285 2556 40       		.byte	0x40
 9286 2557 26       		.uleb128 0x26
 9287 2558 AC280000 		.4byte	.LASF577
 9288 255c 28       		.byte	0x28
 9289 255d 7F       		.byte	0x7f
 9290 255e 02010000 		.4byte	0x102
 9291 2562 0001     		.2byte	0x100
 9292 2564 26       		.uleb128 0x26
 9293 2565 15030000 		.4byte	.LASF578
 9294 2569 28       		.byte	0x28
 9295 256a 81       		.byte	0x81
 9296 256b CD0C0000 		.4byte	0xccd
 9297 256f 0401     		.2byte	0x104
 9298 2571 26       		.uleb128 0x26
 9299 2572 AE170000 		.4byte	.LASF579
 9300 2576 28       		.byte	0x28
 9301 2577 83       		.byte	0x83
 9302 2578 82270000 		.4byte	0x2782
 9303 257c 4001     		.2byte	0x140
 9304 257e 26       		.uleb128 0x26
 9305 257f 351C0000 		.4byte	.LASF580
 9306 2583 28       		.byte	0x28
 9307 2584 84       		.byte	0x84
 9308 2585 02010000 		.4byte	0x102
 9309 2589 0004     		.2byte	0x400
 9310 258b 26       		.uleb128 0x26
 9311 258c 342B0000 		.4byte	.LASF581
 9312 2590 28       		.byte	0x28
 9313 2591 85       		.byte	0x85
 9314 2592 02010000 		.4byte	0x102
 9315 2596 0404     		.2byte	0x404
 9316 2598 26       		.uleb128 0x26
 9317 2599 9C050000 		.4byte	.LASF582
 9318 259d 28       		.byte	0x28
 9319 259e 86       		.byte	0x86
 9320 259f 02010000 		.4byte	0x102
 9321 25a3 0804     		.2byte	0x408
 9322 25a5 26       		.uleb128 0x26
 9323 25a6 500F0000 		.4byte	.LASF583
 9324 25aa 28       		.byte	0x28
 9325 25ab 88       		.byte	0x88
 9326 25ac 02010000 		.4byte	0x102
 9327 25b0 0C04     		.2byte	0x40c
 9328 25b2 26       		.uleb128 0x26
 9329 25b3 1B040000 		.4byte	.LASF584
 9330 25b7 28       		.byte	0x28
 9331 25b8 89       		.byte	0x89
 9332 25b9 02010000 		.4byte	0x102
 9333 25bd 1004     		.2byte	0x410
 9334 25bf 26       		.uleb128 0x26
 9335 25c0 4E050000 		.4byte	.LASF585
 9336 25c4 28       		.byte	0x28
 9337 25c5 8B       		.byte	0x8b
 9338 25c6 02010000 		.4byte	0x102
ARM GAS  /tmp/ccB9eNXv.s 			page 165


 9339 25ca 1404     		.2byte	0x414
 9340 25cc 26       		.uleb128 0x26
 9341 25cd 270F0000 		.4byte	.LASF586
 9342 25d1 28       		.byte	0x28
 9343 25d2 8D       		.byte	0x8d
 9344 25d3 02010000 		.4byte	0x102
 9345 25d7 1804     		.2byte	0x418
 9346 25d9 26       		.uleb128 0x26
 9347 25da 88220000 		.4byte	.LASF587
 9348 25de 28       		.byte	0x28
 9349 25df 8F       		.byte	0x8f
 9350 25e0 97270000 		.4byte	0x2797
 9351 25e4 1C04     		.2byte	0x41c
 9352 25e6 26       		.uleb128 0x26
 9353 25e7 79030000 		.4byte	.LASF588
 9354 25eb 28       		.byte	0x28
 9355 25ec 90       		.byte	0x90
 9356 25ed 02010000 		.4byte	0x102
 9357 25f1 4004     		.2byte	0x440
 9358 25f3 26       		.uleb128 0x26
 9359 25f4 B0240000 		.4byte	.LASF589
 9360 25f8 28       		.byte	0x28
 9361 25f9 92       		.byte	0x92
 9362 25fa AC270000 		.4byte	0x27ac
 9363 25fe 4404     		.2byte	0x444
 9364 2600 28       		.uleb128 0x28
 9365 2601 686300   		.ascii	"hc\000"
 9366 2604 28       		.byte	0x28
 9367 2605 93       		.byte	0x93
 9368 2606 B1270000 		.4byte	0x27b1
 9369 260a 0005     		.2byte	0x500
 9370 260c 26       		.uleb128 0x26
 9371 260d A8010000 		.4byte	.LASF590
 9372 2611 28       		.byte	0x28
 9373 2612 94       		.byte	0x94
 9374 2613 D1270000 		.4byte	0x27d1
 9375 2617 0007     		.2byte	0x700
 9376 2619 26       		.uleb128 0x26
 9377 261a 8A210000 		.4byte	.LASF591
 9378 261e 28       		.byte	0x28
 9379 261f 95       		.byte	0x95
 9380 2620 02010000 		.4byte	0x102
 9381 2624 0008     		.2byte	0x800
 9382 2626 26       		.uleb128 0x26
 9383 2627 6B290000 		.4byte	.LASF592
 9384 262b 28       		.byte	0x28
 9385 262c 96       		.byte	0x96
 9386 262d 02010000 		.4byte	0x102
 9387 2631 0408     		.2byte	0x804
 9388 2633 26       		.uleb128 0x26
 9389 2634 C1150000 		.4byte	.LASF593
 9390 2638 28       		.byte	0x28
 9391 2639 97       		.byte	0x97
 9392 263a 02010000 		.4byte	0x102
 9393 263e 0808     		.2byte	0x808
 9394 2640 26       		.uleb128 0x26
 9395 2641 34060000 		.4byte	.LASF594
ARM GAS  /tmp/ccB9eNXv.s 			page 166


 9396 2645 28       		.byte	0x28
 9397 2646 98       		.byte	0x98
 9398 2647 02010000 		.4byte	0x102
 9399 264b 0C08     		.2byte	0x80c
 9400 264d 26       		.uleb128 0x26
 9401 264e 100F0000 		.4byte	.LASF595
 9402 2652 28       		.byte	0x28
 9403 2653 99       		.byte	0x99
 9404 2654 02010000 		.4byte	0x102
 9405 2658 1008     		.2byte	0x810
 9406 265a 26       		.uleb128 0x26
 9407 265b 61260000 		.4byte	.LASF596
 9408 265f 28       		.byte	0x28
 9409 2660 9B       		.byte	0x9b
 9410 2661 02010000 		.4byte	0x102
 9411 2665 1408     		.2byte	0x814
 9412 2667 26       		.uleb128 0x26
 9413 2668 D6260000 		.4byte	.LASF597
 9414 266c 28       		.byte	0x28
 9415 266d 9D       		.byte	0x9d
 9416 266e 02010000 		.4byte	0x102
 9417 2672 1808     		.2byte	0x818
 9418 2674 26       		.uleb128 0x26
 9419 2675 55230000 		.4byte	.LASF598
 9420 2679 28       		.byte	0x28
 9421 267a 9F       		.byte	0x9f
 9422 267b 02010000 		.4byte	0x102
 9423 267f 1C08     		.2byte	0x81c
 9424 2681 26       		.uleb128 0x26
 9425 2682 B6070000 		.4byte	.LASF599
 9426 2686 28       		.byte	0x28
 9427 2687 A1       		.byte	0xa1
 9428 2688 02010000 		.4byte	0x102
 9429 268c 2008     		.2byte	0x820
 9430 268e 26       		.uleb128 0x26
 9431 268f BF060000 		.4byte	.LASF600
 9432 2693 28       		.byte	0x28
 9433 2694 A2       		.byte	0xa2
 9434 2695 02010000 		.4byte	0x102
 9435 2699 2408     		.2byte	0x824
 9436 269b 26       		.uleb128 0x26
 9437 269c B1010000 		.4byte	.LASF601
 9438 26a0 28       		.byte	0x28
 9439 26a1 A3       		.byte	0xa3
 9440 26a2 02010000 		.4byte	0x102
 9441 26a6 2808     		.2byte	0x828
 9442 26a8 26       		.uleb128 0x26
 9443 26a9 89080000 		.4byte	.LASF602
 9444 26ad 28       		.byte	0x28
 9445 26ae A5       		.byte	0xa5
 9446 26af 02010000 		.4byte	0x102
 9447 26b3 2C08     		.2byte	0x82c
 9448 26b5 26       		.uleb128 0x26
 9449 26b6 4E080000 		.4byte	.LASF603
 9450 26ba 28       		.byte	0x28
 9451 26bb A7       		.byte	0xa7
 9452 26bc 02010000 		.4byte	0x102
ARM GAS  /tmp/ccB9eNXv.s 			page 167


 9453 26c0 3008     		.2byte	0x830
 9454 26c2 26       		.uleb128 0x26
 9455 26c3 E4100000 		.4byte	.LASF604
 9456 26c7 28       		.byte	0x28
 9457 26c8 A8       		.byte	0xa8
 9458 26c9 02010000 		.4byte	0x102
 9459 26cd 3408     		.2byte	0x834
 9460 26cf 26       		.uleb128 0x26
 9461 26d0 61080000 		.4byte	.LASF605
 9462 26d4 28       		.byte	0x28
 9463 26d5 AA       		.byte	0xaa
 9464 26d6 02010000 		.4byte	0x102
 9465 26da 3808     		.2byte	0x838
 9466 26dc 26       		.uleb128 0x26
 9467 26dd 79080000 		.4byte	.LASF606
 9468 26e1 28       		.byte	0x28
 9469 26e2 AB       		.byte	0xab
 9470 26e3 02010000 		.4byte	0x102
 9471 26e7 3C08     		.2byte	0x83c
 9472 26e9 26       		.uleb128 0x26
 9473 26ea 05090000 		.4byte	.LASF607
 9474 26ee 28       		.byte	0x28
 9475 26ef AC       		.byte	0xac
 9476 26f0 E6270000 		.4byte	0x27e6
 9477 26f4 4008     		.2byte	0x840
 9478 26f6 26       		.uleb128 0x26
 9479 26f7 87100000 		.4byte	.LASF608
 9480 26fb 28       		.byte	0x28
 9481 26fc AD       		.byte	0xad
 9482 26fd E6270000 		.4byte	0x27e6
 9483 2701 8008     		.2byte	0x880
 9484 2703 26       		.uleb128 0x26
 9485 2704 E5140000 		.4byte	.LASF609
 9486 2708 28       		.byte	0x28
 9487 2709 AE       		.byte	0xae
 9488 270a E6270000 		.4byte	0x27e6
 9489 270e C008     		.2byte	0x8c0
 9490 2710 28       		.uleb128 0x28
 9491 2711 696500   		.ascii	"ie\000"
 9492 2714 28       		.byte	0x28
 9493 2715 AF       		.byte	0xaf
 9494 2716 EB270000 		.4byte	0x27eb
 9495 271a 0009     		.2byte	0x900
 9496 271c 28       		.uleb128 0x28
 9497 271d 6F6500   		.ascii	"oe\000"
 9498 2720 28       		.byte	0x28
 9499 2721 B0       		.byte	0xb0
 9500 2722 FB270000 		.4byte	0x27fb
 9501 2726 000B     		.2byte	0xb00
 9502 2728 26       		.uleb128 0x26
 9503 2729 710D0000 		.4byte	.LASF610
 9504 272d 28       		.byte	0x28
 9505 272e B1       		.byte	0xb1
 9506 272f D1270000 		.4byte	0x27d1
 9507 2733 000D     		.2byte	0xd00
 9508 2735 26       		.uleb128 0x26
 9509 2736 8F290000 		.4byte	.LASF611
ARM GAS  /tmp/ccB9eNXv.s 			page 168


 9510 273a 28       		.byte	0x28
 9511 273b B2       		.byte	0xb2
 9512 273c 02010000 		.4byte	0x102
 9513 2740 000E     		.2byte	0xe00
 9514 2742 26       		.uleb128 0x26
 9515 2743 90120000 		.4byte	.LASF612
 9516 2747 28       		.byte	0x28
 9517 2748 B4       		.byte	0xb4
 9518 2749 1B280000 		.4byte	0x281b
 9519 274d 040E     		.2byte	0xe04
 9520 274f 26       		.uleb128 0x26
 9521 2750 59290000 		.4byte	.LASF613
 9522 2754 28       		.byte	0x28
 9523 2755 B5       		.byte	0xb5
 9524 2756 37280000 		.4byte	0x2837
 9525 275a 0010     		.2byte	0x1000
 9526 275c 00       		.byte	0
 9527 275d 14       		.uleb128 0x14
 9528 275e 02010000 		.4byte	0x102
 9529 2762 6D270000 		.4byte	0x276d
 9530 2766 15       		.uleb128 0x15
 9531 2767 25000000 		.4byte	0x25
 9532 276b 2F       		.byte	0x2f
 9533 276c 00       		.byte	0
 9534 276d 06       		.uleb128 0x6
 9535 276e 5D270000 		.4byte	0x275d
 9536 2772 14       		.uleb128 0x14
 9537 2773 02010000 		.4byte	0x102
 9538 2777 82270000 		.4byte	0x2782
 9539 277b 15       		.uleb128 0x15
 9540 277c 25000000 		.4byte	0x25
 9541 2780 AF       		.byte	0xaf
 9542 2781 00       		.byte	0
 9543 2782 06       		.uleb128 0x6
 9544 2783 72270000 		.4byte	0x2772
 9545 2787 14       		.uleb128 0x14
 9546 2788 02010000 		.4byte	0x102
 9547 278c 97270000 		.4byte	0x2797
 9548 2790 15       		.uleb128 0x15
 9549 2791 25000000 		.4byte	0x25
 9550 2795 08       		.byte	0x8
 9551 2796 00       		.byte	0
 9552 2797 06       		.uleb128 0x6
 9553 2798 87270000 		.4byte	0x2787
 9554 279c 14       		.uleb128 0x14
 9555 279d 02010000 		.4byte	0x102
 9556 27a1 AC270000 		.4byte	0x27ac
 9557 27a5 15       		.uleb128 0x15
 9558 27a6 25000000 		.4byte	0x25
 9559 27aa 2E       		.byte	0x2e
 9560 27ab 00       		.byte	0
 9561 27ac 06       		.uleb128 0x6
 9562 27ad 9C270000 		.4byte	0x279c
 9563 27b1 14       		.uleb128 0x14
 9564 27b2 8D230000 		.4byte	0x238d
 9565 27b6 C1270000 		.4byte	0x27c1
 9566 27ba 15       		.uleb128 0x15
ARM GAS  /tmp/ccB9eNXv.s 			page 169


 9567 27bb 25000000 		.4byte	0x25
 9568 27bf 0F       		.byte	0xf
 9569 27c0 00       		.byte	0
 9570 27c1 14       		.uleb128 0x14
 9571 27c2 02010000 		.4byte	0x102
 9572 27c6 D1270000 		.4byte	0x27d1
 9573 27ca 15       		.uleb128 0x15
 9574 27cb 25000000 		.4byte	0x25
 9575 27cf 3F       		.byte	0x3f
 9576 27d0 00       		.byte	0
 9577 27d1 06       		.uleb128 0x6
 9578 27d2 C1270000 		.4byte	0x27c1
 9579 27d6 14       		.uleb128 0x14
 9580 27d7 02010000 		.4byte	0x102
 9581 27db E6270000 		.4byte	0x27e6
 9582 27df 15       		.uleb128 0x15
 9583 27e0 25000000 		.4byte	0x25
 9584 27e4 0F       		.byte	0xf
 9585 27e5 00       		.byte	0
 9586 27e6 06       		.uleb128 0x6
 9587 27e7 D6270000 		.4byte	0x27d6
 9588 27eb 14       		.uleb128 0x14
 9589 27ec 01240000 		.4byte	0x2401
 9590 27f0 FB270000 		.4byte	0x27fb
 9591 27f4 15       		.uleb128 0x15
 9592 27f5 25000000 		.4byte	0x25
 9593 27f9 0F       		.byte	0xf
 9594 27fa 00       		.byte	0
 9595 27fb 14       		.uleb128 0x14
 9596 27fc 75240000 		.4byte	0x2475
 9597 2800 0B280000 		.4byte	0x280b
 9598 2804 15       		.uleb128 0x15
 9599 2805 25000000 		.4byte	0x25
 9600 2809 0F       		.byte	0xf
 9601 280a 00       		.byte	0
 9602 280b 14       		.uleb128 0x14
 9603 280c 02010000 		.4byte	0x102
 9604 2810 1B280000 		.4byte	0x281b
 9605 2814 15       		.uleb128 0x15
 9606 2815 25000000 		.4byte	0x25
 9607 2819 7E       		.byte	0x7e
 9608 281a 00       		.byte	0
 9609 281b 06       		.uleb128 0x6
 9610 281c 0B280000 		.4byte	0x280b
 9611 2820 14       		.uleb128 0x14
 9612 2821 02010000 		.4byte	0x102
 9613 2825 37280000 		.4byte	0x2837
 9614 2829 15       		.uleb128 0x15
 9615 282a 25000000 		.4byte	0x25
 9616 282e 0F       		.byte	0xf
 9617 282f 29       		.uleb128 0x29
 9618 2830 25000000 		.4byte	0x25
 9619 2834 FF03     		.2byte	0x3ff
 9620 2836 00       		.byte	0
 9621 2837 06       		.uleb128 0x6
 9622 2838 20280000 		.4byte	0x2820
 9623 283c 03       		.uleb128 0x3
ARM GAS  /tmp/ccB9eNXv.s 			page 170


 9624 283d D62B0000 		.4byte	.LASF614
 9625 2841 28       		.byte	0x28
 9626 2842 B6       		.byte	0xb6
 9627 2843 80240000 		.4byte	0x2480
 9628 2847 18       		.uleb128 0x18
 9629 2848 0C       		.byte	0xc
 9630 2849 27       		.byte	0x27
 9631 284a C6       		.byte	0xc6
 9632 284b 74280000 		.4byte	0x2874
 9633 284f 08       		.uleb128 0x8
 9634 2850 650A0000 		.4byte	.LASF615
 9635 2854 27       		.byte	0x27
 9636 2855 C7       		.byte	0xc7
 9637 2856 F7000000 		.4byte	0xf7
 9638 285a 00       		.byte	0
 9639 285b 08       		.uleb128 0x8
 9640 285c 210D0000 		.4byte	.LASF616
 9641 2860 27       		.byte	0x27
 9642 2861 C8       		.byte	0xc8
 9643 2862 F7000000 		.4byte	0xf7
 9644 2866 04       		.byte	0x4
 9645 2867 08       		.uleb128 0x8
 9646 2868 99120000 		.4byte	.LASF617
 9647 286c 27       		.byte	0x27
 9648 286d C9       		.byte	0xc9
 9649 286e F7000000 		.4byte	0xf7
 9650 2872 08       		.byte	0x8
 9651 2873 00       		.byte	0
 9652 2874 03       		.uleb128 0x3
 9653 2875 5E0D0000 		.4byte	.LASF618
 9654 2879 27       		.byte	0x27
 9655 287a CA       		.byte	0xca
 9656 287b 47280000 		.4byte	0x2847
 9657 287f 05       		.uleb128 0x5
 9658 2880 74280000 		.4byte	0x2874
 9659 2884 18       		.uleb128 0x18
 9660 2885 04       		.byte	0x4
 9661 2886 27       		.byte	0x27
 9662 2887 DD       		.byte	0xdd
 9663 2888 99280000 		.4byte	0x2899
 9664 288c 08       		.uleb128 0x8
 9665 288d 89290000 		.4byte	.LASF619
 9666 2891 27       		.byte	0x27
 9667 2892 E1       		.byte	0xe1
 9668 2893 FA110000 		.4byte	0x11fa
 9669 2897 00       		.byte	0
 9670 2898 00       		.byte	0
 9671 2899 18       		.uleb128 0x18
 9672 289a 04       		.byte	0x4
 9673 289b 27       		.byte	0x27
 9674 289c E3       		.byte	0xe3
 9675 289d AE280000 		.4byte	0x28ae
 9676 28a1 08       		.uleb128 0x8
 9677 28a2 E00A0000 		.4byte	.LASF387
 9678 28a6 27       		.byte	0x27
 9679 28a7 E7       		.byte	0xe7
 9680 28a8 AE280000 		.4byte	0x28ae
ARM GAS  /tmp/ccB9eNXv.s 			page 171


 9681 28ac 00       		.byte	0
 9682 28ad 00       		.byte	0
 9683 28ae 0B       		.uleb128 0xb
 9684 28af 04       		.byte	0x4
 9685 28b0 D6110000 		.4byte	0x11d6
 9686 28b4 1F       		.uleb128 0x1f
 9687 28b5 04       		.byte	0x4
 9688 28b6 27       		.byte	0x27
 9689 28b7 DC       		.byte	0xdc
 9690 28b8 D3280000 		.4byte	0x28d3
 9691 28bc 2A       		.uleb128 0x2a
 9692 28bd F9240000 		.4byte	.LASF620
 9693 28c1 27       		.byte	0x27
 9694 28c2 E2       		.byte	0xe2
 9695 28c3 84280000 		.4byte	0x2884
 9696 28c7 2A       		.uleb128 0x2a
 9697 28c8 C6230000 		.4byte	.LASF621
 9698 28cc 27       		.byte	0x27
 9699 28cd E8       		.byte	0xe8
 9700 28ce 99280000 		.4byte	0x2899
 9701 28d2 00       		.byte	0
 9702 28d3 18       		.uleb128 0x18
 9703 28d4 14       		.byte	0x14
 9704 28d5 27       		.byte	0x27
 9705 28d6 CF       		.byte	0xcf
 9706 28d7 18290000 		.4byte	0x2918
 9707 28db 08       		.uleb128 0x8
 9708 28dc 33090000 		.4byte	.LASF622
 9709 28e0 27       		.byte	0x27
 9710 28e1 D3       		.byte	0xd3
 9711 28e2 65120000 		.4byte	0x1265
 9712 28e6 00       		.byte	0
 9713 28e7 08       		.uleb128 0x8
 9714 28e8 06160000 		.4byte	.LASF623
 9715 28ec 27       		.byte	0x27
 9716 28ed D7       		.byte	0xd7
 9717 28ee 12010000 		.4byte	0x112
 9718 28f2 04       		.byte	0x4
 9719 28f3 08       		.uleb128 0x8
 9720 28f4 11290000 		.4byte	.LASF624
 9721 28f8 27       		.byte	0x27
 9722 28f9 DB       		.byte	0xdb
 9723 28fa 12010000 		.4byte	0x112
 9724 28fe 08       		.byte	0x8
 9725 28ff 08       		.uleb128 0x8
 9726 2900 D2090000 		.4byte	.LASF449
 9727 2904 27       		.byte	0x27
 9728 2905 E9       		.byte	0xe9
 9729 2906 B4280000 		.4byte	0x28b4
 9730 290a 0C       		.byte	0xc
 9731 290b 08       		.uleb128 0x8
 9732 290c A7120000 		.4byte	.LASF625
 9733 2910 27       		.byte	0x27
 9734 2911 ED       		.byte	0xed
 9735 2912 12010000 		.4byte	0x112
 9736 2916 10       		.byte	0x10
 9737 2917 00       		.byte	0
ARM GAS  /tmp/ccB9eNXv.s 			page 172


 9738 2918 03       		.uleb128 0x3
 9739 2919 B2130000 		.4byte	.LASF626
 9740 291d 27       		.byte	0x27
 9741 291e EE       		.byte	0xee
 9742 291f D3280000 		.4byte	0x28d3
 9743 2923 1A       		.uleb128 0x1a
 9744 2924 04       		.byte	0x4
 9745 2925 27       		.byte	0x27
 9746 2926 0101     		.2byte	0x101
 9747 2928 3A290000 		.4byte	0x293a
 9748 292c 0A       		.uleb128 0xa
 9749 292d 810D0000 		.4byte	.LASF627
 9750 2931 27       		.byte	0x27
 9751 2932 0501     		.2byte	0x105
 9752 2934 C5110000 		.4byte	0x11c5
 9753 2938 00       		.byte	0
 9754 2939 00       		.byte	0
 9755 293a 1A       		.uleb128 0x1a
 9756 293b 04       		.byte	0x4
 9757 293c 27       		.byte	0x27
 9758 293d 0701     		.2byte	0x107
 9759 293f 51290000 		.4byte	0x2951
 9760 2943 0A       		.uleb128 0xa
 9761 2944 A8240000 		.4byte	.LASF388
 9762 2948 27       		.byte	0x27
 9763 2949 0B01     		.2byte	0x10b
 9764 294b 51290000 		.4byte	0x2951
 9765 294f 00       		.byte	0
 9766 2950 00       		.byte	0
 9767 2951 0B       		.uleb128 0xb
 9768 2952 04       		.byte	0x4
 9769 2953 CB110000 		.4byte	0x11cb
 9770 2957 2B       		.uleb128 0x2b
 9771 2958 04       		.byte	0x4
 9772 2959 27       		.byte	0x27
 9773 295a 0001     		.2byte	0x100
 9774 295c 79290000 		.4byte	0x2979
 9775 2960 20       		.uleb128 0x20
 9776 2961 F9240000 		.4byte	.LASF620
 9777 2965 27       		.byte	0x27
 9778 2966 0601     		.2byte	0x106
 9779 2968 23290000 		.4byte	0x2923
 9780 296c 20       		.uleb128 0x20
 9781 296d C6230000 		.4byte	.LASF621
 9782 2971 27       		.byte	0x27
 9783 2972 0C01     		.2byte	0x10c
 9784 2974 3A290000 		.4byte	0x293a
 9785 2978 00       		.byte	0
 9786 2979 18       		.uleb128 0x18
 9787 297a 14       		.byte	0x14
 9788 297b 27       		.byte	0x27
 9789 297c F3       		.byte	0xf3
 9790 297d C0290000 		.4byte	0x29c0
 9791 2981 08       		.uleb128 0x8
 9792 2982 81070000 		.4byte	.LASF628
 9793 2986 27       		.byte	0x27
 9794 2987 F7       		.byte	0xf7
ARM GAS  /tmp/ccB9eNXv.s 			page 173


 9795 2988 65120000 		.4byte	0x1265
 9796 298c 00       		.byte	0
 9797 298d 08       		.uleb128 0x8
 9798 298e 10170000 		.4byte	.LASF629
 9799 2992 27       		.byte	0x27
 9800 2993 FB       		.byte	0xfb
 9801 2994 12010000 		.4byte	0x112
 9802 2998 04       		.byte	0x4
 9803 2999 08       		.uleb128 0x8
 9804 299a B8090000 		.4byte	.LASF630
 9805 299e 27       		.byte	0x27
 9806 299f FF       		.byte	0xff
 9807 29a0 12010000 		.4byte	0x112
 9808 29a4 08       		.byte	0x8
 9809 29a5 0A       		.uleb128 0xa
 9810 29a6 D2090000 		.4byte	.LASF449
 9811 29aa 27       		.byte	0x27
 9812 29ab 0D01     		.2byte	0x10d
 9813 29ad 57290000 		.4byte	0x2957
 9814 29b1 0C       		.byte	0xc
 9815 29b2 0A       		.uleb128 0xa
 9816 29b3 A7120000 		.4byte	.LASF625
 9817 29b7 27       		.byte	0x27
 9818 29b8 1101     		.2byte	0x111
 9819 29ba 12010000 		.4byte	0x112
 9820 29be 10       		.byte	0x10
 9821 29bf 00       		.byte	0
 9822 29c0 1B       		.uleb128 0x1b
 9823 29c1 74220000 		.4byte	.LASF631
 9824 29c5 27       		.byte	0x27
 9825 29c6 1201     		.2byte	0x112
 9826 29c8 79290000 		.4byte	0x2979
 9827 29cc 1A       		.uleb128 0x1a
 9828 29cd 24       		.byte	0x24
 9829 29ce 27       		.byte	0x27
 9830 29cf 1801     		.2byte	0x118
 9831 29d1 582A0000 		.4byte	0x2a58
 9832 29d5 0A       		.uleb128 0xa
 9833 29d6 461B0000 		.4byte	.LASF632
 9834 29da 27       		.byte	0x27
 9835 29db 1C01     		.2byte	0x11c
 9836 29dd F7000000 		.4byte	0xf7
 9837 29e1 00       		.byte	0
 9838 29e2 0A       		.uleb128 0xa
 9839 29e3 B20A0000 		.4byte	.LASF633
 9840 29e7 27       		.byte	0x27
 9841 29e8 2701     		.2byte	0x127
 9842 29ea 89220000 		.4byte	0x2289
 9843 29ee 04       		.byte	0x4
 9844 29ef 0A       		.uleb128 0xa
 9845 29f0 C31C0000 		.4byte	.LASF634
 9846 29f4 27       		.byte	0x27
 9847 29f5 2D01     		.2byte	0x12d
 9848 29f7 89220000 		.4byte	0x2289
 9849 29fb 08       		.byte	0x8
 9850 29fc 0A       		.uleb128 0xa
 9851 29fd 200F0000 		.4byte	.LASF635
ARM GAS  /tmp/ccB9eNXv.s 			page 174


 9852 2a01 27       		.byte	0x27
 9853 2a02 3301     		.2byte	0x133
 9854 2a04 89220000 		.4byte	0x2289
 9855 2a08 0C       		.byte	0xc
 9856 2a09 0A       		.uleb128 0xa
 9857 2a0a 1D2C0000 		.4byte	.LASF636
 9858 2a0e 27       		.byte	0x27
 9859 2a0f 3901     		.2byte	0x139
 9860 2a11 D2000000 		.4byte	0xd2
 9861 2a15 10       		.byte	0x10
 9862 2a16 0A       		.uleb128 0xa
 9863 2a17 4E130000 		.4byte	.LASF637
 9864 2a1b 27       		.byte	0x27
 9865 2a1c 3F01     		.2byte	0x13f
 9866 2a1e D2000000 		.4byte	0xd2
 9867 2a22 12       		.byte	0x12
 9868 2a23 0A       		.uleb128 0xa
 9869 2a24 A82A0000 		.4byte	.LASF638
 9870 2a28 27       		.byte	0x27
 9871 2a29 4401     		.2byte	0x144
 9872 2a2b 582A0000 		.4byte	0x2a58
 9873 2a2f 14       		.byte	0x14
 9874 2a30 0A       		.uleb128 0xa
 9875 2a31 3B110000 		.4byte	.LASF639
 9876 2a35 27       		.byte	0x27
 9877 2a36 4901     		.2byte	0x149
 9878 2a38 5E2A0000 		.4byte	0x2a5e
 9879 2a3c 18       		.byte	0x18
 9880 2a3d 0A       		.uleb128 0xa
 9881 2a3e 75150000 		.4byte	.LASF640
 9882 2a42 27       		.byte	0x27
 9883 2a43 5001     		.2byte	0x150
 9884 2a45 D2000000 		.4byte	0xd2
 9885 2a49 1C       		.byte	0x1c
 9886 2a4a 0A       		.uleb128 0xa
 9887 2a4b D2290000 		.4byte	.LASF641
 9888 2a4f 27       		.byte	0x27
 9889 2a50 5601     		.2byte	0x156
 9890 2a52 C5110000 		.4byte	0x11c5
 9891 2a56 20       		.byte	0x20
 9892 2a57 00       		.byte	0
 9893 2a58 0B       		.uleb128 0xb
 9894 2a59 04       		.byte	0x4
 9895 2a5a 18290000 		.4byte	0x2918
 9896 2a5e 0B       		.uleb128 0xb
 9897 2a5f 04       		.byte	0x4
 9898 2a60 C0290000 		.4byte	0x29c0
 9899 2a64 1B       		.uleb128 0x1b
 9900 2a65 96240000 		.4byte	.LASF642
 9901 2a69 27       		.byte	0x27
 9902 2a6a 5701     		.2byte	0x157
 9903 2a6c CC290000 		.4byte	0x29cc
 9904 2a70 05       		.uleb128 0x5
 9905 2a71 642A0000 		.4byte	0x2a64
 9906 2a75 1A       		.uleb128 0x1a
 9907 2a76 10       		.byte	0x10
 9908 2a77 27       		.byte	0x27
ARM GAS  /tmp/ccB9eNXv.s 			page 175


 9909 2a78 5C01     		.2byte	0x15c
 9910 2a7a B32A0000 		.4byte	0x2ab3
 9911 2a7e 0A       		.uleb128 0xa
 9912 2a7f 3D060000 		.4byte	.LASF643
 9913 2a83 27       		.byte	0x27
 9914 2a84 6101     		.2byte	0x161
 9915 2a86 AB220000 		.4byte	0x22ab
 9916 2a8a 00       		.byte	0
 9917 2a8b 0A       		.uleb128 0xa
 9918 2a8c 17290000 		.4byte	.LASF644
 9919 2a90 27       		.byte	0x27
 9920 2a91 6601     		.2byte	0x166
 9921 2a93 EE220000 		.4byte	0x22ee
 9922 2a97 04       		.byte	0x4
 9923 2a98 0A       		.uleb128 0xa
 9924 2a99 E6150000 		.4byte	.LASF645
 9925 2a9d 27       		.byte	0x27
 9926 2a9e 6C01     		.2byte	0x16c
 9927 2aa0 CD220000 		.4byte	0x22cd
 9928 2aa4 08       		.byte	0x8
 9929 2aa5 0A       		.uleb128 0xa
 9930 2aa6 EC020000 		.4byte	.LASF646
 9931 2aaa 27       		.byte	0x27
 9932 2aab 7001     		.2byte	0x170
 9933 2aad 66220000 		.4byte	0x2266
 9934 2ab1 0C       		.byte	0xc
 9935 2ab2 00       		.byte	0
 9936 2ab3 1B       		.uleb128 0x1b
 9937 2ab4 EE140000 		.4byte	.LASF647
 9938 2ab8 27       		.byte	0x27
 9939 2ab9 7201     		.2byte	0x172
 9940 2abb 752A0000 		.4byte	0x2a75
 9941 2abf 05       		.uleb128 0x5
 9942 2ac0 B32A0000 		.4byte	0x2ab3
 9943 2ac4 0B       		.uleb128 0xb
 9944 2ac5 04       		.byte	0x4
 9945 2ac6 BF2A0000 		.4byte	0x2abf
 9946 2aca 14       		.uleb128 0x14
 9947 2acb DA2A0000 		.4byte	0x2ada
 9948 2acf DA2A0000 		.4byte	0x2ada
 9949 2ad3 15       		.uleb128 0x15
 9950 2ad4 25000000 		.4byte	0x25
 9951 2ad8 03       		.byte	0x3
 9952 2ad9 00       		.byte	0
 9953 2ada 0B       		.uleb128 0xb
 9954 2adb 04       		.byte	0x4
 9955 2adc 702A0000 		.4byte	0x2a70
 9956 2ae0 14       		.uleb128 0x14
 9957 2ae1 B1030000 		.4byte	0x3b1
 9958 2ae5 F02A0000 		.4byte	0x2af0
 9959 2ae9 15       		.uleb128 0x15
 9960 2aea 25000000 		.4byte	0x25
 9961 2aee 02       		.byte	0x2
 9962 2aef 00       		.byte	0
 9963 2af0 0B       		.uleb128 0xb
 9964 2af1 04       		.byte	0x4
 9965 2af2 3C280000 		.4byte	0x283c
ARM GAS  /tmp/ccB9eNXv.s 			page 176


 9966 2af6 0B       		.uleb128 0xb
 9967 2af7 04       		.byte	0x4
 9968 2af8 7F280000 		.4byte	0x287f
 9969 2afc 14       		.uleb128 0x14
 9970 2afd 020D0000 		.4byte	0xd02
 9971 2b01 0C2B0000 		.4byte	0x2b0c
 9972 2b05 15       		.uleb128 0x15
 9973 2b06 25000000 		.4byte	0x25
 9974 2b0a 43       		.byte	0x43
 9975 2b0b 00       		.byte	0
 9976 2b0c 16       		.uleb128 0x16
 9977 2b0d D0180000 		.4byte	.LASF648
 9978 2b11 27       		.byte	0x27
 9979 2b12 0602     		.2byte	0x206
 9980 2b14 2C200000 		.4byte	0x202c
 9981 2b18 14       		.uleb128 0x14
 9982 2b19 DD000000 		.4byte	0xdd
 9983 2b1d 232B0000 		.4byte	0x2b23
 9984 2b21 2C       		.uleb128 0x2c
 9985 2b22 00       		.byte	0
 9986 2b23 06       		.uleb128 0x6
 9987 2b24 182B0000 		.4byte	0x2b18
 9988 2b28 17       		.uleb128 0x17
 9989 2b29 351B0000 		.4byte	.LASF649
 9990 2b2d 29       		.byte	0x29
 9991 2b2e 7F       		.byte	0x7f
 9992 2b2f 232B0000 		.4byte	0x2b23
 9993 2b33 14       		.uleb128 0x14
 9994 2b34 5B120000 		.4byte	0x125b
 9995 2b38 3E2B0000 		.4byte	0x2b3e
 9996 2b3c 2C       		.uleb128 0x2c
 9997 2b3d 00       		.byte	0
 9998 2b3e 06       		.uleb128 0x6
 9999 2b3f 332B0000 		.4byte	0x2b33
 10000 2b43 17       		.uleb128 0x17
 10001 2b44 BC2A0000 		.4byte	.LASF650
 10002 2b48 29       		.byte	0x29
 10003 2b49 80       		.byte	0x80
 10004 2b4a 3E2B0000 		.4byte	0x2b3e
 10005 2b4e 14       		.uleb128 0x14
 10006 2b4f 60120000 		.4byte	0x1260
 10007 2b53 592B0000 		.4byte	0x2b59
 10008 2b57 2C       		.uleb128 0x2c
 10009 2b58 00       		.byte	0
 10010 2b59 05       		.uleb128 0x5
 10011 2b5a 4E2B0000 		.4byte	0x2b4e
 10012 2b5e 17       		.uleb128 0x17
 10013 2b5f D8060000 		.4byte	.LASF651
 10014 2b63 2A       		.byte	0x2a
 10015 2b64 81       		.byte	0x81
 10016 2b65 592B0000 		.4byte	0x2b59
 10017 2b69 17       		.uleb128 0x17
 10018 2b6a EB060000 		.4byte	.LASF652
 10019 2b6e 2A       		.byte	0x2a
 10020 2b6f 82       		.byte	0x82
 10021 2b70 592B0000 		.4byte	0x2b59
 10022 2b74 17       		.uleb128 0x17
ARM GAS  /tmp/ccB9eNXv.s 			page 177


 10023 2b75 E01C0000 		.4byte	.LASF653
 10024 2b79 2A       		.byte	0x2a
 10025 2b7a 83       		.byte	0x83
 10026 2b7b 592B0000 		.4byte	0x2b59
 10027 2b7f 17       		.uleb128 0x17
 10028 2b80 4F000000 		.4byte	.LASF654
 10029 2b84 2A       		.byte	0x2a
 10030 2b85 84       		.byte	0x84
 10031 2b86 592B0000 		.4byte	0x2b59
 10032 2b8a 03       		.uleb128 0x3
 10033 2b8b FD080000 		.4byte	.LASF655
 10034 2b8f 2B       		.byte	0x2b
 10035 2b90 22       		.byte	0x22
 10036 2b91 952B0000 		.4byte	0x2b95
 10037 2b95 0B       		.uleb128 0xb
 10038 2b96 04       		.byte	0x4
 10039 2b97 9B2B0000 		.4byte	0x2b9b
 10040 2b9b 2D       		.uleb128 0x2d
 10041 2b9c 54070000 		.4byte	.LASF761
 10042 2ba0 03       		.uleb128 0x3
 10043 2ba1 3D100000 		.4byte	.LASF656
 10044 2ba5 2C       		.byte	0x2c
 10045 2ba6 2C       		.byte	0x2c
 10046 2ba7 74000000 		.4byte	0x74
 10047 2bab 03       		.uleb128 0x3
 10048 2bac 10220000 		.4byte	.LASF657
 10049 2bb0 2C       		.byte	0x2c
 10050 2bb1 72       		.byte	0x72
 10051 2bb2 74000000 		.4byte	0x74
 10052 2bb6 1B       		.uleb128 0x1b
 10053 2bb7 79120000 		.4byte	.LASF658
 10054 2bbb 06       		.byte	0x6
 10055 2bbc 6501     		.2byte	0x165
 10056 2bbe 25000000 		.4byte	0x25
 10057 2bc2 1F       		.uleb128 0x1f
 10058 2bc3 04       		.byte	0x4
 10059 2bc4 2C       		.byte	0x2c
 10060 2bc5 A6       		.byte	0xa6
 10061 2bc6 E12B0000 		.4byte	0x2be1
 10062 2bca 2A       		.uleb128 0x2a
 10063 2bcb 891A0000 		.4byte	.LASF659
 10064 2bcf 2C       		.byte	0x2c
 10065 2bd0 A8       		.byte	0xa8
 10066 2bd1 B62B0000 		.4byte	0x2bb6
 10067 2bd5 2A       		.uleb128 0x2a
 10068 2bd6 13120000 		.4byte	.LASF660
 10069 2bda 2C       		.byte	0x2c
 10070 2bdb A9       		.byte	0xa9
 10071 2bdc E12B0000 		.4byte	0x2be1
 10072 2be0 00       		.byte	0
 10073 2be1 14       		.uleb128 0x14
 10074 2be2 3E000000 		.4byte	0x3e
 10075 2be6 F12B0000 		.4byte	0x2bf1
 10076 2bea 15       		.uleb128 0x15
 10077 2beb 25000000 		.4byte	0x25
 10078 2bef 03       		.byte	0x3
 10079 2bf0 00       		.byte	0
ARM GAS  /tmp/ccB9eNXv.s 			page 178


 10080 2bf1 18       		.uleb128 0x18
 10081 2bf2 08       		.byte	0x8
 10082 2bf3 2C       		.byte	0x2c
 10083 2bf4 A3       		.byte	0xa3
 10084 2bf5 122C0000 		.4byte	0x2c12
 10085 2bf9 08       		.uleb128 0x8
 10086 2bfa 90100000 		.4byte	.LASF661
 10087 2bfe 2C       		.byte	0x2c
 10088 2bff A5       		.byte	0xa5
 10089 2c00 A6000000 		.4byte	0xa6
 10090 2c04 00       		.byte	0
 10091 2c05 08       		.uleb128 0x8
 10092 2c06 8F1A0000 		.4byte	.LASF662
 10093 2c0a 2C       		.byte	0x2c
 10094 2c0b AA       		.byte	0xaa
 10095 2c0c C22B0000 		.4byte	0x2bc2
 10096 2c10 04       		.byte	0x4
 10097 2c11 00       		.byte	0
 10098 2c12 03       		.uleb128 0x3
 10099 2c13 91220000 		.4byte	.LASF663
 10100 2c17 2C       		.byte	0x2c
 10101 2c18 AB       		.byte	0xab
 10102 2c19 F12B0000 		.4byte	0x2bf1
 10103 2c1d 03       		.uleb128 0x3
 10104 2c1e 7B270000 		.4byte	.LASF664
 10105 2c22 2C       		.byte	0x2c
 10106 2c23 AF       		.byte	0xaf
 10107 2c24 8A2B0000 		.4byte	0x2b8a
 10108 2c28 0B       		.uleb128 0xb
 10109 2c29 04       		.byte	0x4
 10110 2c2a 5D0F0000 		.4byte	0xf5d
 10111 2c2e 03       		.uleb128 0x3
 10112 2c2f 9C160000 		.4byte	.LASF665
 10113 2c33 2D       		.byte	0x2d
 10114 2c34 16       		.byte	0x16
 10115 2c35 86000000 		.4byte	0x86
 10116 2c39 07       		.uleb128 0x7
 10117 2c3a 421F0000 		.4byte	.LASF666
 10118 2c3e 18       		.byte	0x18
 10119 2c3f 2D       		.byte	0x2d
 10120 2c40 2F       		.byte	0x2f
 10121 2c41 8C2C0000 		.4byte	0x2c8c
 10122 2c45 08       		.uleb128 0x8
 10123 2c46 16140000 		.4byte	.LASF667
 10124 2c4a 2D       		.byte	0x2d
 10125 2c4b 31       		.byte	0x31
 10126 2c4c 8C2C0000 		.4byte	0x2c8c
 10127 2c50 00       		.byte	0
 10128 2c51 19       		.uleb128 0x19
 10129 2c52 5F6B00   		.ascii	"_k\000"
 10130 2c55 2D       		.byte	0x2d
 10131 2c56 32       		.byte	0x32
 10132 2c57 A6000000 		.4byte	0xa6
 10133 2c5b 04       		.byte	0x4
 10134 2c5c 08       		.uleb128 0x8
 10135 2c5d 2F1D0000 		.4byte	.LASF668
 10136 2c61 2D       		.byte	0x2d
ARM GAS  /tmp/ccB9eNXv.s 			page 179


 10137 2c62 32       		.byte	0x32
 10138 2c63 A6000000 		.4byte	0xa6
 10139 2c67 08       		.byte	0x8
 10140 2c68 08       		.uleb128 0x8
 10141 2c69 571D0000 		.4byte	.LASF669
 10142 2c6d 2D       		.byte	0x2d
 10143 2c6e 32       		.byte	0x32
 10144 2c6f A6000000 		.4byte	0xa6
 10145 2c73 0C       		.byte	0xc
 10146 2c74 08       		.uleb128 0x8
 10147 2c75 6D0B0000 		.4byte	.LASF670
 10148 2c79 2D       		.byte	0x2d
 10149 2c7a 32       		.byte	0x32
 10150 2c7b A6000000 		.4byte	0xa6
 10151 2c7f 10       		.byte	0x10
 10152 2c80 19       		.uleb128 0x19
 10153 2c81 5F7800   		.ascii	"_x\000"
 10154 2c84 2D       		.byte	0x2d
 10155 2c85 33       		.byte	0x33
 10156 2c86 922C0000 		.4byte	0x2c92
 10157 2c8a 14       		.byte	0x14
 10158 2c8b 00       		.byte	0
 10159 2c8c 0B       		.uleb128 0xb
 10160 2c8d 04       		.byte	0x4
 10161 2c8e 392C0000 		.4byte	0x2c39
 10162 2c92 14       		.uleb128 0x14
 10163 2c93 2E2C0000 		.4byte	0x2c2e
 10164 2c97 A22C0000 		.4byte	0x2ca2
 10165 2c9b 15       		.uleb128 0x15
 10166 2c9c 25000000 		.4byte	0x25
 10167 2ca0 00       		.byte	0
 10168 2ca1 00       		.byte	0
 10169 2ca2 07       		.uleb128 0x7
 10170 2ca3 74200000 		.4byte	.LASF671
 10171 2ca7 24       		.byte	0x24
 10172 2ca8 2D       		.byte	0x2d
 10173 2ca9 37       		.byte	0x37
 10174 2caa 1B2D0000 		.4byte	0x2d1b
 10175 2cae 08       		.uleb128 0x8
 10176 2caf 6C150000 		.4byte	.LASF672
 10177 2cb3 2D       		.byte	0x2d
 10178 2cb4 39       		.byte	0x39
 10179 2cb5 A6000000 		.4byte	0xa6
 10180 2cb9 00       		.byte	0
 10181 2cba 08       		.uleb128 0x8
 10182 2cbb D70C0000 		.4byte	.LASF673
 10183 2cbf 2D       		.byte	0x2d
 10184 2cc0 3A       		.byte	0x3a
 10185 2cc1 A6000000 		.4byte	0xa6
 10186 2cc5 04       		.byte	0x4
 10187 2cc6 08       		.uleb128 0x8
 10188 2cc7 28120000 		.4byte	.LASF674
 10189 2ccb 2D       		.byte	0x2d
 10190 2ccc 3B       		.byte	0x3b
 10191 2ccd A6000000 		.4byte	0xa6
 10192 2cd1 08       		.byte	0x8
 10193 2cd2 08       		.uleb128 0x8
ARM GAS  /tmp/ccB9eNXv.s 			page 180


 10194 2cd3 3F130000 		.4byte	.LASF675
 10195 2cd7 2D       		.byte	0x2d
 10196 2cd8 3C       		.byte	0x3c
 10197 2cd9 A6000000 		.4byte	0xa6
 10198 2cdd 0C       		.byte	0xc
 10199 2cde 08       		.uleb128 0x8
 10200 2cdf 4F020000 		.4byte	.LASF676
 10201 2ce3 2D       		.byte	0x2d
 10202 2ce4 3D       		.byte	0x3d
 10203 2ce5 A6000000 		.4byte	0xa6
 10204 2ce9 10       		.byte	0x10
 10205 2cea 08       		.uleb128 0x8
 10206 2ceb FD0C0000 		.4byte	.LASF677
 10207 2cef 2D       		.byte	0x2d
 10208 2cf0 3E       		.byte	0x3e
 10209 2cf1 A6000000 		.4byte	0xa6
 10210 2cf5 14       		.byte	0x14
 10211 2cf6 08       		.uleb128 0x8
 10212 2cf7 2C0A0000 		.4byte	.LASF678
 10213 2cfb 2D       		.byte	0x2d
 10214 2cfc 3F       		.byte	0x3f
 10215 2cfd A6000000 		.4byte	0xa6
 10216 2d01 18       		.byte	0x18
 10217 2d02 08       		.uleb128 0x8
 10218 2d03 BC080000 		.4byte	.LASF679
 10219 2d07 2D       		.byte	0x2d
 10220 2d08 40       		.byte	0x40
 10221 2d09 A6000000 		.4byte	0xa6
 10222 2d0d 1C       		.byte	0x1c
 10223 2d0e 08       		.uleb128 0x8
 10224 2d0f 4F0A0000 		.4byte	.LASF680
 10225 2d13 2D       		.byte	0x2d
 10226 2d14 41       		.byte	0x41
 10227 2d15 A6000000 		.4byte	0xa6
 10228 2d19 20       		.byte	0x20
 10229 2d1a 00       		.byte	0
 10230 2d1b 25       		.uleb128 0x25
 10231 2d1c 8B150000 		.4byte	.LASF681
 10232 2d20 0801     		.2byte	0x108
 10233 2d22 2D       		.byte	0x2d
 10234 2d23 4A       		.byte	0x4a
 10235 2d24 5B2D0000 		.4byte	0x2d5b
 10236 2d28 08       		.uleb128 0x8
 10237 2d29 6E130000 		.4byte	.LASF682
 10238 2d2d 2D       		.byte	0x2d
 10239 2d2e 4B       		.byte	0x4b
 10240 2d2f 5B2D0000 		.4byte	0x2d5b
 10241 2d33 00       		.byte	0
 10242 2d34 08       		.uleb128 0x8
 10243 2d35 7C040000 		.4byte	.LASF683
 10244 2d39 2D       		.byte	0x2d
 10245 2d3a 4C       		.byte	0x4c
 10246 2d3b 5B2D0000 		.4byte	0x2d5b
 10247 2d3f 80       		.byte	0x80
 10248 2d40 26       		.uleb128 0x26
 10249 2d41 58020000 		.4byte	.LASF684
 10250 2d45 2D       		.byte	0x2d
ARM GAS  /tmp/ccB9eNXv.s 			page 181


 10251 2d46 4E       		.byte	0x4e
 10252 2d47 2E2C0000 		.4byte	0x2c2e
 10253 2d4b 0001     		.2byte	0x100
 10254 2d4d 26       		.uleb128 0x26
 10255 2d4e AB230000 		.4byte	.LASF685
 10256 2d52 2D       		.byte	0x2d
 10257 2d53 51       		.byte	0x51
 10258 2d54 2E2C0000 		.4byte	0x2c2e
 10259 2d58 0401     		.2byte	0x104
 10260 2d5a 00       		.byte	0
 10261 2d5b 14       		.uleb128 0x14
 10262 2d5c B1030000 		.4byte	0x3b1
 10263 2d60 6B2D0000 		.4byte	0x2d6b
 10264 2d64 15       		.uleb128 0x15
 10265 2d65 25000000 		.4byte	0x25
 10266 2d69 1F       		.byte	0x1f
 10267 2d6a 00       		.byte	0
 10268 2d6b 25       		.uleb128 0x25
 10269 2d6c 0B2A0000 		.4byte	.LASF686
 10270 2d70 9001     		.2byte	0x190
 10271 2d72 2D       		.byte	0x2d
 10272 2d73 5D       		.byte	0x5d
 10273 2d74 A92D0000 		.4byte	0x2da9
 10274 2d78 08       		.uleb128 0x8
 10275 2d79 16140000 		.4byte	.LASF667
 10276 2d7d 2D       		.byte	0x2d
 10277 2d7e 5E       		.byte	0x5e
 10278 2d7f A92D0000 		.4byte	0x2da9
 10279 2d83 00       		.byte	0
 10280 2d84 08       		.uleb128 0x8
 10281 2d85 9E020000 		.4byte	.LASF687
 10282 2d89 2D       		.byte	0x2d
 10283 2d8a 5F       		.byte	0x5f
 10284 2d8b A6000000 		.4byte	0xa6
 10285 2d8f 04       		.byte	0x4
 10286 2d90 08       		.uleb128 0x8
 10287 2d91 67220000 		.4byte	.LASF688
 10288 2d95 2D       		.byte	0x2d
 10289 2d96 61       		.byte	0x61
 10290 2d97 AF2D0000 		.4byte	0x2daf
 10291 2d9b 08       		.byte	0x8
 10292 2d9c 08       		.uleb128 0x8
 10293 2d9d 8B150000 		.4byte	.LASF681
 10294 2da1 2D       		.byte	0x2d
 10295 2da2 62       		.byte	0x62
 10296 2da3 1B2D0000 		.4byte	0x2d1b
 10297 2da7 88       		.byte	0x88
 10298 2da8 00       		.byte	0
 10299 2da9 0B       		.uleb128 0xb
 10300 2daa 04       		.byte	0x4
 10301 2dab 6B2D0000 		.4byte	0x2d6b
 10302 2daf 14       		.uleb128 0x14
 10303 2db0 BF2D0000 		.4byte	0x2dbf
 10304 2db4 BF2D0000 		.4byte	0x2dbf
 10305 2db8 15       		.uleb128 0x15
 10306 2db9 25000000 		.4byte	0x25
 10307 2dbd 1F       		.byte	0x1f
ARM GAS  /tmp/ccB9eNXv.s 			page 182


 10308 2dbe 00       		.byte	0
 10309 2dbf 0B       		.uleb128 0xb
 10310 2dc0 04       		.byte	0x4
 10311 2dc1 C52D0000 		.4byte	0x2dc5
 10312 2dc5 2E       		.uleb128 0x2e
 10313 2dc6 07       		.uleb128 0x7
 10314 2dc7 E7070000 		.4byte	.LASF689
 10315 2dcb 08       		.byte	0x8
 10316 2dcc 2D       		.byte	0x2d
 10317 2dcd 75       		.byte	0x75
 10318 2dce EB2D0000 		.4byte	0x2deb
 10319 2dd2 08       		.uleb128 0x8
 10320 2dd3 BB150000 		.4byte	.LASF690
 10321 2dd7 2D       		.byte	0x2d
 10322 2dd8 76       		.byte	0x76
 10323 2dd9 EB2D0000 		.4byte	0x2deb
 10324 2ddd 00       		.byte	0
 10325 2dde 08       		.uleb128 0x8
 10326 2ddf 0E0C0000 		.4byte	.LASF691
 10327 2de3 2D       		.byte	0x2d
 10328 2de4 77       		.byte	0x77
 10329 2de5 A6000000 		.4byte	0xa6
 10330 2de9 04       		.byte	0x4
 10331 2dea 00       		.byte	0
 10332 2deb 0B       		.uleb128 0xb
 10333 2dec 04       		.byte	0x4
 10334 2ded 3E000000 		.4byte	0x3e
 10335 2df1 07       		.uleb128 0x7
 10336 2df2 58220000 		.4byte	.LASF692
 10337 2df6 68       		.byte	0x68
 10338 2df7 2D       		.byte	0x2d
 10339 2df8 B5       		.byte	0xb5
 10340 2df9 1B2F0000 		.4byte	0x2f1b
 10341 2dfd 19       		.uleb128 0x19
 10342 2dfe 5F7000   		.ascii	"_p\000"
 10343 2e01 2D       		.byte	0x2d
 10344 2e02 B6       		.byte	0xb6
 10345 2e03 EB2D0000 		.4byte	0x2deb
 10346 2e07 00       		.byte	0
 10347 2e08 19       		.uleb128 0x19
 10348 2e09 5F7200   		.ascii	"_r\000"
 10349 2e0c 2D       		.byte	0x2d
 10350 2e0d B7       		.byte	0xb7
 10351 2e0e A6000000 		.4byte	0xa6
 10352 2e12 04       		.byte	0x4
 10353 2e13 19       		.uleb128 0x19
 10354 2e14 5F7700   		.ascii	"_w\000"
 10355 2e17 2D       		.byte	0x2d
 10356 2e18 B8       		.byte	0xb8
 10357 2e19 A6000000 		.4byte	0xa6
 10358 2e1d 08       		.byte	0x8
 10359 2e1e 08       		.uleb128 0x8
 10360 2e1f F3020000 		.4byte	.LASF693
 10361 2e23 2D       		.byte	0x2d
 10362 2e24 B9       		.byte	0xb9
 10363 2e25 50000000 		.4byte	0x50
 10364 2e29 0C       		.byte	0xc
ARM GAS  /tmp/ccB9eNXv.s 			page 183


 10365 2e2a 08       		.uleb128 0x8
 10366 2e2b 18220000 		.4byte	.LASF694
 10367 2e2f 2D       		.byte	0x2d
 10368 2e30 BA       		.byte	0xba
 10369 2e31 50000000 		.4byte	0x50
 10370 2e35 0E       		.byte	0xe
 10371 2e36 19       		.uleb128 0x19
 10372 2e37 5F626600 		.ascii	"_bf\000"
 10373 2e3b 2D       		.byte	0x2d
 10374 2e3c BB       		.byte	0xbb
 10375 2e3d C62D0000 		.4byte	0x2dc6
 10376 2e41 10       		.byte	0x10
 10377 2e42 08       		.uleb128 0x8
 10378 2e43 F6050000 		.4byte	.LASF695
 10379 2e47 2D       		.byte	0x2d
 10380 2e48 BC       		.byte	0xbc
 10381 2e49 A6000000 		.4byte	0xa6
 10382 2e4d 18       		.byte	0x18
 10383 2e4e 08       		.uleb128 0x8
 10384 2e4f 5D140000 		.4byte	.LASF696
 10385 2e53 2D       		.byte	0x2d
 10386 2e54 C3       		.byte	0xc3
 10387 2e55 B1030000 		.4byte	0x3b1
 10388 2e59 1C       		.byte	0x1c
 10389 2e5a 08       		.uleb128 0x8
 10390 2e5b 812B0000 		.4byte	.LASF697
 10391 2e5f 2D       		.byte	0x2d
 10392 2e60 C5       		.byte	0xc5
 10393 2e61 76300000 		.4byte	0x3076
 10394 2e65 20       		.byte	0x20
 10395 2e66 08       		.uleb128 0x8
 10396 2e67 140C0000 		.4byte	.LASF698
 10397 2e6b 2D       		.byte	0x2d
 10398 2e6c C7       		.byte	0xc7
 10399 2e6d 9A300000 		.4byte	0x309a
 10400 2e71 24       		.byte	0x24
 10401 2e72 08       		.uleb128 0x8
 10402 2e73 DC170000 		.4byte	.LASF699
 10403 2e77 2D       		.byte	0x2d
 10404 2e78 CA       		.byte	0xca
 10405 2e79 BE300000 		.4byte	0x30be
 10406 2e7d 28       		.byte	0x28
 10407 2e7e 08       		.uleb128 0x8
 10408 2e7f 8F1E0000 		.4byte	.LASF700
 10409 2e83 2D       		.byte	0x2d
 10410 2e84 CB       		.byte	0xcb
 10411 2e85 D8300000 		.4byte	0x30d8
 10412 2e89 2C       		.byte	0x2c
 10413 2e8a 19       		.uleb128 0x19
 10414 2e8b 5F756200 		.ascii	"_ub\000"
 10415 2e8f 2D       		.byte	0x2d
 10416 2e90 CE       		.byte	0xce
 10417 2e91 C62D0000 		.4byte	0x2dc6
 10418 2e95 30       		.byte	0x30
 10419 2e96 19       		.uleb128 0x19
 10420 2e97 5F757000 		.ascii	"_up\000"
 10421 2e9b 2D       		.byte	0x2d
ARM GAS  /tmp/ccB9eNXv.s 			page 184


 10422 2e9c CF       		.byte	0xcf
 10423 2e9d EB2D0000 		.4byte	0x2deb
 10424 2ea1 38       		.byte	0x38
 10425 2ea2 19       		.uleb128 0x19
 10426 2ea3 5F757200 		.ascii	"_ur\000"
 10427 2ea7 2D       		.byte	0x2d
 10428 2ea8 D0       		.byte	0xd0
 10429 2ea9 A6000000 		.4byte	0xa6
 10430 2ead 3C       		.byte	0x3c
 10431 2eae 08       		.uleb128 0x8
 10432 2eaf 52210000 		.4byte	.LASF701
 10433 2eb3 2D       		.byte	0x2d
 10434 2eb4 D3       		.byte	0xd3
 10435 2eb5 81120000 		.4byte	0x1281
 10436 2eb9 40       		.byte	0x40
 10437 2eba 08       		.uleb128 0x8
 10438 2ebb C3030000 		.4byte	.LASF702
 10439 2ebf 2D       		.byte	0x2d
 10440 2ec0 D4       		.byte	0xd4
 10441 2ec1 DE300000 		.4byte	0x30de
 10442 2ec5 43       		.byte	0x43
 10443 2ec6 19       		.uleb128 0x19
 10444 2ec7 5F6C6200 		.ascii	"_lb\000"
 10445 2ecb 2D       		.byte	0x2d
 10446 2ecc D7       		.byte	0xd7
 10447 2ecd C62D0000 		.4byte	0x2dc6
 10448 2ed1 44       		.byte	0x44
 10449 2ed2 08       		.uleb128 0x8
 10450 2ed3 180D0000 		.4byte	.LASF703
 10451 2ed7 2D       		.byte	0x2d
 10452 2ed8 DA       		.byte	0xda
 10453 2ed9 A6000000 		.4byte	0xa6
 10454 2edd 4C       		.byte	0x4c
 10455 2ede 08       		.uleb128 0x8
 10456 2edf 80190000 		.4byte	.LASF704
 10457 2ee3 2D       		.byte	0x2d
 10458 2ee4 DB       		.byte	0xdb
 10459 2ee5 A02B0000 		.4byte	0x2ba0
 10460 2ee9 50       		.byte	0x50
 10461 2eea 08       		.uleb128 0x8
 10462 2eeb BB160000 		.4byte	.LASF705
 10463 2eef 2D       		.byte	0x2d
 10464 2ef0 DE       		.byte	0xde
 10465 2ef1 392F0000 		.4byte	0x2f39
 10466 2ef5 54       		.byte	0x54
 10467 2ef6 08       		.uleb128 0x8
 10468 2ef7 BD030000 		.4byte	.LASF706
 10469 2efb 2D       		.byte	0x2d
 10470 2efc E2       		.byte	0xe2
 10471 2efd 1D2C0000 		.4byte	0x2c1d
 10472 2f01 58       		.byte	0x58
 10473 2f02 08       		.uleb128 0x8
 10474 2f03 5E010000 		.4byte	.LASF707
 10475 2f07 2D       		.byte	0x2d
 10476 2f08 E4       		.byte	0xe4
 10477 2f09 122C0000 		.4byte	0x2c12
 10478 2f0d 5C       		.byte	0x5c
ARM GAS  /tmp/ccB9eNXv.s 			page 185


 10479 2f0e 08       		.uleb128 0x8
 10480 2f0f C1280000 		.4byte	.LASF708
 10481 2f13 2D       		.byte	0x2d
 10482 2f14 E5       		.byte	0xe5
 10483 2f15 A6000000 		.4byte	0xa6
 10484 2f19 64       		.byte	0x64
 10485 2f1a 00       		.byte	0
 10486 2f1b 22       		.uleb128 0x22
 10487 2f1c A6000000 		.4byte	0xa6
 10488 2f20 392F0000 		.4byte	0x2f39
 10489 2f24 0E       		.uleb128 0xe
 10490 2f25 392F0000 		.4byte	0x2f39
 10491 2f29 0E       		.uleb128 0xe
 10492 2f2a B1030000 		.4byte	0x3b1
 10493 2f2e 0E       		.uleb128 0xe
 10494 2f2f 282C0000 		.4byte	0x2c28
 10495 2f33 0E       		.uleb128 0xe
 10496 2f34 A6000000 		.4byte	0xa6
 10497 2f38 00       		.byte	0
 10498 2f39 0B       		.uleb128 0xb
 10499 2f3a 04       		.byte	0x4
 10500 2f3b 442F0000 		.4byte	0x2f44
 10501 2f3f 05       		.uleb128 0x5
 10502 2f40 392F0000 		.4byte	0x2f39
 10503 2f44 10       		.uleb128 0x10
 10504 2f45 551A0000 		.4byte	.LASF709
 10505 2f49 2804     		.2byte	0x428
 10506 2f4b 2D       		.byte	0x2d
 10507 2f4c 6002     		.2byte	0x260
 10508 2f4e 76300000 		.4byte	0x3076
 10509 2f52 0A       		.uleb128 0xa
 10510 2f53 F2120000 		.4byte	.LASF710
 10511 2f57 2D       		.byte	0x2d
 10512 2f58 6202     		.2byte	0x262
 10513 2f5a A6000000 		.4byte	0xa6
 10514 2f5e 00       		.byte	0
 10515 2f5f 0A       		.uleb128 0xa
 10516 2f60 3B0F0000 		.4byte	.LASF711
 10517 2f64 2D       		.byte	0x2d
 10518 2f65 6702     		.2byte	0x267
 10519 2f67 35310000 		.4byte	0x3135
 10520 2f6b 04       		.byte	0x4
 10521 2f6c 0A       		.uleb128 0xa
 10522 2f6d C90A0000 		.4byte	.LASF712
 10523 2f71 2D       		.byte	0x2d
 10524 2f72 6702     		.2byte	0x267
 10525 2f74 35310000 		.4byte	0x3135
 10526 2f78 08       		.byte	0x8
 10527 2f79 0A       		.uleb128 0xa
 10528 2f7a D7090000 		.4byte	.LASF713
 10529 2f7e 2D       		.byte	0x2d
 10530 2f7f 6702     		.2byte	0x267
 10531 2f81 35310000 		.4byte	0x3135
 10532 2f85 0C       		.byte	0xc
 10533 2f86 0A       		.uleb128 0xa
 10534 2f87 99020000 		.4byte	.LASF714
 10535 2f8b 2D       		.byte	0x2d
ARM GAS  /tmp/ccB9eNXv.s 			page 186


 10536 2f8c 6902     		.2byte	0x269
 10537 2f8e A6000000 		.4byte	0xa6
 10538 2f92 10       		.byte	0x10
 10539 2f93 0A       		.uleb128 0xa
 10540 2f94 50110000 		.4byte	.LASF715
 10541 2f98 2D       		.byte	0x2d
 10542 2f99 6A02     		.2byte	0x26a
 10543 2f9b 17330000 		.4byte	0x3317
 10544 2f9f 14       		.byte	0x14
 10545 2fa0 0A       		.uleb128 0xa
 10546 2fa1 E6260000 		.4byte	.LASF716
 10547 2fa5 2D       		.byte	0x2d
 10548 2fa6 6D02     		.2byte	0x26d
 10549 2fa8 A6000000 		.4byte	0xa6
 10550 2fac 30       		.byte	0x30
 10551 2fad 0A       		.uleb128 0xa
 10552 2fae 29290000 		.4byte	.LASF717
 10553 2fb2 2D       		.byte	0x2d
 10554 2fb3 6E02     		.2byte	0x26e
 10555 2fb5 2C330000 		.4byte	0x332c
 10556 2fb9 34       		.byte	0x34
 10557 2fba 0A       		.uleb128 0xa
 10558 2fbb 3B270000 		.4byte	.LASF718
 10559 2fbf 2D       		.byte	0x2d
 10560 2fc0 7002     		.2byte	0x270
 10561 2fc2 A6000000 		.4byte	0xa6
 10562 2fc6 38       		.byte	0x38
 10563 2fc7 0A       		.uleb128 0xa
 10564 2fc8 B1150000 		.4byte	.LASF719
 10565 2fcc 2D       		.byte	0x2d
 10566 2fcd 7202     		.2byte	0x272
 10567 2fcf 3D330000 		.4byte	0x333d
 10568 2fd3 3C       		.byte	0x3c
 10569 2fd4 0A       		.uleb128 0xa
 10570 2fd5 DF090000 		.4byte	.LASF720
 10571 2fd9 2D       		.byte	0x2d
 10572 2fda 7502     		.2byte	0x275
 10573 2fdc 8C2C0000 		.4byte	0x2c8c
 10574 2fe0 40       		.byte	0x40
 10575 2fe1 0A       		.uleb128 0xa
 10576 2fe2 C8090000 		.4byte	.LASF721
 10577 2fe6 2D       		.byte	0x2d
 10578 2fe7 7602     		.2byte	0x276
 10579 2fe9 A6000000 		.4byte	0xa6
 10580 2fed 44       		.byte	0x44
 10581 2fee 0A       		.uleb128 0xa
 10582 2fef 0E240000 		.4byte	.LASF722
 10583 2ff3 2D       		.byte	0x2d
 10584 2ff4 7702     		.2byte	0x277
 10585 2ff6 8C2C0000 		.4byte	0x2c8c
 10586 2ffa 48       		.byte	0x48
 10587 2ffb 0A       		.uleb128 0xa
 10588 2ffc E4180000 		.4byte	.LASF723
 10589 3000 2D       		.byte	0x2d
 10590 3001 7802     		.2byte	0x278
 10591 3003 43330000 		.4byte	0x3343
 10592 3007 4C       		.byte	0x4c
ARM GAS  /tmp/ccB9eNXv.s 			page 187


 10593 3008 0A       		.uleb128 0xa
 10594 3009 2F030000 		.4byte	.LASF724
 10595 300d 2D       		.byte	0x2d
 10596 300e 7B02     		.2byte	0x27b
 10597 3010 A6000000 		.4byte	0xa6
 10598 3014 50       		.byte	0x50
 10599 3015 0A       		.uleb128 0xa
 10600 3016 33110000 		.4byte	.LASF725
 10601 301a 2D       		.byte	0x2d
 10602 301b 7C02     		.2byte	0x27c
 10603 301d 282C0000 		.4byte	0x2c28
 10604 3021 54       		.byte	0x54
 10605 3022 0A       		.uleb128 0xa
 10606 3023 58060000 		.4byte	.LASF726
 10607 3027 2D       		.byte	0x2d
 10608 3028 9F02     		.2byte	0x29f
 10609 302a F5320000 		.4byte	0x32f5
 10610 302e 58       		.byte	0x58
 10611 302f 1D       		.uleb128 0x1d
 10612 3030 0B2A0000 		.4byte	.LASF686
 10613 3034 2D       		.byte	0x2d
 10614 3035 A302     		.2byte	0x2a3
 10615 3037 A92D0000 		.4byte	0x2da9
 10616 303b 4801     		.2byte	0x148
 10617 303d 1D       		.uleb128 0x1d
 10618 303e AB1F0000 		.4byte	.LASF727
 10619 3042 2D       		.byte	0x2d
 10620 3043 A402     		.2byte	0x2a4
 10621 3045 6B2D0000 		.4byte	0x2d6b
 10622 3049 4C01     		.2byte	0x14c
 10623 304b 1D       		.uleb128 0x1d
 10624 304c 67030000 		.4byte	.LASF728
 10625 3050 2D       		.byte	0x2d
 10626 3051 A802     		.2byte	0x2a8
 10627 3053 54330000 		.4byte	0x3354
 10628 3057 DC02     		.2byte	0x2dc
 10629 3059 1D       		.uleb128 0x1d
 10630 305a 6C210000 		.4byte	.LASF729
 10631 305e 2D       		.byte	0x2d
 10632 305f AD02     		.2byte	0x2ad
 10633 3061 FA300000 		.4byte	0x30fa
 10634 3065 E002     		.2byte	0x2e0
 10635 3067 1D       		.uleb128 0x1d
 10636 3068 B1070000 		.4byte	.LASF730
 10637 306c 2D       		.byte	0x2d
 10638 306d AF02     		.2byte	0x2af
 10639 306f 60330000 		.4byte	0x3360
 10640 3073 EC02     		.2byte	0x2ec
 10641 3075 00       		.byte	0
 10642 3076 0B       		.uleb128 0xb
 10643 3077 04       		.byte	0x4
 10644 3078 1B2F0000 		.4byte	0x2f1b
 10645 307c 22       		.uleb128 0x22
 10646 307d A6000000 		.4byte	0xa6
 10647 3081 9A300000 		.4byte	0x309a
 10648 3085 0E       		.uleb128 0xe
 10649 3086 392F0000 		.4byte	0x2f39
ARM GAS  /tmp/ccB9eNXv.s 			page 188


 10650 308a 0E       		.uleb128 0xe
 10651 308b B1030000 		.4byte	0x3b1
 10652 308f 0E       		.uleb128 0xe
 10653 3090 520F0000 		.4byte	0xf52
 10654 3094 0E       		.uleb128 0xe
 10655 3095 A6000000 		.4byte	0xa6
 10656 3099 00       		.byte	0
 10657 309a 0B       		.uleb128 0xb
 10658 309b 04       		.byte	0x4
 10659 309c 7C300000 		.4byte	0x307c
 10660 30a0 22       		.uleb128 0x22
 10661 30a1 AB2B0000 		.4byte	0x2bab
 10662 30a5 BE300000 		.4byte	0x30be
 10663 30a9 0E       		.uleb128 0xe
 10664 30aa 392F0000 		.4byte	0x2f39
 10665 30ae 0E       		.uleb128 0xe
 10666 30af B1030000 		.4byte	0x3b1
 10667 30b3 0E       		.uleb128 0xe
 10668 30b4 AB2B0000 		.4byte	0x2bab
 10669 30b8 0E       		.uleb128 0xe
 10670 30b9 A6000000 		.4byte	0xa6
 10671 30bd 00       		.byte	0
 10672 30be 0B       		.uleb128 0xb
 10673 30bf 04       		.byte	0x4
 10674 30c0 A0300000 		.4byte	0x30a0
 10675 30c4 22       		.uleb128 0x22
 10676 30c5 A6000000 		.4byte	0xa6
 10677 30c9 D8300000 		.4byte	0x30d8
 10678 30cd 0E       		.uleb128 0xe
 10679 30ce 392F0000 		.4byte	0x2f39
 10680 30d2 0E       		.uleb128 0xe
 10681 30d3 B1030000 		.4byte	0x3b1
 10682 30d7 00       		.byte	0
 10683 30d8 0B       		.uleb128 0xb
 10684 30d9 04       		.byte	0x4
 10685 30da C4300000 		.4byte	0x30c4
 10686 30de 14       		.uleb128 0x14
 10687 30df 3E000000 		.4byte	0x3e
 10688 30e3 EE300000 		.4byte	0x30ee
 10689 30e7 15       		.uleb128 0x15
 10690 30e8 25000000 		.4byte	0x25
 10691 30ec 00       		.byte	0
 10692 30ed 00       		.byte	0
 10693 30ee 1B       		.uleb128 0x1b
 10694 30ef 582A0000 		.4byte	.LASF731
 10695 30f3 2D       		.byte	0x2d
 10696 30f4 1F01     		.2byte	0x11f
 10697 30f6 F12D0000 		.4byte	0x2df1
 10698 30fa 0C       		.uleb128 0xc
 10699 30fb C01E0000 		.4byte	.LASF732
 10700 30ff 0C       		.byte	0xc
 10701 3100 2D       		.byte	0x2d
 10702 3101 2301     		.2byte	0x123
 10703 3103 2F310000 		.4byte	0x312f
 10704 3107 0A       		.uleb128 0xa
 10705 3108 16140000 		.4byte	.LASF667
 10706 310c 2D       		.byte	0x2d
ARM GAS  /tmp/ccB9eNXv.s 			page 189


 10707 310d 2501     		.2byte	0x125
 10708 310f 2F310000 		.4byte	0x312f
 10709 3113 00       		.byte	0
 10710 3114 0A       		.uleb128 0xa
 10711 3115 AF120000 		.4byte	.LASF733
 10712 3119 2D       		.byte	0x2d
 10713 311a 2601     		.2byte	0x126
 10714 311c A6000000 		.4byte	0xa6
 10715 3120 04       		.byte	0x4
 10716 3121 0A       		.uleb128 0xa
 10717 3122 681C0000 		.4byte	.LASF734
 10718 3126 2D       		.byte	0x2d
 10719 3127 2701     		.2byte	0x127
 10720 3129 35310000 		.4byte	0x3135
 10721 312d 08       		.byte	0x8
 10722 312e 00       		.byte	0
 10723 312f 0B       		.uleb128 0xb
 10724 3130 04       		.byte	0x4
 10725 3131 FA300000 		.4byte	0x30fa
 10726 3135 0B       		.uleb128 0xb
 10727 3136 04       		.byte	0x4
 10728 3137 EE300000 		.4byte	0x30ee
 10729 313b 0C       		.uleb128 0xc
 10730 313c CE2B0000 		.4byte	.LASF735
 10731 3140 0E       		.byte	0xe
 10732 3141 2D       		.byte	0x2d
 10733 3142 3F01     		.2byte	0x13f
 10734 3144 70310000 		.4byte	0x3170
 10735 3148 0A       		.uleb128 0xa
 10736 3149 C0170000 		.4byte	.LASF736
 10737 314d 2D       		.byte	0x2d
 10738 314e 4001     		.2byte	0x140
 10739 3150 70310000 		.4byte	0x3170
 10740 3154 00       		.byte	0
 10741 3155 0A       		.uleb128 0xa
 10742 3156 681D0000 		.4byte	.LASF737
 10743 315a 2D       		.byte	0x2d
 10744 315b 4101     		.2byte	0x141
 10745 315d 70310000 		.4byte	0x3170
 10746 3161 06       		.byte	0x6
 10747 3162 0A       		.uleb128 0xa
 10748 3163 061A0000 		.4byte	.LASF738
 10749 3167 2D       		.byte	0x2d
 10750 3168 4201     		.2byte	0x142
 10751 316a 62000000 		.4byte	0x62
 10752 316e 0C       		.byte	0xc
 10753 316f 00       		.byte	0
 10754 3170 14       		.uleb128 0x14
 10755 3171 62000000 		.4byte	0x62
 10756 3175 80310000 		.4byte	0x3180
 10757 3179 15       		.uleb128 0x15
 10758 317a 25000000 		.4byte	0x25
 10759 317e 02       		.byte	0x2
 10760 317f 00       		.byte	0
 10761 3180 1A       		.uleb128 0x1a
 10762 3181 D0       		.byte	0xd0
 10763 3182 2D       		.byte	0x2d
ARM GAS  /tmp/ccB9eNXv.s 			page 190


 10764 3183 8002     		.2byte	0x280
 10765 3185 81320000 		.4byte	0x3281
 10766 3189 0A       		.uleb128 0xa
 10767 318a 42090000 		.4byte	.LASF739
 10768 318e 2D       		.byte	0x2d
 10769 318f 8202     		.2byte	0x282
 10770 3191 25000000 		.4byte	0x25
 10771 3195 00       		.byte	0
 10772 3196 0A       		.uleb128 0xa
 10773 3197 63170000 		.4byte	.LASF740
 10774 319b 2D       		.byte	0x2d
 10775 319c 8302     		.2byte	0x283
 10776 319e 282C0000 		.4byte	0x2c28
 10777 31a2 04       		.byte	0x4
 10778 31a3 0A       		.uleb128 0xa
 10779 31a4 701A0000 		.4byte	.LASF741
 10780 31a8 2D       		.byte	0x2d
 10781 31a9 8402     		.2byte	0x284
 10782 31ab 81320000 		.4byte	0x3281
 10783 31af 08       		.byte	0x8
 10784 31b0 0A       		.uleb128 0xa
 10785 31b1 67100000 		.4byte	.LASF742
 10786 31b5 2D       		.byte	0x2d
 10787 31b6 8502     		.2byte	0x285
 10788 31b8 A22C0000 		.4byte	0x2ca2
 10789 31bc 24       		.byte	0x24
 10790 31bd 0A       		.uleb128 0xa
 10791 31be F0250000 		.4byte	.LASF743
 10792 31c2 2D       		.byte	0x2d
 10793 31c3 8602     		.2byte	0x286
 10794 31c5 A6000000 		.4byte	0xa6
 10795 31c9 48       		.byte	0x48
 10796 31ca 0A       		.uleb128 0xa
 10797 31cb 9B1C0000 		.4byte	.LASF744
 10798 31cf 2D       		.byte	0x2d
 10799 31d0 8702     		.2byte	0x287
 10800 31d2 9F000000 		.4byte	0x9f
 10801 31d6 50       		.byte	0x50
 10802 31d7 0A       		.uleb128 0xa
 10803 31d8 2F2B0000 		.4byte	.LASF745
 10804 31dc 2D       		.byte	0x2d
 10805 31dd 8802     		.2byte	0x288
 10806 31df 3B310000 		.4byte	0x313b
 10807 31e3 58       		.byte	0x58
 10808 31e4 0A       		.uleb128 0xa
 10809 31e5 5F210000 		.4byte	.LASF746
 10810 31e9 2D       		.byte	0x2d
 10811 31ea 8902     		.2byte	0x289
 10812 31ec 122C0000 		.4byte	0x2c12
 10813 31f0 68       		.byte	0x68
 10814 31f1 0A       		.uleb128 0xa
 10815 31f2 D9070000 		.4byte	.LASF747
 10816 31f6 2D       		.byte	0x2d
 10817 31f7 8A02     		.2byte	0x28a
 10818 31f9 122C0000 		.4byte	0x2c12
 10819 31fd 70       		.byte	0x70
 10820 31fe 0A       		.uleb128 0xa
ARM GAS  /tmp/ccB9eNXv.s 			page 191


 10821 31ff 941B0000 		.4byte	.LASF748
 10822 3203 2D       		.byte	0x2d
 10823 3204 8B02     		.2byte	0x28b
 10824 3206 122C0000 		.4byte	0x2c12
 10825 320a 78       		.byte	0x78
 10826 320b 0A       		.uleb128 0xa
 10827 320c 661A0000 		.4byte	.LASF749
 10828 3210 2D       		.byte	0x2d
 10829 3211 8C02     		.2byte	0x28c
 10830 3213 91320000 		.4byte	0x3291
 10831 3217 80       		.byte	0x80
 10832 3218 0A       		.uleb128 0xa
 10833 3219 3C140000 		.4byte	.LASF750
 10834 321d 2D       		.byte	0x2d
 10835 321e 8D02     		.2byte	0x28d
 10836 3220 A1320000 		.4byte	0x32a1
 10837 3224 88       		.byte	0x88
 10838 3225 0A       		.uleb128 0xa
 10839 3226 50200000 		.4byte	.LASF751
 10840 322a 2D       		.byte	0x2d
 10841 322b 8E02     		.2byte	0x28e
 10842 322d A6000000 		.4byte	0xa6
 10843 3231 A0       		.byte	0xa0
 10844 3232 0A       		.uleb128 0xa
 10845 3233 D10E0000 		.4byte	.LASF752
 10846 3237 2D       		.byte	0x2d
 10847 3238 8F02     		.2byte	0x28f
 10848 323a 122C0000 		.4byte	0x2c12
 10849 323e A4       		.byte	0xa4
 10850 323f 0A       		.uleb128 0xa
 10851 3240 481C0000 		.4byte	.LASF753
 10852 3244 2D       		.byte	0x2d
 10853 3245 9002     		.2byte	0x290
 10854 3247 122C0000 		.4byte	0x2c12
 10855 324b AC       		.byte	0xac
 10856 324c 0A       		.uleb128 0xa
 10857 324d 4B0B0000 		.4byte	.LASF754
 10858 3251 2D       		.byte	0x2d
 10859 3252 9102     		.2byte	0x291
 10860 3254 122C0000 		.4byte	0x2c12
 10861 3258 B4       		.byte	0xb4
 10862 3259 0A       		.uleb128 0xa
 10863 325a F7150000 		.4byte	.LASF755
 10864 325e 2D       		.byte	0x2d
 10865 325f 9202     		.2byte	0x292
 10866 3261 122C0000 		.4byte	0x2c12
 10867 3265 BC       		.byte	0xbc
 10868 3266 0A       		.uleb128 0xa
 10869 3267 BC1A0000 		.4byte	.LASF756
 10870 326b 2D       		.byte	0x2d
 10871 326c 9302     		.2byte	0x293
 10872 326e 122C0000 		.4byte	0x2c12
 10873 3272 C4       		.byte	0xc4
 10874 3273 0A       		.uleb128 0xa
 10875 3274 9C220000 		.4byte	.LASF757
 10876 3278 2D       		.byte	0x2d
 10877 3279 9402     		.2byte	0x294
ARM GAS  /tmp/ccB9eNXv.s 			page 192


 10878 327b A6000000 		.4byte	0xa6
 10879 327f CC       		.byte	0xcc
 10880 3280 00       		.byte	0
 10881 3281 14       		.uleb128 0x14
 10882 3282 5D0F0000 		.4byte	0xf5d
 10883 3286 91320000 		.4byte	0x3291
 10884 328a 15       		.uleb128 0x15
 10885 328b 25000000 		.4byte	0x25
 10886 328f 19       		.byte	0x19
 10887 3290 00       		.byte	0
 10888 3291 14       		.uleb128 0x14
 10889 3292 5D0F0000 		.4byte	0xf5d
 10890 3296 A1320000 		.4byte	0x32a1
 10891 329a 15       		.uleb128 0x15
 10892 329b 25000000 		.4byte	0x25
 10893 329f 07       		.byte	0x7
 10894 32a0 00       		.byte	0
 10895 32a1 14       		.uleb128 0x14
 10896 32a2 5D0F0000 		.4byte	0xf5d
 10897 32a6 B1320000 		.4byte	0x32b1
 10898 32aa 15       		.uleb128 0x15
 10899 32ab 25000000 		.4byte	0x25
 10900 32af 17       		.byte	0x17
 10901 32b0 00       		.byte	0
 10902 32b1 1A       		.uleb128 0x1a
 10903 32b2 F0       		.byte	0xf0
 10904 32b3 2D       		.byte	0x2d
 10905 32b4 9902     		.2byte	0x299
 10906 32b6 D5320000 		.4byte	0x32d5
 10907 32ba 0A       		.uleb128 0xa
 10908 32bb EA280000 		.4byte	.LASF758
 10909 32bf 2D       		.byte	0x2d
 10910 32c0 9C02     		.2byte	0x29c
 10911 32c2 D5320000 		.4byte	0x32d5
 10912 32c6 00       		.byte	0
 10913 32c7 0A       		.uleb128 0xa
 10914 32c8 420F0000 		.4byte	.LASF759
 10915 32cc 2D       		.byte	0x2d
 10916 32cd 9D02     		.2byte	0x29d
 10917 32cf E5320000 		.4byte	0x32e5
 10918 32d3 78       		.byte	0x78
 10919 32d4 00       		.byte	0
 10920 32d5 14       		.uleb128 0x14
 10921 32d6 EB2D0000 		.4byte	0x2deb
 10922 32da E5320000 		.4byte	0x32e5
 10923 32de 15       		.uleb128 0x15
 10924 32df 25000000 		.4byte	0x25
 10925 32e3 1D       		.byte	0x1d
 10926 32e4 00       		.byte	0
 10927 32e5 14       		.uleb128 0x14
 10928 32e6 25000000 		.4byte	0x25
 10929 32ea F5320000 		.4byte	0x32f5
 10930 32ee 15       		.uleb128 0x15
 10931 32ef 25000000 		.4byte	0x25
 10932 32f3 1D       		.byte	0x1d
 10933 32f4 00       		.byte	0
 10934 32f5 2B       		.uleb128 0x2b
ARM GAS  /tmp/ccB9eNXv.s 			page 193


 10935 32f6 F0       		.byte	0xf0
 10936 32f7 2D       		.byte	0x2d
 10937 32f8 7E02     		.2byte	0x27e
 10938 32fa 17330000 		.4byte	0x3317
 10939 32fe 20       		.uleb128 0x20
 10940 32ff 551A0000 		.4byte	.LASF709
 10941 3303 2D       		.byte	0x2d
 10942 3304 9502     		.2byte	0x295
 10943 3306 80310000 		.4byte	0x3180
 10944 330a 20       		.uleb128 0x20
 10945 330b D2030000 		.4byte	.LASF760
 10946 330f 2D       		.byte	0x2d
 10947 3310 9E02     		.2byte	0x29e
 10948 3312 B1320000 		.4byte	0x32b1
 10949 3316 00       		.byte	0
 10950 3317 14       		.uleb128 0x14
 10951 3318 5D0F0000 		.4byte	0xf5d
 10952 331c 27330000 		.4byte	0x3327
 10953 3320 15       		.uleb128 0x15
 10954 3321 25000000 		.4byte	0x25
 10955 3325 18       		.byte	0x18
 10956 3326 00       		.byte	0
 10957 3327 2D       		.uleb128 0x2d
 10958 3328 74210000 		.4byte	.LASF762
 10959 332c 0B       		.uleb128 0xb
 10960 332d 04       		.byte	0x4
 10961 332e 27330000 		.4byte	0x3327
 10962 3332 0D       		.uleb128 0xd
 10963 3333 3D330000 		.4byte	0x333d
 10964 3337 0E       		.uleb128 0xe
 10965 3338 392F0000 		.4byte	0x2f39
 10966 333c 00       		.byte	0
 10967 333d 0B       		.uleb128 0xb
 10968 333e 04       		.byte	0x4
 10969 333f 32330000 		.4byte	0x3332
 10970 3343 0B       		.uleb128 0xb
 10971 3344 04       		.byte	0x4
 10972 3345 8C2C0000 		.4byte	0x2c8c
 10973 3349 0D       		.uleb128 0xd
 10974 334a 54330000 		.4byte	0x3354
 10975 334e 0E       		.uleb128 0xe
 10976 334f A6000000 		.4byte	0xa6
 10977 3353 00       		.byte	0
 10978 3354 0B       		.uleb128 0xb
 10979 3355 04       		.byte	0x4
 10980 3356 5A330000 		.4byte	0x335a
 10981 335a 0B       		.uleb128 0xb
 10982 335b 04       		.byte	0x4
 10983 335c 49330000 		.4byte	0x3349
 10984 3360 14       		.uleb128 0x14
 10985 3361 EE300000 		.4byte	0x30ee
 10986 3365 70330000 		.4byte	0x3370
 10987 3369 15       		.uleb128 0x15
 10988 336a 25000000 		.4byte	0x25
 10989 336e 02       		.byte	0x2
 10990 336f 00       		.byte	0
 10991 3370 16       		.uleb128 0x16
ARM GAS  /tmp/ccB9eNXv.s 			page 194


 10992 3371 26210000 		.4byte	.LASF763
 10993 3375 2D       		.byte	0x2d
 10994 3376 2E03     		.2byte	0x32e
 10995 3378 392F0000 		.4byte	0x2f39
 10996 337c 16       		.uleb128 0x16
 10997 337d CC240000 		.4byte	.LASF764
 10998 3381 2D       		.byte	0x2d
 10999 3382 2F03     		.2byte	0x32f
 11000 3384 3F2F0000 		.4byte	0x2f3f
 11001 3388 2F       		.uleb128 0x2f
 11002 3389 241B0000 		.4byte	.LASF907
 11003 338d 05       		.byte	0x5
 11004 338e 01       		.byte	0x1
 11005 338f 2C000000 		.4byte	0x2c
 11006 3393 2E       		.byte	0x2e
 11007 3394 8202     		.2byte	0x282
 11008 3396 B3330000 		.4byte	0x33b3
 11009 339a 12       		.uleb128 0x12
 11010 339b 70180000 		.4byte	.LASF765
 11011 339f 7F       		.sleb128 -1
 11012 33a0 13       		.uleb128 0x13
 11013 33a1 59030000 		.4byte	.LASF766
 11014 33a5 00       		.byte	0
 11015 33a6 13       		.uleb128 0x13
 11016 33a7 D5220000 		.4byte	.LASF767
 11017 33ab 01       		.byte	0x1
 11018 33ac 13       		.uleb128 0x13
 11019 33ad 53270000 		.4byte	.LASF768
 11020 33b1 02       		.byte	0x2
 11021 33b2 00       		.byte	0
 11022 33b3 16       		.uleb128 0x16
 11023 33b4 EC2A0000 		.4byte	.LASF769
 11024 33b8 2E       		.byte	0x2e
 11025 33b9 8D02     		.2byte	0x28d
 11026 33bb 88330000 		.4byte	0x3388
 11027 33bf 11       		.uleb128 0x11
 11028 33c0 07       		.byte	0x7
 11029 33c1 01       		.byte	0x1
 11030 33c2 3E000000 		.4byte	0x3e
 11031 33c6 01       		.byte	0x1
 11032 33c7 4F       		.byte	0x4f
 11033 33c8 F7330000 		.4byte	0x33f7
 11034 33cc 13       		.uleb128 0x13
 11035 33cd A50F0000 		.4byte	.LASF770
 11036 33d1 00       		.byte	0
 11037 33d2 13       		.uleb128 0x13
 11038 33d3 48030000 		.4byte	.LASF771
 11039 33d7 01       		.byte	0x1
 11040 33d8 13       		.uleb128 0x13
 11041 33d9 67160000 		.4byte	.LASF772
 11042 33dd 02       		.byte	0x2
 11043 33de 13       		.uleb128 0x13
 11044 33df E5230000 		.4byte	.LASF773
 11045 33e3 03       		.byte	0x3
 11046 33e4 13       		.uleb128 0x13
 11047 33e5 88160000 		.4byte	.LASF774
 11048 33e9 04       		.byte	0x4
ARM GAS  /tmp/ccB9eNXv.s 			page 195


 11049 33ea 13       		.uleb128 0x13
 11050 33eb 70290000 		.4byte	.LASF775
 11051 33ef 05       		.byte	0x5
 11052 33f0 13       		.uleb128 0x13
 11053 33f1 331A0000 		.4byte	.LASF776
 11054 33f5 06       		.byte	0x6
 11055 33f6 00       		.byte	0
 11056 33f7 03       		.uleb128 0x3
 11057 33f8 85000000 		.4byte	.LASF777
 11058 33fc 01       		.byte	0x1
 11059 33fd 57       		.byte	0x57
 11060 33fe BF330000 		.4byte	0x33bf
 11061 3402 30       		.uleb128 0x30
 11062 3403 EF100000 		.4byte	.LASF778
 11063 3407 01       		.byte	0x1
 11064 3408 5A       		.byte	0x5a
 11065 3409 65120000 		.4byte	0x1265
 11066 340d 05       		.uleb128 0x5
 11067 340e 03       		.byte	0x3
 11068 340f 00000000 		.4byte	index_found
 11069 3413 30       		.uleb128 0x30
 11070 3414 84270000 		.4byte	.LASF779
 11071 3418 01       		.byte	0x1
 11072 3419 5B       		.byte	0x5b
 11073 341a F7000000 		.4byte	0xf7
 11074 341e 05       		.uleb128 0x5
 11075 341f 03       		.byte	0x3
 11076 3420 00000000 		.4byte	enc_counts
 11077 3424 30       		.uleb128 0x30
 11078 3425 D2090000 		.4byte	.LASF449
 11079 3429 01       		.byte	0x1
 11080 342a 5C       		.byte	0x5c
 11081 342b F7330000 		.4byte	0x33f7
 11082 342f 05       		.uleb128 0x5
 11083 3430 03       		.byte	0x3
 11084 3431 00000000 		.4byte	mode
 11085 3435 30       		.uleb128 0x30
 11086 3436 1F250000 		.4byte	.LASF780
 11087 343a 01       		.byte	0x1
 11088 343b 5D       		.byte	0x5d
 11089 343c 54120000 		.4byte	0x1254
 11090 3440 05       		.uleb128 0x5
 11091 3441 03       		.byte	0x3
 11092 3442 00000000 		.4byte	last_enc_angle
 11093 3446 30       		.uleb128 0x30
 11094 3447 8A010000 		.4byte	.LASF781
 11095 344b 01       		.byte	0x1
 11096 344c 5E       		.byte	0x5e
 11097 344d F7000000 		.4byte	0xf7
 11098 3451 05       		.uleb128 0x5
 11099 3452 03       		.byte	0x3
 11100 3453 00000000 		.4byte	spi_val
 11101 3457 30       		.uleb128 0x30
 11102 3458 65140000 		.4byte	.LASF782
 11103 345c 01       		.byte	0x1
 11104 345d 5F       		.byte	0x5f
 11105 345e B2000000 		.4byte	0xb2
ARM GAS  /tmp/ccB9eNXv.s 			page 196


 11106 3462 05       		.uleb128 0x5
 11107 3463 03       		.byte	0x3
 11108 3464 00000000 		.4byte	spi_data_err_raised
 11109 3468 30       		.uleb128 0x30
 11110 3469 41020000 		.4byte	.LASF783
 11111 346d 01       		.byte	0x1
 11112 346e 60       		.byte	0x60
 11113 346f F7000000 		.4byte	0xf7
 11114 3473 05       		.uleb128 0x5
 11115 3474 03       		.byte	0x3
 11116 3475 00000000 		.4byte	spi_error_cnt
 11117 3479 30       		.uleb128 0x30
 11118 347a 5E280000 		.4byte	.LASF784
 11119 347e 01       		.byte	0x1
 11120 347f 61       		.byte	0x61
 11121 3480 F7000000 		.4byte	0xf7
 11122 3484 05       		.uleb128 0x5
 11123 3485 03       		.byte	0x3
 11124 3486 00000000 		.4byte	encoder_no_magnet_error_cnt
 11125 348a 30       		.uleb128 0x30
 11126 348b 88280000 		.4byte	.LASF785
 11127 348f 01       		.byte	0x1
 11128 3490 62       		.byte	0x62
 11129 3491 54120000 		.4byte	0x1254
 11130 3495 05       		.uleb128 0x5
 11131 3496 03       		.byte	0x3
 11132 3497 00000000 		.4byte	spi_error_rate
 11133 349b 30       		.uleb128 0x30
 11134 349c 312A0000 		.4byte	.LASF786
 11135 34a0 01       		.byte	0x1
 11136 34a1 63       		.byte	0x63
 11137 34a2 54120000 		.4byte	0x1254
 11138 34a6 05       		.uleb128 0x5
 11139 34a7 03       		.byte	0x3
 11140 34a8 00000000 		.4byte	encoder_no_magnet_error_rate
 11141 34ac 30       		.uleb128 0x30
 11142 34ad E4210000 		.4byte	.LASF787
 11143 34b1 01       		.byte	0x1
 11144 34b2 64       		.byte	0x64
 11145 34b3 54120000 		.4byte	0x1254
 11146 34b7 05       		.uleb128 0x5
 11147 34b8 03       		.byte	0x3
 11148 34b9 00000000 		.4byte	resolver_loss_of_tracking_error_rate
 11149 34bd 30       		.uleb128 0x30
 11150 34be 39040000 		.4byte	.LASF788
 11151 34c2 01       		.byte	0x1
 11152 34c3 65       		.byte	0x65
 11153 34c4 54120000 		.4byte	0x1254
 11154 34c8 05       		.uleb128 0x5
 11155 34c9 03       		.byte	0x3
 11156 34ca 00000000 		.4byte	resolver_degradation_of_signal_error_rate
 11157 34ce 30       		.uleb128 0x30
 11158 34cf EB010000 		.4byte	.LASF789
 11159 34d3 01       		.byte	0x1
 11160 34d4 66       		.byte	0x66
 11161 34d5 54120000 		.4byte	0x1254
 11162 34d9 05       		.uleb128 0x5
ARM GAS  /tmp/ccB9eNXv.s 			page 197


 11163 34da 03       		.byte	0x3
 11164 34db 00000000 		.4byte	resolver_loss_of_signal_error_rate
 11165 34df 30       		.uleb128 0x30
 11166 34e0 C6080000 		.4byte	.LASF790
 11167 34e4 01       		.byte	0x1
 11168 34e5 67       		.byte	0x67
 11169 34e6 F7000000 		.4byte	0xf7
 11170 34ea 05       		.uleb128 0x5
 11171 34eb 03       		.byte	0x3
 11172 34ec 00000000 		.4byte	resolver_loss_of_tracking_error_cnt
 11173 34f0 30       		.uleb128 0x30
 11174 34f1 09000000 		.4byte	.LASF791
 11175 34f5 01       		.byte	0x1
 11176 34f6 68       		.byte	0x68
 11177 34f7 F7000000 		.4byte	0xf7
 11178 34fb 05       		.uleb128 0x5
 11179 34fc 03       		.byte	0x3
 11180 34fd 00000000 		.4byte	resolver_degradation_of_signal_error_cnt
 11181 3501 30       		.uleb128 0x30
 11182 3502 63050000 		.4byte	.LASF792
 11183 3506 01       		.byte	0x1
 11184 3507 69       		.byte	0x69
 11185 3508 F7000000 		.4byte	0xf7
 11186 350c 05       		.uleb128 0x5
 11187 350d 03       		.byte	0x3
 11188 350e 00000000 		.4byte	resolver_loss_of_signal_error_cnt
 11189 3512 30       		.uleb128 0x30
 11190 3513 390D0000 		.4byte	.LASF793
 11191 3517 01       		.byte	0x1
 11192 3518 6A       		.byte	0x6a
 11193 3519 F7000000 		.4byte	0xf7
 11194 351d 05       		.uleb128 0x5
 11195 351e 03       		.byte	0x3
 11196 351f 00000000 		.4byte	AS504x_spi_communication_error_count
 11197 3523 30       		.uleb128 0x30
 11198 3524 5B110000 		.4byte	.LASF794
 11199 3528 01       		.byte	0x1
 11200 3529 6B       		.byte	0x6b
 11201 352a 1D130000 		.4byte	0x131d
 11202 352e 05       		.uleb128 0x5
 11203 352f 03       		.byte	0x3
 11204 3530 00000000 		.4byte	AS504x_sensor_diag
 11205 3534 30       		.uleb128 0x30
 11206 3535 CC130000 		.4byte	.LASF795
 11207 3539 01       		.byte	0x1
 11208 353a 6D       		.byte	0x6d
 11209 353b 54120000 		.4byte	0x1254
 11210 353f 05       		.uleb128 0x5
 11211 3540 03       		.byte	0x3
 11212 3541 00000000 		.4byte	sin_gain
 11213 3545 30       		.uleb128 0x30
 11214 3546 C0120000 		.4byte	.LASF796
 11215 354a 01       		.byte	0x1
 11216 354b 6E       		.byte	0x6e
 11217 354c 54120000 		.4byte	0x1254
 11218 3550 05       		.uleb128 0x5
 11219 3551 03       		.byte	0x3
ARM GAS  /tmp/ccB9eNXv.s 			page 198


 11220 3552 00000000 		.4byte	sin_offset
 11221 3556 30       		.uleb128 0x30
 11222 3557 72090000 		.4byte	.LASF797
 11223 355b 01       		.byte	0x1
 11224 355c 6F       		.byte	0x6f
 11225 355d 54120000 		.4byte	0x1254
 11226 3561 05       		.uleb128 0x5
 11227 3562 03       		.byte	0x3
 11228 3563 00000000 		.4byte	cos_gain
 11229 3567 30       		.uleb128 0x30
 11230 3568 CD1A0000 		.4byte	.LASF798
 11231 356c 01       		.byte	0x1
 11232 356d 70       		.byte	0x70
 11233 356e 54120000 		.4byte	0x1254
 11234 3572 05       		.uleb128 0x5
 11235 3573 03       		.byte	0x3
 11236 3574 00000000 		.4byte	cos_offset
 11237 3578 30       		.uleb128 0x30
 11238 3579 A1210000 		.4byte	.LASF799
 11239 357d 01       		.byte	0x1
 11240 357e 71       		.byte	0x71
 11241 357f 54120000 		.4byte	0x1254
 11242 3583 05       		.uleb128 0x5
 11243 3584 03       		.byte	0x3
 11244 3585 00000000 		.4byte	sincos_filter_constant
 11245 3589 30       		.uleb128 0x30
 11246 358a 21150000 		.4byte	.LASF800
 11247 358e 01       		.byte	0x1
 11248 358f 72       		.byte	0x72
 11249 3590 F7000000 		.4byte	0xf7
 11250 3594 05       		.uleb128 0x5
 11251 3595 03       		.byte	0x3
 11252 3596 00000000 		.4byte	sincos_signal_below_min_error_cnt
 11253 359a 30       		.uleb128 0x30
 11254 359b 9D2B0000 		.4byte	.LASF801
 11255 359f 01       		.byte	0x1
 11256 35a0 73       		.byte	0x73
 11257 35a1 F7000000 		.4byte	0xf7
 11258 35a5 05       		.uleb128 0x5
 11259 35a6 03       		.byte	0x3
 11260 35a7 00000000 		.4byte	sincos_signal_above_max_error_cnt
 11261 35ab 30       		.uleb128 0x30
 11262 35ac 6A0C0000 		.4byte	.LASF802
 11263 35b0 01       		.byte	0x1
 11264 35b1 74       		.byte	0x74
 11265 35b2 54120000 		.4byte	0x1254
 11266 35b6 05       		.uleb128 0x5
 11267 35b7 03       		.byte	0x3
 11268 35b8 00000000 		.4byte	sincos_signal_low_error_rate
 11269 35bc 30       		.uleb128 0x30
 11270 35bd 10080000 		.4byte	.LASF803
 11271 35c1 01       		.byte	0x1
 11272 35c2 75       		.byte	0x75
 11273 35c3 54120000 		.4byte	0x1254
 11274 35c7 05       		.uleb128 0x5
 11275 35c8 03       		.byte	0x3
 11276 35c9 00000000 		.4byte	sincos_signal_above_max_error_rate
ARM GAS  /tmp/ccB9eNXv.s 			page 199


 11277 35cd 30       		.uleb128 0x30
 11278 35ce 1F230000 		.4byte	.LASF804
 11279 35d2 01       		.byte	0x1
 11280 35d3 77       		.byte	0x77
 11281 35d4 EF1D0000 		.4byte	0x1def
 11282 35d8 05       		.uleb128 0x5
 11283 35d9 03       		.byte	0x3
 11284 35da 00000000 		.4byte	TS5700N8501_uart_cfg
 11285 35de 30       		.uleb128 0x30
 11286 35df C6150000 		.4byte	.LASF805
 11287 35e3 01       		.byte	0x1
 11288 35e4 8B       		.byte	0x8b
 11289 35e5 03200000 		.4byte	0x2003
 11290 35e9 05       		.uleb128 0x5
 11291 35ea 03       		.byte	0x3
 11292 35eb 00000000 		.4byte	mt6816_spi_cfg
 11293 35ef 14       		.uleb128 0x14
 11294 35f0 020D0000 		.4byte	0xd02
 11295 35f4 FF350000 		.4byte	0x35ff
 11296 35f8 15       		.uleb128 0x15
 11297 35f9 25000000 		.4byte	0x25
 11298 35fd 73       		.byte	0x73
 11299 35fe 00       		.byte	0
 11300 35ff 30       		.uleb128 0x30
 11301 3600 92010000 		.4byte	.LASF806
 11302 3604 01       		.byte	0x1
 11303 3605 93       		.byte	0x93
 11304 3606 EF350000 		.4byte	0x35ef
 11305 360a 05       		.uleb128 0x5
 11306 360b 03       		.byte	0x3
 11307 360c 00000000 		.4byte	ts5700n8501_thread_wa
 11308 3610 30       		.uleb128 0x30
 11309 3611 17170000 		.4byte	.LASF807
 11310 3615 01       		.byte	0x1
 11311 3616 94       		.byte	0x94
 11312 3617 6C120000 		.4byte	0x126c
 11313 361b 05       		.uleb128 0x5
 11314 361c 03       		.byte	0x3
 11315 361d 00000000 		.4byte	ts5700n8501_stop_now
 11316 3621 30       		.uleb128 0x30
 11317 3622 CC000000 		.4byte	.LASF808
 11318 3626 01       		.byte	0x1
 11319 3627 95       		.byte	0x95
 11320 3628 6C120000 		.4byte	0x126c
 11321 362c 05       		.uleb128 0x5
 11322 362d 03       		.byte	0x3
 11323 362e 00000000 		.4byte	ts5700n8501_is_running
 11324 3632 14       		.uleb128 0x14
 11325 3633 BD000000 		.4byte	0xbd
 11326 3637 42360000 		.4byte	0x3642
 11327 363b 15       		.uleb128 0x15
 11328 363c 25000000 		.4byte	0x25
 11329 3640 07       		.byte	0x7
 11330 3641 00       		.byte	0
 11331 3642 06       		.uleb128 0x6
 11332 3643 32360000 		.4byte	0x3632
 11333 3647 30       		.uleb128 0x30
ARM GAS  /tmp/ccB9eNXv.s 			page 200


 11334 3648 C9280000 		.4byte	.LASF809
 11335 364c 01       		.byte	0x1
 11336 364d 96       		.byte	0x96
 11337 364e 42360000 		.4byte	0x3642
 11338 3652 05       		.uleb128 0x5
 11339 3653 03       		.byte	0x3
 11340 3654 00000000 		.4byte	ts5700n8501_raw_status
 11341 3658 30       		.uleb128 0x30
 11342 3659 360A0000 		.4byte	.LASF810
 11343 365d 01       		.byte	0x1
 11344 365e 97       		.byte	0x97
 11345 365f 6C120000 		.4byte	0x126c
 11346 3663 05       		.uleb128 0x5
 11347 3664 03       		.byte	0x3
 11348 3665 00000000 		.4byte	ts5700n8501_reset_errors
 11349 3669 30       		.uleb128 0x30
 11350 366a 371E0000 		.4byte	.LASF811
 11351 366e 01       		.byte	0x1
 11352 366f 98       		.byte	0x98
 11353 3670 6C120000 		.4byte	0x126c
 11354 3674 05       		.uleb128 0x5
 11355 3675 03       		.byte	0x3
 11356 3676 00000000 		.4byte	ts5700n8501_reset_multiturn
 11357 367a 30       		.uleb128 0x30
 11358 367b 170B0000 		.4byte	.LASF812
 11359 367f 01       		.byte	0x1
 11360 3680 AD       		.byte	0xad
 11361 3681 F7000000 		.4byte	0xf7
 11362 3685 05       		.uleb128 0x5
 11363 3686 03       		.byte	0x3
 11364 3687 00000000 		.4byte	AS504x_data_last_invalid_counter
 11365 368b 31       		.uleb128 0x31
 11366 368c BD180000 		.4byte	.LASF815
 11367 3690 01       		.byte	0x1
 11368 3691 3B04     		.2byte	0x43b
 11369 3693 00000000 		.4byte	.LFB299
 11370 3697 E8010000 		.4byte	.LFE299-.LFB299
 11371 369b 01       		.uleb128 0x1
 11372 369c 9C       		.byte	0x9c
 11373 369d 8F380000 		.4byte	0x388f
 11374 36a1 32       		.uleb128 0x32
 11375 36a2 61726700 		.ascii	"arg\000"
 11376 36a6 01       		.byte	0x1
 11377 36a7 3B04     		.2byte	0x43b
 11378 36a9 B1030000 		.4byte	0x3b1
 11379 36ad 00000000 		.4byte	.LLST19
 11380 36b1 33       		.uleb128 0x33
 11381 36b2 50010000 		.4byte	.Ldebug_ranges0+0x150
 11382 36b6 F1370000 		.4byte	0x37f1
 11383 36ba 34       		.uleb128 0x34
 11384 36bb 4B100000 		.4byte	.LASF813
 11385 36bf 01       		.byte	0x1
 11386 36c0 6A04     		.2byte	0x46a
 11387 36c2 8F380000 		.4byte	0x388f
 11388 36c6 02       		.uleb128 0x2
 11389 36c7 91       		.byte	0x91
 11390 36c8 44       		.sleb128 -60
ARM GAS  /tmp/ccB9eNXv.s 			page 201


 11391 36c9 35       		.uleb128 0x35
 11392 36ca B6250000 		.4byte	.LASF814
 11393 36ce 01       		.byte	0x1
 11394 36cf 6B04     		.2byte	0x46b
 11395 36d1 A6000000 		.4byte	0xa6
 11396 36d5 21000000 		.4byte	.LLST21
 11397 36d9 36       		.uleb128 0x36
 11398 36da 72657300 		.ascii	"res\000"
 11399 36de 01       		.byte	0x1
 11400 36df 6D04     		.2byte	0x46d
 11401 36e1 64010000 		.4byte	0x164
 11402 36e5 6F000000 		.4byte	.LLST22
 11403 36e9 36       		.uleb128 0x36
 11404 36ea 63726300 		.ascii	"crc\000"
 11405 36ee 01       		.byte	0x1
 11406 36ef 7504     		.2byte	0x475
 11407 36f1 B2000000 		.4byte	0xb2
 11408 36f5 B0000000 		.4byte	.LLST23
 11409 36f9 37       		.uleb128 0x37
 11410 36fa 7E010000 		.4byte	.LBB723
 11411 36fe 10000000 		.4byte	.LBE723-.LBB723
 11412 3702 38370000 		.4byte	0x3738
 11413 3706 36       		.uleb128 0x36
 11414 3707 6900     		.ascii	"i\000"
 11415 3709 01       		.byte	0x1
 11416 370a 5504     		.2byte	0x455
 11417 370c A6000000 		.4byte	0xa6
 11418 3710 DB000000 		.4byte	.LLST27
 11419 3714 38       		.uleb128 0x38
 11420 3715 84010000 		.4byte	.LVL161
 11421 3719 9F380000 		.4byte	0x389f
 11422 371d 28370000 		.4byte	0x3728
 11423 3721 39       		.uleb128 0x39
 11424 3722 01       		.uleb128 0x1
 11425 3723 50       		.byte	0x50
 11426 3724 02       		.uleb128 0x2
 11427 3725 08       		.byte	0x8
 11428 3726 5D       		.byte	0x5d
 11429 3727 00       		.byte	0
 11430 3728 3A       		.uleb128 0x3a
 11431 3729 8A010000 		.4byte	.LVL162
 11432 372d 974E0000 		.4byte	0x4e97
 11433 3731 39       		.uleb128 0x39
 11434 3732 01       		.uleb128 0x1
 11435 3733 50       		.byte	0x50
 11436 3734 01       		.uleb128 0x1
 11437 3735 32       		.byte	0x32
 11438 3736 00       		.byte	0
 11439 3737 00       		.byte	0
 11440 3738 37       		.uleb128 0x37
 11441 3739 68010000 		.4byte	.LBB722
 11442 373d 10000000 		.4byte	.LBE722-.LBB722
 11443 3741 77370000 		.4byte	0x3777
 11444 3745 36       		.uleb128 0x36
 11445 3746 6900     		.ascii	"i\000"
 11446 3748 01       		.byte	0x1
 11447 3749 5E04     		.2byte	0x45e
ARM GAS  /tmp/ccB9eNXv.s 			page 202


 11448 374b A6000000 		.4byte	0xa6
 11449 374f 10010000 		.4byte	.LLST26
 11450 3753 38       		.uleb128 0x38
 11451 3754 6E010000 		.4byte	.LVL156
 11452 3758 9F380000 		.4byte	0x389f
 11453 375c 67370000 		.4byte	0x3767
 11454 3760 39       		.uleb128 0x39
 11455 3761 01       		.uleb128 0x1
 11456 3762 50       		.byte	0x50
 11457 3763 02       		.uleb128 0x2
 11458 3764 08       		.byte	0x8
 11459 3765 46       		.byte	0x46
 11460 3766 00       		.byte	0
 11461 3767 3A       		.uleb128 0x3a
 11462 3768 74010000 		.4byte	.LVL157
 11463 376c 974E0000 		.4byte	0x4e97
 11464 3770 39       		.uleb128 0x39
 11465 3771 01       		.uleb128 0x1
 11466 3772 50       		.byte	0x50
 11467 3773 01       		.uleb128 0x1
 11468 3774 32       		.byte	0x32
 11469 3775 00       		.byte	0
 11470 3776 00       		.byte	0
 11471 3777 37       		.uleb128 0x37
 11472 3778 AA000000 		.4byte	.LBB720
 11473 377c 1A000000 		.4byte	.LBE720-.LBB720
 11474 3780 93370000 		.4byte	0x3793
 11475 3784 36       		.uleb128 0x36
 11476 3785 6900     		.ascii	"i\000"
 11477 3787 01       		.byte	0x1
 11478 3788 7604     		.2byte	0x476
 11479 378a A6000000 		.4byte	0xa6
 11480 378e 45010000 		.4byte	.LLST25
 11481 3792 00       		.byte	0
 11482 3793 33       		.uleb128 0x33
 11483 3794 70010000 		.4byte	.Ldebug_ranges0+0x170
 11484 3798 AD370000 		.4byte	0x37ad
 11485 379c 36       		.uleb128 0x36
 11486 379d 706F7300 		.ascii	"pos\000"
 11487 37a1 01       		.byte	0x1
 11488 37a2 7B04     		.2byte	0x47b
 11489 37a4 F7000000 		.4byte	0xf7
 11490 37a8 9B010000 		.4byte	.LLST24
 11491 37ac 00       		.byte	0
 11492 37ad 38       		.uleb128 0x38
 11493 37ae 70000000 		.4byte	.LVL132
 11494 37b2 9F380000 		.4byte	0x389f
 11495 37b6 C1370000 		.4byte	0x37c1
 11496 37ba 39       		.uleb128 0x39
 11497 37bb 01       		.uleb128 0x1
 11498 37bc 50       		.byte	0x50
 11499 37bd 02       		.uleb128 0x2
 11500 37be 08       		.byte	0x8
 11501 37bf 58       		.byte	0x58
 11502 37c0 00       		.byte	0
 11503 37c1 38       		.uleb128 0x38
 11504 37c2 76000000 		.4byte	.LVL133
ARM GAS  /tmp/ccB9eNXv.s 			page 203


 11505 37c6 974E0000 		.4byte	0x4e97
 11506 37ca D4370000 		.4byte	0x37d4
 11507 37ce 39       		.uleb128 0x39
 11508 37cf 01       		.uleb128 0x1
 11509 37d0 50       		.byte	0x50
 11510 37d1 01       		.uleb128 0x1
 11511 37d2 32       		.byte	0x32
 11512 37d3 00       		.byte	0
 11513 37d4 38       		.uleb128 0x38
 11514 37d5 7E000000 		.4byte	.LVL134
 11515 37d9 A24E0000 		.4byte	0x4ea2
 11516 37dd E7370000 		.4byte	0x37e7
 11517 37e1 39       		.uleb128 0x39
 11518 37e2 01       		.uleb128 0x1
 11519 37e3 51       		.byte	0x51
 11520 37e4 01       		.uleb128 0x1
 11521 37e5 30       		.byte	0x30
 11522 37e6 00       		.byte	0
 11523 37e7 3B       		.uleb128 0x3b
 11524 37e8 A4000000 		.4byte	.LVL140
 11525 37ec A24E0000 		.4byte	0x4ea2
 11526 37f0 00       		.byte	0
 11527 37f1 3C       		.uleb128 0x3c
 11528 37f2 FE4C0000 		.4byte	0x4cfe
 11529 37f6 04000000 		.4byte	.LBB715
 11530 37fa 38010000 		.4byte	.Ldebug_ranges0+0x138
 11531 37fe 01       		.byte	0x1
 11532 37ff 3E04     		.2byte	0x43e
 11533 3801 0F380000 		.4byte	0x380f
 11534 3805 3D       		.uleb128 0x3d
 11535 3806 0A4D0000 		.4byte	0x4d0a
 11536 380a BD010000 		.4byte	.LLST20
 11537 380e 00       		.byte	0
 11538 380f 38       		.uleb128 0x38
 11539 3810 1E000000 		.4byte	.LVL128
 11540 3814 AD4E0000 		.4byte	0x4ead
 11541 3818 26380000 		.4byte	0x3826
 11542 381c 39       		.uleb128 0x39
 11543 381d 01       		.uleb128 0x1
 11544 381e 51       		.byte	0x51
 11545 381f 05       		.uleb128 0x5
 11546 3820 03       		.byte	0x3
 11547 3821 00000000 		.4byte	.LANCHOR32
 11548 3825 00       		.byte	0
 11549 3826 38       		.uleb128 0x38
 11550 3827 2A000000 		.4byte	.LVL129
 11551 382b B94E0000 		.4byte	0x4eb9
 11552 382f 4A380000 		.4byte	0x384a
 11553 3833 39       		.uleb128 0x39
 11554 3834 01       		.uleb128 0x1
 11555 3835 50       		.byte	0x50
 11556 3836 05       		.uleb128 0x5
 11557 3837 0C       		.byte	0xc
 11558 3838 00040240 		.4byte	0x40020400
 11559 383c 39       		.uleb128 0x39
 11560 383d 01       		.uleb128 0x1
 11561 383e 51       		.byte	0x51
ARM GAS  /tmp/ccB9eNXv.s 			page 204


 11562 383f 03       		.uleb128 0x3
 11563 3840 0A       		.byte	0xa
 11564 3841 0004     		.2byte	0x400
 11565 3843 39       		.uleb128 0x39
 11566 3844 01       		.uleb128 0x1
 11567 3845 52       		.byte	0x52
 11568 3846 02       		.uleb128 0x2
 11569 3847 08       		.byte	0x8
 11570 3848 39       		.byte	0x39
 11571 3849 00       		.byte	0
 11572 384a 38       		.uleb128 0x38
 11573 384b 38000000 		.4byte	.LVL130
 11574 384f B94E0000 		.4byte	0x4eb9
 11575 3853 6F380000 		.4byte	0x386f
 11576 3857 39       		.uleb128 0x39
 11577 3858 01       		.uleb128 0x1
 11578 3859 50       		.byte	0x50
 11579 385a 05       		.uleb128 0x5
 11580 385b 0C       		.byte	0xc
 11581 385c 00040240 		.4byte	0x40020400
 11582 3860 39       		.uleb128 0x39
 11583 3861 01       		.uleb128 0x1
 11584 3862 51       		.byte	0x51
 11585 3863 03       		.uleb128 0x3
 11586 3864 0A       		.byte	0xa
 11587 3865 0008     		.2byte	0x800
 11588 3867 39       		.uleb128 0x39
 11589 3868 01       		.uleb128 0x1
 11590 3869 52       		.byte	0x52
 11591 386a 03       		.uleb128 0x3
 11592 386b 0A       		.byte	0xa
 11593 386c BA03     		.2byte	0x3ba
 11594 386e 00       		.byte	0
 11595 386f 3A       		.uleb128 0x3a
 11596 3870 42000000 		.4byte	.LVL131
 11597 3874 B94E0000 		.4byte	0x4eb9
 11598 3878 39       		.uleb128 0x39
 11599 3879 01       		.uleb128 0x1
 11600 387a 50       		.byte	0x50
 11601 387b 05       		.uleb128 0x5
 11602 387c 0C       		.byte	0xc
 11603 387d 00000240 		.4byte	0x40020000
 11604 3881 39       		.uleb128 0x39
 11605 3882 01       		.uleb128 0x1
 11606 3883 51       		.byte	0x51
 11607 3884 02       		.uleb128 0x2
 11608 3885 08       		.byte	0x8
 11609 3886 20       		.byte	0x20
 11610 3887 39       		.uleb128 0x39
 11611 3888 01       		.uleb128 0x1
 11612 3889 52       		.byte	0x52
 11613 388a 02       		.uleb128 0x2
 11614 388b 08       		.byte	0x8
 11615 388c 39       		.byte	0x39
 11616 388d 00       		.byte	0
 11617 388e 00       		.byte	0
 11618 388f 14       		.uleb128 0x14
ARM GAS  /tmp/ccB9eNXv.s 			page 205


 11619 3890 B2000000 		.4byte	0xb2
 11620 3894 9F380000 		.4byte	0x389f
 11621 3898 15       		.uleb128 0x15
 11622 3899 25000000 		.4byte	0x25
 11623 389d 0A       		.byte	0xa
 11624 389e 00       		.byte	0
 11625 389f 31       		.uleb128 0x31
 11626 38a0 38120000 		.4byte	.LASF816
 11627 38a4 01       		.byte	0x1
 11628 38a5 1A04     		.2byte	0x41a
 11629 38a7 00000000 		.4byte	.LFB298
 11630 38ab D4000000 		.4byte	.LFE298-.LFB298
 11631 38af 01       		.uleb128 0x1
 11632 38b0 9C       		.byte	0x9c
 11633 38b1 1D3B0000 		.4byte	0x3b1d
 11634 38b5 32       		.uleb128 0x32
 11635 38b6 6200     		.ascii	"b\000"
 11636 38b8 01       		.byte	0x1
 11637 38b9 1A04     		.2byte	0x41a
 11638 38bb B2000000 		.4byte	0xb2
 11639 38bf D5010000 		.4byte	.LLST17
 11640 38c3 37       		.uleb128 0x37
 11641 38c4 3E000000 		.4byte	.LBB678
 11642 38c8 4C000000 		.4byte	.LBE678-.LBB678
 11643 38cc E8380000 		.4byte	0x38e8
 11644 38d0 36       		.uleb128 0x36
 11645 38d1 6900     		.ascii	"i\000"
 11646 38d3 01       		.byte	0x1
 11647 38d4 2604     		.2byte	0x426
 11648 38d6 A6000000 		.4byte	0xa6
 11649 38da F6010000 		.4byte	.LLST18
 11650 38de 3B       		.uleb128 0x3b
 11651 38df 7E000000 		.4byte	.LVL120
 11652 38e3 1D3B0000 		.4byte	0x3b1d
 11653 38e7 00       		.byte	0
 11654 38e8 3E       		.uleb128 0x3e
 11655 38e9 164D0000 		.4byte	0x4d16
 11656 38ed 20000000 		.4byte	.LBB648
 11657 38f1 02000000 		.4byte	.LBE648-.LBB648
 11658 38f5 01       		.byte	0x1
 11659 38f6 2104     		.2byte	0x421
 11660 38f8 3E       		.uleb128 0x3e
 11661 38f9 164D0000 		.4byte	0x4d16
 11662 38fd 22000000 		.4byte	.LBB650
 11663 3901 02000000 		.4byte	.LBE650-.LBB650
 11664 3905 01       		.byte	0x1
 11665 3906 2104     		.2byte	0x421
 11666 3908 3E       		.uleb128 0x3e
 11667 3909 164D0000 		.4byte	0x4d16
 11668 390d 24000000 		.4byte	.LBB652
 11669 3911 02000000 		.4byte	.LBE652-.LBB652
 11670 3915 01       		.byte	0x1
 11671 3916 2104     		.2byte	0x421
 11672 3918 3E       		.uleb128 0x3e
 11673 3919 164D0000 		.4byte	0x4d16
 11674 391d 26000000 		.4byte	.LBB654
 11675 3921 02000000 		.4byte	.LBE654-.LBB654
ARM GAS  /tmp/ccB9eNXv.s 			page 206


 11676 3925 01       		.byte	0x1
 11677 3926 2204     		.2byte	0x422
 11678 3928 3E       		.uleb128 0x3e
 11679 3929 164D0000 		.4byte	0x4d16
 11680 392d 28000000 		.4byte	.LBB656
 11681 3931 02000000 		.4byte	.LBE656-.LBB656
 11682 3935 01       		.byte	0x1
 11683 3936 2204     		.2byte	0x422
 11684 3938 3E       		.uleb128 0x3e
 11685 3939 164D0000 		.4byte	0x4d16
 11686 393d 2A000000 		.4byte	.LBB658
 11687 3941 02000000 		.4byte	.LBE658-.LBB658
 11688 3945 01       		.byte	0x1
 11689 3946 2204     		.2byte	0x422
 11690 3948 3E       		.uleb128 0x3e
 11691 3949 164D0000 		.4byte	0x4d16
 11692 394d 2C000000 		.4byte	.LBB660
 11693 3951 02000000 		.4byte	.LBE660-.LBB660
 11694 3955 01       		.byte	0x1
 11695 3956 2304     		.2byte	0x423
 11696 3958 3E       		.uleb128 0x3e
 11697 3959 164D0000 		.4byte	0x4d16
 11698 395d 2E000000 		.4byte	.LBB662
 11699 3961 02000000 		.4byte	.LBE662-.LBB662
 11700 3965 01       		.byte	0x1
 11701 3966 2304     		.2byte	0x423
 11702 3968 3E       		.uleb128 0x3e
 11703 3969 164D0000 		.4byte	0x4d16
 11704 396d 30000000 		.4byte	.LBB664
 11705 3971 02000000 		.4byte	.LBE664-.LBB664
 11706 3975 01       		.byte	0x1
 11707 3976 2304     		.2byte	0x423
 11708 3978 3E       		.uleb128 0x3e
 11709 3979 164D0000 		.4byte	0x4d16
 11710 397d 32000000 		.4byte	.LBB666
 11711 3981 02000000 		.4byte	.LBE666-.LBB666
 11712 3985 01       		.byte	0x1
 11713 3986 2404     		.2byte	0x424
 11714 3988 3E       		.uleb128 0x3e
 11715 3989 164D0000 		.4byte	0x4d16
 11716 398d 34000000 		.4byte	.LBB668
 11717 3991 02000000 		.4byte	.LBE668-.LBB668
 11718 3995 01       		.byte	0x1
 11719 3996 2404     		.2byte	0x424
 11720 3998 3E       		.uleb128 0x3e
 11721 3999 164D0000 		.4byte	0x4d16
 11722 399d 36000000 		.4byte	.LBB670
 11723 39a1 02000000 		.4byte	.LBE670-.LBB670
 11724 39a5 01       		.byte	0x1
 11725 39a6 2404     		.2byte	0x424
 11726 39a8 3E       		.uleb128 0x3e
 11727 39a9 164D0000 		.4byte	0x4d16
 11728 39ad 38000000 		.4byte	.LBB672
 11729 39b1 02000000 		.4byte	.LBE672-.LBB672
 11730 39b5 01       		.byte	0x1
 11731 39b6 2504     		.2byte	0x425
 11732 39b8 3E       		.uleb128 0x3e
ARM GAS  /tmp/ccB9eNXv.s 			page 207


 11733 39b9 164D0000 		.4byte	0x4d16
 11734 39bd 3A000000 		.4byte	.LBB674
 11735 39c1 02000000 		.4byte	.LBE674-.LBB674
 11736 39c5 01       		.byte	0x1
 11737 39c6 2504     		.2byte	0x425
 11738 39c8 3E       		.uleb128 0x3e
 11739 39c9 164D0000 		.4byte	0x4d16
 11740 39cd 3C000000 		.4byte	.LBB676
 11741 39d1 02000000 		.4byte	.LBE676-.LBB676
 11742 39d5 01       		.byte	0x1
 11743 39d6 2504     		.2byte	0x425
 11744 39d8 3E       		.uleb128 0x3e
 11745 39d9 164D0000 		.4byte	0x4d16
 11746 39dd 8A000000 		.4byte	.LBB679
 11747 39e1 02000000 		.4byte	.LBE679-.LBB679
 11748 39e5 01       		.byte	0x1
 11749 39e6 2B04     		.2byte	0x42b
 11750 39e8 3E       		.uleb128 0x3e
 11751 39e9 164D0000 		.4byte	0x4d16
 11752 39ed 8C000000 		.4byte	.LBB681
 11753 39f1 02000000 		.4byte	.LBE681-.LBB681
 11754 39f5 01       		.byte	0x1
 11755 39f6 2B04     		.2byte	0x42b
 11756 39f8 3E       		.uleb128 0x3e
 11757 39f9 164D0000 		.4byte	0x4d16
 11758 39fd 8E000000 		.4byte	.LBB683
 11759 3a01 02000000 		.4byte	.LBE683-.LBB683
 11760 3a05 01       		.byte	0x1
 11761 3a06 2B04     		.2byte	0x42b
 11762 3a08 3E       		.uleb128 0x3e
 11763 3a09 164D0000 		.4byte	0x4d16
 11764 3a0d 90000000 		.4byte	.LBB685
 11765 3a11 02000000 		.4byte	.LBE685-.LBB685
 11766 3a15 01       		.byte	0x1
 11767 3a16 2C04     		.2byte	0x42c
 11768 3a18 3E       		.uleb128 0x3e
 11769 3a19 164D0000 		.4byte	0x4d16
 11770 3a1d 92000000 		.4byte	.LBB687
 11771 3a21 02000000 		.4byte	.LBE687-.LBB687
 11772 3a25 01       		.byte	0x1
 11773 3a26 2C04     		.2byte	0x42c
 11774 3a28 3E       		.uleb128 0x3e
 11775 3a29 164D0000 		.4byte	0x4d16
 11776 3a2d 94000000 		.4byte	.LBB689
 11777 3a31 02000000 		.4byte	.LBE689-.LBB689
 11778 3a35 01       		.byte	0x1
 11779 3a36 2C04     		.2byte	0x42c
 11780 3a38 3E       		.uleb128 0x3e
 11781 3a39 164D0000 		.4byte	0x4d16
 11782 3a3d 96000000 		.4byte	.LBB691
 11783 3a41 02000000 		.4byte	.LBE691-.LBB691
 11784 3a45 01       		.byte	0x1
 11785 3a46 2D04     		.2byte	0x42d
 11786 3a48 3E       		.uleb128 0x3e
 11787 3a49 164D0000 		.4byte	0x4d16
 11788 3a4d 98000000 		.4byte	.LBB693
 11789 3a51 02000000 		.4byte	.LBE693-.LBB693
ARM GAS  /tmp/ccB9eNXv.s 			page 208


 11790 3a55 01       		.byte	0x1
 11791 3a56 2D04     		.2byte	0x42d
 11792 3a58 3E       		.uleb128 0x3e
 11793 3a59 164D0000 		.4byte	0x4d16
 11794 3a5d 9A000000 		.4byte	.LBB695
 11795 3a61 02000000 		.4byte	.LBE695-.LBB695
 11796 3a65 01       		.byte	0x1
 11797 3a66 2D04     		.2byte	0x42d
 11798 3a68 3E       		.uleb128 0x3e
 11799 3a69 164D0000 		.4byte	0x4d16
 11800 3a6d 9C000000 		.4byte	.LBB697
 11801 3a71 02000000 		.4byte	.LBE697-.LBB697
 11802 3a75 01       		.byte	0x1
 11803 3a76 2E04     		.2byte	0x42e
 11804 3a78 3E       		.uleb128 0x3e
 11805 3a79 164D0000 		.4byte	0x4d16
 11806 3a7d 9E000000 		.4byte	.LBB699
 11807 3a81 02000000 		.4byte	.LBE699-.LBB699
 11808 3a85 01       		.byte	0x1
 11809 3a86 2E04     		.2byte	0x42e
 11810 3a88 3E       		.uleb128 0x3e
 11811 3a89 164D0000 		.4byte	0x4d16
 11812 3a8d A0000000 		.4byte	.LBB701
 11813 3a91 02000000 		.4byte	.LBE701-.LBB701
 11814 3a95 01       		.byte	0x1
 11815 3a96 2E04     		.2byte	0x42e
 11816 3a98 3E       		.uleb128 0x3e
 11817 3a99 164D0000 		.4byte	0x4d16
 11818 3a9d A2000000 		.4byte	.LBB703
 11819 3aa1 02000000 		.4byte	.LBE703-.LBB703
 11820 3aa5 01       		.byte	0x1
 11821 3aa6 2F04     		.2byte	0x42f
 11822 3aa8 3E       		.uleb128 0x3e
 11823 3aa9 164D0000 		.4byte	0x4d16
 11824 3aad A4000000 		.4byte	.LBB705
 11825 3ab1 02000000 		.4byte	.LBE705-.LBB705
 11826 3ab5 01       		.byte	0x1
 11827 3ab6 2F04     		.2byte	0x42f
 11828 3ab8 3E       		.uleb128 0x3e
 11829 3ab9 164D0000 		.4byte	0x4d16
 11830 3abd A6000000 		.4byte	.LBB707
 11831 3ac1 02000000 		.4byte	.LBE707-.LBB707
 11832 3ac5 01       		.byte	0x1
 11833 3ac6 2F04     		.2byte	0x42f
 11834 3ac8 3E       		.uleb128 0x3e
 11835 3ac9 164D0000 		.4byte	0x4d16
 11836 3acd A8000000 		.4byte	.LBB709
 11837 3ad1 02000000 		.4byte	.LBE709-.LBB709
 11838 3ad5 01       		.byte	0x1
 11839 3ad6 3004     		.2byte	0x430
 11840 3ad8 3E       		.uleb128 0x3e
 11841 3ad9 164D0000 		.4byte	0x4d16
 11842 3add AA000000 		.4byte	.LBB711
 11843 3ae1 02000000 		.4byte	.LBE711-.LBB711
 11844 3ae5 01       		.byte	0x1
 11845 3ae6 3004     		.2byte	0x430
 11846 3ae8 3E       		.uleb128 0x3e
ARM GAS  /tmp/ccB9eNXv.s 			page 209


 11847 3ae9 164D0000 		.4byte	0x4d16
 11848 3aed AC000000 		.4byte	.LBB713
 11849 3af1 02000000 		.4byte	.LBE713-.LBB713
 11850 3af5 01       		.byte	0x1
 11851 3af6 3004     		.2byte	0x430
 11852 3af8 3B       		.uleb128 0x3b
 11853 3af9 0E000000 		.4byte	.LVL116
 11854 3afd C54E0000 		.4byte	0x4ec5
 11855 3b01 3B       		.uleb128 0x3b
 11856 3b02 18000000 		.4byte	.LVL117
 11857 3b06 1D3B0000 		.4byte	0x3b1d
 11858 3b0a 3B       		.uleb128 0x3b
 11859 3b0b BA000000 		.4byte	.LVL122
 11860 3b0f 1D3B0000 		.4byte	0x3b1d
 11861 3b13 3B       		.uleb128 0x3b
 11862 3b14 C4000000 		.4byte	.LVL123
 11863 3b18 D04E0000 		.4byte	0x4ed0
 11864 3b1c 00       		.byte	0
 11865 3b1d 3F       		.uleb128 0x3f
 11866 3b1e 08230000 		.4byte	.LASF826
 11867 3b22 01       		.byte	0x1
 11868 3b23 0A04     		.2byte	0x40a
 11869 3b25 00000000 		.4byte	.LFB297
 11870 3b29 30000000 		.4byte	.LFE297-.LFB297
 11871 3b2d 01       		.uleb128 0x1
 11872 3b2e 9C       		.byte	0x9c
 11873 3b2f 443C0000 		.4byte	0x3c44
 11874 3b33 3E       		.uleb128 0x3e
 11875 3b34 164D0000 		.4byte	0x4d16
 11876 3b38 04000000 		.4byte	.LBB614
 11877 3b3c 02000000 		.4byte	.LBE614-.LBB614
 11878 3b40 01       		.byte	0x1
 11879 3b41 0B04     		.2byte	0x40b
 11880 3b43 3E       		.uleb128 0x3e
 11881 3b44 164D0000 		.4byte	0x4d16
 11882 3b48 06000000 		.4byte	.LBB616
 11883 3b4c 02000000 		.4byte	.LBE616-.LBB616
 11884 3b50 01       		.byte	0x1
 11885 3b51 0B04     		.2byte	0x40b
 11886 3b53 3E       		.uleb128 0x3e
 11887 3b54 164D0000 		.4byte	0x4d16
 11888 3b58 08000000 		.4byte	.LBB618
 11889 3b5c 02000000 		.4byte	.LBE618-.LBB618
 11890 3b60 01       		.byte	0x1
 11891 3b61 0B04     		.2byte	0x40b
 11892 3b63 3E       		.uleb128 0x3e
 11893 3b64 164D0000 		.4byte	0x4d16
 11894 3b68 0A000000 		.4byte	.LBB620
 11895 3b6c 02000000 		.4byte	.LBE620-.LBB620
 11896 3b70 01       		.byte	0x1
 11897 3b71 0C04     		.2byte	0x40c
 11898 3b73 3E       		.uleb128 0x3e
 11899 3b74 164D0000 		.4byte	0x4d16
 11900 3b78 0C000000 		.4byte	.LBB622
 11901 3b7c 02000000 		.4byte	.LBE622-.LBB622
 11902 3b80 01       		.byte	0x1
 11903 3b81 0C04     		.2byte	0x40c
ARM GAS  /tmp/ccB9eNXv.s 			page 210


 11904 3b83 3E       		.uleb128 0x3e
 11905 3b84 164D0000 		.4byte	0x4d16
 11906 3b88 0E000000 		.4byte	.LBB624
 11907 3b8c 02000000 		.4byte	.LBE624-.LBB624
 11908 3b90 01       		.byte	0x1
 11909 3b91 0C04     		.2byte	0x40c
 11910 3b93 3E       		.uleb128 0x3e
 11911 3b94 164D0000 		.4byte	0x4d16
 11912 3b98 10000000 		.4byte	.LBB626
 11913 3b9c 02000000 		.4byte	.LBE626-.LBB626
 11914 3ba0 01       		.byte	0x1
 11915 3ba1 0D04     		.2byte	0x40d
 11916 3ba3 3E       		.uleb128 0x3e
 11917 3ba4 164D0000 		.4byte	0x4d16
 11918 3ba8 12000000 		.4byte	.LBB628
 11919 3bac 02000000 		.4byte	.LBE628-.LBB628
 11920 3bb0 01       		.byte	0x1
 11921 3bb1 0D04     		.2byte	0x40d
 11922 3bb3 3E       		.uleb128 0x3e
 11923 3bb4 164D0000 		.4byte	0x4d16
 11924 3bb8 14000000 		.4byte	.LBB630
 11925 3bbc 02000000 		.4byte	.LBE630-.LBB630
 11926 3bc0 01       		.byte	0x1
 11927 3bc1 0D04     		.2byte	0x40d
 11928 3bc3 3E       		.uleb128 0x3e
 11929 3bc4 164D0000 		.4byte	0x4d16
 11930 3bc8 16000000 		.4byte	.LBB632
 11931 3bcc 02000000 		.4byte	.LBE632-.LBB632
 11932 3bd0 01       		.byte	0x1
 11933 3bd1 0E04     		.2byte	0x40e
 11934 3bd3 3E       		.uleb128 0x3e
 11935 3bd4 164D0000 		.4byte	0x4d16
 11936 3bd8 18000000 		.4byte	.LBB634
 11937 3bdc 02000000 		.4byte	.LBE634-.LBB634
 11938 3be0 01       		.byte	0x1
 11939 3be1 0E04     		.2byte	0x40e
 11940 3be3 3E       		.uleb128 0x3e
 11941 3be4 164D0000 		.4byte	0x4d16
 11942 3be8 1A000000 		.4byte	.LBB636
 11943 3bec 02000000 		.4byte	.LBE636-.LBB636
 11944 3bf0 01       		.byte	0x1
 11945 3bf1 0E04     		.2byte	0x40e
 11946 3bf3 3E       		.uleb128 0x3e
 11947 3bf4 164D0000 		.4byte	0x4d16
 11948 3bf8 1C000000 		.4byte	.LBB638
 11949 3bfc 02000000 		.4byte	.LBE638-.LBB638
 11950 3c00 01       		.byte	0x1
 11951 3c01 0F04     		.2byte	0x40f
 11952 3c03 3E       		.uleb128 0x3e
 11953 3c04 164D0000 		.4byte	0x4d16
 11954 3c08 1E000000 		.4byte	.LBB640
 11955 3c0c 02000000 		.4byte	.LBE640-.LBB640
 11956 3c10 01       		.byte	0x1
 11957 3c11 0F04     		.2byte	0x40f
 11958 3c13 3E       		.uleb128 0x3e
 11959 3c14 164D0000 		.4byte	0x4d16
 11960 3c18 20000000 		.4byte	.LBB642
ARM GAS  /tmp/ccB9eNXv.s 			page 211


 11961 3c1c 02000000 		.4byte	.LBE642-.LBB642
 11962 3c20 01       		.byte	0x1
 11963 3c21 0F04     		.2byte	0x40f
 11964 3c23 3E       		.uleb128 0x3e
 11965 3c24 164D0000 		.4byte	0x4d16
 11966 3c28 22000000 		.4byte	.LBB644
 11967 3c2c 02000000 		.4byte	.LBE644-.LBB644
 11968 3c30 01       		.byte	0x1
 11969 3c31 1004     		.2byte	0x410
 11970 3c33 3E       		.uleb128 0x3e
 11971 3c34 164D0000 		.4byte	0x4d16
 11972 3c38 24000000 		.4byte	.LBB646
 11973 3c3c 02000000 		.4byte	.LBE646-.LBB646
 11974 3c40 01       		.byte	0x1
 11975 3c41 1004     		.2byte	0x410
 11976 3c43 00       		.byte	0
 11977 3c44 31       		.uleb128 0x31
 11978 3c45 7E030000 		.4byte	.LASF817
 11979 3c49 01       		.byte	0x1
 11980 3c4a F603     		.2byte	0x3f6
 11981 3c4c 00000000 		.4byte	.LFB296
 11982 3c50 52000000 		.4byte	.LFE296-.LFB296
 11983 3c54 01       		.uleb128 0x1
 11984 3c55 9C       		.byte	0x9c
 11985 3c56 DB3E0000 		.4byte	0x3edb
 11986 3c5a 3E       		.uleb128 0x3e
 11987 3c5b 164D0000 		.4byte	0x4d16
 11988 3c5f 00000000 		.4byte	.LBB534
 11989 3c63 02000000 		.4byte	.LBE534-.LBB534
 11990 3c67 01       		.byte	0x1
 11991 3c68 F703     		.2byte	0x3f7
 11992 3c6a 3E       		.uleb128 0x3e
 11993 3c6b 164D0000 		.4byte	0x4d16
 11994 3c6f 02000000 		.4byte	.LBB536
 11995 3c73 02000000 		.4byte	.LBE536-.LBB536
 11996 3c77 01       		.byte	0x1
 11997 3c78 F703     		.2byte	0x3f7
 11998 3c7a 3E       		.uleb128 0x3e
 11999 3c7b 164D0000 		.4byte	0x4d16
 12000 3c7f 04000000 		.4byte	.LBB538
 12001 3c83 02000000 		.4byte	.LBE538-.LBB538
 12002 3c87 01       		.byte	0x1
 12003 3c88 F703     		.2byte	0x3f7
 12004 3c8a 3E       		.uleb128 0x3e
 12005 3c8b 164D0000 		.4byte	0x4d16
 12006 3c8f 06000000 		.4byte	.LBB540
 12007 3c93 02000000 		.4byte	.LBE540-.LBB540
 12008 3c97 01       		.byte	0x1
 12009 3c98 F803     		.2byte	0x3f8
 12010 3c9a 3E       		.uleb128 0x3e
 12011 3c9b 164D0000 		.4byte	0x4d16
 12012 3c9f 08000000 		.4byte	.LBB542
 12013 3ca3 02000000 		.4byte	.LBE542-.LBB542
 12014 3ca7 01       		.byte	0x1
 12015 3ca8 F803     		.2byte	0x3f8
 12016 3caa 3E       		.uleb128 0x3e
 12017 3cab 164D0000 		.4byte	0x4d16
ARM GAS  /tmp/ccB9eNXv.s 			page 212


 12018 3caf 0A000000 		.4byte	.LBB544
 12019 3cb3 02000000 		.4byte	.LBE544-.LBB544
 12020 3cb7 01       		.byte	0x1
 12021 3cb8 F803     		.2byte	0x3f8
 12022 3cba 3E       		.uleb128 0x3e
 12023 3cbb 164D0000 		.4byte	0x4d16
 12024 3cbf 0C000000 		.4byte	.LBB546
 12025 3cc3 02000000 		.4byte	.LBE546-.LBB546
 12026 3cc7 01       		.byte	0x1
 12027 3cc8 F903     		.2byte	0x3f9
 12028 3cca 3E       		.uleb128 0x3e
 12029 3ccb 164D0000 		.4byte	0x4d16
 12030 3ccf 0E000000 		.4byte	.LBB548
 12031 3cd3 02000000 		.4byte	.LBE548-.LBB548
 12032 3cd7 01       		.byte	0x1
 12033 3cd8 F903     		.2byte	0x3f9
 12034 3cda 3E       		.uleb128 0x3e
 12035 3cdb 164D0000 		.4byte	0x4d16
 12036 3cdf 10000000 		.4byte	.LBB550
 12037 3ce3 02000000 		.4byte	.LBE550-.LBB550
 12038 3ce7 01       		.byte	0x1
 12039 3ce8 F903     		.2byte	0x3f9
 12040 3cea 3E       		.uleb128 0x3e
 12041 3ceb 164D0000 		.4byte	0x4d16
 12042 3cef 12000000 		.4byte	.LBB552
 12043 3cf3 02000000 		.4byte	.LBE552-.LBB552
 12044 3cf7 01       		.byte	0x1
 12045 3cf8 FA03     		.2byte	0x3fa
 12046 3cfa 3E       		.uleb128 0x3e
 12047 3cfb 164D0000 		.4byte	0x4d16
 12048 3cff 14000000 		.4byte	.LBB554
 12049 3d03 02000000 		.4byte	.LBE554-.LBB554
 12050 3d07 01       		.byte	0x1
 12051 3d08 FA03     		.2byte	0x3fa
 12052 3d0a 3E       		.uleb128 0x3e
 12053 3d0b 164D0000 		.4byte	0x4d16
 12054 3d0f 16000000 		.4byte	.LBB556
 12055 3d13 02000000 		.4byte	.LBE556-.LBB556
 12056 3d17 01       		.byte	0x1
 12057 3d18 FA03     		.2byte	0x3fa
 12058 3d1a 3E       		.uleb128 0x3e
 12059 3d1b 164D0000 		.4byte	0x4d16
 12060 3d1f 18000000 		.4byte	.LBB558
 12061 3d23 02000000 		.4byte	.LBE558-.LBB558
 12062 3d27 01       		.byte	0x1
 12063 3d28 FB03     		.2byte	0x3fb
 12064 3d2a 3E       		.uleb128 0x3e
 12065 3d2b 164D0000 		.4byte	0x4d16
 12066 3d2f 1A000000 		.4byte	.LBB560
 12067 3d33 02000000 		.4byte	.LBE560-.LBB560
 12068 3d37 01       		.byte	0x1
 12069 3d38 FB03     		.2byte	0x3fb
 12070 3d3a 3E       		.uleb128 0x3e
 12071 3d3b 164D0000 		.4byte	0x4d16
 12072 3d3f 1C000000 		.4byte	.LBB562
 12073 3d43 02000000 		.4byte	.LBE562-.LBB562
 12074 3d47 01       		.byte	0x1
ARM GAS  /tmp/ccB9eNXv.s 			page 213


 12075 3d48 FB03     		.2byte	0x3fb
 12076 3d4a 3E       		.uleb128 0x3e
 12077 3d4b 164D0000 		.4byte	0x4d16
 12078 3d4f 1E000000 		.4byte	.LBB564
 12079 3d53 02000000 		.4byte	.LBE564-.LBB564
 12080 3d57 01       		.byte	0x1
 12081 3d58 FC03     		.2byte	0x3fc
 12082 3d5a 3E       		.uleb128 0x3e
 12083 3d5b 164D0000 		.4byte	0x4d16
 12084 3d5f 20000000 		.4byte	.LBB566
 12085 3d63 02000000 		.4byte	.LBE566-.LBB566
 12086 3d67 01       		.byte	0x1
 12087 3d68 FC03     		.2byte	0x3fc
 12088 3d6a 3E       		.uleb128 0x3e
 12089 3d6b 164D0000 		.4byte	0x4d16
 12090 3d6f 22000000 		.4byte	.LBB568
 12091 3d73 02000000 		.4byte	.LBE568-.LBB568
 12092 3d77 01       		.byte	0x1
 12093 3d78 FC03     		.2byte	0x3fc
 12094 3d7a 3E       		.uleb128 0x3e
 12095 3d7b 164D0000 		.4byte	0x4d16
 12096 3d7f 24000000 		.4byte	.LBB570
 12097 3d83 02000000 		.4byte	.LBE570-.LBB570
 12098 3d87 01       		.byte	0x1
 12099 3d88 FD03     		.2byte	0x3fd
 12100 3d8a 3E       		.uleb128 0x3e
 12101 3d8b 164D0000 		.4byte	0x4d16
 12102 3d8f 26000000 		.4byte	.LBB572
 12103 3d93 02000000 		.4byte	.LBE572-.LBB572
 12104 3d97 01       		.byte	0x1
 12105 3d98 FD03     		.2byte	0x3fd
 12106 3d9a 3E       		.uleb128 0x3e
 12107 3d9b 164D0000 		.4byte	0x4d16
 12108 3d9f 28000000 		.4byte	.LBB574
 12109 3da3 02000000 		.4byte	.LBE574-.LBB574
 12110 3da7 01       		.byte	0x1
 12111 3da8 FD03     		.2byte	0x3fd
 12112 3daa 3E       		.uleb128 0x3e
 12113 3dab 164D0000 		.4byte	0x4d16
 12114 3daf 2A000000 		.4byte	.LBB576
 12115 3db3 02000000 		.4byte	.LBE576-.LBB576
 12116 3db7 01       		.byte	0x1
 12117 3db8 FE03     		.2byte	0x3fe
 12118 3dba 3E       		.uleb128 0x3e
 12119 3dbb 164D0000 		.4byte	0x4d16
 12120 3dbf 2C000000 		.4byte	.LBB578
 12121 3dc3 02000000 		.4byte	.LBE578-.LBB578
 12122 3dc7 01       		.byte	0x1
 12123 3dc8 FE03     		.2byte	0x3fe
 12124 3dca 3E       		.uleb128 0x3e
 12125 3dcb 164D0000 		.4byte	0x4d16
 12126 3dcf 2E000000 		.4byte	.LBB580
 12127 3dd3 02000000 		.4byte	.LBE580-.LBB580
 12128 3dd7 01       		.byte	0x1
 12129 3dd8 FE03     		.2byte	0x3fe
 12130 3dda 3E       		.uleb128 0x3e
 12131 3ddb 164D0000 		.4byte	0x4d16
ARM GAS  /tmp/ccB9eNXv.s 			page 214


 12132 3ddf 30000000 		.4byte	.LBB582
 12133 3de3 02000000 		.4byte	.LBE582-.LBB582
 12134 3de7 01       		.byte	0x1
 12135 3de8 FF03     		.2byte	0x3ff
 12136 3dea 3E       		.uleb128 0x3e
 12137 3deb 164D0000 		.4byte	0x4d16
 12138 3def 32000000 		.4byte	.LBB584
 12139 3df3 02000000 		.4byte	.LBE584-.LBB584
 12140 3df7 01       		.byte	0x1
 12141 3df8 FF03     		.2byte	0x3ff
 12142 3dfa 3E       		.uleb128 0x3e
 12143 3dfb 164D0000 		.4byte	0x4d16
 12144 3dff 34000000 		.4byte	.LBB586
 12145 3e03 02000000 		.4byte	.LBE586-.LBB586
 12146 3e07 01       		.byte	0x1
 12147 3e08 FF03     		.2byte	0x3ff
 12148 3e0a 3E       		.uleb128 0x3e
 12149 3e0b 164D0000 		.4byte	0x4d16
 12150 3e0f 36000000 		.4byte	.LBB588
 12151 3e13 02000000 		.4byte	.LBE588-.LBB588
 12152 3e17 01       		.byte	0x1
 12153 3e18 0004     		.2byte	0x400
 12154 3e1a 3E       		.uleb128 0x3e
 12155 3e1b 164D0000 		.4byte	0x4d16
 12156 3e1f 38000000 		.4byte	.LBB590
 12157 3e23 02000000 		.4byte	.LBE590-.LBB590
 12158 3e27 01       		.byte	0x1
 12159 3e28 0004     		.2byte	0x400
 12160 3e2a 3E       		.uleb128 0x3e
 12161 3e2b 164D0000 		.4byte	0x4d16
 12162 3e2f 3A000000 		.4byte	.LBB592
 12163 3e33 02000000 		.4byte	.LBE592-.LBB592
 12164 3e37 01       		.byte	0x1
 12165 3e38 0004     		.2byte	0x400
 12166 3e3a 3E       		.uleb128 0x3e
 12167 3e3b 164D0000 		.4byte	0x4d16
 12168 3e3f 3C000000 		.4byte	.LBB594
 12169 3e43 02000000 		.4byte	.LBE594-.LBB594
 12170 3e47 01       		.byte	0x1
 12171 3e48 0104     		.2byte	0x401
 12172 3e4a 3E       		.uleb128 0x3e
 12173 3e4b 164D0000 		.4byte	0x4d16
 12174 3e4f 3E000000 		.4byte	.LBB596
 12175 3e53 02000000 		.4byte	.LBE596-.LBB596
 12176 3e57 01       		.byte	0x1
 12177 3e58 0104     		.2byte	0x401
 12178 3e5a 3E       		.uleb128 0x3e
 12179 3e5b 164D0000 		.4byte	0x4d16
 12180 3e5f 40000000 		.4byte	.LBB598
 12181 3e63 02000000 		.4byte	.LBE598-.LBB598
 12182 3e67 01       		.byte	0x1
 12183 3e68 0104     		.2byte	0x401
 12184 3e6a 3E       		.uleb128 0x3e
 12185 3e6b 164D0000 		.4byte	0x4d16
 12186 3e6f 42000000 		.4byte	.LBB600
 12187 3e73 02000000 		.4byte	.LBE600-.LBB600
 12188 3e77 01       		.byte	0x1
ARM GAS  /tmp/ccB9eNXv.s 			page 215


 12189 3e78 0204     		.2byte	0x402
 12190 3e7a 3E       		.uleb128 0x3e
 12191 3e7b 164D0000 		.4byte	0x4d16
 12192 3e7f 44000000 		.4byte	.LBB602
 12193 3e83 02000000 		.4byte	.LBE602-.LBB602
 12194 3e87 01       		.byte	0x1
 12195 3e88 0204     		.2byte	0x402
 12196 3e8a 3E       		.uleb128 0x3e
 12197 3e8b 164D0000 		.4byte	0x4d16
 12198 3e8f 46000000 		.4byte	.LBB604
 12199 3e93 02000000 		.4byte	.LBE604-.LBB604
 12200 3e97 01       		.byte	0x1
 12201 3e98 0204     		.2byte	0x402
 12202 3e9a 3E       		.uleb128 0x3e
 12203 3e9b 164D0000 		.4byte	0x4d16
 12204 3e9f 48000000 		.4byte	.LBB606
 12205 3ea3 02000000 		.4byte	.LBE606-.LBB606
 12206 3ea7 01       		.byte	0x1
 12207 3ea8 0304     		.2byte	0x403
 12208 3eaa 3E       		.uleb128 0x3e
 12209 3eab 164D0000 		.4byte	0x4d16
 12210 3eaf 4A000000 		.4byte	.LBB608
 12211 3eb3 02000000 		.4byte	.LBE608-.LBB608
 12212 3eb7 01       		.byte	0x1
 12213 3eb8 0304     		.2byte	0x403
 12214 3eba 3E       		.uleb128 0x3e
 12215 3ebb 164D0000 		.4byte	0x4d16
 12216 3ebf 4C000000 		.4byte	.LBB610
 12217 3ec3 02000000 		.4byte	.LBE610-.LBB610
 12218 3ec7 01       		.byte	0x1
 12219 3ec8 0304     		.2byte	0x403
 12220 3eca 3E       		.uleb128 0x3e
 12221 3ecb 164D0000 		.4byte	0x4d16
 12222 3ecf 4E000000 		.4byte	.LBB612
 12223 3ed3 02000000 		.4byte	.LBE612-.LBB612
 12224 3ed7 01       		.byte	0x1
 12225 3ed8 0404     		.2byte	0x404
 12226 3eda 00       		.byte	0
 12227 3edb 40       		.uleb128 0x40
 12228 3edc 23270000 		.4byte	.LASF818
 12229 3ee0 01       		.byte	0x1
 12230 3ee1 EF03     		.2byte	0x3ef
 12231 3ee3 01       		.byte	0x1
 12232 3ee4 40       		.uleb128 0x40
 12233 3ee5 0C1B0000 		.4byte	.LASF819
 12234 3ee9 01       		.byte	0x1
 12235 3eea EA03     		.2byte	0x3ea
 12236 3eec 01       		.byte	0x1
 12237 3eed 40       		.uleb128 0x40
 12238 3eee 37280000 		.4byte	.LASF820
 12239 3ef2 01       		.byte	0x1
 12240 3ef3 E503     		.2byte	0x3e5
 12241 3ef5 01       		.byte	0x1
 12242 3ef6 41       		.uleb128 0x41
 12243 3ef7 B41F0000 		.4byte	.LASF839
 12244 3efb 01       		.byte	0x1
 12245 3efc B803     		.2byte	0x3b8
ARM GAS  /tmp/ccB9eNXv.s 			page 216


 12246 3efe 01       		.byte	0x1
 12247 3eff 5E3F0000 		.4byte	0x3f5e
 12248 3f03 42       		.uleb128 0x42
 12249 3f04 A4230000 		.4byte	.LASF821
 12250 3f08 01       		.byte	0x1
 12251 3f09 B803     		.2byte	0x3b8
 12252 3f0b 5E3F0000 		.4byte	0x3f5e
 12253 3f0f 42       		.uleb128 0x42
 12254 3f10 00250000 		.4byte	.LASF822
 12255 3f14 01       		.byte	0x1
 12256 3f15 B803     		.2byte	0x3b8
 12257 3f17 643F0000 		.4byte	0x3f64
 12258 3f1b 42       		.uleb128 0x42
 12259 3f1c 02030000 		.4byte	.LASF823
 12260 3f20 01       		.byte	0x1
 12261 3f21 B803     		.2byte	0x3b8
 12262 3f23 A6000000 		.4byte	0xa6
 12263 3f27 43       		.uleb128 0x43
 12264 3f28 44       		.uleb128 0x44
 12265 3f29 6900     		.ascii	"i\000"
 12266 3f2b 01       		.byte	0x1
 12267 3f2c B903     		.2byte	0x3b9
 12268 3f2e A6000000 		.4byte	0xa6
 12269 3f32 43       		.uleb128 0x43
 12270 3f33 45       		.uleb128 0x45
 12271 3f34 6C220000 		.4byte	.LASF824
 12272 3f38 01       		.byte	0x1
 12273 3f39 C103     		.2byte	0x3c1
 12274 3f3b D2000000 		.4byte	0xd2
 12275 3f3f 43       		.uleb128 0x43
 12276 3f40 44       		.uleb128 0x44
 12277 3f41 62697400 		.ascii	"bit\000"
 12278 3f45 01       		.byte	0x1
 12279 3f46 C303     		.2byte	0x3c3
 12280 3f48 A6000000 		.4byte	0xa6
 12281 3f4c 43       		.uleb128 0x43
 12282 3f4d 45       		.uleb128 0x45
 12283 3f4e AE020000 		.4byte	.LASF825
 12284 3f52 01       		.byte	0x1
 12285 3f53 CB03     		.2byte	0x3cb
 12286 3f55 A6000000 		.4byte	0xa6
 12287 3f59 00       		.byte	0
 12288 3f5a 00       		.byte	0
 12289 3f5b 00       		.byte	0
 12290 3f5c 00       		.byte	0
 12291 3f5d 00       		.byte	0
 12292 3f5e 0B       		.uleb128 0xb
 12293 3f5f 04       		.byte	0x4
 12294 3f60 D2000000 		.4byte	0xd2
 12295 3f64 0B       		.uleb128 0xb
 12296 3f65 04       		.byte	0x4
 12297 3f66 E2000000 		.4byte	0xe2
 12298 3f6a 46       		.uleb128 0x46
 12299 3f6b 02140000 		.4byte	.LASF837
 12300 3f6f 01       		.byte	0x1
 12301 3f70 B303     		.2byte	0x3b3
 12302 3f72 65120000 		.4byte	0x1265
ARM GAS  /tmp/ccB9eNXv.s 			page 217


 12303 3f76 00000000 		.4byte	.LFB291
 12304 3f7a 0C000000 		.4byte	.LFE291-.LFB291
 12305 3f7e 01       		.uleb128 0x1
 12306 3f7f 9C       		.byte	0x9c
 12307 3f80 3F       		.uleb128 0x3f
 12308 3f81 3B080000 		.4byte	.LASF827
 12309 3f85 01       		.byte	0x1
 12310 3f86 A503     		.2byte	0x3a5
 12311 3f88 00000000 		.4byte	.LFB290
 12312 3f8c 2C000000 		.4byte	.LFE290-.LFB290
 12313 3f90 01       		.uleb128 0x1
 12314 3f91 9C       		.byte	0x9c
 12315 3f92 C33F0000 		.4byte	0x3fc3
 12316 3f96 47       		.uleb128 0x47
 12317 3f97 DF240000 		.4byte	.LASF828
 12318 3f9b 01       		.byte	0x1
 12319 3f9c A503     		.2byte	0x3a5
 12320 3f9e F7000000 		.4byte	0xf7
 12321 3fa2 21020000 		.4byte	.LLST16
 12322 3fa6 3A       		.uleb128 0x3a
 12323 3fa7 16000000 		.4byte	.LVL114
 12324 3fab DB4E0000 		.4byte	0x4edb
 12325 3faf 39       		.uleb128 0x39
 12326 3fb0 01       		.uleb128 0x1
 12327 3fb1 50       		.byte	0x50
 12328 3fb2 05       		.uleb128 0x5
 12329 3fb3 0C       		.byte	0xc
 12330 3fb4 00040040 		.4byte	0x40000400
 12331 3fb8 39       		.uleb128 0x39
 12332 3fb9 01       		.uleb128 0x1
 12333 3fba 51       		.byte	0x51
 12334 3fbb 05       		.uleb128 0x5
 12335 3fbc F3       		.byte	0xf3
 12336 3fbd 01       		.uleb128 0x1
 12337 3fbe 50       		.byte	0x50
 12338 3fbf 31       		.byte	0x31
 12339 3fc0 1C       		.byte	0x1c
 12340 3fc1 00       		.byte	0
 12341 3fc2 00       		.byte	0
 12342 3fc3 3F       		.uleb128 0x3f
 12343 3fc4 D3250000 		.4byte	.LASF829
 12344 3fc8 01       		.byte	0x1
 12345 3fc9 F202     		.2byte	0x2f2
 12346 3fcb 00000000 		.4byte	.LFB289
 12347 3fcf F0030000 		.4byte	.LFE289-.LFB289
 12348 3fd3 01       		.uleb128 0x1
 12349 3fd4 9C       		.byte	0x9c
 12350 3fd5 69430000 		.4byte	0x4369
 12351 3fd9 48       		.uleb128 0x48
 12352 3fda 706F7300 		.ascii	"pos\000"
 12353 3fde 01       		.byte	0x1
 12354 3fdf F302     		.2byte	0x2f3
 12355 3fe1 D2000000 		.4byte	0xd2
 12356 3fe5 02       		.uleb128 0x2
 12357 3fe6 91       		.byte	0x91
 12358 3fe7 66       		.sleb128 -26
 12359 3fe8 33       		.uleb128 0x33
ARM GAS  /tmp/ccB9eNXv.s 			page 218


 12360 3fe9 90000000 		.4byte	.Ldebug_ranges0+0x90
 12361 3fed 3F410000 		.4byte	0x413f
 12362 3ff1 35       		.uleb128 0x35
 12363 3ff2 831D0000 		.4byte	.LASF830
 12364 3ff6 01       		.byte	0x1
 12365 3ff7 3403     		.2byte	0x334
 12366 3ff9 D2000000 		.4byte	0xd2
 12367 3ffd 4D020000 		.4byte	.LLST8
 12368 4001 35       		.uleb128 0x35
 12369 4002 8F1D0000 		.4byte	.LASF831
 12370 4006 01       		.byte	0x1
 12371 4007 3503     		.2byte	0x335
 12372 4009 D2000000 		.4byte	0xd2
 12373 400d 76020000 		.4byte	.LLST9
 12374 4011 35       		.uleb128 0x35
 12375 4012 A41A0000 		.4byte	.LASF832
 12376 4016 01       		.byte	0x1
 12377 4017 3603     		.2byte	0x336
 12378 4019 D2000000 		.4byte	0xd2
 12379 401d 89020000 		.4byte	.LLST10
 12380 4021 35       		.uleb128 0x35
 12381 4022 B01A0000 		.4byte	.LASF833
 12382 4026 01       		.byte	0x1
 12383 4027 3703     		.2byte	0x337
 12384 4029 D2000000 		.4byte	0xd2
 12385 402d BB020000 		.4byte	.LLST11
 12386 4031 49       		.uleb128 0x49
 12387 4032 ED3E0000 		.4byte	0x3eed
 12388 4036 0E010000 		.4byte	.LBB483
 12389 403a 0C000000 		.4byte	.LBE483-.LBB483
 12390 403e 01       		.byte	0x1
 12391 403f 3903     		.2byte	0x339
 12392 4041 4F400000 		.4byte	0x404f
 12393 4045 3B       		.uleb128 0x3b
 12394 4046 1A010000 		.4byte	.LVL81
 12395 404a 443C0000 		.4byte	0x3c44
 12396 404e 00       		.byte	0
 12397 404f 3C       		.uleb128 0x3c
 12398 4050 E43E0000 		.4byte	0x3ee4
 12399 4054 24010000 		.4byte	.LBB485
 12400 4058 B0000000 		.4byte	.Ldebug_ranges0+0xb0
 12401 405c 01       		.byte	0x1
 12402 405d 3B03     		.2byte	0x33b
 12403 405f 6D400000 		.4byte	0x406d
 12404 4063 3B       		.uleb128 0x3b
 12405 4064 2C010000 		.4byte	.LVL84
 12406 4068 443C0000 		.4byte	0x3c44
 12407 406c 00       		.byte	0
 12408 406d 49       		.uleb128 0x49
 12409 406e DB3E0000 		.4byte	0x3edb
 12410 4072 2C010000 		.4byte	.LBB489
 12411 4076 08000000 		.4byte	.LBE489-.LBB489
 12412 407a 01       		.byte	0x1
 12413 407b 3C03     		.2byte	0x33c
 12414 407d C2400000 		.4byte	0x40c2
 12415 4081 3E       		.uleb128 0x3e
 12416 4082 164D0000 		.4byte	0x4d16
ARM GAS  /tmp/ccB9eNXv.s 			page 219


 12417 4086 2C010000 		.4byte	.LBB490
 12418 408a 02000000 		.4byte	.LBE490-.LBB490
 12419 408e 01       		.byte	0x1
 12420 408f F003     		.2byte	0x3f0
 12421 4091 3E       		.uleb128 0x3e
 12422 4092 164D0000 		.4byte	0x4d16
 12423 4096 2E010000 		.4byte	.LBB492
 12424 409a 02000000 		.4byte	.LBE492-.LBB492
 12425 409e 01       		.byte	0x1
 12426 409f F103     		.2byte	0x3f1
 12427 40a1 3E       		.uleb128 0x3e
 12428 40a2 164D0000 		.4byte	0x4d16
 12429 40a6 30010000 		.4byte	.LBB494
 12430 40aa 02000000 		.4byte	.LBE494-.LBB494
 12431 40ae 01       		.byte	0x1
 12432 40af F203     		.2byte	0x3f2
 12433 40b1 3E       		.uleb128 0x3e
 12434 40b2 164D0000 		.4byte	0x4d16
 12435 40b6 32010000 		.4byte	.LBB496
 12436 40ba 02000000 		.4byte	.LBE496-.LBB496
 12437 40be 01       		.byte	0x1
 12438 40bf F303     		.2byte	0x3f3
 12439 40c1 00       		.byte	0
 12440 40c2 49       		.uleb128 0x49
 12441 40c3 ED3E0000 		.4byte	0x3eed
 12442 40c7 34010000 		.4byte	.LBB498
 12443 40cb 06000000 		.4byte	.LBE498-.LBB498
 12444 40cf 01       		.byte	0x1
 12445 40d0 3D03     		.2byte	0x33d
 12446 40d2 E0400000 		.4byte	0x40e0
 12447 40d6 3B       		.uleb128 0x3b
 12448 40d7 3A010000 		.4byte	.LVL85
 12449 40db 443C0000 		.4byte	0x3c44
 12450 40df 00       		.byte	0
 12451 40e0 3C       		.uleb128 0x3c
 12452 40e1 E43E0000 		.4byte	0x3ee4
 12453 40e5 44010000 		.4byte	.LBB500
 12454 40e9 C8000000 		.4byte	.Ldebug_ranges0+0xc8
 12455 40ed 01       		.byte	0x1
 12456 40ee 3F03     		.2byte	0x33f
 12457 40f0 FE400000 		.4byte	0x40fe
 12458 40f4 3B       		.uleb128 0x3b
 12459 40f5 4C010000 		.4byte	.LVL88
 12460 40f9 443C0000 		.4byte	0x3c44
 12461 40fd 00       		.byte	0
 12462 40fe 3C       		.uleb128 0x3c
 12463 40ff 99430000 		.4byte	0x4399
 12464 4103 52010000 		.4byte	.LBB504
 12465 4107 E0000000 		.4byte	.Ldebug_ranges0+0xe0
 12466 410b 01       		.byte	0x1
 12467 410c 4403     		.2byte	0x344
 12468 410e 18410000 		.4byte	0x4118
 12469 4112 4A       		.uleb128 0x4a
 12470 4113 AA430000 		.4byte	0x43aa
 12471 4117 00       		.byte	0
 12472 4118 38       		.uleb128 0x38
 12473 4119 24010000 		.4byte	.LVL82
ARM GAS  /tmp/ccB9eNXv.s 			page 220


 12474 411d E74E0000 		.4byte	0x4ee7
 12475 4121 2D410000 		.4byte	0x412d
 12476 4125 39       		.uleb128 0x39
 12477 4126 01       		.uleb128 0x1
 12478 4127 51       		.byte	0x51
 12479 4128 03       		.uleb128 0x3
 12480 4129 0B       		.byte	0xb
 12481 412a 0083     		.2byte	0x8300
 12482 412c 00       		.byte	0
 12483 412d 3A       		.uleb128 0x3a
 12484 412e 44010000 		.4byte	.LVL86
 12485 4132 E74E0000 		.4byte	0x4ee7
 12486 4136 39       		.uleb128 0x39
 12487 4137 01       		.uleb128 0x1
 12488 4138 51       		.byte	0x51
 12489 4139 03       		.uleb128 0x3
 12490 413a 0B       		.byte	0xb
 12491 413b 0084     		.2byte	0x8400
 12492 413d 00       		.byte	0
 12493 413e 00       		.byte	0
 12494 413f 33       		.uleb128 0x33
 12495 4140 30000000 		.4byte	.Ldebug_ranges0+0x30
 12496 4144 A8420000 		.4byte	0x42a8
 12497 4148 35       		.uleb128 0x35
 12498 4149 40240000 		.4byte	.LASF834
 12499 414d 01       		.byte	0x1
 12500 414e 6503     		.2byte	0x365
 12501 4150 D2000000 		.4byte	0xd2
 12502 4154 ED020000 		.4byte	.LLST4
 12503 4158 33       		.uleb128 0x33
 12504 4159 60000000 		.4byte	.Ldebug_ranges0+0x60
 12505 415d AA410000 		.4byte	0x41aa
 12506 4161 36       		.uleb128 0x36
 12507 4162 444F5300 		.ascii	"DOS\000"
 12508 4166 01       		.byte	0x1
 12509 4167 6903     		.2byte	0x369
 12510 4169 65120000 		.4byte	0x1265
 12511 416d 72030000 		.4byte	.LLST5
 12512 4171 36       		.uleb128 0x36
 12513 4172 4C4F5400 		.ascii	"LOT\000"
 12514 4176 01       		.byte	0x1
 12515 4177 6A03     		.2byte	0x36a
 12516 4179 65120000 		.4byte	0x1265
 12517 417d CC030000 		.4byte	.LLST6
 12518 4181 44       		.uleb128 0x44
 12519 4182 4C4F5300 		.ascii	"LOS\000"
 12520 4186 01       		.byte	0x1
 12521 4187 6B03     		.2byte	0x36b
 12522 4189 65120000 		.4byte	0x1265
 12523 418d 45       		.uleb128 0x45
 12524 418e 29220000 		.4byte	.LASF835
 12525 4192 01       		.byte	0x1
 12526 4193 6C03     		.2byte	0x36c
 12527 4195 65120000 		.4byte	0x1265
 12528 4199 35       		.uleb128 0x35
 12529 419a 76100000 		.4byte	.LASF836
 12530 419e 01       		.byte	0x1
ARM GAS  /tmp/ccB9eNXv.s 			page 221


 12531 419f 6D03     		.2byte	0x36d
 12532 41a1 65120000 		.4byte	0x1265
 12533 41a5 10040000 		.4byte	.LLST7
 12534 41a9 00       		.byte	0
 12535 41aa 49       		.uleb128 0x49
 12536 41ab DB3E0000 		.4byte	0x3edb
 12537 41af 24000000 		.4byte	.LBB455
 12538 41b3 08000000 		.4byte	.LBE455-.LBB455
 12539 41b7 01       		.byte	0x1
 12540 41b8 5C03     		.2byte	0x35c
 12541 41ba FF410000 		.4byte	0x41ff
 12542 41be 3E       		.uleb128 0x3e
 12543 41bf 164D0000 		.4byte	0x4d16
 12544 41c3 24000000 		.4byte	.LBB456
 12545 41c7 02000000 		.4byte	.LBE456-.LBB456
 12546 41cb 01       		.byte	0x1
 12547 41cc F003     		.2byte	0x3f0
 12548 41ce 3E       		.uleb128 0x3e
 12549 41cf 164D0000 		.4byte	0x4d16
 12550 41d3 26000000 		.4byte	.LBB458
 12551 41d7 02000000 		.4byte	.LBE458-.LBB458
 12552 41db 01       		.byte	0x1
 12553 41dc F103     		.2byte	0x3f1
 12554 41de 3E       		.uleb128 0x3e
 12555 41df 164D0000 		.4byte	0x4d16
 12556 41e3 28000000 		.4byte	.LBB460
 12557 41e7 02000000 		.4byte	.LBE460-.LBB460
 12558 41eb 01       		.byte	0x1
 12559 41ec F203     		.2byte	0x3f2
 12560 41ee 3E       		.uleb128 0x3e
 12561 41ef 164D0000 		.4byte	0x4d16
 12562 41f3 2A000000 		.4byte	.LBB462
 12563 41f7 02000000 		.4byte	.LBE462-.LBB462
 12564 41fb 01       		.byte	0x1
 12565 41fc F303     		.2byte	0x3f3
 12566 41fe 00       		.byte	0
 12567 41ff 49       		.uleb128 0x49
 12568 4200 ED3E0000 		.4byte	0x3eed
 12569 4204 2C000000 		.4byte	.LBB464
 12570 4208 0A000000 		.4byte	.LBE464-.LBB464
 12571 420c 01       		.byte	0x1
 12572 420d 5D03     		.2byte	0x35d
 12573 420f 1D420000 		.4byte	0x421d
 12574 4213 3B       		.uleb128 0x3b
 12575 4214 36000000 		.4byte	.LVL67
 12576 4218 443C0000 		.4byte	0x3c44
 12577 421c 00       		.byte	0
 12578 421d 49       		.uleb128 0x49
 12579 421e DB3E0000 		.4byte	0x3edb
 12580 4222 36000000 		.4byte	.LBB466
 12581 4226 08000000 		.4byte	.LBE466-.LBB466
 12582 422a 01       		.byte	0x1
 12583 422b 5E03     		.2byte	0x35e
 12584 422d 72420000 		.4byte	0x4272
 12585 4231 3E       		.uleb128 0x3e
 12586 4232 164D0000 		.4byte	0x4d16
 12587 4236 36000000 		.4byte	.LBB467
ARM GAS  /tmp/ccB9eNXv.s 			page 222


 12588 423a 02000000 		.4byte	.LBE467-.LBB467
 12589 423e 01       		.byte	0x1
 12590 423f F003     		.2byte	0x3f0
 12591 4241 3E       		.uleb128 0x3e
 12592 4242 164D0000 		.4byte	0x4d16
 12593 4246 38000000 		.4byte	.LBB469
 12594 424a 02000000 		.4byte	.LBE469-.LBB469
 12595 424e 01       		.byte	0x1
 12596 424f F103     		.2byte	0x3f1
 12597 4251 3E       		.uleb128 0x3e
 12598 4252 164D0000 		.4byte	0x4d16
 12599 4256 3A000000 		.4byte	.LBB471
 12600 425a 02000000 		.4byte	.LBE471-.LBB471
 12601 425e 01       		.byte	0x1
 12602 425f F203     		.2byte	0x3f2
 12603 4261 3E       		.uleb128 0x3e
 12604 4262 164D0000 		.4byte	0x4d16
 12605 4266 3C000000 		.4byte	.LBB473
 12606 426a 02000000 		.4byte	.LBE473-.LBB473
 12607 426e 01       		.byte	0x1
 12608 426f F303     		.2byte	0x3f3
 12609 4271 00       		.byte	0
 12610 4272 49       		.uleb128 0x49
 12611 4273 E43E0000 		.4byte	0x3ee4
 12612 4277 46000000 		.4byte	.LBB475
 12613 427b 06000000 		.4byte	.LBE475-.LBB475
 12614 427f 01       		.byte	0x1
 12615 4280 6103     		.2byte	0x361
 12616 4282 90420000 		.4byte	0x4290
 12617 4286 3B       		.uleb128 0x3b
 12618 4287 4C000000 		.4byte	.LVL69
 12619 428b 443C0000 		.4byte	0x3c44
 12620 428f 00       		.byte	0
 12621 4290 3A       		.uleb128 0x3a
 12622 4291 46000000 		.4byte	.LVL68
 12623 4295 3D4D0000 		.4byte	0x4d3d
 12624 4299 39       		.uleb128 0x39
 12625 429a 01       		.uleb128 0x1
 12626 429b 50       		.byte	0x50
 12627 429c 02       		.uleb128 0x2
 12628 429d 91       		.byte	0x91
 12629 429e 66       		.sleb128 -26
 12630 429f 4B       		.uleb128 0x4b
 12631 42a0 0F3F0000 		.4byte	0x3f0f
 12632 42a4 01       		.uleb128 0x1
 12633 42a5 30       		.byte	0x30
 12634 42a6 00       		.byte	0
 12635 42a7 00       		.byte	0
 12636 42a8 49       		.uleb128 0x49
 12637 42a9 ED3E0000 		.4byte	0x3eed
 12638 42ad 9A010000 		.4byte	.LBB508
 12639 42b1 0C000000 		.4byte	.LBE508-.LBB508
 12640 42b5 01       		.byte	0x1
 12641 42b6 1603     		.2byte	0x316
 12642 42b8 C6420000 		.4byte	0x42c6
 12643 42bc 3B       		.uleb128 0x3b
 12644 42bd A6010000 		.4byte	.LVL91
ARM GAS  /tmp/ccB9eNXv.s 			page 223


 12645 42c1 443C0000 		.4byte	0x3c44
 12646 42c5 00       		.byte	0
 12647 42c6 49       		.uleb128 0x49
 12648 42c7 E43E0000 		.4byte	0x3ee4
 12649 42cb AE010000 		.4byte	.LBB510
 12650 42cf 06000000 		.4byte	.LBE510-.LBB510
 12651 42d3 01       		.byte	0x1
 12652 42d4 1803     		.2byte	0x318
 12653 42d6 E4420000 		.4byte	0x42e4
 12654 42da 3B       		.uleb128 0x3b
 12655 42db B4010000 		.4byte	.LVL93
 12656 42df 443C0000 		.4byte	0x3c44
 12657 42e3 00       		.byte	0
 12658 42e4 3C       		.uleb128 0x3c
 12659 42e5 7F430000 		.4byte	0x437f
 12660 42e9 C8010000 		.4byte	.LBB512
 12661 42ed F8000000 		.4byte	.Ldebug_ranges0+0xf8
 12662 42f1 01       		.byte	0x1
 12663 42f2 1F03     		.2byte	0x31f
 12664 42f4 02430000 		.4byte	0x4302
 12665 42f8 3D       		.uleb128 0x3d
 12666 42f9 8C430000 		.4byte	0x438c
 12667 42fd 7F040000 		.4byte	.LLST12
 12668 4301 00       		.byte	0
 12669 4302 49       		.uleb128 0x49
 12670 4303 99430000 		.4byte	0x4399
 12671 4307 DC010000 		.4byte	.LBB519
 12672 430b 12000000 		.4byte	.LBE519-.LBB519
 12673 430f 01       		.byte	0x1
 12674 4310 2803     		.2byte	0x328
 12675 4312 20430000 		.4byte	0x4320
 12676 4316 3D       		.uleb128 0x3d
 12677 4317 AA430000 		.4byte	0x43aa
 12678 431b 9F040000 		.4byte	.LLST13
 12679 431f 00       		.byte	0
 12680 4320 3C       		.uleb128 0x3c
 12681 4321 7F430000 		.4byte	0x437f
 12682 4325 3C020000 		.4byte	.LBB521
 12683 4329 20010000 		.4byte	.Ldebug_ranges0+0x120
 12684 432d 01       		.byte	0x1
 12685 432e 2303     		.2byte	0x323
 12686 4330 51430000 		.4byte	0x4351
 12687 4334 3D       		.uleb128 0x3d
 12688 4335 8C430000 		.4byte	0x438c
 12689 4339 BE040000 		.4byte	.LLST14
 12690 433d 4C       		.uleb128 0x4c
 12691 433e 7F430000 		.4byte	0x437f
 12692 4342 20010000 		.4byte	.Ldebug_ranges0+0x120
 12693 4346 3D       		.uleb128 0x3d
 12694 4347 8C430000 		.4byte	0x438c
 12695 434b BE040000 		.4byte	.LLST14
 12696 434f 00       		.byte	0
 12697 4350 00       		.byte	0
 12698 4351 3A       		.uleb128 0x3a
 12699 4352 AE010000 		.4byte	.LVL92
 12700 4356 3D4D0000 		.4byte	0x4d3d
 12701 435a 39       		.uleb128 0x39
ARM GAS  /tmp/ccB9eNXv.s 			page 224


 12702 435b 01       		.uleb128 0x1
 12703 435c 50       		.byte	0x50
 12704 435d 02       		.uleb128 0x2
 12705 435e 91       		.byte	0x91
 12706 435f 66       		.sleb128 -26
 12707 4360 4B       		.uleb128 0x4b
 12708 4361 0F3F0000 		.4byte	0x3f0f
 12709 4365 01       		.uleb128 0x1
 12710 4366 30       		.byte	0x30
 12711 4367 00       		.byte	0
 12712 4368 00       		.byte	0
 12713 4369 46       		.uleb128 0x46
 12714 436a 98030000 		.4byte	.LASF838
 12715 436e 01       		.byte	0x1
 12716 436f EE02     		.2byte	0x2ee
 12717 4371 1D130000 		.4byte	0x131d
 12718 4375 00000000 		.4byte	.LFB288
 12719 4379 20000000 		.4byte	.LFE288-.LFB288
 12720 437d 01       		.uleb128 0x1
 12721 437e 9C       		.byte	0x9c
 12722 437f 41       		.uleb128 0x41
 12723 4380 F3030000 		.4byte	.LASF840
 12724 4384 01       		.byte	0x1
 12725 4385 DD02     		.2byte	0x2dd
 12726 4387 01       		.byte	0x1
 12727 4388 99430000 		.4byte	0x4399
 12728 438c 42       		.uleb128 0x42
 12729 438d E1050000 		.4byte	.LASF841
 12730 4391 01       		.byte	0x1
 12731 4392 DD02     		.2byte	0x2dd
 12732 4394 65120000 		.4byte	0x1265
 12733 4398 00       		.byte	0
 12734 4399 4D       		.uleb128 0x4d
 12735 439a 5C0B0000 		.4byte	.LASF908
 12736 439e 01       		.byte	0x1
 12737 439f 6F02     		.2byte	0x26f
 12738 43a1 65120000 		.4byte	0x1265
 12739 43a5 01       		.byte	0x1
 12740 43a6 B5430000 		.4byte	0x43b5
 12741 43aa 4E       		.uleb128 0x4e
 12742 43ab 7800     		.ascii	"x\000"
 12743 43ad 01       		.byte	0x1
 12744 43ae 6F02     		.2byte	0x26f
 12745 43b0 D2000000 		.4byte	0xd2
 12746 43b4 00       		.byte	0
 12747 43b5 3F       		.uleb128 0x3f
 12748 43b6 32240000 		.4byte	.LASF842
 12749 43ba 01       		.byte	0x1
 12750 43bb 4E02     		.2byte	0x24e
 12751 43bd 00000000 		.4byte	.LFB285
 12752 43c1 74000000 		.4byte	.LFE285-.LFB285
 12753 43c5 01       		.uleb128 0x1
 12754 43c6 9C       		.byte	0x9c
 12755 43c7 48440000 		.4byte	0x4448
 12756 43cb 33       		.uleb128 0x33
 12757 43cc 18000000 		.4byte	.Ldebug_ranges0+0x18
 12758 43d0 07440000 		.4byte	0x4407
ARM GAS  /tmp/ccB9eNXv.s 			page 225


 12759 43d4 36       		.uleb128 0x36
 12760 43d5 636E7400 		.ascii	"cnt\000"
 12761 43d9 01       		.byte	0x1
 12762 43da 5602     		.2byte	0x256
 12763 43dc AD000000 		.4byte	0xad
 12764 43e0 D2040000 		.4byte	.LLST2
 12765 43e4 34       		.uleb128 0x34
 12766 43e5 88040000 		.4byte	.LASF843
 12767 43e9 01       		.byte	0x1
 12768 43ea 5702     		.2byte	0x257
 12769 43ec A6000000 		.4byte	0xa6
 12770 43f0 05       		.uleb128 0x5
 12771 43f1 03       		.byte	0x3
 12772 43f2 00000000 		.4byte	bad_pulses.12442
 12773 43f6 36       		.uleb128 0x36
 12774 43f7 6C696D00 		.ascii	"lim\000"
 12775 43fb 01       		.byte	0x1
 12776 43fc 5802     		.2byte	0x258
 12777 43fe AD000000 		.4byte	0xad
 12778 4402 F0040000 		.4byte	.LLST3
 12779 4406 00       		.byte	0
 12780 4407 3E       		.uleb128 0x3e
 12781 4408 164D0000 		.4byte	0x4d16
 12782 440c 00000000 		.4byte	.LBB386
 12783 4410 02000000 		.4byte	.LBE386-.LBB386
 12784 4414 01       		.byte	0x1
 12785 4415 5102     		.2byte	0x251
 12786 4417 3E       		.uleb128 0x3e
 12787 4418 164D0000 		.4byte	0x4d16
 12788 441c 02000000 		.4byte	.LBB388
 12789 4420 02000000 		.4byte	.LBE388-.LBB388
 12790 4424 01       		.byte	0x1
 12791 4425 5202     		.2byte	0x252
 12792 4427 3E       		.uleb128 0x3e
 12793 4428 164D0000 		.4byte	0x4d16
 12794 442c 04000000 		.4byte	.LBB390
 12795 4430 02000000 		.4byte	.LBE390-.LBB390
 12796 4434 01       		.byte	0x1
 12797 4435 5302     		.2byte	0x253
 12798 4437 3E       		.uleb128 0x3e
 12799 4438 164D0000 		.4byte	0x4d16
 12800 443c 06000000 		.4byte	.LBB392
 12801 4440 02000000 		.4byte	.LBE392-.LBB392
 12802 4444 01       		.byte	0x1
 12803 4445 5402     		.2byte	0x254
 12804 4447 00       		.byte	0
 12805 4448 4F       		.uleb128 0x4f
 12806 4449 7E020000 		.4byte	.LASF845
 12807 444d 01       		.byte	0x1
 12808 444e 3A02     		.2byte	0x23a
 12809 4450 54120000 		.4byte	0x1254
 12810 4454 00000000 		.4byte	.LFB284
 12811 4458 84000000 		.4byte	.LFE284-.LFB284
 12812 445c 01       		.uleb128 0x1
 12813 445d 9C       		.byte	0x9c
 12814 445e C3440000 		.4byte	0x44c3
 12815 4462 37       		.uleb128 0x37
ARM GAS  /tmp/ccB9eNXv.s 			page 226


 12816 4463 0A000000 		.4byte	.LBB377
 12817 4467 50000000 		.4byte	.LBE377-.LBB377
 12818 446b B9440000 		.4byte	0x44b9
 12819 446f 35       		.uleb128 0x35
 12820 4470 33040000 		.4byte	.LASF844
 12821 4474 01       		.byte	0x1
 12822 4475 3D02     		.2byte	0x23d
 12823 4477 54120000 		.4byte	0x1254
 12824 447b 2A050000 		.4byte	.LLST1
 12825 447f 50       		.uleb128 0x50
 12826 4480 A24B0000 		.4byte	0x4ba2
 12827 4484 0A000000 		.4byte	.LBB378
 12828 4488 00000000 		.4byte	.Ldebug_ranges0+0
 12829 448c 01       		.byte	0x1
 12830 448d 3C02     		.2byte	0x23c
 12831 448f 3E       		.uleb128 0x3e
 12832 4490 A24B0000 		.4byte	0x4ba2
 12833 4494 14000000 		.4byte	.LBB382
 12834 4498 08000000 		.4byte	.LBE382-.LBB382
 12835 449c 01       		.byte	0x1
 12836 449d 3D02     		.2byte	0x23d
 12837 449f 3E       		.uleb128 0x3e
 12838 44a0 894B0000 		.4byte	0x4b89
 12839 44a4 34000000 		.4byte	.LBB384
 12840 44a8 0A000000 		.4byte	.LBE384-.LBB384
 12841 44ac 01       		.byte	0x1
 12842 44ad 4002     		.2byte	0x240
 12843 44af 3B       		.uleb128 0x3b
 12844 44b0 42000000 		.4byte	.LVL55
 12845 44b4 C3440000 		.4byte	0x44c3
 12846 44b8 00       		.byte	0
 12847 44b9 51       		.uleb128 0x51
 12848 44ba 6A000000 		.4byte	.LVL58
 12849 44be C3440000 		.4byte	0x44c3
 12850 44c2 00       		.byte	0
 12851 44c3 4F       		.uleb128 0x4f
 12852 44c4 92200000 		.4byte	.LASF846
 12853 44c8 01       		.byte	0x1
 12854 44c9 0302     		.2byte	0x203
 12855 44cb 54120000 		.4byte	0x1254
 12856 44cf 00000000 		.4byte	.LFB283
 12857 44d3 70000000 		.4byte	.LFE283-.LFB283
 12858 44d7 01       		.uleb128 0x1
 12859 44d8 9C       		.byte	0x9c
 12860 44d9 F0440000 		.4byte	0x44f0
 12861 44dd 34       		.uleb128 0x34
 12862 44de 61020000 		.4byte	.LASF847
 12863 44e2 01       		.byte	0x1
 12864 44e3 0402     		.2byte	0x204
 12865 44e5 54120000 		.4byte	0x1254
 12866 44e9 05       		.uleb128 0x5
 12867 44ea 03       		.byte	0x3
 12868 44eb 00000000 		.4byte	angle.12426
 12869 44ef 00       		.byte	0
 12870 44f0 46       		.uleb128 0x46
 12871 44f1 630F0000 		.4byte	.LASF848
 12872 44f5 01       		.byte	0x1
ARM GAS  /tmp/ccB9eNXv.s 			page 227


 12873 44f6 F901     		.2byte	0x1f9
 12874 44f8 65120000 		.4byte	0x1265
 12875 44fc 00000000 		.4byte	.LFB282
 12876 4500 10000000 		.4byte	.LFE282-.LFB282
 12877 4504 01       		.uleb128 0x1
 12878 4505 9C       		.byte	0x9c
 12879 4506 3F       		.uleb128 0x3f
 12880 4507 A5220000 		.4byte	.LASF849
 12881 450b 01       		.byte	0x1
 12882 450c ED01     		.2byte	0x1ed
 12883 450e 00000000 		.4byte	.LFB281
 12884 4512 58000000 		.4byte	.LFE281-.LFB281
 12885 4516 01       		.uleb128 0x1
 12886 4517 9C       		.byte	0x9c
 12887 4518 46450000 		.4byte	0x4546
 12888 451c 3A       		.uleb128 0x3a
 12889 451d 34000000 		.4byte	.LVL51
 12890 4521 F34E0000 		.4byte	0x4ef3
 12891 4525 39       		.uleb128 0x39
 12892 4526 01       		.uleb128 0x1
 12893 4527 50       		.byte	0x50
 12894 4528 05       		.uleb128 0x5
 12895 4529 03       		.byte	0x3
 12896 452a 00000000 		.4byte	.LANCHOR25
 12897 452e 39       		.uleb128 0x39
 12898 452f 01       		.uleb128 0x1
 12899 4530 51       		.byte	0x51
 12900 4531 03       		.uleb128 0x3
 12901 4532 0A       		.byte	0xa
 12902 4533 A003     		.2byte	0x3a0
 12903 4535 39       		.uleb128 0x39
 12904 4536 01       		.uleb128 0x1
 12905 4537 52       		.byte	0x52
 12906 4538 02       		.uleb128 0x2
 12907 4539 08       		.byte	0x8
 12908 453a 36       		.byte	0x36
 12909 453b 39       		.uleb128 0x39
 12910 453c 01       		.uleb128 0x1
 12911 453d 53       		.byte	0x53
 12912 453e 05       		.uleb128 0x5
 12913 453f 03       		.byte	0x3
 12914 4540 00000000 		.4byte	ts5700n8501_thread
 12915 4544 00       		.byte	0
 12916 4545 00       		.byte	0
 12917 4546 3F       		.uleb128 0x3f
 12918 4547 FC2A0000 		.4byte	.LASF850
 12919 454b 01       		.byte	0x1
 12920 454c D501     		.2byte	0x1d5
 12921 454e 00000000 		.4byte	.LFB280
 12922 4552 3C000000 		.4byte	.LFE280-.LFB280
 12923 4556 01       		.uleb128 0x1
 12924 4557 9C       		.byte	0x9c
 12925 4558 A8450000 		.4byte	0x45a8
 12926 455c 52       		.uleb128 0x52
 12927 455d 30160000 		.4byte	.LASF851
 12928 4561 01       		.byte	0x1
 12929 4562 D501     		.2byte	0x1d5
ARM GAS  /tmp/ccB9eNXv.s 			page 228


 12930 4564 54120000 		.4byte	0x1254
 12931 4568 02       		.uleb128 0x2
 12932 4569 90       		.byte	0x90
 12933 456a 40       		.uleb128 0x40
 12934 456b 52       		.uleb128 0x52
 12935 456c 8B1B0000 		.4byte	.LASF852
 12936 4570 01       		.byte	0x1
 12937 4571 D501     		.2byte	0x1d5
 12938 4573 54120000 		.4byte	0x1254
 12939 4577 02       		.uleb128 0x2
 12940 4578 90       		.byte	0x90
 12941 4579 41       		.uleb128 0x41
 12942 457a 52       		.uleb128 0x52
 12943 457b 2D270000 		.4byte	.LASF853
 12944 457f 01       		.byte	0x1
 12945 4580 D601     		.2byte	0x1d6
 12946 4582 54120000 		.4byte	0x1254
 12947 4586 02       		.uleb128 0x2
 12948 4587 90       		.byte	0x90
 12949 4588 42       		.uleb128 0x42
 12950 4589 52       		.uleb128 0x52
 12951 458a B1110000 		.4byte	.LASF854
 12952 458e 01       		.byte	0x1
 12953 458f D601     		.2byte	0x1d6
 12954 4591 54120000 		.4byte	0x1254
 12955 4595 02       		.uleb128 0x2
 12956 4596 90       		.byte	0x90
 12957 4597 43       		.uleb128 0x43
 12958 4598 52       		.uleb128 0x52
 12959 4599 CC230000 		.4byte	.LASF855
 12960 459d 01       		.byte	0x1
 12961 459e D601     		.2byte	0x1d6
 12962 45a0 54120000 		.4byte	0x1254
 12963 45a4 02       		.uleb128 0x2
 12964 45a5 90       		.byte	0x90
 12965 45a6 44       		.uleb128 0x44
 12966 45a7 00       		.byte	0
 12967 45a8 3F       		.uleb128 0x3f
 12968 45a9 C8200000 		.4byte	.LASF856
 12969 45ad 01       		.byte	0x1
 12970 45ae A001     		.2byte	0x1a0
 12971 45b0 00000000 		.4byte	.LFB279
 12972 45b4 B0000000 		.4byte	.LFE279-.LFB279
 12973 45b8 01       		.uleb128 0x1
 12974 45b9 9C       		.byte	0x9c
 12975 45ba AA460000 		.4byte	0x46aa
 12976 45be 34       		.uleb128 0x34
 12977 45bf AD1C0000 		.4byte	.LASF857
 12978 45c3 01       		.byte	0x1
 12979 45c4 A101     		.2byte	0x1a1
 12980 45c6 58140000 		.4byte	0x1458
 12981 45ca 02       		.uleb128 0x2
 12982 45cb 91       		.byte	0x91
 12983 45cc 64       		.sleb128 -28
 12984 45cd 38       		.uleb128 0x38
 12985 45ce 2A000000 		.4byte	.LVL42
 12986 45d2 B94E0000 		.4byte	0x4eb9
ARM GAS  /tmp/ccB9eNXv.s 			page 229


 12987 45d6 ED450000 		.4byte	0x45ed
 12988 45da 39       		.uleb128 0x39
 12989 45db 01       		.uleb128 0x1
 12990 45dc 50       		.byte	0x50
 12991 45dd 02       		.uleb128 0x2
 12992 45de 76       		.byte	0x76
 12993 45df 00       		.sleb128 0
 12994 45e0 39       		.uleb128 0x39
 12995 45e1 01       		.uleb128 0x1
 12996 45e2 51       		.byte	0x51
 12997 45e3 02       		.uleb128 0x2
 12998 45e4 08       		.byte	0x8
 12999 45e5 80       		.byte	0x80
 13000 45e6 39       		.uleb128 0x39
 13001 45e7 01       		.uleb128 0x1
 13002 45e8 52       		.byte	0x52
 13003 45e9 02       		.uleb128 0x2
 13004 45ea 74       		.byte	0x74
 13005 45eb 00       		.sleb128 0
 13006 45ec 00       		.byte	0
 13007 45ed 38       		.uleb128 0x38
 13008 45ee 34000000 		.4byte	.LVL43
 13009 45f2 B94E0000 		.4byte	0x4eb9
 13010 45f6 0C460000 		.4byte	0x460c
 13011 45fa 39       		.uleb128 0x39
 13012 45fb 01       		.uleb128 0x1
 13013 45fc 50       		.byte	0x50
 13014 45fd 02       		.uleb128 0x2
 13015 45fe 76       		.byte	0x76
 13016 45ff 00       		.sleb128 0
 13017 4600 39       		.uleb128 0x39
 13018 4601 01       		.uleb128 0x1
 13019 4602 51       		.byte	0x51
 13020 4603 02       		.uleb128 0x2
 13021 4604 08       		.byte	0x8
 13022 4605 40       		.byte	0x40
 13023 4606 39       		.uleb128 0x39
 13024 4607 01       		.uleb128 0x1
 13025 4608 52       		.byte	0x52
 13026 4609 01       		.uleb128 0x1
 13027 460a 49       		.byte	0x49
 13028 460b 00       		.byte	0
 13029 460c 38       		.uleb128 0x38
 13030 460d 40000000 		.4byte	.LVL44
 13031 4611 B94E0000 		.4byte	0x4eb9
 13032 4615 2C460000 		.4byte	0x462c
 13033 4619 39       		.uleb128 0x39
 13034 461a 01       		.uleb128 0x1
 13035 461b 50       		.byte	0x50
 13036 461c 02       		.uleb128 0x2
 13037 461d 76       		.byte	0x76
 13038 461e 00       		.sleb128 0
 13039 461f 39       		.uleb128 0x39
 13040 4620 01       		.uleb128 0x1
 13041 4621 51       		.byte	0x51
 13042 4622 03       		.uleb128 0x3
 13043 4623 0A       		.byte	0xa
ARM GAS  /tmp/ccB9eNXv.s 			page 230


 13044 4624 0001     		.2byte	0x100
 13045 4626 39       		.uleb128 0x39
 13046 4627 01       		.uleb128 0x1
 13047 4628 52       		.byte	0x52
 13048 4629 01       		.uleb128 0x1
 13049 462a 49       		.byte	0x49
 13050 462b 00       		.byte	0
 13051 462c 38       		.uleb128 0x38
 13052 462d 48000000 		.4byte	.LVL45
 13053 4631 FE4E0000 		.4byte	0x4efe
 13054 4635 44460000 		.4byte	0x4644
 13055 4639 39       		.uleb128 0x39
 13056 463a 01       		.uleb128 0x1
 13057 463b 50       		.byte	0x50
 13058 463c 01       		.uleb128 0x1
 13059 463d 32       		.byte	0x32
 13060 463e 39       		.uleb128 0x39
 13061 463f 01       		.uleb128 0x1
 13062 4640 51       		.byte	0x51
 13063 4641 01       		.uleb128 0x1
 13064 4642 31       		.byte	0x31
 13065 4643 00       		.byte	0
 13066 4644 38       		.uleb128 0x38
 13067 4645 60000000 		.4byte	.LVL46
 13068 4649 0A4F0000 		.4byte	0x4f0a
 13069 464d 5E460000 		.4byte	0x465e
 13070 4651 39       		.uleb128 0x39
 13071 4652 01       		.uleb128 0x1
 13072 4653 50       		.byte	0x50
 13073 4654 02       		.uleb128 0x2
 13074 4655 75       		.byte	0x75
 13075 4656 00       		.sleb128 0
 13076 4657 39       		.uleb128 0x39
 13077 4658 01       		.uleb128 0x1
 13078 4659 51       		.byte	0x51
 13079 465a 02       		.uleb128 0x2
 13080 465b 91       		.byte	0x91
 13081 465c 64       		.sleb128 -28
 13082 465d 00       		.byte	0
 13083 465e 38       		.uleb128 0x38
 13084 465f 6A000000 		.4byte	.LVL47
 13085 4663 164F0000 		.4byte	0x4f16
 13086 4667 7C460000 		.4byte	0x467c
 13087 466b 39       		.uleb128 0x39
 13088 466c 01       		.uleb128 0x1
 13089 466d 50       		.byte	0x50
 13090 466e 02       		.uleb128 0x2
 13091 466f 75       		.byte	0x75
 13092 4670 00       		.sleb128 0
 13093 4671 39       		.uleb128 0x39
 13094 4672 01       		.uleb128 0x1
 13095 4673 51       		.byte	0x51
 13096 4674 01       		.uleb128 0x1
 13097 4675 31       		.byte	0x31
 13098 4676 39       		.uleb128 0x39
 13099 4677 01       		.uleb128 0x1
 13100 4678 52       		.byte	0x52
ARM GAS  /tmp/ccB9eNXv.s 			page 231


 13101 4679 01       		.uleb128 0x1
 13102 467a 31       		.byte	0x31
 13103 467b 00       		.byte	0
 13104 467c 38       		.uleb128 0x38
 13105 467d 72000000 		.4byte	.LVL48
 13106 4681 224F0000 		.4byte	0x4f22
 13107 4685 95460000 		.4byte	0x4695
 13108 4689 39       		.uleb128 0x39
 13109 468a 01       		.uleb128 0x1
 13110 468b 50       		.byte	0x50
 13111 468c 02       		.uleb128 0x2
 13112 468d 75       		.byte	0x75
 13113 468e 00       		.sleb128 0
 13114 468f 39       		.uleb128 0x39
 13115 4690 01       		.uleb128 0x1
 13116 4691 51       		.byte	0x51
 13117 4692 01       		.uleb128 0x1
 13118 4693 31       		.byte	0x31
 13119 4694 00       		.byte	0
 13120 4695 3A       		.uleb128 0x3a
 13121 4696 7A000000 		.4byte	.LVL49
 13122 469a 2E4F0000 		.4byte	0x4f2e
 13123 469e 39       		.uleb128 0x39
 13124 469f 01       		.uleb128 0x1
 13125 46a0 50       		.byte	0x50
 13126 46a1 01       		.uleb128 0x1
 13127 46a2 4D       		.byte	0x4d
 13128 46a3 39       		.uleb128 0x39
 13129 46a4 01       		.uleb128 0x1
 13130 46a5 51       		.byte	0x51
 13131 46a6 01       		.uleb128 0x1
 13132 46a7 36       		.byte	0x36
 13133 46a8 00       		.byte	0
 13134 46a9 00       		.byte	0
 13135 46aa 3F       		.uleb128 0x3f
 13136 46ab C9160000 		.4byte	.LASF858
 13137 46af 01       		.byte	0x1
 13138 46b0 7701     		.2byte	0x177
 13139 46b2 00000000 		.4byte	.LFB278
 13140 46b6 AC000000 		.4byte	.LFE278-.LFB278
 13141 46ba 01       		.uleb128 0x1
 13142 46bb 9C       		.byte	0x9c
 13143 46bc C6470000 		.4byte	0x47c6
 13144 46c0 34       		.uleb128 0x34
 13145 46c1 AD1C0000 		.4byte	.LASF857
 13146 46c5 01       		.byte	0x1
 13147 46c6 7901     		.2byte	0x179
 13148 46c8 58140000 		.4byte	0x1458
 13149 46cc 02       		.uleb128 0x2
 13150 46cd 91       		.byte	0x91
 13151 46ce 64       		.sleb128 -28
 13152 46cf 38       		.uleb128 0x38
 13153 46d0 14000000 		.4byte	.LVL33
 13154 46d4 B94E0000 		.4byte	0x4eb9
 13155 46d8 F0460000 		.4byte	0x46f0
 13156 46dc 39       		.uleb128 0x39
 13157 46dd 01       		.uleb128 0x1
ARM GAS  /tmp/ccB9eNXv.s 			page 232


 13158 46de 50       		.byte	0x50
 13159 46df 02       		.uleb128 0x2
 13160 46e0 75       		.byte	0x75
 13161 46e1 00       		.sleb128 0
 13162 46e2 39       		.uleb128 0x39
 13163 46e3 01       		.uleb128 0x1
 13164 46e4 51       		.byte	0x51
 13165 46e5 02       		.uleb128 0x2
 13166 46e6 08       		.byte	0x8
 13167 46e7 40       		.byte	0x40
 13168 46e8 39       		.uleb128 0x39
 13169 46e9 01       		.uleb128 0x1
 13170 46ea 52       		.byte	0x52
 13171 46eb 03       		.uleb128 0x3
 13172 46ec 0A       		.byte	0xa
 13173 46ed 1A03     		.2byte	0x31a
 13174 46ef 00       		.byte	0
 13175 46f0 38       		.uleb128 0x38
 13176 46f1 20000000 		.4byte	.LVL34
 13177 46f5 B94E0000 		.4byte	0x4eb9
 13178 46f9 11470000 		.4byte	0x4711
 13179 46fd 39       		.uleb128 0x39
 13180 46fe 01       		.uleb128 0x1
 13181 46ff 50       		.byte	0x50
 13182 4700 02       		.uleb128 0x2
 13183 4701 75       		.byte	0x75
 13184 4702 00       		.sleb128 0
 13185 4703 39       		.uleb128 0x39
 13186 4704 01       		.uleb128 0x1
 13187 4705 51       		.byte	0x51
 13188 4706 02       		.uleb128 0x2
 13189 4707 08       		.byte	0x8
 13190 4708 80       		.byte	0x80
 13191 4709 39       		.uleb128 0x39
 13192 470a 01       		.uleb128 0x1
 13193 470b 52       		.byte	0x52
 13194 470c 03       		.uleb128 0x3
 13195 470d 0A       		.byte	0xa
 13196 470e 1A03     		.2byte	0x31a
 13197 4710 00       		.byte	0
 13198 4711 38       		.uleb128 0x38
 13199 4712 2C000000 		.4byte	.LVL35
 13200 4716 B94E0000 		.4byte	0x4eb9
 13201 471a 31470000 		.4byte	0x4731
 13202 471e 39       		.uleb128 0x39
 13203 471f 01       		.uleb128 0x1
 13204 4720 50       		.byte	0x50
 13205 4721 02       		.uleb128 0x2
 13206 4722 75       		.byte	0x75
 13207 4723 00       		.sleb128 0
 13208 4724 39       		.uleb128 0x39
 13209 4725 01       		.uleb128 0x1
 13210 4726 51       		.byte	0x51
 13211 4727 03       		.uleb128 0x3
 13212 4728 0A       		.byte	0xa
 13213 4729 0001     		.2byte	0x100
 13214 472b 39       		.uleb128 0x39
ARM GAS  /tmp/ccB9eNXv.s 			page 233


 13215 472c 01       		.uleb128 0x1
 13216 472d 52       		.byte	0x52
 13217 472e 01       		.uleb128 0x1
 13218 472f 49       		.byte	0x49
 13219 4730 00       		.byte	0
 13220 4731 38       		.uleb128 0x38
 13221 4732 34000000 		.4byte	.LVL36
 13222 4736 394F0000 		.4byte	0x4f39
 13223 473a 48470000 		.4byte	0x4748
 13224 473e 39       		.uleb128 0x39
 13225 473f 01       		.uleb128 0x1
 13226 4740 51       		.byte	0x51
 13227 4741 05       		.uleb128 0x5
 13228 4742 03       		.byte	0x3
 13229 4743 00000000 		.4byte	.LANCHOR24
 13230 4747 00       		.byte	0
 13231 4748 38       		.uleb128 0x38
 13232 4749 3C000000 		.4byte	.LVL37
 13233 474d FE4E0000 		.4byte	0x4efe
 13234 4751 60470000 		.4byte	0x4760
 13235 4755 39       		.uleb128 0x39
 13236 4756 01       		.uleb128 0x1
 13237 4757 50       		.byte	0x50
 13238 4758 01       		.uleb128 0x1
 13239 4759 32       		.byte	0x32
 13240 475a 39       		.uleb128 0x39
 13241 475b 01       		.uleb128 0x1
 13242 475c 51       		.byte	0x51
 13243 475d 01       		.uleb128 0x1
 13244 475e 31       		.byte	0x31
 13245 475f 00       		.byte	0
 13246 4760 38       		.uleb128 0x38
 13247 4761 56000000 		.4byte	.LVL38
 13248 4765 0A4F0000 		.4byte	0x4f0a
 13249 4769 7A470000 		.4byte	0x477a
 13250 476d 39       		.uleb128 0x39
 13251 476e 01       		.uleb128 0x1
 13252 476f 50       		.byte	0x50
 13253 4770 02       		.uleb128 0x2
 13254 4771 74       		.byte	0x74
 13255 4772 00       		.sleb128 0
 13256 4773 39       		.uleb128 0x39
 13257 4774 01       		.uleb128 0x1
 13258 4775 51       		.byte	0x51
 13259 4776 02       		.uleb128 0x2
 13260 4777 91       		.byte	0x91
 13261 4778 64       		.sleb128 -28
 13262 4779 00       		.byte	0
 13263 477a 38       		.uleb128 0x38
 13264 477b 60000000 		.4byte	.LVL39
 13265 477f 164F0000 		.4byte	0x4f16
 13266 4783 98470000 		.4byte	0x4798
 13267 4787 39       		.uleb128 0x39
 13268 4788 01       		.uleb128 0x1
 13269 4789 50       		.byte	0x50
 13270 478a 02       		.uleb128 0x2
 13271 478b 74       		.byte	0x74
ARM GAS  /tmp/ccB9eNXv.s 			page 234


 13272 478c 00       		.sleb128 0
 13273 478d 39       		.uleb128 0x39
 13274 478e 01       		.uleb128 0x1
 13275 478f 51       		.byte	0x51
 13276 4790 01       		.uleb128 0x1
 13277 4791 31       		.byte	0x31
 13278 4792 39       		.uleb128 0x39
 13279 4793 01       		.uleb128 0x1
 13280 4794 52       		.byte	0x52
 13281 4795 01       		.uleb128 0x1
 13282 4796 31       		.byte	0x31
 13283 4797 00       		.byte	0
 13284 4798 38       		.uleb128 0x38
 13285 4799 68000000 		.4byte	.LVL40
 13286 479d 224F0000 		.4byte	0x4f22
 13287 47a1 B1470000 		.4byte	0x47b1
 13288 47a5 39       		.uleb128 0x39
 13289 47a6 01       		.uleb128 0x1
 13290 47a7 50       		.byte	0x50
 13291 47a8 02       		.uleb128 0x2
 13292 47a9 74       		.byte	0x74
 13293 47aa 00       		.sleb128 0
 13294 47ab 39       		.uleb128 0x39
 13295 47ac 01       		.uleb128 0x1
 13296 47ad 51       		.byte	0x51
 13297 47ae 01       		.uleb128 0x1
 13298 47af 31       		.byte	0x31
 13299 47b0 00       		.byte	0
 13300 47b1 3A       		.uleb128 0x3a
 13301 47b2 70000000 		.4byte	.LVL41
 13302 47b6 2E4F0000 		.4byte	0x4f2e
 13303 47ba 39       		.uleb128 0x39
 13304 47bb 01       		.uleb128 0x1
 13305 47bc 50       		.byte	0x50
 13306 47bd 01       		.uleb128 0x1
 13307 47be 4D       		.byte	0x4d
 13308 47bf 39       		.uleb128 0x39
 13309 47c0 01       		.uleb128 0x1
 13310 47c1 51       		.byte	0x51
 13311 47c2 01       		.uleb128 0x1
 13312 47c3 36       		.byte	0x36
 13313 47c4 00       		.byte	0
 13314 47c5 00       		.byte	0
 13315 47c6 3F       		.uleb128 0x3f
 13316 47c7 79200000 		.4byte	.LASF859
 13317 47cb 01       		.byte	0x1
 13318 47cc 5101     		.2byte	0x151
 13319 47ce 00000000 		.4byte	.LFB277
 13320 47d2 90000000 		.4byte	.LFE277-.LFB277
 13321 47d6 01       		.uleb128 0x1
 13322 47d7 9C       		.byte	0x9c
 13323 47d8 C7480000 		.4byte	0x48c7
 13324 47dc 34       		.uleb128 0x34
 13325 47dd AD1C0000 		.4byte	.LASF857
 13326 47e1 01       		.byte	0x1
 13327 47e2 5201     		.2byte	0x152
 13328 47e4 58140000 		.4byte	0x1458
ARM GAS  /tmp/ccB9eNXv.s 			page 235


 13329 47e8 02       		.uleb128 0x2
 13330 47e9 91       		.byte	0x91
 13331 47ea 64       		.sleb128 -28
 13332 47eb 38       		.uleb128 0x38
 13333 47ec 12000000 		.4byte	.LVL25
 13334 47f0 B94E0000 		.4byte	0x4eb9
 13335 47f4 0A480000 		.4byte	0x480a
 13336 47f8 39       		.uleb128 0x39
 13337 47f9 01       		.uleb128 0x1
 13338 47fa 50       		.byte	0x50
 13339 47fb 02       		.uleb128 0x2
 13340 47fc 75       		.byte	0x75
 13341 47fd 00       		.sleb128 0
 13342 47fe 39       		.uleb128 0x39
 13343 47ff 01       		.uleb128 0x1
 13344 4800 51       		.byte	0x51
 13345 4801 02       		.uleb128 0x2
 13346 4802 08       		.byte	0x8
 13347 4803 80       		.byte	0x80
 13348 4804 39       		.uleb128 0x39
 13349 4805 01       		.uleb128 0x1
 13350 4806 52       		.byte	0x52
 13351 4807 01       		.uleb128 0x1
 13352 4808 30       		.byte	0x30
 13353 4809 00       		.byte	0
 13354 480a 38       		.uleb128 0x38
 13355 480b 1C000000 		.4byte	.LVL26
 13356 480f B94E0000 		.4byte	0x4eb9
 13357 4813 29480000 		.4byte	0x4829
 13358 4817 39       		.uleb128 0x39
 13359 4818 01       		.uleb128 0x1
 13360 4819 50       		.byte	0x50
 13361 481a 02       		.uleb128 0x2
 13362 481b 75       		.byte	0x75
 13363 481c 00       		.sleb128 0
 13364 481d 39       		.uleb128 0x39
 13365 481e 01       		.uleb128 0x1
 13366 481f 51       		.byte	0x51
 13367 4820 02       		.uleb128 0x2
 13368 4821 08       		.byte	0x8
 13369 4822 40       		.byte	0x40
 13370 4823 39       		.uleb128 0x39
 13371 4824 01       		.uleb128 0x1
 13372 4825 52       		.byte	0x52
 13373 4826 01       		.uleb128 0x1
 13374 4827 49       		.byte	0x49
 13375 4828 00       		.byte	0
 13376 4829 38       		.uleb128 0x38
 13377 482a 28000000 		.4byte	.LVL27
 13378 482e B94E0000 		.4byte	0x4eb9
 13379 4832 49480000 		.4byte	0x4849
 13380 4836 39       		.uleb128 0x39
 13381 4837 01       		.uleb128 0x1
 13382 4838 50       		.byte	0x50
 13383 4839 02       		.uleb128 0x2
 13384 483a 75       		.byte	0x75
 13385 483b 00       		.sleb128 0
ARM GAS  /tmp/ccB9eNXv.s 			page 236


 13386 483c 39       		.uleb128 0x39
 13387 483d 01       		.uleb128 0x1
 13388 483e 51       		.byte	0x51
 13389 483f 03       		.uleb128 0x3
 13390 4840 0A       		.byte	0xa
 13391 4841 0001     		.2byte	0x100
 13392 4843 39       		.uleb128 0x39
 13393 4844 01       		.uleb128 0x1
 13394 4845 52       		.byte	0x52
 13395 4846 01       		.uleb128 0x1
 13396 4847 49       		.byte	0x49
 13397 4848 00       		.byte	0
 13398 4849 38       		.uleb128 0x38
 13399 484a 30000000 		.4byte	.LVL28
 13400 484e FE4E0000 		.4byte	0x4efe
 13401 4852 61480000 		.4byte	0x4861
 13402 4856 39       		.uleb128 0x39
 13403 4857 01       		.uleb128 0x1
 13404 4858 50       		.byte	0x50
 13405 4859 01       		.uleb128 0x1
 13406 485a 32       		.byte	0x32
 13407 485b 39       		.uleb128 0x39
 13408 485c 01       		.uleb128 0x1
 13409 485d 51       		.byte	0x51
 13410 485e 01       		.uleb128 0x1
 13411 485f 31       		.byte	0x31
 13412 4860 00       		.byte	0
 13413 4861 38       		.uleb128 0x38
 13414 4862 4A000000 		.4byte	.LVL29
 13415 4866 0A4F0000 		.4byte	0x4f0a
 13416 486a 7B480000 		.4byte	0x487b
 13417 486e 39       		.uleb128 0x39
 13418 486f 01       		.uleb128 0x1
 13419 4870 50       		.byte	0x50
 13420 4871 02       		.uleb128 0x2
 13421 4872 74       		.byte	0x74
 13422 4873 00       		.sleb128 0
 13423 4874 39       		.uleb128 0x39
 13424 4875 01       		.uleb128 0x1
 13425 4876 51       		.byte	0x51
 13426 4877 02       		.uleb128 0x2
 13427 4878 91       		.byte	0x91
 13428 4879 64       		.sleb128 -28
 13429 487a 00       		.byte	0
 13430 487b 38       		.uleb128 0x38
 13431 487c 54000000 		.4byte	.LVL30
 13432 4880 164F0000 		.4byte	0x4f16
 13433 4884 99480000 		.4byte	0x4899
 13434 4888 39       		.uleb128 0x39
 13435 4889 01       		.uleb128 0x1
 13436 488a 50       		.byte	0x50
 13437 488b 02       		.uleb128 0x2
 13438 488c 74       		.byte	0x74
 13439 488d 00       		.sleb128 0
 13440 488e 39       		.uleb128 0x39
 13441 488f 01       		.uleb128 0x1
 13442 4890 51       		.byte	0x51
ARM GAS  /tmp/ccB9eNXv.s 			page 237


 13443 4891 01       		.uleb128 0x1
 13444 4892 31       		.byte	0x31
 13445 4893 39       		.uleb128 0x39
 13446 4894 01       		.uleb128 0x1
 13447 4895 52       		.byte	0x52
 13448 4896 01       		.uleb128 0x1
 13449 4897 31       		.byte	0x31
 13450 4898 00       		.byte	0
 13451 4899 38       		.uleb128 0x38
 13452 489a 5C000000 		.4byte	.LVL31
 13453 489e 224F0000 		.4byte	0x4f22
 13454 48a2 B2480000 		.4byte	0x48b2
 13455 48a6 39       		.uleb128 0x39
 13456 48a7 01       		.uleb128 0x1
 13457 48a8 50       		.byte	0x50
 13458 48a9 02       		.uleb128 0x2
 13459 48aa 74       		.byte	0x74
 13460 48ab 00       		.sleb128 0
 13461 48ac 39       		.uleb128 0x39
 13462 48ad 01       		.uleb128 0x1
 13463 48ae 51       		.byte	0x51
 13464 48af 01       		.uleb128 0x1
 13465 48b0 31       		.byte	0x31
 13466 48b1 00       		.byte	0
 13467 48b2 3A       		.uleb128 0x3a
 13468 48b3 64000000 		.4byte	.LVL32
 13469 48b7 2E4F0000 		.4byte	0x4f2e
 13470 48bb 39       		.uleb128 0x39
 13471 48bc 01       		.uleb128 0x1
 13472 48bd 50       		.byte	0x50
 13473 48be 01       		.uleb128 0x1
 13474 48bf 4D       		.byte	0x4d
 13475 48c0 39       		.uleb128 0x39
 13476 48c1 01       		.uleb128 0x1
 13477 48c2 51       		.byte	0x51
 13478 48c3 01       		.uleb128 0x1
 13479 48c4 36       		.byte	0x36
 13480 48c5 00       		.byte	0
 13481 48c6 00       		.byte	0
 13482 48c7 3F       		.uleb128 0x3f
 13483 48c8 12270000 		.4byte	.LASF860
 13484 48cc 01       		.byte	0x1
 13485 48cd 2301     		.2byte	0x123
 13486 48cf 00000000 		.4byte	.LFB276
 13487 48d3 B4000000 		.4byte	.LFE276-.LFB276
 13488 48d7 01       		.uleb128 0x1
 13489 48d8 9C       		.byte	0x9c
 13490 48d9 044A0000 		.4byte	0x4a04
 13491 48dd 47       		.uleb128 0x47
 13492 48de DF240000 		.4byte	.LASF828
 13493 48e2 01       		.byte	0x1
 13494 48e3 2301     		.2byte	0x123
 13495 48e5 F7000000 		.4byte	0xf7
 13496 48e9 5A050000 		.4byte	.LLST0
 13497 48ed 34       		.uleb128 0x34
 13498 48ee 7A2A0000 		.4byte	.LASF861
 13499 48f2 01       		.byte	0x1
ARM GAS  /tmp/ccB9eNXv.s 			page 238


 13500 48f3 2401     		.2byte	0x124
 13501 48f5 08140000 		.4byte	0x1408
 13502 48f9 02       		.uleb128 0x2
 13503 48fa 91       		.byte	0x91
 13504 48fb 68       		.sleb128 -24
 13505 48fc 38       		.uleb128 0x38
 13506 48fd 1C000000 		.4byte	.LVL15
 13507 4901 B94E0000 		.4byte	0x4eb9
 13508 4905 1D490000 		.4byte	0x491d
 13509 4909 39       		.uleb128 0x39
 13510 490a 01       		.uleb128 0x1
 13511 490b 50       		.byte	0x50
 13512 490c 02       		.uleb128 0x2
 13513 490d 74       		.byte	0x74
 13514 490e 00       		.sleb128 0
 13515 490f 39       		.uleb128 0x39
 13516 4910 01       		.uleb128 0x1
 13517 4911 51       		.byte	0x51
 13518 4912 02       		.uleb128 0x2
 13519 4913 08       		.byte	0x8
 13520 4914 40       		.byte	0x40
 13521 4915 39       		.uleb128 0x39
 13522 4916 01       		.uleb128 0x1
 13523 4917 52       		.byte	0x52
 13524 4918 03       		.uleb128 0x3
 13525 4919 0A       		.byte	0xa
 13526 491a 0201     		.2byte	0x102
 13527 491c 00       		.byte	0
 13528 491d 38       		.uleb128 0x38
 13529 491e 28000000 		.4byte	.LVL16
 13530 4922 B94E0000 		.4byte	0x4eb9
 13531 4926 3E490000 		.4byte	0x493e
 13532 492a 39       		.uleb128 0x39
 13533 492b 01       		.uleb128 0x1
 13534 492c 50       		.byte	0x50
 13535 492d 02       		.uleb128 0x2
 13536 492e 74       		.byte	0x74
 13537 492f 00       		.sleb128 0
 13538 4930 39       		.uleb128 0x39
 13539 4931 01       		.uleb128 0x1
 13540 4932 51       		.byte	0x51
 13541 4933 02       		.uleb128 0x2
 13542 4934 08       		.byte	0x8
 13543 4935 80       		.byte	0x80
 13544 4936 39       		.uleb128 0x39
 13545 4937 01       		.uleb128 0x1
 13546 4938 52       		.byte	0x52
 13547 4939 03       		.uleb128 0x3
 13548 493a 0A       		.byte	0xa
 13549 493b 0201     		.2byte	0x102
 13550 493d 00       		.byte	0
 13551 493e 38       		.uleb128 0x38
 13552 493f 34000000 		.4byte	.LVL17
 13553 4943 FE4E0000 		.4byte	0x4efe
 13554 4947 56490000 		.4byte	0x4956
 13555 494b 39       		.uleb128 0x39
 13556 494c 01       		.uleb128 0x1
ARM GAS  /tmp/ccB9eNXv.s 			page 239


 13557 494d 50       		.byte	0x50
 13558 494e 01       		.uleb128 0x1
 13559 494f 32       		.byte	0x32
 13560 4950 39       		.uleb128 0x39
 13561 4951 01       		.uleb128 0x1
 13562 4952 51       		.byte	0x51
 13563 4953 01       		.uleb128 0x1
 13564 4954 31       		.byte	0x31
 13565 4955 00       		.byte	0
 13566 4956 38       		.uleb128 0x38
 13567 4957 3E000000 		.4byte	.LVL18
 13568 495b 454F0000 		.4byte	0x4f45
 13569 495f 70490000 		.4byte	0x4970
 13570 4963 39       		.uleb128 0x39
 13571 4964 01       		.uleb128 0x1
 13572 4965 50       		.byte	0x50
 13573 4966 03       		.uleb128 0x3
 13574 4967 0A       		.byte	0xa
 13575 4968 0040     		.2byte	0x4000
 13576 496a 39       		.uleb128 0x39
 13577 496b 01       		.uleb128 0x1
 13578 496c 51       		.byte	0x51
 13579 496d 01       		.uleb128 0x1
 13580 496e 31       		.byte	0x31
 13581 496f 00       		.byte	0
 13582 4970 38       		.uleb128 0x38
 13583 4971 4A000000 		.4byte	.LVL19
 13584 4975 514F0000 		.4byte	0x4f51
 13585 4979 95490000 		.4byte	0x4995
 13586 497d 39       		.uleb128 0x39
 13587 497e 01       		.uleb128 0x1
 13588 497f 50       		.byte	0x50
 13589 4980 02       		.uleb128 0x2
 13590 4981 74       		.byte	0x74
 13591 4982 00       		.sleb128 0
 13592 4983 39       		.uleb128 0x39
 13593 4984 01       		.uleb128 0x1
 13594 4985 51       		.byte	0x51
 13595 4986 01       		.uleb128 0x1
 13596 4987 33       		.byte	0x33
 13597 4988 39       		.uleb128 0x39
 13598 4989 01       		.uleb128 0x1
 13599 498a 52       		.byte	0x52
 13600 498b 02       		.uleb128 0x2
 13601 498c 75       		.byte	0x75
 13602 498d 00       		.sleb128 0
 13603 498e 39       		.uleb128 0x39
 13604 498f 01       		.uleb128 0x1
 13605 4990 53       		.byte	0x53
 13606 4991 02       		.uleb128 0x2
 13607 4992 75       		.byte	0x75
 13608 4993 00       		.sleb128 0
 13609 4994 00       		.byte	0
 13610 4995 38       		.uleb128 0x38
 13611 4996 54000000 		.4byte	.LVL20
 13612 499a DB4E0000 		.4byte	0x4edb
 13613 499e A9490000 		.4byte	0x49a9
ARM GAS  /tmp/ccB9eNXv.s 			page 240


 13614 49a2 39       		.uleb128 0x39
 13615 49a3 01       		.uleb128 0x1
 13616 49a4 50       		.byte	0x50
 13617 49a5 02       		.uleb128 0x2
 13618 49a6 74       		.byte	0x74
 13619 49a7 00       		.sleb128 0
 13620 49a8 00       		.byte	0
 13621 49a9 38       		.uleb128 0x38
 13622 49aa 70000000 		.4byte	.LVL21
 13623 49ae 224F0000 		.4byte	0x4f22
 13624 49b2 C2490000 		.4byte	0x49c2
 13625 49b6 39       		.uleb128 0x39
 13626 49b7 01       		.uleb128 0x1
 13627 49b8 50       		.byte	0x50
 13628 49b9 02       		.uleb128 0x2
 13629 49ba 74       		.byte	0x74
 13630 49bb 00       		.sleb128 0
 13631 49bc 39       		.uleb128 0x39
 13632 49bd 01       		.uleb128 0x1
 13633 49be 51       		.byte	0x51
 13634 49bf 01       		.uleb128 0x1
 13635 49c0 31       		.byte	0x31
 13636 49c1 00       		.byte	0
 13637 49c2 38       		.uleb128 0x38
 13638 49c3 78000000 		.4byte	.LVL22
 13639 49c7 5D4F0000 		.4byte	0x4f5d
 13640 49cb DA490000 		.4byte	0x49da
 13641 49cf 39       		.uleb128 0x39
 13642 49d0 01       		.uleb128 0x1
 13643 49d1 50       		.byte	0x50
 13644 49d2 01       		.uleb128 0x1
 13645 49d3 32       		.byte	0x32
 13646 49d4 39       		.uleb128 0x39
 13647 49d5 01       		.uleb128 0x1
 13648 49d6 51       		.byte	0x51
 13649 49d7 01       		.uleb128 0x1
 13650 49d8 38       		.byte	0x38
 13651 49d9 00       		.byte	0
 13652 49da 38       		.uleb128 0x38
 13653 49db 94000000 		.4byte	.LVL23
 13654 49df 684F0000 		.4byte	0x4f68
 13655 49e3 EE490000 		.4byte	0x49ee
 13656 49e7 39       		.uleb128 0x39
 13657 49e8 01       		.uleb128 0x1
 13658 49e9 50       		.byte	0x50
 13659 49ea 02       		.uleb128 0x2
 13660 49eb 7D       		.byte	0x7d
 13661 49ec 00       		.sleb128 0
 13662 49ed 00       		.byte	0
 13663 49ee 3A       		.uleb128 0x3a
 13664 49ef 9C000000 		.4byte	.LVL24
 13665 49f3 2E4F0000 		.4byte	0x4f2e
 13666 49f7 39       		.uleb128 0x39
 13667 49f8 01       		.uleb128 0x1
 13668 49f9 50       		.byte	0x50
 13669 49fa 01       		.uleb128 0x1
 13670 49fb 47       		.byte	0x47
ARM GAS  /tmp/ccB9eNXv.s 			page 241


 13671 49fc 39       		.uleb128 0x39
 13672 49fd 01       		.uleb128 0x1
 13673 49fe 51       		.byte	0x51
 13674 49ff 02       		.uleb128 0x2
 13675 4a00 75       		.byte	0x75
 13676 4a01 00       		.sleb128 0
 13677 4a02 00       		.byte	0
 13678 4a03 00       		.byte	0
 13679 4a04 53       		.uleb128 0x53
 13680 4a05 89260000 		.4byte	.LASF862
 13681 4a09 01       		.byte	0x1
 13682 4a0a FD       		.byte	0xfd
 13683 4a0b 00000000 		.4byte	.LFB275
 13684 4a0f E4000000 		.4byte	.LFE275-.LFB275
 13685 4a13 01       		.uleb128 0x1
 13686 4a14 9C       		.byte	0x9c
 13687 4a15 894B0000 		.4byte	0x4b89
 13688 4a19 38       		.uleb128 0x38
 13689 4a1a 08000000 		.4byte	.LVL0
 13690 4a1e 734F0000 		.4byte	0x4f73
 13691 4a22 2C4A0000 		.4byte	0x4a2c
 13692 4a26 39       		.uleb128 0x39
 13693 4a27 01       		.uleb128 0x1
 13694 4a28 50       		.byte	0x50
 13695 4a29 01       		.uleb128 0x1
 13696 4a2a 47       		.byte	0x47
 13697 4a2b 00       		.byte	0
 13698 4a2c 38       		.uleb128 0x38
 13699 4a2d 0E000000 		.4byte	.LVL1
 13700 4a31 734F0000 		.4byte	0x4f73
 13701 4a35 3F4A0000 		.4byte	0x4a3f
 13702 4a39 39       		.uleb128 0x39
 13703 4a3a 01       		.uleb128 0x1
 13704 4a3b 50       		.byte	0x50
 13705 4a3c 01       		.uleb128 0x1
 13706 4a3d 4D       		.byte	0x4d
 13707 4a3e 00       		.byte	0
 13708 4a3f 38       		.uleb128 0x38
 13709 4a40 16000000 		.4byte	.LVL2
 13710 4a44 7E4F0000 		.4byte	0x4f7e
 13711 4a48 564A0000 		.4byte	0x4a56
 13712 4a4c 39       		.uleb128 0x39
 13713 4a4d 01       		.uleb128 0x1
 13714 4a4e 50       		.byte	0x50
 13715 4a4f 05       		.uleb128 0x5
 13716 4a50 0C       		.byte	0xc
 13717 4a51 00040040 		.4byte	0x40000400
 13718 4a55 00       		.byte	0
 13719 4a56 38       		.uleb128 0x38
 13720 4a57 20000000 		.4byte	.LVL3
 13721 4a5b B94E0000 		.4byte	0x4eb9
 13722 4a5f 794A0000 		.4byte	0x4a79
 13723 4a63 39       		.uleb128 0x39
 13724 4a64 01       		.uleb128 0x1
 13725 4a65 50       		.byte	0x50
 13726 4a66 05       		.uleb128 0x5
 13727 4a67 0C       		.byte	0xc
ARM GAS  /tmp/ccB9eNXv.s 			page 242


 13728 4a68 00080240 		.4byte	0x40020800
 13729 4a6c 39       		.uleb128 0x39
 13730 4a6d 01       		.uleb128 0x1
 13731 4a6e 51       		.byte	0x51
 13732 4a6f 02       		.uleb128 0x2
 13733 4a70 08       		.byte	0x8
 13734 4a71 80       		.byte	0x80
 13735 4a72 39       		.uleb128 0x39
 13736 4a73 01       		.uleb128 0x1
 13737 4a74 52       		.byte	0x52
 13738 4a75 02       		.uleb128 0x2
 13739 4a76 08       		.byte	0x8
 13740 4a77 20       		.byte	0x20
 13741 4a78 00       		.byte	0
 13742 4a79 38       		.uleb128 0x38
 13743 4a7a 2A000000 		.4byte	.LVL4
 13744 4a7e B94E0000 		.4byte	0x4eb9
 13745 4a82 9C4A0000 		.4byte	0x4a9c
 13746 4a86 39       		.uleb128 0x39
 13747 4a87 01       		.uleb128 0x1
 13748 4a88 50       		.byte	0x50
 13749 4a89 05       		.uleb128 0x5
 13750 4a8a 0C       		.byte	0xc
 13751 4a8b 00080240 		.4byte	0x40020800
 13752 4a8f 39       		.uleb128 0x39
 13753 4a90 01       		.uleb128 0x1
 13754 4a91 51       		.byte	0x51
 13755 4a92 02       		.uleb128 0x2
 13756 4a93 08       		.byte	0x8
 13757 4a94 40       		.byte	0x40
 13758 4a95 39       		.uleb128 0x39
 13759 4a96 01       		.uleb128 0x1
 13760 4a97 52       		.byte	0x52
 13761 4a98 02       		.uleb128 0x2
 13762 4a99 08       		.byte	0x8
 13763 4a9a 20       		.byte	0x20
 13764 4a9b 00       		.byte	0
 13765 4a9c 38       		.uleb128 0x38
 13766 4a9d 36000000 		.4byte	.LVL5
 13767 4aa1 B94E0000 		.4byte	0x4eb9
 13768 4aa5 C04A0000 		.4byte	0x4ac0
 13769 4aa9 39       		.uleb128 0x39
 13770 4aaa 01       		.uleb128 0x1
 13771 4aab 50       		.byte	0x50
 13772 4aac 05       		.uleb128 0x5
 13773 4aad 0C       		.byte	0xc
 13774 4aae 00080240 		.4byte	0x40020800
 13775 4ab2 39       		.uleb128 0x39
 13776 4ab3 01       		.uleb128 0x1
 13777 4ab4 51       		.byte	0x51
 13778 4ab5 03       		.uleb128 0x3
 13779 4ab6 0A       		.byte	0xa
 13780 4ab7 0001     		.2byte	0x100
 13781 4ab9 39       		.uleb128 0x39
 13782 4aba 01       		.uleb128 0x1
 13783 4abb 52       		.byte	0x52
 13784 4abc 02       		.uleb128 0x2
ARM GAS  /tmp/ccB9eNXv.s 			page 243


 13785 4abd 08       		.byte	0x8
 13786 4abe 20       		.byte	0x20
 13787 4abf 00       		.byte	0
 13788 4ac0 3B       		.uleb128 0x3b
 13789 4ac1 3C000000 		.4byte	.LVL6
 13790 4ac5 8A4F0000 		.4byte	0x4f8a
 13791 4ac9 38       		.uleb128 0x38
 13792 4aca 46000000 		.4byte	.LVL7
 13793 4ace B94E0000 		.4byte	0x4eb9
 13794 4ad2 EC4A0000 		.4byte	0x4aec
 13795 4ad6 39       		.uleb128 0x39
 13796 4ad7 01       		.uleb128 0x1
 13797 4ad8 50       		.byte	0x50
 13798 4ad9 05       		.uleb128 0x5
 13799 4ada 0C       		.byte	0xc
 13800 4adb 00080240 		.4byte	0x40020800
 13801 4adf 39       		.uleb128 0x39
 13802 4ae0 01       		.uleb128 0x1
 13803 4ae1 51       		.byte	0x51
 13804 4ae2 02       		.uleb128 0x2
 13805 4ae3 08       		.byte	0x8
 13806 4ae4 40       		.byte	0x40
 13807 4ae5 39       		.uleb128 0x39
 13808 4ae6 01       		.uleb128 0x1
 13809 4ae7 52       		.byte	0x52
 13810 4ae8 02       		.uleb128 0x2
 13811 4ae9 08       		.byte	0x8
 13812 4aea 20       		.byte	0x20
 13813 4aeb 00       		.byte	0
 13814 4aec 38       		.uleb128 0x38
 13815 4aed 50000000 		.4byte	.LVL8
 13816 4af1 B94E0000 		.4byte	0x4eb9
 13817 4af5 0F4B0000 		.4byte	0x4b0f
 13818 4af9 39       		.uleb128 0x39
 13819 4afa 01       		.uleb128 0x1
 13820 4afb 50       		.byte	0x50
 13821 4afc 05       		.uleb128 0x5
 13822 4afd 0C       		.byte	0xc
 13823 4afe 00080240 		.4byte	0x40020800
 13824 4b02 39       		.uleb128 0x39
 13825 4b03 01       		.uleb128 0x1
 13826 4b04 51       		.byte	0x51
 13827 4b05 02       		.uleb128 0x2
 13828 4b06 08       		.byte	0x8
 13829 4b07 80       		.byte	0x80
 13830 4b08 39       		.uleb128 0x39
 13831 4b09 01       		.uleb128 0x1
 13832 4b0a 52       		.byte	0x52
 13833 4b0b 02       		.uleb128 0x2
 13834 4b0c 08       		.byte	0x8
 13835 4b0d 20       		.byte	0x20
 13836 4b0e 00       		.byte	0
 13837 4b0f 38       		.uleb128 0x38
 13838 4b10 84000000 		.4byte	.LVL9
 13839 4b14 974E0000 		.4byte	0x4e97
 13840 4b18 224B0000 		.4byte	0x4b22
 13841 4b1c 39       		.uleb128 0x39
ARM GAS  /tmp/ccB9eNXv.s 			page 244


 13842 4b1d 01       		.uleb128 0x1
 13843 4b1e 50       		.byte	0x50
 13844 4b1f 01       		.uleb128 0x1
 13845 4b20 3A       		.byte	0x3a
 13846 4b21 00       		.byte	0
 13847 4b22 38       		.uleb128 0x38
 13848 4b23 96000000 		.4byte	.LVL10
 13849 4b27 B94E0000 		.4byte	0x4eb9
 13850 4b2b 464B0000 		.4byte	0x4b46
 13851 4b2f 39       		.uleb128 0x39
 13852 4b30 01       		.uleb128 0x1
 13853 4b31 50       		.byte	0x50
 13854 4b32 05       		.uleb128 0x5
 13855 4b33 0C       		.byte	0xc
 13856 4b34 00040240 		.4byte	0x40020400
 13857 4b38 39       		.uleb128 0x39
 13858 4b39 01       		.uleb128 0x1
 13859 4b3a 51       		.byte	0x51
 13860 4b3b 03       		.uleb128 0x3
 13861 4b3c 0A       		.byte	0xa
 13862 4b3d 0004     		.2byte	0x400
 13863 4b3f 39       		.uleb128 0x39
 13864 4b40 01       		.uleb128 0x1
 13865 4b41 52       		.byte	0x52
 13866 4b42 02       		.uleb128 0x2
 13867 4b43 08       		.byte	0x8
 13868 4b44 20       		.byte	0x20
 13869 4b45 00       		.byte	0
 13870 4b46 38       		.uleb128 0x38
 13871 4b47 A2000000 		.4byte	.LVL11
 13872 4b4b B94E0000 		.4byte	0x4eb9
 13873 4b4f 6A4B0000 		.4byte	0x4b6a
 13874 4b53 39       		.uleb128 0x39
 13875 4b54 01       		.uleb128 0x1
 13876 4b55 50       		.byte	0x50
 13877 4b56 05       		.uleb128 0x5
 13878 4b57 0C       		.byte	0xc
 13879 4b58 00040240 		.4byte	0x40020400
 13880 4b5c 39       		.uleb128 0x39
 13881 4b5d 01       		.uleb128 0x1
 13882 4b5e 51       		.byte	0x51
 13883 4b5f 03       		.uleb128 0x3
 13884 4b60 0A       		.byte	0xa
 13885 4b61 0008     		.2byte	0x800
 13886 4b63 39       		.uleb128 0x39
 13887 4b64 01       		.uleb128 0x1
 13888 4b65 52       		.byte	0x52
 13889 4b66 02       		.uleb128 0x2
 13890 4b67 08       		.byte	0x8
 13891 4b68 20       		.byte	0x20
 13892 4b69 00       		.byte	0
 13893 4b6a 3A       		.uleb128 0x3a
 13894 4b6b AC000000 		.4byte	.LVL12
 13895 4b6f B94E0000 		.4byte	0x4eb9
 13896 4b73 39       		.uleb128 0x39
 13897 4b74 01       		.uleb128 0x1
 13898 4b75 50       		.byte	0x50
ARM GAS  /tmp/ccB9eNXv.s 			page 245


 13899 4b76 05       		.uleb128 0x5
 13900 4b77 0C       		.byte	0xc
 13901 4b78 00000240 		.4byte	0x40020000
 13902 4b7c 39       		.uleb128 0x39
 13903 4b7d 01       		.uleb128 0x1
 13904 4b7e 51       		.byte	0x51
 13905 4b7f 02       		.uleb128 0x2
 13906 4b80 08       		.byte	0x8
 13907 4b81 20       		.byte	0x20
 13908 4b82 39       		.uleb128 0x39
 13909 4b83 01       		.uleb128 0x1
 13910 4b84 52       		.byte	0x52
 13911 4b85 01       		.uleb128 0x1
 13912 4b86 33       		.byte	0x33
 13913 4b87 00       		.byte	0
 13914 4b88 00       		.byte	0
 13915 4b89 54       		.uleb128 0x54
 13916 4b8a 830B0000 		.4byte	.LASF909
 13917 4b8e 01       		.byte	0x1
 13918 4b8f F9       		.byte	0xf9
 13919 4b90 01       		.byte	0x1
 13920 4b91 55       		.uleb128 0x55
 13921 4b92 42260000 		.4byte	.LASF910
 13922 4b96 01       		.byte	0x1
 13923 4b97 F5       		.byte	0xf5
 13924 4b98 00000000 		.4byte	.LFB273
 13925 4b9c 0C000000 		.4byte	.LFE273-.LFB273
 13926 4ba0 01       		.uleb128 0x1
 13927 4ba1 9C       		.byte	0x9c
 13928 4ba2 56       		.uleb128 0x56
 13929 4ba3 E9110000 		.4byte	.LASF911
 13930 4ba7 01       		.byte	0x1
 13931 4ba8 F0       		.byte	0xf0
 13932 4ba9 C7000000 		.4byte	0xc7
 13933 4bad 01       		.byte	0x1
 13934 4bae 57       		.uleb128 0x57
 13935 4baf 0B1A0000 		.4byte	.LASF863
 13936 4bb3 01       		.byte	0x1
 13937 4bb4 EC       		.byte	0xec
 13938 4bb5 C5110000 		.4byte	0x11c5
 13939 4bb9 00000000 		.4byte	.LFB271
 13940 4bbd 08000000 		.4byte	.LFE271-.LFB271
 13941 4bc1 01       		.uleb128 0x1
 13942 4bc2 9C       		.byte	0x9c
 13943 4bc3 57       		.uleb128 0x57
 13944 4bc4 C3270000 		.4byte	.LASF864
 13945 4bc8 01       		.byte	0x1
 13946 4bc9 E8       		.byte	0xe8
 13947 4bca 54120000 		.4byte	0x1254
 13948 4bce 00000000 		.4byte	.LFB270
 13949 4bd2 0C000000 		.4byte	.LFE270-.LFB270
 13950 4bd6 01       		.uleb128 0x1
 13951 4bd7 9C       		.byte	0x9c
 13952 4bd8 57       		.uleb128 0x57
 13953 4bd9 E70F0000 		.4byte	.LASF865
 13954 4bdd 01       		.byte	0x1
 13955 4bde E4       		.byte	0xe4
ARM GAS  /tmp/ccB9eNXv.s 			page 246


 13956 4bdf 54120000 		.4byte	0x1254
 13957 4be3 00000000 		.4byte	.LFB269
 13958 4be7 0C000000 		.4byte	.LFE269-.LFB269
 13959 4beb 01       		.uleb128 0x1
 13960 4bec 9C       		.byte	0x9c
 13961 4bed 57       		.uleb128 0x57
 13962 4bee D01D0000 		.4byte	.LASF866
 13963 4bf2 01       		.byte	0x1
 13964 4bf3 E0       		.byte	0xe0
 13965 4bf4 F7000000 		.4byte	0xf7
 13966 4bf8 00000000 		.4byte	.LFB268
 13967 4bfc 0C000000 		.4byte	.LFE268-.LFB268
 13968 4c00 01       		.uleb128 0x1
 13969 4c01 9C       		.byte	0x9c
 13970 4c02 57       		.uleb128 0x57
 13971 4c03 A2050000 		.4byte	.LASF867
 13972 4c07 01       		.byte	0x1
 13973 4c08 DC       		.byte	0xdc
 13974 4c09 F7000000 		.4byte	0xf7
 13975 4c0d 00000000 		.4byte	.LFB267
 13976 4c11 0C000000 		.4byte	.LFE267-.LFB267
 13977 4c15 01       		.uleb128 0x1
 13978 4c16 9C       		.byte	0x9c
 13979 4c17 57       		.uleb128 0x57
 13980 4c18 7E180000 		.4byte	.LASF868
 13981 4c1c 01       		.byte	0x1
 13982 4c1d D8       		.byte	0xd8
 13983 4c1e F7000000 		.4byte	0xf7
 13984 4c22 00000000 		.4byte	.LFB266
 13985 4c26 0C000000 		.4byte	.LFE266-.LFB266
 13986 4c2a 01       		.uleb128 0x1
 13987 4c2b 9C       		.byte	0x9c
 13988 4c2c 57       		.uleb128 0x57
 13989 4c2d 330C0000 		.4byte	.LASF869
 13990 4c31 01       		.byte	0x1
 13991 4c32 D4       		.byte	0xd4
 13992 4c33 F7000000 		.4byte	0xf7
 13993 4c37 00000000 		.4byte	.LFB265
 13994 4c3b 0C000000 		.4byte	.LFE265-.LFB265
 13995 4c3f 01       		.uleb128 0x1
 13996 4c40 9C       		.byte	0x9c
 13997 4c41 57       		.uleb128 0x57
 13998 4c42 A21B0000 		.4byte	.LASF870
 13999 4c46 01       		.byte	0x1
 14000 4c47 D0       		.byte	0xd0
 14001 4c48 F7000000 		.4byte	0xf7
 14002 4c4c 00000000 		.4byte	.LFB264
 14003 4c50 0C000000 		.4byte	.LFE264-.LFB264
 14004 4c54 01       		.uleb128 0x1
 14005 4c55 9C       		.byte	0x9c
 14006 4c56 57       		.uleb128 0x57
 14007 4c57 25200000 		.4byte	.LASF871
 14008 4c5b 01       		.byte	0x1
 14009 4c5c CC       		.byte	0xcc
 14010 4c5d 54120000 		.4byte	0x1254
 14011 4c61 00000000 		.4byte	.LFB263
 14012 4c65 0C000000 		.4byte	.LFE263-.LFB263
ARM GAS  /tmp/ccB9eNXv.s 			page 247


 14013 4c69 01       		.uleb128 0x1
 14014 4c6a 9C       		.byte	0x9c
 14015 4c6b 57       		.uleb128 0x57
 14016 4c6c 0D130000 		.4byte	.LASF872
 14017 4c70 01       		.byte	0x1
 14018 4c71 C8       		.byte	0xc8
 14019 4c72 54120000 		.4byte	0x1254
 14020 4c76 00000000 		.4byte	.LFB262
 14021 4c7a 0C000000 		.4byte	.LFE262-.LFB262
 14022 4c7e 01       		.uleb128 0x1
 14023 4c7f 9C       		.byte	0x9c
 14024 4c80 57       		.uleb128 0x57
 14025 4c81 F81E0000 		.4byte	.LASF873
 14026 4c85 01       		.byte	0x1
 14027 4c86 C4       		.byte	0xc4
 14028 4c87 54120000 		.4byte	0x1254
 14029 4c8b 00000000 		.4byte	.LFB261
 14030 4c8f 0C000000 		.4byte	.LFE261-.LFB261
 14031 4c93 01       		.uleb128 0x1
 14032 4c94 9C       		.byte	0x9c
 14033 4c95 57       		.uleb128 0x57
 14034 4c96 30190000 		.4byte	.LASF874
 14035 4c9a 01       		.byte	0x1
 14036 4c9b C0       		.byte	0xc0
 14037 4c9c 54120000 		.4byte	0x1254
 14038 4ca0 00000000 		.4byte	.LFB260
 14039 4ca4 0C000000 		.4byte	.LFE260-.LFB260
 14040 4ca8 01       		.uleb128 0x1
 14041 4ca9 9C       		.byte	0x9c
 14042 4caa 57       		.uleb128 0x57
 14043 4cab AC000000 		.4byte	.LASF875
 14044 4caf 01       		.byte	0x1
 14045 4cb0 BC       		.byte	0xbc
 14046 4cb1 F7000000 		.4byte	0xf7
 14047 4cb5 00000000 		.4byte	.LFB259
 14048 4cb9 0C000000 		.4byte	.LFE259-.LFB259
 14049 4cbd 01       		.uleb128 0x1
 14050 4cbe 9C       		.byte	0x9c
 14051 4cbf 57       		.uleb128 0x57
 14052 4cc0 5A250000 		.4byte	.LASF876
 14053 4cc4 01       		.byte	0x1
 14054 4cc5 B8       		.byte	0xb8
 14055 4cc6 54120000 		.4byte	0x1254
 14056 4cca 00000000 		.4byte	.LFB258
 14057 4cce 0C000000 		.4byte	.LFE258-.LFB258
 14058 4cd2 01       		.uleb128 0x1
 14059 4cd3 9C       		.byte	0x9c
 14060 4cd4 57       		.uleb128 0x57
 14061 4cd5 C61E0000 		.4byte	.LASF877
 14062 4cd9 01       		.byte	0x1
 14063 4cda B4       		.byte	0xb4
 14064 4cdb F7000000 		.4byte	0xf7
 14065 4cdf 00000000 		.4byte	.LFB257
 14066 4ce3 0C000000 		.4byte	.LFE257-.LFB257
 14067 4ce7 01       		.uleb128 0x1
 14068 4ce8 9C       		.byte	0x9c
 14069 4ce9 57       		.uleb128 0x57
ARM GAS  /tmp/ccB9eNXv.s 			page 248


 14070 4cea F60E0000 		.4byte	.LASF878
 14071 4cee 01       		.byte	0x1
 14072 4cef B0       		.byte	0xb0
 14073 4cf0 F7000000 		.4byte	0xf7
 14074 4cf4 00000000 		.4byte	.LFB256
 14075 4cf8 0C000000 		.4byte	.LFE256-.LFB256
 14076 4cfc 01       		.uleb128 0x1
 14077 4cfd 9C       		.byte	0x9c
 14078 4cfe 58       		.uleb128 0x58
 14079 4cff C0250000 		.4byte	.LASF879
 14080 4d03 03       		.byte	0x3
 14081 4d04 84       		.byte	0x84
 14082 4d05 03       		.byte	0x3
 14083 4d06 164D0000 		.4byte	0x4d16
 14084 4d0a 59       		.uleb128 0x59
 14085 4d0b 76270000 		.4byte	.LASF880
 14086 4d0f 03       		.byte	0x3
 14087 4d10 84       		.byte	0x84
 14088 4d11 520F0000 		.4byte	0xf52
 14089 4d15 00       		.byte	0
 14090 4d16 40       		.uleb128 0x40
 14091 4d17 F70C0000 		.4byte	.LASF881
 14092 4d1b 02       		.byte	0x2
 14093 4d1c 4501     		.2byte	0x145
 14094 4d1e 03       		.byte	0x3
 14095 4d1f 5A       		.uleb128 0x5a
 14096 4d20 A24B0000 		.4byte	0x4ba2
 14097 4d24 00000000 		.4byte	.LFB272
 14098 4d28 14000000 		.4byte	.LFE272-.LFB272
 14099 4d2c 01       		.uleb128 0x1
 14100 4d2d 9C       		.byte	0x9c
 14101 4d2e 5A       		.uleb128 0x5a
 14102 4d2f 894B0000 		.4byte	0x4b89
 14103 4d33 00000000 		.4byte	.LFB274
 14104 4d37 0C000000 		.4byte	.LFE274-.LFB274
 14105 4d3b 01       		.uleb128 0x1
 14106 4d3c 9C       		.byte	0x9c
 14107 4d3d 5B       		.uleb128 0x5b
 14108 4d3e F63E0000 		.4byte	0x3ef6
 14109 4d42 00000000 		.4byte	.LFB302
 14110 4d46 6C000000 		.4byte	.LFE302-.LFB302
 14111 4d4a 01       		.uleb128 0x1
 14112 4d4b 9C       		.byte	0x9c
 14113 4d4c 974E0000 		.4byte	0x4e97
 14114 4d50 3D       		.uleb128 0x3d
 14115 4d51 033F0000 		.4byte	0x3f03
 14116 4d55 8A050000 		.4byte	.LLST28
 14117 4d59 4A       		.uleb128 0x4a
 14118 4d5a 0F3F0000 		.4byte	0x3f0f
 14119 4d5e 5C       		.uleb128 0x5c
 14120 4d5f 1B3F0000 		.4byte	0x3f1b
 14121 4d63 01       		.byte	0x1
 14122 4d64 4C       		.uleb128 0x4c
 14123 4d65 273F0000 		.4byte	0x3f27
 14124 4d69 88010000 		.4byte	.Ldebug_ranges0+0x188
 14125 4d6d 5D       		.uleb128 0x5d
 14126 4d6e 283F0000 		.4byte	0x3f28
ARM GAS  /tmp/ccB9eNXv.s 			page 249


 14127 4d72 A8050000 		.4byte	.LLST29
 14128 4d76 4C       		.uleb128 0x4c
 14129 4d77 323F0000 		.4byte	0x3f32
 14130 4d7b 88010000 		.4byte	.Ldebug_ranges0+0x188
 14131 4d7f 5D       		.uleb128 0x5d
 14132 4d80 333F0000 		.4byte	0x3f33
 14133 4d84 C8050000 		.4byte	.LLST30
 14134 4d88 4C       		.uleb128 0x4c
 14135 4d89 3F3F0000 		.4byte	0x3f3f
 14136 4d8d A8010000 		.4byte	.Ldebug_ranges0+0x1a8
 14137 4d91 5D       		.uleb128 0x5d
 14138 4d92 403F0000 		.4byte	0x3f40
 14139 4d96 F2050000 		.4byte	.LLST31
 14140 4d9a 4C       		.uleb128 0x4c
 14141 4d9b 4C3F0000 		.4byte	0x3f4c
 14142 4d9f C0010000 		.4byte	.Ldebug_ranges0+0x1c0
 14143 4da3 5D       		.uleb128 0x5d
 14144 4da4 4D3F0000 		.4byte	0x3f4d
 14145 4da8 33060000 		.4byte	.LLST32
 14146 4dac 49       		.uleb128 0x49
 14147 4dad DB3E0000 		.4byte	0x3edb
 14148 4db1 10000000 		.4byte	.LBB731
 14149 4db5 08000000 		.4byte	.LBE731-.LBB731
 14150 4db9 01       		.byte	0x1
 14151 4dba C903     		.2byte	0x3c9
 14152 4dbc 014E0000 		.4byte	0x4e01
 14153 4dc0 3E       		.uleb128 0x3e
 14154 4dc1 164D0000 		.4byte	0x4d16
 14155 4dc5 10000000 		.4byte	.LBB732
 14156 4dc9 02000000 		.4byte	.LBE732-.LBB732
 14157 4dcd 01       		.byte	0x1
 14158 4dce F003     		.2byte	0x3f0
 14159 4dd0 3E       		.uleb128 0x3e
 14160 4dd1 164D0000 		.4byte	0x4d16
 14161 4dd5 12000000 		.4byte	.LBB734
 14162 4dd9 02000000 		.4byte	.LBE734-.LBB734
 14163 4ddd 01       		.byte	0x1
 14164 4dde F103     		.2byte	0x3f1
 14165 4de0 3E       		.uleb128 0x3e
 14166 4de1 164D0000 		.4byte	0x4d16
 14167 4de5 14000000 		.4byte	.LBB736
 14168 4de9 02000000 		.4byte	.LBE736-.LBB736
 14169 4ded 01       		.byte	0x1
 14170 4dee F203     		.2byte	0x3f2
 14171 4df0 3E       		.uleb128 0x3e
 14172 4df1 164D0000 		.4byte	0x4d16
 14173 4df5 16000000 		.4byte	.LBB738
 14174 4df9 02000000 		.4byte	.LBE738-.LBB738
 14175 4dfd 01       		.byte	0x1
 14176 4dfe F303     		.2byte	0x3f3
 14177 4e00 00       		.byte	0
 14178 4e01 3E       		.uleb128 0x3e
 14179 4e02 164D0000 		.4byte	0x4d16
 14180 4e06 1A000000 		.4byte	.LBB740
 14181 4e0a 02000000 		.4byte	.LBE740-.LBB740
 14182 4e0e 01       		.byte	0x1
 14183 4e0f CD03     		.2byte	0x3cd
ARM GAS  /tmp/ccB9eNXv.s 			page 250


 14184 4e11 3E       		.uleb128 0x3e
 14185 4e12 164D0000 		.4byte	0x4d16
 14186 4e16 1E000000 		.4byte	.LBB742
 14187 4e1a 02000000 		.4byte	.LBE742-.LBB742
 14188 4e1e 01       		.byte	0x1
 14189 4e1f CF03     		.2byte	0x3cf
 14190 4e21 3E       		.uleb128 0x3e
 14191 4e22 164D0000 		.4byte	0x4d16
 14192 4e26 22000000 		.4byte	.LBB744
 14193 4e2a 02000000 		.4byte	.LBE744-.LBB744
 14194 4e2e 01       		.byte	0x1
 14195 4e2f D103     		.2byte	0x3d1
 14196 4e31 3E       		.uleb128 0x3e
 14197 4e32 164D0000 		.4byte	0x4d16
 14198 4e36 26000000 		.4byte	.LBB746
 14199 4e3a 02000000 		.4byte	.LBE746-.LBB746
 14200 4e3e 01       		.byte	0x1
 14201 4e3f D303     		.2byte	0x3d3
 14202 4e41 5E       		.uleb128 0x5e
 14203 4e42 DB3E0000 		.4byte	0x3edb
 14204 4e46 54000000 		.4byte	.LBB748
 14205 4e4a 08000000 		.4byte	.LBE748-.LBB748
 14206 4e4e 01       		.byte	0x1
 14207 4e4f DC03     		.2byte	0x3dc
 14208 4e51 3E       		.uleb128 0x3e
 14209 4e52 164D0000 		.4byte	0x4d16
 14210 4e56 54000000 		.4byte	.LBB749
 14211 4e5a 02000000 		.4byte	.LBE749-.LBB749
 14212 4e5e 01       		.byte	0x1
 14213 4e5f F003     		.2byte	0x3f0
 14214 4e61 3E       		.uleb128 0x3e
 14215 4e62 164D0000 		.4byte	0x4d16
 14216 4e66 56000000 		.4byte	.LBB751
 14217 4e6a 02000000 		.4byte	.LBE751-.LBB751
 14218 4e6e 01       		.byte	0x1
 14219 4e6f F103     		.2byte	0x3f1
 14220 4e71 3E       		.uleb128 0x3e
 14221 4e72 164D0000 		.4byte	0x4d16
 14222 4e76 58000000 		.4byte	.LBB753
 14223 4e7a 02000000 		.4byte	.LBE753-.LBB753
 14224 4e7e 01       		.byte	0x1
 14225 4e7f F203     		.2byte	0x3f2
 14226 4e81 3E       		.uleb128 0x3e
 14227 4e82 164D0000 		.4byte	0x4d16
 14228 4e86 5A000000 		.4byte	.LBB755
 14229 4e8a 02000000 		.4byte	.LBE755-.LBB755
 14230 4e8e 01       		.byte	0x1
 14231 4e8f F303     		.2byte	0x3f3
 14232 4e91 00       		.byte	0
 14233 4e92 00       		.byte	0
 14234 4e93 00       		.byte	0
 14235 4e94 00       		.byte	0
 14236 4e95 00       		.byte	0
 14237 4e96 00       		.byte	0
 14238 4e97 5F       		.uleb128 0x5f
 14239 4e98 08250000 		.4byte	.LASF882
 14240 4e9c 08250000 		.4byte	.LASF882
ARM GAS  /tmp/ccB9eNXv.s 			page 251


 14241 4ea0 2F       		.byte	0x2f
 14242 4ea1 96       		.byte	0x96
 14243 4ea2 5F       		.uleb128 0x5f
 14244 4ea3 4A180000 		.4byte	.LASF883
 14245 4ea7 4A180000 		.4byte	.LASF883
 14246 4eab 14       		.byte	0x14
 14247 4eac F2       		.byte	0xf2
 14248 4ead 60       		.uleb128 0x60
 14249 4eae 83150000 		.4byte	.LASF884
 14250 4eb2 83150000 		.4byte	.LASF884
 14251 4eb6 22       		.byte	0x22
 14252 4eb7 1001     		.2byte	0x110
 14253 4eb9 60       		.uleb128 0x60
 14254 4eba F1280000 		.4byte	.LASF885
 14255 4ebe F1280000 		.4byte	.LASF885
 14256 4ec2 1A       		.byte	0x1a
 14257 4ec3 E001     		.2byte	0x1e0
 14258 4ec5 5F       		.uleb128 0x5f
 14259 4ec6 0A1C0000 		.4byte	.LASF886
 14260 4eca 0A1C0000 		.4byte	.LASF886
 14261 4ece 2A       		.byte	0x2a
 14262 4ecf 33       		.byte	0x33
 14263 4ed0 5F       		.uleb128 0x5f
 14264 4ed1 EF290000 		.4byte	.LASF887
 14265 4ed5 EF290000 		.4byte	.LASF887
 14266 4ed9 2A       		.byte	0x2a
 14267 4eda 34       		.byte	0x34
 14268 4edb 60       		.uleb128 0x60
 14269 4edc 70170000 		.4byte	.LASF888
 14270 4ee0 70170000 		.4byte	.LASF888
 14271 4ee4 17       		.byte	0x17
 14272 4ee5 0804     		.2byte	0x408
 14273 4ee7 60       		.uleb128 0x60
 14274 4ee8 EE180000 		.4byte	.LASF889
 14275 4eec EE180000 		.4byte	.LASF889
 14276 4ef0 25       		.byte	0x25
 14277 4ef1 1602     		.2byte	0x216
 14278 4ef3 5F       		.uleb128 0x5f
 14279 4ef4 A00A0000 		.4byte	.LASF890
 14280 4ef8 A00A0000 		.4byte	.LASF890
 14281 4efc 2F       		.byte	0x2f
 14282 4efd 89       		.byte	0x89
 14283 4efe 60       		.uleb128 0x60
 14284 4eff D00F0000 		.4byte	.LASF891
 14285 4f03 D00F0000 		.4byte	.LASF891
 14286 4f07 30       		.byte	0x30
 14287 4f08 5B03     		.2byte	0x35b
 14288 4f0a 60       		.uleb128 0x60
 14289 4f0b 6F1B0000 		.4byte	.LASF892
 14290 4f0f 6F1B0000 		.4byte	.LASF892
 14291 4f13 17       		.byte	0x17
 14292 4f14 0304     		.2byte	0x403
 14293 4f16 60       		.uleb128 0x60
 14294 4f17 5D200000 		.4byte	.LASF893
 14295 4f1b 5D200000 		.4byte	.LASF893
 14296 4f1f 17       		.byte	0x17
 14297 4f20 4C04     		.2byte	0x44c
ARM GAS  /tmp/ccB9eNXv.s 			page 252


 14298 4f22 60       		.uleb128 0x60
 14299 4f23 03110000 		.4byte	.LASF894
 14300 4f27 03110000 		.4byte	.LASF894
 14301 4f2b 17       		.byte	0x17
 14302 4f2c 1004     		.2byte	0x410
 14303 4f2e 5F       		.uleb128 0x5f
 14304 4f2f A5270000 		.4byte	.LASF895
 14305 4f33 A5270000 		.4byte	.LASF895
 14306 4f37 31       		.byte	0x31
 14307 4f38 4E       		.byte	0x4e
 14308 4f39 60       		.uleb128 0x60
 14309 4f3a B0060000 		.4byte	.LASF896
 14310 4f3e B0060000 		.4byte	.LASF896
 14311 4f42 24       		.byte	0x24
 14312 4f43 0801     		.2byte	0x108
 14313 4f45 60       		.uleb128 0x60
 14314 4f46 0E190000 		.4byte	.LASF897
 14315 4f4a 0E190000 		.4byte	.LASF897
 14316 4f4e 30       		.byte	0x30
 14317 4f4f 5C03     		.2byte	0x35c
 14318 4f51 60       		.uleb128 0x60
 14319 4f52 B7290000 		.4byte	.LASF898
 14320 4f56 B7290000 		.4byte	.LASF898
 14321 4f5a 17       		.byte	0x17
 14322 4f5b 6904     		.2byte	0x469
 14323 4f5d 5F       		.uleb128 0x5f
 14324 4f5e C1010000 		.4byte	.LASF899
 14325 4f62 C1010000 		.4byte	.LASF899
 14326 4f66 32       		.byte	0x32
 14327 4f67 D2       		.byte	0xd2
 14328 4f68 5F       		.uleb128 0x5f
 14329 4f69 5C1A0000 		.4byte	.LASF900
 14330 4f6d 5C1A0000 		.4byte	.LASF900
 14331 4f71 16       		.byte	0x16
 14332 4f72 A1       		.byte	0xa1
 14333 4f73 5F       		.uleb128 0x5f
 14334 4f74 8A050000 		.4byte	.LASF901
 14335 4f78 8A050000 		.4byte	.LASF901
 14336 4f7c 31       		.byte	0x31
 14337 4f7d 4F       		.byte	0x4f
 14338 4f7e 60       		.uleb128 0x60
 14339 4f7f C50F0000 		.4byte	.LASF902
 14340 4f83 C50F0000 		.4byte	.LASF902
 14341 4f87 17       		.byte	0x17
 14342 4f88 0204     		.2byte	0x402
 14343 4f8a 60       		.uleb128 0x60
 14344 4f8b A7250000 		.4byte	.LASF903
 14345 4f8f A7250000 		.4byte	.LASF903
 14346 4f93 24       		.byte	0x24
 14347 4f94 0901     		.2byte	0x109
 14348 4f96 00       		.byte	0
 14349              		.section	.debug_abbrev,"",%progbits
 14350              	.Ldebug_abbrev0:
 14351 0000 01       		.uleb128 0x1
 14352 0001 11       		.uleb128 0x11
 14353 0002 01       		.byte	0x1
 14354 0003 25       		.uleb128 0x25
ARM GAS  /tmp/ccB9eNXv.s 			page 253


 14355 0004 0E       		.uleb128 0xe
 14356 0005 13       		.uleb128 0x13
 14357 0006 0B       		.uleb128 0xb
 14358 0007 03       		.uleb128 0x3
 14359 0008 0E       		.uleb128 0xe
 14360 0009 1B       		.uleb128 0x1b
 14361 000a 0E       		.uleb128 0xe
 14362 000b 55       		.uleb128 0x55
 14363 000c 17       		.uleb128 0x17
 14364 000d 11       		.uleb128 0x11
 14365 000e 01       		.uleb128 0x1
 14366 000f 10       		.uleb128 0x10
 14367 0010 17       		.uleb128 0x17
 14368 0011 00       		.byte	0
 14369 0012 00       		.byte	0
 14370 0013 02       		.uleb128 0x2
 14371 0014 24       		.uleb128 0x24
 14372 0015 00       		.byte	0
 14373 0016 0B       		.uleb128 0xb
 14374 0017 0B       		.uleb128 0xb
 14375 0018 3E       		.uleb128 0x3e
 14376 0019 0B       		.uleb128 0xb
 14377 001a 03       		.uleb128 0x3
 14378 001b 0E       		.uleb128 0xe
 14379 001c 00       		.byte	0
 14380 001d 00       		.byte	0
 14381 001e 03       		.uleb128 0x3
 14382 001f 16       		.uleb128 0x16
 14383 0020 00       		.byte	0
 14384 0021 03       		.uleb128 0x3
 14385 0022 0E       		.uleb128 0xe
 14386 0023 3A       		.uleb128 0x3a
 14387 0024 0B       		.uleb128 0xb
 14388 0025 3B       		.uleb128 0x3b
 14389 0026 0B       		.uleb128 0xb
 14390 0027 49       		.uleb128 0x49
 14391 0028 13       		.uleb128 0x13
 14392 0029 00       		.byte	0
 14393 002a 00       		.byte	0
 14394 002b 04       		.uleb128 0x4
 14395 002c 24       		.uleb128 0x24
 14396 002d 00       		.byte	0
 14397 002e 0B       		.uleb128 0xb
 14398 002f 0B       		.uleb128 0xb
 14399 0030 3E       		.uleb128 0x3e
 14400 0031 0B       		.uleb128 0xb
 14401 0032 03       		.uleb128 0x3
 14402 0033 08       		.uleb128 0x8
 14403 0034 00       		.byte	0
 14404 0035 00       		.byte	0
 14405 0036 05       		.uleb128 0x5
 14406 0037 26       		.uleb128 0x26
 14407 0038 00       		.byte	0
 14408 0039 49       		.uleb128 0x49
 14409 003a 13       		.uleb128 0x13
 14410 003b 00       		.byte	0
 14411 003c 00       		.byte	0
ARM GAS  /tmp/ccB9eNXv.s 			page 254


 14412 003d 06       		.uleb128 0x6
 14413 003e 35       		.uleb128 0x35
 14414 003f 00       		.byte	0
 14415 0040 49       		.uleb128 0x49
 14416 0041 13       		.uleb128 0x13
 14417 0042 00       		.byte	0
 14418 0043 00       		.byte	0
 14419 0044 07       		.uleb128 0x7
 14420 0045 13       		.uleb128 0x13
 14421 0046 01       		.byte	0x1
 14422 0047 03       		.uleb128 0x3
 14423 0048 0E       		.uleb128 0xe
 14424 0049 0B       		.uleb128 0xb
 14425 004a 0B       		.uleb128 0xb
 14426 004b 3A       		.uleb128 0x3a
 14427 004c 0B       		.uleb128 0xb
 14428 004d 3B       		.uleb128 0x3b
 14429 004e 0B       		.uleb128 0xb
 14430 004f 01       		.uleb128 0x1
 14431 0050 13       		.uleb128 0x13
 14432 0051 00       		.byte	0
 14433 0052 00       		.byte	0
 14434 0053 08       		.uleb128 0x8
 14435 0054 0D       		.uleb128 0xd
 14436 0055 00       		.byte	0
 14437 0056 03       		.uleb128 0x3
 14438 0057 0E       		.uleb128 0xe
 14439 0058 3A       		.uleb128 0x3a
 14440 0059 0B       		.uleb128 0xb
 14441 005a 3B       		.uleb128 0x3b
 14442 005b 0B       		.uleb128 0xb
 14443 005c 49       		.uleb128 0x49
 14444 005d 13       		.uleb128 0x13
 14445 005e 38       		.uleb128 0x38
 14446 005f 0B       		.uleb128 0xb
 14447 0060 00       		.byte	0
 14448 0061 00       		.byte	0
 14449 0062 09       		.uleb128 0x9
 14450 0063 0D       		.uleb128 0xd
 14451 0064 00       		.byte	0
 14452 0065 03       		.uleb128 0x3
 14453 0066 08       		.uleb128 0x8
 14454 0067 3A       		.uleb128 0x3a
 14455 0068 0B       		.uleb128 0xb
 14456 0069 3B       		.uleb128 0x3b
 14457 006a 05       		.uleb128 0x5
 14458 006b 49       		.uleb128 0x49
 14459 006c 13       		.uleb128 0x13
 14460 006d 38       		.uleb128 0x38
 14461 006e 0B       		.uleb128 0xb
 14462 006f 00       		.byte	0
 14463 0070 00       		.byte	0
 14464 0071 0A       		.uleb128 0xa
 14465 0072 0D       		.uleb128 0xd
 14466 0073 00       		.byte	0
 14467 0074 03       		.uleb128 0x3
 14468 0075 0E       		.uleb128 0xe
ARM GAS  /tmp/ccB9eNXv.s 			page 255


 14469 0076 3A       		.uleb128 0x3a
 14470 0077 0B       		.uleb128 0xb
 14471 0078 3B       		.uleb128 0x3b
 14472 0079 05       		.uleb128 0x5
 14473 007a 49       		.uleb128 0x49
 14474 007b 13       		.uleb128 0x13
 14475 007c 38       		.uleb128 0x38
 14476 007d 0B       		.uleb128 0xb
 14477 007e 00       		.byte	0
 14478 007f 00       		.byte	0
 14479 0080 0B       		.uleb128 0xb
 14480 0081 0F       		.uleb128 0xf
 14481 0082 00       		.byte	0
 14482 0083 0B       		.uleb128 0xb
 14483 0084 0B       		.uleb128 0xb
 14484 0085 49       		.uleb128 0x49
 14485 0086 13       		.uleb128 0x13
 14486 0087 00       		.byte	0
 14487 0088 00       		.byte	0
 14488 0089 0C       		.uleb128 0xc
 14489 008a 13       		.uleb128 0x13
 14490 008b 01       		.byte	0x1
 14491 008c 03       		.uleb128 0x3
 14492 008d 0E       		.uleb128 0xe
 14493 008e 0B       		.uleb128 0xb
 14494 008f 0B       		.uleb128 0xb
 14495 0090 3A       		.uleb128 0x3a
 14496 0091 0B       		.uleb128 0xb
 14497 0092 3B       		.uleb128 0x3b
 14498 0093 05       		.uleb128 0x5
 14499 0094 01       		.uleb128 0x1
 14500 0095 13       		.uleb128 0x13
 14501 0096 00       		.byte	0
 14502 0097 00       		.byte	0
 14503 0098 0D       		.uleb128 0xd
 14504 0099 15       		.uleb128 0x15
 14505 009a 01       		.byte	0x1
 14506 009b 27       		.uleb128 0x27
 14507 009c 19       		.uleb128 0x19
 14508 009d 01       		.uleb128 0x1
 14509 009e 13       		.uleb128 0x13
 14510 009f 00       		.byte	0
 14511 00a0 00       		.byte	0
 14512 00a1 0E       		.uleb128 0xe
 14513 00a2 05       		.uleb128 0x5
 14514 00a3 00       		.byte	0
 14515 00a4 49       		.uleb128 0x49
 14516 00a5 13       		.uleb128 0x13
 14517 00a6 00       		.byte	0
 14518 00a7 00       		.byte	0
 14519 00a8 0F       		.uleb128 0xf
 14520 00a9 0F       		.uleb128 0xf
 14521 00aa 00       		.byte	0
 14522 00ab 0B       		.uleb128 0xb
 14523 00ac 0B       		.uleb128 0xb
 14524 00ad 00       		.byte	0
 14525 00ae 00       		.byte	0
ARM GAS  /tmp/ccB9eNXv.s 			page 256


 14526 00af 10       		.uleb128 0x10
 14527 00b0 13       		.uleb128 0x13
 14528 00b1 01       		.byte	0x1
 14529 00b2 03       		.uleb128 0x3
 14530 00b3 0E       		.uleb128 0xe
 14531 00b4 0B       		.uleb128 0xb
 14532 00b5 05       		.uleb128 0x5
 14533 00b6 3A       		.uleb128 0x3a
 14534 00b7 0B       		.uleb128 0xb
 14535 00b8 3B       		.uleb128 0x3b
 14536 00b9 05       		.uleb128 0x5
 14537 00ba 01       		.uleb128 0x1
 14538 00bb 13       		.uleb128 0x13
 14539 00bc 00       		.byte	0
 14540 00bd 00       		.byte	0
 14541 00be 11       		.uleb128 0x11
 14542 00bf 04       		.uleb128 0x4
 14543 00c0 01       		.byte	0x1
 14544 00c1 3E       		.uleb128 0x3e
 14545 00c2 0B       		.uleb128 0xb
 14546 00c3 0B       		.uleb128 0xb
 14547 00c4 0B       		.uleb128 0xb
 14548 00c5 49       		.uleb128 0x49
 14549 00c6 13       		.uleb128 0x13
 14550 00c7 3A       		.uleb128 0x3a
 14551 00c8 0B       		.uleb128 0xb
 14552 00c9 3B       		.uleb128 0x3b
 14553 00ca 0B       		.uleb128 0xb
 14554 00cb 01       		.uleb128 0x1
 14555 00cc 13       		.uleb128 0x13
 14556 00cd 00       		.byte	0
 14557 00ce 00       		.byte	0
 14558 00cf 12       		.uleb128 0x12
 14559 00d0 28       		.uleb128 0x28
 14560 00d1 00       		.byte	0
 14561 00d2 03       		.uleb128 0x3
 14562 00d3 0E       		.uleb128 0xe
 14563 00d4 1C       		.uleb128 0x1c
 14564 00d5 0D       		.uleb128 0xd
 14565 00d6 00       		.byte	0
 14566 00d7 00       		.byte	0
 14567 00d8 13       		.uleb128 0x13
 14568 00d9 28       		.uleb128 0x28
 14569 00da 00       		.byte	0
 14570 00db 03       		.uleb128 0x3
 14571 00dc 0E       		.uleb128 0xe
 14572 00dd 1C       		.uleb128 0x1c
 14573 00de 0B       		.uleb128 0xb
 14574 00df 00       		.byte	0
 14575 00e0 00       		.byte	0
 14576 00e1 14       		.uleb128 0x14
 14577 00e2 01       		.uleb128 0x1
 14578 00e3 01       		.byte	0x1
 14579 00e4 49       		.uleb128 0x49
 14580 00e5 13       		.uleb128 0x13
 14581 00e6 01       		.uleb128 0x1
 14582 00e7 13       		.uleb128 0x13
ARM GAS  /tmp/ccB9eNXv.s 			page 257


 14583 00e8 00       		.byte	0
 14584 00e9 00       		.byte	0
 14585 00ea 15       		.uleb128 0x15
 14586 00eb 21       		.uleb128 0x21
 14587 00ec 00       		.byte	0
 14588 00ed 49       		.uleb128 0x49
 14589 00ee 13       		.uleb128 0x13
 14590 00ef 2F       		.uleb128 0x2f
 14591 00f0 0B       		.uleb128 0xb
 14592 00f1 00       		.byte	0
 14593 00f2 00       		.byte	0
 14594 00f3 16       		.uleb128 0x16
 14595 00f4 34       		.uleb128 0x34
 14596 00f5 00       		.byte	0
 14597 00f6 03       		.uleb128 0x3
 14598 00f7 0E       		.uleb128 0xe
 14599 00f8 3A       		.uleb128 0x3a
 14600 00f9 0B       		.uleb128 0xb
 14601 00fa 3B       		.uleb128 0x3b
 14602 00fb 05       		.uleb128 0x5
 14603 00fc 49       		.uleb128 0x49
 14604 00fd 13       		.uleb128 0x13
 14605 00fe 3F       		.uleb128 0x3f
 14606 00ff 19       		.uleb128 0x19
 14607 0100 3C       		.uleb128 0x3c
 14608 0101 19       		.uleb128 0x19
 14609 0102 00       		.byte	0
 14610 0103 00       		.byte	0
 14611 0104 17       		.uleb128 0x17
 14612 0105 34       		.uleb128 0x34
 14613 0106 00       		.byte	0
 14614 0107 03       		.uleb128 0x3
 14615 0108 0E       		.uleb128 0xe
 14616 0109 3A       		.uleb128 0x3a
 14617 010a 0B       		.uleb128 0xb
 14618 010b 3B       		.uleb128 0x3b
 14619 010c 0B       		.uleb128 0xb
 14620 010d 49       		.uleb128 0x49
 14621 010e 13       		.uleb128 0x13
 14622 010f 3F       		.uleb128 0x3f
 14623 0110 19       		.uleb128 0x19
 14624 0111 3C       		.uleb128 0x3c
 14625 0112 19       		.uleb128 0x19
 14626 0113 00       		.byte	0
 14627 0114 00       		.byte	0
 14628 0115 18       		.uleb128 0x18
 14629 0116 13       		.uleb128 0x13
 14630 0117 01       		.byte	0x1
 14631 0118 0B       		.uleb128 0xb
 14632 0119 0B       		.uleb128 0xb
 14633 011a 3A       		.uleb128 0x3a
 14634 011b 0B       		.uleb128 0xb
 14635 011c 3B       		.uleb128 0x3b
 14636 011d 0B       		.uleb128 0xb
 14637 011e 01       		.uleb128 0x1
 14638 011f 13       		.uleb128 0x13
 14639 0120 00       		.byte	0
ARM GAS  /tmp/ccB9eNXv.s 			page 258


 14640 0121 00       		.byte	0
 14641 0122 19       		.uleb128 0x19
 14642 0123 0D       		.uleb128 0xd
 14643 0124 00       		.byte	0
 14644 0125 03       		.uleb128 0x3
 14645 0126 08       		.uleb128 0x8
 14646 0127 3A       		.uleb128 0x3a
 14647 0128 0B       		.uleb128 0xb
 14648 0129 3B       		.uleb128 0x3b
 14649 012a 0B       		.uleb128 0xb
 14650 012b 49       		.uleb128 0x49
 14651 012c 13       		.uleb128 0x13
 14652 012d 38       		.uleb128 0x38
 14653 012e 0B       		.uleb128 0xb
 14654 012f 00       		.byte	0
 14655 0130 00       		.byte	0
 14656 0131 1A       		.uleb128 0x1a
 14657 0132 13       		.uleb128 0x13
 14658 0133 01       		.byte	0x1
 14659 0134 0B       		.uleb128 0xb
 14660 0135 0B       		.uleb128 0xb
 14661 0136 3A       		.uleb128 0x3a
 14662 0137 0B       		.uleb128 0xb
 14663 0138 3B       		.uleb128 0x3b
 14664 0139 05       		.uleb128 0x5
 14665 013a 01       		.uleb128 0x1
 14666 013b 13       		.uleb128 0x13
 14667 013c 00       		.byte	0
 14668 013d 00       		.byte	0
 14669 013e 1B       		.uleb128 0x1b
 14670 013f 16       		.uleb128 0x16
 14671 0140 00       		.byte	0
 14672 0141 03       		.uleb128 0x3
 14673 0142 0E       		.uleb128 0xe
 14674 0143 3A       		.uleb128 0x3a
 14675 0144 0B       		.uleb128 0xb
 14676 0145 3B       		.uleb128 0x3b
 14677 0146 05       		.uleb128 0x5
 14678 0147 49       		.uleb128 0x49
 14679 0148 13       		.uleb128 0x13
 14680 0149 00       		.byte	0
 14681 014a 00       		.byte	0
 14682 014b 1C       		.uleb128 0x1c
 14683 014c 13       		.uleb128 0x13
 14684 014d 01       		.byte	0x1
 14685 014e 0B       		.uleb128 0xb
 14686 014f 05       		.uleb128 0x5
 14687 0150 3A       		.uleb128 0x3a
 14688 0151 0B       		.uleb128 0xb
 14689 0152 3B       		.uleb128 0x3b
 14690 0153 05       		.uleb128 0x5
 14691 0154 01       		.uleb128 0x1
 14692 0155 13       		.uleb128 0x13
 14693 0156 00       		.byte	0
 14694 0157 00       		.byte	0
 14695 0158 1D       		.uleb128 0x1d
 14696 0159 0D       		.uleb128 0xd
ARM GAS  /tmp/ccB9eNXv.s 			page 259


 14697 015a 00       		.byte	0
 14698 015b 03       		.uleb128 0x3
 14699 015c 0E       		.uleb128 0xe
 14700 015d 3A       		.uleb128 0x3a
 14701 015e 0B       		.uleb128 0xb
 14702 015f 3B       		.uleb128 0x3b
 14703 0160 05       		.uleb128 0x5
 14704 0161 49       		.uleb128 0x49
 14705 0162 13       		.uleb128 0x13
 14706 0163 38       		.uleb128 0x38
 14707 0164 05       		.uleb128 0x5
 14708 0165 00       		.byte	0
 14709 0166 00       		.byte	0
 14710 0167 1E       		.uleb128 0x1e
 14711 0168 0D       		.uleb128 0xd
 14712 0169 00       		.byte	0
 14713 016a 03       		.uleb128 0x3
 14714 016b 08       		.uleb128 0x8
 14715 016c 3A       		.uleb128 0x3a
 14716 016d 0B       		.uleb128 0xb
 14717 016e 3B       		.uleb128 0x3b
 14718 016f 05       		.uleb128 0x5
 14719 0170 49       		.uleb128 0x49
 14720 0171 13       		.uleb128 0x13
 14721 0172 38       		.uleb128 0x38
 14722 0173 05       		.uleb128 0x5
 14723 0174 00       		.byte	0
 14724 0175 00       		.byte	0
 14725 0176 1F       		.uleb128 0x1f
 14726 0177 17       		.uleb128 0x17
 14727 0178 01       		.byte	0x1
 14728 0179 0B       		.uleb128 0xb
 14729 017a 0B       		.uleb128 0xb
 14730 017b 3A       		.uleb128 0x3a
 14731 017c 0B       		.uleb128 0xb
 14732 017d 3B       		.uleb128 0x3b
 14733 017e 0B       		.uleb128 0xb
 14734 017f 01       		.uleb128 0x1
 14735 0180 13       		.uleb128 0x13
 14736 0181 00       		.byte	0
 14737 0182 00       		.byte	0
 14738 0183 20       		.uleb128 0x20
 14739 0184 0D       		.uleb128 0xd
 14740 0185 00       		.byte	0
 14741 0186 03       		.uleb128 0x3
 14742 0187 0E       		.uleb128 0xe
 14743 0188 3A       		.uleb128 0x3a
 14744 0189 0B       		.uleb128 0xb
 14745 018a 3B       		.uleb128 0x3b
 14746 018b 05       		.uleb128 0x5
 14747 018c 49       		.uleb128 0x49
 14748 018d 13       		.uleb128 0x13
 14749 018e 00       		.byte	0
 14750 018f 00       		.byte	0
 14751 0190 21       		.uleb128 0x21
 14752 0191 34       		.uleb128 0x34
 14753 0192 00       		.byte	0
ARM GAS  /tmp/ccB9eNXv.s 			page 260


 14754 0193 03       		.uleb128 0x3
 14755 0194 08       		.uleb128 0x8
 14756 0195 3A       		.uleb128 0x3a
 14757 0196 0B       		.uleb128 0xb
 14758 0197 3B       		.uleb128 0x3b
 14759 0198 05       		.uleb128 0x5
 14760 0199 49       		.uleb128 0x49
 14761 019a 13       		.uleb128 0x13
 14762 019b 3F       		.uleb128 0x3f
 14763 019c 19       		.uleb128 0x19
 14764 019d 3C       		.uleb128 0x3c
 14765 019e 19       		.uleb128 0x19
 14766 019f 00       		.byte	0
 14767 01a0 00       		.byte	0
 14768 01a1 22       		.uleb128 0x22
 14769 01a2 15       		.uleb128 0x15
 14770 01a3 01       		.byte	0x1
 14771 01a4 27       		.uleb128 0x27
 14772 01a5 19       		.uleb128 0x19
 14773 01a6 49       		.uleb128 0x49
 14774 01a7 13       		.uleb128 0x13
 14775 01a8 01       		.uleb128 0x1
 14776 01a9 13       		.uleb128 0x13
 14777 01aa 00       		.byte	0
 14778 01ab 00       		.byte	0
 14779 01ac 23       		.uleb128 0x23
 14780 01ad 0D       		.uleb128 0xd
 14781 01ae 00       		.byte	0
 14782 01af 03       		.uleb128 0x3
 14783 01b0 08       		.uleb128 0x8
 14784 01b1 3A       		.uleb128 0x3a
 14785 01b2 0B       		.uleb128 0xb
 14786 01b3 3B       		.uleb128 0x3b
 14787 01b4 0B       		.uleb128 0xb
 14788 01b5 49       		.uleb128 0x49
 14789 01b6 13       		.uleb128 0x13
 14790 01b7 00       		.byte	0
 14791 01b8 00       		.byte	0
 14792 01b9 24       		.uleb128 0x24
 14793 01ba 04       		.uleb128 0x4
 14794 01bb 01       		.byte	0x1
 14795 01bc 3E       		.uleb128 0x3e
 14796 01bd 0B       		.uleb128 0xb
 14797 01be 0B       		.uleb128 0xb
 14798 01bf 0B       		.uleb128 0xb
 14799 01c0 49       		.uleb128 0x49
 14800 01c1 13       		.uleb128 0x13
 14801 01c2 3A       		.uleb128 0x3a
 14802 01c3 0B       		.uleb128 0xb
 14803 01c4 3B       		.uleb128 0x3b
 14804 01c5 05       		.uleb128 0x5
 14805 01c6 01       		.uleb128 0x1
 14806 01c7 13       		.uleb128 0x13
 14807 01c8 00       		.byte	0
 14808 01c9 00       		.byte	0
 14809 01ca 25       		.uleb128 0x25
 14810 01cb 13       		.uleb128 0x13
ARM GAS  /tmp/ccB9eNXv.s 			page 261


 14811 01cc 01       		.byte	0x1
 14812 01cd 03       		.uleb128 0x3
 14813 01ce 0E       		.uleb128 0xe
 14814 01cf 0B       		.uleb128 0xb
 14815 01d0 05       		.uleb128 0x5
 14816 01d1 3A       		.uleb128 0x3a
 14817 01d2 0B       		.uleb128 0xb
 14818 01d3 3B       		.uleb128 0x3b
 14819 01d4 0B       		.uleb128 0xb
 14820 01d5 01       		.uleb128 0x1
 14821 01d6 13       		.uleb128 0x13
 14822 01d7 00       		.byte	0
 14823 01d8 00       		.byte	0
 14824 01d9 26       		.uleb128 0x26
 14825 01da 0D       		.uleb128 0xd
 14826 01db 00       		.byte	0
 14827 01dc 03       		.uleb128 0x3
 14828 01dd 0E       		.uleb128 0xe
 14829 01de 3A       		.uleb128 0x3a
 14830 01df 0B       		.uleb128 0xb
 14831 01e0 3B       		.uleb128 0x3b
 14832 01e1 0B       		.uleb128 0xb
 14833 01e2 49       		.uleb128 0x49
 14834 01e3 13       		.uleb128 0x13
 14835 01e4 38       		.uleb128 0x38
 14836 01e5 05       		.uleb128 0x5
 14837 01e6 00       		.byte	0
 14838 01e7 00       		.byte	0
 14839 01e8 27       		.uleb128 0x27
 14840 01e9 13       		.uleb128 0x13
 14841 01ea 01       		.byte	0x1
 14842 01eb 0B       		.uleb128 0xb
 14843 01ec 06       		.uleb128 0x6
 14844 01ed 3A       		.uleb128 0x3a
 14845 01ee 0B       		.uleb128 0xb
 14846 01ef 3B       		.uleb128 0x3b
 14847 01f0 0B       		.uleb128 0xb
 14848 01f1 01       		.uleb128 0x1
 14849 01f2 13       		.uleb128 0x13
 14850 01f3 00       		.byte	0
 14851 01f4 00       		.byte	0
 14852 01f5 28       		.uleb128 0x28
 14853 01f6 0D       		.uleb128 0xd
 14854 01f7 00       		.byte	0
 14855 01f8 03       		.uleb128 0x3
 14856 01f9 08       		.uleb128 0x8
 14857 01fa 3A       		.uleb128 0x3a
 14858 01fb 0B       		.uleb128 0xb
 14859 01fc 3B       		.uleb128 0x3b
 14860 01fd 0B       		.uleb128 0xb
 14861 01fe 49       		.uleb128 0x49
 14862 01ff 13       		.uleb128 0x13
 14863 0200 38       		.uleb128 0x38
 14864 0201 05       		.uleb128 0x5
 14865 0202 00       		.byte	0
 14866 0203 00       		.byte	0
 14867 0204 29       		.uleb128 0x29
ARM GAS  /tmp/ccB9eNXv.s 			page 262


 14868 0205 21       		.uleb128 0x21
 14869 0206 00       		.byte	0
 14870 0207 49       		.uleb128 0x49
 14871 0208 13       		.uleb128 0x13
 14872 0209 2F       		.uleb128 0x2f
 14873 020a 05       		.uleb128 0x5
 14874 020b 00       		.byte	0
 14875 020c 00       		.byte	0
 14876 020d 2A       		.uleb128 0x2a
 14877 020e 0D       		.uleb128 0xd
 14878 020f 00       		.byte	0
 14879 0210 03       		.uleb128 0x3
 14880 0211 0E       		.uleb128 0xe
 14881 0212 3A       		.uleb128 0x3a
 14882 0213 0B       		.uleb128 0xb
 14883 0214 3B       		.uleb128 0x3b
 14884 0215 0B       		.uleb128 0xb
 14885 0216 49       		.uleb128 0x49
 14886 0217 13       		.uleb128 0x13
 14887 0218 00       		.byte	0
 14888 0219 00       		.byte	0
 14889 021a 2B       		.uleb128 0x2b
 14890 021b 17       		.uleb128 0x17
 14891 021c 01       		.byte	0x1
 14892 021d 0B       		.uleb128 0xb
 14893 021e 0B       		.uleb128 0xb
 14894 021f 3A       		.uleb128 0x3a
 14895 0220 0B       		.uleb128 0xb
 14896 0221 3B       		.uleb128 0x3b
 14897 0222 05       		.uleb128 0x5
 14898 0223 01       		.uleb128 0x1
 14899 0224 13       		.uleb128 0x13
 14900 0225 00       		.byte	0
 14901 0226 00       		.byte	0
 14902 0227 2C       		.uleb128 0x2c
 14903 0228 21       		.uleb128 0x21
 14904 0229 00       		.byte	0
 14905 022a 00       		.byte	0
 14906 022b 00       		.byte	0
 14907 022c 2D       		.uleb128 0x2d
 14908 022d 13       		.uleb128 0x13
 14909 022e 00       		.byte	0
 14910 022f 03       		.uleb128 0x3
 14911 0230 0E       		.uleb128 0xe
 14912 0231 3C       		.uleb128 0x3c
 14913 0232 19       		.uleb128 0x19
 14914 0233 00       		.byte	0
 14915 0234 00       		.byte	0
 14916 0235 2E       		.uleb128 0x2e
 14917 0236 15       		.uleb128 0x15
 14918 0237 00       		.byte	0
 14919 0238 27       		.uleb128 0x27
 14920 0239 19       		.uleb128 0x19
 14921 023a 00       		.byte	0
 14922 023b 00       		.byte	0
 14923 023c 2F       		.uleb128 0x2f
 14924 023d 04       		.uleb128 0x4
ARM GAS  /tmp/ccB9eNXv.s 			page 263


 14925 023e 01       		.byte	0x1
 14926 023f 03       		.uleb128 0x3
 14927 0240 0E       		.uleb128 0xe
 14928 0241 3E       		.uleb128 0x3e
 14929 0242 0B       		.uleb128 0xb
 14930 0243 0B       		.uleb128 0xb
 14931 0244 0B       		.uleb128 0xb
 14932 0245 49       		.uleb128 0x49
 14933 0246 13       		.uleb128 0x13
 14934 0247 3A       		.uleb128 0x3a
 14935 0248 0B       		.uleb128 0xb
 14936 0249 3B       		.uleb128 0x3b
 14937 024a 05       		.uleb128 0x5
 14938 024b 01       		.uleb128 0x1
 14939 024c 13       		.uleb128 0x13
 14940 024d 00       		.byte	0
 14941 024e 00       		.byte	0
 14942 024f 30       		.uleb128 0x30
 14943 0250 34       		.uleb128 0x34
 14944 0251 00       		.byte	0
 14945 0252 03       		.uleb128 0x3
 14946 0253 0E       		.uleb128 0xe
 14947 0254 3A       		.uleb128 0x3a
 14948 0255 0B       		.uleb128 0xb
 14949 0256 3B       		.uleb128 0x3b
 14950 0257 0B       		.uleb128 0xb
 14951 0258 49       		.uleb128 0x49
 14952 0259 13       		.uleb128 0x13
 14953 025a 02       		.uleb128 0x2
 14954 025b 18       		.uleb128 0x18
 14955 025c 00       		.byte	0
 14956 025d 00       		.byte	0
 14957 025e 31       		.uleb128 0x31
 14958 025f 2E       		.uleb128 0x2e
 14959 0260 01       		.byte	0x1
 14960 0261 03       		.uleb128 0x3
 14961 0262 0E       		.uleb128 0xe
 14962 0263 3A       		.uleb128 0x3a
 14963 0264 0B       		.uleb128 0xb
 14964 0265 3B       		.uleb128 0x3b
 14965 0266 05       		.uleb128 0x5
 14966 0267 27       		.uleb128 0x27
 14967 0268 19       		.uleb128 0x19
 14968 0269 11       		.uleb128 0x11
 14969 026a 01       		.uleb128 0x1
 14970 026b 12       		.uleb128 0x12
 14971 026c 06       		.uleb128 0x6
 14972 026d 40       		.uleb128 0x40
 14973 026e 18       		.uleb128 0x18
 14974 026f 9742     		.uleb128 0x2117
 14975 0271 19       		.uleb128 0x19
 14976 0272 01       		.uleb128 0x1
 14977 0273 13       		.uleb128 0x13
 14978 0274 00       		.byte	0
 14979 0275 00       		.byte	0
 14980 0276 32       		.uleb128 0x32
 14981 0277 05       		.uleb128 0x5
ARM GAS  /tmp/ccB9eNXv.s 			page 264


 14982 0278 00       		.byte	0
 14983 0279 03       		.uleb128 0x3
 14984 027a 08       		.uleb128 0x8
 14985 027b 3A       		.uleb128 0x3a
 14986 027c 0B       		.uleb128 0xb
 14987 027d 3B       		.uleb128 0x3b
 14988 027e 05       		.uleb128 0x5
 14989 027f 49       		.uleb128 0x49
 14990 0280 13       		.uleb128 0x13
 14991 0281 02       		.uleb128 0x2
 14992 0282 17       		.uleb128 0x17
 14993 0283 00       		.byte	0
 14994 0284 00       		.byte	0
 14995 0285 33       		.uleb128 0x33
 14996 0286 0B       		.uleb128 0xb
 14997 0287 01       		.byte	0x1
 14998 0288 55       		.uleb128 0x55
 14999 0289 17       		.uleb128 0x17
 15000 028a 01       		.uleb128 0x1
 15001 028b 13       		.uleb128 0x13
 15002 028c 00       		.byte	0
 15003 028d 00       		.byte	0
 15004 028e 34       		.uleb128 0x34
 15005 028f 34       		.uleb128 0x34
 15006 0290 00       		.byte	0
 15007 0291 03       		.uleb128 0x3
 15008 0292 0E       		.uleb128 0xe
 15009 0293 3A       		.uleb128 0x3a
 15010 0294 0B       		.uleb128 0xb
 15011 0295 3B       		.uleb128 0x3b
 15012 0296 05       		.uleb128 0x5
 15013 0297 49       		.uleb128 0x49
 15014 0298 13       		.uleb128 0x13
 15015 0299 02       		.uleb128 0x2
 15016 029a 18       		.uleb128 0x18
 15017 029b 00       		.byte	0
 15018 029c 00       		.byte	0
 15019 029d 35       		.uleb128 0x35
 15020 029e 34       		.uleb128 0x34
 15021 029f 00       		.byte	0
 15022 02a0 03       		.uleb128 0x3
 15023 02a1 0E       		.uleb128 0xe
 15024 02a2 3A       		.uleb128 0x3a
 15025 02a3 0B       		.uleb128 0xb
 15026 02a4 3B       		.uleb128 0x3b
 15027 02a5 05       		.uleb128 0x5
 15028 02a6 49       		.uleb128 0x49
 15029 02a7 13       		.uleb128 0x13
 15030 02a8 02       		.uleb128 0x2
 15031 02a9 17       		.uleb128 0x17
 15032 02aa 00       		.byte	0
 15033 02ab 00       		.byte	0
 15034 02ac 36       		.uleb128 0x36
 15035 02ad 34       		.uleb128 0x34
 15036 02ae 00       		.byte	0
 15037 02af 03       		.uleb128 0x3
 15038 02b0 08       		.uleb128 0x8
ARM GAS  /tmp/ccB9eNXv.s 			page 265


 15039 02b1 3A       		.uleb128 0x3a
 15040 02b2 0B       		.uleb128 0xb
 15041 02b3 3B       		.uleb128 0x3b
 15042 02b4 05       		.uleb128 0x5
 15043 02b5 49       		.uleb128 0x49
 15044 02b6 13       		.uleb128 0x13
 15045 02b7 02       		.uleb128 0x2
 15046 02b8 17       		.uleb128 0x17
 15047 02b9 00       		.byte	0
 15048 02ba 00       		.byte	0
 15049 02bb 37       		.uleb128 0x37
 15050 02bc 0B       		.uleb128 0xb
 15051 02bd 01       		.byte	0x1
 15052 02be 11       		.uleb128 0x11
 15053 02bf 01       		.uleb128 0x1
 15054 02c0 12       		.uleb128 0x12
 15055 02c1 06       		.uleb128 0x6
 15056 02c2 01       		.uleb128 0x1
 15057 02c3 13       		.uleb128 0x13
 15058 02c4 00       		.byte	0
 15059 02c5 00       		.byte	0
 15060 02c6 38       		.uleb128 0x38
 15061 02c7 898201   		.uleb128 0x4109
 15062 02ca 01       		.byte	0x1
 15063 02cb 11       		.uleb128 0x11
 15064 02cc 01       		.uleb128 0x1
 15065 02cd 31       		.uleb128 0x31
 15066 02ce 13       		.uleb128 0x13
 15067 02cf 01       		.uleb128 0x1
 15068 02d0 13       		.uleb128 0x13
 15069 02d1 00       		.byte	0
 15070 02d2 00       		.byte	0
 15071 02d3 39       		.uleb128 0x39
 15072 02d4 8A8201   		.uleb128 0x410a
 15073 02d7 00       		.byte	0
 15074 02d8 02       		.uleb128 0x2
 15075 02d9 18       		.uleb128 0x18
 15076 02da 9142     		.uleb128 0x2111
 15077 02dc 18       		.uleb128 0x18
 15078 02dd 00       		.byte	0
 15079 02de 00       		.byte	0
 15080 02df 3A       		.uleb128 0x3a
 15081 02e0 898201   		.uleb128 0x4109
 15082 02e3 01       		.byte	0x1
 15083 02e4 11       		.uleb128 0x11
 15084 02e5 01       		.uleb128 0x1
 15085 02e6 31       		.uleb128 0x31
 15086 02e7 13       		.uleb128 0x13
 15087 02e8 00       		.byte	0
 15088 02e9 00       		.byte	0
 15089 02ea 3B       		.uleb128 0x3b
 15090 02eb 898201   		.uleb128 0x4109
 15091 02ee 00       		.byte	0
 15092 02ef 11       		.uleb128 0x11
 15093 02f0 01       		.uleb128 0x1
 15094 02f1 31       		.uleb128 0x31
 15095 02f2 13       		.uleb128 0x13
ARM GAS  /tmp/ccB9eNXv.s 			page 266


 15096 02f3 00       		.byte	0
 15097 02f4 00       		.byte	0
 15098 02f5 3C       		.uleb128 0x3c
 15099 02f6 1D       		.uleb128 0x1d
 15100 02f7 01       		.byte	0x1
 15101 02f8 31       		.uleb128 0x31
 15102 02f9 13       		.uleb128 0x13
 15103 02fa 52       		.uleb128 0x52
 15104 02fb 01       		.uleb128 0x1
 15105 02fc 55       		.uleb128 0x55
 15106 02fd 17       		.uleb128 0x17
 15107 02fe 58       		.uleb128 0x58
 15108 02ff 0B       		.uleb128 0xb
 15109 0300 59       		.uleb128 0x59
 15110 0301 05       		.uleb128 0x5
 15111 0302 01       		.uleb128 0x1
 15112 0303 13       		.uleb128 0x13
 15113 0304 00       		.byte	0
 15114 0305 00       		.byte	0
 15115 0306 3D       		.uleb128 0x3d
 15116 0307 05       		.uleb128 0x5
 15117 0308 00       		.byte	0
 15118 0309 31       		.uleb128 0x31
 15119 030a 13       		.uleb128 0x13
 15120 030b 02       		.uleb128 0x2
 15121 030c 17       		.uleb128 0x17
 15122 030d 00       		.byte	0
 15123 030e 00       		.byte	0
 15124 030f 3E       		.uleb128 0x3e
 15125 0310 1D       		.uleb128 0x1d
 15126 0311 00       		.byte	0
 15127 0312 31       		.uleb128 0x31
 15128 0313 13       		.uleb128 0x13
 15129 0314 11       		.uleb128 0x11
 15130 0315 01       		.uleb128 0x1
 15131 0316 12       		.uleb128 0x12
 15132 0317 06       		.uleb128 0x6
 15133 0318 58       		.uleb128 0x58
 15134 0319 0B       		.uleb128 0xb
 15135 031a 59       		.uleb128 0x59
 15136 031b 05       		.uleb128 0x5
 15137 031c 00       		.byte	0
 15138 031d 00       		.byte	0
 15139 031e 3F       		.uleb128 0x3f
 15140 031f 2E       		.uleb128 0x2e
 15141 0320 01       		.byte	0x1
 15142 0321 3F       		.uleb128 0x3f
 15143 0322 19       		.uleb128 0x19
 15144 0323 03       		.uleb128 0x3
 15145 0324 0E       		.uleb128 0xe
 15146 0325 3A       		.uleb128 0x3a
 15147 0326 0B       		.uleb128 0xb
 15148 0327 3B       		.uleb128 0x3b
 15149 0328 05       		.uleb128 0x5
 15150 0329 27       		.uleb128 0x27
 15151 032a 19       		.uleb128 0x19
 15152 032b 11       		.uleb128 0x11
ARM GAS  /tmp/ccB9eNXv.s 			page 267


 15153 032c 01       		.uleb128 0x1
 15154 032d 12       		.uleb128 0x12
 15155 032e 06       		.uleb128 0x6
 15156 032f 40       		.uleb128 0x40
 15157 0330 18       		.uleb128 0x18
 15158 0331 9742     		.uleb128 0x2117
 15159 0333 19       		.uleb128 0x19
 15160 0334 01       		.uleb128 0x1
 15161 0335 13       		.uleb128 0x13
 15162 0336 00       		.byte	0
 15163 0337 00       		.byte	0
 15164 0338 40       		.uleb128 0x40
 15165 0339 2E       		.uleb128 0x2e
 15166 033a 00       		.byte	0
 15167 033b 03       		.uleb128 0x3
 15168 033c 0E       		.uleb128 0xe
 15169 033d 3A       		.uleb128 0x3a
 15170 033e 0B       		.uleb128 0xb
 15171 033f 3B       		.uleb128 0x3b
 15172 0340 05       		.uleb128 0x5
 15173 0341 27       		.uleb128 0x27
 15174 0342 19       		.uleb128 0x19
 15175 0343 20       		.uleb128 0x20
 15176 0344 0B       		.uleb128 0xb
 15177 0345 00       		.byte	0
 15178 0346 00       		.byte	0
 15179 0347 41       		.uleb128 0x41
 15180 0348 2E       		.uleb128 0x2e
 15181 0349 01       		.byte	0x1
 15182 034a 03       		.uleb128 0x3
 15183 034b 0E       		.uleb128 0xe
 15184 034c 3A       		.uleb128 0x3a
 15185 034d 0B       		.uleb128 0xb
 15186 034e 3B       		.uleb128 0x3b
 15187 034f 05       		.uleb128 0x5
 15188 0350 27       		.uleb128 0x27
 15189 0351 19       		.uleb128 0x19
 15190 0352 20       		.uleb128 0x20
 15191 0353 0B       		.uleb128 0xb
 15192 0354 01       		.uleb128 0x1
 15193 0355 13       		.uleb128 0x13
 15194 0356 00       		.byte	0
 15195 0357 00       		.byte	0
 15196 0358 42       		.uleb128 0x42
 15197 0359 05       		.uleb128 0x5
 15198 035a 00       		.byte	0
 15199 035b 03       		.uleb128 0x3
 15200 035c 0E       		.uleb128 0xe
 15201 035d 3A       		.uleb128 0x3a
 15202 035e 0B       		.uleb128 0xb
 15203 035f 3B       		.uleb128 0x3b
 15204 0360 05       		.uleb128 0x5
 15205 0361 49       		.uleb128 0x49
 15206 0362 13       		.uleb128 0x13
 15207 0363 00       		.byte	0
 15208 0364 00       		.byte	0
 15209 0365 43       		.uleb128 0x43
ARM GAS  /tmp/ccB9eNXv.s 			page 268


 15210 0366 0B       		.uleb128 0xb
 15211 0367 01       		.byte	0x1
 15212 0368 00       		.byte	0
 15213 0369 00       		.byte	0
 15214 036a 44       		.uleb128 0x44
 15215 036b 34       		.uleb128 0x34
 15216 036c 00       		.byte	0
 15217 036d 03       		.uleb128 0x3
 15218 036e 08       		.uleb128 0x8
 15219 036f 3A       		.uleb128 0x3a
 15220 0370 0B       		.uleb128 0xb
 15221 0371 3B       		.uleb128 0x3b
 15222 0372 05       		.uleb128 0x5
 15223 0373 49       		.uleb128 0x49
 15224 0374 13       		.uleb128 0x13
 15225 0375 00       		.byte	0
 15226 0376 00       		.byte	0
 15227 0377 45       		.uleb128 0x45
 15228 0378 34       		.uleb128 0x34
 15229 0379 00       		.byte	0
 15230 037a 03       		.uleb128 0x3
 15231 037b 0E       		.uleb128 0xe
 15232 037c 3A       		.uleb128 0x3a
 15233 037d 0B       		.uleb128 0xb
 15234 037e 3B       		.uleb128 0x3b
 15235 037f 05       		.uleb128 0x5
 15236 0380 49       		.uleb128 0x49
 15237 0381 13       		.uleb128 0x13
 15238 0382 00       		.byte	0
 15239 0383 00       		.byte	0
 15240 0384 46       		.uleb128 0x46
 15241 0385 2E       		.uleb128 0x2e
 15242 0386 00       		.byte	0
 15243 0387 3F       		.uleb128 0x3f
 15244 0388 19       		.uleb128 0x19
 15245 0389 03       		.uleb128 0x3
 15246 038a 0E       		.uleb128 0xe
 15247 038b 3A       		.uleb128 0x3a
 15248 038c 0B       		.uleb128 0xb
 15249 038d 3B       		.uleb128 0x3b
 15250 038e 05       		.uleb128 0x5
 15251 038f 27       		.uleb128 0x27
 15252 0390 19       		.uleb128 0x19
 15253 0391 49       		.uleb128 0x49
 15254 0392 13       		.uleb128 0x13
 15255 0393 11       		.uleb128 0x11
 15256 0394 01       		.uleb128 0x1
 15257 0395 12       		.uleb128 0x12
 15258 0396 06       		.uleb128 0x6
 15259 0397 40       		.uleb128 0x40
 15260 0398 18       		.uleb128 0x18
 15261 0399 9742     		.uleb128 0x2117
 15262 039b 19       		.uleb128 0x19
 15263 039c 00       		.byte	0
 15264 039d 00       		.byte	0
 15265 039e 47       		.uleb128 0x47
 15266 039f 05       		.uleb128 0x5
ARM GAS  /tmp/ccB9eNXv.s 			page 269


 15267 03a0 00       		.byte	0
 15268 03a1 03       		.uleb128 0x3
 15269 03a2 0E       		.uleb128 0xe
 15270 03a3 3A       		.uleb128 0x3a
 15271 03a4 0B       		.uleb128 0xb
 15272 03a5 3B       		.uleb128 0x3b
 15273 03a6 05       		.uleb128 0x5
 15274 03a7 49       		.uleb128 0x49
 15275 03a8 13       		.uleb128 0x13
 15276 03a9 02       		.uleb128 0x2
 15277 03aa 17       		.uleb128 0x17
 15278 03ab 00       		.byte	0
 15279 03ac 00       		.byte	0
 15280 03ad 48       		.uleb128 0x48
 15281 03ae 34       		.uleb128 0x34
 15282 03af 00       		.byte	0
 15283 03b0 03       		.uleb128 0x3
 15284 03b1 08       		.uleb128 0x8
 15285 03b2 3A       		.uleb128 0x3a
 15286 03b3 0B       		.uleb128 0xb
 15287 03b4 3B       		.uleb128 0x3b
 15288 03b5 05       		.uleb128 0x5
 15289 03b6 49       		.uleb128 0x49
 15290 03b7 13       		.uleb128 0x13
 15291 03b8 02       		.uleb128 0x2
 15292 03b9 18       		.uleb128 0x18
 15293 03ba 00       		.byte	0
 15294 03bb 00       		.byte	0
 15295 03bc 49       		.uleb128 0x49
 15296 03bd 1D       		.uleb128 0x1d
 15297 03be 01       		.byte	0x1
 15298 03bf 31       		.uleb128 0x31
 15299 03c0 13       		.uleb128 0x13
 15300 03c1 11       		.uleb128 0x11
 15301 03c2 01       		.uleb128 0x1
 15302 03c3 12       		.uleb128 0x12
 15303 03c4 06       		.uleb128 0x6
 15304 03c5 58       		.uleb128 0x58
 15305 03c6 0B       		.uleb128 0xb
 15306 03c7 59       		.uleb128 0x59
 15307 03c8 05       		.uleb128 0x5
 15308 03c9 01       		.uleb128 0x1
 15309 03ca 13       		.uleb128 0x13
 15310 03cb 00       		.byte	0
 15311 03cc 00       		.byte	0
 15312 03cd 4A       		.uleb128 0x4a
 15313 03ce 05       		.uleb128 0x5
 15314 03cf 00       		.byte	0
 15315 03d0 31       		.uleb128 0x31
 15316 03d1 13       		.uleb128 0x13
 15317 03d2 00       		.byte	0
 15318 03d3 00       		.byte	0
 15319 03d4 4B       		.uleb128 0x4b
 15320 03d5 8A8201   		.uleb128 0x410a
 15321 03d8 00       		.byte	0
 15322 03d9 31       		.uleb128 0x31
 15323 03da 13       		.uleb128 0x13
ARM GAS  /tmp/ccB9eNXv.s 			page 270


 15324 03db 9142     		.uleb128 0x2111
 15325 03dd 18       		.uleb128 0x18
 15326 03de 00       		.byte	0
 15327 03df 00       		.byte	0
 15328 03e0 4C       		.uleb128 0x4c
 15329 03e1 0B       		.uleb128 0xb
 15330 03e2 01       		.byte	0x1
 15331 03e3 31       		.uleb128 0x31
 15332 03e4 13       		.uleb128 0x13
 15333 03e5 55       		.uleb128 0x55
 15334 03e6 17       		.uleb128 0x17
 15335 03e7 00       		.byte	0
 15336 03e8 00       		.byte	0
 15337 03e9 4D       		.uleb128 0x4d
 15338 03ea 2E       		.uleb128 0x2e
 15339 03eb 01       		.byte	0x1
 15340 03ec 03       		.uleb128 0x3
 15341 03ed 0E       		.uleb128 0xe
 15342 03ee 3A       		.uleb128 0x3a
 15343 03ef 0B       		.uleb128 0xb
 15344 03f0 3B       		.uleb128 0x3b
 15345 03f1 05       		.uleb128 0x5
 15346 03f2 27       		.uleb128 0x27
 15347 03f3 19       		.uleb128 0x19
 15348 03f4 49       		.uleb128 0x49
 15349 03f5 13       		.uleb128 0x13
 15350 03f6 20       		.uleb128 0x20
 15351 03f7 0B       		.uleb128 0xb
 15352 03f8 01       		.uleb128 0x1
 15353 03f9 13       		.uleb128 0x13
 15354 03fa 00       		.byte	0
 15355 03fb 00       		.byte	0
 15356 03fc 4E       		.uleb128 0x4e
 15357 03fd 05       		.uleb128 0x5
 15358 03fe 00       		.byte	0
 15359 03ff 03       		.uleb128 0x3
 15360 0400 08       		.uleb128 0x8
 15361 0401 3A       		.uleb128 0x3a
 15362 0402 0B       		.uleb128 0xb
 15363 0403 3B       		.uleb128 0x3b
 15364 0404 05       		.uleb128 0x5
 15365 0405 49       		.uleb128 0x49
 15366 0406 13       		.uleb128 0x13
 15367 0407 00       		.byte	0
 15368 0408 00       		.byte	0
 15369 0409 4F       		.uleb128 0x4f
 15370 040a 2E       		.uleb128 0x2e
 15371 040b 01       		.byte	0x1
 15372 040c 3F       		.uleb128 0x3f
 15373 040d 19       		.uleb128 0x19
 15374 040e 03       		.uleb128 0x3
 15375 040f 0E       		.uleb128 0xe
 15376 0410 3A       		.uleb128 0x3a
 15377 0411 0B       		.uleb128 0xb
 15378 0412 3B       		.uleb128 0x3b
 15379 0413 05       		.uleb128 0x5
 15380 0414 27       		.uleb128 0x27
ARM GAS  /tmp/ccB9eNXv.s 			page 271


 15381 0415 19       		.uleb128 0x19
 15382 0416 49       		.uleb128 0x49
 15383 0417 13       		.uleb128 0x13
 15384 0418 11       		.uleb128 0x11
 15385 0419 01       		.uleb128 0x1
 15386 041a 12       		.uleb128 0x12
 15387 041b 06       		.uleb128 0x6
 15388 041c 40       		.uleb128 0x40
 15389 041d 18       		.uleb128 0x18
 15390 041e 9742     		.uleb128 0x2117
 15391 0420 19       		.uleb128 0x19
 15392 0421 01       		.uleb128 0x1
 15393 0422 13       		.uleb128 0x13
 15394 0423 00       		.byte	0
 15395 0424 00       		.byte	0
 15396 0425 50       		.uleb128 0x50
 15397 0426 1D       		.uleb128 0x1d
 15398 0427 00       		.byte	0
 15399 0428 31       		.uleb128 0x31
 15400 0429 13       		.uleb128 0x13
 15401 042a 52       		.uleb128 0x52
 15402 042b 01       		.uleb128 0x1
 15403 042c 55       		.uleb128 0x55
 15404 042d 17       		.uleb128 0x17
 15405 042e 58       		.uleb128 0x58
 15406 042f 0B       		.uleb128 0xb
 15407 0430 59       		.uleb128 0x59
 15408 0431 05       		.uleb128 0x5
 15409 0432 00       		.byte	0
 15410 0433 00       		.byte	0
 15411 0434 51       		.uleb128 0x51
 15412 0435 898201   		.uleb128 0x4109
 15413 0438 00       		.byte	0
 15414 0439 11       		.uleb128 0x11
 15415 043a 01       		.uleb128 0x1
 15416 043b 9542     		.uleb128 0x2115
 15417 043d 19       		.uleb128 0x19
 15418 043e 31       		.uleb128 0x31
 15419 043f 13       		.uleb128 0x13
 15420 0440 00       		.byte	0
 15421 0441 00       		.byte	0
 15422 0442 52       		.uleb128 0x52
 15423 0443 05       		.uleb128 0x5
 15424 0444 00       		.byte	0
 15425 0445 03       		.uleb128 0x3
 15426 0446 0E       		.uleb128 0xe
 15427 0447 3A       		.uleb128 0x3a
 15428 0448 0B       		.uleb128 0xb
 15429 0449 3B       		.uleb128 0x3b
 15430 044a 05       		.uleb128 0x5
 15431 044b 49       		.uleb128 0x49
 15432 044c 13       		.uleb128 0x13
 15433 044d 02       		.uleb128 0x2
 15434 044e 18       		.uleb128 0x18
 15435 044f 00       		.byte	0
 15436 0450 00       		.byte	0
 15437 0451 53       		.uleb128 0x53
ARM GAS  /tmp/ccB9eNXv.s 			page 272


 15438 0452 2E       		.uleb128 0x2e
 15439 0453 01       		.byte	0x1
 15440 0454 3F       		.uleb128 0x3f
 15441 0455 19       		.uleb128 0x19
 15442 0456 03       		.uleb128 0x3
 15443 0457 0E       		.uleb128 0xe
 15444 0458 3A       		.uleb128 0x3a
 15445 0459 0B       		.uleb128 0xb
 15446 045a 3B       		.uleb128 0x3b
 15447 045b 0B       		.uleb128 0xb
 15448 045c 27       		.uleb128 0x27
 15449 045d 19       		.uleb128 0x19
 15450 045e 11       		.uleb128 0x11
 15451 045f 01       		.uleb128 0x1
 15452 0460 12       		.uleb128 0x12
 15453 0461 06       		.uleb128 0x6
 15454 0462 40       		.uleb128 0x40
 15455 0463 18       		.uleb128 0x18
 15456 0464 9742     		.uleb128 0x2117
 15457 0466 19       		.uleb128 0x19
 15458 0467 01       		.uleb128 0x1
 15459 0468 13       		.uleb128 0x13
 15460 0469 00       		.byte	0
 15461 046a 00       		.byte	0
 15462 046b 54       		.uleb128 0x54
 15463 046c 2E       		.uleb128 0x2e
 15464 046d 00       		.byte	0
 15465 046e 3F       		.uleb128 0x3f
 15466 046f 19       		.uleb128 0x19
 15467 0470 03       		.uleb128 0x3
 15468 0471 0E       		.uleb128 0xe
 15469 0472 3A       		.uleb128 0x3a
 15470 0473 0B       		.uleb128 0xb
 15471 0474 3B       		.uleb128 0x3b
 15472 0475 0B       		.uleb128 0xb
 15473 0476 27       		.uleb128 0x27
 15474 0477 19       		.uleb128 0x19
 15475 0478 20       		.uleb128 0x20
 15476 0479 0B       		.uleb128 0xb
 15477 047a 00       		.byte	0
 15478 047b 00       		.byte	0
 15479 047c 55       		.uleb128 0x55
 15480 047d 2E       		.uleb128 0x2e
 15481 047e 00       		.byte	0
 15482 047f 3F       		.uleb128 0x3f
 15483 0480 19       		.uleb128 0x19
 15484 0481 03       		.uleb128 0x3
 15485 0482 0E       		.uleb128 0xe
 15486 0483 3A       		.uleb128 0x3a
 15487 0484 0B       		.uleb128 0xb
 15488 0485 3B       		.uleb128 0x3b
 15489 0486 0B       		.uleb128 0xb
 15490 0487 27       		.uleb128 0x27
 15491 0488 19       		.uleb128 0x19
 15492 0489 11       		.uleb128 0x11
 15493 048a 01       		.uleb128 0x1
 15494 048b 12       		.uleb128 0x12
ARM GAS  /tmp/ccB9eNXv.s 			page 273


 15495 048c 06       		.uleb128 0x6
 15496 048d 40       		.uleb128 0x40
 15497 048e 18       		.uleb128 0x18
 15498 048f 9742     		.uleb128 0x2117
 15499 0491 19       		.uleb128 0x19
 15500 0492 00       		.byte	0
 15501 0493 00       		.byte	0
 15502 0494 56       		.uleb128 0x56
 15503 0495 2E       		.uleb128 0x2e
 15504 0496 00       		.byte	0
 15505 0497 3F       		.uleb128 0x3f
 15506 0498 19       		.uleb128 0x19
 15507 0499 03       		.uleb128 0x3
 15508 049a 0E       		.uleb128 0xe
 15509 049b 3A       		.uleb128 0x3a
 15510 049c 0B       		.uleb128 0xb
 15511 049d 3B       		.uleb128 0x3b
 15512 049e 0B       		.uleb128 0xb
 15513 049f 27       		.uleb128 0x27
 15514 04a0 19       		.uleb128 0x19
 15515 04a1 49       		.uleb128 0x49
 15516 04a2 13       		.uleb128 0x13
 15517 04a3 20       		.uleb128 0x20
 15518 04a4 0B       		.uleb128 0xb
 15519 04a5 00       		.byte	0
 15520 04a6 00       		.byte	0
 15521 04a7 57       		.uleb128 0x57
 15522 04a8 2E       		.uleb128 0x2e
 15523 04a9 00       		.byte	0
 15524 04aa 3F       		.uleb128 0x3f
 15525 04ab 19       		.uleb128 0x19
 15526 04ac 03       		.uleb128 0x3
 15527 04ad 0E       		.uleb128 0xe
 15528 04ae 3A       		.uleb128 0x3a
 15529 04af 0B       		.uleb128 0xb
 15530 04b0 3B       		.uleb128 0x3b
 15531 04b1 0B       		.uleb128 0xb
 15532 04b2 27       		.uleb128 0x27
 15533 04b3 19       		.uleb128 0x19
 15534 04b4 49       		.uleb128 0x49
 15535 04b5 13       		.uleb128 0x13
 15536 04b6 11       		.uleb128 0x11
 15537 04b7 01       		.uleb128 0x1
 15538 04b8 12       		.uleb128 0x12
 15539 04b9 06       		.uleb128 0x6
 15540 04ba 40       		.uleb128 0x40
 15541 04bb 18       		.uleb128 0x18
 15542 04bc 9742     		.uleb128 0x2117
 15543 04be 19       		.uleb128 0x19
 15544 04bf 00       		.byte	0
 15545 04c0 00       		.byte	0
 15546 04c1 58       		.uleb128 0x58
 15547 04c2 2E       		.uleb128 0x2e
 15548 04c3 01       		.byte	0x1
 15549 04c4 03       		.uleb128 0x3
 15550 04c5 0E       		.uleb128 0xe
 15551 04c6 3A       		.uleb128 0x3a
ARM GAS  /tmp/ccB9eNXv.s 			page 274


 15552 04c7 0B       		.uleb128 0xb
 15553 04c8 3B       		.uleb128 0x3b
 15554 04c9 0B       		.uleb128 0xb
 15555 04ca 27       		.uleb128 0x27
 15556 04cb 19       		.uleb128 0x19
 15557 04cc 20       		.uleb128 0x20
 15558 04cd 0B       		.uleb128 0xb
 15559 04ce 01       		.uleb128 0x1
 15560 04cf 13       		.uleb128 0x13
 15561 04d0 00       		.byte	0
 15562 04d1 00       		.byte	0
 15563 04d2 59       		.uleb128 0x59
 15564 04d3 05       		.uleb128 0x5
 15565 04d4 00       		.byte	0
 15566 04d5 03       		.uleb128 0x3
 15567 04d6 0E       		.uleb128 0xe
 15568 04d7 3A       		.uleb128 0x3a
 15569 04d8 0B       		.uleb128 0xb
 15570 04d9 3B       		.uleb128 0x3b
 15571 04da 0B       		.uleb128 0xb
 15572 04db 49       		.uleb128 0x49
 15573 04dc 13       		.uleb128 0x13
 15574 04dd 00       		.byte	0
 15575 04de 00       		.byte	0
 15576 04df 5A       		.uleb128 0x5a
 15577 04e0 2E       		.uleb128 0x2e
 15578 04e1 00       		.byte	0
 15579 04e2 31       		.uleb128 0x31
 15580 04e3 13       		.uleb128 0x13
 15581 04e4 11       		.uleb128 0x11
 15582 04e5 01       		.uleb128 0x1
 15583 04e6 12       		.uleb128 0x12
 15584 04e7 06       		.uleb128 0x6
 15585 04e8 40       		.uleb128 0x40
 15586 04e9 18       		.uleb128 0x18
 15587 04ea 9742     		.uleb128 0x2117
 15588 04ec 19       		.uleb128 0x19
 15589 04ed 00       		.byte	0
 15590 04ee 00       		.byte	0
 15591 04ef 5B       		.uleb128 0x5b
 15592 04f0 2E       		.uleb128 0x2e
 15593 04f1 01       		.byte	0x1
 15594 04f2 31       		.uleb128 0x31
 15595 04f3 13       		.uleb128 0x13
 15596 04f4 11       		.uleb128 0x11
 15597 04f5 01       		.uleb128 0x1
 15598 04f6 12       		.uleb128 0x12
 15599 04f7 06       		.uleb128 0x6
 15600 04f8 40       		.uleb128 0x40
 15601 04f9 18       		.uleb128 0x18
 15602 04fa 9742     		.uleb128 0x2117
 15603 04fc 19       		.uleb128 0x19
 15604 04fd 01       		.uleb128 0x1
 15605 04fe 13       		.uleb128 0x13
 15606 04ff 00       		.byte	0
 15607 0500 00       		.byte	0
 15608 0501 5C       		.uleb128 0x5c
ARM GAS  /tmp/ccB9eNXv.s 			page 275


 15609 0502 05       		.uleb128 0x5
 15610 0503 00       		.byte	0
 15611 0504 31       		.uleb128 0x31
 15612 0505 13       		.uleb128 0x13
 15613 0506 1C       		.uleb128 0x1c
 15614 0507 0B       		.uleb128 0xb
 15615 0508 00       		.byte	0
 15616 0509 00       		.byte	0
 15617 050a 5D       		.uleb128 0x5d
 15618 050b 34       		.uleb128 0x34
 15619 050c 00       		.byte	0
 15620 050d 31       		.uleb128 0x31
 15621 050e 13       		.uleb128 0x13
 15622 050f 02       		.uleb128 0x2
 15623 0510 17       		.uleb128 0x17
 15624 0511 00       		.byte	0
 15625 0512 00       		.byte	0
 15626 0513 5E       		.uleb128 0x5e
 15627 0514 1D       		.uleb128 0x1d
 15628 0515 01       		.byte	0x1
 15629 0516 31       		.uleb128 0x31
 15630 0517 13       		.uleb128 0x13
 15631 0518 11       		.uleb128 0x11
 15632 0519 01       		.uleb128 0x1
 15633 051a 12       		.uleb128 0x12
 15634 051b 06       		.uleb128 0x6
 15635 051c 58       		.uleb128 0x58
 15636 051d 0B       		.uleb128 0xb
 15637 051e 59       		.uleb128 0x59
 15638 051f 05       		.uleb128 0x5
 15639 0520 00       		.byte	0
 15640 0521 00       		.byte	0
 15641 0522 5F       		.uleb128 0x5f
 15642 0523 2E       		.uleb128 0x2e
 15643 0524 00       		.byte	0
 15644 0525 3F       		.uleb128 0x3f
 15645 0526 19       		.uleb128 0x19
 15646 0527 3C       		.uleb128 0x3c
 15647 0528 19       		.uleb128 0x19
 15648 0529 6E       		.uleb128 0x6e
 15649 052a 0E       		.uleb128 0xe
 15650 052b 03       		.uleb128 0x3
 15651 052c 0E       		.uleb128 0xe
 15652 052d 3A       		.uleb128 0x3a
 15653 052e 0B       		.uleb128 0xb
 15654 052f 3B       		.uleb128 0x3b
 15655 0530 0B       		.uleb128 0xb
 15656 0531 00       		.byte	0
 15657 0532 00       		.byte	0
 15658 0533 60       		.uleb128 0x60
 15659 0534 2E       		.uleb128 0x2e
 15660 0535 00       		.byte	0
 15661 0536 3F       		.uleb128 0x3f
 15662 0537 19       		.uleb128 0x19
 15663 0538 3C       		.uleb128 0x3c
 15664 0539 19       		.uleb128 0x19
 15665 053a 6E       		.uleb128 0x6e
ARM GAS  /tmp/ccB9eNXv.s 			page 276


 15666 053b 0E       		.uleb128 0xe
 15667 053c 03       		.uleb128 0x3
 15668 053d 0E       		.uleb128 0xe
 15669 053e 3A       		.uleb128 0x3a
 15670 053f 0B       		.uleb128 0xb
 15671 0540 3B       		.uleb128 0x3b
 15672 0541 05       		.uleb128 0x5
 15673 0542 00       		.byte	0
 15674 0543 00       		.byte	0
 15675 0544 00       		.byte	0
 15676              		.section	.debug_loc,"",%progbits
 15677              	.Ldebug_loc0:
 15678              	.LLST19:
 15679 0000 00000000 		.4byte	.LVL125
 15680 0004 0E000000 		.4byte	.LVL126
 15681 0008 0100     		.2byte	0x1
 15682 000a 50       		.byte	0x50
 15683 000b 0E000000 		.4byte	.LVL126
 15684 000f E8010000 		.4byte	.LFE299
 15685 0013 0400     		.2byte	0x4
 15686 0015 F3       		.byte	0xf3
 15687 0016 01       		.uleb128 0x1
 15688 0017 50       		.byte	0x50
 15689 0018 9F       		.byte	0x9f
 15690 0019 00000000 		.4byte	0
 15691 001d 00000000 		.4byte	0
 15692              	.LLST21:
 15693 0021 76000000 		.4byte	.LVL133
 15694 0025 8C000000 		.4byte	.LVL136
 15695 0029 0200     		.2byte	0x2
 15696 002b 30       		.byte	0x30
 15697 002c 9F       		.byte	0x9f
 15698 002d 8C000000 		.4byte	.LVL136
 15699 0031 9C000000 		.4byte	.LVL138
 15700 0035 0300     		.2byte	0x3
 15701 0037 74       		.byte	0x74
 15702 0038 01       		.sleb128 1
 15703 0039 9F       		.byte	0x9f
 15704 003a 9C000000 		.4byte	.LVL138
 15705 003e CC000000 		.4byte	.LVL149
 15706 0042 0100     		.2byte	0x1
 15707 0044 54       		.byte	0x54
 15708 0045 FC000000 		.4byte	.LVL150
 15709 0049 18010000 		.4byte	.LVL151
 15710 004d 0100     		.2byte	0x1
 15711 004f 54       		.byte	0x54
 15712 0050 92010000 		.4byte	.LVL164
 15713 0054 98010000 		.4byte	.LVL165
 15714 0058 0200     		.2byte	0x2
 15715 005a 30       		.byte	0x30
 15716 005b 9F       		.byte	0x9f
 15717 005c 98010000 		.4byte	.LVL165
 15718 0060 E8010000 		.4byte	.LFE299
 15719 0064 0100     		.2byte	0x1
 15720 0066 54       		.byte	0x54
 15721 0067 00000000 		.4byte	0
 15722 006b 00000000 		.4byte	0
ARM GAS  /tmp/ccB9eNXv.s 			page 277


 15723              	.LLST22:
 15724 006f 82000000 		.4byte	.LVL135
 15725 0073 94000000 		.4byte	.LVL137
 15726 0077 0100     		.2byte	0x1
 15727 0079 50       		.byte	0x50
 15728 007a 94000000 		.4byte	.LVL137
 15729 007e A3000000 		.4byte	.LVL140-1
 15730 0082 0100     		.2byte	0x1
 15731 0084 53       		.byte	0x53
 15732 0085 A8000000 		.4byte	.LVL141
 15733 0089 B4000000 		.4byte	.LVL143
 15734 008d 0100     		.2byte	0x1
 15735 008f 50       		.byte	0x50
 15736 0090 B4000000 		.4byte	.LVL143
 15737 0094 B6000000 		.4byte	.LVL144
 15738 0098 0300     		.2byte	0x3
 15739 009a 72       		.byte	0x72
 15740 009b 7F       		.sleb128 -1
 15741 009c 9F       		.byte	0x9f
 15742 009d 92010000 		.4byte	.LVL164
 15743 00a1 E8010000 		.4byte	.LFE299
 15744 00a5 0100     		.2byte	0x1
 15745 00a7 50       		.byte	0x50
 15746 00a8 00000000 		.4byte	0
 15747 00ac 00000000 		.4byte	0
 15748              	.LLST23:
 15749 00b0 AA000000 		.4byte	.LVL142
 15750 00b4 B8000000 		.4byte	.LVL145
 15751 00b8 0200     		.2byte	0x2
 15752 00ba 30       		.byte	0x30
 15753 00bb 9F       		.byte	0x9f
 15754 00bc B8000000 		.4byte	.LVL145
 15755 00c0 C4000000 		.4byte	.LVL148
 15756 00c4 0100     		.2byte	0x1
 15757 00c6 52       		.byte	0x52
 15758 00c7 98010000 		.4byte	.LVL165
 15759 00cb E8010000 		.4byte	.LFE299
 15760 00cf 0200     		.2byte	0x2
 15761 00d1 30       		.byte	0x30
 15762 00d2 9F       		.byte	0x9f
 15763 00d3 00000000 		.4byte	0
 15764 00d7 00000000 		.4byte	0
 15765              	.LLST27:
 15766 00db 7E010000 		.4byte	.LVL160
 15767 00df 8A010000 		.4byte	.LVL162
 15768 00e3 0500     		.2byte	0x5
 15769 00e5 44       		.byte	0x44
 15770 00e6 74       		.byte	0x74
 15771 00e7 00       		.sleb128 0
 15772 00e8 1C       		.byte	0x1c
 15773 00e9 9F       		.byte	0x9f
 15774 00ea 8A010000 		.4byte	.LVL162
 15775 00ee 8C010000 		.4byte	.LVL163
 15776 00f2 0500     		.2byte	0x5
 15777 00f4 45       		.byte	0x45
 15778 00f5 74       		.byte	0x74
 15779 00f6 00       		.sleb128 0
ARM GAS  /tmp/ccB9eNXv.s 			page 278


 15780 00f7 1C       		.byte	0x1c
 15781 00f8 9F       		.byte	0x9f
 15782 00f9 8C010000 		.4byte	.LVL163
 15783 00fd 92010000 		.4byte	.LVL164
 15784 0101 0500     		.2byte	0x5
 15785 0103 44       		.byte	0x44
 15786 0104 74       		.byte	0x74
 15787 0105 00       		.sleb128 0
 15788 0106 1C       		.byte	0x1c
 15789 0107 9F       		.byte	0x9f
 15790 0108 00000000 		.4byte	0
 15791 010c 00000000 		.4byte	0
 15792              	.LLST26:
 15793 0110 68010000 		.4byte	.LVL155
 15794 0114 74010000 		.4byte	.LVL157
 15795 0118 0500     		.2byte	0x5
 15796 011a 44       		.byte	0x44
 15797 011b 74       		.byte	0x74
 15798 011c 00       		.sleb128 0
 15799 011d 1C       		.byte	0x1c
 15800 011e 9F       		.byte	0x9f
 15801 011f 74010000 		.4byte	.LVL157
 15802 0123 76010000 		.4byte	.LVL158
 15803 0127 0500     		.2byte	0x5
 15804 0129 45       		.byte	0x45
 15805 012a 74       		.byte	0x74
 15806 012b 00       		.sleb128 0
 15807 012c 1C       		.byte	0x1c
 15808 012d 9F       		.byte	0x9f
 15809 012e 76010000 		.4byte	.LVL158
 15810 0132 7C010000 		.4byte	.LVL159
 15811 0136 0500     		.2byte	0x5
 15812 0138 44       		.byte	0x44
 15813 0139 74       		.byte	0x74
 15814 013a 00       		.sleb128 0
 15815 013b 1C       		.byte	0x1c
 15816 013c 9F       		.byte	0x9f
 15817 013d 00000000 		.4byte	0
 15818 0141 00000000 		.4byte	0
 15819              	.LLST25:
 15820 0145 AA000000 		.4byte	.LVL142
 15821 0149 B8000000 		.4byte	.LVL145
 15822 014d 0200     		.2byte	0x2
 15823 014f 30       		.byte	0x30
 15824 0150 9F       		.byte	0x9f
 15825 0151 B8000000 		.4byte	.LVL145
 15826 0155 BC000000 		.4byte	.LVL146
 15827 0159 0800     		.2byte	0x8
 15828 015b 73       		.byte	0x73
 15829 015c 00       		.sleb128 0
 15830 015d 91       		.byte	0x91
 15831 015e 00       		.sleb128 0
 15832 015f 1C       		.byte	0x1c
 15833 0160 23       		.byte	0x23
 15834 0161 3C       		.uleb128 0x3c
 15835 0162 9F       		.byte	0x9f
 15836 0163 BC000000 		.4byte	.LVL146
ARM GAS  /tmp/ccB9eNXv.s 			page 279


 15837 0167 C2000000 		.4byte	.LVL147
 15838 016b 0800     		.2byte	0x8
 15839 016d 73       		.byte	0x73
 15840 016e 00       		.sleb128 0
 15841 016f 91       		.byte	0x91
 15842 0170 00       		.sleb128 0
 15843 0171 1C       		.byte	0x1c
 15844 0172 23       		.byte	0x23
 15845 0173 3B       		.uleb128 0x3b
 15846 0174 9F       		.byte	0x9f
 15847 0175 C2000000 		.4byte	.LVL147
 15848 0179 C4000000 		.4byte	.LVL148
 15849 017d 0800     		.2byte	0x8
 15850 017f 73       		.byte	0x73
 15851 0180 00       		.sleb128 0
 15852 0181 91       		.byte	0x91
 15853 0182 00       		.sleb128 0
 15854 0183 1C       		.byte	0x1c
 15855 0184 23       		.byte	0x23
 15856 0185 3C       		.uleb128 0x3c
 15857 0186 9F       		.byte	0x9f
 15858 0187 98010000 		.4byte	.LVL165
 15859 018b E8010000 		.4byte	.LFE299
 15860 018f 0200     		.2byte	0x2
 15861 0191 30       		.byte	0x30
 15862 0192 9F       		.byte	0x9f
 15863 0193 00000000 		.4byte	0
 15864 0197 00000000 		.4byte	0
 15865              	.LLST24:
 15866 019b 26010000 		.4byte	.LVL152
 15867 019f 5A010000 		.4byte	.LVL153
 15868 01a3 0100     		.2byte	0x1
 15869 01a5 52       		.byte	0x52
 15870 01a6 5A010000 		.4byte	.LVL153
 15871 01aa 66010000 		.4byte	.LVL154
 15872 01ae 0500     		.2byte	0x5
 15873 01b0 03       		.byte	0x3
 15874 01b1 00000000 		.4byte	spi_val
 15875 01b5 00000000 		.4byte	0
 15876 01b9 00000000 		.4byte	0
 15877              	.LLST20:
 15878 01bd 00000000 		.4byte	.LVL125
 15879 01c1 18000000 		.4byte	.LVL127
 15880 01c5 0600     		.2byte	0x6
 15881 01c7 03       		.byte	0x3
 15882 01c8 00000000 		.4byte	.LC0
 15883 01cc 9F       		.byte	0x9f
 15884 01cd 00000000 		.4byte	0
 15885 01d1 00000000 		.4byte	0
 15886              	.LLST17:
 15887 01d5 00000000 		.4byte	.LVL115
 15888 01d9 0D000000 		.4byte	.LVL116-1
 15889 01dd 0100     		.2byte	0x1
 15890 01df 50       		.byte	0x50
 15891 01e0 0D000000 		.4byte	.LVL116-1
 15892 01e4 D4000000 		.4byte	.LFE298
 15893 01e8 0400     		.2byte	0x4
ARM GAS  /tmp/ccB9eNXv.s 			page 280


 15894 01ea F3       		.byte	0xf3
 15895 01eb 01       		.uleb128 0x1
 15896 01ec 50       		.byte	0x50
 15897 01ed 9F       		.byte	0x9f
 15898 01ee 00000000 		.4byte	0
 15899 01f2 00000000 		.4byte	0
 15900              	.LLST18:
 15901 01f6 42000000 		.4byte	.LVL118
 15902 01fa 4A000000 		.4byte	.LVL119
 15903 01fe 0100     		.2byte	0x1
 15904 0200 53       		.byte	0x53
 15905 0201 4A000000 		.4byte	.LVL119
 15906 0205 CA000000 		.4byte	.LVL124
 15907 0209 0200     		.2byte	0x2
 15908 020b 7D       		.byte	0x7d
 15909 020c 10       		.sleb128 16
 15910 020d CA000000 		.4byte	.LVL124
 15911 0211 D4000000 		.4byte	.LFE298
 15912 0215 0200     		.2byte	0x2
 15913 0217 91       		.byte	0x91
 15914 0218 78       		.sleb128 -8
 15915 0219 00000000 		.4byte	0
 15916 021d 00000000 		.4byte	0
 15917              	.LLST16:
 15918 0221 00000000 		.4byte	.LVL112
 15919 0225 10000000 		.4byte	.LVL113
 15920 0229 0100     		.2byte	0x1
 15921 022b 50       		.byte	0x50
 15922 022c 10000000 		.4byte	.LVL113
 15923 0230 15000000 		.4byte	.LVL114-1
 15924 0234 0100     		.2byte	0x1
 15925 0236 53       		.byte	0x53
 15926 0237 15000000 		.4byte	.LVL114-1
 15927 023b 2C000000 		.4byte	.LFE290
 15928 023f 0400     		.2byte	0x4
 15929 0241 F3       		.byte	0xf3
 15930 0242 01       		.uleb128 0x1
 15931 0243 50       		.byte	0x50
 15932 0244 9F       		.byte	0x9f
 15933 0245 00000000 		.4byte	0
 15934 0249 00000000 		.4byte	0
 15935              	.LLST8:
 15936 024d 28010000 		.4byte	.LVL83
 15937 0251 9A010000 		.4byte	.LVL90
 15938 0255 0100     		.2byte	0x1
 15939 0257 58       		.byte	0x58
 15940 0258 5C020000 		.4byte	.LVL101
 15941 025c 82020000 		.4byte	.LVL102
 15942 0260 0100     		.2byte	0x1
 15943 0262 58       		.byte	0x58
 15944 0263 5C030000 		.4byte	.LVL108
 15945 0267 9E030000 		.4byte	.LVL109
 15946 026b 0100     		.2byte	0x1
 15947 026d 58       		.byte	0x58
 15948 026e 00000000 		.4byte	0
 15949 0272 00000000 		.4byte	0
 15950              	.LLST9:
ARM GAS  /tmp/ccB9eNXv.s 			page 281


 15951 0276 48010000 		.4byte	.LVL87
 15952 027a 6A010000 		.4byte	.LVL89
 15953 027e 0100     		.2byte	0x1
 15954 0280 55       		.byte	0x55
 15955 0281 00000000 		.4byte	0
 15956 0285 00000000 		.4byte	0
 15957              	.LLST10:
 15958 0289 0E010000 		.4byte	.LVL80
 15959 028d 9A010000 		.4byte	.LVL90
 15960 0291 0400     		.2byte	0x4
 15961 0293 0B       		.byte	0xb
 15962 0294 0083     		.2byte	0x8300
 15963 0296 9F       		.byte	0x9f
 15964 0297 5C020000 		.4byte	.LVL101
 15965 029b 82020000 		.4byte	.LVL102
 15966 029f 0400     		.2byte	0x4
 15967 02a1 0B       		.byte	0xb
 15968 02a2 0083     		.2byte	0x8300
 15969 02a4 9F       		.byte	0x9f
 15970 02a5 5C030000 		.4byte	.LVL108
 15971 02a9 9E030000 		.4byte	.LVL109
 15972 02ad 0400     		.2byte	0x4
 15973 02af 0B       		.byte	0xb
 15974 02b0 0083     		.2byte	0x8300
 15975 02b2 9F       		.byte	0x9f
 15976 02b3 00000000 		.4byte	0
 15977 02b7 00000000 		.4byte	0
 15978              	.LLST11:
 15979 02bb 0E010000 		.4byte	.LVL80
 15980 02bf 9A010000 		.4byte	.LVL90
 15981 02c3 0400     		.2byte	0x4
 15982 02c5 0B       		.byte	0xb
 15983 02c6 0084     		.2byte	0x8400
 15984 02c8 9F       		.byte	0x9f
 15985 02c9 5C020000 		.4byte	.LVL101
 15986 02cd 82020000 		.4byte	.LVL102
 15987 02d1 0400     		.2byte	0x4
 15988 02d3 0B       		.byte	0xb
 15989 02d4 0084     		.2byte	0x8400
 15990 02d6 9F       		.byte	0x9f
 15991 02d7 5C030000 		.4byte	.LVL108
 15992 02db 9E030000 		.4byte	.LVL109
 15993 02df 0400     		.2byte	0x4
 15994 02e1 0B       		.byte	0xb
 15995 02e2 0084     		.2byte	0x8400
 15996 02e4 9F       		.byte	0x9f
 15997 02e5 00000000 		.4byte	0
 15998 02e9 00000000 		.4byte	0
 15999              	.LLST4:
 16000 02ed 54000000 		.4byte	.LVL70
 16001 02f1 A4000000 		.4byte	.LVL74
 16002 02f5 0500     		.2byte	0x5
 16003 02f7 72       		.byte	0x72
 16004 02f8 00       		.sleb128 0
 16005 02f9 38       		.byte	0x38
 16006 02fa 1A       		.byte	0x1a
 16007 02fb 9F       		.byte	0x9f
ARM GAS  /tmp/ccB9eNXv.s 			page 282


 16008 02fc A4000000 		.4byte	.LVL74
 16009 0300 0E010000 		.4byte	.LVL80
 16010 0304 0A00     		.2byte	0xa
 16011 0306 03       		.byte	0x3
 16012 0307 00000000 		.4byte	spi_val
 16013 030b 94       		.byte	0x94
 16014 030c 02       		.byte	0x2
 16015 030d 38       		.byte	0x38
 16016 030e 1A       		.byte	0x1a
 16017 030f 9F       		.byte	0x9f
 16018 0310 82020000 		.4byte	.LVL102
 16019 0314 B2020000 		.4byte	.LVL104
 16020 0318 0A00     		.2byte	0xa
 16021 031a 03       		.byte	0x3
 16022 031b 00000000 		.4byte	spi_val
 16023 031f 94       		.byte	0x94
 16024 0320 02       		.byte	0x2
 16025 0321 38       		.byte	0x38
 16026 0322 1A       		.byte	0x1a
 16027 0323 9F       		.byte	0x9f
 16028 0324 D2020000 		.4byte	.LVL105
 16029 0328 E0020000 		.4byte	.LVL106
 16030 032c 0A00     		.2byte	0xa
 16031 032e 03       		.byte	0x3
 16032 032f 00000000 		.4byte	spi_val
 16033 0333 94       		.byte	0x94
 16034 0334 02       		.byte	0x2
 16035 0335 38       		.byte	0x38
 16036 0336 1A       		.byte	0x1a
 16037 0337 9F       		.byte	0x9f
 16038 0338 E0020000 		.4byte	.LVL106
 16039 033c FE020000 		.4byte	.LVL107
 16040 0340 0500     		.2byte	0x5
 16041 0342 72       		.byte	0x72
 16042 0343 00       		.sleb128 0
 16043 0344 38       		.byte	0x38
 16044 0345 1A       		.byte	0x1a
 16045 0346 9F       		.byte	0x9f
 16046 0347 9E030000 		.4byte	.LVL109
 16047 034b D0030000 		.4byte	.LVL111
 16048 034f 0A00     		.2byte	0xa
 16049 0351 03       		.byte	0x3
 16050 0352 00000000 		.4byte	spi_val
 16051 0356 94       		.byte	0x94
 16052 0357 02       		.byte	0x2
 16053 0358 38       		.byte	0x38
 16054 0359 1A       		.byte	0x1a
 16055 035a 9F       		.byte	0x9f
 16056 035b D0030000 		.4byte	.LVL111
 16057 035f F0030000 		.4byte	.LFE289
 16058 0363 0500     		.2byte	0x5
 16059 0365 72       		.byte	0x72
 16060 0366 00       		.sleb128 0
 16061 0367 38       		.byte	0x38
 16062 0368 1A       		.byte	0x1a
 16063 0369 9F       		.byte	0x9f
 16064 036a 00000000 		.4byte	0
ARM GAS  /tmp/ccB9eNXv.s 			page 283


 16065 036e 00000000 		.4byte	0
 16066              	.LLST5:
 16067 0372 58000000 		.4byte	.LVL71
 16068 0376 86000000 		.4byte	.LVL72
 16069 037a 0900     		.2byte	0x9
 16070 037c 72       		.byte	0x72
 16071 037d 00       		.sleb128 0
 16072 037e 34       		.byte	0x34
 16073 037f 1A       		.byte	0x1a
 16074 0380 40       		.byte	0x40
 16075 0381 24       		.byte	0x24
 16076 0382 30       		.byte	0x30
 16077 0383 29       		.byte	0x29
 16078 0384 9F       		.byte	0x9f
 16079 0385 86000000 		.4byte	.LVL72
 16080 0389 F0000000 		.4byte	.LVL79
 16081 038d 0100     		.2byte	0x1
 16082 038f 50       		.byte	0x50
 16083 0390 82020000 		.4byte	.LVL102
 16084 0394 94020000 		.4byte	.LVL103
 16085 0398 0100     		.2byte	0x1
 16086 039a 50       		.byte	0x50
 16087 039b D2020000 		.4byte	.LVL105
 16088 039f FE020000 		.4byte	.LVL107
 16089 03a3 0100     		.2byte	0x1
 16090 03a5 50       		.byte	0x50
 16091 03a6 9E030000 		.4byte	.LVL109
 16092 03aa D0030000 		.4byte	.LVL111
 16093 03ae 0100     		.2byte	0x1
 16094 03b0 50       		.byte	0x50
 16095 03b1 D0030000 		.4byte	.LVL111
 16096 03b5 F0030000 		.4byte	.LFE289
 16097 03b9 0900     		.2byte	0x9
 16098 03bb 72       		.byte	0x72
 16099 03bc 00       		.sleb128 0
 16100 03bd 34       		.byte	0x34
 16101 03be 1A       		.byte	0x1a
 16102 03bf 40       		.byte	0x40
 16103 03c0 24       		.byte	0x24
 16104 03c1 30       		.byte	0x30
 16105 03c2 29       		.byte	0x29
 16106 03c3 9F       		.byte	0x9f
 16107 03c4 00000000 		.4byte	0
 16108 03c8 00000000 		.4byte	0
 16109              	.LLST6:
 16110 03cc 58000000 		.4byte	.LVL71
 16111 03d0 86000000 		.4byte	.LVL72
 16112 03d4 0900     		.2byte	0x9
 16113 03d6 72       		.byte	0x72
 16114 03d7 00       		.sleb128 0
 16115 03d8 32       		.byte	0x32
 16116 03d9 1A       		.byte	0x1a
 16117 03da 40       		.byte	0x40
 16118 03db 24       		.byte	0x24
 16119 03dc 30       		.byte	0x30
 16120 03dd 29       		.byte	0x29
 16121 03de 9F       		.byte	0x9f
ARM GAS  /tmp/ccB9eNXv.s 			page 284


 16122 03df 86000000 		.4byte	.LVL72
 16123 03e3 D4000000 		.4byte	.LVL77
 16124 03e7 0100     		.2byte	0x1
 16125 03e9 51       		.byte	0x51
 16126 03ea D2020000 		.4byte	.LVL105
 16127 03ee FE020000 		.4byte	.LVL107
 16128 03f2 0100     		.2byte	0x1
 16129 03f4 51       		.byte	0x51
 16130 03f5 D0030000 		.4byte	.LVL111
 16131 03f9 F0030000 		.4byte	.LFE289
 16132 03fd 0900     		.2byte	0x9
 16133 03ff 72       		.byte	0x72
 16134 0400 00       		.sleb128 0
 16135 0401 32       		.byte	0x32
 16136 0402 1A       		.byte	0x1a
 16137 0403 40       		.byte	0x40
 16138 0404 24       		.byte	0x24
 16139 0405 30       		.byte	0x30
 16140 0406 29       		.byte	0x29
 16141 0407 9F       		.byte	0x9f
 16142 0408 00000000 		.4byte	0
 16143 040c 00000000 		.4byte	0
 16144              	.LLST7:
 16145 0410 A0000000 		.4byte	.LVL73
 16146 0414 B2000000 		.4byte	.LVL75
 16147 0418 0100     		.2byte	0x1
 16148 041a 53       		.byte	0x53
 16149 041b B2000000 		.4byte	.LVL75
 16150 041f D0000000 		.4byte	.LVL76
 16151 0423 0200     		.2byte	0x2
 16152 0425 30       		.byte	0x30
 16153 0426 9F       		.byte	0x9f
 16154 0427 D0000000 		.4byte	.LVL76
 16155 042b E2000000 		.4byte	.LVL78
 16156 042f 0100     		.2byte	0x1
 16157 0431 53       		.byte	0x53
 16158 0432 E2000000 		.4byte	.LVL78
 16159 0436 0E010000 		.4byte	.LVL80
 16160 043a 0200     		.2byte	0x2
 16161 043c 30       		.byte	0x30
 16162 043d 9F       		.byte	0x9f
 16163 043e 82020000 		.4byte	.LVL102
 16164 0442 94020000 		.4byte	.LVL103
 16165 0446 0100     		.2byte	0x1
 16166 0448 53       		.byte	0x53
 16167 0449 94020000 		.4byte	.LVL103
 16168 044d B2020000 		.4byte	.LVL104
 16169 0451 0200     		.2byte	0x2
 16170 0453 30       		.byte	0x30
 16171 0454 9F       		.byte	0x9f
 16172 0455 D2020000 		.4byte	.LVL105
 16173 0459 E0020000 		.4byte	.LVL106
 16174 045d 0100     		.2byte	0x1
 16175 045f 53       		.byte	0x53
 16176 0460 E0020000 		.4byte	.LVL106
 16177 0464 FE020000 		.4byte	.LVL107
 16178 0468 0200     		.2byte	0x2
ARM GAS  /tmp/ccB9eNXv.s 			page 285


 16179 046a 30       		.byte	0x30
 16180 046b 9F       		.byte	0x9f
 16181 046c 9E030000 		.4byte	.LVL109
 16182 0470 B0030000 		.4byte	.LVL110
 16183 0474 0100     		.2byte	0x1
 16184 0476 53       		.byte	0x53
 16185 0477 00000000 		.4byte	0
 16186 047b 00000000 		.4byte	0
 16187              	.LLST12:
 16188 047f D2010000 		.4byte	.LVL94
 16189 0483 DC010000 		.4byte	.LVL95
 16190 0487 0200     		.2byte	0x2
 16191 0489 31       		.byte	0x31
 16192 048a 9F       		.byte	0x9f
 16193 048b FE020000 		.4byte	.LVL107
 16194 048f 5C030000 		.4byte	.LVL108
 16195 0493 0200     		.2byte	0x2
 16196 0495 31       		.byte	0x31
 16197 0496 9F       		.byte	0x9f
 16198 0497 00000000 		.4byte	0
 16199 049b 00000000 		.4byte	0
 16200              	.LLST13:
 16201 049f DC010000 		.4byte	.LVL95
 16202 04a3 E0010000 		.4byte	.LVL96
 16203 04a7 0200     		.2byte	0x2
 16204 04a9 91       		.byte	0x91
 16205 04aa 66       		.sleb128 -26
 16206 04ab E0010000 		.4byte	.LVL96
 16207 04af E8010000 		.4byte	.LVL98
 16208 04b3 0100     		.2byte	0x1
 16209 04b5 53       		.byte	0x53
 16210 04b6 00000000 		.4byte	0
 16211 04ba 00000000 		.4byte	0
 16212              	.LLST14:
 16213 04be 3C020000 		.4byte	.LVL99
 16214 04c2 4C020000 		.4byte	.LVL100
 16215 04c6 0200     		.2byte	0x2
 16216 04c8 30       		.byte	0x30
 16217 04c9 9F       		.byte	0x9f
 16218 04ca 00000000 		.4byte	0
 16219 04ce 00000000 		.4byte	0
 16220              	.LLST2:
 16221 04d2 18000000 		.4byte	.LVL59
 16222 04d6 44000000 		.4byte	.LVL60
 16223 04da 0100     		.2byte	0x1
 16224 04dc 50       		.byte	0x50
 16225 04dd 4E000000 		.4byte	.LVL62
 16226 04e1 74000000 		.4byte	.LFE285
 16227 04e5 0100     		.2byte	0x1
 16228 04e7 50       		.byte	0x50
 16229 04e8 00000000 		.4byte	0
 16230 04ec 00000000 		.4byte	0
 16231              	.LLST3:
 16232 04f0 18000000 		.4byte	.LVL59
 16233 04f4 46000000 		.4byte	.LVL61
 16234 04f8 0F00     		.2byte	0xf
 16235 04fa 03       		.byte	0x3
ARM GAS  /tmp/ccB9eNXv.s 			page 286


 16236 04fb 00000000 		.4byte	enc_counts
 16237 04ff 06       		.byte	0x6
 16238 0500 F7       		.byte	0xf7
 16239 0501 25       		.uleb128 0x25
 16240 0502 44       		.byte	0x44
 16241 0503 F7       		.byte	0xf7
 16242 0504 25       		.uleb128 0x25
 16243 0505 1B       		.byte	0x1b
 16244 0506 F7       		.byte	0xf7
 16245 0507 00       		.uleb128 0
 16246 0508 9F       		.byte	0x9f
 16247 0509 4E000000 		.4byte	.LVL62
 16248 050d 56000000 		.4byte	.LVL63
 16249 0511 0F00     		.2byte	0xf
 16250 0513 03       		.byte	0x3
 16251 0514 00000000 		.4byte	enc_counts
 16252 0518 06       		.byte	0x6
 16253 0519 F7       		.byte	0xf7
 16254 051a 25       		.uleb128 0x25
 16255 051b 44       		.byte	0x44
 16256 051c F7       		.byte	0xf7
 16257 051d 25       		.uleb128 0x25
 16258 051e 1B       		.byte	0x1b
 16259 051f F7       		.byte	0xf7
 16260 0520 00       		.uleb128 0
 16261 0521 9F       		.byte	0x9f
 16262 0522 00000000 		.4byte	0
 16263 0526 00000000 		.4byte	0
 16264              	.LLST1:
 16265 052a 26000000 		.4byte	.LVL52
 16266 052e 34000000 		.4byte	.LVL53
 16267 0532 0200     		.2byte	0x2
 16268 0534 90       		.byte	0x90
 16269 0535 4F       		.uleb128 0x4f
 16270 0536 34000000 		.4byte	.LVL53
 16271 053a 3E000000 		.4byte	.LVL54
 16272 053e 0600     		.2byte	0x6
 16273 0540 9E       		.byte	0x9e
 16274 0541 04       		.uleb128 0x4
 16275 0542 00000000 		.4byte	0
 16276 0546 5C000000 		.4byte	.LVL56
 16277 054a 62000000 		.4byte	.LVL57
 16278 054e 0200     		.2byte	0x2
 16279 0550 90       		.byte	0x90
 16280 0551 4F       		.uleb128 0x4f
 16281 0552 00000000 		.4byte	0
 16282 0556 00000000 		.4byte	0
 16283              	.LLST0:
 16284 055a 00000000 		.4byte	.LVL13
 16285 055e 10000000 		.4byte	.LVL14
 16286 0562 0100     		.2byte	0x1
 16287 0564 50       		.byte	0x50
 16288 0565 10000000 		.4byte	.LVL14
 16289 0569 1B000000 		.4byte	.LVL15-1
 16290 056d 0500     		.2byte	0x5
 16291 056f 03       		.byte	0x3
 16292 0570 00000000 		.4byte	enc_counts
ARM GAS  /tmp/ccB9eNXv.s 			page 287


 16293 0574 1B000000 		.4byte	.LVL15-1
 16294 0578 B4000000 		.4byte	.LFE276
 16295 057c 0400     		.2byte	0x4
 16296 057e F3       		.byte	0xf3
 16297 057f 01       		.uleb128 0x1
 16298 0580 50       		.byte	0x50
 16299 0581 9F       		.byte	0x9f
 16300 0582 00000000 		.4byte	0
 16301 0586 00000000 		.4byte	0
 16302              	.LLST28:
 16303 058a 00000000 		.4byte	.LVL166
 16304 058e 0E000000 		.4byte	.LVL167
 16305 0592 0100     		.2byte	0x1
 16306 0594 50       		.byte	0x50
 16307 0595 0E000000 		.4byte	.LVL167
 16308 0599 6C000000 		.4byte	.LFE302
 16309 059d 0100     		.2byte	0x1
 16310 059f 5E       		.byte	0x5e
 16311 05a0 00000000 		.4byte	0
 16312 05a4 00000000 		.4byte	0
 16313              	.LLST29:
 16314 05a8 00000000 		.4byte	.LVL166
 16315 05ac 64000000 		.4byte	.LVL179
 16316 05b0 0200     		.2byte	0x2
 16317 05b2 30       		.byte	0x30
 16318 05b3 9F       		.byte	0x9f
 16319 05b4 64000000 		.4byte	.LVL179
 16320 05b8 6C000000 		.4byte	.LFE302
 16321 05bc 0200     		.2byte	0x2
 16322 05be 31       		.byte	0x31
 16323 05bf 9F       		.byte	0x9f
 16324 05c0 00000000 		.4byte	0
 16325 05c4 00000000 		.4byte	0
 16326              	.LLST30:
 16327 05c8 00000000 		.4byte	.LVL166
 16328 05cc 0E000000 		.4byte	.LVL167
 16329 05d0 0200     		.2byte	0x2
 16330 05d2 30       		.byte	0x30
 16331 05d3 9F       		.byte	0x9f
 16332 05d4 0E000000 		.4byte	.LVL167
 16333 05d8 48000000 		.4byte	.LVL174
 16334 05dc 0100     		.2byte	0x1
 16335 05de 51       		.byte	0x51
 16336 05df 4C000000 		.4byte	.LVL175
 16337 05e3 6C000000 		.4byte	.LFE302
 16338 05e7 0100     		.2byte	0x1
 16339 05e9 51       		.byte	0x51
 16340 05ea 00000000 		.4byte	0
 16341 05ee 00000000 		.4byte	0
 16342              	.LLST31:
 16343 05f2 00000000 		.4byte	.LVL166
 16344 05f6 0E000000 		.4byte	.LVL167
 16345 05fa 0200     		.2byte	0x2
 16346 05fc 30       		.byte	0x30
 16347 05fd 9F       		.byte	0x9f
 16348 05fe 0E000000 		.4byte	.LVL167
 16349 0602 5C000000 		.4byte	.LVL177
ARM GAS  /tmp/ccB9eNXv.s 			page 288


 16350 0606 0500     		.2byte	0x5
 16351 0608 40       		.byte	0x40
 16352 0609 76       		.byte	0x76
 16353 060a 00       		.sleb128 0
 16354 060b 1C       		.byte	0x1c
 16355 060c 9F       		.byte	0x9f
 16356 060d 5C000000 		.4byte	.LVL177
 16357 0611 5E000000 		.4byte	.LVL178
 16358 0615 0500     		.2byte	0x5
 16359 0617 41       		.byte	0x41
 16360 0618 76       		.byte	0x76
 16361 0619 00       		.sleb128 0
 16362 061a 1C       		.byte	0x1c
 16363 061b 9F       		.byte	0x9f
 16364 061c 5E000000 		.4byte	.LVL178
 16365 0620 66000000 		.4byte	.LVL180
 16366 0624 0500     		.2byte	0x5
 16367 0626 40       		.byte	0x40
 16368 0627 76       		.byte	0x76
 16369 0628 00       		.sleb128 0
 16370 0629 1C       		.byte	0x1c
 16371 062a 9F       		.byte	0x9f
 16372 062b 00000000 		.4byte	0
 16373 062f 00000000 		.4byte	0
 16374              	.LLST32:
 16375 0633 18000000 		.4byte	.LVL168
 16376 0637 1A000000 		.4byte	.LVL169
 16377 063b 0200     		.2byte	0x2
 16378 063d 30       		.byte	0x30
 16379 063e 9F       		.byte	0x9f
 16380 063f 1A000000 		.4byte	.LVL169
 16381 0643 1E000000 		.4byte	.LVL170
 16382 0647 0700     		.2byte	0x7
 16383 0649 73       		.byte	0x73
 16384 064a 00       		.sleb128 0
 16385 064b 37       		.byte	0x37
 16386 064c 25       		.byte	0x25
 16387 064d 31       		.byte	0x31
 16388 064e 1A       		.byte	0x1a
 16389 064f 9F       		.byte	0x9f
 16390 0650 1E000000 		.4byte	.LVL170
 16391 0654 22000000 		.4byte	.LVL171
 16392 0658 0E00     		.2byte	0xe
 16393 065a 73       		.byte	0x73
 16394 065b 00       		.sleb128 0
 16395 065c 37       		.byte	0x37
 16396 065d 25       		.byte	0x25
 16397 065e 31       		.byte	0x31
 16398 065f 1A       		.byte	0x1a
 16399 0660 70       		.byte	0x70
 16400 0661 00       		.sleb128 0
 16401 0662 37       		.byte	0x37
 16402 0663 25       		.byte	0x25
 16403 0664 31       		.byte	0x31
 16404 0665 1A       		.byte	0x1a
 16405 0666 22       		.byte	0x22
 16406 0667 9F       		.byte	0x9f
ARM GAS  /tmp/ccB9eNXv.s 			page 289


 16407 0668 22000000 		.4byte	.LVL171
 16408 066c 26000000 		.4byte	.LVL172
 16409 0670 1500     		.2byte	0x15
 16410 0672 73       		.byte	0x73
 16411 0673 00       		.sleb128 0
 16412 0674 37       		.byte	0x37
 16413 0675 25       		.byte	0x25
 16414 0676 31       		.byte	0x31
 16415 0677 1A       		.byte	0x1a
 16416 0678 70       		.byte	0x70
 16417 0679 00       		.sleb128 0
 16418 067a 37       		.byte	0x37
 16419 067b 25       		.byte	0x25
 16420 067c 31       		.byte	0x31
 16421 067d 1A       		.byte	0x1a
 16422 067e 22       		.byte	0x22
 16423 067f 74       		.byte	0x74
 16424 0680 00       		.sleb128 0
 16425 0681 37       		.byte	0x37
 16426 0682 25       		.byte	0x25
 16427 0683 31       		.byte	0x31
 16428 0684 1A       		.byte	0x1a
 16429 0685 22       		.byte	0x22
 16430 0686 9F       		.byte	0x9f
 16431 0687 26000000 		.4byte	.LVL172
 16432 068b 30000000 		.4byte	.LVL173
 16433 068f 1C00     		.2byte	0x1c
 16434 0691 73       		.byte	0x73
 16435 0692 00       		.sleb128 0
 16436 0693 37       		.byte	0x37
 16437 0694 25       		.byte	0x25
 16438 0695 31       		.byte	0x31
 16439 0696 1A       		.byte	0x1a
 16440 0697 74       		.byte	0x74
 16441 0698 00       		.sleb128 0
 16442 0699 37       		.byte	0x37
 16443 069a 25       		.byte	0x25
 16444 069b 31       		.byte	0x31
 16445 069c 1A       		.byte	0x1a
 16446 069d 22       		.byte	0x22
 16447 069e 75       		.byte	0x75
 16448 069f 00       		.sleb128 0
 16449 06a0 37       		.byte	0x37
 16450 06a1 25       		.byte	0x25
 16451 06a2 31       		.byte	0x31
 16452 06a3 1A       		.byte	0x1a
 16453 06a4 22       		.byte	0x22
 16454 06a5 70       		.byte	0x70
 16455 06a6 00       		.sleb128 0
 16456 06a7 37       		.byte	0x37
 16457 06a8 25       		.byte	0x25
 16458 06a9 31       		.byte	0x31
 16459 06aa 1A       		.byte	0x1a
 16460 06ab 22       		.byte	0x22
 16461 06ac 9F       		.byte	0x9f
 16462 06ad 00000000 		.4byte	0
 16463 06b1 00000000 		.4byte	0
ARM GAS  /tmp/ccB9eNXv.s 			page 290


 16464              		.section	.debug_aranges,"",%progbits
 16465 0000 4C010000 		.4byte	0x14c
 16466 0004 0200     		.2byte	0x2
 16467 0006 00000000 		.4byte	.Ldebug_info0
 16468 000a 04       		.byte	0x4
 16469 000b 00       		.byte	0
 16470 000c 0000     		.2byte	0
 16471 000e 0000     		.2byte	0
 16472 0010 00000000 		.4byte	.LFB256
 16473 0014 0C000000 		.4byte	.LFE256-.LFB256
 16474 0018 00000000 		.4byte	.LFB257
 16475 001c 0C000000 		.4byte	.LFE257-.LFB257
 16476 0020 00000000 		.4byte	.LFB258
 16477 0024 0C000000 		.4byte	.LFE258-.LFB258
 16478 0028 00000000 		.4byte	.LFB259
 16479 002c 0C000000 		.4byte	.LFE259-.LFB259
 16480 0030 00000000 		.4byte	.LFB260
 16481 0034 0C000000 		.4byte	.LFE260-.LFB260
 16482 0038 00000000 		.4byte	.LFB261
 16483 003c 0C000000 		.4byte	.LFE261-.LFB261
 16484 0040 00000000 		.4byte	.LFB262
 16485 0044 0C000000 		.4byte	.LFE262-.LFB262
 16486 0048 00000000 		.4byte	.LFB263
 16487 004c 0C000000 		.4byte	.LFE263-.LFB263
 16488 0050 00000000 		.4byte	.LFB264
 16489 0054 0C000000 		.4byte	.LFE264-.LFB264
 16490 0058 00000000 		.4byte	.LFB265
 16491 005c 0C000000 		.4byte	.LFE265-.LFB265
 16492 0060 00000000 		.4byte	.LFB266
 16493 0064 0C000000 		.4byte	.LFE266-.LFB266
 16494 0068 00000000 		.4byte	.LFB267
 16495 006c 0C000000 		.4byte	.LFE267-.LFB267
 16496 0070 00000000 		.4byte	.LFB268
 16497 0074 0C000000 		.4byte	.LFE268-.LFB268
 16498 0078 00000000 		.4byte	.LFB269
 16499 007c 0C000000 		.4byte	.LFE269-.LFB269
 16500 0080 00000000 		.4byte	.LFB270
 16501 0084 0C000000 		.4byte	.LFE270-.LFB270
 16502 0088 00000000 		.4byte	.LFB271
 16503 008c 08000000 		.4byte	.LFE271-.LFB271
 16504 0090 00000000 		.4byte	.LFB272
 16505 0094 14000000 		.4byte	.LFE272-.LFB272
 16506 0098 00000000 		.4byte	.LFB273
 16507 009c 0C000000 		.4byte	.LFE273-.LFB273
 16508 00a0 00000000 		.4byte	.LFB274
 16509 00a4 0C000000 		.4byte	.LFE274-.LFB274
 16510 00a8 00000000 		.4byte	.LFB275
 16511 00ac E4000000 		.4byte	.LFE275-.LFB275
 16512 00b0 00000000 		.4byte	.LFB276
 16513 00b4 B4000000 		.4byte	.LFE276-.LFB276
 16514 00b8 00000000 		.4byte	.LFB277
 16515 00bc 90000000 		.4byte	.LFE277-.LFB277
 16516 00c0 00000000 		.4byte	.LFB278
 16517 00c4 AC000000 		.4byte	.LFE278-.LFB278
 16518 00c8 00000000 		.4byte	.LFB279
 16519 00cc B0000000 		.4byte	.LFE279-.LFB279
 16520 00d0 00000000 		.4byte	.LFB280
ARM GAS  /tmp/ccB9eNXv.s 			page 291


 16521 00d4 3C000000 		.4byte	.LFE280-.LFB280
 16522 00d8 00000000 		.4byte	.LFB281
 16523 00dc 58000000 		.4byte	.LFE281-.LFB281
 16524 00e0 00000000 		.4byte	.LFB282
 16525 00e4 10000000 		.4byte	.LFE282-.LFB282
 16526 00e8 00000000 		.4byte	.LFB283
 16527 00ec 70000000 		.4byte	.LFE283-.LFB283
 16528 00f0 00000000 		.4byte	.LFB284
 16529 00f4 84000000 		.4byte	.LFE284-.LFB284
 16530 00f8 00000000 		.4byte	.LFB285
 16531 00fc 74000000 		.4byte	.LFE285-.LFB285
 16532 0100 00000000 		.4byte	.LFB288
 16533 0104 20000000 		.4byte	.LFE288-.LFB288
 16534 0108 00000000 		.4byte	.LFB289
 16535 010c F0030000 		.4byte	.LFE289-.LFB289
 16536 0110 00000000 		.4byte	.LFB290
 16537 0114 2C000000 		.4byte	.LFE290-.LFB290
 16538 0118 00000000 		.4byte	.LFB291
 16539 011c 0C000000 		.4byte	.LFE291-.LFB291
 16540 0120 00000000 		.4byte	.LFB296
 16541 0124 52000000 		.4byte	.LFE296-.LFB296
 16542 0128 00000000 		.4byte	.LFB297
 16543 012c 30000000 		.4byte	.LFE297-.LFB297
 16544 0130 00000000 		.4byte	.LFB298
 16545 0134 D4000000 		.4byte	.LFE298-.LFB298
 16546 0138 00000000 		.4byte	.LFB299
 16547 013c E8010000 		.4byte	.LFE299-.LFB299
 16548 0140 00000000 		.4byte	.LFB302
 16549 0144 6C000000 		.4byte	.LFE302-.LFB302
 16550 0148 00000000 		.4byte	0
 16551 014c 00000000 		.4byte	0
 16552              		.section	.debug_ranges,"",%progbits
 16553              	.Ldebug_ranges0:
 16554 0000 0A000000 		.4byte	.LBB378
 16555 0004 0C000000 		.4byte	.LBE378
 16556 0008 10000000 		.4byte	.LBB381
 16557 000c 14000000 		.4byte	.LBE381
 16558 0010 00000000 		.4byte	0
 16559 0014 00000000 		.4byte	0
 16560 0018 10000000 		.4byte	.LBB394
 16561 001c 4C000000 		.4byte	.LBE394
 16562 0020 4E000000 		.4byte	.LBB395
 16563 0024 74000000 		.4byte	.LBE395
 16564 0028 00000000 		.4byte	0
 16565 002c 00000000 		.4byte	0
 16566 0030 1E000000 		.4byte	.LBB454
 16567 0034 0E010000 		.4byte	.LBE454
 16568 0038 82020000 		.4byte	.LBB528
 16569 003c B2020000 		.4byte	.LBE528
 16570 0040 D2020000 		.4byte	.LBB529
 16571 0044 FE020000 		.4byte	.LBE529
 16572 0048 9E030000 		.4byte	.LBB532
 16573 004c CE030000 		.4byte	.LBE532
 16574 0050 D0030000 		.4byte	.LBB533
 16575 0054 F0030000 		.4byte	.LBE533
 16576 0058 00000000 		.4byte	0
 16577 005c 00000000 		.4byte	0
ARM GAS  /tmp/ccB9eNXv.s 			page 292


 16578 0060 68000000 		.4byte	.LBB477
 16579 0064 0E010000 		.4byte	.LBE477
 16580 0068 82020000 		.4byte	.LBB478
 16581 006c B2020000 		.4byte	.LBE478
 16582 0070 D2020000 		.4byte	.LBB479
 16583 0074 FE020000 		.4byte	.LBE479
 16584 0078 9E030000 		.4byte	.LBB480
 16585 007c CE030000 		.4byte	.LBE480
 16586 0080 D0030000 		.4byte	.LBB481
 16587 0084 F0030000 		.4byte	.LBE481
 16588 0088 00000000 		.4byte	0
 16589 008c 00000000 		.4byte	0
 16590 0090 0E010000 		.4byte	.LBB482
 16591 0094 9A010000 		.4byte	.LBE482
 16592 0098 5C020000 		.4byte	.LBB527
 16593 009c 82020000 		.4byte	.LBE527
 16594 00a0 5C030000 		.4byte	.LBB531
 16595 00a4 9E030000 		.4byte	.LBE531
 16596 00a8 00000000 		.4byte	0
 16597 00ac 00000000 		.4byte	0
 16598 00b0 24010000 		.4byte	.LBB485
 16599 00b4 26010000 		.4byte	.LBE485
 16600 00b8 28010000 		.4byte	.LBB488
 16601 00bc 2C010000 		.4byte	.LBE488
 16602 00c0 00000000 		.4byte	0
 16603 00c4 00000000 		.4byte	0
 16604 00c8 44010000 		.4byte	.LBB500
 16605 00cc 46010000 		.4byte	.LBE500
 16606 00d0 48010000 		.4byte	.LBB503
 16607 00d4 4C010000 		.4byte	.LBE503
 16608 00d8 00000000 		.4byte	0
 16609 00dc 00000000 		.4byte	0
 16610 00e0 52010000 		.4byte	.LBB504
 16611 00e4 5E010000 		.4byte	.LBE504
 16612 00e8 64010000 		.4byte	.LBB507
 16613 00ec 68010000 		.4byte	.LBE507
 16614 00f0 00000000 		.4byte	0
 16615 00f4 00000000 		.4byte	0
 16616 00f8 C8010000 		.4byte	.LBB512
 16617 00fc CA010000 		.4byte	.LBE512
 16618 0100 CC010000 		.4byte	.LBB517
 16619 0104 CE010000 		.4byte	.LBE517
 16620 0108 D2010000 		.4byte	.LBB518
 16621 010c DC010000 		.4byte	.LBE518
 16622 0110 FE020000 		.4byte	.LBB530
 16623 0114 5C030000 		.4byte	.LBE530
 16624 0118 00000000 		.4byte	0
 16625 011c 00000000 		.4byte	0
 16626 0120 3C020000 		.4byte	.LBB521
 16627 0124 50020000 		.4byte	.LBE521
 16628 0128 54020000 		.4byte	.LBB526
 16629 012c 58020000 		.4byte	.LBE526
 16630 0130 00000000 		.4byte	0
 16631 0134 00000000 		.4byte	0
 16632 0138 04000000 		.4byte	.LBB715
 16633 013c 0A000000 		.4byte	.LBE715
 16634 0140 16000000 		.4byte	.LBB724
ARM GAS  /tmp/ccB9eNXv.s 			page 293


 16635 0144 18000000 		.4byte	.LBE724
 16636 0148 00000000 		.4byte	0
 16637 014c 00000000 		.4byte	0
 16638 0150 0E000000 		.4byte	.LBB718
 16639 0154 12000000 		.4byte	.LBE718
 16640 0158 42000000 		.4byte	.LBB725
 16641 015c F2000000 		.4byte	.LBE725
 16642 0160 FC000000 		.4byte	.LBB726
 16643 0164 E8010000 		.4byte	.LBE726
 16644 0168 00000000 		.4byte	0
 16645 016c 00000000 		.4byte	0
 16646 0170 54000000 		.4byte	.LBB719
 16647 0174 5C000000 		.4byte	.LBE719
 16648 0178 04010000 		.4byte	.LBB721
 16649 017c 64010000 		.4byte	.LBE721
 16650 0180 00000000 		.4byte	0
 16651 0184 00000000 		.4byte	0
 16652 0188 00000000 		.4byte	.LBB727
 16653 018c 02000000 		.4byte	.LBE727
 16654 0190 04000000 		.4byte	.LBB761
 16655 0194 06000000 		.4byte	.LBE761
 16656 0198 0A000000 		.4byte	.LBB762
 16657 019c 64000000 		.4byte	.LBE762
 16658 01a0 00000000 		.4byte	0
 16659 01a4 00000000 		.4byte	0
 16660 01a8 00000000 		.4byte	.LBB729
 16661 01ac 02000000 		.4byte	.LBE729
 16662 01b0 0A000000 		.4byte	.LBB758
 16663 01b4 60000000 		.4byte	.LBE758
 16664 01b8 00000000 		.4byte	0
 16665 01bc 00000000 		.4byte	0
 16666 01c0 00000000 		.4byte	.LBB730
 16667 01c4 02000000 		.4byte	.LBE730
 16668 01c8 0A000000 		.4byte	.LBB757
 16669 01cc 5C000000 		.4byte	.LBE757
 16670 01d0 00000000 		.4byte	0
 16671 01d4 00000000 		.4byte	0
 16672 01d8 00000000 		.4byte	.LFB256
 16673 01dc 0C000000 		.4byte	.LFE256
 16674 01e0 00000000 		.4byte	.LFB257
 16675 01e4 0C000000 		.4byte	.LFE257
 16676 01e8 00000000 		.4byte	.LFB258
 16677 01ec 0C000000 		.4byte	.LFE258
 16678 01f0 00000000 		.4byte	.LFB259
 16679 01f4 0C000000 		.4byte	.LFE259
 16680 01f8 00000000 		.4byte	.LFB260
 16681 01fc 0C000000 		.4byte	.LFE260
 16682 0200 00000000 		.4byte	.LFB261
 16683 0204 0C000000 		.4byte	.LFE261
 16684 0208 00000000 		.4byte	.LFB262
 16685 020c 0C000000 		.4byte	.LFE262
 16686 0210 00000000 		.4byte	.LFB263
 16687 0214 0C000000 		.4byte	.LFE263
 16688 0218 00000000 		.4byte	.LFB264
 16689 021c 0C000000 		.4byte	.LFE264
 16690 0220 00000000 		.4byte	.LFB265
 16691 0224 0C000000 		.4byte	.LFE265
ARM GAS  /tmp/ccB9eNXv.s 			page 294


 16692 0228 00000000 		.4byte	.LFB266
 16693 022c 0C000000 		.4byte	.LFE266
 16694 0230 00000000 		.4byte	.LFB267
 16695 0234 0C000000 		.4byte	.LFE267
 16696 0238 00000000 		.4byte	.LFB268
 16697 023c 0C000000 		.4byte	.LFE268
 16698 0240 00000000 		.4byte	.LFB269
 16699 0244 0C000000 		.4byte	.LFE269
 16700 0248 00000000 		.4byte	.LFB270
 16701 024c 0C000000 		.4byte	.LFE270
 16702 0250 00000000 		.4byte	.LFB271
 16703 0254 08000000 		.4byte	.LFE271
 16704 0258 00000000 		.4byte	.LFB272
 16705 025c 14000000 		.4byte	.LFE272
 16706 0260 00000000 		.4byte	.LFB273
 16707 0264 0C000000 		.4byte	.LFE273
 16708 0268 00000000 		.4byte	.LFB274
 16709 026c 0C000000 		.4byte	.LFE274
 16710 0270 00000000 		.4byte	.LFB275
 16711 0274 E4000000 		.4byte	.LFE275
 16712 0278 00000000 		.4byte	.LFB276
 16713 027c B4000000 		.4byte	.LFE276
 16714 0280 00000000 		.4byte	.LFB277
 16715 0284 90000000 		.4byte	.LFE277
 16716 0288 00000000 		.4byte	.LFB278
 16717 028c AC000000 		.4byte	.LFE278
 16718 0290 00000000 		.4byte	.LFB279
 16719 0294 B0000000 		.4byte	.LFE279
 16720 0298 00000000 		.4byte	.LFB280
 16721 029c 3C000000 		.4byte	.LFE280
 16722 02a0 00000000 		.4byte	.LFB281
 16723 02a4 58000000 		.4byte	.LFE281
 16724 02a8 00000000 		.4byte	.LFB282
 16725 02ac 10000000 		.4byte	.LFE282
 16726 02b0 00000000 		.4byte	.LFB283
 16727 02b4 70000000 		.4byte	.LFE283
 16728 02b8 00000000 		.4byte	.LFB284
 16729 02bc 84000000 		.4byte	.LFE284
 16730 02c0 00000000 		.4byte	.LFB285
 16731 02c4 74000000 		.4byte	.LFE285
 16732 02c8 00000000 		.4byte	.LFB288
 16733 02cc 20000000 		.4byte	.LFE288
 16734 02d0 00000000 		.4byte	.LFB289
 16735 02d4 F0030000 		.4byte	.LFE289
 16736 02d8 00000000 		.4byte	.LFB290
 16737 02dc 2C000000 		.4byte	.LFE290
 16738 02e0 00000000 		.4byte	.LFB291
 16739 02e4 0C000000 		.4byte	.LFE291
 16740 02e8 00000000 		.4byte	.LFB296
 16741 02ec 52000000 		.4byte	.LFE296
 16742 02f0 00000000 		.4byte	.LFB297
 16743 02f4 30000000 		.4byte	.LFE297
 16744 02f8 00000000 		.4byte	.LFB298
 16745 02fc D4000000 		.4byte	.LFE298
 16746 0300 00000000 		.4byte	.LFB299
 16747 0304 E8010000 		.4byte	.LFE299
 16748 0308 00000000 		.4byte	.LFB302
ARM GAS  /tmp/ccB9eNXv.s 			page 295


 16749 030c 6C000000 		.4byte	.LFE302
 16750 0310 00000000 		.4byte	0
 16751 0314 00000000 		.4byte	0
 16752              		.section	.debug_line,"",%progbits
 16753              	.Ldebug_line0:
 16754 0000 8E0C0000 		.section	.debug_str,"MS",%progbits,1
 16754      0200C005 
 16754      00000201 
 16754      FB0E0D00 
 16754      01010101 
 16755              	.LASF511:
 16756 0000 5553425F 		.ascii	"USB_STOP\000"
 16756      53544F50 
 16756      00
 16757              	.LASF791:
 16758 0009 7265736F 		.ascii	"resolver_degradation_of_signal_error_cnt\000"
 16758      6C766572 
 16758      5F646567 
 16758      72616461 
 16758      74696F6E 
 16759              	.LASF240:
 16760 0032 706F7274 		.ascii	"port_intctx\000"
 16760      5F696E74 
 16760      63747800 
 16761              	.LASF262:
 16762 003e 63685F70 		.ascii	"ch_ptrsize\000"
 16762      74727369 
 16762      7A6500
 16763              	.LASF464:
 16764 0049 6576656E 		.ascii	"event\000"
 16764      7400
 16765              	.LASF654:
 16766 004f 7574696C 		.ascii	"utils_tab_cos_32_2\000"
 16766      735F7461 
 16766      625F636F 
 16766      735F3332 
 16766      5F3200
 16767              	.LASF125:
 16768 0062 54494D32 		.ascii	"TIM2_IRQn\000"
 16768      5F495251 
 16768      6E00
 16769              	.LASF164:
 16770 006c 4F54475F 		.ascii	"OTG_FS_IRQn\000"
 16770      46535F49 
 16770      52516E00 
 16771              	.LASF380:
 16772 0078 43414E5F 		.ascii	"CAN_STARTING\000"
 16772      53544152 
 16772      54494E47 
 16772      00
 16773              	.LASF777:
 16774 0085 656E636F 		.ascii	"encoder_mode\000"
 16774      6465725F 
 16774      6D6F6465 
 16774      00
 16775              	.LASF28:
 16776 0092 6D73675F 		.ascii	"msg_t\000"
ARM GAS  /tmp/ccB9eNXv.s 			page 296


 16776      7400
 16777              	.LASF407:
 16778 0098 4F504D4F 		.ascii	"OPMODE_SMBUS_DEVICE\000"
 16778      44455F53 
 16778      4D425553 
 16778      5F444556 
 16778      49434500 
 16779              	.LASF875:
 16780 00ac 656E636F 		.ascii	"encoder_get_no_magnet_error_cnt\000"
 16780      6465725F 
 16780      6765745F 
 16780      6E6F5F6D 
 16780      61676E65 
 16781              	.LASF808:
 16782 00cc 74733537 		.ascii	"ts5700n8501_is_running\000"
 16782      30306E38 
 16782      3530315F 
 16782      69735F72 
 16782      756E6E69 
 16783              	.LASF571:
 16784 00e3 44494550 		.ascii	"DIEPTXF0\000"
 16784      54584630 
 16784      00
 16785              	.LASF159:
 16786 00ec 4554485F 		.ascii	"ETH_WKUP_IRQn\000"
 16786      574B5550 
 16786      5F495251 
 16786      6E00
 16787              	.LASF379:
 16788 00fa 43414E5F 		.ascii	"CAN_STOP\000"
 16788      53544F50 
 16788      00
 16789              	.LASF140:
 16790 0103 54494D38 		.ascii	"TIM8_BRK_TIM12_IRQn\000"
 16790      5F42524B 
 16790      5F54494D 
 16790      31325F49 
 16790      52516E00 
 16791              	.LASF275:
 16792 0117 63665F6F 		.ascii	"cf_off_time\000"
 16792      66665F74 
 16792      696D6500 
 16793              	.LASF83:
 16794 0123 63685F73 		.ascii	"ch_system_t\000"
 16794      79737465 
 16794      6D5F7400 
 16795              	.LASF3:
 16796 012f 5F5F7569 		.ascii	"__uint8_t\000"
 16796      6E74385F 
 16796      7400
 16797              	.LASF247:
 16798 0139 77747365 		.ascii	"wtsemp\000"
 16798      6D7000
 16799              	.LASF94:
 16800 0140 44656275 		.ascii	"DebugMonitor_IRQn\000"
 16800      674D6F6E 
 16800      69746F72 
ARM GAS  /tmp/ccB9eNXv.s 			page 297


 16800      5F495251 
 16800      6E00
 16801              	.LASF303:
 16802 0152 5F426F6F 		.ascii	"_Bool\000"
 16802      6C00
 16803              	.LASF425:
 16804 0158 646D6172 		.ascii	"dmarx\000"
 16804      7800
 16805              	.LASF707:
 16806 015e 5F6D6273 		.ascii	"_mbstate\000"
 16806      74617465 
 16806      00
 16807              	.LASF157:
 16808 0167 444D4132 		.ascii	"DMA2_Stream4_IRQn\000"
 16808      5F537472 
 16808      65616D34 
 16808      5F495251 
 16808      6E00
 16809              	.LASF173:
 16810 0179 4F54475F 		.ascii	"OTG_HS_WKUP_IRQn\000"
 16810      48535F57 
 16810      4B55505F 
 16810      4952516E 
 16810      00
 16811              	.LASF781:
 16812 018a 7370695F 		.ascii	"spi_val\000"
 16812      76616C00 
 16813              	.LASF806:
 16814 0192 74733537 		.ascii	"ts5700n8501_thread_wa\000"
 16814      30306E38 
 16814      3530315F 
 16814      74687265 
 16814      61645F77 
 16815              	.LASF590:
 16816 01a8 72657376 		.ascii	"resvd700\000"
 16816      64373030 
 16816      00
 16817              	.LASF601:
 16818 01b1 44564255 		.ascii	"DVBUSDIS\000"
 16818      53444953 
 16818      00
 16819              	.LASF419:
 16820 01ba 6572726F 		.ascii	"errors\000"
 16820      727300
 16821              	.LASF899:
 16822 01c1 53595343 		.ascii	"SYSCFG_EXTILineConfig\000"
 16822      46475F45 
 16822      5854494C 
 16822      696E6543 
 16822      6F6E6669 
 16823              	.LASF321:
 16824 01d7 45585449 		.ascii	"EXTI_Mode_Interrupt\000"
 16824      5F4D6F64 
 16824      655F496E 
 16824      74657272 
 16824      75707400 
 16825              	.LASF789:
ARM GAS  /tmp/ccB9eNXv.s 			page 298


 16826 01eb 7265736F 		.ascii	"resolver_loss_of_signal_error_rate\000"
 16826      6C766572 
 16826      5F6C6F73 
 16826      735F6F66 
 16826      5F736967 
 16827              	.LASF484:
 16828 020e 73706963 		.ascii	"spicallback_t\000"
 16828      616C6C62 
 16828      61636B5F 
 16828      7400
 16829              	.LASF79:
 16830 021c 76745F73 		.ascii	"vt_systime\000"
 16830      79737469 
 16830      6D6500
 16831              	.LASF509:
 16832 0227 75736265 		.ascii	"usbep_t\000"
 16832      705F7400 
 16833              	.LASF156:
 16834 022f 444D4132 		.ascii	"DMA2_Stream3_IRQn\000"
 16834      5F537472 
 16834      65616D33 
 16834      5F495251 
 16834      6E00
 16835              	.LASF783:
 16836 0241 7370695F 		.ascii	"spi_error_cnt\000"
 16836      6572726F 
 16836      725F636E 
 16836      7400
 16837              	.LASF676:
 16838 024f 5F5F746D 		.ascii	"__tm_mon\000"
 16838      5F6D6F6E 
 16838      00
 16839              	.LASF684:
 16840 0258 5F666E74 		.ascii	"_fntypes\000"
 16840      79706573 
 16840      00
 16841              	.LASF847:
 16842 0261 616E676C 		.ascii	"angle\000"
 16842      6500
 16843              	.LASF256:
 16844 0267 6D5F6E65 		.ascii	"m_next\000"
 16844      787400
 16845              	.LASF115:
 16846 026e 4144435F 		.ascii	"ADC_IRQn\000"
 16846      4952516E 
 16846      00
 16847              	.LASF367:
 16848 0277 50434461 		.ascii	"PCData\000"
 16848      746100
 16849              	.LASF845:
 16850 027e 656E636F 		.ascii	"encoder_read_deg_multiturn\000"
 16850      6465725F 
 16850      72656164 
 16850      5F646567 
 16850      5F6D756C 
 16851              	.LASF714:
 16852 0299 5F696E63 		.ascii	"_inc\000"
ARM GAS  /tmp/ccB9eNXv.s 			page 299


 16852      00
 16853              	.LASF687:
 16854 029e 5F696E64 		.ascii	"_ind\000"
 16854      00
 16855              	.LASF385:
 16856 02a3 73746174 		.ascii	"state\000"
 16856      6500
 16857              	.LASF472:
 16858 02a9 72656164 		.ascii	"read\000"
 16858      00
 16859              	.LASF825:
 16860 02ae 73616D70 		.ascii	"samples\000"
 16860      6C657300 
 16861              	.LASF575:
 16862 02b6 47434346 		.ascii	"GCCFG\000"
 16862      4700
 16863              	.LASF229:
 16864 02bc 42445452 		.ascii	"BDTR\000"
 16864      00
 16865              	.LASF417:
 16866 02c1 49324343 		.ascii	"I2CConfig\000"
 16866      6F6E6669 
 16866      6700
 16867              	.LASF17:
 16868 02cb 75696E74 		.ascii	"uint16_t\000"
 16868      31365F74 
 16868      00
 16869              	.LASF155:
 16870 02d4 444D4132 		.ascii	"DMA2_Stream2_IRQn\000"
 16870      5F537472 
 16870      65616D32 
 16870      5F495251 
 16870      6E00
 16871              	.LASF426:
 16872 02e6 646D6174 		.ascii	"dmatx\000"
 16872      7800
 16873              	.LASF646:
 16874 02ec 736F665F 		.ascii	"sof_cb\000"
 16874      636200
 16875              	.LASF693:
 16876 02f3 5F666C61 		.ascii	"_flags\000"
 16876      677300
 16877              	.LASF360:
 16878 02fa 6F737065 		.ascii	"ospeedr\000"
 16878      65647200 
 16879              	.LASF823:
 16880 0302 6C656E67 		.ascii	"length\000"
 16880      746800
 16881              	.LASF168:
 16882 0309 55534152 		.ascii	"USART6_IRQn\000"
 16882      54365F49 
 16882      52516E00 
 16883              	.LASF578:
 16884 0315 44494550 		.ascii	"DIEPTXF\000"
 16884      54584600 
 16885              	.LASF281:
 16886 031d 656C5F6E 		.ascii	"el_next\000"
ARM GAS  /tmp/ccB9eNXv.s 			page 300


 16886      65787400 
 16887              	.LASF494:
 16888 0325 696E5F70 		.ascii	"in_params\000"
 16888      6172616D 
 16888      7300
 16889              	.LASF724:
 16890 032f 5F637674 		.ascii	"_cvtlen\000"
 16890      6C656E00 
 16891              	.LASF60:
 16892 0337 63685F74 		.ascii	"ch_threads_queue\000"
 16892      68726561 
 16892      64735F71 
 16892      75657565 
 16892      00
 16893              	.LASF771:
 16894 0348 454E434F 		.ascii	"ENCODER_MODE_ABI\000"
 16894      4445525F 
 16894      4D4F4445 
 16894      5F414249 
 16894      00
 16895              	.LASF766:
 16896 0359 5F5F6664 		.ascii	"__fdlibm_svid\000"
 16896      6C69626D 
 16896      5F737669 
 16896      6400
 16897              	.LASF728:
 16898 0367 5F736967 		.ascii	"_sig_func\000"
 16898      5F66756E 
 16898      6300
 16899              	.LASF38:
 16900 0371 705F6E65 		.ascii	"p_newer\000"
 16900      77657200 
 16901              	.LASF588:
 16902 0379 48505254 		.ascii	"HPRT\000"
 16902      00
 16903              	.LASF817:
 16904 037e 7370695F 		.ascii	"spi_AS5047_cs_delay\000"
 16904      41533530 
 16904      34375F63 
 16904      735F6465 
 16904      6C617900 
 16905              	.LASF542:
 16906 0392 4843494E 		.ascii	"HCINT\000"
 16906      5400
 16907              	.LASF838:
 16908 0398 656E636F 		.ascii	"encoder_AS504x_get_diag\000"
 16908      6465725F 
 16908      41533530 
 16908      34785F67 
 16908      65745F64 
 16909              	.LASF272:
 16910 03b0 63665F6F 		.ascii	"cf_off_flags\000"
 16910      66665F66 
 16910      6C616773 
 16910      00
 16911              	.LASF706:
 16912 03bd 5F6C6F63 		.ascii	"_lock\000"
ARM GAS  /tmp/ccB9eNXv.s 			page 301


 16912      6B00
 16913              	.LASF702:
 16914 03c3 5F6E6275 		.ascii	"_nbuf\000"
 16914      6600
 16915              	.LASF478:
 16916 03c9 5350495F 		.ascii	"SPI_STOP\000"
 16916      53544F50 
 16916      00
 16917              	.LASF760:
 16918 03d2 5F756E75 		.ascii	"_unused\000"
 16918      73656400 
 16919              	.LASF336:
 16920 03da 54494D5F 		.ascii	"TIM_ClockDivision\000"
 16920      436C6F63 
 16920      6B446976 
 16920      6973696F 
 16920      6E00
 16921              	.LASF366:
 16922 03ec 50424461 		.ascii	"PBData\000"
 16922      746100
 16923              	.LASF840:
 16924 03f3 41533530 		.ascii	"AS504x_determinate_if_connected\000"
 16924      34785F64 
 16924      65746572 
 16924      6D696E61 
 16924      74655F69 
 16925              	.LASF260:
 16926 0413 63685F73 		.ascii	"ch_size\000"
 16926      697A6500 
 16927              	.LASF584:
 16928 041b 48505458 		.ascii	"HPTXSTS\000"
 16928      53545300 
 16929              	.LASF359:
 16930 0423 6F747970 		.ascii	"otyper\000"
 16930      657200
 16931              	.LASF102:
 16932 042a 5243435F 		.ascii	"RCC_IRQn\000"
 16932      4952516E 
 16932      00
 16933              	.LASF844:
 16934 0433 74735F6D 		.ascii	"ts_mt\000"
 16934      7400
 16935              	.LASF788:
 16936 0439 7265736F 		.ascii	"resolver_degradation_of_signal_error_rate\000"
 16936      6C766572 
 16936      5F646567 
 16936      72616461 
 16936      74696F6E 
 16937              	.LASF350:
 16938 0463 4F545950 		.ascii	"OTYPER\000"
 16938      455200
 16939              	.LASF482:
 16940 046a 73706973 		.ascii	"spistate_t\000"
 16940      74617465 
 16940      5F7400
 16941              	.LASF540:
 16942 0475 48434348 		.ascii	"HCCHAR\000"
ARM GAS  /tmp/ccB9eNXv.s 			page 302


 16942      415200
 16943              	.LASF683:
 16944 047c 5F64736F 		.ascii	"_dso_handle\000"
 16944      5F68616E 
 16944      646C6500 
 16945              	.LASF843:
 16946 0488 6261645F 		.ascii	"bad_pulses\000"
 16946      70756C73 
 16946      657300
 16947              	.LASF401:
 16948 0493 4932435F 		.ascii	"I2C_ACTIVE_RX\000"
 16948      41435449 
 16948      56455F52 
 16948      5800
 16949              	.LASF33:
 16950 04a1 74687265 		.ascii	"thread_t\000"
 16950      61645F74 
 16950      00
 16951              	.LASF283:
 16952 04aa 656C5F65 		.ascii	"el_events\000"
 16952      76656E74 
 16952      7300
 16953              	.LASF392:
 16954 04b4 736C6565 		.ascii	"sleep_event\000"
 16954      705F6576 
 16954      656E7400 
 16955              	.LASF78:
 16956 04c0 63685F76 		.ascii	"ch_virtual_timers_list\000"
 16956      69727475 
 16956      616C5F74 
 16956      696D6572 
 16956      735F6C69 
 16957              	.LASF345:
 16958 04d7 76656374 		.ascii	"vector\000"
 16958      6F7200
 16959              	.LASF18:
 16960 04de 696E7433 		.ascii	"int32_t\000"
 16960      325F7400 
 16961              	.LASF314:
 16962 04e6 41533530 		.ascii	"AS504x_diag\000"
 16962      34785F64 
 16962      69616700 
 16963              	.LASF415:
 16964 04f2 636C6F63 		.ascii	"clock_speed\000"
 16964      6B5F7370 
 16964      65656400 
 16965              	.LASF32:
 16966 04fe 73797374 		.ascii	"systime_t\000"
 16966      696D655F 
 16966      7400
 16967              	.LASF394:
 16968 0508 43414E44 		.ascii	"CANDriver\000"
 16968      72697665 
 16968      7200
 16969              	.LASF270:
 16970 0512 63665F6F 		.ascii	"cf_off_stklimit\000"
 16970      66665F73 
ARM GAS  /tmp/ccB9eNXv.s 			page 303


 16970      746B6C69 
 16970      6D697400 
 16971              	.LASF146:
 16972 0522 5344494F 		.ascii	"SDIO_IRQn\000"
 16972      5F495251 
 16972      6E00
 16973              	.LASF206:
 16974 052c 4D304152 		.ascii	"M0AR\000"
 16974      00
 16975              	.LASF547:
 16976 0531 72657376 		.ascii	"resvd1c\000"
 16976      64316300 
 16977              	.LASF175:
 16978 0539 44434D49 		.ascii	"DCMI_IRQn\000"
 16978      5F495251 
 16978      6E00
 16979              	.LASF405:
 16980 0543 69326366 		.ascii	"i2cflags_t\000"
 16980      6C616773 
 16980      5F7400
 16981              	.LASF585:
 16982 054e 4841494E 		.ascii	"HAINT\000"
 16982      5400
 16983              	.LASF138:
 16984 0554 5254435F 		.ascii	"RTC_Alarm_IRQn\000"
 16984      416C6172 
 16984      6D5F4952 
 16984      516E00
 16985              	.LASF792:
 16986 0563 7265736F 		.ascii	"resolver_loss_of_signal_error_cnt\000"
 16986      6C766572 
 16986      5F6C6F73 
 16986      735F6F66 
 16986      5F736967 
 16987              	.LASF201:
 16988 0585 46413152 		.ascii	"FA1R\000"
 16988      00
 16989              	.LASF901:
 16990 058a 6E766963 		.ascii	"nvicDisableVector\000"
 16990      44697361 
 16990      626C6556 
 16990      6563746F 
 16990      7200
 16991              	.LASF582:
 16992 059c 48464E55 		.ascii	"HFNUM\000"
 16992      4D00
 16993              	.LASF867:
 16994 05a2 656E636F 		.ascii	"encoder_sincos_get_signal_below_min_error_cnt\000"
 16994      6465725F 
 16994      73696E63 
 16994      6F735F67 
 16994      65745F73 
 16995              	.LASF299:
 16996 05d0 716E6F74 		.ascii	"qnotify_t\000"
 16996      6966795F 
 16996      7400
 16997              	.LASF343:
ARM GAS  /tmp/ccB9eNXv.s 			page 304


 16998 05da 69736869 		.ascii	"ishift\000"
 16998      667400
 16999              	.LASF841:
 17000 05e1 7761735F 		.ascii	"was_last_valid\000"
 17000      6C617374 
 17000      5F76616C 
 17000      696400
 17001              	.LASF294:
 17002 05f0 715F746F 		.ascii	"q_top\000"
 17002      7000
 17003              	.LASF695:
 17004 05f6 5F6C6266 		.ascii	"_lbfsize\000"
 17004      73697A65 
 17004      00
 17005              	.LASF533:
 17006 05ff 75645F73 		.ascii	"ud_string\000"
 17006      7472696E 
 17006      6700
 17007              	.LASF418:
 17008 0609 49324344 		.ascii	"I2CDriver\000"
 17008      72697665 
 17008      7200
 17009              	.LASF400:
 17010 0613 4932435F 		.ascii	"I2C_ACTIVE_TX\000"
 17010      41435449 
 17010      56455F54 
 17010      5800
 17011              	.LASF346:
 17012 0621 73746D33 		.ascii	"stm32_dma_stream_t\000"
 17012      325F646D 
 17012      615F7374 
 17012      7265616D 
 17012      5F7400
 17013              	.LASF594:
 17014 0634 72657376 		.ascii	"resvd80C\000"
 17014      64383043 
 17014      00
 17015              	.LASF643:
 17016 063d 6576656E 		.ascii	"event_cb\000"
 17016      745F6362 
 17016      00
 17017              	.LASF114:
 17018 0646 444D4131 		.ascii	"DMA1_Stream6_IRQn\000"
 17018      5F537472 
 17018      65616D36 
 17018      5F495251 
 17018      6E00
 17019              	.LASF726:
 17020 0658 5F6E6577 		.ascii	"_new\000"
 17020      00
 17021              	.LASF93:
 17022 065d 53564361 		.ascii	"SVCall_IRQn\000"
 17022      6C6C5F49 
 17022      52516E00 
 17023              	.LASF561:
 17024 0669 474F5447 		.ascii	"GOTGCTL\000"
 17024      43544C00 
ARM GAS  /tmp/ccB9eNXv.s 			page 305


 17025              	.LASF497:
 17026 0671 6570306E 		.ascii	"ep0next\000"
 17026      65787400 
 17027              	.LASF282:
 17028 0679 656C5F6C 		.ascii	"el_listener\000"
 17028      69737465 
 17028      6E657200 
 17029              	.LASF536:
 17030 0685 75736265 		.ascii	"usbepcallback_t\000"
 17030      7063616C 
 17030      6C626163 
 17030      6B5F7400 
 17031              	.LASF404:
 17032 0695 69326361 		.ascii	"i2caddr_t\000"
 17032      6464725F 
 17032      7400
 17033              	.LASF86:
 17034 069f 76746C69 		.ascii	"vtlist\000"
 17034      737400
 17035              	.LASF430:
 17036 06a6 4943555F 		.ascii	"ICU_READY\000"
 17036      52454144 
 17036      5900
 17037              	.LASF896:
 17038 06b0 73706953 		.ascii	"spiStart\000"
 17038      74617274 
 17038      00
 17039              	.LASF211:
 17040 06b9 54524953 		.ascii	"TRISE\000"
 17040      4500
 17041              	.LASF600:
 17042 06bf 72657376 		.ascii	"resvd824\000"
 17042      64383234 
 17042      00
 17043              	.LASF47:
 17044 06c8 705F7761 		.ascii	"p_waiting\000"
 17044      6974696E 
 17044      6700
 17045              	.LASF437:
 17046 06d2 70636372 		.ascii	"pccrp\000"
 17046      7000
 17047              	.LASF651:
 17048 06d8 7574696C 		.ascii	"utils_tab_sin_32_1\000"
 17048      735F7461 
 17048      625F7369 
 17048      6E5F3332 
 17048      5F3100
 17049              	.LASF652:
 17050 06eb 7574696C 		.ascii	"utils_tab_sin_32_2\000"
 17050      735F7461 
 17050      625F7369 
 17050      6E5F3332 
 17050      5F3200
 17051              	.LASF113:
 17052 06fe 444D4131 		.ascii	"DMA1_Stream5_IRQn\000"
 17052      5F537472 
 17052      65616D35 
ARM GAS  /tmp/ccB9eNXv.s 			page 306


 17052      5F495251 
 17052      6E00
 17053              	.LASF183:
 17054 0710 43414E5F 		.ascii	"CAN_TxMailBox_TypeDef\000"
 17054      54784D61 
 17054      696C426F 
 17054      785F5479 
 17054      70654465 
 17055              	.LASF85:
 17056 0726 726C6973 		.ascii	"rlist\000"
 17056      7400
 17057              	.LASF56:
 17058 072c 74687265 		.ascii	"threads_list_t\000"
 17058      6164735F 
 17058      6C697374 
 17058      5F7400
 17059              	.LASF266:
 17060 073b 63665F6F 		.ascii	"cf_off_ctx\000"
 17060      66665F63 
 17060      747800
 17061              	.LASF300:
 17062 0746 696E7075 		.ascii	"input_queue_t\000"
 17062      745F7175 
 17062      6575655F 
 17062      7400
 17063              	.LASF761:
 17064 0754 5F5F6C6F 		.ascii	"__lock\000"
 17064      636B00
 17065              	.LASF410:
 17066 075b 5354445F 		.ascii	"STD_DUTY_CYCLE\000"
 17066      44555459 
 17066      5F435943 
 17066      4C4500
 17067              	.LASF381:
 17068 076a 43414E5F 		.ascii	"CAN_READY\000"
 17068      52454144 
 17068      5900
 17069              	.LASF268:
 17070 0774 63665F6F 		.ascii	"cf_off_older\000"
 17070      66665F6F 
 17070      6C646572 
 17070      00
 17071              	.LASF628:
 17072 0781 72787175 		.ascii	"rxqueued\000"
 17072      65756564 
 17072      00
 17073              	.LASF448:
 17074 078a 69637563 		.ascii	"icuchannel_t\000"
 17074      68616E6E 
 17074      656C5F74 
 17074      00
 17075              	.LASF97:
 17076 0797 57574447 		.ascii	"WWDG_IRQn\000"
 17076      5F495251 
 17076      6E00
 17077              	.LASF203:
 17078 07a1 7346696C 		.ascii	"sFilterRegister\000"
ARM GAS  /tmp/ccB9eNXv.s 			page 307


 17078      74657252 
 17078      65676973 
 17078      74657200 
 17079              	.LASF730:
 17080 07b1 5F5F7366 		.ascii	"__sf\000"
 17080      00
 17081              	.LASF599:
 17082 07b6 72657376 		.ascii	"resvd820\000"
 17082      64383230 
 17082      00
 17083              	.LASF112:
 17084 07bf 444D4131 		.ascii	"DMA1_Stream4_IRQn\000"
 17084      5F537472 
 17084      65616D34 
 17084      5F495251 
 17084      6E00
 17085              	.LASF414:
 17086 07d1 6F705F6D 		.ascii	"op_mode\000"
 17086      6F646500 
 17087              	.LASF747:
 17088 07d9 5F6D6274 		.ascii	"_mbtowc_state\000"
 17088      6F77635F 
 17088      73746174 
 17088      6500
 17089              	.LASF689:
 17090 07e7 5F5F7362 		.ascii	"__sbuf\000"
 17090      756600
 17091              	.LASF397:
 17092 07ee 4932435F 		.ascii	"I2C_UNINIT\000"
 17092      554E494E 
 17092      495400
 17093              	.LASF143:
 17094 07f9 54494D38 		.ascii	"TIM8_CC_IRQn\000"
 17094      5F43435F 
 17094      4952516E 
 17094      00
 17095              	.LASF459:
 17096 0806 53445F55 		.ascii	"SD_UNINIT\000"
 17096      4E494E49 
 17096      5400
 17097              	.LASF803:
 17098 0810 73696E63 		.ascii	"sincos_signal_above_max_error_rate\000"
 17098      6F735F73 
 17098      69676E61 
 17098      6C5F6162 
 17098      6F76655F 
 17099              	.LASF27:
 17100 0833 74707269 		.ascii	"tprio_t\000"
 17100      6F5F7400 
 17101              	.LASF827:
 17102 083b 656E636F 		.ascii	"encoder_set_counts\000"
 17102      6465725F 
 17102      7365745F 
 17102      636F756E 
 17102      747300
 17103              	.LASF603:
 17104 084e 72657376 		.ascii	"resvd830\000"
ARM GAS  /tmp/ccB9eNXv.s 			page 308


 17104      64383330 
 17104      00
 17105              	.LASF399:
 17106 0857 4932435F 		.ascii	"I2C_READY\000"
 17106      52454144 
 17106      5900
 17107              	.LASF605:
 17108 0861 72657376 		.ascii	"resvd838\000"
 17108      64383338 
 17108      00
 17109              	.LASF413:
 17110 086a 69326364 		.ascii	"i2cdutycycle_t\000"
 17110      75747963 
 17110      79636C65 
 17110      5F7400
 17111              	.LASF606:
 17112 0879 72657376 		.ascii	"resvd83C\000"
 17112      64383343 
 17112      00
 17113              	.LASF421:
 17114 0882 74687265 		.ascii	"thread\000"
 17114      616400
 17115              	.LASF602:
 17116 0889 44564255 		.ascii	"DVBUSPULSE\000"
 17116      5350554C 
 17116      534500
 17117              	.LASF500:
 17118 0894 73657475 		.ascii	"setup\000"
 17118      7000
 17119              	.LASF477:
 17120 089a 5350495F 		.ascii	"SPI_UNINIT\000"
 17120      554E494E 
 17120      495400
 17121              	.LASF554:
 17122 08a5 44545846 		.ascii	"DTXFSTS\000"
 17122      53545300 
 17123              	.LASF54:
 17124 08ad 6D6F746F 		.ascii	"motor_selected\000"
 17124      725F7365 
 17124      6C656374 
 17124      656400
 17125              	.LASF679:
 17126 08bc 5F5F746D 		.ascii	"__tm_yday\000"
 17126      5F796461 
 17126      7900
 17127              	.LASF790:
 17128 08c6 7265736F 		.ascii	"resolver_loss_of_tracking_error_cnt\000"
 17128      6C766572 
 17128      5F6C6F73 
 17128      735F6F66 
 17128      5F747261 
 17129              	.LASF224:
 17130 08ea 43434552 		.ascii	"CCER\000"
 17130      00
 17131              	.LASF218:
 17132 08ef 49325350 		.ascii	"I2SPR\000"
 17132      5200
ARM GAS  /tmp/ccB9eNXv.s 			page 309


 17133              	.LASF563:
 17134 08f5 47414842 		.ascii	"GAHBCFG\000"
 17134      43464700 
 17135              	.LASF655:
 17136 08fd 5F4C4F43 		.ascii	"_LOCK_T\000"
 17136      4B5F5400 
 17137              	.LASF607:
 17138 0905 72657376 		.ascii	"resvd840\000"
 17138      64383430 
 17138      00
 17139              	.LASF214:
 17140 090e 43524350 		.ascii	"CRCPR\000"
 17140      5200
 17141              	.LASF4:
 17142 0914 5F5F696E 		.ascii	"__int16_t\000"
 17142      7431365F 
 17142      7400
 17143              	.LASF905:
 17144 091e 656E636F 		.ascii	"encoder.c\000"
 17144      6465722E 
 17144      6300
 17145              	.LASF6:
 17146 0928 5F5F7569 		.ascii	"__uint16_t\000"
 17146      6E743136 
 17146      5F7400
 17147              	.LASF622:
 17148 0933 74787175 		.ascii	"txqueued\000"
 17148      65756564 
 17148      00
 17149              	.LASF49:
 17150 093c 705F6D73 		.ascii	"p_msg\000"
 17150      6700
 17151              	.LASF739:
 17152 0942 5F756E75 		.ascii	"_unused_rand\000"
 17152      7365645F 
 17152      72616E64 
 17152      00
 17153              	.LASF569:
 17154 094f 47525853 		.ascii	"GRXSTSP\000"
 17154      54535000 
 17155              	.LASF568:
 17156 0957 47525853 		.ascii	"GRXSTSR\000"
 17156      54535200 
 17157              	.LASF244:
 17158 095f 65786974 		.ascii	"exitcode\000"
 17158      636F6465 
 17158      00
 17159              	.LASF207:
 17160 0968 4D314152 		.ascii	"M1AR\000"
 17160      00
 17161              	.LASF507:
 17162 096d 77616974 		.ascii	"wait\000"
 17162      00
 17163              	.LASF797:
 17164 0972 636F735F 		.ascii	"cos_gain\000"
 17164      6761696E 
 17164      00
ARM GAS  /tmp/ccB9eNXv.s 			page 310


 17165              	.LASF208:
 17166 097b 444D415F 		.ascii	"DMA_Stream_TypeDef\000"
 17166      53747265 
 17166      616D5F54 
 17166      79706544 
 17166      656600
 17167              	.LASF514:
 17168 098e 5553425F 		.ascii	"USB_ACTIVE\000"
 17168      41435449 
 17168      564500
 17169              	.LASF304:
 17170 0999 69735F63 		.ascii	"is_connected\000"
 17170      6F6E6E65 
 17170      63746564 
 17170      00
 17171              	.LASF556:
 17172 09a6 73746D33 		.ascii	"stm32_otg_in_ep_t\000"
 17172      325F6F74 
 17172      675F696E 
 17172      5F65705F 
 17172      7400
 17173              	.LASF630:
 17174 09b8 7278636E 		.ascii	"rxcnt\000"
 17174      7400
 17175              	.LASF423:
 17176 09be 7278646D 		.ascii	"rxdmamode\000"
 17176      616D6F64 
 17176      6500
 17177              	.LASF721:
 17178 09c8 5F726573 		.ascii	"_result_k\000"
 17178      756C745F 
 17178      6B00
 17179              	.LASF449:
 17180 09d2 6D6F6465 		.ascii	"mode\000"
 17180      00
 17181              	.LASF713:
 17182 09d7 5F737464 		.ascii	"_stderr\000"
 17182      65727200 
 17183              	.LASF720:
 17184 09df 5F726573 		.ascii	"_result\000"
 17184      756C7400 
 17185              	.LASF442:
 17186 09e7 4943555F 		.ascii	"ICU_INPUT_ACTIVE_HIGH\000"
 17186      494E5055 
 17186      545F4143 
 17186      54495645 
 17186      5F484947 
 17187              	.LASF411:
 17188 09fd 46415354 		.ascii	"FAST_DUTY_CYCLE_2\000"
 17188      5F445554 
 17188      595F4359 
 17188      434C455F 
 17188      3200
 17189              	.LASF271:
 17190 0a0f 63665F6F 		.ascii	"cf_off_state\000"
 17190      66665F73 
 17190      74617465 
ARM GAS  /tmp/ccB9eNXv.s 			page 311


 17190      00
 17191              	.LASF487:
 17192 0a1c 73737061 		.ascii	"sspad\000"
 17192      6400
 17193              	.LASF424:
 17194 0a22 7478646D 		.ascii	"txdmamode\000"
 17194      616D6F64 
 17194      6500
 17195              	.LASF678:
 17196 0a2c 5F5F746D 		.ascii	"__tm_wday\000"
 17196      5F776461 
 17196      7900
 17197              	.LASF810:
 17198 0a36 74733537 		.ascii	"ts5700n8501_reset_errors\000"
 17198      30306E38 
 17198      3530315F 
 17198      72657365 
 17198      745F6572 
 17199              	.LASF680:
 17200 0a4f 5F5F746D 		.ascii	"__tm_isdst\000"
 17200      5F697364 
 17200      737400
 17201              	.LASF238:
 17202 0a5a 73746B61 		.ascii	"stkalign_t\000"
 17202      6C69676E 
 17202      5F7400
 17203              	.LASF615:
 17204 0a65 72785F66 		.ascii	"rx_fifo_size\000"
 17204      69666F5F 
 17204      73697A65 
 17204      00
 17205              	.LASF105:
 17206 0a72 45585449 		.ascii	"EXTI2_IRQn\000"
 17206      325F4952 
 17206      516E00
 17207              	.LASF235:
 17208 0a7d 454E4142 		.ascii	"ENABLE\000"
 17208      4C4500
 17209              	.LASF393:
 17210 0a84 77616B65 		.ascii	"wakeup_event\000"
 17210      75705F65 
 17210      76656E74 
 17210      00
 17211              	.LASF73:
 17212 0a91 76745F70 		.ascii	"vt_prev\000"
 17212      72657600 
 17213              	.LASF485:
 17214 0a99 656E645F 		.ascii	"end_cb\000"
 17214      636200
 17215              	.LASF890:
 17216 0aa0 63685468 		.ascii	"chThdCreateStatic\000"
 17216      64437265 
 17216      61746553 
 17216      74617469 
 17216      6300
 17217              	.LASF633:
 17218 0ab2 73657475 		.ascii	"setup_cb\000"
ARM GAS  /tmp/ccB9eNXv.s 			page 312


 17218      705F6362 
 17218      00
 17219              	.LASF2:
 17220 0abb 756E7369 		.ascii	"unsigned char\000"
 17220      676E6564 
 17220      20636861 
 17220      7200
 17221              	.LASF712:
 17222 0ac9 5F737464 		.ascii	"_stdout\000"
 17222      6F757400 
 17223              	.LASF280:
 17224 0ad1 6576656E 		.ascii	"event_listener\000"
 17224      745F6C69 
 17224      7374656E 
 17224      657200
 17225              	.LASF387:
 17226 0ae0 74787175 		.ascii	"txqueue\000"
 17226      65756500 
 17227              	.LASF252:
 17228 0ae8 735F636E 		.ascii	"s_cnt\000"
 17228      7400
 17229              	.LASF61:
 17230 0aee 72656164 		.ascii	"ready_list_t\000"
 17230      795F6C69 
 17230      73745F74 
 17230      00
 17231              	.LASF57:
 17232 0afb 63685F74 		.ascii	"ch_thread\000"
 17232      68726561 
 17232      6400
 17233              	.LASF408:
 17234 0b05 4F504D4F 		.ascii	"OPMODE_SMBUS_HOST\000"
 17234      44455F53 
 17234      4D425553 
 17234      5F484F53 
 17234      5400
 17235              	.LASF812:
 17236 0b17 41533530 		.ascii	"AS504x_data_last_invalid_counter\000"
 17236      34785F64 
 17236      6174615F 
 17236      6C617374 
 17236      5F696E76 
 17237              	.LASF172:
 17238 0b38 4F54475F 		.ascii	"OTG_HS_EP1_IN_IRQn\000"
 17238      48535F45 
 17238      50315F49 
 17238      4E5F4952 
 17238      516E00
 17239              	.LASF754:
 17240 0b4b 5F6D6273 		.ascii	"_mbsrtowcs_state\000"
 17240      72746F77 
 17240      63735F73 
 17240      74617465 
 17240      00
 17241              	.LASF908:
 17242 0b5c 7370695F 		.ascii	"spi_check_parity\000"
 17242      63686563 
ARM GAS  /tmp/ccB9eNXv.s 			page 313


 17242      6B5F7061 
 17242      72697479 
 17242      00
 17243              	.LASF670:
 17244 0b6d 5F776473 		.ascii	"_wds\000"
 17244      00
 17245              	.LASF302:
 17246 0b72 666C6F61 		.ascii	"float\000"
 17246      7400
 17247              	.LASF104:
 17248 0b78 45585449 		.ascii	"EXTI1_IRQn\000"
 17248      315F4952 
 17248      516E00
 17249              	.LASF909:
 17250 0b83 656E636F 		.ascii	"encoder_ts57n8501_reset_multiturn\000"
 17250      6465725F 
 17250      74733537 
 17250      6E383530 
 17250      315F7265 
 17251              	.LASF382:
 17252 0ba5 43414E5F 		.ascii	"CAN_SLEEP\000"
 17252      534C4545 
 17252      5000
 17253              	.LASF319:
 17254 0baf 72756E74 		.ascii	"runtime\000"
 17254      696D6500 
 17255              	.LASF378:
 17256 0bb7 43414E5F 		.ascii	"CAN_UNINIT\000"
 17256      554E494E 
 17256      495400
 17257              	.LASF337:
 17258 0bc2 54494D5F 		.ascii	"TIM_RepetitionCounter\000"
 17258      52657065 
 17258      74697469 
 17258      6F6E436F 
 17258      756E7465 
 17259              	.LASF80:
 17260 0bd8 73797374 		.ascii	"system_debug_t\000"
 17260      656D5F64 
 17260      65627567 
 17260      5F7400
 17261              	.LASF221:
 17262 0be7 44494552 		.ascii	"DIER\000"
 17262      00
 17263              	.LASF37:
 17264 0bec 705F6374 		.ascii	"p_ctx\000"
 17264      7800
 17265              	.LASF76:
 17266 0bf2 76745F70 		.ascii	"vt_par\000"
 17266      617200
 17267              	.LASF103:
 17268 0bf9 45585449 		.ascii	"EXTI0_IRQn\000"
 17268      305F4952 
 17268      516E00
 17269              	.LASF68:
 17270 0c04 725F6375 		.ascii	"r_current\000"
 17270      7272656E 
ARM GAS  /tmp/ccB9eNXv.s 			page 314


 17270      7400
 17271              	.LASF691:
 17272 0c0e 5F73697A 		.ascii	"_size\000"
 17272      6500
 17273              	.LASF698:
 17274 0c14 5F777269 		.ascii	"_write\000"
 17274      746500
 17275              	.LASF332:
 17276 0c1b 45585449 		.ascii	"EXTI_InitTypeDef\000"
 17276      5F496E69 
 17276      74547970 
 17276      65446566 
 17276      00
 17277              	.LASF216:
 17278 0c2c 54584352 		.ascii	"TXCRCR\000"
 17278      435200
 17279              	.LASF869:
 17280 0c33 656E636F 		.ascii	"encoder_resolver_degradation_of_signal_error_cnt\000"
 17280      6465725F 
 17280      7265736F 
 17280      6C766572 
 17280      5F646567 
 17281              	.LASF396:
 17282 0c64 43414E44 		.ascii	"CAND2\000"
 17282      3200
 17283              	.LASF802:
 17284 0c6a 73696E63 		.ascii	"sincos_signal_low_error_rate\000"
 17284      6F735F73 
 17284      69676E61 
 17284      6C5F6C6F 
 17284      775F6572 
 17285              	.LASF99:
 17286 0c87 54414D50 		.ascii	"TAMP_STAMP_IRQn\000"
 17286      5F535441 
 17286      4D505F49 
 17286      52516E00 
 17287              	.LASF412:
 17288 0c97 46415354 		.ascii	"FAST_DUTY_CYCLE_16_9\000"
 17288      5F445554 
 17288      595F4359 
 17288      434C455F 
 17288      31365F39 
 17289              	.LASF453:
 17290 0cac 6F766572 		.ascii	"overflow_cb\000"
 17290      666C6F77 
 17290      5F636200 
 17291              	.LASF20:
 17292 0cb8 75696E74 		.ascii	"uint64_t\000"
 17292      36345F74 
 17292      00
 17293              	.LASF277:
 17294 0cc1 63685F64 		.ascii	"ch_debug\000"
 17294      65627567 
 17294      00
 17295              	.LASF234:
 17296 0cca 44495341 		.ascii	"DISABLE\000"
 17296      424C4500 
ARM GAS  /tmp/ccB9eNXv.s 			page 315


 17297              	.LASF195:
 17298 0cd2 464D3152 		.ascii	"FM1R\000"
 17298      00
 17299              	.LASF673:
 17300 0cd7 5F5F746D 		.ascii	"__tm_min\000"
 17300      5F6D696E 
 17300      00
 17301              	.LASF374:
 17302 0ce0 50414C43 		.ascii	"PALConfig\000"
 17302      6F6E6669 
 17302      6700
 17303              	.LASF537:
 17304 0cea 75736265 		.ascii	"usbeventcb_t\000"
 17304      76656E74 
 17304      63625F74 
 17304      00
 17305              	.LASF881:
 17306 0cf7 5F5F4E4F 		.ascii	"__NOP\000"
 17306      5000
 17307              	.LASF677:
 17308 0cfd 5F5F746D 		.ascii	"__tm_year\000"
 17308      5F796561 
 17308      7200
 17309              	.LASF279:
 17310 0d07 6576656E 		.ascii	"event_listener_t\000"
 17310      745F6C69 
 17310      7374656E 
 17310      65725F74 
 17310      00
 17311              	.LASF703:
 17312 0d18 5F626C6B 		.ascii	"_blksize\000"
 17312      73697A65 
 17312      00
 17313              	.LASF616:
 17314 0d21 6F74675F 		.ascii	"otg_ram_size\000"
 17314      72616D5F 
 17314      73697A65 
 17314      00
 17315              	.LASF335:
 17316 0d2e 54494D5F 		.ascii	"TIM_Period\000"
 17316      50657269 
 17316      6F6400
 17317              	.LASF793:
 17318 0d39 41533530 		.ascii	"AS504x_spi_communication_error_count\000"
 17318      34785F73 
 17318      70695F63 
 17318      6F6D6D75 
 17318      6E696361 
 17319              	.LASF618:
 17320 0d5e 73746D33 		.ascii	"stm32_otg_params_t\000"
 17320      325F6F74 
 17320      675F7061 
 17320      72616D73 
 17320      5F7400
 17321              	.LASF610:
 17322 0d71 72657376 		.ascii	"resvdD00\000"
 17322      64443030 
ARM GAS  /tmp/ccB9eNXv.s 			page 316


 17322      00
 17323              	.LASF215:
 17324 0d7a 52584352 		.ascii	"RXCRCR\000"
 17324      435200
 17325              	.LASF627:
 17326 0d81 72786275 		.ascii	"rxbuf\000"
 17326      6600
 17327              	.LASF566:
 17328 0d87 47494E54 		.ascii	"GINTSTS\000"
 17328      53545300 
 17329              	.LASF253:
 17330 0d8f 63685F6D 		.ascii	"ch_mutex\000"
 17330      75746578 
 17330      00
 17331              	.LASF390:
 17332 0d98 7478656D 		.ascii	"txempty_event\000"
 17332      7074795F 
 17332      6576656E 
 17332      7400
 17333              	.LASF371:
 17334 0da6 50474461 		.ascii	"PGData\000"
 17334      746100
 17335              	.LASF904:
 17336 0dad 474E5520 		.ascii	"GNU C99 7.3.1 20180622 (release) [ARM/embedded-7-br"
 17336      43393920 
 17336      372E332E 
 17336      31203230 
 17336      31383036 
 17337 0de0 616E6368 		.ascii	"anch revision 261907] -mcpu=cortex-m4 -mfloat-abi=h"
 17337      20726576 
 17337      6973696F 
 17337      6E203236 
 17337      31393037 
 17338 0e13 61726420 		.ascii	"ard -mfpu=fpv4-sp-d16 -mno-thumb-interwork -mthumb "
 17338      2D6D6670 
 17338      753D6670 
 17338      76342D73 
 17338      702D6431 
 17339 0e46 2D676764 		.ascii	"-ggdb -O2 -std=gnu99 -fomit-frame-pointer -falign-f"
 17339      62202D4F 
 17339      32202D73 
 17339      74643D67 
 17339      6E753939 
 17340 0e79 756E6374 		.ascii	"unctions=16 -ffunction-sections -fdata-sections -fn"
 17340      696F6E73 
 17340      3D313620 
 17340      2D666675 
 17340      6E637469 
 17341 0eac 6F2D636F 		.ascii	"o-common -fsingle-precision-constant\000"
 17341      6D6D6F6E 
 17341      202D6673 
 17341      696E676C 
 17341      652D7072 
 17342              	.LASF752:
 17343 0ed1 5F6D6272 		.ascii	"_mbrlen_state\000"
 17343      6C656E5F 
 17343      73746174 
ARM GAS  /tmp/ccB9eNXv.s 			page 317


 17343      6500
 17344              	.LASF133:
 17345 0edf 53504932 		.ascii	"SPI2_IRQn\000"
 17345      5F495251 
 17345      6E00
 17346              	.LASF267:
 17347 0ee9 63665F6F 		.ascii	"cf_off_newer\000"
 17347      66665F6E 
 17347      65776572 
 17347      00
 17348              	.LASF878:
 17349 0ef6 656E636F 		.ascii	"encoder_spi_get_error_cnt\000"
 17349      6465725F 
 17349      7370695F 
 17349      6765745F 
 17349      6572726F 
 17350              	.LASF595:
 17351 0f10 44494550 		.ascii	"DIEPMSK\000"
 17351      4D534B00 
 17352              	.LASF562:
 17353 0f18 474F5447 		.ascii	"GOTGINT\000"
 17353      494E5400 
 17354              	.LASF635:
 17355 0f20 6F75745F 		.ascii	"out_cb\000"
 17355      636200
 17356              	.LASF586:
 17357 0f27 4841494E 		.ascii	"HAINTMSK\000"
 17357      544D534B 
 17357      00
 17358              	.LASF495:
 17359 0f30 6F75745F 		.ascii	"out_params\000"
 17359      70617261 
 17359      6D7300
 17360              	.LASF711:
 17361 0f3b 5F737464 		.ascii	"_stdin\000"
 17361      696E00
 17362              	.LASF759:
 17363 0f42 5F6E6D61 		.ascii	"_nmalloc\000"
 17363      6C6C6F63 
 17363      00
 17364              	.LASF455:
 17365 0f4b 64696572 		.ascii	"dier\000"
 17365      00
 17366              	.LASF583:
 17367 0f50 72657376 		.ascii	"resvd40C\000"
 17367      64343043 
 17367      00
 17368              	.LASF132:
 17369 0f59 53504931 		.ascii	"SPI1_IRQn\000"
 17369      5F495251 
 17369      6E00
 17370              	.LASF848:
 17371 0f63 656E636F 		.ascii	"encoder_is_configured\000"
 17371      6465725F 
 17371      69735F63 
 17371      6F6E6669 
 17371      67757265 
ARM GAS  /tmp/ccB9eNXv.s 			page 318


 17372              	.LASF70:
 17373 0f79 76697274 		.ascii	"virtual_timer_t\000"
 17373      75616C5F 
 17373      74696D65 
 17373      725F7400 
 17374              	.LASF65:
 17375 0f89 725F6374 		.ascii	"r_ctx\000"
 17375      7800
 17376              	.LASF72:
 17377 0f8f 76745F6E 		.ascii	"vt_next\000"
 17377      65787400 
 17378              	.LASF333:
 17379 0f97 54494D5F 		.ascii	"TIM_Prescaler\000"
 17379      50726573 
 17379      63616C65 
 17379      7200
 17380              	.LASF770:
 17381 0fa5 454E434F 		.ascii	"ENCODER_MODE_NONE\000"
 17381      4445525F 
 17381      4D4F4445 
 17381      5F4E4F4E 
 17381      4500
 17382              	.LASF22:
 17383 0fb7 7274636E 		.ascii	"rtcnt_t\000"
 17383      745F7400 
 17384              	.LASF420:
 17385 0fbf 6D757465 		.ascii	"mutex\000"
 17385      7800
 17386              	.LASF902:
 17387 0fc5 54494D5F 		.ascii	"TIM_DeInit\000"
 17387      4465496E 
 17387      697400
 17388              	.LASF891:
 17389 0fd0 5243435F 		.ascii	"RCC_APB1PeriphClockCmd\000"
 17389      41504231 
 17389      50657269 
 17389      7068436C 
 17389      6F636B43 
 17390              	.LASF865:
 17391 0fe7 656E636F 		.ascii	"encoder_sincos_get_signal_below_min_error_rate\000"
 17391      6465725F 
 17391      73696E63 
 17391      6F735F67 
 17391      65745F73 
 17392              	.LASF506:
 17393 1016 74787065 		.ascii	"txpending\000"
 17393      6E64696E 
 17393      6700
 17394              	.LASF435:
 17395 1020 636C6F63 		.ascii	"clock\000"
 17395      6B00
 17396              	.LASF348:
 17397 1026 636C6561 		.ascii	"clear\000"
 17397      7200
 17398              	.LASF440:
 17399 102c 43435852 		.ascii	"CCXR\000"
 17399      00
ARM GAS  /tmp/ccB9eNXv.s 			page 319


 17400              	.LASF204:
 17401 1031 43414E5F 		.ascii	"CAN_TypeDef\000"
 17401      54797065 
 17401      44656600 
 17402              	.LASF656:
 17403 103d 5F6F6666 		.ascii	"_off_t\000"
 17403      5F7400
 17404              	.LASF550:
 17405 1044 72657376 		.ascii	"resvd4\000"
 17405      643400
 17406              	.LASF813:
 17407 104b 7265706C 		.ascii	"reply\000"
 17407      7900
 17408              	.LASF460:
 17409 1051 53445F53 		.ascii	"SD_STOP\000"
 17409      544F5000 
 17410              	.LASF541:
 17411 1059 72657376 		.ascii	"resvd8\000"
 17411      643800
 17412              	.LASF21:
 17413 1060 73697A65 		.ascii	"size_t\000"
 17413      5F7400
 17414              	.LASF742:
 17415 1067 5F6C6F63 		.ascii	"_localtime_buf\000"
 17415      616C7469 
 17415      6D655F62 
 17415      756600
 17416              	.LASF836:
 17417 1076 616E676C 		.ascii	"angle_is_correct\000"
 17417      655F6973 
 17417      5F636F72 
 17417      72656374 
 17417      00
 17418              	.LASF608:
 17419 1087 72657376 		.ascii	"resvd880\000"
 17419      64383830 
 17419      00
 17420              	.LASF661:
 17421 1090 5F5F636F 		.ascii	"__count\000"
 17421      756E7400 
 17422              	.LASF15:
 17423 1098 75696E74 		.ascii	"uint8_t\000"
 17423      385F7400 
 17424              	.LASF545:
 17425 10a0 72657376 		.ascii	"resvd14\000"
 17425      64313400 
 17426              	.LASF546:
 17427 10a8 72657376 		.ascii	"resvd18\000"
 17427      64313800 
 17428              	.LASF67:
 17429 10b0 725F6F6C 		.ascii	"r_older\000"
 17429      64657200 
 17430              	.LASF35:
 17431 10b8 705F7072 		.ascii	"p_prev\000"
 17431      657600
 17432              	.LASF269:
 17433 10bf 63665F6F 		.ascii	"cf_off_name\000"
ARM GAS  /tmp/ccB9eNXv.s 			page 320


 17433      66665F6E 
 17433      616D6500 
 17434              	.LASF118:
 17435 10cb 43414E31 		.ascii	"CAN1_RX1_IRQn\000"
 17435      5F525831 
 17435      5F495251 
 17435      6E00
 17436              	.LASF383:
 17437 10d9 63616E73 		.ascii	"canstate_t\000"
 17437      74617465 
 17437      5F7400
 17438              	.LASF604:
 17439 10e4 44494550 		.ascii	"DIEPEMPMSK\000"
 17439      454D504D 
 17439      534B00
 17440              	.LASF778:
 17441 10ef 696E6465 		.ascii	"index_found\000"
 17441      785F666F 
 17441      756E6400 
 17442              	.LASF549:
 17443 10fb 44494550 		.ascii	"DIEPCTL\000"
 17443      43544C00 
 17444              	.LASF894:
 17445 1103 54494D5F 		.ascii	"TIM_Cmd\000"
 17445      436D6400 
 17446              	.LASF285:
 17447 110b 656C5F77 		.ascii	"el_wflags\000"
 17447      666C6167 
 17447      7300
 17448              	.LASF504:
 17449 1115 6F746770 		.ascii	"otgparams\000"
 17449      6172616D 
 17449      7300
 17450              	.LASF120:
 17451 111f 45585449 		.ascii	"EXTI9_5_IRQn\000"
 17451      395F355F 
 17451      4952516E 
 17451      00
 17452              	.LASF368:
 17453 112c 50444461 		.ascii	"PDData\000"
 17453      746100
 17454              	.LASF725:
 17455 1133 5F637674 		.ascii	"_cvtbuf\000"
 17455      62756600 
 17456              	.LASF639:
 17457 113b 6F75745F 		.ascii	"out_state\000"
 17457      73746174 
 17457      6500
 17458              	.LASF289:
 17459 1145 696F5F71 		.ascii	"io_queue_t\000"
 17459      75657565 
 17459      5F7400
 17460              	.LASF715:
 17461 1150 5F656D65 		.ascii	"_emergency\000"
 17461      7267656E 
 17461      637900
 17462              	.LASF794:
ARM GAS  /tmp/ccB9eNXv.s 			page 321


 17463 115b 41533530 		.ascii	"AS504x_sensor_diag\000"
 17463      34785F73 
 17463      656E736F 
 17463      725F6469 
 17463      616700
 17464              	.LASF152:
 17465 116e 54494D37 		.ascii	"TIM7_IRQn\000"
 17465      5F495251 
 17465      6E00
 17466              	.LASF331:
 17467 1178 45585449 		.ascii	"EXTI_LineCmd\000"
 17467      5F4C696E 
 17467      65436D64 
 17467      00
 17468              	.LASF100:
 17469 1185 5254435F 		.ascii	"RTC_WKUP_IRQn\000"
 17469      574B5550 
 17469      5F495251 
 17469      6E00
 17470              	.LASF117:
 17471 1193 43414E31 		.ascii	"CAN1_RX0_IRQn\000"
 17471      5F525830 
 17471      5F495251 
 17471      6E00
 17472              	.LASF422:
 17473 11a1 61646472 		.ascii	"addr\000"
 17473      00
 17474              	.LASF406:
 17475 11a6 4F504D4F 		.ascii	"OPMODE_I2C\000"
 17475      44455F49 
 17475      324300
 17476              	.LASF854:
 17477 11b1 635F6F66 		.ascii	"c_offset\000"
 17477      66736574 
 17477      00
 17478              	.LASF189:
 17479 11ba 52463052 		.ascii	"RF0R\000"
 17479      00
 17480              	.LASF340:
 17481 11bf 675F6261 		.ascii	"g_backup\000"
 17481      636B7570 
 17481      00
 17482              	.LASF325:
 17483 11c8 45585449 		.ascii	"EXTI_Trigger_Falling\000"
 17483      5F547269 
 17483      67676572 
 17483      5F46616C 
 17483      6C696E67 
 17484              	.LASF391:
 17485 11dd 6572726F 		.ascii	"error_event\000"
 17485      725F6576 
 17485      656E7400 
 17486              	.LASF911:
 17487 11e9 656E636F 		.ascii	"encoder_ts57n8501_get_abm\000"
 17487      6465725F 
 17487      74733537 
 17487      6E383530 
ARM GAS  /tmp/ccB9eNXv.s 			page 322


 17487      315F6765 
 17488              	.LASF351:
 17489 1203 4F535045 		.ascii	"OSPEEDR\000"
 17489      45445200 
 17490              	.LASF573:
 17491 120b 72657376 		.ascii	"resvd30\000"
 17491      64333000 
 17492              	.LASF660:
 17493 1213 5F5F7763 		.ascii	"__wchb\000"
 17493      686200
 17494              	.LASF574:
 17495 121a 72657376 		.ascii	"resvd34\000"
 17495      64333400 
 17496              	.LASF457:
 17497 1222 49435544 		.ascii	"ICUD4\000"
 17497      3400
 17498              	.LASF674:
 17499 1228 5F5F746D 		.ascii	"__tm_hour\000"
 17499      5F686F75 
 17499      7200
 17500              	.LASF458:
 17501 1232 49435544 		.ascii	"ICUD9\000"
 17501      3900
 17502              	.LASF816:
 17503 1238 54533537 		.ascii	"TS5700N8501_send_byte\000"
 17503      30304E38 
 17503      3530315F 
 17503      73656E64 
 17503      5F627974 
 17504              	.LASF470:
 17505 124e 53657269 		.ascii	"SerialDriverVMT\000"
 17505      616C4472 
 17505      69766572 
 17505      564D5400 
 17506              	.LASF523:
 17507 125e 5553425F 		.ascii	"USB_EP0_ERROR\000"
 17507      4550305F 
 17507      4552524F 
 17507      5200
 17508              	.LASF310:
 17509 126c 69735F43 		.ascii	"is_Comp_high\000"
 17509      6F6D705F 
 17509      68696768 
 17509      00
 17510              	.LASF658:
 17511 1279 77696E74 		.ascii	"wint_t\000"
 17511      5F7400
 17512              	.LASF101:
 17513 1280 464C4153 		.ascii	"FLASH_IRQn\000"
 17513      485F4952 
 17513      516E00
 17514              	.LASF190:
 17515 128b 52463152 		.ascii	"RF1R\000"
 17515      00
 17516              	.LASF612:
 17517 1290 72657376 		.ascii	"resvdE04\000"
 17517      64453034 
ARM GAS  /tmp/ccB9eNXv.s 			page 323


 17517      00
 17518              	.LASF617:
 17519 1299 6E756D5F 		.ascii	"num_endpoints\000"
 17519      656E6470 
 17519      6F696E74 
 17519      7300
 17520              	.LASF625:
 17521 12a7 746F7473 		.ascii	"totsize\000"
 17521      697A6500 
 17522              	.LASF733:
 17523 12af 5F6E696F 		.ascii	"_niobs\000"
 17523      627300
 17524              	.LASF147:
 17525 12b6 54494D35 		.ascii	"TIM5_IRQn\000"
 17525      5F495251 
 17525      6E00
 17526              	.LASF796:
 17527 12c0 73696E5F 		.ascii	"sin_offset\000"
 17527      6F666673 
 17527      657400
 17528              	.LASF225:
 17529 12cb 43435231 		.ascii	"CCR1\000"
 17529      00
 17530              	.LASF226:
 17531 12d0 43435232 		.ascii	"CCR2\000"
 17531      00
 17532              	.LASF227:
 17533 12d5 43435233 		.ascii	"CCR3\000"
 17533      00
 17534              	.LASF228:
 17535 12da 43435234 		.ascii	"CCR4\000"
 17535      00
 17536              	.LASF539:
 17537 12df 75736267 		.ascii	"usbgetdescriptor_t\000"
 17537      65746465 
 17537      73637269 
 17537      70746F72 
 17537      5F7400
 17538              	.LASF710:
 17539 12f2 5F657272 		.ascii	"_errno\000"
 17539      6E6F00
 17540              	.LASF518:
 17541 12f9 5553425F 		.ascii	"USB_EP0_TX\000"
 17541      4550305F 
 17541      545800
 17542              	.LASF496:
 17543 1304 65703073 		.ascii	"ep0state\000"
 17543      74617465 
 17543      00
 17544              	.LASF872:
 17545 130d 656E636F 		.ascii	"encoder_resolver_degradation_of_signal_error_rate\000"
 17545      6465725F 
 17545      7265736F 
 17545      6C766572 
 17545      5F646567 
 17546              	.LASF675:
 17547 133f 5F5F746D 		.ascii	"__tm_mday\000"
ARM GAS  /tmp/ccB9eNXv.s 			page 324


 17547      5F6D6461 
 17547      7900
 17548              	.LASF342:
 17549 1349 69666372 		.ascii	"ifcr\000"
 17549      00
 17550              	.LASF637:
 17551 134e 6F75745F 		.ascii	"out_maxsize\000"
 17551      6D617873 
 17551      697A6500 
 17552              	.LASF357:
 17553 135a 73746D33 		.ascii	"stm32_gpio_t\000"
 17553      325F6770 
 17553      696F5F74 
 17553      00
 17554              	.LASF243:
 17555 1367 7264796D 		.ascii	"rdymsg\000"
 17555      736700
 17556              	.LASF682:
 17557 136e 5F666E61 		.ascii	"_fnargs\000"
 17557      72677300 
 17558              	.LASF180:
 17559 1376 54445452 		.ascii	"TDTR\000"
 17559      00
 17560              	.LASF188:
 17561 137b 43414E5F 		.ascii	"CAN_FilterRegister_TypeDef\000"
 17561      46696C74 
 17561      65725265 
 17561      67697374 
 17561      65725F54 
 17562              	.LASF324:
 17563 1396 45585449 		.ascii	"EXTI_Trigger_Rising\000"
 17563      5F547269 
 17563      67676572 
 17563      5F526973 
 17563      696E6700 
 17564              	.LASF576:
 17565 13aa 72657376 		.ascii	"resvd58\000"
 17565      64353800 
 17566              	.LASF626:
 17567 13b2 55534249 		.ascii	"USBInEndpointState\000"
 17567      6E456E64 
 17567      706F696E 
 17567      74537461 
 17567      746500
 17568              	.LASF36:
 17569 13c5 705F7072 		.ascii	"p_prio\000"
 17569      696F00
 17570              	.LASF795:
 17571 13cc 73696E5F 		.ascii	"sin_gain\000"
 17571      6761696E 
 17571      00
 17572              	.LASF290:
 17573 13d5 696F5F71 		.ascii	"io_queue\000"
 17573      75657565 
 17573      00
 17574              	.LASF365:
 17575 13de 50414461 		.ascii	"PAData\000"
ARM GAS  /tmp/ccB9eNXv.s 			page 325


 17575      746100
 17576              	.LASF13:
 17577 13e5 5F5F7569 		.ascii	"__uint64_t\000"
 17577      6E743634 
 17577      5F7400
 17578              	.LASF167:
 17579 13f0 444D4132 		.ascii	"DMA2_Stream7_IRQn\000"
 17579      5F537472 
 17579      65616D37 
 17579      5F495251 
 17579      6E00
 17580              	.LASF837:
 17581 1402 656E636F 		.ascii	"encoder_index_found\000"
 17581      6465725F 
 17581      696E6465 
 17581      785F666F 
 17581      756E6400 
 17582              	.LASF667:
 17583 1416 5F6E6578 		.ascii	"_next\000"
 17583      7400
 17584              	.LASF174:
 17585 141c 4F54475F 		.ascii	"OTG_HS_IRQn\000"
 17585      48535F49 
 17585      52516E00 
 17586              	.LASF522:
 17587 1428 5553425F 		.ascii	"USB_EP0_SENDING_STS\000"
 17587      4550305F 
 17587      53454E44 
 17587      494E475F 
 17587      53545300 
 17588              	.LASF750:
 17589 143c 5F736967 		.ascii	"_signal_buf\000"
 17589      6E616C5F 
 17589      62756600 
 17590              	.LASF452:
 17591 1448 70657269 		.ascii	"period_cb\000"
 17591      6F645F63 
 17591      6200
 17592              	.LASF403:
 17593 1452 69326373 		.ascii	"i2cstate_t\000"
 17593      74617465 
 17593      5F7400
 17594              	.LASF696:
 17595 145d 5F636F6F 		.ascii	"_cookie\000"
 17595      6B696500 
 17596              	.LASF782:
 17597 1465 7370695F 		.ascii	"spi_data_err_raised\000"
 17597      64617461 
 17597      5F657272 
 17597      5F726169 
 17597      73656400 
 17598              	.LASF329:
 17599 1479 45585449 		.ascii	"EXTI_Mode\000"
 17599      5F4D6F64 
 17599      6500
 17600              	.LASF166:
 17601 1483 444D4132 		.ascii	"DMA2_Stream6_IRQn\000"
ARM GAS  /tmp/ccB9eNXv.s 			page 326


 17601      5F537472 
 17601      65616D36 
 17601      5F495251 
 17601      6E00
 17602              	.LASF524:
 17603 1495 75736265 		.ascii	"usbep0state_t\000"
 17603      70307374 
 17603      6174655F 
 17603      7400
 17604              	.LASF192:
 17605 14a3 7354784D 		.ascii	"sTxMailBox\000"
 17605      61696C42 
 17605      6F7800
 17606              	.LASF480:
 17607 14ae 5350495F 		.ascii	"SPI_ACTIVE\000"
 17607      41435449 
 17607      564500
 17608              	.LASF293:
 17609 14b9 715F6275 		.ascii	"q_buffer\000"
 17609      66666572 
 17609      00
 17610              	.LASF34:
 17611 14c2 705F6E65 		.ascii	"p_next\000"
 17611      787400
 17612              	.LASF427:
 17613 14c9 49324344 		.ascii	"I2CD2\000"
 17613      3200
 17614              	.LASF330:
 17615 14cf 45585449 		.ascii	"EXTI_Trigger\000"
 17615      5F547269 
 17615      67676572 
 17615      00
 17616              	.LASF398:
 17617 14dc 4932435F 		.ascii	"I2C_STOP\000"
 17617      53544F50 
 17617      00
 17618              	.LASF609:
 17619 14e5 72657376 		.ascii	"resvd8C0\000"
 17619      64384330 
 17619      00
 17620              	.LASF647:
 17621 14ee 55534243 		.ascii	"USBConfig\000"
 17621      6F6E6669 
 17621      6700
 17622              	.LASF552:
 17623 14f8 72657376 		.ascii	"resvdC\000"
 17623      644300
 17624              	.LASF454:
 17625 14ff 6368616E 		.ascii	"channel\000"
 17625      6E656C00 
 17626              	.LASF116:
 17627 1507 43414E31 		.ascii	"CAN1_TX_IRQn\000"
 17627      5F54585F 
 17627      4952516E 
 17627      00
 17628              	.LASF160:
 17629 1514 43414E32 		.ascii	"CAN2_TX_IRQn\000"
ARM GAS  /tmp/ccB9eNXv.s 			page 327


 17629      5F54585F 
 17629      4952516E 
 17629      00
 17630              	.LASF800:
 17631 1521 73696E63 		.ascii	"sincos_signal_below_min_error_cnt\000"
 17631      6F735F73 
 17631      69676E61 
 17631      6C5F6265 
 17631      6C6F775F 
 17632              	.LASF165:
 17633 1543 444D4132 		.ascii	"DMA2_Stream5_IRQn\000"
 17633      5F537472 
 17633      65616D35 
 17633      5F495251 
 17633      6E00
 17634              	.LASF466:
 17635 1555 6F717565 		.ascii	"oqueue\000"
 17635      756500
 17636              	.LASF25:
 17637 155c 74726566 		.ascii	"trefs_t\000"
 17637      735F7400 
 17638              	.LASF53:
 17639 1564 705F6D70 		.ascii	"p_mpool\000"
 17639      6F6F6C00 
 17640              	.LASF672:
 17641 156c 5F5F746D 		.ascii	"__tm_sec\000"
 17641      5F736563 
 17641      00
 17642              	.LASF640:
 17643 1575 696E5F6D 		.ascii	"in_multiplier\000"
 17643      756C7469 
 17643      706C6965 
 17643      7200
 17644              	.LASF884:
 17645 1583 73645374 		.ascii	"sdStart\000"
 17645      61727400 
 17646              	.LASF681:
 17647 158b 5F6F6E5F 		.ascii	"_on_exit_args\000"
 17647      65786974 
 17647      5F617267 
 17647      7300
 17648              	.LASF92:
 17649 1599 55736167 		.ascii	"UsageFault_IRQn\000"
 17649      65466175 
 17649      6C745F49 
 17649      52516E00 
 17650              	.LASF23:
 17651 15a9 746D6F64 		.ascii	"tmode_t\000"
 17651      655F7400 
 17652              	.LASF719:
 17653 15b1 5F5F636C 		.ascii	"__cleanup\000"
 17653      65616E75 
 17653      7000
 17654              	.LASF690:
 17655 15bb 5F626173 		.ascii	"_base\000"
 17655      6500
 17656              	.LASF593:
ARM GAS  /tmp/ccB9eNXv.s 			page 328


 17657 15c1 44535453 		.ascii	"DSTS\000"
 17657      00
 17658              	.LASF805:
 17659 15c6 6D743638 		.ascii	"mt6816_spi_cfg\000"
 17659      31365F73 
 17659      70695F63 
 17659      666700
 17660              	.LASF353:
 17661 15d5 42535252 		.ascii	"BSRR\000"
 17661      00
 17662              	.LASF231:
 17663 15da 54494D5F 		.ascii	"TIM_TypeDef\000"
 17663      54797065 
 17663      44656600 
 17664              	.LASF645:
 17665 15e6 72657175 		.ascii	"requests_hook_cb\000"
 17665      65737473 
 17665      5F686F6F 
 17665      6B5F6362 
 17665      00
 17666              	.LASF755:
 17667 15f7 5F776372 		.ascii	"_wcrtomb_state\000"
 17667      746F6D62 
 17667      5F737461 
 17667      746500
 17668              	.LASF623:
 17669 1606 74787369 		.ascii	"txsize\000"
 17669      7A6500
 17670              	.LASF108:
 17671 160d 444D4131 		.ascii	"DMA1_Stream0_IRQn\000"
 17671      5F537472 
 17671      65616D30 
 17671      5F495251 
 17671      6E00
 17672              	.LASF139:
 17673 161f 4F54475F 		.ascii	"OTG_FS_WKUP_IRQn\000"
 17673      46535F57 
 17673      4B55505F 
 17673      4952516E 
 17673      00
 17674              	.LASF851:
 17675 1630 735F6761 		.ascii	"s_gain\000"
 17675      696E00
 17676              	.LASF402:
 17677 1637 4932435F 		.ascii	"I2C_LOCKED\000"
 17677      4C4F434B 
 17677      454400
 17678              	.LASF451:
 17679 1642 77696474 		.ascii	"width_cb\000"
 17679      685F6362 
 17679      00
 17680              	.LASF309:
 17681 164b 69735F43 		.ascii	"is_Comp_low\000"
 17681      6F6D705F 
 17681      6C6F7700 
 17682              	.LASF512:
 17683 1657 5553425F 		.ascii	"USB_READY\000"
ARM GAS  /tmp/ccB9eNXv.s 			page 329


 17683      52454144 
 17683      5900
 17684              	.LASF476:
 17685 1661 72656164 		.ascii	"readt\000"
 17685      7400
 17686              	.LASF772:
 17687 1667 454E434F 		.ascii	"ENCODER_MODE_AS5047P_SPI\000"
 17687      4445525F 
 17687      4D4F4445 
 17687      5F415335 
 17687      30343750 
 17688              	.LASF565:
 17689 1680 47525354 		.ascii	"GRSTCTL\000"
 17689      43544C00 
 17690              	.LASF774:
 17691 1688 454E434F 		.ascii	"ENCODER_MODE_SINCOS\000"
 17691      4445525F 
 17691      4D4F4445 
 17691      5F53494E 
 17691      434F5300 
 17692              	.LASF665:
 17693 169c 5F5F554C 		.ascii	"__ULong\000"
 17693      6F6E6700 
 17694              	.LASF82:
 17695 16a4 70616E69 		.ascii	"panic_msg\000"
 17695      635F6D73 
 17695      6700
 17696              	.LASF481:
 17697 16ae 5350495F 		.ascii	"SPI_COMPLETE\000"
 17697      434F4D50 
 17697      4C455445 
 17697      00
 17698              	.LASF705:
 17699 16bb 5F646174 		.ascii	"_data\000"
 17699      6100
 17700              	.LASF66:
 17701 16c1 725F6E65 		.ascii	"r_newer\000"
 17701      77657200 
 17702              	.LASF858:
 17703 16c9 656E636F 		.ascii	"encoder_init_mt6816_spi\000"
 17703      6465725F 
 17703      696E6974 
 17703      5F6D7436 
 17703      3831365F 
 17704              	.LASF530:
 17705 16e1 5553425F 		.ascii	"USB_EVENT_STALLED\000"
 17705      4556454E 
 17705      545F5354 
 17705      414C4C45 
 17705      4400
 17706              	.LASF121:
 17707 16f3 54494D31 		.ascii	"TIM1_BRK_TIM9_IRQn\000"
 17707      5F42524B 
 17707      5F54494D 
 17707      395F4952 
 17707      516E00
 17708              	.LASF276:
ARM GAS  /tmp/ccB9eNXv.s 			page 330


 17709 1706 63686465 		.ascii	"chdebug_t\000"
 17709      6275675F 
 17709      7400
 17710              	.LASF629:
 17711 1710 72787369 		.ascii	"rxsize\000"
 17711      7A6500
 17712              	.LASF807:
 17713 1717 74733537 		.ascii	"ts5700n8501_stop_now\000"
 17713      30306E38 
 17713      3530315F 
 17713      73746F70 
 17713      5F6E6F77 
 17714              	.LASF431:
 17715 172c 4943555F 		.ascii	"ICU_WAITING\000"
 17715      57414954 
 17715      494E4700 
 17716              	.LASF544:
 17717 1738 48435453 		.ascii	"HCTSIZ\000"
 17717      495A00
 17718              	.LASF527:
 17719 173f 5553425F 		.ascii	"USB_EVENT_CONFIGURED\000"
 17719      4556454E 
 17719      545F434F 
 17719      4E464947 
 17719      55524544 
 17720              	.LASF473:
 17721 1754 70757474 		.ascii	"putt\000"
 17721      00
 17722              	.LASF26:
 17723 1759 74736C69 		.ascii	"tslices_t\000"
 17723      6365735F 
 17723      7400
 17724              	.LASF740:
 17725 1763 5F737472 		.ascii	"_strtok_last\000"
 17725      746F6B5F 
 17725      6C617374 
 17725      00
 17726              	.LASF888:
 17727 1770 54494D5F 		.ascii	"TIM_SetAutoreload\000"
 17727      53657441 
 17727      75746F72 
 17727      656C6F61 
 17727      6400
 17728              	.LASF263:
 17729 1782 63685F74 		.ascii	"ch_timesize\000"
 17729      696D6573 
 17729      697A6500 
 17730              	.LASF177:
 17731 178e 4650555F 		.ascii	"FPU_IRQn\000"
 17731      4952516E 
 17731      00
 17732              	.LASF508:
 17733 1797 77615F70 		.ascii	"wa_pump\000"
 17733      756D7000 
 17734              	.LASF288:
 17735 179f 6576656E 		.ascii	"event_source_t\000"
 17735      745F736F 
ARM GAS  /tmp/ccB9eNXv.s 			page 331


 17735      75726365 
 17735      5F7400
 17736              	.LASF579:
 17737 17ae 72657376 		.ascii	"resvd140\000"
 17737      64313430 
 17737      00
 17738              	.LASF74:
 17739 17b7 76745F64 		.ascii	"vt_delta\000"
 17739      656C7461 
 17739      00
 17740              	.LASF736:
 17741 17c0 5F736565 		.ascii	"_seed\000"
 17741      6400
 17742              	.LASF90:
 17743 17c6 4D656D6F 		.ascii	"MemoryManagement_IRQn\000"
 17743      72794D61 
 17743      6E616765 
 17743      6D656E74 
 17743      5F495251 
 17744              	.LASF699:
 17745 17dc 5F736565 		.ascii	"_seek\000"
 17745      6B00
 17746              	.LASF375:
 17747 17e2 696F706F 		.ascii	"ioportmask_t\000"
 17747      72746D61 
 17747      736B5F74 
 17747      00
 17748              	.LASF528:
 17749 17ef 5553425F 		.ascii	"USB_EVENT_SUSPEND\000"
 17749      4556454E 
 17749      545F5355 
 17749      5350454E 
 17749      4400
 17750              	.LASF16:
 17751 1801 696E7431 		.ascii	"int16_t\000"
 17751      365F7400 
 17752              	.LASF7:
 17753 1809 73686F72 		.ascii	"short unsigned int\000"
 17753      7420756E 
 17753      7369676E 
 17753      65642069 
 17753      6E7400
 17754              	.LASF1:
 17755 181c 7369676E 		.ascii	"signed char\000"
 17755      65642063 
 17755      68617200 
 17756              	.LASF162:
 17757 1828 43414E32 		.ascii	"CAN2_RX1_IRQn\000"
 17757      5F525831 
 17757      5F495251 
 17757      6E00
 17758              	.LASF328:
 17759 1836 45585449 		.ascii	"EXTI_Line\000"
 17759      5F4C696E 
 17759      6500
 17760              	.LASF45:
 17761 1840 705F7072 		.ascii	"p_preempt\000"
ARM GAS  /tmp/ccB9eNXv.s 			page 332


 17761      65656D70 
 17761      7400
 17762              	.LASF883:
 17763 184a 63684951 		.ascii	"chIQGetTimeout\000"
 17763      47657454 
 17763      696D656F 
 17763      757400
 17764              	.LASF46:
 17765 1859 705F7469 		.ascii	"p_time\000"
 17765      6D6500
 17766              	.LASF182:
 17767 1860 54444852 		.ascii	"TDHR\000"
 17767      00
 17768              	.LASF521:
 17769 1865 5553425F 		.ascii	"USB_EP0_RX\000"
 17769      4550305F 
 17769      525800
 17770              	.LASF765:
 17771 1870 5F5F6664 		.ascii	"__fdlibm_ieee\000"
 17771      6C69626D 
 17771      5F696565 
 17771      6500
 17772              	.LASF868:
 17773 187e 656E636F 		.ascii	"encoder_resolver_loss_of_signal_error_cnt\000"
 17773      6465725F 
 17773      7265736F 
 17773      6C766572 
 17773      5F6C6F73 
 17774              	.LASF501:
 17775 18a8 73746174 		.ascii	"status\000"
 17775      757300
 17776              	.LASF534:
 17777 18af 55534244 		.ascii	"USBDescriptor\000"
 17777      65736372 
 17777      6970746F 
 17777      7200
 17778              	.LASF815:
 17779 18bd 74733537 		.ascii	"ts5700n8501_thread\000"
 17779      30306E38 
 17779      3530315F 
 17779      74687265 
 17779      616400
 17780              	.LASF648:
 17781 18d0 55534244 		.ascii	"USBD1\000"
 17781      3100
 17782              	.LASF161:
 17783 18d6 43414E32 		.ascii	"CAN2_RX0_IRQn\000"
 17783      5F525830 
 17783      5F495251 
 17783      6E00
 17784              	.LASF723:
 17785 18e4 5F667265 		.ascii	"_freelist\000"
 17785      656C6973 
 17785      7400
 17786              	.LASF889:
 17787 18ee 7370695F 		.ascii	"spi_lld_polled_exchange\000"
 17787      6C6C645F 
ARM GAS  /tmp/ccB9eNXv.s 			page 333


 17787      706F6C6C 
 17787      65645F65 
 17787      78636861 
 17788              	.LASF502:
 17789 1906 61646472 		.ascii	"address\000"
 17789      65737300 
 17790              	.LASF897:
 17791 190e 5243435F 		.ascii	"RCC_APB2PeriphClockCmd\000"
 17791      41504232 
 17791      50657269 
 17791      7068436C 
 17791      6F636B43 
 17792              	.LASF48:
 17793 1925 705F6D73 		.ascii	"p_msgqueue\000"
 17793      67717565 
 17793      756500
 17794              	.LASF874:
 17795 1930 656E636F 		.ascii	"encoder_get_no_magnet_error_rate\000"
 17795      6465725F 
 17795      6765745F 
 17795      6E6F5F6D 
 17795      61676E65 
 17796              	.LASF273:
 17797 1951 63665F6F 		.ascii	"cf_off_refs\000"
 17797      66665F72 
 17797      65667300 
 17798              	.LASF151:
 17799 195d 54494D36 		.ascii	"TIM6_DAC_IRQn\000"
 17799      5F444143 
 17799      5F495251 
 17799      6E00
 17800              	.LASF255:
 17801 196b 6D5F6F77 		.ascii	"m_owner\000"
 17801      6E657200 
 17802              	.LASF469:
 17803 1973 53657269 		.ascii	"SerialConfig\000"
 17803      616C436F 
 17803      6E666967 
 17803      00
 17804              	.LASF704:
 17805 1980 5F6F6666 		.ascii	"_offset\000"
 17805      73657400 
 17806              	.LASF179:
 17807 1988 53797374 		.ascii	"SystemCoreClock\000"
 17807      656D436F 
 17807      7265436C 
 17807      6F636B00 
 17808              	.LASF144:
 17809 1998 444D4131 		.ascii	"DMA1_Stream7_IRQn\000"
 17809      5F537472 
 17809      65616D37 
 17809      5F495251 
 17809      6E00
 17810              	.LASF145:
 17811 19aa 46534D43 		.ascii	"FSMC_IRQn\000"
 17811      5F495251 
 17811      6E00
ARM GAS  /tmp/ccB9eNXv.s 			page 334


 17812              	.LASF261:
 17813 19b4 63685F76 		.ascii	"ch_version\000"
 17813      65727369 
 17813      6F6E00
 17814              	.LASF316:
 17815 19bf 6F646F6D 		.ascii	"odometer_init_flag\000"
 17815      65746572 
 17815      5F696E69 
 17815      745F666C 
 17815      616700
 17816              	.LASF137:
 17817 19d2 45585449 		.ascii	"EXTI15_10_IRQn\000"
 17817      31355F31 
 17817      305F4952 
 17817      516E00
 17818              	.LASF520:
 17819 19e1 5553425F 		.ascii	"USB_EP0_WAITING_STS\000"
 17819      4550305F 
 17819      57414954 
 17819      494E475F 
 17819      53545300 
 17820              	.LASF213:
 17821 19f5 4932435F 		.ascii	"I2C_TypeDef\000"
 17821      54797065 
 17821      44656600 
 17822              	.LASF186:
 17823 1a01 52444852 		.ascii	"RDHR\000"
 17823      00
 17824              	.LASF738:
 17825 1a06 5F616464 		.ascii	"_add\000"
 17825      00
 17826              	.LASF863:
 17827 1a0b 656E636F 		.ascii	"encoder_ts5700n8501_get_raw_status\000"
 17827      6465725F 
 17827      74733537 
 17827      30306E38 
 17827      3530315F 
 17828              	.LASF230:
 17829 1a2e 444D4152 		.ascii	"DMAR\000"
 17829      00
 17830              	.LASF776:
 17831 1a33 454E434F 		.ascii	"ENCODER_MODE_MT6816_SPI\000"
 17831      4445525F 
 17831      4D4F4445 
 17831      5F4D5436 
 17831      3831365F 
 17832              	.LASF84:
 17833 1a4b 63685F73 		.ascii	"ch_system\000"
 17833      79737465 
 17833      6D00
 17834              	.LASF709:
 17835 1a55 5F726565 		.ascii	"_reent\000"
 17835      6E7400
 17836              	.LASF900:
 17837 1a5c 45585449 		.ascii	"EXTI_Init\000"
 17837      5F496E69 
 17837      7400
ARM GAS  /tmp/ccB9eNXv.s 			page 335


 17838              	.LASF749:
 17839 1a66 5F6C3634 		.ascii	"_l64a_buf\000"
 17839      615F6275 
 17839      6600
 17840              	.LASF741:
 17841 1a70 5F617363 		.ascii	"_asctime_buf\000"
 17841      74696D65 
 17841      5F627566 
 17841      00
 17842              	.LASF320:
 17843 1a7d 6261636B 		.ascii	"backup_data\000"
 17843      75705F64 
 17843      61746100 
 17844              	.LASF659:
 17845 1a89 5F5F7763 		.ascii	"__wch\000"
 17845      6800
 17846              	.LASF662:
 17847 1a8f 5F5F7661 		.ascii	"__value\000"
 17847      6C756500 
 17848              	.LASF250:
 17849 1a97 63685F73 		.ascii	"ch_semaphore\000"
 17849      656D6170 
 17849      686F7265 
 17849      00
 17850              	.LASF832:
 17851 1aa4 7265675F 		.ascii	"reg_addr_03\000"
 17851      61646472 
 17851      5F303300 
 17852              	.LASF833:
 17853 1ab0 7265675F 		.ascii	"reg_addr_04\000"
 17853      61646472 
 17853      5F303400 
 17854              	.LASF756:
 17855 1abc 5F776373 		.ascii	"_wcsrtombs_state\000"
 17855      72746F6D 
 17855      62735F73 
 17855      74617465 
 17855      00
 17856              	.LASF798:
 17857 1acd 636F735F 		.ascii	"cos_offset\000"
 17857      6F666673 
 17857      657400
 17858              	.LASF553:
 17859 1ad8 44494550 		.ascii	"DIEPTSIZ\000"
 17859      5453495A 
 17859      00
 17860              	.LASF313:
 17861 1ae1 73657269 		.ascii	"serial_error_flags\000"
 17861      616C5F65 
 17861      72726F72 
 17861      5F666C61 
 17861      677300
 17862              	.LASF142:
 17863 1af4 54494D38 		.ascii	"TIM8_TRG_COM_TIM14_IRQn\000"
 17863      5F545247 
 17863      5F434F4D 
 17863      5F54494D 
ARM GAS  /tmp/ccB9eNXv.s 			page 336


 17863      31345F49 
 17864              	.LASF819:
 17865 1b0c 7370695F 		.ascii	"spi_end\000"
 17865      656E6400 
 17866              	.LASF59:
 17867 1b14 74687265 		.ascii	"threads_queue_t\000"
 17867      6164735F 
 17867      71756575 
 17867      655F7400 
 17868              	.LASF907:
 17869 1b24 5F5F6664 		.ascii	"__fdlibm_version\000"
 17869      6C69626D 
 17869      5F766572 
 17869      73696F6E 
 17869      00
 17870              	.LASF649:
 17871 1b35 4144435F 		.ascii	"ADC_Value\000"
 17871      56616C75 
 17871      6500
 17872              	.LASF44:
 17873 1b3f 705F7265 		.ascii	"p_refs\000"
 17873      667300
 17874              	.LASF632:
 17875 1b46 65705F6D 		.ascii	"ep_mode\000"
 17875      6F646500 
 17876              	.LASF560:
 17877 1b4e 73746D33 		.ascii	"stm32_otg_out_ep_t\000"
 17877      325F6F74 
 17877      675F6F75 
 17877      745F6570 
 17877      5F7400
 17878              	.LASF181:
 17879 1b61 54444C52 		.ascii	"TDLR\000"
 17879      00
 17880              	.LASF9:
 17881 1b66 6C6F6E67 		.ascii	"long int\000"
 17881      20696E74 
 17881      00
 17882              	.LASF892:
 17883 1b6f 54494D5F 		.ascii	"TIM_TimeBaseInit\000"
 17883      54696D65 
 17883      42617365 
 17883      496E6974 
 17883      00
 17884              	.LASF87:
 17885 1b80 6D61696E 		.ascii	"mainthread\000"
 17885      74687265 
 17885      616400
 17886              	.LASF852:
 17887 1b8b 735F6F66 		.ascii	"s_offset\000"
 17887      66736574 
 17887      00
 17888              	.LASF748:
 17889 1b94 5F776374 		.ascii	"_wctomb_state\000"
 17889      6F6D625F 
 17889      73746174 
 17889      6500
ARM GAS  /tmp/ccB9eNXv.s 			page 337


 17890              	.LASF870:
 17891 1ba2 656E636F 		.ascii	"encoder_resolver_loss_of_tracking_error_cnt\000"
 17891      6465725F 
 17891      7265736F 
 17891      6C766572 
 17891      5F6C6F73 
 17892              	.LASF498:
 17893 1bce 6570306E 		.ascii	"ep0n\000"
 17893      00
 17894              	.LASF254:
 17895 1bd3 6D5F7175 		.ascii	"m_queue\000"
 17895      65756500 
 17896              	.LASF334:
 17897 1bdb 54494D5F 		.ascii	"TIM_CounterMode\000"
 17897      436F756E 
 17897      7465724D 
 17897      6F646500 
 17898              	.LASF338:
 17899 1beb 54494D5F 		.ascii	"TIM_TimeBaseInitTypeDef\000"
 17899      54696D65 
 17899      42617365 
 17899      496E6974 
 17899      54797065 
 17900              	.LASF372:
 17901 1c03 50484461 		.ascii	"PHData\000"
 17901      746100
 17902              	.LASF886:
 17903 1c0a 7574696C 		.ascii	"utils_sys_lock_cnt\000"
 17903      735F7379 
 17903      735F6C6F 
 17903      636B5F63 
 17903      6E7400
 17904              	.LASF376:
 17905 1c1d 696F706F 		.ascii	"ioportid_t\000"
 17905      72746964 
 17905      5F7400
 17906              	.LASF124:
 17907 1c28 54494D31 		.ascii	"TIM1_CC_IRQn\000"
 17907      5F43435F 
 17907      4952516E 
 17907      00
 17908              	.LASF580:
 17909 1c35 48434647 		.ascii	"HCFG\000"
 17909      00
 17910              	.LASF446:
 17911 1c3a 4943555F 		.ascii	"ICU_CHANNEL_1\000"
 17911      4348414E 
 17911      4E454C5F 
 17911      3100
 17912              	.LASF753:
 17913 1c48 5F6D6272 		.ascii	"_mbrtowc_state\000"
 17913      746F7763 
 17913      5F737461 
 17913      746500
 17914              	.LASF311:
 17915 1c57 73657269 		.ascii	"serial_diag_flgs\000"
 17915      616C5F64 
ARM GAS  /tmp/ccB9eNXv.s 			page 338


 17915      6961675F 
 17915      666C6773 
 17915      00
 17916              	.LASF734:
 17917 1c68 5F696F62 		.ascii	"_iobs\000"
 17917      7300
 17918              	.LASF489:
 17919 1c6e 53504944 		.ascii	"SPID1\000"
 17919      3100
 17920              	.LASF474:
 17921 1c74 67657474 		.ascii	"gett\000"
 17921      00
 17922              	.LASF490:
 17923 1c79 53504944 		.ascii	"SPID3\000"
 17923      3300
 17924              	.LASF246:
 17925 1c7f 77747472 		.ascii	"wttrp\000"
 17925      7000
 17926              	.LASF296:
 17927 1c85 715F7264 		.ascii	"q_rdptr\000"
 17927      70747200 
 17928              	.LASF239:
 17929 1c8d 636F6E74 		.ascii	"context\000"
 17929      65787400 
 17930              	.LASF471:
 17931 1c95 77726974 		.ascii	"write\000"
 17931      6500
 17932              	.LASF744:
 17933 1c9b 5F72616E 		.ascii	"_rand_next\000"
 17933      645F6E65 
 17933      787400
 17934              	.LASF465:
 17935 1ca6 69717565 		.ascii	"iqueue\000"
 17935      756500
 17936              	.LASF857:
 17937 1cad 54494D5F 		.ascii	"TIM_TimeBaseStructure\000"
 17937      54696D65 
 17937      42617365 
 17937      53747275 
 17937      63747572 
 17938              	.LASF634:
 17939 1cc3 696E5F63 		.ascii	"in_cb\000"
 17939      6200
 17940              	.LASF558:
 17941 1cc9 444F4550 		.ascii	"DOEPINT\000"
 17941      494E5400 
 17942              	.LASF354:
 17943 1cd1 4C434B52 		.ascii	"LCKR\000"
 17943      00
 17944              	.LASF462:
 17945 1cd6 73647374 		.ascii	"sdstate_t\000"
 17945      6174655F 
 17945      7400
 17946              	.LASF653:
 17947 1ce0 7574696C 		.ascii	"utils_tab_cos_32_1\000"
 17947      735F7461 
 17947      625F636F 
ARM GAS  /tmp/ccB9eNXv.s 			page 339


 17947      735F3332 
 17947      5F3100
 17948              	.LASF19:
 17949 1cf3 75696E74 		.ascii	"uint32_t\000"
 17949      33325F74 
 17949      00
 17950              	.LASF154:
 17951 1cfc 444D4132 		.ascii	"DMA2_Stream1_IRQn\000"
 17951      5F537472 
 17951      65616D31 
 17951      5F495251 
 17951      6E00
 17952              	.LASF339:
 17953 1d0e 636F6E66 		.ascii	"conf_general_permanent_nrf_found\000"
 17953      5F67656E 
 17953      6572616C 
 17953      5F706572 
 17953      6D616E65 
 17954              	.LASF668:
 17955 1d2f 5F6D6178 		.ascii	"_maxwds\000"
 17955      77647300 
 17956              	.LASF538:
 17957 1d37 75736272 		.ascii	"usbreqhandler_t\000"
 17957      65716861 
 17957      6E646C65 
 17957      725F7400 
 17958              	.LASF185:
 17959 1d47 52444C52 		.ascii	"RDLR\000"
 17959      00
 17960              	.LASF107:
 17961 1d4c 45585449 		.ascii	"EXTI4_IRQn\000"
 17961      345F4952 
 17961      516E00
 17962              	.LASF669:
 17963 1d57 5F736967 		.ascii	"_sign\000"
 17963      6E00
 17964              	.LASF149:
 17965 1d5d 55415254 		.ascii	"UART4_IRQn\000"
 17965      345F4952 
 17965      516E00
 17966              	.LASF737:
 17967 1d68 5F6D756C 		.ascii	"_mult\000"
 17967      7400
 17968              	.LASF237:
 17969 1d6e 72656761 		.ascii	"regarm_t\000"
 17969      726D5F74 
 17969      00
 17970              	.LASF29:
 17971 1d77 6576656E 		.ascii	"eventmask_t\000"
 17971      746D6173 
 17971      6B5F7400 
 17972              	.LASF830:
 17973 1d83 7265675F 		.ascii	"reg_data_03\000"
 17973      64617461 
 17973      5F303300 
 17974              	.LASF831:
 17975 1d8f 7265675F 		.ascii	"reg_data_04\000"
ARM GAS  /tmp/ccB9eNXv.s 			page 340


 17975      64617461 
 17975      5F303400 
 17976              	.LASF525:
 17977 1d9b 5553425F 		.ascii	"USB_EVENT_RESET\000"
 17977      4556454E 
 17977      545F5245 
 17977      53455400 
 17978              	.LASF153:
 17979 1dab 444D4132 		.ascii	"DMA2_Stream0_IRQn\000"
 17979      5F537472 
 17979      65616D30 
 17979      5F495251 
 17979      6E00
 17980              	.LASF199:
 17981 1dbd 46464131 		.ascii	"FFA1R\000"
 17981      5200
 17982              	.LASF513:
 17983 1dc3 5553425F 		.ascii	"USB_SELECTED\000"
 17983      53454C45 
 17983      43544544 
 17983      00
 17984              	.LASF866:
 17985 1dd0 656E636F 		.ascii	"encoder_sincos_get_signal_above_max_error_cnt\000"
 17985      6465725F 
 17985      73696E63 
 17985      6F735F67 
 17985      65745F73 
 17986              	.LASF11:
 17987 1dfe 6C6F6E67 		.ascii	"long unsigned int\000"
 17987      20756E73 
 17987      69676E65 
 17987      6420696E 
 17987      7400
 17988              	.LASF106:
 17989 1e10 45585449 		.ascii	"EXTI3_IRQn\000"
 17989      335F4952 
 17989      516E00
 17990              	.LASF295:
 17991 1e1b 715F7772 		.ascii	"q_wrptr\000"
 17991      70747200 
 17992              	.LASF434:
 17993 1e23 49435544 		.ascii	"ICUDriver\000"
 17993      72697665 
 17993      7200
 17994              	.LASF456:
 17995 1e2d 49435543 		.ascii	"ICUConfig\000"
 17995      6F6E6669 
 17995      6700
 17996              	.LASF811:
 17997 1e37 74733537 		.ascii	"ts5700n8501_reset_multiturn\000"
 17997      30306E38 
 17997      3530315F 
 17997      72657365 
 17997      745F6D75 
 17998              	.LASF526:
 17999 1e53 5553425F 		.ascii	"USB_EVENT_ADDRESS\000"
 17999      4556454E 
ARM GAS  /tmp/ccB9eNXv.s 			page 341


 17999      545F4144 
 17999      44524553 
 17999      5300
 18000              	.LASF318:
 18001 1e65 72756E74 		.ascii	"runtime_init_flag\000"
 18001      696D655F 
 18001      696E6974 
 18001      5F666C61 
 18001      6700
 18002              	.LASF389:
 18003 1e77 72786675 		.ascii	"rxfull_event\000"
 18003      6C6C5F65 
 18003      76656E74 
 18003      00
 18004              	.LASF531:
 18005 1e84 75736265 		.ascii	"usbevent_t\000"
 18005      76656E74 
 18005      5F7400
 18006              	.LASF700:
 18007 1e8f 5F636C6F 		.ascii	"_close\000"
 18007      736500
 18008              	.LASF257:
 18009 1e96 63686172 		.ascii	"char\000"
 18009      00
 18010              	.LASF136:
 18011 1e9b 55534152 		.ascii	"USART3_IRQn\000"
 18011      54335F49 
 18011      52516E00 
 18012              	.LASF384:
 18013 1ea7 43414E43 		.ascii	"CANConfig\000"
 18013      6F6E6669 
 18013      6700
 18014              	.LASF369:
 18015 1eb1 50454461 		.ascii	"PEData\000"
 18015      746100
 18016              	.LASF63:
 18017 1eb8 725F7175 		.ascii	"r_queue\000"
 18017      65756500 
 18018              	.LASF732:
 18019 1ec0 5F676C75 		.ascii	"_glue\000"
 18019      6500
 18020              	.LASF877:
 18021 1ec6 656E636F 		.ascii	"encoder_spi_get_val\000"
 18021      6465725F 
 18021      7370695F 
 18021      6765745F 
 18021      76616C00 
 18022              	.LASF570:
 18023 1eda 47525846 		.ascii	"GRXFSIZ\000"
 18023      53495A00 
 18024              	.LASF467:
 18025 1ee2 75736172 		.ascii	"usart\000"
 18025      7400
 18026              	.LASF317:
 18027 1ee8 6F646F6D 		.ascii	"odometer\000"
 18027      65746572 
 18027      00
ARM GAS  /tmp/ccB9eNXv.s 			page 342


 18028              	.LASF298:
 18029 1ef1 715F6C69 		.ascii	"q_link\000"
 18029      6E6B00
 18030              	.LASF873:
 18031 1ef8 656E636F 		.ascii	"encoder_resolver_loss_of_tracking_error_rate\000"
 18031      6465725F 
 18031      7265736F 
 18031      6C766572 
 18031      5F6C6F73 
 18032              	.LASF135:
 18033 1f25 55534152 		.ascii	"USART2_IRQn\000"
 18033      54325F49 
 18033      52516E00 
 18034              	.LASF305:
 18035 1f31 4147435F 		.ascii	"AGC_value\000"
 18035      76616C75 
 18035      6500
 18036              	.LASF307:
 18037 1f3b 69735F4F 		.ascii	"is_OCF\000"
 18037      434600
 18038              	.LASF666:
 18039 1f42 5F426967 		.ascii	"_Bigint\000"
 18039      696E7400 
 18040              	.LASF176:
 18041 1f4a 48415348 		.ascii	"HASH_RNG_IRQn\000"
 18041      5F524E47 
 18041      5F495251 
 18041      6E00
 18042              	.LASF567:
 18043 1f58 47494E54 		.ascii	"GINTMSK\000"
 18043      4D534B00 
 18044              	.LASF438:
 18045 1f60 69637563 		.ascii	"icucallback_t\000"
 18045      616C6C62 
 18045      61636B5F 
 18045      7400
 18046              	.LASF572:
 18047 1f6e 484E5054 		.ascii	"HNPTXSTS\000"
 18047      58535453 
 18047      00
 18048              	.LASF128:
 18049 1f77 49324331 		.ascii	"I2C1_EV_IRQn\000"
 18049      5F45565F 
 18049      4952516E 
 18049      00
 18050              	.LASF503:
 18051 1f84 636F6E66 		.ascii	"configuration\000"
 18051      69677572 
 18051      6174696F 
 18051      6E00
 18052              	.LASF130:
 18053 1f92 49324332 		.ascii	"I2C2_EV_IRQn\000"
 18053      5F45565F 
 18053      4952516E 
 18053      00
 18054              	.LASF134:
 18055 1f9f 55534152 		.ascii	"USART1_IRQn\000"
ARM GAS  /tmp/ccB9eNXv.s 			page 343


 18055      54315F49 
 18055      52516E00 
 18056              	.LASF727:
 18057 1fab 5F617465 		.ascii	"_atexit0\000"
 18057      78697430 
 18057      00
 18058              	.LASF839:
 18059 1fb4 7370695F 		.ascii	"spi_transfer\000"
 18059      7472616E 
 18059      73666572 
 18059      00
 18060              	.LASF169:
 18061 1fc1 49324333 		.ascii	"I2C3_EV_IRQn\000"
 18061      5F45565F 
 18061      4952516E 
 18061      00
 18062              	.LASF364:
 18063 1fce 73746D33 		.ascii	"stm32_gpio_setup_t\000"
 18063      325F6770 
 18063      696F5F73 
 18063      65747570 
 18063      5F7400
 18064              	.LASF443:
 18065 1fe1 4943555F 		.ascii	"ICU_INPUT_ACTIVE_LOW\000"
 18065      494E5055 
 18065      545F4143 
 18065      54495645 
 18065      5F4C4F57 
 18066              	.LASF326:
 18067 1ff6 45585449 		.ascii	"EXTI_Trigger_Rising_Falling\000"
 18067      5F547269 
 18067      67676572 
 18067      5F526973 
 18067      696E675F 
 18068              	.LASF347:
 18069 2012 5F73746D 		.ascii	"_stm32_dma_streams\000"
 18069      33325F64 
 18069      6D615F73 
 18069      74726561 
 18069      6D7300
 18070              	.LASF871:
 18071 2025 656E636F 		.ascii	"encoder_resolver_loss_of_signal_error_rate\000"
 18071      6465725F 
 18071      7265736F 
 18071      6C766572 
 18071      5F6C6F73 
 18072              	.LASF751:
 18073 2050 5F676574 		.ascii	"_getdate_err\000"
 18073      64617465 
 18073      5F657272 
 18073      00
 18074              	.LASF893:
 18075 205d 54494D5F 		.ascii	"TIM_ITConfig\000"
 18075      4954436F 
 18075      6E666967 
 18075      00
 18076              	.LASF445:
ARM GAS  /tmp/ccB9eNXv.s 			page 344


 18077 206a 69637566 		.ascii	"icufreq_t\000"
 18077      7265715F 
 18077      7400
 18078              	.LASF671:
 18079 2074 5F5F746D 		.ascii	"__tm\000"
 18079      00
 18080              	.LASF859:
 18081 2079 656E636F 		.ascii	"encoder_init_as5047p_spi\000"
 18081      6465725F 
 18081      696E6974 
 18081      5F617335 
 18081      30343770 
 18082              	.LASF846:
 18083 2092 656E636F 		.ascii	"encoder_read_deg\000"
 18083      6465725F 
 18083      72656164 
 18083      5F646567 
 18083      00
 18084              	.LASF41:
 18085 20a3 705F7374 		.ascii	"p_stklimit\000"
 18085      6B6C696D 
 18085      697400
 18086              	.LASF171:
 18087 20ae 4F54475F 		.ascii	"OTG_HS_EP1_OUT_IRQn\000"
 18087      48535F45 
 18087      50315F4F 
 18087      55545F49 
 18087      52516E00 
 18088              	.LASF31:
 18089 20c2 636E745F 		.ascii	"cnt_t\000"
 18089      7400
 18090              	.LASF856:
 18091 20c8 656E636F 		.ascii	"encoder_init_ad2s1205_spi\000"
 18091      6465725F 
 18091      696E6974 
 18091      5F616432 
 18091      73313230 
 18092              	.LASF519:
 18093 20e2 5553425F 		.ascii	"USB_EP0_WAITING_TX0\000"
 18093      4550305F 
 18093      57414954 
 18093      494E475F 
 18093      54583000 
 18094              	.LASF308:
 18095 20f6 69735F43 		.ascii	"is_COF\000"
 18095      4F4600
 18096              	.LASF148:
 18097 20fd 53504933 		.ascii	"SPI3_IRQn\000"
 18097      5F495251 
 18097      6E00
 18098              	.LASF548:
 18099 2107 73746D33 		.ascii	"stm32_otg_host_chn_t\000"
 18099      325F6F74 
 18099      675F686F 
 18099      73745F63 
 18099      686E5F74 
 18100              	.LASF356:
ARM GAS  /tmp/ccB9eNXv.s 			page 345


 18101 211c 41465248 		.ascii	"AFRH\000"
 18101      00
 18102              	.LASF355:
 18103 2121 4146524C 		.ascii	"AFRL\000"
 18103      00
 18104              	.LASF763:
 18105 2126 5F696D70 		.ascii	"_impure_ptr\000"
 18105      7572655F 
 18105      70747200 
 18106              	.LASF274:
 18107 2132 63665F6F 		.ascii	"cf_off_preempt\000"
 18107      66665F70 
 18107      7265656D 
 18107      707400
 18108              	.LASF557:
 18109 2141 444F4550 		.ascii	"DOEPCTL\000"
 18109      43544C00 
 18110              	.LASF543:
 18111 2149 4843494E 		.ascii	"HCINTMSK\000"
 18111      544D534B 
 18111      00
 18112              	.LASF701:
 18113 2152 5F756275 		.ascii	"_ubuf\000"
 18113      6600
 18114              	.LASF386:
 18115 2158 636F6E66 		.ascii	"config\000"
 18115      696700
 18116              	.LASF746:
 18117 215f 5F6D626C 		.ascii	"_mblen_state\000"
 18117      656E5F73 
 18117      74617465 
 18117      00
 18118              	.LASF729:
 18119 216c 5F5F7367 		.ascii	"__sglue\000"
 18119      6C756500 
 18120              	.LASF762:
 18121 2174 5F5F6C6F 		.ascii	"__locale_t\000"
 18121      63616C65 
 18121      5F7400
 18122              	.LASF150:
 18123 217f 55415254 		.ascii	"UART5_IRQn\000"
 18123      355F4952 
 18123      516E00
 18124              	.LASF591:
 18125 218a 44434647 		.ascii	"DCFG\000"
 18125      00
 18126              	.LASF111:
 18127 218f 444D4131 		.ascii	"DMA1_Stream3_IRQn\000"
 18127      5F537472 
 18127      65616D33 
 18127      5F495251 
 18127      6E00
 18128              	.LASF799:
 18129 21a1 73696E63 		.ascii	"sincos_filter_constant\000"
 18129      6F735F66 
 18129      696C7465 
 18129      725F636F 
ARM GAS  /tmp/ccB9eNXv.s 			page 346


 18129      6E737461 
 18130              	.LASF432:
 18131 21b8 4943555F 		.ascii	"ICU_ACTIVE\000"
 18131      41435449 
 18131      564500
 18132              	.LASF69:
 18133 21c3 76746675 		.ascii	"vtfunc_t\000"
 18133      6E635F74 
 18133      00
 18134              	.LASF187:
 18135 21cc 43414E5F 		.ascii	"CAN_FIFOMailBox_TypeDef\000"
 18135      4649464F 
 18135      4D61696C 
 18135      426F785F 
 18135      54797065 
 18136              	.LASF787:
 18137 21e4 7265736F 		.ascii	"resolver_loss_of_tracking_error_rate\000"
 18137      6C766572 
 18137      5F6C6F73 
 18137      735F6F66 
 18137      5F747261 
 18138              	.LASF245:
 18139 2209 77746F62 		.ascii	"wtobjp\000"
 18139      6A7000
 18140              	.LASF657:
 18141 2210 5F66706F 		.ascii	"_fpos_t\000"
 18141      735F7400 
 18142              	.LASF694:
 18143 2218 5F66696C 		.ascii	"_file\000"
 18143      6500
 18144              	.LASF52:
 18145 221e 705F7265 		.ascii	"p_realprio\000"
 18145      616C7072 
 18145      696F00
 18146              	.LASF835:
 18147 2229 70617269 		.ascii	"parity_error\000"
 18147      74795F65 
 18147      72726F72 
 18147      00
 18148              	.LASF297:
 18149 2236 715F6E6F 		.ascii	"q_notify\000"
 18149      74696679 
 18149      00
 18150              	.LASF248:
 18151 223f 77746D74 		.ascii	"wtmtxp\000"
 18151      787000
 18152              	.LASF110:
 18153 2246 444D4131 		.ascii	"DMA1_Stream2_IRQn\000"
 18153      5F537472 
 18153      65616D32 
 18153      5F495251 
 18153      6E00
 18154              	.LASF692:
 18155 2258 5F5F7346 		.ascii	"__sFILE\000"
 18155      494C4500 
 18156              	.LASF315:
 18157 2260 646F7562 		.ascii	"double\000"
ARM GAS  /tmp/ccB9eNXv.s 			page 347


 18157      6C6500
 18158              	.LASF688:
 18159 2267 5F666E73 		.ascii	"_fns\000"
 18159      00
 18160              	.LASF824:
 18161 226c 72656365 		.ascii	"receive\000"
 18161      69766500 
 18162              	.LASF631:
 18163 2274 5553424F 		.ascii	"USBOutEndpointState\000"
 18163      7574456E 
 18163      64706F69 
 18163      6E745374 
 18163      61746500 
 18164              	.LASF587:
 18165 2288 72657376 		.ascii	"resvd41C\000"
 18165      64343143 
 18165      00
 18166              	.LASF663:
 18167 2291 5F6D6273 		.ascii	"_mbstate_t\000"
 18167      74617465 
 18167      5F7400
 18168              	.LASF757:
 18169 229c 5F685F65 		.ascii	"_h_errno\000"
 18169      72726E6F 
 18169      00
 18170              	.LASF849:
 18171 22a5 656E636F 		.ascii	"encoder_init_ts5700n8501\000"
 18171      6465725F 
 18171      696E6974 
 18171      5F747335 
 18171      3730306E 
 18172              	.LASF184:
 18173 22be 52445452 		.ascii	"RDTR\000"
 18173      00
 18174              	.LASF109:
 18175 22c3 444D4131 		.ascii	"DMA1_Stream1_IRQn\000"
 18175      5F537472 
 18175      65616D31 
 18175      5F495251 
 18175      6E00
 18176              	.LASF767:
 18177 22d5 5F5F6664 		.ascii	"__fdlibm_xopen\000"
 18177      6C69626D 
 18177      5F786F70 
 18177      656E00
 18178              	.LASF468:
 18179 22e4 73706565 		.ascii	"speed\000"
 18179      6400
 18180              	.LASF62:
 18181 22ea 63685F72 		.ascii	"ch_ready_list\000"
 18181      65616479 
 18181      5F6C6973 
 18181      7400
 18182              	.LASF352:
 18183 22f8 50555044 		.ascii	"PUPDR\000"
 18183      5200
 18184              	.LASF8:
ARM GAS  /tmp/ccB9eNXv.s 			page 348


 18185 22fe 5F5F696E 		.ascii	"__int32_t\000"
 18185      7433325F 
 18185      7400
 18186              	.LASF826:
 18187 2308 54533537 		.ascii	"TS5700N8501_delay_uart\000"
 18187      30304E38 
 18187      3530315F 
 18187      64656C61 
 18187      795F7561 
 18188              	.LASF804:
 18189 231f 54533537 		.ascii	"TS5700N8501_uart_cfg\000"
 18189      30304E38 
 18189      3530315F 
 18189      75617274 
 18189      5F636667 
 18190              	.LASF10:
 18191 2334 5F5F7569 		.ascii	"__uint32_t\000"
 18191      6E743332 
 18191      5F7400
 18192              	.LASF436:
 18193 233f 77636372 		.ascii	"wccrp\000"
 18193      7000
 18194              	.LASF81:
 18195 2345 63685F73 		.ascii	"ch_system_debug\000"
 18195      79737465 
 18195      6D5F6465 
 18195      62756700 
 18196              	.LASF598:
 18197 2355 4441494E 		.ascii	"DAINTMSK\000"
 18197      544D534B 
 18197      00
 18198              	.LASF236:
 18199 235e 46756E63 		.ascii	"FunctionalState\000"
 18199      74696F6E 
 18199      616C5374 
 18199      61746500 
 18200              	.LASF158:
 18201 236e 4554485F 		.ascii	"ETH_IRQn\000"
 18201      4952516E 
 18201      00
 18202              	.LASF96:
 18203 2377 53797354 		.ascii	"SysTick_IRQn\000"
 18203      69636B5F 
 18203      4952516E 
 18203      00
 18204              	.LASF292:
 18205 2384 715F636F 		.ascii	"q_counter\000"
 18205      756E7465 
 18205      7200
 18206              	.LASF517:
 18207 238e 5553425F 		.ascii	"USB_EP0_WAITING_SETUP\000"
 18207      4550305F 
 18207      57414954 
 18207      494E475F 
 18207      53455455 
 18208              	.LASF821:
 18209 23a4 696E5F62 		.ascii	"in_buf\000"
ARM GAS  /tmp/ccB9eNXv.s 			page 349


 18209      756600
 18210              	.LASF685:
 18211 23ab 5F69735F 		.ascii	"_is_cxa\000"
 18211      63786100 
 18212              	.LASF363:
 18213 23b3 61667268 		.ascii	"afrh\000"
 18213      00
 18214              	.LASF429:
 18215 23b8 4943555F 		.ascii	"ICU_STOP\000"
 18215      53544F50 
 18215      00
 18216              	.LASF362:
 18217 23c1 6166726C 		.ascii	"afrl\000"
 18217      00
 18218              	.LASF621:
 18219 23c6 71756575 		.ascii	"queue\000"
 18219      6500
 18220              	.LASF855:
 18221 23cc 66696C74 		.ascii	"filter_constant\000"
 18221      65725F63 
 18221      6F6E7374 
 18221      616E7400 
 18222              	.LASF499:
 18223 23dc 65703065 		.ascii	"ep0endcb\000"
 18223      6E646362 
 18223      00
 18224              	.LASF773:
 18225 23e5 5245534F 		.ascii	"RESOLVER_MODE_AD2S1205\000"
 18225      4C564552 
 18225      5F4D4F44 
 18225      455F4144 
 18225      32533132 
 18226              	.LASF344:
 18227 23fc 73656C66 		.ascii	"selfindex\000"
 18227      696E6465 
 18227      7800
 18228              	.LASF278:
 18229 2406 6D757465 		.ascii	"mutex_t\000"
 18229      785F7400 
 18230              	.LASF722:
 18231 240e 5F703573 		.ascii	"_p5s\000"
 18231      00
 18232              	.LASF50:
 18233 2413 705F6570 		.ascii	"p_epending\000"
 18233      656E6469 
 18233      6E6700
 18234              	.LASF119:
 18235 241e 43414E31 		.ascii	"CAN1_SCE_IRQn\000"
 18235      5F534345 
 18235      5F495251 
 18235      6E00
 18236              	.LASF349:
 18237 242c 4D4F4445 		.ascii	"MODER\000"
 18237      5200
 18238              	.LASF842:
 18239 2432 656E636F 		.ascii	"encoder_reset\000"
 18239      6465725F 
ARM GAS  /tmp/ccB9eNXv.s 			page 350


 18239      72657365 
 18239      7400
 18240              	.LASF834:
 18241 2440 52445645 		.ascii	"RDVEL\000"
 18241      4C00
 18242              	.LASF89:
 18243 2446 4E6F6E4D 		.ascii	"NonMaskableInt_IRQn\000"
 18243      61736B61 
 18243      626C6549 
 18243      6E745F49 
 18243      52516E00 
 18244              	.LASF191:
 18245 245a 52455345 		.ascii	"RESERVED0\000"
 18245      52564544 
 18245      3000
 18246              	.LASF194:
 18247 2464 52455345 		.ascii	"RESERVED1\000"
 18247      52564544 
 18247      3100
 18248              	.LASF196:
 18249 246e 52455345 		.ascii	"RESERVED2\000"
 18249      52564544 
 18249      3200
 18250              	.LASF198:
 18251 2478 52455345 		.ascii	"RESERVED3\000"
 18251      52564544 
 18251      3300
 18252              	.LASF200:
 18253 2482 52455345 		.ascii	"RESERVED4\000"
 18253      52564544 
 18253      3400
 18254              	.LASF202:
 18255 248c 52455345 		.ascii	"RESERVED5\000"
 18255      52564544 
 18255      3500
 18256              	.LASF642:
 18257 2496 55534245 		.ascii	"USBEndpointConfig\000"
 18257      6E64706F 
 18257      696E7443 
 18257      6F6E6669 
 18257      6700
 18258              	.LASF388:
 18259 24a8 72787175 		.ascii	"rxqueue\000"
 18259      65756500 
 18260              	.LASF589:
 18261 24b0 72657376 		.ascii	"resvd444\000"
 18261      64343434 
 18261      00
 18262              	.LASF377:
 18263 24b9 70616C5F 		.ascii	"pal_default_config\000"
 18263      64656661 
 18263      756C745F 
 18263      636F6E66 
 18263      696700
 18264              	.LASF764:
 18265 24cc 5F676C6F 		.ascii	"_global_impure_ptr\000"
 18265      62616C5F 
ARM GAS  /tmp/ccB9eNXv.s 			page 351


 18265      696D7075 
 18265      72655F70 
 18265      747200
 18266              	.LASF828:
 18267 24df 636F756E 		.ascii	"counts\000"
 18267      747300
 18268              	.LASF122:
 18269 24e6 54494D31 		.ascii	"TIM1_UP_TIM10_IRQn\000"
 18269      5F55505F 
 18269      54494D31 
 18269      305F4952 
 18269      516E00
 18270              	.LASF620:
 18271 24f9 6C696E65 		.ascii	"linear\000"
 18271      617200
 18272              	.LASF822:
 18273 2500 6F75745F 		.ascii	"out_buf\000"
 18273      62756600 
 18274              	.LASF882:
 18275 2508 63685468 		.ascii	"chThdSleep\000"
 18275      64536C65 
 18275      657000
 18276              	.LASF441:
 18277 2513 73746D33 		.ascii	"stm32_tim_t\000"
 18277      325F7469 
 18277      6D5F7400 
 18278              	.LASF780:
 18279 251f 6C617374 		.ascii	"last_enc_angle\000"
 18279      5F656E63 
 18279      5F616E67 
 18279      6C6500
 18280              	.LASF64:
 18281 252e 725F7072 		.ascii	"r_prio\000"
 18281      696F00
 18282              	.LASF505:
 18283 2535 706D6E65 		.ascii	"pmnext\000"
 18283      787400
 18284              	.LASF327:
 18285 253c 45585449 		.ascii	"EXTITrigger_TypeDef\000"
 18285      54726967 
 18285      6765725F 
 18285      54797065 
 18285      44656600 
 18286              	.LASF291:
 18287 2550 715F7761 		.ascii	"q_waiting\000"
 18287      6974696E 
 18287      6700
 18288              	.LASF876:
 18289 255a 656E636F 		.ascii	"encoder_spi_get_error_rate\000"
 18289      6465725F 
 18289      7370695F 
 18289      6765745F 
 18289      6572726F 
 18290              	.LASF178:
 18291 2575 49544D5F 		.ascii	"ITM_RxBuffer\000"
 18291      52784275 
 18291      66666572 
ARM GAS  /tmp/ccB9eNXv.s 			page 352


 18291      00
 18292              	.LASF447:
 18293 2582 4943555F 		.ascii	"ICU_CHANNEL_2\000"
 18293      4348414E 
 18293      4E454C5F 
 18293      3200
 18294              	.LASF14:
 18295 2590 6C6F6E67 		.ascii	"long long unsigned int\000"
 18295      206C6F6E 
 18295      6720756E 
 18295      7369676E 
 18295      65642069 
 18296              	.LASF903:
 18297 25a7 73706953 		.ascii	"spiStop\000"
 18297      746F7000 
 18298              	.LASF241:
 18299 25af 6F666673 		.ascii	"offset\000"
 18299      657400
 18300              	.LASF814:
 18301 25b6 7265706C 		.ascii	"reply_ind\000"
 18301      795F696E 
 18301      6400
 18302              	.LASF879:
 18303 25c0 63685265 		.ascii	"chRegSetThreadName\000"
 18303      67536574 
 18303      54687265 
 18303      61644E61 
 18303      6D6500
 18304              	.LASF829:
 18305 25d3 656E636F 		.ascii	"encoder_tim_isr\000"
 18305      6465725F 
 18305      74696D5F 
 18305      69737200 
 18306              	.LASF205:
 18307 25e3 4E445452 		.ascii	"NDTR\000"
 18307      00
 18308              	.LASF287:
 18309 25e8 65735F6E 		.ascii	"es_next\000"
 18309      65787400 
 18310              	.LASF743:
 18311 25f0 5F67616D 		.ascii	"_gamma_signgam\000"
 18311      6D615F73 
 18311      69676E67 
 18311      616D00
 18312              	.LASF555:
 18313 25ff 72657376 		.ascii	"resvd1C\000"
 18313      64314300 
 18314              	.LASF88:
 18315 2607 69646C65 		.ascii	"idle_thread_wa\000"
 18315      5F746872 
 18315      6561645F 
 18315      776100
 18316              	.LASF551:
 18317 2616 44494550 		.ascii	"DIEPINT\000"
 18317      494E5400 
 18318              	.LASF433:
 18319 261e 69637573 		.ascii	"icustate_t\000"
ARM GAS  /tmp/ccB9eNXv.s 			page 353


 18319      74617465 
 18319      5F7400
 18320              	.LASF219:
 18321 2629 5350495F 		.ascii	"SPI_TypeDef\000"
 18321      54797065 
 18321      44656600 
 18322              	.LASF75:
 18323 2635 76745F66 		.ascii	"vt_func\000"
 18323      756E6300 
 18324              	.LASF220:
 18325 263d 534D4352 		.ascii	"SMCR\000"
 18325      00
 18326              	.LASF910:
 18327 2642 656E636F 		.ascii	"encoder_ts57n8501_reset_errors\000"
 18327      6465725F 
 18327      74733537 
 18327      6E383530 
 18327      315F7265 
 18328              	.LASF596:
 18329 2661 444F4550 		.ascii	"DOEPMSK\000"
 18329      4D534B00 
 18330              	.LASF71:
 18331 2669 63685F76 		.ascii	"ch_virtual_timer\000"
 18331      69727475 
 18331      616C5F74 
 18331      696D6572 
 18331      00
 18332              	.LASF43:
 18333 267a 705F666C 		.ascii	"p_flags\000"
 18333      61677300 
 18334              	.LASF249:
 18335 2682 65776D61 		.ascii	"ewmask\000"
 18335      736B00
 18336              	.LASF862:
 18337 2689 656E636F 		.ascii	"encoder_deinit\000"
 18337      6465725F 
 18337      6465696E 
 18337      697400
 18338              	.LASF284:
 18339 2698 656C5F66 		.ascii	"el_flags\000"
 18339      6C616773 
 18339      00
 18340              	.LASF286:
 18341 26a1 6576656E 		.ascii	"event_source\000"
 18341      745F736F 
 18341      75726365 
 18341      00
 18342              	.LASF51:
 18343 26ae 705F6D74 		.ascii	"p_mtxlist\000"
 18343      786C6973 
 18343      7400
 18344              	.LASF395:
 18345 26b8 43414E44 		.ascii	"CAND1\000"
 18345      3100
 18346              	.LASF197:
 18347 26be 46533152 		.ascii	"FS1R\000"
 18347      00
ARM GAS  /tmp/ccB9eNXv.s 			page 354


 18348              	.LASF24:
 18349 26c3 74737461 		.ascii	"tstate_t\000"
 18349      74655F74 
 18349      00
 18350              	.LASF483:
 18351 26cc 53504944 		.ascii	"SPIDriver\000"
 18351      72697665 
 18351      7200
 18352              	.LASF597:
 18353 26d6 4441494E 		.ascii	"DAINT\000"
 18353      5400
 18354              	.LASF488:
 18355 26dc 53504943 		.ascii	"SPIConfig\000"
 18355      6F6E6669 
 18355      6700
 18356              	.LASF716:
 18357 26e6 5F756E73 		.ascii	"_unspecified_locale_info\000"
 18357      70656369 
 18357      66696564 
 18357      5F6C6F63 
 18357      616C655F 
 18358              	.LASF361:
 18359 26ff 70757064 		.ascii	"pupdr\000"
 18359      7200
 18360              	.LASF492:
 18361 2705 7472616E 		.ascii	"transmitting\000"
 18361      736D6974 
 18361      74696E67 
 18361      00
 18362              	.LASF860:
 18363 2712 656E636F 		.ascii	"encoder_init_abi\000"
 18363      6465725F 
 18363      696E6974 
 18363      5F616269 
 18363      00
 18364              	.LASF818:
 18365 2723 7370695F 		.ascii	"spi_delay\000"
 18365      64656C61 
 18365      7900
 18366              	.LASF853:
 18367 272d 635F6761 		.ascii	"c_gain\000"
 18367      696E00
 18368              	.LASF40:
 18369 2734 705F6E61 		.ascii	"p_name\000"
 18369      6D6500
 18370              	.LASF718:
 18371 273b 5F5F7364 		.ascii	"__sdidinit\000"
 18371      6964696E 
 18371      697400
 18372              	.LASF463:
 18373 2746 53657269 		.ascii	"SerialDriver\000"
 18373      616C4472 
 18373      69766572 
 18373      00
 18374              	.LASF768:
 18375 2753 5F5F6664 		.ascii	"__fdlibm_posix\000"
 18375      6C69626D 
ARM GAS  /tmp/ccB9eNXv.s 			page 355


 18375      5F706F73 
 18375      697800
 18376              	.LASF516:
 18377 2762 75736273 		.ascii	"usbstate_t\000"
 18377      74617465 
 18377      5F7400
 18378              	.LASF559:
 18379 276d 444F4550 		.ascii	"DOEPTSIZ\000"
 18379      5453495A 
 18379      00
 18380              	.LASF880:
 18381 2776 6E616D65 		.ascii	"name\000"
 18381      00
 18382              	.LASF664:
 18383 277b 5F666C6F 		.ascii	"_flock_t\000"
 18383      636B5F74 
 18383      00
 18384              	.LASF779:
 18385 2784 656E635F 		.ascii	"enc_counts\000"
 18385      636F756E 
 18385      747300
 18386              	.LASF77:
 18387 278f 76697274 		.ascii	"virtual_timers_list_t\000"
 18387      75616C5F 
 18387      74696D65 
 18387      72735F6C 
 18387      6973745F 
 18388              	.LASF895:
 18389 27a5 6E766963 		.ascii	"nvicEnableVector\000"
 18389      456E6162 
 18389      6C655665 
 18389      63746F72 
 18389      00
 18390              	.LASF129:
 18391 27b6 49324331 		.ascii	"I2C1_ER_IRQn\000"
 18391      5F45525F 
 18391      4952516E 
 18391      00
 18392              	.LASF864:
 18393 27c3 656E636F 		.ascii	"encoder_sincos_get_signal_above_max_error_rate\000"
 18393      6465725F 
 18393      73696E63 
 18393      6F735F67 
 18393      65745F73 
 18394              	.LASF123:
 18395 27f2 54494D31 		.ascii	"TIM1_TRG_COM_TIM11_IRQn\000"
 18395      5F545247 
 18395      5F434F4D 
 18395      5F54494D 
 18395      31315F49 
 18396              	.LASF515:
 18397 280a 5553425F 		.ascii	"USB_SUSPENDED\000"
 18397      53555350 
 18397      454E4445 
 18397      4400
 18398              	.LASF95:
 18399 2818 50656E64 		.ascii	"PendSV_IRQn\000"
ARM GAS  /tmp/ccB9eNXv.s 			page 356


 18399      53565F49 
 18399      52516E00 
 18400              	.LASF131:
 18401 2824 49324332 		.ascii	"I2C2_ER_IRQn\000"
 18401      5F45525F 
 18401      4952516E 
 18401      00
 18402              	.LASF358:
 18403 2831 6D6F6465 		.ascii	"moder\000"
 18403      7200
 18404              	.LASF820:
 18405 2837 7370695F 		.ascii	"spi_begin\000"
 18405      62656769 
 18405      6E00
 18406              	.LASF251:
 18407 2841 735F7175 		.ascii	"s_queue\000"
 18407      65756500 
 18408              	.LASF170:
 18409 2849 49324333 		.ascii	"I2C3_ER_IRQn\000"
 18409      5F45525F 
 18409      4952516E 
 18409      00
 18410              	.LASF217:
 18411 2856 49325343 		.ascii	"I2SCFGR\000"
 18411      46475200 
 18412              	.LASF784:
 18413 285e 656E636F 		.ascii	"encoder_no_magnet_error_cnt\000"
 18413      6465725F 
 18413      6E6F5F6D 
 18413      61676E65 
 18413      745F6572 
 18414              	.LASF258:
 18415 287a 63685F69 		.ascii	"ch_identifier\000"
 18415      64656E74 
 18415      69666965 
 18415      7200
 18416              	.LASF785:
 18417 2888 7370695F 		.ascii	"spi_error_rate\000"
 18417      6572726F 
 18417      725F7261 
 18417      746500
 18418              	.LASF475:
 18419 2897 77726974 		.ascii	"writet\000"
 18419      657400
 18420              	.LASF12:
 18421 289e 6C6F6E67 		.ascii	"long long int\000"
 18421      206C6F6E 
 18421      6720696E 
 18421      7400
 18422              	.LASF577:
 18423 28ac 48505458 		.ascii	"HPTXFSIZ\000"
 18423      4653495A 
 18423      00
 18424              	.LASF265:
 18425 28b5 63665F6F 		.ascii	"cf_off_prio\000"
 18425      66665F70 
 18425      72696F00 
ARM GAS  /tmp/ccB9eNXv.s 			page 357


 18426              	.LASF708:
 18427 28c1 5F666C61 		.ascii	"_flags2\000"
 18427      67733200 
 18428              	.LASF809:
 18429 28c9 74733537 		.ascii	"ts5700n8501_raw_status\000"
 18429      30306E38 
 18429      3530315F 
 18429      7261775F 
 18429      73746174 
 18430              	.LASF306:
 18431 28e0 6D61676E 		.ascii	"magnitude\000"
 18431      69747564 
 18431      6500
 18432              	.LASF758:
 18433 28ea 5F6E6578 		.ascii	"_nextf\000"
 18433      746600
 18434              	.LASF885:
 18435 28f1 5F70616C 		.ascii	"_pal_lld_setgroupmode\000"
 18435      5F6C6C64 
 18435      5F736574 
 18435      67726F75 
 18435      706D6F64 
 18436              	.LASF444:
 18437 2907 6963756D 		.ascii	"icumode_t\000"
 18437      6F64655F 
 18437      7400
 18438              	.LASF624:
 18439 2911 7478636E 		.ascii	"txcnt\000"
 18439      7400
 18440              	.LASF644:
 18441 2917 6765745F 		.ascii	"get_descriptor_cb\000"
 18441      64657363 
 18441      72697074 
 18441      6F725F63 
 18441      6200
 18442              	.LASF717:
 18443 2929 5F6C6F63 		.ascii	"_locale\000"
 18443      616C6500 
 18444              	.LASF30:
 18445 2931 6576656E 		.ascii	"eventflags_t\000"
 18445      74666C61 
 18445      67735F74 
 18445      00
 18446              	.LASF479:
 18447 293e 5350495F 		.ascii	"SPI_READY\000"
 18447      52454144 
 18447      5900
 18448              	.LASF312:
 18449 2948 73657269 		.ascii	"serial_magnitude\000"
 18449      616C5F6D 
 18449      61676E69 
 18449      74756465 
 18449      00
 18450              	.LASF613:
 18451 2959 4649464F 		.ascii	"FIFO\000"
 18451      00
 18452              	.LASF193:
ARM GAS  /tmp/ccB9eNXv.s 			page 358


 18453 295e 73464946 		.ascii	"sFIFOMailBox\000"
 18453      4F4D6169 
 18453      6C426F78 
 18453      00
 18454              	.LASF592:
 18455 296b 4443544C 		.ascii	"DCTL\000"
 18455      00
 18456              	.LASF775:
 18457 2970 454E434F 		.ascii	"ENCODER_MODE_TS5700N8501\000"
 18457      4445525F 
 18457      4D4F4445 
 18457      5F545335 
 18457      3730304E 
 18458              	.LASF619:
 18459 2989 74786275 		.ascii	"txbuf\000"
 18459      6600
 18460              	.LASF611:
 18461 298f 50434743 		.ascii	"PCGCCTL\000"
 18461      43544C00 
 18462              	.LASF529:
 18463 2997 5553425F 		.ascii	"USB_EVENT_WAKEUP\000"
 18463      4556454E 
 18463      545F5741 
 18463      4B455550 
 18463      00
 18464              	.LASF39:
 18465 29a8 705F6F6C 		.ascii	"p_older\000"
 18465      64657200 
 18466              	.LASF373:
 18467 29b0 50494461 		.ascii	"PIData\000"
 18467      746100
 18468              	.LASF898:
 18469 29b7 54494D5F 		.ascii	"TIM_EncoderInterfaceConfig\000"
 18469      456E636F 
 18469      64657249 
 18469      6E746572 
 18469      66616365 
 18470              	.LASF641:
 18471 29d2 73657475 		.ascii	"setup_buf\000"
 18471      705F6275 
 18471      6600
 18472              	.LASF141:
 18473 29dc 54494D38 		.ascii	"TIM8_UP_TIM13_IRQn\000"
 18473      5F55505F 
 18473      54494D31 
 18473      335F4952 
 18473      516E00
 18474              	.LASF887:
 18475 29ef 7574696C 		.ascii	"utils_sys_unlock_cnt\000"
 18475      735F7379 
 18475      735F756E 
 18475      6C6F636B 
 18475      5F636E74 
 18476              	.LASF486:
 18477 2a04 7373706F 		.ascii	"ssport\000"
 18477      727400
 18478              	.LASF686:
ARM GAS  /tmp/ccB9eNXv.s 			page 359


 18479 2a0b 5F617465 		.ascii	"_atexit\000"
 18479      78697400 
 18480              	.LASF428:
 18481 2a13 4943555F 		.ascii	"ICU_UNINIT\000"
 18481      554E494E 
 18481      495400
 18482              	.LASF55:
 18483 2a1e 74687265 		.ascii	"thread_reference_t\000"
 18483      61645F72 
 18483      65666572 
 18483      656E6365 
 18483      5F7400
 18484              	.LASF786:
 18485 2a31 656E636F 		.ascii	"encoder_no_magnet_error_rate\000"
 18485      6465725F 
 18485      6E6F5F6D 
 18485      61676E65 
 18485      745F6572 
 18486              	.LASF493:
 18487 2a4e 72656365 		.ascii	"receiving\000"
 18487      6976696E 
 18487      6700
 18488              	.LASF731:
 18489 2a58 5F5F4649 		.ascii	"__FILE\000"
 18489      4C4500
 18490              	.LASF450:
 18491 2a5f 66726571 		.ascii	"frequency\000"
 18491      75656E63 
 18491      7900
 18492              	.LASF323:
 18493 2a69 45585449 		.ascii	"EXTIMode_TypeDef\000"
 18493      4D6F6465 
 18493      5F547970 
 18493      65446566 
 18493      00
 18494              	.LASF861:
 18495 2a7a 45585449 		.ascii	"EXTI_InitStructure\000"
 18495      5F496E69 
 18495      74537472 
 18495      75637475 
 18495      726500
 18496              	.LASF242:
 18497 2a8d 746D5F63 		.ascii	"tm_calibration_t\000"
 18497      616C6962 
 18497      72617469 
 18497      6F6E5F74 
 18497      00
 18498              	.LASF491:
 18499 2a9e 55534244 		.ascii	"USBDriver\000"
 18499      72697665 
 18499      7200
 18500              	.LASF638:
 18501 2aa8 696E5F73 		.ascii	"in_state\000"
 18501      74617465 
 18501      00
 18502              	.LASF232:
 18503 2ab1 47545052 		.ascii	"GTPR\000"
ARM GAS  /tmp/ccB9eNXv.s 			page 360


 18503      00
 18504              	.LASF906:
 18505 2ab6 2F626C64 		.ascii	"/bldc\000"
 18505      6300
 18506              	.LASF650:
 18507 2abc 4144435F 		.ascii	"ADC_curr_norm_value\000"
 18507      63757272 
 18507      5F6E6F72 
 18507      6D5F7661 
 18507      6C756500 
 18508              	.LASF98:
 18509 2ad0 5056445F 		.ascii	"PVD_IRQn\000"
 18509      4952516E 
 18509      00
 18510              	.LASF264:
 18511 2ad9 63685F74 		.ascii	"ch_threadsize\000"
 18511      68726561 
 18511      6473697A 
 18511      6500
 18512              	.LASF212:
 18513 2ae7 464C5452 		.ascii	"FLTR\000"
 18513      00
 18514              	.LASF769:
 18515 2aec 5F5F6664 		.ascii	"__fdlib_version\000"
 18515      6C69625F 
 18515      76657273 
 18515      696F6E00 
 18516              	.LASF850:
 18517 2afc 656E636F 		.ascii	"encoder_init_sincos\000"
 18517      6465725F 
 18517      696E6974 
 18517      5F73696E 
 18517      636F7300 
 18518              	.LASF222:
 18519 2b10 43434D52 		.ascii	"CCMR1\000"
 18519      3100
 18520              	.LASF223:
 18521 2b16 43434D52 		.ascii	"CCMR2\000"
 18521      3200
 18522              	.LASF439:
 18523 2b1c 43434D52 		.ascii	"CCMR3\000"
 18523      3300
 18524              	.LASF0:
 18525 2b22 756E7369 		.ascii	"unsigned int\000"
 18525      676E6564 
 18525      20696E74 
 18525      00
 18526              	.LASF745:
 18527 2b2f 5F723438 		.ascii	"_r48\000"
 18527      00
 18528              	.LASF581:
 18529 2b34 48464952 		.ascii	"HFIR\000"
 18529      00
 18530              	.LASF510:
 18531 2b39 5553425F 		.ascii	"USB_UNINIT\000"
 18531      554E494E 
 18531      495400
ARM GAS  /tmp/ccB9eNXv.s 			page 361


 18532              	.LASF341:
 18533 2b44 73747265 		.ascii	"stream\000"
 18533      616D00
 18534              	.LASF409:
 18535 2b4b 6932636F 		.ascii	"i2copmode_t\000"
 18535      706D6F64 
 18535      655F7400 
 18536              	.LASF259:
 18537 2b57 63685F7A 		.ascii	"ch_zero\000"
 18537      65726F00 
 18538              	.LASF5:
 18539 2b5f 73686F72 		.ascii	"short int\000"
 18539      7420696E 
 18539      7400
 18540              	.LASF127:
 18541 2b69 54494D34 		.ascii	"TIM4_IRQn\000"
 18541      5F495251 
 18541      6E00
 18542              	.LASF535:
 18543 2b73 75736263 		.ascii	"usbcallback_t\000"
 18543      616C6C62 
 18543      61636B5F 
 18543      7400
 18544              	.LASF697:
 18545 2b81 5F726561 		.ascii	"_read\000"
 18545      6400
 18546              	.LASF564:
 18547 2b87 47555342 		.ascii	"GUSBCFG\000"
 18547      43464700 
 18548              	.LASF233:
 18549 2b8f 55534152 		.ascii	"USART_TypeDef\000"
 18549      545F5479 
 18549      70654465 
 18549      6600
 18550              	.LASF801:
 18551 2b9d 73696E63 		.ascii	"sincos_signal_above_max_error_cnt\000"
 18551      6F735F73 
 18551      69676E61 
 18551      6C5F6162 
 18551      6F76655F 
 18552              	.LASF301:
 18553 2bbf 6F757470 		.ascii	"output_queue_t\000"
 18553      75745F71 
 18553      75657565 
 18553      5F7400
 18554              	.LASF735:
 18555 2bce 5F72616E 		.ascii	"_rand48\000"
 18555      64343800 
 18556              	.LASF614:
 18557 2bd6 73746D33 		.ascii	"stm32_otg_t\000"
 18557      325F6F74 
 18557      675F7400 
 18558              	.LASF163:
 18559 2be2 43414E32 		.ascii	"CAN2_SCE_IRQn\000"
 18559      5F534345 
 18559      5F495251 
 18559      6E00
ARM GAS  /tmp/ccB9eNXv.s 			page 362


 18560              	.LASF416:
 18561 2bf0 64757479 		.ascii	"duty_cycle\000"
 18561      5F637963 
 18561      6C6500
 18562              	.LASF532:
 18563 2bfb 75645F73 		.ascii	"ud_size\000"
 18563      697A6500 
 18564              	.LASF322:
 18565 2c03 45585449 		.ascii	"EXTI_Mode_Event\000"
 18565      5F4D6F64 
 18565      655F4576 
 18565      656E7400 
 18566              	.LASF126:
 18567 2c13 54494D33 		.ascii	"TIM3_IRQn\000"
 18567      5F495251 
 18567      6E00
 18568              	.LASF636:
 18569 2c1d 696E5F6D 		.ascii	"in_maxsize\000"
 18569      61787369 
 18569      7A6500
 18570              	.LASF370:
 18571 2c28 50464461 		.ascii	"PFData\000"
 18571      746100
 18572              	.LASF42:
 18573 2c2f 705F7374 		.ascii	"p_state\000"
 18573      61746500 
 18574              	.LASF58:
 18575 2c37 63685F74 		.ascii	"ch_threads_list\000"
 18575      68726561 
 18575      64735F6C 
 18575      69737400 
 18576              	.LASF209:
 18577 2c47 4F415231 		.ascii	"OAR1\000"
 18577      00
 18578              	.LASF210:
 18579 2c4c 4F415232 		.ascii	"OAR2\000"
 18579      00
 18580              	.LASF91:
 18581 2c51 42757346 		.ascii	"BusFault_IRQn\000"
 18581      61756C74 
 18581      5F495251 
 18581      6E00
 18582              	.LASF461:
 18583 2c5f 53445F52 		.ascii	"SD_READY\000"
 18583      45414459 
 18583      00
 18584              		.ident	"GCC: (GNU Tools for Arm Embedded Processors 7-2018-q3-update) 7.3.1 20180622 (release) [AR
ARM GAS  /tmp/ccB9eNXv.s 			page 363


DEFINED SYMBOLS
                            *ABS*:0000000000000000 encoder.c
     /tmp/ccB9eNXv.s:18     .text.encoder_spi_get_error_cnt:0000000000000000 $t
     /tmp/ccB9eNXv.s:26     .text.encoder_spi_get_error_cnt:0000000000000000 encoder_spi_get_error_cnt
     /tmp/ccB9eNXv.s:42     .text.encoder_spi_get_error_cnt:0000000000000008 $d
     /tmp/ccB9eNXv.s:47     .text.encoder_spi_get_val:0000000000000000 $t
     /tmp/ccB9eNXv.s:55     .text.encoder_spi_get_val:0000000000000000 encoder_spi_get_val
     /tmp/ccB9eNXv.s:70     .text.encoder_spi_get_val:0000000000000008 $d
     /tmp/ccB9eNXv.s:75     .text.encoder_spi_get_error_rate:0000000000000000 $t
     /tmp/ccB9eNXv.s:83     .text.encoder_spi_get_error_rate:0000000000000000 encoder_spi_get_error_rate
     /tmp/ccB9eNXv.s:98     .text.encoder_spi_get_error_rate:0000000000000008 $d
     /tmp/ccB9eNXv.s:103    .text.encoder_get_no_magnet_error_cnt:0000000000000000 $t
     /tmp/ccB9eNXv.s:111    .text.encoder_get_no_magnet_error_cnt:0000000000000000 encoder_get_no_magnet_error_cnt
     /tmp/ccB9eNXv.s:126    .text.encoder_get_no_magnet_error_cnt:0000000000000008 $d
     /tmp/ccB9eNXv.s:131    .text.encoder_get_no_magnet_error_rate:0000000000000000 $t
     /tmp/ccB9eNXv.s:139    .text.encoder_get_no_magnet_error_rate:0000000000000000 encoder_get_no_magnet_error_rate
     /tmp/ccB9eNXv.s:154    .text.encoder_get_no_magnet_error_rate:0000000000000008 $d
     /tmp/ccB9eNXv.s:159    .text.encoder_resolver_loss_of_tracking_error_rate:0000000000000000 $t
     /tmp/ccB9eNXv.s:167    .text.encoder_resolver_loss_of_tracking_error_rate:0000000000000000 encoder_resolver_loss_of_tracking_error_rate
     /tmp/ccB9eNXv.s:182    .text.encoder_resolver_loss_of_tracking_error_rate:0000000000000008 $d
     /tmp/ccB9eNXv.s:187    .text.encoder_resolver_degradation_of_signal_error_rate:0000000000000000 $t
     /tmp/ccB9eNXv.s:195    .text.encoder_resolver_degradation_of_signal_error_rate:0000000000000000 encoder_resolver_degradation_of_signal_error_rate
     /tmp/ccB9eNXv.s:210    .text.encoder_resolver_degradation_of_signal_error_rate:0000000000000008 $d
     /tmp/ccB9eNXv.s:215    .text.encoder_resolver_loss_of_signal_error_rate:0000000000000000 $t
     /tmp/ccB9eNXv.s:223    .text.encoder_resolver_loss_of_signal_error_rate:0000000000000000 encoder_resolver_loss_of_signal_error_rate
     /tmp/ccB9eNXv.s:238    .text.encoder_resolver_loss_of_signal_error_rate:0000000000000008 $d
     /tmp/ccB9eNXv.s:243    .text.encoder_resolver_loss_of_tracking_error_cnt:0000000000000000 $t
     /tmp/ccB9eNXv.s:251    .text.encoder_resolver_loss_of_tracking_error_cnt:0000000000000000 encoder_resolver_loss_of_tracking_error_cnt
     /tmp/ccB9eNXv.s:266    .text.encoder_resolver_loss_of_tracking_error_cnt:0000000000000008 $d
     /tmp/ccB9eNXv.s:271    .text.encoder_resolver_degradation_of_signal_error_cnt:0000000000000000 $t
     /tmp/ccB9eNXv.s:279    .text.encoder_resolver_degradation_of_signal_error_cnt:0000000000000000 encoder_resolver_degradation_of_signal_error_cnt
     /tmp/ccB9eNXv.s:294    .text.encoder_resolver_degradation_of_signal_error_cnt:0000000000000008 $d
     /tmp/ccB9eNXv.s:299    .text.encoder_resolver_loss_of_signal_error_cnt:0000000000000000 $t
     /tmp/ccB9eNXv.s:307    .text.encoder_resolver_loss_of_signal_error_cnt:0000000000000000 encoder_resolver_loss_of_signal_error_cnt
     /tmp/ccB9eNXv.s:322    .text.encoder_resolver_loss_of_signal_error_cnt:0000000000000008 $d
     /tmp/ccB9eNXv.s:327    .text.encoder_sincos_get_signal_below_min_error_cnt:0000000000000000 $t
     /tmp/ccB9eNXv.s:335    .text.encoder_sincos_get_signal_below_min_error_cnt:0000000000000000 encoder_sincos_get_signal_below_min_error_cnt
     /tmp/ccB9eNXv.s:350    .text.encoder_sincos_get_signal_below_min_error_cnt:0000000000000008 $d
     /tmp/ccB9eNXv.s:355    .text.encoder_sincos_get_signal_above_max_error_cnt:0000000000000000 $t
     /tmp/ccB9eNXv.s:363    .text.encoder_sincos_get_signal_above_max_error_cnt:0000000000000000 encoder_sincos_get_signal_above_max_error_cnt
     /tmp/ccB9eNXv.s:378    .text.encoder_sincos_get_signal_above_max_error_cnt:0000000000000008 $d
     /tmp/ccB9eNXv.s:383    .text.encoder_sincos_get_signal_below_min_error_rate:0000000000000000 $t
     /tmp/ccB9eNXv.s:391    .text.encoder_sincos_get_signal_below_min_error_rate:0000000000000000 encoder_sincos_get_signal_below_min_error_rate
     /tmp/ccB9eNXv.s:406    .text.encoder_sincos_get_signal_below_min_error_rate:0000000000000008 $d
     /tmp/ccB9eNXv.s:411    .text.encoder_sincos_get_signal_above_max_error_rate:0000000000000000 $t
     /tmp/ccB9eNXv.s:419    .text.encoder_sincos_get_signal_above_max_error_rate:0000000000000000 encoder_sincos_get_signal_above_max_error_rate
     /tmp/ccB9eNXv.s:434    .text.encoder_sincos_get_signal_above_max_error_rate:0000000000000008 $d
     /tmp/ccB9eNXv.s:439    .text.encoder_ts5700n8501_get_raw_status:0000000000000000 $t
     /tmp/ccB9eNXv.s:447    .text.encoder_ts5700n8501_get_raw_status:0000000000000000 encoder_ts5700n8501_get_raw_status
     /tmp/ccB9eNXv.s:460    .text.encoder_ts5700n8501_get_raw_status:0000000000000004 $d
     /tmp/ccB9eNXv.s:465    .text.encoder_ts57n8501_get_abm:0000000000000000 $t
     /tmp/ccB9eNXv.s:473    .text.encoder_ts57n8501_get_abm:0000000000000000 encoder_ts57n8501_get_abm
     /tmp/ccB9eNXv.s:493    .text.encoder_ts57n8501_get_abm:0000000000000010 $d
     /tmp/ccB9eNXv.s:498    .text.encoder_ts57n8501_reset_errors:0000000000000000 $t
     /tmp/ccB9eNXv.s:506    .text.encoder_ts57n8501_reset_errors:0000000000000000 encoder_ts57n8501_reset_errors
     /tmp/ccB9eNXv.s:522    .text.encoder_ts57n8501_reset_errors:0000000000000008 $d
     /tmp/ccB9eNXv.s:527    .text.encoder_ts57n8501_reset_multiturn:0000000000000000 $t
ARM GAS  /tmp/ccB9eNXv.s 			page 364


     /tmp/ccB9eNXv.s:535    .text.encoder_ts57n8501_reset_multiturn:0000000000000000 encoder_ts57n8501_reset_multiturn
     /tmp/ccB9eNXv.s:551    .text.encoder_ts57n8501_reset_multiturn:0000000000000008 $d
     /tmp/ccB9eNXv.s:556    .text.encoder_deinit:0000000000000000 $t
     /tmp/ccB9eNXv.s:564    .text.encoder_deinit:0000000000000000 encoder_deinit
     /tmp/ccB9eNXv.s:699    .text.encoder_deinit:00000000000000b0 $d
     /tmp/ccB9eNXv.s:716    .text.encoder_init_abi:0000000000000000 $t
     /tmp/ccB9eNXv.s:724    .text.encoder_init_abi:0000000000000000 encoder_init_abi
     /tmp/ccB9eNXv.s:846    .text.encoder_init_abi:00000000000000a4 $d
     /tmp/ccB9eNXv.s:854    .text.encoder_init_as5047p_spi:0000000000000000 $t
     /tmp/ccB9eNXv.s:862    .text.encoder_init_as5047p_spi:0000000000000000 encoder_init_as5047p_spi
     /tmp/ccB9eNXv.s:963    .text.encoder_init_as5047p_spi:000000000000007c $d
     /tmp/ccB9eNXv.s:972    .text.encoder_init_mt6816_spi:0000000000000000 $t
     /tmp/ccB9eNXv.s:980    .text.encoder_init_mt6816_spi:0000000000000000 encoder_init_mt6816_spi
     /tmp/ccB9eNXv.s:1090   .text.encoder_init_mt6816_spi:000000000000008c $d
     /tmp/ccB9eNXv.s:1102   .text.encoder_init_ad2s1205_spi:0000000000000000 $t
     /tmp/ccB9eNXv.s:1110   .text.encoder_init_ad2s1205_spi:0000000000000000 encoder_init_ad2s1205_spi
     /tmp/ccB9eNXv.s:1228   .text.encoder_init_ad2s1205_spi:000000000000008c $d
     /tmp/ccB9eNXv.s:1241   .text.encoder_init_sincos:0000000000000000 $t
     /tmp/ccB9eNXv.s:1249   .text.encoder_init_sincos:0000000000000000 encoder_init_sincos
     /tmp/ccB9eNXv.s:1298   .text.encoder_init_sincos:0000000000000024 $d
     /tmp/ccB9eNXv.s:1308   .text.encoder_init_ts5700n8501:0000000000000000 $t
     /tmp/ccB9eNXv.s:1316   .text.encoder_init_ts5700n8501:0000000000000000 encoder_init_ts5700n8501
     /tmp/ccB9eNXv.s:1378   .text.encoder_init_ts5700n8501:0000000000000038 $d
     /tmp/ccB9eNXv.s:3777   .text.ts5700n8501_thread:0000000000000000 ts5700n8501_thread
     /tmp/ccB9eNXv.s:1390   .text.encoder_is_configured:0000000000000000 $t
     /tmp/ccB9eNXv.s:1398   .text.encoder_is_configured:0000000000000000 encoder_is_configured
     /tmp/ccB9eNXv.s:1416   .text.encoder_is_configured:000000000000000c $d
     /tmp/ccB9eNXv.s:1421   .text.encoder_read_deg:0000000000000000 $t
     /tmp/ccB9eNXv.s:1429   .text.encoder_read_deg:0000000000000000 encoder_read_deg
     /tmp/ccB9eNXv.s:1477   .text.encoder_read_deg:0000000000000058 $d
     /tmp/ccB9eNXv.s:1487   .text.encoder_read_deg_multiturn:0000000000000000 $t
     /tmp/ccB9eNXv.s:1495   .text.encoder_read_deg_multiturn:0000000000000000 encoder_read_deg_multiturn
     /tmp/ccB9eNXv.s:1587   .text.encoder_read_deg_multiturn:000000000000006c $d
     /tmp/ccB9eNXv.s:1597   .text.encoder_reset:0000000000000000 $t
     /tmp/ccB9eNXv.s:1605   .text.encoder_reset:0000000000000000 encoder_reset
     /tmp/ccB9eNXv.s:1732   .text.encoder_reset:000000000000005c $d
     /tmp/ccB9eNXv.s:1743   .text.encoder_AS504x_get_diag:0000000000000000 $t
     /tmp/ccB9eNXv.s:1751   .text.encoder_AS504x_get_diag:0000000000000000 encoder_AS504x_get_diag
     /tmp/ccB9eNXv.s:1787   .text.encoder_AS504x_get_diag:000000000000001c $d
     /tmp/ccB9eNXv.s:1792   .text.encoder_tim_isr:0000000000000000 $t
     /tmp/ccB9eNXv.s:1800   .text.encoder_tim_isr:0000000000000000 encoder_tim_isr
     /tmp/ccB9eNXv.s:2694   .text.spi_AS5047_cs_delay:0000000000000000 spi_AS5047_cs_delay
     /tmp/ccB9eNXv.s:4152   .text.spi_transfer.isra.1.constprop.2:0000000000000000 spi_transfer.isra.1.constprop.2
     /tmp/ccB9eNXv.s:2499   .text.encoder_tim_isr:0000000000000308 $d
     /tmp/ccB9eNXv.s:2526   .text.encoder_tim_isr:000000000000035c $t
     /tmp/ccB9eNXv.s:2594   .text.encoder_tim_isr:00000000000003d8 $d
     /tmp/ccB9eNXv.s:2606   .text.encoder_set_counts:0000000000000000 $t
     /tmp/ccB9eNXv.s:2614   .text.encoder_set_counts:0000000000000000 encoder_set_counts
     /tmp/ccB9eNXv.s:2652   .text.encoder_set_counts:0000000000000020 $d
     /tmp/ccB9eNXv.s:2659   .text.encoder_index_found:0000000000000000 $t
     /tmp/ccB9eNXv.s:2667   .text.encoder_index_found:0000000000000000 encoder_index_found
     /tmp/ccB9eNXv.s:2682   .text.encoder_index_found:0000000000000008 $d
     /tmp/ccB9eNXv.s:2687   .text.spi_AS5047_cs_delay:0000000000000000 $t
     /tmp/ccB9eNXv.s:3108   .text.TS5700N8501_delay_uart:0000000000000000 $t
     /tmp/ccB9eNXv.s:3116   .text.TS5700N8501_delay_uart:0000000000000000 TS5700N8501_delay_uart
     /tmp/ccB9eNXv.s:3312   .text.TS5700N8501_send_byte:0000000000000000 $t
     /tmp/ccB9eNXv.s:3319   .text.TS5700N8501_send_byte:0000000000000000 TS5700N8501_send_byte
ARM GAS  /tmp/ccB9eNXv.s 			page 365


     /tmp/ccB9eNXv.s:3764   .text.TS5700N8501_send_byte:00000000000000cc $d
     /tmp/ccB9eNXv.s:3770   .text.ts5700n8501_thread:0000000000000000 $t
     /tmp/ccB9eNXv.s:4121   .text.ts5700n8501_thread:000000000000019c $d
     /tmp/ccB9eNXv.s:4145   .text.spi_transfer.isra.1.constprop.2:0000000000000000 $t
     /tmp/ccB9eNXv.s:4391   .text.spi_transfer.isra.1.constprop.2:0000000000000068 $d
     /tmp/ccB9eNXv.s:4396   .rodata:0000000000000000 $d
     /tmp/ccB9eNXv.s:4401   .bss.AS504x_data_last_invalid_counter:0000000000000000 $d
     /tmp/ccB9eNXv.s:4405   .bss.AS504x_data_last_invalid_counter:0000000000000000 AS504x_data_last_invalid_counter
     /tmp/ccB9eNXv.s:4408   .bss.AS504x_sensor_diag:0000000000000000 $d
     /tmp/ccB9eNXv.s:4412   .bss.AS504x_sensor_diag:0000000000000000 AS504x_sensor_diag
     /tmp/ccB9eNXv.s:4415   .bss.AS504x_spi_communication_error_count:0000000000000000 $d
     /tmp/ccB9eNXv.s:4419   .bss.AS504x_spi_communication_error_count:0000000000000000 AS504x_spi_communication_error_count
     /tmp/ccB9eNXv.s:4422   .bss.angle.12426:0000000000000000 $d
     /tmp/ccB9eNXv.s:4426   .bss.angle.12426:0000000000000000 angle.12426
     /tmp/ccB9eNXv.s:4429   .bss.bad_pulses.12442:0000000000000000 $d
     /tmp/ccB9eNXv.s:4433   .bss.bad_pulses.12442:0000000000000000 bad_pulses.12442
     /tmp/ccB9eNXv.s:4436   .bss.cos_gain:0000000000000000 $d
     /tmp/ccB9eNXv.s:4439   .bss.cos_gain:0000000000000000 cos_gain
     /tmp/ccB9eNXv.s:4442   .bss.cos_offset:0000000000000000 $d
     /tmp/ccB9eNXv.s:4445   .bss.cos_offset:0000000000000000 cos_offset
     /tmp/ccB9eNXv.s:4448   .bss.encoder_no_magnet_error_cnt:0000000000000000 $d
     /tmp/ccB9eNXv.s:4452   .bss.encoder_no_magnet_error_cnt:0000000000000000 encoder_no_magnet_error_cnt
     /tmp/ccB9eNXv.s:4455   .bss.encoder_no_magnet_error_rate:0000000000000000 $d
     /tmp/ccB9eNXv.s:4459   .bss.encoder_no_magnet_error_rate:0000000000000000 encoder_no_magnet_error_rate
     /tmp/ccB9eNXv.s:4465   .bss.index_found:0000000000000000 index_found
     /tmp/ccB9eNXv.s:4466   .bss.index_found:0000000000000000 $d
     /tmp/ccB9eNXv.s:4468   .bss.last_enc_angle:0000000000000000 $d
     /tmp/ccB9eNXv.s:4472   .bss.last_enc_angle:0000000000000000 last_enc_angle
     /tmp/ccB9eNXv.s:4478   .bss.mode:0000000000000000 mode
     /tmp/ccB9eNXv.s:4479   .bss.mode:0000000000000000 $d
     /tmp/ccB9eNXv.s:4481   .bss.resolver_degradation_of_signal_error_cnt:0000000000000000 $d
     /tmp/ccB9eNXv.s:4485   .bss.resolver_degradation_of_signal_error_cnt:0000000000000000 resolver_degradation_of_signal_error_cnt
     /tmp/ccB9eNXv.s:4488   .bss.resolver_degradation_of_signal_error_rate:0000000000000000 $d
     /tmp/ccB9eNXv.s:4492   .bss.resolver_degradation_of_signal_error_rate:0000000000000000 resolver_degradation_of_signal_error_rate
     /tmp/ccB9eNXv.s:4495   .bss.resolver_loss_of_signal_error_cnt:0000000000000000 $d
     /tmp/ccB9eNXv.s:4499   .bss.resolver_loss_of_signal_error_cnt:0000000000000000 resolver_loss_of_signal_error_cnt
     /tmp/ccB9eNXv.s:4502   .bss.resolver_loss_of_signal_error_rate:0000000000000000 $d
     /tmp/ccB9eNXv.s:4506   .bss.resolver_loss_of_signal_error_rate:0000000000000000 resolver_loss_of_signal_error_rate
     /tmp/ccB9eNXv.s:4509   .bss.resolver_loss_of_tracking_error_cnt:0000000000000000 $d
     /tmp/ccB9eNXv.s:4513   .bss.resolver_loss_of_tracking_error_cnt:0000000000000000 resolver_loss_of_tracking_error_cnt
     /tmp/ccB9eNXv.s:4516   .bss.resolver_loss_of_tracking_error_rate:0000000000000000 $d
     /tmp/ccB9eNXv.s:4520   .bss.resolver_loss_of_tracking_error_rate:0000000000000000 resolver_loss_of_tracking_error_rate
     /tmp/ccB9eNXv.s:4523   .bss.sin_gain:0000000000000000 $d
     /tmp/ccB9eNXv.s:4526   .bss.sin_gain:0000000000000000 sin_gain
     /tmp/ccB9eNXv.s:4529   .bss.sin_offset:0000000000000000 $d
     /tmp/ccB9eNXv.s:4532   .bss.sin_offset:0000000000000000 sin_offset
     /tmp/ccB9eNXv.s:4535   .bss.sincos_filter_constant:0000000000000000 $d
     /tmp/ccB9eNXv.s:4538   .bss.sincos_filter_constant:0000000000000000 sincos_filter_constant
     /tmp/ccB9eNXv.s:4541   .bss.sincos_signal_above_max_error_cnt:0000000000000000 $d
     /tmp/ccB9eNXv.s:4545   .bss.sincos_signal_above_max_error_cnt:0000000000000000 sincos_signal_above_max_error_cnt
     /tmp/ccB9eNXv.s:4548   .bss.sincos_signal_above_max_error_rate:0000000000000000 $d
     /tmp/ccB9eNXv.s:4552   .bss.sincos_signal_above_max_error_rate:0000000000000000 sincos_signal_above_max_error_rate
     /tmp/ccB9eNXv.s:4555   .bss.sincos_signal_below_min_error_cnt:0000000000000000 $d
     /tmp/ccB9eNXv.s:4559   .bss.sincos_signal_below_min_error_cnt:0000000000000000 sincos_signal_below_min_error_cnt
     /tmp/ccB9eNXv.s:4562   .bss.sincos_signal_low_error_rate:0000000000000000 $d
     /tmp/ccB9eNXv.s:4566   .bss.sincos_signal_low_error_rate:0000000000000000 sincos_signal_low_error_rate
     /tmp/ccB9eNXv.s:4569   .bss.spi_error_cnt:0000000000000000 $d
ARM GAS  /tmp/ccB9eNXv.s 			page 366


     /tmp/ccB9eNXv.s:4573   .bss.spi_error_cnt:0000000000000000 spi_error_cnt
     /tmp/ccB9eNXv.s:4576   .bss.spi_error_rate:0000000000000000 $d
     /tmp/ccB9eNXv.s:4580   .bss.spi_error_rate:0000000000000000 spi_error_rate
     /tmp/ccB9eNXv.s:4583   .bss.spi_val:0000000000000000 $d
     /tmp/ccB9eNXv.s:4587   .bss.spi_val:0000000000000000 spi_val
     /tmp/ccB9eNXv.s:4593   .bss.ts5700n8501_is_running:0000000000000000 ts5700n8501_is_running
     /tmp/ccB9eNXv.s:4594   .bss.ts5700n8501_is_running:0000000000000000 $d
     /tmp/ccB9eNXv.s:4596   .bss.ts5700n8501_raw_status:0000000000000000 $d
     /tmp/ccB9eNXv.s:4600   .bss.ts5700n8501_raw_status:0000000000000000 ts5700n8501_raw_status
     /tmp/ccB9eNXv.s:4606   .bss.ts5700n8501_reset_errors:0000000000000000 ts5700n8501_reset_errors
     /tmp/ccB9eNXv.s:4607   .bss.ts5700n8501_reset_errors:0000000000000000 $d
     /tmp/ccB9eNXv.s:4612   .bss.ts5700n8501_reset_multiturn:0000000000000000 ts5700n8501_reset_multiturn
     /tmp/ccB9eNXv.s:4613   .bss.ts5700n8501_reset_multiturn:0000000000000000 $d
     /tmp/ccB9eNXv.s:4615   .bss.ts5700n8501_thread_wa:0000000000000000 $d
     /tmp/ccB9eNXv.s:4619   .bss.ts5700n8501_thread_wa:0000000000000000 ts5700n8501_thread_wa
     /tmp/ccB9eNXv.s:4622   .data.TS5700N8501_uart_cfg:0000000000000000 $d
     /tmp/ccB9eNXv.s:4626   .data.TS5700N8501_uart_cfg:0000000000000000 TS5700N8501_uart_cfg
     /tmp/ccB9eNXv.s:4633   .data.enc_counts:0000000000000000 $d
     /tmp/ccB9eNXv.s:4637   .data.enc_counts:0000000000000000 enc_counts
     /tmp/ccB9eNXv.s:4643   .data.ts5700n8501_stop_now:0000000000000000 ts5700n8501_stop_now
     /tmp/ccB9eNXv.s:4646   .rodata.mt6816_spi_cfg:0000000000000000 $d
     /tmp/ccB9eNXv.s:4650   .rodata.mt6816_spi_cfg:0000000000000000 mt6816_spi_cfg
     /tmp/ccB9eNXv.s:4658   .rodata.spi_data_err_raised:0000000000000000 spi_data_err_raised
     /tmp/ccB9eNXv.s:4659   .rodata.spi_data_err_raised:0000000000000000 $d

UNDEFINED SYMBOLS
nvicDisableVector
TIM_DeInit
_pal_lld_setgroupmode
spiStop
chThdSleep
SPID1
RCC_APB1PeriphClockCmd
RCC_APB2PeriphClockCmd
TIM_EncoderInterfaceConfig
TIM_SetAutoreload
TIM_Cmd
SYSCFG_EXTILineConfig
EXTI_Init
nvicEnableVector
TIM_TimeBaseInit
TIM_ITConfig
spiStart
chThdCreateStatic
spi_lld_polled_exchange
utils_sys_lock_cnt
utils_sys_unlock_cnt
sdStart
chIQGetTimeout
ch
SD3
