ARM GAS  /tmp/ccRbSNsM.s 			page 1


   1              		.cpu cortex-m4
   2              		.eabi_attribute 27, 1
   3              		.eabi_attribute 28, 1
   4              		.eabi_attribute 20, 1
   5              		.eabi_attribute 21, 1
   6              		.eabi_attribute 23, 3
   7              		.eabi_attribute 24, 1
   8              		.eabi_attribute 25, 1
   9              		.eabi_attribute 26, 1
  10              		.eabi_attribute 30, 2
  11              		.eabi_attribute 34, 1
  12              		.eabi_attribute 18, 4
  13              		.file	"env.c"
  14              		.text
  15              	.Ltext0:
  16              		.cfi_sections	.debug_frame
  17              		.section	.text.lbm_init_env,"ax",%progbits
  18              		.align	1
  19              		.p2align 4,,15
  20              		.global	lbm_init_env
  21              		.syntax unified
  22              		.thumb
  23              		.thumb_func
  24              		.fpu fpv4-sp-d16
  25              		.type	lbm_init_env, %function
  26              	lbm_init_env:
  27              	.LFB36:
  28              		.file 1 "lispBM/lispBM/src/env.c"
  29              		.loc 1 27 0
  30              		.cfi_startproc
  31              		@ args = 0, pretend = 0, frame = 0
  32              		@ frame_needed = 0, uses_anonymous_args = 0
  33              		@ link register save eliminated.
  34              		.loc 1 28 0
  35 0000 024B     		ldr	r3, .L3
  36 0002 0022     		movs	r2, #0
  37 0004 1A60     		str	r2, [r3]
  38              		.loc 1 30 0
  39 0006 0120     		movs	r0, #1
  40 0008 7047     		bx	lr
  41              	.L4:
  42 000a 00BF     		.align	2
  43              	.L3:
  44 000c 00000000 		.word	.LANCHOR0
  45              		.cfi_endproc
  46              	.LFE36:
  47              		.size	lbm_init_env, .-lbm_init_env
  48              		.section	.text.lbm_get_env_ptr,"ax",%progbits
  49              		.align	1
  50              		.p2align 4,,15
  51              		.global	lbm_get_env_ptr
  52              		.syntax unified
  53              		.thumb
  54              		.thumb_func
  55              		.fpu fpv4-sp-d16
  56              		.type	lbm_get_env_ptr, %function
  57              	lbm_get_env_ptr:
ARM GAS  /tmp/ccRbSNsM.s 			page 2


  58              	.LFB37:
  59              		.loc 1 32 0
  60              		.cfi_startproc
  61              		@ args = 0, pretend = 0, frame = 0
  62              		@ frame_needed = 0, uses_anonymous_args = 0
  63              		@ link register save eliminated.
  64              		.loc 1 34 0
  65 0000 0048     		ldr	r0, .L6
  66 0002 7047     		bx	lr
  67              	.L7:
  68              		.align	2
  69              	.L6:
  70 0004 00000000 		.word	.LANCHOR0
  71              		.cfi_endproc
  72              	.LFE37:
  73              		.size	lbm_get_env_ptr, .-lbm_get_env_ptr
  74              		.section	.text.lbm_get_env,"ax",%progbits
  75              		.align	1
  76              		.p2align 4,,15
  77              		.global	lbm_get_env
  78              		.syntax unified
  79              		.thumb
  80              		.thumb_func
  81              		.fpu fpv4-sp-d16
  82              		.type	lbm_get_env, %function
  83              	lbm_get_env:
  84              	.LFB38:
  85              		.loc 1 36 0
  86              		.cfi_startproc
  87              		@ args = 0, pretend = 0, frame = 0
  88              		@ frame_needed = 0, uses_anonymous_args = 0
  89              		@ link register save eliminated.
  90              		.loc 1 37 0
  91 0000 014B     		ldr	r3, .L9
  92              		.loc 1 38 0
  93 0002 1868     		ldr	r0, [r3]
  94 0004 7047     		bx	lr
  95              	.L10:
  96 0006 00BF     		.align	2
  97              	.L9:
  98 0008 00000000 		.word	.LANCHOR0
  99              		.cfi_endproc
 100              	.LFE38:
 101              		.size	lbm_get_env, .-lbm_get_env
 102              		.section	.text.lbm_env_copy_shallow,"ax",%progbits
 103              		.align	1
 104              		.p2align 4,,15
 105              		.global	lbm_env_copy_shallow
 106              		.syntax unified
 107              		.thumb
 108              		.thumb_func
 109              		.fpu fpv4-sp-d16
 110              		.type	lbm_env_copy_shallow, %function
 111              	lbm_env_copy_shallow:
 112              	.LFB39:
 113              		.loc 1 42 0
 114              		.cfi_startproc
ARM GAS  /tmp/ccRbSNsM.s 			page 3


 115              		@ args = 0, pretend = 0, frame = 0
 116              		@ frame_needed = 0, uses_anonymous_args = 0
 117              	.LVL0:
 118 0000 38B5     		push	{r3, r4, r5, lr}
 119              		.cfi_def_cfa_offset 16
 120              		.cfi_offset 3, -16
 121              		.cfi_offset 4, -12
 122              		.cfi_offset 5, -8
 123              		.cfi_offset 14, -4
 124              	.LBB48:
 125              	.LBB49:
 126              		.file 2 "lispBM/lispBM/include/heap.h"
 127              		.loc 2 461 0
 128 0002 10F00105 		ands	r5, r0, #1
 129 0006 26D0     		beq	.L11
 130 0008 0446     		mov	r4, r0
 131              	.LVL1:
 132 000a 00F07C43 		and	r3, r0, #-67108864
 133              	.LBE49:
 134              	.LBE48:
 135              		.loc 1 44 0
 136 000e 0025     		movs	r5, #0
 137              	.LVL2:
 138              	.L31:
 139              		.loc 1 47 0
 140 0010 B3F1805F 		cmp	r3, #268435456
 141 0014 1FD1     		bne	.L11
 142              	.LVL3:
 143              	.LBB52:
 144              		.loc 1 48 0
 145 0016 2046     		mov	r0, r4
 146 0018 FFF7FEFF 		bl	lbm_car
 147              	.LVL4:
 148 001c FFF7FEFF 		bl	lbm_car
 149              	.LVL5:
 150              		.loc 1 49 0
 151 0020 0309     		lsrs	r3, r0, #4
 152              		.loc 1 50 0
 153 0022 2046     		mov	r0, r4
 154              	.LVL6:
 155              		.loc 1 49 0
 156 0024 0FD0     		beq	.L13
 157              		.loc 1 50 0
 158 0026 FFF7FEFF 		bl	lbm_car
 159              	.LVL7:
 160 002a 2946     		mov	r1, r5
 161 002c FFF7FEFF 		bl	lbm_cons
 162              	.LVL8:
 163              	.LBB53:
 164              	.LBB54:
 165              		.loc 2 461 0
 166 0030 C107     		lsls	r1, r0, #31
 167 0032 4CBF     		ite	mi
 168 0034 00F07C43 		andmi	r3, r0, #-67108864
 169 0038 00F00C03 		andpl	r3, r0, #12
 170              	.LBE54:
 171              	.LBE53:
ARM GAS  /tmp/ccRbSNsM.s 			page 4


 172              		.loc 1 50 0
 173 003c 0546     		mov	r5, r0
 174              	.LVL9:
 175              	.LBB55:
 176              	.LBB56:
 177              		.loc 2 529 0
 178 003e 0209     		lsrs	r2, r0, #4
 179              	.LBE56:
 180              	.LBE55:
 181              		.loc 1 53 0
 182 0040 0BB9     		cbnz	r3, .L13
 183 0042 0A2A     		cmp	r2, #10
 184 0044 07D0     		beq	.L11
 185              	.LVL10:
 186              	.L13:
 187              		.loc 1 58 0
 188 0046 2046     		mov	r0, r4
 189 0048 FFF7FEFF 		bl	lbm_cdr
 190              	.LVL11:
 191              	.LBE52:
 192              	.LBB57:
 193              	.LBB50:
 194              		.loc 2 461 0
 195 004c C207     		lsls	r2, r0, #31
 196              	.LBE50:
 197              	.LBE57:
 198              	.LBB58:
 199              		.loc 1 58 0
 200 004e 0446     		mov	r4, r0
 201              	.LVL12:
 202              	.LBE58:
 203              	.LBB59:
 204              	.LBB51:
 205              		.loc 2 461 0
 206 0050 00F07C43 		and	r3, r0, #-67108864
 207 0054 DCD4     		bmi	.L31
 208              	.LVL13:
 209              	.L11:
 210              	.LBE51:
 211              	.LBE59:
 212              		.loc 1 61 0
 213 0056 2846     		mov	r0, r5
 214 0058 38BD     		pop	{r3, r4, r5, pc}
 215              		.cfi_endproc
 216              	.LFE39:
 217              		.size	lbm_env_copy_shallow, .-lbm_env_copy_shallow
 218 005a 00BF     		.section	.text.lbm_env_lookup,"ax",%progbits
 219              		.align	1
 220              		.p2align 4,,15
 221              		.global	lbm_env_lookup
 222              		.syntax unified
 223              		.thumb
 224              		.thumb_func
 225              		.fpu fpv4-sp-d16
 226              		.type	lbm_env_lookup, %function
 227              	lbm_env_lookup:
 228              	.LFB40:
ARM GAS  /tmp/ccRbSNsM.s 			page 5


 229              		.loc 1 63 0
 230              		.cfi_startproc
 231              		@ args = 0, pretend = 0, frame = 0
 232              		@ frame_needed = 0, uses_anonymous_args = 0
 233              	.LVL14:
 234 0000 38B5     		push	{r3, r4, r5, lr}
 235              		.cfi_def_cfa_offset 16
 236              		.cfi_offset 3, -16
 237              		.cfi_offset 4, -12
 238              		.cfi_offset 5, -8
 239              		.cfi_offset 14, -4
 240              		.loc 1 66 0
 241 0002 0309     		lsrs	r3, r0, #4
 242              		.loc 1 63 0
 243 0004 0546     		mov	r5, r0
 244              	.LVL15:
 245              		.loc 1 66 0
 246 0006 18D0     		beq	.L32
 247 0008 0C46     		mov	r4, r1
 248              	.LVL16:
 249              	.LBB60:
 250              	.LBB61:
 251              		.loc 2 461 0
 252 000a E107     		lsls	r1, r4, #31
 253              	.LVL17:
 254 000c 13D5     		bpl	.L35
 255              	.LVL18:
 256 000e 04F07C43 		and	r3, r4, #-67108864
 257              	.LVL19:
 258              	.L45:
 259              	.LBE61:
 260              	.LBE60:
 261              		.loc 1 70 0
 262 0012 B3F1805F 		cmp	r3, #268435456
 263 0016 0ED1     		bne	.L35
 264              		.loc 1 71 0
 265 0018 2046     		mov	r0, r4
 266 001a FFF7FEFF 		bl	lbm_car
 267              	.LVL20:
 268 001e FFF7FEFF 		bl	lbm_car
 269              	.LVL21:
 270 0022 A842     		cmp	r0, r5
 271              		.loc 1 74 0
 272 0024 2046     		mov	r0, r4
 273              		.loc 1 71 0
 274 0026 09D0     		beq	.L46
 275              	.LVL22:
 276              		.loc 1 74 0
 277 0028 FFF7FEFF 		bl	lbm_cdr
 278              	.LVL23:
 279              	.LBB64:
 280              	.LBB62:
 281              		.loc 2 461 0
 282 002c C207     		lsls	r2, r0, #31
 283              	.LBE62:
 284              	.LBE64:
 285              		.loc 1 74 0
ARM GAS  /tmp/ccRbSNsM.s 			page 6


 286 002e 0446     		mov	r4, r0
 287              	.LVL24:
 288              	.LBB65:
 289              	.LBB63:
 290              		.loc 2 461 0
 291 0030 00F07C43 		and	r3, r0, #-67108864
 292 0034 EDD4     		bmi	.L45
 293              	.LVL25:
 294              	.L35:
 295              	.LBE63:
 296              	.LBE65:
 297              		.loc 1 76 0
 298 0036 4FF42470 		mov	r0, #656
 299              	.LVL26:
 300              	.L32:
 301              		.loc 1 77 0
 302 003a 38BD     		pop	{r3, r4, r5, pc}
 303              	.LVL27:
 304              	.L46:
 305              		.loc 1 72 0
 306 003c FFF7FEFF 		bl	lbm_car
 307              	.LVL28:
 308              		.loc 1 77 0
 309 0040 BDE83840 		pop	{r3, r4, r5, lr}
 310              		.cfi_restore 14
 311              		.cfi_restore 5
 312              		.cfi_restore 4
 313              		.cfi_restore 3
 314              		.cfi_def_cfa_offset 0
 315              	.LVL29:
 316              		.loc 1 72 0
 317 0044 FFF7FEBF 		b	lbm_cdr
 318              	.LVL30:
 319              		.cfi_endproc
 320              	.LFE40:
 321              		.size	lbm_env_lookup, .-lbm_env_lookup
 322              		.section	.text.lbm_env_set,"ax",%progbits
 323              		.align	1
 324              		.p2align 4,,15
 325              		.global	lbm_env_set
 326              		.syntax unified
 327              		.thumb
 328              		.thumb_func
 329              		.fpu fpv4-sp-d16
 330              		.type	lbm_env_set, %function
 331              	lbm_env_set:
 332              	.LFB41:
 333              		.loc 1 79 0
 334              		.cfi_startproc
 335              		@ args = 0, pretend = 0, frame = 0
 336              		@ frame_needed = 0, uses_anonymous_args = 0
 337              	.LVL31:
 338 0000 F8B5     		push	{r3, r4, r5, r6, r7, lr}
 339              		.cfi_def_cfa_offset 24
 340              		.cfi_offset 3, -24
 341              		.cfi_offset 4, -20
 342              		.cfi_offset 5, -16
ARM GAS  /tmp/ccRbSNsM.s 			page 7


 343              		.cfi_offset 6, -12
 344              		.cfi_offset 7, -8
 345              		.cfi_offset 14, -4
 346              		.loc 1 79 0
 347 0002 0746     		mov	r7, r0
 348              	.LVL32:
 349              	.LBB66:
 350              	.LBB67:
 351              		.loc 2 461 0
 352 0004 C007     		lsls	r0, r0, #31
 353              	.LVL33:
 354              	.LBE67:
 355              	.LBE66:
 356              		.loc 1 79 0
 357 0006 0D46     		mov	r5, r1
 358 0008 1646     		mov	r6, r2
 359              	.LBB71:
 360              	.LBB68:
 361              		.loc 2 461 0
 362 000a 17D5     		bpl	.L48
 363              	.LVL34:
 364 000c 07F07C43 		and	r3, r7, #-67108864
 365              	.LBE68:
 366              	.LBE71:
 367              		.loc 1 85 0
 368 0010 B3F1805F 		cmp	r3, #268435456
 369 0014 12D1     		bne	.L48
 370 0016 3C46     		mov	r4, r7
 371              	.LVL35:
 372              	.L51:
 373              		.loc 1 86 0
 374 0018 2046     		mov	r0, r4
 375 001a FFF7FEFF 		bl	lbm_car
 376              	.LVL36:
 377 001e FFF7FEFF 		bl	lbm_car
 378              	.LVL37:
 379 0022 A842     		cmp	r0, r5
 380              		.loc 1 90 0
 381 0024 2046     		mov	r0, r4
 382              		.loc 1 86 0
 383 0026 17D0     		beq	.L70
 384              	.LVL38:
 385              		.loc 1 90 0
 386 0028 FFF7FEFF 		bl	lbm_cdr
 387              	.LVL39:
 388              	.LBB72:
 389              	.LBB69:
 390              		.loc 2 461 0
 391 002c C107     		lsls	r1, r0, #31
 392              	.LBE69:
 393              	.LBE72:
 394              		.loc 1 90 0
 395 002e 0446     		mov	r4, r0
 396              	.LVL40:
 397              	.LBB73:
 398              	.LBB70:
 399              		.loc 2 461 0
ARM GAS  /tmp/ccRbSNsM.s 			page 8


 400 0030 00F07C43 		and	r3, r0, #-67108864
 401 0034 02D5     		bpl	.L48
 402              	.LBE70:
 403              	.LBE73:
 404              		.loc 1 85 0
 405 0036 B3F1805F 		cmp	r3, #268435456
 406 003a EDD0     		beq	.L51
 407              	.LVL41:
 408              	.L48:
 409              		.loc 1 93 0
 410 003c 3146     		mov	r1, r6
 411 003e 2846     		mov	r0, r5
 412 0040 FFF7FEFF 		bl	lbm_cons
 413              	.LVL42:
 414              	.LBB74:
 415              	.LBB75:
 416              		.loc 2 461 0
 417 0044 C207     		lsls	r2, r0, #31
 418 0046 4CBF     		ite	mi
 419 0048 00F07C43 		andmi	r3, r0, #-67108864
 420 004c 00F00C03 		andpl	r3, r0, #12
 421              	.LBE75:
 422              	.LBE74:
 423              		.loc 1 93 0
 424 0050 0446     		mov	r4, r0
 425              	.LVL43:
 426              		.loc 1 94 0
 427 0052 4BB9     		cbnz	r3, .L71
 428              		.loc 1 104 0
 429 0054 2046     		mov	r0, r4
 430 0056 F8BD     		pop	{r3, r4, r5, r6, r7, pc}
 431              	.LVL44:
 432              	.L70:
 433              		.loc 1 87 0
 434 0058 FFF7FEFF 		bl	lbm_car
 435              	.LVL45:
 436              		.loc 1 88 0
 437 005c 3C46     		mov	r4, r7
 438              	.LVL46:
 439              		.loc 1 87 0
 440 005e 3146     		mov	r1, r6
 441 0060 FFF7FEFF 		bl	lbm_set_cdr
 442              	.LVL47:
 443              		.loc 1 104 0
 444 0064 2046     		mov	r0, r4
 445 0066 F8BD     		pop	{r3, r4, r5, r6, r7, pc}
 446              	.LVL48:
 447              	.L71:
 448              		.loc 1 98 0
 449 0068 3946     		mov	r1, r7
 450 006a FFF7FEFF 		bl	lbm_cons
 451              	.LVL49:
 452              	.LBB76:
 453              	.LBB77:
 454              		.loc 2 461 0
 455 006e C307     		lsls	r3, r0, #31
 456 0070 4CBF     		ite	mi
ARM GAS  /tmp/ccRbSNsM.s 			page 9


 457 0072 00F07C43 		andmi	r3, r0, #-67108864
 458 0076 00F00C03 		andpl	r3, r0, #12
 459              	.LBE77:
 460              	.LBE76:
 461              		.loc 1 98 0
 462 007a 002B     		cmp	r3, #0
 463 007c 18BF     		it	ne
 464 007e 0446     		movne	r4, r0
 465              	.LVL50:
 466              		.loc 1 104 0
 467 0080 2046     		mov	r0, r4
 468              	.LVL51:
 469 0082 F8BD     		pop	{r3, r4, r5, r6, r7, pc}
 470              		.cfi_endproc
 471              	.LFE41:
 472              		.size	lbm_env_set, .-lbm_env_set
 473              		.section	.text.lbm_env_modify_binding,"ax",%progbits
 474              		.align	1
 475              		.p2align 4,,15
 476              		.global	lbm_env_modify_binding
 477              		.syntax unified
 478              		.thumb
 479              		.thumb_func
 480              		.fpu fpv4-sp-d16
 481              		.type	lbm_env_modify_binding, %function
 482              	lbm_env_modify_binding:
 483              	.LFB42:
 484              		.loc 1 107 0
 485              		.cfi_startproc
 486              		@ args = 0, pretend = 0, frame = 0
 487              		@ frame_needed = 0, uses_anonymous_args = 0
 488              	.LVL52:
 489              	.LBB78:
 490              	.LBB79:
 491              		.loc 2 461 0
 492 0000 10F0010F 		tst	r0, #1
 493 0004 1ED0     		beq	.L86
 494              	.LVL53:
 495              	.LBE79:
 496              	.LBE78:
 497              		.loc 1 107 0
 498 0006 F8B5     		push	{r3, r4, r5, r6, r7, lr}
 499              		.cfi_def_cfa_offset 24
 500              		.cfi_offset 3, -24
 501              		.cfi_offset 4, -20
 502              		.cfi_offset 5, -16
 503              		.cfi_offset 6, -12
 504              		.cfi_offset 7, -8
 505              		.cfi_offset 14, -4
 506              	.LBB83:
 507              	.LBB80:
 508              		.loc 2 461 0
 509 0008 00F07C43 		and	r3, r0, #-67108864
 510              	.LBE80:
 511              	.LBE83:
 512              		.loc 1 111 0
 513 000c B3F1805F 		cmp	r3, #268435456
ARM GAS  /tmp/ccRbSNsM.s 			page 10


 514 0010 15D1     		bne	.L73
 515 0012 1746     		mov	r7, r2
 516 0014 0E46     		mov	r6, r1
 517 0016 0546     		mov	r5, r0
 518 0018 0446     		mov	r4, r0
 519              	.LVL54:
 520              	.L76:
 521              		.loc 1 112 0
 522 001a 2046     		mov	r0, r4
 523 001c FFF7FEFF 		bl	lbm_car
 524              	.LVL55:
 525 0020 FFF7FEFF 		bl	lbm_car
 526              	.LVL56:
 527 0024 B042     		cmp	r0, r6
 528              		.loc 1 116 0
 529 0026 2046     		mov	r0, r4
 530              		.loc 1 112 0
 531 0028 0FD0     		beq	.L90
 532              	.LVL57:
 533              		.loc 1 116 0
 534 002a FFF7FEFF 		bl	lbm_cdr
 535              	.LVL58:
 536              	.LBB84:
 537              	.LBB81:
 538              		.loc 2 461 0
 539 002e C207     		lsls	r2, r0, #31
 540              	.LBE81:
 541              	.LBE84:
 542              		.loc 1 116 0
 543 0030 0446     		mov	r4, r0
 544              	.LVL59:
 545              	.LBB85:
 546              	.LBB82:
 547              		.loc 2 461 0
 548 0032 00F07C43 		and	r3, r0, #-67108864
 549 0036 02D5     		bpl	.L73
 550              	.LBE82:
 551              	.LBE85:
 552              		.loc 1 111 0
 553 0038 B3F1805F 		cmp	r3, #268435456
 554 003c EDD0     		beq	.L76
 555              	.LVL60:
 556              	.L73:
 557              		.loc 1 119 0
 558 003e 4FF42470 		mov	r0, #656
 559              	.LVL61:
 560              		.loc 1 120 0
 561 0042 F8BD     		pop	{r3, r4, r5, r6, r7, pc}
 562              	.LVL62:
 563              	.L86:
 564              		.cfi_def_cfa_offset 0
 565              		.cfi_restore 3
 566              		.cfi_restore 4
 567              		.cfi_restore 5
 568              		.cfi_restore 6
 569              		.cfi_restore 7
 570              		.cfi_restore 14
ARM GAS  /tmp/ccRbSNsM.s 			page 11


 571              		.loc 1 119 0
 572 0044 4FF42470 		mov	r0, #656
 573              	.LVL63:
 574              		.loc 1 120 0
 575 0048 7047     		bx	lr
 576              	.LVL64:
 577              	.L90:
 578              		.cfi_def_cfa_offset 24
 579              		.cfi_offset 3, -24
 580              		.cfi_offset 4, -20
 581              		.cfi_offset 5, -16
 582              		.cfi_offset 6, -12
 583              		.cfi_offset 7, -8
 584              		.cfi_offset 14, -4
 585              		.loc 1 113 0
 586 004a FFF7FEFF 		bl	lbm_car
 587              	.LVL65:
 588 004e 3946     		mov	r1, r7
 589 0050 FFF7FEFF 		bl	lbm_set_cdr
 590              	.LVL66:
 591              		.loc 1 114 0
 592 0054 2846     		mov	r0, r5
 593              		.loc 1 120 0
 594 0056 F8BD     		pop	{r3, r4, r5, r6, r7, pc}
 595              		.cfi_endproc
 596              	.LFE42:
 597              		.size	lbm_env_modify_binding, .-lbm_env_modify_binding
 598              		.section	.text.lbm_env_build_params_args,"ax",%progbits
 599              		.align	1
 600              		.p2align 4,,15
 601              		.global	lbm_env_build_params_args
 602              		.syntax unified
 603              		.thumb
 604              		.thumb_func
 605              		.fpu fpv4-sp-d16
 606              		.type	lbm_env_build_params_args, %function
 607              	lbm_env_build_params_args:
 608              	.LFB43:
 609              		.loc 1 125 0
 610              		.cfi_startproc
 611              		@ args = 0, pretend = 0, frame = 0
 612              		@ frame_needed = 0, uses_anonymous_args = 0
 613              	.LVL67:
 614 0000 F8B5     		push	{r3, r4, r5, r6, r7, lr}
 615              		.cfi_def_cfa_offset 24
 616              		.cfi_offset 3, -24
 617              		.cfi_offset 4, -20
 618              		.cfi_offset 5, -16
 619              		.cfi_offset 6, -12
 620              		.cfi_offset 7, -8
 621              		.cfi_offset 14, -4
 622              		.loc 1 125 0
 623 0002 0E46     		mov	r6, r1
 624 0004 1446     		mov	r4, r2
 625 0006 0546     		mov	r5, r0
 626              	.LVL68:
 627              		.loc 1 131 0
ARM GAS  /tmp/ccRbSNsM.s 			page 12


 628 0008 FFF7FEFF 		bl	lbm_list_length
 629              	.LVL69:
 630 000c 0746     		mov	r7, r0
 631 000e 3046     		mov	r0, r6
 632 0010 FFF7FEFF 		bl	lbm_list_length
 633              	.LVL70:
 634 0014 8742     		cmp	r7, r0
 635 0016 35D1     		bne	.L101
 636              	.LVL71:
 637              	.LBB86:
 638              	.LBB87:
 639              		.loc 2 461 0
 640 0018 E807     		lsls	r0, r5, #31
 641 001a 31D5     		bpl	.L91
 642              	.LVL72:
 643              	.L113:
 644 001c 05F07C43 		and	r3, r5, #-67108864
 645              	.LBE87:
 646              	.LBE86:
 647              		.loc 1 136 0
 648 0020 B3F1805F 		cmp	r3, #268435456
 649 0024 2CD1     		bne	.L91
 650              	.LBB90:
 651              		.loc 1 138 0
 652 0026 2846     		mov	r0, r5
 653 0028 FFF7FEFF 		bl	lbm_car
 654              	.LVL73:
 655 002c 0746     		mov	r7, r0
 656 002e 3046     		mov	r0, r6
 657 0030 FFF7FEFF 		bl	lbm_car
 658              	.LVL74:
 659 0034 0146     		mov	r1, r0
 660 0036 3846     		mov	r0, r7
 661 0038 FFF7FEFF 		bl	lbm_cons
 662              	.LVL75:
 663              	.LBB91:
 664              	.LBB92:
 665              		.loc 2 461 0
 666 003c C107     		lsls	r1, r0, #31
 667 003e 4CBF     		ite	mi
 668 0040 00F07C43 		andmi	r3, r0, #-67108864
 669 0044 00F00C03 		andpl	r3, r0, #12
 670              	.LBE92:
 671              	.LBE91:
 672              		.loc 1 139 0
 673 0048 13B9     		cbnz	r3, .L95
 674              	.LBB93:
 675              	.LBB94:
 676              		.loc 2 529 0
 677 004a 0309     		lsrs	r3, r0, #4
 678              	.LBE94:
 679              	.LBE93:
 680              		.loc 1 139 0
 681 004c 0A2B     		cmp	r3, #10
 682 004e 1CD0     		beq	.L99
 683              	.L95:
 684              		.loc 1 143 0
ARM GAS  /tmp/ccRbSNsM.s 			page 13


 685 0050 2146     		mov	r1, r4
 686 0052 FFF7FEFF 		bl	lbm_cons
 687              	.LVL76:
 688              	.LBB95:
 689              	.LBB96:
 690              		.loc 2 461 0
 691 0056 C207     		lsls	r2, r0, #31
 692 0058 4CBF     		ite	mi
 693 005a 00F07C43 		andmi	r3, r0, #-67108864
 694 005e 00F00C03 		andpl	r3, r0, #12
 695              	.LBE96:
 696              	.LBE95:
 697              		.loc 1 143 0
 698 0062 0446     		mov	r4, r0
 699              	.LVL77:
 700              		.loc 1 145 0
 701 0064 13B9     		cbnz	r3, .L98
 702              	.LBB97:
 703              	.LBB98:
 704              		.loc 2 529 0
 705 0066 0309     		lsrs	r3, r0, #4
 706              	.LBE98:
 707              	.LBE97:
 708              		.loc 1 145 0
 709 0068 0A2B     		cmp	r3, #10
 710 006a 0ED0     		beq	.L99
 711              	.L98:
 712              		.loc 1 149 0
 713 006c 2846     		mov	r0, r5
 714              	.LVL78:
 715 006e FFF7FEFF 		bl	lbm_cdr
 716              	.LVL79:
 717 0072 0546     		mov	r5, r0
 718              	.LVL80:
 719              		.loc 1 150 0
 720 0074 3046     		mov	r0, r6
 721              	.LVL81:
 722 0076 FFF7FEFF 		bl	lbm_cdr
 723              	.LVL82:
 724              	.LBE90:
 725              	.LBB99:
 726              	.LBB88:
 727              		.loc 2 461 0
 728 007a EB07     		lsls	r3, r5, #31
 729              	.LBE88:
 730              	.LBE99:
 731              	.LBB100:
 732              		.loc 1 150 0
 733 007c 0646     		mov	r6, r0
 734              	.LVL83:
 735              	.LBE100:
 736              	.LBB101:
 737              	.LBB89:
 738              		.loc 2 461 0
 739 007e CDD4     		bmi	.L113
 740              	.LVL84:
 741              	.L91:
ARM GAS  /tmp/ccRbSNsM.s 			page 14


 742              	.LBE89:
 743              	.LBE101:
 744              		.loc 1 153 0
 745 0080 2046     		mov	r0, r4
 746 0082 F8BD     		pop	{r3, r4, r5, r6, r7, pc}
 747              	.LVL85:
 748              	.L101:
 749              		.loc 1 132 0
 750 0084 C024     		movs	r4, #192
 751              	.LVL86:
 752              		.loc 1 153 0
 753 0086 2046     		mov	r0, r4
 754 0088 F8BD     		pop	{r3, r4, r5, r6, r7, pc}
 755              	.LVL87:
 756              	.L99:
 757              	.LBB102:
 758              		.loc 1 141 0
 759 008a A024     		movs	r4, #160
 760              	.LVL88:
 761              	.LBE102:
 762              		.loc 1 153 0
 763 008c 2046     		mov	r0, r4
 764 008e F8BD     		pop	{r3, r4, r5, r6, r7, pc}
 765              		.cfi_endproc
 766              	.LFE43:
 767              		.size	lbm_env_build_params_args, .-lbm_env_build_params_args
 768              		.global	env_global
 769              		.section	.bss.env_global,"aw",%nobits
 770              		.align	2
 771              		.set	.LANCHOR0,. + 0
 772              		.type	env_global, %object
 773              		.size	env_global, 4
 774              	env_global:
 775 0000 00000000 		.space	4
 776              		.text
 777              	.Letext0:
 778              		.file 3 "/usr/arm-none-eabi/include/machine/_default_types.h"
 779              		.file 4 "/usr/arm-none-eabi/include/sys/_stdint.h"
 780              		.file 5 "lispBM/lispBM/include/lbm_types.h"
 781              		.file 6 "/usr/arm-none-eabi/include/sys/lock.h"
 782              		.file 7 "/usr/arm-none-eabi/include/sys/_types.h"
 783              		.file 8 "/usr/lib/gcc/arm-none-eabi/7.3.1/include/stddef.h"
 784              		.file 9 "/usr/arm-none-eabi/include/sys/reent.h"