ARM GAS  /tmp/ccRbSNsM.s 			page 1


   1              		.cpu cortex-m4
   2              		.eabi_attribute 27, 1
   3              		.eabi_attribute 28, 1
   4              		.eabi_attribute 20, 1
   5              		.eabi_attribute 21, 1
   6              		.eabi_attribute 23, 3
   7              		.eabi_attribute 24, 1
   8              		.eabi_attribute 25, 1
   9              		.eabi_attribute 26, 1
  10              		.eabi_attribute 30, 2
  11              		.eabi_attribute 34, 1
  12              		.eabi_attribute 18, 4
  13              		.file	"env.c"
  14              		.text
  15              	.Ltext0:
  16              		.cfi_sections	.debug_frame
  17              		.section	.text.lbm_init_env,"ax",%progbits
  18              		.align	1
  19              		.p2align 4,,15
  20              		.global	lbm_init_env
  21              		.syntax unified
  22              		.thumb
  23              		.thumb_func
  24              		.fpu fpv4-sp-d16
  25              		.type	lbm_init_env, %function
  26              	lbm_init_env:
  27              	.LFB36:
  28              		.file 1 "lispBM/lispBM/src/env.c"
  29              		.loc 1 27 0
  30              		.cfi_startproc
  31              		@ args = 0, pretend = 0, frame = 0
  32              		@ frame_needed = 0, uses_anonymous_args = 0
  33              		@ link register save eliminated.
  34              		.loc 1 28 0
  35 0000 024B     		ldr	r3, .L3
  36 0002 0022     		movs	r2, #0
  37 0004 1A60     		str	r2, [r3]
  38              		.loc 1 30 0
  39 0006 0120     		movs	r0, #1
  40 0008 7047     		bx	lr
  41              	.L4:
  42 000a 00BF     		.align	2
  43              	.L3:
  44 000c 00000000 		.word	.LANCHOR0
  45              		.cfi_endproc
  46              	.LFE36:
  47              		.size	lbm_init_env, .-lbm_init_env
  48              		.section	.text.lbm_get_env_ptr,"ax",%progbits
  49              		.align	1
  50              		.p2align 4,,15
  51              		.global	lbm_get_env_ptr
  52              		.syntax unified
  53              		.thumb
  54              		.thumb_func
  55              		.fpu fpv4-sp-d16
  56              		.type	lbm_get_env_ptr, %function
  57              	lbm_get_env_ptr:
ARM GAS  /tmp/ccRbSNsM.s 			page 2


  58              	.LFB37:
  59              		.loc 1 32 0
  60              		.cfi_startproc
  61              		@ args = 0, pretend = 0, frame = 0
  62              		@ frame_needed = 0, uses_anonymous_args = 0
  63              		@ link register save eliminated.
  64              		.loc 1 34 0
  65 0000 0048     		ldr	r0, .L6
  66 0002 7047     		bx	lr
  67              	.L7:
  68              		.align	2
  69              	.L6:
  70 0004 00000000 		.word	.LANCHOR0
  71              		.cfi_endproc
  72              	.LFE37:
  73              		.size	lbm_get_env_ptr, .-lbm_get_env_ptr
  74              		.section	.text.lbm_get_env,"ax",%progbits
  75              		.align	1
  76              		.p2align 4,,15
  77              		.global	lbm_get_env
  78              		.syntax unified
  79              		.thumb
  80              		.thumb_func
  81              		.fpu fpv4-sp-d16
  82              		.type	lbm_get_env, %function
  83              	lbm_get_env:
  84              	.LFB38:
  85              		.loc 1 36 0
  86              		.cfi_startproc
  87              		@ args = 0, pretend = 0, frame = 0
  88              		@ frame_needed = 0, uses_anonymous_args = 0
  89              		@ link register save eliminated.
  90              		.loc 1 37 0
  91 0000 014B     		ldr	r3, .L9
  92              		.loc 1 38 0
  93 0002 1868     		ldr	r0, [r3]
  94 0004 7047     		bx	lr
  95              	.L10:
  96 0006 00BF     		.align	2
  97              	.L9:
  98 0008 00000000 		.word	.LANCHOR0
  99              		.cfi_endproc
 100              	.LFE38:
 101              		.size	lbm_get_env, .-lbm_get_env
 102              		.section	.text.lbm_env_copy_shallow,"ax",%progbits
 103              		.align	1
 104              		.p2align 4,,15
 105              		.global	lbm_env_copy_shallow
 106              		.syntax unified
 107              		.thumb
 108              		.thumb_func
 109              		.fpu fpv4-sp-d16
 110              		.type	lbm_env_copy_shallow, %function
 111              	lbm_env_copy_shallow:
 112              	.LFB39:
 113              		.loc 1 42 0
 114              		.cfi_startproc
ARM GAS  /tmp/ccRbSNsM.s 			page 3


 115              		@ args = 0, pretend = 0, frame = 0
 116              		@ frame_needed = 0, uses_anonymous_args = 0
 117              	.LVL0:
 118 0000 38B5     		push	{r3, r4, r5, lr}
 119              		.cfi_def_cfa_offset 16
 120              		.cfi_offset 3, -16
 121              		.cfi_offset 4, -12
 122              		.cfi_offset 5, -8
 123              		.cfi_offset 14, -4
 124              	.LBB48:
 125              	.LBB49:
 126              		.file 2 "lispBM/lispBM/include/heap.h"
 127              		.loc 2 461 0
 128 0002 10F00105 		ands	r5, r0, #1
 129 0006 26D0     		beq	.L11
 130 0008 0446     		mov	r4, r0
 131              	.LVL1:
 132 000a 00F07C43 		and	r3, r0, #-67108864
 133              	.LBE49:
 134              	.LBE48:
 135              		.loc 1 44 0
 136 000e 0025     		movs	r5, #0
 137              	.LVL2:
 138              	.L31:
 139              		.loc 1 47 0
 140 0010 B3F1805F 		cmp	r3, #268435456
 141 0014 1FD1     		bne	.L11
 142              	.LVL3:
 143              	.LBB52:
 144              		.loc 1 48 0
 145 0016 2046     		mov	r0, r4
 146 0018 FFF7FEFF 		bl	lbm_car
 147              	.LVL4:
 148 001c FFF7FEFF 		bl	lbm_car
 149              	.LVL5:
 150              		.loc 1 49 0
 151 0020 0309     		lsrs	r3, r0, #4
 152              		.loc 1 50 0
 153 0022 2046     		mov	r0, r4
 154              	.LVL6:
 155              		.loc 1 49 0
 156 0024 0FD0     		beq	.L13
 157              		.loc 1 50 0
 158 0026 FFF7FEFF 		bl	lbm_car
 159              	.LVL7:
 160 002a 2946     		mov	r1, r5
 161 002c FFF7FEFF 		bl	lbm_cons
 162              	.LVL8:
 163              	.LBB53:
 164              	.LBB54:
 165              		.loc 2 461 0
 166 0030 C107     		lsls	r1, r0, #31
 167 0032 4CBF     		ite	mi
 168 0034 00F07C43 		andmi	r3, r0, #-67108864
 169 0038 00F00C03 		andpl	r3, r0, #12
 170              	.LBE54:
 171              	.LBE53:
ARM GAS  /tmp/ccRbSNsM.s 			page 4


 172              		.loc 1 50 0
 173 003c 0546     		mov	r5, r0
 174              	.LVL9:
 175              	.LBB55:
 176              	.LBB56:
 177              		.loc 2 529 0
 178 003e 0209     		lsrs	r2, r0, #4
 179              	.LBE56:
 180              	.LBE55:
 181              		.loc 1 53 0
 182 0040 0BB9     		cbnz	r3, .L13
 183 0042 0A2A     		cmp	r2, #10
 184 0044 07D0     		beq	.L11
 185              	.LVL10:
 186              	.L13:
 187              		.loc 1 58 0
 188 0046 2046     		mov	r0, r4
 189 0048 FFF7FEFF 		bl	lbm_cdr
 190              	.LVL11:
 191              	.LBE52:
 192              	.LBB57:
 193              	.LBB50:
 194              		.loc 2 461 0
 195 004c C207     		lsls	r2, r0, #31
 196              	.LBE50:
 197              	.LBE57:
 198              	.LBB58:
 199              		.loc 1 58 0
 200 004e 0446     		mov	r4, r0
 201              	.LVL12:
 202              	.LBE58:
 203              	.LBB59:
 204              	.LBB51:
 205              		.loc 2 461 0
 206 0050 00F07C43 		and	r3, r0, #-67108864
 207 0054 DCD4     		bmi	.L31
 208              	.LVL13:
 209              	.L11:
 210              	.LBE51:
 211              	.LBE59:
 212              		.loc 1 61 0
 213 0056 2846     		mov	r0, r5
 214 0058 38BD     		pop	{r3, r4, r5, pc}
 215              		.cfi_endproc
 216              	.LFE39:
 217              		.size	lbm_env_copy_shallow, .-lbm_env_copy_shallow
 218 005a 00BF     		.section	.text.lbm_env_lookup,"ax",%progbits
 219              		.align	1
 220              		.p2align 4,,15
 221              		.global	lbm_env_lookup
 222              		.syntax unified
 223              		.thumb
 224              		.thumb_func
 225              		.fpu fpv4-sp-d16
 226              		.type	lbm_env_lookup, %function
 227              	lbm_env_lookup:
 228              	.LFB40:
ARM GAS  /tmp/ccRbSNsM.s 			page 5


 229              		.loc 1 63 0
 230              		.cfi_startproc
 231              		@ args = 0, pretend = 0, frame = 0
 232              		@ frame_needed = 0, uses_anonymous_args = 0
 233              	.LVL14:
 234 0000 38B5     		push	{r3, r4, r5, lr}
 235              		.cfi_def_cfa_offset 16
 236              		.cfi_offset 3, -16
 237              		.cfi_offset 4, -12
 238              		.cfi_offset 5, -8
 239              		.cfi_offset 14, -4
 240              		.loc 1 66 0
 241 0002 0309     		lsrs	r3, r0, #4
 242              		.loc 1 63 0
 243 0004 0546     		mov	r5, r0
 244              	.LVL15:
 245              		.loc 1 66 0
 246 0006 18D0     		beq	.L32
 247 0008 0C46     		mov	r4, r1
 248              	.LVL16:
 249              	.LBB60:
 250              	.LBB61:
 251              		.loc 2 461 0
 252 000a E107     		lsls	r1, r4, #31
 253              	.LVL17:
 254 000c 13D5     		bpl	.L35
 255              	.LVL18:
 256 000e 04F07C43 		and	r3, r4, #-67108864
 257              	.LVL19:
 258              	.L45:
 259              	.LBE61:
 260              	.LBE60:
 261              		.loc 1 70 0
 262 0012 B3F1805F 		cmp	r3, #268435456
 263 0016 0ED1     		bne	.L35
 264              		.loc 1 71 0
 265 0018 2046     		mov	r0, r4
 266 001a FFF7FEFF 		bl	lbm_car
 267              	.LVL20:
 268 001e FFF7FEFF 		bl	lbm_car
 269              	.LVL21:
 270 0022 A842     		cmp	r0, r5
 271              		.loc 1 74 0
 272 0024 2046     		mov	r0, r4
 273              		.loc 1 71 0
 274 0026 09D0     		beq	.L46
 275              	.LVL22:
 276              		.loc 1 74 0
 277 0028 FFF7FEFF 		bl	lbm_cdr
 278              	.LVL23:
 279              	.LBB64:
 280              	.LBB62:
 281              		.loc 2 461 0
 282 002c C207     		lsls	r2, r0, #31
 283              	.LBE62:
 284              	.LBE64:
 285              		.loc 1 74 0
ARM GAS  /tmp/ccRbSNsM.s 			page 6


 286 002e 0446     		mov	r4, r0
 287              	.LVL24:
 288              	.LBB65:
 289              	.LBB63:
 290              		.loc 2 461 0
 291 0030 00F07C43 		and	r3, r0, #-67108864
 292 0034 EDD4     		bmi	.L45
 293              	.LVL25:
 294              	.L35:
 295              	.LBE63:
 296              	.LBE65:
 297              		.loc 1 76 0
 298 0036 4FF42470 		mov	r0, #656
 299              	.LVL26:
 300              	.L32:
 301              		.loc 1 77 0
 302 003a 38BD     		pop	{r3, r4, r5, pc}
 303              	.LVL27:
 304              	.L46:
 305              		.loc 1 72 0
 306 003c FFF7FEFF 		bl	lbm_car
 307              	.LVL28:
 308              		.loc 1 77 0
 309 0040 BDE83840 		pop	{r3, r4, r5, lr}
 310              		.cfi_restore 14
 311              		.cfi_restore 5
 312              		.cfi_restore 4
 313              		.cfi_restore 3
 314              		.cfi_def_cfa_offset 0
 315              	.LVL29:
 316              		.loc 1 72 0
 317 0044 FFF7FEBF 		b	lbm_cdr
 318              	.LVL30:
 319              		.cfi_endproc
 320              	.LFE40:
 321              		.size	lbm_env_lookup, .-lbm_env_lookup
 322              		.section	.text.lbm_env_set,"ax",%progbits
 323              		.align	1
 324              		.p2align 4,,15
 325              		.global	lbm_env_set
 326              		.syntax unified
 327              		.thumb
 328              		.thumb_func
 329              		.fpu fpv4-sp-d16
 330              		.type	lbm_env_set, %function
 331              	lbm_env_set:
 332              	.LFB41:
 333              		.loc 1 79 0
 334              		.cfi_startproc
 335              		@ args = 0, pretend = 0, frame = 0
 336              		@ frame_needed = 0, uses_anonymous_args = 0
 337              	.LVL31:
 338 0000 F8B5     		push	{r3, r4, r5, r6, r7, lr}
 339              		.cfi_def_cfa_offset 24
 340              		.cfi_offset 3, -24
 341              		.cfi_offset 4, -20
 342              		.cfi_offset 5, -16
ARM GAS  /tmp/ccRbSNsM.s 			page 7


 343              		.cfi_offset 6, -12
 344              		.cfi_offset 7, -8
 345              		.cfi_offset 14, -4
 346              		.loc 1 79 0
 347 0002 0746     		mov	r7, r0
 348              	.LVL32:
 349              	.LBB66:
 350              	.LBB67:
 351              		.loc 2 461 0
 352 0004 C007     		lsls	r0, r0, #31
 353              	.LVL33:
 354              	.LBE67:
 355              	.LBE66:
 356              		.loc 1 79 0
 357 0006 0D46     		mov	r5, r1
 358 0008 1646     		mov	r6, r2
 359              	.LBB71:
 360              	.LBB68:
 361              		.loc 2 461 0
 362 000a 17D5     		bpl	.L48
 363              	.LVL34:
 364 000c 07F07C43 		and	r3, r7, #-67108864
 365              	.LBE68:
 366              	.LBE71:
 367              		.loc 1 85 0
 368 0010 B3F1805F 		cmp	r3, #268435456
 369 0014 12D1     		bne	.L48
 370 0016 3C46     		mov	r4, r7
 371              	.LVL35:
 372              	.L51:
 373              		.loc 1 86 0
 374 0018 2046     		mov	r0, r4
 375 001a FFF7FEFF 		bl	lbm_car
 376              	.LVL36:
 377 001e FFF7FEFF 		bl	lbm_car
 378              	.LVL37:
 379 0022 A842     		cmp	r0, r5
 380              		.loc 1 90 0
 381 0024 2046     		mov	r0, r4
 382              		.loc 1 86 0
 383 0026 17D0     		beq	.L70
 384              	.LVL38:
 385              		.loc 1 90 0
 386 0028 FFF7FEFF 		bl	lbm_cdr
 387              	.LVL39:
 388              	.LBB72:
 389              	.LBB69:
 390              		.loc 2 461 0
 391 002c C107     		lsls	r1, r0, #31
 392              	.LBE69:
 393              	.LBE72:
 394              		.loc 1 90 0
 395 002e 0446     		mov	r4, r0
 396              	.LVL40:
 397              	.LBB73:
 398              	.LBB70:
 399              		.loc 2 461 0
ARM GAS  /tmp/ccRbSNsM.s 			page 8


 400 0030 00F07C43 		and	r3, r0, #-67108864
 401 0034 02D5     		bpl	.L48
 402              	.LBE70:
 403              	.LBE73:
 404              		.loc 1 85 0
 405 0036 B3F1805F 		cmp	r3, #268435456
 406 003a EDD0     		beq	.L51
 407              	.LVL41:
 408              	.L48:
 409              		.loc 1 93 0
 410 003c 3146     		mov	r1, r6
 411 003e 2846     		mov	r0, r5
 412 0040 FFF7FEFF 		bl	lbm_cons
 413              	.LVL42:
 414              	.LBB74:
 415              	.LBB75:
 416              		.loc 2 461 0
 417 0044 C207     		lsls	r2, r0, #31
 418 0046 4CBF     		ite	mi
 419 0048 00F07C43 		andmi	r3, r0, #-67108864
 420 004c 00F00C03 		andpl	r3, r0, #12
 421              	.LBE75:
 422              	.LBE74:
 423              		.loc 1 93 0
 424 0050 0446     		mov	r4, r0
 425              	.LVL43:
 426              		.loc 1 94 0
 427 0052 4BB9     		cbnz	r3, .L71
 428              		.loc 1 104 0
 429 0054 2046     		mov	r0, r4
 430 0056 F8BD     		pop	{r3, r4, r5, r6, r7, pc}
 431              	.LVL44:
 432              	.L70:
 433              		.loc 1 87 0
 434 0058 FFF7FEFF 		bl	lbm_car
 435              	.LVL45:
 436              		.loc 1 88 0
 437 005c 3C46     		mov	r4, r7
 438              	.LVL46:
 439              		.loc 1 87 0
 440 005e 3146     		mov	r1, r6
 441 0060 FFF7FEFF 		bl	lbm_set_cdr
 442              	.LVL47:
 443              		.loc 1 104 0
 444 0064 2046     		mov	r0, r4
 445 0066 F8BD     		pop	{r3, r4, r5, r6, r7, pc}
 446              	.LVL48:
 447              	.L71:
 448              		.loc 1 98 0
 449 0068 3946     		mov	r1, r7
 450 006a FFF7FEFF 		bl	lbm_cons
 451              	.LVL49:
 452              	.LBB76:
 453              	.LBB77:
 454              		.loc 2 461 0
 455 006e C307     		lsls	r3, r0, #31
 456 0070 4CBF     		ite	mi
ARM GAS  /tmp/ccRbSNsM.s 			page 9


 457 0072 00F07C43 		andmi	r3, r0, #-67108864
 458 0076 00F00C03 		andpl	r3, r0, #12
 459              	.LBE77:
 460              	.LBE76:
 461              		.loc 1 98 0
 462 007a 002B     		cmp	r3, #0
 463 007c 18BF     		it	ne
 464 007e 0446     		movne	r4, r0
 465              	.LVL50:
 466              		.loc 1 104 0
 467 0080 2046     		mov	r0, r4
 468              	.LVL51:
 469 0082 F8BD     		pop	{r3, r4, r5, r6, r7, pc}
 470              		.cfi_endproc
 471              	.LFE41:
 472              		.size	lbm_env_set, .-lbm_env_set
 473              		.section	.text.lbm_env_modify_binding,"ax",%progbits
 474              		.align	1
 475              		.p2align 4,,15
 476              		.global	lbm_env_modify_binding
 477              		.syntax unified
 478              		.thumb
 479              		.thumb_func
 480              		.fpu fpv4-sp-d16
 481              		.type	lbm_env_modify_binding, %function
 482              	lbm_env_modify_binding:
 483              	.LFB42:
 484              		.loc 1 107 0
 485              		.cfi_startproc
 486              		@ args = 0, pretend = 0, frame = 0
 487              		@ frame_needed = 0, uses_anonymous_args = 0
 488              	.LVL52:
 489              	.LBB78:
 490              	.LBB79:
 491              		.loc 2 461 0
 492 0000 10F0010F 		tst	r0, #1
 493 0004 1ED0     		beq	.L86
 494              	.LVL53:
 495              	.LBE79:
 496              	.LBE78:
 497              		.loc 1 107 0
 498 0006 F8B5     		push	{r3, r4, r5, r6, r7, lr}
 499              		.cfi_def_cfa_offset 24
 500              		.cfi_offset 3, -24
 501              		.cfi_offset 4, -20
 502              		.cfi_offset 5, -16
 503              		.cfi_offset 6, -12
 504              		.cfi_offset 7, -8
 505              		.cfi_offset 14, -4
 506              	.LBB83:
 507              	.LBB80:
 508              		.loc 2 461 0
 509 0008 00F07C43 		and	r3, r0, #-67108864
 510              	.LBE80:
 511              	.LBE83:
 512              		.loc 1 111 0
 513 000c B3F1805F 		cmp	r3, #268435456
ARM GAS  /tmp/ccRbSNsM.s 			page 10


 514 0010 15D1     		bne	.L73
 515 0012 1746     		mov	r7, r2
 516 0014 0E46     		mov	r6, r1
 517 0016 0546     		mov	r5, r0
 518 0018 0446     		mov	r4, r0
 519              	.LVL54:
 520              	.L76:
 521              		.loc 1 112 0
 522 001a 2046     		mov	r0, r4
 523 001c FFF7FEFF 		bl	lbm_car
 524              	.LVL55:
 525 0020 FFF7FEFF 		bl	lbm_car
 526              	.LVL56:
 527 0024 B042     		cmp	r0, r6
 528              		.loc 1 116 0
 529 0026 2046     		mov	r0, r4
 530              		.loc 1 112 0
 531 0028 0FD0     		beq	.L90
 532              	.LVL57:
 533              		.loc 1 116 0
 534 002a FFF7FEFF 		bl	lbm_cdr
 535              	.LVL58:
 536              	.LBB84:
 537              	.LBB81:
 538              		.loc 2 461 0
 539 002e C207     		lsls	r2, r0, #31
 540              	.LBE81:
 541              	.LBE84:
 542              		.loc 1 116 0
 543 0030 0446     		mov	r4, r0
 544              	.LVL59:
 545              	.LBB85:
 546              	.LBB82:
 547              		.loc 2 461 0
 548 0032 00F07C43 		and	r3, r0, #-67108864
 549 0036 02D5     		bpl	.L73
 550              	.LBE82:
 551              	.LBE85:
 552              		.loc 1 111 0
 553 0038 B3F1805F 		cmp	r3, #268435456
 554 003c EDD0     		beq	.L76
 555              	.LVL60:
 556              	.L73:
 557              		.loc 1 119 0
 558 003e 4FF42470 		mov	r0, #656
 559              	.LVL61:
 560              		.loc 1 120 0
 561 0042 F8BD     		pop	{r3, r4, r5, r6, r7, pc}
 562              	.LVL62:
 563              	.L86:
 564              		.cfi_def_cfa_offset 0
 565              		.cfi_restore 3
 566              		.cfi_restore 4
 567              		.cfi_restore 5
 568              		.cfi_restore 6
 569              		.cfi_restore 7
 570              		.cfi_restore 14
ARM GAS  /tmp/ccRbSNsM.s 			page 11


 571              		.loc 1 119 0
 572 0044 4FF42470 		mov	r0, #656
 573              	.LVL63:
 574              		.loc 1 120 0
 575 0048 7047     		bx	lr
 576              	.LVL64:
 577              	.L90:
 578              		.cfi_def_cfa_offset 24
 579              		.cfi_offset 3, -24
 580              		.cfi_offset 4, -20
 581              		.cfi_offset 5, -16
 582              		.cfi_offset 6, -12
 583              		.cfi_offset 7, -8
 584              		.cfi_offset 14, -4
 585              		.loc 1 113 0
 586 004a FFF7FEFF 		bl	lbm_car
 587              	.LVL65:
 588 004e 3946     		mov	r1, r7
 589 0050 FFF7FEFF 		bl	lbm_set_cdr
 590              	.LVL66:
 591              		.loc 1 114 0
 592 0054 2846     		mov	r0, r5
 593              		.loc 1 120 0
 594 0056 F8BD     		pop	{r3, r4, r5, r6, r7, pc}
 595              		.cfi_endproc
 596              	.LFE42:
 597              		.size	lbm_env_modify_binding, .-lbm_env_modify_binding
 598              		.section	.text.lbm_env_build_params_args,"ax",%progbits
 599              		.align	1
 600              		.p2align 4,,15
 601              		.global	lbm_env_build_params_args
 602              		.syntax unified
 603              		.thumb
 604              		.thumb_func
 605              		.fpu fpv4-sp-d16
 606              		.type	lbm_env_build_params_args, %function
 607              	lbm_env_build_params_args:
 608              	.LFB43:
 609              		.loc 1 125 0
 610              		.cfi_startproc
 611              		@ args = 0, pretend = 0, frame = 0
 612              		@ frame_needed = 0, uses_anonymous_args = 0
 613              	.LVL67:
 614 0000 F8B5     		push	{r3, r4, r5, r6, r7, lr}
 615              		.cfi_def_cfa_offset 24
 616              		.cfi_offset 3, -24
 617              		.cfi_offset 4, -20
 618              		.cfi_offset 5, -16
 619              		.cfi_offset 6, -12
 620              		.cfi_offset 7, -8
 621              		.cfi_offset 14, -4
 622              		.loc 1 125 0
 623 0002 0E46     		mov	r6, r1
 624 0004 1446     		mov	r4, r2
 625 0006 0546     		mov	r5, r0
 626              	.LVL68:
 627              		.loc 1 131 0
ARM GAS  /tmp/ccRbSNsM.s 			page 12


 628 0008 FFF7FEFF 		bl	lbm_list_length
 629              	.LVL69:
 630 000c 0746     		mov	r7, r0
 631 000e 3046     		mov	r0, r6
 632 0010 FFF7FEFF 		bl	lbm_list_length
 633              	.LVL70:
 634 0014 8742     		cmp	r7, r0
 635 0016 35D1     		bne	.L101
 636              	.LVL71:
 637              	.LBB86:
 638              	.LBB87:
 639              		.loc 2 461 0
 640 0018 E807     		lsls	r0, r5, #31
 641 001a 31D5     		bpl	.L91
 642              	.LVL72:
 643              	.L113:
 644 001c 05F07C43 		and	r3, r5, #-67108864
 645              	.LBE87:
 646              	.LBE86:
 647              		.loc 1 136 0
 648 0020 B3F1805F 		cmp	r3, #268435456
 649 0024 2CD1     		bne	.L91
 650              	.LBB90:
 651              		.loc 1 138 0
 652 0026 2846     		mov	r0, r5
 653 0028 FFF7FEFF 		bl	lbm_car
 654              	.LVL73:
 655 002c 0746     		mov	r7, r0
 656 002e 3046     		mov	r0, r6
 657 0030 FFF7FEFF 		bl	lbm_car
 658              	.LVL74:
 659 0034 0146     		mov	r1, r0
 660 0036 3846     		mov	r0, r7
 661 0038 FFF7FEFF 		bl	lbm_cons
 662              	.LVL75:
 663              	.LBB91:
 664              	.LBB92:
 665              		.loc 2 461 0
 666 003c C107     		lsls	r1, r0, #31
 667 003e 4CBF     		ite	mi
 668 0040 00F07C43 		andmi	r3, r0, #-67108864
 669 0044 00F00C03 		andpl	r3, r0, #12
 670              	.LBE92:
 671              	.LBE91:
 672              		.loc 1 139 0
 673 0048 13B9     		cbnz	r3, .L95
 674              	.LBB93:
 675              	.LBB94:
 676              		.loc 2 529 0
 677 004a 0309     		lsrs	r3, r0, #4
 678              	.LBE94:
 679              	.LBE93:
 680              		.loc 1 139 0
 681 004c 0A2B     		cmp	r3, #10
 682 004e 1CD0     		beq	.L99
 683              	.L95:
 684              		.loc 1 143 0
ARM GAS  /tmp/ccRbSNsM.s 			page 13


 685 0050 2146     		mov	r1, r4
 686 0052 FFF7FEFF 		bl	lbm_cons
 687              	.LVL76:
 688              	.LBB95:
 689              	.LBB96:
 690              		.loc 2 461 0
 691 0056 C207     		lsls	r2, r0, #31
 692 0058 4CBF     		ite	mi
 693 005a 00F07C43 		andmi	r3, r0, #-67108864
 694 005e 00F00C03 		andpl	r3, r0, #12
 695              	.LBE96:
 696              	.LBE95:
 697              		.loc 1 143 0
 698 0062 0446     		mov	r4, r0
 699              	.LVL77:
 700              		.loc 1 145 0
 701 0064 13B9     		cbnz	r3, .L98
 702              	.LBB97:
 703              	.LBB98:
 704              		.loc 2 529 0
 705 0066 0309     		lsrs	r3, r0, #4
 706              	.LBE98:
 707              	.LBE97:
 708              		.loc 1 145 0
 709 0068 0A2B     		cmp	r3, #10
 710 006a 0ED0     		beq	.L99
 711              	.L98:
 712              		.loc 1 149 0
 713 006c 2846     		mov	r0, r5
 714              	.LVL78:
 715 006e FFF7FEFF 		bl	lbm_cdr
 716              	.LVL79:
 717 0072 0546     		mov	r5, r0
 718              	.LVL80:
 719              		.loc 1 150 0
 720 0074 3046     		mov	r0, r6
 721              	.LVL81:
 722 0076 FFF7FEFF 		bl	lbm_cdr
 723              	.LVL82:
 724              	.LBE90:
 725              	.LBB99:
 726              	.LBB88:
 727              		.loc 2 461 0
 728 007a EB07     		lsls	r3, r5, #31
 729              	.LBE88:
 730              	.LBE99:
 731              	.LBB100:
 732              		.loc 1 150 0
 733 007c 0646     		mov	r6, r0
 734              	.LVL83:
 735              	.LBE100:
 736              	.LBB101:
 737              	.LBB89:
 738              		.loc 2 461 0
 739 007e CDD4     		bmi	.L113
 740              	.LVL84:
 741              	.L91:
ARM GAS  /tmp/ccRbSNsM.s 			page 14


 742              	.LBE89:
 743              	.LBE101:
 744              		.loc 1 153 0
 745 0080 2046     		mov	r0, r4
 746 0082 F8BD     		pop	{r3, r4, r5, r6, r7, pc}
 747              	.LVL85:
 748              	.L101:
 749              		.loc 1 132 0
 750 0084 C024     		movs	r4, #192
 751              	.LVL86:
 752              		.loc 1 153 0
 753 0086 2046     		mov	r0, r4
 754 0088 F8BD     		pop	{r3, r4, r5, r6, r7, pc}
 755              	.LVL87:
 756              	.L99:
 757              	.LBB102:
 758              		.loc 1 141 0
 759 008a A024     		movs	r4, #160
 760              	.LVL88:
 761              	.LBE102:
 762              		.loc 1 153 0
 763 008c 2046     		mov	r0, r4
 764 008e F8BD     		pop	{r3, r4, r5, r6, r7, pc}
 765              		.cfi_endproc
 766              	.LFE43:
 767              		.size	lbm_env_build_params_args, .-lbm_env_build_params_args
 768              		.global	env_global
 769              		.section	.bss.env_global,"aw",%nobits
 770              		.align	2
 771              		.set	.LANCHOR0,. + 0
 772              		.type	env_global, %object
 773              		.size	env_global, 4
 774              	env_global:
 775 0000 00000000 		.space	4
 776              		.text
 777              	.Letext0:
 778              		.file 3 "/usr/arm-none-eabi/include/machine/_default_types.h"
 779              		.file 4 "/usr/arm-none-eabi/include/sys/_stdint.h"
 780              		.file 5 "lispBM/lispBM/include/lbm_types.h"
 781              		.file 6 "/usr/arm-none-eabi/include/sys/lock.h"
 782              		.file 7 "/usr/arm-none-eabi/include/sys/_types.h"
 783              		.file 8 "/usr/lib/gcc/arm-none-eabi/7.3.1/include/stddef.h"
 784              		.file 9 "/usr/arm-none-eabi/include/sys/reent.h"
 785              		.section	.debug_info,"",%progbits
 786              	.Ldebug_info0:
 787 0000 FA0E0000 		.4byte	0xefa
 788 0004 0400     		.2byte	0x4
 789 0006 00000000 		.4byte	.Ldebug_abbrev0
 790 000a 04       		.byte	0x4
 791 000b 01       		.uleb128 0x1
 792 000c 33000000 		.4byte	.LASF153
 793 0010 0C       		.byte	0xc
 794 0011 F4030000 		.4byte	.LASF154
 795 0015 0C000000 		.4byte	.LASF155
 796 0019 E8000000 		.4byte	.Ldebug_ranges0+0xe8
 797 001d 00000000 		.4byte	0
 798 0021 00000000 		.4byte	.Ldebug_line0
ARM GAS  /tmp/ccRbSNsM.s 			page 15


 799 0025 02       		.uleb128 0x2
 800 0026 01       		.byte	0x1
 801 0027 06       		.byte	0x6
 802 0028 DD010000 		.4byte	.LASF0
 803 002c 02       		.uleb128 0x2
 804 002d 01       		.byte	0x1
 805 002e 08       		.byte	0x8
 806 002f 93040000 		.4byte	.LASF1
 807 0033 02       		.uleb128 0x2
 808 0034 02       		.byte	0x2
 809 0035 05       		.byte	0x5
 810 0036 B4040000 		.4byte	.LASF2
 811 003a 02       		.uleb128 0x2
 812 003b 02       		.byte	0x2
 813 003c 07       		.byte	0x7
 814 003d 61030000 		.4byte	.LASF3
 815 0041 02       		.uleb128 0x2
 816 0042 04       		.byte	0x4
 817 0043 05       		.byte	0x5
 818 0044 3B020000 		.4byte	.LASF4
 819 0048 03       		.uleb128 0x3
 820 0049 B7020000 		.4byte	.LASF9
 821 004d 03       		.byte	0x3
 822 004e 4F       		.byte	0x4f
 823 004f 53000000 		.4byte	0x53
 824 0053 02       		.uleb128 0x2
 825 0054 04       		.byte	0x4
 826 0055 07       		.byte	0x7
 827 0056 36030000 		.4byte	.LASF5
 828 005a 02       		.uleb128 0x2
 829 005b 08       		.byte	0x8
 830 005c 05       		.byte	0x5
 831 005d CF010000 		.4byte	.LASF6
 832 0061 02       		.uleb128 0x2
 833 0062 08       		.byte	0x8
 834 0063 07       		.byte	0x7
 835 0064 77010000 		.4byte	.LASF7
 836 0068 04       		.uleb128 0x4
 837 0069 04       		.byte	0x4
 838 006a 05       		.byte	0x5
 839 006b 696E7400 		.ascii	"int\000"
 840 006f 02       		.uleb128 0x2
 841 0070 04       		.byte	0x4
 842 0071 07       		.byte	0x7
 843 0072 12030000 		.4byte	.LASF8
 844 0076 03       		.uleb128 0x3
 845 0077 B1050000 		.4byte	.LASF10
 846 007b 04       		.byte	0x4
 847 007c 30       		.byte	0x30
 848 007d 48000000 		.4byte	0x48
 849 0081 05       		.uleb128 0x5
 850 0082 04       		.byte	0x4
 851 0083 87000000 		.4byte	0x87
 852 0087 06       		.uleb128 0x6
 853 0088 97010000 		.4byte	.LASF18
 854 008c 03       		.uleb128 0x3
 855 008d DC030000 		.4byte	.LASF11
ARM GAS  /tmp/ccRbSNsM.s 			page 16


 856 0091 05       		.byte	0x5
 857 0092 1E       		.byte	0x1e
 858 0093 76000000 		.4byte	0x76
 859 0097 03       		.uleb128 0x3
 860 0098 E9010000 		.4byte	.LASF12
 861 009c 05       		.byte	0x5
 862 009d 20       		.byte	0x20
 863 009e 76000000 		.4byte	0x76
 864 00a2 03       		.uleb128 0x3
 865 00a3 2A050000 		.4byte	.LASF13
 866 00a7 05       		.byte	0x5
 867 00a8 22       		.byte	0x22
 868 00a9 76000000 		.4byte	0x76
 869 00ad 02       		.uleb128 0x2
 870 00ae 04       		.byte	0x4
 871 00af 04       		.byte	0x4
 872 00b0 67040000 		.4byte	.LASF14
 873 00b4 07       		.uleb128 0x7
 874 00b5 04       		.byte	0x4
 875 00b6 02       		.uleb128 0x2
 876 00b7 01       		.byte	0x1
 877 00b8 02       		.byte	0x2
 878 00b9 8D040000 		.4byte	.LASF15
 879 00bd 02       		.uleb128 0x2
 880 00be 01       		.byte	0x1
 881 00bf 08       		.byte	0x8
 882 00c0 DB050000 		.4byte	.LASF16
 883 00c4 08       		.uleb128 0x8
 884 00c5 BD000000 		.4byte	0xbd
 885 00c9 03       		.uleb128 0x3
 886 00ca AA030000 		.4byte	.LASF17
 887 00ce 06       		.byte	0x6
 888 00cf 22       		.byte	0x22
 889 00d0 D4000000 		.4byte	0xd4
 890 00d4 05       		.uleb128 0x5
 891 00d5 04       		.byte	0x4
 892 00d6 DA000000 		.4byte	0xda
 893 00da 06       		.uleb128 0x6
 894 00db AA050000 		.4byte	.LASF19
 895 00df 03       		.uleb128 0x3
 896 00e0 57040000 		.4byte	.LASF20
 897 00e4 07       		.byte	0x7
 898 00e5 2C       		.byte	0x2c
 899 00e6 41000000 		.4byte	0x41
 900 00ea 03       		.uleb128 0x3
 901 00eb CC050000 		.4byte	.LASF21
 902 00ef 07       		.byte	0x7
 903 00f0 72       		.byte	0x72
 904 00f1 41000000 		.4byte	0x41
 905 00f5 09       		.uleb128 0x9
 906 00f6 D5030000 		.4byte	.LASF22
 907 00fa 08       		.byte	0x8
 908 00fb 6501     		.2byte	0x165
 909 00fd 6F000000 		.4byte	0x6f
 910 0101 0A       		.uleb128 0xa
 911 0102 04       		.byte	0x4
 912 0103 07       		.byte	0x7
ARM GAS  /tmp/ccRbSNsM.s 			page 17


 913 0104 A6       		.byte	0xa6
 914 0105 20010000 		.4byte	0x120
 915 0109 0B       		.uleb128 0xb
 916 010a A4030000 		.4byte	.LASF23
 917 010e 07       		.byte	0x7
 918 010f A8       		.byte	0xa8
 919 0110 F5000000 		.4byte	0xf5
 920 0114 0B       		.uleb128 0xb
 921 0115 1F030000 		.4byte	.LASF24
 922 0119 07       		.byte	0x7
 923 011a A9       		.byte	0xa9
 924 011b 20010000 		.4byte	0x120
 925 011f 00       		.byte	0
 926 0120 0C       		.uleb128 0xc
 927 0121 2C000000 		.4byte	0x2c
 928 0125 30010000 		.4byte	0x130
 929 0129 0D       		.uleb128 0xd
 930 012a 6F000000 		.4byte	0x6f
 931 012e 03       		.byte	0x3
 932 012f 00       		.byte	0
 933 0130 0E       		.uleb128 0xe
 934 0131 08       		.byte	0x8
 935 0132 07       		.byte	0x7
 936 0133 A3       		.byte	0xa3
 937 0134 51010000 		.4byte	0x151
 938 0138 0F       		.uleb128 0xf
 939 0139 A2050000 		.4byte	.LASF25
 940 013d 07       		.byte	0x7
 941 013e A5       		.byte	0xa5
 942 013f 68000000 		.4byte	0x68
 943 0143 00       		.byte	0
 944 0144 0F       		.uleb128 0xf
 945 0145 09060000 		.4byte	.LASF26
 946 0149 07       		.byte	0x7
 947 014a AA       		.byte	0xaa
 948 014b 01010000 		.4byte	0x101
 949 014f 04       		.byte	0x4
 950 0150 00       		.byte	0
 951 0151 03       		.uleb128 0x3
 952 0152 EB040000 		.4byte	.LASF27
 953 0156 07       		.byte	0x7
 954 0157 AB       		.byte	0xab
 955 0158 30010000 		.4byte	0x130
 956 015c 03       		.uleb128 0x3
 957 015d C8020000 		.4byte	.LASF28
 958 0161 07       		.byte	0x7
 959 0162 AF       		.byte	0xaf
 960 0163 C9000000 		.4byte	0xc9
 961 0167 03       		.uleb128 0x3
 962 0168 1F060000 		.4byte	.LASF29
 963 016c 09       		.byte	0x9
 964 016d 16       		.byte	0x16
 965 016e 53000000 		.4byte	0x53
 966 0172 10       		.uleb128 0x10
 967 0173 D9020000 		.4byte	.LASF34
 968 0177 18       		.byte	0x18
 969 0178 09       		.byte	0x9
ARM GAS  /tmp/ccRbSNsM.s 			page 18


 970 0179 2F       		.byte	0x2f
 971 017a C5010000 		.4byte	0x1c5
 972 017e 0F       		.uleb128 0xf
 973 017f F6050000 		.4byte	.LASF30
 974 0183 09       		.byte	0x9
 975 0184 31       		.byte	0x31
 976 0185 C5010000 		.4byte	0x1c5
 977 0189 00       		.byte	0
 978 018a 11       		.uleb128 0x11
 979 018b 5F6B00   		.ascii	"_k\000"
 980 018e 09       		.byte	0x9
 981 018f 32       		.byte	0x32
 982 0190 68000000 		.4byte	0x68
 983 0194 04       		.byte	0x4
 984 0195 0F       		.uleb128 0xf
 985 0196 75050000 		.4byte	.LASF31
 986 019a 09       		.byte	0x9
 987 019b 32       		.byte	0x32
 988 019c 68000000 		.4byte	0x68
 989 01a0 08       		.byte	0x8
 990 01a1 0F       		.uleb128 0xf
 991 01a2 C2020000 		.4byte	.LASF32
 992 01a6 09       		.byte	0x9
 993 01a7 32       		.byte	0x32
 994 01a8 68000000 		.4byte	0x68
 995 01ac 0C       		.byte	0xc
 996 01ad 0F       		.uleb128 0xf
 997 01ae 75060000 		.4byte	.LASF33
 998 01b2 09       		.byte	0x9
 999 01b3 32       		.byte	0x32
 1000 01b4 68000000 		.4byte	0x68
 1001 01b8 10       		.byte	0x10
 1002 01b9 11       		.uleb128 0x11
 1003 01ba 5F7800   		.ascii	"_x\000"
 1004 01bd 09       		.byte	0x9
 1005 01be 33       		.byte	0x33
 1006 01bf CB010000 		.4byte	0x1cb
 1007 01c3 14       		.byte	0x14
 1008 01c4 00       		.byte	0
 1009 01c5 05       		.uleb128 0x5
 1010 01c6 04       		.byte	0x4
 1011 01c7 72010000 		.4byte	0x172
 1012 01cb 0C       		.uleb128 0xc
 1013 01cc 67010000 		.4byte	0x167
 1014 01d0 DB010000 		.4byte	0x1db
 1015 01d4 0D       		.uleb128 0xd
 1016 01d5 6F000000 		.4byte	0x6f
 1017 01d9 00       		.byte	0
 1018 01da 00       		.byte	0
 1019 01db 10       		.uleb128 0x10
 1020 01dc 05030000 		.4byte	.LASF35
 1021 01e0 24       		.byte	0x24
 1022 01e1 09       		.byte	0x9
 1023 01e2 37       		.byte	0x37
 1024 01e3 54020000 		.4byte	0x254
 1025 01e7 0F       		.uleb128 0xf
 1026 01e8 B1010000 		.4byte	.LASF36
ARM GAS  /tmp/ccRbSNsM.s 			page 19


 1027 01ec 09       		.byte	0x9
 1028 01ed 39       		.byte	0x39
 1029 01ee 68000000 		.4byte	0x68
 1030 01f2 00       		.byte	0
 1031 01f3 0F       		.uleb128 0xf
 1032 01f4 E0050000 		.4byte	.LASF37
 1033 01f8 09       		.byte	0x9
 1034 01f9 3A       		.byte	0x3a
 1035 01fa 68000000 		.4byte	0x68
 1036 01fe 04       		.byte	0x4
 1037 01ff 0F       		.uleb128 0xf
 1038 0200 0E020000 		.4byte	.LASF38
 1039 0204 09       		.byte	0x9
 1040 0205 3B       		.byte	0x3b
 1041 0206 68000000 		.4byte	0x68
 1042 020a 08       		.byte	0x8
 1043 020b 0F       		.uleb128 0xf
 1044 020c 06070000 		.4byte	.LASF39
 1045 0210 09       		.byte	0x9
 1046 0211 3C       		.byte	0x3c
 1047 0212 68000000 		.4byte	0x68
 1048 0216 0C       		.byte	0xc
 1049 0217 0F       		.uleb128 0xf
 1050 0218 3B040000 		.4byte	.LASF40
 1051 021c 09       		.byte	0x9
 1052 021d 3D       		.byte	0x3d
 1053 021e 68000000 		.4byte	0x68
 1054 0222 10       		.byte	0x10
 1055 0223 0F       		.uleb128 0xf
 1056 0224 13040000 		.4byte	.LASF41
 1057 0228 09       		.byte	0x9
 1058 0229 3E       		.byte	0x3e
 1059 022a 68000000 		.4byte	0x68
 1060 022e 14       		.byte	0x14
 1061 022f 0F       		.uleb128 0xf
 1062 0230 7A060000 		.4byte	.LASF42
 1063 0234 09       		.byte	0x9
 1064 0235 3F       		.byte	0x3f
 1065 0236 68000000 		.4byte	0x68
 1066 023a 18       		.byte	0x18
 1067 023b 0F       		.uleb128 0xf
 1068 023c BE040000 		.4byte	.LASF43
 1069 0240 09       		.byte	0x9
 1070 0241 40       		.byte	0x40
 1071 0242 68000000 		.4byte	0x68
 1072 0246 1C       		.byte	0x1c
 1073 0247 0F       		.uleb128 0xf
 1074 0248 C2060000 		.4byte	.LASF44
 1075 024c 09       		.byte	0x9
 1076 024d 41       		.byte	0x41
 1077 024e 68000000 		.4byte	0x68
 1078 0252 20       		.byte	0x20
 1079 0253 00       		.byte	0
 1080 0254 12       		.uleb128 0x12
 1081 0255 1D020000 		.4byte	.LASF45
 1082 0259 0801     		.2byte	0x108
 1083 025b 09       		.byte	0x9
ARM GAS  /tmp/ccRbSNsM.s 			page 20


 1084 025c 4A       		.byte	0x4a
 1085 025d 94020000 		.4byte	0x294
 1086 0261 0F       		.uleb128 0xf
 1087 0262 99020000 		.4byte	.LASF46
 1088 0266 09       		.byte	0x9
 1089 0267 4B       		.byte	0x4b
 1090 0268 94020000 		.4byte	0x294
 1091 026c 00       		.byte	0
 1092 026d 0F       		.uleb128 0xf
 1093 026e 00000000 		.4byte	.LASF47
 1094 0272 09       		.byte	0x9
 1095 0273 4C       		.byte	0x4c
 1096 0274 94020000 		.4byte	0x294
 1097 0278 80       		.byte	0x80
 1098 0279 13       		.uleb128 0x13
 1099 027a 11060000 		.4byte	.LASF48
 1100 027e 09       		.byte	0x9
 1101 027f 4E       		.byte	0x4e
 1102 0280 67010000 		.4byte	0x167
 1103 0284 0001     		.2byte	0x100
 1104 0286 13       		.uleb128 0x13
 1105 0287 4B020000 		.4byte	.LASF49
 1106 028b 09       		.byte	0x9
 1107 028c 51       		.byte	0x51
 1108 028d 67010000 		.4byte	0x167
 1109 0291 0401     		.2byte	0x104
 1110 0293 00       		.byte	0
 1111 0294 0C       		.uleb128 0xc
 1112 0295 B4000000 		.4byte	0xb4
 1113 0299 A4020000 		.4byte	0x2a4
 1114 029d 0D       		.uleb128 0xd
 1115 029e 6F000000 		.4byte	0x6f
 1116 02a2 1F       		.byte	0x1f
 1117 02a3 00       		.byte	0
 1118 02a4 12       		.uleb128 0x12
 1119 02a5 44040000 		.4byte	.LASF50
 1120 02a9 9001     		.2byte	0x190
 1121 02ab 09       		.byte	0x9
 1122 02ac 5D       		.byte	0x5d
 1123 02ad E2020000 		.4byte	0x2e2
 1124 02b1 0F       		.uleb128 0xf
 1125 02b2 F6050000 		.4byte	.LASF30
 1126 02b6 09       		.byte	0x9
 1127 02b7 5E       		.byte	0x5e
 1128 02b8 E2020000 		.4byte	0x2e2
 1129 02bc 00       		.byte	0
 1130 02bd 0F       		.uleb128 0xf
 1131 02be 45050000 		.4byte	.LASF51
 1132 02c2 09       		.byte	0x9
 1133 02c3 5F       		.byte	0x5f
 1134 02c4 68000000 		.4byte	0x68
 1135 02c8 04       		.byte	0x4
 1136 02c9 0F       		.uleb128 0xf
 1137 02ca B2020000 		.4byte	.LASF52
 1138 02ce 09       		.byte	0x9
 1139 02cf 61       		.byte	0x61
 1140 02d0 E8020000 		.4byte	0x2e8
ARM GAS  /tmp/ccRbSNsM.s 			page 21


 1141 02d4 08       		.byte	0x8
 1142 02d5 0F       		.uleb128 0xf
 1143 02d6 1D020000 		.4byte	.LASF45
 1144 02da 09       		.byte	0x9
 1145 02db 62       		.byte	0x62
 1146 02dc 54020000 		.4byte	0x254
 1147 02e0 88       		.byte	0x88
 1148 02e1 00       		.byte	0
 1149 02e2 05       		.uleb128 0x5
 1150 02e3 04       		.byte	0x4
 1151 02e4 A4020000 		.4byte	0x2a4
 1152 02e8 0C       		.uleb128 0xc
 1153 02e9 F8020000 		.4byte	0x2f8
 1154 02ed F8020000 		.4byte	0x2f8
 1155 02f1 0D       		.uleb128 0xd
 1156 02f2 6F000000 		.4byte	0x6f
 1157 02f6 1F       		.byte	0x1f
 1158 02f7 00       		.byte	0
 1159 02f8 05       		.uleb128 0x5
 1160 02f9 04       		.byte	0x4
 1161 02fa FE020000 		.4byte	0x2fe
 1162 02fe 14       		.uleb128 0x14
 1163 02ff 10       		.uleb128 0x10
 1164 0300 C8040000 		.4byte	.LASF53
 1165 0304 08       		.byte	0x8
 1166 0305 09       		.byte	0x9
 1167 0306 75       		.byte	0x75
 1168 0307 24030000 		.4byte	0x324
 1169 030b 0F       		.uleb128 0xf
 1170 030c 08020000 		.4byte	.LASF54
 1171 0310 09       		.byte	0x9
 1172 0311 76       		.byte	0x76
 1173 0312 24030000 		.4byte	0x324
 1174 0316 00       		.byte	0
 1175 0317 0F       		.uleb128 0xf
 1176 0318 A1020000 		.4byte	.LASF55
 1177 031c 09       		.byte	0x9
 1178 031d 77       		.byte	0x77
 1179 031e 68000000 		.4byte	0x68
 1180 0322 04       		.byte	0x4
 1181 0323 00       		.byte	0
 1182 0324 05       		.uleb128 0x5
 1183 0325 04       		.byte	0x4
 1184 0326 2C000000 		.4byte	0x2c
 1185 032a 10       		.uleb128 0x10
 1186 032b 02050000 		.4byte	.LASF56
 1187 032f 68       		.byte	0x68
 1188 0330 09       		.byte	0x9
 1189 0331 B5       		.byte	0xb5
 1190 0332 54040000 		.4byte	0x454
 1191 0336 11       		.uleb128 0x11
 1192 0337 5F7000   		.ascii	"_p\000"
 1193 033a 09       		.byte	0x9
 1194 033b B6       		.byte	0xb6
 1195 033c 24030000 		.4byte	0x324
 1196 0340 00       		.byte	0
 1197 0341 11       		.uleb128 0x11
ARM GAS  /tmp/ccRbSNsM.s 			page 22


 1198 0342 5F7200   		.ascii	"_r\000"
 1199 0345 09       		.byte	0x9
 1200 0346 B7       		.byte	0xb7
 1201 0347 68000000 		.4byte	0x68
 1202 034b 04       		.byte	0x4
 1203 034c 11       		.uleb128 0x11
 1204 034d 5F7700   		.ascii	"_w\000"
 1205 0350 09       		.byte	0x9
 1206 0351 B8       		.byte	0xb8
 1207 0352 68000000 		.4byte	0x68
 1208 0356 08       		.byte	0x8
 1209 0357 0F       		.uleb128 0xf
 1210 0358 44020000 		.4byte	.LASF57
 1211 035c 09       		.byte	0x9
 1212 035d B9       		.byte	0xb9
 1213 035e 33000000 		.4byte	0x33
 1214 0362 0C       		.byte	0xc
 1215 0363 0F       		.uleb128 0xf
 1216 0364 48030000 		.4byte	.LASF58
 1217 0368 09       		.byte	0x9
 1218 0369 BA       		.byte	0xba
 1219 036a 33000000 		.4byte	0x33
 1220 036e 0E       		.byte	0xe
 1221 036f 11       		.uleb128 0x11
 1222 0370 5F626600 		.ascii	"_bf\000"
 1223 0374 09       		.byte	0x9
 1224 0375 BB       		.byte	0xbb
 1225 0376 FF020000 		.4byte	0x2ff
 1226 037a 10       		.byte	0x10
 1227 037b 0F       		.uleb128 0xf
 1228 037c 8E010000 		.4byte	.LASF59
 1229 0380 09       		.byte	0x9
 1230 0381 BC       		.byte	0xbc
 1231 0382 68000000 		.4byte	0x68
 1232 0386 18       		.byte	0x18
 1233 0387 0F       		.uleb128 0xf
 1234 0388 2B020000 		.4byte	.LASF60
 1235 038c 09       		.byte	0x9
 1236 038d C3       		.byte	0xc3
 1237 038e B4000000 		.4byte	0xb4
 1238 0392 1C       		.byte	0x1c
 1239 0393 0F       		.uleb128 0xf
 1240 0394 F5020000 		.4byte	.LASF61
 1241 0398 09       		.byte	0x9
 1242 0399 C5       		.byte	0xc5
 1243 039a B5050000 		.4byte	0x5b5
 1244 039e 20       		.byte	0x20
 1245 039f 0F       		.uleb128 0xf
 1246 03a0 0C040000 		.4byte	.LASF62
 1247 03a4 09       		.byte	0x9
 1248 03a5 C7       		.byte	0xc7
 1249 03a6 DF050000 		.4byte	0x5df
 1250 03aa 24       		.byte	0x24
 1251 03ab 0F       		.uleb128 0xf
 1252 03ac BA050000 		.4byte	.LASF63
 1253 03b0 09       		.byte	0x9
 1254 03b1 CA       		.byte	0xca
ARM GAS  /tmp/ccRbSNsM.s 			page 23


 1255 03b2 03060000 		.4byte	0x603
 1256 03b6 28       		.byte	0x28
 1257 03b7 0F       		.uleb128 0xf
 1258 03b8 DC060000 		.4byte	.LASF64
 1259 03bc 09       		.byte	0x9
 1260 03bd CB       		.byte	0xcb
 1261 03be 1D060000 		.4byte	0x61d
 1262 03c2 2C       		.byte	0x2c
 1263 03c3 11       		.uleb128 0x11
 1264 03c4 5F756200 		.ascii	"_ub\000"
 1265 03c8 09       		.byte	0x9
 1266 03c9 CE       		.byte	0xce
 1267 03ca FF020000 		.4byte	0x2ff
 1268 03ce 30       		.byte	0x30
 1269 03cf 11       		.uleb128 0x11
 1270 03d0 5F757000 		.ascii	"_up\000"
 1271 03d4 09       		.byte	0x9
 1272 03d5 CF       		.byte	0xcf
 1273 03d6 24030000 		.4byte	0x324
 1274 03da 38       		.byte	0x38
 1275 03db 11       		.uleb128 0x11
 1276 03dc 5F757200 		.ascii	"_ur\000"
 1277 03e0 09       		.byte	0x9
 1278 03e1 D0       		.byte	0xd0
 1279 03e2 68000000 		.4byte	0x68
 1280 03e6 3C       		.byte	0x3c
 1281 03e7 0F       		.uleb128 0xf
 1282 03e8 F2010000 		.4byte	.LASF65
 1283 03ec 09       		.byte	0x9
 1284 03ed D3       		.byte	0xd3
 1285 03ee 23060000 		.4byte	0x623
 1286 03f2 40       		.byte	0x40
 1287 03f3 0F       		.uleb128 0xf
 1288 03f4 B4060000 		.4byte	.LASF66
 1289 03f8 09       		.byte	0x9
 1290 03f9 D4       		.byte	0xd4
 1291 03fa 33060000 		.4byte	0x633
 1292 03fe 43       		.byte	0x43
 1293 03ff 11       		.uleb128 0x11
 1294 0400 5F6C6200 		.ascii	"_lb\000"
 1295 0404 09       		.byte	0x9
 1296 0405 D7       		.byte	0xd7
 1297 0406 FF020000 		.4byte	0x2ff
 1298 040a 44       		.byte	0x44
 1299 040b 0F       		.uleb128 0xf
 1300 040c 5A020000 		.4byte	.LASF67
 1301 0410 09       		.byte	0x9
 1302 0411 DA       		.byte	0xda
 1303 0412 68000000 		.4byte	0x68
 1304 0416 4C       		.byte	0x4c
 1305 0417 0F       		.uleb128 0xf
 1306 0418 72020000 		.4byte	.LASF68
 1307 041c 09       		.byte	0x9
 1308 041d DB       		.byte	0xdb
 1309 041e DF000000 		.4byte	0xdf
 1310 0422 50       		.byte	0x50
 1311 0423 0F       		.uleb128 0xf
ARM GAS  /tmp/ccRbSNsM.s 			page 24


 1312 0424 25000000 		.4byte	.LASF69
 1313 0428 09       		.byte	0x9
 1314 0429 DE       		.byte	0xde
 1315 042a 72040000 		.4byte	0x472
 1316 042e 54       		.byte	0x54
 1317 042f 0F       		.uleb128 0xf
 1318 0430 E6030000 		.4byte	.LASF70
 1319 0434 09       		.byte	0x9
 1320 0435 E2       		.byte	0xe2
 1321 0436 5C010000 		.4byte	0x15c
 1322 043a 58       		.byte	0x58
 1323 043b 0F       		.uleb128 0xf
 1324 043c 16050000 		.4byte	.LASF71
 1325 0440 09       		.byte	0x9
 1326 0441 E4       		.byte	0xe4
 1327 0442 51010000 		.4byte	0x151
 1328 0446 5C       		.byte	0x5c
 1329 0447 0F       		.uleb128 0xf
 1330 0448 EC030000 		.4byte	.LASF72
 1331 044c 09       		.byte	0x9
 1332 044d E5       		.byte	0xe5
 1333 044e 68000000 		.4byte	0x68
 1334 0452 64       		.byte	0x64
 1335 0453 00       		.byte	0
 1336 0454 15       		.uleb128 0x15
 1337 0455 68000000 		.4byte	0x68
 1338 0459 72040000 		.4byte	0x472
 1339 045d 16       		.uleb128 0x16
 1340 045e 72040000 		.4byte	0x472
 1341 0462 16       		.uleb128 0x16
 1342 0463 B4000000 		.4byte	0xb4
 1343 0467 16       		.uleb128 0x16
 1344 0468 AF050000 		.4byte	0x5af
 1345 046c 16       		.uleb128 0x16
 1346 046d 68000000 		.4byte	0x68
 1347 0471 00       		.byte	0
 1348 0472 05       		.uleb128 0x5
 1349 0473 04       		.byte	0x4
 1350 0474 7D040000 		.4byte	0x47d
 1351 0478 08       		.uleb128 0x8
 1352 0479 72040000 		.4byte	0x472
 1353 047d 17       		.uleb128 0x17
 1354 047e 7D050000 		.4byte	.LASF73
 1355 0482 2804     		.2byte	0x428
 1356 0484 09       		.byte	0x9
 1357 0485 6002     		.2byte	0x260
 1358 0487 AF050000 		.4byte	0x5af
 1359 048b 18       		.uleb128 0x18
 1360 048c D4050000 		.4byte	.LASF74
 1361 0490 09       		.byte	0x9
 1362 0491 6202     		.2byte	0x262
 1363 0493 68000000 		.4byte	0x68
 1364 0497 00       		.byte	0
 1365 0498 18       		.uleb128 0x18
 1366 0499 53020000 		.4byte	.LASF75
 1367 049d 09       		.byte	0x9
 1368 049e 6702     		.2byte	0x267
ARM GAS  /tmp/ccRbSNsM.s 			page 25


 1369 04a0 8A060000 		.4byte	0x68a
 1370 04a4 04       		.byte	0x4
 1371 04a5 18       		.uleb128 0x18
 1372 04a6 26030000 		.4byte	.LASF76
 1373 04aa 09       		.byte	0x9
 1374 04ab 6702     		.2byte	0x267
 1375 04ad 8A060000 		.4byte	0x68a
 1376 04b1 08       		.byte	0x8
 1377 04b2 18       		.uleb128 0x18
 1378 04b3 D1020000 		.4byte	.LASF77
 1379 04b7 09       		.byte	0x9
 1380 04b8 6702     		.2byte	0x267
 1381 04ba 8A060000 		.4byte	0x68a
 1382 04be 0C       		.byte	0xc
 1383 04bf 18       		.uleb128 0x18
 1384 04c0 40050000 		.4byte	.LASF78
 1385 04c4 09       		.byte	0x9
 1386 04c5 6902     		.2byte	0x269
 1387 04c7 68000000 		.4byte	0x68
 1388 04cb 10       		.byte	0x10
 1389 04cc 18       		.uleb128 0x18
 1390 04cd 1A000000 		.4byte	.LASF79
 1391 04d1 09       		.byte	0x9
 1392 04d2 6A02     		.2byte	0x26a
 1393 04d4 6C080000 		.4byte	0x86c
 1394 04d8 14       		.byte	0x14
 1395 04d9 18       		.uleb128 0x18
 1396 04da 5C050000 		.4byte	.LASF80
 1397 04de 09       		.byte	0x9
 1398 04df 6D02     		.2byte	0x26d
 1399 04e1 68000000 		.4byte	0x68
 1400 04e5 30       		.byte	0x30
 1401 04e6 18       		.uleb128 0x18
 1402 04e7 4A050000 		.4byte	.LASF81
 1403 04eb 09       		.byte	0x9
 1404 04ec 6E02     		.2byte	0x26e
 1405 04ee 81000000 		.4byte	0x81
 1406 04f2 34       		.byte	0x34
 1407 04f3 18       		.uleb128 0x18
 1408 04f4 4C040000 		.4byte	.LASF82
 1409 04f8 09       		.byte	0x9
 1410 04f9 7002     		.2byte	0x270
 1411 04fb 68000000 		.4byte	0x68
 1412 04ff 38       		.byte	0x38
 1413 0500 18       		.uleb128 0x18
 1414 0501 52050000 		.4byte	.LASF83
 1415 0505 09       		.byte	0x9
 1416 0506 7202     		.2byte	0x272
 1417 0508 87080000 		.4byte	0x887
 1418 050c 3C       		.byte	0x3c
 1419 050d 18       		.uleb128 0x18
 1420 050e 9C030000 		.4byte	.LASF84
 1421 0512 09       		.byte	0x9
 1422 0513 7502     		.2byte	0x275
 1423 0515 C5010000 		.4byte	0x1c5
 1424 0519 40       		.byte	0x40
 1425 051a 18       		.uleb128 0x18
ARM GAS  /tmp/ccRbSNsM.s 			page 26


 1426 051b FB020000 		.4byte	.LASF85
 1427 051f 09       		.byte	0x9
 1428 0520 7602     		.2byte	0x276
 1429 0522 68000000 		.4byte	0x68
 1430 0526 44       		.byte	0x44
 1431 0527 18       		.uleb128 0x18
 1432 0528 01070000 		.4byte	.LASF86
 1433 052c 09       		.byte	0x9
 1434 052d 7702     		.2byte	0x277
 1435 052f C5010000 		.4byte	0x1c5
 1436 0533 48       		.byte	0x48
 1437 0534 18       		.uleb128 0x18
 1438 0535 6D040000 		.4byte	.LASF87
 1439 0539 09       		.byte	0x9
 1440 053a 7802     		.2byte	0x278
 1441 053c 8D080000 		.4byte	0x88d
 1442 0540 4C       		.byte	0x4c
 1443 0541 18       		.uleb128 0x18
 1444 0542 2E030000 		.4byte	.LASF88
 1445 0546 09       		.byte	0x9
 1446 0547 7B02     		.2byte	0x27b
 1447 0549 68000000 		.4byte	0x68
 1448 054d 50       		.byte	0x50
 1449 054e 18       		.uleb128 0x18
 1450 054f 6A020000 		.4byte	.LASF89
 1451 0553 09       		.byte	0x9
 1452 0554 7C02     		.2byte	0x27c
 1453 0556 AF050000 		.4byte	0x5af
 1454 055a 54       		.byte	0x54
 1455 055b 18       		.uleb128 0x18
 1456 055c A6040000 		.4byte	.LASF90
 1457 0560 09       		.byte	0x9
 1458 0561 9F02     		.2byte	0x29f
 1459 0563 4A080000 		.4byte	0x84a
 1460 0567 58       		.byte	0x58
 1461 0568 19       		.uleb128 0x19
 1462 0569 44040000 		.4byte	.LASF50
 1463 056d 09       		.byte	0x9
 1464 056e A302     		.2byte	0x2a3
 1465 0570 E2020000 		.4byte	0x2e2
 1466 0574 4801     		.2byte	0x148
 1467 0576 19       		.uleb128 0x19
 1468 0577 74030000 		.4byte	.LASF91
 1469 057b 09       		.byte	0x9
 1470 057c A402     		.2byte	0x2a4
 1471 057e A4020000 		.4byte	0x2a4
 1472 0582 4C01     		.2byte	0x14c
 1473 0584 19       		.uleb128 0x19
 1474 0585 9D060000 		.4byte	.LASF92
 1475 0589 09       		.byte	0x9
 1476 058a A802     		.2byte	0x2a8
 1477 058c 9E080000 		.4byte	0x89e
 1478 0590 DC02     		.2byte	0x2dc
 1479 0592 19       		.uleb128 0x19
 1480 0593 33020000 		.4byte	.LASF93
 1481 0597 09       		.byte	0x9
 1482 0598 AD02     		.2byte	0x2ad
ARM GAS  /tmp/ccRbSNsM.s 			page 27


 1483 059a 4F060000 		.4byte	0x64f
 1484 059e E002     		.2byte	0x2e0
 1485 05a0 19       		.uleb128 0x19
 1486 05a1 18020000 		.4byte	.LASF94
 1487 05a5 09       		.byte	0x9
 1488 05a6 AF02     		.2byte	0x2af
 1489 05a8 AA080000 		.4byte	0x8aa
 1490 05ac EC02     		.2byte	0x2ec
 1491 05ae 00       		.byte	0
 1492 05af 05       		.uleb128 0x5
 1493 05b0 04       		.byte	0x4
 1494 05b1 BD000000 		.4byte	0xbd
 1495 05b5 05       		.uleb128 0x5
 1496 05b6 04       		.byte	0x4
 1497 05b7 54040000 		.4byte	0x454
 1498 05bb 15       		.uleb128 0x15
 1499 05bc 68000000 		.4byte	0x68
 1500 05c0 D9050000 		.4byte	0x5d9
 1501 05c4 16       		.uleb128 0x16
 1502 05c5 72040000 		.4byte	0x472
 1503 05c9 16       		.uleb128 0x16
 1504 05ca B4000000 		.4byte	0xb4
 1505 05ce 16       		.uleb128 0x16
 1506 05cf D9050000 		.4byte	0x5d9
 1507 05d3 16       		.uleb128 0x16
 1508 05d4 68000000 		.4byte	0x68
 1509 05d8 00       		.byte	0
 1510 05d9 05       		.uleb128 0x5
 1511 05da 04       		.byte	0x4
 1512 05db C4000000 		.4byte	0xc4
 1513 05df 05       		.uleb128 0x5
 1514 05e0 04       		.byte	0x4
 1515 05e1 BB050000 		.4byte	0x5bb
 1516 05e5 15       		.uleb128 0x15
 1517 05e6 EA000000 		.4byte	0xea
 1518 05ea 03060000 		.4byte	0x603
 1519 05ee 16       		.uleb128 0x16
 1520 05ef 72040000 		.4byte	0x472
 1521 05f3 16       		.uleb128 0x16
 1522 05f4 B4000000 		.4byte	0xb4
 1523 05f8 16       		.uleb128 0x16
 1524 05f9 EA000000 		.4byte	0xea
 1525 05fd 16       		.uleb128 0x16
 1526 05fe 68000000 		.4byte	0x68
 1527 0602 00       		.byte	0
 1528 0603 05       		.uleb128 0x5
 1529 0604 04       		.byte	0x4
 1530 0605 E5050000 		.4byte	0x5e5
 1531 0609 15       		.uleb128 0x15
 1532 060a 68000000 		.4byte	0x68
 1533 060e 1D060000 		.4byte	0x61d
 1534 0612 16       		.uleb128 0x16
 1535 0613 72040000 		.4byte	0x472
 1536 0617 16       		.uleb128 0x16
 1537 0618 B4000000 		.4byte	0xb4
 1538 061c 00       		.byte	0
 1539 061d 05       		.uleb128 0x5
ARM GAS  /tmp/ccRbSNsM.s 			page 28


 1540 061e 04       		.byte	0x4
 1541 061f 09060000 		.4byte	0x609
 1542 0623 0C       		.uleb128 0xc
 1543 0624 2C000000 		.4byte	0x2c
 1544 0628 33060000 		.4byte	0x633
 1545 062c 0D       		.uleb128 0xd
 1546 062d 6F000000 		.4byte	0x6f
 1547 0631 02       		.byte	0x2
 1548 0632 00       		.byte	0
 1549 0633 0C       		.uleb128 0xc
 1550 0634 2C000000 		.4byte	0x2c
 1551 0638 43060000 		.4byte	0x643
 1552 063c 0D       		.uleb128 0xd
 1553 063d 6F000000 		.4byte	0x6f
 1554 0641 00       		.byte	0
 1555 0642 00       		.byte	0
 1556 0643 09       		.uleb128 0x9
 1557 0644 E4040000 		.4byte	.LASF95
 1558 0648 09       		.byte	0x9
 1559 0649 1F01     		.2byte	0x11f
 1560 064b 2A030000 		.4byte	0x32a
 1561 064f 1A       		.uleb128 0x1a
 1562 0650 84060000 		.4byte	.LASF96
 1563 0654 0C       		.byte	0xc
 1564 0655 09       		.byte	0x9
 1565 0656 2301     		.2byte	0x123
 1566 0658 84060000 		.4byte	0x684
 1567 065c 18       		.uleb128 0x18
 1568 065d F6050000 		.4byte	.LASF30
 1569 0661 09       		.byte	0x9
 1570 0662 2501     		.2byte	0x125
 1571 0664 84060000 		.4byte	0x684
 1572 0668 00       		.byte	0
 1573 0669 18       		.uleb128 0x18
 1574 066a 5A030000 		.4byte	.LASF97
 1575 066e 09       		.byte	0x9
 1576 066f 2601     		.2byte	0x126
 1577 0671 68000000 		.4byte	0x68
 1578 0675 04       		.byte	0x4
 1579 0676 18       		.uleb128 0x18
 1580 0677 CF040000 		.4byte	.LASF98
 1581 067b 09       		.byte	0x9
 1582 067c 2701     		.2byte	0x127
 1583 067e 8A060000 		.4byte	0x68a
 1584 0682 08       		.byte	0x8
 1585 0683 00       		.byte	0
 1586 0684 05       		.uleb128 0x5
 1587 0685 04       		.byte	0x4
 1588 0686 4F060000 		.4byte	0x64f
 1589 068a 05       		.uleb128 0x5
 1590 068b 04       		.byte	0x4
 1591 068c 43060000 		.4byte	0x643
 1592 0690 1A       		.uleb128 0x1a
 1593 0691 12000000 		.4byte	.LASF99
 1594 0695 0E       		.byte	0xe
 1595 0696 09       		.byte	0x9
 1596 0697 3F01     		.2byte	0x13f
ARM GAS  /tmp/ccRbSNsM.s 			page 29


 1597 0699 C5060000 		.4byte	0x6c5
 1598 069d 18       		.uleb128 0x18
 1599 069e 90050000 		.4byte	.LASF100
 1600 06a2 09       		.byte	0x9
 1601 06a3 4001     		.2byte	0x140
 1602 06a5 C5060000 		.4byte	0x6c5
 1603 06a9 00       		.byte	0
 1604 06aa 18       		.uleb128 0x18
 1605 06ab F0050000 		.4byte	.LASF101
 1606 06af 09       		.byte	0x9
 1607 06b0 4101     		.2byte	0x141
 1608 06b2 C5060000 		.4byte	0x6c5
 1609 06b6 06       		.byte	0x6
 1610 06b7 18       		.uleb128 0x18
 1611 06b8 1A060000 		.4byte	.LASF102
 1612 06bc 09       		.byte	0x9
 1613 06bd 4201     		.2byte	0x142
 1614 06bf 3A000000 		.4byte	0x3a
 1615 06c3 0C       		.byte	0xc
 1616 06c4 00       		.byte	0
 1617 06c5 0C       		.uleb128 0xc
 1618 06c6 3A000000 		.4byte	0x3a
 1619 06ca D5060000 		.4byte	0x6d5
 1620 06ce 0D       		.uleb128 0xd
 1621 06cf 6F000000 		.4byte	0x6f
 1622 06d3 02       		.byte	0x2
 1623 06d4 00       		.byte	0
 1624 06d5 1B       		.uleb128 0x1b
 1625 06d6 D0       		.byte	0xd0
 1626 06d7 09       		.byte	0x9
 1627 06d8 8002     		.2byte	0x280
 1628 06da D6070000 		.4byte	0x7d6
 1629 06de 18       		.uleb128 0x18
 1630 06df 5C060000 		.4byte	.LASF103
 1631 06e3 09       		.byte	0x9
 1632 06e4 8202     		.2byte	0x282
 1633 06e6 6F000000 		.4byte	0x6f
 1634 06ea 00       		.byte	0
 1635 06eb 18       		.uleb128 0x18
 1636 06ec FC050000 		.4byte	.LASF104
 1637 06f0 09       		.byte	0x9
 1638 06f1 8302     		.2byte	0x283
 1639 06f3 AF050000 		.4byte	0x5af
 1640 06f7 04       		.byte	0x4
 1641 06f8 18       		.uleb128 0x18
 1642 06f9 8F030000 		.4byte	.LASF105
 1643 06fd 09       		.byte	0x9
 1644 06fe 8402     		.2byte	0x284
 1645 0700 D6070000 		.4byte	0x7d6
 1646 0704 08       		.byte	0x8
 1647 0705 18       		.uleb128 0x18
 1648 0706 CD060000 		.4byte	.LASF106
 1649 070a 09       		.byte	0x9
 1650 070b 8502     		.2byte	0x285
 1651 070d DB010000 		.4byte	0x1db
 1652 0711 24       		.byte	0x24
 1653 0712 18       		.uleb128 0x18
ARM GAS  /tmp/ccRbSNsM.s 			page 30


 1654 0713 E1020000 		.4byte	.LASF107
 1655 0717 09       		.byte	0x9
 1656 0718 8602     		.2byte	0x286
 1657 071a 68000000 		.4byte	0x68
 1658 071e 48       		.byte	0x48
 1659 071f 18       		.uleb128 0x18
 1660 0720 1F050000 		.4byte	.LASF108
 1661 0724 09       		.byte	0x9
 1662 0725 8702     		.2byte	0x287
 1663 0727 61000000 		.4byte	0x61
 1664 072b 50       		.byte	0x50
 1665 072c 18       		.uleb128 0x18
 1666 072d E3060000 		.4byte	.LASF109
 1667 0731 09       		.byte	0x9
 1668 0732 8802     		.2byte	0x288
 1669 0734 90060000 		.4byte	0x690
 1670 0738 58       		.byte	0x58
 1671 0739 18       		.uleb128 0x18
 1672 073a 33050000 		.4byte	.LASF110
 1673 073e 09       		.byte	0x9
 1674 073f 8902     		.2byte	0x289
 1675 0741 51010000 		.4byte	0x151
 1676 0745 68       		.byte	0x68
 1677 0746 18       		.uleb128 0x18
 1678 0747 F3060000 		.4byte	.LASF111
 1679 074b 09       		.byte	0x9
 1680 074c 8A02     		.2byte	0x28a
 1681 074e 51010000 		.4byte	0x151
 1682 0752 70       		.byte	0x70
 1683 0753 18       		.uleb128 0x18
 1684 0754 77040000 		.4byte	.LASF112
 1685 0758 09       		.byte	0x9
 1686 0759 8B02     		.2byte	0x28b
 1687 075b 51010000 		.4byte	0x151
 1688 075f 78       		.byte	0x78
 1689 0760 18       		.uleb128 0x18
 1690 0761 93060000 		.4byte	.LASF113
 1691 0765 09       		.byte	0x9
 1692 0766 8C02     		.2byte	0x28c
 1693 0768 E6070000 		.4byte	0x7e6
 1694 076c 80       		.byte	0x80
 1695 076d 18       		.uleb128 0x18
 1696 076e 83030000 		.4byte	.LASF114
 1697 0772 09       		.byte	0x9
 1698 0773 8D02     		.2byte	0x28d
 1699 0775 F6070000 		.4byte	0x7f6
 1700 0779 88       		.byte	0x88
 1701 077a 18       		.uleb128 0x18
 1702 077b 27060000 		.4byte	.LASF115
 1703 077f 09       		.byte	0x9
 1704 0780 8E02     		.2byte	0x28e
 1705 0782 68000000 		.4byte	0x68
 1706 0786 A0       		.byte	0xa0
 1707 0787 18       		.uleb128 0x18
 1708 0788 8B020000 		.4byte	.LASF116
 1709 078c 09       		.byte	0x9
 1710 078d 8F02     		.2byte	0x28f
ARM GAS  /tmp/ccRbSNsM.s 			page 31


 1711 078f 51010000 		.4byte	0x151
 1712 0793 A4       		.byte	0xa4
 1713 0794 18       		.uleb128 0x18
 1714 0795 A2010000 		.4byte	.LASF117
 1715 0799 09       		.byte	0x9
 1716 079a 9002     		.2byte	0x290
 1717 079c 51010000 		.4byte	0x151
 1718 07a0 AC       		.byte	0xac
 1719 07a1 18       		.uleb128 0x18
 1720 07a2 7A020000 		.4byte	.LASF118
 1721 07a6 09       		.byte	0x9
 1722 07a7 9102     		.2byte	0x291
 1723 07a9 51010000 		.4byte	0x151
 1724 07ad B4       		.byte	0xb4
 1725 07ae 18       		.uleb128 0x18
 1726 07af 57010000 		.4byte	.LASF119
 1727 07b3 09       		.byte	0x9
 1728 07b4 9202     		.2byte	0x292
 1729 07b6 51010000 		.4byte	0x151
 1730 07ba BC       		.byte	0xbc
 1731 07bb 18       		.uleb128 0x18
 1732 07bc 66010000 		.4byte	.LASF120
 1733 07c0 09       		.byte	0x9
 1734 07c1 9302     		.2byte	0x293
 1735 07c3 51010000 		.4byte	0x151
 1736 07c7 C4       		.byte	0xc4
 1737 07c8 18       		.uleb128 0x18
 1738 07c9 AB040000 		.4byte	.LASF121
 1739 07cd 09       		.byte	0x9
 1740 07ce 9402     		.2byte	0x294
 1741 07d0 68000000 		.4byte	0x68
 1742 07d4 CC       		.byte	0xcc
 1743 07d5 00       		.byte	0
 1744 07d6 0C       		.uleb128 0xc
 1745 07d7 BD000000 		.4byte	0xbd
 1746 07db E6070000 		.4byte	0x7e6
 1747 07df 0D       		.uleb128 0xd
 1748 07e0 6F000000 		.4byte	0x6f
 1749 07e4 19       		.byte	0x19
 1750 07e5 00       		.byte	0
 1751 07e6 0C       		.uleb128 0xc
 1752 07e7 BD000000 		.4byte	0xbd
 1753 07eb F6070000 		.4byte	0x7f6
 1754 07ef 0D       		.uleb128 0xd
 1755 07f0 6F000000 		.4byte	0x6f
 1756 07f4 07       		.byte	0x7
 1757 07f5 00       		.byte	0
 1758 07f6 0C       		.uleb128 0xc
 1759 07f7 BD000000 		.4byte	0xbd
 1760 07fb 06080000 		.4byte	0x806
 1761 07ff 0D       		.uleb128 0xd
 1762 0800 6F000000 		.4byte	0x6f
 1763 0804 17       		.byte	0x17
 1764 0805 00       		.byte	0
 1765 0806 1B       		.uleb128 0x1b
 1766 0807 F0       		.byte	0xf0
 1767 0808 09       		.byte	0x9
ARM GAS  /tmp/ccRbSNsM.s 			page 32


 1768 0809 9902     		.2byte	0x299
 1769 080b 2A080000 		.4byte	0x82a
 1770 080f 18       		.uleb128 0x18
 1771 0810 34040000 		.4byte	.LASF122
 1772 0814 09       		.byte	0x9
 1773 0815 9C02     		.2byte	0x29c
 1774 0817 2A080000 		.4byte	0x82a
 1775 081b 00       		.byte	0
 1776 081c 18       		.uleb128 0x18
 1777 081d 8A060000 		.4byte	.LASF123
 1778 0821 09       		.byte	0x9
 1779 0822 9D02     		.2byte	0x29d
 1780 0824 3A080000 		.4byte	0x83a
 1781 0828 78       		.byte	0x78
 1782 0829 00       		.byte	0
 1783 082a 0C       		.uleb128 0xc
 1784 082b 24030000 		.4byte	0x324
 1785 082f 3A080000 		.4byte	0x83a
 1786 0833 0D       		.uleb128 0xd
 1787 0834 6F000000 		.4byte	0x6f
 1788 0838 1D       		.byte	0x1d
 1789 0839 00       		.byte	0
 1790 083a 0C       		.uleb128 0xc
 1791 083b 6F000000 		.4byte	0x6f
 1792 083f 4A080000 		.4byte	0x84a
 1793 0843 0D       		.uleb128 0xd
 1794 0844 6F000000 		.4byte	0x6f
 1795 0848 1D       		.byte	0x1d
 1796 0849 00       		.byte	0
 1797 084a 1C       		.uleb128 0x1c
 1798 084b F0       		.byte	0xf0
 1799 084c 09       		.byte	0x9
 1800 084d 7E02     		.2byte	0x27e
 1801 084f 6C080000 		.4byte	0x86c
 1802 0853 1D       		.uleb128 0x1d
 1803 0854 7D050000 		.4byte	.LASF73
 1804 0858 09       		.byte	0x9
 1805 0859 9502     		.2byte	0x295
 1806 085b D5060000 		.4byte	0x6d5
 1807 085f 1D       		.uleb128 0x1d
 1808 0860 BA060000 		.4byte	.LASF124
 1809 0864 09       		.byte	0x9
 1810 0865 9E02     		.2byte	0x29e
 1811 0867 06080000 		.4byte	0x806
 1812 086b 00       		.byte	0
 1813 086c 0C       		.uleb128 0xc
 1814 086d BD000000 		.4byte	0xbd
 1815 0871 7C080000 		.4byte	0x87c
 1816 0875 0D       		.uleb128 0xd
 1817 0876 6F000000 		.4byte	0x6f
 1818 087a 18       		.byte	0x18
 1819 087b 00       		.byte	0
 1820 087c 1E       		.uleb128 0x1e
 1821 087d 87080000 		.4byte	0x887
 1822 0881 16       		.uleb128 0x16
 1823 0882 72040000 		.4byte	0x472
 1824 0886 00       		.byte	0
ARM GAS  /tmp/ccRbSNsM.s 			page 33


 1825 0887 05       		.uleb128 0x5
 1826 0888 04       		.byte	0x4
 1827 0889 7C080000 		.4byte	0x87c
 1828 088d 05       		.uleb128 0x5
 1829 088e 04       		.byte	0x4
 1830 088f C5010000 		.4byte	0x1c5
 1831 0893 1E       		.uleb128 0x1e
 1832 0894 9E080000 		.4byte	0x89e
 1833 0898 16       		.uleb128 0x16
 1834 0899 68000000 		.4byte	0x68
 1835 089d 00       		.byte	0
 1836 089e 05       		.uleb128 0x5
 1837 089f 04       		.byte	0x4
 1838 08a0 A4080000 		.4byte	0x8a4
 1839 08a4 05       		.uleb128 0x5
 1840 08a5 04       		.byte	0x4
 1841 08a6 93080000 		.4byte	0x893
 1842 08aa 0C       		.uleb128 0xc
 1843 08ab 43060000 		.4byte	0x643
 1844 08af BA080000 		.4byte	0x8ba
 1845 08b3 0D       		.uleb128 0xd
 1846 08b4 6F000000 		.4byte	0x6f
 1847 08b8 02       		.byte	0x2
 1848 08b9 00       		.byte	0
 1849 08ba 1F       		.uleb128 0x1f
 1850 08bb C0050000 		.4byte	.LASF125
 1851 08bf 09       		.byte	0x9
 1852 08c0 2E03     		.2byte	0x32e
 1853 08c2 72040000 		.4byte	0x472
 1854 08c6 1F       		.uleb128 0x1f
 1855 08c7 39060000 		.4byte	.LASF126
 1856 08cb 09       		.byte	0x9
 1857 08cc 2F03     		.2byte	0x32f
 1858 08ce 78040000 		.4byte	0x478
 1859 08d2 20       		.uleb128 0x20
 1860 08d3 A7020000 		.4byte	.LASF127
 1861 08d7 01       		.byte	0x1
 1862 08d8 19       		.byte	0x19
 1863 08d9 8C000000 		.4byte	0x8c
 1864 08dd 05       		.uleb128 0x5
 1865 08de 03       		.byte	0x3
 1866 08df 00000000 		.4byte	env_global
 1867 08e3 21       		.uleb128 0x21
 1868 08e4 BB030000 		.4byte	.LASF134
 1869 08e8 01       		.byte	0x1
 1870 08e9 7B       		.byte	0x7b
 1871 08ea 8C000000 		.4byte	0x8c
 1872 08ee 00000000 		.4byte	.LFB43
 1873 08f2 90000000 		.4byte	.LFE43-.LFB43
 1874 08f6 01       		.uleb128 0x1
 1875 08f7 9C       		.byte	0x9c
 1876 08f8 890A0000 		.4byte	0xa89
 1877 08fc 22       		.uleb128 0x22
 1878 08fd E9050000 		.4byte	.LASF128
 1879 0901 01       		.byte	0x1
 1880 0902 7B       		.byte	0x7b
 1881 0903 8C000000 		.4byte	0x8c
ARM GAS  /tmp/ccRbSNsM.s 			page 34


 1882 0907 00000000 		.4byte	.LLST21
 1883 090b 22       		.uleb128 0x22
 1884 090c 34060000 		.4byte	.LASF129
 1885 0910 01       		.byte	0x1
 1886 0911 7C       		.byte	0x7c
 1887 0912 8C000000 		.4byte	0x8c
 1888 0916 45000000 		.4byte	.LLST22
 1889 091a 22       		.uleb128 0x22
 1890 091b F0020000 		.4byte	.LASF130
 1891 091f 01       		.byte	0x1
 1892 0920 7D       		.byte	0x7d
 1893 0921 8C000000 		.4byte	0x8c
 1894 0925 8A000000 		.4byte	.LLST23
 1895 0929 23       		.uleb128 0x23
 1896 092a E8060000 		.4byte	.LASF131
 1897 092e 01       		.byte	0x1
 1898 092f 7E       		.byte	0x7e
 1899 0930 8C000000 		.4byte	0x8c
 1900 0934 CF000000 		.4byte	.LLST24
 1901 0938 23       		.uleb128 0x23
 1902 0939 B2030000 		.4byte	.LASF132
 1903 093d 01       		.byte	0x1
 1904 093e 7F       		.byte	0x7f
 1905 093f 8C000000 		.4byte	0x8c
 1906 0943 03010000 		.4byte	.LLST25
 1907 0947 24       		.uleb128 0x24
 1908 0948 656E7600 		.ascii	"env\000"
 1909 094c 01       		.byte	0x1
 1910 094d 87       		.byte	0x87
 1911 094e 8C000000 		.4byte	0x8c
 1912 0952 37010000 		.4byte	.LLST26
 1913 0956 25       		.uleb128 0x25
 1914 0957 C8000000 		.4byte	.Ldebug_ranges0+0xc8
 1915 095b 470A0000 		.4byte	0xa47
 1916 095f 23       		.uleb128 0x23
 1917 0960 7D030000 		.4byte	.LASF133
 1918 0964 01       		.byte	0x1
 1919 0965 8A       		.byte	0x8a
 1920 0966 8C000000 		.4byte	0x8c
 1921 096a 6B010000 		.4byte	.LLST28
 1922 096e 26       		.uleb128 0x26
 1923 096f A50E0000 		.4byte	0xea5
 1924 0973 3C000000 		.4byte	.LBB91
 1925 0977 0C000000 		.4byte	.LBE91-.LBB91
 1926 097b 01       		.byte	0x1
 1927 097c 8B       		.byte	0x8b
 1928 097d 87090000 		.4byte	0x987
 1929 0981 27       		.uleb128 0x27
 1930 0982 B60E0000 		.4byte	0xeb6
 1931 0986 00       		.byte	0
 1932 0987 26       		.uleb128 0x26
 1933 0988 6D0E0000 		.4byte	0xe6d
 1934 098c 4A000000 		.4byte	.LBB93
 1935 0990 02000000 		.4byte	.LBE93-.LBB93
 1936 0994 01       		.byte	0x1
 1937 0995 8C       		.byte	0x8c
 1938 0996 A0090000 		.4byte	0x9a0
ARM GAS  /tmp/ccRbSNsM.s 			page 35


 1939 099a 27       		.uleb128 0x27
 1940 099b 7E0E0000 		.4byte	0xe7e
 1941 099f 00       		.byte	0
 1942 09a0 26       		.uleb128 0x26
 1943 09a1 A50E0000 		.4byte	0xea5
 1944 09a5 56000000 		.4byte	.LBB95
 1945 09a9 0C000000 		.4byte	.LBE95-.LBB95
 1946 09ad 01       		.byte	0x1
 1947 09ae 91       		.byte	0x91
 1948 09af B9090000 		.4byte	0x9b9
 1949 09b3 27       		.uleb128 0x27
 1950 09b4 B60E0000 		.4byte	0xeb6
 1951 09b8 00       		.byte	0
 1952 09b9 26       		.uleb128 0x26
 1953 09ba 6D0E0000 		.4byte	0xe6d
 1954 09be 66000000 		.4byte	.LBB97
 1955 09c2 02000000 		.4byte	.LBE97-.LBB97
 1956 09c6 01       		.byte	0x1
 1957 09c7 92       		.byte	0x92
 1958 09c8 D2090000 		.4byte	0x9d2
 1959 09cc 27       		.uleb128 0x27
 1960 09cd 7E0E0000 		.4byte	0xe7e
 1961 09d1 00       		.byte	0
 1962 09d2 28       		.uleb128 0x28
 1963 09d3 2C000000 		.4byte	.LVL73
 1964 09d7 C10E0000 		.4byte	0xec1
 1965 09db E6090000 		.4byte	0x9e6
 1966 09df 29       		.uleb128 0x29
 1967 09e0 01       		.uleb128 0x1
 1968 09e1 50       		.byte	0x50
 1969 09e2 02       		.uleb128 0x2
 1970 09e3 75       		.byte	0x75
 1971 09e4 00       		.sleb128 0
 1972 09e5 00       		.byte	0
 1973 09e6 28       		.uleb128 0x28
 1974 09e7 34000000 		.4byte	.LVL74
 1975 09eb C10E0000 		.4byte	0xec1
 1976 09ef FA090000 		.4byte	0x9fa
 1977 09f3 29       		.uleb128 0x29
 1978 09f4 01       		.uleb128 0x1
 1979 09f5 50       		.byte	0x50
 1980 09f6 02       		.uleb128 0x2
 1981 09f7 76       		.byte	0x76
 1982 09f8 00       		.sleb128 0
 1983 09f9 00       		.byte	0
 1984 09fa 28       		.uleb128 0x28
 1985 09fb 3C000000 		.4byte	.LVL75
 1986 09ff CD0E0000 		.4byte	0xecd
 1987 0a03 0E0A0000 		.4byte	0xa0e
 1988 0a07 29       		.uleb128 0x29
 1989 0a08 01       		.uleb128 0x1
 1990 0a09 50       		.byte	0x50
 1991 0a0a 02       		.uleb128 0x2
 1992 0a0b 77       		.byte	0x77
 1993 0a0c 00       		.sleb128 0
 1994 0a0d 00       		.byte	0
 1995 0a0e 28       		.uleb128 0x28
ARM GAS  /tmp/ccRbSNsM.s 			page 36


 1996 0a0f 56000000 		.4byte	.LVL76
 1997 0a13 CD0E0000 		.4byte	0xecd
 1998 0a17 220A0000 		.4byte	0xa22
 1999 0a1b 29       		.uleb128 0x29
 2000 0a1c 01       		.uleb128 0x1
 2001 0a1d 51       		.byte	0x51
 2002 0a1e 02       		.uleb128 0x2
 2003 0a1f 74       		.byte	0x74
 2004 0a20 00       		.sleb128 0
 2005 0a21 00       		.byte	0
 2006 0a22 28       		.uleb128 0x28
 2007 0a23 72000000 		.4byte	.LVL79
 2008 0a27 D90E0000 		.4byte	0xed9
 2009 0a2b 360A0000 		.4byte	0xa36
 2010 0a2f 29       		.uleb128 0x29
 2011 0a30 01       		.uleb128 0x1
 2012 0a31 50       		.byte	0x50
 2013 0a32 02       		.uleb128 0x2
 2014 0a33 75       		.byte	0x75
 2015 0a34 00       		.sleb128 0
 2016 0a35 00       		.byte	0
 2017 0a36 2A       		.uleb128 0x2a
 2018 0a37 7A000000 		.4byte	.LVL82
 2019 0a3b D90E0000 		.4byte	0xed9
 2020 0a3f 29       		.uleb128 0x29
 2021 0a40 01       		.uleb128 0x1
 2022 0a41 50       		.byte	0x50
 2023 0a42 02       		.uleb128 0x2
 2024 0a43 76       		.byte	0x76
 2025 0a44 00       		.sleb128 0
 2026 0a45 00       		.byte	0
 2027 0a46 00       		.byte	0
 2028 0a47 2B       		.uleb128 0x2b
 2029 0a48 A50E0000 		.4byte	0xea5
 2030 0a4c 18000000 		.4byte	.LBB86
 2031 0a50 A8000000 		.4byte	.Ldebug_ranges0+0xa8
 2032 0a54 01       		.byte	0x1
 2033 0a55 88       		.byte	0x88
 2034 0a56 640A0000 		.4byte	0xa64
 2035 0a5a 2C       		.uleb128 0x2c
 2036 0a5b B60E0000 		.4byte	0xeb6
 2037 0a5f 7E010000 		.4byte	.LLST27
 2038 0a63 00       		.byte	0
 2039 0a64 28       		.uleb128 0x28
 2040 0a65 0C000000 		.4byte	.LVL69
 2041 0a69 E50E0000 		.4byte	0xee5
 2042 0a6d 780A0000 		.4byte	0xa78
 2043 0a71 29       		.uleb128 0x29
 2044 0a72 01       		.uleb128 0x1
 2045 0a73 50       		.byte	0x50
 2046 0a74 02       		.uleb128 0x2
 2047 0a75 75       		.byte	0x75
 2048 0a76 00       		.sleb128 0
 2049 0a77 00       		.byte	0
 2050 0a78 2A       		.uleb128 0x2a
 2051 0a79 14000000 		.4byte	.LVL70
 2052 0a7d E50E0000 		.4byte	0xee5
ARM GAS  /tmp/ccRbSNsM.s 			page 37


 2053 0a81 29       		.uleb128 0x29
 2054 0a82 01       		.uleb128 0x1
 2055 0a83 50       		.byte	0x50
 2056 0a84 02       		.uleb128 0x2
 2057 0a85 76       		.byte	0x76
 2058 0a86 00       		.sleb128 0
 2059 0a87 00       		.byte	0
 2060 0a88 00       		.byte	0
 2061 0a89 21       		.uleb128 0x21
 2062 0a8a 1D040000 		.4byte	.LASF135
 2063 0a8e 01       		.byte	0x1
 2064 0a8f 6B       		.byte	0x6b
 2065 0a90 8C000000 		.4byte	0x8c
 2066 0a94 00000000 		.4byte	.LFB42
 2067 0a98 58000000 		.4byte	.LFE42-.LFB42
 2068 0a9c 01       		.uleb128 0x1
 2069 0a9d 9C       		.byte	0x9c
 2070 0a9e 460B0000 		.4byte	0xb46
 2071 0aa2 2D       		.uleb128 0x2d
 2072 0aa3 656E7600 		.ascii	"env\000"
 2073 0aa7 01       		.byte	0x1
 2074 0aa8 6B       		.byte	0x6b
 2075 0aa9 8C000000 		.4byte	0x8c
 2076 0aad 9C010000 		.4byte	.LLST16
 2077 0ab1 2D       		.uleb128 0x2d
 2078 0ab2 6B657900 		.ascii	"key\000"
 2079 0ab6 01       		.byte	0x1
 2080 0ab7 6B       		.byte	0x6b
 2081 0ab8 8C000000 		.4byte	0x8c
 2082 0abc EC010000 		.4byte	.LLST17
 2083 0ac0 2D       		.uleb128 0x2d
 2084 0ac1 76616C00 		.ascii	"val\000"
 2085 0ac5 01       		.byte	0x1
 2086 0ac6 6B       		.byte	0x6b
 2087 0ac7 8C000000 		.4byte	0x8c
 2088 0acb 2E020000 		.4byte	.LLST18
 2089 0acf 23       		.uleb128 0x23
 2090 0ad0 A1040000 		.4byte	.LASF136
 2091 0ad4 01       		.byte	0x1
 2092 0ad5 6D       		.byte	0x6d
 2093 0ad6 8C000000 		.4byte	0x8c
 2094 0ada 70020000 		.4byte	.LLST19
 2095 0ade 2B       		.uleb128 0x2b
 2096 0adf A50E0000 		.4byte	0xea5
 2097 0ae3 00000000 		.4byte	.LBB78
 2098 0ae7 80000000 		.4byte	.Ldebug_ranges0+0x80
 2099 0aeb 01       		.byte	0x1
 2100 0aec 6F       		.byte	0x6f
 2101 0aed FB0A0000 		.4byte	0xafb
 2102 0af1 2C       		.uleb128 0x2c
 2103 0af2 B60E0000 		.4byte	0xeb6
 2104 0af6 DE020000 		.4byte	.LLST20
 2105 0afa 00       		.byte	0
 2106 0afb 28       		.uleb128 0x28
 2107 0afc 20000000 		.4byte	.LVL55
 2108 0b00 C10E0000 		.4byte	0xec1
 2109 0b04 0F0B0000 		.4byte	0xb0f
ARM GAS  /tmp/ccRbSNsM.s 			page 38


 2110 0b08 29       		.uleb128 0x29
 2111 0b09 01       		.uleb128 0x1
 2112 0b0a 50       		.byte	0x50
 2113 0b0b 02       		.uleb128 0x2
 2114 0b0c 74       		.byte	0x74
 2115 0b0d 00       		.sleb128 0
 2116 0b0e 00       		.byte	0
 2117 0b0f 2E       		.uleb128 0x2e
 2118 0b10 24000000 		.4byte	.LVL56
 2119 0b14 C10E0000 		.4byte	0xec1
 2120 0b18 28       		.uleb128 0x28
 2121 0b19 2E000000 		.4byte	.LVL58
 2122 0b1d D90E0000 		.4byte	0xed9
 2123 0b21 2C0B0000 		.4byte	0xb2c
 2124 0b25 29       		.uleb128 0x29
 2125 0b26 01       		.uleb128 0x1
 2126 0b27 50       		.byte	0x50
 2127 0b28 02       		.uleb128 0x2
 2128 0b29 74       		.byte	0x74
 2129 0b2a 00       		.sleb128 0
 2130 0b2b 00       		.byte	0
 2131 0b2c 2E       		.uleb128 0x2e
 2132 0b2d 4E000000 		.4byte	.LVL65
 2133 0b31 C10E0000 		.4byte	0xec1
 2134 0b35 2A       		.uleb128 0x2a
 2135 0b36 54000000 		.4byte	.LVL66
 2136 0b3a F10E0000 		.4byte	0xef1
 2137 0b3e 29       		.uleb128 0x29
 2138 0b3f 01       		.uleb128 0x1
 2139 0b40 51       		.byte	0x51
 2140 0b41 02       		.uleb128 0x2
 2141 0b42 77       		.byte	0x77
 2142 0b43 00       		.sleb128 0
 2143 0b44 00       		.byte	0
 2144 0b45 00       		.byte	0
 2145 0b46 21       		.uleb128 0x21
 2146 0b47 F6040000 		.4byte	.LASF137
 2147 0b4b 01       		.byte	0x1
 2148 0b4c 4F       		.byte	0x4f
 2149 0b4d 8C000000 		.4byte	0x8c
 2150 0b51 00000000 		.4byte	.LFB41
 2151 0b55 84000000 		.4byte	.LFE41-.LFB41
 2152 0b59 01       		.uleb128 0x1
 2153 0b5a 9C       		.byte	0x9c
 2154 0b5b 810C0000 		.4byte	0xc81
 2155 0b5f 2D       		.uleb128 0x2d
 2156 0b60 656E7600 		.ascii	"env\000"
 2157 0b64 01       		.byte	0x1
 2158 0b65 4F       		.byte	0x4f
 2159 0b66 8C000000 		.4byte	0x8c
 2160 0b6a 15030000 		.4byte	.LLST9
 2161 0b6e 2D       		.uleb128 0x2d
 2162 0b6f 6B657900 		.ascii	"key\000"
 2163 0b73 01       		.byte	0x1
 2164 0b74 4F       		.byte	0x4f
 2165 0b75 8C000000 		.4byte	0x8c
 2166 0b79 33030000 		.4byte	.LLST10
ARM GAS  /tmp/ccRbSNsM.s 			page 39


 2167 0b7d 2D       		.uleb128 0x2d
 2168 0b7e 76616C00 		.ascii	"val\000"
 2169 0b82 01       		.byte	0x1
 2170 0b83 4F       		.byte	0x4f
 2171 0b84 8C000000 		.4byte	0x8c
 2172 0b88 51030000 		.4byte	.LLST11
 2173 0b8c 23       		.uleb128 0x23
 2174 0b8d A1040000 		.4byte	.LASF136
 2175 0b91 01       		.byte	0x1
 2176 0b92 51       		.byte	0x51
 2177 0b93 8C000000 		.4byte	0x8c
 2178 0b97 6F030000 		.4byte	.LLST12
 2179 0b9b 23       		.uleb128 0x23
 2180 0b9c 0A030000 		.4byte	.LASF138
 2181 0ba0 01       		.byte	0x1
 2182 0ba1 52       		.byte	0x52
 2183 0ba2 8C000000 		.4byte	0x8c
 2184 0ba6 CF030000 		.4byte	.LLST13
 2185 0baa 23       		.uleb128 0x23
 2186 0bab 63020000 		.4byte	.LASF139
 2187 0baf 01       		.byte	0x1
 2188 0bb0 53       		.byte	0x53
 2189 0bb1 8C000000 		.4byte	0x8c
 2190 0bb5 E2030000 		.4byte	.LLST14
 2191 0bb9 2B       		.uleb128 0x2b
 2192 0bba A50E0000 		.4byte	0xea5
 2193 0bbe 04000000 		.4byte	.LBB66
 2194 0bc2 58000000 		.4byte	.Ldebug_ranges0+0x58
 2195 0bc6 01       		.byte	0x1
 2196 0bc7 55       		.byte	0x55
 2197 0bc8 D60B0000 		.4byte	0xbd6
 2198 0bcc 2C       		.uleb128 0x2c
 2199 0bcd B60E0000 		.4byte	0xeb6
 2200 0bd1 0B040000 		.4byte	.LLST15
 2201 0bd5 00       		.byte	0
 2202 0bd6 26       		.uleb128 0x26
 2203 0bd7 A50E0000 		.4byte	0xea5
 2204 0bdb 44000000 		.4byte	.LBB74
 2205 0bdf 0C000000 		.4byte	.LBE74-.LBB74
 2206 0be3 01       		.byte	0x1
 2207 0be4 5E       		.byte	0x5e
 2208 0be5 EF0B0000 		.4byte	0xbef
 2209 0be9 27       		.uleb128 0x27
 2210 0bea B60E0000 		.4byte	0xeb6
 2211 0bee 00       		.byte	0
 2212 0bef 26       		.uleb128 0x26
 2213 0bf0 A50E0000 		.4byte	0xea5
 2214 0bf4 6E000000 		.4byte	.LBB76
 2215 0bf8 0C000000 		.4byte	.LBE76-.LBB76
 2216 0bfc 01       		.byte	0x1
 2217 0bfd 63       		.byte	0x63
 2218 0bfe 080C0000 		.4byte	0xc08
 2219 0c02 27       		.uleb128 0x27
 2220 0c03 B60E0000 		.4byte	0xeb6
 2221 0c07 00       		.byte	0
 2222 0c08 28       		.uleb128 0x28
 2223 0c09 1E000000 		.4byte	.LVL36
ARM GAS  /tmp/ccRbSNsM.s 			page 40


 2224 0c0d C10E0000 		.4byte	0xec1
 2225 0c11 1C0C0000 		.4byte	0xc1c
 2226 0c15 29       		.uleb128 0x29
 2227 0c16 01       		.uleb128 0x1
 2228 0c17 50       		.byte	0x50
 2229 0c18 02       		.uleb128 0x2
 2230 0c19 74       		.byte	0x74
 2231 0c1a 00       		.sleb128 0
 2232 0c1b 00       		.byte	0
 2233 0c1c 2E       		.uleb128 0x2e
 2234 0c1d 22000000 		.4byte	.LVL37
 2235 0c21 C10E0000 		.4byte	0xec1
 2236 0c25 28       		.uleb128 0x28
 2237 0c26 2C000000 		.4byte	.LVL39
 2238 0c2a D90E0000 		.4byte	0xed9
 2239 0c2e 390C0000 		.4byte	0xc39
 2240 0c32 29       		.uleb128 0x29
 2241 0c33 01       		.uleb128 0x1
 2242 0c34 50       		.byte	0x50
 2243 0c35 02       		.uleb128 0x2
 2244 0c36 74       		.byte	0x74
 2245 0c37 00       		.sleb128 0
 2246 0c38 00       		.byte	0
 2247 0c39 28       		.uleb128 0x28
 2248 0c3a 44000000 		.4byte	.LVL42
 2249 0c3e CD0E0000 		.4byte	0xecd
 2250 0c42 530C0000 		.4byte	0xc53
 2251 0c46 29       		.uleb128 0x29
 2252 0c47 01       		.uleb128 0x1
 2253 0c48 50       		.byte	0x50
 2254 0c49 02       		.uleb128 0x2
 2255 0c4a 75       		.byte	0x75
 2256 0c4b 00       		.sleb128 0
 2257 0c4c 29       		.uleb128 0x29
 2258 0c4d 01       		.uleb128 0x1
 2259 0c4e 51       		.byte	0x51
 2260 0c4f 02       		.uleb128 0x2
 2261 0c50 76       		.byte	0x76
 2262 0c51 00       		.sleb128 0
 2263 0c52 00       		.byte	0
 2264 0c53 2E       		.uleb128 0x2e
 2265 0c54 5C000000 		.4byte	.LVL45
 2266 0c58 C10E0000 		.4byte	0xec1
 2267 0c5c 28       		.uleb128 0x28
 2268 0c5d 64000000 		.4byte	.LVL47
 2269 0c61 F10E0000 		.4byte	0xef1
 2270 0c65 700C0000 		.4byte	0xc70
 2271 0c69 29       		.uleb128 0x29
 2272 0c6a 01       		.uleb128 0x1
 2273 0c6b 51       		.byte	0x51
 2274 0c6c 02       		.uleb128 0x2
 2275 0c6d 76       		.byte	0x76
 2276 0c6e 00       		.sleb128 0
 2277 0c6f 00       		.byte	0
 2278 0c70 2A       		.uleb128 0x2a
 2279 0c71 6E000000 		.4byte	.LVL49
 2280 0c75 CD0E0000 		.4byte	0xecd
ARM GAS  /tmp/ccRbSNsM.s 			page 41


 2281 0c79 29       		.uleb128 0x29
 2282 0c7a 01       		.uleb128 0x1
 2283 0c7b 51       		.byte	0x51
 2284 0c7c 02       		.uleb128 0x2
 2285 0c7d 77       		.byte	0x77
 2286 0c7e 00       		.sleb128 0
 2287 0c7f 00       		.byte	0
 2288 0c80 00       		.byte	0
 2289 0c81 21       		.uleb128 0x21
 2290 0c82 D5040000 		.4byte	.LASF140
 2291 0c86 01       		.byte	0x1
 2292 0c87 3F       		.byte	0x3f
 2293 0c88 8C000000 		.4byte	0x8c
 2294 0c8c 00000000 		.4byte	.LFB40
 2295 0c90 48000000 		.4byte	.LFE40-.LFB40
 2296 0c94 01       		.uleb128 0x1
 2297 0c95 9C       		.byte	0x9c
 2298 0c96 280D0000 		.4byte	0xd28
 2299 0c9a 2D       		.uleb128 0x2d
 2300 0c9b 73796D00 		.ascii	"sym\000"
 2301 0c9f 01       		.byte	0x1
 2302 0ca0 3F       		.byte	0x3f
 2303 0ca1 8C000000 		.4byte	0x8c
 2304 0ca5 34040000 		.4byte	.LLST5
 2305 0ca9 2D       		.uleb128 0x2d
 2306 0caa 656E7600 		.ascii	"env\000"
 2307 0cae 01       		.byte	0x1
 2308 0caf 3F       		.byte	0x3f
 2309 0cb0 8C000000 		.4byte	0x8c
 2310 0cb4 60040000 		.4byte	.LLST6
 2311 0cb8 23       		.uleb128 0x23
 2312 0cb9 A1040000 		.4byte	.LASF136
 2313 0cbd 01       		.byte	0x1
 2314 0cbe 40       		.byte	0x40
 2315 0cbf 8C000000 		.4byte	0x8c
 2316 0cc3 8C040000 		.4byte	.LLST7
 2317 0cc7 2B       		.uleb128 0x2b
 2318 0cc8 A50E0000 		.4byte	0xea5
 2319 0ccc 0A000000 		.4byte	.LBB60
 2320 0cd0 38000000 		.4byte	.Ldebug_ranges0+0x38
 2321 0cd4 01       		.byte	0x1
 2322 0cd5 46       		.byte	0x46
 2323 0cd6 E40C0000 		.4byte	0xce4
 2324 0cda 2C       		.uleb128 0x2c
 2325 0cdb B60E0000 		.4byte	0xeb6
 2326 0cdf EC040000 		.4byte	.LLST8
 2327 0ce3 00       		.byte	0
 2328 0ce4 28       		.uleb128 0x28
 2329 0ce5 1E000000 		.4byte	.LVL20
 2330 0ce9 C10E0000 		.4byte	0xec1
 2331 0ced F80C0000 		.4byte	0xcf8
 2332 0cf1 29       		.uleb128 0x29
 2333 0cf2 01       		.uleb128 0x1
 2334 0cf3 50       		.byte	0x50
 2335 0cf4 02       		.uleb128 0x2
 2336 0cf5 74       		.byte	0x74
 2337 0cf6 00       		.sleb128 0
ARM GAS  /tmp/ccRbSNsM.s 			page 42


 2338 0cf7 00       		.byte	0
 2339 0cf8 2E       		.uleb128 0x2e
 2340 0cf9 22000000 		.4byte	.LVL21
 2341 0cfd C10E0000 		.4byte	0xec1
 2342 0d01 28       		.uleb128 0x28
 2343 0d02 2C000000 		.4byte	.LVL23
 2344 0d06 D90E0000 		.4byte	0xed9
 2345 0d0a 150D0000 		.4byte	0xd15
 2346 0d0e 29       		.uleb128 0x29
 2347 0d0f 01       		.uleb128 0x1
 2348 0d10 50       		.byte	0x50
 2349 0d11 02       		.uleb128 0x2
 2350 0d12 74       		.byte	0x74
 2351 0d13 00       		.sleb128 0
 2352 0d14 00       		.byte	0
 2353 0d15 2E       		.uleb128 0x2e
 2354 0d16 40000000 		.4byte	.LVL28
 2355 0d1a C10E0000 		.4byte	0xec1
 2356 0d1e 2F       		.uleb128 0x2f
 2357 0d1f 48000000 		.4byte	.LVL30
 2358 0d23 D90E0000 		.4byte	0xed9
 2359 0d27 00       		.byte	0
 2360 0d28 21       		.uleb128 0x21
 2361 0d29 BA010000 		.4byte	.LASF141
 2362 0d2d 01       		.byte	0x1
 2363 0d2e 2A       		.byte	0x2a
 2364 0d2f 8C000000 		.4byte	0x8c
 2365 0d33 00000000 		.4byte	.LFB39
 2366 0d37 5A000000 		.4byte	.LFE39-.LFB39
 2367 0d3b 01       		.uleb128 0x1
 2368 0d3c 9C       		.byte	0x9c
 2369 0d3d 280E0000 		.4byte	0xe28
 2370 0d41 2D       		.uleb128 0x2d
 2371 0d42 656E7600 		.ascii	"env\000"
 2372 0d46 01       		.byte	0x1
 2373 0d47 2A       		.byte	0x2a
 2374 0d48 8C000000 		.4byte	0x8c
 2375 0d4c 15050000 		.4byte	.LLST0
 2376 0d50 24       		.uleb128 0x24
 2377 0d51 72657300 		.ascii	"res\000"
 2378 0d55 01       		.byte	0x1
 2379 0d56 2C       		.byte	0x2c
 2380 0d57 8C000000 		.4byte	0x8c
 2381 0d5b 36050000 		.4byte	.LLST1
 2382 0d5f 23       		.uleb128 0x23
 2383 0d60 A1040000 		.4byte	.LASF136
 2384 0d64 01       		.byte	0x1
 2385 0d65 2D       		.byte	0x2d
 2386 0d66 8C000000 		.4byte	0x8c
 2387 0d6a 6B050000 		.4byte	.LLST2
 2388 0d6e 25       		.uleb128 0x25
 2389 0d6f 20000000 		.4byte	.Ldebug_ranges0+0x20
 2390 0d73 0E0E0000 		.4byte	0xe0e
 2391 0d77 24       		.uleb128 0x24
 2392 0d78 6B657900 		.ascii	"key\000"
 2393 0d7c 01       		.byte	0x1
 2394 0d7d 30       		.byte	0x30
ARM GAS  /tmp/ccRbSNsM.s 			page 43


 2395 0d7e 8C000000 		.4byte	0x8c
 2396 0d82 94050000 		.4byte	.LLST4
 2397 0d86 26       		.uleb128 0x26
 2398 0d87 A50E0000 		.4byte	0xea5
 2399 0d8b 30000000 		.4byte	.LBB53
 2400 0d8f 0C000000 		.4byte	.LBE53-.LBB53
 2401 0d93 01       		.byte	0x1
 2402 0d94 35       		.byte	0x35
 2403 0d95 9F0D0000 		.4byte	0xd9f
 2404 0d99 27       		.uleb128 0x27
 2405 0d9a B60E0000 		.4byte	0xeb6
 2406 0d9e 00       		.byte	0
 2407 0d9f 26       		.uleb128 0x26
 2408 0da0 6D0E0000 		.4byte	0xe6d
 2409 0da4 3E000000 		.4byte	.LBB55
 2410 0da8 02000000 		.4byte	.LBE55-.LBB55
 2411 0dac 01       		.byte	0x1
 2412 0dad 36       		.byte	0x36
 2413 0dae B80D0000 		.4byte	0xdb8
 2414 0db2 27       		.uleb128 0x27
 2415 0db3 7E0E0000 		.4byte	0xe7e
 2416 0db7 00       		.byte	0
 2417 0db8 28       		.uleb128 0x28
 2418 0db9 1C000000 		.4byte	.LVL4
 2419 0dbd C10E0000 		.4byte	0xec1
 2420 0dc1 CC0D0000 		.4byte	0xdcc
 2421 0dc5 29       		.uleb128 0x29
 2422 0dc6 01       		.uleb128 0x1
 2423 0dc7 50       		.byte	0x50
 2424 0dc8 02       		.uleb128 0x2
 2425 0dc9 74       		.byte	0x74
 2426 0dca 00       		.sleb128 0
 2427 0dcb 00       		.byte	0
 2428 0dcc 2E       		.uleb128 0x2e
 2429 0dcd 20000000 		.4byte	.LVL5
 2430 0dd1 C10E0000 		.4byte	0xec1
 2431 0dd5 28       		.uleb128 0x28
 2432 0dd6 2A000000 		.4byte	.LVL7
 2433 0dda C10E0000 		.4byte	0xec1
 2434 0dde E90D0000 		.4byte	0xde9
 2435 0de2 29       		.uleb128 0x29
 2436 0de3 01       		.uleb128 0x1
 2437 0de4 50       		.byte	0x50
 2438 0de5 02       		.uleb128 0x2
 2439 0de6 74       		.byte	0x74
 2440 0de7 00       		.sleb128 0
 2441 0de8 00       		.byte	0
 2442 0de9 28       		.uleb128 0x28
 2443 0dea 30000000 		.4byte	.LVL8
 2444 0dee CD0E0000 		.4byte	0xecd
 2445 0df2 FD0D0000 		.4byte	0xdfd
 2446 0df6 29       		.uleb128 0x29
 2447 0df7 01       		.uleb128 0x1
 2448 0df8 51       		.byte	0x51
 2449 0df9 02       		.uleb128 0x2
 2450 0dfa 75       		.byte	0x75
 2451 0dfb 00       		.sleb128 0
ARM GAS  /tmp/ccRbSNsM.s 			page 44


 2452 0dfc 00       		.byte	0
 2453 0dfd 2A       		.uleb128 0x2a
 2454 0dfe 4C000000 		.4byte	.LVL11
 2455 0e02 D90E0000 		.4byte	0xed9
 2456 0e06 29       		.uleb128 0x29
 2457 0e07 01       		.uleb128 0x1
 2458 0e08 50       		.byte	0x50
 2459 0e09 02       		.uleb128 0x2
 2460 0e0a 74       		.byte	0x74
 2461 0e0b 00       		.sleb128 0
 2462 0e0c 00       		.byte	0
 2463 0e0d 00       		.byte	0
 2464 0e0e 30       		.uleb128 0x30
 2465 0e0f A50E0000 		.4byte	0xea5
 2466 0e13 02000000 		.4byte	.LBB48
 2467 0e17 00000000 		.4byte	.Ldebug_ranges0+0
 2468 0e1b 01       		.byte	0x1
 2469 0e1c 2F       		.byte	0x2f
 2470 0e1d 2C       		.uleb128 0x2c
 2471 0e1e B60E0000 		.4byte	0xeb6
 2472 0e22 A7050000 		.4byte	.LLST3
 2473 0e26 00       		.byte	0
 2474 0e27 00       		.byte	0
 2475 0e28 31       		.uleb128 0x31
 2476 0e29 69060000 		.4byte	.LASF142
 2477 0e2d 01       		.byte	0x1
 2478 0e2e 24       		.byte	0x24
 2479 0e2f 8C000000 		.4byte	0x8c
 2480 0e33 00000000 		.4byte	.LFB38
 2481 0e37 0C000000 		.4byte	.LFE38-.LFB38
 2482 0e3b 01       		.uleb128 0x1
 2483 0e3c 9C       		.byte	0x9c
 2484 0e3d 31       		.uleb128 0x31
 2485 0e3e 4C060000 		.4byte	.LASF143
 2486 0e42 01       		.byte	0x1
 2487 0e43 20       		.byte	0x20
 2488 0e44 520E0000 		.4byte	0xe52
 2489 0e48 00000000 		.4byte	.LFB37
 2490 0e4c 08000000 		.4byte	.LFE37-.LFB37
 2491 0e50 01       		.uleb128 0x1
 2492 0e51 9C       		.byte	0x9c
 2493 0e52 05       		.uleb128 0x5
 2494 0e53 04       		.byte	0x4
 2495 0e54 8C000000 		.4byte	0x8c
 2496 0e58 31       		.uleb128 0x31
 2497 0e59 A7060000 		.4byte	.LASF144
 2498 0e5d 01       		.byte	0x1
 2499 0e5e 1B       		.byte	0x1b
 2500 0e5f 68000000 		.4byte	0x68
 2501 0e63 00000000 		.4byte	.LFB36
 2502 0e67 10000000 		.4byte	.LFE36-.LFB36
 2503 0e6b 01       		.uleb128 0x1
 2504 0e6c 9C       		.byte	0x9c
 2505 0e6d 32       		.uleb128 0x32
 2506 0e6e 84050000 		.4byte	.LASF145
 2507 0e72 02       		.byte	0x2
 2508 0e73 1002     		.2byte	0x210
ARM GAS  /tmp/ccRbSNsM.s 			page 45


 2509 0e75 A2000000 		.4byte	0xa2
 2510 0e79 03       		.byte	0x3
 2511 0e7a 890E0000 		.4byte	0xe89
 2512 0e7e 33       		.uleb128 0x33
 2513 0e7f 7800     		.ascii	"x\000"
 2514 0e81 02       		.byte	0x2
 2515 0e82 1002     		.2byte	0x210
 2516 0e84 8C000000 		.4byte	0x8c
 2517 0e88 00       		.byte	0
 2518 0e89 32       		.uleb128 0x32
 2519 0e8a 4E030000 		.4byte	.LASF146
 2520 0e8e 02       		.byte	0x2
 2521 0e8f E001     		.2byte	0x1e0
 2522 0e91 8C000000 		.4byte	0x8c
 2523 0e95 03       		.byte	0x3
 2524 0e96 A50E0000 		.4byte	0xea5
 2525 0e9a 33       		.uleb128 0x33
 2526 0e9b 7300     		.ascii	"s\000"
 2527 0e9d 02       		.byte	0x2
 2528 0e9e E001     		.2byte	0x1e0
 2529 0ea0 76000000 		.4byte	0x76
 2530 0ea4 00       		.byte	0
 2531 0ea5 32       		.uleb128 0x32
 2532 0ea6 96050000 		.4byte	.LASF147
 2533 0eaa 02       		.byte	0x2
 2534 0eab CC01     		.2byte	0x1cc
 2535 0ead 97000000 		.4byte	0x97
 2536 0eb1 03       		.byte	0x3
 2537 0eb2 C10E0000 		.4byte	0xec1
 2538 0eb6 33       		.uleb128 0x33
 2539 0eb7 7800     		.ascii	"x\000"
 2540 0eb9 02       		.byte	0x2
 2541 0eba CC01     		.2byte	0x1cc
 2542 0ebc 8C000000 		.4byte	0x8c
 2543 0ec0 00       		.byte	0
 2544 0ec1 34       		.uleb128 0x34
 2545 0ec2 85040000 		.4byte	.LASF148
 2546 0ec6 85040000 		.4byte	.LASF148
 2547 0eca 02       		.byte	0x2
 2548 0ecb 5C01     		.2byte	0x15c
 2549 0ecd 34       		.uleb128 0x34
 2550 0ece 5E040000 		.4byte	.LASF149
 2551 0ed2 5E040000 		.4byte	.LASF149
 2552 0ed6 02       		.byte	0x2
 2553 0ed7 5301     		.2byte	0x153
 2554 0ed9 34       		.uleb128 0x34
 2555 0eda 2B000000 		.4byte	.LASF150
 2556 0ede 2B000000 		.4byte	.LASF150
 2557 0ee2 02       		.byte	0x2
 2558 0ee3 6401     		.2byte	0x164
 2559 0ee5 34       		.uleb128 0x34
 2560 0ee6 F8010000 		.4byte	.LASF151
 2561 0eea F8010000 		.4byte	.LASF151
 2562 0eee 02       		.byte	0x2
 2563 0eef 7C01     		.2byte	0x17c
 2564 0ef1 34       		.uleb128 0x34
 2565 0ef2 0A050000 		.4byte	.LASF152
ARM GAS  /tmp/ccRbSNsM.s 			page 46


 2566 0ef6 0A050000 		.4byte	.LASF152
 2567 0efa 02       		.byte	0x2
 2568 0efb 7201     		.2byte	0x172
 2569 0efd 00       		.byte	0
 2570              		.section	.debug_abbrev,"",%progbits
 2571              	.Ldebug_abbrev0:
 2572 0000 01       		.uleb128 0x1
 2573 0001 11       		.uleb128 0x11
 2574 0002 01       		.byte	0x1
 2575 0003 25       		.uleb128 0x25
 2576 0004 0E       		.uleb128 0xe
 2577 0005 13       		.uleb128 0x13
 2578 0006 0B       		.uleb128 0xb
 2579 0007 03       		.uleb128 0x3
 2580 0008 0E       		.uleb128 0xe
 2581 0009 1B       		.uleb128 0x1b
 2582 000a 0E       		.uleb128 0xe
 2583 000b 55       		.uleb128 0x55
 2584 000c 17       		.uleb128 0x17
 2585 000d 11       		.uleb128 0x11
 2586 000e 01       		.uleb128 0x1
 2587 000f 10       		.uleb128 0x10
 2588 0010 17       		.uleb128 0x17
 2589 0011 00       		.byte	0
 2590 0012 00       		.byte	0
 2591 0013 02       		.uleb128 0x2
 2592 0014 24       		.uleb128 0x24
 2593 0015 00       		.byte	0
 2594 0016 0B       		.uleb128 0xb
 2595 0017 0B       		.uleb128 0xb
 2596 0018 3E       		.uleb128 0x3e
 2597 0019 0B       		.uleb128 0xb
 2598 001a 03       		.uleb128 0x3
 2599 001b 0E       		.uleb128 0xe
 2600 001c 00       		.byte	0
 2601 001d 00       		.byte	0
 2602 001e 03       		.uleb128 0x3
 2603 001f 16       		.uleb128 0x16
 2604 0020 00       		.byte	0
 2605 0021 03       		.uleb128 0x3
 2606 0022 0E       		.uleb128 0xe
 2607 0023 3A       		.uleb128 0x3a
 2608 0024 0B       		.uleb128 0xb
 2609 0025 3B       		.uleb128 0x3b
 2610 0026 0B       		.uleb128 0xb
 2611 0027 49       		.uleb128 0x49
 2612 0028 13       		.uleb128 0x13
 2613 0029 00       		.byte	0
 2614 002a 00       		.byte	0
 2615 002b 04       		.uleb128 0x4
 2616 002c 24       		.uleb128 0x24
 2617 002d 00       		.byte	0
 2618 002e 0B       		.uleb128 0xb
 2619 002f 0B       		.uleb128 0xb
 2620 0030 3E       		.uleb128 0x3e
 2621 0031 0B       		.uleb128 0xb
 2622 0032 03       		.uleb128 0x3
ARM GAS  /tmp/ccRbSNsM.s 			page 47


 2623 0033 08       		.uleb128 0x8
 2624 0034 00       		.byte	0
 2625 0035 00       		.byte	0
 2626 0036 05       		.uleb128 0x5
 2627 0037 0F       		.uleb128 0xf
 2628 0038 00       		.byte	0
 2629 0039 0B       		.uleb128 0xb
 2630 003a 0B       		.uleb128 0xb
 2631 003b 49       		.uleb128 0x49
 2632 003c 13       		.uleb128 0x13
 2633 003d 00       		.byte	0
 2634 003e 00       		.byte	0
 2635 003f 06       		.uleb128 0x6
 2636 0040 13       		.uleb128 0x13
 2637 0041 00       		.byte	0
 2638 0042 03       		.uleb128 0x3
 2639 0043 0E       		.uleb128 0xe
 2640 0044 3C       		.uleb128 0x3c
 2641 0045 19       		.uleb128 0x19
 2642 0046 00       		.byte	0
 2643 0047 00       		.byte	0
 2644 0048 07       		.uleb128 0x7
 2645 0049 0F       		.uleb128 0xf
 2646 004a 00       		.byte	0
 2647 004b 0B       		.uleb128 0xb
 2648 004c 0B       		.uleb128 0xb
 2649 004d 00       		.byte	0
 2650 004e 00       		.byte	0
 2651 004f 08       		.uleb128 0x8
 2652 0050 26       		.uleb128 0x26
 2653 0051 00       		.byte	0
 2654 0052 49       		.uleb128 0x49
 2655 0053 13       		.uleb128 0x13
 2656 0054 00       		.byte	0
 2657 0055 00       		.byte	0
 2658 0056 09       		.uleb128 0x9
 2659 0057 16       		.uleb128 0x16
 2660 0058 00       		.byte	0
 2661 0059 03       		.uleb128 0x3
 2662 005a 0E       		.uleb128 0xe
 2663 005b 3A       		.uleb128 0x3a
 2664 005c 0B       		.uleb128 0xb
 2665 005d 3B       		.uleb128 0x3b
 2666 005e 05       		.uleb128 0x5
 2667 005f 49       		.uleb128 0x49
 2668 0060 13       		.uleb128 0x13
 2669 0061 00       		.byte	0
 2670 0062 00       		.byte	0
 2671 0063 0A       		.uleb128 0xa
 2672 0064 17       		.uleb128 0x17
 2673 0065 01       		.byte	0x1
 2674 0066 0B       		.uleb128 0xb
 2675 0067 0B       		.uleb128 0xb
 2676 0068 3A       		.uleb128 0x3a
 2677 0069 0B       		.uleb128 0xb
 2678 006a 3B       		.uleb128 0x3b
 2679 006b 0B       		.uleb128 0xb
ARM GAS  /tmp/ccRbSNsM.s 			page 48


 2680 006c 01       		.uleb128 0x1
 2681 006d 13       		.uleb128 0x13
 2682 006e 00       		.byte	0
 2683 006f 00       		.byte	0
 2684 0070 0B       		.uleb128 0xb
 2685 0071 0D       		.uleb128 0xd
 2686 0072 00       		.byte	0
 2687 0073 03       		.uleb128 0x3
 2688 0074 0E       		.uleb128 0xe
 2689 0075 3A       		.uleb128 0x3a
 2690 0076 0B       		.uleb128 0xb
 2691 0077 3B       		.uleb128 0x3b
 2692 0078 0B       		.uleb128 0xb
 2693 0079 49       		.uleb128 0x49
 2694 007a 13       		.uleb128 0x13
 2695 007b 00       		.byte	0
 2696 007c 00       		.byte	0
 2697 007d 0C       		.uleb128 0xc
 2698 007e 01       		.uleb128 0x1
 2699 007f 01       		.byte	0x1
 2700 0080 49       		.uleb128 0x49
 2701 0081 13       		.uleb128 0x13
 2702 0082 01       		.uleb128 0x1
 2703 0083 13       		.uleb128 0x13
 2704 0084 00       		.byte	0
 2705 0085 00       		.byte	0
 2706 0086 0D       		.uleb128 0xd
 2707 0087 21       		.uleb128 0x21
 2708 0088 00       		.byte	0
 2709 0089 49       		.uleb128 0x49
 2710 008a 13       		.uleb128 0x13
 2711 008b 2F       		.uleb128 0x2f
 2712 008c 0B       		.uleb128 0xb
 2713 008d 00       		.byte	0
 2714 008e 00       		.byte	0
 2715 008f 0E       		.uleb128 0xe
 2716 0090 13       		.uleb128 0x13
 2717 0091 01       		.byte	0x1
 2718 0092 0B       		.uleb128 0xb
 2719 0093 0B       		.uleb128 0xb
 2720 0094 3A       		.uleb128 0x3a
 2721 0095 0B       		.uleb128 0xb
 2722 0096 3B       		.uleb128 0x3b
 2723 0097 0B       		.uleb128 0xb
 2724 0098 01       		.uleb128 0x1
 2725 0099 13       		.uleb128 0x13
 2726 009a 00       		.byte	0
 2727 009b 00       		.byte	0
 2728 009c 0F       		.uleb128 0xf
 2729 009d 0D       		.uleb128 0xd
 2730 009e 00       		.byte	0
 2731 009f 03       		.uleb128 0x3
 2732 00a0 0E       		.uleb128 0xe
 2733 00a1 3A       		.uleb128 0x3a
 2734 00a2 0B       		.uleb128 0xb
 2735 00a3 3B       		.uleb128 0x3b
 2736 00a4 0B       		.uleb128 0xb
ARM GAS  /tmp/ccRbSNsM.s 			page 49


 2737 00a5 49       		.uleb128 0x49
 2738 00a6 13       		.uleb128 0x13
 2739 00a7 38       		.uleb128 0x38
 2740 00a8 0B       		.uleb128 0xb
 2741 00a9 00       		.byte	0
 2742 00aa 00       		.byte	0
 2743 00ab 10       		.uleb128 0x10
 2744 00ac 13       		.uleb128 0x13
 2745 00ad 01       		.byte	0x1
 2746 00ae 03       		.uleb128 0x3
 2747 00af 0E       		.uleb128 0xe
 2748 00b0 0B       		.uleb128 0xb
 2749 00b1 0B       		.uleb128 0xb
 2750 00b2 3A       		.uleb128 0x3a
 2751 00b3 0B       		.uleb128 0xb
 2752 00b4 3B       		.uleb128 0x3b
 2753 00b5 0B       		.uleb128 0xb
 2754 00b6 01       		.uleb128 0x1
 2755 00b7 13       		.uleb128 0x13
 2756 00b8 00       		.byte	0
 2757 00b9 00       		.byte	0
 2758 00ba 11       		.uleb128 0x11
 2759 00bb 0D       		.uleb128 0xd
 2760 00bc 00       		.byte	0
 2761 00bd 03       		.uleb128 0x3
 2762 00be 08       		.uleb128 0x8
 2763 00bf 3A       		.uleb128 0x3a
 2764 00c0 0B       		.uleb128 0xb
 2765 00c1 3B       		.uleb128 0x3b
 2766 00c2 0B       		.uleb128 0xb
 2767 00c3 49       		.uleb128 0x49
 2768 00c4 13       		.uleb128 0x13
 2769 00c5 38       		.uleb128 0x38
 2770 00c6 0B       		.uleb128 0xb
 2771 00c7 00       		.byte	0
 2772 00c8 00       		.byte	0
 2773 00c9 12       		.uleb128 0x12
 2774 00ca 13       		.uleb128 0x13
 2775 00cb 01       		.byte	0x1
 2776 00cc 03       		.uleb128 0x3
 2777 00cd 0E       		.uleb128 0xe
 2778 00ce 0B       		.uleb128 0xb
 2779 00cf 05       		.uleb128 0x5
 2780 00d0 3A       		.uleb128 0x3a
 2781 00d1 0B       		.uleb128 0xb
 2782 00d2 3B       		.uleb128 0x3b
 2783 00d3 0B       		.uleb128 0xb
 2784 00d4 01       		.uleb128 0x1
 2785 00d5 13       		.uleb128 0x13
 2786 00d6 00       		.byte	0
 2787 00d7 00       		.byte	0
 2788 00d8 13       		.uleb128 0x13
 2789 00d9 0D       		.uleb128 0xd
 2790 00da 00       		.byte	0
 2791 00db 03       		.uleb128 0x3
 2792 00dc 0E       		.uleb128 0xe
 2793 00dd 3A       		.uleb128 0x3a
ARM GAS  /tmp/ccRbSNsM.s 			page 50


 2794 00de 0B       		.uleb128 0xb
 2795 00df 3B       		.uleb128 0x3b
 2796 00e0 0B       		.uleb128 0xb
 2797 00e1 49       		.uleb128 0x49
 2798 00e2 13       		.uleb128 0x13
 2799 00e3 38       		.uleb128 0x38
 2800 00e4 05       		.uleb128 0x5
 2801 00e5 00       		.byte	0
 2802 00e6 00       		.byte	0
 2803 00e7 14       		.uleb128 0x14
 2804 00e8 15       		.uleb128 0x15
 2805 00e9 00       		.byte	0
 2806 00ea 27       		.uleb128 0x27
 2807 00eb 19       		.uleb128 0x19
 2808 00ec 00       		.byte	0
 2809 00ed 00       		.byte	0
 2810 00ee 15       		.uleb128 0x15
 2811 00ef 15       		.uleb128 0x15
 2812 00f0 01       		.byte	0x1
 2813 00f1 27       		.uleb128 0x27
 2814 00f2 19       		.uleb128 0x19
 2815 00f3 49       		.uleb128 0x49
 2816 00f4 13       		.uleb128 0x13
 2817 00f5 01       		.uleb128 0x1
 2818 00f6 13       		.uleb128 0x13
 2819 00f7 00       		.byte	0
 2820 00f8 00       		.byte	0
 2821 00f9 16       		.uleb128 0x16
 2822 00fa 05       		.uleb128 0x5
 2823 00fb 00       		.byte	0
 2824 00fc 49       		.uleb128 0x49
 2825 00fd 13       		.uleb128 0x13
 2826 00fe 00       		.byte	0
 2827 00ff 00       		.byte	0
 2828 0100 17       		.uleb128 0x17
 2829 0101 13       		.uleb128 0x13
 2830 0102 01       		.byte	0x1
 2831 0103 03       		.uleb128 0x3
 2832 0104 0E       		.uleb128 0xe
 2833 0105 0B       		.uleb128 0xb
 2834 0106 05       		.uleb128 0x5
 2835 0107 3A       		.uleb128 0x3a
 2836 0108 0B       		.uleb128 0xb
 2837 0109 3B       		.uleb128 0x3b
 2838 010a 05       		.uleb128 0x5
 2839 010b 01       		.uleb128 0x1
 2840 010c 13       		.uleb128 0x13
 2841 010d 00       		.byte	0
 2842 010e 00       		.byte	0
 2843 010f 18       		.uleb128 0x18
 2844 0110 0D       		.uleb128 0xd
 2845 0111 00       		.byte	0
 2846 0112 03       		.uleb128 0x3
 2847 0113 0E       		.uleb128 0xe
 2848 0114 3A       		.uleb128 0x3a
 2849 0115 0B       		.uleb128 0xb
 2850 0116 3B       		.uleb128 0x3b
ARM GAS  /tmp/ccRbSNsM.s 			page 51


 2851 0117 05       		.uleb128 0x5
 2852 0118 49       		.uleb128 0x49
 2853 0119 13       		.uleb128 0x13
 2854 011a 38       		.uleb128 0x38
 2855 011b 0B       		.uleb128 0xb
 2856 011c 00       		.byte	0
 2857 011d 00       		.byte	0
 2858 011e 19       		.uleb128 0x19
 2859 011f 0D       		.uleb128 0xd
 2860 0120 00       		.byte	0
 2861 0121 03       		.uleb128 0x3
 2862 0122 0E       		.uleb128 0xe
 2863 0123 3A       		.uleb128 0x3a
 2864 0124 0B       		.uleb128 0xb
 2865 0125 3B       		.uleb128 0x3b
 2866 0126 05       		.uleb128 0x5
 2867 0127 49       		.uleb128 0x49
 2868 0128 13       		.uleb128 0x13
 2869 0129 38       		.uleb128 0x38
 2870 012a 05       		.uleb128 0x5
 2871 012b 00       		.byte	0
 2872 012c 00       		.byte	0
 2873 012d 1A       		.uleb128 0x1a
 2874 012e 13       		.uleb128 0x13
 2875 012f 01       		.byte	0x1
 2876 0130 03       		.uleb128 0x3
 2877 0131 0E       		.uleb128 0xe
 2878 0132 0B       		.uleb128 0xb
 2879 0133 0B       		.uleb128 0xb
 2880 0134 3A       		.uleb128 0x3a
 2881 0135 0B       		.uleb128 0xb
 2882 0136 3B       		.uleb128 0x3b
 2883 0137 05       		.uleb128 0x5
 2884 0138 01       		.uleb128 0x1
 2885 0139 13       		.uleb128 0x13
 2886 013a 00       		.byte	0
 2887 013b 00       		.byte	0
 2888 013c 1B       		.uleb128 0x1b
 2889 013d 13       		.uleb128 0x13
 2890 013e 01       		.byte	0x1
 2891 013f 0B       		.uleb128 0xb
 2892 0140 0B       		.uleb128 0xb
 2893 0141 3A       		.uleb128 0x3a
 2894 0142 0B       		.uleb128 0xb
 2895 0143 3B       		.uleb128 0x3b
 2896 0144 05       		.uleb128 0x5
 2897 0145 01       		.uleb128 0x1
 2898 0146 13       		.uleb128 0x13
 2899 0147 00       		.byte	0
 2900 0148 00       		.byte	0
 2901 0149 1C       		.uleb128 0x1c
 2902 014a 17       		.uleb128 0x17
 2903 014b 01       		.byte	0x1
 2904 014c 0B       		.uleb128 0xb
 2905 014d 0B       		.uleb128 0xb
 2906 014e 3A       		.uleb128 0x3a
 2907 014f 0B       		.uleb128 0xb
ARM GAS  /tmp/ccRbSNsM.s 			page 52


 2908 0150 3B       		.uleb128 0x3b
 2909 0151 05       		.uleb128 0x5
 2910 0152 01       		.uleb128 0x1
 2911 0153 13       		.uleb128 0x13
 2912 0154 00       		.byte	0
 2913 0155 00       		.byte	0
 2914 0156 1D       		.uleb128 0x1d
 2915 0157 0D       		.uleb128 0xd
 2916 0158 00       		.byte	0
 2917 0159 03       		.uleb128 0x3
 2918 015a 0E       		.uleb128 0xe
 2919 015b 3A       		.uleb128 0x3a
 2920 015c 0B       		.uleb128 0xb
 2921 015d 3B       		.uleb128 0x3b
 2922 015e 05       		.uleb128 0x5
 2923 015f 49       		.uleb128 0x49
 2924 0160 13       		.uleb128 0x13
 2925 0161 00       		.byte	0
 2926 0162 00       		.byte	0
 2927 0163 1E       		.uleb128 0x1e
 2928 0164 15       		.uleb128 0x15
 2929 0165 01       		.byte	0x1
 2930 0166 27       		.uleb128 0x27
 2931 0167 19       		.uleb128 0x19
 2932 0168 01       		.uleb128 0x1
 2933 0169 13       		.uleb128 0x13
 2934 016a 00       		.byte	0
 2935 016b 00       		.byte	0
 2936 016c 1F       		.uleb128 0x1f
 2937 016d 34       		.uleb128 0x34
 2938 016e 00       		.byte	0
 2939 016f 03       		.uleb128 0x3
 2940 0170 0E       		.uleb128 0xe
 2941 0171 3A       		.uleb128 0x3a
 2942 0172 0B       		.uleb128 0xb
 2943 0173 3B       		.uleb128 0x3b
 2944 0174 05       		.uleb128 0x5
 2945 0175 49       		.uleb128 0x49
 2946 0176 13       		.uleb128 0x13
 2947 0177 3F       		.uleb128 0x3f
 2948 0178 19       		.uleb128 0x19
 2949 0179 3C       		.uleb128 0x3c
 2950 017a 19       		.uleb128 0x19
 2951 017b 00       		.byte	0
 2952 017c 00       		.byte	0
 2953 017d 20       		.uleb128 0x20
 2954 017e 34       		.uleb128 0x34
 2955 017f 00       		.byte	0
 2956 0180 03       		.uleb128 0x3
 2957 0181 0E       		.uleb128 0xe
 2958 0182 3A       		.uleb128 0x3a
 2959 0183 0B       		.uleb128 0xb
 2960 0184 3B       		.uleb128 0x3b
 2961 0185 0B       		.uleb128 0xb
 2962 0186 49       		.uleb128 0x49
 2963 0187 13       		.uleb128 0x13
 2964 0188 3F       		.uleb128 0x3f
ARM GAS  /tmp/ccRbSNsM.s 			page 53


 2965 0189 19       		.uleb128 0x19
 2966 018a 02       		.uleb128 0x2
 2967 018b 18       		.uleb128 0x18
 2968 018c 00       		.byte	0
 2969 018d 00       		.byte	0
 2970 018e 21       		.uleb128 0x21
 2971 018f 2E       		.uleb128 0x2e
 2972 0190 01       		.byte	0x1
 2973 0191 3F       		.uleb128 0x3f
 2974 0192 19       		.uleb128 0x19
 2975 0193 03       		.uleb128 0x3
 2976 0194 0E       		.uleb128 0xe
 2977 0195 3A       		.uleb128 0x3a
 2978 0196 0B       		.uleb128 0xb
 2979 0197 3B       		.uleb128 0x3b
 2980 0198 0B       		.uleb128 0xb
 2981 0199 27       		.uleb128 0x27
 2982 019a 19       		.uleb128 0x19
 2983 019b 49       		.uleb128 0x49
 2984 019c 13       		.uleb128 0x13
 2985 019d 11       		.uleb128 0x11
 2986 019e 01       		.uleb128 0x1
 2987 019f 12       		.uleb128 0x12
 2988 01a0 06       		.uleb128 0x6
 2989 01a1 40       		.uleb128 0x40
 2990 01a2 18       		.uleb128 0x18
 2991 01a3 9742     		.uleb128 0x2117
 2992 01a5 19       		.uleb128 0x19
 2993 01a6 01       		.uleb128 0x1
 2994 01a7 13       		.uleb128 0x13
 2995 01a8 00       		.byte	0
 2996 01a9 00       		.byte	0
 2997 01aa 22       		.uleb128 0x22
 2998 01ab 05       		.uleb128 0x5
 2999 01ac 00       		.byte	0
 3000 01ad 03       		.uleb128 0x3
 3001 01ae 0E       		.uleb128 0xe
 3002 01af 3A       		.uleb128 0x3a
 3003 01b0 0B       		.uleb128 0xb
 3004 01b1 3B       		.uleb128 0x3b
 3005 01b2 0B       		.uleb128 0xb
 3006 01b3 49       		.uleb128 0x49
 3007 01b4 13       		.uleb128 0x13
 3008 01b5 02       		.uleb128 0x2
 3009 01b6 17       		.uleb128 0x17
 3010 01b7 00       		.byte	0
 3011 01b8 00       		.byte	0
 3012 01b9 23       		.uleb128 0x23
 3013 01ba 34       		.uleb128 0x34
 3014 01bb 00       		.byte	0
 3015 01bc 03       		.uleb128 0x3
 3016 01bd 0E       		.uleb128 0xe
 3017 01be 3A       		.uleb128 0x3a
 3018 01bf 0B       		.uleb128 0xb
 3019 01c0 3B       		.uleb128 0x3b
 3020 01c1 0B       		.uleb128 0xb
 3021 01c2 49       		.uleb128 0x49
ARM GAS  /tmp/ccRbSNsM.s 			page 54


 3022 01c3 13       		.uleb128 0x13
 3023 01c4 02       		.uleb128 0x2
 3024 01c5 17       		.uleb128 0x17
 3025 01c6 00       		.byte	0
 3026 01c7 00       		.byte	0
 3027 01c8 24       		.uleb128 0x24
 3028 01c9 34       		.uleb128 0x34
 3029 01ca 00       		.byte	0
 3030 01cb 03       		.uleb128 0x3
 3031 01cc 08       		.uleb128 0x8
 3032 01cd 3A       		.uleb128 0x3a
 3033 01ce 0B       		.uleb128 0xb
 3034 01cf 3B       		.uleb128 0x3b
 3035 01d0 0B       		.uleb128 0xb
 3036 01d1 49       		.uleb128 0x49
 3037 01d2 13       		.uleb128 0x13
 3038 01d3 02       		.uleb128 0x2
 3039 01d4 17       		.uleb128 0x17
 3040 01d5 00       		.byte	0
 3041 01d6 00       		.byte	0
 3042 01d7 25       		.uleb128 0x25
 3043 01d8 0B       		.uleb128 0xb
 3044 01d9 01       		.byte	0x1
 3045 01da 55       		.uleb128 0x55
 3046 01db 17       		.uleb128 0x17
 3047 01dc 01       		.uleb128 0x1
 3048 01dd 13       		.uleb128 0x13
 3049 01de 00       		.byte	0
 3050 01df 00       		.byte	0
 3051 01e0 26       		.uleb128 0x26
 3052 01e1 1D       		.uleb128 0x1d
 3053 01e2 01       		.byte	0x1
 3054 01e3 31       		.uleb128 0x31
 3055 01e4 13       		.uleb128 0x13
 3056 01e5 11       		.uleb128 0x11
 3057 01e6 01       		.uleb128 0x1
 3058 01e7 12       		.uleb128 0x12
 3059 01e8 06       		.uleb128 0x6
 3060 01e9 58       		.uleb128 0x58
 3061 01ea 0B       		.uleb128 0xb
 3062 01eb 59       		.uleb128 0x59
 3063 01ec 0B       		.uleb128 0xb
 3064 01ed 01       		.uleb128 0x1
 3065 01ee 13       		.uleb128 0x13
 3066 01ef 00       		.byte	0
 3067 01f0 00       		.byte	0
 3068 01f1 27       		.uleb128 0x27
 3069 01f2 05       		.uleb128 0x5
 3070 01f3 00       		.byte	0
 3071 01f4 31       		.uleb128 0x31
 3072 01f5 13       		.uleb128 0x13
 3073 01f6 00       		.byte	0
 3074 01f7 00       		.byte	0
 3075 01f8 28       		.uleb128 0x28
 3076 01f9 898201   		.uleb128 0x4109
 3077 01fc 01       		.byte	0x1
 3078 01fd 11       		.uleb128 0x11
ARM GAS  /tmp/ccRbSNsM.s 			page 55


 3079 01fe 01       		.uleb128 0x1
 3080 01ff 31       		.uleb128 0x31
 3081 0200 13       		.uleb128 0x13
 3082 0201 01       		.uleb128 0x1
 3083 0202 13       		.uleb128 0x13
 3084 0203 00       		.byte	0
 3085 0204 00       		.byte	0
 3086 0205 29       		.uleb128 0x29
 3087 0206 8A8201   		.uleb128 0x410a
 3088 0209 00       		.byte	0
 3089 020a 02       		.uleb128 0x2
 3090 020b 18       		.uleb128 0x18
 3091 020c 9142     		.uleb128 0x2111
 3092 020e 18       		.uleb128 0x18
 3093 020f 00       		.byte	0
 3094 0210 00       		.byte	0
 3095 0211 2A       		.uleb128 0x2a
 3096 0212 898201   		.uleb128 0x4109
 3097 0215 01       		.byte	0x1
 3098 0216 11       		.uleb128 0x11
 3099 0217 01       		.uleb128 0x1
 3100 0218 31       		.uleb128 0x31
 3101 0219 13       		.uleb128 0x13
 3102 021a 00       		.byte	0
 3103 021b 00       		.byte	0
 3104 021c 2B       		.uleb128 0x2b
 3105 021d 1D       		.uleb128 0x1d
 3106 021e 01       		.byte	0x1
 3107 021f 31       		.uleb128 0x31
 3108 0220 13       		.uleb128 0x13
 3109 0221 52       		.uleb128 0x52
 3110 0222 01       		.uleb128 0x1
 3111 0223 55       		.uleb128 0x55
 3112 0224 17       		.uleb128 0x17
 3113 0225 58       		.uleb128 0x58
 3114 0226 0B       		.uleb128 0xb
 3115 0227 59       		.uleb128 0x59
 3116 0228 0B       		.uleb128 0xb
 3117 0229 01       		.uleb128 0x1
 3118 022a 13       		.uleb128 0x13
 3119 022b 00       		.byte	0
 3120 022c 00       		.byte	0
 3121 022d 2C       		.uleb128 0x2c
 3122 022e 05       		.uleb128 0x5
 3123 022f 00       		.byte	0
 3124 0230 31       		.uleb128 0x31
 3125 0231 13       		.uleb128 0x13
 3126 0232 02       		.uleb128 0x2
 3127 0233 17       		.uleb128 0x17
 3128 0234 00       		.byte	0
 3129 0235 00       		.byte	0
 3130 0236 2D       		.uleb128 0x2d
 3131 0237 05       		.uleb128 0x5
 3132 0238 00       		.byte	0
 3133 0239 03       		.uleb128 0x3
 3134 023a 08       		.uleb128 0x8
 3135 023b 3A       		.uleb128 0x3a
ARM GAS  /tmp/ccRbSNsM.s 			page 56


 3136 023c 0B       		.uleb128 0xb
 3137 023d 3B       		.uleb128 0x3b
 3138 023e 0B       		.uleb128 0xb
 3139 023f 49       		.uleb128 0x49
 3140 0240 13       		.uleb128 0x13
 3141 0241 02       		.uleb128 0x2
 3142 0242 17       		.uleb128 0x17
 3143 0243 00       		.byte	0
 3144 0244 00       		.byte	0
 3145 0245 2E       		.uleb128 0x2e
 3146 0246 898201   		.uleb128 0x4109
 3147 0249 00       		.byte	0
 3148 024a 11       		.uleb128 0x11
 3149 024b 01       		.uleb128 0x1
 3150 024c 31       		.uleb128 0x31
 3151 024d 13       		.uleb128 0x13
 3152 024e 00       		.byte	0
 3153 024f 00       		.byte	0
 3154 0250 2F       		.uleb128 0x2f
 3155 0251 898201   		.uleb128 0x4109
 3156 0254 00       		.byte	0
 3157 0255 11       		.uleb128 0x11
 3158 0256 01       		.uleb128 0x1
 3159 0257 9542     		.uleb128 0x2115
 3160 0259 19       		.uleb128 0x19
 3161 025a 31       		.uleb128 0x31
 3162 025b 13       		.uleb128 0x13
 3163 025c 00       		.byte	0
 3164 025d 00       		.byte	0
 3165 025e 30       		.uleb128 0x30
 3166 025f 1D       		.uleb128 0x1d
 3167 0260 01       		.byte	0x1
 3168 0261 31       		.uleb128 0x31
 3169 0262 13       		.uleb128 0x13
 3170 0263 52       		.uleb128 0x52
 3171 0264 01       		.uleb128 0x1
 3172 0265 55       		.uleb128 0x55
 3173 0266 17       		.uleb128 0x17
 3174 0267 58       		.uleb128 0x58
 3175 0268 0B       		.uleb128 0xb
 3176 0269 59       		.uleb128 0x59
 3177 026a 0B       		.uleb128 0xb
 3178 026b 00       		.byte	0
 3179 026c 00       		.byte	0
 3180 026d 31       		.uleb128 0x31
 3181 026e 2E       		.uleb128 0x2e
 3182 026f 00       		.byte	0
 3183 0270 3F       		.uleb128 0x3f
 3184 0271 19       		.uleb128 0x19
 3185 0272 03       		.uleb128 0x3
 3186 0273 0E       		.uleb128 0xe
 3187 0274 3A       		.uleb128 0x3a
 3188 0275 0B       		.uleb128 0xb
 3189 0276 3B       		.uleb128 0x3b
 3190 0277 0B       		.uleb128 0xb
 3191 0278 27       		.uleb128 0x27
 3192 0279 19       		.uleb128 0x19
ARM GAS  /tmp/ccRbSNsM.s 			page 57


 3193 027a 49       		.uleb128 0x49
 3194 027b 13       		.uleb128 0x13
 3195 027c 11       		.uleb128 0x11
 3196 027d 01       		.uleb128 0x1
 3197 027e 12       		.uleb128 0x12
 3198 027f 06       		.uleb128 0x6
 3199 0280 40       		.uleb128 0x40
 3200 0281 18       		.uleb128 0x18
 3201 0282 9742     		.uleb128 0x2117
 3202 0284 19       		.uleb128 0x19
 3203 0285 00       		.byte	0
 3204 0286 00       		.byte	0
 3205 0287 32       		.uleb128 0x32
 3206 0288 2E       		.uleb128 0x2e
 3207 0289 01       		.byte	0x1
 3208 028a 03       		.uleb128 0x3
 3209 028b 0E       		.uleb128 0xe
 3210 028c 3A       		.uleb128 0x3a
 3211 028d 0B       		.uleb128 0xb
 3212 028e 3B       		.uleb128 0x3b
 3213 028f 05       		.uleb128 0x5
 3214 0290 27       		.uleb128 0x27
 3215 0291 19       		.uleb128 0x19
 3216 0292 49       		.uleb128 0x49
 3217 0293 13       		.uleb128 0x13
 3218 0294 20       		.uleb128 0x20
 3219 0295 0B       		.uleb128 0xb
 3220 0296 01       		.uleb128 0x1
 3221 0297 13       		.uleb128 0x13
 3222 0298 00       		.byte	0
 3223 0299 00       		.byte	0
 3224 029a 33       		.uleb128 0x33
 3225 029b 05       		.uleb128 0x5
 3226 029c 00       		.byte	0
 3227 029d 03       		.uleb128 0x3
 3228 029e 08       		.uleb128 0x8
 3229 029f 3A       		.uleb128 0x3a
 3230 02a0 0B       		.uleb128 0xb
 3231 02a1 3B       		.uleb128 0x3b
 3232 02a2 05       		.uleb128 0x5
 3233 02a3 49       		.uleb128 0x49
 3234 02a4 13       		.uleb128 0x13
 3235 02a5 00       		.byte	0
 3236 02a6 00       		.byte	0
 3237 02a7 34       		.uleb128 0x34
 3238 02a8 2E       		.uleb128 0x2e
 3239 02a9 00       		.byte	0
 3240 02aa 3F       		.uleb128 0x3f
 3241 02ab 19       		.uleb128 0x19
 3242 02ac 3C       		.uleb128 0x3c
 3243 02ad 19       		.uleb128 0x19
 3244 02ae 6E       		.uleb128 0x6e
 3245 02af 0E       		.uleb128 0xe
 3246 02b0 03       		.uleb128 0x3
 3247 02b1 0E       		.uleb128 0xe
 3248 02b2 3A       		.uleb128 0x3a
 3249 02b3 0B       		.uleb128 0xb
ARM GAS  /tmp/ccRbSNsM.s 			page 58


 3250 02b4 3B       		.uleb128 0x3b
 3251 02b5 05       		.uleb128 0x5
 3252 02b6 00       		.byte	0
 3253 02b7 00       		.byte	0
 3254 02b8 00       		.byte	0
 3255              		.section	.debug_loc,"",%progbits
 3256              	.Ldebug_loc0:
 3257              	.LLST21:
 3258 0000 00000000 		.4byte	.LVL67
 3259 0004 0B000000 		.4byte	.LVL69-1
 3260 0008 0100     		.2byte	0x1
 3261 000a 50       		.byte	0x50
 3262 000b 0B000000 		.4byte	.LVL69-1
 3263 000f 1C000000 		.4byte	.LVL72
 3264 0013 0100     		.2byte	0x1
 3265 0015 55       		.byte	0x55
 3266 0016 1C000000 		.4byte	.LVL72
 3267 001a 84000000 		.4byte	.LVL85
 3268 001e 0400     		.2byte	0x4
 3269 0020 F3       		.byte	0xf3
 3270 0021 01       		.uleb128 0x1
 3271 0022 50       		.byte	0x50
 3272 0023 9F       		.byte	0x9f
 3273 0024 84000000 		.4byte	.LVL85
 3274 0028 8A000000 		.4byte	.LVL87
 3275 002c 0100     		.2byte	0x1
 3276 002e 55       		.byte	0x55
 3277 002f 8A000000 		.4byte	.LVL87
 3278 0033 90000000 		.4byte	.LFE43
 3279 0037 0400     		.2byte	0x4
 3280 0039 F3       		.byte	0xf3
 3281 003a 01       		.uleb128 0x1
 3282 003b 50       		.byte	0x50
 3283 003c 9F       		.byte	0x9f
 3284 003d 00000000 		.4byte	0
 3285 0041 00000000 		.4byte	0
 3286              	.LLST22:
 3287 0045 00000000 		.4byte	.LVL67
 3288 0049 0B000000 		.4byte	.LVL69-1
 3289 004d 0100     		.2byte	0x1
 3290 004f 51       		.byte	0x51
 3291 0050 0B000000 		.4byte	.LVL69-1
 3292 0054 1C000000 		.4byte	.LVL72
 3293 0058 0100     		.2byte	0x1
 3294 005a 56       		.byte	0x56
 3295 005b 1C000000 		.4byte	.LVL72
 3296 005f 84000000 		.4byte	.LVL85
 3297 0063 0400     		.2byte	0x4
 3298 0065 F3       		.byte	0xf3
 3299 0066 01       		.uleb128 0x1
 3300 0067 51       		.byte	0x51
 3301 0068 9F       		.byte	0x9f
 3302 0069 84000000 		.4byte	.LVL85
 3303 006d 8A000000 		.4byte	.LVL87
 3304 0071 0100     		.2byte	0x1
 3305 0073 56       		.byte	0x56
 3306 0074 8A000000 		.4byte	.LVL87
ARM GAS  /tmp/ccRbSNsM.s 			page 59


 3307 0078 90000000 		.4byte	.LFE43
 3308 007c 0400     		.2byte	0x4
 3309 007e F3       		.byte	0xf3
 3310 007f 01       		.uleb128 0x1
 3311 0080 51       		.byte	0x51
 3312 0081 9F       		.byte	0x9f
 3313 0082 00000000 		.4byte	0
 3314 0086 00000000 		.4byte	0
 3315              	.LLST23:
 3316 008a 00000000 		.4byte	.LVL67
 3317 008e 0B000000 		.4byte	.LVL69-1
 3318 0092 0100     		.2byte	0x1
 3319 0094 52       		.byte	0x52
 3320 0095 0B000000 		.4byte	.LVL69-1
 3321 0099 1C000000 		.4byte	.LVL72
 3322 009d 0100     		.2byte	0x1
 3323 009f 54       		.byte	0x54
 3324 00a0 1C000000 		.4byte	.LVL72
 3325 00a4 84000000 		.4byte	.LVL85
 3326 00a8 0400     		.2byte	0x4
 3327 00aa F3       		.byte	0xf3
 3328 00ab 01       		.uleb128 0x1
 3329 00ac 52       		.byte	0x52
 3330 00ad 9F       		.byte	0x9f
 3331 00ae 84000000 		.4byte	.LVL85
 3332 00b2 86000000 		.4byte	.LVL86
 3333 00b6 0100     		.2byte	0x1
 3334 00b8 54       		.byte	0x54
 3335 00b9 86000000 		.4byte	.LVL86
 3336 00bd 90000000 		.4byte	.LFE43
 3337 00c1 0400     		.2byte	0x4
 3338 00c3 F3       		.byte	0xf3
 3339 00c4 01       		.uleb128 0x1
 3340 00c5 52       		.byte	0x52
 3341 00c6 9F       		.byte	0x9f
 3342 00c7 00000000 		.4byte	0
 3343 00cb 00000000 		.4byte	0
 3344              	.LLST24:
 3345 00cf 08000000 		.4byte	.LVL68
 3346 00d3 0B000000 		.4byte	.LVL69-1
 3347 00d7 0100     		.2byte	0x1
 3348 00d9 50       		.byte	0x50
 3349 00da 0B000000 		.4byte	.LVL69-1
 3350 00de 74000000 		.4byte	.LVL80
 3351 00e2 0100     		.2byte	0x1
 3352 00e4 55       		.byte	0x55
 3353 00e5 74000000 		.4byte	.LVL80
 3354 00e9 76000000 		.4byte	.LVL81
 3355 00ed 0100     		.2byte	0x1
 3356 00ef 50       		.byte	0x50
 3357 00f0 76000000 		.4byte	.LVL81
 3358 00f4 90000000 		.4byte	.LFE43
 3359 00f8 0100     		.2byte	0x1
 3360 00fa 55       		.byte	0x55
 3361 00fb 00000000 		.4byte	0
 3362 00ff 00000000 		.4byte	0
 3363              	.LLST25:
ARM GAS  /tmp/ccRbSNsM.s 			page 60


 3364 0103 08000000 		.4byte	.LVL68
 3365 0107 0B000000 		.4byte	.LVL69-1
 3366 010b 0100     		.2byte	0x1
 3367 010d 51       		.byte	0x51
 3368 010e 0B000000 		.4byte	.LVL69-1
 3369 0112 7E000000 		.4byte	.LVL83
 3370 0116 0100     		.2byte	0x1
 3371 0118 56       		.byte	0x56
 3372 0119 7E000000 		.4byte	.LVL83
 3373 011d 80000000 		.4byte	.LVL84
 3374 0121 0100     		.2byte	0x1
 3375 0123 50       		.byte	0x50
 3376 0124 80000000 		.4byte	.LVL84
 3377 0128 90000000 		.4byte	.LFE43
 3378 012c 0100     		.2byte	0x1
 3379 012e 56       		.byte	0x56
 3380 012f 00000000 		.4byte	0
 3381 0133 00000000 		.4byte	0
 3382              	.LLST26:
 3383 0137 18000000 		.4byte	.LVL71
 3384 013b 64000000 		.4byte	.LVL77
 3385 013f 0100     		.2byte	0x1
 3386 0141 54       		.byte	0x54
 3387 0142 64000000 		.4byte	.LVL77
 3388 0146 6E000000 		.4byte	.LVL78
 3389 014a 0100     		.2byte	0x1
 3390 014c 50       		.byte	0x50
 3391 014d 6E000000 		.4byte	.LVL78
 3392 0151 84000000 		.4byte	.LVL85
 3393 0155 0100     		.2byte	0x1
 3394 0157 54       		.byte	0x54
 3395 0158 8A000000 		.4byte	.LVL87
 3396 015c 8C000000 		.4byte	.LVL88
 3397 0160 0100     		.2byte	0x1
 3398 0162 54       		.byte	0x54
 3399 0163 00000000 		.4byte	0
 3400 0167 00000000 		.4byte	0
 3401              	.LLST28:
 3402 016b 3C000000 		.4byte	.LVL75
 3403 016f 55000000 		.4byte	.LVL76-1
 3404 0173 0100     		.2byte	0x1
 3405 0175 50       		.byte	0x50
 3406 0176 00000000 		.4byte	0
 3407 017a 00000000 		.4byte	0
 3408              	.LLST27:
 3409 017e 18000000 		.4byte	.LVL71
 3410 0182 1C000000 		.4byte	.LVL72
 3411 0186 0100     		.2byte	0x1
 3412 0188 55       		.byte	0x55
 3413 0189 7E000000 		.4byte	.LVL83
 3414 018d 80000000 		.4byte	.LVL84
 3415 0191 0100     		.2byte	0x1
 3416 0193 55       		.byte	0x55
 3417 0194 00000000 		.4byte	0
 3418 0198 00000000 		.4byte	0
 3419              	.LLST16:
 3420 019c 00000000 		.4byte	.LVL52
ARM GAS  /tmp/ccRbSNsM.s 			page 61


 3421 01a0 1A000000 		.4byte	.LVL54
 3422 01a4 0100     		.2byte	0x1
 3423 01a6 50       		.byte	0x50
 3424 01a7 1A000000 		.4byte	.LVL54
 3425 01ab 3E000000 		.4byte	.LVL60
 3426 01af 0100     		.2byte	0x1
 3427 01b1 55       		.byte	0x55
 3428 01b2 3E000000 		.4byte	.LVL60
 3429 01b6 44000000 		.4byte	.LVL62
 3430 01ba 0400     		.2byte	0x4
 3431 01bc F3       		.byte	0xf3
 3432 01bd 01       		.uleb128 0x1
 3433 01be 50       		.byte	0x50
 3434 01bf 9F       		.byte	0x9f
 3435 01c0 44000000 		.4byte	.LVL62
 3436 01c4 48000000 		.4byte	.LVL63
 3437 01c8 0100     		.2byte	0x1
 3438 01ca 50       		.byte	0x50
 3439 01cb 48000000 		.4byte	.LVL63
 3440 01cf 4A000000 		.4byte	.LVL64
 3441 01d3 0400     		.2byte	0x4
 3442 01d5 F3       		.byte	0xf3
 3443 01d6 01       		.uleb128 0x1
 3444 01d7 50       		.byte	0x50
 3445 01d8 9F       		.byte	0x9f
 3446 01d9 4A000000 		.4byte	.LVL64
 3447 01dd 58000000 		.4byte	.LFE42
 3448 01e1 0100     		.2byte	0x1
 3449 01e3 55       		.byte	0x55
 3450 01e4 00000000 		.4byte	0
 3451 01e8 00000000 		.4byte	0
 3452              	.LLST17:
 3453 01ec 00000000 		.4byte	.LVL52
 3454 01f0 1A000000 		.4byte	.LVL54
 3455 01f4 0100     		.2byte	0x1
 3456 01f6 51       		.byte	0x51
 3457 01f7 1A000000 		.4byte	.LVL54
 3458 01fb 3E000000 		.4byte	.LVL60
 3459 01ff 0100     		.2byte	0x1
 3460 0201 56       		.byte	0x56
 3461 0202 3E000000 		.4byte	.LVL60
 3462 0206 44000000 		.4byte	.LVL62
 3463 020a 0400     		.2byte	0x4
 3464 020c F3       		.byte	0xf3
 3465 020d 01       		.uleb128 0x1
 3466 020e 51       		.byte	0x51
 3467 020f 9F       		.byte	0x9f
 3468 0210 44000000 		.4byte	.LVL62
 3469 0214 4A000000 		.4byte	.LVL64
 3470 0218 0100     		.2byte	0x1
 3471 021a 51       		.byte	0x51
 3472 021b 4A000000 		.4byte	.LVL64
 3473 021f 58000000 		.4byte	.LFE42
 3474 0223 0100     		.2byte	0x1
 3475 0225 56       		.byte	0x56
 3476 0226 00000000 		.4byte	0
 3477 022a 00000000 		.4byte	0
ARM GAS  /tmp/ccRbSNsM.s 			page 62


 3478              	.LLST18:
 3479 022e 00000000 		.4byte	.LVL52
 3480 0232 1A000000 		.4byte	.LVL54
 3481 0236 0100     		.2byte	0x1
 3482 0238 52       		.byte	0x52
 3483 0239 1A000000 		.4byte	.LVL54
 3484 023d 3E000000 		.4byte	.LVL60
 3485 0241 0100     		.2byte	0x1
 3486 0243 57       		.byte	0x57
 3487 0244 3E000000 		.4byte	.LVL60
 3488 0248 44000000 		.4byte	.LVL62
 3489 024c 0400     		.2byte	0x4
 3490 024e F3       		.byte	0xf3
 3491 024f 01       		.uleb128 0x1
 3492 0250 52       		.byte	0x52
 3493 0251 9F       		.byte	0x9f
 3494 0252 44000000 		.4byte	.LVL62
 3495 0256 4A000000 		.4byte	.LVL64
 3496 025a 0100     		.2byte	0x1
 3497 025c 52       		.byte	0x52
 3498 025d 4A000000 		.4byte	.LVL64
 3499 0261 58000000 		.4byte	.LFE42
 3500 0265 0100     		.2byte	0x1
 3501 0267 57       		.byte	0x57
 3502 0268 00000000 		.4byte	0
 3503 026c 00000000 		.4byte	0
 3504              	.LLST19:
 3505 0270 00000000 		.4byte	.LVL52
 3506 0274 1F000000 		.4byte	.LVL55-1
 3507 0278 0100     		.2byte	0x1
 3508 027a 50       		.byte	0x50
 3509 027b 1F000000 		.4byte	.LVL55-1
 3510 027f 2A000000 		.4byte	.LVL57
 3511 0283 0100     		.2byte	0x1
 3512 0285 54       		.byte	0x54
 3513 0286 2A000000 		.4byte	.LVL57
 3514 028a 2D000000 		.4byte	.LVL58-1
 3515 028e 0100     		.2byte	0x1
 3516 0290 50       		.byte	0x50
 3517 0291 2D000000 		.4byte	.LVL58-1
 3518 0295 32000000 		.4byte	.LVL59
 3519 0299 0100     		.2byte	0x1
 3520 029b 54       		.byte	0x54
 3521 029c 32000000 		.4byte	.LVL59
 3522 02a0 42000000 		.4byte	.LVL61
 3523 02a4 0100     		.2byte	0x1
 3524 02a6 50       		.byte	0x50
 3525 02a7 44000000 		.4byte	.LVL62
 3526 02ab 48000000 		.4byte	.LVL63
 3527 02af 0100     		.2byte	0x1
 3528 02b1 50       		.byte	0x50
 3529 02b2 48000000 		.4byte	.LVL63
 3530 02b6 4A000000 		.4byte	.LVL64
 3531 02ba 0400     		.2byte	0x4
 3532 02bc F3       		.byte	0xf3
 3533 02bd 01       		.uleb128 0x1
 3534 02be 50       		.byte	0x50
ARM GAS  /tmp/ccRbSNsM.s 			page 63


 3535 02bf 9F       		.byte	0x9f
 3536 02c0 4A000000 		.4byte	.LVL64
 3537 02c4 4D000000 		.4byte	.LVL65-1
 3538 02c8 0100     		.2byte	0x1
 3539 02ca 50       		.byte	0x50
 3540 02cb 4D000000 		.4byte	.LVL65-1
 3541 02cf 58000000 		.4byte	.LFE42
 3542 02d3 0100     		.2byte	0x1
 3543 02d5 54       		.byte	0x54
 3544 02d6 00000000 		.4byte	0
 3545 02da 00000000 		.4byte	0
 3546              	.LLST20:
 3547 02de 00000000 		.4byte	.LVL52
 3548 02e2 06000000 		.4byte	.LVL53
 3549 02e6 0100     		.2byte	0x1
 3550 02e8 50       		.byte	0x50
 3551 02e9 32000000 		.4byte	.LVL59
 3552 02ed 3E000000 		.4byte	.LVL60
 3553 02f1 0100     		.2byte	0x1
 3554 02f3 50       		.byte	0x50
 3555 02f4 44000000 		.4byte	.LVL62
 3556 02f8 48000000 		.4byte	.LVL63
 3557 02fc 0100     		.2byte	0x1
 3558 02fe 50       		.byte	0x50
 3559 02ff 48000000 		.4byte	.LVL63
 3560 0303 4A000000 		.4byte	.LVL64
 3561 0307 0400     		.2byte	0x4
 3562 0309 F3       		.byte	0xf3
 3563 030a 01       		.uleb128 0x1
 3564 030b 50       		.byte	0x50
 3565 030c 9F       		.byte	0x9f
 3566 030d 00000000 		.4byte	0
 3567 0311 00000000 		.4byte	0
 3568              	.LLST9:
 3569 0315 00000000 		.4byte	.LVL31
 3570 0319 06000000 		.4byte	.LVL33
 3571 031d 0100     		.2byte	0x1
 3572 031f 50       		.byte	0x50
 3573 0320 06000000 		.4byte	.LVL33
 3574 0324 84000000 		.4byte	.LFE41
 3575 0328 0100     		.2byte	0x1
 3576 032a 57       		.byte	0x57
 3577 032b 00000000 		.4byte	0
 3578 032f 00000000 		.4byte	0
 3579              	.LLST10:
 3580 0333 00000000 		.4byte	.LVL31
 3581 0337 18000000 		.4byte	.LVL35
 3582 033b 0100     		.2byte	0x1
 3583 033d 51       		.byte	0x51
 3584 033e 18000000 		.4byte	.LVL35
 3585 0342 84000000 		.4byte	.LFE41
 3586 0346 0100     		.2byte	0x1
 3587 0348 55       		.byte	0x55
 3588 0349 00000000 		.4byte	0
 3589 034d 00000000 		.4byte	0
 3590              	.LLST11:
 3591 0351 00000000 		.4byte	.LVL31
ARM GAS  /tmp/ccRbSNsM.s 			page 64


 3592 0355 18000000 		.4byte	.LVL35
 3593 0359 0100     		.2byte	0x1
 3594 035b 52       		.byte	0x52
 3595 035c 18000000 		.4byte	.LVL35
 3596 0360 84000000 		.4byte	.LFE41
 3597 0364 0100     		.2byte	0x1
 3598 0366 56       		.byte	0x56
 3599 0367 00000000 		.4byte	0
 3600 036b 00000000 		.4byte	0
 3601              	.LLST12:
 3602 036f 04000000 		.4byte	.LVL32
 3603 0373 06000000 		.4byte	.LVL33
 3604 0377 0100     		.2byte	0x1
 3605 0379 50       		.byte	0x50
 3606 037a 06000000 		.4byte	.LVL33
 3607 037e 18000000 		.4byte	.LVL35
 3608 0382 0100     		.2byte	0x1
 3609 0384 57       		.byte	0x57
 3610 0385 18000000 		.4byte	.LVL35
 3611 0389 28000000 		.4byte	.LVL38
 3612 038d 0100     		.2byte	0x1
 3613 038f 54       		.byte	0x54
 3614 0390 28000000 		.4byte	.LVL38
 3615 0394 2B000000 		.4byte	.LVL39-1
 3616 0398 0100     		.2byte	0x1
 3617 039a 50       		.byte	0x50
 3618 039b 2B000000 		.4byte	.LVL39-1
 3619 039f 30000000 		.4byte	.LVL40
 3620 03a3 0100     		.2byte	0x1
 3621 03a5 54       		.byte	0x54
 3622 03a6 30000000 		.4byte	.LVL40
 3623 03aa 3C000000 		.4byte	.LVL41
 3624 03ae 0100     		.2byte	0x1
 3625 03b0 50       		.byte	0x50
 3626 03b1 58000000 		.4byte	.LVL44
 3627 03b5 5B000000 		.4byte	.LVL45-1
 3628 03b9 0100     		.2byte	0x1
 3629 03bb 50       		.byte	0x50
 3630 03bc 5B000000 		.4byte	.LVL45-1
 3631 03c0 5E000000 		.4byte	.LVL46
 3632 03c4 0100     		.2byte	0x1
 3633 03c6 54       		.byte	0x54
 3634 03c7 00000000 		.4byte	0
 3635 03cb 00000000 		.4byte	0
 3636              	.LLST13:
 3637 03cf 6E000000 		.4byte	.LVL49
 3638 03d3 82000000 		.4byte	.LVL51
 3639 03d7 0100     		.2byte	0x1
 3640 03d9 50       		.byte	0x50
 3641 03da 00000000 		.4byte	0
 3642 03de 00000000 		.4byte	0
 3643              	.LLST14:
 3644 03e2 52000000 		.4byte	.LVL43
 3645 03e6 58000000 		.4byte	.LVL44
 3646 03ea 0100     		.2byte	0x1
 3647 03ec 50       		.byte	0x50
 3648 03ed 68000000 		.4byte	.LVL48
ARM GAS  /tmp/ccRbSNsM.s 			page 65


 3649 03f1 6D000000 		.4byte	.LVL49-1
 3650 03f5 0100     		.2byte	0x1
 3651 03f7 50       		.byte	0x50
 3652 03f8 6D000000 		.4byte	.LVL49-1
 3653 03fc 80000000 		.4byte	.LVL50
 3654 0400 0100     		.2byte	0x1
 3655 0402 54       		.byte	0x54
 3656 0403 00000000 		.4byte	0
 3657 0407 00000000 		.4byte	0
 3658              	.LLST15:
 3659 040b 04000000 		.4byte	.LVL32
 3660 040f 06000000 		.4byte	.LVL33
 3661 0413 0100     		.2byte	0x1
 3662 0415 50       		.byte	0x50
 3663 0416 06000000 		.4byte	.LVL33
 3664 041a 0C000000 		.4byte	.LVL34
 3665 041e 0100     		.2byte	0x1
 3666 0420 57       		.byte	0x57
 3667 0421 30000000 		.4byte	.LVL40
 3668 0425 3C000000 		.4byte	.LVL41
 3669 0429 0100     		.2byte	0x1
 3670 042b 50       		.byte	0x50
 3671 042c 00000000 		.4byte	0
 3672 0430 00000000 		.4byte	0
 3673              	.LLST5:
 3674 0434 00000000 		.4byte	.LVL14
 3675 0438 12000000 		.4byte	.LVL19
 3676 043c 0100     		.2byte	0x1
 3677 043e 50       		.byte	0x50
 3678 043f 12000000 		.4byte	.LVL19
 3679 0443 44000000 		.4byte	.LVL29
 3680 0447 0100     		.2byte	0x1
 3681 0449 55       		.byte	0x55
 3682 044a 44000000 		.4byte	.LVL29
 3683 044e 48000000 		.4byte	.LFE40
 3684 0452 0400     		.2byte	0x4
 3685 0454 F3       		.byte	0xf3
 3686 0455 01       		.uleb128 0x1
 3687 0456 50       		.byte	0x50
 3688 0457 9F       		.byte	0x9f
 3689 0458 00000000 		.4byte	0
 3690 045c 00000000 		.4byte	0
 3691              	.LLST6:
 3692 0460 00000000 		.4byte	.LVL14
 3693 0464 0C000000 		.4byte	.LVL17
 3694 0468 0100     		.2byte	0x1
 3695 046a 51       		.byte	0x51
 3696 046b 0C000000 		.4byte	.LVL17
 3697 046f 12000000 		.4byte	.LVL19
 3698 0473 0100     		.2byte	0x1
 3699 0475 54       		.byte	0x54
 3700 0476 12000000 		.4byte	.LVL19
 3701 047a 48000000 		.4byte	.LFE40
 3702 047e 0400     		.2byte	0x4
 3703 0480 F3       		.byte	0xf3
 3704 0481 01       		.uleb128 0x1
 3705 0482 51       		.byte	0x51
ARM GAS  /tmp/ccRbSNsM.s 			page 66


 3706 0483 9F       		.byte	0x9f
 3707 0484 00000000 		.4byte	0
 3708 0488 00000000 		.4byte	0
 3709              	.LLST7:
 3710 048c 06000000 		.4byte	.LVL15
 3711 0490 0C000000 		.4byte	.LVL17
 3712 0494 0100     		.2byte	0x1
 3713 0496 51       		.byte	0x51
 3714 0497 0C000000 		.4byte	.LVL17
 3715 049b 28000000 		.4byte	.LVL22
 3716 049f 0100     		.2byte	0x1
 3717 04a1 54       		.byte	0x54
 3718 04a2 28000000 		.4byte	.LVL22
 3719 04a6 2B000000 		.4byte	.LVL23-1
 3720 04aa 0100     		.2byte	0x1
 3721 04ac 50       		.byte	0x50
 3722 04ad 2B000000 		.4byte	.LVL23-1
 3723 04b1 30000000 		.4byte	.LVL24
 3724 04b5 0100     		.2byte	0x1
 3725 04b7 54       		.byte	0x54
 3726 04b8 30000000 		.4byte	.LVL24
 3727 04bc 36000000 		.4byte	.LVL25
 3728 04c0 0100     		.2byte	0x1
 3729 04c2 50       		.byte	0x50
 3730 04c3 36000000 		.4byte	.LVL25
 3731 04c7 3A000000 		.4byte	.LVL26
 3732 04cb 0100     		.2byte	0x1
 3733 04cd 54       		.byte	0x54
 3734 04ce 3C000000 		.4byte	.LVL27
 3735 04d2 3F000000 		.4byte	.LVL28-1
 3736 04d6 0100     		.2byte	0x1
 3737 04d8 50       		.byte	0x50
 3738 04d9 3F000000 		.4byte	.LVL28-1
 3739 04dd 44000000 		.4byte	.LVL29
 3740 04e1 0100     		.2byte	0x1
 3741 04e3 54       		.byte	0x54
 3742 04e4 00000000 		.4byte	0
 3743 04e8 00000000 		.4byte	0
 3744              	.LLST8:
 3745 04ec 0A000000 		.4byte	.LVL16
 3746 04f0 0C000000 		.4byte	.LVL17
 3747 04f4 0100     		.2byte	0x1
 3748 04f6 51       		.byte	0x51
 3749 04f7 0C000000 		.4byte	.LVL17
 3750 04fb 0E000000 		.4byte	.LVL18
 3751 04ff 0100     		.2byte	0x1
 3752 0501 54       		.byte	0x54
 3753 0502 30000000 		.4byte	.LVL24
 3754 0506 36000000 		.4byte	.LVL25
 3755 050a 0100     		.2byte	0x1
 3756 050c 50       		.byte	0x50
 3757 050d 00000000 		.4byte	0
 3758 0511 00000000 		.4byte	0
 3759              	.LLST0:
 3760 0515 00000000 		.4byte	.LVL0
 3761 0519 10000000 		.4byte	.LVL2
 3762 051d 0100     		.2byte	0x1
ARM GAS  /tmp/ccRbSNsM.s 			page 67


 3763 051f 50       		.byte	0x50
 3764 0520 10000000 		.4byte	.LVL2
 3765 0524 5A000000 		.4byte	.LFE39
 3766 0528 0400     		.2byte	0x4
 3767 052a F3       		.byte	0xf3
 3768 052b 01       		.uleb128 0x1
 3769 052c 50       		.byte	0x50
 3770 052d 9F       		.byte	0x9f
 3771 052e 00000000 		.4byte	0
 3772 0532 00000000 		.4byte	0
 3773              	.LLST1:
 3774 0536 00000000 		.4byte	.LVL0
 3775 053a 10000000 		.4byte	.LVL2
 3776 053e 0200     		.2byte	0x2
 3777 0540 30       		.byte	0x30
 3778 0541 9F       		.byte	0x9f
 3779 0542 16000000 		.4byte	.LVL3
 3780 0546 3E000000 		.4byte	.LVL9
 3781 054a 0100     		.2byte	0x1
 3782 054c 55       		.byte	0x55
 3783 054d 3E000000 		.4byte	.LVL9
 3784 0551 46000000 		.4byte	.LVL10
 3785 0555 0100     		.2byte	0x1
 3786 0557 50       		.byte	0x50
 3787 0558 46000000 		.4byte	.LVL10
 3788 055c 56000000 		.4byte	.LVL13
 3789 0560 0100     		.2byte	0x1
 3790 0562 55       		.byte	0x55
 3791 0563 00000000 		.4byte	0
 3792 0567 00000000 		.4byte	0
 3793              	.LLST2:
 3794 056b 00000000 		.4byte	.LVL0
 3795 056f 10000000 		.4byte	.LVL2
 3796 0573 0100     		.2byte	0x1
 3797 0575 50       		.byte	0x50
 3798 0576 16000000 		.4byte	.LVL3
 3799 057a 50000000 		.4byte	.LVL12
 3800 057e 0100     		.2byte	0x1
 3801 0580 54       		.byte	0x54
 3802 0581 50000000 		.4byte	.LVL12
 3803 0585 56000000 		.4byte	.LVL13
 3804 0589 0100     		.2byte	0x1
 3805 058b 50       		.byte	0x50
 3806 058c 00000000 		.4byte	0
 3807 0590 00000000 		.4byte	0
 3808              	.LLST4:
 3809 0594 20000000 		.4byte	.LVL5
 3810 0598 24000000 		.4byte	.LVL6
 3811 059c 0100     		.2byte	0x1
 3812 059e 50       		.byte	0x50
 3813 059f 00000000 		.4byte	0
 3814 05a3 00000000 		.4byte	0
 3815              	.LLST3:
 3816 05a7 00000000 		.4byte	.LVL0
 3817 05ab 0A000000 		.4byte	.LVL1
 3818 05af 0100     		.2byte	0x1
 3819 05b1 50       		.byte	0x50
ARM GAS  /tmp/ccRbSNsM.s 			page 68


 3820 05b2 50000000 		.4byte	.LVL12
 3821 05b6 56000000 		.4byte	.LVL13
 3822 05ba 0100     		.2byte	0x1
 3823 05bc 50       		.byte	0x50
 3824 05bd 00000000 		.4byte	0
 3825 05c1 00000000 		.4byte	0
 3826              		.section	.debug_aranges,"",%progbits
 3827 0000 54000000 		.4byte	0x54
 3828 0004 0200     		.2byte	0x2
 3829 0006 00000000 		.4byte	.Ldebug_info0
 3830 000a 04       		.byte	0x4
 3831 000b 00       		.byte	0
 3832 000c 0000     		.2byte	0
 3833 000e 0000     		.2byte	0
 3834 0010 00000000 		.4byte	.LFB36
 3835 0014 10000000 		.4byte	.LFE36-.LFB36
 3836 0018 00000000 		.4byte	.LFB37
 3837 001c 08000000 		.4byte	.LFE37-.LFB37
 3838 0020 00000000 		.4byte	.LFB38
 3839 0024 0C000000 		.4byte	.LFE38-.LFB38
 3840 0028 00000000 		.4byte	.LFB39
 3841 002c 5A000000 		.4byte	.LFE39-.LFB39
 3842 0030 00000000 		.4byte	.LFB40
 3843 0034 48000000 		.4byte	.LFE40-.LFB40
 3844 0038 00000000 		.4byte	.LFB41
 3845 003c 84000000 		.4byte	.LFE41-.LFB41
 3846 0040 00000000 		.4byte	.LFB42
 3847 0044 58000000 		.4byte	.LFE42-.LFB42
 3848 0048 00000000 		.4byte	.LFB43
 3849 004c 90000000 		.4byte	.LFE43-.LFB43
 3850 0050 00000000 		.4byte	0
 3851 0054 00000000 		.4byte	0
 3852              		.section	.debug_ranges,"",%progbits
 3853              	.Ldebug_ranges0:
 3854 0000 02000000 		.4byte	.LBB48
 3855 0004 0E000000 		.4byte	.LBE48
 3856 0008 4C000000 		.4byte	.LBB57
 3857 000c 4E000000 		.4byte	.LBE57
 3858 0010 50000000 		.4byte	.LBB59
 3859 0014 56000000 		.4byte	.LBE59
 3860 0018 00000000 		.4byte	0
 3861 001c 00000000 		.4byte	0
 3862 0020 16000000 		.4byte	.LBB52
 3863 0024 4C000000 		.4byte	.LBE52
 3864 0028 4E000000 		.4byte	.LBB58
 3865 002c 50000000 		.4byte	.LBE58
 3866 0030 00000000 		.4byte	0
 3867 0034 00000000 		.4byte	0
 3868 0038 0A000000 		.4byte	.LBB60
 3869 003c 12000000 		.4byte	.LBE60
 3870 0040 2C000000 		.4byte	.LBB64
 3871 0044 2E000000 		.4byte	.LBE64
 3872 0048 30000000 		.4byte	.LBB65
 3873 004c 36000000 		.4byte	.LBE65
 3874 0050 00000000 		.4byte	0
 3875 0054 00000000 		.4byte	0
 3876 0058 04000000 		.4byte	.LBB66
ARM GAS  /tmp/ccRbSNsM.s 			page 69


 3877 005c 06000000 		.4byte	.LBE66
 3878 0060 0A000000 		.4byte	.LBB71
 3879 0064 10000000 		.4byte	.LBE71
 3880 0068 2C000000 		.4byte	.LBB72
 3881 006c 2E000000 		.4byte	.LBE72
 3882 0070 30000000 		.4byte	.LBB73
 3883 0074 36000000 		.4byte	.LBE73
 3884 0078 00000000 		.4byte	0
 3885 007c 00000000 		.4byte	0
 3886 0080 00000000 		.4byte	.LBB78
 3887 0084 06000000 		.4byte	.LBE78
 3888 0088 08000000 		.4byte	.LBB83
 3889 008c 0C000000 		.4byte	.LBE83
 3890 0090 2E000000 		.4byte	.LBB84
 3891 0094 30000000 		.4byte	.LBE84
 3892 0098 32000000 		.4byte	.LBB85
 3893 009c 38000000 		.4byte	.LBE85
 3894 00a0 00000000 		.4byte	0
 3895 00a4 00000000 		.4byte	0
 3896 00a8 18000000 		.4byte	.LBB86
 3897 00ac 20000000 		.4byte	.LBE86
 3898 00b0 7A000000 		.4byte	.LBB99
 3899 00b4 7C000000 		.4byte	.LBE99
 3900 00b8 7E000000 		.4byte	.LBB101
 3901 00bc 80000000 		.4byte	.LBE101
 3902 00c0 00000000 		.4byte	0
 3903 00c4 00000000 		.4byte	0
 3904 00c8 26000000 		.4byte	.LBB90
 3905 00cc 7A000000 		.4byte	.LBE90
 3906 00d0 7C000000 		.4byte	.LBB100
 3907 00d4 7E000000 		.4byte	.LBE100
 3908 00d8 8A000000 		.4byte	.LBB102
 3909 00dc 8C000000 		.4byte	.LBE102
 3910 00e0 00000000 		.4byte	0
 3911 00e4 00000000 		.4byte	0
 3912 00e8 00000000 		.4byte	.LFB36
 3913 00ec 10000000 		.4byte	.LFE36
 3914 00f0 00000000 		.4byte	.LFB37
 3915 00f4 08000000 		.4byte	.LFE37
 3916 00f8 00000000 		.4byte	.LFB38
 3917 00fc 0C000000 		.4byte	.LFE38
 3918 0100 00000000 		.4byte	.LFB39
 3919 0104 5A000000 		.4byte	.LFE39
 3920 0108 00000000 		.4byte	.LFB40
 3921 010c 48000000 		.4byte	.LFE40
 3922 0110 00000000 		.4byte	.LFB41
 3923 0114 84000000 		.4byte	.LFE41
 3924 0118 00000000 		.4byte	.LFB42
 3925 011c 58000000 		.4byte	.LFE42
 3926 0120 00000000 		.4byte	.LFB43
 3927 0124 90000000 		.4byte	.LFE43
 3928 0128 00000000 		.4byte	0
 3929 012c 00000000 		.4byte	0
 3930              		.section	.debug_line,"",%progbits
 3931              	.Ldebug_line0:
 3932 0000 10030000 		.section	.debug_str,"MS",%progbits,1
 3932      02001601 
ARM GAS  /tmp/ccRbSNsM.s 			page 70


 3932      00000201 
 3932      FB0E0D00 
 3932      01010101 
 3933              	.LASF47:
 3934 0000 5F64736F 		.ascii	"_dso_handle\000"
 3934      5F68616E 
 3934      646C6500 
 3935              	.LASF155:
 3936 000c 2F626C64 		.ascii	"/bldc\000"
 3936      6300
 3937              	.LASF99:
 3938 0012 5F72616E 		.ascii	"_rand48\000"
 3938      64343800 
 3939              	.LASF79:
 3940 001a 5F656D65 		.ascii	"_emergency\000"
 3940      7267656E 
 3940      637900
 3941              	.LASF69:
 3942 0025 5F646174 		.ascii	"_data\000"
 3942      6100
 3943              	.LASF150:
 3944 002b 6C626D5F 		.ascii	"lbm_cdr\000"
 3944      63647200 
 3945              	.LASF153:
 3946 0033 474E5520 		.ascii	"GNU C99 7.3.1 20180622 (release) [ARM/embedded-7-br"
 3946      43393920 
 3946      372E332E 
 3946      31203230 
 3946      31383036 
 3947 0066 616E6368 		.ascii	"anch revision 261907] -mcpu=cortex-m4 -mfloat-abi=h"
 3947      20726576 
 3947      6973696F 
 3947      6E203236 
 3947      31393037 
 3948 0099 61726420 		.ascii	"ard -mfpu=fpv4-sp-d16 -mno-thumb-interwork -mthumb "
 3948      2D6D6670 
 3948      753D6670 
 3948      76342D73 
 3948      702D6431 
 3949 00cc 2D676764 		.ascii	"-ggdb -O2 -std=gnu99 -fomit-frame-pointer -falign-f"
 3949      62202D4F 
 3949      32202D73 
 3949      74643D67 
 3949      6E753939 
 3950 00ff 756E6374 		.ascii	"unctions=16 -ffunction-sections -fdata-sections -fn"
 3950      696F6E73 
 3950      3D313620 
 3950      2D666675 
 3950      6E637469 
 3951 0132 6F2D636F 		.ascii	"o-common -fsingle-precision-constant\000"
 3951      6D6D6F6E 
 3951      202D6673 
 3951      696E676C 
 3951      652D7072 
 3952              	.LASF119:
 3953 0157 5F776372 		.ascii	"_wcrtomb_state\000"
 3953      746F6D62 
ARM GAS  /tmp/ccRbSNsM.s 			page 71


 3953      5F737461 
 3953      746500
 3954              	.LASF120:
 3955 0166 5F776373 		.ascii	"_wcsrtombs_state\000"
 3955      72746F6D 
 3955      62735F73 
 3955      74617465 
 3955      00
 3956              	.LASF7:
 3957 0177 6C6F6E67 		.ascii	"long long unsigned int\000"
 3957      206C6F6E 
 3957      6720756E 
 3957      7369676E 
 3957      65642069 
 3958              	.LASF59:
 3959 018e 5F6C6266 		.ascii	"_lbfsize\000"
 3959      73697A65 
 3959      00
 3960              	.LASF18:
 3961 0197 5F5F6C6F 		.ascii	"__locale_t\000"
 3961      63616C65 
 3961      5F7400
 3962              	.LASF117:
 3963 01a2 5F6D6272 		.ascii	"_mbrtowc_state\000"
 3963      746F7763 
 3963      5F737461 
 3963      746500
 3964              	.LASF36:
 3965 01b1 5F5F746D 		.ascii	"__tm_sec\000"
 3965      5F736563 
 3965      00
 3966              	.LASF141:
 3967 01ba 6C626D5F 		.ascii	"lbm_env_copy_shallow\000"
 3967      656E765F 
 3967      636F7079 
 3967      5F736861 
 3967      6C6C6F77 
 3968              	.LASF6:
 3969 01cf 6C6F6E67 		.ascii	"long long int\000"
 3969      206C6F6E 
 3969      6720696E 
 3969      7400
 3970              	.LASF0:
 3971 01dd 7369676E 		.ascii	"signed char\000"
 3971      65642063 
 3971      68617200 
 3972              	.LASF12:
 3973 01e9 6C626D5F 		.ascii	"lbm_type\000"
 3973      74797065 
 3973      00
 3974              	.LASF65:
 3975 01f2 5F756275 		.ascii	"_ubuf\000"
 3975      6600
 3976              	.LASF151:
 3977 01f8 6C626D5F 		.ascii	"lbm_list_length\000"
 3977      6C697374 
 3977      5F6C656E 
ARM GAS  /tmp/ccRbSNsM.s 			page 72


 3977      67746800 
 3978              	.LASF54:
 3979 0208 5F626173 		.ascii	"_base\000"
 3979      6500
 3980              	.LASF38:
 3981 020e 5F5F746D 		.ascii	"__tm_hour\000"
 3981      5F686F75 
 3981      7200
 3982              	.LASF94:
 3983 0218 5F5F7366 		.ascii	"__sf\000"
 3983      00
 3984              	.LASF45:
 3985 021d 5F6F6E5F 		.ascii	"_on_exit_args\000"
 3985      65786974 
 3985      5F617267 
 3985      7300
 3986              	.LASF60:
 3987 022b 5F636F6F 		.ascii	"_cookie\000"
 3987      6B696500 
 3988              	.LASF93:
 3989 0233 5F5F7367 		.ascii	"__sglue\000"
 3989      6C756500 
 3990              	.LASF4:
 3991 023b 6C6F6E67 		.ascii	"long int\000"
 3991      20696E74 
 3991      00
 3992              	.LASF57:
 3993 0244 5F666C61 		.ascii	"_flags\000"
 3993      677300
 3994              	.LASF49:
 3995 024b 5F69735F 		.ascii	"_is_cxa\000"
 3995      63786100 
 3996              	.LASF75:
 3997 0253 5F737464 		.ascii	"_stdin\000"
 3997      696E00
 3998              	.LASF67:
 3999 025a 5F626C6B 		.ascii	"_blksize\000"
 3999      73697A65 
 3999      00
 4000              	.LASF139:
 4001 0263 6B657976 		.ascii	"keyval\000"
 4001      616C00
 4002              	.LASF89:
 4003 026a 5F637674 		.ascii	"_cvtbuf\000"
 4003      62756600 
 4004              	.LASF68:
 4005 0272 5F6F6666 		.ascii	"_offset\000"
 4005      73657400 
 4006              	.LASF118:
 4007 027a 5F6D6273 		.ascii	"_mbsrtowcs_state\000"
 4007      72746F77 
 4007      63735F73 
 4007      74617465 
 4007      00
 4008              	.LASF116:
 4009 028b 5F6D6272 		.ascii	"_mbrlen_state\000"
 4009      6C656E5F 
ARM GAS  /tmp/ccRbSNsM.s 			page 73


 4009      73746174 
 4009      6500
 4010              	.LASF46:
 4011 0299 5F666E61 		.ascii	"_fnargs\000"
 4011      72677300 
 4012              	.LASF55:
 4013 02a1 5F73697A 		.ascii	"_size\000"
 4013      6500
 4014              	.LASF127:
 4015 02a7 656E765F 		.ascii	"env_global\000"
 4015      676C6F62 
 4015      616C00
 4016              	.LASF52:
 4017 02b2 5F666E73 		.ascii	"_fns\000"
 4017      00
 4018              	.LASF9:
 4019 02b7 5F5F7569 		.ascii	"__uint32_t\000"
 4019      6E743332 
 4019      5F7400
 4020              	.LASF32:
 4021 02c2 5F736967 		.ascii	"_sign\000"
 4021      6E00
 4022              	.LASF28:
 4023 02c8 5F666C6F 		.ascii	"_flock_t\000"
 4023      636B5F74 
 4023      00
 4024              	.LASF77:
 4025 02d1 5F737464 		.ascii	"_stderr\000"
 4025      65727200 
 4026              	.LASF34:
 4027 02d9 5F426967 		.ascii	"_Bigint\000"
 4027      696E7400 
 4028              	.LASF107:
 4029 02e1 5F67616D 		.ascii	"_gamma_signgam\000"
 4029      6D615F73 
 4029      69676E67 
 4029      616D00
 4030              	.LASF130:
 4031 02f0 656E7630 		.ascii	"env0\000"
 4031      00
 4032              	.LASF61:
 4033 02f5 5F726561 		.ascii	"_read\000"
 4033      6400
 4034              	.LASF85:
 4035 02fb 5F726573 		.ascii	"_result_k\000"
 4035      756C745F 
 4035      6B00
 4036              	.LASF35:
 4037 0305 5F5F746D 		.ascii	"__tm\000"
 4037      00
 4038              	.LASF138:
 4039 030a 6E65775F 		.ascii	"new_env\000"
 4039      656E7600 
 4040              	.LASF8:
 4041 0312 756E7369 		.ascii	"unsigned int\000"
 4041      676E6564 
 4041      20696E74 
ARM GAS  /tmp/ccRbSNsM.s 			page 74


 4041      00
 4042              	.LASF24:
 4043 031f 5F5F7763 		.ascii	"__wchb\000"
 4043      686200
 4044              	.LASF76:
 4045 0326 5F737464 		.ascii	"_stdout\000"
 4045      6F757400 
 4046              	.LASF88:
 4047 032e 5F637674 		.ascii	"_cvtlen\000"
 4047      6C656E00 
 4048              	.LASF5:
 4049 0336 6C6F6E67 		.ascii	"long unsigned int\000"
 4049      20756E73 
 4049      69676E65 
 4049      6420696E 
 4049      7400
 4050              	.LASF58:
 4051 0348 5F66696C 		.ascii	"_file\000"
 4051      6500
 4052              	.LASF146:
 4053 034e 6C626D5F 		.ascii	"lbm_enc_sym\000"
 4053      656E635F 
 4053      73796D00 
 4054              	.LASF97:
 4055 035a 5F6E696F 		.ascii	"_niobs\000"
 4055      627300
 4056              	.LASF3:
 4057 0361 73686F72 		.ascii	"short unsigned int\000"
 4057      7420756E 
 4057      7369676E 
 4057      65642069 
 4057      6E7400
 4058              	.LASF91:
 4059 0374 5F617465 		.ascii	"_atexit0\000"
 4059      78697430 
 4059      00
 4060              	.LASF133:
 4061 037d 656E7472 		.ascii	"entry\000"
 4061      7900
 4062              	.LASF114:
 4063 0383 5F736967 		.ascii	"_signal_buf\000"
 4063      6E616C5F 
 4063      62756600 
 4064              	.LASF105:
 4065 038f 5F617363 		.ascii	"_asctime_buf\000"
 4065      74696D65 
 4065      5F627566 
 4065      00
 4066              	.LASF84:
 4067 039c 5F726573 		.ascii	"_result\000"
 4067      756C7400 
 4068              	.LASF23:
 4069 03a4 5F5F7763 		.ascii	"__wch\000"
 4069      6800
 4070              	.LASF17:
 4071 03aa 5F4C4F43 		.ascii	"_LOCK_T\000"
 4071      4B5F5400 
ARM GAS  /tmp/ccRbSNsM.s 			page 75


 4072              	.LASF132:
 4073 03b2 63757272 		.ascii	"curr_arg\000"
 4073      5F617267 
 4073      00
 4074              	.LASF134:
 4075 03bb 6C626D5F 		.ascii	"lbm_env_build_params_args\000"
 4075      656E765F 
 4075      6275696C 
 4075      645F7061 
 4075      72616D73 
 4076              	.LASF22:
 4077 03d5 77696E74 		.ascii	"wint_t\000"
 4077      5F7400
 4078              	.LASF11:
 4079 03dc 6C626D5F 		.ascii	"lbm_value\000"
 4079      76616C75 
 4079      6500
 4080              	.LASF70:
 4081 03e6 5F6C6F63 		.ascii	"_lock\000"
 4081      6B00
 4082              	.LASF72:
 4083 03ec 5F666C61 		.ascii	"_flags2\000"
 4083      67733200 
 4084              	.LASF154:
 4085 03f4 6C697370 		.ascii	"lispBM/lispBM/src/env.c\000"
 4085      424D2F6C 
 4085      69737042 
 4085      4D2F7372 
 4085      632F656E 
 4086              	.LASF62:
 4087 040c 5F777269 		.ascii	"_write\000"
 4087      746500
 4088              	.LASF41:
 4089 0413 5F5F746D 		.ascii	"__tm_year\000"
 4089      5F796561 
 4089      7200
 4090              	.LASF135:
 4091 041d 6C626D5F 		.ascii	"lbm_env_modify_binding\000"
 4091      656E765F 
 4091      6D6F6469 
 4091      66795F62 
 4091      696E6469 
 4092              	.LASF122:
 4093 0434 5F6E6578 		.ascii	"_nextf\000"
 4093      746600
 4094              	.LASF40:
 4095 043b 5F5F746D 		.ascii	"__tm_mon\000"
 4095      5F6D6F6E 
 4095      00
 4096              	.LASF50:
 4097 0444 5F617465 		.ascii	"_atexit\000"
 4097      78697400 
 4098              	.LASF82:
 4099 044c 5F5F7364 		.ascii	"__sdidinit\000"
 4099      6964696E 
 4099      697400
 4100              	.LASF20:
ARM GAS  /tmp/ccRbSNsM.s 			page 76


 4101 0457 5F6F6666 		.ascii	"_off_t\000"
 4101      5F7400
 4102              	.LASF149:
 4103 045e 6C626D5F 		.ascii	"lbm_cons\000"
 4103      636F6E73 
 4103      00
 4104              	.LASF14:
 4105 0467 666C6F61 		.ascii	"float\000"
 4105      7400
 4106              	.LASF87:
 4107 046d 5F667265 		.ascii	"_freelist\000"
 4107      656C6973 
 4107      7400
 4108              	.LASF112:
 4109 0477 5F776374 		.ascii	"_wctomb_state\000"
 4109      6F6D625F 
 4109      73746174 
 4109      6500
 4110              	.LASF148:
 4111 0485 6C626D5F 		.ascii	"lbm_car\000"
 4111      63617200 
 4112              	.LASF15:
 4113 048d 5F426F6F 		.ascii	"_Bool\000"
 4113      6C00
 4114              	.LASF1:
 4115 0493 756E7369 		.ascii	"unsigned char\000"
 4115      676E6564 
 4115      20636861 
 4115      7200
 4116              	.LASF136:
 4117 04a1 63757272 		.ascii	"curr\000"
 4117      00
 4118              	.LASF90:
 4119 04a6 5F6E6577 		.ascii	"_new\000"
 4119      00
 4120              	.LASF121:
 4121 04ab 5F685F65 		.ascii	"_h_errno\000"
 4121      72726E6F 
 4121      00
 4122              	.LASF2:
 4123 04b4 73686F72 		.ascii	"short int\000"
 4123      7420696E 
 4123      7400
 4124              	.LASF43:
 4125 04be 5F5F746D 		.ascii	"__tm_yday\000"
 4125      5F796461 
 4125      7900
 4126              	.LASF53:
 4127 04c8 5F5F7362 		.ascii	"__sbuf\000"
 4127      756600
 4128              	.LASF98:
 4129 04cf 5F696F62 		.ascii	"_iobs\000"
 4129      7300
 4130              	.LASF140:
 4131 04d5 6C626D5F 		.ascii	"lbm_env_lookup\000"
 4131      656E765F 
 4131      6C6F6F6B 
ARM GAS  /tmp/ccRbSNsM.s 			page 77


 4131      757000
 4132              	.LASF95:
 4133 04e4 5F5F4649 		.ascii	"__FILE\000"
 4133      4C4500
 4134              	.LASF27:
 4135 04eb 5F6D6273 		.ascii	"_mbstate_t\000"
 4135      74617465 
 4135      5F7400
 4136              	.LASF137:
 4137 04f6 6C626D5F 		.ascii	"lbm_env_set\000"
 4137      656E765F 
 4137      73657400 
 4138              	.LASF56:
 4139 0502 5F5F7346 		.ascii	"__sFILE\000"
 4139      494C4500 
 4140              	.LASF152:
 4141 050a 6C626D5F 		.ascii	"lbm_set_cdr\000"
 4141      7365745F 
 4141      63647200 
 4142              	.LASF71:
 4143 0516 5F6D6273 		.ascii	"_mbstate\000"
 4143      74617465 
 4143      00
 4144              	.LASF108:
 4145 051f 5F72616E 		.ascii	"_rand_next\000"
 4145      645F6E65 
 4145      787400
 4146              	.LASF13:
 4147 052a 6C626D5F 		.ascii	"lbm_uint\000"
 4147      75696E74 
 4147      00
 4148              	.LASF110:
 4149 0533 5F6D626C 		.ascii	"_mblen_state\000"
 4149      656E5F73 
 4149      74617465 
 4149      00
 4150              	.LASF78:
 4151 0540 5F696E63 		.ascii	"_inc\000"
 4151      00
 4152              	.LASF51:
 4153 0545 5F696E64 		.ascii	"_ind\000"
 4153      00
 4154              	.LASF81:
 4155 054a 5F6C6F63 		.ascii	"_locale\000"
 4155      616C6500 
 4156              	.LASF83:
 4157 0552 5F5F636C 		.ascii	"__cleanup\000"
 4157      65616E75 
 4157      7000
 4158              	.LASF80:
 4159 055c 5F756E73 		.ascii	"_unspecified_locale_info\000"
 4159      70656369 
 4159      66696564 
 4159      5F6C6F63 
 4159      616C655F 
 4160              	.LASF31:
 4161 0575 5F6D6178 		.ascii	"_maxwds\000"
ARM GAS  /tmp/ccRbSNsM.s 			page 78


 4161      77647300 
 4162              	.LASF73:
 4163 057d 5F726565 		.ascii	"_reent\000"
 4163      6E7400
 4164              	.LASF145:
 4165 0584 6C626D5F 		.ascii	"lbm_dec_sym\000"
 4165      6465635F 
 4165      73796D00 
 4166              	.LASF100:
 4167 0590 5F736565 		.ascii	"_seed\000"
 4167      6400
 4168              	.LASF147:
 4169 0596 6C626D5F 		.ascii	"lbm_type_of\000"
 4169      74797065 
 4169      5F6F6600 
 4170              	.LASF25:
 4171 05a2 5F5F636F 		.ascii	"__count\000"
 4171      756E7400 
 4172              	.LASF19:
 4173 05aa 5F5F6C6F 		.ascii	"__lock\000"
 4173      636B00
 4174              	.LASF10:
 4175 05b1 75696E74 		.ascii	"uint32_t\000"
 4175      33325F74 
 4175      00
 4176              	.LASF63:
 4177 05ba 5F736565 		.ascii	"_seek\000"
 4177      6B00
 4178              	.LASF125:
 4179 05c0 5F696D70 		.ascii	"_impure_ptr\000"
 4179      7572655F 
 4179      70747200 
 4180              	.LASF21:
 4181 05cc 5F66706F 		.ascii	"_fpos_t\000"
 4181      735F7400 
 4182              	.LASF74:
 4183 05d4 5F657272 		.ascii	"_errno\000"
 4183      6E6F00
 4184              	.LASF16:
 4185 05db 63686172 		.ascii	"char\000"
 4185      00
 4186              	.LASF37:
 4187 05e0 5F5F746D 		.ascii	"__tm_min\000"
 4187      5F6D696E 
 4187      00
 4188              	.LASF128:
 4189 05e9 70617261 		.ascii	"params\000"
 4189      6D7300
 4190              	.LASF101:
 4191 05f0 5F6D756C 		.ascii	"_mult\000"
 4191      7400
 4192              	.LASF30:
 4193 05f6 5F6E6578 		.ascii	"_next\000"
 4193      7400
 4194              	.LASF104:
 4195 05fc 5F737472 		.ascii	"_strtok_last\000"
 4195      746F6B5F 
ARM GAS  /tmp/ccRbSNsM.s 			page 79


 4195      6C617374 
 4195      00
 4196              	.LASF26:
 4197 0609 5F5F7661 		.ascii	"__value\000"
 4197      6C756500 
 4198              	.LASF48:
 4199 0611 5F666E74 		.ascii	"_fntypes\000"
 4199      79706573 
 4199      00
 4200              	.LASF102:
 4201 061a 5F616464 		.ascii	"_add\000"
 4201      00
 4202              	.LASF29:
 4203 061f 5F5F554C 		.ascii	"__ULong\000"
 4203      6F6E6700 
 4204              	.LASF115:
 4205 0627 5F676574 		.ascii	"_getdate_err\000"
 4205      64617465 
 4205      5F657272 
 4205      00
 4206              	.LASF129:
 4207 0634 61726773 		.ascii	"args\000"
 4207      00
 4208              	.LASF126:
 4209 0639 5F676C6F 		.ascii	"_global_impure_ptr\000"
 4209      62616C5F 
 4209      696D7075 
 4209      72655F70 
 4209      747200
 4210              	.LASF143:
 4211 064c 6C626D5F 		.ascii	"lbm_get_env_ptr\000"
 4211      6765745F 
 4211      656E765F 
 4211      70747200 
 4212              	.LASF103:
 4213 065c 5F756E75 		.ascii	"_unused_rand\000"
 4213      7365645F 
 4213      72616E64 
 4213      00
 4214              	.LASF142:
 4215 0669 6C626D5F 		.ascii	"lbm_get_env\000"
 4215      6765745F 
 4215      656E7600 
 4216              	.LASF33:
 4217 0675 5F776473 		.ascii	"_wds\000"
 4217      00
 4218              	.LASF42:
 4219 067a 5F5F746D 		.ascii	"__tm_wday\000"
 4219      5F776461 
 4219      7900
 4220              	.LASF96:
 4221 0684 5F676C75 		.ascii	"_glue\000"
 4221      6500
 4222              	.LASF123:
 4223 068a 5F6E6D61 		.ascii	"_nmalloc\000"
 4223      6C6C6F63 
 4223      00
ARM GAS  /tmp/ccRbSNsM.s 			page 80


 4224              	.LASF113:
 4225 0693 5F6C3634 		.ascii	"_l64a_buf\000"
 4225      615F6275 
 4225      6600
 4226              	.LASF92:
 4227 069d 5F736967 		.ascii	"_sig_func\000"
 4227      5F66756E 
 4227      6300
 4228              	.LASF144:
 4229 06a7 6C626D5F 		.ascii	"lbm_init_env\000"
 4229      696E6974 
 4229      5F656E76 
 4229      00
 4230              	.LASF66:
 4231 06b4 5F6E6275 		.ascii	"_nbuf\000"
 4231      6600
 4232              	.LASF124:
 4233 06ba 5F756E75 		.ascii	"_unused\000"
 4233      73656400 
 4234              	.LASF44:
 4235 06c2 5F5F746D 		.ascii	"__tm_isdst\000"
 4235      5F697364 
 4235      737400
 4236              	.LASF106:
 4237 06cd 5F6C6F63 		.ascii	"_localtime_buf\000"
 4237      616C7469 
 4237      6D655F62 
 4237      756600
 4238              	.LASF64:
 4239 06dc 5F636C6F 		.ascii	"_close\000"
 4239      736500
 4240              	.LASF109:
 4241 06e3 5F723438 		.ascii	"_r48\000"
 4241      00
 4242              	.LASF131:
 4243 06e8 63757272 		.ascii	"curr_param\000"
 4243      5F706172 
 4243      616D00
 4244              	.LASF111:
 4245 06f3 5F6D6274 		.ascii	"_mbtowc_state\000"
 4245      6F77635F 
 4245      73746174 
 4245      6500
 4246              	.LASF86:
 4247 0701 5F703573 		.ascii	"_p5s\000"
 4247      00
 4248              	.LASF39:
 4249 0706 5F5F746D 		.ascii	"__tm_mday\000"
 4249      5F6D6461 
 4249      7900
 4250              		.ident	"GCC: (GNU Tools for Arm Embedded Processors 7-2018-q3-update) 7.3.1 20180622 (release) [AR
ARM GAS  /tmp/ccRbSNsM.s 			page 81


DEFINED SYMBOLS
                            *ABS*:0000000000000000 env.c
     /tmp/ccRbSNsM.s:18     .text.lbm_init_env:0000000000000000 $t
     /tmp/ccRbSNsM.s:26     .text.lbm_init_env:0000000000000000 lbm_init_env
     /tmp/ccRbSNsM.s:44     .text.lbm_init_env:000000000000000c $d
     /tmp/ccRbSNsM.s:49     .text.lbm_get_env_ptr:0000000000000000 $t
     /tmp/ccRbSNsM.s:57     .text.lbm_get_env_ptr:0000000000000000 lbm_get_env_ptr
     /tmp/ccRbSNsM.s:70     .text.lbm_get_env_ptr:0000000000000004 $d
     /tmp/ccRbSNsM.s:75     .text.lbm_get_env:0000000000000000 $t
     /tmp/ccRbSNsM.s:83     .text.lbm_get_env:0000000000000000 lbm_get_env
     /tmp/ccRbSNsM.s:98     .text.lbm_get_env:0000000000000008 $d
     /tmp/ccRbSNsM.s:103    .text.lbm_env_copy_shallow:0000000000000000 $t
     /tmp/ccRbSNsM.s:111    .text.lbm_env_copy_shallow:0000000000000000 lbm_env_copy_shallow
     /tmp/ccRbSNsM.s:219    .text.lbm_env_lookup:0000000000000000 $t
     /tmp/ccRbSNsM.s:227    .text.lbm_env_lookup:0000000000000000 lbm_env_lookup
     /tmp/ccRbSNsM.s:323    .text.lbm_env_set:0000000000000000 $t
     /tmp/ccRbSNsM.s:331    .text.lbm_env_set:0000000000000000 lbm_env_set
     /tmp/ccRbSNsM.s:474    .text.lbm_env_modify_binding:0000000000000000 $t
     /tmp/ccRbSNsM.s:482    .text.lbm_env_modify_binding:0000000000000000 lbm_env_modify_binding
     /tmp/ccRbSNsM.s:599    .text.lbm_env_build_params_args:0000000000000000 $t
     /tmp/ccRbSNsM.s:607    .text.lbm_env_build_params_args:0000000000000000 lbm_env_build_params_args
     /tmp/ccRbSNsM.s:774    .bss.env_global:0000000000000000 env_global
     /tmp/ccRbSNsM.s:770    .bss.env_global:0000000000000000 $d

UNDEFINED SYMBOLS
lbm_car
lbm_cons
lbm_cdr
lbm_set_cdr
lbm_list_length
