ARM GAS  /tmp/ccSYaJyZ.s 			page 1


   1              		.cpu cortex-m4
   2              		.eabi_attribute 27, 1
   3              		.eabi_attribute 28, 1
   4              		.eabi_attribute 20, 1
   5              		.eabi_attribute 21, 1
   6              		.eabi_attribute 23, 3
   7              		.eabi_attribute 24, 1
   8              		.eabi_attribute 25, 1
   9              		.eabi_attribute 26, 1
  10              		.eabi_attribute 30, 2
  11              		.eabi_attribute 34, 1
  12              		.eabi_attribute 18, 4
  13              		.file	"esc_Status.c"
  14              		.text
  15              	.Ltext0:
  16              		.cfi_sections	.debug_frame
  17              		.section	.text.uavcan_equipment_esc_Status_encode_internal,"ax",%progbits
  18              		.align	1
  19              		.p2align 4,,15
  20              		.global	uavcan_equipment_esc_Status_encode_internal
  21              		.syntax unified
  22              		.thumb
  23              		.thumb_func
  24              		.fpu fpv4-sp-d16
  25              		.type	uavcan_equipment_esc_Status_encode_internal, %function
  26              	uavcan_equipment_esc_Status_encode_internal:
  27              	.LFB0:
  28              		.file 1 "libcanard/dsdl/uavcan/equipment/esc/esc_Status.c"
  29              		.loc 1 37 0
  30              		.cfi_startproc
  31              		@ args = 0, pretend = 0, frame = 8
  32              		@ frame_needed = 0, uses_anonymous_args = 0
  33              	.LVL0:
  34 0000 F0B5     		push	{r4, r5, r6, r7, lr}
  35              		.cfi_def_cfa_offset 20
  36              		.cfi_offset 4, -20
  37              		.cfi_offset 5, -16
  38              		.cfi_offset 6, -12
  39              		.cfi_offset 7, -8
  40              		.cfi_offset 14, -4
  41 0002 0E46     		mov	r6, r1
  42 0004 83B0     		sub	sp, sp, #12
  43              		.cfi_def_cfa_offset 32
  44              		.loc 1 37 0
  45 0006 0446     		mov	r4, r0
  46 0008 1546     		mov	r5, r2
  47              		.loc 1 44 0
  48 000a 0346     		mov	r3, r0
  49              	.LVL1:
  50 000c 1146     		mov	r1, r2
  51              	.LVL2:
  52 000e 3046     		mov	r0, r6
  53              	.LVL3:
  54 0010 2022     		movs	r2, #32
  55              	.LVL4:
  56              		.loc 1 39 0
  57 0012 0027     		movs	r7, #0
ARM GAS  /tmp/ccSYaJyZ.s 			page 2


  58 0014 ADF80670 		strh	r7, [sp, #6]	@ movhi
  59              		.loc 1 44 0
  60 0018 FFF7FEFF 		bl	canardEncodeScalar
  61              	.LVL5:
  62              		.loc 1 49 0
  63 001c 94ED010A 		vldr.32	s0, [r4, #4]
  64 0020 FFF7FEFF 		bl	canardConvertNativeFloatToFloat16
  65              	.LVL6:
  66 0024 02AF     		add	r7, sp, #8
  67              		.loc 1 53 0
  68 0026 05F12001 		add	r1, r5, #32
  69              	.LVL7:
  70              		.loc 1 49 0
  71 002a 27F8020D 		strh	r0, [r7, #-2]!	@ movhi
  72              		.loc 1 53 0
  73 002e 1022     		movs	r2, #16
  74 0030 3B46     		mov	r3, r7
  75 0032 3046     		mov	r0, r6
  76 0034 FFF7FEFF 		bl	canardEncodeScalar
  77              	.LVL8:
  78              		.loc 1 58 0
  79 0038 94ED020A 		vldr.32	s0, [r4, #8]
  80 003c FFF7FEFF 		bl	canardConvertNativeFloatToFloat16
  81              	.LVL9:
  82              		.loc 1 62 0
  83 0040 3B46     		mov	r3, r7
  84 0042 05F13001 		add	r1, r5, #48
  85              	.LVL10:
  86              		.loc 1 58 0
  87 0046 ADF80600 		strh	r0, [sp, #6]	@ movhi
  88              		.loc 1 62 0
  89 004a 1022     		movs	r2, #16
  90 004c 3046     		mov	r0, r6
  91 004e FFF7FEFF 		bl	canardEncodeScalar
  92              	.LVL11:
  93              		.loc 1 67 0
  94 0052 94ED030A 		vldr.32	s0, [r4, #12]
  95 0056 FFF7FEFF 		bl	canardConvertNativeFloatToFloat16
  96              	.LVL12:
  97              		.loc 1 71 0
  98 005a 3B46     		mov	r3, r7
  99              		.loc 1 67 0
 100 005c ADF80600 		strh	r0, [sp, #6]	@ movhi
 101              		.loc 1 71 0
 102 0060 05F14001 		add	r1, r5, #64
 103              	.LVL13:
 104 0064 3046     		mov	r0, r6
 105 0066 1022     		movs	r2, #16
 106 0068 FFF7FEFF 		bl	canardEncodeScalar
 107              	.LVL14:
 108              		.loc 1 73 0
 109 006c 2369     		ldr	r3, [r4, #16]
 110 006e 174A     		ldr	r2, .L4
 111 0070 1749     		ldr	r1, .L4+4
 112 0072 9A42     		cmp	r2, r3
 113 0074 B8BF     		it	lt
 114 0076 1A46     		movlt	r2, r3
ARM GAS  /tmp/ccSYaJyZ.s 			page 3


 115 0078 8A42     		cmp	r2, r1
 116 007a 2346     		mov	r3, r4
 117 007c A8BF     		it	ge
 118 007e 0A46     		movge	r2, r1
 119 0080 43F8102F 		str	r2, [r3, #16]!
 120              		.loc 1 74 0
 121 0084 05F15001 		add	r1, r5, #80
 122              	.LVL15:
 123 0088 3046     		mov	r0, r6
 124 008a 1222     		movs	r2, #18
 125 008c FFF7FEFF 		bl	canardEncodeScalar
 126              	.LVL16:
 127              		.loc 1 77 0
 128 0090 227D     		ldrb	r2, [r4, #20]	@ zero_extendqisi2
 129 0092 2346     		mov	r3, r4
 130 0094 7F2A     		cmp	r2, #127
 131 0096 28BF     		it	cs
 132 0098 7F22     		movcs	r2, #127
 133 009a 03F8142F 		strb	r2, [r3, #20]!
 134              		.loc 1 78 0
 135 009e 05F16201 		add	r1, r5, #98
 136              	.LVL17:
 137 00a2 3046     		mov	r0, r6
 138 00a4 0722     		movs	r2, #7
 139 00a6 FFF7FEFF 		bl	canardEncodeScalar
 140              	.LVL18:
 141              		.loc 1 81 0
 142 00aa 627D     		ldrb	r2, [r4, #21]	@ zero_extendqisi2
 143 00ac 2346     		mov	r3, r4
 144 00ae 1F2A     		cmp	r2, #31
 145 00b0 28BF     		it	cs
 146 00b2 1F22     		movcs	r2, #31
 147 00b4 03F8152F 		strb	r2, [r3, #21]!
 148              		.loc 1 82 0
 149 00b8 3046     		mov	r0, r6
 150 00ba 05F16901 		add	r1, r5, #105
 151              	.LVL19:
 152 00be 0522     		movs	r2, #5
 153 00c0 FFF7FEFF 		bl	canardEncodeScalar
 154              	.LVL20:
 155              		.loc 1 86 0
 156 00c4 05F16E00 		add	r0, r5, #110
 157              	.LVL21:
 158 00c8 03B0     		add	sp, sp, #12
 159              		.cfi_def_cfa_offset 20
 160              		@ sp needed
 161 00ca F0BD     		pop	{r4, r5, r6, r7, pc}
 162              	.LVL22:
 163              	.L5:
 164              		.align	2
 165              	.L4:
 166 00cc 0100FEFF 		.word	-131071
 167 00d0 FFFF0100 		.word	131071
 168              		.cfi_endproc
 169              	.LFE0:
 170              		.size	uavcan_equipment_esc_Status_encode_internal, .-uavcan_equipment_esc_Status_encode_internal
 171              		.section	.text.uavcan_equipment_esc_Status_encode,"ax",%progbits
ARM GAS  /tmp/ccSYaJyZ.s 			page 4


 172              		.align	1
 173              		.p2align 4,,15
 174              		.global	uavcan_equipment_esc_Status_encode
 175              		.syntax unified
 176              		.thumb
 177              		.thumb_func
 178              		.fpu fpv4-sp-d16
 179              		.type	uavcan_equipment_esc_Status_encode, %function
 180              	uavcan_equipment_esc_Status_encode:
 181              	.LFB1:
 182              		.loc 1 95 0
 183              		.cfi_startproc
 184              		@ args = 0, pretend = 0, frame = 0
 185              		@ frame_needed = 0, uses_anonymous_args = 0
 186              	.LVL23:
 187 0000 08B5     		push	{r3, lr}
 188              		.cfi_def_cfa_offset 8
 189              		.cfi_offset 3, -8
 190              		.cfi_offset 14, -4
 191              		.loc 1 98 0
 192 0002 0022     		movs	r2, #0
 193 0004 0123     		movs	r3, #1
 194 0006 FFF7FEFF 		bl	uavcan_equipment_esc_Status_encode_internal
 195              	.LVL24:
 196              		.loc 1 100 0
 197 000a 0730     		adds	r0, r0, #7
 198              	.LVL25:
 199              		.loc 1 101 0
 200 000c C008     		lsrs	r0, r0, #3
 201              	.LVL26:
 202 000e 08BD     		pop	{r3, pc}
 203              		.cfi_endproc
 204              	.LFE1:
 205              		.size	uavcan_equipment_esc_Status_encode, .-uavcan_equipment_esc_Status_encode
 206              		.section	.text.uavcan_equipment_esc_Status_decode_internal,"ax",%progbits
 207              		.align	1
 208              		.p2align 4,,15
 209              		.global	uavcan_equipment_esc_Status_decode_internal
 210              		.syntax unified
 211              		.thumb
 212              		.thumb_func
 213              		.fpu fpv4-sp-d16
 214              		.type	uavcan_equipment_esc_Status_decode_internal, %function
 215              	uavcan_equipment_esc_Status_decode_internal:
 216              	.LFB2:
 217              		.loc 1 120 0
 218              		.cfi_startproc
 219              		@ args = 4, pretend = 0, frame = 8
 220              		@ frame_needed = 0, uses_anonymous_args = 0
 221              	.LVL27:
 222 0000 F0B5     		push	{r4, r5, r6, r7, lr}
 223              		.cfi_def_cfa_offset 20
 224              		.cfi_offset 4, -20
 225              		.cfi_offset 5, -16
 226              		.cfi_offset 6, -12
 227              		.cfi_offset 7, -8
 228              		.cfi_offset 14, -4
ARM GAS  /tmp/ccSYaJyZ.s 			page 5


 229 0002 85B0     		sub	sp, sp, #20
 230              		.cfi_def_cfa_offset 40
 231              		.loc 1 123 0
 232 0004 0025     		movs	r5, #0
 233              		.loc 1 128 0
 234 0006 0092     		str	r2, [sp]
 235              		.loc 1 120 0
 236 0008 1646     		mov	r6, r2
 237              		.loc 1 128 0
 238 000a 0A99     		ldr	r1, [sp, #40]
 239              	.LVL28:
 240              		.loc 1 123 0
 241 000c ADF80E50 		strh	r5, [sp, #14]	@ movhi
 242              		.loc 1 128 0
 243 0010 2B46     		mov	r3, r5
 244              	.LVL29:
 245 0012 2022     		movs	r2, #32
 246              	.LVL30:
 247              		.loc 1 120 0
 248 0014 0746     		mov	r7, r0
 249              		.loc 1 128 0
 250 0016 FFF7FEFF 		bl	canardDecodeScalar
 251              	.LVL31:
 252              		.loc 1 129 0
 253 001a 2028     		cmp	r0, #32
 254              		.loc 1 128 0
 255 001c 0446     		mov	r4, r0
 256              	.LVL32:
 257              		.loc 1 129 0
 258 001e 06D0     		beq	.L12
 259              	.LVL33:
 260              	.L9:
 261              		.loc 1 206 0
 262 0020 002C     		cmp	r4, #0
 263 0022 A8BF     		it	ge
 264 0024 6FF00804 		mvnge	r4, #8
 265              	.L8:
 266              		.loc 1 208 0
 267 0028 2046     		mov	r0, r4
 268              	.LVL34:
 269 002a 05B0     		add	sp, sp, #20
 270              		.cfi_remember_state
 271              		.cfi_def_cfa_offset 20
 272              		@ sp needed
 273 002c F0BD     		pop	{r4, r5, r6, r7, pc}
 274              	.LVL35:
 275              	.L12:
 276              		.cfi_restore_state
 277              		.loc 1 136 0
 278 002e 0A99     		ldr	r1, [sp, #40]
 279 0030 0DF10E03 		add	r3, sp, #14
 280 0034 0093     		str	r3, [sp]
 281 0036 1022     		movs	r2, #16
 282 0038 2B46     		mov	r3, r5
 283 003a 2031     		adds	r1, r1, #32
 284              	.LVL36:
 285 003c 3846     		mov	r0, r7
ARM GAS  /tmp/ccSYaJyZ.s 			page 6


 286              	.LVL37:
 287 003e FFF7FEFF 		bl	canardDecodeScalar
 288              	.LVL38:
 289              		.loc 1 138 0
 290 0042 1028     		cmp	r0, #16
 291              		.loc 1 136 0
 292 0044 0446     		mov	r4, r0
 293              	.LVL39:
 294              		.loc 1 138 0
 295 0046 EBD1     		bne	.L9
 296              		.loc 1 143 0
 297 0048 BDF80E00 		ldrh	r0, [sp, #14]
 298              	.LVL40:
 299 004c FFF7FEFF 		bl	canardConvertFloat16ToNativeFloat
 300              	.LVL41:
 301              		.loc 1 150 0
 302 0050 0A99     		ldr	r1, [sp, #40]
 303 0052 0DF10E03 		add	r3, sp, #14
 304 0056 0093     		str	r3, [sp]
 305 0058 2246     		mov	r2, r4
 306              		.loc 1 143 0
 307 005a 86ED010A 		vstr.32	s0, [r6, #4]
 308              	.LVL42:
 309              		.loc 1 150 0
 310 005e 2B46     		mov	r3, r5
 311 0060 3031     		adds	r1, r1, #48
 312              	.LVL43:
 313 0062 3846     		mov	r0, r7
 314 0064 FFF7FEFF 		bl	canardDecodeScalar
 315              	.LVL44:
 316              		.loc 1 152 0
 317 0068 1028     		cmp	r0, #16
 318              		.loc 1 150 0
 319 006a 0446     		mov	r4, r0
 320              	.LVL45:
 321              		.loc 1 152 0
 322 006c D8D1     		bne	.L9
 323              		.loc 1 157 0
 324 006e BDF80E00 		ldrh	r0, [sp, #14]
 325              	.LVL46:
 326 0072 FFF7FEFF 		bl	canardConvertFloat16ToNativeFloat
 327              	.LVL47:
 328              		.loc 1 164 0
 329 0076 0A99     		ldr	r1, [sp, #40]
 330 0078 0DF10E03 		add	r3, sp, #14
 331 007c 0093     		str	r3, [sp]
 332 007e 2246     		mov	r2, r4
 333              		.loc 1 157 0
 334 0080 86ED020A 		vstr.32	s0, [r6, #8]
 335              	.LVL48:
 336              		.loc 1 164 0
 337 0084 2B46     		mov	r3, r5
 338 0086 4031     		adds	r1, r1, #64
 339              	.LVL49:
 340 0088 3846     		mov	r0, r7
 341 008a FFF7FEFF 		bl	canardDecodeScalar
 342              	.LVL50:
ARM GAS  /tmp/ccSYaJyZ.s 			page 7


 343              		.loc 1 166 0
 344 008e 1028     		cmp	r0, #16
 345              		.loc 1 164 0
 346 0090 0446     		mov	r4, r0
 347              	.LVL51:
 348              		.loc 1 166 0
 349 0092 C5D1     		bne	.L9
 350              		.loc 1 171 0
 351 0094 BDF80E00 		ldrh	r0, [sp, #14]
 352              	.LVL52:
 353 0098 FFF7FEFF 		bl	canardConvertFloat16ToNativeFloat
 354              	.LVL53:
 355              		.loc 1 177 0
 356 009c 0A99     		ldr	r1, [sp, #40]
 357              		.loc 1 171 0
 358 009e 86ED030A 		vstr.32	s0, [r6, #12]
 359              	.LVL54:
 360              		.loc 1 177 0
 361 00a2 06F11003 		add	r3, r6, #16
 362 00a6 0093     		str	r3, [sp]
 363 00a8 1222     		movs	r2, #18
 364 00aa 0123     		movs	r3, #1
 365 00ac 5031     		adds	r1, r1, #80
 366              	.LVL55:
 367 00ae 3846     		mov	r0, r7
 368 00b0 FFF7FEFF 		bl	canardDecodeScalar
 369              	.LVL56:
 370              		.loc 1 178 0
 371 00b4 1228     		cmp	r0, #18
 372              		.loc 1 177 0
 373 00b6 0446     		mov	r4, r0
 374              	.LVL57:
 375              		.loc 1 178 0
 376 00b8 B2D1     		bne	.L9
 377              	.LVL58:
 378              		.loc 1 184 0
 379 00ba 0A99     		ldr	r1, [sp, #40]
 380 00bc 06F11403 		add	r3, r6, #20
 381 00c0 0093     		str	r3, [sp]
 382 00c2 0722     		movs	r2, #7
 383 00c4 2B46     		mov	r3, r5
 384 00c6 6231     		adds	r1, r1, #98
 385              	.LVL59:
 386 00c8 3846     		mov	r0, r7
 387              	.LVL60:
 388 00ca FFF7FEFF 		bl	canardDecodeScalar
 389              	.LVL61:
 390              		.loc 1 185 0
 391 00ce 0728     		cmp	r0, #7
 392              		.loc 1 184 0
 393 00d0 0446     		mov	r4, r0
 394              	.LVL62:
 395              		.loc 1 185 0
 396 00d2 A5D1     		bne	.L9
 397              	.LVL63:
 398              		.loc 1 191 0
 399 00d4 0A99     		ldr	r1, [sp, #40]
ARM GAS  /tmp/ccSYaJyZ.s 			page 8


 400 00d6 1536     		adds	r6, r6, #21
 401              	.LVL64:
 402 00d8 0096     		str	r6, [sp]
 403 00da 2B46     		mov	r3, r5
 404 00dc 3846     		mov	r0, r7
 405              	.LVL65:
 406 00de 0522     		movs	r2, #5
 407 00e0 6931     		adds	r1, r1, #105
 408              	.LVL66:
 409 00e2 FFF7FEFF 		bl	canardDecodeScalar
 410              	.LVL67:
 411              		.loc 1 192 0
 412 00e6 0528     		cmp	r0, #5
 413              		.loc 1 191 0
 414 00e8 0446     		mov	r4, r0
 415              	.LVL68:
 416              		.loc 1 192 0
 417 00ea 99D1     		bne	.L9
 418              		.loc 1 196 0
 419 00ec 0A9B     		ldr	r3, [sp, #40]
 420 00ee 03F16E04 		add	r4, r3, #110
 421              	.LVL69:
 422              		.loc 1 197 0
 423 00f2 99E7     		b	.L8
 424              		.cfi_endproc
 425              	.LFE2:
 426              		.size	uavcan_equipment_esc_Status_decode_internal, .-uavcan_equipment_esc_Status_decode_internal
 427              		.section	.text.uavcan_equipment_esc_Status_decode,"ax",%progbits
 428              		.align	1
 429              		.p2align 4,,15
 430              		.global	uavcan_equipment_esc_Status_decode
 431              		.syntax unified
 432              		.thumb
 433              		.thumb_func
 434              		.fpu fpv4-sp-d16
 435              		.type	uavcan_equipment_esc_Status_decode, %function
 436              	uavcan_equipment_esc_Status_decode:
 437              	.LFB3:
 438              		.loc 1 224 0
 439              		.cfi_startproc
 440              		@ args = 0, pretend = 0, frame = 0
 441              		@ frame_needed = 0, uses_anonymous_args = 0
 442              	.LVL70:
 443 0000 70B5     		push	{r4, r5, r6, lr}
 444              		.cfi_def_cfa_offset 16
 445              		.cfi_offset 4, -16
 446              		.cfi_offset 5, -12
 447              		.cfi_offset 6, -8
 448              		.cfi_offset 14, -4
 449 0002 541E     		subs	r4, r2, #1
 450 0004 82B0     		sub	sp, sp, #8
 451              		.cfi_def_cfa_offset 24
 452 0006 02F11706 		add	r6, r2, #23
 453              	.LBB2:
 454              		.loc 1 231 0
 455 000a 0025     		movs	r5, #0
 456              	.LVL71:
ARM GAS  /tmp/ccSYaJyZ.s 			page 9


 457              	.L14:
 458              		.loc 1 231 0 is_stmt 0 discriminator 3
 459 000c 04F8015F 		strb	r5, [r4, #1]!
 460              		.loc 1 229 0 is_stmt 1 discriminator 3
 461 0010 B442     		cmp	r4, r6
 462 0012 FBD1     		bne	.L14
 463              	.LBE2:
 464              		.loc 1 234 0
 465 0014 0095     		str	r5, [sp]
 466 0016 FFF7FEFF 		bl	uavcan_equipment_esc_Status_decode_internal
 467              	.LVL72:
 468              		.loc 1 237 0
 469 001a 02B0     		add	sp, sp, #8
 470              		.cfi_def_cfa_offset 16
 471              		@ sp needed
 472 001c 70BD     		pop	{r4, r5, r6, pc}
 473              		.cfi_endproc
 474              	.LFE3:
 475              		.size	uavcan_equipment_esc_Status_decode, .-uavcan_equipment_esc_Status_decode
 476 001e 00BF     		.text
 477              	.Letext0:
 478              		.file 2 "/usr/arm-none-eabi/include/machine/_default_types.h"
 479              		.file 3 "/usr/arm-none-eabi/include/sys/_stdint.h"
 480              		.file 4 "libcanard/canard.h"
 481              		.file 5 "libcanard/dsdl/uavcan/equipment/esc/Status.h"