ARM GAS  /tmp/ccKmAQwg.s 			page 1


   1              		.cpu cortex-m4
   2              		.eabi_attribute 27, 1
   3              		.eabi_attribute 28, 1
   4              		.eabi_attribute 20, 1
   5              		.eabi_attribute 21, 1
   6              		.eabi_attribute 23, 3
   7              		.eabi_attribute 24, 1
   8              		.eabi_attribute 25, 1
   9              		.eabi_attribute 26, 1
  10              		.eabi_attribute 30, 2
  11              		.eabi_attribute 34, 1
  12              		.eabi_attribute 18, 4
  13              		.file	"esc_RPMCommand.c"
  14              		.text
  15              	.Ltext0:
  16              		.cfi_sections	.debug_frame
  17              		.section	.text.uavcan_equipment_esc_RPMCommand_encode_internal,"ax",%progbits
  18              		.align	1
  19              		.p2align 4,,15
  20              		.global	uavcan_equipment_esc_RPMCommand_encode_internal
  21              		.syntax unified
  22              		.thumb
  23              		.thumb_func
  24              		.fpu fpv4-sp-d16
  25              		.type	uavcan_equipment_esc_RPMCommand_encode_internal, %function
  26              	uavcan_equipment_esc_RPMCommand_encode_internal:
  27              	.LFB0:
  28              		.file 1 "libcanard/dsdl/uavcan/equipment/esc/esc_RPMCommand.c"
  29              		.loc 1 37 0
  30              		.cfi_startproc
  31              		@ args = 0, pretend = 0, frame = 0
  32              		@ frame_needed = 0, uses_anonymous_args = 0
  33              	.LVL0:
  34 0000 F8B5     		push	{r3, r4, r5, r6, r7, lr}
  35              		.cfi_def_cfa_offset 24
  36              		.cfi_offset 3, -24
  37              		.cfi_offset 4, -20
  38              		.cfi_offset 5, -16
  39              		.cfi_offset 6, -12
  40              		.cfi_offset 7, -8
  41              		.cfi_offset 14, -4
  42              		.loc 1 37 0
  43 0002 0646     		mov	r6, r0
  44 0004 0F46     		mov	r7, r1
  45 0006 1546     		mov	r5, r2
  46              		.loc 1 41 0
  47 0008 93B1     		cbz	r3, .L11
  48              	.LVL1:
  49              	.L2:
  50              		.loc 1 49 0 discriminator 1
  51 000a 3378     		ldrb	r3, [r6]	@ zero_extendqisi2
  52 000c 73B1     		cbz	r3, .L3
  53              		.loc 1 49 0 is_stmt 0
  54 000e 0024     		movs	r4, #0
  55              	.LVL2:
  56              	.L4:
  57              		.loc 1 54 0 is_stmt 1 discriminator 3
ARM GAS  /tmp/ccKmAQwg.s 			page 2


  58 0010 7368     		ldr	r3, [r6, #4]
  59              		.loc 1 51 0 discriminator 3
  60 0012 2946     		mov	r1, r5
  61 0014 03EB8403 		add	r3, r3, r4, lsl #2
  62 0018 1222     		movs	r2, #18
  63 001a 3846     		mov	r0, r7
  64 001c FFF7FEFF 		bl	canardEncodeScalar
  65              	.LVL3:
  66              		.loc 1 49 0 discriminator 3
  67 0020 3378     		ldrb	r3, [r6]	@ zero_extendqisi2
  68 0022 0134     		adds	r4, r4, #1
  69              	.LVL4:
  70 0024 A342     		cmp	r3, r4
  71              		.loc 1 55 0 discriminator 3
  72 0026 05F11205 		add	r5, r5, #18
  73              	.LVL5:
  74              		.loc 1 49 0 discriminator 3
  75 002a F1D8     		bhi	.L4
  76              	.LVL6:
  77              	.L3:
  78              		.loc 1 59 0
  79 002c 2846     		mov	r0, r5
  80 002e F8BD     		pop	{r3, r4, r5, r6, r7, pc}
  81              	.LVL7:
  82              	.L11:
  83              		.loc 1 44 0
  84 0030 0346     		mov	r3, r0
  85              	.LVL8:
  86 0032 2946     		mov	r1, r5
  87              	.LVL9:
  88 0034 0522     		movs	r2, #5
  89              	.LVL10:
  90 0036 3846     		mov	r0, r7
  91              	.LVL11:
  92 0038 FFF7FEFF 		bl	canardEncodeScalar
  93              	.LVL12:
  94              		.loc 1 45 0
  95 003c 0535     		adds	r5, r5, #5
  96              	.LVL13:
  97 003e E4E7     		b	.L2
  98              		.cfi_endproc
  99              	.LFE0:
 100              		.size	uavcan_equipment_esc_RPMCommand_encode_internal, .-uavcan_equipment_esc_RPMCommand_encode_in
 101              		.section	.text.uavcan_equipment_esc_RPMCommand_encode,"ax",%progbits
 102              		.align	1
 103              		.p2align 4,,15
 104              		.global	uavcan_equipment_esc_RPMCommand_encode
 105              		.syntax unified
 106              		.thumb
 107              		.thumb_func
 108              		.fpu fpv4-sp-d16
 109              		.type	uavcan_equipment_esc_RPMCommand_encode, %function
 110              	uavcan_equipment_esc_RPMCommand_encode:
 111              	.LFB1:
 112              		.loc 1 68 0
 113              		.cfi_startproc
 114              		@ args = 0, pretend = 0, frame = 0
ARM GAS  /tmp/ccKmAQwg.s 			page 3


 115              		@ frame_needed = 0, uses_anonymous_args = 0
 116              	.LVL14:
 117 0000 08B5     		push	{r3, lr}
 118              		.cfi_def_cfa_offset 8
 119              		.cfi_offset 3, -8
 120              		.cfi_offset 14, -4
 121              		.loc 1 71 0
 122 0002 0022     		movs	r2, #0
 123 0004 0123     		movs	r3, #1
 124 0006 FFF7FEFF 		bl	uavcan_equipment_esc_RPMCommand_encode_internal
 125              	.LVL15:
 126              		.loc 1 73 0
 127 000a 0730     		adds	r0, r0, #7
 128              	.LVL16:
 129              		.loc 1 74 0
 130 000c C008     		lsrs	r0, r0, #3
 131              	.LVL17:
 132 000e 08BD     		pop	{r3, pc}
 133              		.cfi_endproc
 134              	.LFE1:
 135              		.size	uavcan_equipment_esc_RPMCommand_encode, .-uavcan_equipment_esc_RPMCommand_encode
 136              		.section	.text.uavcan_equipment_esc_RPMCommand_decode_internal,"ax",%progbits
 137              		.align	1
 138              		.p2align 4,,15
 139              		.global	uavcan_equipment_esc_RPMCommand_decode_internal
 140              		.syntax unified
 141              		.thumb
 142              		.thumb_func
 143              		.fpu fpv4-sp-d16
 144              		.type	uavcan_equipment_esc_RPMCommand_decode_internal, %function
 145              	uavcan_equipment_esc_RPMCommand_decode_internal:
 146              	.LFB2:
 147              		.loc 1 93 0
 148              		.cfi_startproc
 149              		@ args = 4, pretend = 0, frame = 0
 150              		@ frame_needed = 0, uses_anonymous_args = 0
 151              	.LVL18:
 152 0000 2DE9F043 		push	{r4, r5, r6, r7, r8, r9, lr}
 153              		.cfi_def_cfa_offset 28
 154              		.cfi_offset 4, -28
 155              		.cfi_offset 5, -24
 156              		.cfi_offset 6, -20
 157              		.cfi_offset 7, -16
 158              		.cfi_offset 8, -12
 159              		.cfi_offset 9, -8
 160              		.cfi_offset 14, -4
 161 0004 9046     		mov	r8, r2
 162 0006 83B0     		sub	sp, sp, #12
 163              		.cfi_def_cfa_offset 40
 164              		.loc 1 93 0
 165 0008 1E46     		mov	r6, r3
 166 000a 8146     		mov	r9, r0
 167              		.loc 1 99 0
 168 000c 51B3     		cbz	r1, .L15
 169              		.loc 1 102 0
 170 000e 0A9A     		ldr	r2, [sp, #40]
 171              	.LVL19:
ARM GAS  /tmp/ccKmAQwg.s 			page 4


 172 0010 1F4B     		ldr	r3, .L35
 173              	.LVL20:
 174 0012 0A9C     		ldr	r4, [sp, #40]
 175 0014 C2EBC101 		rsb	r1, r2, r1, lsl #3
 176              	.LVL21:
 177 0018 83FB0123 		smull	r2, r3, r3, r1
 178 001c C917     		asrs	r1, r1, #31
 179 001e C1EBA303 		rsb	r3, r1, r3, asr #2
 180 0022 DBB2     		uxtb	r3, r3
 181 0024 88F80030 		strb	r3, [r8]
 182              	.LVL22:
 183              	.L16:
 184              		.loc 1 120 0
 185 0028 16B1     		cbz	r6, .L18
 186              		.loc 1 122 0
 187 002a 3268     		ldr	r2, [r6]
 188 002c C8F80420 		str	r2, [r8, #4]
 189              	.L18:
 190              		.loc 1 125 0 discriminator 1
 191 0030 A3B1     		cbz	r3, .L14
 192              		.loc 1 125 0 is_stmt 0
 193 0032 0025     		movs	r5, #0
 194              	.LVL23:
 195              	.L21:
 196              		.loc 1 129 0 is_stmt 1
 197 0034 0123     		movs	r3, #1
 198 0036 1222     		movs	r2, #18
 199 0038 2146     		mov	r1, r4
 200 003a 4846     		mov	r0, r9
 201              		.loc 1 125 0
 202 003c 1D44     		add	r5, r5, r3
 203              	.LVL24:
 204              		.loc 1 140 0
 205 003e 1444     		add	r4, r4, r2
 206              	.LVL25:
 207              		.loc 1 127 0
 208 0040 46B1     		cbz	r6, .L20
 209              	.LVL26:
 210              		.loc 1 129 0
 211 0042 3768     		ldr	r7, [r6]
 212 0044 0097     		str	r7, [sp]
 213 0046 FFF7FEFF 		bl	canardDecodeScalar
 214              	.LVL27:
 215              		.loc 1 134 0
 216 004a 1228     		cmp	r0, #18
 217 004c 12D1     		bne	.L17
 218              		.loc 1 138 0
 219 004e 3368     		ldr	r3, [r6]
 220 0050 0433     		adds	r3, r3, #4
 221 0052 3360     		str	r3, [r6]
 222              	.LVL28:
 223              	.L20:
 224              		.loc 1 125 0 discriminator 2
 225 0054 98F80030 		ldrb	r3, [r8]	@ zero_extendqisi2
 226 0058 AB42     		cmp	r3, r5
 227 005a EBD8     		bhi	.L21
 228              	.LVL29:
ARM GAS  /tmp/ccKmAQwg.s 			page 5


 229              	.L14:
 230              		.loc 1 153 0
 231 005c 2046     		mov	r0, r4
 232 005e 03B0     		add	sp, sp, #12
 233              		.cfi_remember_state
 234              		.cfi_def_cfa_offset 28
 235              		@ sp needed
 236 0060 BDE8F083 		pop	{r4, r5, r6, r7, r8, r9, pc}
 237              	.LVL30:
 238              	.L15:
 239              		.cfi_restore_state
 240              		.loc 1 107 0
 241 0064 0092     		str	r2, [sp]
 242 0066 0B46     		mov	r3, r1
 243              	.LVL31:
 244 0068 0522     		movs	r2, #5
 245              	.LVL32:
 246 006a 0A99     		ldr	r1, [sp, #40]
 247              	.LVL33:
 248 006c FFF7FEFF 		bl	canardDecodeScalar
 249              	.LVL34:
 250              		.loc 1 112 0
 251 0070 0528     		cmp	r0, #5
 252 0072 08D0     		beq	.L34
 253              	.LVL35:
 254              	.L17:
 255              		.loc 1 145 0
 256 0074 0028     		cmp	r0, #0
 257 0076 B4BF     		ite	lt
 258 0078 0446     		movlt	r4, r0
 259 007a 6FF00804 		mvnge	r4, #8
 260              		.loc 1 153 0
 261 007e 2046     		mov	r0, r4
 262              	.LVL36:
 263 0080 03B0     		add	sp, sp, #12
 264              		.cfi_remember_state
 265              		.cfi_def_cfa_offset 28
 266              		@ sp needed
 267 0082 BDE8F083 		pop	{r4, r5, r6, r7, r8, r9, pc}
 268              	.LVL37:
 269              	.L34:
 270              		.cfi_restore_state
 271              		.loc 1 116 0
 272 0086 0A9A     		ldr	r2, [sp, #40]
 273 0088 98F80030 		ldrb	r3, [r8]	@ zero_extendqisi2
 274 008c 541D     		adds	r4, r2, #5
 275              	.LVL38:
 276 008e CBE7     		b	.L16
 277              	.L36:
 278              		.align	2
 279              	.L35:
 280 0090 398EE338 		.word	954437177
 281              		.cfi_endproc
 282              	.LFE2:
 283              		.size	uavcan_equipment_esc_RPMCommand_decode_internal, .-uavcan_equipment_esc_RPMCommand_decode_in
 284              		.section	.text.uavcan_equipment_esc_RPMCommand_decode,"ax",%progbits
 285              		.align	1
ARM GAS  /tmp/ccKmAQwg.s 			page 6


 286              		.p2align 4,,15
 287              		.global	uavcan_equipment_esc_RPMCommand_decode
 288              		.syntax unified
 289              		.thumb
 290              		.thumb_func
 291              		.fpu fpv4-sp-d16
 292              		.type	uavcan_equipment_esc_RPMCommand_decode, %function
 293              	uavcan_equipment_esc_RPMCommand_decode:
 294              	.LFB3:
 295              		.loc 1 169 0
 296              		.cfi_startproc
 297              		@ args = 0, pretend = 0, frame = 0
 298              		@ frame_needed = 0, uses_anonymous_args = 0
 299              	.LVL39:
 300 0000 70B5     		push	{r4, r5, r6, lr}
 301              		.cfi_def_cfa_offset 16
 302              		.cfi_offset 4, -16
 303              		.cfi_offset 5, -12
 304              		.cfi_offset 6, -8
 305              		.cfi_offset 14, -4
 306 0002 541E     		subs	r4, r2, #1
 307 0004 82B0     		sub	sp, sp, #8
 308              		.cfi_def_cfa_offset 24
 309 0006 D61D     		adds	r6, r2, #7
 310              	.LBB2:
 311              		.loc 1 176 0
 312 0008 0025     		movs	r5, #0
 313              	.LVL40:
 314              	.L38:
 315              		.loc 1 176 0 is_stmt 0 discriminator 3
 316 000a 04F8015F 		strb	r5, [r4, #1]!
 317              		.loc 1 174 0 is_stmt 1 discriminator 3
 318 000e B442     		cmp	r4, r6
 319 0010 FBD1     		bne	.L38
 320              	.LBE2:
 321              		.loc 1 179 0
 322 0012 0095     		str	r5, [sp]
 323 0014 FFF7FEFF 		bl	uavcan_equipment_esc_RPMCommand_decode_internal
 324              	.LVL41:
 325              		.loc 1 182 0
 326 0018 02B0     		add	sp, sp, #8
 327              		.cfi_def_cfa_offset 16
 328              		@ sp needed
 329 001a 70BD     		pop	{r4, r5, r6, pc}
 330              		.cfi_endproc
 331              	.LFE3:
 332              		.size	uavcan_equipment_esc_RPMCommand_decode, .-uavcan_equipment_esc_RPMCommand_decode
 333              		.text
 334              	.Letext0:
 335              		.file 2 "/usr/arm-none-eabi/include/machine/_default_types.h"
 336              		.file 3 "/usr/arm-none-eabi/include/sys/_stdint.h"
 337              		.file 4 "libcanard/canard.h"
 338              		.file 5 "libcanard/dsdl/uavcan/equipment/esc/RPMCommand.h"