ARM GAS  /tmp/cc0x4P69.s 			page 1


   1              		.cpu cortex-m4
   2              		.eabi_attribute 27, 1
   3              		.eabi_attribute 28, 1
   4              		.eabi_attribute 20, 1
   5              		.eabi_attribute 21, 1
   6              		.eabi_attribute 23, 3
   7              		.eabi_attribute 24, 1
   8              		.eabi_attribute 25, 1
   9              		.eabi_attribute 26, 1
  10              		.eabi_attribute 30, 2
  11              		.eabi_attribute 34, 1
  12              		.eabi_attribute 18, 4
  13              		.file	"esc_RawCommand.c"
  14              		.text
  15              	.Ltext0:
  16              		.cfi_sections	.debug_frame
  17              		.section	.text.uavcan_equipment_esc_RawCommand_encode_internal,"ax",%progbits
  18              		.align	1
  19              		.p2align 4,,15
  20              		.global	uavcan_equipment_esc_RawCommand_encode_internal
  21              		.syntax unified
  22              		.thumb
  23              		.thumb_func
  24              		.fpu fpv4-sp-d16
  25              		.type	uavcan_equipment_esc_RawCommand_encode_internal, %function
  26              	uavcan_equipment_esc_RawCommand_encode_internal:
  27              	.LFB0:
  28              		.file 1 "libcanard/dsdl/uavcan/equipment/esc/esc_RawCommand.c"
  29              		.loc 1 37 0
  30              		.cfi_startproc
  31              		@ args = 0, pretend = 0, frame = 0
  32              		@ frame_needed = 0, uses_anonymous_args = 0
  33              	.LVL0:
  34 0000 F8B5     		push	{r3, r4, r5, r6, r7, lr}
  35              		.cfi_def_cfa_offset 24
  36              		.cfi_offset 3, -24
  37              		.cfi_offset 4, -20
  38              		.cfi_offset 5, -16
  39              		.cfi_offset 6, -12
  40              		.cfi_offset 7, -8
  41              		.cfi_offset 14, -4
  42              		.loc 1 37 0
  43 0002 0646     		mov	r6, r0
  44 0004 0F46     		mov	r7, r1
  45 0006 1546     		mov	r5, r2
  46              		.loc 1 41 0
  47 0008 93B1     		cbz	r3, .L11
  48              	.LVL1:
  49              	.L2:
  50              		.loc 1 49 0 discriminator 1
  51 000a 3378     		ldrb	r3, [r6]	@ zero_extendqisi2
  52 000c 73B1     		cbz	r3, .L3
  53              		.loc 1 49 0 is_stmt 0
  54 000e 0024     		movs	r4, #0
  55              	.LVL2:
  56              	.L4:
  57              		.loc 1 54 0 is_stmt 1 discriminator 3
ARM GAS  /tmp/cc0x4P69.s 			page 2


  58 0010 7368     		ldr	r3, [r6, #4]
  59              		.loc 1 51 0 discriminator 3
  60 0012 2946     		mov	r1, r5
  61 0014 03EB4403 		add	r3, r3, r4, lsl #1
  62 0018 0E22     		movs	r2, #14
  63 001a 3846     		mov	r0, r7
  64 001c FFF7FEFF 		bl	canardEncodeScalar
  65              	.LVL3:
  66              		.loc 1 49 0 discriminator 3
  67 0020 3378     		ldrb	r3, [r6]	@ zero_extendqisi2
  68 0022 0134     		adds	r4, r4, #1
  69              	.LVL4:
  70 0024 A342     		cmp	r3, r4
  71              		.loc 1 55 0 discriminator 3
  72 0026 05F10E05 		add	r5, r5, #14
  73              	.LVL5:
  74              		.loc 1 49 0 discriminator 3
  75 002a F1D8     		bhi	.L4
  76              	.LVL6:
  77              	.L3:
  78              		.loc 1 59 0
  79 002c 2846     		mov	r0, r5
  80 002e F8BD     		pop	{r3, r4, r5, r6, r7, pc}
  81              	.LVL7:
  82              	.L11:
  83              		.loc 1 44 0
  84 0030 0346     		mov	r3, r0
  85              	.LVL8:
  86 0032 2946     		mov	r1, r5
  87              	.LVL9:
  88 0034 0522     		movs	r2, #5
  89              	.LVL10:
  90 0036 3846     		mov	r0, r7
  91              	.LVL11:
  92 0038 FFF7FEFF 		bl	canardEncodeScalar
  93              	.LVL12:
  94              		.loc 1 45 0
  95 003c 0535     		adds	r5, r5, #5
  96              	.LVL13:
  97 003e E4E7     		b	.L2
  98              		.cfi_endproc
  99              	.LFE0:
 100              		.size	uavcan_equipment_esc_RawCommand_encode_internal, .-uavcan_equipment_esc_RawCommand_encode_in
 101              		.section	.text.uavcan_equipment_esc_RawCommand_encode,"ax",%progbits
 102              		.align	1
 103              		.p2align 4,,15
 104              		.global	uavcan_equipment_esc_RawCommand_encode
 105              		.syntax unified
 106              		.thumb
 107              		.thumb_func
 108              		.fpu fpv4-sp-d16
 109              		.type	uavcan_equipment_esc_RawCommand_encode, %function
 110              	uavcan_equipment_esc_RawCommand_encode:
 111              	.LFB1:
 112              		.loc 1 68 0
 113              		.cfi_startproc
 114              		@ args = 0, pretend = 0, frame = 0
ARM GAS  /tmp/cc0x4P69.s 			page 3


 115              		@ frame_needed = 0, uses_anonymous_args = 0
 116              	.LVL14:
 117 0000 08B5     		push	{r3, lr}
 118              		.cfi_def_cfa_offset 8
 119              		.cfi_offset 3, -8
 120              		.cfi_offset 14, -4
 121              		.loc 1 71 0
 122 0002 0022     		movs	r2, #0
 123 0004 0123     		movs	r3, #1
 124 0006 FFF7FEFF 		bl	uavcan_equipment_esc_RawCommand_encode_internal
 125              	.LVL15:
 126              		.loc 1 73 0
 127 000a 0730     		adds	r0, r0, #7
 128              	.LVL16:
 129              		.loc 1 74 0
 130 000c C008     		lsrs	r0, r0, #3
 131              	.LVL17:
 132 000e 08BD     		pop	{r3, pc}
 133              		.cfi_endproc
 134              	.LFE1:
 135              		.size	uavcan_equipment_esc_RawCommand_encode, .-uavcan_equipment_esc_RawCommand_encode
 136              		.section	.text.uavcan_equipment_esc_RawCommand_decode_internal,"ax",%progbits
 137              		.align	1
 138              		.p2align 4,,15
 139              		.global	uavcan_equipment_esc_RawCommand_decode_internal
 140              		.syntax unified
 141              		.thumb
 142              		.thumb_func
 143              		.fpu fpv4-sp-d16
 144              		.type	uavcan_equipment_esc_RawCommand_decode_internal, %function
 145              	uavcan_equipment_esc_RawCommand_decode_internal:
 146              	.LFB2:
 147              		.loc 1 93 0
 148              		.cfi_startproc
 149              		@ args = 4, pretend = 0, frame = 0
 150              		@ frame_needed = 0, uses_anonymous_args = 0
 151              	.LVL18:
 152 0000 2DE9F043 		push	{r4, r5, r6, r7, r8, r9, lr}
 153              		.cfi_def_cfa_offset 28
 154              		.cfi_offset 4, -28
 155              		.cfi_offset 5, -24
 156              		.cfi_offset 6, -20
 157              		.cfi_offset 7, -16
 158              		.cfi_offset 8, -12
 159              		.cfi_offset 9, -8
 160              		.cfi_offset 14, -4
 161 0004 9046     		mov	r8, r2
 162 0006 83B0     		sub	sp, sp, #12
 163              		.cfi_def_cfa_offset 40
 164              		.loc 1 93 0
 165 0008 1E46     		mov	r6, r3
 166 000a 8146     		mov	r9, r0
 167              		.loc 1 99 0
 168 000c 59B3     		cbz	r1, .L15
 169              		.loc 1 102 0
 170 000e 0A9A     		ldr	r2, [sp, #40]
 171              	.LVL19:
ARM GAS  /tmp/cc0x4P69.s 			page 4


 172 0010 204B     		ldr	r3, .L35
 173              	.LVL20:
 174 0012 0A9C     		ldr	r4, [sp, #40]
 175 0014 C2EBC101 		rsb	r1, r2, r1, lsl #3
 176              	.LVL21:
 177 0018 83FB0123 		smull	r2, r3, r3, r1
 178 001c 0B44     		add	r3, r3, r1
 179 001e C917     		asrs	r1, r1, #31
 180 0020 C1EBE301 		rsb	r1, r1, r3, asr #3
 181 0024 C9B2     		uxtb	r1, r1
 182 0026 88F80010 		strb	r1, [r8]
 183              	.LVL22:
 184              	.L16:
 185              		.loc 1 120 0
 186 002a 16B1     		cbz	r6, .L18
 187              		.loc 1 122 0
 188 002c 3368     		ldr	r3, [r6]
 189 002e C8F80430 		str	r3, [r8, #4]
 190              	.L18:
 191              		.loc 1 125 0 discriminator 1
 192 0032 A1B1     		cbz	r1, .L14
 193              		.loc 1 125 0 is_stmt 0
 194 0034 0025     		movs	r5, #0
 195              	.LVL23:
 196              	.L21:
 197              		.loc 1 129 0 is_stmt 1
 198 0036 0123     		movs	r3, #1
 199 0038 0E22     		movs	r2, #14
 200 003a 2146     		mov	r1, r4
 201 003c 4846     		mov	r0, r9
 202              		.loc 1 125 0
 203 003e 1D44     		add	r5, r5, r3
 204              	.LVL24:
 205              		.loc 1 140 0
 206 0040 1444     		add	r4, r4, r2
 207              	.LVL25:
 208              		.loc 1 127 0
 209 0042 46B1     		cbz	r6, .L20
 210              	.LVL26:
 211              		.loc 1 129 0
 212 0044 3768     		ldr	r7, [r6]
 213 0046 0097     		str	r7, [sp]
 214 0048 FFF7FEFF 		bl	canardDecodeScalar
 215              	.LVL27:
 216              		.loc 1 134 0
 217 004c 0E28     		cmp	r0, #14
 218 004e 12D1     		bne	.L17
 219              		.loc 1 138 0
 220 0050 3368     		ldr	r3, [r6]
 221 0052 0233     		adds	r3, r3, #2
 222 0054 3360     		str	r3, [r6]
 223              	.LVL28:
 224              	.L20:
 225              		.loc 1 125 0 discriminator 2
 226 0056 98F80030 		ldrb	r3, [r8]	@ zero_extendqisi2
 227 005a AB42     		cmp	r3, r5
 228 005c EBD8     		bhi	.L21
ARM GAS  /tmp/cc0x4P69.s 			page 5


 229              	.LVL29:
 230              	.L14:
 231              		.loc 1 153 0
 232 005e 2046     		mov	r0, r4
 233 0060 03B0     		add	sp, sp, #12
 234              		.cfi_remember_state
 235              		.cfi_def_cfa_offset 28
 236              		@ sp needed
 237 0062 BDE8F083 		pop	{r4, r5, r6, r7, r8, r9, pc}
 238              	.LVL30:
 239              	.L15:
 240              		.cfi_restore_state
 241              		.loc 1 107 0
 242 0066 0092     		str	r2, [sp]
 243 0068 0B46     		mov	r3, r1
 244              	.LVL31:
 245 006a 0522     		movs	r2, #5
 246              	.LVL32:
 247 006c 0A99     		ldr	r1, [sp, #40]
 248              	.LVL33:
 249 006e FFF7FEFF 		bl	canardDecodeScalar
 250              	.LVL34:
 251              		.loc 1 112 0
 252 0072 0528     		cmp	r0, #5
 253 0074 08D0     		beq	.L34
 254              	.LVL35:
 255              	.L17:
 256              		.loc 1 145 0
 257 0076 0028     		cmp	r0, #0
 258 0078 B4BF     		ite	lt
 259 007a 0446     		movlt	r4, r0
 260 007c 6FF00804 		mvnge	r4, #8
 261              		.loc 1 153 0
 262 0080 2046     		mov	r0, r4
 263              	.LVL36:
 264 0082 03B0     		add	sp, sp, #12
 265              		.cfi_remember_state
 266              		.cfi_def_cfa_offset 28
 267              		@ sp needed
 268 0084 BDE8F083 		pop	{r4, r5, r6, r7, r8, r9, pc}
 269              	.LVL37:
 270              	.L34:
 271              		.cfi_restore_state
 272              		.loc 1 116 0
 273 0088 0A9B     		ldr	r3, [sp, #40]
 274 008a 98F80010 		ldrb	r1, [r8]	@ zero_extendqisi2
 275 008e 5C1D     		adds	r4, r3, #5
 276              	.LVL38:
 277 0090 CBE7     		b	.L16
 278              	.L36:
 279 0092 00BF     		.align	2
 280              	.L35:
 281 0094 93244992 		.word	-1840700269
 282              		.cfi_endproc
 283              	.LFE2:
 284              		.size	uavcan_equipment_esc_RawCommand_decode_internal, .-uavcan_equipment_esc_RawCommand_decode_in
 285              		.section	.text.uavcan_equipment_esc_RawCommand_decode,"ax",%progbits
ARM GAS  /tmp/cc0x4P69.s 			page 6


 286              		.align	1
 287              		.p2align 4,,15
 288              		.global	uavcan_equipment_esc_RawCommand_decode
 289              		.syntax unified
 290              		.thumb
 291              		.thumb_func
 292              		.fpu fpv4-sp-d16
 293              		.type	uavcan_equipment_esc_RawCommand_decode, %function
 294              	uavcan_equipment_esc_RawCommand_decode:
 295              	.LFB3:
 296              		.loc 1 169 0
 297              		.cfi_startproc
 298              		@ args = 0, pretend = 0, frame = 0
 299              		@ frame_needed = 0, uses_anonymous_args = 0
 300              	.LVL39:
 301 0000 70B5     		push	{r4, r5, r6, lr}
 302              		.cfi_def_cfa_offset 16
 303              		.cfi_offset 4, -16
 304              		.cfi_offset 5, -12
 305              		.cfi_offset 6, -8
 306              		.cfi_offset 14, -4
 307 0002 541E     		subs	r4, r2, #1
 308 0004 82B0     		sub	sp, sp, #8
 309              		.cfi_def_cfa_offset 24
 310 0006 D61D     		adds	r6, r2, #7
 311              	.LBB2:
 312              		.loc 1 176 0
 313 0008 0025     		movs	r5, #0
 314              	.LVL40:
 315              	.L38:
 316              		.loc 1 176 0 is_stmt 0 discriminator 3
 317 000a 04F8015F 		strb	r5, [r4, #1]!
 318              		.loc 1 174 0 is_stmt 1 discriminator 3
 319 000e B442     		cmp	r4, r6
 320 0010 FBD1     		bne	.L38
 321              	.LBE2:
 322              		.loc 1 179 0
 323 0012 0095     		str	r5, [sp]
 324 0014 FFF7FEFF 		bl	uavcan_equipment_esc_RawCommand_decode_internal
 325              	.LVL41:
 326              		.loc 1 182 0
 327 0018 02B0     		add	sp, sp, #8
 328              		.cfi_def_cfa_offset 16
 329              		@ sp needed
 330 001a 70BD     		pop	{r4, r5, r6, pc}
 331              		.cfi_endproc
 332              	.LFE3:
 333              		.size	uavcan_equipment_esc_RawCommand_decode, .-uavcan_equipment_esc_RawCommand_decode
 334              		.text
 335              	.Letext0:
 336              		.file 2 "/usr/arm-none-eabi/include/machine/_default_types.h"
 337              		.file 3 "/usr/arm-none-eabi/include/sys/_stdint.h"
 338              		.file 4 "libcanard/canard.h"
 339              		.file 5 "libcanard/dsdl/uavcan/equipment/esc/RawCommand.h"