ARM GAS  /tmp/cc0x4P69.s 			page 1


   1              		.cpu cortex-m4
   2              		.eabi_attribute 27, 1
   3              		.eabi_attribute 28, 1
   4              		.eabi_attribute 20, 1
   5              		.eabi_attribute 21, 1
   6              		.eabi_attribute 23, 3
   7              		.eabi_attribute 24, 1
   8              		.eabi_attribute 25, 1
   9              		.eabi_attribute 26, 1
  10              		.eabi_attribute 30, 2
  11              		.eabi_attribute 34, 1
  12              		.eabi_attribute 18, 4
  13              		.file	"esc_RawCommand.c"
  14              		.text
  15              	.Ltext0:
  16              		.cfi_sections	.debug_frame
  17              		.section	.text.uavcan_equipment_esc_RawCommand_encode_internal,"ax",%progbits
  18              		.align	1
  19              		.p2align 4,,15
  20              		.global	uavcan_equipment_esc_RawCommand_encode_internal
  21              		.syntax unified
  22              		.thumb
  23              		.thumb_func
  24              		.fpu fpv4-sp-d16
  25              		.type	uavcan_equipment_esc_RawCommand_encode_internal, %function
  26              	uavcan_equipment_esc_RawCommand_encode_internal:
  27              	.LFB0:
  28              		.file 1 "libcanard/dsdl/uavcan/equipment/esc/esc_RawCommand.c"
  29              		.loc 1 37 0
  30              		.cfi_startproc
  31              		@ args = 0, pretend = 0, frame = 0
  32              		@ frame_needed = 0, uses_anonymous_args = 0
  33              	.LVL0:
  34 0000 F8B5     		push	{r3, r4, r5, r6, r7, lr}
  35              		.cfi_def_cfa_offset 24
  36              		.cfi_offset 3, -24
  37              		.cfi_offset 4, -20
  38              		.cfi_offset 5, -16
  39              		.cfi_offset 6, -12
  40              		.cfi_offset 7, -8
  41              		.cfi_offset 14, -4
  42              		.loc 1 37 0
  43 0002 0646     		mov	r6, r0
  44 0004 0F46     		mov	r7, r1
  45 0006 1546     		mov	r5, r2
  46              		.loc 1 41 0
  47 0008 93B1     		cbz	r3, .L11
  48              	.LVL1:
  49              	.L2:
  50              		.loc 1 49 0 discriminator 1
  51 000a 3378     		ldrb	r3, [r6]	@ zero_extendqisi2
  52 000c 73B1     		cbz	r3, .L3
  53              		.loc 1 49 0 is_stmt 0
  54 000e 0024     		movs	r4, #0
  55              	.LVL2:
  56              	.L4:
  57              		.loc 1 54 0 is_stmt 1 discriminator 3
ARM GAS  /tmp/cc0x4P69.s 			page 2


  58 0010 7368     		ldr	r3, [r6, #4]
  59              		.loc 1 51 0 discriminator 3
  60 0012 2946     		mov	r1, r5
  61 0014 03EB4403 		add	r3, r3, r4, lsl #1
  62 0018 0E22     		movs	r2, #14
  63 001a 3846     		mov	r0, r7
  64 001c FFF7FEFF 		bl	canardEncodeScalar
  65              	.LVL3:
  66              		.loc 1 49 0 discriminator 3
  67 0020 3378     		ldrb	r3, [r6]	@ zero_extendqisi2
  68 0022 0134     		adds	r4, r4, #1
  69              	.LVL4:
  70 0024 A342     		cmp	r3, r4
  71              		.loc 1 55 0 discriminator 3
  72 0026 05F10E05 		add	r5, r5, #14
  73              	.LVL5:
  74              		.loc 1 49 0 discriminator 3
  75 002a F1D8     		bhi	.L4
  76              	.LVL6:
  77              	.L3:
  78              		.loc 1 59 0
  79 002c 2846     		mov	r0, r5
  80 002e F8BD     		pop	{r3, r4, r5, r6, r7, pc}
  81              	.LVL7:
  82              	.L11:
  83              		.loc 1 44 0
  84 0030 0346     		mov	r3, r0
  85              	.LVL8:
  86 0032 2946     		mov	r1, r5
  87              	.LVL9:
  88 0034 0522     		movs	r2, #5
  89              	.LVL10:
  90 0036 3846     		mov	r0, r7
  91              	.LVL11:
  92 0038 FFF7FEFF 		bl	canardEncodeScalar
  93              	.LVL12:
  94              		.loc 1 45 0
  95 003c 0535     		adds	r5, r5, #5
  96              	.LVL13:
  97 003e E4E7     		b	.L2
  98              		.cfi_endproc
  99              	.LFE0:
 100              		.size	uavcan_equipment_esc_RawCommand_encode_internal, .-uavcan_equipment_esc_RawCommand_encode_in
 101              		.section	.text.uavcan_equipment_esc_RawCommand_encode,"ax",%progbits
 102              		.align	1
 103              		.p2align 4,,15
 104              		.global	uavcan_equipment_esc_RawCommand_encode
 105              		.syntax unified
 106              		.thumb
 107              		.thumb_func
 108              		.fpu fpv4-sp-d16
 109              		.type	uavcan_equipment_esc_RawCommand_encode, %function
 110              	uavcan_equipment_esc_RawCommand_encode:
 111              	.LFB1:
 112              		.loc 1 68 0
 113              		.cfi_startproc
 114              		@ args = 0, pretend = 0, frame = 0
ARM GAS  /tmp/cc0x4P69.s 			page 3


 115              		@ frame_needed = 0, uses_anonymous_args = 0
 116              	.LVL14:
 117 0000 08B5     		push	{r3, lr}
 118              		.cfi_def_cfa_offset 8
 119              		.cfi_offset 3, -8
 120              		.cfi_offset 14, -4
 121              		.loc 1 71 0
 122 0002 0022     		movs	r2, #0
 123 0004 0123     		movs	r3, #1
 124 0006 FFF7FEFF 		bl	uavcan_equipment_esc_RawCommand_encode_internal
 125              	.LVL15:
 126              		.loc 1 73 0
 127 000a 0730     		adds	r0, r0, #7
 128              	.LVL16:
 129              		.loc 1 74 0
 130 000c C008     		lsrs	r0, r0, #3
 131              	.LVL17:
 132 000e 08BD     		pop	{r3, pc}
 133              		.cfi_endproc
 134              	.LFE1:
 135              		.size	uavcan_equipment_esc_RawCommand_encode, .-uavcan_equipment_esc_RawCommand_encode
 136              		.section	.text.uavcan_equipment_esc_RawCommand_decode_internal,"ax",%progbits
 137              		.align	1
 138              		.p2align 4,,15
 139              		.global	uavcan_equipment_esc_RawCommand_decode_internal
 140              		.syntax unified
 141              		.thumb
 142              		.thumb_func
 143              		.fpu fpv4-sp-d16
 144              		.type	uavcan_equipment_esc_RawCommand_decode_internal, %function
 145              	uavcan_equipment_esc_RawCommand_decode_internal:
 146              	.LFB2:
 147              		.loc 1 93 0
 148              		.cfi_startproc
 149              		@ args = 4, pretend = 0, frame = 0
 150              		@ frame_needed = 0, uses_anonymous_args = 0
 151              	.LVL18:
 152 0000 2DE9F043 		push	{r4, r5, r6, r7, r8, r9, lr}
 153              		.cfi_def_cfa_offset 28
 154              		.cfi_offset 4, -28
 155              		.cfi_offset 5, -24
 156              		.cfi_offset 6, -20
 157              		.cfi_offset 7, -16
 158              		.cfi_offset 8, -12
 159              		.cfi_offset 9, -8
 160              		.cfi_offset 14, -4
 161 0004 9046     		mov	r8, r2
 162 0006 83B0     		sub	sp, sp, #12
 163              		.cfi_def_cfa_offset 40
 164              		.loc 1 93 0
 165 0008 1E46     		mov	r6, r3
 166 000a 8146     		mov	r9, r0
 167              		.loc 1 99 0
 168 000c 59B3     		cbz	r1, .L15
 169              		.loc 1 102 0
 170 000e 0A9A     		ldr	r2, [sp, #40]
 171              	.LVL19:
ARM GAS  /tmp/cc0x4P69.s 			page 4


 172 0010 204B     		ldr	r3, .L35
 173              	.LVL20:
 174 0012 0A9C     		ldr	r4, [sp, #40]
 175 0014 C2EBC101 		rsb	r1, r2, r1, lsl #3
 176              	.LVL21:
 177 0018 83FB0123 		smull	r2, r3, r3, r1
 178 001c 0B44     		add	r3, r3, r1
 179 001e C917     		asrs	r1, r1, #31
 180 0020 C1EBE301 		rsb	r1, r1, r3, asr #3
 181 0024 C9B2     		uxtb	r1, r1
 182 0026 88F80010 		strb	r1, [r8]
 183              	.LVL22:
 184              	.L16:
 185              		.loc 1 120 0
 186 002a 16B1     		cbz	r6, .L18
 187              		.loc 1 122 0
 188 002c 3368     		ldr	r3, [r6]
 189 002e C8F80430 		str	r3, [r8, #4]
 190              	.L18:
 191              		.loc 1 125 0 discriminator 1
 192 0032 A1B1     		cbz	r1, .L14
 193              		.loc 1 125 0 is_stmt 0
 194 0034 0025     		movs	r5, #0
 195              	.LVL23:
 196              	.L21:
 197              		.loc 1 129 0 is_stmt 1
 198 0036 0123     		movs	r3, #1
 199 0038 0E22     		movs	r2, #14
 200 003a 2146     		mov	r1, r4
 201 003c 4846     		mov	r0, r9
 202              		.loc 1 125 0
 203 003e 1D44     		add	r5, r5, r3
 204              	.LVL24:
 205              		.loc 1 140 0
 206 0040 1444     		add	r4, r4, r2
 207              	.LVL25:
 208              		.loc 1 127 0
 209 0042 46B1     		cbz	r6, .L20
 210              	.LVL26:
 211              		.loc 1 129 0
 212 0044 3768     		ldr	r7, [r6]
 213 0046 0097     		str	r7, [sp]
 214 0048 FFF7FEFF 		bl	canardDecodeScalar
 215              	.LVL27:
 216              		.loc 1 134 0
 217 004c 0E28     		cmp	r0, #14
 218 004e 12D1     		bne	.L17
 219              		.loc 1 138 0
 220 0050 3368     		ldr	r3, [r6]
 221 0052 0233     		adds	r3, r3, #2
 222 0054 3360     		str	r3, [r6]
 223              	.LVL28:
 224              	.L20:
 225              		.loc 1 125 0 discriminator 2
 226 0056 98F80030 		ldrb	r3, [r8]	@ zero_extendqisi2
 227 005a AB42     		cmp	r3, r5
 228 005c EBD8     		bhi	.L21
ARM GAS  /tmp/cc0x4P69.s 			page 5


 229              	.LVL29:
 230              	.L14:
 231              		.loc 1 153 0
 232 005e 2046     		mov	r0, r4
 233 0060 03B0     		add	sp, sp, #12
 234              		.cfi_remember_state
 235              		.cfi_def_cfa_offset 28
 236              		@ sp needed
 237 0062 BDE8F083 		pop	{r4, r5, r6, r7, r8, r9, pc}
 238              	.LVL30:
 239              	.L15:
 240              		.cfi_restore_state
 241              		.loc 1 107 0
 242 0066 0092     		str	r2, [sp]
 243 0068 0B46     		mov	r3, r1
 244              	.LVL31:
 245 006a 0522     		movs	r2, #5
 246              	.LVL32:
 247 006c 0A99     		ldr	r1, [sp, #40]
 248              	.LVL33:
 249 006e FFF7FEFF 		bl	canardDecodeScalar
 250              	.LVL34:
 251              		.loc 1 112 0
 252 0072 0528     		cmp	r0, #5
 253 0074 08D0     		beq	.L34
 254              	.LVL35:
 255              	.L17:
 256              		.loc 1 145 0
 257 0076 0028     		cmp	r0, #0
 258 0078 B4BF     		ite	lt
 259 007a 0446     		movlt	r4, r0
 260 007c 6FF00804 		mvnge	r4, #8
 261              		.loc 1 153 0
 262 0080 2046     		mov	r0, r4
 263              	.LVL36:
 264 0082 03B0     		add	sp, sp, #12
 265              		.cfi_remember_state
 266              		.cfi_def_cfa_offset 28
 267              		@ sp needed
 268 0084 BDE8F083 		pop	{r4, r5, r6, r7, r8, r9, pc}
 269              	.LVL37:
 270              	.L34:
 271              		.cfi_restore_state
 272              		.loc 1 116 0
 273 0088 0A9B     		ldr	r3, [sp, #40]
 274 008a 98F80010 		ldrb	r1, [r8]	@ zero_extendqisi2
 275 008e 5C1D     		adds	r4, r3, #5
 276              	.LVL38:
 277 0090 CBE7     		b	.L16
 278              	.L36:
 279 0092 00BF     		.align	2
 280              	.L35:
 281 0094 93244992 		.word	-1840700269
 282              		.cfi_endproc
 283              	.LFE2:
 284              		.size	uavcan_equipment_esc_RawCommand_decode_internal, .-uavcan_equipment_esc_RawCommand_decode_in
 285              		.section	.text.uavcan_equipment_esc_RawCommand_decode,"ax",%progbits
ARM GAS  /tmp/cc0x4P69.s 			page 6


 286              		.align	1
 287              		.p2align 4,,15
 288              		.global	uavcan_equipment_esc_RawCommand_decode
 289              		.syntax unified
 290              		.thumb
 291              		.thumb_func
 292              		.fpu fpv4-sp-d16
 293              		.type	uavcan_equipment_esc_RawCommand_decode, %function
 294              	uavcan_equipment_esc_RawCommand_decode:
 295              	.LFB3:
 296              		.loc 1 169 0
 297              		.cfi_startproc
 298              		@ args = 0, pretend = 0, frame = 0
 299              		@ frame_needed = 0, uses_anonymous_args = 0
 300              	.LVL39:
 301 0000 70B5     		push	{r4, r5, r6, lr}
 302              		.cfi_def_cfa_offset 16
 303              		.cfi_offset 4, -16
 304              		.cfi_offset 5, -12
 305              		.cfi_offset 6, -8
 306              		.cfi_offset 14, -4
 307 0002 541E     		subs	r4, r2, #1
 308 0004 82B0     		sub	sp, sp, #8
 309              		.cfi_def_cfa_offset 24
 310 0006 D61D     		adds	r6, r2, #7
 311              	.LBB2:
 312              		.loc 1 176 0
 313 0008 0025     		movs	r5, #0
 314              	.LVL40:
 315              	.L38:
 316              		.loc 1 176 0 is_stmt 0 discriminator 3
 317 000a 04F8015F 		strb	r5, [r4, #1]!
 318              		.loc 1 174 0 is_stmt 1 discriminator 3
 319 000e B442     		cmp	r4, r6
 320 0010 FBD1     		bne	.L38
 321              	.LBE2:
 322              		.loc 1 179 0
 323 0012 0095     		str	r5, [sp]
 324 0014 FFF7FEFF 		bl	uavcan_equipment_esc_RawCommand_decode_internal
 325              	.LVL41:
 326              		.loc 1 182 0
 327 0018 02B0     		add	sp, sp, #8
 328              		.cfi_def_cfa_offset 16
 329              		@ sp needed
 330 001a 70BD     		pop	{r4, r5, r6, pc}
 331              		.cfi_endproc
 332              	.LFE3:
 333              		.size	uavcan_equipment_esc_RawCommand_decode, .-uavcan_equipment_esc_RawCommand_decode
 334              		.text
 335              	.Letext0:
 336              		.file 2 "/usr/arm-none-eabi/include/machine/_default_types.h"
 337              		.file 3 "/usr/arm-none-eabi/include/sys/_stdint.h"
 338              		.file 4 "libcanard/canard.h"
 339              		.file 5 "libcanard/dsdl/uavcan/equipment/esc/RawCommand.h"
 340              		.section	.debug_info,"",%progbits
 341              	.Ldebug_info0:
 342 0000 EB040000 		.4byte	0x4eb
ARM GAS  /tmp/cc0x4P69.s 			page 7


 343 0004 0400     		.2byte	0x4
 344 0006 00000000 		.4byte	.Ldebug_abbrev0
 345 000a 04       		.byte	0x4
 346 000b 01       		.uleb128 0x1
 347 000c 45030000 		.4byte	.LASF51
 348 0010 0C       		.byte	0xc
 349 0011 FD000000 		.4byte	.LASF52
 350 0015 4F010000 		.4byte	.LASF53
 351 0019 00000000 		.4byte	.Ldebug_ranges0+0
 352 001d 00000000 		.4byte	0
 353 0021 00000000 		.4byte	.Ldebug_line0
 354 0025 02       		.uleb128 0x2
 355 0026 01       		.byte	0x1
 356 0027 06       		.byte	0x6
 357 0028 55010000 		.4byte	.LASF0
 358 002c 03       		.uleb128 0x3
 359 002d D0000000 		.4byte	.LASF2
 360 0031 02       		.byte	0x2
 361 0032 2B       		.byte	0x2b
 362 0033 37000000 		.4byte	0x37
 363 0037 02       		.uleb128 0x2
 364 0038 01       		.byte	0x1
 365 0039 08       		.byte	0x8
 366 003a 32010000 		.4byte	.LASF1
 367 003e 03       		.uleb128 0x3
 368 003f EB020000 		.4byte	.LASF3
 369 0043 02       		.byte	0x2
 370 0044 37       		.byte	0x37
 371 0045 49000000 		.4byte	0x49
 372 0049 02       		.uleb128 0x2
 373 004a 02       		.byte	0x2
 374 004b 05       		.byte	0x5
 375 004c 24000000 		.4byte	.LASF4
 376 0050 03       		.uleb128 0x3
 377 0051 93000000 		.4byte	.LASF5
 378 0055 02       		.byte	0x2
 379 0056 39       		.byte	0x39
 380 0057 5B000000 		.4byte	0x5b
 381 005b 02       		.uleb128 0x2
 382 005c 02       		.byte	0x2
 383 005d 07       		.byte	0x7
 384 005e E8010000 		.4byte	.LASF6
 385 0062 03       		.uleb128 0x3
 386 0063 E1020000 		.4byte	.LASF7
 387 0067 02       		.byte	0x2
 388 0068 4D       		.byte	0x4d
 389 0069 6D000000 		.4byte	0x6d
 390 006d 02       		.uleb128 0x2
 391 006e 04       		.byte	0x4
 392 006f 05       		.byte	0x5
 393 0070 C0000000 		.4byte	.LASF8
 394 0074 03       		.uleb128 0x3
 395 0075 88000000 		.4byte	.LASF9
 396 0079 02       		.byte	0x2
 397 007a 4F       		.byte	0x4f
 398 007b 7F000000 		.4byte	0x7f
 399 007f 02       		.uleb128 0x2
ARM GAS  /tmp/cc0x4P69.s 			page 8


 400 0080 04       		.byte	0x4
 401 0081 07       		.byte	0x7
 402 0082 6E020000 		.4byte	.LASF10
 403 0086 02       		.uleb128 0x2
 404 0087 08       		.byte	0x8
 405 0088 05       		.byte	0x5
 406 0089 A6000000 		.4byte	.LASF11
 407 008d 03       		.uleb128 0x3
 408 008e 44020000 		.4byte	.LASF12
 409 0092 02       		.byte	0x2
 410 0093 69       		.byte	0x69
 411 0094 98000000 		.4byte	0x98
 412 0098 02       		.uleb128 0x2
 413 0099 08       		.byte	0x8
 414 009a 07       		.byte	0x7
 415 009b 61010000 		.4byte	.LASF13
 416 009f 04       		.uleb128 0x4
 417 00a0 04       		.byte	0x4
 418 00a1 05       		.byte	0x5
 419 00a2 696E7400 		.ascii	"int\000"
 420 00a6 02       		.uleb128 0x2
 421 00a7 04       		.byte	0x4
 422 00a8 07       		.byte	0x7
 423 00a9 81010000 		.4byte	.LASF14
 424 00ad 03       		.uleb128 0x3
 425 00ae 9E000000 		.4byte	.LASF15
 426 00b2 03       		.byte	0x3
 427 00b3 18       		.byte	0x18
 428 00b4 2C000000 		.4byte	0x2c
 429 00b8 05       		.uleb128 0x5
 430 00b9 AD000000 		.4byte	0xad
 431 00bd 03       		.uleb128 0x3
 432 00be 2F020000 		.4byte	.LASF16
 433 00c2 03       		.byte	0x3
 434 00c3 20       		.byte	0x20
 435 00c4 3E000000 		.4byte	0x3e
 436 00c8 03       		.uleb128 0x3
 437 00c9 8E010000 		.4byte	.LASF17
 438 00cd 03       		.byte	0x3
 439 00ce 24       		.byte	0x24
 440 00cf 50000000 		.4byte	0x50
 441 00d3 03       		.uleb128 0x3
 442 00d4 19020000 		.4byte	.LASF18
 443 00d8 03       		.byte	0x3
 444 00d9 2C       		.byte	0x2c
 445 00da 62000000 		.4byte	0x62
 446 00de 05       		.uleb128 0x5
 447 00df D3000000 		.4byte	0xd3
 448 00e3 03       		.uleb128 0x3
 449 00e4 78010000 		.4byte	.LASF19
 450 00e8 03       		.byte	0x3
 451 00e9 30       		.byte	0x30
 452 00ea 74000000 		.4byte	0x74
 453 00ee 03       		.uleb128 0x3
 454 00ef 1B000000 		.4byte	.LASF20
 455 00f3 03       		.byte	0x3
 456 00f4 3C       		.byte	0x3c
ARM GAS  /tmp/cc0x4P69.s 			page 9


 457 00f5 8D000000 		.4byte	0x8d
 458 00f9 03       		.uleb128 0x3
 459 00fa 5D020000 		.4byte	.LASF21
 460 00fe 04       		.byte	0x4
 461 00ff 99       		.byte	0x99
 462 0100 09010000 		.4byte	0x109
 463 0104 05       		.uleb128 0x5
 464 0105 F9000000 		.4byte	0xf9
 465 0109 06       		.uleb128 0x6
 466 010a 5D020000 		.4byte	.LASF21
 467 010e 20       		.byte	0x20
 468 010f 04       		.byte	0x4
 469 0110 0F01     		.2byte	0x10f
 470 0112 99010000 		.4byte	0x199
 471 0116 07       		.uleb128 0x7
 472 0117 EE000000 		.4byte	.LASF22
 473 011b 04       		.byte	0x4
 474 011c 1401     		.2byte	0x114
 475 011e EE000000 		.4byte	0xee
 476 0122 00       		.byte	0
 477 0123 07       		.uleb128 0x7
 478 0124 37020000 		.4byte	.LASF23
 479 0128 04       		.byte	0x4
 480 0129 2801     		.2byte	0x128
 481 012b F4010000 		.4byte	0x1f4
 482 012f 08       		.byte	0x8
 483 0130 07       		.uleb128 0x7
 484 0131 40010000 		.4byte	.LASF24
 485 0135 04       		.byte	0x4
 486 0136 2D01     		.2byte	0x12d
 487 0138 EC010000 		.4byte	0x1ec
 488 013c 0C       		.byte	0xc
 489 013d 07       		.uleb128 0x7
 490 013e E1000000 		.4byte	.LASF25
 491 0142 04       		.byte	0x4
 492 0143 2F01     		.2byte	0x12f
 493 0145 F4010000 		.4byte	0x1f4
 494 0149 10       		.byte	0x10
 495 014a 07       		.uleb128 0x7
 496 014b F5020000 		.4byte	.LASF26
 497 014f 04       		.byte	0x4
 498 0150 3101     		.2byte	0x131
 499 0152 C8000000 		.4byte	0xc8
 500 0156 14       		.byte	0x14
 501 0157 07       		.uleb128 0x7
 502 0158 00000000 		.4byte	.LASF27
 503 015c 04       		.byte	0x4
 504 015d 3601     		.2byte	0x136
 505 015f C8000000 		.4byte	0xc8
 506 0163 16       		.byte	0x16
 507 0164 07       		.uleb128 0x7
 508 0165 21020000 		.4byte	.LASF28
 509 0169 04       		.byte	0x4
 510 016a 3701     		.2byte	0x137
 511 016c AD000000 		.4byte	0xad
 512 0170 18       		.byte	0x18
 513 0171 07       		.uleb128 0x7
ARM GAS  /tmp/cc0x4P69.s 			page 10


 514 0172 01030000 		.4byte	.LASF29
 515 0176 04       		.byte	0x4
 516 0177 3801     		.2byte	0x138
 517 0179 AD000000 		.4byte	0xad
 518 017d 19       		.byte	0x19
 519 017e 07       		.uleb128 0x7
 520 017f 12000000 		.4byte	.LASF30
 521 0183 04       		.byte	0x4
 522 0184 3901     		.2byte	0x139
 523 0186 AD000000 		.4byte	0xad
 524 018a 1A       		.byte	0x1a
 525 018b 07       		.uleb128 0x7
 526 018c A9010000 		.4byte	.LASF31
 527 0190 04       		.byte	0x4
 528 0191 3A01     		.2byte	0x13a
 529 0193 AD000000 		.4byte	0xad
 530 0197 1B       		.byte	0x1b
 531 0198 00       		.byte	0
 532 0199 02       		.uleb128 0x2
 533 019a 01       		.byte	0x1
 534 019b 02       		.byte	0x2
 535 019c 13020000 		.4byte	.LASF32
 536 01a0 02       		.uleb128 0x2
 537 01a1 01       		.byte	0x1
 538 01a2 08       		.byte	0x8
 539 01a3 0E020000 		.4byte	.LASF33
 540 01a7 08       		.uleb128 0x8
 541 01a8 97010000 		.4byte	.LASF34
 542 01ac 04       		.byte	0x4
 543 01ad 04       		.byte	0x4
 544 01ae D7       		.byte	0xd7
 545 01af CC010000 		.4byte	0x1cc
 546 01b3 09       		.uleb128 0x9
 547 01b4 40030000 		.4byte	.LASF35
 548 01b8 04       		.byte	0x4
 549 01b9 D9       		.byte	0xd9
 550 01ba CC010000 		.4byte	0x1cc
 551 01be 00       		.byte	0
 552 01bf 09       		.uleb128 0x9
 553 01c0 4F020000 		.4byte	.LASF36
 554 01c4 04       		.byte	0x4
 555 01c5 DA       		.byte	0xda
 556 01c6 D2010000 		.4byte	0x1d2
 557 01ca 04       		.byte	0x4
 558 01cb 00       		.byte	0
 559 01cc 0A       		.uleb128 0xa
 560 01cd 04       		.byte	0x4
 561 01ce A7010000 		.4byte	0x1a7
 562 01d2 0B       		.uleb128 0xb
 563 01d3 AD000000 		.4byte	0xad
 564 01d7 E1010000 		.4byte	0x1e1
 565 01db 0C       		.uleb128 0xc
 566 01dc A6000000 		.4byte	0xa6
 567 01e0 00       		.byte	0
 568 01e1 03       		.uleb128 0x3
 569 01e2 97010000 		.4byte	.LASF34
 570 01e6 04       		.byte	0x4
ARM GAS  /tmp/cc0x4P69.s 			page 11


 571 01e7 DB       		.byte	0xdb
 572 01e8 A7010000 		.4byte	0x1a7
 573 01ec 0A       		.uleb128 0xa
 574 01ed 04       		.byte	0x4
 575 01ee E1010000 		.4byte	0x1e1
 576 01f2 0D       		.uleb128 0xd
 577 01f3 04       		.byte	0x4
 578 01f4 0A       		.uleb128 0xa
 579 01f5 04       		.byte	0x4
 580 01f6 B8000000 		.4byte	0xb8
 581 01fa 0E       		.uleb128 0xe
 582 01fb 08       		.byte	0x8
 583 01fc 05       		.byte	0x5
 584 01fd 30       		.byte	0x30
 585 01fe 1B020000 		.4byte	0x21b
 586 0202 0F       		.uleb128 0xf
 587 0203 6C656E00 		.ascii	"len\000"
 588 0207 05       		.byte	0x5
 589 0208 32       		.byte	0x32
 590 0209 AD000000 		.4byte	0xad
 591 020d 00       		.byte	0
 592 020e 09       		.uleb128 0x9
 593 020f 4F020000 		.4byte	.LASF36
 594 0213 05       		.byte	0x5
 595 0214 33       		.byte	0x33
 596 0215 1B020000 		.4byte	0x21b
 597 0219 04       		.byte	0x4
 598 021a 00       		.byte	0
 599 021b 0A       		.uleb128 0xa
 600 021c 04       		.byte	0x4
 601 021d BD000000 		.4byte	0xbd
 602 0221 0E       		.uleb128 0xe
 603 0222 08       		.byte	0x8
 604 0223 05       		.byte	0x5
 605 0224 2D       		.byte	0x2d
 606 0225 36020000 		.4byte	0x236
 607 0229 0F       		.uleb128 0xf
 608 022a 636D6400 		.ascii	"cmd\000"
 609 022e 05       		.byte	0x5
 610 022f 34       		.byte	0x34
 611 0230 FA010000 		.4byte	0x1fa
 612 0234 00       		.byte	0
 613 0235 00       		.byte	0
 614 0236 03       		.uleb128 0x3
 615 0237 20030000 		.4byte	.LASF37
 616 023b 05       		.byte	0x5
 617 023c 36       		.byte	0x36
 618 023d 21020000 		.4byte	0x221
 619 0241 10       		.uleb128 0x10
 620 0242 2E000000 		.4byte	.LASF42
 621 0246 01       		.byte	0x1
 622 0247 A5       		.byte	0xa5
 623 0248 D3000000 		.4byte	0xd3
 624 024c 00000000 		.4byte	.LFB3
 625 0250 1C000000 		.4byte	.LFE3-.LFB3
 626 0254 01       		.uleb128 0x1
 627 0255 9C       		.byte	0x9c
ARM GAS  /tmp/cc0x4P69.s 			page 12


 628 0256 DE020000 		.4byte	0x2de
 629 025a 11       		.uleb128 0x11
 630 025b 54020000 		.4byte	.LASF38
 631 025f 01       		.byte	0x1
 632 0260 A5       		.byte	0xa5
 633 0261 DE020000 		.4byte	0x2de
 634 0265 00000000 		.4byte	.LLST15
 635 0269 11       		.uleb128 0x11
 636 026a F5020000 		.4byte	.LASF26
 637 026e 01       		.byte	0x1
 638 026f A6       		.byte	0xa6
 639 0270 C8000000 		.4byte	0xc8
 640 0274 21000000 		.4byte	.LLST16
 641 0278 11       		.uleb128 0x11
 642 0279 0D000000 		.4byte	.LASF39
 643 027d 01       		.byte	0x1
 644 027e A7       		.byte	0xa7
 645 027f E4020000 		.4byte	0x2e4
 646 0283 42000000 		.4byte	.LLST17
 647 0287 11       		.uleb128 0x11
 648 0288 B4000000 		.4byte	.LASF40
 649 028c 01       		.byte	0x1
 650 028d A8       		.byte	0xa8
 651 028e EA020000 		.4byte	0x2ea
 652 0292 62000000 		.4byte	.LLST18
 653 0296 12       		.uleb128 0x12
 654 0297 C9000000 		.4byte	.LASF41
 655 029b 01       		.byte	0x1
 656 029c AA       		.byte	0xaa
 657 029d DE000000 		.4byte	0xde
 658 02a1 00       		.byte	0
 659 02a2 13       		.uleb128 0x13
 660 02a3 72657400 		.ascii	"ret\000"
 661 02a7 01       		.byte	0x1
 662 02a8 AB       		.byte	0xab
 663 02a9 D3000000 		.4byte	0xd3
 664 02ad 83000000 		.4byte	.LLST19
 665 02b1 14       		.uleb128 0x14
 666 02b2 08000000 		.4byte	.LBB2
 667 02b6 0A000000 		.4byte	.LBE2-.LBB2
 668 02ba CC020000 		.4byte	0x2cc
 669 02be 13       		.uleb128 0x13
 670 02bf 6300     		.ascii	"c\000"
 671 02c1 01       		.byte	0x1
 672 02c2 AE       		.byte	0xae
 673 02c3 E3000000 		.4byte	0xe3
 674 02c7 A2000000 		.4byte	.LLST20
 675 02cb 00       		.byte	0
 676 02cc 15       		.uleb128 0x15
 677 02cd 18000000 		.4byte	.LVL41
 678 02d1 F6020000 		.4byte	0x2f6
 679 02d5 16       		.uleb128 0x16
 680 02d6 02       		.uleb128 0x2
 681 02d7 7D       		.byte	0x7d
 682 02d8 00       		.sleb128 0
 683 02d9 02       		.uleb128 0x2
 684 02da 75       		.byte	0x75
ARM GAS  /tmp/cc0x4P69.s 			page 13


 685 02db 00       		.sleb128 0
 686 02dc 00       		.byte	0
 687 02dd 00       		.byte	0
 688 02de 0A       		.uleb128 0xa
 689 02df 04       		.byte	0x4
 690 02e0 04010000 		.4byte	0x104
 691 02e4 0A       		.uleb128 0xa
 692 02e5 04       		.byte	0x4
 693 02e6 36020000 		.4byte	0x236
 694 02ea 0A       		.uleb128 0xa
 695 02eb 04       		.byte	0x4
 696 02ec F0020000 		.4byte	0x2f0
 697 02f0 0A       		.uleb128 0xa
 698 02f1 04       		.byte	0x4
 699 02f2 AD000000 		.4byte	0xad
 700 02f6 10       		.uleb128 0x10
 701 02f7 B8010000 		.4byte	.LASF43
 702 02fb 01       		.byte	0x1
 703 02fc 57       		.byte	0x57
 704 02fd D3000000 		.4byte	0xd3
 705 0301 00000000 		.4byte	.LFB2
 706 0305 98000000 		.4byte	.LFE2-.LFB2
 707 0309 01       		.uleb128 0x1
 708 030a 9C       		.byte	0x9c
 709 030b CA030000 		.4byte	0x3ca
 710 030f 11       		.uleb128 0x11
 711 0310 54020000 		.4byte	.LASF38
 712 0314 01       		.byte	0x1
 713 0315 58       		.byte	0x58
 714 0316 DE020000 		.4byte	0x2de
 715 031a B6000000 		.4byte	.LLST8
 716 031e 11       		.uleb128 0x11
 717 031f F5020000 		.4byte	.LASF26
 718 0323 01       		.byte	0x1
 719 0324 59       		.byte	0x59
 720 0325 C8000000 		.4byte	0xc8
 721 0329 00010000 		.4byte	.LLST9
 722 032d 11       		.uleb128 0x11
 723 032e 0D000000 		.4byte	.LASF39
 724 0332 01       		.byte	0x1
 725 0333 5A       		.byte	0x5a
 726 0334 E4020000 		.4byte	0x2e4
 727 0338 3A010000 		.4byte	.LLST10
 728 033c 11       		.uleb128 0x11
 729 033d B4000000 		.4byte	.LASF40
 730 0341 01       		.byte	0x1
 731 0342 5B       		.byte	0x5b
 732 0343 EA020000 		.4byte	0x2ea
 733 0347 6E010000 		.4byte	.LLST11
 734 034b 11       		.uleb128 0x11
 735 034c C9000000 		.4byte	.LASF41
 736 0350 01       		.byte	0x1
 737 0351 5C       		.byte	0x5c
 738 0352 D3000000 		.4byte	0xd3
 739 0356 A2010000 		.4byte	.LLST12
 740 035a 13       		.uleb128 0x13
 741 035b 72657400 		.ascii	"ret\000"
ARM GAS  /tmp/cc0x4P69.s 			page 14


 742 035f 01       		.byte	0x1
 743 0360 5E       		.byte	0x5e
 744 0361 D3000000 		.4byte	0xd3
 745 0365 07020000 		.4byte	.LLST13
 746 0369 13       		.uleb128 0x13
 747 036a 6300     		.ascii	"c\000"
 748 036c 01       		.byte	0x1
 749 036d 5F       		.byte	0x5f
 750 036e E3000000 		.4byte	0xe3
 751 0372 48020000 		.4byte	.LLST14
 752 0376 17       		.uleb128 0x17
 753 0377 5D000000 		.4byte	.LASF54
 754 037b 01       		.byte	0x1
 755 037c 90       		.byte	0x90
 756 037d 76000000 		.4byte	.L17
 757 0381 18       		.uleb128 0x18
 758 0382 4C000000 		.4byte	.LVL27
 759 0386 D6040000 		.4byte	0x4d6
 760 038a AC030000 		.4byte	0x3ac
 761 038e 16       		.uleb128 0x16
 762 038f 01       		.uleb128 0x1
 763 0390 50       		.byte	0x50
 764 0391 02       		.uleb128 0x2
 765 0392 79       		.byte	0x79
 766 0393 00       		.sleb128 0
 767 0394 16       		.uleb128 0x16
 768 0395 01       		.uleb128 0x1
 769 0396 51       		.byte	0x51
 770 0397 02       		.uleb128 0x2
 771 0398 74       		.byte	0x74
 772 0399 72       		.sleb128 -14
 773 039a 16       		.uleb128 0x16
 774 039b 01       		.uleb128 0x1
 775 039c 52       		.byte	0x52
 776 039d 01       		.uleb128 0x1
 777 039e 3E       		.byte	0x3e
 778 039f 16       		.uleb128 0x16
 779 03a0 01       		.uleb128 0x1
 780 03a1 53       		.byte	0x53
 781 03a2 01       		.uleb128 0x1
 782 03a3 31       		.byte	0x31
 783 03a4 16       		.uleb128 0x16
 784 03a5 02       		.uleb128 0x2
 785 03a6 7D       		.byte	0x7d
 786 03a7 00       		.sleb128 0
 787 03a8 02       		.uleb128 0x2
 788 03a9 77       		.byte	0x77
 789 03aa 00       		.sleb128 0
 790 03ab 00       		.byte	0
 791 03ac 15       		.uleb128 0x15
 792 03ad 72000000 		.4byte	.LVL34
 793 03b1 D6040000 		.4byte	0x4d6
 794 03b5 16       		.uleb128 0x16
 795 03b6 01       		.uleb128 0x1
 796 03b7 51       		.byte	0x51
 797 03b8 03       		.uleb128 0x3
 798 03b9 91       		.byte	0x91
ARM GAS  /tmp/cc0x4P69.s 			page 15


 799 03ba 00       		.sleb128 0
 800 03bb 06       		.byte	0x6
 801 03bc 16       		.uleb128 0x16
 802 03bd 01       		.uleb128 0x1
 803 03be 52       		.byte	0x52
 804 03bf 01       		.uleb128 0x1
 805 03c0 35       		.byte	0x35
 806 03c1 16       		.uleb128 0x16
 807 03c2 02       		.uleb128 0x2
 808 03c3 7D       		.byte	0x7d
 809 03c4 00       		.sleb128 0
 810 03c5 02       		.uleb128 0x2
 811 03c6 78       		.byte	0x78
 812 03c7 00       		.sleb128 0
 813 03c8 00       		.byte	0
 814 03c9 00       		.byte	0
 815 03ca 10       		.uleb128 0x10
 816 03cb 80020000 		.4byte	.LASF44
 817 03cf 01       		.byte	0x1
 818 03d0 43       		.byte	0x43
 819 03d1 E3000000 		.4byte	0xe3
 820 03d5 00000000 		.4byte	.LFB1
 821 03d9 10000000 		.4byte	.LFE1-.LFB1
 822 03dd 01       		.uleb128 0x1
 823 03de 9C       		.byte	0x9c
 824 03df 33040000 		.4byte	0x433
 825 03e3 11       		.uleb128 0x11
 826 03e4 DA000000 		.4byte	.LASF45
 827 03e8 01       		.byte	0x1
 828 03e9 43       		.byte	0x43
 829 03ea E4020000 		.4byte	0x2e4
 830 03ee 97020000 		.4byte	.LLST5
 831 03f2 11       		.uleb128 0x11
 832 03f3 55000000 		.4byte	.LASF46
 833 03f7 01       		.byte	0x1
 834 03f8 43       		.byte	0x43
 835 03f9 F2010000 		.4byte	0x1f2
 836 03fd B8020000 		.4byte	.LLST6
 837 0401 19       		.uleb128 0x19
 838 0402 C9000000 		.4byte	.LASF41
 839 0406 01       		.byte	0x1
 840 0407 45       		.byte	0x45
 841 0408 E3000000 		.4byte	0xe3
 842 040c D9020000 		.4byte	.LLST7
 843 0410 15       		.uleb128 0x15
 844 0411 0A000000 		.4byte	.LVL15
 845 0415 33040000 		.4byte	0x433
 846 0419 16       		.uleb128 0x16
 847 041a 01       		.uleb128 0x1
 848 041b 50       		.byte	0x50
 849 041c 03       		.uleb128 0x3
 850 041d F3       		.byte	0xf3
 851 041e 01       		.uleb128 0x1
 852 041f 50       		.byte	0x50
 853 0420 16       		.uleb128 0x16
 854 0421 01       		.uleb128 0x1
 855 0422 51       		.byte	0x51
ARM GAS  /tmp/cc0x4P69.s 			page 16


 856 0423 03       		.uleb128 0x3
 857 0424 F3       		.byte	0xf3
 858 0425 01       		.uleb128 0x1
 859 0426 51       		.byte	0x51
 860 0427 16       		.uleb128 0x16
 861 0428 01       		.uleb128 0x1
 862 0429 52       		.byte	0x52
 863 042a 01       		.uleb128 0x1
 864 042b 30       		.byte	0x30
 865 042c 16       		.uleb128 0x16
 866 042d 01       		.uleb128 0x1
 867 042e 53       		.byte	0x53
 868 042f 01       		.uleb128 0x1
 869 0430 31       		.byte	0x31
 870 0431 00       		.byte	0
 871 0432 00       		.byte	0
 872 0433 10       		.uleb128 0x10
 873 0434 A7020000 		.4byte	.LASF47
 874 0438 01       		.byte	0x1
 875 0439 21       		.byte	0x21
 876 043a E3000000 		.4byte	0xe3
 877 043e 00000000 		.4byte	.LFB0
 878 0442 40000000 		.4byte	.LFE0-.LFB0
 879 0446 01       		.uleb128 0x1
 880 0447 9C       		.byte	0x9c
 881 0448 D6040000 		.4byte	0x4d6
 882 044c 11       		.uleb128 0x11
 883 044d DA000000 		.4byte	.LASF45
 884 0451 01       		.byte	0x1
 885 0452 21       		.byte	0x21
 886 0453 E4020000 		.4byte	0x2e4
 887 0457 05030000 		.4byte	.LLST0
 888 045b 11       		.uleb128 0x11
 889 045c 55000000 		.4byte	.LASF46
 890 0460 01       		.byte	0x1
 891 0461 22       		.byte	0x22
 892 0462 F2010000 		.4byte	0x1f2
 893 0466 39030000 		.4byte	.LLST1
 894 046a 11       		.uleb128 0x11
 895 046b C9000000 		.4byte	.LASF41
 896 046f 01       		.byte	0x1
 897 0470 23       		.byte	0x23
 898 0471 E3000000 		.4byte	0xe3
 899 0475 6D030000 		.4byte	.LLST2
 900 0479 11       		.uleb128 0x11
 901 047a D7020000 		.4byte	.LASF48
 902 047e 01       		.byte	0x1
 903 047f 24       		.byte	0x24
 904 0480 AD000000 		.4byte	0xad
 905 0484 A1030000 		.4byte	.LLST3
 906 0488 13       		.uleb128 0x13
 907 0489 6300     		.ascii	"c\000"
 908 048b 01       		.byte	0x1
 909 048c 26       		.byte	0x26
 910 048d E3000000 		.4byte	0xe3
 911 0491 DB030000 		.4byte	.LLST4
 912 0495 18       		.uleb128 0x18
ARM GAS  /tmp/cc0x4P69.s 			page 17


 913 0496 20000000 		.4byte	.LVL3
 914 049a E2040000 		.4byte	0x4e2
 915 049e B4040000 		.4byte	0x4b4
 916 04a2 16       		.uleb128 0x16
 917 04a3 01       		.uleb128 0x1
 918 04a4 50       		.byte	0x50
 919 04a5 02       		.uleb128 0x2
 920 04a6 77       		.byte	0x77
 921 04a7 00       		.sleb128 0
 922 04a8 16       		.uleb128 0x16
 923 04a9 01       		.uleb128 0x1
 924 04aa 51       		.byte	0x51
 925 04ab 02       		.uleb128 0x2
 926 04ac 75       		.byte	0x75
 927 04ad 00       		.sleb128 0
 928 04ae 16       		.uleb128 0x16
 929 04af 01       		.uleb128 0x1
 930 04b0 52       		.byte	0x52
 931 04b1 01       		.uleb128 0x1
 932 04b2 3E       		.byte	0x3e
 933 04b3 00       		.byte	0
 934 04b4 15       		.uleb128 0x15
 935 04b5 3C000000 		.4byte	.LVL12
 936 04b9 E2040000 		.4byte	0x4e2
 937 04bd 16       		.uleb128 0x16
 938 04be 01       		.uleb128 0x1
 939 04bf 50       		.byte	0x50
 940 04c0 02       		.uleb128 0x2
 941 04c1 77       		.byte	0x77
 942 04c2 00       		.sleb128 0
 943 04c3 16       		.uleb128 0x16
 944 04c4 01       		.uleb128 0x1
 945 04c5 51       		.byte	0x51
 946 04c6 02       		.uleb128 0x2
 947 04c7 75       		.byte	0x75
 948 04c8 00       		.sleb128 0
 949 04c9 16       		.uleb128 0x16
 950 04ca 01       		.uleb128 0x1
 951 04cb 52       		.byte	0x52
 952 04cc 01       		.uleb128 0x1
 953 04cd 35       		.byte	0x35
 954 04ce 16       		.uleb128 0x16
 955 04cf 01       		.uleb128 0x1
 956 04d0 53       		.byte	0x53
 957 04d1 02       		.uleb128 0x2
 958 04d2 76       		.byte	0x76
 959 04d3 00       		.sleb128 0
 960 04d4 00       		.byte	0
 961 04d5 00       		.byte	0
 962 04d6 1A       		.uleb128 0x1a
 963 04d7 0D030000 		.4byte	.LASF49
 964 04db 0D030000 		.4byte	.LASF49
 965 04df 04       		.byte	0x4
 966 04e0 CD01     		.2byte	0x1cd
 967 04e2 1A       		.uleb128 0x1a
 968 04e3 FB010000 		.4byte	.LASF50
 969 04e7 FB010000 		.4byte	.LASF50
ARM GAS  /tmp/cc0x4P69.s 			page 18


 970 04eb 04       		.byte	0x4
 971 04ec E701     		.2byte	0x1e7
 972 04ee 00       		.byte	0
 973              		.section	.debug_abbrev,"",%progbits
 974              	.Ldebug_abbrev0:
 975 0000 01       		.uleb128 0x1
 976 0001 11       		.uleb128 0x11
 977 0002 01       		.byte	0x1
 978 0003 25       		.uleb128 0x25
 979 0004 0E       		.uleb128 0xe
 980 0005 13       		.uleb128 0x13
 981 0006 0B       		.uleb128 0xb
 982 0007 03       		.uleb128 0x3
 983 0008 0E       		.uleb128 0xe
 984 0009 1B       		.uleb128 0x1b
 985 000a 0E       		.uleb128 0xe
 986 000b 55       		.uleb128 0x55
 987 000c 17       		.uleb128 0x17
 988 000d 11       		.uleb128 0x11
 989 000e 01       		.uleb128 0x1
 990 000f 10       		.uleb128 0x10
 991 0010 17       		.uleb128 0x17
 992 0011 00       		.byte	0
 993 0012 00       		.byte	0
 994 0013 02       		.uleb128 0x2
 995 0014 24       		.uleb128 0x24
 996 0015 00       		.byte	0
 997 0016 0B       		.uleb128 0xb
 998 0017 0B       		.uleb128 0xb
 999 0018 3E       		.uleb128 0x3e
 1000 0019 0B       		.uleb128 0xb
 1001 001a 03       		.uleb128 0x3
 1002 001b 0E       		.uleb128 0xe
 1003 001c 00       		.byte	0
 1004 001d 00       		.byte	0
 1005 001e 03       		.uleb128 0x3
 1006 001f 16       		.uleb128 0x16
 1007 0020 00       		.byte	0
 1008 0021 03       		.uleb128 0x3
 1009 0022 0E       		.uleb128 0xe
 1010 0023 3A       		.uleb128 0x3a
 1011 0024 0B       		.uleb128 0xb
 1012 0025 3B       		.uleb128 0x3b
 1013 0026 0B       		.uleb128 0xb
 1014 0027 49       		.uleb128 0x49
 1015 0028 13       		.uleb128 0x13
 1016 0029 00       		.byte	0
 1017 002a 00       		.byte	0
 1018 002b 04       		.uleb128 0x4
 1019 002c 24       		.uleb128 0x24
 1020 002d 00       		.byte	0
 1021 002e 0B       		.uleb128 0xb
 1022 002f 0B       		.uleb128 0xb
 1023 0030 3E       		.uleb128 0x3e
 1024 0031 0B       		.uleb128 0xb
 1025 0032 03       		.uleb128 0x3
 1026 0033 08       		.uleb128 0x8
ARM GAS  /tmp/cc0x4P69.s 			page 19


 1027 0034 00       		.byte	0
 1028 0035 00       		.byte	0
 1029 0036 05       		.uleb128 0x5
 1030 0037 26       		.uleb128 0x26
 1031 0038 00       		.byte	0
 1032 0039 49       		.uleb128 0x49
 1033 003a 13       		.uleb128 0x13
 1034 003b 00       		.byte	0
 1035 003c 00       		.byte	0
 1036 003d 06       		.uleb128 0x6
 1037 003e 13       		.uleb128 0x13
 1038 003f 01       		.byte	0x1
 1039 0040 03       		.uleb128 0x3
 1040 0041 0E       		.uleb128 0xe
 1041 0042 0B       		.uleb128 0xb
 1042 0043 0B       		.uleb128 0xb
 1043 0044 3A       		.uleb128 0x3a
 1044 0045 0B       		.uleb128 0xb
 1045 0046 3B       		.uleb128 0x3b
 1046 0047 05       		.uleb128 0x5
 1047 0048 01       		.uleb128 0x1
 1048 0049 13       		.uleb128 0x13
 1049 004a 00       		.byte	0
 1050 004b 00       		.byte	0
 1051 004c 07       		.uleb128 0x7
 1052 004d 0D       		.uleb128 0xd
 1053 004e 00       		.byte	0
 1054 004f 03       		.uleb128 0x3
 1055 0050 0E       		.uleb128 0xe
 1056 0051 3A       		.uleb128 0x3a
 1057 0052 0B       		.uleb128 0xb
 1058 0053 3B       		.uleb128 0x3b
 1059 0054 05       		.uleb128 0x5
 1060 0055 49       		.uleb128 0x49
 1061 0056 13       		.uleb128 0x13
 1062 0057 38       		.uleb128 0x38
 1063 0058 0B       		.uleb128 0xb
 1064 0059 00       		.byte	0
 1065 005a 00       		.byte	0
 1066 005b 08       		.uleb128 0x8
 1067 005c 13       		.uleb128 0x13
 1068 005d 01       		.byte	0x1
 1069 005e 03       		.uleb128 0x3
 1070 005f 0E       		.uleb128 0xe
 1071 0060 0B       		.uleb128 0xb
 1072 0061 0B       		.uleb128 0xb
 1073 0062 3A       		.uleb128 0x3a
 1074 0063 0B       		.uleb128 0xb
 1075 0064 3B       		.uleb128 0x3b
 1076 0065 0B       		.uleb128 0xb
 1077 0066 01       		.uleb128 0x1
 1078 0067 13       		.uleb128 0x13
 1079 0068 00       		.byte	0
 1080 0069 00       		.byte	0
 1081 006a 09       		.uleb128 0x9
 1082 006b 0D       		.uleb128 0xd
 1083 006c 00       		.byte	0
ARM GAS  /tmp/cc0x4P69.s 			page 20


 1084 006d 03       		.uleb128 0x3
 1085 006e 0E       		.uleb128 0xe
 1086 006f 3A       		.uleb128 0x3a
 1087 0070 0B       		.uleb128 0xb
 1088 0071 3B       		.uleb128 0x3b
 1089 0072 0B       		.uleb128 0xb
 1090 0073 49       		.uleb128 0x49
 1091 0074 13       		.uleb128 0x13
 1092 0075 38       		.uleb128 0x38
 1093 0076 0B       		.uleb128 0xb
 1094 0077 00       		.byte	0
 1095 0078 00       		.byte	0
 1096 0079 0A       		.uleb128 0xa
 1097 007a 0F       		.uleb128 0xf
 1098 007b 00       		.byte	0
 1099 007c 0B       		.uleb128 0xb
 1100 007d 0B       		.uleb128 0xb
 1101 007e 49       		.uleb128 0x49
 1102 007f 13       		.uleb128 0x13
 1103 0080 00       		.byte	0
 1104 0081 00       		.byte	0
 1105 0082 0B       		.uleb128 0xb
 1106 0083 01       		.uleb128 0x1
 1107 0084 01       		.byte	0x1
 1108 0085 49       		.uleb128 0x49
 1109 0086 13       		.uleb128 0x13
 1110 0087 01       		.uleb128 0x1
 1111 0088 13       		.uleb128 0x13
 1112 0089 00       		.byte	0
 1113 008a 00       		.byte	0
 1114 008b 0C       		.uleb128 0xc
 1115 008c 21       		.uleb128 0x21
 1116 008d 00       		.byte	0
 1117 008e 49       		.uleb128 0x49
 1118 008f 13       		.uleb128 0x13
 1119 0090 00       		.byte	0
 1120 0091 00       		.byte	0
 1121 0092 0D       		.uleb128 0xd
 1122 0093 0F       		.uleb128 0xf
 1123 0094 00       		.byte	0
 1124 0095 0B       		.uleb128 0xb
 1125 0096 0B       		.uleb128 0xb
 1126 0097 00       		.byte	0
 1127 0098 00       		.byte	0
 1128 0099 0E       		.uleb128 0xe
 1129 009a 13       		.uleb128 0x13
 1130 009b 01       		.byte	0x1
 1131 009c 0B       		.uleb128 0xb
 1132 009d 0B       		.uleb128 0xb
 1133 009e 3A       		.uleb128 0x3a
 1134 009f 0B       		.uleb128 0xb
 1135 00a0 3B       		.uleb128 0x3b
 1136 00a1 0B       		.uleb128 0xb
 1137 00a2 01       		.uleb128 0x1
 1138 00a3 13       		.uleb128 0x13
 1139 00a4 00       		.byte	0
 1140 00a5 00       		.byte	0
ARM GAS  /tmp/cc0x4P69.s 			page 21


 1141 00a6 0F       		.uleb128 0xf
 1142 00a7 0D       		.uleb128 0xd
 1143 00a8 00       		.byte	0
 1144 00a9 03       		.uleb128 0x3
 1145 00aa 08       		.uleb128 0x8
 1146 00ab 3A       		.uleb128 0x3a
 1147 00ac 0B       		.uleb128 0xb
 1148 00ad 3B       		.uleb128 0x3b
 1149 00ae 0B       		.uleb128 0xb
 1150 00af 49       		.uleb128 0x49
 1151 00b0 13       		.uleb128 0x13
 1152 00b1 38       		.uleb128 0x38
 1153 00b2 0B       		.uleb128 0xb
 1154 00b3 00       		.byte	0
 1155 00b4 00       		.byte	0
 1156 00b5 10       		.uleb128 0x10
 1157 00b6 2E       		.uleb128 0x2e
 1158 00b7 01       		.byte	0x1
 1159 00b8 3F       		.uleb128 0x3f
 1160 00b9 19       		.uleb128 0x19
 1161 00ba 03       		.uleb128 0x3
 1162 00bb 0E       		.uleb128 0xe
 1163 00bc 3A       		.uleb128 0x3a
 1164 00bd 0B       		.uleb128 0xb
 1165 00be 3B       		.uleb128 0x3b
 1166 00bf 0B       		.uleb128 0xb
 1167 00c0 27       		.uleb128 0x27
 1168 00c1 19       		.uleb128 0x19
 1169 00c2 49       		.uleb128 0x49
 1170 00c3 13       		.uleb128 0x13
 1171 00c4 11       		.uleb128 0x11
 1172 00c5 01       		.uleb128 0x1
 1173 00c6 12       		.uleb128 0x12
 1174 00c7 06       		.uleb128 0x6
 1175 00c8 40       		.uleb128 0x40
 1176 00c9 18       		.uleb128 0x18
 1177 00ca 9742     		.uleb128 0x2117
 1178 00cc 19       		.uleb128 0x19
 1179 00cd 01       		.uleb128 0x1
 1180 00ce 13       		.uleb128 0x13
 1181 00cf 00       		.byte	0
 1182 00d0 00       		.byte	0
 1183 00d1 11       		.uleb128 0x11
 1184 00d2 05       		.uleb128 0x5
 1185 00d3 00       		.byte	0
 1186 00d4 03       		.uleb128 0x3
 1187 00d5 0E       		.uleb128 0xe
 1188 00d6 3A       		.uleb128 0x3a
 1189 00d7 0B       		.uleb128 0xb
 1190 00d8 3B       		.uleb128 0x3b
 1191 00d9 0B       		.uleb128 0xb
 1192 00da 49       		.uleb128 0x49
 1193 00db 13       		.uleb128 0x13
 1194 00dc 02       		.uleb128 0x2
 1195 00dd 17       		.uleb128 0x17
 1196 00de 00       		.byte	0
 1197 00df 00       		.byte	0
ARM GAS  /tmp/cc0x4P69.s 			page 22


 1198 00e0 12       		.uleb128 0x12
 1199 00e1 34       		.uleb128 0x34
 1200 00e2 00       		.byte	0
 1201 00e3 03       		.uleb128 0x3
 1202 00e4 0E       		.uleb128 0xe
 1203 00e5 3A       		.uleb128 0x3a
 1204 00e6 0B       		.uleb128 0xb
 1205 00e7 3B       		.uleb128 0x3b
 1206 00e8 0B       		.uleb128 0xb
 1207 00e9 49       		.uleb128 0x49
 1208 00ea 13       		.uleb128 0x13
 1209 00eb 1C       		.uleb128 0x1c
 1210 00ec 0B       		.uleb128 0xb
 1211 00ed 00       		.byte	0
 1212 00ee 00       		.byte	0
 1213 00ef 13       		.uleb128 0x13
 1214 00f0 34       		.uleb128 0x34
 1215 00f1 00       		.byte	0
 1216 00f2 03       		.uleb128 0x3
 1217 00f3 08       		.uleb128 0x8
 1218 00f4 3A       		.uleb128 0x3a
 1219 00f5 0B       		.uleb128 0xb
 1220 00f6 3B       		.uleb128 0x3b
 1221 00f7 0B       		.uleb128 0xb
 1222 00f8 49       		.uleb128 0x49
 1223 00f9 13       		.uleb128 0x13
 1224 00fa 02       		.uleb128 0x2
 1225 00fb 17       		.uleb128 0x17
 1226 00fc 00       		.byte	0
 1227 00fd 00       		.byte	0
 1228 00fe 14       		.uleb128 0x14
 1229 00ff 0B       		.uleb128 0xb
 1230 0100 01       		.byte	0x1
 1231 0101 11       		.uleb128 0x11
 1232 0102 01       		.uleb128 0x1
 1233 0103 12       		.uleb128 0x12
 1234 0104 06       		.uleb128 0x6
 1235 0105 01       		.uleb128 0x1
 1236 0106 13       		.uleb128 0x13
 1237 0107 00       		.byte	0
 1238 0108 00       		.byte	0
 1239 0109 15       		.uleb128 0x15
 1240 010a 898201   		.uleb128 0x4109
 1241 010d 01       		.byte	0x1
 1242 010e 11       		.uleb128 0x11
 1243 010f 01       		.uleb128 0x1
 1244 0110 31       		.uleb128 0x31
 1245 0111 13       		.uleb128 0x13
 1246 0112 00       		.byte	0
 1247 0113 00       		.byte	0
 1248 0114 16       		.uleb128 0x16
 1249 0115 8A8201   		.uleb128 0x410a
 1250 0118 00       		.byte	0
 1251 0119 02       		.uleb128 0x2
 1252 011a 18       		.uleb128 0x18
 1253 011b 9142     		.uleb128 0x2111
 1254 011d 18       		.uleb128 0x18
ARM GAS  /tmp/cc0x4P69.s 			page 23


 1255 011e 00       		.byte	0
 1256 011f 00       		.byte	0
 1257 0120 17       		.uleb128 0x17
 1258 0121 0A       		.uleb128 0xa
 1259 0122 00       		.byte	0
 1260 0123 03       		.uleb128 0x3
 1261 0124 0E       		.uleb128 0xe
 1262 0125 3A       		.uleb128 0x3a
 1263 0126 0B       		.uleb128 0xb
 1264 0127 3B       		.uleb128 0x3b
 1265 0128 0B       		.uleb128 0xb
 1266 0129 11       		.uleb128 0x11
 1267 012a 01       		.uleb128 0x1
 1268 012b 00       		.byte	0
 1269 012c 00       		.byte	0
 1270 012d 18       		.uleb128 0x18
 1271 012e 898201   		.uleb128 0x4109
 1272 0131 01       		.byte	0x1
 1273 0132 11       		.uleb128 0x11
 1274 0133 01       		.uleb128 0x1
 1275 0134 31       		.uleb128 0x31
 1276 0135 13       		.uleb128 0x13
 1277 0136 01       		.uleb128 0x1
 1278 0137 13       		.uleb128 0x13
 1279 0138 00       		.byte	0
 1280 0139 00       		.byte	0
 1281 013a 19       		.uleb128 0x19
 1282 013b 34       		.uleb128 0x34
 1283 013c 00       		.byte	0
 1284 013d 03       		.uleb128 0x3
 1285 013e 0E       		.uleb128 0xe
 1286 013f 3A       		.uleb128 0x3a
 1287 0140 0B       		.uleb128 0xb
 1288 0141 3B       		.uleb128 0x3b
 1289 0142 0B       		.uleb128 0xb
 1290 0143 49       		.uleb128 0x49
 1291 0144 13       		.uleb128 0x13
 1292 0145 02       		.uleb128 0x2
 1293 0146 17       		.uleb128 0x17
 1294 0147 00       		.byte	0
 1295 0148 00       		.byte	0
 1296 0149 1A       		.uleb128 0x1a
 1297 014a 2E       		.uleb128 0x2e
 1298 014b 00       		.byte	0
 1299 014c 3F       		.uleb128 0x3f
 1300 014d 19       		.uleb128 0x19
 1301 014e 3C       		.uleb128 0x3c
 1302 014f 19       		.uleb128 0x19
 1303 0150 6E       		.uleb128 0x6e
 1304 0151 0E       		.uleb128 0xe
 1305 0152 03       		.uleb128 0x3
 1306 0153 0E       		.uleb128 0xe
 1307 0154 3A       		.uleb128 0x3a
 1308 0155 0B       		.uleb128 0xb
 1309 0156 3B       		.uleb128 0x3b
 1310 0157 05       		.uleb128 0x5
 1311 0158 00       		.byte	0
ARM GAS  /tmp/cc0x4P69.s 			page 24


 1312 0159 00       		.byte	0
 1313 015a 00       		.byte	0
 1314              		.section	.debug_loc,"",%progbits
 1315              	.Ldebug_loc0:
 1316              	.LLST15:
 1317 0000 00000000 		.4byte	.LVL39
 1318 0004 17000000 		.4byte	.LVL41-1
 1319 0008 0100     		.2byte	0x1
 1320 000a 50       		.byte	0x50
 1321 000b 17000000 		.4byte	.LVL41-1
 1322 000f 1C000000 		.4byte	.LFE3
 1323 0013 0400     		.2byte	0x4
 1324 0015 F3       		.byte	0xf3
 1325 0016 01       		.uleb128 0x1
 1326 0017 50       		.byte	0x50
 1327 0018 9F       		.byte	0x9f
 1328 0019 00000000 		.4byte	0
 1329 001d 00000000 		.4byte	0
 1330              	.LLST16:
 1331 0021 00000000 		.4byte	.LVL39
 1332 0025 17000000 		.4byte	.LVL41-1
 1333 0029 0100     		.2byte	0x1
 1334 002b 51       		.byte	0x51
 1335 002c 17000000 		.4byte	.LVL41-1
 1336 0030 1C000000 		.4byte	.LFE3
 1337 0034 0400     		.2byte	0x4
 1338 0036 F3       		.byte	0xf3
 1339 0037 01       		.uleb128 0x1
 1340 0038 51       		.byte	0x51
 1341 0039 9F       		.byte	0x9f
 1342 003a 00000000 		.4byte	0
 1343 003e 00000000 		.4byte	0
 1344              	.LLST17:
 1345 0042 00000000 		.4byte	.LVL39
 1346 0046 17000000 		.4byte	.LVL41-1
 1347 004a 0100     		.2byte	0x1
 1348 004c 52       		.byte	0x52
 1349 004d 17000000 		.4byte	.LVL41-1
 1350 0051 1C000000 		.4byte	.LFE3
 1351 0055 0300     		.2byte	0x3
 1352 0057 76       		.byte	0x76
 1353 0058 79       		.sleb128 -7
 1354 0059 9F       		.byte	0x9f
 1355 005a 00000000 		.4byte	0
 1356 005e 00000000 		.4byte	0
 1357              	.LLST18:
 1358 0062 00000000 		.4byte	.LVL39
 1359 0066 17000000 		.4byte	.LVL41-1
 1360 006a 0100     		.2byte	0x1
 1361 006c 53       		.byte	0x53
 1362 006d 17000000 		.4byte	.LVL41-1
 1363 0071 1C000000 		.4byte	.LFE3
 1364 0075 0400     		.2byte	0x4
 1365 0077 F3       		.byte	0xf3
 1366 0078 01       		.uleb128 0x1
 1367 0079 53       		.byte	0x53
 1368 007a 9F       		.byte	0x9f
ARM GAS  /tmp/cc0x4P69.s 			page 25


 1369 007b 00000000 		.4byte	0
 1370 007f 00000000 		.4byte	0
 1371              	.LLST19:
 1372 0083 00000000 		.4byte	.LVL39
 1373 0087 18000000 		.4byte	.LVL41
 1374 008b 0200     		.2byte	0x2
 1375 008d 30       		.byte	0x30
 1376 008e 9F       		.byte	0x9f
 1377 008f 18000000 		.4byte	.LVL41
 1378 0093 1C000000 		.4byte	.LFE3
 1379 0097 0100     		.2byte	0x1
 1380 0099 50       		.byte	0x50
 1381 009a 00000000 		.4byte	0
 1382 009e 00000000 		.4byte	0
 1383              	.LLST20:
 1384 00a2 00000000 		.4byte	.LVL39
 1385 00a6 0A000000 		.4byte	.LVL40
 1386 00aa 0200     		.2byte	0x2
 1387 00ac 30       		.byte	0x30
 1388 00ad 9F       		.byte	0x9f
 1389 00ae 00000000 		.4byte	0
 1390 00b2 00000000 		.4byte	0
 1391              	.LLST8:
 1392 00b6 00000000 		.4byte	.LVL18
 1393 00ba 2A000000 		.4byte	.LVL22
 1394 00be 0100     		.2byte	0x1
 1395 00c0 50       		.byte	0x50
 1396 00c1 2A000000 		.4byte	.LVL22
 1397 00c5 44000000 		.4byte	.LVL26
 1398 00c9 0100     		.2byte	0x1
 1399 00cb 59       		.byte	0x59
 1400 00cc 44000000 		.4byte	.LVL26
 1401 00d0 4B000000 		.4byte	.LVL27-1
 1402 00d4 0100     		.2byte	0x1
 1403 00d6 50       		.byte	0x50
 1404 00d7 4B000000 		.4byte	.LVL27-1
 1405 00db 66000000 		.4byte	.LVL30
 1406 00df 0100     		.2byte	0x1
 1407 00e1 59       		.byte	0x59
 1408 00e2 66000000 		.4byte	.LVL30
 1409 00e6 71000000 		.4byte	.LVL34-1
 1410 00ea 0100     		.2byte	0x1
 1411 00ec 50       		.byte	0x50
 1412 00ed 71000000 		.4byte	.LVL34-1
 1413 00f1 98000000 		.4byte	.LFE2
 1414 00f5 0100     		.2byte	0x1
 1415 00f7 59       		.byte	0x59
 1416 00f8 00000000 		.4byte	0
 1417 00fc 00000000 		.4byte	0
 1418              	.LLST9:
 1419 0100 00000000 		.4byte	.LVL18
 1420 0104 18000000 		.4byte	.LVL21
 1421 0108 0100     		.2byte	0x1
 1422 010a 51       		.byte	0x51
 1423 010b 18000000 		.4byte	.LVL21
 1424 010f 66000000 		.4byte	.LVL30
 1425 0113 0400     		.2byte	0x4
ARM GAS  /tmp/cc0x4P69.s 			page 26


 1426 0115 F3       		.byte	0xf3
 1427 0116 01       		.uleb128 0x1
 1428 0117 51       		.byte	0x51
 1429 0118 9F       		.byte	0x9f
 1430 0119 66000000 		.4byte	.LVL30
 1431 011d 6E000000 		.4byte	.LVL33
 1432 0121 0100     		.2byte	0x1
 1433 0123 51       		.byte	0x51
 1434 0124 6E000000 		.4byte	.LVL33
 1435 0128 98000000 		.4byte	.LFE2
 1436 012c 0400     		.2byte	0x4
 1437 012e F3       		.byte	0xf3
 1438 012f 01       		.uleb128 0x1
 1439 0130 51       		.byte	0x51
 1440 0131 9F       		.byte	0x9f
 1441 0132 00000000 		.4byte	0
 1442 0136 00000000 		.4byte	0
 1443              	.LLST10:
 1444 013a 00000000 		.4byte	.LVL18
 1445 013e 10000000 		.4byte	.LVL19
 1446 0142 0100     		.2byte	0x1
 1447 0144 52       		.byte	0x52
 1448 0145 10000000 		.4byte	.LVL19
 1449 0149 66000000 		.4byte	.LVL30
 1450 014d 0100     		.2byte	0x1
 1451 014f 58       		.byte	0x58
 1452 0150 66000000 		.4byte	.LVL30
 1453 0154 6C000000 		.4byte	.LVL32
 1454 0158 0100     		.2byte	0x1
 1455 015a 52       		.byte	0x52
 1456 015b 6C000000 		.4byte	.LVL32
 1457 015f 98000000 		.4byte	.LFE2
 1458 0163 0100     		.2byte	0x1
 1459 0165 58       		.byte	0x58
 1460 0166 00000000 		.4byte	0
 1461 016a 00000000 		.4byte	0
 1462              	.LLST11:
 1463 016e 00000000 		.4byte	.LVL18
 1464 0172 12000000 		.4byte	.LVL20
 1465 0176 0100     		.2byte	0x1
 1466 0178 53       		.byte	0x53
 1467 0179 12000000 		.4byte	.LVL20
 1468 017d 66000000 		.4byte	.LVL30
 1469 0181 0100     		.2byte	0x1
 1470 0183 56       		.byte	0x56
 1471 0184 66000000 		.4byte	.LVL30
 1472 0188 6A000000 		.4byte	.LVL31
 1473 018c 0100     		.2byte	0x1
 1474 018e 53       		.byte	0x53
 1475 018f 6A000000 		.4byte	.LVL31
 1476 0193 98000000 		.4byte	.LFE2
 1477 0197 0100     		.2byte	0x1
 1478 0199 56       		.byte	0x56
 1479 019a 00000000 		.4byte	0
 1480 019e 00000000 		.4byte	0
 1481              	.LLST12:
 1482 01a2 00000000 		.4byte	.LVL18
ARM GAS  /tmp/cc0x4P69.s 			page 27


 1483 01a6 2A000000 		.4byte	.LVL22
 1484 01aa 0200     		.2byte	0x2
 1485 01ac 91       		.byte	0x91
 1486 01ad 00       		.sleb128 0
 1487 01ae 2A000000 		.4byte	.LVL22
 1488 01b2 42000000 		.4byte	.LVL25
 1489 01b6 0100     		.2byte	0x1
 1490 01b8 54       		.byte	0x54
 1491 01b9 42000000 		.4byte	.LVL25
 1492 01bd 4B000000 		.4byte	.LVL27-1
 1493 01c1 0100     		.2byte	0x1
 1494 01c3 51       		.byte	0x51
 1495 01c4 4B000000 		.4byte	.LVL27-1
 1496 01c8 56000000 		.4byte	.LVL28
 1497 01cc 0300     		.2byte	0x3
 1498 01ce 74       		.byte	0x74
 1499 01cf 72       		.sleb128 -14
 1500 01d0 9F       		.byte	0x9f
 1501 01d1 56000000 		.4byte	.LVL28
 1502 01d5 66000000 		.4byte	.LVL30
 1503 01d9 0100     		.2byte	0x1
 1504 01db 54       		.byte	0x54
 1505 01dc 66000000 		.4byte	.LVL30
 1506 01e0 76000000 		.4byte	.LVL35
 1507 01e4 0200     		.2byte	0x2
 1508 01e6 91       		.byte	0x91
 1509 01e7 00       		.sleb128 0
 1510 01e8 88000000 		.4byte	.LVL37
 1511 01ec 90000000 		.4byte	.LVL38
 1512 01f0 0200     		.2byte	0x2
 1513 01f2 91       		.byte	0x91
 1514 01f3 00       		.sleb128 0
 1515 01f4 90000000 		.4byte	.LVL38
 1516 01f8 98000000 		.4byte	.LFE2
 1517 01fc 0100     		.2byte	0x1
 1518 01fe 54       		.byte	0x54
 1519 01ff 00000000 		.4byte	0
 1520 0203 00000000 		.4byte	0
 1521              	.LLST13:
 1522 0207 00000000 		.4byte	.LVL18
 1523 020b 2A000000 		.4byte	.LVL22
 1524 020f 0200     		.2byte	0x2
 1525 0211 30       		.byte	0x30
 1526 0212 9F       		.byte	0x9f
 1527 0213 4C000000 		.4byte	.LVL27
 1528 0217 56000000 		.4byte	.LVL28
 1529 021b 0100     		.2byte	0x1
 1530 021d 50       		.byte	0x50
 1531 021e 66000000 		.4byte	.LVL30
 1532 0222 72000000 		.4byte	.LVL34
 1533 0226 0200     		.2byte	0x2
 1534 0228 30       		.byte	0x30
 1535 0229 9F       		.byte	0x9f
 1536 022a 72000000 		.4byte	.LVL34
 1537 022e 82000000 		.4byte	.LVL36
 1538 0232 0100     		.2byte	0x1
 1539 0234 50       		.byte	0x50
ARM GAS  /tmp/cc0x4P69.s 			page 28


 1540 0235 88000000 		.4byte	.LVL37
 1541 0239 98000000 		.4byte	.LFE2
 1542 023d 0100     		.2byte	0x1
 1543 023f 50       		.byte	0x50
 1544 0240 00000000 		.4byte	0
 1545 0244 00000000 		.4byte	0
 1546              	.LLST14:
 1547 0248 00000000 		.4byte	.LVL18
 1548 024c 36000000 		.4byte	.LVL23
 1549 0250 0200     		.2byte	0x2
 1550 0252 30       		.byte	0x30
 1551 0253 9F       		.byte	0x9f
 1552 0254 36000000 		.4byte	.LVL23
 1553 0258 40000000 		.4byte	.LVL24
 1554 025c 0100     		.2byte	0x1
 1555 025e 55       		.byte	0x55
 1556 025f 40000000 		.4byte	.LVL24
 1557 0263 56000000 		.4byte	.LVL28
 1558 0267 0300     		.2byte	0x3
 1559 0269 75       		.byte	0x75
 1560 026a 7F       		.sleb128 -1
 1561 026b 9F       		.byte	0x9f
 1562 026c 56000000 		.4byte	.LVL28
 1563 0270 5E000000 		.4byte	.LVL29
 1564 0274 0100     		.2byte	0x1
 1565 0276 55       		.byte	0x55
 1566 0277 66000000 		.4byte	.LVL30
 1567 027b 76000000 		.4byte	.LVL35
 1568 027f 0200     		.2byte	0x2
 1569 0281 30       		.byte	0x30
 1570 0282 9F       		.byte	0x9f
 1571 0283 88000000 		.4byte	.LVL37
 1572 0287 98000000 		.4byte	.LFE2
 1573 028b 0200     		.2byte	0x2
 1574 028d 30       		.byte	0x30
 1575 028e 9F       		.byte	0x9f
 1576 028f 00000000 		.4byte	0
 1577 0293 00000000 		.4byte	0
 1578              	.LLST5:
 1579 0297 00000000 		.4byte	.LVL14
 1580 029b 09000000 		.4byte	.LVL15-1
 1581 029f 0100     		.2byte	0x1
 1582 02a1 50       		.byte	0x50
 1583 02a2 09000000 		.4byte	.LVL15-1
 1584 02a6 10000000 		.4byte	.LFE1
 1585 02aa 0400     		.2byte	0x4
 1586 02ac F3       		.byte	0xf3
 1587 02ad 01       		.uleb128 0x1
 1588 02ae 50       		.byte	0x50
 1589 02af 9F       		.byte	0x9f
 1590 02b0 00000000 		.4byte	0
 1591 02b4 00000000 		.4byte	0
 1592              	.LLST6:
 1593 02b8 00000000 		.4byte	.LVL14
 1594 02bc 09000000 		.4byte	.LVL15-1
 1595 02c0 0100     		.2byte	0x1
 1596 02c2 51       		.byte	0x51
ARM GAS  /tmp/cc0x4P69.s 			page 29


 1597 02c3 09000000 		.4byte	.LVL15-1
 1598 02c7 10000000 		.4byte	.LFE1
 1599 02cb 0400     		.2byte	0x4
 1600 02cd F3       		.byte	0xf3
 1601 02ce 01       		.uleb128 0x1
 1602 02cf 51       		.byte	0x51
 1603 02d0 9F       		.byte	0x9f
 1604 02d1 00000000 		.4byte	0
 1605 02d5 00000000 		.4byte	0
 1606              	.LLST7:
 1607 02d9 00000000 		.4byte	.LVL14
 1608 02dd 0A000000 		.4byte	.LVL15
 1609 02e1 0200     		.2byte	0x2
 1610 02e3 30       		.byte	0x30
 1611 02e4 9F       		.byte	0x9f
 1612 02e5 0A000000 		.4byte	.LVL15
 1613 02e9 0C000000 		.4byte	.LVL16
 1614 02ed 0100     		.2byte	0x1
 1615 02ef 50       		.byte	0x50
 1616 02f0 0C000000 		.4byte	.LVL16
 1617 02f4 0E000000 		.4byte	.LVL17
 1618 02f8 0300     		.2byte	0x3
 1619 02fa 70       		.byte	0x70
 1620 02fb 79       		.sleb128 -7
 1621 02fc 9F       		.byte	0x9f
 1622 02fd 00000000 		.4byte	0
 1623 0301 00000000 		.4byte	0
 1624              	.LLST0:
 1625 0305 00000000 		.4byte	.LVL0
 1626 0309 0A000000 		.4byte	.LVL1
 1627 030d 0100     		.2byte	0x1
 1628 030f 50       		.byte	0x50
 1629 0310 0A000000 		.4byte	.LVL1
 1630 0314 30000000 		.4byte	.LVL7
 1631 0318 0100     		.2byte	0x1
 1632 031a 56       		.byte	0x56
 1633 031b 30000000 		.4byte	.LVL7
 1634 031f 38000000 		.4byte	.LVL11
 1635 0323 0100     		.2byte	0x1
 1636 0325 50       		.byte	0x50
 1637 0326 38000000 		.4byte	.LVL11
 1638 032a 40000000 		.4byte	.LFE0
 1639 032e 0100     		.2byte	0x1
 1640 0330 56       		.byte	0x56
 1641 0331 00000000 		.4byte	0
 1642 0335 00000000 		.4byte	0
 1643              	.LLST1:
 1644 0339 00000000 		.4byte	.LVL0
 1645 033d 0A000000 		.4byte	.LVL1
 1646 0341 0100     		.2byte	0x1
 1647 0343 51       		.byte	0x51
 1648 0344 0A000000 		.4byte	.LVL1
 1649 0348 30000000 		.4byte	.LVL7
 1650 034c 0100     		.2byte	0x1
 1651 034e 57       		.byte	0x57
 1652 034f 30000000 		.4byte	.LVL7
 1653 0353 34000000 		.4byte	.LVL9
ARM GAS  /tmp/cc0x4P69.s 			page 30


 1654 0357 0100     		.2byte	0x1
 1655 0359 51       		.byte	0x51
 1656 035a 34000000 		.4byte	.LVL9
 1657 035e 40000000 		.4byte	.LFE0
 1658 0362 0100     		.2byte	0x1
 1659 0364 57       		.byte	0x57
 1660 0365 00000000 		.4byte	0
 1661 0369 00000000 		.4byte	0
 1662              	.LLST2:
 1663 036d 00000000 		.4byte	.LVL0
 1664 0371 0A000000 		.4byte	.LVL1
 1665 0375 0100     		.2byte	0x1
 1666 0377 52       		.byte	0x52
 1667 0378 0A000000 		.4byte	.LVL1
 1668 037c 30000000 		.4byte	.LVL7
 1669 0380 0100     		.2byte	0x1
 1670 0382 55       		.byte	0x55
 1671 0383 30000000 		.4byte	.LVL7
 1672 0387 36000000 		.4byte	.LVL10
 1673 038b 0100     		.2byte	0x1
 1674 038d 52       		.byte	0x52
 1675 038e 36000000 		.4byte	.LVL10
 1676 0392 40000000 		.4byte	.LFE0
 1677 0396 0100     		.2byte	0x1
 1678 0398 55       		.byte	0x55
 1679 0399 00000000 		.4byte	0
 1680 039d 00000000 		.4byte	0
 1681              	.LLST3:
 1682 03a1 00000000 		.4byte	.LVL0
 1683 03a5 0A000000 		.4byte	.LVL1
 1684 03a9 0100     		.2byte	0x1
 1685 03ab 53       		.byte	0x53
 1686 03ac 0A000000 		.4byte	.LVL1
 1687 03b0 30000000 		.4byte	.LVL7
 1688 03b4 0400     		.2byte	0x4
 1689 03b6 F3       		.byte	0xf3
 1690 03b7 01       		.uleb128 0x1
 1691 03b8 53       		.byte	0x53
 1692 03b9 9F       		.byte	0x9f
 1693 03ba 30000000 		.4byte	.LVL7
 1694 03be 32000000 		.4byte	.LVL8
 1695 03c2 0100     		.2byte	0x1
 1696 03c4 53       		.byte	0x53
 1697 03c5 32000000 		.4byte	.LVL8
 1698 03c9 40000000 		.4byte	.LFE0
 1699 03cd 0400     		.2byte	0x4
 1700 03cf F3       		.byte	0xf3
 1701 03d0 01       		.uleb128 0x1
 1702 03d1 53       		.byte	0x53
 1703 03d2 9F       		.byte	0x9f
 1704 03d3 00000000 		.4byte	0
 1705 03d7 00000000 		.4byte	0
 1706              	.LLST4:
 1707 03db 00000000 		.4byte	.LVL0
 1708 03df 10000000 		.4byte	.LVL2
 1709 03e3 0200     		.2byte	0x2
 1710 03e5 30       		.byte	0x30
ARM GAS  /tmp/cc0x4P69.s 			page 31


 1711 03e6 9F       		.byte	0x9f
 1712 03e7 10000000 		.4byte	.LVL2
 1713 03eb 24000000 		.4byte	.LVL4
 1714 03ef 0100     		.2byte	0x1
 1715 03f1 54       		.byte	0x54
 1716 03f2 24000000 		.4byte	.LVL4
 1717 03f6 2A000000 		.4byte	.LVL5
 1718 03fa 0300     		.2byte	0x3
 1719 03fc 74       		.byte	0x74
 1720 03fd 7F       		.sleb128 -1
 1721 03fe 9F       		.byte	0x9f
 1722 03ff 2A000000 		.4byte	.LVL5
 1723 0403 2C000000 		.4byte	.LVL6
 1724 0407 0100     		.2byte	0x1
 1725 0409 54       		.byte	0x54
 1726 040a 30000000 		.4byte	.LVL7
 1727 040e 40000000 		.4byte	.LFE0
 1728 0412 0200     		.2byte	0x2
 1729 0414 30       		.byte	0x30
 1730 0415 9F       		.byte	0x9f
 1731 0416 00000000 		.4byte	0
 1732 041a 00000000 		.4byte	0
 1733              		.section	.debug_aranges,"",%progbits
 1734 0000 34000000 		.4byte	0x34
 1735 0004 0200     		.2byte	0x2
 1736 0006 00000000 		.4byte	.Ldebug_info0
 1737 000a 04       		.byte	0x4
 1738 000b 00       		.byte	0
 1739 000c 0000     		.2byte	0
 1740 000e 0000     		.2byte	0
 1741 0010 00000000 		.4byte	.LFB0
 1742 0014 40000000 		.4byte	.LFE0-.LFB0
 1743 0018 00000000 		.4byte	.LFB1
 1744 001c 10000000 		.4byte	.LFE1-.LFB1
 1745 0020 00000000 		.4byte	.LFB2
 1746 0024 98000000 		.4byte	.LFE2-.LFB2
 1747 0028 00000000 		.4byte	.LFB3
 1748 002c 1C000000 		.4byte	.LFE3-.LFB3
 1749 0030 00000000 		.4byte	0
 1750 0034 00000000 		.4byte	0
 1751              		.section	.debug_ranges,"",%progbits
 1752              	.Ldebug_ranges0:
 1753 0000 00000000 		.4byte	.LFB0
 1754 0004 40000000 		.4byte	.LFE0
 1755 0008 00000000 		.4byte	.LFB1
 1756 000c 10000000 		.4byte	.LFE1
 1757 0010 00000000 		.4byte	.LFB2
 1758 0014 98000000 		.4byte	.LFE2
 1759 0018 00000000 		.4byte	.LFB3
 1760 001c 1C000000 		.4byte	.LFE3
 1761 0020 00000000 		.4byte	0
 1762 0024 00000000 		.4byte	0
 1763              		.section	.debug_line,"",%progbits
 1764              	.Ldebug_line0:
 1765 0000 86010000 		.section	.debug_str,"MS",%progbits,1
 1765      0200D400 
 1765      00000201 
ARM GAS  /tmp/cc0x4P69.s 			page 32


 1765      FB0E0D00 
 1765      01010101 
 1766              	.LASF27:
 1767 0000 64617461 		.ascii	"data_type_id\000"
 1767      5F747970 
 1767      655F6964 
 1767      00
 1768              	.LASF39:
 1769 000d 64657374 		.ascii	"dest\000"
 1769      00
 1770              	.LASF30:
 1771 0012 7072696F 		.ascii	"priority\000"
 1771      72697479 
 1771      00
 1772              	.LASF20:
 1773 001b 75696E74 		.ascii	"uint64_t\000"
 1773      36345F74 
 1773      00
 1774              	.LASF4:
 1775 0024 73686F72 		.ascii	"short int\000"
 1775      7420696E 
 1775      7400
 1776              	.LASF42:
 1777 002e 75617663 		.ascii	"uavcan_equipment_esc_RawCommand_decode\000"
 1777      616E5F65 
 1777      71756970 
 1777      6D656E74 
 1777      5F657363 
 1778              	.LASF46:
 1779 0055 6D73675F 		.ascii	"msg_buf\000"
 1779      62756600 
 1780              	.LASF54:
 1781 005d 75617663 		.ascii	"uavcan_equipment_esc_RawCommand_error_exit\000"
 1781      616E5F65 
 1781      71756970 
 1781      6D656E74 
 1781      5F657363 
 1782              	.LASF9:
 1783 0088 5F5F7569 		.ascii	"__uint32_t\000"
 1783      6E743332 
 1783      5F7400
 1784              	.LASF5:
 1785 0093 5F5F7569 		.ascii	"__uint16_t\000"
 1785      6E743136 
 1785      5F7400
 1786              	.LASF15:
 1787 009e 75696E74 		.ascii	"uint8_t\000"
 1787      385F7400 
 1788              	.LASF11:
 1789 00a6 6C6F6E67 		.ascii	"long long int\000"
 1789      206C6F6E 
 1789      6720696E 
 1789      7400
 1790              	.LASF40:
 1791 00b4 64796E5F 		.ascii	"dyn_arr_buf\000"
 1791      6172725F 
 1791      62756600 
ARM GAS  /tmp/cc0x4P69.s 			page 33


 1792              	.LASF8:
 1793 00c0 6C6F6E67 		.ascii	"long int\000"
 1793      20696E74 
 1793      00
 1794              	.LASF41:
 1795 00c9 6F666673 		.ascii	"offset\000"
 1795      657400
 1796              	.LASF2:
 1797 00d0 5F5F7569 		.ascii	"__uint8_t\000"
 1797      6E74385F 
 1797      7400
 1798              	.LASF45:
 1799 00da 736F7572 		.ascii	"source\000"
 1799      636500
 1800              	.LASF25:
 1801 00e1 7061796C 		.ascii	"payload_tail\000"
 1801      6F61645F 
 1801      7461696C 
 1801      00
 1802              	.LASF22:
 1803 00ee 74696D65 		.ascii	"timestamp_usec\000"
 1803      7374616D 
 1803      705F7573 
 1803      656300
 1804              	.LASF52:
 1805 00fd 6C696263 		.ascii	"libcanard/dsdl/uavcan/equipment/esc/esc_RawCommand."
 1805      616E6172 
 1805      642F6473 
 1805      646C2F75 
 1805      61766361 
 1806 0130 6300     		.ascii	"c\000"
 1807              	.LASF1:
 1808 0132 756E7369 		.ascii	"unsigned char\000"
 1808      676E6564 
 1808      20636861 
 1808      7200
 1809              	.LASF24:
 1810 0140 7061796C 		.ascii	"payload_middle\000"
 1810      6F61645F 
 1810      6D696464 
 1810      6C6500
 1811              	.LASF53:
 1812 014f 2F626C64 		.ascii	"/bldc\000"
 1812      6300
 1813              	.LASF0:
 1814 0155 7369676E 		.ascii	"signed char\000"
 1814      65642063 
 1814      68617200 
 1815              	.LASF13:
 1816 0161 6C6F6E67 		.ascii	"long long unsigned int\000"
 1816      206C6F6E 
 1816      6720756E 
 1816      7369676E 
 1816      65642069 
 1817              	.LASF19:
 1818 0178 75696E74 		.ascii	"uint32_t\000"
 1818      33325F74 
ARM GAS  /tmp/cc0x4P69.s 			page 34


 1818      00
 1819              	.LASF14:
 1820 0181 756E7369 		.ascii	"unsigned int\000"
 1820      676E6564 
 1820      20696E74 
 1820      00
 1821              	.LASF17:
 1822 018e 75696E74 		.ascii	"uint16_t\000"
 1822      31365F74 
 1822      00
 1823              	.LASF34:
 1824 0197 43616E61 		.ascii	"CanardBufferBlock\000"
 1824      72644275 
 1824      66666572 
 1824      426C6F63 
 1824      6B00
 1825              	.LASF31:
 1826 01a9 736F7572 		.ascii	"source_node_id\000"
 1826      63655F6E 
 1826      6F64655F 
 1826      696400
 1827              	.LASF43:
 1828 01b8 75617663 		.ascii	"uavcan_equipment_esc_RawCommand_decode_internal\000"
 1828      616E5F65 
 1828      71756970 
 1828      6D656E74 
 1828      5F657363 
 1829              	.LASF6:
 1830 01e8 73686F72 		.ascii	"short unsigned int\000"
 1830      7420756E 
 1830      7369676E 
 1830      65642069 
 1830      6E7400
 1831              	.LASF50:
 1832 01fb 63616E61 		.ascii	"canardEncodeScalar\000"
 1832      7264456E 
 1832      636F6465 
 1832      5363616C 
 1832      617200
 1833              	.LASF33:
 1834 020e 63686172 		.ascii	"char\000"
 1834      00
 1835              	.LASF32:
 1836 0213 5F426F6F 		.ascii	"_Bool\000"
 1836      6C00
 1837              	.LASF18:
 1838 0219 696E7433 		.ascii	"int32_t\000"
 1838      325F7400 
 1839              	.LASF28:
 1840 0221 7472616E 		.ascii	"transfer_type\000"
 1840      73666572 
 1840      5F747970 
 1840      6500
 1841              	.LASF16:
 1842 022f 696E7431 		.ascii	"int16_t\000"
 1842      365F7400 
 1843              	.LASF23:
ARM GAS  /tmp/cc0x4P69.s 			page 35


 1844 0237 7061796C 		.ascii	"payload_head\000"
 1844      6F61645F 
 1844      68656164 
 1844      00
 1845              	.LASF12:
 1846 0244 5F5F7569 		.ascii	"__uint64_t\000"
 1846      6E743634 
 1846      5F7400
 1847              	.LASF36:
 1848 024f 64617461 		.ascii	"data\000"
 1848      00
 1849              	.LASF38:
 1850 0254 7472616E 		.ascii	"transfer\000"
 1850      73666572 
 1850      00
 1851              	.LASF21:
 1852 025d 43616E61 		.ascii	"CanardRxTransfer\000"
 1852      72645278 
 1852      5472616E 
 1852      73666572 
 1852      00
 1853              	.LASF10:
 1854 026e 6C6F6E67 		.ascii	"long unsigned int\000"
 1854      20756E73 
 1854      69676E65 
 1854      6420696E 
 1854      7400
 1855              	.LASF44:
 1856 0280 75617663 		.ascii	"uavcan_equipment_esc_RawCommand_encode\000"
 1856      616E5F65 
 1856      71756970 
 1856      6D656E74 
 1856      5F657363 
 1857              	.LASF47:
 1858 02a7 75617663 		.ascii	"uavcan_equipment_esc_RawCommand_encode_internal\000"
 1858      616E5F65 
 1858      71756970 
 1858      6D656E74 
 1858      5F657363 
 1859              	.LASF48:
 1860 02d7 726F6F74 		.ascii	"root_item\000"
 1860      5F697465 
 1860      6D00
 1861              	.LASF7:
 1862 02e1 5F5F696E 		.ascii	"__int32_t\000"
 1862      7433325F 
 1862      7400
 1863              	.LASF3:
 1864 02eb 5F5F696E 		.ascii	"__int16_t\000"
 1864      7431365F 
 1864      7400
 1865              	.LASF26:
 1866 02f5 7061796C 		.ascii	"payload_len\000"
 1866      6F61645F 
 1866      6C656E00 
 1867              	.LASF29:
 1868 0301 7472616E 		.ascii	"transfer_id\000"
ARM GAS  /tmp/cc0x4P69.s 			page 36


 1868      73666572 
 1868      5F696400 
 1869              	.LASF49:
 1870 030d 63616E61 		.ascii	"canardDecodeScalar\000"
 1870      72644465 
 1870      636F6465 
 1870      5363616C 
 1870      617200
 1871              	.LASF37:
 1872 0320 75617663 		.ascii	"uavcan_equipment_esc_RawCommand\000"
 1872      616E5F65 
 1872      71756970 
 1872      6D656E74 
 1872      5F657363 
 1873              	.LASF35:
 1874 0340 6E657874 		.ascii	"next\000"
 1874      00
 1875              	.LASF51:
 1876 0345 474E5520 		.ascii	"GNU C99 7.3.1 20180622 (release) [ARM/embedded-7-br"
 1876      43393920 
 1876      372E332E 
 1876      31203230 
 1876      31383036 
 1877 0378 616E6368 		.ascii	"anch revision 261907] -mcpu=cortex-m4 -mfloat-abi=h"
 1877      20726576 
 1877      6973696F 
 1877      6E203236 
 1877      31393037 
 1878 03ab 61726420 		.ascii	"ard -mfpu=fpv4-sp-d16 -mno-thumb-interwork -mthumb "
 1878      2D6D6670 
 1878      753D6670 
 1878      76342D73 
 1878      702D6431 
 1879 03de 2D676764 		.ascii	"-ggdb -O2 -std=gnu99 -fomit-frame-pointer -falign-f"
 1879      62202D4F 
 1879      32202D73 
 1879      74643D67 
 1879      6E753939 
 1880 0411 756E6374 		.ascii	"unctions=16 -ffunction-sections -fdata-sections -fn"
 1880      696F6E73 
 1880      3D313620 
 1880      2D666675 
 1880      6E637469 
 1881 0444 6F2D636F 		.ascii	"o-common -fsingle-precision-constant\000"
 1881      6D6D6F6E 
 1881      202D6673 
 1881      696E676C 
 1881      652D7072 
 1882              		.ident	"GCC: (GNU Tools for Arm Embedded Processors 7-2018-q3-update) 7.3.1 20180622 (release) [AR
ARM GAS  /tmp/cc0x4P69.s 			page 37


DEFINED SYMBOLS
                            *ABS*:0000000000000000 esc_RawCommand.c
     /tmp/cc0x4P69.s:18     .text.uavcan_equipment_esc_RawCommand_encode_internal:0000000000000000 $t
     /tmp/cc0x4P69.s:26     .text.uavcan_equipment_esc_RawCommand_encode_internal:0000000000000000 uavcan_equipment_esc_RawCommand_encode_internal
     /tmp/cc0x4P69.s:102    .text.uavcan_equipment_esc_RawCommand_encode:0000000000000000 $t
     /tmp/cc0x4P69.s:110    .text.uavcan_equipment_esc_RawCommand_encode:0000000000000000 uavcan_equipment_esc_RawCommand_encode
     /tmp/cc0x4P69.s:137    .text.uavcan_equipment_esc_RawCommand_decode_internal:0000000000000000 $t
     /tmp/cc0x4P69.s:145    .text.uavcan_equipment_esc_RawCommand_decode_internal:0000000000000000 uavcan_equipment_esc_RawCommand_decode_internal
     /tmp/cc0x4P69.s:281    .text.uavcan_equipment_esc_RawCommand_decode_internal:0000000000000094 $d
     /tmp/cc0x4P69.s:286    .text.uavcan_equipment_esc_RawCommand_decode:0000000000000000 $t
     /tmp/cc0x4P69.s:294    .text.uavcan_equipment_esc_RawCommand_decode:0000000000000000 uavcan_equipment_esc_RawCommand_decode

UNDEFINED SYMBOLS
canardEncodeScalar
canardDecodeScalar
