ARM GAS  /tmp/ccSYaJyZ.s 			page 1


   1              		.cpu cortex-m4
   2              		.eabi_attribute 27, 1
   3              		.eabi_attribute 28, 1
   4              		.eabi_attribute 20, 1
   5              		.eabi_attribute 21, 1
   6              		.eabi_attribute 23, 3
   7              		.eabi_attribute 24, 1
   8              		.eabi_attribute 25, 1
   9              		.eabi_attribute 26, 1
  10              		.eabi_attribute 30, 2
  11              		.eabi_attribute 34, 1
  12              		.eabi_attribute 18, 4
  13              		.file	"esc_Status.c"
  14              		.text
  15              	.Ltext0:
  16              		.cfi_sections	.debug_frame
  17              		.section	.text.uavcan_equipment_esc_Status_encode_internal,"ax",%progbits
  18              		.align	1
  19              		.p2align 4,,15
  20              		.global	uavcan_equipment_esc_Status_encode_internal
  21              		.syntax unified
  22              		.thumb
  23              		.thumb_func
  24              		.fpu fpv4-sp-d16
  25              		.type	uavcan_equipment_esc_Status_encode_internal, %function
  26              	uavcan_equipment_esc_Status_encode_internal:
  27              	.LFB0:
  28              		.file 1 "libcanard/dsdl/uavcan/equipment/esc/esc_Status.c"
  29              		.loc 1 37 0
  30              		.cfi_startproc
  31              		@ args = 0, pretend = 0, frame = 8
  32              		@ frame_needed = 0, uses_anonymous_args = 0
  33              	.LVL0:
  34 0000 F0B5     		push	{r4, r5, r6, r7, lr}
  35              		.cfi_def_cfa_offset 20
  36              		.cfi_offset 4, -20
  37              		.cfi_offset 5, -16
  38              		.cfi_offset 6, -12
  39              		.cfi_offset 7, -8
  40              		.cfi_offset 14, -4
  41 0002 0E46     		mov	r6, r1
  42 0004 83B0     		sub	sp, sp, #12
  43              		.cfi_def_cfa_offset 32
  44              		.loc 1 37 0
  45 0006 0446     		mov	r4, r0
  46 0008 1546     		mov	r5, r2
  47              		.loc 1 44 0
  48 000a 0346     		mov	r3, r0
  49              	.LVL1:
  50 000c 1146     		mov	r1, r2
  51              	.LVL2:
  52 000e 3046     		mov	r0, r6
  53              	.LVL3:
  54 0010 2022     		movs	r2, #32
  55              	.LVL4:
  56              		.loc 1 39 0
  57 0012 0027     		movs	r7, #0
ARM GAS  /tmp/ccSYaJyZ.s 			page 2


  58 0014 ADF80670 		strh	r7, [sp, #6]	@ movhi
  59              		.loc 1 44 0
  60 0018 FFF7FEFF 		bl	canardEncodeScalar
  61              	.LVL5:
  62              		.loc 1 49 0
  63 001c 94ED010A 		vldr.32	s0, [r4, #4]
  64 0020 FFF7FEFF 		bl	canardConvertNativeFloatToFloat16
  65              	.LVL6:
  66 0024 02AF     		add	r7, sp, #8
  67              		.loc 1 53 0
  68 0026 05F12001 		add	r1, r5, #32
  69              	.LVL7:
  70              		.loc 1 49 0
  71 002a 27F8020D 		strh	r0, [r7, #-2]!	@ movhi
  72              		.loc 1 53 0
  73 002e 1022     		movs	r2, #16
  74 0030 3B46     		mov	r3, r7
  75 0032 3046     		mov	r0, r6
  76 0034 FFF7FEFF 		bl	canardEncodeScalar
  77              	.LVL8:
  78              		.loc 1 58 0
  79 0038 94ED020A 		vldr.32	s0, [r4, #8]
  80 003c FFF7FEFF 		bl	canardConvertNativeFloatToFloat16
  81              	.LVL9:
  82              		.loc 1 62 0
  83 0040 3B46     		mov	r3, r7
  84 0042 05F13001 		add	r1, r5, #48
  85              	.LVL10:
  86              		.loc 1 58 0
  87 0046 ADF80600 		strh	r0, [sp, #6]	@ movhi
  88              		.loc 1 62 0
  89 004a 1022     		movs	r2, #16
  90 004c 3046     		mov	r0, r6
  91 004e FFF7FEFF 		bl	canardEncodeScalar
  92              	.LVL11:
  93              		.loc 1 67 0
  94 0052 94ED030A 		vldr.32	s0, [r4, #12]
  95 0056 FFF7FEFF 		bl	canardConvertNativeFloatToFloat16
  96              	.LVL12:
  97              		.loc 1 71 0
  98 005a 3B46     		mov	r3, r7
  99              		.loc 1 67 0
 100 005c ADF80600 		strh	r0, [sp, #6]	@ movhi
 101              		.loc 1 71 0
 102 0060 05F14001 		add	r1, r5, #64
 103              	.LVL13:
 104 0064 3046     		mov	r0, r6
 105 0066 1022     		movs	r2, #16
 106 0068 FFF7FEFF 		bl	canardEncodeScalar
 107              	.LVL14:
 108              		.loc 1 73 0
 109 006c 2369     		ldr	r3, [r4, #16]
 110 006e 174A     		ldr	r2, .L4
 111 0070 1749     		ldr	r1, .L4+4
 112 0072 9A42     		cmp	r2, r3
 113 0074 B8BF     		it	lt
 114 0076 1A46     		movlt	r2, r3
ARM GAS  /tmp/ccSYaJyZ.s 			page 3


 115 0078 8A42     		cmp	r2, r1
 116 007a 2346     		mov	r3, r4
 117 007c A8BF     		it	ge
 118 007e 0A46     		movge	r2, r1
 119 0080 43F8102F 		str	r2, [r3, #16]!
 120              		.loc 1 74 0
 121 0084 05F15001 		add	r1, r5, #80
 122              	.LVL15:
 123 0088 3046     		mov	r0, r6
 124 008a 1222     		movs	r2, #18
 125 008c FFF7FEFF 		bl	canardEncodeScalar
 126              	.LVL16:
 127              		.loc 1 77 0
 128 0090 227D     		ldrb	r2, [r4, #20]	@ zero_extendqisi2
 129 0092 2346     		mov	r3, r4
 130 0094 7F2A     		cmp	r2, #127
 131 0096 28BF     		it	cs
 132 0098 7F22     		movcs	r2, #127
 133 009a 03F8142F 		strb	r2, [r3, #20]!
 134              		.loc 1 78 0
 135 009e 05F16201 		add	r1, r5, #98
 136              	.LVL17:
 137 00a2 3046     		mov	r0, r6
 138 00a4 0722     		movs	r2, #7
 139 00a6 FFF7FEFF 		bl	canardEncodeScalar
 140              	.LVL18:
 141              		.loc 1 81 0
 142 00aa 627D     		ldrb	r2, [r4, #21]	@ zero_extendqisi2
 143 00ac 2346     		mov	r3, r4
 144 00ae 1F2A     		cmp	r2, #31
 145 00b0 28BF     		it	cs
 146 00b2 1F22     		movcs	r2, #31
 147 00b4 03F8152F 		strb	r2, [r3, #21]!
 148              		.loc 1 82 0
 149 00b8 3046     		mov	r0, r6
 150 00ba 05F16901 		add	r1, r5, #105
 151              	.LVL19:
 152 00be 0522     		movs	r2, #5
 153 00c0 FFF7FEFF 		bl	canardEncodeScalar
 154              	.LVL20:
 155              		.loc 1 86 0
 156 00c4 05F16E00 		add	r0, r5, #110
 157              	.LVL21:
 158 00c8 03B0     		add	sp, sp, #12
 159              		.cfi_def_cfa_offset 20
 160              		@ sp needed
 161 00ca F0BD     		pop	{r4, r5, r6, r7, pc}
 162              	.LVL22:
 163              	.L5:
 164              		.align	2
 165              	.L4:
 166 00cc 0100FEFF 		.word	-131071
 167 00d0 FFFF0100 		.word	131071
 168              		.cfi_endproc
 169              	.LFE0:
 170              		.size	uavcan_equipment_esc_Status_encode_internal, .-uavcan_equipment_esc_Status_encode_internal
 171              		.section	.text.uavcan_equipment_esc_Status_encode,"ax",%progbits
ARM GAS  /tmp/ccSYaJyZ.s 			page 4


 172              		.align	1
 173              		.p2align 4,,15
 174              		.global	uavcan_equipment_esc_Status_encode
 175              		.syntax unified
 176              		.thumb
 177              		.thumb_func
 178              		.fpu fpv4-sp-d16
 179              		.type	uavcan_equipment_esc_Status_encode, %function
 180              	uavcan_equipment_esc_Status_encode:
 181              	.LFB1:
 182              		.loc 1 95 0
 183              		.cfi_startproc
 184              		@ args = 0, pretend = 0, frame = 0
 185              		@ frame_needed = 0, uses_anonymous_args = 0
 186              	.LVL23:
 187 0000 08B5     		push	{r3, lr}
 188              		.cfi_def_cfa_offset 8
 189              		.cfi_offset 3, -8
 190              		.cfi_offset 14, -4
 191              		.loc 1 98 0
 192 0002 0022     		movs	r2, #0
 193 0004 0123     		movs	r3, #1
 194 0006 FFF7FEFF 		bl	uavcan_equipment_esc_Status_encode_internal
 195              	.LVL24:
 196              		.loc 1 100 0
 197 000a 0730     		adds	r0, r0, #7
 198              	.LVL25:
 199              		.loc 1 101 0
 200 000c C008     		lsrs	r0, r0, #3
 201              	.LVL26:
 202 000e 08BD     		pop	{r3, pc}
 203              		.cfi_endproc
 204              	.LFE1:
 205              		.size	uavcan_equipment_esc_Status_encode, .-uavcan_equipment_esc_Status_encode
 206              		.section	.text.uavcan_equipment_esc_Status_decode_internal,"ax",%progbits
 207              		.align	1
 208              		.p2align 4,,15
 209              		.global	uavcan_equipment_esc_Status_decode_internal
 210              		.syntax unified
 211              		.thumb
 212              		.thumb_func
 213              		.fpu fpv4-sp-d16
 214              		.type	uavcan_equipment_esc_Status_decode_internal, %function
 215              	uavcan_equipment_esc_Status_decode_internal:
 216              	.LFB2:
 217              		.loc 1 120 0
 218              		.cfi_startproc
 219              		@ args = 4, pretend = 0, frame = 8
 220              		@ frame_needed = 0, uses_anonymous_args = 0
 221              	.LVL27:
 222 0000 F0B5     		push	{r4, r5, r6, r7, lr}
 223              		.cfi_def_cfa_offset 20
 224              		.cfi_offset 4, -20
 225              		.cfi_offset 5, -16
 226              		.cfi_offset 6, -12
 227              		.cfi_offset 7, -8
 228              		.cfi_offset 14, -4
ARM GAS  /tmp/ccSYaJyZ.s 			page 5


 229 0002 85B0     		sub	sp, sp, #20
 230              		.cfi_def_cfa_offset 40
 231              		.loc 1 123 0
 232 0004 0025     		movs	r5, #0
 233              		.loc 1 128 0
 234 0006 0092     		str	r2, [sp]
 235              		.loc 1 120 0
 236 0008 1646     		mov	r6, r2
 237              		.loc 1 128 0
 238 000a 0A99     		ldr	r1, [sp, #40]
 239              	.LVL28:
 240              		.loc 1 123 0
 241 000c ADF80E50 		strh	r5, [sp, #14]	@ movhi
 242              		.loc 1 128 0
 243 0010 2B46     		mov	r3, r5
 244              	.LVL29:
 245 0012 2022     		movs	r2, #32
 246              	.LVL30:
 247              		.loc 1 120 0
 248 0014 0746     		mov	r7, r0
 249              		.loc 1 128 0
 250 0016 FFF7FEFF 		bl	canardDecodeScalar
 251              	.LVL31:
 252              		.loc 1 129 0
 253 001a 2028     		cmp	r0, #32
 254              		.loc 1 128 0
 255 001c 0446     		mov	r4, r0
 256              	.LVL32:
 257              		.loc 1 129 0
 258 001e 06D0     		beq	.L12
 259              	.LVL33:
 260              	.L9:
 261              		.loc 1 206 0
 262 0020 002C     		cmp	r4, #0
 263 0022 A8BF     		it	ge
 264 0024 6FF00804 		mvnge	r4, #8
 265              	.L8:
 266              		.loc 1 208 0
 267 0028 2046     		mov	r0, r4
 268              	.LVL34:
 269 002a 05B0     		add	sp, sp, #20
 270              		.cfi_remember_state
 271              		.cfi_def_cfa_offset 20
 272              		@ sp needed
 273 002c F0BD     		pop	{r4, r5, r6, r7, pc}
 274              	.LVL35:
 275              	.L12:
 276              		.cfi_restore_state
 277              		.loc 1 136 0
 278 002e 0A99     		ldr	r1, [sp, #40]
 279 0030 0DF10E03 		add	r3, sp, #14
 280 0034 0093     		str	r3, [sp]
 281 0036 1022     		movs	r2, #16
 282 0038 2B46     		mov	r3, r5
 283 003a 2031     		adds	r1, r1, #32
 284              	.LVL36:
 285 003c 3846     		mov	r0, r7
ARM GAS  /tmp/ccSYaJyZ.s 			page 6


 286              	.LVL37:
 287 003e FFF7FEFF 		bl	canardDecodeScalar
 288              	.LVL38:
 289              		.loc 1 138 0
 290 0042 1028     		cmp	r0, #16
 291              		.loc 1 136 0
 292 0044 0446     		mov	r4, r0
 293              	.LVL39:
 294              		.loc 1 138 0
 295 0046 EBD1     		bne	.L9
 296              		.loc 1 143 0
 297 0048 BDF80E00 		ldrh	r0, [sp, #14]
 298              	.LVL40:
 299 004c FFF7FEFF 		bl	canardConvertFloat16ToNativeFloat
 300              	.LVL41:
 301              		.loc 1 150 0
 302 0050 0A99     		ldr	r1, [sp, #40]
 303 0052 0DF10E03 		add	r3, sp, #14
 304 0056 0093     		str	r3, [sp]
 305 0058 2246     		mov	r2, r4
 306              		.loc 1 143 0
 307 005a 86ED010A 		vstr.32	s0, [r6, #4]
 308              	.LVL42:
 309              		.loc 1 150 0
 310 005e 2B46     		mov	r3, r5
 311 0060 3031     		adds	r1, r1, #48
 312              	.LVL43:
 313 0062 3846     		mov	r0, r7
 314 0064 FFF7FEFF 		bl	canardDecodeScalar
 315              	.LVL44:
 316              		.loc 1 152 0
 317 0068 1028     		cmp	r0, #16
 318              		.loc 1 150 0
 319 006a 0446     		mov	r4, r0
 320              	.LVL45:
 321              		.loc 1 152 0
 322 006c D8D1     		bne	.L9
 323              		.loc 1 157 0
 324 006e BDF80E00 		ldrh	r0, [sp, #14]
 325              	.LVL46:
 326 0072 FFF7FEFF 		bl	canardConvertFloat16ToNativeFloat
 327              	.LVL47:
 328              		.loc 1 164 0
 329 0076 0A99     		ldr	r1, [sp, #40]
 330 0078 0DF10E03 		add	r3, sp, #14
 331 007c 0093     		str	r3, [sp]
 332 007e 2246     		mov	r2, r4
 333              		.loc 1 157 0
 334 0080 86ED020A 		vstr.32	s0, [r6, #8]
 335              	.LVL48:
 336              		.loc 1 164 0
 337 0084 2B46     		mov	r3, r5
 338 0086 4031     		adds	r1, r1, #64
 339              	.LVL49:
 340 0088 3846     		mov	r0, r7
 341 008a FFF7FEFF 		bl	canardDecodeScalar
 342              	.LVL50:
ARM GAS  /tmp/ccSYaJyZ.s 			page 7


 343              		.loc 1 166 0
 344 008e 1028     		cmp	r0, #16
 345              		.loc 1 164 0
 346 0090 0446     		mov	r4, r0
 347              	.LVL51:
 348              		.loc 1 166 0
 349 0092 C5D1     		bne	.L9
 350              		.loc 1 171 0
 351 0094 BDF80E00 		ldrh	r0, [sp, #14]
 352              	.LVL52:
 353 0098 FFF7FEFF 		bl	canardConvertFloat16ToNativeFloat
 354              	.LVL53:
 355              		.loc 1 177 0
 356 009c 0A99     		ldr	r1, [sp, #40]
 357              		.loc 1 171 0
 358 009e 86ED030A 		vstr.32	s0, [r6, #12]
 359              	.LVL54:
 360              		.loc 1 177 0
 361 00a2 06F11003 		add	r3, r6, #16
 362 00a6 0093     		str	r3, [sp]
 363 00a8 1222     		movs	r2, #18
 364 00aa 0123     		movs	r3, #1
 365 00ac 5031     		adds	r1, r1, #80
 366              	.LVL55:
 367 00ae 3846     		mov	r0, r7
 368 00b0 FFF7FEFF 		bl	canardDecodeScalar
 369              	.LVL56:
 370              		.loc 1 178 0
 371 00b4 1228     		cmp	r0, #18
 372              		.loc 1 177 0
 373 00b6 0446     		mov	r4, r0
 374              	.LVL57:
 375              		.loc 1 178 0
 376 00b8 B2D1     		bne	.L9
 377              	.LVL58:
 378              		.loc 1 184 0
 379 00ba 0A99     		ldr	r1, [sp, #40]
 380 00bc 06F11403 		add	r3, r6, #20
 381 00c0 0093     		str	r3, [sp]
 382 00c2 0722     		movs	r2, #7
 383 00c4 2B46     		mov	r3, r5
 384 00c6 6231     		adds	r1, r1, #98
 385              	.LVL59:
 386 00c8 3846     		mov	r0, r7
 387              	.LVL60:
 388 00ca FFF7FEFF 		bl	canardDecodeScalar
 389              	.LVL61:
 390              		.loc 1 185 0
 391 00ce 0728     		cmp	r0, #7
 392              		.loc 1 184 0
 393 00d0 0446     		mov	r4, r0
 394              	.LVL62:
 395              		.loc 1 185 0
 396 00d2 A5D1     		bne	.L9
 397              	.LVL63:
 398              		.loc 1 191 0
 399 00d4 0A99     		ldr	r1, [sp, #40]
ARM GAS  /tmp/ccSYaJyZ.s 			page 8


 400 00d6 1536     		adds	r6, r6, #21
 401              	.LVL64:
 402 00d8 0096     		str	r6, [sp]
 403 00da 2B46     		mov	r3, r5
 404 00dc 3846     		mov	r0, r7
 405              	.LVL65:
 406 00de 0522     		movs	r2, #5
 407 00e0 6931     		adds	r1, r1, #105
 408              	.LVL66:
 409 00e2 FFF7FEFF 		bl	canardDecodeScalar
 410              	.LVL67:
 411              		.loc 1 192 0
 412 00e6 0528     		cmp	r0, #5
 413              		.loc 1 191 0
 414 00e8 0446     		mov	r4, r0
 415              	.LVL68:
 416              		.loc 1 192 0
 417 00ea 99D1     		bne	.L9
 418              		.loc 1 196 0
 419 00ec 0A9B     		ldr	r3, [sp, #40]
 420 00ee 03F16E04 		add	r4, r3, #110
 421              	.LVL69:
 422              		.loc 1 197 0
 423 00f2 99E7     		b	.L8
 424              		.cfi_endproc
 425              	.LFE2:
 426              		.size	uavcan_equipment_esc_Status_decode_internal, .-uavcan_equipment_esc_Status_decode_internal
 427              		.section	.text.uavcan_equipment_esc_Status_decode,"ax",%progbits
 428              		.align	1
 429              		.p2align 4,,15
 430              		.global	uavcan_equipment_esc_Status_decode
 431              		.syntax unified
 432              		.thumb
 433              		.thumb_func
 434              		.fpu fpv4-sp-d16
 435              		.type	uavcan_equipment_esc_Status_decode, %function
 436              	uavcan_equipment_esc_Status_decode:
 437              	.LFB3:
 438              		.loc 1 224 0
 439              		.cfi_startproc
 440              		@ args = 0, pretend = 0, frame = 0
 441              		@ frame_needed = 0, uses_anonymous_args = 0
 442              	.LVL70:
 443 0000 70B5     		push	{r4, r5, r6, lr}
 444              		.cfi_def_cfa_offset 16
 445              		.cfi_offset 4, -16
 446              		.cfi_offset 5, -12
 447              		.cfi_offset 6, -8
 448              		.cfi_offset 14, -4
 449 0002 541E     		subs	r4, r2, #1
 450 0004 82B0     		sub	sp, sp, #8
 451              		.cfi_def_cfa_offset 24
 452 0006 02F11706 		add	r6, r2, #23
 453              	.LBB2:
 454              		.loc 1 231 0
 455 000a 0025     		movs	r5, #0
 456              	.LVL71:
ARM GAS  /tmp/ccSYaJyZ.s 			page 9


 457              	.L14:
 458              		.loc 1 231 0 is_stmt 0 discriminator 3
 459 000c 04F8015F 		strb	r5, [r4, #1]!
 460              		.loc 1 229 0 is_stmt 1 discriminator 3
 461 0010 B442     		cmp	r4, r6
 462 0012 FBD1     		bne	.L14
 463              	.LBE2:
 464              		.loc 1 234 0
 465 0014 0095     		str	r5, [sp]
 466 0016 FFF7FEFF 		bl	uavcan_equipment_esc_Status_decode_internal
 467              	.LVL72:
 468              		.loc 1 237 0
 469 001a 02B0     		add	sp, sp, #8
 470              		.cfi_def_cfa_offset 16
 471              		@ sp needed
 472 001c 70BD     		pop	{r4, r5, r6, pc}
 473              		.cfi_endproc
 474              	.LFE3:
 475              		.size	uavcan_equipment_esc_Status_decode, .-uavcan_equipment_esc_Status_decode
 476 001e 00BF     		.text
 477              	.Letext0:
 478              		.file 2 "/usr/arm-none-eabi/include/machine/_default_types.h"
 479              		.file 3 "/usr/arm-none-eabi/include/sys/_stdint.h"
 480              		.file 4 "libcanard/canard.h"
 481              		.file 5 "libcanard/dsdl/uavcan/equipment/esc/Status.h"
 482              		.section	.debug_info,"",%progbits
 483              	.Ldebug_info0:
 484 0000 00070000 		.4byte	0x700
 485 0004 0400     		.2byte	0x4
 486 0006 00000000 		.4byte	.Ldebug_abbrev0
 487 000a 04       		.byte	0x4
 488 000b 01       		.uleb128 0x1
 489 000c 8B030000 		.4byte	.LASF59
 490 0010 0C       		.byte	0xc
 491 0011 DD010000 		.4byte	.LASF60
 492 0015 74010000 		.4byte	.LASF61
 493 0019 00000000 		.4byte	.Ldebug_ranges0+0
 494 001d 00000000 		.4byte	0
 495 0021 00000000 		.4byte	.Ldebug_line0
 496 0025 02       		.uleb128 0x2
 497 0026 01       		.byte	0x1
 498 0027 06       		.byte	0x6
 499 0028 7A010000 		.4byte	.LASF0
 500 002c 03       		.uleb128 0x3
 501 002d 2A010000 		.4byte	.LASF3
 502 0031 02       		.byte	0x2
 503 0032 2B       		.byte	0x2b
 504 0033 37000000 		.4byte	0x37
 505 0037 02       		.uleb128 0x2
 506 0038 01       		.byte	0x1
 507 0039 08       		.byte	0x8
 508 003a 57010000 		.4byte	.LASF1
 509 003e 02       		.uleb128 0x2
 510 003f 02       		.byte	0x2
 511 0040 05       		.byte	0x5
 512 0041 2E000000 		.4byte	.LASF2
 513 0045 03       		.uleb128 0x3
ARM GAS  /tmp/ccSYaJyZ.s 			page 10


 514 0046 91000000 		.4byte	.LASF4
 515 004a 02       		.byte	0x2
 516 004b 39       		.byte	0x39
 517 004c 50000000 		.4byte	0x50
 518 0050 02       		.uleb128 0x2
 519 0051 02       		.byte	0x2
 520 0052 07       		.byte	0x7
 521 0053 0E020000 		.4byte	.LASF5
 522 0057 03       		.uleb128 0x3
 523 0058 E5020000 		.4byte	.LASF6
 524 005c 02       		.byte	0x2
 525 005d 4D       		.byte	0x4d
 526 005e 62000000 		.4byte	0x62
 527 0062 02       		.uleb128 0x2
 528 0063 04       		.byte	0x4
 529 0064 05       		.byte	0x5
 530 0065 12010000 		.4byte	.LASF7
 531 0069 03       		.uleb128 0x3
 532 006a 5A000000 		.4byte	.LASF8
 533 006e 02       		.byte	0x2
 534 006f 4F       		.byte	0x4f
 535 0070 74000000 		.4byte	0x74
 536 0074 02       		.uleb128 0x2
 537 0075 04       		.byte	0x4
 538 0076 07       		.byte	0x7
 539 0077 BD020000 		.4byte	.LASF9
 540 007b 02       		.uleb128 0x2
 541 007c 08       		.byte	0x8
 542 007d 05       		.byte	0x5
 543 007e D6000000 		.4byte	.LASF10
 544 0082 03       		.uleb128 0x3
 545 0083 93020000 		.4byte	.LASF11
 546 0087 02       		.byte	0x2
 547 0088 69       		.byte	0x69
 548 0089 8D000000 		.4byte	0x8d
 549 008d 02       		.uleb128 0x2
 550 008e 08       		.byte	0x8
 551 008f 07       		.byte	0x7
 552 0090 86010000 		.4byte	.LASF12
 553 0094 04       		.uleb128 0x4
 554 0095 04       		.byte	0x4
 555 0096 05       		.byte	0x5
 556 0097 696E7400 		.ascii	"int\000"
 557 009b 02       		.uleb128 0x2
 558 009c 04       		.byte	0x4
 559 009d 07       		.byte	0x7
 560 009e A6010000 		.4byte	.LASF13
 561 00a2 03       		.uleb128 0x3
 562 00a3 9C000000 		.4byte	.LASF14
 563 00a7 03       		.byte	0x3
 564 00a8 18       		.byte	0x18
 565 00a9 2C000000 		.4byte	0x2c
 566 00ad 05       		.uleb128 0x5
 567 00ae A2000000 		.4byte	0xa2
 568 00b2 03       		.uleb128 0x3
 569 00b3 B3010000 		.4byte	.LASF15
 570 00b7 03       		.byte	0x3
ARM GAS  /tmp/ccSYaJyZ.s 			page 11


 571 00b8 24       		.byte	0x24
 572 00b9 45000000 		.4byte	0x45
 573 00bd 03       		.uleb128 0x3
 574 00be 66020000 		.4byte	.LASF16
 575 00c2 03       		.byte	0x3
 576 00c3 2C       		.byte	0x2c
 577 00c4 57000000 		.4byte	0x57
 578 00c8 05       		.uleb128 0x5
 579 00c9 BD000000 		.4byte	0xbd
 580 00cd 03       		.uleb128 0x3
 581 00ce 9D010000 		.4byte	.LASF17
 582 00d2 03       		.byte	0x3
 583 00d3 30       		.byte	0x30
 584 00d4 69000000 		.4byte	0x69
 585 00d8 03       		.uleb128 0x3
 586 00d9 25000000 		.4byte	.LASF18
 587 00dd 03       		.byte	0x3
 588 00de 3C       		.byte	0x3c
 589 00df 82000000 		.4byte	0x82
 590 00e3 03       		.uleb128 0x3
 591 00e4 AC020000 		.4byte	.LASF19
 592 00e8 04       		.byte	0x4
 593 00e9 99       		.byte	0x99
 594 00ea F3000000 		.4byte	0xf3
 595 00ee 05       		.uleb128 0x5
 596 00ef E3000000 		.4byte	0xe3
 597 00f3 06       		.uleb128 0x6
 598 00f4 AC020000 		.4byte	.LASF19
 599 00f8 20       		.byte	0x20
 600 00f9 04       		.byte	0x4
 601 00fa 0F01     		.2byte	0x10f
 602 00fc 83010000 		.4byte	0x183
 603 0100 07       		.uleb128 0x7
 604 0101 48010000 		.4byte	.LASF20
 605 0105 04       		.byte	0x4
 606 0106 1401     		.2byte	0x114
 607 0108 D8000000 		.4byte	0xd8
 608 010c 00       		.byte	0
 609 010d 07       		.uleb128 0x7
 610 010e 7C020000 		.4byte	.LASF21
 611 0112 04       		.byte	0x4
 612 0113 2801     		.2byte	0x128
 613 0115 DE010000 		.4byte	0x1de
 614 0119 08       		.byte	0x8
 615 011a 07       		.uleb128 0x7
 616 011b 65010000 		.4byte	.LASF22
 617 011f 04       		.byte	0x4
 618 0120 2D01     		.2byte	0x12d
 619 0122 D6010000 		.4byte	0x1d6
 620 0126 0C       		.byte	0xc
 621 0127 07       		.uleb128 0x7
 622 0128 3B010000 		.4byte	.LASF23
 623 012c 04       		.byte	0x4
 624 012d 2F01     		.2byte	0x12f
 625 012f DE010000 		.4byte	0x1de
 626 0133 10       		.byte	0x10
 627 0134 07       		.uleb128 0x7
ARM GAS  /tmp/ccSYaJyZ.s 			page 12


 628 0135 37030000 		.4byte	.LASF24
 629 0139 04       		.byte	0x4
 630 013a 3101     		.2byte	0x131
 631 013c B2000000 		.4byte	0xb2
 632 0140 14       		.byte	0x14
 633 0141 07       		.uleb128 0x7
 634 0142 0A000000 		.4byte	.LASF25
 635 0146 04       		.byte	0x4
 636 0147 3601     		.2byte	0x136
 637 0149 B2000000 		.4byte	0xb2
 638 014d 16       		.byte	0x16
 639 014e 07       		.uleb128 0x7
 640 014f 6E020000 		.4byte	.LASF26
 641 0153 04       		.byte	0x4
 642 0154 3701     		.2byte	0x137
 643 0156 A2000000 		.4byte	0xa2
 644 015a 18       		.byte	0x18
 645 015b 07       		.uleb128 0x7
 646 015c 43030000 		.4byte	.LASF27
 647 0160 04       		.byte	0x4
 648 0161 3801     		.2byte	0x138
 649 0163 A2000000 		.4byte	0xa2
 650 0167 19       		.byte	0x19
 651 0168 07       		.uleb128 0x7
 652 0169 1C000000 		.4byte	.LASF28
 653 016d 04       		.byte	0x4
 654 016e 3901     		.2byte	0x139
 655 0170 A2000000 		.4byte	0xa2
 656 0174 1A       		.byte	0x1a
 657 0175 07       		.uleb128 0x7
 658 0176 CE010000 		.4byte	.LASF29
 659 017a 04       		.byte	0x4
 660 017b 3A01     		.2byte	0x13a
 661 017d A2000000 		.4byte	0xa2
 662 0181 1B       		.byte	0x1b
 663 0182 00       		.byte	0
 664 0183 02       		.uleb128 0x2
 665 0184 01       		.byte	0x1
 666 0185 02       		.byte	0x2
 667 0186 60020000 		.4byte	.LASF30
 668 018a 02       		.uleb128 0x2
 669 018b 01       		.byte	0x1
 670 018c 08       		.byte	0x8
 671 018d 5B020000 		.4byte	.LASF31
 672 0191 08       		.uleb128 0x8
 673 0192 BC010000 		.4byte	.LASF32
 674 0196 04       		.byte	0x4
 675 0197 04       		.byte	0x4
 676 0198 D7       		.byte	0xd7
 677 0199 B6010000 		.4byte	0x1b6
 678 019d 09       		.uleb128 0x9
 679 019e 86030000 		.4byte	.LASF33
 680 01a2 04       		.byte	0x4
 681 01a3 D9       		.byte	0xd9
 682 01a4 B6010000 		.4byte	0x1b6
 683 01a8 00       		.byte	0
 684 01a9 09       		.uleb128 0x9
ARM GAS  /tmp/ccSYaJyZ.s 			page 13


 685 01aa 9E020000 		.4byte	.LASF34
 686 01ae 04       		.byte	0x4
 687 01af DA       		.byte	0xda
 688 01b0 BC010000 		.4byte	0x1bc
 689 01b4 04       		.byte	0x4
 690 01b5 00       		.byte	0
 691 01b6 0A       		.uleb128 0xa
 692 01b7 04       		.byte	0x4
 693 01b8 91010000 		.4byte	0x191
 694 01bc 0B       		.uleb128 0xb
 695 01bd A2000000 		.4byte	0xa2
 696 01c1 CB010000 		.4byte	0x1cb
 697 01c5 0C       		.uleb128 0xc
 698 01c6 9B000000 		.4byte	0x9b
 699 01ca 00       		.byte	0
 700 01cb 03       		.uleb128 0x3
 701 01cc BC010000 		.4byte	.LASF32
 702 01d0 04       		.byte	0x4
 703 01d1 DB       		.byte	0xdb
 704 01d2 91010000 		.4byte	0x191
 705 01d6 0A       		.uleb128 0xa
 706 01d7 04       		.byte	0x4
 707 01d8 CB010000 		.4byte	0x1cb
 708 01dc 0D       		.uleb128 0xd
 709 01dd 04       		.byte	0x4
 710 01de 0A       		.uleb128 0xa
 711 01df 04       		.byte	0x4
 712 01e0 AD000000 		.4byte	0xad
 713 01e4 0E       		.uleb128 0xe
 714 01e5 18       		.byte	0x18
 715 01e6 05       		.byte	0x5
 716 01e7 3A       		.byte	0x3a
 717 01e8 41020000 		.4byte	0x241
 718 01ec 09       		.uleb128 0x9
 719 01ed 23030000 		.4byte	.LASF35
 720 01f1 05       		.byte	0x5
 721 01f2 3D       		.byte	0x3d
 722 01f3 CD000000 		.4byte	0xcd
 723 01f7 00       		.byte	0
 724 01f8 09       		.uleb128 0x9
 725 01f9 1B010000 		.4byte	.LASF36
 726 01fd 05       		.byte	0x5
 727 01fe 3E       		.byte	0x3e
 728 01ff 41020000 		.4byte	0x241
 729 0203 04       		.byte	0x4
 730 0204 09       		.uleb128 0x9
 731 0205 2F030000 		.4byte	.LASF37
 732 0209 05       		.byte	0x5
 733 020a 3F       		.byte	0x3f
 734 020b 41020000 		.4byte	0x241
 735 020f 08       		.byte	0x8
 736 0210 09       		.uleb128 0x9
 737 0211 D9020000 		.4byte	.LASF38
 738 0215 05       		.byte	0x5
 739 0216 40       		.byte	0x40
 740 0217 41020000 		.4byte	0x241
 741 021b 0C       		.byte	0xc
ARM GAS  /tmp/ccSYaJyZ.s 			page 14


 742 021c 0F       		.uleb128 0xf
 743 021d 72706D00 		.ascii	"rpm\000"
 744 0221 05       		.byte	0x5
 745 0222 41       		.byte	0x41
 746 0223 BD000000 		.4byte	0xbd
 747 0227 10       		.byte	0x10
 748 0228 09       		.uleb128 0x9
 749 0229 12030000 		.4byte	.LASF39
 750 022d 05       		.byte	0x5
 751 022e 42       		.byte	0x42
 752 022f A2000000 		.4byte	0xa2
 753 0233 14       		.byte	0x14
 754 0234 09       		.uleb128 0x9
 755 0235 00000000 		.4byte	.LASF40
 756 0239 05       		.byte	0x5
 757 023a 43       		.byte	0x43
 758 023b A2000000 		.4byte	0xa2
 759 023f 15       		.byte	0x15
 760 0240 00       		.byte	0
 761 0241 02       		.uleb128 0x2
 762 0242 04       		.byte	0x4
 763 0243 04       		.byte	0x4
 764 0244 D0000000 		.4byte	.LASF41
 765 0248 03       		.uleb128 0x3
 766 0249 4F030000 		.4byte	.LASF42
 767 024d 05       		.byte	0x5
 768 024e 45       		.byte	0x45
 769 024f E4010000 		.4byte	0x1e4
 770 0253 10       		.uleb128 0x10
 771 0254 EF020000 		.4byte	.LASF47
 772 0258 01       		.byte	0x1
 773 0259 DC       		.byte	0xdc
 774 025a BD000000 		.4byte	0xbd
 775 025e 00000000 		.4byte	.LFB3
 776 0262 1E000000 		.4byte	.LFE3-.LFB3
 777 0266 01       		.uleb128 0x1
 778 0267 9C       		.byte	0x9c
 779 0268 F0020000 		.4byte	0x2f0
 780 026c 11       		.uleb128 0x11
 781 026d A3020000 		.4byte	.LASF43
 782 0271 01       		.byte	0x1
 783 0272 DC       		.byte	0xdc
 784 0273 F0020000 		.4byte	0x2f0
 785 0277 00000000 		.4byte	.LLST13
 786 027b 11       		.uleb128 0x11
 787 027c 37030000 		.4byte	.LASF24
 788 0280 01       		.byte	0x1
 789 0281 DD       		.byte	0xdd
 790 0282 B2000000 		.4byte	0xb2
 791 0286 21000000 		.4byte	.LLST14
 792 028a 11       		.uleb128 0x11
 793 028b 17000000 		.4byte	.LASF44
 794 028f 01       		.byte	0x1
 795 0290 DE       		.byte	0xde
 796 0291 F6020000 		.4byte	0x2f6
 797 0295 42000000 		.4byte	.LLST15
 798 0299 11       		.uleb128 0x11
ARM GAS  /tmp/ccSYaJyZ.s 			page 15


 799 029a 06010000 		.4byte	.LASF45
 800 029e 01       		.byte	0x1
 801 029f DF       		.byte	0xdf
 802 02a0 FC020000 		.4byte	0x2fc
 803 02a4 62000000 		.4byte	.LLST16
 804 02a8 12       		.uleb128 0x12
 805 02a9 23010000 		.4byte	.LASF46
 806 02ad 01       		.byte	0x1
 807 02ae E1       		.byte	0xe1
 808 02af C8000000 		.4byte	0xc8
 809 02b3 00       		.byte	0
 810 02b4 13       		.uleb128 0x13
 811 02b5 72657400 		.ascii	"ret\000"
 812 02b9 01       		.byte	0x1
 813 02ba E2       		.byte	0xe2
 814 02bb BD000000 		.4byte	0xbd
 815 02bf 83000000 		.4byte	.LLST17
 816 02c3 14       		.uleb128 0x14
 817 02c4 0A000000 		.4byte	.LBB2
 818 02c8 0A000000 		.4byte	.LBE2-.LBB2
 819 02cc DE020000 		.4byte	0x2de
 820 02d0 13       		.uleb128 0x13
 821 02d1 6300     		.ascii	"c\000"
 822 02d3 01       		.byte	0x1
 823 02d4 E5       		.byte	0xe5
 824 02d5 CD000000 		.4byte	0xcd
 825 02d9 A2000000 		.4byte	.LLST18
 826 02dd 00       		.byte	0
 827 02de 15       		.uleb128 0x15
 828 02df 1A000000 		.4byte	.LVL72
 829 02e3 08030000 		.4byte	0x308
 830 02e7 16       		.uleb128 0x16
 831 02e8 02       		.uleb128 0x2
 832 02e9 7D       		.byte	0x7d
 833 02ea 00       		.sleb128 0
 834 02eb 02       		.uleb128 0x2
 835 02ec 75       		.byte	0x75
 836 02ed 00       		.sleb128 0
 837 02ee 00       		.byte	0
 838 02ef 00       		.byte	0
 839 02f0 0A       		.uleb128 0xa
 840 02f1 04       		.byte	0x4
 841 02f2 EE000000 		.4byte	0xee
 842 02f6 0A       		.uleb128 0xa
 843 02f7 04       		.byte	0x4
 844 02f8 48020000 		.4byte	0x248
 845 02fc 0A       		.uleb128 0xa
 846 02fd 04       		.byte	0x4
 847 02fe 02030000 		.4byte	0x302
 848 0302 0A       		.uleb128 0xa
 849 0303 04       		.byte	0x4
 850 0304 A2000000 		.4byte	0xa2
 851 0308 10       		.uleb128 0x10
 852 0309 A4000000 		.4byte	.LASF48
 853 030d 01       		.byte	0x1
 854 030e 72       		.byte	0x72
 855 030f BD000000 		.4byte	0xbd
ARM GAS  /tmp/ccSYaJyZ.s 			page 16


 856 0313 00000000 		.4byte	.LFB2
 857 0317 F4000000 		.4byte	.LFE2-.LFB2
 858 031b 01       		.uleb128 0x1
 859 031c 9C       		.byte	0x9c
 860 031d E7040000 		.4byte	0x4e7
 861 0321 11       		.uleb128 0x11
 862 0322 A3020000 		.4byte	.LASF43
 863 0326 01       		.byte	0x1
 864 0327 73       		.byte	0x73
 865 0328 F0020000 		.4byte	0x2f0
 866 032c B6000000 		.4byte	.LLST7
 867 0330 11       		.uleb128 0x11
 868 0331 37030000 		.4byte	.LASF24
 869 0335 01       		.byte	0x1
 870 0336 74       		.byte	0x74
 871 0337 B2000000 		.4byte	0xb2
 872 033b D4000000 		.4byte	.LLST8
 873 033f 11       		.uleb128 0x11
 874 0340 17000000 		.4byte	.LASF44
 875 0344 01       		.byte	0x1
 876 0345 75       		.byte	0x75
 877 0346 F6020000 		.4byte	0x2f6
 878 034a F5000000 		.4byte	.LLST9
 879 034e 11       		.uleb128 0x11
 880 034f 06010000 		.4byte	.LASF45
 881 0353 01       		.byte	0x1
 882 0354 76       		.byte	0x76
 883 0355 FC020000 		.4byte	0x2fc
 884 0359 39010000 		.4byte	.LLST10
 885 035d 11       		.uleb128 0x11
 886 035e 23010000 		.4byte	.LASF46
 887 0362 01       		.byte	0x1
 888 0363 77       		.byte	0x77
 889 0364 BD000000 		.4byte	0xbd
 890 0368 5A010000 		.4byte	.LLST11
 891 036c 13       		.uleb128 0x13
 892 036d 72657400 		.ascii	"ret\000"
 893 0371 01       		.byte	0x1
 894 0372 79       		.byte	0x79
 895 0373 BD000000 		.4byte	0xbd
 896 0377 74020000 		.4byte	.LLST12
 897 037b 17       		.uleb128 0x17
 898 037c 89020000 		.4byte	.LASF49
 899 0380 01       		.byte	0x1
 900 0381 7B       		.byte	0x7b
 901 0382 B2000000 		.4byte	0xb2
 902 0386 02       		.uleb128 0x2
 903 0387 91       		.byte	0x91
 904 0388 66       		.sleb128 -26
 905 0389 18       		.uleb128 0x18
 906 038a 21020000 		.4byte	.LASF62
 907 038e 01       		.byte	0x1
 908 038f C7       		.byte	0xc7
 909 0390 20000000 		.4byte	.L9
 910 0394 19       		.uleb128 0x19
 911 0395 1A000000 		.4byte	.LVL31
 912 0399 D3060000 		.4byte	0x6d3
ARM GAS  /tmp/ccSYaJyZ.s 			page 17


 913 039d C2030000 		.4byte	0x3c2
 914 03a1 16       		.uleb128 0x16
 915 03a2 01       		.uleb128 0x1
 916 03a3 50       		.byte	0x50
 917 03a4 02       		.uleb128 0x2
 918 03a5 77       		.byte	0x77
 919 03a6 00       		.sleb128 0
 920 03a7 16       		.uleb128 0x16
 921 03a8 01       		.uleb128 0x1
 922 03a9 51       		.byte	0x51
 923 03aa 03       		.uleb128 0x3
 924 03ab 91       		.byte	0x91
 925 03ac 00       		.sleb128 0
 926 03ad 06       		.byte	0x6
 927 03ae 16       		.uleb128 0x16
 928 03af 01       		.uleb128 0x1
 929 03b0 52       		.byte	0x52
 930 03b1 02       		.uleb128 0x2
 931 03b2 08       		.byte	0x8
 932 03b3 20       		.byte	0x20
 933 03b4 16       		.uleb128 0x16
 934 03b5 01       		.uleb128 0x1
 935 03b6 53       		.byte	0x53
 936 03b7 02       		.uleb128 0x2
 937 03b8 75       		.byte	0x75
 938 03b9 00       		.sleb128 0
 939 03ba 16       		.uleb128 0x16
 940 03bb 02       		.uleb128 0x2
 941 03bc 7D       		.byte	0x7d
 942 03bd 00       		.sleb128 0
 943 03be 02       		.uleb128 0x2
 944 03bf 76       		.byte	0x76
 945 03c0 00       		.sleb128 0
 946 03c1 00       		.byte	0
 947 03c2 19       		.uleb128 0x19
 948 03c3 42000000 		.4byte	.LVL38
 949 03c7 D3060000 		.4byte	0x6d3
 950 03cb F1030000 		.4byte	0x3f1
 951 03cf 16       		.uleb128 0x16
 952 03d0 01       		.uleb128 0x1
 953 03d1 50       		.byte	0x50
 954 03d2 02       		.uleb128 0x2
 955 03d3 77       		.byte	0x77
 956 03d4 00       		.sleb128 0
 957 03d5 16       		.uleb128 0x16
 958 03d6 01       		.uleb128 0x1
 959 03d7 51       		.byte	0x51
 960 03d8 05       		.uleb128 0x5
 961 03d9 91       		.byte	0x91
 962 03da 00       		.sleb128 0
 963 03db 06       		.byte	0x6
 964 03dc 23       		.byte	0x23
 965 03dd 20       		.uleb128 0x20
 966 03de 16       		.uleb128 0x16
 967 03df 01       		.uleb128 0x1
 968 03e0 52       		.byte	0x52
 969 03e1 01       		.uleb128 0x1
ARM GAS  /tmp/ccSYaJyZ.s 			page 18


 970 03e2 40       		.byte	0x40
 971 03e3 16       		.uleb128 0x16
 972 03e4 01       		.uleb128 0x1
 973 03e5 53       		.byte	0x53
 974 03e6 02       		.uleb128 0x2
 975 03e7 75       		.byte	0x75
 976 03e8 00       		.sleb128 0
 977 03e9 16       		.uleb128 0x16
 978 03ea 02       		.uleb128 0x2
 979 03eb 7D       		.byte	0x7d
 980 03ec 00       		.sleb128 0
 981 03ed 02       		.uleb128 0x2
 982 03ee 91       		.byte	0x91
 983 03ef 66       		.sleb128 -26
 984 03f0 00       		.byte	0
 985 03f1 1A       		.uleb128 0x1a
 986 03f2 50000000 		.4byte	.LVL41
 987 03f6 DF060000 		.4byte	0x6df
 988 03fa 19       		.uleb128 0x19
 989 03fb 68000000 		.4byte	.LVL44
 990 03ff D3060000 		.4byte	0x6d3
 991 0403 23040000 		.4byte	0x423
 992 0407 16       		.uleb128 0x16
 993 0408 01       		.uleb128 0x1
 994 0409 50       		.byte	0x50
 995 040a 02       		.uleb128 0x2
 996 040b 77       		.byte	0x77
 997 040c 00       		.sleb128 0
 998 040d 16       		.uleb128 0x16
 999 040e 01       		.uleb128 0x1
 1000 040f 51       		.byte	0x51
 1001 0410 05       		.uleb128 0x5
 1002 0411 91       		.byte	0x91
 1003 0412 00       		.sleb128 0
 1004 0413 06       		.byte	0x6
 1005 0414 23       		.byte	0x23
 1006 0415 30       		.uleb128 0x30
 1007 0416 16       		.uleb128 0x16
 1008 0417 01       		.uleb128 0x1
 1009 0418 52       		.byte	0x52
 1010 0419 02       		.uleb128 0x2
 1011 041a 74       		.byte	0x74
 1012 041b 00       		.sleb128 0
 1013 041c 16       		.uleb128 0x16
 1014 041d 01       		.uleb128 0x1
 1015 041e 53       		.byte	0x53
 1016 041f 02       		.uleb128 0x2
 1017 0420 75       		.byte	0x75
 1018 0421 00       		.sleb128 0
 1019 0422 00       		.byte	0
 1020 0423 1A       		.uleb128 0x1a
 1021 0424 76000000 		.4byte	.LVL47
 1022 0428 DF060000 		.4byte	0x6df
 1023 042c 19       		.uleb128 0x19
 1024 042d 8E000000 		.4byte	.LVL50
 1025 0431 D3060000 		.4byte	0x6d3
 1026 0435 55040000 		.4byte	0x455
ARM GAS  /tmp/ccSYaJyZ.s 			page 19


 1027 0439 16       		.uleb128 0x16
 1028 043a 01       		.uleb128 0x1
 1029 043b 50       		.byte	0x50
 1030 043c 02       		.uleb128 0x2
 1031 043d 77       		.byte	0x77
 1032 043e 00       		.sleb128 0
 1033 043f 16       		.uleb128 0x16
 1034 0440 01       		.uleb128 0x1
 1035 0441 51       		.byte	0x51
 1036 0442 05       		.uleb128 0x5
 1037 0443 91       		.byte	0x91
 1038 0444 00       		.sleb128 0
 1039 0445 06       		.byte	0x6
 1040 0446 23       		.byte	0x23
 1041 0447 40       		.uleb128 0x40
 1042 0448 16       		.uleb128 0x16
 1043 0449 01       		.uleb128 0x1
 1044 044a 52       		.byte	0x52
 1045 044b 02       		.uleb128 0x2
 1046 044c 74       		.byte	0x74
 1047 044d 00       		.sleb128 0
 1048 044e 16       		.uleb128 0x16
 1049 044f 01       		.uleb128 0x1
 1050 0450 53       		.byte	0x53
 1051 0451 02       		.uleb128 0x2
 1052 0452 75       		.byte	0x75
 1053 0453 00       		.sleb128 0
 1054 0454 00       		.byte	0
 1055 0455 1A       		.uleb128 0x1a
 1056 0456 9C000000 		.4byte	.LVL53
 1057 045a DF060000 		.4byte	0x6df
 1058 045e 19       		.uleb128 0x19
 1059 045f B4000000 		.4byte	.LVL56
 1060 0463 D3060000 		.4byte	0x6d3
 1061 0467 8C040000 		.4byte	0x48c
 1062 046b 16       		.uleb128 0x16
 1063 046c 01       		.uleb128 0x1
 1064 046d 50       		.byte	0x50
 1065 046e 02       		.uleb128 0x2
 1066 046f 77       		.byte	0x77
 1067 0470 00       		.sleb128 0
 1068 0471 16       		.uleb128 0x16
 1069 0472 01       		.uleb128 0x1
 1070 0473 51       		.byte	0x51
 1071 0474 05       		.uleb128 0x5
 1072 0475 91       		.byte	0x91
 1073 0476 00       		.sleb128 0
 1074 0477 06       		.byte	0x6
 1075 0478 23       		.byte	0x23
 1076 0479 50       		.uleb128 0x50
 1077 047a 16       		.uleb128 0x16
 1078 047b 01       		.uleb128 0x1
 1079 047c 52       		.byte	0x52
 1080 047d 01       		.uleb128 0x1
 1081 047e 42       		.byte	0x42
 1082 047f 16       		.uleb128 0x16
 1083 0480 01       		.uleb128 0x1
ARM GAS  /tmp/ccSYaJyZ.s 			page 20


 1084 0481 53       		.byte	0x53
 1085 0482 01       		.uleb128 0x1
 1086 0483 31       		.byte	0x31
 1087 0484 16       		.uleb128 0x16
 1088 0485 02       		.uleb128 0x2
 1089 0486 7D       		.byte	0x7d
 1090 0487 00       		.sleb128 0
 1091 0488 02       		.uleb128 0x2
 1092 0489 76       		.byte	0x76
 1093 048a 10       		.sleb128 16
 1094 048b 00       		.byte	0
 1095 048c 19       		.uleb128 0x19
 1096 048d CE000000 		.4byte	.LVL61
 1097 0491 D3060000 		.4byte	0x6d3
 1098 0495 BB040000 		.4byte	0x4bb
 1099 0499 16       		.uleb128 0x16
 1100 049a 01       		.uleb128 0x1
 1101 049b 50       		.byte	0x50
 1102 049c 02       		.uleb128 0x2
 1103 049d 77       		.byte	0x77
 1104 049e 00       		.sleb128 0
 1105 049f 16       		.uleb128 0x16
 1106 04a0 01       		.uleb128 0x1
 1107 04a1 51       		.byte	0x51
 1108 04a2 05       		.uleb128 0x5
 1109 04a3 91       		.byte	0x91
 1110 04a4 00       		.sleb128 0
 1111 04a5 06       		.byte	0x6
 1112 04a6 23       		.byte	0x23
 1113 04a7 62       		.uleb128 0x62
 1114 04a8 16       		.uleb128 0x16
 1115 04a9 01       		.uleb128 0x1
 1116 04aa 52       		.byte	0x52
 1117 04ab 01       		.uleb128 0x1
 1118 04ac 37       		.byte	0x37
 1119 04ad 16       		.uleb128 0x16
 1120 04ae 01       		.uleb128 0x1
 1121 04af 53       		.byte	0x53
 1122 04b0 02       		.uleb128 0x2
 1123 04b1 75       		.byte	0x75
 1124 04b2 00       		.sleb128 0
 1125 04b3 16       		.uleb128 0x16
 1126 04b4 02       		.uleb128 0x2
 1127 04b5 7D       		.byte	0x7d
 1128 04b6 00       		.sleb128 0
 1129 04b7 02       		.uleb128 0x2
 1130 04b8 76       		.byte	0x76
 1131 04b9 14       		.sleb128 20
 1132 04ba 00       		.byte	0
 1133 04bb 15       		.uleb128 0x15
 1134 04bc E6000000 		.4byte	.LVL67
 1135 04c0 D3060000 		.4byte	0x6d3
 1136 04c4 16       		.uleb128 0x16
 1137 04c5 01       		.uleb128 0x1
 1138 04c6 50       		.byte	0x50
 1139 04c7 02       		.uleb128 0x2
 1140 04c8 77       		.byte	0x77
ARM GAS  /tmp/ccSYaJyZ.s 			page 21


 1141 04c9 00       		.sleb128 0
 1142 04ca 16       		.uleb128 0x16
 1143 04cb 01       		.uleb128 0x1
 1144 04cc 51       		.byte	0x51
 1145 04cd 05       		.uleb128 0x5
 1146 04ce 91       		.byte	0x91
 1147 04cf 00       		.sleb128 0
 1148 04d0 06       		.byte	0x6
 1149 04d1 23       		.byte	0x23
 1150 04d2 69       		.uleb128 0x69
 1151 04d3 16       		.uleb128 0x16
 1152 04d4 01       		.uleb128 0x1
 1153 04d5 52       		.byte	0x52
 1154 04d6 01       		.uleb128 0x1
 1155 04d7 35       		.byte	0x35
 1156 04d8 16       		.uleb128 0x16
 1157 04d9 01       		.uleb128 0x1
 1158 04da 53       		.byte	0x53
 1159 04db 02       		.uleb128 0x2
 1160 04dc 75       		.byte	0x75
 1161 04dd 00       		.sleb128 0
 1162 04de 16       		.uleb128 0x16
 1163 04df 02       		.uleb128 0x2
 1164 04e0 7D       		.byte	0x7d
 1165 04e1 00       		.sleb128 0
 1166 04e2 02       		.uleb128 0x2
 1167 04e3 76       		.byte	0x76
 1168 04e4 00       		.sleb128 0
 1169 04e5 00       		.byte	0
 1170 04e6 00       		.byte	0
 1171 04e7 10       		.uleb128 0x10
 1172 04e8 AF040000 		.4byte	.LASF50
 1173 04ec 01       		.byte	0x1
 1174 04ed 5E       		.byte	0x5e
 1175 04ee CD000000 		.4byte	0xcd
 1176 04f2 00000000 		.4byte	.LFB1
 1177 04f6 10000000 		.4byte	.LFE1-.LFB1
 1178 04fa 01       		.uleb128 0x1
 1179 04fb 9C       		.byte	0x9c
 1180 04fc 50050000 		.4byte	0x550
 1181 0500 11       		.uleb128 0x11
 1182 0501 34010000 		.4byte	.LASF51
 1183 0505 01       		.byte	0x1
 1184 0506 5E       		.byte	0x5e
 1185 0507 F6020000 		.4byte	0x2f6
 1186 050b 22030000 		.4byte	.LLST4
 1187 050f 11       		.uleb128 0x11
 1188 0510 7E030000 		.4byte	.LASF52
 1189 0514 01       		.byte	0x1
 1190 0515 5E       		.byte	0x5e
 1191 0516 DC010000 		.4byte	0x1dc
 1192 051a 43030000 		.4byte	.LLST5
 1193 051e 1B       		.uleb128 0x1b
 1194 051f 23010000 		.4byte	.LASF46
 1195 0523 01       		.byte	0x1
 1196 0524 60       		.byte	0x60
 1197 0525 CD000000 		.4byte	0xcd
ARM GAS  /tmp/ccSYaJyZ.s 			page 22


 1198 0529 64030000 		.4byte	.LLST6
 1199 052d 15       		.uleb128 0x15
 1200 052e 0A000000 		.4byte	.LVL24
 1201 0532 50050000 		.4byte	0x550
 1202 0536 16       		.uleb128 0x16
 1203 0537 01       		.uleb128 0x1
 1204 0538 50       		.byte	0x50
 1205 0539 03       		.uleb128 0x3
 1206 053a F3       		.byte	0xf3
 1207 053b 01       		.uleb128 0x1
 1208 053c 50       		.byte	0x50
 1209 053d 16       		.uleb128 0x16
 1210 053e 01       		.uleb128 0x1
 1211 053f 51       		.byte	0x51
 1212 0540 03       		.uleb128 0x3
 1213 0541 F3       		.byte	0xf3
 1214 0542 01       		.uleb128 0x1
 1215 0543 51       		.byte	0x51
 1216 0544 16       		.uleb128 0x16
 1217 0545 01       		.uleb128 0x1
 1218 0546 52       		.byte	0x52
 1219 0547 01       		.uleb128 0x1
 1220 0548 30       		.byte	0x30
 1221 0549 16       		.uleb128 0x16
 1222 054a 01       		.uleb128 0x1
 1223 054b 53       		.byte	0x53
 1224 054c 01       		.uleb128 0x1
 1225 054d 31       		.byte	0x31
 1226 054e 00       		.byte	0
 1227 054f 00       		.byte	0
 1228 0550 10       		.uleb128 0x10
 1229 0551 65000000 		.4byte	.LASF53
 1230 0555 01       		.byte	0x1
 1231 0556 21       		.byte	0x21
 1232 0557 CD000000 		.4byte	0xcd
 1233 055b 00000000 		.4byte	.LFB0
 1234 055f D4000000 		.4byte	.LFE0-.LFB0
 1235 0563 01       		.uleb128 0x1
 1236 0564 9C       		.byte	0x9c
 1237 0565 D3060000 		.4byte	0x6d3
 1238 0569 11       		.uleb128 0x11
 1239 056a 34010000 		.4byte	.LASF51
 1240 056e 01       		.byte	0x1
 1241 056f 21       		.byte	0x21
 1242 0570 F6020000 		.4byte	0x2f6
 1243 0574 90030000 		.4byte	.LLST0
 1244 0578 11       		.uleb128 0x11
 1245 0579 7E030000 		.4byte	.LASF52
 1246 057d 01       		.byte	0x1
 1247 057e 22       		.byte	0x22
 1248 057f DC010000 		.4byte	0x1dc
 1249 0583 C7030000 		.4byte	.LLST1
 1250 0587 11       		.uleb128 0x11
 1251 0588 23010000 		.4byte	.LASF46
 1252 058c 01       		.byte	0x1
 1253 058d 23       		.byte	0x23
 1254 058e CD000000 		.4byte	0xcd
ARM GAS  /tmp/ccSYaJyZ.s 			page 23


 1255 0592 F3030000 		.4byte	.LLST2
 1256 0596 11       		.uleb128 0x11
 1257 0597 CF020000 		.4byte	.LASF54
 1258 059b 01       		.byte	0x1
 1259 059c 24       		.byte	0x24
 1260 059d A2000000 		.4byte	0xa2
 1261 05a1 1B050000 		.4byte	.LLST3
 1262 05a5 17       		.uleb128 0x17
 1263 05a6 89020000 		.4byte	.LASF49
 1264 05aa 01       		.byte	0x1
 1265 05ab 27       		.byte	0x27
 1266 05ac B2000000 		.4byte	0xb2
 1267 05b0 02       		.uleb128 0x2
 1268 05b1 91       		.byte	0x91
 1269 05b2 66       		.sleb128 -26
 1270 05b3 19       		.uleb128 0x19
 1271 05b4 1C000000 		.4byte	.LVL5
 1272 05b8 EB060000 		.4byte	0x6eb
 1273 05bc D9050000 		.4byte	0x5d9
 1274 05c0 16       		.uleb128 0x16
 1275 05c1 01       		.uleb128 0x1
 1276 05c2 50       		.byte	0x50
 1277 05c3 02       		.uleb128 0x2
 1278 05c4 76       		.byte	0x76
 1279 05c5 00       		.sleb128 0
 1280 05c6 16       		.uleb128 0x16
 1281 05c7 01       		.uleb128 0x1
 1282 05c8 51       		.byte	0x51
 1283 05c9 02       		.uleb128 0x2
 1284 05ca 75       		.byte	0x75
 1285 05cb 00       		.sleb128 0
 1286 05cc 16       		.uleb128 0x16
 1287 05cd 01       		.uleb128 0x1
 1288 05ce 52       		.byte	0x52
 1289 05cf 02       		.uleb128 0x2
 1290 05d0 08       		.byte	0x8
 1291 05d1 20       		.byte	0x20
 1292 05d2 16       		.uleb128 0x16
 1293 05d3 01       		.uleb128 0x1
 1294 05d4 53       		.byte	0x53
 1295 05d5 02       		.uleb128 0x2
 1296 05d6 74       		.byte	0x74
 1297 05d7 00       		.sleb128 0
 1298 05d8 00       		.byte	0
 1299 05d9 1A       		.uleb128 0x1a
 1300 05da 24000000 		.4byte	.LVL6
 1301 05de F7060000 		.4byte	0x6f7
 1302 05e2 19       		.uleb128 0x19
 1303 05e3 38000000 		.4byte	.LVL8
 1304 05e7 EB060000 		.4byte	0x6eb
 1305 05eb 07060000 		.4byte	0x607
 1306 05ef 16       		.uleb128 0x16
 1307 05f0 01       		.uleb128 0x1
 1308 05f1 50       		.byte	0x50
 1309 05f2 02       		.uleb128 0x2
 1310 05f3 76       		.byte	0x76
 1311 05f4 00       		.sleb128 0
ARM GAS  /tmp/ccSYaJyZ.s 			page 24


 1312 05f5 16       		.uleb128 0x16
 1313 05f6 01       		.uleb128 0x1
 1314 05f7 51       		.byte	0x51
 1315 05f8 02       		.uleb128 0x2
 1316 05f9 75       		.byte	0x75
 1317 05fa 20       		.sleb128 32
 1318 05fb 16       		.uleb128 0x16
 1319 05fc 01       		.uleb128 0x1
 1320 05fd 52       		.byte	0x52
 1321 05fe 01       		.uleb128 0x1
 1322 05ff 40       		.byte	0x40
 1323 0600 16       		.uleb128 0x16
 1324 0601 01       		.uleb128 0x1
 1325 0602 53       		.byte	0x53
 1326 0603 02       		.uleb128 0x2
 1327 0604 77       		.byte	0x77
 1328 0605 00       		.sleb128 0
 1329 0606 00       		.byte	0
 1330 0607 1A       		.uleb128 0x1a
 1331 0608 40000000 		.4byte	.LVL9
 1332 060c F7060000 		.4byte	0x6f7
 1333 0610 19       		.uleb128 0x19
 1334 0611 52000000 		.4byte	.LVL11
 1335 0615 EB060000 		.4byte	0x6eb
 1336 0619 35060000 		.4byte	0x635
 1337 061d 16       		.uleb128 0x16
 1338 061e 01       		.uleb128 0x1
 1339 061f 50       		.byte	0x50
 1340 0620 02       		.uleb128 0x2
 1341 0621 76       		.byte	0x76
 1342 0622 00       		.sleb128 0
 1343 0623 16       		.uleb128 0x16
 1344 0624 01       		.uleb128 0x1
 1345 0625 51       		.byte	0x51
 1346 0626 02       		.uleb128 0x2
 1347 0627 75       		.byte	0x75
 1348 0628 30       		.sleb128 48
 1349 0629 16       		.uleb128 0x16
 1350 062a 01       		.uleb128 0x1
 1351 062b 52       		.byte	0x52
 1352 062c 01       		.uleb128 0x1
 1353 062d 40       		.byte	0x40
 1354 062e 16       		.uleb128 0x16
 1355 062f 01       		.uleb128 0x1
 1356 0630 53       		.byte	0x53
 1357 0631 02       		.uleb128 0x2
 1358 0632 77       		.byte	0x77
 1359 0633 00       		.sleb128 0
 1360 0634 00       		.byte	0
 1361 0635 1A       		.uleb128 0x1a
 1362 0636 5A000000 		.4byte	.LVL12
 1363 063a F7060000 		.4byte	0x6f7
 1364 063e 19       		.uleb128 0x19
 1365 063f 6C000000 		.4byte	.LVL14
 1366 0643 EB060000 		.4byte	0x6eb
 1367 0647 64060000 		.4byte	0x664
 1368 064b 16       		.uleb128 0x16
ARM GAS  /tmp/ccSYaJyZ.s 			page 25


 1369 064c 01       		.uleb128 0x1
 1370 064d 50       		.byte	0x50
 1371 064e 02       		.uleb128 0x2
 1372 064f 76       		.byte	0x76
 1373 0650 00       		.sleb128 0
 1374 0651 16       		.uleb128 0x16
 1375 0652 01       		.uleb128 0x1
 1376 0653 51       		.byte	0x51
 1377 0654 03       		.uleb128 0x3
 1378 0655 75       		.byte	0x75
 1379 0656 C000     		.sleb128 64
 1380 0658 16       		.uleb128 0x16
 1381 0659 01       		.uleb128 0x1
 1382 065a 52       		.byte	0x52
 1383 065b 01       		.uleb128 0x1
 1384 065c 40       		.byte	0x40
 1385 065d 16       		.uleb128 0x16
 1386 065e 01       		.uleb128 0x1
 1387 065f 53       		.byte	0x53
 1388 0660 02       		.uleb128 0x2
 1389 0661 77       		.byte	0x77
 1390 0662 00       		.sleb128 0
 1391 0663 00       		.byte	0
 1392 0664 19       		.uleb128 0x19
 1393 0665 90000000 		.4byte	.LVL16
 1394 0669 EB060000 		.4byte	0x6eb
 1395 066d 8A060000 		.4byte	0x68a
 1396 0671 16       		.uleb128 0x16
 1397 0672 01       		.uleb128 0x1
 1398 0673 50       		.byte	0x50
 1399 0674 02       		.uleb128 0x2
 1400 0675 76       		.byte	0x76
 1401 0676 00       		.sleb128 0
 1402 0677 16       		.uleb128 0x16
 1403 0678 01       		.uleb128 0x1
 1404 0679 51       		.byte	0x51
 1405 067a 03       		.uleb128 0x3
 1406 067b 75       		.byte	0x75
 1407 067c D000     		.sleb128 80
 1408 067e 16       		.uleb128 0x16
 1409 067f 01       		.uleb128 0x1
 1410 0680 52       		.byte	0x52
 1411 0681 01       		.uleb128 0x1
 1412 0682 42       		.byte	0x42
 1413 0683 16       		.uleb128 0x16
 1414 0684 01       		.uleb128 0x1
 1415 0685 53       		.byte	0x53
 1416 0686 02       		.uleb128 0x2
 1417 0687 74       		.byte	0x74
 1418 0688 10       		.sleb128 16
 1419 0689 00       		.byte	0
 1420 068a 19       		.uleb128 0x19
 1421 068b AA000000 		.4byte	.LVL18
 1422 068f EB060000 		.4byte	0x6eb
 1423 0693 B0060000 		.4byte	0x6b0
 1424 0697 16       		.uleb128 0x16
 1425 0698 01       		.uleb128 0x1
ARM GAS  /tmp/ccSYaJyZ.s 			page 26


 1426 0699 50       		.byte	0x50
 1427 069a 02       		.uleb128 0x2
 1428 069b 76       		.byte	0x76
 1429 069c 00       		.sleb128 0
 1430 069d 16       		.uleb128 0x16
 1431 069e 01       		.uleb128 0x1
 1432 069f 51       		.byte	0x51
 1433 06a0 03       		.uleb128 0x3
 1434 06a1 75       		.byte	0x75
 1435 06a2 E200     		.sleb128 98
 1436 06a4 16       		.uleb128 0x16
 1437 06a5 01       		.uleb128 0x1
 1438 06a6 52       		.byte	0x52
 1439 06a7 01       		.uleb128 0x1
 1440 06a8 37       		.byte	0x37
 1441 06a9 16       		.uleb128 0x16
 1442 06aa 01       		.uleb128 0x1
 1443 06ab 53       		.byte	0x53
 1444 06ac 02       		.uleb128 0x2
 1445 06ad 74       		.byte	0x74
 1446 06ae 14       		.sleb128 20
 1447 06af 00       		.byte	0
 1448 06b0 15       		.uleb128 0x15
 1449 06b1 C4000000 		.4byte	.LVL20
 1450 06b5 EB060000 		.4byte	0x6eb
 1451 06b9 16       		.uleb128 0x16
 1452 06ba 01       		.uleb128 0x1
 1453 06bb 50       		.byte	0x50
 1454 06bc 02       		.uleb128 0x2
 1455 06bd 76       		.byte	0x76
 1456 06be 00       		.sleb128 0
 1457 06bf 16       		.uleb128 0x16
 1458 06c0 01       		.uleb128 0x1
 1459 06c1 51       		.byte	0x51
 1460 06c2 03       		.uleb128 0x3
 1461 06c3 75       		.byte	0x75
 1462 06c4 E900     		.sleb128 105
 1463 06c6 16       		.uleb128 0x16
 1464 06c7 01       		.uleb128 0x1
 1465 06c8 52       		.byte	0x52
 1466 06c9 01       		.uleb128 0x1
 1467 06ca 35       		.byte	0x35
 1468 06cb 16       		.uleb128 0x16
 1469 06cc 01       		.uleb128 0x1
 1470 06cd 53       		.byte	0x53
 1471 06ce 02       		.uleb128 0x2
 1472 06cf 74       		.byte	0x74
 1473 06d0 15       		.sleb128 21
 1474 06d1 00       		.byte	0
 1475 06d2 00       		.byte	0
 1476 06d3 1C       		.uleb128 0x1c
 1477 06d4 6B030000 		.4byte	.LASF55
 1478 06d8 6B030000 		.4byte	.LASF55
 1479 06dc 04       		.byte	0x4
 1480 06dd CD01     		.2byte	0x1cd
 1481 06df 1C       		.uleb128 0x1c
 1482 06e0 E4000000 		.4byte	.LASF56
ARM GAS  /tmp/ccSYaJyZ.s 			page 27


 1483 06e4 E4000000 		.4byte	.LASF56
 1484 06e8 04       		.byte	0x4
 1485 06e9 0902     		.2byte	0x209
 1486 06eb 1C       		.uleb128 0x1c
 1487 06ec 48020000 		.4byte	.LASF57
 1488 06f0 48020000 		.4byte	.LASF57
 1489 06f4 04       		.byte	0x4
 1490 06f5 E701     		.2byte	0x1e7
 1491 06f7 1C       		.uleb128 0x1c
 1492 06f8 38000000 		.4byte	.LASF58
 1493 06fc 38000000 		.4byte	.LASF58
 1494 0700 04       		.byte	0x4
 1495 0701 0802     		.2byte	0x208
 1496 0703 00       		.byte	0
 1497              		.section	.debug_abbrev,"",%progbits
 1498              	.Ldebug_abbrev0:
 1499 0000 01       		.uleb128 0x1
 1500 0001 11       		.uleb128 0x11
 1501 0002 01       		.byte	0x1
 1502 0003 25       		.uleb128 0x25
 1503 0004 0E       		.uleb128 0xe
 1504 0005 13       		.uleb128 0x13
 1505 0006 0B       		.uleb128 0xb
 1506 0007 03       		.uleb128 0x3
 1507 0008 0E       		.uleb128 0xe
 1508 0009 1B       		.uleb128 0x1b
 1509 000a 0E       		.uleb128 0xe
 1510 000b 55       		.uleb128 0x55
 1511 000c 17       		.uleb128 0x17
 1512 000d 11       		.uleb128 0x11
 1513 000e 01       		.uleb128 0x1
 1514 000f 10       		.uleb128 0x10
 1515 0010 17       		.uleb128 0x17
 1516 0011 00       		.byte	0
 1517 0012 00       		.byte	0
 1518 0013 02       		.uleb128 0x2
 1519 0014 24       		.uleb128 0x24
 1520 0015 00       		.byte	0
 1521 0016 0B       		.uleb128 0xb
 1522 0017 0B       		.uleb128 0xb
 1523 0018 3E       		.uleb128 0x3e
 1524 0019 0B       		.uleb128 0xb
 1525 001a 03       		.uleb128 0x3
 1526 001b 0E       		.uleb128 0xe
 1527 001c 00       		.byte	0
 1528 001d 00       		.byte	0
 1529 001e 03       		.uleb128 0x3
 1530 001f 16       		.uleb128 0x16
 1531 0020 00       		.byte	0
 1532 0021 03       		.uleb128 0x3
 1533 0022 0E       		.uleb128 0xe
 1534 0023 3A       		.uleb128 0x3a
 1535 0024 0B       		.uleb128 0xb
 1536 0025 3B       		.uleb128 0x3b
 1537 0026 0B       		.uleb128 0xb
 1538 0027 49       		.uleb128 0x49
 1539 0028 13       		.uleb128 0x13
ARM GAS  /tmp/ccSYaJyZ.s 			page 28


 1540 0029 00       		.byte	0
 1541 002a 00       		.byte	0
 1542 002b 04       		.uleb128 0x4
 1543 002c 24       		.uleb128 0x24
 1544 002d 00       		.byte	0
 1545 002e 0B       		.uleb128 0xb
 1546 002f 0B       		.uleb128 0xb
 1547 0030 3E       		.uleb128 0x3e
 1548 0031 0B       		.uleb128 0xb
 1549 0032 03       		.uleb128 0x3
 1550 0033 08       		.uleb128 0x8
 1551 0034 00       		.byte	0
 1552 0035 00       		.byte	0
 1553 0036 05       		.uleb128 0x5
 1554 0037 26       		.uleb128 0x26
 1555 0038 00       		.byte	0
 1556 0039 49       		.uleb128 0x49
 1557 003a 13       		.uleb128 0x13
 1558 003b 00       		.byte	0
 1559 003c 00       		.byte	0
 1560 003d 06       		.uleb128 0x6
 1561 003e 13       		.uleb128 0x13
 1562 003f 01       		.byte	0x1
 1563 0040 03       		.uleb128 0x3
 1564 0041 0E       		.uleb128 0xe
 1565 0042 0B       		.uleb128 0xb
 1566 0043 0B       		.uleb128 0xb
 1567 0044 3A       		.uleb128 0x3a
 1568 0045 0B       		.uleb128 0xb
 1569 0046 3B       		.uleb128 0x3b
 1570 0047 05       		.uleb128 0x5
 1571 0048 01       		.uleb128 0x1
 1572 0049 13       		.uleb128 0x13
 1573 004a 00       		.byte	0
 1574 004b 00       		.byte	0
 1575 004c 07       		.uleb128 0x7
 1576 004d 0D       		.uleb128 0xd
 1577 004e 00       		.byte	0
 1578 004f 03       		.uleb128 0x3
 1579 0050 0E       		.uleb128 0xe
 1580 0051 3A       		.uleb128 0x3a
 1581 0052 0B       		.uleb128 0xb
 1582 0053 3B       		.uleb128 0x3b
 1583 0054 05       		.uleb128 0x5
 1584 0055 49       		.uleb128 0x49
 1585 0056 13       		.uleb128 0x13
 1586 0057 38       		.uleb128 0x38
 1587 0058 0B       		.uleb128 0xb
 1588 0059 00       		.byte	0
 1589 005a 00       		.byte	0
 1590 005b 08       		.uleb128 0x8
 1591 005c 13       		.uleb128 0x13
 1592 005d 01       		.byte	0x1
 1593 005e 03       		.uleb128 0x3
 1594 005f 0E       		.uleb128 0xe
 1595 0060 0B       		.uleb128 0xb
 1596 0061 0B       		.uleb128 0xb
ARM GAS  /tmp/ccSYaJyZ.s 			page 29


 1597 0062 3A       		.uleb128 0x3a
 1598 0063 0B       		.uleb128 0xb
 1599 0064 3B       		.uleb128 0x3b
 1600 0065 0B       		.uleb128 0xb
 1601 0066 01       		.uleb128 0x1
 1602 0067 13       		.uleb128 0x13
 1603 0068 00       		.byte	0
 1604 0069 00       		.byte	0
 1605 006a 09       		.uleb128 0x9
 1606 006b 0D       		.uleb128 0xd
 1607 006c 00       		.byte	0
 1608 006d 03       		.uleb128 0x3
 1609 006e 0E       		.uleb128 0xe
 1610 006f 3A       		.uleb128 0x3a
 1611 0070 0B       		.uleb128 0xb
 1612 0071 3B       		.uleb128 0x3b
 1613 0072 0B       		.uleb128 0xb
 1614 0073 49       		.uleb128 0x49
 1615 0074 13       		.uleb128 0x13
 1616 0075 38       		.uleb128 0x38
 1617 0076 0B       		.uleb128 0xb
 1618 0077 00       		.byte	0
 1619 0078 00       		.byte	0
 1620 0079 0A       		.uleb128 0xa
 1621 007a 0F       		.uleb128 0xf
 1622 007b 00       		.byte	0
 1623 007c 0B       		.uleb128 0xb
 1624 007d 0B       		.uleb128 0xb
 1625 007e 49       		.uleb128 0x49
 1626 007f 13       		.uleb128 0x13
 1627 0080 00       		.byte	0
 1628 0081 00       		.byte	0
 1629 0082 0B       		.uleb128 0xb
 1630 0083 01       		.uleb128 0x1
 1631 0084 01       		.byte	0x1
 1632 0085 49       		.uleb128 0x49
 1633 0086 13       		.uleb128 0x13
 1634 0087 01       		.uleb128 0x1
 1635 0088 13       		.uleb128 0x13
 1636 0089 00       		.byte	0
 1637 008a 00       		.byte	0
 1638 008b 0C       		.uleb128 0xc
 1639 008c 21       		.uleb128 0x21
 1640 008d 00       		.byte	0
 1641 008e 49       		.uleb128 0x49
 1642 008f 13       		.uleb128 0x13
 1643 0090 00       		.byte	0
 1644 0091 00       		.byte	0
 1645 0092 0D       		.uleb128 0xd
 1646 0093 0F       		.uleb128 0xf
 1647 0094 00       		.byte	0
 1648 0095 0B       		.uleb128 0xb
 1649 0096 0B       		.uleb128 0xb
 1650 0097 00       		.byte	0
 1651 0098 00       		.byte	0
 1652 0099 0E       		.uleb128 0xe
 1653 009a 13       		.uleb128 0x13
ARM GAS  /tmp/ccSYaJyZ.s 			page 30


 1654 009b 01       		.byte	0x1
 1655 009c 0B       		.uleb128 0xb
 1656 009d 0B       		.uleb128 0xb
 1657 009e 3A       		.uleb128 0x3a
 1658 009f 0B       		.uleb128 0xb
 1659 00a0 3B       		.uleb128 0x3b
 1660 00a1 0B       		.uleb128 0xb
 1661 00a2 01       		.uleb128 0x1
 1662 00a3 13       		.uleb128 0x13
 1663 00a4 00       		.byte	0
 1664 00a5 00       		.byte	0
 1665 00a6 0F       		.uleb128 0xf
 1666 00a7 0D       		.uleb128 0xd
 1667 00a8 00       		.byte	0
 1668 00a9 03       		.uleb128 0x3
 1669 00aa 08       		.uleb128 0x8
 1670 00ab 3A       		.uleb128 0x3a
 1671 00ac 0B       		.uleb128 0xb
 1672 00ad 3B       		.uleb128 0x3b
 1673 00ae 0B       		.uleb128 0xb
 1674 00af 49       		.uleb128 0x49
 1675 00b0 13       		.uleb128 0x13
 1676 00b1 38       		.uleb128 0x38
 1677 00b2 0B       		.uleb128 0xb
 1678 00b3 00       		.byte	0
 1679 00b4 00       		.byte	0
 1680 00b5 10       		.uleb128 0x10
 1681 00b6 2E       		.uleb128 0x2e
 1682 00b7 01       		.byte	0x1
 1683 00b8 3F       		.uleb128 0x3f
 1684 00b9 19       		.uleb128 0x19
 1685 00ba 03       		.uleb128 0x3
 1686 00bb 0E       		.uleb128 0xe
 1687 00bc 3A       		.uleb128 0x3a
 1688 00bd 0B       		.uleb128 0xb
 1689 00be 3B       		.uleb128 0x3b
 1690 00bf 0B       		.uleb128 0xb
 1691 00c0 27       		.uleb128 0x27
 1692 00c1 19       		.uleb128 0x19
 1693 00c2 49       		.uleb128 0x49
 1694 00c3 13       		.uleb128 0x13
 1695 00c4 11       		.uleb128 0x11
 1696 00c5 01       		.uleb128 0x1
 1697 00c6 12       		.uleb128 0x12
 1698 00c7 06       		.uleb128 0x6
 1699 00c8 40       		.uleb128 0x40
 1700 00c9 18       		.uleb128 0x18
 1701 00ca 9742     		.uleb128 0x2117
 1702 00cc 19       		.uleb128 0x19
 1703 00cd 01       		.uleb128 0x1
 1704 00ce 13       		.uleb128 0x13
 1705 00cf 00       		.byte	0
 1706 00d0 00       		.byte	0
 1707 00d1 11       		.uleb128 0x11
 1708 00d2 05       		.uleb128 0x5
 1709 00d3 00       		.byte	0
 1710 00d4 03       		.uleb128 0x3
ARM GAS  /tmp/ccSYaJyZ.s 			page 31


 1711 00d5 0E       		.uleb128 0xe
 1712 00d6 3A       		.uleb128 0x3a
 1713 00d7 0B       		.uleb128 0xb
 1714 00d8 3B       		.uleb128 0x3b
 1715 00d9 0B       		.uleb128 0xb
 1716 00da 49       		.uleb128 0x49
 1717 00db 13       		.uleb128 0x13
 1718 00dc 02       		.uleb128 0x2
 1719 00dd 17       		.uleb128 0x17
 1720 00de 00       		.byte	0
 1721 00df 00       		.byte	0
 1722 00e0 12       		.uleb128 0x12
 1723 00e1 34       		.uleb128 0x34
 1724 00e2 00       		.byte	0
 1725 00e3 03       		.uleb128 0x3
 1726 00e4 0E       		.uleb128 0xe
 1727 00e5 3A       		.uleb128 0x3a
 1728 00e6 0B       		.uleb128 0xb
 1729 00e7 3B       		.uleb128 0x3b
 1730 00e8 0B       		.uleb128 0xb
 1731 00e9 49       		.uleb128 0x49
 1732 00ea 13       		.uleb128 0x13
 1733 00eb 1C       		.uleb128 0x1c
 1734 00ec 0B       		.uleb128 0xb
 1735 00ed 00       		.byte	0
 1736 00ee 00       		.byte	0
 1737 00ef 13       		.uleb128 0x13
 1738 00f0 34       		.uleb128 0x34
 1739 00f1 00       		.byte	0
 1740 00f2 03       		.uleb128 0x3
 1741 00f3 08       		.uleb128 0x8
 1742 00f4 3A       		.uleb128 0x3a
 1743 00f5 0B       		.uleb128 0xb
 1744 00f6 3B       		.uleb128 0x3b
 1745 00f7 0B       		.uleb128 0xb
 1746 00f8 49       		.uleb128 0x49
 1747 00f9 13       		.uleb128 0x13
 1748 00fa 02       		.uleb128 0x2
 1749 00fb 17       		.uleb128 0x17
 1750 00fc 00       		.byte	0
 1751 00fd 00       		.byte	0
 1752 00fe 14       		.uleb128 0x14
 1753 00ff 0B       		.uleb128 0xb
 1754 0100 01       		.byte	0x1
 1755 0101 11       		.uleb128 0x11
 1756 0102 01       		.uleb128 0x1
 1757 0103 12       		.uleb128 0x12
 1758 0104 06       		.uleb128 0x6
 1759 0105 01       		.uleb128 0x1
 1760 0106 13       		.uleb128 0x13
 1761 0107 00       		.byte	0
 1762 0108 00       		.byte	0
 1763 0109 15       		.uleb128 0x15
 1764 010a 898201   		.uleb128 0x4109
 1765 010d 01       		.byte	0x1
 1766 010e 11       		.uleb128 0x11
 1767 010f 01       		.uleb128 0x1
ARM GAS  /tmp/ccSYaJyZ.s 			page 32


 1768 0110 31       		.uleb128 0x31
 1769 0111 13       		.uleb128 0x13
 1770 0112 00       		.byte	0
 1771 0113 00       		.byte	0
 1772 0114 16       		.uleb128 0x16
 1773 0115 8A8201   		.uleb128 0x410a
 1774 0118 00       		.byte	0
 1775 0119 02       		.uleb128 0x2
 1776 011a 18       		.uleb128 0x18
 1777 011b 9142     		.uleb128 0x2111
 1778 011d 18       		.uleb128 0x18
 1779 011e 00       		.byte	0
 1780 011f 00       		.byte	0
 1781 0120 17       		.uleb128 0x17
 1782 0121 34       		.uleb128 0x34
 1783 0122 00       		.byte	0
 1784 0123 03       		.uleb128 0x3
 1785 0124 0E       		.uleb128 0xe
 1786 0125 3A       		.uleb128 0x3a
 1787 0126 0B       		.uleb128 0xb
 1788 0127 3B       		.uleb128 0x3b
 1789 0128 0B       		.uleb128 0xb
 1790 0129 49       		.uleb128 0x49
 1791 012a 13       		.uleb128 0x13
 1792 012b 02       		.uleb128 0x2
 1793 012c 18       		.uleb128 0x18
 1794 012d 00       		.byte	0
 1795 012e 00       		.byte	0
 1796 012f 18       		.uleb128 0x18
 1797 0130 0A       		.uleb128 0xa
 1798 0131 00       		.byte	0
 1799 0132 03       		.uleb128 0x3
 1800 0133 0E       		.uleb128 0xe
 1801 0134 3A       		.uleb128 0x3a
 1802 0135 0B       		.uleb128 0xb
 1803 0136 3B       		.uleb128 0x3b
 1804 0137 0B       		.uleb128 0xb
 1805 0138 11       		.uleb128 0x11
 1806 0139 01       		.uleb128 0x1
 1807 013a 00       		.byte	0
 1808 013b 00       		.byte	0
 1809 013c 19       		.uleb128 0x19
 1810 013d 898201   		.uleb128 0x4109
 1811 0140 01       		.byte	0x1
 1812 0141 11       		.uleb128 0x11
 1813 0142 01       		.uleb128 0x1
 1814 0143 31       		.uleb128 0x31
 1815 0144 13       		.uleb128 0x13
 1816 0145 01       		.uleb128 0x1
 1817 0146 13       		.uleb128 0x13
 1818 0147 00       		.byte	0
 1819 0148 00       		.byte	0
 1820 0149 1A       		.uleb128 0x1a
 1821 014a 898201   		.uleb128 0x4109
 1822 014d 00       		.byte	0
 1823 014e 11       		.uleb128 0x11
 1824 014f 01       		.uleb128 0x1
ARM GAS  /tmp/ccSYaJyZ.s 			page 33


 1825 0150 31       		.uleb128 0x31
 1826 0151 13       		.uleb128 0x13
 1827 0152 00       		.byte	0
 1828 0153 00       		.byte	0
 1829 0154 1B       		.uleb128 0x1b
 1830 0155 34       		.uleb128 0x34
 1831 0156 00       		.byte	0
 1832 0157 03       		.uleb128 0x3
 1833 0158 0E       		.uleb128 0xe
 1834 0159 3A       		.uleb128 0x3a
 1835 015a 0B       		.uleb128 0xb
 1836 015b 3B       		.uleb128 0x3b
 1837 015c 0B       		.uleb128 0xb
 1838 015d 49       		.uleb128 0x49
 1839 015e 13       		.uleb128 0x13
 1840 015f 02       		.uleb128 0x2
 1841 0160 17       		.uleb128 0x17
 1842 0161 00       		.byte	0
 1843 0162 00       		.byte	0
 1844 0163 1C       		.uleb128 0x1c
 1845 0164 2E       		.uleb128 0x2e
 1846 0165 00       		.byte	0
 1847 0166 3F       		.uleb128 0x3f
 1848 0167 19       		.uleb128 0x19
 1849 0168 3C       		.uleb128 0x3c
 1850 0169 19       		.uleb128 0x19
 1851 016a 6E       		.uleb128 0x6e
 1852 016b 0E       		.uleb128 0xe
 1853 016c 03       		.uleb128 0x3
 1854 016d 0E       		.uleb128 0xe
 1855 016e 3A       		.uleb128 0x3a
 1856 016f 0B       		.uleb128 0xb
 1857 0170 3B       		.uleb128 0x3b
 1858 0171 05       		.uleb128 0x5
 1859 0172 00       		.byte	0
 1860 0173 00       		.byte	0
 1861 0174 00       		.byte	0
 1862              		.section	.debug_loc,"",%progbits
 1863              	.Ldebug_loc0:
 1864              	.LLST13:
 1865 0000 00000000 		.4byte	.LVL70
 1866 0004 19000000 		.4byte	.LVL72-1
 1867 0008 0100     		.2byte	0x1
 1868 000a 50       		.byte	0x50
 1869 000b 19000000 		.4byte	.LVL72-1
 1870 000f 1E000000 		.4byte	.LFE3
 1871 0013 0400     		.2byte	0x4
 1872 0015 F3       		.byte	0xf3
 1873 0016 01       		.uleb128 0x1
 1874 0017 50       		.byte	0x50
 1875 0018 9F       		.byte	0x9f
 1876 0019 00000000 		.4byte	0
 1877 001d 00000000 		.4byte	0
 1878              	.LLST14:
 1879 0021 00000000 		.4byte	.LVL70
 1880 0025 19000000 		.4byte	.LVL72-1
 1881 0029 0100     		.2byte	0x1
ARM GAS  /tmp/ccSYaJyZ.s 			page 34


 1882 002b 51       		.byte	0x51
 1883 002c 19000000 		.4byte	.LVL72-1
 1884 0030 1E000000 		.4byte	.LFE3
 1885 0034 0400     		.2byte	0x4
 1886 0036 F3       		.byte	0xf3
 1887 0037 01       		.uleb128 0x1
 1888 0038 51       		.byte	0x51
 1889 0039 9F       		.byte	0x9f
 1890 003a 00000000 		.4byte	0
 1891 003e 00000000 		.4byte	0
 1892              	.LLST15:
 1893 0042 00000000 		.4byte	.LVL70
 1894 0046 19000000 		.4byte	.LVL72-1
 1895 004a 0100     		.2byte	0x1
 1896 004c 52       		.byte	0x52
 1897 004d 19000000 		.4byte	.LVL72-1
 1898 0051 1E000000 		.4byte	.LFE3
 1899 0055 0300     		.2byte	0x3
 1900 0057 76       		.byte	0x76
 1901 0058 69       		.sleb128 -23
 1902 0059 9F       		.byte	0x9f
 1903 005a 00000000 		.4byte	0
 1904 005e 00000000 		.4byte	0
 1905              	.LLST16:
 1906 0062 00000000 		.4byte	.LVL70
 1907 0066 19000000 		.4byte	.LVL72-1
 1908 006a 0100     		.2byte	0x1
 1909 006c 53       		.byte	0x53
 1910 006d 19000000 		.4byte	.LVL72-1
 1911 0071 1E000000 		.4byte	.LFE3
 1912 0075 0400     		.2byte	0x4
 1913 0077 F3       		.byte	0xf3
 1914 0078 01       		.uleb128 0x1
 1915 0079 53       		.byte	0x53
 1916 007a 9F       		.byte	0x9f
 1917 007b 00000000 		.4byte	0
 1918 007f 00000000 		.4byte	0
 1919              	.LLST17:
 1920 0083 00000000 		.4byte	.LVL70
 1921 0087 1A000000 		.4byte	.LVL72
 1922 008b 0200     		.2byte	0x2
 1923 008d 30       		.byte	0x30
 1924 008e 9F       		.byte	0x9f
 1925 008f 1A000000 		.4byte	.LVL72
 1926 0093 1E000000 		.4byte	.LFE3
 1927 0097 0100     		.2byte	0x1
 1928 0099 50       		.byte	0x50
 1929 009a 00000000 		.4byte	0
 1930 009e 00000000 		.4byte	0
 1931              	.LLST18:
 1932 00a2 00000000 		.4byte	.LVL70
 1933 00a6 0C000000 		.4byte	.LVL71
 1934 00aa 0200     		.2byte	0x2
 1935 00ac 30       		.byte	0x30
 1936 00ad 9F       		.byte	0x9f
 1937 00ae 00000000 		.4byte	0
 1938 00b2 00000000 		.4byte	0
ARM GAS  /tmp/ccSYaJyZ.s 			page 35


 1939              	.LLST7:
 1940 00b6 00000000 		.4byte	.LVL27
 1941 00ba 19000000 		.4byte	.LVL31-1
 1942 00be 0100     		.2byte	0x1
 1943 00c0 50       		.byte	0x50
 1944 00c1 19000000 		.4byte	.LVL31-1
 1945 00c5 F4000000 		.4byte	.LFE2
 1946 00c9 0100     		.2byte	0x1
 1947 00cb 57       		.byte	0x57
 1948 00cc 00000000 		.4byte	0
 1949 00d0 00000000 		.4byte	0
 1950              	.LLST8:
 1951 00d4 00000000 		.4byte	.LVL27
 1952 00d8 0C000000 		.4byte	.LVL28
 1953 00dc 0100     		.2byte	0x1
 1954 00de 51       		.byte	0x51
 1955 00df 0C000000 		.4byte	.LVL28
 1956 00e3 F4000000 		.4byte	.LFE2
 1957 00e7 0400     		.2byte	0x4
 1958 00e9 F3       		.byte	0xf3
 1959 00ea 01       		.uleb128 0x1
 1960 00eb 51       		.byte	0x51
 1961 00ec 9F       		.byte	0x9f
 1962 00ed 00000000 		.4byte	0
 1963 00f1 00000000 		.4byte	0
 1964              	.LLST9:
 1965 00f5 00000000 		.4byte	.LVL27
 1966 00f9 14000000 		.4byte	.LVL30
 1967 00fd 0100     		.2byte	0x1
 1968 00ff 52       		.byte	0x52
 1969 0100 14000000 		.4byte	.LVL30
 1970 0104 20000000 		.4byte	.LVL33
 1971 0108 0100     		.2byte	0x1
 1972 010a 56       		.byte	0x56
 1973 010b 20000000 		.4byte	.LVL33
 1974 010f 2E000000 		.4byte	.LVL35
 1975 0113 0400     		.2byte	0x4
 1976 0115 F3       		.byte	0xf3
 1977 0116 01       		.uleb128 0x1
 1978 0117 52       		.byte	0x52
 1979 0118 9F       		.byte	0x9f
 1980 0119 2E000000 		.4byte	.LVL35
 1981 011d D8000000 		.4byte	.LVL64
 1982 0121 0100     		.2byte	0x1
 1983 0123 56       		.byte	0x56
 1984 0124 D8000000 		.4byte	.LVL64
 1985 0128 F4000000 		.4byte	.LFE2
 1986 012c 0300     		.2byte	0x3
 1987 012e 76       		.byte	0x76
 1988 012f 6B       		.sleb128 -21
 1989 0130 9F       		.byte	0x9f
 1990 0131 00000000 		.4byte	0
 1991 0135 00000000 		.4byte	0
 1992              	.LLST10:
 1993 0139 00000000 		.4byte	.LVL27
 1994 013d 12000000 		.4byte	.LVL29
 1995 0141 0100     		.2byte	0x1
ARM GAS  /tmp/ccSYaJyZ.s 			page 36


 1996 0143 53       		.byte	0x53
 1997 0144 12000000 		.4byte	.LVL29
 1998 0148 F4000000 		.4byte	.LFE2
 1999 014c 0400     		.2byte	0x4
 2000 014e F3       		.byte	0xf3
 2001 014f 01       		.uleb128 0x1
 2002 0150 53       		.byte	0x53
 2003 0151 9F       		.byte	0x9f
 2004 0152 00000000 		.4byte	0
 2005 0156 00000000 		.4byte	0
 2006              	.LLST11:
 2007 015a 00000000 		.4byte	.LVL27
 2008 015e 20000000 		.4byte	.LVL33
 2009 0162 0200     		.2byte	0x2
 2010 0164 91       		.byte	0x91
 2011 0165 00       		.sleb128 0
 2012 0166 2E000000 		.4byte	.LVL35
 2013 016a 3C000000 		.4byte	.LVL36
 2014 016e 0600     		.2byte	0x6
 2015 0170 91       		.byte	0x91
 2016 0171 00       		.sleb128 0
 2017 0172 06       		.byte	0x6
 2018 0173 23       		.byte	0x23
 2019 0174 20       		.uleb128 0x20
 2020 0175 9F       		.byte	0x9f
 2021 0176 3C000000 		.4byte	.LVL36
 2022 017a 41000000 		.4byte	.LVL38-1
 2023 017e 0100     		.2byte	0x1
 2024 0180 51       		.byte	0x51
 2025 0181 41000000 		.4byte	.LVL38-1
 2026 0185 5E000000 		.4byte	.LVL42
 2027 0189 0600     		.2byte	0x6
 2028 018b 91       		.byte	0x91
 2029 018c 00       		.sleb128 0
 2030 018d 06       		.byte	0x6
 2031 018e 23       		.byte	0x23
 2032 018f 20       		.uleb128 0x20
 2033 0190 9F       		.byte	0x9f
 2034 0191 5E000000 		.4byte	.LVL42
 2035 0195 62000000 		.4byte	.LVL43
 2036 0199 0300     		.2byte	0x3
 2037 019b 71       		.byte	0x71
 2038 019c 30       		.sleb128 48
 2039 019d 9F       		.byte	0x9f
 2040 019e 62000000 		.4byte	.LVL43
 2041 01a2 67000000 		.4byte	.LVL44-1
 2042 01a6 0100     		.2byte	0x1
 2043 01a8 51       		.byte	0x51
 2044 01a9 67000000 		.4byte	.LVL44-1
 2045 01ad 84000000 		.4byte	.LVL48
 2046 01b1 0600     		.2byte	0x6
 2047 01b3 91       		.byte	0x91
 2048 01b4 00       		.sleb128 0
 2049 01b5 06       		.byte	0x6
 2050 01b6 23       		.byte	0x23
 2051 01b7 30       		.uleb128 0x30
 2052 01b8 9F       		.byte	0x9f
ARM GAS  /tmp/ccSYaJyZ.s 			page 37


 2053 01b9 84000000 		.4byte	.LVL48
 2054 01bd 88000000 		.4byte	.LVL49
 2055 01c1 0400     		.2byte	0x4
 2056 01c3 71       		.byte	0x71
 2057 01c4 C000     		.sleb128 64
 2058 01c6 9F       		.byte	0x9f
 2059 01c7 88000000 		.4byte	.LVL49
 2060 01cb 8D000000 		.4byte	.LVL50-1
 2061 01cf 0100     		.2byte	0x1
 2062 01d1 51       		.byte	0x51
 2063 01d2 8D000000 		.4byte	.LVL50-1
 2064 01d6 A2000000 		.4byte	.LVL54
 2065 01da 0600     		.2byte	0x6
 2066 01dc 91       		.byte	0x91
 2067 01dd 00       		.sleb128 0
 2068 01de 06       		.byte	0x6
 2069 01df 23       		.byte	0x23
 2070 01e0 40       		.uleb128 0x40
 2071 01e1 9F       		.byte	0x9f
 2072 01e2 A2000000 		.4byte	.LVL54
 2073 01e6 AE000000 		.4byte	.LVL55
 2074 01ea 0400     		.2byte	0x4
 2075 01ec 71       		.byte	0x71
 2076 01ed D000     		.sleb128 80
 2077 01ef 9F       		.byte	0x9f
 2078 01f0 AE000000 		.4byte	.LVL55
 2079 01f4 B3000000 		.4byte	.LVL56-1
 2080 01f8 0100     		.2byte	0x1
 2081 01fa 51       		.byte	0x51
 2082 01fb B3000000 		.4byte	.LVL56-1
 2083 01ff BA000000 		.4byte	.LVL58
 2084 0203 0600     		.2byte	0x6
 2085 0205 91       		.byte	0x91
 2086 0206 00       		.sleb128 0
 2087 0207 06       		.byte	0x6
 2088 0208 23       		.byte	0x23
 2089 0209 50       		.uleb128 0x50
 2090 020a 9F       		.byte	0x9f
 2091 020b BA000000 		.4byte	.LVL58
 2092 020f C8000000 		.4byte	.LVL59
 2093 0213 0600     		.2byte	0x6
 2094 0215 91       		.byte	0x91
 2095 0216 00       		.sleb128 0
 2096 0217 06       		.byte	0x6
 2097 0218 23       		.byte	0x23
 2098 0219 62       		.uleb128 0x62
 2099 021a 9F       		.byte	0x9f
 2100 021b C8000000 		.4byte	.LVL59
 2101 021f CD000000 		.4byte	.LVL61-1
 2102 0223 0100     		.2byte	0x1
 2103 0225 51       		.byte	0x51
 2104 0226 CD000000 		.4byte	.LVL61-1
 2105 022a D4000000 		.4byte	.LVL63
 2106 022e 0600     		.2byte	0x6
 2107 0230 91       		.byte	0x91
 2108 0231 00       		.sleb128 0
 2109 0232 06       		.byte	0x6
ARM GAS  /tmp/ccSYaJyZ.s 			page 38


 2110 0233 23       		.byte	0x23
 2111 0234 62       		.uleb128 0x62
 2112 0235 9F       		.byte	0x9f
 2113 0236 D4000000 		.4byte	.LVL63
 2114 023a E2000000 		.4byte	.LVL66
 2115 023e 0600     		.2byte	0x6
 2116 0240 91       		.byte	0x91
 2117 0241 00       		.sleb128 0
 2118 0242 06       		.byte	0x6
 2119 0243 23       		.byte	0x23
 2120 0244 69       		.uleb128 0x69
 2121 0245 9F       		.byte	0x9f
 2122 0246 E2000000 		.4byte	.LVL66
 2123 024a E5000000 		.4byte	.LVL67-1
 2124 024e 0100     		.2byte	0x1
 2125 0250 51       		.byte	0x51
 2126 0251 E5000000 		.4byte	.LVL67-1
 2127 0255 F2000000 		.4byte	.LVL69
 2128 0259 0600     		.2byte	0x6
 2129 025b 91       		.byte	0x91
 2130 025c 00       		.sleb128 0
 2131 025d 06       		.byte	0x6
 2132 025e 23       		.byte	0x23
 2133 025f 69       		.uleb128 0x69
 2134 0260 9F       		.byte	0x9f
 2135 0261 F2000000 		.4byte	.LVL69
 2136 0265 F4000000 		.4byte	.LFE2
 2137 0269 0100     		.2byte	0x1
 2138 026b 54       		.byte	0x54
 2139 026c 00000000 		.4byte	0
 2140 0270 00000000 		.4byte	0
 2141              	.LLST12:
 2142 0274 00000000 		.4byte	.LVL27
 2143 0278 1E000000 		.4byte	.LVL32
 2144 027c 0200     		.2byte	0x2
 2145 027e 30       		.byte	0x30
 2146 027f 9F       		.byte	0x9f
 2147 0280 1E000000 		.4byte	.LVL32
 2148 0284 2A000000 		.4byte	.LVL34
 2149 0288 0100     		.2byte	0x1
 2150 028a 50       		.byte	0x50
 2151 028b 2E000000 		.4byte	.LVL35
 2152 028f 3E000000 		.4byte	.LVL37
 2153 0293 0100     		.2byte	0x1
 2154 0295 50       		.byte	0x50
 2155 0296 3E000000 		.4byte	.LVL37
 2156 029a 46000000 		.4byte	.LVL39
 2157 029e 0100     		.2byte	0x1
 2158 02a0 54       		.byte	0x54
 2159 02a1 46000000 		.4byte	.LVL39
 2160 02a5 4C000000 		.4byte	.LVL40
 2161 02a9 0100     		.2byte	0x1
 2162 02ab 50       		.byte	0x50
 2163 02ac 4C000000 		.4byte	.LVL40
 2164 02b0 6C000000 		.4byte	.LVL45
 2165 02b4 0100     		.2byte	0x1
 2166 02b6 54       		.byte	0x54
ARM GAS  /tmp/ccSYaJyZ.s 			page 39


 2167 02b7 6C000000 		.4byte	.LVL45
 2168 02bb 72000000 		.4byte	.LVL46
 2169 02bf 0100     		.2byte	0x1
 2170 02c1 50       		.byte	0x50
 2171 02c2 72000000 		.4byte	.LVL46
 2172 02c6 92000000 		.4byte	.LVL51
 2173 02ca 0100     		.2byte	0x1
 2174 02cc 54       		.byte	0x54
 2175 02cd 92000000 		.4byte	.LVL51
 2176 02d1 98000000 		.4byte	.LVL52
 2177 02d5 0100     		.2byte	0x1
 2178 02d7 50       		.byte	0x50
 2179 02d8 98000000 		.4byte	.LVL52
 2180 02dc B8000000 		.4byte	.LVL57
 2181 02e0 0100     		.2byte	0x1
 2182 02e2 54       		.byte	0x54
 2183 02e3 B8000000 		.4byte	.LVL57
 2184 02e7 CA000000 		.4byte	.LVL60
 2185 02eb 0100     		.2byte	0x1
 2186 02ed 50       		.byte	0x50
 2187 02ee CA000000 		.4byte	.LVL60
 2188 02f2 D2000000 		.4byte	.LVL62
 2189 02f6 0100     		.2byte	0x1
 2190 02f8 54       		.byte	0x54
 2191 02f9 D2000000 		.4byte	.LVL62
 2192 02fd DE000000 		.4byte	.LVL65
 2193 0301 0100     		.2byte	0x1
 2194 0303 50       		.byte	0x50
 2195 0304 DE000000 		.4byte	.LVL65
 2196 0308 EA000000 		.4byte	.LVL68
 2197 030c 0100     		.2byte	0x1
 2198 030e 54       		.byte	0x54
 2199 030f EA000000 		.4byte	.LVL68
 2200 0313 F4000000 		.4byte	.LFE2
 2201 0317 0100     		.2byte	0x1
 2202 0319 50       		.byte	0x50
 2203 031a 00000000 		.4byte	0
 2204 031e 00000000 		.4byte	0
 2205              	.LLST4:
 2206 0322 00000000 		.4byte	.LVL23
 2207 0326 09000000 		.4byte	.LVL24-1
 2208 032a 0100     		.2byte	0x1
 2209 032c 50       		.byte	0x50
 2210 032d 09000000 		.4byte	.LVL24-1
 2211 0331 10000000 		.4byte	.LFE1
 2212 0335 0400     		.2byte	0x4
 2213 0337 F3       		.byte	0xf3
 2214 0338 01       		.uleb128 0x1
 2215 0339 50       		.byte	0x50
 2216 033a 9F       		.byte	0x9f
 2217 033b 00000000 		.4byte	0
 2218 033f 00000000 		.4byte	0
 2219              	.LLST5:
 2220 0343 00000000 		.4byte	.LVL23
 2221 0347 09000000 		.4byte	.LVL24-1
 2222 034b 0100     		.2byte	0x1
 2223 034d 51       		.byte	0x51
ARM GAS  /tmp/ccSYaJyZ.s 			page 40


 2224 034e 09000000 		.4byte	.LVL24-1
 2225 0352 10000000 		.4byte	.LFE1
 2226 0356 0400     		.2byte	0x4
 2227 0358 F3       		.byte	0xf3
 2228 0359 01       		.uleb128 0x1
 2229 035a 51       		.byte	0x51
 2230 035b 9F       		.byte	0x9f
 2231 035c 00000000 		.4byte	0
 2232 0360 00000000 		.4byte	0
 2233              	.LLST6:
 2234 0364 00000000 		.4byte	.LVL23
 2235 0368 0A000000 		.4byte	.LVL24
 2236 036c 0200     		.2byte	0x2
 2237 036e 30       		.byte	0x30
 2238 036f 9F       		.byte	0x9f
 2239 0370 0A000000 		.4byte	.LVL24
 2240 0374 0C000000 		.4byte	.LVL25
 2241 0378 0100     		.2byte	0x1
 2242 037a 50       		.byte	0x50
 2243 037b 0C000000 		.4byte	.LVL25
 2244 037f 0E000000 		.4byte	.LVL26
 2245 0383 0300     		.2byte	0x3
 2246 0385 70       		.byte	0x70
 2247 0386 79       		.sleb128 -7
 2248 0387 9F       		.byte	0x9f
 2249 0388 00000000 		.4byte	0
 2250 038c 00000000 		.4byte	0
 2251              	.LLST0:
 2252 0390 00000000 		.4byte	.LVL0
 2253 0394 10000000 		.4byte	.LVL3
 2254 0398 0100     		.2byte	0x1
 2255 039a 50       		.byte	0x50
 2256 039b 10000000 		.4byte	.LVL3
 2257 039f 1B000000 		.4byte	.LVL5-1
 2258 03a3 0100     		.2byte	0x1
 2259 03a5 53       		.byte	0x53
 2260 03a6 1B000000 		.4byte	.LVL5-1
 2261 03aa CC000000 		.4byte	.LVL22
 2262 03ae 0100     		.2byte	0x1
 2263 03b0 54       		.byte	0x54
 2264 03b1 CC000000 		.4byte	.LVL22
 2265 03b5 D4000000 		.4byte	.LFE0
 2266 03b9 0400     		.2byte	0x4
 2267 03bb F3       		.byte	0xf3
 2268 03bc 01       		.uleb128 0x1
 2269 03bd 50       		.byte	0x50
 2270 03be 9F       		.byte	0x9f
 2271 03bf 00000000 		.4byte	0
 2272 03c3 00000000 		.4byte	0
 2273              	.LLST1:
 2274 03c7 00000000 		.4byte	.LVL0
 2275 03cb 0E000000 		.4byte	.LVL2
 2276 03cf 0100     		.2byte	0x1
 2277 03d1 51       		.byte	0x51
 2278 03d2 0E000000 		.4byte	.LVL2
 2279 03d6 CC000000 		.4byte	.LVL22
 2280 03da 0100     		.2byte	0x1
ARM GAS  /tmp/ccSYaJyZ.s 			page 41


 2281 03dc 56       		.byte	0x56
 2282 03dd CC000000 		.4byte	.LVL22
 2283 03e1 D4000000 		.4byte	.LFE0
 2284 03e5 0400     		.2byte	0x4
 2285 03e7 F3       		.byte	0xf3
 2286 03e8 01       		.uleb128 0x1
 2287 03e9 51       		.byte	0x51
 2288 03ea 9F       		.byte	0x9f
 2289 03eb 00000000 		.4byte	0
 2290 03ef 00000000 		.4byte	0
 2291              	.LLST2:
 2292 03f3 00000000 		.4byte	.LVL0
 2293 03f7 12000000 		.4byte	.LVL4
 2294 03fb 0100     		.2byte	0x1
 2295 03fd 52       		.byte	0x52
 2296 03fe 12000000 		.4byte	.LVL4
 2297 0402 1B000000 		.4byte	.LVL5-1
 2298 0406 0100     		.2byte	0x1
 2299 0408 51       		.byte	0x51
 2300 0409 1B000000 		.4byte	.LVL5-1
 2301 040d 1C000000 		.4byte	.LVL5
 2302 0411 0100     		.2byte	0x1
 2303 0413 55       		.byte	0x55
 2304 0414 1C000000 		.4byte	.LVL5
 2305 0418 2A000000 		.4byte	.LVL7
 2306 041c 0300     		.2byte	0x3
 2307 041e 75       		.byte	0x75
 2308 041f 20       		.sleb128 32
 2309 0420 9F       		.byte	0x9f
 2310 0421 2A000000 		.4byte	.LVL7
 2311 0425 37000000 		.4byte	.LVL8-1
 2312 0429 0100     		.2byte	0x1
 2313 042b 51       		.byte	0x51
 2314 042c 37000000 		.4byte	.LVL8-1
 2315 0430 38000000 		.4byte	.LVL8
 2316 0434 0300     		.2byte	0x3
 2317 0436 75       		.byte	0x75
 2318 0437 20       		.sleb128 32
 2319 0438 9F       		.byte	0x9f
 2320 0439 38000000 		.4byte	.LVL8
 2321 043d 46000000 		.4byte	.LVL10
 2322 0441 0300     		.2byte	0x3
 2323 0443 75       		.byte	0x75
 2324 0444 30       		.sleb128 48
 2325 0445 9F       		.byte	0x9f
 2326 0446 46000000 		.4byte	.LVL10
 2327 044a 51000000 		.4byte	.LVL11-1
 2328 044e 0100     		.2byte	0x1
 2329 0450 51       		.byte	0x51
 2330 0451 51000000 		.4byte	.LVL11-1
 2331 0455 52000000 		.4byte	.LVL11
 2332 0459 0300     		.2byte	0x3
 2333 045b 75       		.byte	0x75
 2334 045c 30       		.sleb128 48
 2335 045d 9F       		.byte	0x9f
 2336 045e 52000000 		.4byte	.LVL11
 2337 0462 64000000 		.4byte	.LVL13
ARM GAS  /tmp/ccSYaJyZ.s 			page 42


 2338 0466 0400     		.2byte	0x4
 2339 0468 75       		.byte	0x75
 2340 0469 C000     		.sleb128 64
 2341 046b 9F       		.byte	0x9f
 2342 046c 64000000 		.4byte	.LVL13
 2343 0470 6B000000 		.4byte	.LVL14-1
 2344 0474 0100     		.2byte	0x1
 2345 0476 51       		.byte	0x51
 2346 0477 6B000000 		.4byte	.LVL14-1
 2347 047b 6C000000 		.4byte	.LVL14
 2348 047f 0400     		.2byte	0x4
 2349 0481 75       		.byte	0x75
 2350 0482 C000     		.sleb128 64
 2351 0484 9F       		.byte	0x9f
 2352 0485 6C000000 		.4byte	.LVL14
 2353 0489 88000000 		.4byte	.LVL15
 2354 048d 0400     		.2byte	0x4
 2355 048f 75       		.byte	0x75
 2356 0490 D000     		.sleb128 80
 2357 0492 9F       		.byte	0x9f
 2358 0493 88000000 		.4byte	.LVL15
 2359 0497 8F000000 		.4byte	.LVL16-1
 2360 049b 0100     		.2byte	0x1
 2361 049d 51       		.byte	0x51
 2362 049e 8F000000 		.4byte	.LVL16-1
 2363 04a2 90000000 		.4byte	.LVL16
 2364 04a6 0400     		.2byte	0x4
 2365 04a8 75       		.byte	0x75
 2366 04a9 D000     		.sleb128 80
 2367 04ab 9F       		.byte	0x9f
 2368 04ac 90000000 		.4byte	.LVL16
 2369 04b0 A2000000 		.4byte	.LVL17
 2370 04b4 0400     		.2byte	0x4
 2371 04b6 75       		.byte	0x75
 2372 04b7 E200     		.sleb128 98
 2373 04b9 9F       		.byte	0x9f
 2374 04ba A2000000 		.4byte	.LVL17
 2375 04be A9000000 		.4byte	.LVL18-1
 2376 04c2 0100     		.2byte	0x1
 2377 04c4 51       		.byte	0x51
 2378 04c5 A9000000 		.4byte	.LVL18-1
 2379 04c9 AA000000 		.4byte	.LVL18
 2380 04cd 0400     		.2byte	0x4
 2381 04cf 75       		.byte	0x75
 2382 04d0 E200     		.sleb128 98
 2383 04d2 9F       		.byte	0x9f
 2384 04d3 AA000000 		.4byte	.LVL18
 2385 04d7 BE000000 		.4byte	.LVL19
 2386 04db 0400     		.2byte	0x4
 2387 04dd 75       		.byte	0x75
 2388 04de E900     		.sleb128 105
 2389 04e0 9F       		.byte	0x9f
 2390 04e1 BE000000 		.4byte	.LVL19
 2391 04e5 C3000000 		.4byte	.LVL20-1
 2392 04e9 0100     		.2byte	0x1
 2393 04eb 51       		.byte	0x51
 2394 04ec C3000000 		.4byte	.LVL20-1
ARM GAS  /tmp/ccSYaJyZ.s 			page 43


 2395 04f0 C4000000 		.4byte	.LVL20
 2396 04f4 0400     		.2byte	0x4
 2397 04f6 75       		.byte	0x75
 2398 04f7 E900     		.sleb128 105
 2399 04f9 9F       		.byte	0x9f
 2400 04fa C4000000 		.4byte	.LVL20
 2401 04fe C8000000 		.4byte	.LVL21
 2402 0502 0400     		.2byte	0x4
 2403 0504 75       		.byte	0x75
 2404 0505 EE00     		.sleb128 110
 2405 0507 9F       		.byte	0x9f
 2406 0508 C8000000 		.4byte	.LVL21
 2407 050c D4000000 		.4byte	.LFE0
 2408 0510 0100     		.2byte	0x1
 2409 0512 50       		.byte	0x50
 2410 0513 00000000 		.4byte	0
 2411 0517 00000000 		.4byte	0
 2412              	.LLST3:
 2413 051b 00000000 		.4byte	.LVL0
 2414 051f 0C000000 		.4byte	.LVL1
 2415 0523 0100     		.2byte	0x1
 2416 0525 53       		.byte	0x53
 2417 0526 0C000000 		.4byte	.LVL1
 2418 052a D4000000 		.4byte	.LFE0
 2419 052e 0400     		.2byte	0x4
 2420 0530 F3       		.byte	0xf3
 2421 0531 01       		.uleb128 0x1
 2422 0532 53       		.byte	0x53
 2423 0533 9F       		.byte	0x9f
 2424 0534 00000000 		.4byte	0
 2425 0538 00000000 		.4byte	0
 2426              		.section	.debug_aranges,"",%progbits
 2427 0000 34000000 		.4byte	0x34
 2428 0004 0200     		.2byte	0x2
 2429 0006 00000000 		.4byte	.Ldebug_info0
 2430 000a 04       		.byte	0x4
 2431 000b 00       		.byte	0
 2432 000c 0000     		.2byte	0
 2433 000e 0000     		.2byte	0
 2434 0010 00000000 		.4byte	.LFB0
 2435 0014 D4000000 		.4byte	.LFE0-.LFB0
 2436 0018 00000000 		.4byte	.LFB1
 2437 001c 10000000 		.4byte	.LFE1-.LFB1
 2438 0020 00000000 		.4byte	.LFB2
 2439 0024 F4000000 		.4byte	.LFE2-.LFB2
 2440 0028 00000000 		.4byte	.LFB3
 2441 002c 1E000000 		.4byte	.LFE3-.LFB3
 2442 0030 00000000 		.4byte	0
 2443 0034 00000000 		.4byte	0
 2444              		.section	.debug_ranges,"",%progbits
 2445              	.Ldebug_ranges0:
 2446 0000 00000000 		.4byte	.LFB0
 2447 0004 D4000000 		.4byte	.LFE0
 2448 0008 00000000 		.4byte	.LFB1
 2449 000c 10000000 		.4byte	.LFE1
 2450 0010 00000000 		.4byte	.LFB2
 2451 0014 F4000000 		.4byte	.LFE2
ARM GAS  /tmp/ccSYaJyZ.s 			page 44


 2452 0018 00000000 		.4byte	.LFB3
 2453 001c 1E000000 		.4byte	.LFE3
 2454 0020 00000000 		.4byte	0
 2455 0024 00000000 		.4byte	0
 2456              		.section	.debug_line,"",%progbits
 2457              	.Ldebug_line0:
 2458 0000 7A010000 		.section	.debug_str,"MS",%progbits,1
 2458      0200CC00 
 2458      00000201 
 2458      FB0E0D00 
 2458      01010101 
 2459              	.LASF40:
 2460 0000 6573635F 		.ascii	"esc_index\000"
 2460      696E6465 
 2460      7800
 2461              	.LASF25:
 2462 000a 64617461 		.ascii	"data_type_id\000"
 2462      5F747970 
 2462      655F6964 
 2462      00
 2463              	.LASF44:
 2464 0017 64657374 		.ascii	"dest\000"
 2464      00
 2465              	.LASF28:
 2466 001c 7072696F 		.ascii	"priority\000"
 2466      72697479 
 2466      00
 2467              	.LASF18:
 2468 0025 75696E74 		.ascii	"uint64_t\000"
 2468      36345F74 
 2468      00
 2469              	.LASF2:
 2470 002e 73686F72 		.ascii	"short int\000"
 2470      7420696E 
 2470      7400
 2471              	.LASF58:
 2472 0038 63616E61 		.ascii	"canardConvertNativeFloatToFloat16\000"
 2472      7264436F 
 2472      6E766572 
 2472      744E6174 
 2472      69766546 
 2473              	.LASF8:
 2474 005a 5F5F7569 		.ascii	"__uint32_t\000"
 2474      6E743332 
 2474      5F7400
 2475              	.LASF53:
 2476 0065 75617663 		.ascii	"uavcan_equipment_esc_Status_encode_internal\000"
 2476      616E5F65 
 2476      71756970 
 2476      6D656E74 
 2476      5F657363 
 2477              	.LASF4:
 2478 0091 5F5F7569 		.ascii	"__uint16_t\000"
 2478      6E743136 
 2478      5F7400
 2479              	.LASF14:
 2480 009c 75696E74 		.ascii	"uint8_t\000"
ARM GAS  /tmp/ccSYaJyZ.s 			page 45


 2480      385F7400 
 2481              	.LASF48:
 2482 00a4 75617663 		.ascii	"uavcan_equipment_esc_Status_decode_internal\000"
 2482      616E5F65 
 2482      71756970 
 2482      6D656E74 
 2482      5F657363 
 2483              	.LASF41:
 2484 00d0 666C6F61 		.ascii	"float\000"
 2484      7400
 2485              	.LASF10:
 2486 00d6 6C6F6E67 		.ascii	"long long int\000"
 2486      206C6F6E 
 2486      6720696E 
 2486      7400
 2487              	.LASF56:
 2488 00e4 63616E61 		.ascii	"canardConvertFloat16ToNativeFloat\000"
 2488      7264436F 
 2488      6E766572 
 2488      74466C6F 
 2488      61743136 
 2489              	.LASF45:
 2490 0106 64796E5F 		.ascii	"dyn_arr_buf\000"
 2490      6172725F 
 2490      62756600 
 2491              	.LASF7:
 2492 0112 6C6F6E67 		.ascii	"long int\000"
 2492      20696E74 
 2492      00
 2493              	.LASF36:
 2494 011b 766F6C74 		.ascii	"voltage\000"
 2494      61676500 
 2495              	.LASF46:
 2496 0123 6F666673 		.ascii	"offset\000"
 2496      657400
 2497              	.LASF3:
 2498 012a 5F5F7569 		.ascii	"__uint8_t\000"
 2498      6E74385F 
 2498      7400
 2499              	.LASF51:
 2500 0134 736F7572 		.ascii	"source\000"
 2500      636500
 2501              	.LASF23:
 2502 013b 7061796C 		.ascii	"payload_tail\000"
 2502      6F61645F 
 2502      7461696C 
 2502      00
 2503              	.LASF20:
 2504 0148 74696D65 		.ascii	"timestamp_usec\000"
 2504      7374616D 
 2504      705F7573 
 2504      656300
 2505              	.LASF1:
 2506 0157 756E7369 		.ascii	"unsigned char\000"
 2506      676E6564 
 2506      20636861 
 2506      7200
ARM GAS  /tmp/ccSYaJyZ.s 			page 46


 2507              	.LASF22:
 2508 0165 7061796C 		.ascii	"payload_middle\000"
 2508      6F61645F 
 2508      6D696464 
 2508      6C6500
 2509              	.LASF61:
 2510 0174 2F626C64 		.ascii	"/bldc\000"
 2510      6300
 2511              	.LASF0:
 2512 017a 7369676E 		.ascii	"signed char\000"
 2512      65642063 
 2512      68617200 
 2513              	.LASF12:
 2514 0186 6C6F6E67 		.ascii	"long long unsigned int\000"
 2514      206C6F6E 
 2514      6720756E 
 2514      7369676E 
 2514      65642069 
 2515              	.LASF17:
 2516 019d 75696E74 		.ascii	"uint32_t\000"
 2516      33325F74 
 2516      00
 2517              	.LASF13:
 2518 01a6 756E7369 		.ascii	"unsigned int\000"
 2518      676E6564 
 2518      20696E74 
 2518      00
 2519              	.LASF15:
 2520 01b3 75696E74 		.ascii	"uint16_t\000"
 2520      31365F74 
 2520      00
 2521              	.LASF32:
 2522 01bc 43616E61 		.ascii	"CanardBufferBlock\000"
 2522      72644275 
 2522      66666572 
 2522      426C6F63 
 2522      6B00
 2523              	.LASF29:
 2524 01ce 736F7572 		.ascii	"source_node_id\000"
 2524      63655F6E 
 2524      6F64655F 
 2524      696400
 2525              	.LASF60:
 2526 01dd 6C696263 		.ascii	"libcanard/dsdl/uavcan/equipment/esc/esc_Status.c\000"
 2526      616E6172 
 2526      642F6473 
 2526      646C2F75 
 2526      61766361 
 2527              	.LASF5:
 2528 020e 73686F72 		.ascii	"short unsigned int\000"
 2528      7420756E 
 2528      7369676E 
 2528      65642069 
 2528      6E7400
 2529              	.LASF62:
 2530 0221 75617663 		.ascii	"uavcan_equipment_esc_Status_error_exit\000"
 2530      616E5F65 
ARM GAS  /tmp/ccSYaJyZ.s 			page 47


 2530      71756970 
 2530      6D656E74 
 2530      5F657363 
 2531              	.LASF57:
 2532 0248 63616E61 		.ascii	"canardEncodeScalar\000"
 2532      7264456E 
 2532      636F6465 
 2532      5363616C 
 2532      617200
 2533              	.LASF31:
 2534 025b 63686172 		.ascii	"char\000"
 2534      00
 2535              	.LASF30:
 2536 0260 5F426F6F 		.ascii	"_Bool\000"
 2536      6C00
 2537              	.LASF16:
 2538 0266 696E7433 		.ascii	"int32_t\000"
 2538      325F7400 
 2539              	.LASF26:
 2540 026e 7472616E 		.ascii	"transfer_type\000"
 2540      73666572 
 2540      5F747970 
 2540      6500
 2541              	.LASF21:
 2542 027c 7061796C 		.ascii	"payload_head\000"
 2542      6F61645F 
 2542      68656164 
 2542      00
 2543              	.LASF49:
 2544 0289 746D705F 		.ascii	"tmp_float\000"
 2544      666C6F61 
 2544      7400
 2545              	.LASF11:
 2546 0293 5F5F7569 		.ascii	"__uint64_t\000"
 2546      6E743634 
 2546      5F7400
 2547              	.LASF34:
 2548 029e 64617461 		.ascii	"data\000"
 2548      00
 2549              	.LASF43:
 2550 02a3 7472616E 		.ascii	"transfer\000"
 2550      73666572 
 2550      00
 2551              	.LASF19:
 2552 02ac 43616E61 		.ascii	"CanardRxTransfer\000"
 2552      72645278 
 2552      5472616E 
 2552      73666572 
 2552      00
 2553              	.LASF9:
 2554 02bd 6C6F6E67 		.ascii	"long unsigned int\000"
 2554      20756E73 
 2554      69676E65 
 2554      6420696E 
 2554      7400
 2555              	.LASF54:
 2556 02cf 726F6F74 		.ascii	"root_item\000"
ARM GAS  /tmp/ccSYaJyZ.s 			page 48


 2556      5F697465 
 2556      6D00
 2557              	.LASF38:
 2558 02d9 74656D70 		.ascii	"temperature\000"
 2558      65726174 
 2558      75726500 
 2559              	.LASF6:
 2560 02e5 5F5F696E 		.ascii	"__int32_t\000"
 2560      7433325F 
 2560      7400
 2561              	.LASF47:
 2562 02ef 75617663 		.ascii	"uavcan_equipment_esc_Status_decode\000"
 2562      616E5F65 
 2562      71756970 
 2562      6D656E74 
 2562      5F657363 
 2563              	.LASF39:
 2564 0312 706F7765 		.ascii	"power_rating_pct\000"
 2564      725F7261 
 2564      74696E67 
 2564      5F706374 
 2564      00
 2565              	.LASF35:
 2566 0323 6572726F 		.ascii	"error_count\000"
 2566      725F636F 
 2566      756E7400 
 2567              	.LASF37:
 2568 032f 63757272 		.ascii	"current\000"
 2568      656E7400 
 2569              	.LASF24:
 2570 0337 7061796C 		.ascii	"payload_len\000"
 2570      6F61645F 
 2570      6C656E00 
 2571              	.LASF27:
 2572 0343 7472616E 		.ascii	"transfer_id\000"
 2572      73666572 
 2572      5F696400 
 2573              	.LASF42:
 2574 034f 75617663 		.ascii	"uavcan_equipment_esc_Status\000"
 2574      616E5F65 
 2574      71756970 
 2574      6D656E74 
 2574      5F657363 
 2575              	.LASF55:
 2576 036b 63616E61 		.ascii	"canardDecodeScalar\000"
 2576      72644465 
 2576      636F6465 
 2576      5363616C 
 2576      617200
 2577              	.LASF52:
 2578 037e 6D73675F 		.ascii	"msg_buf\000"
 2578      62756600 
 2579              	.LASF33:
 2580 0386 6E657874 		.ascii	"next\000"
 2580      00
 2581              	.LASF59:
 2582 038b 474E5520 		.ascii	"GNU C99 7.3.1 20180622 (release) [ARM/embedded-7-br"
ARM GAS  /tmp/ccSYaJyZ.s 			page 49


 2582      43393920 
 2582      372E332E 
 2582      31203230 
 2582      31383036 
 2583 03be 616E6368 		.ascii	"anch revision 261907] -mcpu=cortex-m4 -mfloat-abi=h"
 2583      20726576 
 2583      6973696F 
 2583      6E203236 
 2583      31393037 
 2584 03f1 61726420 		.ascii	"ard -mfpu=fpv4-sp-d16 -mno-thumb-interwork -mthumb "
 2584      2D6D6670 
 2584      753D6670 
 2584      76342D73 
 2584      702D6431 
 2585 0424 2D676764 		.ascii	"-ggdb -O2 -std=gnu99 -fomit-frame-pointer -falign-f"
 2585      62202D4F 
 2585      32202D73 
 2585      74643D67 
 2585      6E753939 
 2586 0457 756E6374 		.ascii	"unctions=16 -ffunction-sections -fdata-sections -fn"
 2586      696F6E73 
 2586      3D313620 
 2586      2D666675 
 2586      6E637469 
 2587 048a 6F2D636F 		.ascii	"o-common -fsingle-precision-constant\000"
 2587      6D6D6F6E 
 2587      202D6673 
 2587      696E676C 
 2587      652D7072 
 2588              	.LASF50:
 2589 04af 75617663 		.ascii	"uavcan_equipment_esc_Status_encode\000"
 2589      616E5F65 
 2589      71756970 
 2589      6D656E74 
 2589      5F657363 
 2590              		.ident	"GCC: (GNU Tools for Arm Embedded Processors 7-2018-q3-update) 7.3.1 20180622 (release) [AR
ARM GAS  /tmp/ccSYaJyZ.s 			page 50


DEFINED SYMBOLS
                            *ABS*:0000000000000000 esc_Status.c
     /tmp/ccSYaJyZ.s:18     .text.uavcan_equipment_esc_Status_encode_internal:0000000000000000 $t
     /tmp/ccSYaJyZ.s:26     .text.uavcan_equipment_esc_Status_encode_internal:0000000000000000 uavcan_equipment_esc_Status_encode_internal
     /tmp/ccSYaJyZ.s:166    .text.uavcan_equipment_esc_Status_encode_internal:00000000000000cc $d
     /tmp/ccSYaJyZ.s:172    .text.uavcan_equipment_esc_Status_encode:0000000000000000 $t
     /tmp/ccSYaJyZ.s:180    .text.uavcan_equipment_esc_Status_encode:0000000000000000 uavcan_equipment_esc_Status_encode
     /tmp/ccSYaJyZ.s:207    .text.uavcan_equipment_esc_Status_decode_internal:0000000000000000 $t
     /tmp/ccSYaJyZ.s:215    .text.uavcan_equipment_esc_Status_decode_internal:0000000000000000 uavcan_equipment_esc_Status_decode_internal
     /tmp/ccSYaJyZ.s:428    .text.uavcan_equipment_esc_Status_decode:0000000000000000 $t
     /tmp/ccSYaJyZ.s:436    .text.uavcan_equipment_esc_Status_decode:0000000000000000 uavcan_equipment_esc_Status_decode

UNDEFINED SYMBOLS
canardEncodeScalar
canardConvertNativeFloatToFloat16
canardDecodeScalar
canardConvertFloat16ToNativeFloat
