ARM GAS  /tmp/ccKFb8Yw.s 			page 1


   1              		.cpu cortex-m4
   2              		.eabi_attribute 27, 1
   3              		.eabi_attribute 28, 1
   4              		.eabi_attribute 20, 1
   5              		.eabi_attribute 21, 1
   6              		.eabi_attribute 23, 3
   7              		.eabi_attribute 24, 1
   8              		.eabi_attribute 25, 1
   9              		.eabi_attribute 26, 1
  10              		.eabi_attribute 30, 2
  11              		.eabi_attribute 34, 1
  12              		.eabi_attribute 18, 4
  13              		.file	"events.c"
  14              		.text
  15              	.Ltext0:
  16              		.cfi_sections	.debug_frame
  17              		.global	__aeabi_f2d
  18              		.section	.text.terminal_print,"ax",%progbits
  19              		.align	1
  20              		.p2align 4,,15
  21              		.syntax unified
  22              		.thumb
  23              		.thumb_func
  24              		.fpu fpv4-sp-d16
  25              		.type	terminal_print, %function
  26              	terminal_print:
  27              	.LFB221:
  28              		.file 1 "events.c"
  29              		.loc 1 97 0
  30              		.cfi_startproc
  31              		@ args = 0, pretend = 0, frame = 0
  32              		@ frame_needed = 0, uses_anonymous_args = 0
  33              	.LVL0:
  34 0000 2DE9F84F 		push	{r3, r4, r5, r6, r7, r8, r9, r10, fp, lr}
  35              		.cfi_def_cfa_offset 40
  36              		.cfi_offset 3, -40
  37              		.cfi_offset 4, -36
  38              		.cfi_offset 5, -32
  39              		.cfi_offset 6, -28
  40              		.cfi_offset 7, -24
  41              		.cfi_offset 8, -20
  42              		.cfi_offset 9, -16
  43              		.cfi_offset 10, -12
  44              		.cfi_offset 11, -8
  45              		.cfi_offset 14, -4
  46              		.loc 1 100 0
  47 0004 2D4E     		ldr	r6, .L11
  48 0006 2E4D     		ldr	r5, .L11+4
  49 0008 3468     		ldr	r4, [r6]
  50              	.LVL1:
  51              	.LBB19:
  52              	.LBB20:
  53              	.LBB21:
  54              	.LBB22:
  55              	.LBB23:
  56              		.file 2 "ChibiOS_3.0.5/os/rt/include/chvt.h"
  57              		.loc 2 231 0
ARM GAS  /tmp/ccKFb8Yw.s 			page 2


  58 000a DFF8D490 		ldr	r9, .L11+36
  59              	.LBE23:
  60              	.LBE22:
  61              	.LBE21:
  62              	.LBE20:
  63              		.loc 1 108 0
  64 000e DFF8D480 		ldr	r8, .L11+40
  65              	.LBE19:
  66              		.loc 1 97 0
  67 0012 2DED028B 		vpush.64	{d8}
  68              		.cfi_def_cfa_offset 48
  69              		.cfi_offset 80, -48
  70              		.cfi_offset 81, -44
  71              		.loc 1 101 0
  72 0016 0027     		movs	r7, #0
  73              	.LBB28:
  74              		.loc 1 108 0
  75 0018 9FED2A8A 		vldr.32	s16, .L11+8
  76 001c 0EE0     		b	.L3
  77              	.LVL2:
  78              	.L2:
  79              		.loc 1 115 0
  80 001e 2A4B     		ldr	r3, .L11+12
  81              	.LBE28:
  82              		.loc 1 116 0
  83 0020 3168     		ldr	r1, [r6]
  84              	.LBB29:
  85              		.loc 1 115 0
  86 0022 621C     		adds	r2, r4, #1
  87 0024 83FB0234 		smull	r3, r4, r3, r2
  88              	.LVL3:
  89 0028 A318     		adds	r3, r4, r2
  90 002a D417     		asrs	r4, r2, #31
  91 002c C4EB2314 		rsb	r4, r4, r3, asr #4
  92 0030 C4EB0414 		rsb	r4, r4, r4, lsl #4
  93 0034 A2EB4404 		sub	r4, r2, r4, lsl #1
  94              	.LVL4:
  95              	.LBE29:
  96              		.loc 1 116 0
  97 0038 A142     		cmp	r1, r4
  98 003a 37D0     		beq	.L10
  99              	.LVL5:
 100              	.L3:
 101              	.LBB30:
 102              		.loc 1 106 0
 103 003c 04EB840B 		add	fp, r4, r4, lsl #2
 104 0040 05EB8B0A 		add	r10, r5, fp, lsl #2
 105 0044 9AF81030 		ldrb	r3, [r10, #16]	@ zero_extendqisi2
 106 0048 002B     		cmp	r3, #0
 107 004a E8D0     		beq	.L2
 108              		.loc 1 108 0
 109 004c DAF80C20 		ldr	r2, [r10, #12]
 110              	.LBB27:
 111              	.LBB26:
 112              	.LBB25:
 113              	.LBB24:
 114              		.loc 2 231 0
ARM GAS  /tmp/ccKFb8Yw.s 			page 3


 115 0050 D9F82830 		ldr	r3, [r9, #40]
 116              	.LBE24:
 117              	.LBE25:
 118              		.loc 2 267 0
 119 0054 9B1A     		subs	r3, r3, r2
 120              	.LBE26:
 121              	.LBE27:
 122              		.loc 1 108 0
 123 0056 07EE903A 		vmov	s15, r3	@ int
 124 005a F8EE677A 		vcvt.f32.u32	s15, s15
 125              		.loc 1 107 0
 126 005e 0137     		adds	r7, r7, #1
 127              	.LVL6:
 128              		.loc 1 108 0
 129 0060 C7EE887A 		vdiv.f32	s15, s15, s16
 130 0064 17EE900A 		vmov	r0, s15
 131 0068 FFF7FEFF 		bl	__aeabi_f2d
 132              	.LVL7:
 133 006c 0246     		mov	r2, r0
 134 006e 0B46     		mov	r3, r1
 135 0070 4046     		mov	r0, r8
 136 0072 FFF7FEFF 		bl	commands_printf
 137              	.LVL8:
 138              		.loc 1 109 0
 139 0076 DAF80430 		ldr	r3, [r10, #4]
 140 007a 1448     		ldr	r0, .L11+16
 141 007c 9969     		ldr	r1, [r3, #24]
 142 007e FFF7FEFF 		bl	commands_printf
 143              	.LVL9:
 144              		.loc 1 110 0
 145 0082 DAF80430 		ldr	r3, [r10, #4]
 146 0086 1248     		ldr	r0, .L11+20
 147 0088 D96C     		ldr	r1, [r3, #76]
 148 008a FFF7FEFF 		bl	commands_printf
 149              	.LVL10:
 150              		.loc 1 111 0
 151 008e 55F82B10 		ldr	r1, [r5, fp, lsl #2]
 152 0092 1048     		ldr	r0, .L11+24
 153 0094 FFF7FEFF 		bl	commands_printf
 154              	.LVL11:
 155              		.loc 1 112 0
 156 0098 DAF80800 		ldr	r0, [r10, #8]	@ float
 157 009c FFF7FEFF 		bl	__aeabi_f2d
 158              	.LVL12:
 159 00a0 0246     		mov	r2, r0
 160 00a2 0B46     		mov	r3, r1
 161 00a4 0C48     		ldr	r0, .L11+28
 162 00a6 FFF7FEFF 		bl	commands_printf
 163              	.LVL13:
 164 00aa B8E7     		b	.L2
 165              	.LVL14:
 166              	.L10:
 167              	.LBE30:
 168              		.loc 1 119 0
 169 00ac BDEC028B 		vldm	sp!, {d8}
 170              		.cfi_restore 80
 171              		.cfi_restore 81
ARM GAS  /tmp/ccKFb8Yw.s 			page 4


 172              		.cfi_def_cfa_offset 40
 173              		.loc 1 118 0
 174 00b0 3946     		mov	r1, r7
 175 00b2 0A48     		ldr	r0, .L11+32
 176              		.loc 1 119 0
 177 00b4 BDE8F84F 		pop	{r3, r4, r5, r6, r7, r8, r9, r10, fp, lr}
 178              		.cfi_restore 14
 179              		.cfi_restore 11
 180              		.cfi_restore 10
 181              		.cfi_restore 9
 182              		.cfi_restore 8
 183              		.cfi_restore 7
 184              		.cfi_restore 6
 185              		.cfi_restore 5
 186              		.cfi_restore 4
 187              		.cfi_restore 3
 188              		.cfi_def_cfa_offset 0
 189              	.LVL15:
 190              		.loc 1 118 0
 191 00b8 FFF7FEBF 		b	commands_printf
 192              	.LVL16:
 193              	.L12:
 194              		.align	2
 195              	.L11:
 196 00bc 00000000 		.word	.LANCHOR0
 197 00c0 00000000 		.word	.LANCHOR1
 198 00c4 00401C46 		.word	1176256512
 199 00c8 89888888 		.word	-2004318071
 200 00cc 10000000 		.word	.LC1
 201 00d0 1C000000 		.word	.LC2
 202 00d4 28000000 		.word	.LC3
 203 00d8 34000000 		.word	.LC4
 204 00dc 44000000 		.word	.LC5
 205 00e0 00000000 		.word	ch
 206 00e4 00000000 		.word	.LC0
 207              		.cfi_endproc
 208              	.LFE221:
 209              		.size	terminal_print, .-terminal_print
 210              		.section	.text.events_init,"ax",%progbits
 211              		.align	1
 212              		.p2align 4,,15
 213              		.global	events_init
 214              		.syntax unified
 215              		.thumb
 216              		.thumb_func
 217              		.fpu fpv4-sp-d16
 218              		.type	events_init, %function
 219              	events_init:
 220              	.LFB219:
 221              		.loc 1 48 0
 222              		.cfi_startproc
 223              		@ args = 0, pretend = 0, frame = 0
 224              		@ frame_needed = 0, uses_anonymous_args = 0
 225              		.loc 1 49 0
 226 0000 0B48     		ldr	r0, .L17
 227              		.loc 1 48 0
 228 0002 10B5     		push	{r4, lr}
ARM GAS  /tmp/ccKFb8Yw.s 			page 5


 229              		.cfi_def_cfa_offset 8
 230              		.cfi_offset 4, -8
 231              		.cfi_offset 14, -4
 232              		.loc 1 49 0
 233 0004 FFF7FEFF 		bl	chMtxObjectInit
 234              	.LVL17:
 235              	.LBB31:
 236              		.loc 1 51 0
 237 0008 0023     		movs	r3, #0
 238 000a 0A48     		ldr	r0, .L17+4
 239              	.LBB32:
 240              		.loc 1 53 0
 241 000c 1946     		mov	r1, r3
 242              	.LVL18:
 243              	.L14:
 244              		.loc 1 53 0 is_stmt 0 discriminator 3
 245 000e 03EB8302 		add	r2, r3, r3, lsl #2
 246 0012 00EB8202 		add	r2, r0, r2, lsl #2
 247              	.LBE32:
 248              		.loc 1 51 0 is_stmt 1 discriminator 3
 249 0016 0133     		adds	r3, r3, #1
 250              	.LVL19:
 251 0018 1E2B     		cmp	r3, #30
 252              	.LBB33:
 253              		.loc 1 53 0 discriminator 3
 254 001a 1174     		strb	r1, [r2, #16]
 255              	.LBE33:
 256              		.loc 1 51 0 discriminator 3
 257 001c F7D1     		bne	.L14
 258              	.LBE31:
 259              		.loc 1 56 0
 260 001e 064B     		ldr	r3, .L17+8
 261              	.LVL20:
 262 0020 0649     		ldr	r1, .L17+12
 263 0022 0748     		ldr	r0, .L17+16
 264 0024 0022     		movs	r2, #0
 265              		.loc 1 61 0
 266 0026 BDE81040 		pop	{r4, lr}
 267              		.cfi_restore 14
 268              		.cfi_restore 4
 269              		.cfi_def_cfa_offset 0
 270              		.loc 1 56 0
 271 002a FFF7FEBF 		b	terminal_register_command_callback
 272              	.LVL21:
 273              	.L18:
 274 002e 00BF     		.align	2
 275              	.L17:
 276 0030 00000000 		.word	.LANCHOR2
 277 0034 00000000 		.word	.LANCHOR1
 278 0038 00000000 		.word	terminal_print
 279 003c 00000000 		.word	.LC6
 280 0040 1C000000 		.word	.LC7
 281              		.cfi_endproc
 282              	.LFE219:
 283              		.size	events_init, .-events_init
 284              		.section	.text.events_add,"ax",%progbits
 285              		.align	1
ARM GAS  /tmp/ccKFb8Yw.s 			page 6


 286              		.p2align 4,,15
 287              		.global	events_add
 288              		.syntax unified
 289              		.thumb
 290              		.thumb_func
 291              		.fpu fpv4-sp-d16
 292              		.type	events_add, %function
 293              	events_add:
 294              	.LFB220:
 295              		.loc 1 63 0
 296              		.cfi_startproc
 297              		@ args = 0, pretend = 0, frame = 0
 298              		@ frame_needed = 0, uses_anonymous_args = 0
 299              	.LVL22:
 300 0000 F8B5     		push	{r3, r4, r5, r6, r7, lr}
 301              		.cfi_def_cfa_offset 24
 302              		.cfi_offset 3, -24
 303              		.cfi_offset 4, -20
 304              		.cfi_offset 5, -16
 305              		.cfi_offset 6, -12
 306              		.cfi_offset 7, -8
 307              		.cfi_offset 14, -4
 308              		.loc 1 66 0
 309 0002 3C4D     		ldr	r5, .L26
 310              		.loc 1 63 0
 311 0004 2DED028B 		vpush.64	{d8}
 312              		.cfi_def_cfa_offset 32
 313              		.cfi_offset 80, -32
 314              		.cfi_offset 81, -28
 315              		.loc 1 63 0
 316 0008 0446     		mov	r4, r0
 317              		.loc 1 64 0
 318 000a 3B48     		ldr	r0, .L26+4
 319              	.LVL23:
 320              		.loc 1 63 0
 321 000c B0EE408A 		vmov.f32	s16, s0
 322              		.loc 1 64 0
 323 0010 FFF7FEFF 		bl	chMtxLock
 324              	.LVL24:
 325              		.loc 1 66 0
 326 0014 2868     		ldr	r0, [r5]
 327              	.LVL25:
 328              		.loc 1 69 0
 329 0016 461E     		subs	r6, r0, #1
 330              	.LVL26:
 331 0018 34D4     		bmi	.L23
 332 001a 384B     		ldr	r3, .L26+8
 333 001c 83FB0023 		smull	r2, r3, r3, r0
 334 0020 0344     		add	r3, r3, r0
 335 0022 C217     		asrs	r2, r0, #31
 336 0024 C2EB2313 		rsb	r3, r2, r3, asr #4
 337 0028 B100     		lsls	r1, r6, #2
 338 002a C3EB0313 		rsb	r3, r3, r3, lsl #4
 339 002e 8A19     		adds	r2, r1, r6
 340 0030 A0EB4303 		sub	r3, r0, r3, lsl #1
 341 0034 4FEA820C 		lsl	ip, r2, #2
 342              	.LVL27:
ARM GAS  /tmp/ccKFb8Yw.s 			page 7


 343              	.L20:
 344              		.loc 1 77 0
 345 0038 3144     		add	r1, r1, r6
 346 003a 8900     		lsls	r1, r1, #2
 347 003c 304A     		ldr	r2, .L26+12
 348 003e 3148     		ldr	r0, .L26+16
 349 0040 5658     		ldr	r6, [r2, r1]
 350 0042 8769     		ldr	r7, [r0, #24]
 351 0044 A642     		cmp	r6, r4
 352 0046 1144     		add	r1, r1, r2
 353 0048 22D0     		beq	.L25
 354              	.L21:
 355 004a 2C49     		ldr	r1, .L26+8
 356 004c 5E1C     		adds	r6, r3, #1
 357 004e A1FB06C1 		umull	ip, r1, r1, r6
 358              	.LVL28:
 359              		.loc 1 82 0
 360 0052 03EB830C 		add	ip, r3, r3, lsl #2
 361 0056 0B09     		lsrs	r3, r1, #4
 362 0058 C3EB0313 		rsb	r3, r3, r3, lsl #4
 363 005c A6EB4303 		sub	r3, r6, r3, lsl #1
 364 0060 02EB8C02 		add	r2, r2, ip, lsl #2
 365              	.LVL29:
 366              	.L22:
 367              		.loc 1 85 0
 368 0064 1460     		str	r4, [r2]
 369              		.loc 1 86 0
 370 0066 5760     		str	r7, [r2, #4]
 371              		.loc 1 87 0
 372 0068 82ED028A 		vstr.32	s16, [r2, #8]
 373              		.loc 1 95 0
 374 006c BDEC028B 		vldm	sp!, {d8}
 375              		.cfi_remember_state
 376              		.cfi_restore 80
 377              		.cfi_restore 81
 378              		.cfi_def_cfa_offset 24
 379              	.LVL30:
 380              	.LBB34:
 381              	.LBB35:
 382              		.loc 2 231 0
 383 0070 816A     		ldr	r1, [r0, #40]
 384              	.LBE35:
 385              	.LBE34:
 386              		.loc 1 88 0
 387 0072 D160     		str	r1, [r2, #12]
 388              	.LVL31:
 389              		.loc 1 89 0
 390 0074 0121     		movs	r1, #1
 391 0076 1174     		strb	r1, [r2, #16]
 392              		.loc 1 94 0
 393 0078 1F48     		ldr	r0, .L26+4
 394              		.loc 1 92 0
 395 007a 2B60     		str	r3, [r5]
 396              		.loc 1 95 0
 397 007c BDE8F840 		pop	{r3, r4, r5, r6, r7, lr}
 398              		.cfi_restore 14
 399              		.cfi_restore 7
ARM GAS  /tmp/ccKFb8Yw.s 			page 8


 400              		.cfi_restore 6
 401              		.cfi_restore 5
 402              		.cfi_restore 4
 403              		.cfi_restore 3
 404              		.cfi_def_cfa_offset 0
 405              	.LVL32:
 406              		.loc 1 94 0
 407 0080 FFF7FEBF 		b	chMtxUnlock
 408              	.LVL33:
 409              	.L23:
 410              		.cfi_restore_state
 411 0084 4FF4117C 		mov	ip, #580
 412 0088 0023     		movs	r3, #0
 413              	.LVL34:
 414              		.loc 1 70 0
 415 008a 1D26     		movs	r6, #29
 416 008c 7421     		movs	r1, #116
 417 008e D3E7     		b	.L20
 418              	.LVL35:
 419              	.L25:
 420              		.loc 1 78 0 discriminator 1
 421 0090 4E68     		ldr	r6, [r1, #4]
 422              		.loc 1 77 0 discriminator 1
 423 0092 BE42     		cmp	r6, r7
 424 0094 D9D1     		bne	.L21
 425              		.loc 1 79 0
 426 0096 D1F80CE0 		ldr	lr, [r1, #12]
 427              	.LVL36:
 428              	.LBB36:
 429              	.LBB37:
 430              	.LBB38:
 431              	.LBB39:
 432              		.loc 2 231 0
 433 009a 866A     		ldr	r6, [r0, #40]
 434              	.LVL37:
 435              	.LBE39:
 436              	.LBE38:
 437              	.LBE37:
 438              	.LBE36:
 439              		.loc 1 79 0
 440 009c 9FED1A6A 		vldr.32	s12, .L26+20
 441              		.loc 1 78 0
 442 00a0 9FED1A7A 		vldr.32	s14, .L26+24
 443              	.LBB41:
 444              	.LBB40:
 445              		.loc 2 267 0
 446 00a4 A6EB0E06 		sub	r6, r6, lr
 447              	.LBE40:
 448              	.LBE41:
 449              		.loc 1 79 0
 450 00a8 07EE906A 		vmov	s15, r6	@ int
 451 00ac F8EE677A 		vcvt.f32.u32	s15, s15
 452 00b0 C7EE866A 		vdiv.f32	s13, s15, s12
 453              		.loc 1 78 0
 454 00b4 F4EEC76A 		vcmpe.f32	s13, s14
 455 00b8 F1EE10FA 		vmrs	APSR_nzcv, FPSCR
 456 00bc C5DC     		bgt	.L21
ARM GAS  /tmp/ccKFb8Yw.s 			page 9


 457              		.loc 1 80 0
 458 00be D1ED027A 		vldr.32	s15, [r1, #8]
 459 00c2 9FED137A 		vldr.32	s14, .L26+28
 460 00c6 F0EEC86A 		vabs.f32	s13, s16
 461 00ca F4EEC76A 		vcmpe.f32	s13, s14
 462 00ce F0EEE77A 		vabs.f32	s15, s15
 463 00d2 F1EE10FA 		vmrs	APSR_nzcv, FPSCR
 464 00d6 F4EEC77A 		vcmpe.f32	s15, s14
 465 00da CCBF     		ite	gt
 466 00dc 0126     		movgt	r6, #1
 467 00de 0026     		movle	r6, #0
 468 00e0 F1EE10FA 		vmrs	APSR_nzcv, FPSCR
 469              		.loc 1 79 0
 470 00e4 CCBF     		ite	gt
 471 00e6 0121     		movgt	r1, #1
 472 00e8 0021     		movle	r1, #0
 473 00ea 8E42     		cmp	r6, r1
 474 00ec ADD1     		bne	.L21
 475              		.loc 1 72 0
 476 00ee 6244     		add	r2, r2, ip
 477 00f0 B8E7     		b	.L22
 478              	.L27:
 479 00f2 00BF     		.align	2
 480              	.L26:
 481 00f4 00000000 		.word	.LANCHOR0
 482 00f8 00000000 		.word	.LANCHOR2
 483 00fc 89888888 		.word	-2004318071
 484 0100 00000000 		.word	.LANCHOR1
 485 0104 00000000 		.word	ch
 486 0108 00401C46 		.word	1176256512
 487 010c CDCC4C3E 		.word	1045220557
 488 0110 17B7D138 		.word	953267991
 489              		.cfi_endproc
 490              	.LFE220:
 491              		.size	events_add, .-events_add
 492              		.section	.bss.m_event_now,"aw",%nobits
 493              		.align	2
 494              		.set	.LANCHOR0,. + 0
 495              		.type	m_event_now, %object
 496              		.size	m_event_now, 4
 497              	m_event_now:
 498 0000 00000000 		.space	4
 499              		.section	.bss.m_events,"aw",%nobits
 500              		.align	2
 501              		.set	.LANCHOR1,. + 0
 502              		.type	m_events, %object
 503              		.size	m_events, 600
 504              	m_events:
 505 0000 00000000 		.space	600
 505      00000000 
 505      00000000 
 505      00000000 
 505      00000000 
 506              		.section	.bss.m_mtx,"aw",%nobits
 507              		.align	2
 508              		.set	.LANCHOR2,. + 0
 509              		.type	m_mtx, %object
ARM GAS  /tmp/ccKFb8Yw.s 			page 10


 510              		.size	m_mtx, 16
 511              	m_mtx:
 512 0000 00000000 		.space	16
 512      00000000 
 512      00000000 
 512      00000000 
 513              		.section	.rodata.events_init.str1.4,"aMS",%progbits,1
 514              		.align	2
 515              	.LC6:
 516 0000 5072696E 		.ascii	"Print recent motor events\000"
 516      74207265 
 516      63656E74 
 516      206D6F74 
 516      6F722065 
 517 001a 0000     		.space	2
 518              	.LC7:
 519 001c 6576656E 		.ascii	"events\000"
 519      747300
 520              		.section	.rodata.terminal_print.str1.4,"aMS",%progbits,1
 521              		.align	2
 522              	.LC0:
 523 0000 41676520 		.ascii	"Age    : %.2f s\000"
 523      2020203A 
 523      20252E32 
 523      66207300 
 524              	.LC1:
 525 0010 54687265 		.ascii	"Thread : %s\000"
 525      6164203A 
 525      20257300 
 526              	.LC2:
 527 001c 4D6F746F 		.ascii	"Motor  : %i\000"
 527      7220203A 
 527      20256900 
 528              	.LC3:
 529 0028 436F6D6D 		.ascii	"Command: %s\000"
 529      616E643A 
 529      20257300 
 530              	.LC4:
 531 0034 50617261 		.ascii	"Param  : %.3f\012\000"
 531      6D20203A 
 531      20252E33 
 531      660A00
 532 0043 00       		.space	1
 533              	.LC5:
 534 0044 4576656E 		.ascii	"Events total: %d\012\000"
 534      74732074 
 534      6F74616C 
 534      3A202564 
 534      0A00
 535              		.text
 536              	.Letext0:
 537              		.file 3 "/usr/arm-none-eabi/include/machine/_default_types.h"
 538              		.file 4 "/usr/arm-none-eabi/include/sys/_stdint.h"
 539              		.file 5 "/usr/lib/gcc/arm-none-eabi/7.3.1/include/stddef.h"
 540              		.file 6 "ChibiOS_3.0.5/os/rt/ports/ARMCMx/compilers/GCC/chtypes.h"
 541              		.file 7 "ChibiOS_3.0.5/os/rt/include/chsystypes.h"
 542              		.file 8 "ChibiOS_3.0.5/os/rt/include/chschd.h"
ARM GAS  /tmp/ccKFb8Yw.s 			page 11


 543              		.file 9 "ChibiOS_3.0.5/os/ext/CMSIS/include/core_cm4.h"
 544              		.file 10 "ChibiOS_3.0.5/os/ext/CMSIS/ST/system_stm32f4xx.h"
 545              		.file 11 "ChibiOS_3.0.5/os/rt/ports/ARMCMx/chcore.h"
 546              		.file 12 "ChibiOS_3.0.5/os/rt/ports/ARMCMx/chcore_v7m.h"
 547              		.file 13 "ChibiOS_3.0.5/os/rt/include/chtm.h"
 548              		.file 14 "ChibiOS_3.0.5/os/rt/include/chsem.h"
 549              		.file 15 "ChibiOS_3.0.5/os/rt/include/chmtx.h"
 550              		.file 16 "ChibiOS_3.0.5/os/rt/include/chregistry.h"
 551              		.file 17 "commands.h"
 552              		.file 18 "utils.h"
 553              		.file 19 "/usr/arm-none-eabi/include/sys/lock.h"
 554              		.file 20 "/usr/arm-none-eabi/include/sys/_types.h"
 555              		.file 21 "/usr/arm-none-eabi/include/sys/reent.h"
 556              		.file 22 "/usr/arm-none-eabi/include/math.h"
 557              		.file 23 "ChibiOS_3.0.5/os/rt/include/chthreads.h"
 558              		.file 24 "terminal.h"
 559              		.section	.debug_info,"",%progbits
 560              	.Ldebug_info0:
 561 0000 90140000 		.4byte	0x1490
 562 0004 0400     		.2byte	0x4
 563 0006 00000000 		.4byte	.Ldebug_abbrev0
 564 000a 04       		.byte	0x4
 565 000b 01       		.uleb128 0x1
 566 000c E0020000 		.4byte	.LASF275
 567 0010 0C       		.byte	0xc
 568 0011 36050000 		.4byte	.LASF276
 569 0015 D7070000 		.4byte	.LASF277
 570 0019 88000000 		.4byte	.Ldebug_ranges0+0x88
 571 001d 00000000 		.4byte	0
 572 0021 00000000 		.4byte	.Ldebug_line0
 573 0025 02       		.uleb128 0x2
 574 0026 08       		.byte	0x8
 575 0027 07       		.byte	0x7
 576 0028 15040000 		.4byte	.LASF0
 577 002c 02       		.uleb128 0x2
 578 002d 04       		.byte	0x4
 579 002e 07       		.byte	0x7
 580 002f EB000000 		.4byte	.LASF1
 581 0033 03       		.uleb128 0x3
 582 0034 04       		.byte	0x4
 583 0035 05       		.byte	0x5
 584 0036 696E7400 		.ascii	"int\000"
 585 003a 02       		.uleb128 0x2
 586 003b 04       		.byte	0x4
 587 003c 04       		.byte	0x4
 588 003d 8C020000 		.4byte	.LASF2
 589 0041 02       		.uleb128 0x2
 590 0042 01       		.byte	0x1
 591 0043 06       		.byte	0x6
 592 0044 1B0B0000 		.4byte	.LASF3
 593 0048 04       		.uleb128 0x4
 594 0049 51090000 		.4byte	.LASF6
 595 004d 03       		.byte	0x3
 596 004e 2B       		.byte	0x2b
 597 004f 53000000 		.4byte	0x53
 598 0053 02       		.uleb128 0x2
 599 0054 01       		.byte	0x1
ARM GAS  /tmp/ccKFb8Yw.s 			page 12


 600 0055 08       		.byte	0x8
 601 0056 360A0000 		.4byte	.LASF4
 602 005a 02       		.uleb128 0x2
 603 005b 02       		.byte	0x2
 604 005c 05       		.byte	0x5
 605 005d 4D080000 		.4byte	.LASF5
 606 0061 04       		.uleb128 0x4
 607 0062 5E040000 		.4byte	.LASF7
 608 0066 03       		.byte	0x3
 609 0067 39       		.byte	0x39
 610 0068 6C000000 		.4byte	0x6c
 611 006c 02       		.uleb128 0x2
 612 006d 02       		.byte	0x2
 613 006e 07       		.byte	0x7
 614 006f 3B0B0000 		.4byte	.LASF8
 615 0073 04       		.uleb128 0x4
 616 0074 34010000 		.4byte	.LASF9
 617 0078 03       		.byte	0x3
 618 0079 4D       		.byte	0x4d
 619 007a 7E000000 		.4byte	0x7e
 620 007e 02       		.uleb128 0x2
 621 007f 04       		.byte	0x4
 622 0080 05       		.byte	0x5
 623 0081 74080000 		.4byte	.LASF10
 624 0085 04       		.uleb128 0x4
 625 0086 440A0000 		.4byte	.LASF11
 626 008a 03       		.byte	0x3
 627 008b 4F       		.byte	0x4f
 628 008c 90000000 		.4byte	0x90
 629 0090 02       		.uleb128 0x2
 630 0091 04       		.byte	0x4
 631 0092 07       		.byte	0x7
 632 0093 A4090000 		.4byte	.LASF12
 633 0097 02       		.uleb128 0x2
 634 0098 08       		.byte	0x8
 635 0099 05       		.byte	0x5
 636 009a 22060000 		.4byte	.LASF13
 637 009e 04       		.uleb128 0x4
 638 009f 53050000 		.4byte	.LASF14
 639 00a3 03       		.byte	0x3
 640 00a4 69       		.byte	0x69
 641 00a5 25000000 		.4byte	0x25
 642 00a9 05       		.uleb128 0x5
 643 00aa 33000000 		.4byte	0x33
 644 00ae 04       		.uleb128 0x4
 645 00af 51060000 		.4byte	.LASF15
 646 00b3 04       		.byte	0x4
 647 00b4 18       		.byte	0x18
 648 00b5 48000000 		.4byte	0x48
 649 00b9 04       		.uleb128 0x4
 650 00ba F3070000 		.4byte	.LASF16
 651 00be 04       		.byte	0x4
 652 00bf 24       		.byte	0x24
 653 00c0 61000000 		.4byte	0x61
 654 00c4 04       		.uleb128 0x4
 655 00c5 D1090000 		.4byte	.LASF17
 656 00c9 04       		.byte	0x4
ARM GAS  /tmp/ccKFb8Yw.s 			page 13


 657 00ca 2C       		.byte	0x2c
 658 00cb 73000000 		.4byte	0x73
 659 00cf 05       		.uleb128 0x5
 660 00d0 C4000000 		.4byte	0xc4
 661 00d4 04       		.uleb128 0x4
 662 00d5 4E020000 		.4byte	.LASF18
 663 00d9 04       		.byte	0x4
 664 00da 30       		.byte	0x30
 665 00db 85000000 		.4byte	0x85
 666 00df 04       		.uleb128 0x4
 667 00e0 EA080000 		.4byte	.LASF19
 668 00e4 04       		.byte	0x4
 669 00e5 3C       		.byte	0x3c
 670 00e6 9E000000 		.4byte	0x9e
 671 00ea 04       		.uleb128 0x4
 672 00eb EA040000 		.4byte	.LASF20
 673 00ef 05       		.byte	0x5
 674 00f0 D8       		.byte	0xd8
 675 00f1 2C000000 		.4byte	0x2c
 676 00f5 04       		.uleb128 0x4
 677 00f6 16080000 		.4byte	.LASF21
 678 00fa 06       		.byte	0x6
 679 00fb 45       		.byte	0x45
 680 00fc D4000000 		.4byte	0xd4
 681 0100 04       		.uleb128 0x4
 682 0101 BC070000 		.4byte	.LASF22
 683 0105 06       		.byte	0x6
 684 0106 48       		.byte	0x48
 685 0107 AE000000 		.4byte	0xae
 686 010b 04       		.uleb128 0x4
 687 010c 0F060000 		.4byte	.LASF23
 688 0110 06       		.byte	0x6
 689 0111 49       		.byte	0x49
 690 0112 AE000000 		.4byte	0xae
 691 0116 04       		.uleb128 0x4
 692 0117 9C090000 		.4byte	.LASF24
 693 011b 06       		.byte	0x6
 694 011c 4A       		.byte	0x4a
 695 011d AE000000 		.4byte	0xae
 696 0121 04       		.uleb128 0x4
 697 0122 93070000 		.4byte	.LASF25
 698 0126 06       		.byte	0x6
 699 0127 4B       		.byte	0x4b
 700 0128 AE000000 		.4byte	0xae
 701 012c 04       		.uleb128 0x4
 702 012d B1020000 		.4byte	.LASF26
 703 0131 06       		.byte	0x6
 704 0132 4C       		.byte	0x4c
 705 0133 D4000000 		.4byte	0xd4
 706 0137 04       		.uleb128 0x4
 707 0138 00070000 		.4byte	.LASF27
 708 013c 06       		.byte	0x6
 709 013d 4D       		.byte	0x4d
 710 013e C4000000 		.4byte	0xc4
 711 0142 04       		.uleb128 0x4
 712 0143 6D020000 		.4byte	.LASF28
 713 0147 06       		.byte	0x6
ARM GAS  /tmp/ccKFb8Yw.s 			page 14


 714 0148 4F       		.byte	0x4f
 715 0149 D4000000 		.4byte	0xd4
 716 014d 04       		.uleb128 0x4
 717 014e 69040000 		.4byte	.LASF29
 718 0152 06       		.byte	0x6
 719 0153 51       		.byte	0x51
 720 0154 C4000000 		.4byte	0xc4
 721 0158 04       		.uleb128 0x4
 722 0159 98000000 		.4byte	.LASF30
 723 015d 07       		.byte	0x7
 724 015e 33       		.byte	0x33
 725 015f D4000000 		.4byte	0xd4
 726 0163 05       		.uleb128 0x5
 727 0164 58010000 		.4byte	0x158
 728 0168 04       		.uleb128 0x4
 729 0169 E1040000 		.4byte	.LASF31
 730 016d 07       		.byte	0x7
 731 016e 3F       		.byte	0x3f
 732 016f 73010000 		.4byte	0x173
 733 0173 06       		.uleb128 0x6
 734 0174 8C060000 		.4byte	.LASF55
 735 0178 50       		.byte	0x50
 736 0179 08       		.byte	0x8
 737 017a C2       		.byte	0xc2
 738 017b 91020000 		.4byte	0x291
 739 017f 07       		.uleb128 0x7
 740 0180 D6080000 		.4byte	.LASF32
 741 0184 08       		.byte	0x8
 742 0185 C3       		.byte	0xc3
 743 0186 9C020000 		.4byte	0x29c
 744 018a 00       		.byte	0
 745 018b 07       		.uleb128 0x7
 746 018c 95090000 		.4byte	.LASF33
 747 0190 08       		.byte	0x8
 748 0191 C5       		.byte	0xc5
 749 0192 9C020000 		.4byte	0x29c
 750 0196 04       		.byte	0x4
 751 0197 07       		.uleb128 0x7
 752 0198 75000000 		.4byte	.LASF34
 753 019c 08       		.byte	0x8
 754 019d C7       		.byte	0xc7
 755 019e 2C010000 		.4byte	0x12c
 756 01a2 08       		.byte	0x8
 757 01a3 07       		.uleb128 0x7
 758 01a4 F3080000 		.4byte	.LASF35
 759 01a8 08       		.byte	0x8
 760 01a9 C8       		.byte	0xc8
 761 01aa DC040000 		.4byte	0x4dc
 762 01ae 0C       		.byte	0xc
 763 01af 07       		.uleb128 0x7
 764 01b0 AF040000 		.4byte	.LASF36
 765 01b4 08       		.byte	0x8
 766 01b5 CA       		.byte	0xca
 767 01b6 9C020000 		.4byte	0x29c
 768 01ba 10       		.byte	0x10
 769 01bb 07       		.uleb128 0x7
 770 01bc 30060000 		.4byte	.LASF37
ARM GAS  /tmp/ccKFb8Yw.s 			page 15


 771 01c0 08       		.byte	0x8
 772 01c1 CB       		.byte	0xcb
 773 01c2 9C020000 		.4byte	0x29c
 774 01c6 14       		.byte	0x14
 775 01c7 07       		.uleb128 0x7
 776 01c8 A7050000 		.4byte	.LASF38
 777 01cc 08       		.byte	0x8
 778 01cd D2       		.byte	0xd2
 779 01ce 21070000 		.4byte	0x721
 780 01d2 18       		.byte	0x18
 781 01d3 07       		.uleb128 0x7
 782 01d4 40060000 		.4byte	.LASF39
 783 01d8 08       		.byte	0x8
 784 01d9 D8       		.byte	0xd8
 785 01da 38070000 		.4byte	0x738
 786 01de 1C       		.byte	0x1c
 787 01df 07       		.uleb128 0x7
 788 01e0 38060000 		.4byte	.LASF40
 789 01e4 08       		.byte	0x8
 790 01e5 DD       		.byte	0xdd
 791 01e6 0B010000 		.4byte	0x10b
 792 01ea 20       		.byte	0x20
 793 01eb 07       		.uleb128 0x7
 794 01ec 31070000 		.4byte	.LASF41
 795 01f0 08       		.byte	0x8
 796 01f1 E1       		.byte	0xe1
 797 01f2 00010000 		.4byte	0x100
 798 01f6 21       		.byte	0x21
 799 01f7 07       		.uleb128 0x7
 800 01f8 650A0000 		.4byte	.LASF42
 801 01fc 08       		.byte	0x8
 802 01fd E6       		.byte	0xe6
 803 01fe 16010000 		.4byte	0x116
 804 0202 22       		.byte	0x22
 805 0203 07       		.uleb128 0x7
 806 0204 8E0A0000 		.4byte	.LASF43
 807 0208 08       		.byte	0x8
 808 0209 EC       		.byte	0xec
 809 020a 21010000 		.4byte	0x121
 810 020e 23       		.byte	0x23
 811 020f 07       		.uleb128 0x7
 812 0210 60000000 		.4byte	.LASF44
 813 0214 08       		.byte	0x8
 814 0215 F3       		.byte	0xf3
 815 0216 63010000 		.4byte	0x163
 816 021a 24       		.byte	0x24
 817 021b 08       		.uleb128 0x8
 818 021c 705F7500 		.ascii	"p_u\000"
 819 0220 08       		.byte	0x8
 820 0221 3101     		.2byte	0x131
 821 0223 5C060000 		.4byte	0x65c
 822 0227 28       		.byte	0x28
 823 0228 09       		.uleb128 0x9
 824 0229 2A010000 		.4byte	.LASF45
 825 022d 08       		.byte	0x8
 826 022e 3601     		.2byte	0x136
 827 0230 A2020000 		.4byte	0x2a2
ARM GAS  /tmp/ccKFb8Yw.s 			page 16


 828 0234 2C       		.byte	0x2c
 829 0235 09       		.uleb128 0x9
 830 0236 D4000000 		.4byte	.LASF46
 831 023a 08       		.byte	0x8
 832 023b 3C01     		.2byte	0x13c
 833 023d C6020000 		.4byte	0x2c6
 834 0241 30       		.byte	0x30
 835 0242 09       		.uleb128 0x9
 836 0243 B6070000 		.4byte	.LASF47
 837 0247 08       		.byte	0x8
 838 0248 4001     		.2byte	0x140
 839 024a 37010000 		.4byte	0x137
 840 024e 38       		.byte	0x38
 841 024f 09       		.uleb128 0x9
 842 0250 61080000 		.4byte	.LASF48
 843 0254 08       		.byte	0x8
 844 0255 4601     		.2byte	0x146
 845 0257 42010000 		.4byte	0x142
 846 025b 3C       		.byte	0x3c
 847 025c 09       		.uleb128 0x9
 848 025d 77060000 		.4byte	.LASF49
 849 0261 08       		.byte	0x8
 850 0262 4D01     		.2byte	0x14d
 851 0264 1B070000 		.4byte	0x71b
 852 0268 40       		.byte	0x40
 853 0269 09       		.uleb128 0x9
 854 026a 37080000 		.4byte	.LASF50
 855 026e 08       		.byte	0x8
 856 026f 5101     		.2byte	0x151
 857 0271 2C010000 		.4byte	0x12c
 858 0275 44       		.byte	0x44
 859 0276 09       		.uleb128 0x9
 860 0277 60060000 		.4byte	.LASF51
 861 027b 08       		.byte	0x8
 862 027c 5801     		.2byte	0x158
 863 027e 79030000 		.4byte	0x379
 864 0282 48       		.byte	0x48
 865 0283 09       		.uleb128 0x9
 866 0284 7C010000 		.4byte	.LASF52
 867 0288 08       		.byte	0x8
 868 0289 6201     		.2byte	0x162
 869 028b 33000000 		.4byte	0x33
 870 028f 4C       		.byte	0x4c
 871 0290 00       		.byte	0
 872 0291 04       		.uleb128 0x4
 873 0292 FC070000 		.4byte	.LASF53
 874 0296 07       		.byte	0x7
 875 0297 44       		.byte	0x44
 876 0298 9C020000 		.4byte	0x29c
 877 029c 0A       		.uleb128 0xa
 878 029d 04       		.byte	0x4
 879 029e 68010000 		.4byte	0x168
 880 02a2 04       		.uleb128 0x4
 881 02a3 0B010000 		.4byte	.LASF54
 882 02a7 07       		.byte	0x7
 883 02a8 49       		.byte	0x49
 884 02a9 AD020000 		.4byte	0x2ad
ARM GAS  /tmp/ccKFb8Yw.s 			page 17


 885 02ad 06       		.uleb128 0x6
 886 02ae 00000000 		.4byte	.LASF56
 887 02b2 04       		.byte	0x4
 888 02b3 08       		.byte	0x8
 889 02b4 B0       		.byte	0xb0
 890 02b5 C6020000 		.4byte	0x2c6
 891 02b9 07       		.uleb128 0x7
 892 02ba D6080000 		.4byte	.LASF32
 893 02be 08       		.byte	0x8
 894 02bf B1       		.byte	0xb1
 895 02c0 9C020000 		.4byte	0x29c
 896 02c4 00       		.byte	0
 897 02c5 00       		.byte	0
 898 02c6 04       		.uleb128 0x4
 899 02c7 19000000 		.4byte	.LASF57
 900 02cb 07       		.byte	0x7
 901 02cc 50       		.byte	0x50
 902 02cd D1020000 		.4byte	0x2d1
 903 02d1 06       		.uleb128 0x6
 904 02d2 C5060000 		.4byte	.LASF58
 905 02d6 08       		.byte	0x8
 906 02d7 08       		.byte	0x8
 907 02d8 B7       		.byte	0xb7
 908 02d9 F6020000 		.4byte	0x2f6
 909 02dd 07       		.uleb128 0x7
 910 02de D6080000 		.4byte	.LASF32
 911 02e2 08       		.byte	0x8
 912 02e3 B8       		.byte	0xb8
 913 02e4 9C020000 		.4byte	0x29c
 914 02e8 00       		.byte	0
 915 02e9 07       		.uleb128 0x7
 916 02ea 95090000 		.4byte	.LASF33
 917 02ee 08       		.byte	0x8
 918 02ef B9       		.byte	0xb9
 919 02f0 9C020000 		.4byte	0x29c
 920 02f4 04       		.byte	0x4
 921 02f5 00       		.byte	0
 922 02f6 04       		.uleb128 0x4
 923 02f7 B6090000 		.4byte	.LASF59
 924 02fb 07       		.byte	0x7
 925 02fc 57       		.byte	0x57
 926 02fd 01030000 		.4byte	0x301
 927 0301 0B       		.uleb128 0xb
 928 0302 5F010000 		.4byte	.LASF60
 929 0306 1C       		.byte	0x1c
 930 0307 08       		.byte	0x8
 931 0308 9001     		.2byte	0x190
 932 030a 5D030000 		.4byte	0x35d
 933 030e 09       		.uleb128 0x9
 934 030f DC060000 		.4byte	.LASF61
 935 0313 08       		.byte	0x8
 936 0314 9101     		.2byte	0x191
 937 0316 C6020000 		.4byte	0x2c6
 938 031a 00       		.byte	0
 939 031b 09       		.uleb128 0x9
 940 031c 79020000 		.4byte	.LASF62
 941 0320 08       		.byte	0x8
ARM GAS  /tmp/ccKFb8Yw.s 			page 18


 942 0321 9201     		.2byte	0x192
 943 0323 2C010000 		.4byte	0x12c
 944 0327 08       		.byte	0x8
 945 0328 09       		.uleb128 0x9
 946 0329 4E0B0000 		.4byte	.LASF63
 947 032d 08       		.byte	0x8
 948 032e 9401     		.2byte	0x194
 949 0330 DC040000 		.4byte	0x4dc
 950 0334 0C       		.byte	0xc
 951 0335 09       		.uleb128 0x9
 952 0336 07060000 		.4byte	.LASF64
 953 033a 08       		.byte	0x8
 954 033b 9701     		.2byte	0x197
 955 033d 9C020000 		.4byte	0x29c
 956 0341 10       		.byte	0x10
 957 0342 09       		.uleb128 0x9
 958 0343 9D070000 		.4byte	.LASF65
 959 0347 08       		.byte	0x8
 960 0348 9801     		.2byte	0x198
 961 034a 9C020000 		.4byte	0x29c
 962 034e 14       		.byte	0x14
 963 034f 09       		.uleb128 0x9
 964 0350 57080000 		.4byte	.LASF66
 965 0354 08       		.byte	0x8
 966 0355 9B01     		.2byte	0x19b
 967 0357 9C020000 		.4byte	0x29c
 968 035b 18       		.byte	0x18
 969 035c 00       		.byte	0
 970 035d 04       		.uleb128 0x4
 971 035e E4010000 		.4byte	.LASF67
 972 0362 07       		.byte	0x7
 973 0363 5C       		.byte	0x5c
 974 0364 68030000 		.4byte	0x368
 975 0368 0A       		.uleb128 0xa
 976 0369 04       		.byte	0x4
 977 036a 6E030000 		.4byte	0x36e
 978 036e 0C       		.uleb128 0xc
 979 036f 79030000 		.4byte	0x379
 980 0373 0D       		.uleb128 0xd
 981 0374 79030000 		.4byte	0x379
 982 0378 00       		.byte	0
 983 0379 0E       		.uleb128 0xe
 984 037a 04       		.byte	0x4
 985 037b 04       		.uleb128 0x4
 986 037c 39070000 		.4byte	.LASF68
 987 0380 07       		.byte	0x7
 988 0381 61       		.byte	0x61
 989 0382 86030000 		.4byte	0x386
 990 0386 0B       		.uleb128 0xb
 991 0387 C0020000 		.4byte	.LASF69
 992 038b 14       		.byte	0x14
 993 038c 08       		.byte	0x8
 994 038d 6B01     		.2byte	0x16b
 995 038f D5030000 		.4byte	0x3d5
 996 0393 09       		.uleb128 0x9
 997 0394 B00A0000 		.4byte	.LASF70
 998 0398 08       		.byte	0x8
ARM GAS  /tmp/ccKFb8Yw.s 			page 19


 999 0399 6C01     		.2byte	0x16c
 1000 039b 3E070000 		.4byte	0x73e
 1001 039f 00       		.byte	0
 1002 03a0 09       		.uleb128 0x9
 1003 03a1 CE0B0000 		.4byte	.LASF71
 1004 03a5 08       		.byte	0x8
 1005 03a6 6D01     		.2byte	0x16d
 1006 03a8 3E070000 		.4byte	0x73e
 1007 03ac 04       		.byte	0x4
 1008 03ad 09       		.uleb128 0x9
 1009 03ae D2050000 		.4byte	.LASF72
 1010 03b2 08       		.byte	0x8
 1011 03b3 6E01     		.2byte	0x16e
 1012 03b5 58010000 		.4byte	0x158
 1013 03b9 08       		.byte	0x8
 1014 03ba 09       		.uleb128 0x9
 1015 03bb 930B0000 		.4byte	.LASF73
 1016 03bf 08       		.byte	0x8
 1017 03c0 6F01     		.2byte	0x16f
 1018 03c2 5D030000 		.4byte	0x35d
 1019 03c6 0C       		.byte	0xc
 1020 03c7 09       		.uleb128 0x9
 1021 03c8 85020000 		.4byte	.LASF74
 1022 03cc 08       		.byte	0x8
 1023 03cd 7101     		.2byte	0x171
 1024 03cf 79030000 		.4byte	0x379
 1025 03d3 10       		.byte	0x10
 1026 03d4 00       		.byte	0
 1027 03d5 04       		.uleb128 0x4
 1028 03d6 4F0A0000 		.4byte	.LASF75
 1029 03da 07       		.byte	0x7
 1030 03db 66       		.byte	0x66
 1031 03dc E0030000 		.4byte	0x3e0
 1032 03e0 0B       		.uleb128 0xb
 1033 03e1 B7040000 		.4byte	.LASF76
 1034 03e5 10       		.byte	0x10
 1035 03e6 08       		.byte	0x8
 1036 03e7 7B01     		.2byte	0x17b
 1037 03e9 22040000 		.4byte	0x422
 1038 03ed 09       		.uleb128 0x9
 1039 03ee B00A0000 		.4byte	.LASF70
 1040 03f2 08       		.byte	0x8
 1041 03f3 7C01     		.2byte	0x17c
 1042 03f5 3E070000 		.4byte	0x73e
 1043 03f9 00       		.byte	0
 1044 03fa 09       		.uleb128 0x9
 1045 03fb CE0B0000 		.4byte	.LASF71
 1046 03ff 08       		.byte	0x8
 1047 0400 7E01     		.2byte	0x17e
 1048 0402 3E070000 		.4byte	0x73e
 1049 0406 04       		.byte	0x4
 1050 0407 09       		.uleb128 0x9
 1051 0408 D2050000 		.4byte	.LASF72
 1052 040c 08       		.byte	0x8
 1053 040d 8001     		.2byte	0x180
 1054 040f 58010000 		.4byte	0x158
 1055 0413 08       		.byte	0x8
ARM GAS  /tmp/ccKFb8Yw.s 			page 20


 1056 0414 09       		.uleb128 0x9
 1057 0415 C9000000 		.4byte	.LASF77
 1058 0419 08       		.byte	0x8
 1059 041a 8201     		.2byte	0x182
 1060 041c 63010000 		.4byte	0x163
 1061 0420 0C       		.byte	0xc
 1062 0421 00       		.byte	0
 1063 0422 04       		.uleb128 0x4
 1064 0423 A0060000 		.4byte	.LASF78
 1065 0427 07       		.byte	0x7
 1066 0428 6B       		.byte	0x6b
 1067 0429 2D040000 		.4byte	0x42d
 1068 042d 0B       		.uleb128 0xb
 1069 042e 24020000 		.4byte	.LASF79
 1070 0432 04       		.byte	0x4
 1071 0433 08       		.byte	0x8
 1072 0434 A201     		.2byte	0x1a2
 1073 0436 48040000 		.4byte	0x448
 1074 043a 09       		.uleb128 0x9
 1075 043b 6C0A0000 		.4byte	.LASF80
 1076 043f 08       		.byte	0x8
 1077 0440 AA01     		.2byte	0x1aa
 1078 0442 27070000 		.4byte	0x727
 1079 0446 00       		.byte	0
 1080 0447 00       		.byte	0
 1081 0448 04       		.uleb128 0x4
 1082 0449 CF0A0000 		.4byte	.LASF81
 1083 044d 07       		.byte	0x7
 1084 044e 70       		.byte	0x70
 1085 044f 53040000 		.4byte	0x453
 1086 0453 0F       		.uleb128 0xf
 1087 0454 B1080000 		.4byte	.LASF82
 1088 0458 6802     		.2byte	0x268
 1089 045a 08       		.byte	0x8
 1090 045b C201     		.2byte	0x1c2
 1091 045d AF040000 		.4byte	0x4af
 1092 0461 09       		.uleb128 0x9
 1093 0462 03090000 		.4byte	.LASF83
 1094 0466 08       		.byte	0x8
 1095 0467 C601     		.2byte	0x1c6
 1096 0469 F6020000 		.4byte	0x2f6
 1097 046d 00       		.byte	0
 1098 046e 09       		.uleb128 0x9
 1099 046f 58010000 		.4byte	.LASF84
 1100 0473 08       		.byte	0x8
 1101 0474 CA01     		.2byte	0x1ca
 1102 0476 D5030000 		.4byte	0x3d5
 1103 047a 1C       		.byte	0x1c
 1104 047b 08       		.uleb128 0x8
 1105 047c 64626700 		.ascii	"dbg\000"
 1106 0480 08       		.byte	0x8
 1107 0481 CE01     		.2byte	0x1ce
 1108 0483 22040000 		.4byte	0x422
 1109 0487 2C       		.byte	0x2c
 1110 0488 09       		.uleb128 0x9
 1111 0489 CC070000 		.4byte	.LASF85
 1112 048d 08       		.byte	0x8
ARM GAS  /tmp/ccKFb8Yw.s 			page 21


 1113 048e D201     		.2byte	0x1d2
 1114 0490 68010000 		.4byte	0x168
 1115 0494 30       		.byte	0x30
 1116 0495 08       		.uleb128 0x8
 1117 0496 746D00   		.ascii	"tm\000"
 1118 0499 08       		.byte	0x8
 1119 049a D701     		.2byte	0x1d7
 1120 049c 51060000 		.4byte	0x651
 1121 04a0 80       		.byte	0x80
 1122 04a1 09       		.uleb128 0x9
 1123 04a2 6D010000 		.4byte	.LASF86
 1124 04a6 08       		.byte	0x8
 1125 04a7 E301     		.2byte	0x1e3
 1126 04a9 44070000 		.4byte	0x744
 1127 04ad 88       		.byte	0x88
 1128 04ae 00       		.byte	0
 1129 04af 10       		.uleb128 0x10
 1130 04b0 95080000 		.4byte	.LASF87
 1131 04b4 09       		.byte	0x9
 1132 04b5 A706     		.2byte	0x6a7
 1133 04b7 CF000000 		.4byte	0xcf
 1134 04bb 11       		.uleb128 0x11
 1135 04bc 29000000 		.4byte	.LASF88
 1136 04c0 0A       		.byte	0xa
 1137 04c1 4C       		.byte	0x4c
 1138 04c2 D4000000 		.4byte	0xd4
 1139 04c6 04       		.uleb128 0x4
 1140 04c7 6C000000 		.4byte	.LASF89
 1141 04cb 0B       		.byte	0xb
 1142 04cc 65       		.byte	0x65
 1143 04cd 79030000 		.4byte	0x379
 1144 04d1 04       		.uleb128 0x4
 1145 04d2 640B0000 		.4byte	.LASF90
 1146 04d6 0B       		.byte	0xb
 1147 04d7 6D       		.byte	0x6d
 1148 04d8 DF000000 		.4byte	0xdf
 1149 04dc 06       		.uleb128 0x6
 1150 04dd 14070000 		.4byte	.LASF91
 1151 04e1 04       		.byte	0x4
 1152 04e2 0B       		.byte	0xb
 1153 04e3 89       		.byte	0x89
 1154 04e4 F5040000 		.4byte	0x4f5
 1155 04e8 12       		.uleb128 0x12
 1156 04e9 72313300 		.ascii	"r13\000"
 1157 04ed 0B       		.byte	0xb
 1158 04ee 8A       		.byte	0x8a
 1159 04ef 36060000 		.4byte	0x636
 1160 04f3 00       		.byte	0
 1161 04f4 00       		.byte	0
 1162 04f5 06       		.uleb128 0x6
 1163 04f6 7D080000 		.4byte	.LASF92
 1164 04fa 64       		.byte	0x64
 1165 04fb 0C       		.byte	0xc
 1166 04fc F4       		.byte	0xf4
 1167 04fd 36060000 		.4byte	0x636
 1168 0501 12       		.uleb128 0x12
 1169 0502 73313600 		.ascii	"s16\000"
ARM GAS  /tmp/ccKFb8Yw.s 			page 22


 1170 0506 0C       		.byte	0xc
 1171 0507 F6       		.byte	0xf6
 1172 0508 C6040000 		.4byte	0x4c6
 1173 050c 00       		.byte	0
 1174 050d 12       		.uleb128 0x12
 1175 050e 73313700 		.ascii	"s17\000"
 1176 0512 0C       		.byte	0xc
 1177 0513 F7       		.byte	0xf7
 1178 0514 C6040000 		.4byte	0x4c6
 1179 0518 04       		.byte	0x4
 1180 0519 12       		.uleb128 0x12
 1181 051a 73313800 		.ascii	"s18\000"
 1182 051e 0C       		.byte	0xc
 1183 051f F8       		.byte	0xf8
 1184 0520 C6040000 		.4byte	0x4c6
 1185 0524 08       		.byte	0x8
 1186 0525 12       		.uleb128 0x12
 1187 0526 73313900 		.ascii	"s19\000"
 1188 052a 0C       		.byte	0xc
 1189 052b F9       		.byte	0xf9
 1190 052c C6040000 		.4byte	0x4c6
 1191 0530 0C       		.byte	0xc
 1192 0531 12       		.uleb128 0x12
 1193 0532 73323000 		.ascii	"s20\000"
 1194 0536 0C       		.byte	0xc
 1195 0537 FA       		.byte	0xfa
 1196 0538 C6040000 		.4byte	0x4c6
 1197 053c 10       		.byte	0x10
 1198 053d 12       		.uleb128 0x12
 1199 053e 73323100 		.ascii	"s21\000"
 1200 0542 0C       		.byte	0xc
 1201 0543 FB       		.byte	0xfb
 1202 0544 C6040000 		.4byte	0x4c6
 1203 0548 14       		.byte	0x14
 1204 0549 12       		.uleb128 0x12
 1205 054a 73323200 		.ascii	"s22\000"
 1206 054e 0C       		.byte	0xc
 1207 054f FC       		.byte	0xfc
 1208 0550 C6040000 		.4byte	0x4c6
 1209 0554 18       		.byte	0x18
 1210 0555 12       		.uleb128 0x12
 1211 0556 73323300 		.ascii	"s23\000"
 1212 055a 0C       		.byte	0xc
 1213 055b FD       		.byte	0xfd
 1214 055c C6040000 		.4byte	0x4c6
 1215 0560 1C       		.byte	0x1c
 1216 0561 12       		.uleb128 0x12
 1217 0562 73323400 		.ascii	"s24\000"
 1218 0566 0C       		.byte	0xc
 1219 0567 FE       		.byte	0xfe
 1220 0568 C6040000 		.4byte	0x4c6
 1221 056c 20       		.byte	0x20
 1222 056d 12       		.uleb128 0x12
 1223 056e 73323500 		.ascii	"s25\000"
 1224 0572 0C       		.byte	0xc
 1225 0573 FF       		.byte	0xff
 1226 0574 C6040000 		.4byte	0x4c6
ARM GAS  /tmp/ccKFb8Yw.s 			page 23


 1227 0578 24       		.byte	0x24
 1228 0579 08       		.uleb128 0x8
 1229 057a 73323600 		.ascii	"s26\000"
 1230 057e 0C       		.byte	0xc
 1231 057f 0001     		.2byte	0x100
 1232 0581 C6040000 		.4byte	0x4c6
 1233 0585 28       		.byte	0x28
 1234 0586 08       		.uleb128 0x8
 1235 0587 73323700 		.ascii	"s27\000"
 1236 058b 0C       		.byte	0xc
 1237 058c 0101     		.2byte	0x101
 1238 058e C6040000 		.4byte	0x4c6
 1239 0592 2C       		.byte	0x2c
 1240 0593 08       		.uleb128 0x8
 1241 0594 73323800 		.ascii	"s28\000"
 1242 0598 0C       		.byte	0xc
 1243 0599 0201     		.2byte	0x102
 1244 059b C6040000 		.4byte	0x4c6
 1245 059f 30       		.byte	0x30
 1246 05a0 08       		.uleb128 0x8
 1247 05a1 73323900 		.ascii	"s29\000"
 1248 05a5 0C       		.byte	0xc
 1249 05a6 0301     		.2byte	0x103
 1250 05a8 C6040000 		.4byte	0x4c6
 1251 05ac 34       		.byte	0x34
 1252 05ad 08       		.uleb128 0x8
 1253 05ae 73333000 		.ascii	"s30\000"
 1254 05b2 0C       		.byte	0xc
 1255 05b3 0401     		.2byte	0x104
 1256 05b5 C6040000 		.4byte	0x4c6
 1257 05b9 38       		.byte	0x38
 1258 05ba 08       		.uleb128 0x8
 1259 05bb 73333100 		.ascii	"s31\000"
 1260 05bf 0C       		.byte	0xc
 1261 05c0 0501     		.2byte	0x105
 1262 05c2 C6040000 		.4byte	0x4c6
 1263 05c6 3C       		.byte	0x3c
 1264 05c7 08       		.uleb128 0x8
 1265 05c8 723400   		.ascii	"r4\000"
 1266 05cb 0C       		.byte	0xc
 1267 05cc 0701     		.2byte	0x107
 1268 05ce C6040000 		.4byte	0x4c6
 1269 05d2 40       		.byte	0x40
 1270 05d3 08       		.uleb128 0x8
 1271 05d4 723500   		.ascii	"r5\000"
 1272 05d7 0C       		.byte	0xc
 1273 05d8 0801     		.2byte	0x108
 1274 05da C6040000 		.4byte	0x4c6
 1275 05de 44       		.byte	0x44
 1276 05df 08       		.uleb128 0x8
 1277 05e0 723600   		.ascii	"r6\000"
 1278 05e3 0C       		.byte	0xc
 1279 05e4 0901     		.2byte	0x109
 1280 05e6 C6040000 		.4byte	0x4c6
 1281 05ea 48       		.byte	0x48
 1282 05eb 08       		.uleb128 0x8
 1283 05ec 723700   		.ascii	"r7\000"
ARM GAS  /tmp/ccKFb8Yw.s 			page 24


 1284 05ef 0C       		.byte	0xc
 1285 05f0 0A01     		.2byte	0x10a
 1286 05f2 C6040000 		.4byte	0x4c6
 1287 05f6 4C       		.byte	0x4c
 1288 05f7 08       		.uleb128 0x8
 1289 05f8 723800   		.ascii	"r8\000"
 1290 05fb 0C       		.byte	0xc
 1291 05fc 0B01     		.2byte	0x10b
 1292 05fe C6040000 		.4byte	0x4c6
 1293 0602 50       		.byte	0x50
 1294 0603 08       		.uleb128 0x8
 1295 0604 723900   		.ascii	"r9\000"
 1296 0607 0C       		.byte	0xc
 1297 0608 0C01     		.2byte	0x10c
 1298 060a C6040000 		.4byte	0x4c6
 1299 060e 54       		.byte	0x54
 1300 060f 08       		.uleb128 0x8
 1301 0610 72313000 		.ascii	"r10\000"
 1302 0614 0C       		.byte	0xc
 1303 0615 0D01     		.2byte	0x10d
 1304 0617 C6040000 		.4byte	0x4c6
 1305 061b 58       		.byte	0x58
 1306 061c 08       		.uleb128 0x8
 1307 061d 72313100 		.ascii	"r11\000"
 1308 0621 0C       		.byte	0xc
 1309 0622 0E01     		.2byte	0x10e
 1310 0624 C6040000 		.4byte	0x4c6
 1311 0628 5C       		.byte	0x5c
 1312 0629 08       		.uleb128 0x8
 1313 062a 6C7200   		.ascii	"lr\000"
 1314 062d 0C       		.byte	0xc
 1315 062e 0F01     		.2byte	0x10f
 1316 0630 C6040000 		.4byte	0x4c6
 1317 0634 60       		.byte	0x60
 1318 0635 00       		.byte	0
 1319 0636 0A       		.uleb128 0xa
 1320 0637 04       		.byte	0x4
 1321 0638 F5040000 		.4byte	0x4f5
 1322 063c 13       		.uleb128 0x13
 1323 063d 04       		.byte	0x4
 1324 063e 0D       		.byte	0xd
 1325 063f 38       		.byte	0x38
 1326 0640 51060000 		.4byte	0x651
 1327 0644 07       		.uleb128 0x7
 1328 0645 06050000 		.4byte	.LASF93
 1329 0649 0D       		.byte	0xd
 1330 064a 3C       		.byte	0x3c
 1331 064b F5000000 		.4byte	0xf5
 1332 064f 00       		.byte	0
 1333 0650 00       		.byte	0
 1334 0651 04       		.uleb128 0x4
 1335 0652 4F000000 		.4byte	.LASF94
 1336 0656 0D       		.byte	0xd
 1337 0657 3D       		.byte	0x3d
 1338 0658 3C060000 		.4byte	0x63c
 1339 065c 14       		.uleb128 0x14
 1340 065d 04       		.byte	0x4
ARM GAS  /tmp/ccKFb8Yw.s 			page 25


 1341 065e 08       		.byte	0x8
 1342 065f FA       		.byte	0xfa
 1343 0660 B9060000 		.4byte	0x6b9
 1344 0664 15       		.uleb128 0x15
 1345 0665 F1040000 		.4byte	.LASF95
 1346 0669 08       		.byte	0x8
 1347 066a 0101     		.2byte	0x101
 1348 066c 37010000 		.4byte	0x137
 1349 0670 15       		.uleb128 0x15
 1350 0671 350C0000 		.4byte	.LASF96
 1351 0675 08       		.byte	0x8
 1352 0676 0801     		.2byte	0x108
 1353 0678 37010000 		.4byte	0x137
 1354 067c 15       		.uleb128 0x15
 1355 067d 51010000 		.4byte	.LASF97
 1356 0681 08       		.byte	0x8
 1357 0682 0F01     		.2byte	0x10f
 1358 0684 79030000 		.4byte	0x379
 1359 0688 15       		.uleb128 0x15
 1360 0689 E30A0000 		.4byte	.LASF98
 1361 068d 08       		.byte	0x8
 1362 068e 1601     		.2byte	0x116
 1363 0690 B9060000 		.4byte	0x6b9
 1364 0694 15       		.uleb128 0x15
 1365 0695 E9090000 		.4byte	.LASF99
 1366 0699 08       		.byte	0x8
 1367 069a 1E01     		.2byte	0x11e
 1368 069c E4060000 		.4byte	0x6e4
 1369 06a0 15       		.uleb128 0x15
 1370 06a1 39000000 		.4byte	.LASF100
 1371 06a5 08       		.byte	0x8
 1372 06a6 2701     		.2byte	0x127
 1373 06a8 1B070000 		.4byte	0x71b
 1374 06ac 15       		.uleb128 0x15
 1375 06ad 9F0A0000 		.4byte	.LASF101
 1376 06b1 08       		.byte	0x8
 1377 06b2 2F01     		.2byte	0x12f
 1378 06b4 42010000 		.4byte	0x142
 1379 06b8 00       		.byte	0
 1380 06b9 0A       		.uleb128 0xa
 1381 06ba 04       		.byte	0x4
 1382 06bb 91020000 		.4byte	0x291
 1383 06bf 06       		.uleb128 0x6
 1384 06c0 98020000 		.4byte	.LASF102
 1385 06c4 0C       		.byte	0xc
 1386 06c5 0E       		.byte	0xe
 1387 06c6 34       		.byte	0x34
 1388 06c7 E4060000 		.4byte	0x6e4
 1389 06cb 07       		.uleb128 0x7
 1390 06cc C1000000 		.4byte	.LASF103
 1391 06d0 0E       		.byte	0xe
 1392 06d1 35       		.byte	0x35
 1393 06d2 C6020000 		.4byte	0x2c6
 1394 06d6 00       		.byte	0
 1395 06d7 07       		.uleb128 0x7
 1396 06d8 1E020000 		.4byte	.LASF104
 1397 06dc 0E       		.byte	0xe
ARM GAS  /tmp/ccKFb8Yw.s 			page 26


 1398 06dd 37       		.byte	0x37
 1399 06de 4D010000 		.4byte	0x14d
 1400 06e2 08       		.byte	0x8
 1401 06e3 00       		.byte	0
 1402 06e4 0A       		.uleb128 0xa
 1403 06e5 04       		.byte	0x4
 1404 06e6 BF060000 		.4byte	0x6bf
 1405 06ea 06       		.uleb128 0x6
 1406 06eb 4A050000 		.4byte	.LASF105
 1407 06ef 10       		.byte	0x10
 1408 06f0 0F       		.byte	0xf
 1409 06f1 39       		.byte	0x39
 1410 06f2 1B070000 		.4byte	0x71b
 1411 06f6 07       		.uleb128 0x7
 1412 06f7 6C080000 		.4byte	.LASF106
 1413 06fb 0F       		.byte	0xf
 1414 06fc 3A       		.byte	0x3a
 1415 06fd C6020000 		.4byte	0x2c6
 1416 0701 00       		.byte	0
 1417 0702 07       		.uleb128 0x7
 1418 0703 BB080000 		.4byte	.LASF107
 1419 0707 0F       		.byte	0xf
 1420 0708 3C       		.byte	0x3c
 1421 0709 9C020000 		.4byte	0x29c
 1422 070d 08       		.byte	0x8
 1423 070e 07       		.uleb128 0x7
 1424 070f 0C0B0000 		.4byte	.LASF108
 1425 0713 0F       		.byte	0xf
 1426 0714 3E       		.byte	0x3e
 1427 0715 76080000 		.4byte	0x876
 1428 0719 0C       		.byte	0xc
 1429 071a 00       		.byte	0
 1430 071b 0A       		.uleb128 0xa
 1431 071c 04       		.byte	0x4
 1432 071d EA060000 		.4byte	0x6ea
 1433 0721 0A       		.uleb128 0xa
 1434 0722 04       		.byte	0x4
 1435 0723 33070000 		.4byte	0x733
 1436 0727 05       		.uleb128 0x5
 1437 0728 21070000 		.4byte	0x721
 1438 072c 02       		.uleb128 0x2
 1439 072d 01       		.byte	0x1
 1440 072e 08       		.byte	0x8
 1441 072f 67000000 		.4byte	.LASF109
 1442 0733 16       		.uleb128 0x16
 1443 0734 2C070000 		.4byte	0x72c
 1444 0738 0A       		.uleb128 0xa
 1445 0739 04       		.byte	0x4
 1446 073a D1040000 		.4byte	0x4d1
 1447 073e 0A       		.uleb128 0xa
 1448 073f 04       		.byte	0x4
 1449 0740 7B030000 		.4byte	0x37b
 1450 0744 17       		.uleb128 0x17
 1451 0745 D1040000 		.4byte	0x4d1
 1452 0749 54070000 		.4byte	0x754
 1453 074d 18       		.uleb128 0x18
 1454 074e 2C000000 		.4byte	0x2c
ARM GAS  /tmp/ccKFb8Yw.s 			page 27


 1455 0752 3B       		.byte	0x3b
 1456 0753 00       		.byte	0
 1457 0754 19       		.uleb128 0x19
 1458 0755 636800   		.ascii	"ch\000"
 1459 0758 08       		.byte	0x8
 1460 0759 0902     		.2byte	0x209
 1461 075b 48040000 		.4byte	0x448
 1462 075f 13       		.uleb128 0x13
 1463 0760 16       		.byte	0x16
 1464 0761 10       		.byte	0x10
 1465 0762 34       		.byte	0x34
 1466 0763 40080000 		.4byte	0x840
 1467 0767 07       		.uleb128 0x7
 1468 0768 73090000 		.4byte	.LASF110
 1469 076c 10       		.byte	0x10
 1470 076d 35       		.byte	0x35
 1471 076e 40080000 		.4byte	0x840
 1472 0772 00       		.byte	0
 1473 0773 07       		.uleb128 0x7
 1474 0774 6F070000 		.4byte	.LASF111
 1475 0778 10       		.byte	0x10
 1476 0779 36       		.byte	0x36
 1477 077a AE000000 		.4byte	0xae
 1478 077e 04       		.byte	0x4
 1479 077f 07       		.uleb128 0x7
 1480 0780 C4070000 		.4byte	.LASF112
 1481 0784 10       		.byte	0x10
 1482 0785 37       		.byte	0x37
 1483 0786 AE000000 		.4byte	0xae
 1484 078a 05       		.byte	0x5
 1485 078b 07       		.uleb128 0x7
 1486 078c 42080000 		.4byte	.LASF113
 1487 0790 10       		.byte	0x10
 1488 0791 38       		.byte	0x38
 1489 0792 B9000000 		.4byte	0xb9
 1490 0796 06       		.byte	0x6
 1491 0797 07       		.uleb128 0x7
 1492 0798 C1010000 		.4byte	.LASF114
 1493 079c 10       		.byte	0x10
 1494 079d 39       		.byte	0x39
 1495 079e AE000000 		.4byte	0xae
 1496 07a2 08       		.byte	0x8
 1497 07a3 07       		.uleb128 0x7
 1498 07a4 61020000 		.4byte	.LASF115
 1499 07a8 10       		.byte	0x10
 1500 07a9 3A       		.byte	0x3a
 1501 07aa AE000000 		.4byte	0xae
 1502 07ae 09       		.byte	0x9
 1503 07af 07       		.uleb128 0x7
 1504 07b0 F8040000 		.4byte	.LASF116
 1505 07b4 10       		.byte	0x10
 1506 07b5 3B       		.byte	0x3b
 1507 07b6 AE000000 		.4byte	0xae
 1508 07ba 0A       		.byte	0xa
 1509 07bb 07       		.uleb128 0x7
 1510 07bc 3D090000 		.4byte	.LASF117
 1511 07c0 10       		.byte	0x10
ARM GAS  /tmp/ccKFb8Yw.s 			page 28


 1512 07c1 3C       		.byte	0x3c
 1513 07c2 AE000000 		.4byte	0xae
 1514 07c6 0B       		.byte	0xb
 1515 07c7 07       		.uleb128 0x7
 1516 07c8 8C050000 		.4byte	.LASF118
 1517 07cc 10       		.byte	0x10
 1518 07cd 3D       		.byte	0x3d
 1519 07ce AE000000 		.4byte	0xae
 1520 07d2 0C       		.byte	0xc
 1521 07d3 07       		.uleb128 0x7
 1522 07d4 270B0000 		.4byte	.LASF119
 1523 07d8 10       		.byte	0x10
 1524 07d9 3E       		.byte	0x3e
 1525 07da AE000000 		.4byte	0xae
 1526 07de 0D       		.byte	0xd
 1527 07df 07       		.uleb128 0x7
 1528 07e0 A7000000 		.4byte	.LASF120
 1529 07e4 10       		.byte	0x10
 1530 07e5 3F       		.byte	0x3f
 1531 07e6 AE000000 		.4byte	0xae
 1532 07ea 0E       		.byte	0xe
 1533 07eb 07       		.uleb128 0x7
 1534 07ec 45010000 		.4byte	.LASF121
 1535 07f0 10       		.byte	0x10
 1536 07f1 40       		.byte	0x40
 1537 07f2 AE000000 		.4byte	0xae
 1538 07f6 0F       		.byte	0xf
 1539 07f7 07       		.uleb128 0x7
 1540 07f8 97050000 		.4byte	.LASF122
 1541 07fc 10       		.byte	0x10
 1542 07fd 41       		.byte	0x41
 1543 07fe AE000000 		.4byte	0xae
 1544 0802 10       		.byte	0x10
 1545 0803 07       		.uleb128 0x7
 1546 0804 B4000000 		.4byte	.LASF123
 1547 0808 10       		.byte	0x10
 1548 0809 43       		.byte	0x43
 1549 080a AE000000 		.4byte	0xae
 1550 080e 11       		.byte	0x11
 1551 080f 07       		.uleb128 0x7
 1552 0810 AA010000 		.4byte	.LASF124
 1553 0814 10       		.byte	0x10
 1554 0815 44       		.byte	0x44
 1555 0816 AE000000 		.4byte	0xae
 1556 081a 12       		.byte	0x12
 1557 081b 07       		.uleb128 0x7
 1558 081c 63070000 		.4byte	.LASF125
 1559 0820 10       		.byte	0x10
 1560 0821 45       		.byte	0x45
 1561 0822 AE000000 		.4byte	0xae
 1562 0826 13       		.byte	0x13
 1563 0827 07       		.uleb128 0x7
 1564 0828 D1020000 		.4byte	.LASF126
 1565 082c 10       		.byte	0x10
 1566 082d 46       		.byte	0x46
 1567 082e AE000000 		.4byte	0xae
 1568 0832 14       		.byte	0x14
ARM GAS  /tmp/ccKFb8Yw.s 			page 29


 1569 0833 07       		.uleb128 0x7
 1570 0834 0F090000 		.4byte	.LASF127
 1571 0838 10       		.byte	0x10
 1572 0839 48       		.byte	0x48
 1573 083a AE000000 		.4byte	0xae
 1574 083e 15       		.byte	0x15
 1575 083f 00       		.byte	0
 1576 0840 17       		.uleb128 0x17
 1577 0841 2C070000 		.4byte	0x72c
 1578 0845 50080000 		.4byte	0x850
 1579 0849 18       		.uleb128 0x18
 1580 084a 2C000000 		.4byte	0x2c
 1581 084e 03       		.byte	0x3
 1582 084f 00       		.byte	0
 1583 0850 04       		.uleb128 0x4
 1584 0851 B7010000 		.4byte	.LASF128
 1585 0855 10       		.byte	0x10
 1586 0856 49       		.byte	0x49
 1587 0857 5F070000 		.4byte	0x75f
 1588 085b 16       		.uleb128 0x16
 1589 085c 50080000 		.4byte	0x850
 1590 0860 11       		.uleb128 0x11
 1591 0861 810B0000 		.4byte	.LASF129
 1592 0865 10       		.byte	0x10
 1593 0866 6E       		.byte	0x6e
 1594 0867 5B080000 		.4byte	0x85b
 1595 086b 04       		.uleb128 0x4
 1596 086c 030A0000 		.4byte	.LASF130
 1597 0870 0F       		.byte	0xf
 1598 0871 34       		.byte	0x34
 1599 0872 EA060000 		.4byte	0x6ea
 1600 0876 0A       		.uleb128 0xa
 1601 0877 04       		.byte	0x4
 1602 0878 6B080000 		.4byte	0x86b
 1603 087c 16       		.uleb128 0x16
 1604 087d 3A000000 		.4byte	0x3a
 1605 0881 02       		.uleb128 0x2
 1606 0882 01       		.byte	0x1
 1607 0883 02       		.byte	0x2
 1608 0884 25050000 		.4byte	.LASF131
 1609 0888 17       		.uleb128 0x17
 1610 0889 53000000 		.4byte	0x53
 1611 088d 98080000 		.4byte	0x898
 1612 0891 18       		.uleb128 0x18
 1613 0892 2C000000 		.4byte	0x2c
 1614 0896 02       		.byte	0x2
 1615 0897 00       		.byte	0
 1616 0898 02       		.uleb128 0x2
 1617 0899 08       		.byte	0x8
 1618 089a 04       		.byte	0x4
 1619 089b C70B0000 		.4byte	.LASF132
 1620 089f 17       		.uleb128 0x17
 1621 08a0 AE000000 		.4byte	0xae
 1622 08a4 AA080000 		.4byte	0x8aa
 1623 08a8 1A       		.uleb128 0x1a
 1624 08a9 00       		.byte	0
 1625 08aa 11       		.uleb128 0x11
ARM GAS  /tmp/ccKFb8Yw.s 			page 30


 1626 08ab C3080000 		.4byte	.LASF133
 1627 08af 11       		.byte	0x11
 1628 08b0 1A       		.byte	0x1a
 1629 08b1 9F080000 		.4byte	0x89f
 1630 08b5 11       		.uleb128 0x11
 1631 08b6 6F0B0000 		.4byte	.LASF134
 1632 08ba 11       		.byte	0x11
 1633 08bb 1B       		.byte	0x1b
 1634 08bc 6B080000 		.4byte	0x86b
 1635 08c0 17       		.uleb128 0x17
 1636 08c1 7C080000 		.4byte	0x87c
 1637 08c5 CB080000 		.4byte	0x8cb
 1638 08c9 1A       		.uleb128 0x1a
 1639 08ca 00       		.byte	0
 1640 08cb 16       		.uleb128 0x16
 1641 08cc C0080000 		.4byte	0x8c0
 1642 08d0 11       		.uleb128 0x11
 1643 08d1 5E050000 		.4byte	.LASF135
 1644 08d5 12       		.byte	0x12
 1645 08d6 81       		.byte	0x81
 1646 08d7 CB080000 		.4byte	0x8cb
 1647 08db 11       		.uleb128 0x11
 1648 08dc 71050000 		.4byte	.LASF136
 1649 08e0 12       		.byte	0x12
 1650 08e1 82       		.byte	0x82
 1651 08e2 CB080000 		.4byte	0x8cb
 1652 08e6 11       		.uleb128 0x11
 1653 08e7 9B0B0000 		.4byte	.LASF137
 1654 08eb 12       		.byte	0x12
 1655 08ec 83       		.byte	0x83
 1656 08ed CB080000 		.4byte	0x8cb
 1657 08f1 11       		.uleb128 0x11
 1658 08f2 AE0B0000 		.4byte	.LASF138
 1659 08f6 12       		.byte	0x12
 1660 08f7 84       		.byte	0x84
 1661 08f8 CB080000 		.4byte	0x8cb
 1662 08fc 04       		.uleb128 0x4
 1663 08fd EB070000 		.4byte	.LASF139
 1664 0901 13       		.byte	0x13
 1665 0902 22       		.byte	0x22
 1666 0903 07090000 		.4byte	0x907
 1667 0907 0A       		.uleb128 0xa
 1668 0908 04       		.byte	0x4
 1669 0909 0D090000 		.4byte	0x90d
 1670 090d 1B       		.uleb128 0x1b
 1671 090e F0090000 		.4byte	.LASF245
 1672 0912 04       		.uleb128 0x4
 1673 0913 D60B0000 		.4byte	.LASF140
 1674 0917 14       		.byte	0x14
 1675 0918 2C       		.byte	0x2c
 1676 0919 7E000000 		.4byte	0x7e
 1677 091d 04       		.uleb128 0x4
 1678 091e DC010000 		.4byte	.LASF141
 1679 0922 14       		.byte	0x14
 1680 0923 72       		.byte	0x72
 1681 0924 7E000000 		.4byte	0x7e
 1682 0928 1C       		.uleb128 0x1c
ARM GAS  /tmp/ccKFb8Yw.s 			page 31


 1683 0929 CA090000 		.4byte	.LASF142
 1684 092d 05       		.byte	0x5
 1685 092e 6501     		.2byte	0x165
 1686 0930 2C000000 		.4byte	0x2c
 1687 0934 14       		.uleb128 0x14
 1688 0935 04       		.byte	0x4
 1689 0936 14       		.byte	0x14
 1690 0937 A6       		.byte	0xa6
 1691 0938 53090000 		.4byte	0x953
 1692 093c 1D       		.uleb128 0x1d
 1693 093d 4B060000 		.4byte	.LASF143
 1694 0941 14       		.byte	0x14
 1695 0942 A8       		.byte	0xa8
 1696 0943 28090000 		.4byte	0x928
 1697 0947 1D       		.uleb128 0x1d
 1698 0948 E3080000 		.4byte	.LASF144
 1699 094c 14       		.byte	0x14
 1700 094d A9       		.byte	0xa9
 1701 094e 53090000 		.4byte	0x953
 1702 0952 00       		.byte	0
 1703 0953 17       		.uleb128 0x17
 1704 0954 53000000 		.4byte	0x53
 1705 0958 63090000 		.4byte	0x963
 1706 095c 18       		.uleb128 0x18
 1707 095d 2C000000 		.4byte	0x2c
 1708 0961 03       		.byte	0x3
 1709 0962 00       		.byte	0
 1710 0963 13       		.uleb128 0x13
 1711 0964 08       		.byte	0x8
 1712 0965 14       		.byte	0x14
 1713 0966 A3       		.byte	0xa3
 1714 0967 84090000 		.4byte	0x984
 1715 096b 07       		.uleb128 0x7
 1716 096c CC010000 		.4byte	.LASF145
 1717 0970 14       		.byte	0x14
 1718 0971 A5       		.byte	0xa5
 1719 0972 33000000 		.4byte	0x33
 1720 0976 00       		.byte	0
 1721 0977 07       		.uleb128 0x7
 1722 0978 84050000 		.4byte	.LASF146
 1723 097c 14       		.byte	0x14
 1724 097d AA       		.byte	0xaa
 1725 097e 34090000 		.4byte	0x934
 1726 0982 04       		.byte	0x4
 1727 0983 00       		.byte	0
 1728 0984 04       		.uleb128 0x4
 1729 0985 2B050000 		.4byte	.LASF147
 1730 0989 14       		.byte	0x14
 1731 098a AB       		.byte	0xab
 1732 098b 63090000 		.4byte	0x963
 1733 098f 04       		.uleb128 0x4
 1734 0990 10000000 		.4byte	.LASF148
 1735 0994 14       		.byte	0x14
 1736 0995 AF       		.byte	0xaf
 1737 0996 FC080000 		.4byte	0x8fc
 1738 099a 0A       		.uleb128 0xa
 1739 099b 04       		.byte	0x4
ARM GAS  /tmp/ccKFb8Yw.s 			page 32


 1740 099c 2C070000 		.4byte	0x72c
 1741 09a0 04       		.uleb128 0x4
 1742 09a1 94010000 		.4byte	.LASF149
 1743 09a5 15       		.byte	0x15
 1744 09a6 16       		.byte	0x16
 1745 09a7 90000000 		.4byte	0x90
 1746 09ab 06       		.uleb128 0x6
 1747 09ac 34020000 		.4byte	.LASF150
 1748 09b0 18       		.byte	0x18
 1749 09b1 15       		.byte	0x15
 1750 09b2 2F       		.byte	0x2f
 1751 09b3 FE090000 		.4byte	0x9fe
 1752 09b7 07       		.uleb128 0x7
 1753 09b8 44050000 		.4byte	.LASF151
 1754 09bc 15       		.byte	0x15
 1755 09bd 31       		.byte	0x31
 1756 09be FE090000 		.4byte	0x9fe
 1757 09c2 00       		.byte	0
 1758 09c3 12       		.uleb128 0x12
 1759 09c4 5F6B00   		.ascii	"_k\000"
 1760 09c7 15       		.byte	0x15
 1761 09c8 32       		.byte	0x32
 1762 09c9 33000000 		.4byte	0x33
 1763 09cd 04       		.byte	0x4
 1764 09ce 07       		.uleb128 0x7
 1765 09cf D9040000 		.4byte	.LASF152
 1766 09d3 15       		.byte	0x15
 1767 09d4 32       		.byte	0x32
 1768 09d5 33000000 		.4byte	0x33
 1769 09d9 08       		.byte	0x8
 1770 09da 07       		.uleb128 0x7
 1771 09db CC050000 		.4byte	.LASF153
 1772 09df 15       		.byte	0x15
 1773 09e0 32       		.byte	0x32
 1774 09e1 33000000 		.4byte	0x33
 1775 09e5 0C       		.byte	0xc
 1776 09e6 07       		.uleb128 0x7
 1777 09e7 51040000 		.4byte	.LASF154
 1778 09eb 15       		.byte	0x15
 1779 09ec 32       		.byte	0x32
 1780 09ed 33000000 		.4byte	0x33
 1781 09f1 10       		.byte	0x10
 1782 09f2 12       		.uleb128 0x12
 1783 09f3 5F7800   		.ascii	"_x\000"
 1784 09f6 15       		.byte	0x15
 1785 09f7 33       		.byte	0x33
 1786 09f8 040A0000 		.4byte	0xa04
 1787 09fc 14       		.byte	0x14
 1788 09fd 00       		.byte	0
 1789 09fe 0A       		.uleb128 0xa
 1790 09ff 04       		.byte	0x4
 1791 0a00 AB090000 		.4byte	0x9ab
 1792 0a04 17       		.uleb128 0x17
 1793 0a05 A0090000 		.4byte	0x9a0
 1794 0a09 140A0000 		.4byte	0xa14
 1795 0a0d 18       		.uleb128 0x18
 1796 0a0e 2C000000 		.4byte	0x2c
ARM GAS  /tmp/ccKFb8Yw.s 			page 33


 1797 0a12 00       		.byte	0
 1798 0a13 00       		.byte	0
 1799 0a14 06       		.uleb128 0x6
 1800 0a15 8A090000 		.4byte	.LASF155
 1801 0a19 24       		.byte	0x24
 1802 0a1a 15       		.byte	0x15
 1803 0a1b 37       		.byte	0x37
 1804 0a1c 8D0A0000 		.4byte	0xa8d
 1805 0a20 07       		.uleb128 0x7
 1806 0a21 0D050000 		.4byte	.LASF156
 1807 0a25 15       		.byte	0x15
 1808 0a26 39       		.byte	0x39
 1809 0a27 33000000 		.4byte	0x33
 1810 0a2b 00       		.byte	0
 1811 0a2c 07       		.uleb128 0x7
 1812 0a2d D9090000 		.4byte	.LASF157
 1813 0a31 15       		.byte	0x15
 1814 0a32 3A       		.byte	0x3a
 1815 0a33 33000000 		.4byte	0x33
 1816 0a37 04       		.byte	0x4
 1817 0a38 07       		.uleb128 0x7
 1818 0a39 57020000 		.4byte	.LASF158
 1819 0a3d 15       		.byte	0x15
 1820 0a3e 3B       		.byte	0x3b
 1821 0a3f 33000000 		.4byte	0x33
 1822 0a43 08       		.byte	0x8
 1823 0a44 07       		.uleb128 0x7
 1824 0a45 DB050000 		.4byte	.LASF159
 1825 0a49 15       		.byte	0x15
 1826 0a4a 3C       		.byte	0x3c
 1827 0a4b 33000000 		.4byte	0x33
 1828 0a4f 0C       		.byte	0xc
 1829 0a50 07       		.uleb128 0x7
 1830 0a51 DD070000 		.4byte	.LASF160
 1831 0a55 15       		.byte	0x15
 1832 0a56 3D       		.byte	0x3d
 1833 0a57 33000000 		.4byte	0x33
 1834 0a5b 10       		.byte	0x10
 1835 0a5c 07       		.uleb128 0x7
 1836 0a5d F9080000 		.4byte	.LASF161
 1837 0a61 15       		.byte	0x15
 1838 0a62 3E       		.byte	0x3e
 1839 0a63 33000000 		.4byte	0x33
 1840 0a67 14       		.byte	0x14
 1841 0a68 07       		.uleb128 0x7
 1842 0a69 3C020000 		.4byte	.LASF162
 1843 0a6d 15       		.byte	0x15
 1844 0a6e 3F       		.byte	0x3f
 1845 0a6f 33000000 		.4byte	0x33
 1846 0a73 18       		.byte	0x18
 1847 0a74 07       		.uleb128 0x7
 1848 0a75 16050000 		.4byte	.LASF163
 1849 0a79 15       		.byte	0x15
 1850 0a7a 40       		.byte	0x40
 1851 0a7b 33000000 		.4byte	0x33
 1852 0a7f 1C       		.byte	0x1c
 1853 0a80 07       		.uleb128 0x7
ARM GAS  /tmp/ccKFb8Yw.s 			page 34


 1854 0a81 88070000 		.4byte	.LASF164
 1855 0a85 15       		.byte	0x15
 1856 0a86 41       		.byte	0x41
 1857 0a87 33000000 		.4byte	0x33
 1858 0a8b 20       		.byte	0x20
 1859 0a8c 00       		.byte	0
 1860 0a8d 1E       		.uleb128 0x1e
 1861 0a8e 7C000000 		.4byte	.LASF165
 1862 0a92 0801     		.2byte	0x108
 1863 0a94 15       		.byte	0x15
 1864 0a95 4A       		.byte	0x4a
 1865 0a96 CD0A0000 		.4byte	0xacd
 1866 0a9a 07       		.uleb128 0x7
 1867 0a9b 130B0000 		.4byte	.LASF166
 1868 0a9f 15       		.byte	0x15
 1869 0aa0 4B       		.byte	0x4b
 1870 0aa1 CD0A0000 		.4byte	0xacd
 1871 0aa5 00       		.byte	0
 1872 0aa6 07       		.uleb128 0x7
 1873 0aa7 F7090000 		.4byte	.LASF167
 1874 0aab 15       		.byte	0x15
 1875 0aac 4C       		.byte	0x4c
 1876 0aad CD0A0000 		.4byte	0xacd
 1877 0ab1 80       		.byte	0x80
 1878 0ab2 1F       		.uleb128 0x1f
 1879 0ab3 8A0B0000 		.4byte	.LASF168
 1880 0ab7 15       		.byte	0x15
 1881 0ab8 4E       		.byte	0x4e
 1882 0ab9 A0090000 		.4byte	0x9a0
 1883 0abd 0001     		.2byte	0x100
 1884 0abf 1F       		.uleb128 0x1f
 1885 0ac0 110C0000 		.4byte	.LASF169
 1886 0ac4 15       		.byte	0x15
 1887 0ac5 51       		.byte	0x51
 1888 0ac6 A0090000 		.4byte	0x9a0
 1889 0aca 0401     		.2byte	0x104
 1890 0acc 00       		.byte	0
 1891 0acd 17       		.uleb128 0x17
 1892 0ace 79030000 		.4byte	0x379
 1893 0ad2 DD0A0000 		.4byte	0xadd
 1894 0ad6 18       		.uleb128 0x18
 1895 0ad7 2C000000 		.4byte	0x2c
 1896 0adb 1F       		.byte	0x1f
 1897 0adc 00       		.byte	0
 1898 0add 1E       		.uleb128 0x1e
 1899 0ade 26080000 		.4byte	.LASF170
 1900 0ae2 9001     		.2byte	0x190
 1901 0ae4 15       		.byte	0x15
 1902 0ae5 5D       		.byte	0x5d
 1903 0ae6 1B0B0000 		.4byte	0xb1b
 1904 0aea 07       		.uleb128 0x7
 1905 0aeb 44050000 		.4byte	.LASF151
 1906 0aef 15       		.byte	0x15
 1907 0af0 5E       		.byte	0x5e
 1908 0af1 1B0B0000 		.4byte	0xb1b
 1909 0af5 00       		.byte	0
 1910 0af6 07       		.uleb128 0x7
ARM GAS  /tmp/ccKFb8Yw.s 			page 35


 1911 0af7 B1070000 		.4byte	.LASF171
 1912 0afb 15       		.byte	0x15
 1913 0afc 5F       		.byte	0x5f
 1914 0afd 33000000 		.4byte	0x33
 1915 0b01 04       		.byte	0x4
 1916 0b02 07       		.uleb128 0x7
 1917 0b03 80020000 		.4byte	.LASF172
 1918 0b07 15       		.byte	0x15
 1919 0b08 61       		.byte	0x61
 1920 0b09 210B0000 		.4byte	0xb21
 1921 0b0d 08       		.byte	0x8
 1922 0b0e 07       		.uleb128 0x7
 1923 0b0f 7C000000 		.4byte	.LASF165
 1924 0b13 15       		.byte	0x15
 1925 0b14 62       		.byte	0x62
 1926 0b15 8D0A0000 		.4byte	0xa8d
 1927 0b19 88       		.byte	0x88
 1928 0b1a 00       		.byte	0
 1929 0b1b 0A       		.uleb128 0xa
 1930 0b1c 04       		.byte	0x4
 1931 0b1d DD0A0000 		.4byte	0xadd
 1932 0b21 17       		.uleb128 0x17
 1933 0b22 310B0000 		.4byte	0xb31
 1934 0b26 310B0000 		.4byte	0xb31
 1935 0b2a 18       		.uleb128 0x18
 1936 0b2b 2C000000 		.4byte	0x2c
 1937 0b2f 1F       		.byte	0x1f
 1938 0b30 00       		.byte	0
 1939 0b31 0A       		.uleb128 0xa
 1940 0b32 04       		.byte	0x4
 1941 0b33 370B0000 		.4byte	0xb37
 1942 0b37 20       		.uleb128 0x20
 1943 0b38 06       		.uleb128 0x6
 1944 0b39 980A0000 		.4byte	.LASF173
 1945 0b3d 08       		.byte	0x8
 1946 0b3e 15       		.byte	0x15
 1947 0b3f 75       		.byte	0x75
 1948 0b40 5D0B0000 		.4byte	0xb5d
 1949 0b44 07       		.uleb128 0x7
 1950 0b45 D6060000 		.4byte	.LASF174
 1951 0b49 15       		.byte	0x15
 1952 0b4a 76       		.byte	0x76
 1953 0b4b 5D0B0000 		.4byte	0xb5d
 1954 0b4f 00       		.byte	0
 1955 0b50 07       		.uleb128 0x7
 1956 0b51 C10B0000 		.4byte	.LASF175
 1957 0b55 15       		.byte	0x15
 1958 0b56 77       		.byte	0x77
 1959 0b57 33000000 		.4byte	0x33
 1960 0b5b 04       		.byte	0x4
 1961 0b5c 00       		.byte	0
 1962 0b5d 0A       		.uleb128 0xa
 1963 0b5e 04       		.byte	0x4
 1964 0b5f 53000000 		.4byte	0x53
 1965 0b63 06       		.uleb128 0x6
 1966 0b64 49040000 		.4byte	.LASF176
 1967 0b68 68       		.byte	0x68
ARM GAS  /tmp/ccKFb8Yw.s 			page 36


 1968 0b69 15       		.byte	0x15
 1969 0b6a B5       		.byte	0xb5
 1970 0b6b 8D0C0000 		.4byte	0xc8d
 1971 0b6f 12       		.uleb128 0x12
 1972 0b70 5F7000   		.ascii	"_p\000"
 1973 0b73 15       		.byte	0x15
 1974 0b74 B6       		.byte	0xb6
 1975 0b75 5D0B0000 		.4byte	0xb5d
 1976 0b79 00       		.byte	0
 1977 0b7a 12       		.uleb128 0x12
 1978 0b7b 5F7200   		.ascii	"_r\000"
 1979 0b7e 15       		.byte	0x15
 1980 0b7f B7       		.byte	0xb7
 1981 0b80 33000000 		.4byte	0x33
 1982 0b84 04       		.byte	0x4
 1983 0b85 12       		.uleb128 0x12
 1984 0b86 5F7700   		.ascii	"_w\000"
 1985 0b89 15       		.byte	0x15
 1986 0b8a B8       		.byte	0xb8
 1987 0b8b 33000000 		.4byte	0x33
 1988 0b8f 08       		.byte	0x8
 1989 0b90 07       		.uleb128 0x7
 1990 0b91 23010000 		.4byte	.LASF177
 1991 0b95 15       		.byte	0x15
 1992 0b96 B9       		.byte	0xb9
 1993 0b97 5A000000 		.4byte	0x5a
 1994 0b9b 0C       		.byte	0xc
 1995 0b9c 07       		.uleb128 0x7
 1996 0b9d 2B070000 		.4byte	.LASF178
 1997 0ba1 15       		.byte	0x15
 1998 0ba2 BA       		.byte	0xba
 1999 0ba3 5A000000 		.4byte	0x5a
 2000 0ba7 0E       		.byte	0xe
 2001 0ba8 12       		.uleb128 0x12
 2002 0ba9 5F626600 		.ascii	"_bf\000"
 2003 0bad 15       		.byte	0x15
 2004 0bae BB       		.byte	0xbb
 2005 0baf 380B0000 		.4byte	0xb38
 2006 0bb3 10       		.byte	0x10
 2007 0bb4 07       		.uleb128 0x7
 2008 0bb5 1A010000 		.4byte	.LASF179
 2009 0bb9 15       		.byte	0x15
 2010 0bba BC       		.byte	0xbc
 2011 0bbb 33000000 		.4byte	0x33
 2012 0bbf 18       		.byte	0x18
 2013 0bc0 07       		.uleb128 0x7
 2014 0bc1 03020000 		.4byte	.LASF180
 2015 0bc5 15       		.byte	0x15
 2016 0bc6 C3       		.byte	0xc3
 2017 0bc7 79030000 		.4byte	0x379
 2018 0bcb 1C       		.byte	0x1c
 2019 0bcc 07       		.uleb128 0x7
 2020 0bcd 880A0000 		.4byte	.LASF181
 2021 0bd1 15       		.byte	0x15
 2022 0bd2 C5       		.byte	0xc5
 2023 0bd3 E80D0000 		.4byte	0xde8
 2024 0bd7 20       		.byte	0x20
ARM GAS  /tmp/ccKFb8Yw.s 			page 37


 2025 0bd8 07       		.uleb128 0x7
 2026 0bd9 0F080000 		.4byte	.LASF182
 2027 0bdd 15       		.byte	0x15
 2028 0bde C7       		.byte	0xc7
 2029 0bdf 0C0E0000 		.4byte	0xe0c
 2030 0be3 24       		.byte	0x24
 2031 0be4 07       		.uleb128 0x7
 2032 0be5 3E0C0000 		.4byte	.LASF183
 2033 0be9 15       		.byte	0x15
 2034 0bea CA       		.byte	0xca
 2035 0beb 300E0000 		.4byte	0xe30
 2036 0bef 28       		.byte	0x28
 2037 0bf0 07       		.uleb128 0x7
 2038 0bf1 59060000 		.4byte	.LASF184
 2039 0bf5 15       		.byte	0x15
 2040 0bf6 CB       		.byte	0xcb
 2041 0bf7 4A0E0000 		.4byte	0xe4a
 2042 0bfb 2C       		.byte	0x2c
 2043 0bfc 12       		.uleb128 0x12
 2044 0bfd 5F756200 		.ascii	"_ub\000"
 2045 0c01 15       		.byte	0x15
 2046 0c02 CE       		.byte	0xce
 2047 0c03 380B0000 		.4byte	0xb38
 2048 0c07 30       		.byte	0x30
 2049 0c08 12       		.uleb128 0x12
 2050 0c09 5F757000 		.ascii	"_up\000"
 2051 0c0d 15       		.byte	0x15
 2052 0c0e CF       		.byte	0xcf
 2053 0c0f 5D0B0000 		.4byte	0xb5d
 2054 0c13 38       		.byte	0x38
 2055 0c14 12       		.uleb128 0x12
 2056 0c15 5F757200 		.ascii	"_ur\000"
 2057 0c19 15       		.byte	0x15
 2058 0c1a D0       		.byte	0xd0
 2059 0c1b 33000000 		.4byte	0x33
 2060 0c1f 3C       		.byte	0x3c
 2061 0c20 07       		.uleb128 0x7
 2062 0c21 96040000 		.4byte	.LASF185
 2063 0c25 15       		.byte	0x15
 2064 0c26 D3       		.byte	0xd3
 2065 0c27 88080000 		.4byte	0x888
 2066 0c2b 40       		.byte	0x40
 2067 0c2c 07       		.uleb128 0x7
 2068 0c2d DD0B0000 		.4byte	.LASF186
 2069 0c31 15       		.byte	0x15
 2070 0c32 D4       		.byte	0xd4
 2071 0c33 500E0000 		.4byte	0xe50
 2072 0c37 43       		.byte	0x43
 2073 0c38 12       		.uleb128 0x12
 2074 0c39 5F6C6200 		.ascii	"_lb\000"
 2075 0c3d 15       		.byte	0x15
 2076 0c3e D7       		.byte	0xd7
 2077 0c3f 380B0000 		.4byte	0xb38
 2078 0c43 44       		.byte	0x44
 2079 0c44 07       		.uleb128 0x7
 2080 0c45 81090000 		.4byte	.LASF187
 2081 0c49 15       		.byte	0x15
ARM GAS  /tmp/ccKFb8Yw.s 			page 38


 2082 0c4a DA       		.byte	0xda
 2083 0c4b 33000000 		.4byte	0x33
 2084 0c4f 4C       		.byte	0x4c
 2085 0c50 07       		.uleb128 0x7
 2086 0c51 8E040000 		.4byte	.LASF188
 2087 0c55 15       		.byte	0x15
 2088 0c56 DB       		.byte	0xdb
 2089 0c57 12090000 		.4byte	0x912
 2090 0c5b 50       		.byte	0x50
 2091 0c5c 07       		.uleb128 0x7
 2092 0c5d DD080000 		.4byte	.LASF189
 2093 0c61 15       		.byte	0x15
 2094 0c62 DE       		.byte	0xde
 2095 0c63 AB0C0000 		.4byte	0xcab
 2096 0c67 54       		.byte	0x54
 2097 0c68 07       		.uleb128 0x7
 2098 0c69 8F090000 		.4byte	.LASF190
 2099 0c6d 15       		.byte	0x15
 2100 0c6e E2       		.byte	0xe2
 2101 0c6f 8F090000 		.4byte	0x98f
 2102 0c73 58       		.byte	0x58
 2103 0c74 07       		.uleb128 0x7
 2104 0c75 8B010000 		.4byte	.LASF191
 2105 0c79 15       		.byte	0x15
 2106 0c7a E4       		.byte	0xe4
 2107 0c7b 84090000 		.4byte	0x984
 2108 0c7f 5C       		.byte	0x5c
 2109 0c80 07       		.uleb128 0x7
 2110 0c81 090C0000 		.4byte	.LASF192
 2111 0c85 15       		.byte	0x15
 2112 0c86 E5       		.byte	0xe5
 2113 0c87 33000000 		.4byte	0x33
 2114 0c8b 64       		.byte	0x64
 2115 0c8c 00       		.byte	0
 2116 0c8d 21       		.uleb128 0x21
 2117 0c8e 33000000 		.4byte	0x33
 2118 0c92 AB0C0000 		.4byte	0xcab
 2119 0c96 0D       		.uleb128 0xd
 2120 0c97 AB0C0000 		.4byte	0xcab
 2121 0c9b 0D       		.uleb128 0xd
 2122 0c9c 79030000 		.4byte	0x379
 2123 0ca0 0D       		.uleb128 0xd
 2124 0ca1 9A090000 		.4byte	0x99a
 2125 0ca5 0D       		.uleb128 0xd
 2126 0ca6 33000000 		.4byte	0x33
 2127 0caa 00       		.byte	0
 2128 0cab 0A       		.uleb128 0xa
 2129 0cac 04       		.byte	0x4
 2130 0cad B60C0000 		.4byte	0xcb6
 2131 0cb1 16       		.uleb128 0x16
 2132 0cb2 AB0C0000 		.4byte	0xcab
 2133 0cb6 0F       		.uleb128 0xf
 2134 0cb7 340B0000 		.4byte	.LASF193
 2135 0cbb 2804     		.2byte	0x428
 2136 0cbd 15       		.byte	0x15
 2137 0cbe 6002     		.2byte	0x260
 2138 0cc0 E80D0000 		.4byte	0xde8
ARM GAS  /tmp/ccKFb8Yw.s 			page 39


 2139 0cc4 09       		.uleb128 0x9
 2140 0cc5 3E010000 		.4byte	.LASF194
 2141 0cc9 15       		.byte	0x15
 2142 0cca 6202     		.2byte	0x262
 2143 0ccc 33000000 		.4byte	0x33
 2144 0cd0 00       		.byte	0
 2145 0cd1 09       		.uleb128 0x9
 2146 0cd2 AF060000 		.4byte	.LASF195
 2147 0cd6 15       		.byte	0x15
 2148 0cd7 6702     		.2byte	0x267
 2149 0cd9 A70E0000 		.4byte	0xea7
 2150 0cdd 04       		.byte	0x4
 2151 0cde 09       		.uleb128 0x9
 2152 0cdf D4010000 		.4byte	.LASF196
 2153 0ce3 15       		.byte	0x15
 2154 0ce4 6702     		.2byte	0x267
 2155 0ce6 A70E0000 		.4byte	0xea7
 2156 0cea 08       		.byte	0x8
 2157 0ceb 09       		.uleb128 0x9
 2158 0cec 440C0000 		.4byte	.LASF197
 2159 0cf0 15       		.byte	0x15
 2160 0cf1 6702     		.2byte	0x267
 2161 0cf3 A70E0000 		.4byte	0xea7
 2162 0cf7 0C       		.byte	0xc
 2163 0cf8 09       		.uleb128 0x9
 2164 0cf9 20050000 		.4byte	.LASF198
 2165 0cfd 15       		.byte	0x15
 2166 0cfe 6902     		.2byte	0x269
 2167 0d00 33000000 		.4byte	0x33
 2168 0d04 10       		.byte	0x10
 2169 0d05 09       		.uleb128 0x9
 2170 0d06 CE040000 		.4byte	.LASF199
 2171 0d0a 15       		.byte	0x15
 2172 0d0b 6A02     		.2byte	0x26a
 2173 0d0d 89100000 		.4byte	0x1089
 2174 0d11 14       		.byte	0x14
 2175 0d12 09       		.uleb128 0x9
 2176 0d13 F00B0000 		.4byte	.LASF200
 2177 0d17 15       		.byte	0x15
 2178 0d18 6D02     		.2byte	0x26d
 2179 0d1a 33000000 		.4byte	0x33
 2180 0d1e 30       		.byte	0x30
 2181 0d1f 09       		.uleb128 0x9
 2182 0d20 040B0000 		.4byte	.LASF201
 2183 0d24 15       		.byte	0x15
 2184 0d25 6E02     		.2byte	0x26e
 2185 0d27 9E100000 		.4byte	0x109e
 2186 0d2b 34       		.byte	0x34
 2187 0d2c 09       		.uleb128 0x9
 2188 0d2d 81060000 		.4byte	.LASF202
 2189 0d31 15       		.byte	0x15
 2190 0d32 7002     		.2byte	0x270
 2191 0d34 33000000 		.4byte	0x33
 2192 0d38 38       		.byte	0x38
 2193 0d39 09       		.uleb128 0x9
 2194 0d3a 49070000 		.4byte	.LASF203
 2195 0d3e 15       		.byte	0x15
ARM GAS  /tmp/ccKFb8Yw.s 			page 40


 2196 0d3f 7202     		.2byte	0x272
 2197 0d41 AF100000 		.4byte	0x10af
 2198 0d45 3C       		.byte	0x3c
 2199 0d46 09       		.uleb128 0x9
 2200 0d47 46020000 		.4byte	.LASF204
 2201 0d4b 15       		.byte	0x15
 2202 0d4c 7502     		.2byte	0x275
 2203 0d4e FE090000 		.4byte	0x9fe
 2204 0d52 40       		.byte	0x40
 2205 0d53 09       		.uleb128 0x9
 2206 0d54 18060000 		.4byte	.LASF205
 2207 0d58 15       		.byte	0x15
 2208 0d59 7602     		.2byte	0x276
 2209 0d5b 33000000 		.4byte	0x33
 2210 0d5f 44       		.byte	0x44
 2211 0d60 09       		.uleb128 0x9
 2212 0d61 29090000 		.4byte	.LASF206
 2213 0d65 15       		.byte	0x15
 2214 0d66 7702     		.2byte	0x277
 2215 0d68 FE090000 		.4byte	0x9fe
 2216 0d6c 48       		.byte	0x48
 2217 0d6d 09       		.uleb128 0x9
 2218 0d6e E4060000 		.4byte	.LASF207
 2219 0d72 15       		.byte	0x15
 2220 0d73 7802     		.2byte	0x278
 2221 0d75 B5100000 		.4byte	0x10b5
 2222 0d79 4C       		.byte	0x4c
 2223 0d7a 09       		.uleb128 0x9
 2224 0d7b 60090000 		.4byte	.LASF208
 2225 0d7f 15       		.byte	0x15
 2226 0d80 7B02     		.2byte	0x27b
 2227 0d82 33000000 		.4byte	0x33
 2228 0d86 50       		.byte	0x50
 2229 0d87 09       		.uleb128 0x9
 2230 0d88 0B0A0000 		.4byte	.LASF209
 2231 0d8c 15       		.byte	0x15
 2232 0d8d 7C02     		.2byte	0x27c
 2233 0d8f 9A090000 		.4byte	0x99a
 2234 0d93 54       		.byte	0x54
 2235 0d94 09       		.uleb128 0x9
 2236 0d95 5B090000 		.4byte	.LASF210
 2237 0d99 15       		.byte	0x15
 2238 0d9a 9F02     		.2byte	0x29f
 2239 0d9c 67100000 		.4byte	0x1067
 2240 0da0 58       		.byte	0x58
 2241 0da1 22       		.uleb128 0x22
 2242 0da2 26080000 		.4byte	.LASF170
 2243 0da6 15       		.byte	0x15
 2244 0da7 A302     		.2byte	0x2a3
 2245 0da9 1B0B0000 		.4byte	0xb1b
 2246 0dad 4801     		.2byte	0x148
 2247 0daf 22       		.uleb128 0x22
 2248 0db0 FE050000 		.4byte	.LASF211
 2249 0db4 15       		.byte	0x15
 2250 0db5 A402     		.2byte	0x2a4
 2251 0db7 DD0A0000 		.4byte	0xadd
 2252 0dbb 4C01     		.2byte	0x14c
ARM GAS  /tmp/ccKFb8Yw.s 			page 41


 2253 0dbd 22       		.uleb128 0x22
 2254 0dbe E5050000 		.4byte	.LASF212
 2255 0dc2 15       		.byte	0x15
 2256 0dc3 A802     		.2byte	0x2a8
 2257 0dc5 C6100000 		.4byte	0x10c6
 2258 0dc9 DC02     		.2byte	0x2dc
 2259 0dcb 22       		.uleb128 0x22
 2260 0dcc DB0A0000 		.4byte	.LASF213
 2261 0dd0 15       		.byte	0x15
 2262 0dd1 AD02     		.2byte	0x2ad
 2263 0dd3 6C0E0000 		.4byte	0xe6c
 2264 0dd7 E002     		.2byte	0x2e0
 2265 0dd9 22       		.uleb128 0x22
 2266 0dda AC080000 		.4byte	.LASF214
 2267 0dde 15       		.byte	0x15
 2268 0ddf AF02     		.2byte	0x2af
 2269 0de1 D2100000 		.4byte	0x10d2
 2270 0de5 EC02     		.2byte	0x2ec
 2271 0de7 00       		.byte	0
 2272 0de8 0A       		.uleb128 0xa
 2273 0de9 04       		.byte	0x4
 2274 0dea 8D0C0000 		.4byte	0xc8d
 2275 0dee 21       		.uleb128 0x21
 2276 0def 33000000 		.4byte	0x33
 2277 0df3 0C0E0000 		.4byte	0xe0c
 2278 0df7 0D       		.uleb128 0xd
 2279 0df8 AB0C0000 		.4byte	0xcab
 2280 0dfc 0D       		.uleb128 0xd
 2281 0dfd 79030000 		.4byte	0x379
 2282 0e01 0D       		.uleb128 0xd
 2283 0e02 21070000 		.4byte	0x721
 2284 0e06 0D       		.uleb128 0xd
 2285 0e07 33000000 		.4byte	0x33
 2286 0e0b 00       		.byte	0
 2287 0e0c 0A       		.uleb128 0xa
 2288 0e0d 04       		.byte	0x4
 2289 0e0e EE0D0000 		.4byte	0xdee
 2290 0e12 21       		.uleb128 0x21
 2291 0e13 1D090000 		.4byte	0x91d
 2292 0e17 300E0000 		.4byte	0xe30
 2293 0e1b 0D       		.uleb128 0xd
 2294 0e1c AB0C0000 		.4byte	0xcab
 2295 0e20 0D       		.uleb128 0xd
 2296 0e21 79030000 		.4byte	0x379
 2297 0e25 0D       		.uleb128 0xd
 2298 0e26 1D090000 		.4byte	0x91d
 2299 0e2a 0D       		.uleb128 0xd
 2300 0e2b 33000000 		.4byte	0x33
 2301 0e2f 00       		.byte	0
 2302 0e30 0A       		.uleb128 0xa
 2303 0e31 04       		.byte	0x4
 2304 0e32 120E0000 		.4byte	0xe12
 2305 0e36 21       		.uleb128 0x21
 2306 0e37 33000000 		.4byte	0x33
 2307 0e3b 4A0E0000 		.4byte	0xe4a
 2308 0e3f 0D       		.uleb128 0xd
 2309 0e40 AB0C0000 		.4byte	0xcab
ARM GAS  /tmp/ccKFb8Yw.s 			page 42


 2310 0e44 0D       		.uleb128 0xd
 2311 0e45 79030000 		.4byte	0x379
 2312 0e49 00       		.byte	0
 2313 0e4a 0A       		.uleb128 0xa
 2314 0e4b 04       		.byte	0x4
 2315 0e4c 360E0000 		.4byte	0xe36
 2316 0e50 17       		.uleb128 0x17
 2317 0e51 53000000 		.4byte	0x53
 2318 0e55 600E0000 		.4byte	0xe60
 2319 0e59 18       		.uleb128 0x18
 2320 0e5a 2C000000 		.4byte	0x2c
 2321 0e5e 00       		.byte	0
 2322 0e5f 00       		.byte	0
 2323 0e60 1C       		.uleb128 0x1c
 2324 0e61 6F040000 		.4byte	.LASF215
 2325 0e65 15       		.byte	0x15
 2326 0e66 1F01     		.2byte	0x11f
 2327 0e68 630B0000 		.4byte	0xb63
 2328 0e6c 0B       		.uleb128 0xb
 2329 0e6d B80A0000 		.4byte	.LASF216
 2330 0e71 0C       		.byte	0xc
 2331 0e72 15       		.byte	0x15
 2332 0e73 2301     		.2byte	0x123
 2333 0e75 A10E0000 		.4byte	0xea1
 2334 0e79 09       		.uleb128 0x9
 2335 0e7a 44050000 		.4byte	.LASF151
 2336 0e7e 15       		.byte	0x15
 2337 0e7f 2501     		.2byte	0x125
 2338 0e81 A10E0000 		.4byte	0xea1
 2339 0e85 00       		.byte	0
 2340 0e86 09       		.uleb128 0x9
 2341 0e87 C3090000 		.4byte	.LASF217
 2342 0e8b 15       		.byte	0x15
 2343 0e8c 2601     		.2byte	0x126
 2344 0e8e 33000000 		.4byte	0x33
 2345 0e92 04       		.byte	0x4
 2346 0e93 09       		.uleb128 0x9
 2347 0e94 550C0000 		.4byte	.LASF218
 2348 0e98 15       		.byte	0x15
 2349 0e99 2701     		.2byte	0x127
 2350 0e9b A70E0000 		.4byte	0xea7
 2351 0e9f 08       		.byte	0x8
 2352 0ea0 00       		.byte	0
 2353 0ea1 0A       		.uleb128 0xa
 2354 0ea2 04       		.byte	0x4
 2355 0ea3 6C0E0000 		.4byte	0xe6c
 2356 0ea7 0A       		.uleb128 0xa
 2357 0ea8 04       		.byte	0x4
 2358 0ea9 600E0000 		.4byte	0xe60
 2359 0ead 0B       		.uleb128 0xb
 2360 0eae 56040000 		.4byte	.LASF219
 2361 0eb2 0E       		.byte	0xe
 2362 0eb3 15       		.byte	0x15
 2363 0eb4 3F01     		.2byte	0x13f
 2364 0eb6 E20E0000 		.4byte	0xee2
 2365 0eba 09       		.uleb128 0x9
 2366 0ebb 190C0000 		.4byte	.LASF220
ARM GAS  /tmp/ccKFb8Yw.s 			page 43


 2367 0ebf 15       		.byte	0x15
 2368 0ec0 4001     		.2byte	0x140
 2369 0ec2 E20E0000 		.4byte	0xee2
 2370 0ec6 00       		.byte	0
 2371 0ec7 09       		.uleb128 0x9
 2372 0ec8 FA060000 		.4byte	.LASF221
 2373 0ecc 15       		.byte	0x15
 2374 0ecd 4101     		.2byte	0x141
 2375 0ecf E20E0000 		.4byte	0xee2
 2376 0ed3 06       		.byte	0x6
 2377 0ed4 09       		.uleb128 0x9
 2378 0ed5 830A0000 		.4byte	.LASF222
 2379 0ed9 15       		.byte	0x15
 2380 0eda 4201     		.2byte	0x142
 2381 0edc 6C000000 		.4byte	0x6c
 2382 0ee0 0C       		.byte	0xc
 2383 0ee1 00       		.byte	0
 2384 0ee2 17       		.uleb128 0x17
 2385 0ee3 6C000000 		.4byte	0x6c
 2386 0ee7 F20E0000 		.4byte	0xef2
 2387 0eeb 18       		.uleb128 0x18
 2388 0eec 2C000000 		.4byte	0x2c
 2389 0ef0 02       		.byte	0x2
 2390 0ef1 00       		.byte	0
 2391 0ef2 23       		.uleb128 0x23
 2392 0ef3 D0       		.byte	0xd0
 2393 0ef4 15       		.byte	0x15
 2394 0ef5 8002     		.2byte	0x280
 2395 0ef7 F30F0000 		.4byte	0xff3
 2396 0efb 09       		.uleb128 0x9
 2397 0efc E30B0000 		.4byte	.LASF223
 2398 0f00 15       		.byte	0x15
 2399 0f01 8202     		.2byte	0x282
 2400 0f03 2C000000 		.4byte	0x2c
 2401 0f07 00       		.byte	0
 2402 0f08 09       		.uleb128 0x9
 2403 0f09 E90A0000 		.4byte	.LASF224
 2404 0f0d 15       		.byte	0x15
 2405 0f0e 8302     		.2byte	0x283
 2406 0f10 9A090000 		.4byte	0x99a
 2407 0f14 04       		.byte	0x4
 2408 0f15 09       		.uleb128 0x9
 2409 0f16 2C040000 		.4byte	.LASF225
 2410 0f1a 15       		.byte	0x15
 2411 0f1b 8402     		.2byte	0x284
 2412 0f1d F30F0000 		.4byte	0xff3
 2413 0f21 08       		.byte	0x8
 2414 0f22 09       		.uleb128 0x9
 2415 0f23 2E090000 		.4byte	.LASF226
 2416 0f27 15       		.byte	0x15
 2417 0f28 8502     		.2byte	0x285
 2418 0f2a 140A0000 		.4byte	0xa14
 2419 0f2e 24       		.byte	0x24
 2420 0f2f 09       		.uleb128 0x9
 2421 0f30 B6060000 		.4byte	.LASF227
 2422 0f34 15       		.byte	0x15
 2423 0f35 8602     		.2byte	0x286
ARM GAS  /tmp/ccKFb8Yw.s 			page 44


 2424 0f37 33000000 		.4byte	0x33
 2425 0f3b 48       		.byte	0x48
 2426 0f3c 09       		.uleb128 0x9
 2427 0f3d 1F0C0000 		.4byte	.LASF228
 2428 0f41 15       		.byte	0x15
 2429 0f42 8702     		.2byte	0x287
 2430 0f44 25000000 		.4byte	0x25
 2431 0f48 50       		.byte	0x50
 2432 0f49 09       		.uleb128 0x9
 2433 0f4a A2000000 		.4byte	.LASF229
 2434 0f4e 15       		.byte	0x15
 2435 0f4f 8802     		.2byte	0x288
 2436 0f51 AD0E0000 		.4byte	0xead
 2437 0f55 58       		.byte	0x58
 2438 0f56 09       		.uleb128 0x9
 2439 0f57 BF050000 		.4byte	.LASF230
 2440 0f5b 15       		.byte	0x15
 2441 0f5c 8902     		.2byte	0x289
 2442 0f5e 84090000 		.4byte	0x984
 2443 0f62 68       		.byte	0x68
 2444 0f63 09       		.uleb128 0x9
 2445 0f64 F60A0000 		.4byte	.LASF231
 2446 0f68 15       		.byte	0x15
 2447 0f69 8A02     		.2byte	0x28a
 2448 0f6b 84090000 		.4byte	0x984
 2449 0f6f 70       		.byte	0x70
 2450 0f70 09       		.uleb128 0x9
 2451 0f71 8A000000 		.4byte	.LASF232
 2452 0f75 15       		.byte	0x15
 2453 0f76 8B02     		.2byte	0x28b
 2454 0f78 84090000 		.4byte	0x984
 2455 0f7c 78       		.byte	0x78
 2456 0f7d 09       		.uleb128 0x9
 2457 0f7e A60A0000 		.4byte	.LASF233
 2458 0f82 15       		.byte	0x15
 2459 0f83 8C02     		.2byte	0x28c
 2460 0f85 03100000 		.4byte	0x1003
 2461 0f89 80       		.byte	0x80
 2462 0f8a 09       		.uleb128 0x9
 2463 0f8b DF000000 		.4byte	.LASF234
 2464 0f8f 15       		.byte	0x15
 2465 0f90 8D02     		.2byte	0x28d
 2466 0f92 13100000 		.4byte	0x1013
 2467 0f96 88       		.byte	0x88
 2468 0f97 09       		.uleb128 0x9
 2469 0f98 760A0000 		.4byte	.LASF235
 2470 0f9c 15       		.byte	0x15
 2471 0f9d 8E02     		.2byte	0x28e
 2472 0f9f 33000000 		.4byte	0x33
 2473 0fa3 A0       		.byte	0xa0
 2474 0fa4 09       		.uleb128 0x9
 2475 0fa5 9C010000 		.4byte	.LASF236
 2476 0fa9 15       		.byte	0x15
 2477 0faa 8F02     		.2byte	0x28f
 2478 0fac 84090000 		.4byte	0x984
 2479 0fb0 A4       		.byte	0xa4
 2480 0fb1 09       		.uleb128 0x9
ARM GAS  /tmp/ccKFb8Yw.s 			page 45


 2481 0fb2 EF050000 		.4byte	.LASF237
 2482 0fb6 15       		.byte	0x15
 2483 0fb7 9002     		.2byte	0x290
 2484 0fb9 84090000 		.4byte	0x984
 2485 0fbd AC       		.byte	0xac
 2486 0fbe 09       		.uleb128 0x9
 2487 0fbf 04040000 		.4byte	.LASF238
 2488 0fc3 15       		.byte	0x15
 2489 0fc4 9102     		.2byte	0x291
 2490 0fc6 84090000 		.4byte	0x984
 2491 0fca B4       		.byte	0xb4
 2492 0fcb 09       		.uleb128 0x9
 2493 0fcc 1C070000 		.4byte	.LASF239
 2494 0fd0 15       		.byte	0x15
 2495 0fd1 9202     		.2byte	0x292
 2496 0fd3 84090000 		.4byte	0x984
 2497 0fd7 BC       		.byte	0xbc
 2498 0fd8 09       		.uleb128 0x9
 2499 0fd9 AE050000 		.4byte	.LASF240
 2500 0fdd 15       		.byte	0x15
 2501 0fde 9302     		.2byte	0x293
 2502 0fe0 84090000 		.4byte	0x984
 2503 0fe4 C4       		.byte	0xc4
 2504 0fe5 09       		.uleb128 0x9
 2505 0fe6 76040000 		.4byte	.LASF241
 2506 0fea 15       		.byte	0x15
 2507 0feb 9402     		.2byte	0x294
 2508 0fed 33000000 		.4byte	0x33
 2509 0ff1 CC       		.byte	0xcc
 2510 0ff2 00       		.byte	0
 2511 0ff3 17       		.uleb128 0x17
 2512 0ff4 2C070000 		.4byte	0x72c
 2513 0ff8 03100000 		.4byte	0x1003
 2514 0ffc 18       		.uleb128 0x18
 2515 0ffd 2C000000 		.4byte	0x2c
 2516 1001 19       		.byte	0x19
 2517 1002 00       		.byte	0
 2518 1003 17       		.uleb128 0x17
 2519 1004 2C070000 		.4byte	0x72c
 2520 1008 13100000 		.4byte	0x1013
 2521 100c 18       		.uleb128 0x18
 2522 100d 2C000000 		.4byte	0x2c
 2523 1011 07       		.byte	0x7
 2524 1012 00       		.byte	0
 2525 1013 17       		.uleb128 0x17
 2526 1014 2C070000 		.4byte	0x72c
 2527 1018 23100000 		.4byte	0x1023
 2528 101c 18       		.uleb128 0x18
 2529 101d 2C000000 		.4byte	0x2c
 2530 1021 17       		.byte	0x17
 2531 1022 00       		.byte	0
 2532 1023 23       		.uleb128 0x23
 2533 1024 F0       		.byte	0xf0
 2534 1025 15       		.byte	0x15
 2535 1026 9902     		.2byte	0x299
 2536 1028 47100000 		.4byte	0x1047
 2537 102c 09       		.uleb128 0x9
ARM GAS  /tmp/ccKFb8Yw.s 			page 46


 2538 102d B9020000 		.4byte	.LASF242
 2539 1031 15       		.byte	0x15
 2540 1032 9C02     		.2byte	0x29c
 2541 1034 47100000 		.4byte	0x1047
 2542 1038 00       		.byte	0
 2543 1039 09       		.uleb128 0x9
 2544 103a 4C0C0000 		.4byte	.LASF243
 2545 103e 15       		.byte	0x15
 2546 103f 9D02     		.2byte	0x29d
 2547 1041 57100000 		.4byte	0x1057
 2548 1045 78       		.byte	0x78
 2549 1046 00       		.byte	0
 2550 1047 17       		.uleb128 0x17
 2551 1048 5D0B0000 		.4byte	0xb5d
 2552 104c 57100000 		.4byte	0x1057
 2553 1050 18       		.uleb128 0x18
 2554 1051 2C000000 		.4byte	0x2c
 2555 1055 1D       		.byte	0x1d
 2556 1056 00       		.byte	0
 2557 1057 17       		.uleb128 0x17
 2558 1058 2C000000 		.4byte	0x2c
 2559 105c 67100000 		.4byte	0x1067
 2560 1060 18       		.uleb128 0x18
 2561 1061 2C000000 		.4byte	0x2c
 2562 1065 1D       		.byte	0x1d
 2563 1066 00       		.byte	0
 2564 1067 24       		.uleb128 0x24
 2565 1068 F0       		.byte	0xf0
 2566 1069 15       		.byte	0x15
 2567 106a 7E02     		.2byte	0x27e
 2568 106c 89100000 		.4byte	0x1089
 2569 1070 15       		.uleb128 0x15
 2570 1071 340B0000 		.4byte	.LASF193
 2571 1075 15       		.byte	0x15
 2572 1076 9502     		.2byte	0x295
 2573 1078 F20E0000 		.4byte	0xef2
 2574 107c 15       		.uleb128 0x15
 2575 107d 49090000 		.4byte	.LASF244
 2576 1081 15       		.byte	0x15
 2577 1082 9E02     		.2byte	0x29e
 2578 1084 23100000 		.4byte	0x1023
 2579 1088 00       		.byte	0
 2580 1089 17       		.uleb128 0x17
 2581 108a 2C070000 		.4byte	0x72c
 2582 108e 99100000 		.4byte	0x1099
 2583 1092 18       		.uleb128 0x18
 2584 1093 2C000000 		.4byte	0x2c
 2585 1097 18       		.byte	0x18
 2586 1098 00       		.byte	0
 2587 1099 1B       		.uleb128 0x1b
 2588 109a 2A0C0000 		.4byte	.LASF246
 2589 109e 0A       		.uleb128 0xa
 2590 109f 04       		.byte	0x4
 2591 10a0 99100000 		.4byte	0x1099
 2592 10a4 0C       		.uleb128 0xc
 2593 10a5 AF100000 		.4byte	0x10af
 2594 10a9 0D       		.uleb128 0xd
ARM GAS  /tmp/ccKFb8Yw.s 			page 47


 2595 10aa AB0C0000 		.4byte	0xcab
 2596 10ae 00       		.byte	0
 2597 10af 0A       		.uleb128 0xa
 2598 10b0 04       		.byte	0x4
 2599 10b1 A4100000 		.4byte	0x10a4
 2600 10b5 0A       		.uleb128 0xa
 2601 10b6 04       		.byte	0x4
 2602 10b7 FE090000 		.4byte	0x9fe
 2603 10bb 0C       		.uleb128 0xc
 2604 10bc C6100000 		.4byte	0x10c6
 2605 10c0 0D       		.uleb128 0xd
 2606 10c1 33000000 		.4byte	0x33
 2607 10c5 00       		.byte	0
 2608 10c6 0A       		.uleb128 0xa
 2609 10c7 04       		.byte	0x4
 2610 10c8 CC100000 		.4byte	0x10cc
 2611 10cc 0A       		.uleb128 0xa
 2612 10cd 04       		.byte	0x4
 2613 10ce BB100000 		.4byte	0x10bb
 2614 10d2 17       		.uleb128 0x17
 2615 10d3 600E0000 		.4byte	0xe60
 2616 10d7 E2100000 		.4byte	0x10e2
 2617 10db 18       		.uleb128 0x18
 2618 10dc 2C000000 		.4byte	0x2c
 2619 10e0 02       		.byte	0x2
 2620 10e1 00       		.byte	0
 2621 10e2 10       		.uleb128 0x10
 2622 10e3 A5020000 		.4byte	.LASF247
 2623 10e7 15       		.byte	0x15
 2624 10e8 2E03     		.2byte	0x32e
 2625 10ea AB0C0000 		.4byte	0xcab
 2626 10ee 10       		.uleb128 0x10
 2627 10ef 0B020000 		.4byte	.LASF248
 2628 10f3 15       		.byte	0x15
 2629 10f4 2F03     		.2byte	0x32f
 2630 10f6 B10C0000 		.4byte	0xcb1
 2631 10fa 25       		.uleb128 0x25
 2632 10fb BE0A0000 		.4byte	.LASF278
 2633 10ff 05       		.byte	0x5
 2634 1100 01       		.byte	0x1
 2635 1101 41000000 		.4byte	0x41
 2636 1105 16       		.byte	0x16
 2637 1106 8202     		.2byte	0x282
 2638 1108 25110000 		.4byte	0x1125
 2639 110c 26       		.uleb128 0x26
 2640 110d 1B090000 		.4byte	.LASF249
 2641 1111 7F       		.sleb128 -1
 2642 1112 27       		.uleb128 0x27
 2643 1113 06070000 		.4byte	.LASF250
 2644 1117 00       		.byte	0
 2645 1118 27       		.uleb128 0x27
 2646 1119 40000000 		.4byte	.LASF251
 2647 111d 01       		.byte	0x1
 2648 111e 27       		.uleb128 0x27
 2649 111f 7F040000 		.4byte	.LASF252
 2650 1123 02       		.byte	0x2
 2651 1124 00       		.byte	0
ARM GAS  /tmp/ccKFb8Yw.s 			page 48


 2652 1125 10       		.uleb128 0x10
 2653 1126 53070000 		.4byte	.LASF253
 2654 112a 16       		.byte	0x16
 2655 112b 8D02     		.2byte	0x28d
 2656 112d FA100000 		.4byte	0x10fa
 2657 1131 13       		.uleb128 0x13
 2658 1132 14       		.byte	0x14
 2659 1133 01       		.byte	0x1
 2660 1134 20       		.byte	0x20
 2661 1135 76110000 		.4byte	0x1176
 2662 1139 07       		.uleb128 0x7
 2663 113a 68090000 		.4byte	.LASF254
 2664 113e 01       		.byte	0x1
 2665 113f 21       		.byte	0x21
 2666 1140 21070000 		.4byte	0x721
 2667 1144 00       		.byte	0
 2668 1145 07       		.uleb128 0x7
 2669 1146 E2090000 		.4byte	.LASF255
 2670 114a 01       		.byte	0x1
 2671 114b 22       		.byte	0x22
 2672 114c 9C020000 		.4byte	0x29c
 2673 1150 04       		.byte	0x4
 2674 1151 07       		.uleb128 0x7
 2675 1152 82070000 		.4byte	.LASF256
 2676 1156 01       		.byte	0x1
 2677 1157 23       		.byte	0x23
 2678 1158 3A000000 		.4byte	0x3a
 2679 115c 08       		.byte	0x8
 2680 115d 07       		.uleb128 0x7
 2681 115e 9C040000 		.4byte	.LASF257
 2682 1162 01       		.byte	0x1
 2683 1163 24       		.byte	0x24
 2684 1164 58010000 		.4byte	0x158
 2685 1168 0C       		.byte	0xc
 2686 1169 12       		.uleb128 0x12
 2687 116a 73657400 		.ascii	"set\000"
 2688 116e 01       		.byte	0x1
 2689 116f 25       		.byte	0x25
 2690 1170 81080000 		.4byte	0x881
 2691 1174 10       		.byte	0x10
 2692 1175 00       		.byte	0
 2693 1176 04       		.uleb128 0x4
 2694 1177 1E080000 		.4byte	.LASF258
 2695 117b 01       		.byte	0x1
 2696 117c 26       		.byte	0x26
 2697 117d 31110000 		.4byte	0x1131
 2698 1181 05       		.uleb128 0x5
 2699 1182 76110000 		.4byte	0x1176
 2700 1186 17       		.uleb128 0x17
 2701 1187 81110000 		.4byte	0x1181
 2702 118b 96110000 		.4byte	0x1196
 2703 118f 18       		.uleb128 0x18
 2704 1190 2C000000 		.4byte	0x2c
 2705 1194 1D       		.byte	0x1d
 2706 1195 00       		.byte	0
 2707 1196 05       		.uleb128 0x5
 2708 1197 86110000 		.4byte	0x1186
ARM GAS  /tmp/ccKFb8Yw.s 			page 49


 2709 119b 28       		.uleb128 0x28
 2710 119c 2E080000 		.4byte	.LASF259
 2711 11a0 01       		.byte	0x1
 2712 11a1 29       		.byte	0x29
 2713 11a2 96110000 		.4byte	0x1196
 2714 11a6 05       		.uleb128 0x5
 2715 11a7 03       		.byte	0x3
 2716 11a8 00000000 		.4byte	m_events
 2717 11ac 28       		.uleb128 0x28
 2718 11ad A5070000 		.4byte	.LASF260
 2719 11b1 01       		.byte	0x1
 2720 11b2 2A       		.byte	0x2a
 2721 11b3 A9000000 		.4byte	0xa9
 2722 11b7 05       		.uleb128 0x5
 2723 11b8 03       		.byte	0x3
 2724 11b9 00000000 		.4byte	m_event_now
 2725 11bd 28       		.uleb128 0x28
 2726 11be 09090000 		.4byte	.LASF261
 2727 11c2 01       		.byte	0x1
 2728 11c3 2B       		.byte	0x2b
 2729 11c4 6B080000 		.4byte	0x86b
 2730 11c8 05       		.uleb128 0x5
 2731 11c9 03       		.byte	0x3
 2732 11ca 00000000 		.4byte	m_mtx
 2733 11ce 29       		.uleb128 0x29
 2734 11cf 68060000 		.4byte	.LASF279
 2735 11d3 01       		.byte	0x1
 2736 11d4 61       		.byte	0x61
 2737 11d5 00000000 		.4byte	.LFB221
 2738 11d9 E8000000 		.4byte	.LFE221-.LFB221
 2739 11dd 01       		.uleb128 0x1
 2740 11de 9C       		.byte	0x9c
 2741 11df DF120000 		.4byte	0x12df
 2742 11e3 2A       		.uleb128 0x2a
 2743 11e4 3F050000 		.4byte	.LASF262
 2744 11e8 01       		.byte	0x1
 2745 11e9 61       		.byte	0x61
 2746 11ea 33000000 		.4byte	0x33
 2747 11ee 00000000 		.4byte	.LLST0
 2748 11f2 2A       		.uleb128 0x2a
 2749 11f3 E6070000 		.4byte	.LASF263
 2750 11f7 01       		.byte	0x1
 2751 11f8 61       		.byte	0x61
 2752 11f9 DF120000 		.4byte	0x12df
 2753 11fd 21000000 		.4byte	.LLST1
 2754 1201 2B       		.uleb128 0x2b
 2755 1202 92020000 		.4byte	.LASF264
 2756 1206 01       		.byte	0x1
 2757 1207 64       		.byte	0x64
 2758 1208 33000000 		.4byte	0x33
 2759 120c 42000000 		.4byte	.LLST2
 2760 1210 2B       		.uleb128 0x2b
 2761 1211 A2080000 		.4byte	.LASF265
 2762 1215 01       		.byte	0x1
 2763 1216 65       		.byte	0x65
 2764 1217 33000000 		.4byte	0x33
 2765 121b A4000000 		.4byte	.LLST3
ARM GAS  /tmp/ccKFb8Yw.s 			page 50


 2766 121f 2C       		.uleb128 0x2c
 2767 1220 00000000 		.4byte	.Ldebug_ranges0+0
 2768 1224 CB120000 		.4byte	0x12cb
 2769 1228 2D       		.uleb128 0x2d
 2770 1229 6500     		.ascii	"e\000"
 2771 122b 01       		.byte	0x1
 2772 122c 68       		.byte	0x68
 2773 122d E5120000 		.4byte	0x12e5
 2774 1231 CE000000 		.4byte	.LLST4
 2775 1235 2E       		.uleb128 0x2e
 2776 1236 32140000 		.4byte	0x1432
 2777 123a 0A000000 		.4byte	.LBB20
 2778 123e 28000000 		.4byte	.Ldebug_ranges0+0x28
 2779 1242 01       		.byte	0x1
 2780 1243 6C       		.byte	0x6c
 2781 1244 5E120000 		.4byte	0x125e
 2782 1248 2F       		.uleb128 0x2f
 2783 1249 43140000 		.4byte	0x1443
 2784 124d 30       		.uleb128 0x30
 2785 124e 50140000 		.4byte	0x1450
 2786 1252 0A000000 		.4byte	.LBB22
 2787 1256 40000000 		.4byte	.Ldebug_ranges0+0x40
 2788 125a 02       		.byte	0x2
 2789 125b 0B01     		.2byte	0x10b
 2790 125d 00       		.byte	0
 2791 125e 31       		.uleb128 0x31
 2792 125f 76000000 		.4byte	.LVL8
 2793 1263 5C140000 		.4byte	0x145c
 2794 1267 72120000 		.4byte	0x1272
 2795 126b 32       		.uleb128 0x32
 2796 126c 01       		.uleb128 0x1
 2797 126d 50       		.byte	0x50
 2798 126e 02       		.uleb128 0x2
 2799 126f 78       		.byte	0x78
 2800 1270 00       		.sleb128 0
 2801 1271 00       		.byte	0
 2802 1272 31       		.uleb128 0x31
 2803 1273 82000000 		.4byte	.LVL9
 2804 1277 5C140000 		.4byte	0x145c
 2805 127b 89120000 		.4byte	0x1289
 2806 127f 32       		.uleb128 0x32
 2807 1280 01       		.uleb128 0x1
 2808 1281 50       		.byte	0x50
 2809 1282 05       		.uleb128 0x5
 2810 1283 03       		.byte	0x3
 2811 1284 10000000 		.4byte	.LC1
 2812 1288 00       		.byte	0
 2813 1289 31       		.uleb128 0x31
 2814 128a 8E000000 		.4byte	.LVL10
 2815 128e 5C140000 		.4byte	0x145c
 2816 1292 A0120000 		.4byte	0x12a0
 2817 1296 32       		.uleb128 0x32
 2818 1297 01       		.uleb128 0x1
 2819 1298 50       		.byte	0x50
 2820 1299 05       		.uleb128 0x5
 2821 129a 03       		.byte	0x3
 2822 129b 1C000000 		.4byte	.LC2
ARM GAS  /tmp/ccKFb8Yw.s 			page 51


 2823 129f 00       		.byte	0
 2824 12a0 31       		.uleb128 0x31
 2825 12a1 98000000 		.4byte	.LVL11
 2826 12a5 5C140000 		.4byte	0x145c
 2827 12a9 B7120000 		.4byte	0x12b7
 2828 12ad 32       		.uleb128 0x32
 2829 12ae 01       		.uleb128 0x1
 2830 12af 50       		.byte	0x50
 2831 12b0 05       		.uleb128 0x5
 2832 12b1 03       		.byte	0x3
 2833 12b2 28000000 		.4byte	.LC3
 2834 12b6 00       		.byte	0
 2835 12b7 33       		.uleb128 0x33
 2836 12b8 AA000000 		.4byte	.LVL13
 2837 12bc 5C140000 		.4byte	0x145c
 2838 12c0 32       		.uleb128 0x32
 2839 12c1 01       		.uleb128 0x1
 2840 12c2 50       		.byte	0x50
 2841 12c3 05       		.uleb128 0x5
 2842 12c4 03       		.byte	0x3
 2843 12c5 34000000 		.4byte	.LC4
 2844 12c9 00       		.byte	0
 2845 12ca 00       		.byte	0
 2846 12cb 34       		.uleb128 0x34
 2847 12cc BC000000 		.4byte	.LVL16
 2848 12d0 5C140000 		.4byte	0x145c
 2849 12d4 32       		.uleb128 0x32
 2850 12d5 01       		.uleb128 0x1
 2851 12d6 50       		.byte	0x50
 2852 12d7 05       		.uleb128 0x5
 2853 12d8 03       		.byte	0x3
 2854 12d9 44000000 		.4byte	.LC5
 2855 12dd 00       		.byte	0
 2856 12de 00       		.byte	0
 2857 12df 0A       		.uleb128 0xa
 2858 12e0 04       		.byte	0x4
 2859 12e1 21070000 		.4byte	0x721
 2860 12e5 0A       		.uleb128 0xa
 2861 12e6 04       		.byte	0x4
 2862 12e7 81110000 		.4byte	0x1181
 2863 12eb 35       		.uleb128 0x35
 2864 12ec 77070000 		.4byte	.LASF266
 2865 12f0 01       		.byte	0x1
 2866 12f1 3F       		.byte	0x3f
 2867 12f2 00000000 		.4byte	.LFB220
 2868 12f6 14010000 		.4byte	.LFE220-.LFB220
 2869 12fa 01       		.uleb128 0x1
 2870 12fb 9C       		.byte	0x9c
 2871 12fc A1130000 		.4byte	0x13a1
 2872 1300 2A       		.uleb128 0x2a
 2873 1301 68090000 		.4byte	.LASF254
 2874 1305 01       		.byte	0x1
 2875 1306 3F       		.byte	0x3f
 2876 1307 21070000 		.4byte	0x721
 2877 130b 2A010000 		.4byte	.LLST7
 2878 130f 2A       		.uleb128 0x2a
 2879 1310 82070000 		.4byte	.LASF256
ARM GAS  /tmp/ccKFb8Yw.s 			page 52


 2880 1314 01       		.byte	0x1
 2881 1315 3F       		.byte	0x3f
 2882 1316 3A000000 		.4byte	0x3a
 2883 131a 61010000 		.4byte	.LLST8
 2884 131e 2B       		.uleb128 0x2b
 2885 131f 92020000 		.4byte	.LASF264
 2886 1323 01       		.byte	0x1
 2887 1324 42       		.byte	0x42
 2888 1325 33000000 		.4byte	0x33
 2889 1329 A9010000 		.4byte	.LLST9
 2890 132d 2D       		.uleb128 0x2d
 2891 132e 6500     		.ascii	"e\000"
 2892 1330 01       		.byte	0x1
 2893 1331 48       		.byte	0x48
 2894 1332 E5120000 		.4byte	0x12e5
 2895 1336 E0010000 		.4byte	.LLST10
 2896 133a 36       		.uleb128 0x36
 2897 133b 50140000 		.4byte	0x1450
 2898 133f 70000000 		.4byte	.LBB34
 2899 1343 02000000 		.4byte	.LBE34-.LBB34
 2900 1347 01       		.byte	0x1
 2901 1348 58       		.byte	0x58
 2902 1349 2E       		.uleb128 0x2e
 2903 134a 32140000 		.4byte	0x1432
 2904 134e 9A000000 		.4byte	.LBB36
 2905 1352 70000000 		.4byte	.Ldebug_ranges0+0x70
 2906 1356 01       		.byte	0x1
 2907 1357 4F       		.byte	0x4f
 2908 1358 76130000 		.4byte	0x1376
 2909 135c 37       		.uleb128 0x37
 2910 135d 43140000 		.4byte	0x1443
 2911 1361 19020000 		.4byte	.LLST11
 2912 1365 38       		.uleb128 0x38
 2913 1366 50140000 		.4byte	0x1450
 2914 136a 9A000000 		.4byte	.LBB38
 2915 136e 02000000 		.4byte	.LBE38-.LBB38
 2916 1372 02       		.byte	0x2
 2917 1373 0B01     		.2byte	0x10b
 2918 1375 00       		.byte	0
 2919 1376 31       		.uleb128 0x31
 2920 1377 14000000 		.4byte	.LVL24
 2921 137b 67140000 		.4byte	0x1467
 2922 137f 8D130000 		.4byte	0x138d
 2923 1383 32       		.uleb128 0x32
 2924 1384 01       		.uleb128 0x1
 2925 1385 50       		.byte	0x50
 2926 1386 05       		.uleb128 0x5
 2927 1387 03       		.byte	0x3
 2928 1388 00000000 		.4byte	.LANCHOR2
 2929 138c 00       		.byte	0
 2930 138d 34       		.uleb128 0x34
 2931 138e 84000000 		.4byte	.LVL33
 2932 1392 72140000 		.4byte	0x1472
 2933 1396 32       		.uleb128 0x32
 2934 1397 01       		.uleb128 0x1
 2935 1398 50       		.byte	0x50
 2936 1399 05       		.uleb128 0x5
ARM GAS  /tmp/ccKFb8Yw.s 			page 53


 2937 139a 03       		.byte	0x3
 2938 139b 00000000 		.4byte	.LANCHOR2
 2939 139f 00       		.byte	0
 2940 13a0 00       		.byte	0
 2941 13a1 35       		.uleb128 0x35
 2942 13a2 89080000 		.4byte	.LASF267
 2943 13a6 01       		.byte	0x1
 2944 13a7 30       		.byte	0x30
 2945 13a8 00000000 		.4byte	.LFB219
 2946 13ac 44000000 		.4byte	.LFE219-.LFB219
 2947 13b0 01       		.uleb128 0x1
 2948 13b1 9C       		.byte	0x9c
 2949 13b2 26140000 		.4byte	0x1426
 2950 13b6 39       		.uleb128 0x39
 2951 13b7 08000000 		.4byte	.LBB31
 2952 13bb 16000000 		.4byte	.LBE31-.LBB31
 2953 13bf E4130000 		.4byte	0x13e4
 2954 13c3 2D       		.uleb128 0x2d
 2955 13c4 6900     		.ascii	"i\000"
 2956 13c6 01       		.byte	0x1
 2957 13c7 33       		.byte	0x33
 2958 13c8 33000000 		.4byte	0x33
 2959 13cc 2C020000 		.4byte	.LLST5
 2960 13d0 3A       		.uleb128 0x3a
 2961 13d1 58000000 		.4byte	.Ldebug_ranges0+0x58
 2962 13d5 2D       		.uleb128 0x2d
 2963 13d6 6500     		.ascii	"e\000"
 2964 13d8 01       		.byte	0x1
 2965 13d9 34       		.byte	0x34
 2966 13da E5120000 		.4byte	0x12e5
 2967 13de 4B020000 		.4byte	.LLST6
 2968 13e2 00       		.byte	0
 2969 13e3 00       		.byte	0
 2970 13e4 31       		.uleb128 0x31
 2971 13e5 08000000 		.4byte	.LVL17
 2972 13e9 7D140000 		.4byte	0x147d
 2973 13ed FB130000 		.4byte	0x13fb
 2974 13f1 32       		.uleb128 0x32
 2975 13f2 01       		.uleb128 0x1
 2976 13f3 50       		.byte	0x50
 2977 13f4 05       		.uleb128 0x5
 2978 13f5 03       		.byte	0x3
 2979 13f6 00000000 		.4byte	.LANCHOR2
 2980 13fa 00       		.byte	0
 2981 13fb 34       		.uleb128 0x34
 2982 13fc 2E000000 		.4byte	.LVL21
 2983 1400 88140000 		.4byte	0x1488
 2984 1404 32       		.uleb128 0x32
 2985 1405 01       		.uleb128 0x1
 2986 1406 50       		.byte	0x50
 2987 1407 05       		.uleb128 0x5
 2988 1408 03       		.byte	0x3
 2989 1409 1C000000 		.4byte	.LC7
 2990 140d 32       		.uleb128 0x32
 2991 140e 01       		.uleb128 0x1
 2992 140f 51       		.byte	0x51
 2993 1410 05       		.uleb128 0x5
ARM GAS  /tmp/ccKFb8Yw.s 			page 54


 2994 1411 03       		.byte	0x3
 2995 1412 00000000 		.4byte	.LC6
 2996 1416 32       		.uleb128 0x32
 2997 1417 01       		.uleb128 0x1
 2998 1418 52       		.byte	0x52
 2999 1419 01       		.uleb128 0x1
 3000 141a 30       		.byte	0x30
 3001 141b 32       		.uleb128 0x32
 3002 141c 01       		.uleb128 0x1
 3003 141d 53       		.byte	0x53
 3004 141e 05       		.uleb128 0x5
 3005 141f 03       		.byte	0x3
 3006 1420 00000000 		.4byte	terminal_print
 3007 1424 00       		.byte	0
 3008 1425 00       		.byte	0
 3009 1426 3B       		.uleb128 0x3b
 3010 1427 A1040000 		.4byte	.LASF268
 3011 142b 17       		.byte	0x17
 3012 142c AE       		.byte	0xae
 3013 142d 9C020000 		.4byte	0x29c
 3014 1431 03       		.byte	0x3
 3015 1432 3C       		.uleb128 0x3c
 3016 1433 ED010000 		.4byte	.LASF280
 3017 1437 02       		.byte	0x2
 3018 1438 0901     		.2byte	0x109
 3019 143a 58010000 		.4byte	0x158
 3020 143e 03       		.byte	0x3
 3021 143f 50140000 		.4byte	0x1450
 3022 1443 3D       		.uleb128 0x3d
 3023 1444 6D090000 		.4byte	.LASF281
 3024 1448 02       		.byte	0x2
 3025 1449 0901     		.2byte	0x109
 3026 144b 58010000 		.4byte	0x158
 3027 144f 00       		.byte	0
 3028 1450 3B       		.uleb128 0x3b
 3029 1451 F8000000 		.4byte	.LASF269
 3030 1455 02       		.byte	0x2
 3031 1456 E4       		.byte	0xe4
 3032 1457 58010000 		.4byte	0x158
 3033 145b 03       		.byte	0x3
 3034 145c 3E       		.uleb128 0x3e
 3035 145d 540B0000 		.4byte	.LASF270
 3036 1461 540B0000 		.4byte	.LASF270
 3037 1465 11       		.byte	0x11
 3038 1466 26       		.byte	0x26
 3039 1467 3E       		.uleb128 0x3e
 3040 1468 96060000 		.4byte	.LASF271
 3041 146c 96060000 		.4byte	.LASF271
 3042 1470 0F       		.byte	0xf
 3043 1471 68       		.byte	0x68
 3044 1472 3E       		.uleb128 0x3e
 3045 1473 EE060000 		.4byte	.LASF272
 3046 1477 EE060000 		.4byte	.LASF272
 3047 147b 0F       		.byte	0xf
 3048 147c 6C       		.byte	0x6c
 3049 147d 3E       		.uleb128 0x3e
 3050 147e 39040000 		.4byte	.LASF273
ARM GAS  /tmp/ccKFb8Yw.s 			page 55


 3051 1482 39040000 		.4byte	.LASF273
 3052 1486 0F       		.byte	0xf
 3053 1487 67       		.byte	0x67
 3054 1488 3E       		.uleb128 0x3e
 3055 1489 130A0000 		.4byte	.LASF274
 3056 148d 130A0000 		.4byte	.LASF274
 3057 1491 18       		.byte	0x18
 3058 1492 1D       		.byte	0x1d
 3059 1493 00       		.byte	0
 3060              		.section	.debug_abbrev,"",%progbits
 3061              	.Ldebug_abbrev0:
 3062 0000 01       		.uleb128 0x1
 3063 0001 11       		.uleb128 0x11
 3064 0002 01       		.byte	0x1
 3065 0003 25       		.uleb128 0x25
 3066 0004 0E       		.uleb128 0xe
 3067 0005 13       		.uleb128 0x13
 3068 0006 0B       		.uleb128 0xb
 3069 0007 03       		.uleb128 0x3
 3070 0008 0E       		.uleb128 0xe
 3071 0009 1B       		.uleb128 0x1b
 3072 000a 0E       		.uleb128 0xe
 3073 000b 55       		.uleb128 0x55
 3074 000c 17       		.uleb128 0x17
 3075 000d 11       		.uleb128 0x11
 3076 000e 01       		.uleb128 0x1
 3077 000f 10       		.uleb128 0x10
 3078 0010 17       		.uleb128 0x17
 3079 0011 00       		.byte	0
 3080 0012 00       		.byte	0
 3081 0013 02       		.uleb128 0x2
 3082 0014 24       		.uleb128 0x24
 3083 0015 00       		.byte	0
 3084 0016 0B       		.uleb128 0xb
 3085 0017 0B       		.uleb128 0xb
 3086 0018 3E       		.uleb128 0x3e
 3087 0019 0B       		.uleb128 0xb
 3088 001a 03       		.uleb128 0x3
 3089 001b 0E       		.uleb128 0xe
 3090 001c 00       		.byte	0
 3091 001d 00       		.byte	0
 3092 001e 03       		.uleb128 0x3
 3093 001f 24       		.uleb128 0x24
 3094 0020 00       		.byte	0
 3095 0021 0B       		.uleb128 0xb
 3096 0022 0B       		.uleb128 0xb
 3097 0023 3E       		.uleb128 0x3e
 3098 0024 0B       		.uleb128 0xb
 3099 0025 03       		.uleb128 0x3
 3100 0026 08       		.uleb128 0x8
 3101 0027 00       		.byte	0
 3102 0028 00       		.byte	0
 3103 0029 04       		.uleb128 0x4
 3104 002a 16       		.uleb128 0x16
 3105 002b 00       		.byte	0
 3106 002c 03       		.uleb128 0x3
 3107 002d 0E       		.uleb128 0xe
ARM GAS  /tmp/ccKFb8Yw.s 			page 56


 3108 002e 3A       		.uleb128 0x3a
 3109 002f 0B       		.uleb128 0xb
 3110 0030 3B       		.uleb128 0x3b
 3111 0031 0B       		.uleb128 0xb
 3112 0032 49       		.uleb128 0x49
 3113 0033 13       		.uleb128 0x13
 3114 0034 00       		.byte	0
 3115 0035 00       		.byte	0
 3116 0036 05       		.uleb128 0x5
 3117 0037 35       		.uleb128 0x35
 3118 0038 00       		.byte	0
 3119 0039 49       		.uleb128 0x49
 3120 003a 13       		.uleb128 0x13
 3121 003b 00       		.byte	0
 3122 003c 00       		.byte	0
 3123 003d 06       		.uleb128 0x6
 3124 003e 13       		.uleb128 0x13
 3125 003f 01       		.byte	0x1
 3126 0040 03       		.uleb128 0x3
 3127 0041 0E       		.uleb128 0xe
 3128 0042 0B       		.uleb128 0xb
 3129 0043 0B       		.uleb128 0xb
 3130 0044 3A       		.uleb128 0x3a
 3131 0045 0B       		.uleb128 0xb
 3132 0046 3B       		.uleb128 0x3b
 3133 0047 0B       		.uleb128 0xb
 3134 0048 01       		.uleb128 0x1
 3135 0049 13       		.uleb128 0x13
 3136 004a 00       		.byte	0
 3137 004b 00       		.byte	0
 3138 004c 07       		.uleb128 0x7
 3139 004d 0D       		.uleb128 0xd
 3140 004e 00       		.byte	0
 3141 004f 03       		.uleb128 0x3
 3142 0050 0E       		.uleb128 0xe
 3143 0051 3A       		.uleb128 0x3a
 3144 0052 0B       		.uleb128 0xb
 3145 0053 3B       		.uleb128 0x3b
 3146 0054 0B       		.uleb128 0xb
 3147 0055 49       		.uleb128 0x49
 3148 0056 13       		.uleb128 0x13
 3149 0057 38       		.uleb128 0x38
 3150 0058 0B       		.uleb128 0xb
 3151 0059 00       		.byte	0
 3152 005a 00       		.byte	0
 3153 005b 08       		.uleb128 0x8
 3154 005c 0D       		.uleb128 0xd
 3155 005d 00       		.byte	0
 3156 005e 03       		.uleb128 0x3
 3157 005f 08       		.uleb128 0x8
 3158 0060 3A       		.uleb128 0x3a
 3159 0061 0B       		.uleb128 0xb
 3160 0062 3B       		.uleb128 0x3b
 3161 0063 05       		.uleb128 0x5
 3162 0064 49       		.uleb128 0x49
 3163 0065 13       		.uleb128 0x13
 3164 0066 38       		.uleb128 0x38
ARM GAS  /tmp/ccKFb8Yw.s 			page 57


 3165 0067 0B       		.uleb128 0xb
 3166 0068 00       		.byte	0
 3167 0069 00       		.byte	0
 3168 006a 09       		.uleb128 0x9
 3169 006b 0D       		.uleb128 0xd
 3170 006c 00       		.byte	0
 3171 006d 03       		.uleb128 0x3
 3172 006e 0E       		.uleb128 0xe
 3173 006f 3A       		.uleb128 0x3a
 3174 0070 0B       		.uleb128 0xb
 3175 0071 3B       		.uleb128 0x3b
 3176 0072 05       		.uleb128 0x5
 3177 0073 49       		.uleb128 0x49
 3178 0074 13       		.uleb128 0x13
 3179 0075 38       		.uleb128 0x38
 3180 0076 0B       		.uleb128 0xb
 3181 0077 00       		.byte	0
 3182 0078 00       		.byte	0
 3183 0079 0A       		.uleb128 0xa
 3184 007a 0F       		.uleb128 0xf
 3185 007b 00       		.byte	0
 3186 007c 0B       		.uleb128 0xb
 3187 007d 0B       		.uleb128 0xb
 3188 007e 49       		.uleb128 0x49
 3189 007f 13       		.uleb128 0x13
 3190 0080 00       		.byte	0
 3191 0081 00       		.byte	0
 3192 0082 0B       		.uleb128 0xb
 3193 0083 13       		.uleb128 0x13
 3194 0084 01       		.byte	0x1
 3195 0085 03       		.uleb128 0x3
 3196 0086 0E       		.uleb128 0xe
 3197 0087 0B       		.uleb128 0xb
 3198 0088 0B       		.uleb128 0xb
 3199 0089 3A       		.uleb128 0x3a
 3200 008a 0B       		.uleb128 0xb
 3201 008b 3B       		.uleb128 0x3b
 3202 008c 05       		.uleb128 0x5
 3203 008d 01       		.uleb128 0x1
 3204 008e 13       		.uleb128 0x13
 3205 008f 00       		.byte	0
 3206 0090 00       		.byte	0
 3207 0091 0C       		.uleb128 0xc
 3208 0092 15       		.uleb128 0x15
 3209 0093 01       		.byte	0x1
 3210 0094 27       		.uleb128 0x27
 3211 0095 19       		.uleb128 0x19
 3212 0096 01       		.uleb128 0x1
 3213 0097 13       		.uleb128 0x13
 3214 0098 00       		.byte	0
 3215 0099 00       		.byte	0
 3216 009a 0D       		.uleb128 0xd
 3217 009b 05       		.uleb128 0x5
 3218 009c 00       		.byte	0
 3219 009d 49       		.uleb128 0x49
 3220 009e 13       		.uleb128 0x13
 3221 009f 00       		.byte	0
ARM GAS  /tmp/ccKFb8Yw.s 			page 58


 3222 00a0 00       		.byte	0
 3223 00a1 0E       		.uleb128 0xe
 3224 00a2 0F       		.uleb128 0xf
 3225 00a3 00       		.byte	0
 3226 00a4 0B       		.uleb128 0xb
 3227 00a5 0B       		.uleb128 0xb
 3228 00a6 00       		.byte	0
 3229 00a7 00       		.byte	0
 3230 00a8 0F       		.uleb128 0xf
 3231 00a9 13       		.uleb128 0x13
 3232 00aa 01       		.byte	0x1
 3233 00ab 03       		.uleb128 0x3
 3234 00ac 0E       		.uleb128 0xe
 3235 00ad 0B       		.uleb128 0xb
 3236 00ae 05       		.uleb128 0x5
 3237 00af 3A       		.uleb128 0x3a
 3238 00b0 0B       		.uleb128 0xb
 3239 00b1 3B       		.uleb128 0x3b
 3240 00b2 05       		.uleb128 0x5
 3241 00b3 01       		.uleb128 0x1
 3242 00b4 13       		.uleb128 0x13
 3243 00b5 00       		.byte	0
 3244 00b6 00       		.byte	0
 3245 00b7 10       		.uleb128 0x10
 3246 00b8 34       		.uleb128 0x34
 3247 00b9 00       		.byte	0
 3248 00ba 03       		.uleb128 0x3
 3249 00bb 0E       		.uleb128 0xe
 3250 00bc 3A       		.uleb128 0x3a
 3251 00bd 0B       		.uleb128 0xb
 3252 00be 3B       		.uleb128 0x3b
 3253 00bf 05       		.uleb128 0x5
 3254 00c0 49       		.uleb128 0x49
 3255 00c1 13       		.uleb128 0x13
 3256 00c2 3F       		.uleb128 0x3f
 3257 00c3 19       		.uleb128 0x19
 3258 00c4 3C       		.uleb128 0x3c
 3259 00c5 19       		.uleb128 0x19
 3260 00c6 00       		.byte	0
 3261 00c7 00       		.byte	0
 3262 00c8 11       		.uleb128 0x11
 3263 00c9 34       		.uleb128 0x34
 3264 00ca 00       		.byte	0
 3265 00cb 03       		.uleb128 0x3
 3266 00cc 0E       		.uleb128 0xe
 3267 00cd 3A       		.uleb128 0x3a
 3268 00ce 0B       		.uleb128 0xb
 3269 00cf 3B       		.uleb128 0x3b
 3270 00d0 0B       		.uleb128 0xb
 3271 00d1 49       		.uleb128 0x49
 3272 00d2 13       		.uleb128 0x13
 3273 00d3 3F       		.uleb128 0x3f
 3274 00d4 19       		.uleb128 0x19
 3275 00d5 3C       		.uleb128 0x3c
 3276 00d6 19       		.uleb128 0x19
 3277 00d7 00       		.byte	0
 3278 00d8 00       		.byte	0
ARM GAS  /tmp/ccKFb8Yw.s 			page 59


 3279 00d9 12       		.uleb128 0x12
 3280 00da 0D       		.uleb128 0xd
 3281 00db 00       		.byte	0
 3282 00dc 03       		.uleb128 0x3
 3283 00dd 08       		.uleb128 0x8
 3284 00de 3A       		.uleb128 0x3a
 3285 00df 0B       		.uleb128 0xb
 3286 00e0 3B       		.uleb128 0x3b
 3287 00e1 0B       		.uleb128 0xb
 3288 00e2 49       		.uleb128 0x49
 3289 00e3 13       		.uleb128 0x13
 3290 00e4 38       		.uleb128 0x38
 3291 00e5 0B       		.uleb128 0xb
 3292 00e6 00       		.byte	0
 3293 00e7 00       		.byte	0
 3294 00e8 13       		.uleb128 0x13
 3295 00e9 13       		.uleb128 0x13
 3296 00ea 01       		.byte	0x1
 3297 00eb 0B       		.uleb128 0xb
 3298 00ec 0B       		.uleb128 0xb
 3299 00ed 3A       		.uleb128 0x3a
 3300 00ee 0B       		.uleb128 0xb
 3301 00ef 3B       		.uleb128 0x3b
 3302 00f0 0B       		.uleb128 0xb
 3303 00f1 01       		.uleb128 0x1
 3304 00f2 13       		.uleb128 0x13
 3305 00f3 00       		.byte	0
 3306 00f4 00       		.byte	0
 3307 00f5 14       		.uleb128 0x14
 3308 00f6 17       		.uleb128 0x17
 3309 00f7 01       		.byte	0x1
 3310 00f8 0B       		.uleb128 0xb
 3311 00f9 0B       		.uleb128 0xb
 3312 00fa 3A       		.uleb128 0x3a
 3313 00fb 0B       		.uleb128 0xb
 3314 00fc 3B       		.uleb128 0x3b
 3315 00fd 0B       		.uleb128 0xb
 3316 00fe 01       		.uleb128 0x1
 3317 00ff 13       		.uleb128 0x13
 3318 0100 00       		.byte	0
 3319 0101 00       		.byte	0
 3320 0102 15       		.uleb128 0x15
 3321 0103 0D       		.uleb128 0xd
 3322 0104 00       		.byte	0
 3323 0105 03       		.uleb128 0x3
 3324 0106 0E       		.uleb128 0xe
 3325 0107 3A       		.uleb128 0x3a
 3326 0108 0B       		.uleb128 0xb
 3327 0109 3B       		.uleb128 0x3b
 3328 010a 05       		.uleb128 0x5
 3329 010b 49       		.uleb128 0x49
 3330 010c 13       		.uleb128 0x13
 3331 010d 00       		.byte	0
 3332 010e 00       		.byte	0
 3333 010f 16       		.uleb128 0x16
 3334 0110 26       		.uleb128 0x26
 3335 0111 00       		.byte	0
ARM GAS  /tmp/ccKFb8Yw.s 			page 60


 3336 0112 49       		.uleb128 0x49
 3337 0113 13       		.uleb128 0x13
 3338 0114 00       		.byte	0
 3339 0115 00       		.byte	0
 3340 0116 17       		.uleb128 0x17
 3341 0117 01       		.uleb128 0x1
 3342 0118 01       		.byte	0x1
 3343 0119 49       		.uleb128 0x49
 3344 011a 13       		.uleb128 0x13
 3345 011b 01       		.uleb128 0x1
 3346 011c 13       		.uleb128 0x13
 3347 011d 00       		.byte	0
 3348 011e 00       		.byte	0
 3349 011f 18       		.uleb128 0x18
 3350 0120 21       		.uleb128 0x21
 3351 0121 00       		.byte	0
 3352 0122 49       		.uleb128 0x49
 3353 0123 13       		.uleb128 0x13
 3354 0124 2F       		.uleb128 0x2f
 3355 0125 0B       		.uleb128 0xb
 3356 0126 00       		.byte	0
 3357 0127 00       		.byte	0
 3358 0128 19       		.uleb128 0x19
 3359 0129 34       		.uleb128 0x34
 3360 012a 00       		.byte	0
 3361 012b 03       		.uleb128 0x3
 3362 012c 08       		.uleb128 0x8
 3363 012d 3A       		.uleb128 0x3a
 3364 012e 0B       		.uleb128 0xb
 3365 012f 3B       		.uleb128 0x3b
 3366 0130 05       		.uleb128 0x5
 3367 0131 49       		.uleb128 0x49
 3368 0132 13       		.uleb128 0x13
 3369 0133 3F       		.uleb128 0x3f
 3370 0134 19       		.uleb128 0x19
 3371 0135 3C       		.uleb128 0x3c
 3372 0136 19       		.uleb128 0x19
 3373 0137 00       		.byte	0
 3374 0138 00       		.byte	0
 3375 0139 1A       		.uleb128 0x1a
 3376 013a 21       		.uleb128 0x21
 3377 013b 00       		.byte	0
 3378 013c 00       		.byte	0
 3379 013d 00       		.byte	0
 3380 013e 1B       		.uleb128 0x1b
 3381 013f 13       		.uleb128 0x13
 3382 0140 00       		.byte	0
 3383 0141 03       		.uleb128 0x3
 3384 0142 0E       		.uleb128 0xe
 3385 0143 3C       		.uleb128 0x3c
 3386 0144 19       		.uleb128 0x19
 3387 0145 00       		.byte	0
 3388 0146 00       		.byte	0
 3389 0147 1C       		.uleb128 0x1c
 3390 0148 16       		.uleb128 0x16
 3391 0149 00       		.byte	0
 3392 014a 03       		.uleb128 0x3
ARM GAS  /tmp/ccKFb8Yw.s 			page 61


 3393 014b 0E       		.uleb128 0xe
 3394 014c 3A       		.uleb128 0x3a
 3395 014d 0B       		.uleb128 0xb
 3396 014e 3B       		.uleb128 0x3b
 3397 014f 05       		.uleb128 0x5
 3398 0150 49       		.uleb128 0x49
 3399 0151 13       		.uleb128 0x13
 3400 0152 00       		.byte	0
 3401 0153 00       		.byte	0
 3402 0154 1D       		.uleb128 0x1d
 3403 0155 0D       		.uleb128 0xd
 3404 0156 00       		.byte	0
 3405 0157 03       		.uleb128 0x3
 3406 0158 0E       		.uleb128 0xe
 3407 0159 3A       		.uleb128 0x3a
 3408 015a 0B       		.uleb128 0xb
 3409 015b 3B       		.uleb128 0x3b
 3410 015c 0B       		.uleb128 0xb
 3411 015d 49       		.uleb128 0x49
 3412 015e 13       		.uleb128 0x13
 3413 015f 00       		.byte	0
 3414 0160 00       		.byte	0
 3415 0161 1E       		.uleb128 0x1e
 3416 0162 13       		.uleb128 0x13
 3417 0163 01       		.byte	0x1
 3418 0164 03       		.uleb128 0x3
 3419 0165 0E       		.uleb128 0xe
 3420 0166 0B       		.uleb128 0xb
 3421 0167 05       		.uleb128 0x5
 3422 0168 3A       		.uleb128 0x3a
 3423 0169 0B       		.uleb128 0xb
 3424 016a 3B       		.uleb128 0x3b
 3425 016b 0B       		.uleb128 0xb
 3426 016c 01       		.uleb128 0x1
 3427 016d 13       		.uleb128 0x13
 3428 016e 00       		.byte	0
 3429 016f 00       		.byte	0
 3430 0170 1F       		.uleb128 0x1f
 3431 0171 0D       		.uleb128 0xd
 3432 0172 00       		.byte	0
 3433 0173 03       		.uleb128 0x3
 3434 0174 0E       		.uleb128 0xe
 3435 0175 3A       		.uleb128 0x3a
 3436 0176 0B       		.uleb128 0xb
 3437 0177 3B       		.uleb128 0x3b
 3438 0178 0B       		.uleb128 0xb
 3439 0179 49       		.uleb128 0x49
 3440 017a 13       		.uleb128 0x13
 3441 017b 38       		.uleb128 0x38
 3442 017c 05       		.uleb128 0x5
 3443 017d 00       		.byte	0
 3444 017e 00       		.byte	0
 3445 017f 20       		.uleb128 0x20
 3446 0180 15       		.uleb128 0x15
 3447 0181 00       		.byte	0
 3448 0182 27       		.uleb128 0x27
 3449 0183 19       		.uleb128 0x19
ARM GAS  /tmp/ccKFb8Yw.s 			page 62


 3450 0184 00       		.byte	0
 3451 0185 00       		.byte	0
 3452 0186 21       		.uleb128 0x21
 3453 0187 15       		.uleb128 0x15
 3454 0188 01       		.byte	0x1
 3455 0189 27       		.uleb128 0x27
 3456 018a 19       		.uleb128 0x19
 3457 018b 49       		.uleb128 0x49
 3458 018c 13       		.uleb128 0x13
 3459 018d 01       		.uleb128 0x1
 3460 018e 13       		.uleb128 0x13
 3461 018f 00       		.byte	0
 3462 0190 00       		.byte	0
 3463 0191 22       		.uleb128 0x22
 3464 0192 0D       		.uleb128 0xd
 3465 0193 00       		.byte	0
 3466 0194 03       		.uleb128 0x3
 3467 0195 0E       		.uleb128 0xe
 3468 0196 3A       		.uleb128 0x3a
 3469 0197 0B       		.uleb128 0xb
 3470 0198 3B       		.uleb128 0x3b
 3471 0199 05       		.uleb128 0x5
 3472 019a 49       		.uleb128 0x49
 3473 019b 13       		.uleb128 0x13
 3474 019c 38       		.uleb128 0x38
 3475 019d 05       		.uleb128 0x5
 3476 019e 00       		.byte	0
 3477 019f 00       		.byte	0
 3478 01a0 23       		.uleb128 0x23
 3479 01a1 13       		.uleb128 0x13
 3480 01a2 01       		.byte	0x1
 3481 01a3 0B       		.uleb128 0xb
 3482 01a4 0B       		.uleb128 0xb
 3483 01a5 3A       		.uleb128 0x3a
 3484 01a6 0B       		.uleb128 0xb
 3485 01a7 3B       		.uleb128 0x3b
 3486 01a8 05       		.uleb128 0x5
 3487 01a9 01       		.uleb128 0x1
 3488 01aa 13       		.uleb128 0x13
 3489 01ab 00       		.byte	0
 3490 01ac 00       		.byte	0
 3491 01ad 24       		.uleb128 0x24
 3492 01ae 17       		.uleb128 0x17
 3493 01af 01       		.byte	0x1
 3494 01b0 0B       		.uleb128 0xb
 3495 01b1 0B       		.uleb128 0xb
 3496 01b2 3A       		.uleb128 0x3a
 3497 01b3 0B       		.uleb128 0xb
 3498 01b4 3B       		.uleb128 0x3b
 3499 01b5 05       		.uleb128 0x5
 3500 01b6 01       		.uleb128 0x1
 3501 01b7 13       		.uleb128 0x13
 3502 01b8 00       		.byte	0
 3503 01b9 00       		.byte	0
 3504 01ba 25       		.uleb128 0x25
 3505 01bb 04       		.uleb128 0x4
 3506 01bc 01       		.byte	0x1
ARM GAS  /tmp/ccKFb8Yw.s 			page 63


 3507 01bd 03       		.uleb128 0x3
 3508 01be 0E       		.uleb128 0xe
 3509 01bf 3E       		.uleb128 0x3e
 3510 01c0 0B       		.uleb128 0xb
 3511 01c1 0B       		.uleb128 0xb
 3512 01c2 0B       		.uleb128 0xb
 3513 01c3 49       		.uleb128 0x49
 3514 01c4 13       		.uleb128 0x13
 3515 01c5 3A       		.uleb128 0x3a
 3516 01c6 0B       		.uleb128 0xb
 3517 01c7 3B       		.uleb128 0x3b
 3518 01c8 05       		.uleb128 0x5
 3519 01c9 01       		.uleb128 0x1
 3520 01ca 13       		.uleb128 0x13
 3521 01cb 00       		.byte	0
 3522 01cc 00       		.byte	0
 3523 01cd 26       		.uleb128 0x26
 3524 01ce 28       		.uleb128 0x28
 3525 01cf 00       		.byte	0
 3526 01d0 03       		.uleb128 0x3
 3527 01d1 0E       		.uleb128 0xe
 3528 01d2 1C       		.uleb128 0x1c
 3529 01d3 0D       		.uleb128 0xd
 3530 01d4 00       		.byte	0
 3531 01d5 00       		.byte	0
 3532 01d6 27       		.uleb128 0x27
 3533 01d7 28       		.uleb128 0x28
 3534 01d8 00       		.byte	0
 3535 01d9 03       		.uleb128 0x3
 3536 01da 0E       		.uleb128 0xe
 3537 01db 1C       		.uleb128 0x1c
 3538 01dc 0B       		.uleb128 0xb
 3539 01dd 00       		.byte	0
 3540 01de 00       		.byte	0
 3541 01df 28       		.uleb128 0x28
 3542 01e0 34       		.uleb128 0x34
 3543 01e1 00       		.byte	0
 3544 01e2 03       		.uleb128 0x3
 3545 01e3 0E       		.uleb128 0xe
 3546 01e4 3A       		.uleb128 0x3a
 3547 01e5 0B       		.uleb128 0xb
 3548 01e6 3B       		.uleb128 0x3b
 3549 01e7 0B       		.uleb128 0xb
 3550 01e8 49       		.uleb128 0x49
 3551 01e9 13       		.uleb128 0x13
 3552 01ea 02       		.uleb128 0x2
 3553 01eb 18       		.uleb128 0x18
 3554 01ec 00       		.byte	0
 3555 01ed 00       		.byte	0
 3556 01ee 29       		.uleb128 0x29
 3557 01ef 2E       		.uleb128 0x2e
 3558 01f0 01       		.byte	0x1
 3559 01f1 03       		.uleb128 0x3
 3560 01f2 0E       		.uleb128 0xe
 3561 01f3 3A       		.uleb128 0x3a
 3562 01f4 0B       		.uleb128 0xb
 3563 01f5 3B       		.uleb128 0x3b
ARM GAS  /tmp/ccKFb8Yw.s 			page 64


 3564 01f6 0B       		.uleb128 0xb
 3565 01f7 27       		.uleb128 0x27
 3566 01f8 19       		.uleb128 0x19
 3567 01f9 11       		.uleb128 0x11
 3568 01fa 01       		.uleb128 0x1
 3569 01fb 12       		.uleb128 0x12
 3570 01fc 06       		.uleb128 0x6
 3571 01fd 40       		.uleb128 0x40
 3572 01fe 18       		.uleb128 0x18
 3573 01ff 9642     		.uleb128 0x2116
 3574 0201 19       		.uleb128 0x19
 3575 0202 01       		.uleb128 0x1
 3576 0203 13       		.uleb128 0x13
 3577 0204 00       		.byte	0
 3578 0205 00       		.byte	0
 3579 0206 2A       		.uleb128 0x2a
 3580 0207 05       		.uleb128 0x5
 3581 0208 00       		.byte	0
 3582 0209 03       		.uleb128 0x3
 3583 020a 0E       		.uleb128 0xe
 3584 020b 3A       		.uleb128 0x3a
 3585 020c 0B       		.uleb128 0xb
 3586 020d 3B       		.uleb128 0x3b
 3587 020e 0B       		.uleb128 0xb
 3588 020f 49       		.uleb128 0x49
 3589 0210 13       		.uleb128 0x13
 3590 0211 02       		.uleb128 0x2
 3591 0212 17       		.uleb128 0x17
 3592 0213 00       		.byte	0
 3593 0214 00       		.byte	0
 3594 0215 2B       		.uleb128 0x2b
 3595 0216 34       		.uleb128 0x34
 3596 0217 00       		.byte	0
 3597 0218 03       		.uleb128 0x3
 3598 0219 0E       		.uleb128 0xe
 3599 021a 3A       		.uleb128 0x3a
 3600 021b 0B       		.uleb128 0xb
 3601 021c 3B       		.uleb128 0x3b
 3602 021d 0B       		.uleb128 0xb
 3603 021e 49       		.uleb128 0x49
 3604 021f 13       		.uleb128 0x13
 3605 0220 02       		.uleb128 0x2
 3606 0221 17       		.uleb128 0x17
 3607 0222 00       		.byte	0
 3608 0223 00       		.byte	0
 3609 0224 2C       		.uleb128 0x2c
 3610 0225 0B       		.uleb128 0xb
 3611 0226 01       		.byte	0x1
 3612 0227 55       		.uleb128 0x55
 3613 0228 17       		.uleb128 0x17
 3614 0229 01       		.uleb128 0x1
 3615 022a 13       		.uleb128 0x13
 3616 022b 00       		.byte	0
 3617 022c 00       		.byte	0
 3618 022d 2D       		.uleb128 0x2d
 3619 022e 34       		.uleb128 0x34
 3620 022f 00       		.byte	0
ARM GAS  /tmp/ccKFb8Yw.s 			page 65


 3621 0230 03       		.uleb128 0x3
 3622 0231 08       		.uleb128 0x8
 3623 0232 3A       		.uleb128 0x3a
 3624 0233 0B       		.uleb128 0xb
 3625 0234 3B       		.uleb128 0x3b
 3626 0235 0B       		.uleb128 0xb
 3627 0236 49       		.uleb128 0x49
 3628 0237 13       		.uleb128 0x13
 3629 0238 02       		.uleb128 0x2
 3630 0239 17       		.uleb128 0x17
 3631 023a 00       		.byte	0
 3632 023b 00       		.byte	0
 3633 023c 2E       		.uleb128 0x2e
 3634 023d 1D       		.uleb128 0x1d
 3635 023e 01       		.byte	0x1
 3636 023f 31       		.uleb128 0x31
 3637 0240 13       		.uleb128 0x13
 3638 0241 52       		.uleb128 0x52
 3639 0242 01       		.uleb128 0x1
 3640 0243 55       		.uleb128 0x55
 3641 0244 17       		.uleb128 0x17
 3642 0245 58       		.uleb128 0x58
 3643 0246 0B       		.uleb128 0xb
 3644 0247 59       		.uleb128 0x59
 3645 0248 0B       		.uleb128 0xb
 3646 0249 01       		.uleb128 0x1
 3647 024a 13       		.uleb128 0x13
 3648 024b 00       		.byte	0
 3649 024c 00       		.byte	0
 3650 024d 2F       		.uleb128 0x2f
 3651 024e 05       		.uleb128 0x5
 3652 024f 00       		.byte	0
 3653 0250 31       		.uleb128 0x31
 3654 0251 13       		.uleb128 0x13
 3655 0252 00       		.byte	0
 3656 0253 00       		.byte	0
 3657 0254 30       		.uleb128 0x30
 3658 0255 1D       		.uleb128 0x1d
 3659 0256 00       		.byte	0
 3660 0257 31       		.uleb128 0x31
 3661 0258 13       		.uleb128 0x13
 3662 0259 52       		.uleb128 0x52
 3663 025a 01       		.uleb128 0x1
 3664 025b 55       		.uleb128 0x55
 3665 025c 17       		.uleb128 0x17
 3666 025d 58       		.uleb128 0x58
 3667 025e 0B       		.uleb128 0xb
 3668 025f 59       		.uleb128 0x59
 3669 0260 05       		.uleb128 0x5
 3670 0261 00       		.byte	0
 3671 0262 00       		.byte	0
 3672 0263 31       		.uleb128 0x31
 3673 0264 898201   		.uleb128 0x4109
 3674 0267 01       		.byte	0x1
 3675 0268 11       		.uleb128 0x11
 3676 0269 01       		.uleb128 0x1
 3677 026a 31       		.uleb128 0x31
ARM GAS  /tmp/ccKFb8Yw.s 			page 66


 3678 026b 13       		.uleb128 0x13
 3679 026c 01       		.uleb128 0x1
 3680 026d 13       		.uleb128 0x13
 3681 026e 00       		.byte	0
 3682 026f 00       		.byte	0
 3683 0270 32       		.uleb128 0x32
 3684 0271 8A8201   		.uleb128 0x410a
 3685 0274 00       		.byte	0
 3686 0275 02       		.uleb128 0x2
 3687 0276 18       		.uleb128 0x18
 3688 0277 9142     		.uleb128 0x2111
 3689 0279 18       		.uleb128 0x18
 3690 027a 00       		.byte	0
 3691 027b 00       		.byte	0
 3692 027c 33       		.uleb128 0x33
 3693 027d 898201   		.uleb128 0x4109
 3694 0280 01       		.byte	0x1
 3695 0281 11       		.uleb128 0x11
 3696 0282 01       		.uleb128 0x1
 3697 0283 31       		.uleb128 0x31
 3698 0284 13       		.uleb128 0x13
 3699 0285 00       		.byte	0
 3700 0286 00       		.byte	0
 3701 0287 34       		.uleb128 0x34
 3702 0288 898201   		.uleb128 0x4109
 3703 028b 01       		.byte	0x1
 3704 028c 11       		.uleb128 0x11
 3705 028d 01       		.uleb128 0x1
 3706 028e 9542     		.uleb128 0x2115
 3707 0290 19       		.uleb128 0x19
 3708 0291 31       		.uleb128 0x31
 3709 0292 13       		.uleb128 0x13
 3710 0293 00       		.byte	0
 3711 0294 00       		.byte	0
 3712 0295 35       		.uleb128 0x35
 3713 0296 2E       		.uleb128 0x2e
 3714 0297 01       		.byte	0x1
 3715 0298 3F       		.uleb128 0x3f
 3716 0299 19       		.uleb128 0x19
 3717 029a 03       		.uleb128 0x3
 3718 029b 0E       		.uleb128 0xe
 3719 029c 3A       		.uleb128 0x3a
 3720 029d 0B       		.uleb128 0xb
 3721 029e 3B       		.uleb128 0x3b
 3722 029f 0B       		.uleb128 0xb
 3723 02a0 27       		.uleb128 0x27
 3724 02a1 19       		.uleb128 0x19
 3725 02a2 11       		.uleb128 0x11
 3726 02a3 01       		.uleb128 0x1
 3727 02a4 12       		.uleb128 0x12
 3728 02a5 06       		.uleb128 0x6
 3729 02a6 40       		.uleb128 0x40
 3730 02a7 18       		.uleb128 0x18
 3731 02a8 9742     		.uleb128 0x2117
 3732 02aa 19       		.uleb128 0x19
 3733 02ab 01       		.uleb128 0x1
 3734 02ac 13       		.uleb128 0x13
ARM GAS  /tmp/ccKFb8Yw.s 			page 67


 3735 02ad 00       		.byte	0
 3736 02ae 00       		.byte	0
 3737 02af 36       		.uleb128 0x36
 3738 02b0 1D       		.uleb128 0x1d
 3739 02b1 00       		.byte	0
 3740 02b2 31       		.uleb128 0x31
 3741 02b3 13       		.uleb128 0x13
 3742 02b4 11       		.uleb128 0x11
 3743 02b5 01       		.uleb128 0x1
 3744 02b6 12       		.uleb128 0x12
 3745 02b7 06       		.uleb128 0x6
 3746 02b8 58       		.uleb128 0x58
 3747 02b9 0B       		.uleb128 0xb
 3748 02ba 59       		.uleb128 0x59
 3749 02bb 0B       		.uleb128 0xb
 3750 02bc 00       		.byte	0
 3751 02bd 00       		.byte	0
 3752 02be 37       		.uleb128 0x37
 3753 02bf 05       		.uleb128 0x5
 3754 02c0 00       		.byte	0
 3755 02c1 31       		.uleb128 0x31
 3756 02c2 13       		.uleb128 0x13
 3757 02c3 02       		.uleb128 0x2
 3758 02c4 17       		.uleb128 0x17
 3759 02c5 00       		.byte	0
 3760 02c6 00       		.byte	0
 3761 02c7 38       		.uleb128 0x38
 3762 02c8 1D       		.uleb128 0x1d
 3763 02c9 00       		.byte	0
 3764 02ca 31       		.uleb128 0x31
 3765 02cb 13       		.uleb128 0x13
 3766 02cc 11       		.uleb128 0x11
 3767 02cd 01       		.uleb128 0x1
 3768 02ce 12       		.uleb128 0x12
 3769 02cf 06       		.uleb128 0x6
 3770 02d0 58       		.uleb128 0x58
 3771 02d1 0B       		.uleb128 0xb
 3772 02d2 59       		.uleb128 0x59
 3773 02d3 05       		.uleb128 0x5
 3774 02d4 00       		.byte	0
 3775 02d5 00       		.byte	0
 3776 02d6 39       		.uleb128 0x39
 3777 02d7 0B       		.uleb128 0xb
 3778 02d8 01       		.byte	0x1
 3779 02d9 11       		.uleb128 0x11
 3780 02da 01       		.uleb128 0x1
 3781 02db 12       		.uleb128 0x12
 3782 02dc 06       		.uleb128 0x6
 3783 02dd 01       		.uleb128 0x1
 3784 02de 13       		.uleb128 0x13
 3785 02df 00       		.byte	0
 3786 02e0 00       		.byte	0
 3787 02e1 3A       		.uleb128 0x3a
 3788 02e2 0B       		.uleb128 0xb
 3789 02e3 01       		.byte	0x1
 3790 02e4 55       		.uleb128 0x55
 3791 02e5 17       		.uleb128 0x17
ARM GAS  /tmp/ccKFb8Yw.s 			page 68


 3792 02e6 00       		.byte	0
 3793 02e7 00       		.byte	0
 3794 02e8 3B       		.uleb128 0x3b
 3795 02e9 2E       		.uleb128 0x2e
 3796 02ea 00       		.byte	0
 3797 02eb 03       		.uleb128 0x3
 3798 02ec 0E       		.uleb128 0xe
 3799 02ed 3A       		.uleb128 0x3a
 3800 02ee 0B       		.uleb128 0xb
 3801 02ef 3B       		.uleb128 0x3b
 3802 02f0 0B       		.uleb128 0xb
 3803 02f1 27       		.uleb128 0x27
 3804 02f2 19       		.uleb128 0x19
 3805 02f3 49       		.uleb128 0x49
 3806 02f4 13       		.uleb128 0x13
 3807 02f5 20       		.uleb128 0x20
 3808 02f6 0B       		.uleb128 0xb
 3809 02f7 00       		.byte	0
 3810 02f8 00       		.byte	0
 3811 02f9 3C       		.uleb128 0x3c
 3812 02fa 2E       		.uleb128 0x2e
 3813 02fb 01       		.byte	0x1
 3814 02fc 03       		.uleb128 0x3
 3815 02fd 0E       		.uleb128 0xe
 3816 02fe 3A       		.uleb128 0x3a
 3817 02ff 0B       		.uleb128 0xb
 3818 0300 3B       		.uleb128 0x3b
 3819 0301 05       		.uleb128 0x5
 3820 0302 27       		.uleb128 0x27
 3821 0303 19       		.uleb128 0x19
 3822 0304 49       		.uleb128 0x49
 3823 0305 13       		.uleb128 0x13
 3824 0306 20       		.uleb128 0x20
 3825 0307 0B       		.uleb128 0xb
 3826 0308 01       		.uleb128 0x1
 3827 0309 13       		.uleb128 0x13
 3828 030a 00       		.byte	0
 3829 030b 00       		.byte	0
 3830 030c 3D       		.uleb128 0x3d
 3831 030d 05       		.uleb128 0x5
 3832 030e 00       		.byte	0
 3833 030f 03       		.uleb128 0x3
 3834 0310 0E       		.uleb128 0xe
 3835 0311 3A       		.uleb128 0x3a
 3836 0312 0B       		.uleb128 0xb
 3837 0313 3B       		.uleb128 0x3b
 3838 0314 05       		.uleb128 0x5
 3839 0315 49       		.uleb128 0x49
 3840 0316 13       		.uleb128 0x13
 3841 0317 00       		.byte	0
 3842 0318 00       		.byte	0
 3843 0319 3E       		.uleb128 0x3e
 3844 031a 2E       		.uleb128 0x2e
 3845 031b 00       		.byte	0
 3846 031c 3F       		.uleb128 0x3f
 3847 031d 19       		.uleb128 0x19
 3848 031e 3C       		.uleb128 0x3c
ARM GAS  /tmp/ccKFb8Yw.s 			page 69


 3849 031f 19       		.uleb128 0x19
 3850 0320 6E       		.uleb128 0x6e
 3851 0321 0E       		.uleb128 0xe
 3852 0322 03       		.uleb128 0x3
 3853 0323 0E       		.uleb128 0xe
 3854 0324 3A       		.uleb128 0x3a
 3855 0325 0B       		.uleb128 0xb
 3856 0326 3B       		.uleb128 0x3b
 3857 0327 0B       		.uleb128 0xb
 3858 0328 00       		.byte	0
 3859 0329 00       		.byte	0
 3860 032a 00       		.byte	0
 3861              		.section	.debug_loc,"",%progbits
 3862              	.Ldebug_loc0:
 3863              	.LLST0:
 3864 0000 00000000 		.4byte	.LVL0
 3865 0004 1E000000 		.4byte	.LVL2
 3866 0008 0100     		.2byte	0x1
 3867 000a 50       		.byte	0x50
 3868 000b 1E000000 		.4byte	.LVL2
 3869 000f E8000000 		.4byte	.LFE221
 3870 0013 0400     		.2byte	0x4
 3871 0015 F3       		.byte	0xf3
 3872 0016 01       		.uleb128 0x1
 3873 0017 50       		.byte	0x50
 3874 0018 9F       		.byte	0x9f
 3875 0019 00000000 		.4byte	0
 3876 001d 00000000 		.4byte	0
 3877              	.LLST1:
 3878 0021 00000000 		.4byte	.LVL0
 3879 0025 1E000000 		.4byte	.LVL2
 3880 0029 0100     		.2byte	0x1
 3881 002b 51       		.byte	0x51
 3882 002c 1E000000 		.4byte	.LVL2
 3883 0030 E8000000 		.4byte	.LFE221
 3884 0034 0400     		.2byte	0x4
 3885 0036 F3       		.byte	0xf3
 3886 0037 01       		.uleb128 0x1
 3887 0038 51       		.byte	0x51
 3888 0039 9F       		.byte	0x9f
 3889 003a 00000000 		.4byte	0
 3890 003e 00000000 		.4byte	0
 3891              	.LLST2:
 3892 0042 0A000000 		.4byte	.LVL1
 3893 0046 28000000 		.4byte	.LVL3
 3894 004a 0100     		.2byte	0x1
 3895 004c 54       		.byte	0x54
 3896 004d 28000000 		.4byte	.LVL3
 3897 0051 38000000 		.4byte	.LVL4
 3898 0055 0300     		.2byte	0x3
 3899 0057 72       		.byte	0x72
 3900 0058 7F       		.sleb128 -1
 3901 0059 9F       		.byte	0x9f
 3902 005a 38000000 		.4byte	.LVL4
 3903 005e B8000000 		.4byte	.LVL15
 3904 0062 0100     		.2byte	0x1
 3905 0064 54       		.byte	0x54
ARM GAS  /tmp/ccKFb8Yw.s 			page 70


 3906 0065 B8000000 		.4byte	.LVL15
 3907 0069 BB000000 		.4byte	.LVL16-1
 3908 006d 2D00     		.2byte	0x2d
 3909 006f 72       		.byte	0x72
 3910 0070 00       		.sleb128 0
 3911 0071 72       		.byte	0x72
 3912 0072 00       		.sleb128 0
 3913 0073 F7       		.byte	0xf7
 3914 0074 33       		.uleb128 0x33
 3915 0075 F7       		.byte	0xf7
 3916 0076 25       		.uleb128 0x25
 3917 0077 F4       		.byte	0xf4
 3918 0078 25       		.uleb128 0x25
 3919 0079 08       		.byte	0x8
 3920 007a 89888888 		.8byte	0xffffffff88888889
 3920      FFFFFFFF 
 3921 0082 1E       		.byte	0x1e
 3922 0083 08       		.byte	0x8
 3923 0084 20       		.byte	0x20
 3924 0085 F7       		.byte	0xf7
 3925 0086 25       		.uleb128 0x25
 3926 0087 25       		.byte	0x25
 3927 0088 F7       		.byte	0xf7
 3928 0089 2C       		.uleb128 0x2c
 3929 008a F7       		.byte	0xf7
 3930 008b 00       		.uleb128 0
 3931 008c 72       		.byte	0x72
 3932 008d 00       		.sleb128 0
 3933 008e 22       		.byte	0x22
 3934 008f 34       		.byte	0x34
 3935 0090 26       		.byte	0x26
 3936 0091 72       		.byte	0x72
 3937 0092 00       		.sleb128 0
 3938 0093 4F       		.byte	0x4f
 3939 0094 26       		.byte	0x26
 3940 0095 1C       		.byte	0x1c
 3941 0096 3F       		.byte	0x3f
 3942 0097 1E       		.byte	0x1e
 3943 0098 31       		.byte	0x31
 3944 0099 24       		.byte	0x24
 3945 009a 1C       		.byte	0x1c
 3946 009b 9F       		.byte	0x9f
 3947 009c 00000000 		.4byte	0
 3948 00a0 00000000 		.4byte	0
 3949              	.LLST3:
 3950 00a4 0A000000 		.4byte	.LVL1
 3951 00a8 1E000000 		.4byte	.LVL2
 3952 00ac 0200     		.2byte	0x2
 3953 00ae 30       		.byte	0x30
 3954 00af 9F       		.byte	0x9f
 3955 00b0 1E000000 		.4byte	.LVL2
 3956 00b4 B8000000 		.4byte	.LVL15
 3957 00b8 0100     		.2byte	0x1
 3958 00ba 57       		.byte	0x57
 3959 00bb B8000000 		.4byte	.LVL15
 3960 00bf BB000000 		.4byte	.LVL16-1
 3961 00c3 0100     		.2byte	0x1
ARM GAS  /tmp/ccKFb8Yw.s 			page 71


 3962 00c5 51       		.byte	0x51
 3963 00c6 00000000 		.4byte	0
 3964 00ca 00000000 		.4byte	0
 3965              	.LLST4:
 3966 00ce 1E000000 		.4byte	.LVL2
 3967 00d2 28000000 		.4byte	.LVL3
 3968 00d6 0B00     		.2byte	0xb
 3969 00d8 74       		.byte	0x74
 3970 00d9 00       		.sleb128 0
 3971 00da 44       		.byte	0x44
 3972 00db 1E       		.byte	0x1e
 3973 00dc 03       		.byte	0x3
 3974 00dd 00000000 		.4byte	m_events
 3975 00e1 22       		.byte	0x22
 3976 00e2 9F       		.byte	0x9f
 3977 00e3 28000000 		.4byte	.LVL3
 3978 00e7 3C000000 		.4byte	.LVL5
 3979 00eb 0B00     		.2byte	0xb
 3980 00ed 72       		.byte	0x72
 3981 00ee 7F       		.sleb128 -1
 3982 00ef 44       		.byte	0x44
 3983 00f0 1E       		.byte	0x1e
 3984 00f1 03       		.byte	0x3
 3985 00f2 00000000 		.4byte	m_events
 3986 00f6 22       		.byte	0x22
 3987 00f7 9F       		.byte	0x9f
 3988 00f8 3C000000 		.4byte	.LVL5
 3989 00fc AC000000 		.4byte	.LVL14
 3990 0100 0B00     		.2byte	0xb
 3991 0102 74       		.byte	0x74
 3992 0103 00       		.sleb128 0
 3993 0104 44       		.byte	0x44
 3994 0105 1E       		.byte	0x1e
 3995 0106 03       		.byte	0x3
 3996 0107 00000000 		.4byte	m_events
 3997 010b 22       		.byte	0x22
 3998 010c 9F       		.byte	0x9f
 3999 010d AC000000 		.4byte	.LVL14
 4000 0111 BB000000 		.4byte	.LVL16-1
 4001 0115 0B00     		.2byte	0xb
 4002 0117 72       		.byte	0x72
 4003 0118 7F       		.sleb128 -1
 4004 0119 44       		.byte	0x44
 4005 011a 1E       		.byte	0x1e
 4006 011b 03       		.byte	0x3
 4007 011c 00000000 		.4byte	m_events
 4008 0120 22       		.byte	0x22
 4009 0121 9F       		.byte	0x9f
 4010 0122 00000000 		.4byte	0
 4011 0126 00000000 		.4byte	0
 4012              	.LLST7:
 4013 012a 00000000 		.4byte	.LVL22
 4014 012e 0C000000 		.4byte	.LVL23
 4015 0132 0100     		.2byte	0x1
 4016 0134 50       		.byte	0x50
 4017 0135 0C000000 		.4byte	.LVL23
 4018 0139 80000000 		.4byte	.LVL32
ARM GAS  /tmp/ccKFb8Yw.s 			page 72


 4019 013d 0100     		.2byte	0x1
 4020 013f 54       		.byte	0x54
 4021 0140 80000000 		.4byte	.LVL32
 4022 0144 84000000 		.4byte	.LVL33
 4023 0148 0400     		.2byte	0x4
 4024 014a F3       		.byte	0xf3
 4025 014b 01       		.uleb128 0x1
 4026 014c 50       		.byte	0x50
 4027 014d 9F       		.byte	0x9f
 4028 014e 84000000 		.4byte	.LVL33
 4029 0152 14010000 		.4byte	.LFE220
 4030 0156 0100     		.2byte	0x1
 4031 0158 54       		.byte	0x54
 4032 0159 00000000 		.4byte	0
 4033 015d 00000000 		.4byte	0
 4034              	.LLST8:
 4035 0161 00000000 		.4byte	.LVL22
 4036 0165 13000000 		.4byte	.LVL24-1
 4037 0169 0200     		.2byte	0x2
 4038 016b 90       		.byte	0x90
 4039 016c 40       		.uleb128 0x40
 4040 016d 13000000 		.4byte	.LVL24-1
 4041 0171 70000000 		.4byte	.LVL30
 4042 0175 0200     		.2byte	0x2
 4043 0177 90       		.byte	0x90
 4044 0178 50       		.uleb128 0x50
 4045 0179 70000000 		.4byte	.LVL30
 4046 017d 74000000 		.4byte	.LVL31
 4047 0181 0200     		.2byte	0x2
 4048 0183 72       		.byte	0x72
 4049 0184 08       		.sleb128 8
 4050 0185 74000000 		.4byte	.LVL31
 4051 0189 84000000 		.4byte	.LVL33
 4052 018d 0600     		.2byte	0x6
 4053 018f F3       		.byte	0xf3
 4054 0190 03       		.uleb128 0x3
 4055 0191 F5       		.byte	0xf5
 4056 0192 40       		.uleb128 0x40
 4057 0193 3A       		.uleb128 0x3a
 4058 0194 9F       		.byte	0x9f
 4059 0195 84000000 		.4byte	.LVL33
 4060 0199 14010000 		.4byte	.LFE220
 4061 019d 0200     		.2byte	0x2
 4062 019f 90       		.byte	0x90
 4063 01a0 50       		.uleb128 0x50
 4064 01a1 00000000 		.4byte	0
 4065 01a5 00000000 		.4byte	0
 4066              	.LLST9:
 4067 01a9 16000000 		.4byte	.LVL25
 4068 01ad 18000000 		.4byte	.LVL26
 4069 01b1 0300     		.2byte	0x3
 4070 01b3 70       		.byte	0x70
 4071 01b4 7F       		.sleb128 -1
 4072 01b5 9F       		.byte	0x9f
 4073 01b6 18000000 		.4byte	.LVL26
 4074 01ba 38000000 		.4byte	.LVL27
 4075 01be 0100     		.2byte	0x1
ARM GAS  /tmp/ccKFb8Yw.s 			page 73


 4076 01c0 56       		.byte	0x56
 4077 01c1 84000000 		.4byte	.LVL33
 4078 01c5 8A000000 		.4byte	.LVL34
 4079 01c9 0100     		.2byte	0x1
 4080 01cb 56       		.byte	0x56
 4081 01cc 8A000000 		.4byte	.LVL34
 4082 01d0 90000000 		.4byte	.LVL35
 4083 01d4 0200     		.2byte	0x2
 4084 01d6 4D       		.byte	0x4d
 4085 01d7 9F       		.byte	0x9f
 4086 01d8 00000000 		.4byte	0
 4087 01dc 00000000 		.4byte	0
 4088              	.LLST10:
 4089 01e0 38000000 		.4byte	.LVL27
 4090 01e4 52000000 		.4byte	.LVL28
 4091 01e8 0900     		.2byte	0x9
 4092 01ea 7C       		.byte	0x7c
 4093 01eb 00       		.sleb128 0
 4094 01ec 03       		.byte	0x3
 4095 01ed 00000000 		.4byte	m_events
 4096 01f1 22       		.byte	0x22
 4097 01f2 9F       		.byte	0x9f
 4098 01f3 64000000 		.4byte	.LVL29
 4099 01f7 83000000 		.4byte	.LVL33-1
 4100 01fb 0100     		.2byte	0x1
 4101 01fd 52       		.byte	0x52
 4102 01fe 90000000 		.4byte	.LVL35
 4103 0202 14010000 		.4byte	.LFE220
 4104 0206 0900     		.2byte	0x9
 4105 0208 7C       		.byte	0x7c
 4106 0209 00       		.sleb128 0
 4107 020a 03       		.byte	0x3
 4108 020b 00000000 		.4byte	m_events
 4109 020f 22       		.byte	0x22
 4110 0210 9F       		.byte	0x9f
 4111 0211 00000000 		.4byte	0
 4112 0215 00000000 		.4byte	0
 4113              	.LLST11:
 4114 0219 9A000000 		.4byte	.LVL36
 4115 021d 9C000000 		.4byte	.LVL37
 4116 0221 0100     		.2byte	0x1
 4117 0223 5E       		.byte	0x5e
 4118 0224 00000000 		.4byte	0
 4119 0228 00000000 		.4byte	0
 4120              	.LLST5:
 4121 022c 08000000 		.4byte	.LVL17
 4122 0230 0E000000 		.4byte	.LVL18
 4123 0234 0200     		.2byte	0x2
 4124 0236 30       		.byte	0x30
 4125 0237 9F       		.byte	0x9f
 4126 0238 0E000000 		.4byte	.LVL18
 4127 023c 20000000 		.4byte	.LVL20
 4128 0240 0100     		.2byte	0x1
 4129 0242 53       		.byte	0x53
 4130 0243 00000000 		.4byte	0
 4131 0247 00000000 		.4byte	0
 4132              	.LLST6:
ARM GAS  /tmp/ccKFb8Yw.s 			page 74


 4133 024b 0E000000 		.4byte	.LVL18
 4134 024f 18000000 		.4byte	.LVL19
 4135 0253 0B00     		.2byte	0xb
 4136 0255 73       		.byte	0x73
 4137 0256 00       		.sleb128 0
 4138 0257 44       		.byte	0x44
 4139 0258 1E       		.byte	0x1e
 4140 0259 03       		.byte	0x3
 4141 025a 00000000 		.4byte	m_events
 4142 025e 22       		.byte	0x22
 4143 025f 9F       		.byte	0x9f
 4144 0260 18000000 		.4byte	.LVL19
 4145 0264 20000000 		.4byte	.LVL20
 4146 0268 0B00     		.2byte	0xb
 4147 026a 73       		.byte	0x73
 4148 026b 7F       		.sleb128 -1
 4149 026c 44       		.byte	0x44
 4150 026d 1E       		.byte	0x1e
 4151 026e 03       		.byte	0x3
 4152 026f 00000000 		.4byte	m_events
 4153 0273 22       		.byte	0x22
 4154 0274 9F       		.byte	0x9f
 4155 0275 00000000 		.4byte	0
 4156 0279 00000000 		.4byte	0
 4157              		.section	.debug_aranges,"",%progbits
 4158 0000 2C000000 		.4byte	0x2c
 4159 0004 0200     		.2byte	0x2
 4160 0006 00000000 		.4byte	.Ldebug_info0
 4161 000a 04       		.byte	0x4
 4162 000b 00       		.byte	0
 4163 000c 0000     		.2byte	0
 4164 000e 0000     		.2byte	0
 4165 0010 00000000 		.4byte	.LFB221
 4166 0014 E8000000 		.4byte	.LFE221-.LFB221
 4167 0018 00000000 		.4byte	.LFB219
 4168 001c 44000000 		.4byte	.LFE219-.LFB219
 4169 0020 00000000 		.4byte	.LFB220
 4170 0024 14010000 		.4byte	.LFE220-.LFB220
 4171 0028 00000000 		.4byte	0
 4172 002c 00000000 		.4byte	0
 4173              		.section	.debug_ranges,"",%progbits
 4174              	.Ldebug_ranges0:
 4175 0000 0A000000 		.4byte	.LBB19
 4176 0004 12000000 		.4byte	.LBE19
 4177 0008 18000000 		.4byte	.LBB28
 4178 000c 20000000 		.4byte	.LBE28
 4179 0010 22000000 		.4byte	.LBB29
 4180 0014 38000000 		.4byte	.LBE29
 4181 0018 3C000000 		.4byte	.LBB30
 4182 001c AC000000 		.4byte	.LBE30
 4183 0020 00000000 		.4byte	0
 4184 0024 00000000 		.4byte	0
 4185 0028 0A000000 		.4byte	.LBB20
 4186 002c 0E000000 		.4byte	.LBE20
 4187 0030 50000000 		.4byte	.LBB27
 4188 0034 56000000 		.4byte	.LBE27
 4189 0038 00000000 		.4byte	0
ARM GAS  /tmp/ccKFb8Yw.s 			page 75


 4190 003c 00000000 		.4byte	0
 4191 0040 0A000000 		.4byte	.LBB22
 4192 0044 0E000000 		.4byte	.LBE22
 4193 0048 50000000 		.4byte	.LBB25
 4194 004c 54000000 		.4byte	.LBE25
 4195 0050 00000000 		.4byte	0
 4196 0054 00000000 		.4byte	0
 4197 0058 0C000000 		.4byte	.LBB32
 4198 005c 16000000 		.4byte	.LBE32
 4199 0060 1A000000 		.4byte	.LBB33
 4200 0064 1C000000 		.4byte	.LBE33
 4201 0068 00000000 		.4byte	0
 4202 006c 00000000 		.4byte	0
 4203 0070 9A000000 		.4byte	.LBB36
 4204 0074 9C000000 		.4byte	.LBE36
 4205 0078 A4000000 		.4byte	.LBB41
 4206 007c A8000000 		.4byte	.LBE41
 4207 0080 00000000 		.4byte	0
 4208 0084 00000000 		.4byte	0
 4209 0088 00000000 		.4byte	.LFB221
 4210 008c E8000000 		.4byte	.LFE221
 4211 0090 00000000 		.4byte	.LFB219
 4212 0094 44000000 		.4byte	.LFE219
 4213 0098 00000000 		.4byte	.LFB220
 4214 009c 14010000 		.4byte	.LFE220
 4215 00a0 00000000 		.4byte	0
 4216 00a4 00000000 		.4byte	0
 4217              		.section	.debug_line,"",%progbits
 4218              	.Ldebug_line0:
 4219 0000 56030000 		.section	.debug_str,"MS",%progbits,1
 4219      02008302 
 4219      00000201 
 4219      FB0E0D00 
 4219      01010101 
 4220              	.LASF56:
 4221 0000 63685F74 		.ascii	"ch_threads_list\000"
 4221      68726561 
 4221      64735F6C 
 4221      69737400 
 4222              	.LASF148:
 4223 0010 5F666C6F 		.ascii	"_flock_t\000"
 4223      636B5F74 
 4223      00
 4224              	.LASF57:
 4225 0019 74687265 		.ascii	"threads_queue_t\000"
 4225      6164735F 
 4225      71756575 
 4225      655F7400 
 4226              	.LASF88:
 4227 0029 53797374 		.ascii	"SystemCoreClock\000"
 4227      656D436F 
 4227      7265436C 
 4227      6F636B00 
 4228              	.LASF100:
 4229 0039 77746D74 		.ascii	"wtmtxp\000"
 4229      787000
 4230              	.LASF251:
ARM GAS  /tmp/ccKFb8Yw.s 			page 76


 4231 0040 5F5F6664 		.ascii	"__fdlibm_xopen\000"
 4231      6C69626D 
 4231      5F786F70 
 4231      656E00
 4232              	.LASF94:
 4233 004f 746D5F63 		.ascii	"tm_calibration_t\000"
 4233      616C6962 
 4233      72617469 
 4233      6F6E5F74 
 4233      00
 4234              	.LASF44:
 4235 0060 705F7469 		.ascii	"p_time\000"
 4235      6D6500
 4236              	.LASF109:
 4237 0067 63686172 		.ascii	"char\000"
 4237      00
 4238              	.LASF89:
 4239 006c 72656761 		.ascii	"regarm_t\000"
 4239      726D5F74 
 4239      00
 4240              	.LASF34:
 4241 0075 705F7072 		.ascii	"p_prio\000"
 4241      696F00
 4242              	.LASF165:
 4243 007c 5F6F6E5F 		.ascii	"_on_exit_args\000"
 4243      65786974 
 4243      5F617267 
 4243      7300
 4244              	.LASF232:
 4245 008a 5F776374 		.ascii	"_wctomb_state\000"
 4245      6F6D625F 
 4245      73746174 
 4245      6500
 4246              	.LASF30:
 4247 0098 73797374 		.ascii	"systime_t\000"
 4247      696D655F 
 4247      7400
 4248              	.LASF229:
 4249 00a2 5F723438 		.ascii	"_r48\000"
 4249      00
 4250              	.LASF120:
 4251 00a7 63665F6F 		.ascii	"cf_off_older\000"
 4251      66665F6F 
 4251      6C646572 
 4251      00
 4252              	.LASF123:
 4253 00b4 63665F6F 		.ascii	"cf_off_state\000"
 4253      66665F73 
 4253      74617465 
 4253      00
 4254              	.LASF103:
 4255 00c1 735F7175 		.ascii	"s_queue\000"
 4255      65756500 
 4256              	.LASF77:
 4257 00c9 76745F73 		.ascii	"vt_systime\000"
 4257      79737469 
 4257      6D6500
ARM GAS  /tmp/ccKFb8Yw.s 			page 77


 4258              	.LASF46:
 4259 00d4 705F6D73 		.ascii	"p_msgqueue\000"
 4259      67717565 
 4259      756500
 4260              	.LASF234:
 4261 00df 5F736967 		.ascii	"_signal_buf\000"
 4261      6E616C5F 
 4261      62756600 
 4262              	.LASF1:
 4263 00eb 756E7369 		.ascii	"unsigned int\000"
 4263      676E6564 
 4263      20696E74 
 4263      00
 4264              	.LASF269:
 4265 00f8 63685654 		.ascii	"chVTGetSystemTimeX\000"
 4265      47657453 
 4265      79737465 
 4265      6D54696D 
 4265      655800
 4266              	.LASF54:
 4267 010b 74687265 		.ascii	"threads_list_t\000"
 4267      6164735F 
 4267      6C697374 
 4267      5F7400
 4268              	.LASF179:
 4269 011a 5F6C6266 		.ascii	"_lbfsize\000"
 4269      73697A65 
 4269      00
 4270              	.LASF177:
 4271 0123 5F666C61 		.ascii	"_flags\000"
 4271      677300
 4272              	.LASF45:
 4273 012a 705F7761 		.ascii	"p_waiting\000"
 4273      6974696E 
 4273      6700
 4274              	.LASF9:
 4275 0134 5F5F696E 		.ascii	"__int32_t\000"
 4275      7433325F 
 4275      7400
 4276              	.LASF194:
 4277 013e 5F657272 		.ascii	"_errno\000"
 4277      6E6F00
 4278              	.LASF121:
 4279 0145 63665F6F 		.ascii	"cf_off_name\000"
 4279      66665F6E 
 4279      616D6500 
 4280              	.LASF97:
 4281 0151 77746F62 		.ascii	"wtobjp\000"
 4281      6A7000
 4282              	.LASF84:
 4283 0158 76746C69 		.ascii	"vtlist\000"
 4283      737400
 4284              	.LASF60:
 4285 015f 63685F72 		.ascii	"ch_ready_list\000"
 4285      65616479 
 4285      5F6C6973 
 4285      7400
ARM GAS  /tmp/ccKFb8Yw.s 			page 78


 4286              	.LASF86:
 4287 016d 69646C65 		.ascii	"idle_thread_wa\000"
 4287      5F746872 
 4287      6561645F 
 4287      776100
 4288              	.LASF52:
 4289 017c 6D6F746F 		.ascii	"motor_selected\000"
 4289      725F7365 
 4289      6C656374 
 4289      656400
 4290              	.LASF191:
 4291 018b 5F6D6273 		.ascii	"_mbstate\000"
 4291      74617465 
 4291      00
 4292              	.LASF149:
 4293 0194 5F5F554C 		.ascii	"__ULong\000"
 4293      6F6E6700 
 4294              	.LASF236:
 4295 019c 5F6D6272 		.ascii	"_mbrlen_state\000"
 4295      6C656E5F 
 4295      73746174 
 4295      6500
 4296              	.LASF124:
 4297 01aa 63665F6F 		.ascii	"cf_off_flags\000"
 4297      66665F66 
 4297      6C616773 
 4297      00
 4298              	.LASF128:
 4299 01b7 63686465 		.ascii	"chdebug_t\000"
 4299      6275675F 
 4299      7400
 4300              	.LASF114:
 4301 01c1 63685F70 		.ascii	"ch_ptrsize\000"
 4301      74727369 
 4301      7A6500
 4302              	.LASF145:
 4303 01cc 5F5F636F 		.ascii	"__count\000"
 4303      756E7400 
 4304              	.LASF196:
 4305 01d4 5F737464 		.ascii	"_stdout\000"
 4305      6F757400 
 4306              	.LASF141:
 4307 01dc 5F66706F 		.ascii	"_fpos_t\000"
 4307      735F7400 
 4308              	.LASF67:
 4309 01e4 76746675 		.ascii	"vtfunc_t\000"
 4309      6E635F74 
 4309      00
 4310              	.LASF280:
 4311 01ed 63685654 		.ascii	"chVTTimeElapsedSinceX\000"
 4311      54696D65 
 4311      456C6170 
 4311      73656453 
 4311      696E6365 
 4312              	.LASF180:
 4313 0203 5F636F6F 		.ascii	"_cookie\000"
 4313      6B696500 
ARM GAS  /tmp/ccKFb8Yw.s 			page 79


 4314              	.LASF248:
 4315 020b 5F676C6F 		.ascii	"_global_impure_ptr\000"
 4315      62616C5F 
 4315      696D7075 
 4315      72655F70 
 4315      747200
 4316              	.LASF104:
 4317 021e 735F636E 		.ascii	"s_cnt\000"
 4317      7400
 4318              	.LASF79:
 4319 0224 63685F73 		.ascii	"ch_system_debug\000"
 4319      79737465 
 4319      6D5F6465 
 4319      62756700 
 4320              	.LASF150:
 4321 0234 5F426967 		.ascii	"_Bigint\000"
 4321      696E7400 
 4322              	.LASF162:
 4323 023c 5F5F746D 		.ascii	"__tm_wday\000"
 4323      5F776461 
 4323      7900
 4324              	.LASF204:
 4325 0246 5F726573 		.ascii	"_result\000"
 4325      756C7400 
 4326              	.LASF18:
 4327 024e 75696E74 		.ascii	"uint32_t\000"
 4327      33325F74 
 4327      00
 4328              	.LASF158:
 4329 0257 5F5F746D 		.ascii	"__tm_hour\000"
 4329      5F686F75 
 4329      7200
 4330              	.LASF115:
 4331 0261 63685F74 		.ascii	"ch_timesize\000"
 4331      696D6573 
 4331      697A6500 
 4332              	.LASF28:
 4333 026d 6576656E 		.ascii	"eventmask_t\000"
 4333      746D6173 
 4333      6B5F7400 
 4334              	.LASF62:
 4335 0279 725F7072 		.ascii	"r_prio\000"
 4335      696F00
 4336              	.LASF172:
 4337 0280 5F666E73 		.ascii	"_fns\000"
 4337      00
 4338              	.LASF74:
 4339 0285 76745F70 		.ascii	"vt_par\000"
 4339      617200
 4340              	.LASF2:
 4341 028c 666C6F61 		.ascii	"float\000"
 4341      7400
 4342              	.LASF264:
 4343 0292 6576656E 		.ascii	"event\000"
 4343      7400
 4344              	.LASF102:
 4345 0298 63685F73 		.ascii	"ch_semaphore\000"
ARM GAS  /tmp/ccKFb8Yw.s 			page 80


 4345      656D6170 
 4345      686F7265 
 4345      00
 4346              	.LASF247:
 4347 02a5 5F696D70 		.ascii	"_impure_ptr\000"
 4347      7572655F 
 4347      70747200 
 4348              	.LASF26:
 4349 02b1 74707269 		.ascii	"tprio_t\000"
 4349      6F5F7400 
 4350              	.LASF242:
 4351 02b9 5F6E6578 		.ascii	"_nextf\000"
 4351      746600
 4352              	.LASF69:
 4353 02c0 63685F76 		.ascii	"ch_virtual_timer\000"
 4353      69727475 
 4353      616C5F74 
 4353      696D6572 
 4353      00
 4354              	.LASF126:
 4355 02d1 63665F6F 		.ascii	"cf_off_preempt\000"
 4355      66665F70 
 4355      7265656D 
 4355      707400
 4356              	.LASF275:
 4357 02e0 474E5520 		.ascii	"GNU C99 7.3.1 20180622 (release) [ARM/embedded-7-br"
 4357      43393920 
 4357      372E332E 
 4357      31203230 
 4357      31383036 
 4358 0313 616E6368 		.ascii	"anch revision 261907] -mcpu=cortex-m4 -mfloat-abi=h"
 4358      20726576 
 4358      6973696F 
 4358      6E203236 
 4358      31393037 
 4359 0346 61726420 		.ascii	"ard -mfpu=fpv4-sp-d16 -mno-thumb-interwork -mthumb "
 4359      2D6D6670 
 4359      753D6670 
 4359      76342D73 
 4359      702D6431 
 4360 0379 2D676764 		.ascii	"-ggdb -O2 -std=gnu99 -fomit-frame-pointer -falign-f"
 4360      62202D4F 
 4360      32202D73 
 4360      74643D67 
 4360      6E753939 
 4361 03ac 756E6374 		.ascii	"unctions=16 -ffunction-sections -fdata-sections -fn"
 4361      696F6E73 
 4361      3D313620 
 4361      2D666675 
 4361      6E637469 
 4362 03df 6F2D636F 		.ascii	"o-common -fsingle-precision-constant\000"
 4362      6D6D6F6E 
 4362      202D6673 
 4362      696E676C 
 4362      652D7072 
 4363              	.LASF238:
 4364 0404 5F6D6273 		.ascii	"_mbsrtowcs_state\000"
ARM GAS  /tmp/ccKFb8Yw.s 			page 81


 4364      72746F77 
 4364      63735F73 
 4364      74617465 
 4364      00
 4365              	.LASF0:
 4366 0415 6C6F6E67 		.ascii	"long long unsigned int\000"
 4366      206C6F6E 
 4366      6720756E 
 4366      7369676E 
 4366      65642069 
 4367              	.LASF225:
 4368 042c 5F617363 		.ascii	"_asctime_buf\000"
 4368      74696D65 
 4368      5F627566 
 4368      00
 4369              	.LASF273:
 4370 0439 63684D74 		.ascii	"chMtxObjectInit\000"
 4370      784F626A 
 4370      65637449 
 4370      6E697400 
 4371              	.LASF176:
 4372 0449 5F5F7346 		.ascii	"__sFILE\000"
 4372      494C4500 
 4373              	.LASF154:
 4374 0451 5F776473 		.ascii	"_wds\000"
 4374      00
 4375              	.LASF219:
 4376 0456 5F72616E 		.ascii	"_rand48\000"
 4376      64343800 
 4377              	.LASF7:
 4378 045e 5F5F7569 		.ascii	"__uint16_t\000"
 4378      6E743136 
 4378      5F7400
 4379              	.LASF29:
 4380 0469 636E745F 		.ascii	"cnt_t\000"
 4380      7400
 4381              	.LASF215:
 4382 046f 5F5F4649 		.ascii	"__FILE\000"
 4382      4C4500
 4383              	.LASF241:
 4384 0476 5F685F65 		.ascii	"_h_errno\000"
 4384      72726E6F 
 4384      00
 4385              	.LASF252:
 4386 047f 5F5F6664 		.ascii	"__fdlibm_posix\000"
 4386      6C69626D 
 4386      5F706F73 
 4386      697800
 4387              	.LASF188:
 4388 048e 5F6F6666 		.ascii	"_offset\000"
 4388      73657400 
 4389              	.LASF185:
 4390 0496 5F756275 		.ascii	"_ubuf\000"
 4390      6600
 4391              	.LASF257:
 4392 049c 74696D65 		.ascii	"time\000"
 4392      00
ARM GAS  /tmp/ccKFb8Yw.s 			page 82


 4393              	.LASF268:
 4394 04a1 63685468 		.ascii	"chThdGetSelfX\000"
 4394      64476574 
 4394      53656C66 
 4394      5800
 4395              	.LASF36:
 4396 04af 705F6E65 		.ascii	"p_newer\000"
 4396      77657200 
 4397              	.LASF76:
 4398 04b7 63685F76 		.ascii	"ch_virtual_timers_list\000"
 4398      69727475 
 4398      616C5F74 
 4398      696D6572 
 4398      735F6C69 
 4399              	.LASF199:
 4400 04ce 5F656D65 		.ascii	"_emergency\000"
 4400      7267656E 
 4400      637900
 4401              	.LASF152:
 4402 04d9 5F6D6178 		.ascii	"_maxwds\000"
 4402      77647300 
 4403              	.LASF31:
 4404 04e1 74687265 		.ascii	"thread_t\000"
 4404      61645F74 
 4404      00
 4405              	.LASF20:
 4406 04ea 73697A65 		.ascii	"size_t\000"
 4406      5F7400
 4407              	.LASF95:
 4408 04f1 7264796D 		.ascii	"rdymsg\000"
 4408      736700
 4409              	.LASF116:
 4410 04f8 63685F74 		.ascii	"ch_threadsize\000"
 4410      68726561 
 4410      6473697A 
 4410      6500
 4411              	.LASF93:
 4412 0506 6F666673 		.ascii	"offset\000"
 4412      657400
 4413              	.LASF156:
 4414 050d 5F5F746D 		.ascii	"__tm_sec\000"
 4414      5F736563 
 4414      00
 4415              	.LASF163:
 4416 0516 5F5F746D 		.ascii	"__tm_yday\000"
 4416      5F796461 
 4416      7900
 4417              	.LASF198:
 4418 0520 5F696E63 		.ascii	"_inc\000"
 4418      00
 4419              	.LASF131:
 4420 0525 5F426F6F 		.ascii	"_Bool\000"
 4420      6C00
 4421              	.LASF147:
 4422 052b 5F6D6273 		.ascii	"_mbstate_t\000"
 4422      74617465 
 4422      5F7400
ARM GAS  /tmp/ccKFb8Yw.s 			page 83


 4423              	.LASF276:
 4424 0536 6576656E 		.ascii	"events.c\000"
 4424      74732E63 
 4424      00
 4425              	.LASF262:
 4426 053f 61726763 		.ascii	"argc\000"
 4426      00
 4427              	.LASF151:
 4428 0544 5F6E6578 		.ascii	"_next\000"
 4428      7400
 4429              	.LASF105:
 4430 054a 63685F6D 		.ascii	"ch_mutex\000"
 4430      75746578 
 4430      00
 4431              	.LASF14:
 4432 0553 5F5F7569 		.ascii	"__uint64_t\000"
 4432      6E743634 
 4432      5F7400
 4433              	.LASF135:
 4434 055e 7574696C 		.ascii	"utils_tab_sin_32_1\000"
 4434      735F7461 
 4434      625F7369 
 4434      6E5F3332 
 4434      5F3100
 4435              	.LASF136:
 4436 0571 7574696C 		.ascii	"utils_tab_sin_32_2\000"
 4436      735F7461 
 4436      625F7369 
 4436      6E5F3332 
 4436      5F3200
 4437              	.LASF146:
 4438 0584 5F5F7661 		.ascii	"__value\000"
 4438      6C756500 
 4439              	.LASF118:
 4440 058c 63665F6F 		.ascii	"cf_off_ctx\000"
 4440      66665F63 
 4440      747800
 4441              	.LASF122:
 4442 0597 63665F6F 		.ascii	"cf_off_stklimit\000"
 4442      66665F73 
 4442      746B6C69 
 4442      6D697400 
 4443              	.LASF38:
 4444 05a7 705F6E61 		.ascii	"p_name\000"
 4444      6D6500
 4445              	.LASF240:
 4446 05ae 5F776373 		.ascii	"_wcsrtombs_state\000"
 4446      72746F6D 
 4446      62735F73 
 4446      74617465 
 4446      00
 4447              	.LASF230:
 4448 05bf 5F6D626C 		.ascii	"_mblen_state\000"
 4448      656E5F73 
 4448      74617465 
 4448      00
 4449              	.LASF153:
ARM GAS  /tmp/ccKFb8Yw.s 			page 84


 4450 05cc 5F736967 		.ascii	"_sign\000"
 4450      6E00
 4451              	.LASF72:
 4452 05d2 76745F64 		.ascii	"vt_delta\000"
 4452      656C7461 
 4452      00
 4453              	.LASF159:
 4454 05db 5F5F746D 		.ascii	"__tm_mday\000"
 4454      5F6D6461 
 4454      7900
 4455              	.LASF212:
 4456 05e5 5F736967 		.ascii	"_sig_func\000"
 4456      5F66756E 
 4456      6300
 4457              	.LASF237:
 4458 05ef 5F6D6272 		.ascii	"_mbrtowc_state\000"
 4458      746F7763 
 4458      5F737461 
 4458      746500
 4459              	.LASF211:
 4460 05fe 5F617465 		.ascii	"_atexit0\000"
 4460      78697430 
 4460      00
 4461              	.LASF64:
 4462 0607 725F6E65 		.ascii	"r_newer\000"
 4462      77657200 
 4463              	.LASF23:
 4464 060f 74737461 		.ascii	"tstate_t\000"
 4464      74655F74 
 4464      00
 4465              	.LASF205:
 4466 0618 5F726573 		.ascii	"_result_k\000"
 4466      756C745F 
 4466      6B00
 4467              	.LASF13:
 4468 0622 6C6F6E67 		.ascii	"long long int\000"
 4468      206C6F6E 
 4468      6720696E 
 4468      7400
 4469              	.LASF37:
 4470 0630 705F6F6C 		.ascii	"p_older\000"
 4470      64657200 
 4471              	.LASF40:
 4472 0638 705F7374 		.ascii	"p_state\000"
 4472      61746500 
 4473              	.LASF39:
 4474 0640 705F7374 		.ascii	"p_stklimit\000"
 4474      6B6C696D 
 4474      697400
 4475              	.LASF143:
 4476 064b 5F5F7763 		.ascii	"__wch\000"
 4476      6800
 4477              	.LASF15:
 4478 0651 75696E74 		.ascii	"uint8_t\000"
 4478      385F7400 
 4479              	.LASF184:
 4480 0659 5F636C6F 		.ascii	"_close\000"
ARM GAS  /tmp/ccKFb8Yw.s 			page 85


 4480      736500
 4481              	.LASF51:
 4482 0660 705F6D70 		.ascii	"p_mpool\000"
 4482      6F6F6C00 
 4483              	.LASF279:
 4484 0668 7465726D 		.ascii	"terminal_print\000"
 4484      696E616C 
 4484      5F707269 
 4484      6E7400
 4485              	.LASF49:
 4486 0677 705F6D74 		.ascii	"p_mtxlist\000"
 4486      786C6973 
 4486      7400
 4487              	.LASF202:
 4488 0681 5F5F7364 		.ascii	"__sdidinit\000"
 4488      6964696E 
 4488      697400
 4489              	.LASF55:
 4490 068c 63685F74 		.ascii	"ch_thread\000"
 4490      68726561 
 4490      6400
 4491              	.LASF271:
 4492 0696 63684D74 		.ascii	"chMtxLock\000"
 4492      784C6F63 
 4492      6B00
 4493              	.LASF78:
 4494 06a0 73797374 		.ascii	"system_debug_t\000"
 4494      656D5F64 
 4494      65627567 
 4494      5F7400
 4495              	.LASF195:
 4496 06af 5F737464 		.ascii	"_stdin\000"
 4496      696E00
 4497              	.LASF227:
 4498 06b6 5F67616D 		.ascii	"_gamma_signgam\000"
 4498      6D615F73 
 4498      69676E67 
 4498      616D00
 4499              	.LASF58:
 4500 06c5 63685F74 		.ascii	"ch_threads_queue\000"
 4500      68726561 
 4500      64735F71 
 4500      75657565 
 4500      00
 4501              	.LASF174:
 4502 06d6 5F626173 		.ascii	"_base\000"
 4502      6500
 4503              	.LASF61:
 4504 06dc 725F7175 		.ascii	"r_queue\000"
 4504      65756500 
 4505              	.LASF207:
 4506 06e4 5F667265 		.ascii	"_freelist\000"
 4506      656C6973 
 4506      7400
 4507              	.LASF272:
 4508 06ee 63684D74 		.ascii	"chMtxUnlock\000"
 4508      78556E6C 
ARM GAS  /tmp/ccKFb8Yw.s 			page 86


 4508      6F636B00 
 4509              	.LASF221:
 4510 06fa 5F6D756C 		.ascii	"_mult\000"
 4510      7400
 4511              	.LASF27:
 4512 0700 6D73675F 		.ascii	"msg_t\000"
 4512      7400
 4513              	.LASF250:
 4514 0706 5F5F6664 		.ascii	"__fdlibm_svid\000"
 4514      6C69626D 
 4514      5F737669 
 4514      6400
 4515              	.LASF91:
 4516 0714 636F6E74 		.ascii	"context\000"
 4516      65787400 
 4517              	.LASF239:
 4518 071c 5F776372 		.ascii	"_wcrtomb_state\000"
 4518      746F6D62 
 4518      5F737461 
 4518      746500
 4519              	.LASF178:
 4520 072b 5F66696C 		.ascii	"_file\000"
 4520      6500
 4521              	.LASF41:
 4522 0731 705F666C 		.ascii	"p_flags\000"
 4522      61677300 
 4523              	.LASF68:
 4524 0739 76697274 		.ascii	"virtual_timer_t\000"
 4524      75616C5F 
 4524      74696D65 
 4524      725F7400 
 4525              	.LASF203:
 4526 0749 5F5F636C 		.ascii	"__cleanup\000"
 4526      65616E75 
 4526      7000
 4527              	.LASF253:
 4528 0753 5F5F6664 		.ascii	"__fdlib_version\000"
 4528      6C69625F 
 4528      76657273 
 4528      696F6E00 
 4529              	.LASF125:
 4530 0763 63665F6F 		.ascii	"cf_off_refs\000"
 4530      66665F72 
 4530      65667300 
 4531              	.LASF111:
 4532 076f 63685F7A 		.ascii	"ch_zero\000"
 4532      65726F00 
 4533              	.LASF266:
 4534 0777 6576656E 		.ascii	"events_add\000"
 4534      74735F61 
 4534      646400
 4535              	.LASF256:
 4536 0782 70617261 		.ascii	"param\000"
 4536      6D00
 4537              	.LASF164:
 4538 0788 5F5F746D 		.ascii	"__tm_isdst\000"
 4538      5F697364 
ARM GAS  /tmp/ccKFb8Yw.s 			page 87


 4538      737400
 4539              	.LASF25:
 4540 0793 74736C69 		.ascii	"tslices_t\000"
 4540      6365735F 
 4540      7400
 4541              	.LASF65:
 4542 079d 725F6F6C 		.ascii	"r_older\000"
 4542      64657200 
 4543              	.LASF260:
 4544 07a5 6D5F6576 		.ascii	"m_event_now\000"
 4544      656E745F 
 4544      6E6F7700 
 4545              	.LASF171:
 4546 07b1 5F696E64 		.ascii	"_ind\000"
 4546      00
 4547              	.LASF47:
 4548 07b6 705F6D73 		.ascii	"p_msg\000"
 4548      6700
 4549              	.LASF22:
 4550 07bc 746D6F64 		.ascii	"tmode_t\000"
 4550      655F7400 
 4551              	.LASF112:
 4552 07c4 63685F73 		.ascii	"ch_size\000"
 4552      697A6500 
 4553              	.LASF85:
 4554 07cc 6D61696E 		.ascii	"mainthread\000"
 4554      74687265 
 4554      616400
 4555              	.LASF277:
 4556 07d7 2F626C64 		.ascii	"/bldc\000"
 4556      6300
 4557              	.LASF160:
 4558 07dd 5F5F746D 		.ascii	"__tm_mon\000"
 4558      5F6D6F6E 
 4558      00
 4559              	.LASF263:
 4560 07e6 61726776 		.ascii	"argv\000"
 4560      00
 4561              	.LASF139:
 4562 07eb 5F4C4F43 		.ascii	"_LOCK_T\000"
 4562      4B5F5400 
 4563              	.LASF16:
 4564 07f3 75696E74 		.ascii	"uint16_t\000"
 4564      31365F74 
 4564      00
 4565              	.LASF53:
 4566 07fc 74687265 		.ascii	"thread_reference_t\000"
 4566      61645F72 
 4566      65666572 
 4566      656E6365 
 4566      5F7400
 4567              	.LASF182:
 4568 080f 5F777269 		.ascii	"_write\000"
 4568      746500
 4569              	.LASF21:
 4570 0816 7274636E 		.ascii	"rtcnt_t\000"
 4570      745F7400 
ARM GAS  /tmp/ccKFb8Yw.s 			page 88


 4571              	.LASF258:
 4572 081e 6576656E 		.ascii	"event_t\000"
 4572      745F7400 
 4573              	.LASF170:
 4574 0826 5F617465 		.ascii	"_atexit\000"
 4574      78697400 
 4575              	.LASF259:
 4576 082e 6D5F6576 		.ascii	"m_events\000"
 4576      656E7473 
 4576      00
 4577              	.LASF50:
 4578 0837 705F7265 		.ascii	"p_realprio\000"
 4578      616C7072 
 4578      696F00
 4579              	.LASF113:
 4580 0842 63685F76 		.ascii	"ch_version\000"
 4580      65727369 
 4580      6F6E00
 4581              	.LASF5:
 4582 084d 73686F72 		.ascii	"short int\000"
 4582      7420696E 
 4582      7400
 4583              	.LASF66:
 4584 0857 725F6375 		.ascii	"r_current\000"
 4584      7272656E 
 4584      7400
 4585              	.LASF48:
 4586 0861 705F6570 		.ascii	"p_epending\000"
 4586      656E6469 
 4586      6E6700
 4587              	.LASF106:
 4588 086c 6D5F7175 		.ascii	"m_queue\000"
 4588      65756500 
 4589              	.LASF10:
 4590 0874 6C6F6E67 		.ascii	"long int\000"
 4590      20696E74 
 4590      00
 4591              	.LASF92:
 4592 087d 706F7274 		.ascii	"port_intctx\000"
 4592      5F696E74 
 4592      63747800 
 4593              	.LASF267:
 4594 0889 6576656E 		.ascii	"events_init\000"
 4594      74735F69 
 4594      6E697400 
 4595              	.LASF87:
 4596 0895 49544D5F 		.ascii	"ITM_RxBuffer\000"
 4596      52784275 
 4596      66666572 
 4596      00
 4597              	.LASF265:
 4598 08a2 7072696E 		.ascii	"print_cnt\000"
 4598      745F636E 
 4598      7400
 4599              	.LASF214:
 4600 08ac 5F5F7366 		.ascii	"__sf\000"
 4600      00
ARM GAS  /tmp/ccKFb8Yw.s 			page 89


 4601              	.LASF82:
 4602 08b1 63685F73 		.ascii	"ch_system\000"
 4602      79737465 
 4602      6D00
 4603              	.LASF107:
 4604 08bb 6D5F6F77 		.ascii	"m_owner\000"
 4604      6E657200 
 4605              	.LASF133:
 4606 08c3 73656E64 		.ascii	"send_buffer_global\000"
 4606      5F627566 
 4606      6665725F 
 4606      676C6F62 
 4606      616C00
 4607              	.LASF32:
 4608 08d6 705F6E65 		.ascii	"p_next\000"
 4608      787400
 4609              	.LASF189:
 4610 08dd 5F646174 		.ascii	"_data\000"
 4610      6100
 4611              	.LASF144:
 4612 08e3 5F5F7763 		.ascii	"__wchb\000"
 4612      686200
 4613              	.LASF19:
 4614 08ea 75696E74 		.ascii	"uint64_t\000"
 4614      36345F74 
 4614      00
 4615              	.LASF35:
 4616 08f3 705F6374 		.ascii	"p_ctx\000"
 4616      7800
 4617              	.LASF161:
 4618 08f9 5F5F746D 		.ascii	"__tm_year\000"
 4618      5F796561 
 4618      7200
 4619              	.LASF83:
 4620 0903 726C6973 		.ascii	"rlist\000"
 4620      7400
 4621              	.LASF261:
 4622 0909 6D5F6D74 		.ascii	"m_mtx\000"
 4622      7800
 4623              	.LASF127:
 4624 090f 63665F6F 		.ascii	"cf_off_time\000"
 4624      66665F74 
 4624      696D6500 
 4625              	.LASF249:
 4626 091b 5F5F6664 		.ascii	"__fdlibm_ieee\000"
 4626      6C69626D 
 4626      5F696565 
 4626      6500
 4627              	.LASF206:
 4628 0929 5F703573 		.ascii	"_p5s\000"
 4628      00
 4629              	.LASF226:
 4630 092e 5F6C6F63 		.ascii	"_localtime_buf\000"
 4630      616C7469 
 4630      6D655F62 
 4630      756600
 4631              	.LASF117:
ARM GAS  /tmp/ccKFb8Yw.s 			page 90


 4632 093d 63665F6F 		.ascii	"cf_off_prio\000"
 4632      66665F70 
 4632      72696F00 
 4633              	.LASF244:
 4634 0949 5F756E75 		.ascii	"_unused\000"
 4634      73656400 
 4635              	.LASF6:
 4636 0951 5F5F7569 		.ascii	"__uint8_t\000"
 4636      6E74385F 
 4636      7400
 4637              	.LASF210:
 4638 095b 5F6E6577 		.ascii	"_new\000"
 4638      00
 4639              	.LASF208:
 4640 0960 5F637674 		.ascii	"_cvtlen\000"
 4640      6C656E00 
 4641              	.LASF254:
 4642 0968 6E616D65 		.ascii	"name\000"
 4642      00
 4643              	.LASF281:
 4644 096d 73746172 		.ascii	"start\000"
 4644      7400
 4645              	.LASF110:
 4646 0973 63685F69 		.ascii	"ch_identifier\000"
 4646      64656E74 
 4646      69666965 
 4646      7200
 4647              	.LASF187:
 4648 0981 5F626C6B 		.ascii	"_blksize\000"
 4648      73697A65 
 4648      00
 4649              	.LASF155:
 4650 098a 5F5F746D 		.ascii	"__tm\000"
 4650      00
 4651              	.LASF190:
 4652 098f 5F6C6F63 		.ascii	"_lock\000"
 4652      6B00
 4653              	.LASF33:
 4654 0995 705F7072 		.ascii	"p_prev\000"
 4654      657600
 4655              	.LASF24:
 4656 099c 74726566 		.ascii	"trefs_t\000"
 4656      735F7400 
 4657              	.LASF12:
 4658 09a4 6C6F6E67 		.ascii	"long unsigned int\000"
 4658      20756E73 
 4658      69676E65 
 4658      6420696E 
 4658      7400
 4659              	.LASF59:
 4660 09b6 72656164 		.ascii	"ready_list_t\000"
 4660      795F6C69 
 4660      73745F74 
 4660      00
 4661              	.LASF217:
 4662 09c3 5F6E696F 		.ascii	"_niobs\000"
 4662      627300
ARM GAS  /tmp/ccKFb8Yw.s 			page 91


 4663              	.LASF142:
 4664 09ca 77696E74 		.ascii	"wint_t\000"
 4664      5F7400
 4665              	.LASF17:
 4666 09d1 696E7433 		.ascii	"int32_t\000"
 4666      325F7400 
 4667              	.LASF157:
 4668 09d9 5F5F746D 		.ascii	"__tm_min\000"
 4668      5F6D696E 
 4668      00
 4669              	.LASF255:
 4670 09e2 74687265 		.ascii	"thread\000"
 4670      616400
 4671              	.LASF99:
 4672 09e9 77747365 		.ascii	"wtsemp\000"
 4672      6D7000
 4673              	.LASF245:
 4674 09f0 5F5F6C6F 		.ascii	"__lock\000"
 4674      636B00
 4675              	.LASF167:
 4676 09f7 5F64736F 		.ascii	"_dso_handle\000"
 4676      5F68616E 
 4676      646C6500 
 4677              	.LASF130:
 4678 0a03 6D757465 		.ascii	"mutex_t\000"
 4678      785F7400 
 4679              	.LASF209:
 4680 0a0b 5F637674 		.ascii	"_cvtbuf\000"
 4680      62756600 
 4681              	.LASF274:
 4682 0a13 7465726D 		.ascii	"terminal_register_command_callback\000"
 4682      696E616C 
 4682      5F726567 
 4682      69737465 
 4682      725F636F 
 4683              	.LASF4:
 4684 0a36 756E7369 		.ascii	"unsigned char\000"
 4684      676E6564 
 4684      20636861 
 4684      7200
 4685              	.LASF11:
 4686 0a44 5F5F7569 		.ascii	"__uint32_t\000"
 4686      6E743332 
 4686      5F7400
 4687              	.LASF75:
 4688 0a4f 76697274 		.ascii	"virtual_timers_list_t\000"
 4688      75616C5F 
 4688      74696D65 
 4688      72735F6C 
 4688      6973745F 
 4689              	.LASF42:
 4690 0a65 705F7265 		.ascii	"p_refs\000"
 4690      667300
 4691              	.LASF80:
 4692 0a6c 70616E69 		.ascii	"panic_msg\000"
 4692      635F6D73 
 4692      6700
ARM GAS  /tmp/ccKFb8Yw.s 			page 92


 4693              	.LASF235:
 4694 0a76 5F676574 		.ascii	"_getdate_err\000"
 4694      64617465 
 4694      5F657272 
 4694      00
 4695              	.LASF222:
 4696 0a83 5F616464 		.ascii	"_add\000"
 4696      00
 4697              	.LASF181:
 4698 0a88 5F726561 		.ascii	"_read\000"
 4698      6400
 4699              	.LASF43:
 4700 0a8e 705F7072 		.ascii	"p_preempt\000"
 4700      65656D70 
 4700      7400
 4701              	.LASF173:
 4702 0a98 5F5F7362 		.ascii	"__sbuf\000"
 4702      756600
 4703              	.LASF101:
 4704 0a9f 65776D61 		.ascii	"ewmask\000"
 4704      736B00
 4705              	.LASF233:
 4706 0aa6 5F6C3634 		.ascii	"_l64a_buf\000"
 4706      615F6275 
 4706      6600
 4707              	.LASF70:
 4708 0ab0 76745F6E 		.ascii	"vt_next\000"
 4708      65787400 
 4709              	.LASF216:
 4710 0ab8 5F676C75 		.ascii	"_glue\000"
 4710      6500
 4711              	.LASF278:
 4712 0abe 5F5F6664 		.ascii	"__fdlibm_version\000"
 4712      6C69626D 
 4712      5F766572 
 4712      73696F6E 
 4712      00
 4713              	.LASF81:
 4714 0acf 63685F73 		.ascii	"ch_system_t\000"
 4714      79737465 
 4714      6D5F7400 
 4715              	.LASF213:
 4716 0adb 5F5F7367 		.ascii	"__sglue\000"
 4716      6C756500 
 4717              	.LASF98:
 4718 0ae3 77747472 		.ascii	"wttrp\000"
 4718      7000
 4719              	.LASF224:
 4720 0ae9 5F737472 		.ascii	"_strtok_last\000"
 4720      746F6B5F 
 4720      6C617374 
 4720      00
 4721              	.LASF231:
 4722 0af6 5F6D6274 		.ascii	"_mbtowc_state\000"
 4722      6F77635F 
 4722      73746174 
 4722      6500
ARM GAS  /tmp/ccKFb8Yw.s 			page 93


 4723              	.LASF201:
 4724 0b04 5F6C6F63 		.ascii	"_locale\000"
 4724      616C6500 
 4725              	.LASF108:
 4726 0b0c 6D5F6E65 		.ascii	"m_next\000"
 4726      787400
 4727              	.LASF166:
 4728 0b13 5F666E61 		.ascii	"_fnargs\000"
 4728      72677300 
 4729              	.LASF3:
 4730 0b1b 7369676E 		.ascii	"signed char\000"
 4730      65642063 
 4730      68617200 
 4731              	.LASF119:
 4732 0b27 63665F6F 		.ascii	"cf_off_newer\000"
 4732      66665F6E 
 4732      65776572 
 4732      00
 4733              	.LASF193:
 4734 0b34 5F726565 		.ascii	"_reent\000"
 4734      6E7400
 4735              	.LASF8:
 4736 0b3b 73686F72 		.ascii	"short unsigned int\000"
 4736      7420756E 
 4736      7369676E 
 4736      65642069 
 4736      6E7400
 4737              	.LASF63:
 4738 0b4e 725F6374 		.ascii	"r_ctx\000"
 4738      7800
 4739              	.LASF270:
 4740 0b54 636F6D6D 		.ascii	"commands_printf\000"
 4740      616E6473 
 4740      5F707269 
 4740      6E746600 
 4741              	.LASF90:
 4742 0b64 73746B61 		.ascii	"stkalign_t\000"
 4742      6C69676E 
 4742      5F7400
 4743              	.LASF134:
 4744 0b6f 73656E64 		.ascii	"send_buffer_mutex\000"
 4744      5F627566 
 4744      6665725F 
 4744      6D757465 
 4744      7800
 4745              	.LASF129:
 4746 0b81 63685F64 		.ascii	"ch_debug\000"
 4746      65627567 
 4746      00
 4747              	.LASF168:
 4748 0b8a 5F666E74 		.ascii	"_fntypes\000"
 4748      79706573 
 4748      00
 4749              	.LASF73:
 4750 0b93 76745F66 		.ascii	"vt_func\000"
 4750      756E6300 
 4751              	.LASF137:
ARM GAS  /tmp/ccKFb8Yw.s 			page 94


 4752 0b9b 7574696C 		.ascii	"utils_tab_cos_32_1\000"
 4752      735F7461 
 4752      625F636F 
 4752      735F3332 
 4752      5F3100
 4753              	.LASF138:
 4754 0bae 7574696C 		.ascii	"utils_tab_cos_32_2\000"
 4754      735F7461 
 4754      625F636F 
 4754      735F3332 
 4754      5F3200
 4755              	.LASF175:
 4756 0bc1 5F73697A 		.ascii	"_size\000"
 4756      6500
 4757              	.LASF132:
 4758 0bc7 646F7562 		.ascii	"double\000"
 4758      6C6500
 4759              	.LASF71:
 4760 0bce 76745F70 		.ascii	"vt_prev\000"
 4760      72657600 
 4761              	.LASF140:
 4762 0bd6 5F6F6666 		.ascii	"_off_t\000"
 4762      5F7400
 4763              	.LASF186:
 4764 0bdd 5F6E6275 		.ascii	"_nbuf\000"
 4764      6600
 4765              	.LASF223:
 4766 0be3 5F756E75 		.ascii	"_unused_rand\000"
 4766      7365645F 
 4766      72616E64 
 4766      00
 4767              	.LASF200:
 4768 0bf0 5F756E73 		.ascii	"_unspecified_locale_info\000"
 4768      70656369 
 4768      66696564 
 4768      5F6C6F63 
 4768      616C655F 
 4769              	.LASF192:
 4770 0c09 5F666C61 		.ascii	"_flags2\000"
 4770      67733200 
 4771              	.LASF169:
 4772 0c11 5F69735F 		.ascii	"_is_cxa\000"
 4772      63786100 
 4773              	.LASF220:
 4774 0c19 5F736565 		.ascii	"_seed\000"
 4774      6400
 4775              	.LASF228:
 4776 0c1f 5F72616E 		.ascii	"_rand_next\000"
 4776      645F6E65 
 4776      787400
 4777              	.LASF246:
 4778 0c2a 5F5F6C6F 		.ascii	"__locale_t\000"
 4778      63616C65 
 4778      5F7400
 4779              	.LASF96:
 4780 0c35 65786974 		.ascii	"exitcode\000"
 4780      636F6465 
ARM GAS  /tmp/ccKFb8Yw.s 			page 95


 4780      00
 4781              	.LASF183:
 4782 0c3e 5F736565 		.ascii	"_seek\000"
 4782      6B00
 4783              	.LASF197:
 4784 0c44 5F737464 		.ascii	"_stderr\000"
 4784      65727200 
 4785              	.LASF243:
 4786 0c4c 5F6E6D61 		.ascii	"_nmalloc\000"
 4786      6C6C6F63 
 4786      00
 4787              	.LASF218:
 4788 0c55 5F696F62 		.ascii	"_iobs\000"
 4788      7300
 4789              		.ident	"GCC: (GNU Tools for Arm Embedded Processors 7-2018-q3-update) 7.3.1 20180622 (release) [AR
ARM GAS  /tmp/ccKFb8Yw.s 			page 96


DEFINED SYMBOLS
                            *ABS*:0000000000000000 events.c
     /tmp/ccKFb8Yw.s:19     .text.terminal_print:0000000000000000 $t
     /tmp/ccKFb8Yw.s:26     .text.terminal_print:0000000000000000 terminal_print
     /tmp/ccKFb8Yw.s:196    .text.terminal_print:00000000000000bc $d
     /tmp/ccKFb8Yw.s:211    .text.events_init:0000000000000000 $t
     /tmp/ccKFb8Yw.s:219    .text.events_init:0000000000000000 events_init
     /tmp/ccKFb8Yw.s:276    .text.events_init:0000000000000030 $d
     /tmp/ccKFb8Yw.s:285    .text.events_add:0000000000000000 $t
     /tmp/ccKFb8Yw.s:293    .text.events_add:0000000000000000 events_add
     /tmp/ccKFb8Yw.s:481    .text.events_add:00000000000000f4 $d
     /tmp/ccKFb8Yw.s:493    .bss.m_event_now:0000000000000000 $d
     /tmp/ccKFb8Yw.s:497    .bss.m_event_now:0000000000000000 m_event_now
     /tmp/ccKFb8Yw.s:500    .bss.m_events:0000000000000000 $d
     /tmp/ccKFb8Yw.s:504    .bss.m_events:0000000000000000 m_events
     /tmp/ccKFb8Yw.s:507    .bss.m_mtx:0000000000000000 $d
     /tmp/ccKFb8Yw.s:511    .bss.m_mtx:0000000000000000 m_mtx
     /tmp/ccKFb8Yw.s:514    .rodata.events_init.str1.4:0000000000000000 $d
     /tmp/ccKFb8Yw.s:521    .rodata.terminal_print.str1.4:0000000000000000 $d

UNDEFINED SYMBOLS
__aeabi_f2d
commands_printf
ch
chMtxObjectInit
terminal_register_command_callback
chMtxLock
chMtxUnlock
