ARM GAS  /tmp/ccKFb8Yw.s 			page 1


   1              		.cpu cortex-m4
   2              		.eabi_attribute 27, 1
   3              		.eabi_attribute 28, 1
   4              		.eabi_attribute 20, 1
   5              		.eabi_attribute 21, 1
   6              		.eabi_attribute 23, 3
   7              		.eabi_attribute 24, 1
   8              		.eabi_attribute 25, 1
   9              		.eabi_attribute 26, 1
  10              		.eabi_attribute 30, 2
  11              		.eabi_attribute 34, 1
  12              		.eabi_attribute 18, 4
  13              		.file	"events.c"
  14              		.text
  15              	.Ltext0:
  16              		.cfi_sections	.debug_frame
  17              		.global	__aeabi_f2d
  18              		.section	.text.terminal_print,"ax",%progbits
  19              		.align	1
  20              		.p2align 4,,15
  21              		.syntax unified
  22              		.thumb
  23              		.thumb_func
  24              		.fpu fpv4-sp-d16
  25              		.type	terminal_print, %function
  26              	terminal_print:
  27              	.LFB221:
  28              		.file 1 "events.c"
  29              		.loc 1 97 0
  30              		.cfi_startproc
  31              		@ args = 0, pretend = 0, frame = 0
  32              		@ frame_needed = 0, uses_anonymous_args = 0
  33              	.LVL0:
  34 0000 2DE9F84F 		push	{r3, r4, r5, r6, r7, r8, r9, r10, fp, lr}
  35              		.cfi_def_cfa_offset 40
  36              		.cfi_offset 3, -40
  37              		.cfi_offset 4, -36
  38              		.cfi_offset 5, -32
  39              		.cfi_offset 6, -28
  40              		.cfi_offset 7, -24
  41              		.cfi_offset 8, -20
  42              		.cfi_offset 9, -16
  43              		.cfi_offset 10, -12
  44              		.cfi_offset 11, -8
  45              		.cfi_offset 14, -4
  46              		.loc 1 100 0
  47 0004 2D4E     		ldr	r6, .L11
  48 0006 2E4D     		ldr	r5, .L11+4
  49 0008 3468     		ldr	r4, [r6]
  50              	.LVL1:
  51              	.LBB19:
  52              	.LBB20:
  53              	.LBB21:
  54              	.LBB22:
  55              	.LBB23:
  56              		.file 2 "ChibiOS_3.0.5/os/rt/include/chvt.h"
  57              		.loc 2 231 0
ARM GAS  /tmp/ccKFb8Yw.s 			page 2


  58 000a DFF8D490 		ldr	r9, .L11+36
  59              	.LBE23:
  60              	.LBE22:
  61              	.LBE21:
  62              	.LBE20:
  63              		.loc 1 108 0
  64 000e DFF8D480 		ldr	r8, .L11+40
  65              	.LBE19:
  66              		.loc 1 97 0
  67 0012 2DED028B 		vpush.64	{d8}
  68              		.cfi_def_cfa_offset 48
  69              		.cfi_offset 80, -48
  70              		.cfi_offset 81, -44
  71              		.loc 1 101 0
  72 0016 0027     		movs	r7, #0
  73              	.LBB28:
  74              		.loc 1 108 0
  75 0018 9FED2A8A 		vldr.32	s16, .L11+8
  76 001c 0EE0     		b	.L3
  77              	.LVL2:
  78              	.L2:
  79              		.loc 1 115 0
  80 001e 2A4B     		ldr	r3, .L11+12
  81              	.LBE28:
  82              		.loc 1 116 0
  83 0020 3168     		ldr	r1, [r6]
  84              	.LBB29:
  85              		.loc 1 115 0
  86 0022 621C     		adds	r2, r4, #1
  87 0024 83FB0234 		smull	r3, r4, r3, r2
  88              	.LVL3:
  89 0028 A318     		adds	r3, r4, r2
  90 002a D417     		asrs	r4, r2, #31
  91 002c C4EB2314 		rsb	r4, r4, r3, asr #4
  92 0030 C4EB0414 		rsb	r4, r4, r4, lsl #4
  93 0034 A2EB4404 		sub	r4, r2, r4, lsl #1
  94              	.LVL4:
  95              	.LBE29:
  96              		.loc 1 116 0
  97 0038 A142     		cmp	r1, r4
  98 003a 37D0     		beq	.L10
  99              	.LVL5:
 100              	.L3:
 101              	.LBB30:
 102              		.loc 1 106 0
 103 003c 04EB840B 		add	fp, r4, r4, lsl #2
 104 0040 05EB8B0A 		add	r10, r5, fp, lsl #2
 105 0044 9AF81030 		ldrb	r3, [r10, #16]	@ zero_extendqisi2
 106 0048 002B     		cmp	r3, #0
 107 004a E8D0     		beq	.L2
 108              		.loc 1 108 0
 109 004c DAF80C20 		ldr	r2, [r10, #12]
 110              	.LBB27:
 111              	.LBB26:
 112              	.LBB25:
 113              	.LBB24:
 114              		.loc 2 231 0
ARM GAS  /tmp/ccKFb8Yw.s 			page 3


 115 0050 D9F82830 		ldr	r3, [r9, #40]
 116              	.LBE24:
 117              	.LBE25:
 118              		.loc 2 267 0
 119 0054 9B1A     		subs	r3, r3, r2
 120              	.LBE26:
 121              	.LBE27:
 122              		.loc 1 108 0
 123 0056 07EE903A 		vmov	s15, r3	@ int
 124 005a F8EE677A 		vcvt.f32.u32	s15, s15
 125              		.loc 1 107 0
 126 005e 0137     		adds	r7, r7, #1
 127              	.LVL6:
 128              		.loc 1 108 0
 129 0060 C7EE887A 		vdiv.f32	s15, s15, s16
 130 0064 17EE900A 		vmov	r0, s15
 131 0068 FFF7FEFF 		bl	__aeabi_f2d
 132              	.LVL7:
 133 006c 0246     		mov	r2, r0
 134 006e 0B46     		mov	r3, r1
 135 0070 4046     		mov	r0, r8
 136 0072 FFF7FEFF 		bl	commands_printf
 137              	.LVL8:
 138              		.loc 1 109 0
 139 0076 DAF80430 		ldr	r3, [r10, #4]
 140 007a 1448     		ldr	r0, .L11+16
 141 007c 9969     		ldr	r1, [r3, #24]
 142 007e FFF7FEFF 		bl	commands_printf
 143              	.LVL9:
 144              		.loc 1 110 0
 145 0082 DAF80430 		ldr	r3, [r10, #4]
 146 0086 1248     		ldr	r0, .L11+20
 147 0088 D96C     		ldr	r1, [r3, #76]
 148 008a FFF7FEFF 		bl	commands_printf
 149              	.LVL10:
 150              		.loc 1 111 0
 151 008e 55F82B10 		ldr	r1, [r5, fp, lsl #2]
 152 0092 1048     		ldr	r0, .L11+24
 153 0094 FFF7FEFF 		bl	commands_printf
 154              	.LVL11:
 155              		.loc 1 112 0
 156 0098 DAF80800 		ldr	r0, [r10, #8]	@ float
 157 009c FFF7FEFF 		bl	__aeabi_f2d
 158              	.LVL12:
 159 00a0 0246     		mov	r2, r0
 160 00a2 0B46     		mov	r3, r1
 161 00a4 0C48     		ldr	r0, .L11+28
 162 00a6 FFF7FEFF 		bl	commands_printf
 163              	.LVL13:
 164 00aa B8E7     		b	.L2
 165              	.LVL14:
 166              	.L10:
 167              	.LBE30:
 168              		.loc 1 119 0
 169 00ac BDEC028B 		vldm	sp!, {d8}
 170              		.cfi_restore 80
 171              		.cfi_restore 81
ARM GAS  /tmp/ccKFb8Yw.s 			page 4


 172              		.cfi_def_cfa_offset 40
 173              		.loc 1 118 0
 174 00b0 3946     		mov	r1, r7
 175 00b2 0A48     		ldr	r0, .L11+32
 176              		.loc 1 119 0
 177 00b4 BDE8F84F 		pop	{r3, r4, r5, r6, r7, r8, r9, r10, fp, lr}
 178              		.cfi_restore 14
 179              		.cfi_restore 11
 180              		.cfi_restore 10
 181              		.cfi_restore 9
 182              		.cfi_restore 8
 183              		.cfi_restore 7
 184              		.cfi_restore 6
 185              		.cfi_restore 5
 186              		.cfi_restore 4
 187              		.cfi_restore 3
 188              		.cfi_def_cfa_offset 0
 189              	.LVL15:
 190              		.loc 1 118 0
 191 00b8 FFF7FEBF 		b	commands_printf
 192              	.LVL16:
 193              	.L12:
 194              		.align	2
 195              	.L11:
 196 00bc 00000000 		.word	.LANCHOR0
 197 00c0 00000000 		.word	.LANCHOR1
 198 00c4 00401C46 		.word	1176256512
 199 00c8 89888888 		.word	-2004318071
 200 00cc 10000000 		.word	.LC1
 201 00d0 1C000000 		.word	.LC2
 202 00d4 28000000 		.word	.LC3
 203 00d8 34000000 		.word	.LC4
 204 00dc 44000000 		.word	.LC5
 205 00e0 00000000 		.word	ch
 206 00e4 00000000 		.word	.LC0
 207              		.cfi_endproc
 208              	.LFE221:
 209              		.size	terminal_print, .-terminal_print
 210              		.section	.text.events_init,"ax",%progbits
 211              		.align	1
 212              		.p2align 4,,15
 213              		.global	events_init
 214              		.syntax unified
 215              		.thumb
 216              		.thumb_func
 217              		.fpu fpv4-sp-d16
 218              		.type	events_init, %function
 219              	events_init:
 220              	.LFB219:
 221              		.loc 1 48 0
 222              		.cfi_startproc
 223              		@ args = 0, pretend = 0, frame = 0
 224              		@ frame_needed = 0, uses_anonymous_args = 0
 225              		.loc 1 49 0
 226 0000 0B48     		ldr	r0, .L17
 227              		.loc 1 48 0
 228 0002 10B5     		push	{r4, lr}
ARM GAS  /tmp/ccKFb8Yw.s 			page 5


 229              		.cfi_def_cfa_offset 8
 230              		.cfi_offset 4, -8
 231              		.cfi_offset 14, -4
 232              		.loc 1 49 0
 233 0004 FFF7FEFF 		bl	chMtxObjectInit
 234              	.LVL17:
 235              	.LBB31:
 236              		.loc 1 51 0
 237 0008 0023     		movs	r3, #0
 238 000a 0A48     		ldr	r0, .L17+4
 239              	.LBB32:
 240              		.loc 1 53 0
 241 000c 1946     		mov	r1, r3
 242              	.LVL18:
 243              	.L14:
 244              		.loc 1 53 0 is_stmt 0 discriminator 3
 245 000e 03EB8302 		add	r2, r3, r3, lsl #2
 246 0012 00EB8202 		add	r2, r0, r2, lsl #2
 247              	.LBE32:
 248              		.loc 1 51 0 is_stmt 1 discriminator 3
 249 0016 0133     		adds	r3, r3, #1
 250              	.LVL19:
 251 0018 1E2B     		cmp	r3, #30
 252              	.LBB33:
 253              		.loc 1 53 0 discriminator 3
 254 001a 1174     		strb	r1, [r2, #16]
 255              	.LBE33:
 256              		.loc 1 51 0 discriminator 3
 257 001c F7D1     		bne	.L14
 258              	.LBE31:
 259              		.loc 1 56 0
 260 001e 064B     		ldr	r3, .L17+8
 261              	.LVL20:
 262 0020 0649     		ldr	r1, .L17+12
 263 0022 0748     		ldr	r0, .L17+16
 264 0024 0022     		movs	r2, #0
 265              		.loc 1 61 0
 266 0026 BDE81040 		pop	{r4, lr}
 267              		.cfi_restore 14
 268              		.cfi_restore 4
 269              		.cfi_def_cfa_offset 0
 270              		.loc 1 56 0
 271 002a FFF7FEBF 		b	terminal_register_command_callback
 272              	.LVL21:
 273              	.L18:
 274 002e 00BF     		.align	2
 275              	.L17:
 276 0030 00000000 		.word	.LANCHOR2
 277 0034 00000000 		.word	.LANCHOR1
 278 0038 00000000 		.word	terminal_print
 279 003c 00000000 		.word	.LC6
 280 0040 1C000000 		.word	.LC7
 281              		.cfi_endproc
 282              	.LFE219:
 283              		.size	events_init, .-events_init
 284              		.section	.text.events_add,"ax",%progbits
 285              		.align	1
ARM GAS  /tmp/ccKFb8Yw.s 			page 6


 286              		.p2align 4,,15
 287              		.global	events_add
 288              		.syntax unified
 289              		.thumb
 290              		.thumb_func
 291              		.fpu fpv4-sp-d16
 292              		.type	events_add, %function
 293              	events_add:
 294              	.LFB220:
 295              		.loc 1 63 0
 296              		.cfi_startproc
 297              		@ args = 0, pretend = 0, frame = 0
 298              		@ frame_needed = 0, uses_anonymous_args = 0
 299              	.LVL22:
 300 0000 F8B5     		push	{r3, r4, r5, r6, r7, lr}
 301              		.cfi_def_cfa_offset 24
 302              		.cfi_offset 3, -24
 303              		.cfi_offset 4, -20
 304              		.cfi_offset 5, -16
 305              		.cfi_offset 6, -12
 306              		.cfi_offset 7, -8
 307              		.cfi_offset 14, -4
 308              		.loc 1 66 0
 309 0002 3C4D     		ldr	r5, .L26
 310              		.loc 1 63 0
 311 0004 2DED028B 		vpush.64	{d8}
 312              		.cfi_def_cfa_offset 32
 313              		.cfi_offset 80, -32
 314              		.cfi_offset 81, -28
 315              		.loc 1 63 0
 316 0008 0446     		mov	r4, r0
 317              		.loc 1 64 0
 318 000a 3B48     		ldr	r0, .L26+4
 319              	.LVL23:
 320              		.loc 1 63 0
 321 000c B0EE408A 		vmov.f32	s16, s0
 322              		.loc 1 64 0
 323 0010 FFF7FEFF 		bl	chMtxLock
 324              	.LVL24:
 325              		.loc 1 66 0
 326 0014 2868     		ldr	r0, [r5]
 327              	.LVL25:
 328              		.loc 1 69 0
 329 0016 461E     		subs	r6, r0, #1
 330              	.LVL26:
 331 0018 34D4     		bmi	.L23
 332 001a 384B     		ldr	r3, .L26+8
 333 001c 83FB0023 		smull	r2, r3, r3, r0
 334 0020 0344     		add	r3, r3, r0
 335 0022 C217     		asrs	r2, r0, #31
 336 0024 C2EB2313 		rsb	r3, r2, r3, asr #4
 337 0028 B100     		lsls	r1, r6, #2
 338 002a C3EB0313 		rsb	r3, r3, r3, lsl #4
 339 002e 8A19     		adds	r2, r1, r6
 340 0030 A0EB4303 		sub	r3, r0, r3, lsl #1
 341 0034 4FEA820C 		lsl	ip, r2, #2
 342              	.LVL27:
ARM GAS  /tmp/ccKFb8Yw.s 			page 7


 343              	.L20:
 344              		.loc 1 77 0
 345 0038 3144     		add	r1, r1, r6
 346 003a 8900     		lsls	r1, r1, #2
 347 003c 304A     		ldr	r2, .L26+12
 348 003e 3148     		ldr	r0, .L26+16
 349 0040 5658     		ldr	r6, [r2, r1]
 350 0042 8769     		ldr	r7, [r0, #24]
 351 0044 A642     		cmp	r6, r4
 352 0046 1144     		add	r1, r1, r2
 353 0048 22D0     		beq	.L25
 354              	.L21:
 355 004a 2C49     		ldr	r1, .L26+8
 356 004c 5E1C     		adds	r6, r3, #1
 357 004e A1FB06C1 		umull	ip, r1, r1, r6
 358              	.LVL28:
 359              		.loc 1 82 0
 360 0052 03EB830C 		add	ip, r3, r3, lsl #2
 361 0056 0B09     		lsrs	r3, r1, #4
 362 0058 C3EB0313 		rsb	r3, r3, r3, lsl #4
 363 005c A6EB4303 		sub	r3, r6, r3, lsl #1
 364 0060 02EB8C02 		add	r2, r2, ip, lsl #2
 365              	.LVL29:
 366              	.L22:
 367              		.loc 1 85 0
 368 0064 1460     		str	r4, [r2]
 369              		.loc 1 86 0
 370 0066 5760     		str	r7, [r2, #4]
 371              		.loc 1 87 0
 372 0068 82ED028A 		vstr.32	s16, [r2, #8]
 373              		.loc 1 95 0
 374 006c BDEC028B 		vldm	sp!, {d8}
 375              		.cfi_remember_state
 376              		.cfi_restore 80
 377              		.cfi_restore 81
 378              		.cfi_def_cfa_offset 24
 379              	.LVL30:
 380              	.LBB34:
 381              	.LBB35:
 382              		.loc 2 231 0
 383 0070 816A     		ldr	r1, [r0, #40]
 384              	.LBE35:
 385              	.LBE34:
 386              		.loc 1 88 0
 387 0072 D160     		str	r1, [r2, #12]
 388              	.LVL31:
 389              		.loc 1 89 0
 390 0074 0121     		movs	r1, #1
 391 0076 1174     		strb	r1, [r2, #16]
 392              		.loc 1 94 0
 393 0078 1F48     		ldr	r0, .L26+4
 394              		.loc 1 92 0
 395 007a 2B60     		str	r3, [r5]
 396              		.loc 1 95 0
 397 007c BDE8F840 		pop	{r3, r4, r5, r6, r7, lr}
 398              		.cfi_restore 14
 399              		.cfi_restore 7
ARM GAS  /tmp/ccKFb8Yw.s 			page 8


 400              		.cfi_restore 6
 401              		.cfi_restore 5
 402              		.cfi_restore 4
 403              		.cfi_restore 3
 404              		.cfi_def_cfa_offset 0
 405              	.LVL32:
 406              		.loc 1 94 0
 407 0080 FFF7FEBF 		b	chMtxUnlock
 408              	.LVL33:
 409              	.L23:
 410              		.cfi_restore_state
 411 0084 4FF4117C 		mov	ip, #580
 412 0088 0023     		movs	r3, #0
 413              	.LVL34:
 414              		.loc 1 70 0
 415 008a 1D26     		movs	r6, #29
 416 008c 7421     		movs	r1, #116
 417 008e D3E7     		b	.L20
 418              	.LVL35:
 419              	.L25:
 420              		.loc 1 78 0 discriminator 1
 421 0090 4E68     		ldr	r6, [r1, #4]
 422              		.loc 1 77 0 discriminator 1
 423 0092 BE42     		cmp	r6, r7
 424 0094 D9D1     		bne	.L21
 425              		.loc 1 79 0
 426 0096 D1F80CE0 		ldr	lr, [r1, #12]
 427              	.LVL36:
 428              	.LBB36:
 429              	.LBB37:
 430              	.LBB38:
 431              	.LBB39:
 432              		.loc 2 231 0
 433 009a 866A     		ldr	r6, [r0, #40]
 434              	.LVL37:
 435              	.LBE39:
 436              	.LBE38:
 437              	.LBE37:
 438              	.LBE36:
 439              		.loc 1 79 0
 440 009c 9FED1A6A 		vldr.32	s12, .L26+20
 441              		.loc 1 78 0
 442 00a0 9FED1A7A 		vldr.32	s14, .L26+24
 443              	.LBB41:
 444              	.LBB40:
 445              		.loc 2 267 0
 446 00a4 A6EB0E06 		sub	r6, r6, lr
 447              	.LBE40:
 448              	.LBE41:
 449              		.loc 1 79 0
 450 00a8 07EE906A 		vmov	s15, r6	@ int
 451 00ac F8EE677A 		vcvt.f32.u32	s15, s15
 452 00b0 C7EE866A 		vdiv.f32	s13, s15, s12
 453              		.loc 1 78 0
 454 00b4 F4EEC76A 		vcmpe.f32	s13, s14
 455 00b8 F1EE10FA 		vmrs	APSR_nzcv, FPSCR
 456 00bc C5DC     		bgt	.L21
ARM GAS  /tmp/ccKFb8Yw.s 			page 9


 457              		.loc 1 80 0
 458 00be D1ED027A 		vldr.32	s15, [r1, #8]
 459 00c2 9FED137A 		vldr.32	s14, .L26+28
 460 00c6 F0EEC86A 		vabs.f32	s13, s16
 461 00ca F4EEC76A 		vcmpe.f32	s13, s14
 462 00ce F0EEE77A 		vabs.f32	s15, s15
 463 00d2 F1EE10FA 		vmrs	APSR_nzcv, FPSCR
 464 00d6 F4EEC77A 		vcmpe.f32	s15, s14
 465 00da CCBF     		ite	gt
 466 00dc 0126     		movgt	r6, #1
 467 00de 0026     		movle	r6, #0
 468 00e0 F1EE10FA 		vmrs	APSR_nzcv, FPSCR
 469              		.loc 1 79 0
 470 00e4 CCBF     		ite	gt
 471 00e6 0121     		movgt	r1, #1
 472 00e8 0021     		movle	r1, #0
 473 00ea 8E42     		cmp	r6, r1
 474 00ec ADD1     		bne	.L21
 475              		.loc 1 72 0
 476 00ee 6244     		add	r2, r2, ip
 477 00f0 B8E7     		b	.L22
 478              	.L27:
 479 00f2 00BF     		.align	2
 480              	.L26:
 481 00f4 00000000 		.word	.LANCHOR0
 482 00f8 00000000 		.word	.LANCHOR2
 483 00fc 89888888 		.word	-2004318071
 484 0100 00000000 		.word	.LANCHOR1
 485 0104 00000000 		.word	ch
 486 0108 00401C46 		.word	1176256512
 487 010c CDCC4C3E 		.word	1045220557
 488 0110 17B7D138 		.word	953267991
 489              		.cfi_endproc
 490              	.LFE220:
 491              		.size	events_add, .-events_add
 492              		.section	.bss.m_event_now,"aw",%nobits
 493              		.align	2
 494              		.set	.LANCHOR0,. + 0
 495              		.type	m_event_now, %object
 496              		.size	m_event_now, 4
 497              	m_event_now:
 498 0000 00000000 		.space	4
 499              		.section	.bss.m_events,"aw",%nobits
 500              		.align	2
 501              		.set	.LANCHOR1,. + 0
 502              		.type	m_events, %object
 503              		.size	m_events, 600
 504              	m_events:
 505 0000 00000000 		.space	600
 505      00000000 
 505      00000000 
 505      00000000 
 505      00000000 
 506              		.section	.bss.m_mtx,"aw",%nobits
 507              		.align	2
 508              		.set	.LANCHOR2,. + 0
 509              		.type	m_mtx, %object
ARM GAS  /tmp/ccKFb8Yw.s 			page 10


 510              		.size	m_mtx, 16
 511              	m_mtx:
 512 0000 00000000 		.space	16
 512      00000000 
 512      00000000 
 512      00000000 
 513              		.section	.rodata.events_init.str1.4,"aMS",%progbits,1
 514              		.align	2
 515              	.LC6:
 516 0000 5072696E 		.ascii	"Print recent motor events\000"
 516      74207265 
 516      63656E74 
 516      206D6F74 
 516      6F722065 
 517 001a 0000     		.space	2
 518              	.LC7:
 519 001c 6576656E 		.ascii	"events\000"
 519      747300
 520              		.section	.rodata.terminal_print.str1.4,"aMS",%progbits,1
 521              		.align	2
 522              	.LC0:
 523 0000 41676520 		.ascii	"Age    : %.2f s\000"
 523      2020203A 
 523      20252E32 
 523      66207300 
 524              	.LC1:
 525 0010 54687265 		.ascii	"Thread : %s\000"
 525      6164203A 
 525      20257300 
 526              	.LC2:
 527 001c 4D6F746F 		.ascii	"Motor  : %i\000"
 527      7220203A 
 527      20256900 
 528              	.LC3:
 529 0028 436F6D6D 		.ascii	"Command: %s\000"
 529      616E643A 
 529      20257300 
 530              	.LC4:
 531 0034 50617261 		.ascii	"Param  : %.3f\012\000"
 531      6D20203A 
 531      20252E33 
 531      660A00
 532 0043 00       		.space	1
 533              	.LC5:
 534 0044 4576656E 		.ascii	"Events total: %d\012\000"
 534      74732074 
 534      6F74616C 
 534      3A202564 
 534      0A00
 535              		.text
 536              	.Letext0:
 537              		.file 3 "/usr/arm-none-eabi/include/machine/_default_types.h"
 538              		.file 4 "/usr/arm-none-eabi/include/sys/_stdint.h"
 539              		.file 5 "/usr/lib/gcc/arm-none-eabi/7.3.1/include/stddef.h"
 540              		.file 6 "ChibiOS_3.0.5/os/rt/ports/ARMCMx/compilers/GCC/chtypes.h"
 541              		.file 7 "ChibiOS_3.0.5/os/rt/include/chsystypes.h"
 542              		.file 8 "ChibiOS_3.0.5/os/rt/include/chschd.h"
ARM GAS  /tmp/ccKFb8Yw.s 			page 11


 543              		.file 9 "ChibiOS_3.0.5/os/ext/CMSIS/include/core_cm4.h"
 544              		.file 10 "ChibiOS_3.0.5/os/ext/CMSIS/ST/system_stm32f4xx.h"
 545              		.file 11 "ChibiOS_3.0.5/os/rt/ports/ARMCMx/chcore.h"
 546              		.file 12 "ChibiOS_3.0.5/os/rt/ports/ARMCMx/chcore_v7m.h"
 547              		.file 13 "ChibiOS_3.0.5/os/rt/include/chtm.h"
 548              		.file 14 "ChibiOS_3.0.5/os/rt/include/chsem.h"
 549              		.file 15 "ChibiOS_3.0.5/os/rt/include/chmtx.h"
 550              		.file 16 "ChibiOS_3.0.5/os/rt/include/chregistry.h"
 551              		.file 17 "commands.h"
 552              		.file 18 "utils.h"
 553              		.file 19 "/usr/arm-none-eabi/include/sys/lock.h"
 554              		.file 20 "/usr/arm-none-eabi/include/sys/_types.h"
 555              		.file 21 "/usr/arm-none-eabi/include/sys/reent.h"
 556              		.file 22 "/usr/arm-none-eabi/include/math.h"
 557              		.file 23 "ChibiOS_3.0.5/os/rt/include/chthreads.h"
 558              		.file 24 "terminal.h"