ARM GAS  /tmp/ccvjNMGb.s 			page 1


   1              		.cpu cortex-m4
   2              		.eabi_attribute 27, 1
   3              		.eabi_attribute 28, 1
   4              		.eabi_attribute 20, 1
   5              		.eabi_attribute 21, 1
   6              		.eabi_attribute 23, 3
   7              		.eabi_attribute 24, 1
   8              		.eabi_attribute 25, 1
   9              		.eabi_attribute 26, 1
  10              		.eabi_attribute 30, 2
  11              		.eabi_attribute 34, 1
  12              		.eabi_attribute 18, 4
  13              		.file	"extensions.c"
  14              		.text
  15              	.Ltext0:
  16              		.cfi_sections	.debug_frame
  17              		.section	.text.lbm_extensions_init,"ax",%progbits
  18              		.align	1
  19              		.p2align 4,,15
  20              		.global	lbm_extensions_init
  21              		.syntax unified
  22              		.thumb
  23              		.thumb_func
  24              		.fpu fpv4-sp-d16
  25              		.type	lbm_extensions_init, %function
  26              	lbm_extensions_init:
  27              	.LFB37:
  28              		.file 1 "lispBM/lispBM/src/extensions.c"
  29              		.loc 1 39 0
  30              		.cfi_startproc
  31              		@ args = 0, pretend = 0, frame = 0
  32              		@ frame_needed = 0, uses_anonymous_args = 0
  33              		@ link register save eliminated.
  34              		.loc 1 40 0
  35 0000 024B     		ldr	r3, .L3
  36 0002 0022     		movs	r2, #0
  37 0004 1A60     		str	r2, [r3]
  38              		.loc 1 42 0
  39 0006 0120     		movs	r0, #1
  40 0008 7047     		bx	lr
  41              	.L4:
  42 000a 00BF     		.align	2
  43              	.L3:
  44 000c 00000000 		.word	.LANCHOR0
  45              		.cfi_endproc
  46              	.LFE37:
  47              		.size	lbm_extensions_init, .-lbm_extensions_init
  48              		.section	.text.lbm_get_extension,"ax",%progbits
  49              		.align	1
  50              		.p2align 4,,15
  51              		.global	lbm_get_extension
  52              		.syntax unified
  53              		.thumb
  54              		.thumb_func
  55              		.fpu fpv4-sp-d16
  56              		.type	lbm_get_extension, %function
  57              	lbm_get_extension:
ARM GAS  /tmp/ccvjNMGb.s 			page 2


  58              	.LFB38:
  59              		.loc 1 44 0
  60              		.cfi_startproc
  61              		@ args = 0, pretend = 0, frame = 0
  62              		@ frame_needed = 0, uses_anonymous_args = 0
  63              		@ link register save eliminated.
  64              	.LVL0:
  65              		.loc 1 45 0
  66 0000 084B     		ldr	r3, .L12
  67 0002 1B68     		ldr	r3, [r3]
  68              	.LVL1:
  69              		.loc 1 46 0
  70 0004 4BB1     		cbz	r3, .L10
  71              		.loc 1 47 0
  72 0006 1A68     		ldr	r2, [r3]
  73 0008 9042     		cmp	r0, r2
  74 000a 03D1     		bne	.L8
  75 000c 07E0     		b	.L7
  76              	.L9:
  77 000e 1A68     		ldr	r2, [r3]
  78 0010 8242     		cmp	r2, r0
  79 0012 04D0     		beq	.L7
  80              	.L8:
  81              		.loc 1 50 0
  82 0014 9B68     		ldr	r3, [r3, #8]
  83              	.LVL2:
  84              		.loc 1 46 0
  85 0016 002B     		cmp	r3, #0
  86 0018 F9D1     		bne	.L9
  87              	.L10:
  88              		.loc 1 52 0
  89 001a 1846     		mov	r0, r3
  90              	.LVL3:
  91              		.loc 1 53 0
  92 001c 7047     		bx	lr
  93              	.LVL4:
  94              	.L7:
  95              		.loc 1 48 0
  96 001e 5868     		ldr	r0, [r3, #4]
  97              	.LVL5:
  98 0020 7047     		bx	lr
  99              	.L13:
 100 0022 00BF     		.align	2
 101              	.L12:
 102 0024 00000000 		.word	.LANCHOR0
 103              		.cfi_endproc
 104              	.LFE38:
 105              		.size	lbm_get_extension, .-lbm_get_extension
 106              		.section	.text.lbm_add_extension,"ax",%progbits
 107              		.align	1
 108              		.p2align 4,,15
 109              		.global	lbm_add_extension
 110              		.syntax unified
 111              		.thumb
 112              		.thumb_func
 113              		.fpu fpv4-sp-d16
 114              		.type	lbm_add_extension, %function
ARM GAS  /tmp/ccvjNMGb.s 			page 3


 115              	lbm_add_extension:
 116              	.LFB39:
 117              		.loc 1 55 0
 118              		.cfi_startproc
 119              		@ args = 0, pretend = 0, frame = 8
 120              		@ frame_needed = 0, uses_anonymous_args = 0
 121              	.LVL6:
 122 0000 10B5     		push	{r4, lr}
 123              		.cfi_def_cfa_offset 8
 124              		.cfi_offset 4, -8
 125              		.cfi_offset 14, -4
 126 0002 82B0     		sub	sp, sp, #8
 127              		.cfi_def_cfa_offset 16
 128              		.loc 1 55 0
 129 0004 0C46     		mov	r4, r1
 130              		.loc 1 57 0
 131 0006 01A9     		add	r1, sp, #4
 132              	.LVL7:
 133 0008 FFF7FEFF 		bl	lbm_add_symbol_const
 134              	.LVL8:
 135              		.loc 1 59 0
 136 000c 10B9     		cbnz	r0, .L15
 137              	.LVL9:
 138              	.L17:
 139 000e 0020     		movs	r0, #0
 140              		.loc 1 70 0
 141 0010 02B0     		add	sp, sp, #8
 142              		.cfi_remember_state
 143              		.cfi_def_cfa_offset 8
 144              		@ sp needed
 145 0012 10BD     		pop	{r4, pc}
 146              	.LVL10:
 147              	.L15:
 148              		.cfi_restore_state
 149              		.loc 1 61 0
 150 0014 0320     		movs	r0, #3
 151              	.LVL11:
 152 0016 FFF7FEFF 		bl	lbm_memory_allocate
 153              	.LVL12:
 154              		.loc 1 63 0
 155 001a 0346     		mov	r3, r0
 156 001c 0028     		cmp	r0, #0
 157 001e F6D0     		beq	.L17
 158              		.loc 1 67 0
 159 0020 044A     		ldr	r2, .L22
 160              		.loc 1 65 0
 161 0022 0199     		ldr	r1, [sp, #4]
 162              		.loc 1 67 0
 163 0024 1068     		ldr	r0, [r2]
 164              	.LVL13:
 165              		.loc 1 65 0
 166 0026 1960     		str	r1, [r3]
 167              		.loc 1 67 0
 168 0028 C3E90140 		strd	r4, r0, [r3, #4]
 169              		.loc 1 69 0
 170 002c 0120     		movs	r0, #1
 171              		.loc 1 68 0
ARM GAS  /tmp/ccvjNMGb.s 			page 4


 172 002e 1360     		str	r3, [r2]
 173              		.loc 1 70 0
 174 0030 02B0     		add	sp, sp, #8
 175              		.cfi_def_cfa_offset 8
 176              		@ sp needed
 177 0032 10BD     		pop	{r4, pc}
 178              	.LVL14:
 179              	.L23:
 180              		.align	2
 181              	.L22:
 182 0034 00000000 		.word	.LANCHOR0
 183              		.cfi_endproc
 184              	.LFE39:
 185              		.size	lbm_add_extension, .-lbm_add_extension
 186              		.global	extensions
 187              		.section	.bss.extensions,"aw",%nobits
 188              		.align	2
 189              		.set	.LANCHOR0,. + 0
 190              		.type	extensions, %object
 191              		.size	extensions, 4
 192              	extensions:
 193 0000 00000000 		.space	4
 194              		.text
 195              	.Letext0:
 196              		.file 2 "/usr/arm-none-eabi/include/machine/_default_types.h"
 197              		.file 3 "/usr/arm-none-eabi/include/sys/_stdint.h"
 198              		.file 4 "/usr/arm-none-eabi/include/sys/lock.h"
 199              		.file 5 "/usr/arm-none-eabi/include/sys/_types.h"
 200              		.file 6 "/usr/lib/gcc/arm-none-eabi/7.3.1/include/stddef.h"
 201              		.file 7 "/usr/arm-none-eabi/include/sys/reent.h"
 202              		.file 8 "/usr/arm-none-eabi/include/stdlib.h"
 203              		.file 9 "lispBM/lispBM/include/lbm_types.h"
 204              		.file 10 "lispBM/lispBM/include/extensions.h"
 205              		.file 11 "lispBM/lispBM/include/symrepr.h"
 206              		.file 12 "lispBM/lispBM/include/lbm_memory.h"
 207              		.section	.debug_info,"",%progbits
 208              	.Ldebug_info0:
 209 0000 FC090000 		.4byte	0x9fc
 210 0004 0400     		.2byte	0x4
 211 0006 00000000 		.4byte	.Ldebug_abbrev0
 212 000a 04       		.byte	0x4
 213 000b 01       		.uleb128 0x1
 214 000c 2B000000 		.4byte	.LASF135
 215 0010 0C       		.byte	0xc
 216 0011 63030000 		.4byte	.LASF136
 217 0015 0C000000 		.4byte	.LASF137
 218 0019 00000000 		.4byte	.Ldebug_ranges0+0
 219 001d 00000000 		.4byte	0
 220 0021 00000000 		.4byte	.Ldebug_line0
 221 0025 02       		.uleb128 0x2
 222 0026 01       		.byte	0x1
 223 0027 06       		.byte	0x6
 224 0028 C8010000 		.4byte	.LASF0
 225 002c 02       		.uleb128 0x2
 226 002d 01       		.byte	0x1
 227 002e 08       		.byte	0x8
 228 002f 44040000 		.4byte	.LASF1
ARM GAS  /tmp/ccvjNMGb.s 			page 5


 229 0033 02       		.uleb128 0x2
 230 0034 02       		.byte	0x2
 231 0035 05       		.byte	0x5
 232 0036 60040000 		.4byte	.LASF2
 233 003a 02       		.uleb128 0x2
 234 003b 02       		.byte	0x2
 235 003c 07       		.byte	0x7
 236 003d 2E030000 		.4byte	.LASF3
 237 0041 02       		.uleb128 0x2
 238 0042 04       		.byte	0x4
 239 0043 05       		.byte	0x5
 240 0044 14020000 		.4byte	.LASF4
 241 0048 03       		.uleb128 0x3
 242 0049 7E020000 		.4byte	.LASF9
 243 004d 02       		.byte	0x2
 244 004e 4F       		.byte	0x4f
 245 004f 53000000 		.4byte	0x53
 246 0053 02       		.uleb128 0x2
 247 0054 04       		.byte	0x4
 248 0055 07       		.byte	0x7
 249 0056 F0020000 		.4byte	.LASF5
 250 005a 02       		.uleb128 0x2
 251 005b 08       		.byte	0x8
 252 005c 05       		.byte	0x5
 253 005d BA010000 		.4byte	.LASF6
 254 0061 02       		.uleb128 0x2
 255 0062 08       		.byte	0x8
 256 0063 07       		.byte	0x7
 257 0064 6F010000 		.4byte	.LASF7
 258 0068 04       		.uleb128 0x4
 259 0069 04       		.byte	0x4
 260 006a 05       		.byte	0x5
 261 006b 696E7400 		.ascii	"int\000"
 262 006f 02       		.uleb128 0x2
 263 0070 04       		.byte	0x4
 264 0071 07       		.byte	0x7
 265 0072 CC020000 		.4byte	.LASF8
 266 0076 03       		.uleb128 0x3
 267 0077 32050000 		.4byte	.LASF10
 268 007b 03       		.byte	0x3
 269 007c 30       		.byte	0x30
 270 007d 48000000 		.4byte	0x48
 271 0081 05       		.uleb128 0x5
 272 0082 04       		.byte	0x4
 273 0083 03       		.uleb128 0x3
 274 0084 88030000 		.4byte	.LASF11
 275 0088 04       		.byte	0x4
 276 0089 22       		.byte	0x22
 277 008a 8E000000 		.4byte	0x8e
 278 008e 06       		.uleb128 0x6
 279 008f 04       		.byte	0x4
 280 0090 94000000 		.4byte	0x94
 281 0094 07       		.uleb128 0x7
 282 0095 2B050000 		.4byte	.LASF118
 283 0099 03       		.uleb128 0x3
 284 009a F5030000 		.4byte	.LASF12
 285 009e 05       		.byte	0x5
ARM GAS  /tmp/ccvjNMGb.s 			page 6


 286 009f 2C       		.byte	0x2c
 287 00a0 41000000 		.4byte	0x41
 288 00a4 03       		.uleb128 0x3
 289 00a5 4D050000 		.4byte	.LASF13
 290 00a9 05       		.byte	0x5
 291 00aa 72       		.byte	0x72
 292 00ab 41000000 		.4byte	0x41
 293 00af 08       		.uleb128 0x8
 294 00b0 90030000 		.4byte	.LASF14
 295 00b4 06       		.byte	0x6
 296 00b5 6501     		.2byte	0x165
 297 00b7 6F000000 		.4byte	0x6f
 298 00bb 09       		.uleb128 0x9
 299 00bc 04       		.byte	0x4
 300 00bd 05       		.byte	0x5
 301 00be A6       		.byte	0xa6
 302 00bf DA000000 		.4byte	0xda
 303 00c3 0A       		.uleb128 0xa
 304 00c4 82030000 		.4byte	.LASF15
 305 00c8 05       		.byte	0x5
 306 00c9 A8       		.byte	0xa8
 307 00ca AF000000 		.4byte	0xaf
 308 00ce 0A       		.uleb128 0xa
 309 00cf D9020000 		.4byte	.LASF16
 310 00d3 05       		.byte	0x5
 311 00d4 A9       		.byte	0xa9
 312 00d5 DA000000 		.4byte	0xda
 313 00d9 00       		.byte	0
 314 00da 0B       		.uleb128 0xb
 315 00db 2C000000 		.4byte	0x2c
 316 00df EA000000 		.4byte	0xea
 317 00e3 0C       		.uleb128 0xc
 318 00e4 6F000000 		.4byte	0x6f
 319 00e8 03       		.byte	0x3
 320 00e9 00       		.byte	0
 321 00ea 0D       		.uleb128 0xd
 322 00eb 08       		.byte	0x8
 323 00ec 05       		.byte	0x5
 324 00ed A3       		.byte	0xa3
 325 00ee 0B010000 		.4byte	0x10b
 326 00f2 0E       		.uleb128 0xe
 327 00f3 23050000 		.4byte	.LASF17
 328 00f7 05       		.byte	0x5
 329 00f8 A5       		.byte	0xa5
 330 00f9 68000000 		.4byte	0x68
 331 00fd 00       		.byte	0
 332 00fe 0E       		.uleb128 0xe
 333 00ff 83050000 		.4byte	.LASF18
 334 0103 05       		.byte	0x5
 335 0104 AA       		.byte	0xaa
 336 0105 BB000000 		.4byte	0xbb
 337 0109 04       		.byte	0x4
 338 010a 00       		.byte	0
 339 010b 03       		.uleb128 0x3
 340 010c 88040000 		.4byte	.LASF19
 341 0110 05       		.byte	0x5
 342 0111 AB       		.byte	0xab
ARM GAS  /tmp/ccvjNMGb.s 			page 7


 343 0112 EA000000 		.4byte	0xea
 344 0116 03       		.uleb128 0x3
 345 0117 8F020000 		.4byte	.LASF20
 346 011b 05       		.byte	0x5
 347 011c AF       		.byte	0xaf
 348 011d 83000000 		.4byte	0x83
 349 0121 03       		.uleb128 0x3
 350 0122 99050000 		.4byte	.LASF21
 351 0126 07       		.byte	0x7
 352 0127 16       		.byte	0x16
 353 0128 53000000 		.4byte	0x53
 354 012c 0F       		.uleb128 0xf
 355 012d A0020000 		.4byte	.LASF26
 356 0131 18       		.byte	0x18
 357 0132 07       		.byte	0x7
 358 0133 2F       		.byte	0x2f
 359 0134 7F010000 		.4byte	0x17f
 360 0138 0E       		.uleb128 0xe
 361 0139 70050000 		.4byte	.LASF22
 362 013d 07       		.byte	0x7
 363 013e 31       		.byte	0x31
 364 013f 7F010000 		.4byte	0x17f
 365 0143 00       		.byte	0
 366 0144 10       		.uleb128 0x10
 367 0145 5F6B00   		.ascii	"_k\000"
 368 0148 07       		.byte	0x7
 369 0149 32       		.byte	0x32
 370 014a 68000000 		.4byte	0x68
 371 014e 04       		.byte	0x4
 372 014f 0E       		.uleb128 0xe
 373 0150 0E050000 		.4byte	.LASF23
 374 0154 07       		.byte	0x7
 375 0155 32       		.byte	0x32
 376 0156 68000000 		.4byte	0x68
 377 015a 08       		.byte	0x8
 378 015b 0E       		.uleb128 0xe
 379 015c 89020000 		.4byte	.LASF24
 380 0160 07       		.byte	0x7
 381 0161 32       		.byte	0x32
 382 0162 68000000 		.4byte	0x68
 383 0166 0C       		.byte	0xc
 384 0167 0E       		.uleb128 0xe
 385 0168 E0050000 		.4byte	.LASF25
 386 016c 07       		.byte	0x7
 387 016d 32       		.byte	0x32
 388 016e 68000000 		.4byte	0x68
 389 0172 10       		.byte	0x10
 390 0173 10       		.uleb128 0x10
 391 0174 5F7800   		.ascii	"_x\000"
 392 0177 07       		.byte	0x7
 393 0178 33       		.byte	0x33
 394 0179 85010000 		.4byte	0x185
 395 017d 14       		.byte	0x14
 396 017e 00       		.byte	0
 397 017f 06       		.uleb128 0x6
 398 0180 04       		.byte	0x4
 399 0181 2C010000 		.4byte	0x12c
ARM GAS  /tmp/ccvjNMGb.s 			page 8


 400 0185 0B       		.uleb128 0xb
 401 0186 21010000 		.4byte	0x121
 402 018a 95010000 		.4byte	0x195
 403 018e 0C       		.uleb128 0xc
 404 018f 6F000000 		.4byte	0x6f
 405 0193 00       		.byte	0
 406 0194 00       		.byte	0
 407 0195 0F       		.uleb128 0xf
 408 0196 C7020000 		.4byte	.LASF27
 409 019a 24       		.byte	0x24
 410 019b 07       		.byte	0x7
 411 019c 37       		.byte	0x37
 412 019d 0E020000 		.4byte	0x20e
 413 01a1 0E       		.uleb128 0xe
 414 01a2 B1010000 		.4byte	.LASF28
 415 01a6 07       		.byte	0x7
 416 01a7 39       		.byte	0x39
 417 01a8 68000000 		.4byte	0x68
 418 01ac 00       		.byte	0
 419 01ad 0E       		.uleb128 0xe
 420 01ae 61050000 		.4byte	.LASF29
 421 01b2 07       		.byte	0x7
 422 01b3 3A       		.byte	0x3a
 423 01b4 68000000 		.4byte	0x68
 424 01b8 04       		.byte	0x4
 425 01b9 0E       		.uleb128 0xe
 426 01ba E7010000 		.4byte	.LASF30
 427 01be 07       		.byte	0x7
 428 01bf 3B       		.byte	0x3b
 429 01c0 68000000 		.4byte	0x68
 430 01c4 08       		.byte	0x8
 431 01c5 0E       		.uleb128 0xe
 432 01c6 6B060000 		.4byte	.LASF31
 433 01ca 07       		.byte	0x7
 434 01cb 3C       		.byte	0x3c
 435 01cc 68000000 		.4byte	0x68
 436 01d0 0C       		.byte	0xc
 437 01d1 0E       		.uleb128 0xe
 438 01d2 CF030000 		.4byte	.LASF32
 439 01d6 07       		.byte	0x7
 440 01d7 3D       		.byte	0x3d
 441 01d8 68000000 		.4byte	0x68
 442 01dc 10       		.byte	0x10
 443 01dd 0E       		.uleb128 0xe
 444 01de BE030000 		.4byte	.LASF33
 445 01e2 07       		.byte	0x7
 446 01e3 3E       		.byte	0x3e
 447 01e4 68000000 		.4byte	0x68
 448 01e8 14       		.byte	0x14
 449 01e9 0E       		.uleb128 0xe
 450 01ea E5050000 		.4byte	.LASF34
 451 01ee 07       		.byte	0x7
 452 01ef 3F       		.byte	0x3f
 453 01f0 68000000 		.4byte	0x68
 454 01f4 18       		.byte	0x18
 455 01f5 0E       		.uleb128 0xe
 456 01f6 6A040000 		.4byte	.LASF35
ARM GAS  /tmp/ccvjNMGb.s 			page 9


 457 01fa 07       		.byte	0x7
 458 01fb 40       		.byte	0x40
 459 01fc 68000000 		.4byte	0x68
 460 0200 1C       		.byte	0x1c
 461 0201 0E       		.uleb128 0xe
 462 0202 32060000 		.4byte	.LASF36
 463 0206 07       		.byte	0x7
 464 0207 41       		.byte	0x41
 465 0208 68000000 		.4byte	0x68
 466 020c 20       		.byte	0x20
 467 020d 00       		.byte	0
 468 020e 11       		.uleb128 0x11
 469 020f F6010000 		.4byte	.LASF37
 470 0213 0801     		.2byte	0x108
 471 0215 07       		.byte	0x7
 472 0216 4A       		.byte	0x4a
 473 0217 4E020000 		.4byte	0x24e
 474 021b 0E       		.uleb128 0xe
 475 021c 6B020000 		.4byte	.LASF38
 476 0220 07       		.byte	0x7
 477 0221 4B       		.byte	0x4b
 478 0222 4E020000 		.4byte	0x24e
 479 0226 00       		.byte	0
 480 0227 0E       		.uleb128 0xe
 481 0228 00000000 		.4byte	.LASF39
 482 022c 07       		.byte	0x7
 483 022d 4C       		.byte	0x4c
 484 022e 4E020000 		.4byte	0x24e
 485 0232 80       		.byte	0x80
 486 0233 12       		.uleb128 0x12
 487 0234 8B050000 		.4byte	.LASF40
 488 0238 07       		.byte	0x7
 489 0239 4E       		.byte	0x4e
 490 023a 21010000 		.4byte	0x121
 491 023e 0001     		.2byte	0x100
 492 0240 12       		.uleb128 0x12
 493 0241 24020000 		.4byte	.LASF41
 494 0245 07       		.byte	0x7
 495 0246 51       		.byte	0x51
 496 0247 21010000 		.4byte	0x121
 497 024b 0401     		.2byte	0x104
 498 024d 00       		.byte	0
 499 024e 0B       		.uleb128 0xb
 500 024f 81000000 		.4byte	0x81
 501 0253 5E020000 		.4byte	0x25e
 502 0257 0C       		.uleb128 0xc
 503 0258 6F000000 		.4byte	0x6f
 504 025c 1F       		.byte	0x1f
 505 025d 00       		.byte	0
 506 025e 11       		.uleb128 0x11
 507 025f D8030000 		.4byte	.LASF42
 508 0263 9001     		.2byte	0x190
 509 0265 07       		.byte	0x7
 510 0266 5D       		.byte	0x5d
 511 0267 9C020000 		.4byte	0x29c
 512 026b 0E       		.uleb128 0xe
 513 026c 70050000 		.4byte	.LASF22
ARM GAS  /tmp/ccvjNMGb.s 			page 10


 514 0270 07       		.byte	0x7
 515 0271 5E       		.byte	0x5e
 516 0272 9C020000 		.4byte	0x29c
 517 0276 00       		.byte	0
 518 0277 0E       		.uleb128 0xe
 519 0278 DE040000 		.4byte	.LASF43
 520 027c 07       		.byte	0x7
 521 027d 5F       		.byte	0x5f
 522 027e 68000000 		.4byte	0x68
 523 0282 04       		.byte	0x4
 524 0283 0E       		.uleb128 0xe
 525 0284 79020000 		.4byte	.LASF44
 526 0288 07       		.byte	0x7
 527 0289 61       		.byte	0x61
 528 028a A2020000 		.4byte	0x2a2
 529 028e 08       		.byte	0x8
 530 028f 0E       		.uleb128 0xe
 531 0290 F6010000 		.4byte	.LASF37
 532 0294 07       		.byte	0x7
 533 0295 62       		.byte	0x62
 534 0296 0E020000 		.4byte	0x20e
 535 029a 88       		.byte	0x88
 536 029b 00       		.byte	0
 537 029c 06       		.uleb128 0x6
 538 029d 04       		.byte	0x4
 539 029e 5E020000 		.4byte	0x25e
 540 02a2 0B       		.uleb128 0xb
 541 02a3 B2020000 		.4byte	0x2b2
 542 02a7 B2020000 		.4byte	0x2b2
 543 02ab 0C       		.uleb128 0xc
 544 02ac 6F000000 		.4byte	0x6f
 545 02b0 1F       		.byte	0x1f
 546 02b1 00       		.byte	0
 547 02b2 06       		.uleb128 0x6
 548 02b3 04       		.byte	0x4
 549 02b4 B8020000 		.4byte	0x2b8
 550 02b8 13       		.uleb128 0x13
 551 02b9 0F       		.uleb128 0xf
 552 02ba 74040000 		.4byte	.LASF45
 553 02be 08       		.byte	0x8
 554 02bf 07       		.byte	0x7
 555 02c0 75       		.byte	0x75
 556 02c1 DE020000 		.4byte	0x2de
 557 02c5 0E       		.uleb128 0xe
 558 02c6 E1010000 		.4byte	.LASF46
 559 02ca 07       		.byte	0x7
 560 02cb 76       		.byte	0x76
 561 02cc DE020000 		.4byte	0x2de
 562 02d0 00       		.byte	0
 563 02d1 0E       		.uleb128 0xe
 564 02d2 73020000 		.4byte	.LASF47
 565 02d6 07       		.byte	0x7
 566 02d7 77       		.byte	0x77
 567 02d8 68000000 		.4byte	0x68
 568 02dc 04       		.byte	0x4
 569 02dd 00       		.byte	0
 570 02de 06       		.uleb128 0x6
ARM GAS  /tmp/ccvjNMGb.s 			page 11


 571 02df 04       		.byte	0x4
 572 02e0 2C000000 		.4byte	0x2c
 573 02e4 0F       		.uleb128 0xf
 574 02e5 93040000 		.4byte	.LASF48
 575 02e9 68       		.byte	0x68
 576 02ea 07       		.byte	0x7
 577 02eb B5       		.byte	0xb5
 578 02ec 0E040000 		.4byte	0x40e
 579 02f0 10       		.uleb128 0x10
 580 02f1 5F7000   		.ascii	"_p\000"
 581 02f4 07       		.byte	0x7
 582 02f5 B6       		.byte	0xb6
 583 02f6 DE020000 		.4byte	0x2de
 584 02fa 00       		.byte	0
 585 02fb 10       		.uleb128 0x10
 586 02fc 5F7200   		.ascii	"_r\000"
 587 02ff 07       		.byte	0x7
 588 0300 B7       		.byte	0xb7
 589 0301 68000000 		.4byte	0x68
 590 0305 04       		.byte	0x4
 591 0306 10       		.uleb128 0x10
 592 0307 5F7700   		.ascii	"_w\000"
 593 030a 07       		.byte	0x7
 594 030b B8       		.byte	0xb8
 595 030c 68000000 		.4byte	0x68
 596 0310 08       		.byte	0x8
 597 0311 0E       		.uleb128 0xe
 598 0312 1D020000 		.4byte	.LASF49
 599 0316 07       		.byte	0x7
 600 0317 B9       		.byte	0xb9
 601 0318 33000000 		.4byte	0x33
 602 031c 0C       		.byte	0xc
 603 031d 0E       		.uleb128 0xe
 604 031e 0D030000 		.4byte	.LASF50
 605 0322 07       		.byte	0x7
 606 0323 BA       		.byte	0xba
 607 0324 33000000 		.4byte	0x33
 608 0328 0E       		.byte	0xe
 609 0329 10       		.uleb128 0x10
 610 032a 5F626600 		.ascii	"_bf\000"
 611 032e 07       		.byte	0x7
 612 032f BB       		.byte	0xbb
 613 0330 B9020000 		.4byte	0x2b9
 614 0334 10       		.byte	0x10
 615 0335 0E       		.uleb128 0xe
 616 0336 86010000 		.4byte	.LASF51
 617 033a 07       		.byte	0x7
 618 033b BC       		.byte	0xbc
 619 033c 68000000 		.4byte	0x68
 620 0340 18       		.byte	0x18
 621 0341 0E       		.uleb128 0xe
 622 0342 04020000 		.4byte	.LASF52
 623 0346 07       		.byte	0x7
 624 0347 C3       		.byte	0xc3
 625 0348 81000000 		.4byte	0x81
 626 034c 1C       		.byte	0x1c
 627 034d 0E       		.uleb128 0xe
ARM GAS  /tmp/ccvjNMGb.s 			page 12


 628 034e B7020000 		.4byte	.LASF53
 629 0352 07       		.byte	0x7
 630 0353 C5       		.byte	0xc5
 631 0354 7B050000 		.4byte	0x57b
 632 0358 20       		.byte	0x20
 633 0359 0E       		.uleb128 0xe
 634 035a B7030000 		.4byte	.LASF54
 635 035e 07       		.byte	0x7
 636 035f C7       		.byte	0xc7
 637 0360 A5050000 		.4byte	0x5a5
 638 0364 24       		.byte	0x24
 639 0365 0E       		.uleb128 0xe
 640 0366 3B050000 		.4byte	.LASF55
 641 036a 07       		.byte	0x7
 642 036b CA       		.byte	0xca
 643 036c C9050000 		.4byte	0x5c9
 644 0370 28       		.byte	0x28
 645 0371 0E       		.uleb128 0xe
 646 0372 4C060000 		.4byte	.LASF56
 647 0376 07       		.byte	0x7
 648 0377 CB       		.byte	0xcb
 649 0378 E3050000 		.4byte	0x5e3
 650 037c 2C       		.byte	0x2c
 651 037d 10       		.uleb128 0x10
 652 037e 5F756200 		.ascii	"_ub\000"
 653 0382 07       		.byte	0x7
 654 0383 CE       		.byte	0xce
 655 0384 B9020000 		.4byte	0x2b9
 656 0388 30       		.byte	0x30
 657 0389 10       		.uleb128 0x10
 658 038a 5F757000 		.ascii	"_up\000"
 659 038e 07       		.byte	0x7
 660 038f CF       		.byte	0xcf
 661 0390 DE020000 		.4byte	0x2de
 662 0394 38       		.byte	0x38
 663 0395 10       		.uleb128 0x10
 664 0396 5F757200 		.ascii	"_ur\000"
 665 039a 07       		.byte	0x7
 666 039b D0       		.byte	0xd0
 667 039c 68000000 		.4byte	0x68
 668 03a0 3C       		.byte	0x3c
 669 03a1 0E       		.uleb128 0xe
 670 03a2 DB010000 		.4byte	.LASF57
 671 03a6 07       		.byte	0x7
 672 03a7 D3       		.byte	0xd3
 673 03a8 E9050000 		.4byte	0x5e9
 674 03ac 40       		.byte	0x40
 675 03ad 0E       		.uleb128 0xe
 676 03ae 24060000 		.4byte	.LASF58
 677 03b2 07       		.byte	0x7
 678 03b3 D4       		.byte	0xd4
 679 03b4 F9050000 		.4byte	0x5f9
 680 03b8 43       		.byte	0x43
 681 03b9 10       		.uleb128 0x10
 682 03ba 5F6C6200 		.ascii	"_lb\000"
 683 03be 07       		.byte	0x7
 684 03bf D7       		.byte	0xd7
ARM GAS  /tmp/ccvjNMGb.s 			page 13


 685 03c0 B9020000 		.4byte	0x2b9
 686 03c4 44       		.byte	0x44
 687 03c5 0E       		.uleb128 0xe
 688 03c6 33020000 		.4byte	.LASF59
 689 03ca 07       		.byte	0x7
 690 03cb DA       		.byte	0xda
 691 03cc 68000000 		.4byte	0x68
 692 03d0 4C       		.byte	0x4c
 693 03d1 0E       		.uleb128 0xe
 694 03d2 44020000 		.4byte	.LASF60
 695 03d6 07       		.byte	0x7
 696 03d7 DB       		.byte	0xdb
 697 03d8 99000000 		.4byte	0x99
 698 03dc 50       		.byte	0x50
 699 03dd 0E       		.uleb128 0xe
 700 03de 25000000 		.4byte	.LASF61
 701 03e2 07       		.byte	0x7
 702 03e3 DE       		.byte	0xde
 703 03e4 2C040000 		.4byte	0x42c
 704 03e8 54       		.byte	0x54
 705 03e9 0E       		.uleb128 0xe
 706 03ea A1030000 		.4byte	.LASF62
 707 03ee 07       		.byte	0x7
 708 03ef E2       		.byte	0xe2
 709 03f0 16010000 		.4byte	0x116
 710 03f4 58       		.byte	0x58
 711 03f5 0E       		.uleb128 0xe
 712 03f6 9B040000 		.4byte	.LASF63
 713 03fa 07       		.byte	0x7
 714 03fb E4       		.byte	0xe4
 715 03fc 0B010000 		.4byte	0x10b
 716 0400 5C       		.byte	0x5c
 717 0401 0E       		.uleb128 0xe
 718 0402 A7030000 		.4byte	.LASF64
 719 0406 07       		.byte	0x7
 720 0407 E5       		.byte	0xe5
 721 0408 68000000 		.4byte	0x68
 722 040c 64       		.byte	0x64
 723 040d 00       		.byte	0
 724 040e 14       		.uleb128 0x14
 725 040f 68000000 		.4byte	0x68
 726 0413 2C040000 		.4byte	0x42c
 727 0417 15       		.uleb128 0x15
 728 0418 2C040000 		.4byte	0x42c
 729 041c 15       		.uleb128 0x15
 730 041d 81000000 		.4byte	0x81
 731 0421 15       		.uleb128 0x15
 732 0422 69050000 		.4byte	0x569
 733 0426 15       		.uleb128 0x15
 734 0427 68000000 		.4byte	0x68
 735 042b 00       		.byte	0
 736 042c 06       		.uleb128 0x6
 737 042d 04       		.byte	0x4
 738 042e 37040000 		.4byte	0x437
 739 0432 16       		.uleb128 0x16
 740 0433 2C040000 		.4byte	0x42c
 741 0437 17       		.uleb128 0x17
ARM GAS  /tmp/ccvjNMGb.s 			page 14


 742 0438 16050000 		.4byte	.LASF65
 743 043c 2804     		.2byte	0x428
 744 043e 07       		.byte	0x7
 745 043f 6002     		.2byte	0x260
 746 0441 69050000 		.4byte	0x569
 747 0445 18       		.uleb128 0x18
 748 0446 55050000 		.4byte	.LASF66
 749 044a 07       		.byte	0x7
 750 044b 6202     		.2byte	0x262
 751 044d 68000000 		.4byte	0x68
 752 0451 00       		.byte	0
 753 0452 18       		.uleb128 0x18
 754 0453 2C020000 		.4byte	.LASF67
 755 0457 07       		.byte	0x7
 756 0458 6702     		.2byte	0x267
 757 045a 50060000 		.4byte	0x650
 758 045e 04       		.byte	0x4
 759 045f 18       		.uleb128 0x18
 760 0460 E0020000 		.4byte	.LASF68
 761 0464 07       		.byte	0x7
 762 0465 6702     		.2byte	0x267
 763 0467 50060000 		.4byte	0x650
 764 046b 08       		.byte	0x8
 765 046c 18       		.uleb128 0x18
 766 046d 98020000 		.4byte	.LASF69
 767 0471 07       		.byte	0x7
 768 0472 6702     		.2byte	0x267
 769 0474 50060000 		.4byte	0x650
 770 0478 0C       		.byte	0xc
 771 0479 18       		.uleb128 0x18
 772 047a D9040000 		.4byte	.LASF70
 773 047e 07       		.byte	0x7
 774 047f 6902     		.2byte	0x269
 775 0481 68000000 		.4byte	0x68
 776 0485 10       		.byte	0x10
 777 0486 18       		.uleb128 0x18
 778 0487 1A000000 		.4byte	.LASF71
 779 048b 07       		.byte	0x7
 780 048c 6A02     		.2byte	0x26a
 781 048e 32080000 		.4byte	0x832
 782 0492 14       		.byte	0x14
 783 0493 18       		.uleb128 0x18
 784 0494 F5040000 		.4byte	.LASF72
 785 0498 07       		.byte	0x7
 786 0499 6D02     		.2byte	0x26d
 787 049b 68000000 		.4byte	0x68
 788 049f 30       		.byte	0x30
 789 04a0 18       		.uleb128 0x18
 790 04a1 E3040000 		.4byte	.LASF73
 791 04a5 07       		.byte	0x7
 792 04a6 6E02     		.2byte	0x26e
 793 04a8 47080000 		.4byte	0x847
 794 04ac 34       		.byte	0x34
 795 04ad 18       		.uleb128 0x18
 796 04ae EA030000 		.4byte	.LASF74
 797 04b2 07       		.byte	0x7
 798 04b3 7002     		.2byte	0x270
ARM GAS  /tmp/ccvjNMGb.s 			page 15


 799 04b5 68000000 		.4byte	0x68
 800 04b9 38       		.byte	0x38
 801 04ba 18       		.uleb128 0x18
 802 04bb EB040000 		.4byte	.LASF75
 803 04bf 07       		.byte	0x7
 804 04c0 7202     		.2byte	0x272
 805 04c2 58080000 		.4byte	0x858
 806 04c6 3C       		.byte	0x3c
 807 04c7 18       		.uleb128 0x18
 808 04c8 AF030000 		.4byte	.LASF76
 809 04cc 07       		.byte	0x7
 810 04cd 7502     		.2byte	0x275
 811 04cf 7F010000 		.4byte	0x17f
 812 04d3 40       		.byte	0x40
 813 04d4 18       		.uleb128 0x18
 814 04d5 BD020000 		.4byte	.LASF77
 815 04d9 07       		.byte	0x7
 816 04da 7602     		.2byte	0x276
 817 04dc 68000000 		.4byte	0x68
 818 04e0 44       		.byte	0x44
 819 04e1 18       		.uleb128 0x18
 820 04e2 66060000 		.4byte	.LASF78
 821 04e6 07       		.byte	0x7
 822 04e7 7702     		.2byte	0x277
 823 04e9 7F010000 		.4byte	0x17f
 824 04ed 48       		.byte	0x48
 825 04ee 18       		.uleb128 0x18
 826 04ef 17040000 		.4byte	.LASF79
 827 04f3 07       		.byte	0x7
 828 04f4 7802     		.2byte	0x278
 829 04f6 5E080000 		.4byte	0x85e
 830 04fa 4C       		.byte	0x4c
 831 04fb 18       		.uleb128 0x18
 832 04fc E8020000 		.4byte	.LASF80
 833 0500 07       		.byte	0x7
 834 0501 7B02     		.2byte	0x27b
 835 0503 68000000 		.4byte	0x68
 836 0507 50       		.byte	0x50
 837 0508 18       		.uleb128 0x18
 838 0509 3C020000 		.4byte	.LASF81
 839 050d 07       		.byte	0x7
 840 050e 7C02     		.2byte	0x27c
 841 0510 69050000 		.4byte	0x569
 842 0514 54       		.byte	0x54
 843 0515 18       		.uleb128 0x18
 844 0516 52040000 		.4byte	.LASF82
 845 051a 07       		.byte	0x7
 846 051b 9F02     		.2byte	0x29f
 847 051d 10080000 		.4byte	0x810
 848 0521 58       		.byte	0x58
 849 0522 19       		.uleb128 0x19
 850 0523 D8030000 		.4byte	.LASF42
 851 0527 07       		.byte	0x7
 852 0528 A302     		.2byte	0x2a3
 853 052a 9C020000 		.4byte	0x29c
 854 052e 4801     		.2byte	0x148
 855 0530 19       		.uleb128 0x19
ARM GAS  /tmp/ccvjNMGb.s 			page 16


 856 0531 41030000 		.4byte	.LASF83
 857 0535 07       		.byte	0x7
 858 0536 A402     		.2byte	0x2a4
 859 0538 5E020000 		.4byte	0x25e
 860 053c 4C01     		.2byte	0x14c
 861 053e 19       		.uleb128 0x19
 862 053f 1A060000 		.4byte	.LASF84
 863 0543 07       		.byte	0x7
 864 0544 A802     		.2byte	0x2a8
 865 0546 6F080000 		.4byte	0x86f
 866 054a DC02     		.2byte	0x2dc
 867 054c 19       		.uleb128 0x19
 868 054d 0C020000 		.4byte	.LASF85
 869 0551 07       		.byte	0x7
 870 0552 AD02     		.2byte	0x2ad
 871 0554 15060000 		.4byte	0x615
 872 0558 E002     		.2byte	0x2e0
 873 055a 19       		.uleb128 0x19
 874 055b F1010000 		.4byte	.LASF86
 875 055f 07       		.byte	0x7
 876 0560 AF02     		.2byte	0x2af
 877 0562 7B080000 		.4byte	0x87b
 878 0566 EC02     		.2byte	0x2ec
 879 0568 00       		.byte	0
 880 0569 06       		.uleb128 0x6
 881 056a 04       		.byte	0x4
 882 056b 6F050000 		.4byte	0x56f
 883 056f 02       		.uleb128 0x2
 884 0570 01       		.byte	0x1
 885 0571 08       		.byte	0x8
 886 0572 5C050000 		.4byte	.LASF87
 887 0576 16       		.uleb128 0x16
 888 0577 6F050000 		.4byte	0x56f
 889 057b 06       		.uleb128 0x6
 890 057c 04       		.byte	0x4
 891 057d 0E040000 		.4byte	0x40e
 892 0581 14       		.uleb128 0x14
 893 0582 68000000 		.4byte	0x68
 894 0586 9F050000 		.4byte	0x59f
 895 058a 15       		.uleb128 0x15
 896 058b 2C040000 		.4byte	0x42c
 897 058f 15       		.uleb128 0x15
 898 0590 81000000 		.4byte	0x81
 899 0594 15       		.uleb128 0x15
 900 0595 9F050000 		.4byte	0x59f
 901 0599 15       		.uleb128 0x15
 902 059a 68000000 		.4byte	0x68
 903 059e 00       		.byte	0
 904 059f 06       		.uleb128 0x6
 905 05a0 04       		.byte	0x4
 906 05a1 76050000 		.4byte	0x576
 907 05a5 06       		.uleb128 0x6
 908 05a6 04       		.byte	0x4
 909 05a7 81050000 		.4byte	0x581
 910 05ab 14       		.uleb128 0x14
 911 05ac A4000000 		.4byte	0xa4
 912 05b0 C9050000 		.4byte	0x5c9
ARM GAS  /tmp/ccvjNMGb.s 			page 17


 913 05b4 15       		.uleb128 0x15
 914 05b5 2C040000 		.4byte	0x42c
 915 05b9 15       		.uleb128 0x15
 916 05ba 81000000 		.4byte	0x81
 917 05be 15       		.uleb128 0x15
 918 05bf A4000000 		.4byte	0xa4
 919 05c3 15       		.uleb128 0x15
 920 05c4 68000000 		.4byte	0x68
 921 05c8 00       		.byte	0
 922 05c9 06       		.uleb128 0x6
 923 05ca 04       		.byte	0x4
 924 05cb AB050000 		.4byte	0x5ab
 925 05cf 14       		.uleb128 0x14
 926 05d0 68000000 		.4byte	0x68
 927 05d4 E3050000 		.4byte	0x5e3
 928 05d8 15       		.uleb128 0x15
 929 05d9 2C040000 		.4byte	0x42c
 930 05dd 15       		.uleb128 0x15
 931 05de 81000000 		.4byte	0x81
 932 05e2 00       		.byte	0
 933 05e3 06       		.uleb128 0x6
 934 05e4 04       		.byte	0x4
 935 05e5 CF050000 		.4byte	0x5cf
 936 05e9 0B       		.uleb128 0xb
 937 05ea 2C000000 		.4byte	0x2c
 938 05ee F9050000 		.4byte	0x5f9
 939 05f2 0C       		.uleb128 0xc
 940 05f3 6F000000 		.4byte	0x6f
 941 05f7 02       		.byte	0x2
 942 05f8 00       		.byte	0
 943 05f9 0B       		.uleb128 0xb
 944 05fa 2C000000 		.4byte	0x2c
 945 05fe 09060000 		.4byte	0x609
 946 0602 0C       		.uleb128 0xc
 947 0603 6F000000 		.4byte	0x6f
 948 0607 00       		.byte	0
 949 0608 00       		.byte	0
 950 0609 08       		.uleb128 0x8
 951 060a 81040000 		.4byte	.LASF88
 952 060e 07       		.byte	0x7
 953 060f 1F01     		.2byte	0x11f
 954 0611 E4020000 		.4byte	0x2e4
 955 0615 1A       		.uleb128 0x1a
 956 0616 EF050000 		.4byte	.LASF89
 957 061a 0C       		.byte	0xc
 958 061b 07       		.byte	0x7
 959 061c 2301     		.2byte	0x123
 960 061e 4A060000 		.4byte	0x64a
 961 0622 18       		.uleb128 0x18
 962 0623 70050000 		.4byte	.LASF22
 963 0627 07       		.byte	0x7
 964 0628 2501     		.2byte	0x125
 965 062a 4A060000 		.4byte	0x64a
 966 062e 00       		.byte	0
 967 062f 18       		.uleb128 0x18
 968 0630 27030000 		.4byte	.LASF90
 969 0634 07       		.byte	0x7
ARM GAS  /tmp/ccvjNMGb.s 			page 18


 970 0635 2601     		.2byte	0x126
 971 0637 68000000 		.4byte	0x68
 972 063b 04       		.byte	0x4
 973 063c 18       		.uleb128 0x18
 974 063d 7B040000 		.4byte	.LASF91
 975 0641 07       		.byte	0x7
 976 0642 2701     		.2byte	0x127
 977 0644 50060000 		.4byte	0x650
 978 0648 08       		.byte	0x8
 979 0649 00       		.byte	0
 980 064a 06       		.uleb128 0x6
 981 064b 04       		.byte	0x4
 982 064c 15060000 		.4byte	0x615
 983 0650 06       		.uleb128 0x6
 984 0651 04       		.byte	0x4
 985 0652 09060000 		.4byte	0x609
 986 0656 1A       		.uleb128 0x1a
 987 0657 12000000 		.4byte	.LASF92
 988 065b 0E       		.byte	0xe
 989 065c 07       		.byte	0x7
 990 065d 3F01     		.2byte	0x13f
 991 065f 8B060000 		.4byte	0x68b
 992 0663 18       		.uleb128 0x18
 993 0664 1D050000 		.4byte	.LASF93
 994 0668 07       		.byte	0x7
 995 0669 4001     		.2byte	0x140
 996 066b 8B060000 		.4byte	0x68b
 997 066f 00       		.byte	0
 998 0670 18       		.uleb128 0x18
 999 0671 6A050000 		.4byte	.LASF94
 1000 0675 07       		.byte	0x7
 1001 0676 4101     		.2byte	0x141
 1002 0678 8B060000 		.4byte	0x68b
 1003 067c 06       		.byte	0x6
 1004 067d 18       		.uleb128 0x18
 1005 067e 94050000 		.4byte	.LASF95
 1006 0682 07       		.byte	0x7
 1007 0683 4201     		.2byte	0x142
 1008 0685 3A000000 		.4byte	0x3a
 1009 0689 0C       		.byte	0xc
 1010 068a 00       		.byte	0
 1011 068b 0B       		.uleb128 0xb
 1012 068c 3A000000 		.4byte	0x3a
 1013 0690 9B060000 		.4byte	0x69b
 1014 0694 0C       		.uleb128 0xc
 1015 0695 6F000000 		.4byte	0x6f
 1016 0699 02       		.byte	0x2
 1017 069a 00       		.byte	0
 1018 069b 1B       		.uleb128 0x1b
 1019 069c D0       		.byte	0xd0
 1020 069d 07       		.byte	0x7
 1021 069e 8002     		.2byte	0x280
 1022 06a0 9C070000 		.4byte	0x79c
 1023 06a4 18       		.uleb128 0x18
 1024 06a5 D3050000 		.4byte	.LASF96
 1025 06a9 07       		.byte	0x7
 1026 06aa 8202     		.2byte	0x282
ARM GAS  /tmp/ccvjNMGb.s 			page 19


 1027 06ac 6F000000 		.4byte	0x6f
 1028 06b0 00       		.byte	0
 1029 06b1 18       		.uleb128 0x18
 1030 06b2 76050000 		.4byte	.LASF97
 1031 06b6 07       		.byte	0x7
 1032 06b7 8302     		.2byte	0x283
 1033 06b9 69050000 		.4byte	0x569
 1034 06bd 04       		.byte	0x4
 1035 06be 18       		.uleb128 0x18
 1036 06bf 56030000 		.4byte	.LASF98
 1037 06c3 07       		.byte	0x7
 1038 06c4 8402     		.2byte	0x284
 1039 06c6 9C070000 		.4byte	0x79c
 1040 06ca 08       		.byte	0x8
 1041 06cb 18       		.uleb128 0x18
 1042 06cc 3D060000 		.4byte	.LASF99
 1043 06d0 07       		.byte	0x7
 1044 06d1 8502     		.2byte	0x285
 1045 06d3 95010000 		.4byte	0x195
 1046 06d7 24       		.byte	0x24
 1047 06d8 18       		.uleb128 0x18
 1048 06d9 A8020000 		.4byte	.LASF100
 1049 06dd 07       		.byte	0x7
 1050 06de 8602     		.2byte	0x286
 1051 06e0 68000000 		.4byte	0x68
 1052 06e4 48       		.byte	0x48
 1053 06e5 18       		.uleb128 0x18
 1054 06e6 A4040000 		.4byte	.LASF101
 1055 06ea 07       		.byte	0x7
 1056 06eb 8702     		.2byte	0x287
 1057 06ed 61000000 		.4byte	0x61
 1058 06f1 50       		.byte	0x50
 1059 06f2 18       		.uleb128 0x18
 1060 06f3 53060000 		.4byte	.LASF102
 1061 06f7 07       		.byte	0x7
 1062 06f8 8802     		.2byte	0x288
 1063 06fa 56060000 		.4byte	0x656
 1064 06fe 58       		.byte	0x58
 1065 06ff 18       		.uleb128 0x18
 1066 0700 CC040000 		.4byte	.LASF103
 1067 0704 07       		.byte	0x7
 1068 0705 8902     		.2byte	0x289
 1069 0707 0B010000 		.4byte	0x10b
 1070 070b 68       		.byte	0x68
 1071 070c 18       		.uleb128 0x18
 1072 070d 58060000 		.4byte	.LASF104
 1073 0711 07       		.byte	0x7
 1074 0712 8A02     		.2byte	0x28a
 1075 0714 0B010000 		.4byte	0x10b
 1076 0718 70       		.byte	0x70
 1077 0719 18       		.uleb128 0x18
 1078 071a 21040000 		.4byte	.LASF105
 1079 071e 07       		.byte	0x7
 1080 071f 8B02     		.2byte	0x28b
 1081 0721 0B010000 		.4byte	0x10b
 1082 0725 78       		.byte	0x78
 1083 0726 18       		.uleb128 0x18
ARM GAS  /tmp/ccvjNMGb.s 			page 20


 1084 0727 10060000 		.4byte	.LASF106
 1085 072b 07       		.byte	0x7
 1086 072c 8C02     		.2byte	0x28c
 1087 072e AC070000 		.4byte	0x7ac
 1088 0732 80       		.byte	0x80
 1089 0733 18       		.uleb128 0x18
 1090 0734 4A030000 		.4byte	.LASF107
 1091 0738 07       		.byte	0x7
 1092 0739 8D02     		.2byte	0x28d
 1093 073b BC070000 		.4byte	0x7bc
 1094 073f 88       		.byte	0x88
 1095 0740 18       		.uleb128 0x18
 1096 0741 A1050000 		.4byte	.LASF108
 1097 0745 07       		.byte	0x7
 1098 0746 8E02     		.2byte	0x28e
 1099 0748 68000000 		.4byte	0x68
 1100 074c A0       		.byte	0xa0
 1101 074d 18       		.uleb128 0x18
 1102 074e 5D020000 		.4byte	.LASF109
 1103 0752 07       		.byte	0x7
 1104 0753 8F02     		.2byte	0x28f
 1105 0755 0B010000 		.4byte	0x10b
 1106 0759 A4       		.byte	0xa4
 1107 075a 18       		.uleb128 0x18
 1108 075b A2010000 		.4byte	.LASF110
 1109 075f 07       		.byte	0x7
 1110 0760 9002     		.2byte	0x290
 1111 0762 0B010000 		.4byte	0x10b
 1112 0766 AC       		.byte	0xac
 1113 0767 18       		.uleb128 0x18
 1114 0768 4C020000 		.4byte	.LASF111
 1115 076c 07       		.byte	0x7
 1116 076d 9102     		.2byte	0x291
 1117 076f 0B010000 		.4byte	0x10b
 1118 0773 B4       		.byte	0xb4
 1119 0774 18       		.uleb128 0x18
 1120 0775 4F010000 		.4byte	.LASF112
 1121 0779 07       		.byte	0x7
 1122 077a 9202     		.2byte	0x292
 1123 077c 0B010000 		.4byte	0x10b
 1124 0780 BC       		.byte	0xbc
 1125 0781 18       		.uleb128 0x18
 1126 0782 5E010000 		.4byte	.LASF113
 1127 0786 07       		.byte	0x7
 1128 0787 9302     		.2byte	0x293
 1129 0789 0B010000 		.4byte	0x10b
 1130 078d C4       		.byte	0xc4
 1131 078e 18       		.uleb128 0x18
 1132 078f 57040000 		.4byte	.LASF114
 1133 0793 07       		.byte	0x7
 1134 0794 9402     		.2byte	0x294
 1135 0796 68000000 		.4byte	0x68
 1136 079a CC       		.byte	0xcc
 1137 079b 00       		.byte	0
 1138 079c 0B       		.uleb128 0xb
 1139 079d 6F050000 		.4byte	0x56f
 1140 07a1 AC070000 		.4byte	0x7ac
ARM GAS  /tmp/ccvjNMGb.s 			page 21


 1141 07a5 0C       		.uleb128 0xc
 1142 07a6 6F000000 		.4byte	0x6f
 1143 07aa 19       		.byte	0x19
 1144 07ab 00       		.byte	0
 1145 07ac 0B       		.uleb128 0xb
 1146 07ad 6F050000 		.4byte	0x56f
 1147 07b1 BC070000 		.4byte	0x7bc
 1148 07b5 0C       		.uleb128 0xc
 1149 07b6 6F000000 		.4byte	0x6f
 1150 07ba 07       		.byte	0x7
 1151 07bb 00       		.byte	0
 1152 07bc 0B       		.uleb128 0xb
 1153 07bd 6F050000 		.4byte	0x56f
 1154 07c1 CC070000 		.4byte	0x7cc
 1155 07c5 0C       		.uleb128 0xc
 1156 07c6 6F000000 		.4byte	0x6f
 1157 07ca 17       		.byte	0x17
 1158 07cb 00       		.byte	0
 1159 07cc 1B       		.uleb128 0x1b
 1160 07cd F0       		.byte	0xf0
 1161 07ce 07       		.byte	0x7
 1162 07cf 9902     		.2byte	0x299
 1163 07d1 F0070000 		.4byte	0x7f0
 1164 07d5 18       		.uleb128 0x18
 1165 07d6 C8030000 		.4byte	.LASF115
 1166 07da 07       		.byte	0x7
 1167 07db 9C02     		.2byte	0x29c
 1168 07dd F0070000 		.4byte	0x7f0
 1169 07e1 00       		.byte	0
 1170 07e2 18       		.uleb128 0x18
 1171 07e3 07060000 		.4byte	.LASF116
 1172 07e7 07       		.byte	0x7
 1173 07e8 9D02     		.2byte	0x29d
 1174 07ea 00080000 		.4byte	0x800
 1175 07ee 78       		.byte	0x78
 1176 07ef 00       		.byte	0
 1177 07f0 0B       		.uleb128 0xb
 1178 07f1 DE020000 		.4byte	0x2de
 1179 07f5 00080000 		.4byte	0x800
 1180 07f9 0C       		.uleb128 0xc
 1181 07fa 6F000000 		.4byte	0x6f
 1182 07fe 1D       		.byte	0x1d
 1183 07ff 00       		.byte	0
 1184 0800 0B       		.uleb128 0xb
 1185 0801 6F000000 		.4byte	0x6f
 1186 0805 10080000 		.4byte	0x810
 1187 0809 0C       		.uleb128 0xc
 1188 080a 6F000000 		.4byte	0x6f
 1189 080e 1D       		.byte	0x1d
 1190 080f 00       		.byte	0
 1191 0810 1C       		.uleb128 0x1c
 1192 0811 F0       		.byte	0xf0
 1193 0812 07       		.byte	0x7
 1194 0813 7E02     		.2byte	0x27e
 1195 0815 32080000 		.4byte	0x832
 1196 0819 1D       		.uleb128 0x1d
 1197 081a 16050000 		.4byte	.LASF65
ARM GAS  /tmp/ccvjNMGb.s 			page 22


 1198 081e 07       		.byte	0x7
 1199 081f 9502     		.2byte	0x295
 1200 0821 9B060000 		.4byte	0x69b
 1201 0825 1D       		.uleb128 0x1d
 1202 0826 2A060000 		.4byte	.LASF117
 1203 082a 07       		.byte	0x7
 1204 082b 9E02     		.2byte	0x29e
 1205 082d CC070000 		.4byte	0x7cc
 1206 0831 00       		.byte	0
 1207 0832 0B       		.uleb128 0xb
 1208 0833 6F050000 		.4byte	0x56f
 1209 0837 42080000 		.4byte	0x842
 1210 083b 0C       		.uleb128 0xc
 1211 083c 6F000000 		.4byte	0x6f
 1212 0840 18       		.byte	0x18
 1213 0841 00       		.byte	0
 1214 0842 07       		.uleb128 0x7
 1215 0843 8F010000 		.4byte	.LASF119
 1216 0847 06       		.uleb128 0x6
 1217 0848 04       		.byte	0x4
 1218 0849 42080000 		.4byte	0x842
 1219 084d 1E       		.uleb128 0x1e
 1220 084e 58080000 		.4byte	0x858
 1221 0852 15       		.uleb128 0x15
 1222 0853 2C040000 		.4byte	0x42c
 1223 0857 00       		.byte	0
 1224 0858 06       		.uleb128 0x6
 1225 0859 04       		.byte	0x4
 1226 085a 4D080000 		.4byte	0x84d
 1227 085e 06       		.uleb128 0x6
 1228 085f 04       		.byte	0x4
 1229 0860 7F010000 		.4byte	0x17f
 1230 0864 1E       		.uleb128 0x1e
 1231 0865 6F080000 		.4byte	0x86f
 1232 0869 15       		.uleb128 0x15
 1233 086a 68000000 		.4byte	0x68
 1234 086e 00       		.byte	0
 1235 086f 06       		.uleb128 0x6
 1236 0870 04       		.byte	0x4
 1237 0871 75080000 		.4byte	0x875
 1238 0875 06       		.uleb128 0x6
 1239 0876 04       		.byte	0x4
 1240 0877 64080000 		.4byte	0x864
 1241 087b 0B       		.uleb128 0xb
 1242 087c 09060000 		.4byte	0x609
 1243 0880 8B080000 		.4byte	0x88b
 1244 0884 0C       		.uleb128 0xc
 1245 0885 6F000000 		.4byte	0x6f
 1246 0889 02       		.byte	0x2
 1247 088a 00       		.byte	0
 1248 088b 1F       		.uleb128 0x1f
 1249 088c 41050000 		.4byte	.LASF120
 1250 0890 07       		.byte	0x7
 1251 0891 2E03     		.2byte	0x32e
 1252 0893 2C040000 		.4byte	0x42c
 1253 0897 1F       		.uleb128 0x1f
 1254 0898 C0050000 		.4byte	.LASF121
ARM GAS  /tmp/ccvjNMGb.s 			page 23


 1255 089c 07       		.byte	0x7
 1256 089d 2F03     		.2byte	0x32f
 1257 089f 32040000 		.4byte	0x432
 1258 08a3 20       		.uleb128 0x20
 1259 08a4 E0030000 		.4byte	.LASF122
 1260 08a8 08       		.byte	0x8
 1261 08a9 63       		.byte	0x63
 1262 08aa 69050000 		.4byte	0x569
 1263 08ae 03       		.uleb128 0x3
 1264 08af 97030000 		.4byte	.LASF123
 1265 08b3 09       		.byte	0x9
 1266 08b4 1E       		.byte	0x1e
 1267 08b5 76000000 		.4byte	0x76
 1268 08b9 03       		.uleb128 0x3
 1269 08ba C3040000 		.4byte	.LASF124
 1270 08be 09       		.byte	0x9
 1271 08bf 22       		.byte	0x22
 1272 08c0 76000000 		.4byte	0x76
 1273 08c4 02       		.uleb128 0x2
 1274 08c5 04       		.byte	0x4
 1275 08c6 04       		.byte	0x4
 1276 08c7 11040000 		.4byte	.LASF125
 1277 08cb 02       		.uleb128 0x2
 1278 08cc 01       		.byte	0x1
 1279 08cd 02       		.byte	0x2
 1280 08ce 3E040000 		.4byte	.LASF126
 1281 08d2 06       		.uleb128 0x6
 1282 08d3 04       		.byte	0x4
 1283 08d4 76000000 		.4byte	0x76
 1284 08d8 03       		.uleb128 0x3
 1285 08d9 2F040000 		.4byte	.LASF127
 1286 08dd 0A       		.byte	0xa
 1287 08de 20       		.byte	0x20
 1288 08df E3080000 		.4byte	0x8e3
 1289 08e3 06       		.uleb128 0x6
 1290 08e4 04       		.byte	0x4
 1291 08e5 E9080000 		.4byte	0x8e9
 1292 08e9 14       		.uleb128 0x14
 1293 08ea AE080000 		.4byte	0x8ae
 1294 08ee FD080000 		.4byte	0x8fd
 1295 08f2 15       		.uleb128 0x15
 1296 08f3 FD080000 		.4byte	0x8fd
 1297 08f7 15       		.uleb128 0x15
 1298 08f8 B9080000 		.4byte	0x8b9
 1299 08fc 00       		.byte	0
 1300 08fd 06       		.uleb128 0x6
 1301 08fe 04       		.byte	0x4
 1302 08ff AE080000 		.4byte	0x8ae
 1303 0903 21       		.uleb128 0x21
 1304 0904 02030000 		.4byte	.LASF128
 1305 0908 01       		.byte	0x1
 1306 0909 25       		.byte	0x25
 1307 090a D2080000 		.4byte	0x8d2
 1308 090e 05       		.uleb128 0x5
 1309 090f 03       		.byte	0x3
 1310 0910 00000000 		.4byte	extensions
 1311 0914 22       		.uleb128 0x22
ARM GAS  /tmp/ccvjNMGb.s 			page 24


 1312 0915 AE050000 		.4byte	.LASF131
 1313 0919 01       		.byte	0x1
 1314 091a 37       		.byte	0x37
 1315 091b CB080000 		.4byte	0x8cb
 1316 091f 00000000 		.4byte	.LFB39
 1317 0923 38000000 		.4byte	.LFE39-.LFB39
 1318 0927 01       		.uleb128 0x1
 1319 0928 9C       		.byte	0x9c
 1320 0929 A0090000 		.4byte	0x9a0
 1321 092d 23       		.uleb128 0x23
 1322 092e 9A010000 		.4byte	.LASF129
 1323 0932 01       		.byte	0x1
 1324 0933 37       		.byte	0x37
 1325 0934 69050000 		.4byte	0x569
 1326 0938 00000000 		.4byte	.LLST1
 1327 093c 24       		.uleb128 0x24
 1328 093d 65787400 		.ascii	"ext\000"
 1329 0941 01       		.byte	0x1
 1330 0942 37       		.byte	0x37
 1331 0943 D8080000 		.4byte	0x8d8
 1332 0947 21000000 		.4byte	.LLST2
 1333 094b 25       		.uleb128 0x25
 1334 094c D4010000 		.4byte	.LASF130
 1335 0950 01       		.byte	0x1
 1336 0951 38       		.byte	0x38
 1337 0952 AE080000 		.4byte	0x8ae
 1338 0956 02       		.uleb128 0x2
 1339 0957 91       		.byte	0x91
 1340 0958 74       		.sleb128 -12
 1341 0959 26       		.uleb128 0x26
 1342 095a 72657300 		.ascii	"res\000"
 1343 095e 01       		.byte	0x1
 1344 095f 39       		.byte	0x39
 1345 0960 68000000 		.4byte	0x68
 1346 0964 4B000000 		.4byte	.LLST3
 1347 0968 26       		.uleb128 0x26
 1348 0969 6D00     		.ascii	"m\000"
 1349 096b 01       		.byte	0x1
 1350 096c 3D       		.byte	0x3d
 1351 096d D2080000 		.4byte	0x8d2
 1352 0971 69000000 		.4byte	.LLST4
 1353 0975 27       		.uleb128 0x27
 1354 0976 0C000000 		.4byte	.LVL8
 1355 097a E9090000 		.4byte	0x9e9
 1356 097e 90090000 		.4byte	0x990
 1357 0982 28       		.uleb128 0x28
 1358 0983 01       		.uleb128 0x1
 1359 0984 50       		.byte	0x50
 1360 0985 03       		.uleb128 0x3
 1361 0986 F3       		.byte	0xf3
 1362 0987 01       		.uleb128 0x1
 1363 0988 50       		.byte	0x50
 1364 0989 28       		.uleb128 0x28
 1365 098a 01       		.uleb128 0x1
 1366 098b 51       		.byte	0x51
 1367 098c 02       		.uleb128 0x2
 1368 098d 91       		.byte	0x91
ARM GAS  /tmp/ccvjNMGb.s 			page 25


 1369 098e 74       		.sleb128 -12
 1370 098f 00       		.byte	0
 1371 0990 29       		.uleb128 0x29
 1372 0991 1A000000 		.4byte	.LVL12
 1373 0995 F4090000 		.4byte	0x9f4
 1374 0999 28       		.uleb128 0x28
 1375 099a 01       		.uleb128 0x1
 1376 099b 50       		.byte	0x50
 1377 099c 01       		.uleb128 0x1
 1378 099d 33       		.byte	0x33
 1379 099e 00       		.byte	0
 1380 099f 00       		.byte	0
 1381 09a0 22       		.uleb128 0x22
 1382 09a1 F5050000 		.4byte	.LASF132
 1383 09a5 01       		.byte	0x1
 1384 09a6 2C       		.byte	0x2c
 1385 09a7 D8080000 		.4byte	0x8d8
 1386 09ab 00000000 		.4byte	.LFB38
 1387 09af 28000000 		.4byte	.LFE38-.LFB38
 1388 09b3 01       		.uleb128 0x1
 1389 09b4 9C       		.byte	0x9c
 1390 09b5 D4090000 		.4byte	0x9d4
 1391 09b9 24       		.uleb128 0x24
 1392 09ba 73796D00 		.ascii	"sym\000"
 1393 09be 01       		.byte	0x1
 1394 09bf 2C       		.byte	0x2c
 1395 09c0 B9080000 		.4byte	0x8b9
 1396 09c4 87000000 		.4byte	.LLST0
 1397 09c8 2A       		.uleb128 0x2a
 1398 09c9 7400     		.ascii	"t\000"
 1399 09cb 01       		.byte	0x1
 1400 09cc 2D       		.byte	0x2d
 1401 09cd D2080000 		.4byte	0x8d2
 1402 09d1 01       		.uleb128 0x1
 1403 09d2 53       		.byte	0x53
 1404 09d3 00       		.byte	0
 1405 09d4 2B       		.uleb128 0x2b
 1406 09d5 AF040000 		.4byte	.LASF138
 1407 09d9 01       		.byte	0x1
 1408 09da 27       		.byte	0x27
 1409 09db 68000000 		.4byte	0x68
 1410 09df 00000000 		.4byte	.LFB37
 1411 09e3 10000000 		.4byte	.LFE37-.LFB37
 1412 09e7 01       		.uleb128 0x1
 1413 09e8 9C       		.byte	0x9c
 1414 09e9 2C       		.uleb128 0x2c
 1415 09ea FC030000 		.4byte	.LASF133
 1416 09ee FC030000 		.4byte	.LASF133
 1417 09f2 0B       		.byte	0xb
 1418 09f3 B0       		.byte	0xb0
 1419 09f4 2C       		.uleb128 0x2c
 1420 09f5 13030000 		.4byte	.LASF134
 1421 09f9 13030000 		.4byte	.LASF134
 1422 09fd 0C       		.byte	0xc
 1423 09fe 80       		.byte	0x80
 1424 09ff 00       		.byte	0
 1425              		.section	.debug_abbrev,"",%progbits
ARM GAS  /tmp/ccvjNMGb.s 			page 26


 1426              	.Ldebug_abbrev0:
 1427 0000 01       		.uleb128 0x1
 1428 0001 11       		.uleb128 0x11
 1429 0002 01       		.byte	0x1
 1430 0003 25       		.uleb128 0x25
 1431 0004 0E       		.uleb128 0xe
 1432 0005 13       		.uleb128 0x13
 1433 0006 0B       		.uleb128 0xb
 1434 0007 03       		.uleb128 0x3
 1435 0008 0E       		.uleb128 0xe
 1436 0009 1B       		.uleb128 0x1b
 1437 000a 0E       		.uleb128 0xe
 1438 000b 55       		.uleb128 0x55
 1439 000c 17       		.uleb128 0x17
 1440 000d 11       		.uleb128 0x11
 1441 000e 01       		.uleb128 0x1
 1442 000f 10       		.uleb128 0x10
 1443 0010 17       		.uleb128 0x17
 1444 0011 00       		.byte	0
 1445 0012 00       		.byte	0
 1446 0013 02       		.uleb128 0x2
 1447 0014 24       		.uleb128 0x24
 1448 0015 00       		.byte	0
 1449 0016 0B       		.uleb128 0xb
 1450 0017 0B       		.uleb128 0xb
 1451 0018 3E       		.uleb128 0x3e
 1452 0019 0B       		.uleb128 0xb
 1453 001a 03       		.uleb128 0x3
 1454 001b 0E       		.uleb128 0xe
 1455 001c 00       		.byte	0
 1456 001d 00       		.byte	0
 1457 001e 03       		.uleb128 0x3
 1458 001f 16       		.uleb128 0x16
 1459 0020 00       		.byte	0
 1460 0021 03       		.uleb128 0x3
 1461 0022 0E       		.uleb128 0xe
 1462 0023 3A       		.uleb128 0x3a
 1463 0024 0B       		.uleb128 0xb
 1464 0025 3B       		.uleb128 0x3b
 1465 0026 0B       		.uleb128 0xb
 1466 0027 49       		.uleb128 0x49
 1467 0028 13       		.uleb128 0x13
 1468 0029 00       		.byte	0
 1469 002a 00       		.byte	0
 1470 002b 04       		.uleb128 0x4
 1471 002c 24       		.uleb128 0x24
 1472 002d 00       		.byte	0
 1473 002e 0B       		.uleb128 0xb
 1474 002f 0B       		.uleb128 0xb
 1475 0030 3E       		.uleb128 0x3e
 1476 0031 0B       		.uleb128 0xb
 1477 0032 03       		.uleb128 0x3
 1478 0033 08       		.uleb128 0x8
 1479 0034 00       		.byte	0
 1480 0035 00       		.byte	0
 1481 0036 05       		.uleb128 0x5
 1482 0037 0F       		.uleb128 0xf
ARM GAS  /tmp/ccvjNMGb.s 			page 27


 1483 0038 00       		.byte	0
 1484 0039 0B       		.uleb128 0xb
 1485 003a 0B       		.uleb128 0xb
 1486 003b 00       		.byte	0
 1487 003c 00       		.byte	0
 1488 003d 06       		.uleb128 0x6
 1489 003e 0F       		.uleb128 0xf
 1490 003f 00       		.byte	0
 1491 0040 0B       		.uleb128 0xb
 1492 0041 0B       		.uleb128 0xb
 1493 0042 49       		.uleb128 0x49
 1494 0043 13       		.uleb128 0x13
 1495 0044 00       		.byte	0
 1496 0045 00       		.byte	0
 1497 0046 07       		.uleb128 0x7
 1498 0047 13       		.uleb128 0x13
 1499 0048 00       		.byte	0
 1500 0049 03       		.uleb128 0x3
 1501 004a 0E       		.uleb128 0xe
 1502 004b 3C       		.uleb128 0x3c
 1503 004c 19       		.uleb128 0x19
 1504 004d 00       		.byte	0
 1505 004e 00       		.byte	0
 1506 004f 08       		.uleb128 0x8
 1507 0050 16       		.uleb128 0x16
 1508 0051 00       		.byte	0
 1509 0052 03       		.uleb128 0x3
 1510 0053 0E       		.uleb128 0xe
 1511 0054 3A       		.uleb128 0x3a
 1512 0055 0B       		.uleb128 0xb
 1513 0056 3B       		.uleb128 0x3b
 1514 0057 05       		.uleb128 0x5
 1515 0058 49       		.uleb128 0x49
 1516 0059 13       		.uleb128 0x13
 1517 005a 00       		.byte	0
 1518 005b 00       		.byte	0
 1519 005c 09       		.uleb128 0x9
 1520 005d 17       		.uleb128 0x17
 1521 005e 01       		.byte	0x1
 1522 005f 0B       		.uleb128 0xb
 1523 0060 0B       		.uleb128 0xb
 1524 0061 3A       		.uleb128 0x3a
 1525 0062 0B       		.uleb128 0xb
 1526 0063 3B       		.uleb128 0x3b
 1527 0064 0B       		.uleb128 0xb
 1528 0065 01       		.uleb128 0x1
 1529 0066 13       		.uleb128 0x13
 1530 0067 00       		.byte	0
 1531 0068 00       		.byte	0
 1532 0069 0A       		.uleb128 0xa
 1533 006a 0D       		.uleb128 0xd
 1534 006b 00       		.byte	0
 1535 006c 03       		.uleb128 0x3
 1536 006d 0E       		.uleb128 0xe
 1537 006e 3A       		.uleb128 0x3a
 1538 006f 0B       		.uleb128 0xb
 1539 0070 3B       		.uleb128 0x3b
ARM GAS  /tmp/ccvjNMGb.s 			page 28


 1540 0071 0B       		.uleb128 0xb
 1541 0072 49       		.uleb128 0x49
 1542 0073 13       		.uleb128 0x13
 1543 0074 00       		.byte	0
 1544 0075 00       		.byte	0
 1545 0076 0B       		.uleb128 0xb
 1546 0077 01       		.uleb128 0x1
 1547 0078 01       		.byte	0x1
 1548 0079 49       		.uleb128 0x49
 1549 007a 13       		.uleb128 0x13
 1550 007b 01       		.uleb128 0x1
 1551 007c 13       		.uleb128 0x13
 1552 007d 00       		.byte	0
 1553 007e 00       		.byte	0
 1554 007f 0C       		.uleb128 0xc
 1555 0080 21       		.uleb128 0x21
 1556 0081 00       		.byte	0
 1557 0082 49       		.uleb128 0x49
 1558 0083 13       		.uleb128 0x13
 1559 0084 2F       		.uleb128 0x2f
 1560 0085 0B       		.uleb128 0xb
 1561 0086 00       		.byte	0
 1562 0087 00       		.byte	0
 1563 0088 0D       		.uleb128 0xd
 1564 0089 13       		.uleb128 0x13
 1565 008a 01       		.byte	0x1
 1566 008b 0B       		.uleb128 0xb
 1567 008c 0B       		.uleb128 0xb
 1568 008d 3A       		.uleb128 0x3a
 1569 008e 0B       		.uleb128 0xb
 1570 008f 3B       		.uleb128 0x3b
 1571 0090 0B       		.uleb128 0xb
 1572 0091 01       		.uleb128 0x1
 1573 0092 13       		.uleb128 0x13
 1574 0093 00       		.byte	0
 1575 0094 00       		.byte	0
 1576 0095 0E       		.uleb128 0xe
 1577 0096 0D       		.uleb128 0xd
 1578 0097 00       		.byte	0
 1579 0098 03       		.uleb128 0x3
 1580 0099 0E       		.uleb128 0xe
 1581 009a 3A       		.uleb128 0x3a
 1582 009b 0B       		.uleb128 0xb
 1583 009c 3B       		.uleb128 0x3b
 1584 009d 0B       		.uleb128 0xb
 1585 009e 49       		.uleb128 0x49
 1586 009f 13       		.uleb128 0x13
 1587 00a0 38       		.uleb128 0x38
 1588 00a1 0B       		.uleb128 0xb
 1589 00a2 00       		.byte	0
 1590 00a3 00       		.byte	0
 1591 00a4 0F       		.uleb128 0xf
 1592 00a5 13       		.uleb128 0x13
 1593 00a6 01       		.byte	0x1
 1594 00a7 03       		.uleb128 0x3
 1595 00a8 0E       		.uleb128 0xe
 1596 00a9 0B       		.uleb128 0xb
ARM GAS  /tmp/ccvjNMGb.s 			page 29


 1597 00aa 0B       		.uleb128 0xb
 1598 00ab 3A       		.uleb128 0x3a
 1599 00ac 0B       		.uleb128 0xb
 1600 00ad 3B       		.uleb128 0x3b
 1601 00ae 0B       		.uleb128 0xb
 1602 00af 01       		.uleb128 0x1
 1603 00b0 13       		.uleb128 0x13
 1604 00b1 00       		.byte	0
 1605 00b2 00       		.byte	0
 1606 00b3 10       		.uleb128 0x10
 1607 00b4 0D       		.uleb128 0xd
 1608 00b5 00       		.byte	0
 1609 00b6 03       		.uleb128 0x3
 1610 00b7 08       		.uleb128 0x8
 1611 00b8 3A       		.uleb128 0x3a
 1612 00b9 0B       		.uleb128 0xb
 1613 00ba 3B       		.uleb128 0x3b
 1614 00bb 0B       		.uleb128 0xb
 1615 00bc 49       		.uleb128 0x49
 1616 00bd 13       		.uleb128 0x13
 1617 00be 38       		.uleb128 0x38
 1618 00bf 0B       		.uleb128 0xb
 1619 00c0 00       		.byte	0
 1620 00c1 00       		.byte	0
 1621 00c2 11       		.uleb128 0x11
 1622 00c3 13       		.uleb128 0x13
 1623 00c4 01       		.byte	0x1
 1624 00c5 03       		.uleb128 0x3
 1625 00c6 0E       		.uleb128 0xe
 1626 00c7 0B       		.uleb128 0xb
 1627 00c8 05       		.uleb128 0x5
 1628 00c9 3A       		.uleb128 0x3a
 1629 00ca 0B       		.uleb128 0xb
 1630 00cb 3B       		.uleb128 0x3b
 1631 00cc 0B       		.uleb128 0xb
 1632 00cd 01       		.uleb128 0x1
 1633 00ce 13       		.uleb128 0x13
 1634 00cf 00       		.byte	0
 1635 00d0 00       		.byte	0
 1636 00d1 12       		.uleb128 0x12
 1637 00d2 0D       		.uleb128 0xd
 1638 00d3 00       		.byte	0
 1639 00d4 03       		.uleb128 0x3
 1640 00d5 0E       		.uleb128 0xe
 1641 00d6 3A       		.uleb128 0x3a
 1642 00d7 0B       		.uleb128 0xb
 1643 00d8 3B       		.uleb128 0x3b
 1644 00d9 0B       		.uleb128 0xb
 1645 00da 49       		.uleb128 0x49
 1646 00db 13       		.uleb128 0x13
 1647 00dc 38       		.uleb128 0x38
 1648 00dd 05       		.uleb128 0x5
 1649 00de 00       		.byte	0
 1650 00df 00       		.byte	0
 1651 00e0 13       		.uleb128 0x13
 1652 00e1 15       		.uleb128 0x15
 1653 00e2 00       		.byte	0
ARM GAS  /tmp/ccvjNMGb.s 			page 30


 1654 00e3 27       		.uleb128 0x27
 1655 00e4 19       		.uleb128 0x19
 1656 00e5 00       		.byte	0
 1657 00e6 00       		.byte	0
 1658 00e7 14       		.uleb128 0x14
 1659 00e8 15       		.uleb128 0x15
 1660 00e9 01       		.byte	0x1
 1661 00ea 27       		.uleb128 0x27
 1662 00eb 19       		.uleb128 0x19
 1663 00ec 49       		.uleb128 0x49
 1664 00ed 13       		.uleb128 0x13
 1665 00ee 01       		.uleb128 0x1
 1666 00ef 13       		.uleb128 0x13
 1667 00f0 00       		.byte	0
 1668 00f1 00       		.byte	0
 1669 00f2 15       		.uleb128 0x15
 1670 00f3 05       		.uleb128 0x5
 1671 00f4 00       		.byte	0
 1672 00f5 49       		.uleb128 0x49
 1673 00f6 13       		.uleb128 0x13
 1674 00f7 00       		.byte	0
 1675 00f8 00       		.byte	0
 1676 00f9 16       		.uleb128 0x16
 1677 00fa 26       		.uleb128 0x26
 1678 00fb 00       		.byte	0
 1679 00fc 49       		.uleb128 0x49
 1680 00fd 13       		.uleb128 0x13
 1681 00fe 00       		.byte	0
 1682 00ff 00       		.byte	0
 1683 0100 17       		.uleb128 0x17
 1684 0101 13       		.uleb128 0x13
 1685 0102 01       		.byte	0x1
 1686 0103 03       		.uleb128 0x3
 1687 0104 0E       		.uleb128 0xe
 1688 0105 0B       		.uleb128 0xb
 1689 0106 05       		.uleb128 0x5
 1690 0107 3A       		.uleb128 0x3a
 1691 0108 0B       		.uleb128 0xb
 1692 0109 3B       		.uleb128 0x3b
 1693 010a 05       		.uleb128 0x5
 1694 010b 01       		.uleb128 0x1
 1695 010c 13       		.uleb128 0x13
 1696 010d 00       		.byte	0
 1697 010e 00       		.byte	0
 1698 010f 18       		.uleb128 0x18
 1699 0110 0D       		.uleb128 0xd
 1700 0111 00       		.byte	0
 1701 0112 03       		.uleb128 0x3
 1702 0113 0E       		.uleb128 0xe
 1703 0114 3A       		.uleb128 0x3a
 1704 0115 0B       		.uleb128 0xb
 1705 0116 3B       		.uleb128 0x3b
 1706 0117 05       		.uleb128 0x5
 1707 0118 49       		.uleb128 0x49
 1708 0119 13       		.uleb128 0x13
 1709 011a 38       		.uleb128 0x38
 1710 011b 0B       		.uleb128 0xb
ARM GAS  /tmp/ccvjNMGb.s 			page 31


 1711 011c 00       		.byte	0
 1712 011d 00       		.byte	0
 1713 011e 19       		.uleb128 0x19
 1714 011f 0D       		.uleb128 0xd
 1715 0120 00       		.byte	0
 1716 0121 03       		.uleb128 0x3
 1717 0122 0E       		.uleb128 0xe
 1718 0123 3A       		.uleb128 0x3a
 1719 0124 0B       		.uleb128 0xb
 1720 0125 3B       		.uleb128 0x3b
 1721 0126 05       		.uleb128 0x5
 1722 0127 49       		.uleb128 0x49
 1723 0128 13       		.uleb128 0x13
 1724 0129 38       		.uleb128 0x38
 1725 012a 05       		.uleb128 0x5
 1726 012b 00       		.byte	0
 1727 012c 00       		.byte	0
 1728 012d 1A       		.uleb128 0x1a
 1729 012e 13       		.uleb128 0x13
 1730 012f 01       		.byte	0x1
 1731 0130 03       		.uleb128 0x3
 1732 0131 0E       		.uleb128 0xe
 1733 0132 0B       		.uleb128 0xb
 1734 0133 0B       		.uleb128 0xb
 1735 0134 3A       		.uleb128 0x3a
 1736 0135 0B       		.uleb128 0xb
 1737 0136 3B       		.uleb128 0x3b
 1738 0137 05       		.uleb128 0x5
 1739 0138 01       		.uleb128 0x1
 1740 0139 13       		.uleb128 0x13
 1741 013a 00       		.byte	0
 1742 013b 00       		.byte	0
 1743 013c 1B       		.uleb128 0x1b
 1744 013d 13       		.uleb128 0x13
 1745 013e 01       		.byte	0x1
 1746 013f 0B       		.uleb128 0xb
 1747 0140 0B       		.uleb128 0xb
 1748 0141 3A       		.uleb128 0x3a
 1749 0142 0B       		.uleb128 0xb
 1750 0143 3B       		.uleb128 0x3b
 1751 0144 05       		.uleb128 0x5
 1752 0145 01       		.uleb128 0x1
 1753 0146 13       		.uleb128 0x13
 1754 0147 00       		.byte	0
 1755 0148 00       		.byte	0
 1756 0149 1C       		.uleb128 0x1c
 1757 014a 17       		.uleb128 0x17
 1758 014b 01       		.byte	0x1
 1759 014c 0B       		.uleb128 0xb
 1760 014d 0B       		.uleb128 0xb
 1761 014e 3A       		.uleb128 0x3a
 1762 014f 0B       		.uleb128 0xb
 1763 0150 3B       		.uleb128 0x3b
 1764 0151 05       		.uleb128 0x5
 1765 0152 01       		.uleb128 0x1
 1766 0153 13       		.uleb128 0x13
 1767 0154 00       		.byte	0
ARM GAS  /tmp/ccvjNMGb.s 			page 32


 1768 0155 00       		.byte	0
 1769 0156 1D       		.uleb128 0x1d
 1770 0157 0D       		.uleb128 0xd
 1771 0158 00       		.byte	0
 1772 0159 03       		.uleb128 0x3
 1773 015a 0E       		.uleb128 0xe
 1774 015b 3A       		.uleb128 0x3a
 1775 015c 0B       		.uleb128 0xb
 1776 015d 3B       		.uleb128 0x3b
 1777 015e 05       		.uleb128 0x5
 1778 015f 49       		.uleb128 0x49
 1779 0160 13       		.uleb128 0x13
 1780 0161 00       		.byte	0
 1781 0162 00       		.byte	0
 1782 0163 1E       		.uleb128 0x1e
 1783 0164 15       		.uleb128 0x15
 1784 0165 01       		.byte	0x1
 1785 0166 27       		.uleb128 0x27
 1786 0167 19       		.uleb128 0x19
 1787 0168 01       		.uleb128 0x1
 1788 0169 13       		.uleb128 0x13
 1789 016a 00       		.byte	0
 1790 016b 00       		.byte	0
 1791 016c 1F       		.uleb128 0x1f
 1792 016d 34       		.uleb128 0x34
 1793 016e 00       		.byte	0
 1794 016f 03       		.uleb128 0x3
 1795 0170 0E       		.uleb128 0xe
 1796 0171 3A       		.uleb128 0x3a
 1797 0172 0B       		.uleb128 0xb
 1798 0173 3B       		.uleb128 0x3b
 1799 0174 05       		.uleb128 0x5
 1800 0175 49       		.uleb128 0x49
 1801 0176 13       		.uleb128 0x13
 1802 0177 3F       		.uleb128 0x3f
 1803 0178 19       		.uleb128 0x19
 1804 0179 3C       		.uleb128 0x3c
 1805 017a 19       		.uleb128 0x19
 1806 017b 00       		.byte	0
 1807 017c 00       		.byte	0
 1808 017d 20       		.uleb128 0x20
 1809 017e 34       		.uleb128 0x34
 1810 017f 00       		.byte	0
 1811 0180 03       		.uleb128 0x3
 1812 0181 0E       		.uleb128 0xe
 1813 0182 3A       		.uleb128 0x3a
 1814 0183 0B       		.uleb128 0xb
 1815 0184 3B       		.uleb128 0x3b
 1816 0185 0B       		.uleb128 0xb
 1817 0186 49       		.uleb128 0x49
 1818 0187 13       		.uleb128 0x13
 1819 0188 3F       		.uleb128 0x3f
 1820 0189 19       		.uleb128 0x19
 1821 018a 3C       		.uleb128 0x3c
 1822 018b 19       		.uleb128 0x19
 1823 018c 00       		.byte	0
 1824 018d 00       		.byte	0
ARM GAS  /tmp/ccvjNMGb.s 			page 33


 1825 018e 21       		.uleb128 0x21
 1826 018f 34       		.uleb128 0x34
 1827 0190 00       		.byte	0
 1828 0191 03       		.uleb128 0x3
 1829 0192 0E       		.uleb128 0xe
 1830 0193 3A       		.uleb128 0x3a
 1831 0194 0B       		.uleb128 0xb
 1832 0195 3B       		.uleb128 0x3b
 1833 0196 0B       		.uleb128 0xb
 1834 0197 49       		.uleb128 0x49
 1835 0198 13       		.uleb128 0x13
 1836 0199 3F       		.uleb128 0x3f
 1837 019a 19       		.uleb128 0x19
 1838 019b 02       		.uleb128 0x2
 1839 019c 18       		.uleb128 0x18
 1840 019d 00       		.byte	0
 1841 019e 00       		.byte	0
 1842 019f 22       		.uleb128 0x22
 1843 01a0 2E       		.uleb128 0x2e
 1844 01a1 01       		.byte	0x1
 1845 01a2 3F       		.uleb128 0x3f
 1846 01a3 19       		.uleb128 0x19
 1847 01a4 03       		.uleb128 0x3
 1848 01a5 0E       		.uleb128 0xe
 1849 01a6 3A       		.uleb128 0x3a
 1850 01a7 0B       		.uleb128 0xb
 1851 01a8 3B       		.uleb128 0x3b
 1852 01a9 0B       		.uleb128 0xb
 1853 01aa 27       		.uleb128 0x27
 1854 01ab 19       		.uleb128 0x19
 1855 01ac 49       		.uleb128 0x49
 1856 01ad 13       		.uleb128 0x13
 1857 01ae 11       		.uleb128 0x11
 1858 01af 01       		.uleb128 0x1
 1859 01b0 12       		.uleb128 0x12
 1860 01b1 06       		.uleb128 0x6
 1861 01b2 40       		.uleb128 0x40
 1862 01b3 18       		.uleb128 0x18
 1863 01b4 9742     		.uleb128 0x2117
 1864 01b6 19       		.uleb128 0x19
 1865 01b7 01       		.uleb128 0x1
 1866 01b8 13       		.uleb128 0x13
 1867 01b9 00       		.byte	0
 1868 01ba 00       		.byte	0
 1869 01bb 23       		.uleb128 0x23
 1870 01bc 05       		.uleb128 0x5
 1871 01bd 00       		.byte	0
 1872 01be 03       		.uleb128 0x3
 1873 01bf 0E       		.uleb128 0xe
 1874 01c0 3A       		.uleb128 0x3a
 1875 01c1 0B       		.uleb128 0xb
 1876 01c2 3B       		.uleb128 0x3b
 1877 01c3 0B       		.uleb128 0xb
 1878 01c4 49       		.uleb128 0x49
 1879 01c5 13       		.uleb128 0x13
 1880 01c6 02       		.uleb128 0x2
 1881 01c7 17       		.uleb128 0x17
ARM GAS  /tmp/ccvjNMGb.s 			page 34


 1882 01c8 00       		.byte	0
 1883 01c9 00       		.byte	0
 1884 01ca 24       		.uleb128 0x24
 1885 01cb 05       		.uleb128 0x5
 1886 01cc 00       		.byte	0
 1887 01cd 03       		.uleb128 0x3
 1888 01ce 08       		.uleb128 0x8
 1889 01cf 3A       		.uleb128 0x3a
 1890 01d0 0B       		.uleb128 0xb
 1891 01d1 3B       		.uleb128 0x3b
 1892 01d2 0B       		.uleb128 0xb
 1893 01d3 49       		.uleb128 0x49
 1894 01d4 13       		.uleb128 0x13
 1895 01d5 02       		.uleb128 0x2
 1896 01d6 17       		.uleb128 0x17
 1897 01d7 00       		.byte	0
 1898 01d8 00       		.byte	0
 1899 01d9 25       		.uleb128 0x25
 1900 01da 34       		.uleb128 0x34
 1901 01db 00       		.byte	0
 1902 01dc 03       		.uleb128 0x3
 1903 01dd 0E       		.uleb128 0xe
 1904 01de 3A       		.uleb128 0x3a
 1905 01df 0B       		.uleb128 0xb
 1906 01e0 3B       		.uleb128 0x3b
 1907 01e1 0B       		.uleb128 0xb
 1908 01e2 49       		.uleb128 0x49
 1909 01e3 13       		.uleb128 0x13
 1910 01e4 02       		.uleb128 0x2
 1911 01e5 18       		.uleb128 0x18
 1912 01e6 00       		.byte	0
 1913 01e7 00       		.byte	0
 1914 01e8 26       		.uleb128 0x26
 1915 01e9 34       		.uleb128 0x34
 1916 01ea 00       		.byte	0
 1917 01eb 03       		.uleb128 0x3
 1918 01ec 08       		.uleb128 0x8
 1919 01ed 3A       		.uleb128 0x3a
 1920 01ee 0B       		.uleb128 0xb
 1921 01ef 3B       		.uleb128 0x3b
 1922 01f0 0B       		.uleb128 0xb
 1923 01f1 49       		.uleb128 0x49
 1924 01f2 13       		.uleb128 0x13
 1925 01f3 02       		.uleb128 0x2
 1926 01f4 17       		.uleb128 0x17
 1927 01f5 00       		.byte	0
 1928 01f6 00       		.byte	0
 1929 01f7 27       		.uleb128 0x27
 1930 01f8 898201   		.uleb128 0x4109
 1931 01fb 01       		.byte	0x1
 1932 01fc 11       		.uleb128 0x11
 1933 01fd 01       		.uleb128 0x1
 1934 01fe 31       		.uleb128 0x31
 1935 01ff 13       		.uleb128 0x13
 1936 0200 01       		.uleb128 0x1
 1937 0201 13       		.uleb128 0x13
 1938 0202 00       		.byte	0
ARM GAS  /tmp/ccvjNMGb.s 			page 35


 1939 0203 00       		.byte	0
 1940 0204 28       		.uleb128 0x28
 1941 0205 8A8201   		.uleb128 0x410a
 1942 0208 00       		.byte	0
 1943 0209 02       		.uleb128 0x2
 1944 020a 18       		.uleb128 0x18
 1945 020b 9142     		.uleb128 0x2111
 1946 020d 18       		.uleb128 0x18
 1947 020e 00       		.byte	0
 1948 020f 00       		.byte	0
 1949 0210 29       		.uleb128 0x29
 1950 0211 898201   		.uleb128 0x4109
 1951 0214 01       		.byte	0x1
 1952 0215 11       		.uleb128 0x11
 1953 0216 01       		.uleb128 0x1
 1954 0217 31       		.uleb128 0x31
 1955 0218 13       		.uleb128 0x13
 1956 0219 00       		.byte	0
 1957 021a 00       		.byte	0
 1958 021b 2A       		.uleb128 0x2a
 1959 021c 34       		.uleb128 0x34
 1960 021d 00       		.byte	0
 1961 021e 03       		.uleb128 0x3
 1962 021f 08       		.uleb128 0x8
 1963 0220 3A       		.uleb128 0x3a
 1964 0221 0B       		.uleb128 0xb
 1965 0222 3B       		.uleb128 0x3b
 1966 0223 0B       		.uleb128 0xb
 1967 0224 49       		.uleb128 0x49
 1968 0225 13       		.uleb128 0x13
 1969 0226 02       		.uleb128 0x2
 1970 0227 18       		.uleb128 0x18
 1971 0228 00       		.byte	0
 1972 0229 00       		.byte	0
 1973 022a 2B       		.uleb128 0x2b
 1974 022b 2E       		.uleb128 0x2e
 1975 022c 00       		.byte	0
 1976 022d 3F       		.uleb128 0x3f
 1977 022e 19       		.uleb128 0x19
 1978 022f 03       		.uleb128 0x3
 1979 0230 0E       		.uleb128 0xe
 1980 0231 3A       		.uleb128 0x3a
 1981 0232 0B       		.uleb128 0xb
 1982 0233 3B       		.uleb128 0x3b
 1983 0234 0B       		.uleb128 0xb
 1984 0235 27       		.uleb128 0x27
 1985 0236 19       		.uleb128 0x19
 1986 0237 49       		.uleb128 0x49
 1987 0238 13       		.uleb128 0x13
 1988 0239 11       		.uleb128 0x11
 1989 023a 01       		.uleb128 0x1
 1990 023b 12       		.uleb128 0x12
 1991 023c 06       		.uleb128 0x6
 1992 023d 40       		.uleb128 0x40
 1993 023e 18       		.uleb128 0x18
 1994 023f 9742     		.uleb128 0x2117
 1995 0241 19       		.uleb128 0x19
ARM GAS  /tmp/ccvjNMGb.s 			page 36


 1996 0242 00       		.byte	0
 1997 0243 00       		.byte	0
 1998 0244 2C       		.uleb128 0x2c
 1999 0245 2E       		.uleb128 0x2e
 2000 0246 00       		.byte	0
 2001 0247 3F       		.uleb128 0x3f
 2002 0248 19       		.uleb128 0x19
 2003 0249 3C       		.uleb128 0x3c
 2004 024a 19       		.uleb128 0x19
 2005 024b 6E       		.uleb128 0x6e
 2006 024c 0E       		.uleb128 0xe
 2007 024d 03       		.uleb128 0x3
 2008 024e 0E       		.uleb128 0xe
 2009 024f 3A       		.uleb128 0x3a
 2010 0250 0B       		.uleb128 0xb
 2011 0251 3B       		.uleb128 0x3b
 2012 0252 0B       		.uleb128 0xb
 2013 0253 00       		.byte	0
 2014 0254 00       		.byte	0
 2015 0255 00       		.byte	0
 2016              		.section	.debug_loc,"",%progbits
 2017              	.Ldebug_loc0:
 2018              	.LLST1:
 2019 0000 00000000 		.4byte	.LVL6
 2020 0004 0B000000 		.4byte	.LVL8-1
 2021 0008 0100     		.2byte	0x1
 2022 000a 50       		.byte	0x50
 2023 000b 0B000000 		.4byte	.LVL8-1
 2024 000f 38000000 		.4byte	.LFE39
 2025 0013 0400     		.2byte	0x4
 2026 0015 F3       		.byte	0xf3
 2027 0016 01       		.uleb128 0x1
 2028 0017 50       		.byte	0x50
 2029 0018 9F       		.byte	0x9f
 2030 0019 00000000 		.4byte	0
 2031 001d 00000000 		.4byte	0
 2032              	.LLST2:
 2033 0021 00000000 		.4byte	.LVL6
 2034 0025 08000000 		.4byte	.LVL7
 2035 0029 0100     		.2byte	0x1
 2036 002b 51       		.byte	0x51
 2037 002c 08000000 		.4byte	.LVL7
 2038 0030 34000000 		.4byte	.LVL14
 2039 0034 0100     		.2byte	0x1
 2040 0036 54       		.byte	0x54
 2041 0037 34000000 		.4byte	.LVL14
 2042 003b 38000000 		.4byte	.LFE39
 2043 003f 0200     		.2byte	0x2
 2044 0041 73       		.byte	0x73
 2045 0042 04       		.sleb128 4
 2046 0043 00000000 		.4byte	0
 2047 0047 00000000 		.4byte	0
 2048              	.LLST3:
 2049 004b 0C000000 		.4byte	.LVL8
 2050 004f 0E000000 		.4byte	.LVL9
 2051 0053 0100     		.2byte	0x1
 2052 0055 50       		.byte	0x50
ARM GAS  /tmp/ccvjNMGb.s 			page 37


 2053 0056 14000000 		.4byte	.LVL10
 2054 005a 16000000 		.4byte	.LVL11
 2055 005e 0100     		.2byte	0x1
 2056 0060 50       		.byte	0x50
 2057 0061 00000000 		.4byte	0
 2058 0065 00000000 		.4byte	0
 2059              	.LLST4:
 2060 0069 1A000000 		.4byte	.LVL12
 2061 006d 26000000 		.4byte	.LVL13
 2062 0071 0100     		.2byte	0x1
 2063 0073 50       		.byte	0x50
 2064 0074 26000000 		.4byte	.LVL13
 2065 0078 38000000 		.4byte	.LFE39
 2066 007c 0100     		.2byte	0x1
 2067 007e 53       		.byte	0x53
 2068 007f 00000000 		.4byte	0
 2069 0083 00000000 		.4byte	0
 2070              	.LLST0:
 2071 0087 00000000 		.4byte	.LVL0
 2072 008b 1C000000 		.4byte	.LVL3
 2073 008f 0100     		.2byte	0x1
 2074 0091 50       		.byte	0x50
 2075 0092 1C000000 		.4byte	.LVL3
 2076 0096 1E000000 		.4byte	.LVL4
 2077 009a 0400     		.2byte	0x4
 2078 009c F3       		.byte	0xf3
 2079 009d 01       		.uleb128 0x1
 2080 009e 50       		.byte	0x50
 2081 009f 9F       		.byte	0x9f
 2082 00a0 1E000000 		.4byte	.LVL4
 2083 00a4 20000000 		.4byte	.LVL5
 2084 00a8 0100     		.2byte	0x1
 2085 00aa 50       		.byte	0x50
 2086 00ab 20000000 		.4byte	.LVL5
 2087 00af 28000000 		.4byte	.LFE38
 2088 00b3 0400     		.2byte	0x4
 2089 00b5 F3       		.byte	0xf3
 2090 00b6 01       		.uleb128 0x1
 2091 00b7 50       		.byte	0x50
 2092 00b8 9F       		.byte	0x9f
 2093 00b9 00000000 		.4byte	0
 2094 00bd 00000000 		.4byte	0
 2095              		.section	.debug_aranges,"",%progbits
 2096 0000 2C000000 		.4byte	0x2c
 2097 0004 0200     		.2byte	0x2
 2098 0006 00000000 		.4byte	.Ldebug_info0
 2099 000a 04       		.byte	0x4
 2100 000b 00       		.byte	0
 2101 000c 0000     		.2byte	0
 2102 000e 0000     		.2byte	0
 2103 0010 00000000 		.4byte	.LFB37
 2104 0014 10000000 		.4byte	.LFE37-.LFB37
 2105 0018 00000000 		.4byte	.LFB38
 2106 001c 28000000 		.4byte	.LFE38-.LFB38
 2107 0020 00000000 		.4byte	.LFB39
 2108 0024 38000000 		.4byte	.LFE39-.LFB39
 2109 0028 00000000 		.4byte	0
ARM GAS  /tmp/ccvjNMGb.s 			page 38


 2110 002c 00000000 		.4byte	0
 2111              		.section	.debug_ranges,"",%progbits
 2112              	.Ldebug_ranges0:
 2113 0000 00000000 		.4byte	.LFB37
 2114 0004 10000000 		.4byte	.LFE37
 2115 0008 00000000 		.4byte	.LFB38
 2116 000c 28000000 		.4byte	.LFE38
 2117 0010 00000000 		.4byte	.LFB39
 2118 0014 38000000 		.4byte	.LFE39
 2119 0018 00000000 		.4byte	0
 2120 001c 00000000 		.4byte	0
 2121              		.section	.debug_line,"",%progbits
 2122              	.Ldebug_line0:
 2123 0000 B6010000 		.section	.debug_str,"MS",%progbits,1
 2123      02006701 
 2123      00000201 
 2123      FB0E0D00 
 2123      01010101 
 2124              	.LASF39:
 2125 0000 5F64736F 		.ascii	"_dso_handle\000"
 2125      5F68616E 
 2125      646C6500 
 2126              	.LASF137:
 2127 000c 2F626C64 		.ascii	"/bldc\000"
 2127      6300
 2128              	.LASF92:
 2129 0012 5F72616E 		.ascii	"_rand48\000"
 2129      64343800 
 2130              	.LASF71:
 2131 001a 5F656D65 		.ascii	"_emergency\000"
 2131      7267656E 
 2131      637900
 2132              	.LASF61:
 2133 0025 5F646174 		.ascii	"_data\000"
 2133      6100
 2134              	.LASF135:
 2135 002b 474E5520 		.ascii	"GNU C99 7.3.1 20180622 (release) [ARM/embedded-7-br"
 2135      43393920 
 2135      372E332E 
 2135      31203230 
 2135      31383036 
 2136 005e 616E6368 		.ascii	"anch revision 261907] -mcpu=cortex-m4 -mfloat-abi=h"
 2136      20726576 
 2136      6973696F 
 2136      6E203236 
 2136      31393037 
 2137 0091 61726420 		.ascii	"ard -mfpu=fpv4-sp-d16 -mno-thumb-interwork -mthumb "
 2137      2D6D6670 
 2137      753D6670 
 2137      76342D73 
 2137      702D6431 
 2138 00c4 2D676764 		.ascii	"-ggdb -O2 -std=gnu99 -fomit-frame-pointer -falign-f"
 2138      62202D4F 
 2138      32202D73 
 2138      74643D67 
 2138      6E753939 
 2139 00f7 756E6374 		.ascii	"unctions=16 -ffunction-sections -fdata-sections -fn"
ARM GAS  /tmp/ccvjNMGb.s 			page 39


 2139      696F6E73 
 2139      3D313620 
 2139      2D666675 
 2139      6E637469 
 2140 012a 6F2D636F 		.ascii	"o-common -fsingle-precision-constant\000"
 2140      6D6D6F6E 
 2140      202D6673 
 2140      696E676C 
 2140      652D7072 
 2141              	.LASF112:
 2142 014f 5F776372 		.ascii	"_wcrtomb_state\000"
 2142      746F6D62 
 2142      5F737461 
 2142      746500
 2143              	.LASF113:
 2144 015e 5F776373 		.ascii	"_wcsrtombs_state\000"
 2144      72746F6D 
 2144      62735F73 
 2144      74617465 
 2144      00
 2145              	.LASF7:
 2146 016f 6C6F6E67 		.ascii	"long long unsigned int\000"
 2146      206C6F6E 
 2146      6720756E 
 2146      7369676E 
 2146      65642069 
 2147              	.LASF51:
 2148 0186 5F6C6266 		.ascii	"_lbfsize\000"
 2148      73697A65 
 2148      00
 2149              	.LASF119:
 2150 018f 5F5F6C6F 		.ascii	"__locale_t\000"
 2150      63616C65 
 2150      5F7400
 2151              	.LASF129:
 2152 019a 73796D5F 		.ascii	"sym_str\000"
 2152      73747200 
 2153              	.LASF110:
 2154 01a2 5F6D6272 		.ascii	"_mbrtowc_state\000"
 2154      746F7763 
 2154      5F737461 
 2154      746500
 2155              	.LASF28:
 2156 01b1 5F5F746D 		.ascii	"__tm_sec\000"
 2156      5F736563 
 2156      00
 2157              	.LASF6:
 2158 01ba 6C6F6E67 		.ascii	"long long int\000"
 2158      206C6F6E 
 2158      6720696E 
 2158      7400
 2159              	.LASF0:
 2160 01c8 7369676E 		.ascii	"signed char\000"
 2160      65642063 
 2160      68617200 
 2161              	.LASF130:
 2162 01d4 73796D62 		.ascii	"symbol\000"
ARM GAS  /tmp/ccvjNMGb.s 			page 40


 2162      6F6C00
 2163              	.LASF57:
 2164 01db 5F756275 		.ascii	"_ubuf\000"
 2164      6600
 2165              	.LASF46:
 2166 01e1 5F626173 		.ascii	"_base\000"
 2166      6500
 2167              	.LASF30:
 2168 01e7 5F5F746D 		.ascii	"__tm_hour\000"
 2168      5F686F75 
 2168      7200
 2169              	.LASF86:
 2170 01f1 5F5F7366 		.ascii	"__sf\000"
 2170      00
 2171              	.LASF37:
 2172 01f6 5F6F6E5F 		.ascii	"_on_exit_args\000"
 2172      65786974 
 2172      5F617267 
 2172      7300
 2173              	.LASF52:
 2174 0204 5F636F6F 		.ascii	"_cookie\000"
 2174      6B696500 
 2175              	.LASF85:
 2176 020c 5F5F7367 		.ascii	"__sglue\000"
 2176      6C756500 
 2177              	.LASF4:
 2178 0214 6C6F6E67 		.ascii	"long int\000"
 2178      20696E74 
 2178      00
 2179              	.LASF49:
 2180 021d 5F666C61 		.ascii	"_flags\000"
 2180      677300
 2181              	.LASF41:
 2182 0224 5F69735F 		.ascii	"_is_cxa\000"
 2182      63786100 
 2183              	.LASF67:
 2184 022c 5F737464 		.ascii	"_stdin\000"
 2184      696E00
 2185              	.LASF59:
 2186 0233 5F626C6B 		.ascii	"_blksize\000"
 2186      73697A65 
 2186      00
 2187              	.LASF81:
 2188 023c 5F637674 		.ascii	"_cvtbuf\000"
 2188      62756600 
 2189              	.LASF60:
 2190 0244 5F6F6666 		.ascii	"_offset\000"
 2190      73657400 
 2191              	.LASF111:
 2192 024c 5F6D6273 		.ascii	"_mbsrtowcs_state\000"
 2192      72746F77 
 2192      63735F73 
 2192      74617465 
 2192      00
 2193              	.LASF109:
 2194 025d 5F6D6272 		.ascii	"_mbrlen_state\000"
 2194      6C656E5F 
ARM GAS  /tmp/ccvjNMGb.s 			page 41


 2194      73746174 
 2194      6500
 2195              	.LASF38:
 2196 026b 5F666E61 		.ascii	"_fnargs\000"
 2196      72677300 
 2197              	.LASF47:
 2198 0273 5F73697A 		.ascii	"_size\000"
 2198      6500
 2199              	.LASF44:
 2200 0279 5F666E73 		.ascii	"_fns\000"
 2200      00
 2201              	.LASF9:
 2202 027e 5F5F7569 		.ascii	"__uint32_t\000"
 2202      6E743332 
 2202      5F7400
 2203              	.LASF24:
 2204 0289 5F736967 		.ascii	"_sign\000"
 2204      6E00
 2205              	.LASF20:
 2206 028f 5F666C6F 		.ascii	"_flock_t\000"
 2206      636B5F74 
 2206      00
 2207              	.LASF69:
 2208 0298 5F737464 		.ascii	"_stderr\000"
 2208      65727200 
 2209              	.LASF26:
 2210 02a0 5F426967 		.ascii	"_Bigint\000"
 2210      696E7400 
 2211              	.LASF100:
 2212 02a8 5F67616D 		.ascii	"_gamma_signgam\000"
 2212      6D615F73 
 2212      69676E67 
 2212      616D00
 2213              	.LASF53:
 2214 02b7 5F726561 		.ascii	"_read\000"
 2214      6400
 2215              	.LASF77:
 2216 02bd 5F726573 		.ascii	"_result_k\000"
 2216      756C745F 
 2216      6B00
 2217              	.LASF27:
 2218 02c7 5F5F746D 		.ascii	"__tm\000"
 2218      00
 2219              	.LASF8:
 2220 02cc 756E7369 		.ascii	"unsigned int\000"
 2220      676E6564 
 2220      20696E74 
 2220      00
 2221              	.LASF16:
 2222 02d9 5F5F7763 		.ascii	"__wchb\000"
 2222      686200
 2223              	.LASF68:
 2224 02e0 5F737464 		.ascii	"_stdout\000"
 2224      6F757400 
 2225              	.LASF80:
 2226 02e8 5F637674 		.ascii	"_cvtlen\000"
 2226      6C656E00 
ARM GAS  /tmp/ccvjNMGb.s 			page 42


 2227              	.LASF5:
 2228 02f0 6C6F6E67 		.ascii	"long unsigned int\000"
 2228      20756E73 
 2228      69676E65 
 2228      6420696E 
 2228      7400
 2229              	.LASF128:
 2230 0302 65787465 		.ascii	"extensions\000"
 2230      6E73696F 
 2230      6E7300
 2231              	.LASF50:
 2232 030d 5F66696C 		.ascii	"_file\000"
 2232      6500
 2233              	.LASF134:
 2234 0313 6C626D5F 		.ascii	"lbm_memory_allocate\000"
 2234      6D656D6F 
 2234      72795F61 
 2234      6C6C6F63 
 2234      61746500 
 2235              	.LASF90:
 2236 0327 5F6E696F 		.ascii	"_niobs\000"
 2236      627300
 2237              	.LASF3:
 2238 032e 73686F72 		.ascii	"short unsigned int\000"
 2238      7420756E 
 2238      7369676E 
 2238      65642069 
 2238      6E7400
 2239              	.LASF83:
 2240 0341 5F617465 		.ascii	"_atexit0\000"
 2240      78697430 
 2240      00
 2241              	.LASF107:
 2242 034a 5F736967 		.ascii	"_signal_buf\000"
 2242      6E616C5F 
 2242      62756600 
 2243              	.LASF98:
 2244 0356 5F617363 		.ascii	"_asctime_buf\000"
 2244      74696D65 
 2244      5F627566 
 2244      00
 2245              	.LASF136:
 2246 0363 6C697370 		.ascii	"lispBM/lispBM/src/extensions.c\000"
 2246      424D2F6C 
 2246      69737042 
 2246      4D2F7372 
 2246      632F6578 
 2247              	.LASF15:
 2248 0382 5F5F7763 		.ascii	"__wch\000"
 2248      6800
 2249              	.LASF11:
 2250 0388 5F4C4F43 		.ascii	"_LOCK_T\000"
 2250      4B5F5400 
 2251              	.LASF14:
 2252 0390 77696E74 		.ascii	"wint_t\000"
 2252      5F7400
 2253              	.LASF123:
ARM GAS  /tmp/ccvjNMGb.s 			page 43


 2254 0397 6C626D5F 		.ascii	"lbm_value\000"
 2254      76616C75 
 2254      6500
 2255              	.LASF62:
 2256 03a1 5F6C6F63 		.ascii	"_lock\000"
 2256      6B00
 2257              	.LASF64:
 2258 03a7 5F666C61 		.ascii	"_flags2\000"
 2258      67733200 
 2259              	.LASF76:
 2260 03af 5F726573 		.ascii	"_result\000"
 2260      756C7400 
 2261              	.LASF54:
 2262 03b7 5F777269 		.ascii	"_write\000"
 2262      746500
 2263              	.LASF33:
 2264 03be 5F5F746D 		.ascii	"__tm_year\000"
 2264      5F796561 
 2264      7200
 2265              	.LASF115:
 2266 03c8 5F6E6578 		.ascii	"_nextf\000"
 2266      746600
 2267              	.LASF32:
 2268 03cf 5F5F746D 		.ascii	"__tm_mon\000"
 2268      5F6D6F6E 
 2268      00
 2269              	.LASF42:
 2270 03d8 5F617465 		.ascii	"_atexit\000"
 2270      78697400 
 2271              	.LASF122:
 2272 03e0 7375626F 		.ascii	"suboptarg\000"
 2272      70746172 
 2272      6700
 2273              	.LASF74:
 2274 03ea 5F5F7364 		.ascii	"__sdidinit\000"
 2274      6964696E 
 2274      697400
 2275              	.LASF12:
 2276 03f5 5F6F6666 		.ascii	"_off_t\000"
 2276      5F7400
 2277              	.LASF133:
 2278 03fc 6C626D5F 		.ascii	"lbm_add_symbol_const\000"
 2278      6164645F 
 2278      73796D62 
 2278      6F6C5F63 
 2278      6F6E7374 
 2279              	.LASF125:
 2280 0411 666C6F61 		.ascii	"float\000"
 2280      7400
 2281              	.LASF79:
 2282 0417 5F667265 		.ascii	"_freelist\000"
 2282      656C6973 
 2282      7400
 2283              	.LASF105:
 2284 0421 5F776374 		.ascii	"_wctomb_state\000"
 2284      6F6D625F 
 2284      73746174 
ARM GAS  /tmp/ccvjNMGb.s 			page 44


 2284      6500
 2285              	.LASF127:
 2286 042f 65787465 		.ascii	"extension_fptr\000"
 2286      6E73696F 
 2286      6E5F6670 
 2286      747200
 2287              	.LASF126:
 2288 043e 5F426F6F 		.ascii	"_Bool\000"
 2288      6C00
 2289              	.LASF1:
 2290 0444 756E7369 		.ascii	"unsigned char\000"
 2290      676E6564 
 2290      20636861 
 2290      7200
 2291              	.LASF82:
 2292 0452 5F6E6577 		.ascii	"_new\000"
 2292      00
 2293              	.LASF114:
 2294 0457 5F685F65 		.ascii	"_h_errno\000"
 2294      72726E6F 
 2294      00
 2295              	.LASF2:
 2296 0460 73686F72 		.ascii	"short int\000"
 2296      7420696E 
 2296      7400
 2297              	.LASF35:
 2298 046a 5F5F746D 		.ascii	"__tm_yday\000"
 2298      5F796461 
 2298      7900
 2299              	.LASF45:
 2300 0474 5F5F7362 		.ascii	"__sbuf\000"
 2300      756600
 2301              	.LASF91:
 2302 047b 5F696F62 		.ascii	"_iobs\000"
 2302      7300
 2303              	.LASF88:
 2304 0481 5F5F4649 		.ascii	"__FILE\000"
 2304      4C4500
 2305              	.LASF19:
 2306 0488 5F6D6273 		.ascii	"_mbstate_t\000"
 2306      74617465 
 2306      5F7400
 2307              	.LASF48:
 2308 0493 5F5F7346 		.ascii	"__sFILE\000"
 2308      494C4500 
 2309              	.LASF63:
 2310 049b 5F6D6273 		.ascii	"_mbstate\000"
 2310      74617465 
 2310      00
 2311              	.LASF101:
 2312 04a4 5F72616E 		.ascii	"_rand_next\000"
 2312      645F6E65 
 2312      787400
 2313              	.LASF138:
 2314 04af 6C626D5F 		.ascii	"lbm_extensions_init\000"
 2314      65787465 
 2314      6E73696F 
ARM GAS  /tmp/ccvjNMGb.s 			page 45


 2314      6E735F69 
 2314      6E697400 
 2315              	.LASF124:
 2316 04c3 6C626D5F 		.ascii	"lbm_uint\000"
 2316      75696E74 
 2316      00
 2317              	.LASF103:
 2318 04cc 5F6D626C 		.ascii	"_mblen_state\000"
 2318      656E5F73 
 2318      74617465 
 2318      00
 2319              	.LASF70:
 2320 04d9 5F696E63 		.ascii	"_inc\000"
 2320      00
 2321              	.LASF43:
 2322 04de 5F696E64 		.ascii	"_ind\000"
 2322      00
 2323              	.LASF73:
 2324 04e3 5F6C6F63 		.ascii	"_locale\000"
 2324      616C6500 
 2325              	.LASF75:
 2326 04eb 5F5F636C 		.ascii	"__cleanup\000"
 2326      65616E75 
 2326      7000
 2327              	.LASF72:
 2328 04f5 5F756E73 		.ascii	"_unspecified_locale_info\000"
 2328      70656369 
 2328      66696564 
 2328      5F6C6F63 
 2328      616C655F 
 2329              	.LASF23:
 2330 050e 5F6D6178 		.ascii	"_maxwds\000"
 2330      77647300 
 2331              	.LASF65:
 2332 0516 5F726565 		.ascii	"_reent\000"
 2332      6E7400
 2333              	.LASF93:
 2334 051d 5F736565 		.ascii	"_seed\000"
 2334      6400
 2335              	.LASF17:
 2336 0523 5F5F636F 		.ascii	"__count\000"
 2336      756E7400 
 2337              	.LASF118:
 2338 052b 5F5F6C6F 		.ascii	"__lock\000"
 2338      636B00
 2339              	.LASF10:
 2340 0532 75696E74 		.ascii	"uint32_t\000"
 2340      33325F74 
 2340      00
 2341              	.LASF55:
 2342 053b 5F736565 		.ascii	"_seek\000"
 2342      6B00
 2343              	.LASF120:
 2344 0541 5F696D70 		.ascii	"_impure_ptr\000"
 2344      7572655F 
 2344      70747200 
 2345              	.LASF13:
ARM GAS  /tmp/ccvjNMGb.s 			page 46


 2346 054d 5F66706F 		.ascii	"_fpos_t\000"
 2346      735F7400 
 2347              	.LASF66:
 2348 0555 5F657272 		.ascii	"_errno\000"
 2348      6E6F00
 2349              	.LASF87:
 2350 055c 63686172 		.ascii	"char\000"
 2350      00
 2351              	.LASF29:
 2352 0561 5F5F746D 		.ascii	"__tm_min\000"
 2352      5F6D696E 
 2352      00
 2353              	.LASF94:
 2354 056a 5F6D756C 		.ascii	"_mult\000"
 2354      7400
 2355              	.LASF22:
 2356 0570 5F6E6578 		.ascii	"_next\000"
 2356      7400
 2357              	.LASF97:
 2358 0576 5F737472 		.ascii	"_strtok_last\000"
 2358      746F6B5F 
 2358      6C617374 
 2358      00
 2359              	.LASF18:
 2360 0583 5F5F7661 		.ascii	"__value\000"
 2360      6C756500 
 2361              	.LASF40:
 2362 058b 5F666E74 		.ascii	"_fntypes\000"
 2362      79706573 
 2362      00
 2363              	.LASF95:
 2364 0594 5F616464 		.ascii	"_add\000"
 2364      00
 2365              	.LASF21:
 2366 0599 5F5F554C 		.ascii	"__ULong\000"
 2366      6F6E6700 
 2367              	.LASF108:
 2368 05a1 5F676574 		.ascii	"_getdate_err\000"
 2368      64617465 
 2368      5F657272 
 2368      00
 2369              	.LASF131:
 2370 05ae 6C626D5F 		.ascii	"lbm_add_extension\000"
 2370      6164645F 
 2370      65787465 
 2370      6E73696F 
 2370      6E00
 2371              	.LASF121:
 2372 05c0 5F676C6F 		.ascii	"_global_impure_ptr\000"
 2372      62616C5F 
 2372      696D7075 
 2372      72655F70 
 2372      747200
 2373              	.LASF96:
 2374 05d3 5F756E75 		.ascii	"_unused_rand\000"
 2374      7365645F 
 2374      72616E64 
ARM GAS  /tmp/ccvjNMGb.s 			page 47


 2374      00
 2375              	.LASF25:
 2376 05e0 5F776473 		.ascii	"_wds\000"
 2376      00
 2377              	.LASF34:
 2378 05e5 5F5F746D 		.ascii	"__tm_wday\000"
 2378      5F776461 
 2378      7900
 2379              	.LASF89:
 2380 05ef 5F676C75 		.ascii	"_glue\000"
 2380      6500
 2381              	.LASF132:
 2382 05f5 6C626D5F 		.ascii	"lbm_get_extension\000"
 2382      6765745F 
 2382      65787465 
 2382      6E73696F 
 2382      6E00
 2383              	.LASF116:
 2384 0607 5F6E6D61 		.ascii	"_nmalloc\000"
 2384      6C6C6F63 
 2384      00
 2385              	.LASF106:
 2386 0610 5F6C3634 		.ascii	"_l64a_buf\000"
 2386      615F6275 
 2386      6600
 2387              	.LASF84:
 2388 061a 5F736967 		.ascii	"_sig_func\000"
 2388      5F66756E 
 2388      6300
 2389              	.LASF58:
 2390 0624 5F6E6275 		.ascii	"_nbuf\000"
 2390      6600
 2391              	.LASF117:
 2392 062a 5F756E75 		.ascii	"_unused\000"
 2392      73656400 
 2393              	.LASF36:
 2394 0632 5F5F746D 		.ascii	"__tm_isdst\000"
 2394      5F697364 
 2394      737400
 2395              	.LASF99:
 2396 063d 5F6C6F63 		.ascii	"_localtime_buf\000"
 2396      616C7469 
 2396      6D655F62 
 2396      756600
 2397              	.LASF56:
 2398 064c 5F636C6F 		.ascii	"_close\000"
 2398      736500
 2399              	.LASF102:
 2400 0653 5F723438 		.ascii	"_r48\000"
 2400      00
 2401              	.LASF104:
 2402 0658 5F6D6274 		.ascii	"_mbtowc_state\000"
 2402      6F77635F 
 2402      73746174 
 2402      6500
 2403              	.LASF78:
 2404 0666 5F703573 		.ascii	"_p5s\000"
ARM GAS  /tmp/ccvjNMGb.s 			page 48


 2404      00
 2405              	.LASF31:
 2406 066b 5F5F746D 		.ascii	"__tm_mday\000"
 2406      5F6D6461 
 2406      7900
 2407              		.ident	"GCC: (GNU Tools for Arm Embedded Processors 7-2018-q3-update) 7.3.1 20180622 (release) [AR
ARM GAS  /tmp/ccvjNMGb.s 			page 49


DEFINED SYMBOLS
                            *ABS*:0000000000000000 extensions.c
     /tmp/ccvjNMGb.s:18     .text.lbm_extensions_init:0000000000000000 $t
     /tmp/ccvjNMGb.s:26     .text.lbm_extensions_init:0000000000000000 lbm_extensions_init
     /tmp/ccvjNMGb.s:44     .text.lbm_extensions_init:000000000000000c $d
     /tmp/ccvjNMGb.s:49     .text.lbm_get_extension:0000000000000000 $t
     /tmp/ccvjNMGb.s:57     .text.lbm_get_extension:0000000000000000 lbm_get_extension
     /tmp/ccvjNMGb.s:102    .text.lbm_get_extension:0000000000000024 $d
     /tmp/ccvjNMGb.s:107    .text.lbm_add_extension:0000000000000000 $t
     /tmp/ccvjNMGb.s:115    .text.lbm_add_extension:0000000000000000 lbm_add_extension
     /tmp/ccvjNMGb.s:182    .text.lbm_add_extension:0000000000000034 $d
     /tmp/ccvjNMGb.s:192    .bss.extensions:0000000000000000 extensions
     /tmp/ccvjNMGb.s:188    .bss.extensions:0000000000000000 $d

UNDEFINED SYMBOLS
lbm_add_symbol_const
lbm_memory_allocate
