ARM GAS  /tmp/ccvjNMGb.s 			page 1


   1              		.cpu cortex-m4
   2              		.eabi_attribute 27, 1
   3              		.eabi_attribute 28, 1
   4              		.eabi_attribute 20, 1
   5              		.eabi_attribute 21, 1
   6              		.eabi_attribute 23, 3
   7              		.eabi_attribute 24, 1
   8              		.eabi_attribute 25, 1
   9              		.eabi_attribute 26, 1
  10              		.eabi_attribute 30, 2
  11              		.eabi_attribute 34, 1
  12              		.eabi_attribute 18, 4
  13              		.file	"extensions.c"
  14              		.text
  15              	.Ltext0:
  16              		.cfi_sections	.debug_frame
  17              		.section	.text.lbm_extensions_init,"ax",%progbits
  18              		.align	1
  19              		.p2align 4,,15
  20              		.global	lbm_extensions_init
  21              		.syntax unified
  22              		.thumb
  23              		.thumb_func
  24              		.fpu fpv4-sp-d16
  25              		.type	lbm_extensions_init, %function
  26              	lbm_extensions_init:
  27              	.LFB37:
  28              		.file 1 "lispBM/lispBM/src/extensions.c"
  29              		.loc 1 39 0
  30              		.cfi_startproc
  31              		@ args = 0, pretend = 0, frame = 0
  32              		@ frame_needed = 0, uses_anonymous_args = 0
  33              		@ link register save eliminated.
  34              		.loc 1 40 0
  35 0000 024B     		ldr	r3, .L3
  36 0002 0022     		movs	r2, #0
  37 0004 1A60     		str	r2, [r3]
  38              		.loc 1 42 0
  39 0006 0120     		movs	r0, #1
  40 0008 7047     		bx	lr
  41              	.L4:
  42 000a 00BF     		.align	2
  43              	.L3:
  44 000c 00000000 		.word	.LANCHOR0
  45              		.cfi_endproc
  46              	.LFE37:
  47              		.size	lbm_extensions_init, .-lbm_extensions_init
  48              		.section	.text.lbm_get_extension,"ax",%progbits
  49              		.align	1
  50              		.p2align 4,,15
  51              		.global	lbm_get_extension
  52              		.syntax unified
  53              		.thumb
  54              		.thumb_func
  55              		.fpu fpv4-sp-d16
  56              		.type	lbm_get_extension, %function
  57              	lbm_get_extension:
ARM GAS  /tmp/ccvjNMGb.s 			page 2


  58              	.LFB38:
  59              		.loc 1 44 0
  60              		.cfi_startproc
  61              		@ args = 0, pretend = 0, frame = 0
  62              		@ frame_needed = 0, uses_anonymous_args = 0
  63              		@ link register save eliminated.
  64              	.LVL0:
  65              		.loc 1 45 0
  66 0000 084B     		ldr	r3, .L12
  67 0002 1B68     		ldr	r3, [r3]
  68              	.LVL1:
  69              		.loc 1 46 0
  70 0004 4BB1     		cbz	r3, .L10
  71              		.loc 1 47 0
  72 0006 1A68     		ldr	r2, [r3]
  73 0008 9042     		cmp	r0, r2
  74 000a 03D1     		bne	.L8
  75 000c 07E0     		b	.L7
  76              	.L9:
  77 000e 1A68     		ldr	r2, [r3]
  78 0010 8242     		cmp	r2, r0
  79 0012 04D0     		beq	.L7
  80              	.L8:
  81              		.loc 1 50 0
  82 0014 9B68     		ldr	r3, [r3, #8]
  83              	.LVL2:
  84              		.loc 1 46 0
  85 0016 002B     		cmp	r3, #0
  86 0018 F9D1     		bne	.L9
  87              	.L10:
  88              		.loc 1 52 0
  89 001a 1846     		mov	r0, r3
  90              	.LVL3:
  91              		.loc 1 53 0
  92 001c 7047     		bx	lr
  93              	.LVL4:
  94              	.L7:
  95              		.loc 1 48 0
  96 001e 5868     		ldr	r0, [r3, #4]
  97              	.LVL5:
  98 0020 7047     		bx	lr
  99              	.L13:
 100 0022 00BF     		.align	2
 101              	.L12:
 102 0024 00000000 		.word	.LANCHOR0
 103              		.cfi_endproc
 104              	.LFE38:
 105              		.size	lbm_get_extension, .-lbm_get_extension
 106              		.section	.text.lbm_add_extension,"ax",%progbits
 107              		.align	1
 108              		.p2align 4,,15
 109              		.global	lbm_add_extension
 110              		.syntax unified
 111              		.thumb
 112              		.thumb_func
 113              		.fpu fpv4-sp-d16
 114              		.type	lbm_add_extension, %function
ARM GAS  /tmp/ccvjNMGb.s 			page 3


 115              	lbm_add_extension:
 116              	.LFB39:
 117              		.loc 1 55 0
 118              		.cfi_startproc
 119              		@ args = 0, pretend = 0, frame = 8
 120              		@ frame_needed = 0, uses_anonymous_args = 0
 121              	.LVL6:
 122 0000 10B5     		push	{r4, lr}
 123              		.cfi_def_cfa_offset 8
 124              		.cfi_offset 4, -8
 125              		.cfi_offset 14, -4
 126 0002 82B0     		sub	sp, sp, #8
 127              		.cfi_def_cfa_offset 16
 128              		.loc 1 55 0
 129 0004 0C46     		mov	r4, r1
 130              		.loc 1 57 0
 131 0006 01A9     		add	r1, sp, #4
 132              	.LVL7:
 133 0008 FFF7FEFF 		bl	lbm_add_symbol_const
 134              	.LVL8:
 135              		.loc 1 59 0
 136 000c 10B9     		cbnz	r0, .L15
 137              	.LVL9:
 138              	.L17:
 139 000e 0020     		movs	r0, #0
 140              		.loc 1 70 0
 141 0010 02B0     		add	sp, sp, #8
 142              		.cfi_remember_state
 143              		.cfi_def_cfa_offset 8
 144              		@ sp needed
 145 0012 10BD     		pop	{r4, pc}
 146              	.LVL10:
 147              	.L15:
 148              		.cfi_restore_state
 149              		.loc 1 61 0
 150 0014 0320     		movs	r0, #3
 151              	.LVL11:
 152 0016 FFF7FEFF 		bl	lbm_memory_allocate
 153              	.LVL12:
 154              		.loc 1 63 0
 155 001a 0346     		mov	r3, r0
 156 001c 0028     		cmp	r0, #0
 157 001e F6D0     		beq	.L17
 158              		.loc 1 67 0
 159 0020 044A     		ldr	r2, .L22
 160              		.loc 1 65 0
 161 0022 0199     		ldr	r1, [sp, #4]
 162              		.loc 1 67 0
 163 0024 1068     		ldr	r0, [r2]
 164              	.LVL13:
 165              		.loc 1 65 0
 166 0026 1960     		str	r1, [r3]
 167              		.loc 1 67 0
 168 0028 C3E90140 		strd	r4, r0, [r3, #4]
 169              		.loc 1 69 0
 170 002c 0120     		movs	r0, #1
 171              		.loc 1 68 0
ARM GAS  /tmp/ccvjNMGb.s 			page 4


 172 002e 1360     		str	r3, [r2]
 173              		.loc 1 70 0
 174 0030 02B0     		add	sp, sp, #8
 175              		.cfi_def_cfa_offset 8
 176              		@ sp needed
 177 0032 10BD     		pop	{r4, pc}
 178              	.LVL14:
 179              	.L23:
 180              		.align	2
 181              	.L22:
 182 0034 00000000 		.word	.LANCHOR0
 183              		.cfi_endproc
 184              	.LFE39:
 185              		.size	lbm_add_extension, .-lbm_add_extension
 186              		.global	extensions
 187              		.section	.bss.extensions,"aw",%nobits
 188              		.align	2
 189              		.set	.LANCHOR0,. + 0
 190              		.type	extensions, %object
 191              		.size	extensions, 4
 192              	extensions:
 193 0000 00000000 		.space	4
 194              		.text
 195              	.Letext0:
 196              		.file 2 "/usr/arm-none-eabi/include/machine/_default_types.h"
 197              		.file 3 "/usr/arm-none-eabi/include/sys/_stdint.h"
 198              		.file 4 "/usr/arm-none-eabi/include/sys/lock.h"
 199              		.file 5 "/usr/arm-none-eabi/include/sys/_types.h"
 200              		.file 6 "/usr/lib/gcc/arm-none-eabi/7.3.1/include/stddef.h"
 201              		.file 7 "/usr/arm-none-eabi/include/sys/reent.h"
 202              		.file 8 "/usr/arm-none-eabi/include/stdlib.h"
 203              		.file 9 "lispBM/lispBM/include/lbm_types.h"
 204              		.file 10 "lispBM/lispBM/include/extensions.h"
 205              		.file 11 "lispBM/lispBM/include/symrepr.h"
 206              		.file 12 "lispBM/lispBM/include/lbm_memory.h"