ARM GAS  /tmp/ccOpqeZy.s 			page 1


   1              		.cpu cortex-m4
   2              		.eabi_attribute 27, 1
   3              		.eabi_attribute 28, 1
   4              		.eabi_attribute 20, 1
   5              		.eabi_attribute 21, 1
   6              		.eabi_attribute 23, 3
   7              		.eabi_attribute 24, 1
   8              		.eabi_attribute 25, 1
   9              		.eabi_attribute 26, 1
  10              		.eabi_attribute 30, 2
  11              		.eabi_attribute 34, 1
  12              		.eabi_attribute 18, 4
  13              		.file	"file_BeginFirmwareUpdate.c"
  14              		.text
  15              	.Ltext0:
  16              		.cfi_sections	.debug_frame
  17              		.section	.text.uavcan_protocol_file_BeginFirmwareUpdateRequest_encode_internal,"ax",%progbits
  18              		.align	1
  19              		.p2align 4,,15
  20              		.global	uavcan_protocol_file_BeginFirmwareUpdateRequest_encode_internal
  21              		.syntax unified
  22              		.thumb
  23              		.thumb_func
  24              		.fpu fpv4-sp-d16
  25              		.type	uavcan_protocol_file_BeginFirmwareUpdateRequest_encode_internal, %function
  26              	uavcan_protocol_file_BeginFirmwareUpdateRequest_encode_internal:
  27              	.LFB0:
  28              		.file 1 "libcanard/dsdl/uavcan/protocol/file/file_BeginFirmwareUpdate.c"
  29              		.loc 1 37 0
  30              		.cfi_startproc
  31              		@ args = 0, pretend = 0, frame = 0
  32              		@ frame_needed = 0, uses_anonymous_args = 0
  33              	.LVL0:
  34 0000 70B5     		push	{r4, r5, r6, lr}
  35              		.cfi_def_cfa_offset 16
  36              		.cfi_offset 4, -16
  37              		.cfi_offset 5, -12
  38              		.cfi_offset 6, -8
  39              		.cfi_offset 14, -4
  40              		.loc 1 37 0
  41 0002 0D46     		mov	r5, r1
  42 0004 0446     		mov	r4, r0
  43 0006 1646     		mov	r6, r2
  44              		.loc 1 38 0
  45 0008 0346     		mov	r3, r0
  46              	.LVL1:
  47 000a 1146     		mov	r1, r2
  48              	.LVL2:
  49 000c 2846     		mov	r0, r5
  50              	.LVL3:
  51 000e 0822     		movs	r2, #8
  52              	.LVL4:
  53 0010 FFF7FEFF 		bl	canardEncodeScalar
  54              	.LVL5:
  55              		.loc 1 42 0
  56 0014 06F10802 		add	r2, r6, #8
  57              	.LVL6:
ARM GAS  /tmp/ccOpqeZy.s 			page 2


  58 0018 2946     		mov	r1, r5
  59 001a 201D     		adds	r0, r4, #4
  60 001c 0023     		movs	r3, #0
  61              		.loc 1 45 0
  62 001e BDE87040 		pop	{r4, r5, r6, lr}
  63              		.cfi_restore 14
  64              		.cfi_restore 6
  65              		.cfi_restore 5
  66              		.cfi_restore 4
  67              		.cfi_def_cfa_offset 0
  68              	.LVL7:
  69              		.loc 1 42 0
  70 0022 FFF7FEBF 		b	uavcan_protocol_file_Path_encode_internal
  71              	.LVL8:
  72              		.cfi_endproc
  73              	.LFE0:
  74              		.size	uavcan_protocol_file_BeginFirmwareUpdateRequest_encode_internal, .-uavcan_protocol_file_Begi
  75 0026 00BF     		.section	.text.uavcan_protocol_file_BeginFirmwareUpdateRequest_encode,"ax",%progbits
  76              		.align	1
  77              		.p2align 4,,15
  78              		.global	uavcan_protocol_file_BeginFirmwareUpdateRequest_encode
  79              		.syntax unified
  80              		.thumb
  81              		.thumb_func
  82              		.fpu fpv4-sp-d16
  83              		.type	uavcan_protocol_file_BeginFirmwareUpdateRequest_encode, %function
  84              	uavcan_protocol_file_BeginFirmwareUpdateRequest_encode:
  85              	.LFB1:
  86              		.loc 1 54 0
  87              		.cfi_startproc
  88              		@ args = 0, pretend = 0, frame = 0
  89              		@ frame_needed = 0, uses_anonymous_args = 0
  90              	.LVL9:
  91 0000 08B5     		push	{r3, lr}
  92              		.cfi_def_cfa_offset 8
  93              		.cfi_offset 3, -8
  94              		.cfi_offset 14, -4
  95              		.loc 1 57 0
  96 0002 0022     		movs	r2, #0
  97 0004 0123     		movs	r3, #1
  98 0006 FFF7FEFF 		bl	uavcan_protocol_file_BeginFirmwareUpdateRequest_encode_internal
  99              	.LVL10:
 100              		.loc 1 59 0
 101 000a 0730     		adds	r0, r0, #7
 102              	.LVL11:
 103              		.loc 1 60 0
 104 000c C008     		lsrs	r0, r0, #3
 105              	.LVL12:
 106 000e 08BD     		pop	{r3, pc}
 107              		.cfi_endproc
 108              	.LFE1:
 109              		.size	uavcan_protocol_file_BeginFirmwareUpdateRequest_encode, .-uavcan_protocol_file_BeginFirmware
 110              		.section	.text.uavcan_protocol_file_BeginFirmwareUpdateRequest_decode_internal,"ax",%progbits
 111              		.align	1
 112              		.p2align 4,,15
 113              		.global	uavcan_protocol_file_BeginFirmwareUpdateRequest_decode_internal
 114              		.syntax unified
ARM GAS  /tmp/ccOpqeZy.s 			page 3


 115              		.thumb
 116              		.thumb_func
 117              		.fpu fpv4-sp-d16
 118              		.type	uavcan_protocol_file_BeginFirmwareUpdateRequest_decode_internal, %function
 119              	uavcan_protocol_file_BeginFirmwareUpdateRequest_decode_internal:
 120              	.LFB2:
 121              		.loc 1 79 0
 122              		.cfi_startproc
 123              		@ args = 4, pretend = 0, frame = 0
 124              		@ frame_needed = 0, uses_anonymous_args = 0
 125              	.LVL13:
 126 0000 2DE9F041 		push	{r4, r5, r6, r7, r8, lr}
 127              		.cfi_def_cfa_offset 24
 128              		.cfi_offset 4, -24
 129              		.cfi_offset 5, -20
 130              		.cfi_offset 6, -16
 131              		.cfi_offset 7, -12
 132              		.cfi_offset 8, -8
 133              		.cfi_offset 14, -4
 134 0004 82B0     		sub	sp, sp, #8
 135              		.cfi_def_cfa_offset 32
 136              		.loc 1 79 0
 137 0006 1546     		mov	r5, r2
 138 0008 089C     		ldr	r4, [sp, #32]
 139              		.loc 1 82 0
 140 000a 0092     		str	r2, [sp]
 141              		.loc 1 79 0
 142 000c 0F46     		mov	r7, r1
 143 000e 9846     		mov	r8, r3
 144              		.loc 1 82 0
 145 0010 2146     		mov	r1, r4
 146              	.LVL14:
 147 0012 0023     		movs	r3, #0
 148              	.LVL15:
 149 0014 0822     		movs	r2, #8
 150              	.LVL16:
 151              		.loc 1 79 0
 152 0016 0646     		mov	r6, r0
 153              		.loc 1 82 0
 154 0018 FFF7FEFF 		bl	canardDecodeScalar
 155              	.LVL17:
 156              		.loc 1 83 0
 157 001c 0828     		cmp	r0, #8
 158 001e 06D0     		beq	.L10
 159              	.L7:
 160              		.loc 1 105 0
 161 0020 0028     		cmp	r0, #0
 162              		.loc 1 107 0
 163 0022 A8BF     		it	ge
 164 0024 6FF00800 		mvnge	r0, #8
 165              	.LVL18:
 166 0028 02B0     		add	sp, sp, #8
 167              		.cfi_remember_state
 168              		.cfi_def_cfa_offset 24
 169              		@ sp needed
 170 002a BDE8F081 		pop	{r4, r5, r6, r7, r8, pc}
 171              	.LVL19:
ARM GAS  /tmp/ccOpqeZy.s 			page 4


 172              	.L10:
 173              		.cfi_restore_state
 174              		.loc 1 87 0
 175 002e 0834     		adds	r4, r4, #8
 176              	.LVL20:
 177              		.loc 1 90 0
 178 0030 4346     		mov	r3, r8
 179 0032 2A1D     		adds	r2, r5, #4
 180 0034 3946     		mov	r1, r7
 181 0036 3046     		mov	r0, r6
 182              	.LVL21:
 183 0038 0894     		str	r4, [sp, #32]
 184              		.loc 1 107 0
 185 003a 02B0     		add	sp, sp, #8
 186              		.cfi_def_cfa_offset 24
 187              		@ sp needed
 188 003c BDE8F041 		pop	{r4, r5, r6, r7, r8, lr}
 189              		.cfi_restore 14
 190              		.cfi_restore 8
 191              		.cfi_restore 7
 192              		.cfi_restore 6
 193              		.cfi_restore 5
 194              		.cfi_restore 4
 195              		.cfi_def_cfa_offset 0
 196              	.LVL22:
 197              		.loc 1 90 0
 198 0040 FFF7FEBF 		b	uavcan_protocol_file_Path_decode_internal
 199              	.LVL23:
 200              		.cfi_endproc
 201              	.LFE2:
 202              		.size	uavcan_protocol_file_BeginFirmwareUpdateRequest_decode_internal, .-uavcan_protocol_file_Begi
 203              		.section	.text.uavcan_protocol_file_BeginFirmwareUpdateRequest_decode,"ax",%progbits
 204              		.align	1
 205              		.p2align 4,,15
 206              		.global	uavcan_protocol_file_BeginFirmwareUpdateRequest_decode
 207              		.syntax unified
 208              		.thumb
 209              		.thumb_func
 210              		.fpu fpv4-sp-d16
 211              		.type	uavcan_protocol_file_BeginFirmwareUpdateRequest_decode, %function
 212              	uavcan_protocol_file_BeginFirmwareUpdateRequest_decode:
 213              	.LFB3:
 214              		.loc 1 123 0
 215              		.cfi_startproc
 216              		@ args = 0, pretend = 0, frame = 0
 217              		@ frame_needed = 0, uses_anonymous_args = 0
 218              	.LVL24:
 219 0000 70B5     		push	{r4, r5, r6, lr}
 220              		.cfi_def_cfa_offset 16
 221              		.cfi_offset 4, -16
 222              		.cfi_offset 5, -12
 223              		.cfi_offset 6, -8
 224              		.cfi_offset 14, -4
 225 0002 541E     		subs	r4, r2, #1
 226 0004 82B0     		sub	sp, sp, #8
 227              		.cfi_def_cfa_offset 24
 228 0006 02F10B06 		add	r6, r2, #11
ARM GAS  /tmp/ccOpqeZy.s 			page 5


 229              	.LBB2:
 230              		.loc 1 130 0
 231 000a 0025     		movs	r5, #0
 232              	.LVL25:
 233              	.L12:
 234              		.loc 1 130 0 is_stmt 0 discriminator 3
 235 000c 04F8015F 		strb	r5, [r4, #1]!
 236              		.loc 1 128 0 is_stmt 1 discriminator 3
 237 0010 B442     		cmp	r4, r6
 238 0012 FBD1     		bne	.L12
 239              	.LBE2:
 240              		.loc 1 133 0
 241 0014 0095     		str	r5, [sp]
 242 0016 FFF7FEFF 		bl	uavcan_protocol_file_BeginFirmwareUpdateRequest_decode_internal
 243              	.LVL26:
 244              		.loc 1 136 0
 245 001a 02B0     		add	sp, sp, #8
 246              		.cfi_def_cfa_offset 16
 247              		@ sp needed
 248 001c 70BD     		pop	{r4, r5, r6, pc}
 249              		.cfi_endproc
 250              	.LFE3:
 251              		.size	uavcan_protocol_file_BeginFirmwareUpdateRequest_decode, .-uavcan_protocol_file_BeginFirmware
 252 001e 00BF     		.section	.text.uavcan_protocol_file_BeginFirmwareUpdateResponse_encode_internal,"ax",%progbits
 253              		.align	1
 254              		.p2align 4,,15
 255              		.global	uavcan_protocol_file_BeginFirmwareUpdateResponse_encode_internal
 256              		.syntax unified
 257              		.thumb
 258              		.thumb_func
 259              		.fpu fpv4-sp-d16
 260              		.type	uavcan_protocol_file_BeginFirmwareUpdateResponse_encode_internal, %function
 261              	uavcan_protocol_file_BeginFirmwareUpdateResponse_encode_internal:
 262              	.LFB4:
 263              		.loc 1 150 0
 264              		.cfi_startproc
 265              		@ args = 0, pretend = 0, frame = 0
 266              		@ frame_needed = 0, uses_anonymous_args = 0
 267              	.LVL27:
 268 0000 2DE9F041 		push	{r4, r5, r6, r7, r8, lr}
 269              		.cfi_def_cfa_offset 24
 270              		.cfi_offset 4, -24
 271              		.cfi_offset 5, -20
 272              		.cfi_offset 6, -16
 273              		.cfi_offset 7, -12
 274              		.cfi_offset 8, -8
 275              		.cfi_offset 14, -4
 276              		.loc 1 150 0
 277 0004 0F46     		mov	r7, r1
 278 0006 1446     		mov	r4, r2
 279              		.loc 1 153 0
 280 0008 1146     		mov	r1, r2
 281              	.LVL28:
 282              		.loc 1 150 0
 283 000a 0646     		mov	r6, r0
 284 000c 9846     		mov	r8, r3
 285              		.loc 1 153 0
ARM GAS  /tmp/ccOpqeZy.s 			page 6


 286 000e 0822     		movs	r2, #8
 287              	.LVL29:
 288 0010 0346     		mov	r3, r0
 289              	.LVL30:
 290 0012 3846     		mov	r0, r7
 291              	.LVL31:
 292 0014 FFF7FEFF 		bl	canardEncodeScalar
 293              	.LVL32:
 294              		.loc 1 154 0
 295 0018 04F10805 		add	r5, r4, #8
 296              	.LVL33:
 297              		.loc 1 157 0
 298 001c B8F1000F 		cmp	r8, #0
 299 0020 12D0     		beq	.L24
 300              	.L16:
 301              		.loc 1 165 0 discriminator 1
 302 0022 3379     		ldrb	r3, [r6, #4]	@ zero_extendqisi2
 303 0024 6BB1     		cbz	r3, .L15
 304              		.loc 1 165 0 is_stmt 0
 305 0026 0024     		movs	r4, #0
 306              	.LVL34:
 307              	.L18:
 308              		.loc 1 170 0 is_stmt 1 discriminator 3
 309 0028 B368     		ldr	r3, [r6, #8]
 310              		.loc 1 167 0 discriminator 3
 311 002a 2946     		mov	r1, r5
 312 002c 2344     		add	r3, r3, r4
 313 002e 0822     		movs	r2, #8
 314 0030 3846     		mov	r0, r7
 315 0032 FFF7FEFF 		bl	canardEncodeScalar
 316              	.LVL35:
 317              		.loc 1 165 0 discriminator 3
 318 0036 3379     		ldrb	r3, [r6, #4]	@ zero_extendqisi2
 319 0038 0134     		adds	r4, r4, #1
 320              	.LVL36:
 321 003a A342     		cmp	r3, r4
 322              		.loc 1 171 0 discriminator 3
 323 003c 05F10805 		add	r5, r5, #8
 324              	.LVL37:
 325              		.loc 1 165 0 discriminator 3
 326 0040 F2D8     		bhi	.L18
 327              	.LVL38:
 328              	.L15:
 329              		.loc 1 175 0
 330 0042 2846     		mov	r0, r5
 331 0044 BDE8F081 		pop	{r4, r5, r6, r7, r8, pc}
 332              	.LVL39:
 333              	.L24:
 334              		.loc 1 160 0
 335 0048 2946     		mov	r1, r5
 336 004a 331D     		adds	r3, r6, #4
 337 004c 0722     		movs	r2, #7
 338 004e 3846     		mov	r0, r7
 339 0050 FFF7FEFF 		bl	canardEncodeScalar
 340              	.LVL40:
 341              		.loc 1 161 0
 342 0054 04F10F05 		add	r5, r4, #15
ARM GAS  /tmp/ccOpqeZy.s 			page 7


 343              	.LVL41:
 344 0058 E3E7     		b	.L16
 345              		.cfi_endproc
 346              	.LFE4:
 347              		.size	uavcan_protocol_file_BeginFirmwareUpdateResponse_encode_internal, .-uavcan_protocol_file_Beg
 348 005a 00BF     		.section	.text.uavcan_protocol_file_BeginFirmwareUpdateResponse_encode,"ax",%progbits
 349              		.align	1
 350              		.p2align 4,,15
 351              		.global	uavcan_protocol_file_BeginFirmwareUpdateResponse_encode
 352              		.syntax unified
 353              		.thumb
 354              		.thumb_func
 355              		.fpu fpv4-sp-d16
 356              		.type	uavcan_protocol_file_BeginFirmwareUpdateResponse_encode, %function
 357              	uavcan_protocol_file_BeginFirmwareUpdateResponse_encode:
 358              	.LFB5:
 359              		.loc 1 184 0
 360              		.cfi_startproc
 361              		@ args = 0, pretend = 0, frame = 0
 362              		@ frame_needed = 0, uses_anonymous_args = 0
 363              	.LVL42:
 364 0000 08B5     		push	{r3, lr}
 365              		.cfi_def_cfa_offset 8
 366              		.cfi_offset 3, -8
 367              		.cfi_offset 14, -4
 368              		.loc 1 187 0
 369 0002 0022     		movs	r2, #0
 370 0004 0123     		movs	r3, #1
 371 0006 FFF7FEFF 		bl	uavcan_protocol_file_BeginFirmwareUpdateResponse_encode_internal
 372              	.LVL43:
 373              		.loc 1 189 0
 374 000a 0730     		adds	r0, r0, #7
 375              	.LVL44:
 376              		.loc 1 190 0
 377 000c C008     		lsrs	r0, r0, #3
 378              	.LVL45:
 379 000e 08BD     		pop	{r3, pc}
 380              		.cfi_endproc
 381              	.LFE5:
 382              		.size	uavcan_protocol_file_BeginFirmwareUpdateResponse_encode, .-uavcan_protocol_file_BeginFirmwar
 383              		.section	.text.uavcan_protocol_file_BeginFirmwareUpdateResponse_decode_internal,"ax",%progbits
 384              		.align	1
 385              		.p2align 4,,15
 386              		.global	uavcan_protocol_file_BeginFirmwareUpdateResponse_decode_internal
 387              		.syntax unified
 388              		.thumb
 389              		.thumb_func
 390              		.fpu fpv4-sp-d16
 391              		.type	uavcan_protocol_file_BeginFirmwareUpdateResponse_decode_internal, %function
 392              	uavcan_protocol_file_BeginFirmwareUpdateResponse_decode_internal:
 393              	.LFB6:
 394              		.loc 1 209 0
 395              		.cfi_startproc
 396              		@ args = 4, pretend = 0, frame = 0
 397              		@ frame_needed = 0, uses_anonymous_args = 0
 398              	.LVL46:
 399 0000 2DE9F043 		push	{r4, r5, r6, r7, r8, r9, lr}
ARM GAS  /tmp/ccOpqeZy.s 			page 8


 400              		.cfi_def_cfa_offset 28
 401              		.cfi_offset 4, -28
 402              		.cfi_offset 5, -24
 403              		.cfi_offset 6, -20
 404              		.cfi_offset 7, -16
 405              		.cfi_offset 8, -12
 406              		.cfi_offset 9, -8
 407              		.cfi_offset 14, -4
 408 0004 83B0     		sub	sp, sp, #12
 409              		.cfi_def_cfa_offset 40
 410              		.loc 1 209 0
 411 0006 1746     		mov	r7, r2
 412              		.loc 1 213 0
 413 0008 0092     		str	r2, [sp]
 414              		.loc 1 209 0
 415 000a 0E46     		mov	r6, r1
 416 000c 1D46     		mov	r5, r3
 417              		.loc 1 213 0
 418 000e 0A99     		ldr	r1, [sp, #40]
 419              	.LVL47:
 420 0010 0023     		movs	r3, #0
 421              	.LVL48:
 422 0012 0822     		movs	r2, #8
 423              	.LVL49:
 424              		.loc 1 209 0
 425 0014 8146     		mov	r9, r0
 426              		.loc 1 213 0
 427 0016 FFF7FEFF 		bl	canardDecodeScalar
 428              	.LVL50:
 429              		.loc 1 214 0
 430 001a 0828     		cmp	r0, #8
 431              		.loc 1 213 0
 432 001c 0446     		mov	r4, r0
 433              	.LVL51:
 434              		.loc 1 214 0
 435 001e 07D0     		beq	.L49
 436              	.LVL52:
 437              	.L28:
 438              		.loc 1 274 0
 439 0020 002C     		cmp	r4, #0
 440 0022 A8BF     		it	ge
 441 0024 6FF00804 		mvnge	r4, #8
 442              	.LVL53:
 443              	.L27:
 444              		.loc 1 276 0
 445 0028 2046     		mov	r0, r4
 446 002a 03B0     		add	sp, sp, #12
 447              		.cfi_remember_state
 448              		.cfi_def_cfa_offset 28
 449              		@ sp needed
 450 002c BDE8F083 		pop	{r4, r5, r6, r7, r8, r9, pc}
 451              	.LVL54:
 452              	.L49:
 453              		.cfi_restore_state
 454              		.loc 1 218 0
 455 0030 0A9B     		ldr	r3, [sp, #40]
 456 0032 03F10804 		add	r4, r3, #8
ARM GAS  /tmp/ccOpqeZy.s 			page 9


 457              	.LVL55:
 458              		.loc 1 222 0
 459 0036 2EB3     		cbz	r6, .L29
 460              		.loc 1 225 0
 461 0038 D4EBC606 		rsbs	r6, r4, r6, lsl #3
 462 003c 48BF     		it	mi
 463 003e 0736     		addmi	r6, r6, #7
 464 0040 C6F3C706 		ubfx	r6, r6, #3, #8
 465 0044 3E71     		strb	r6, [r7, #4]
 466              		.loc 1 243 0
 467 0046 0DB1     		cbz	r5, .L32
 468              	.L51:
 469              		.loc 1 245 0
 470 0048 2B68     		ldr	r3, [r5]
 471 004a BB60     		str	r3, [r7, #8]
 472              	.L32:
 473              		.loc 1 248 0 discriminator 1
 474 004c 002E     		cmp	r6, #0
 475 004e EBD0     		beq	.L27
 476              		.loc 1 248 0 is_stmt 0
 477 0050 4FF00008 		mov	r8, #0
 478 0054 05E0     		b	.L35
 479              	.LVL56:
 480              	.L50:
 481              		.loc 1 261 0 is_stmt 1
 482 0056 2B68     		ldr	r3, [r5]
 483 0058 0133     		adds	r3, r3, #1
 484 005a 2B60     		str	r3, [r5]
 485              	.LVL57:
 486              	.L34:
 487              		.loc 1 248 0 discriminator 2
 488 005c 3B79     		ldrb	r3, [r7, #4]	@ zero_extendqisi2
 489 005e 4345     		cmp	r3, r8
 490 0060 E2D9     		bls	.L27
 491              	.LVL58:
 492              	.L35:
 493              		.loc 1 252 0
 494 0062 0822     		movs	r2, #8
 495 0064 2146     		mov	r1, r4
 496 0066 0023     		movs	r3, #0
 497 0068 4846     		mov	r0, r9
 498              		.loc 1 248 0
 499 006a 08F10108 		add	r8, r8, #1
 500              	.LVL59:
 501              		.loc 1 263 0
 502 006e 1444     		add	r4, r4, r2
 503              	.LVL60:
 504              		.loc 1 250 0
 505 0070 002D     		cmp	r5, #0
 506 0072 F3D0     		beq	.L34
 507              	.LVL61:
 508              		.loc 1 252 0
 509 0074 2E68     		ldr	r6, [r5]
 510 0076 0096     		str	r6, [sp]
 511 0078 FFF7FEFF 		bl	canardDecodeScalar
 512              	.LVL62:
 513              		.loc 1 257 0
ARM GAS  /tmp/ccOpqeZy.s 			page 10


 514 007c 0828     		cmp	r0, #8
 515 007e EAD0     		beq	.L50
 516              		.loc 1 267 0
 517 0080 0446     		mov	r4, r0
 518              	.LVL63:
 519 0082 CDE7     		b	.L28
 520              	.LVL64:
 521              	.L29:
 522              		.loc 1 234 0
 523 0084 3A1D     		adds	r2, r7, #4
 524              		.loc 1 230 0
 525 0086 2146     		mov	r1, r4
 526 0088 0092     		str	r2, [sp]
 527 008a 3346     		mov	r3, r6
 528 008c 0722     		movs	r2, #7
 529 008e 4846     		mov	r0, r9
 530              	.LVL65:
 531 0090 FFF7FEFF 		bl	canardDecodeScalar
 532              	.LVL66:
 533              		.loc 1 235 0
 534 0094 0728     		cmp	r0, #7
 535              		.loc 1 230 0
 536 0096 0446     		mov	r4, r0
 537              	.LVL67:
 538              		.loc 1 235 0
 539 0098 C2D1     		bne	.L28
 540              		.loc 1 239 0
 541 009a 0A9B     		ldr	r3, [sp, #40]
 542 009c 3E79     		ldrb	r6, [r7, #4]	@ zero_extendqisi2
 543 009e 03F10F04 		add	r4, r3, #15
 544              	.LVL68:
 545              		.loc 1 243 0
 546 00a2 002D     		cmp	r5, #0
 547 00a4 D0D1     		bne	.L51
 548 00a6 D1E7     		b	.L32
 549              		.cfi_endproc
 550              	.LFE6:
 551              		.size	uavcan_protocol_file_BeginFirmwareUpdateResponse_decode_internal, .-uavcan_protocol_file_Beg
 552              		.section	.text.uavcan_protocol_file_BeginFirmwareUpdateResponse_decode,"ax",%progbits
 553              		.align	1
 554              		.p2align 4,,15
 555              		.global	uavcan_protocol_file_BeginFirmwareUpdateResponse_decode
 556              		.syntax unified
 557              		.thumb
 558              		.thumb_func
 559              		.fpu fpv4-sp-d16
 560              		.type	uavcan_protocol_file_BeginFirmwareUpdateResponse_decode, %function
 561              	uavcan_protocol_file_BeginFirmwareUpdateResponse_decode:
 562              	.LFB7:
 563              		.loc 1 292 0
 564              		.cfi_startproc
 565              		@ args = 0, pretend = 0, frame = 0
 566              		@ frame_needed = 0, uses_anonymous_args = 0
 567              	.LVL69:
 568 0000 70B5     		push	{r4, r5, r6, lr}
 569              		.cfi_def_cfa_offset 16
 570              		.cfi_offset 4, -16
ARM GAS  /tmp/ccOpqeZy.s 			page 11


 571              		.cfi_offset 5, -12
 572              		.cfi_offset 6, -8
 573              		.cfi_offset 14, -4
 574 0002 541E     		subs	r4, r2, #1
 575 0004 82B0     		sub	sp, sp, #8
 576              		.cfi_def_cfa_offset 24
 577 0006 02F10B06 		add	r6, r2, #11
 578              	.LBB3:
 579              		.loc 1 299 0
 580 000a 0025     		movs	r5, #0
 581              	.LVL70:
 582              	.L53:
 583              		.loc 1 299 0 is_stmt 0 discriminator 3
 584 000c 04F8015F 		strb	r5, [r4, #1]!
 585              		.loc 1 297 0 is_stmt 1 discriminator 3
 586 0010 B442     		cmp	r4, r6
 587 0012 FBD1     		bne	.L53
 588              	.LBE3:
 589              		.loc 1 302 0
 590 0014 0095     		str	r5, [sp]
 591 0016 FFF7FEFF 		bl	uavcan_protocol_file_BeginFirmwareUpdateResponse_decode_internal
 592              	.LVL71:
 593              		.loc 1 305 0
 594 001a 02B0     		add	sp, sp, #8
 595              		.cfi_def_cfa_offset 16
 596              		@ sp needed
 597 001c 70BD     		pop	{r4, r5, r6, pc}
 598              		.cfi_endproc
 599              	.LFE7:
 600              		.size	uavcan_protocol_file_BeginFirmwareUpdateResponse_decode, .-uavcan_protocol_file_BeginFirmwar
 601 001e 00BF     		.text
 602              	.Letext0:
 603              		.file 2 "/usr/arm-none-eabi/include/machine/_default_types.h"
 604              		.file 3 "/usr/arm-none-eabi/include/sys/_stdint.h"
 605              		.file 4 "libcanard/canard.h"
 606              		.file 5 "libcanard/dsdl/uavcan/protocol/file/Path.h"
 607              		.file 6 "libcanard/dsdl/uavcan/protocol/file/BeginFirmwareUpdate.h"