ARM GAS  /tmp/ccOXhgjL.s 			page 1


   1              		.cpu cortex-m4
   2              		.eabi_attribute 27, 1
   3              		.eabi_attribute 28, 1
   4              		.eabi_attribute 20, 1
   5              		.eabi_attribute 21, 1
   6              		.eabi_attribute 23, 3
   7              		.eabi_attribute 24, 1
   8              		.eabi_attribute 25, 1
   9              		.eabi_attribute 26, 1
  10              		.eabi_attribute 30, 2
  11              		.eabi_attribute 34, 1
  12              		.eabi_attribute 18, 4
  13              		.file	"file_Read.c"
  14              		.text
  15              	.Ltext0:
  16              		.cfi_sections	.debug_frame
  17              		.section	.text.uavcan_protocol_file_ReadRequest_encode_internal,"ax",%progbits
  18              		.align	1
  19              		.p2align 4,,15
  20              		.global	uavcan_protocol_file_ReadRequest_encode_internal
  21              		.syntax unified
  22              		.thumb
  23              		.thumb_func
  24              		.fpu fpv4-sp-d16
  25              		.type	uavcan_protocol_file_ReadRequest_encode_internal, %function
  26              	uavcan_protocol_file_ReadRequest_encode_internal:
  27              	.LFB0:
  28              		.file 1 "libcanard/dsdl/uavcan/protocol/file/file_Read.c"
  29              		.loc 1 37 0
  30              		.cfi_startproc
  31              		@ args = 0, pretend = 0, frame = 0
  32              		@ frame_needed = 0, uses_anonymous_args = 0
  33              	.LVL0:
  34 0000 2DE9F04D 		push	{r4, r5, r6, r7, r8, r10, fp, lr}
  35              		.cfi_def_cfa_offset 32
  36              		.cfi_offset 4, -32
  37              		.cfi_offset 5, -28
  38              		.cfi_offset 6, -24
  39              		.cfi_offset 7, -20
  40              		.cfi_offset 8, -16
  41              		.cfi_offset 10, -12
  42              		.cfi_offset 11, -8
  43              		.cfi_offset 14, -4
  44              		.loc 1 38 0
  45 0004 D0E90067 		ldrd	r6, [r0]
  46 0008 4FF0FF0B 		mov	fp, #255
  47 000c BB45     		cmp	fp, r7
  48 000e 4FF0FF3A 		mov	r10, #-1
  49 0012 08BF     		it	eq
  50 0014 B245     		cmpeq	r10, r6
  51              		.loc 1 37 0
  52 0016 0D46     		mov	r5, r1
  53 0018 9046     		mov	r8, r2
  54              		.loc 1 38 0
  55 001a 3CBF     		itt	cc
  56 001c 5646     		movcc	r6, r10
  57 001e 5F46     		movcc	r7, fp
ARM GAS  /tmp/ccOXhgjL.s 			page 2


  58              		.loc 1 37 0
  59 0020 0446     		mov	r4, r0
  60              		.loc 1 38 0
  61 0022 C0E90067 		strd	r6, [r0]
  62              		.loc 1 39 0
  63 0026 0346     		mov	r3, r0
  64              	.LVL1:
  65 0028 4146     		mov	r1, r8
  66              	.LVL2:
  67 002a 2846     		mov	r0, r5
  68              	.LVL3:
  69 002c 2822     		movs	r2, #40
  70              	.LVL4:
  71 002e FFF7FEFF 		bl	canardEncodeScalar
  72              	.LVL5:
  73              		.loc 1 43 0
  74 0032 08F12802 		add	r2, r8, #40
  75              	.LVL6:
  76 0036 2946     		mov	r1, r5
  77 0038 04F10800 		add	r0, r4, #8
  78 003c 0023     		movs	r3, #0
  79              		.loc 1 46 0
  80 003e BDE8F04D 		pop	{r4, r5, r6, r7, r8, r10, fp, lr}
  81              		.cfi_restore 14
  82              		.cfi_restore 11
  83              		.cfi_restore 10
  84              		.cfi_restore 8
  85              		.cfi_restore 7
  86              		.cfi_restore 6
  87              		.cfi_restore 5
  88              		.cfi_restore 4
  89              		.cfi_def_cfa_offset 0
  90              	.LVL7:
  91              		.loc 1 43 0
  92 0042 FFF7FEBF 		b	uavcan_protocol_file_Path_encode_internal
  93              	.LVL8:
  94              		.cfi_endproc
  95              	.LFE0:
  96              		.size	uavcan_protocol_file_ReadRequest_encode_internal, .-uavcan_protocol_file_ReadRequest_encode_
  97 0046 00BF     		.section	.text.uavcan_protocol_file_ReadRequest_encode,"ax",%progbits
  98              		.align	1
  99              		.p2align 4,,15
 100              		.global	uavcan_protocol_file_ReadRequest_encode
 101              		.syntax unified
 102              		.thumb
 103              		.thumb_func
 104              		.fpu fpv4-sp-d16
 105              		.type	uavcan_protocol_file_ReadRequest_encode, %function
 106              	uavcan_protocol_file_ReadRequest_encode:
 107              	.LFB1:
 108              		.loc 1 55 0
 109              		.cfi_startproc
 110              		@ args = 0, pretend = 0, frame = 0
 111              		@ frame_needed = 0, uses_anonymous_args = 0
 112              	.LVL9:
 113 0000 08B5     		push	{r3, lr}
 114              		.cfi_def_cfa_offset 8
ARM GAS  /tmp/ccOXhgjL.s 			page 3


 115              		.cfi_offset 3, -8
 116              		.cfi_offset 14, -4
 117              		.loc 1 58 0
 118 0002 0022     		movs	r2, #0
 119 0004 0123     		movs	r3, #1
 120 0006 FFF7FEFF 		bl	uavcan_protocol_file_ReadRequest_encode_internal
 121              	.LVL10:
 122              		.loc 1 60 0
 123 000a 0730     		adds	r0, r0, #7
 124              	.LVL11:
 125              		.loc 1 61 0
 126 000c C008     		lsrs	r0, r0, #3
 127              	.LVL12:
 128 000e 08BD     		pop	{r3, pc}
 129              		.cfi_endproc
 130              	.LFE1:
 131              		.size	uavcan_protocol_file_ReadRequest_encode, .-uavcan_protocol_file_ReadRequest_encode
 132              		.section	.text.uavcan_protocol_file_ReadRequest_decode_internal,"ax",%progbits
 133              		.align	1
 134              		.p2align 4,,15
 135              		.global	uavcan_protocol_file_ReadRequest_decode_internal
 136              		.syntax unified
 137              		.thumb
 138              		.thumb_func
 139              		.fpu fpv4-sp-d16
 140              		.type	uavcan_protocol_file_ReadRequest_decode_internal, %function
 141              	uavcan_protocol_file_ReadRequest_decode_internal:
 142              	.LFB2:
 143              		.loc 1 80 0
 144              		.cfi_startproc
 145              		@ args = 4, pretend = 0, frame = 0
 146              		@ frame_needed = 0, uses_anonymous_args = 0
 147              	.LVL13:
 148 0000 2DE9F041 		push	{r4, r5, r6, r7, r8, lr}
 149              		.cfi_def_cfa_offset 24
 150              		.cfi_offset 4, -24
 151              		.cfi_offset 5, -20
 152              		.cfi_offset 6, -16
 153              		.cfi_offset 7, -12
 154              		.cfi_offset 8, -8
 155              		.cfi_offset 14, -4
 156 0004 82B0     		sub	sp, sp, #8
 157              		.cfi_def_cfa_offset 32
 158              		.loc 1 80 0
 159 0006 1546     		mov	r5, r2
 160 0008 089C     		ldr	r4, [sp, #32]
 161              		.loc 1 83 0
 162 000a 0092     		str	r2, [sp]
 163              		.loc 1 80 0
 164 000c 0F46     		mov	r7, r1
 165 000e 9846     		mov	r8, r3
 166              		.loc 1 83 0
 167 0010 2146     		mov	r1, r4
 168              	.LVL14:
 169 0012 0023     		movs	r3, #0
 170              	.LVL15:
 171 0014 2822     		movs	r2, #40
ARM GAS  /tmp/ccOXhgjL.s 			page 4


 172              	.LVL16:
 173              		.loc 1 80 0
 174 0016 0646     		mov	r6, r0
 175              		.loc 1 83 0
 176 0018 FFF7FEFF 		bl	canardDecodeScalar
 177              	.LVL17:
 178              		.loc 1 84 0
 179 001c 2828     		cmp	r0, #40
 180 001e 06D0     		beq	.L11
 181              	.L8:
 182              		.loc 1 106 0
 183 0020 0028     		cmp	r0, #0
 184              		.loc 1 108 0
 185 0022 A8BF     		it	ge
 186 0024 6FF00800 		mvnge	r0, #8
 187              	.LVL18:
 188 0028 02B0     		add	sp, sp, #8
 189              		.cfi_remember_state
 190              		.cfi_def_cfa_offset 24
 191              		@ sp needed
 192 002a BDE8F081 		pop	{r4, r5, r6, r7, r8, pc}
 193              	.LVL19:
 194              	.L11:
 195              		.cfi_restore_state
 196              		.loc 1 88 0
 197 002e 2834     		adds	r4, r4, #40
 198              	.LVL20:
 199              		.loc 1 91 0
 200 0030 4346     		mov	r3, r8
 201 0032 05F10802 		add	r2, r5, #8
 202 0036 3946     		mov	r1, r7
 203 0038 3046     		mov	r0, r6
 204              	.LVL21:
 205 003a 0894     		str	r4, [sp, #32]
 206              		.loc 1 108 0
 207 003c 02B0     		add	sp, sp, #8
 208              		.cfi_def_cfa_offset 24
 209              		@ sp needed
 210 003e BDE8F041 		pop	{r4, r5, r6, r7, r8, lr}
 211              		.cfi_restore 14
 212              		.cfi_restore 8
 213              		.cfi_restore 7
 214              		.cfi_restore 6
 215              		.cfi_restore 5
 216              		.cfi_restore 4
 217              		.cfi_def_cfa_offset 0
 218              	.LVL22:
 219              		.loc 1 91 0
 220 0042 FFF7FEBF 		b	uavcan_protocol_file_Path_decode_internal
 221              	.LVL23:
 222              		.cfi_endproc
 223              	.LFE2:
 224              		.size	uavcan_protocol_file_ReadRequest_decode_internal, .-uavcan_protocol_file_ReadRequest_decode_
 225 0046 00BF     		.section	.text.uavcan_protocol_file_ReadRequest_decode,"ax",%progbits
 226              		.align	1
 227              		.p2align 4,,15
 228              		.global	uavcan_protocol_file_ReadRequest_decode
ARM GAS  /tmp/ccOXhgjL.s 			page 5


 229              		.syntax unified
 230              		.thumb
 231              		.thumb_func
 232              		.fpu fpv4-sp-d16
 233              		.type	uavcan_protocol_file_ReadRequest_decode, %function
 234              	uavcan_protocol_file_ReadRequest_decode:
 235              	.LFB3:
 236              		.loc 1 124 0
 237              		.cfi_startproc
 238              		@ args = 0, pretend = 0, frame = 0
 239              		@ frame_needed = 0, uses_anonymous_args = 0
 240              	.LVL24:
 241 0000 70B5     		push	{r4, r5, r6, lr}
 242              		.cfi_def_cfa_offset 16
 243              		.cfi_offset 4, -16
 244              		.cfi_offset 5, -12
 245              		.cfi_offset 6, -8
 246              		.cfi_offset 14, -4
 247 0002 541E     		subs	r4, r2, #1
 248 0004 82B0     		sub	sp, sp, #8
 249              		.cfi_def_cfa_offset 24
 250 0006 02F10F06 		add	r6, r2, #15
 251              	.LBB2:
 252              		.loc 1 131 0
 253 000a 0025     		movs	r5, #0
 254              	.LVL25:
 255              	.L13:
 256              		.loc 1 131 0 is_stmt 0 discriminator 3
 257 000c 04F8015F 		strb	r5, [r4, #1]!
 258              		.loc 1 129 0 is_stmt 1 discriminator 3
 259 0010 B442     		cmp	r4, r6
 260 0012 FBD1     		bne	.L13
 261              	.LBE2:
 262              		.loc 1 134 0
 263 0014 0095     		str	r5, [sp]
 264 0016 FFF7FEFF 		bl	uavcan_protocol_file_ReadRequest_decode_internal
 265              	.LVL26:
 266              		.loc 1 137 0
 267 001a 02B0     		add	sp, sp, #8
 268              		.cfi_def_cfa_offset 16
 269              		@ sp needed
 270 001c 70BD     		pop	{r4, r5, r6, pc}
 271              		.cfi_endproc
 272              	.LFE3:
 273              		.size	uavcan_protocol_file_ReadRequest_decode, .-uavcan_protocol_file_ReadRequest_decode
 274 001e 00BF     		.section	.text.uavcan_protocol_file_ReadResponse_encode_internal,"ax",%progbits
 275              		.align	1
 276              		.p2align 4,,15
 277              		.global	uavcan_protocol_file_ReadResponse_encode_internal
 278              		.syntax unified
 279              		.thumb
 280              		.thumb_func
 281              		.fpu fpv4-sp-d16
 282              		.type	uavcan_protocol_file_ReadResponse_encode_internal, %function
 283              	uavcan_protocol_file_ReadResponse_encode_internal:
 284              	.LFB4:
 285              		.loc 1 151 0
ARM GAS  /tmp/ccOXhgjL.s 			page 6


 286              		.cfi_startproc
 287              		@ args = 0, pretend = 0, frame = 0
 288              		@ frame_needed = 0, uses_anonymous_args = 0
 289              	.LVL27:
 290 0000 F8B5     		push	{r3, r4, r5, r6, r7, lr}
 291              		.cfi_def_cfa_offset 24
 292              		.cfi_offset 3, -24
 293              		.cfi_offset 4, -20
 294              		.cfi_offset 5, -16
 295              		.cfi_offset 6, -12
 296              		.cfi_offset 7, -8
 297              		.cfi_offset 14, -4
 298              		.loc 1 151 0
 299 0002 1C46     		mov	r4, r3
 300              		.loc 1 155 0
 301 0004 0023     		movs	r3, #0
 302              	.LVL28:
 303              		.loc 1 151 0
 304 0006 0646     		mov	r6, r0
 305 0008 0F46     		mov	r7, r1
 306              		.loc 1 155 0
 307 000a FFF7FEFF 		bl	uavcan_protocol_file_Error_encode_internal
 308              	.LVL29:
 309 000e 0546     		mov	r5, r0
 310              	.LVL30:
 311              		.loc 1 158 0
 312 0010 8CB1     		cbz	r4, .L25
 313              	.LVL31:
 314              	.L17:
 315              		.loc 1 166 0 discriminator 1
 316 0012 B388     		ldrh	r3, [r6, #4]
 317 0014 6BB1     		cbz	r3, .L16
 318              		.loc 1 166 0 is_stmt 0
 319 0016 0024     		movs	r4, #0
 320              	.LVL32:
 321              	.L19:
 322              		.loc 1 171 0 is_stmt 1 discriminator 3
 323 0018 B368     		ldr	r3, [r6, #8]
 324              		.loc 1 168 0 discriminator 3
 325 001a 2946     		mov	r1, r5
 326 001c 2344     		add	r3, r3, r4
 327 001e 0822     		movs	r2, #8
 328 0020 3846     		mov	r0, r7
 329 0022 FFF7FEFF 		bl	canardEncodeScalar
 330              	.LVL33:
 331              		.loc 1 166 0 discriminator 3
 332 0026 B388     		ldrh	r3, [r6, #4]
 333 0028 0134     		adds	r4, r4, #1
 334              	.LVL34:
 335 002a A342     		cmp	r3, r4
 336              		.loc 1 172 0 discriminator 3
 337 002c 05F10805 		add	r5, r5, #8
 338              	.LVL35:
 339              		.loc 1 166 0 discriminator 3
 340 0030 F2D8     		bhi	.L19
 341              	.LVL36:
 342              	.L16:
ARM GAS  /tmp/ccOXhgjL.s 			page 7


 343              		.loc 1 176 0
 344 0032 2846     		mov	r0, r5
 345 0034 F8BD     		pop	{r3, r4, r5, r6, r7, pc}
 346              	.LVL37:
 347              	.L25:
 348              		.loc 1 161 0
 349 0036 0146     		mov	r1, r0
 350 0038 331D     		adds	r3, r6, #4
 351 003a 0922     		movs	r2, #9
 352 003c 3846     		mov	r0, r7
 353              	.LVL38:
 354 003e FFF7FEFF 		bl	canardEncodeScalar
 355              	.LVL39:
 356              		.loc 1 162 0
 357 0042 0935     		adds	r5, r5, #9
 358              	.LVL40:
 359 0044 E5E7     		b	.L17
 360              		.cfi_endproc
 361              	.LFE4:
 362              		.size	uavcan_protocol_file_ReadResponse_encode_internal, .-uavcan_protocol_file_ReadResponse_encod
 363 0046 00BF     		.section	.text.uavcan_protocol_file_ReadResponse_encode,"ax",%progbits
 364              		.align	1
 365              		.p2align 4,,15
 366              		.global	uavcan_protocol_file_ReadResponse_encode
 367              		.syntax unified
 368              		.thumb
 369              		.thumb_func
 370              		.fpu fpv4-sp-d16
 371              		.type	uavcan_protocol_file_ReadResponse_encode, %function
 372              	uavcan_protocol_file_ReadResponse_encode:
 373              	.LFB5:
 374              		.loc 1 185 0
 375              		.cfi_startproc
 376              		@ args = 0, pretend = 0, frame = 0
 377              		@ frame_needed = 0, uses_anonymous_args = 0
 378              	.LVL41:
 379 0000 08B5     		push	{r3, lr}
 380              		.cfi_def_cfa_offset 8
 381              		.cfi_offset 3, -8
 382              		.cfi_offset 14, -4
 383              		.loc 1 188 0
 384 0002 0022     		movs	r2, #0
 385 0004 0123     		movs	r3, #1
 386 0006 FFF7FEFF 		bl	uavcan_protocol_file_ReadResponse_encode_internal
 387              	.LVL42:
 388              		.loc 1 190 0
 389 000a 0730     		adds	r0, r0, #7
 390              	.LVL43:
 391              		.loc 1 191 0
 392 000c C008     		lsrs	r0, r0, #3
 393              	.LVL44:
 394 000e 08BD     		pop	{r3, pc}
 395              		.cfi_endproc
 396              	.LFE5:
 397              		.size	uavcan_protocol_file_ReadResponse_encode, .-uavcan_protocol_file_ReadResponse_encode
 398              		.section	.text.uavcan_protocol_file_ReadResponse_decode_internal,"ax",%progbits
 399              		.align	1
ARM GAS  /tmp/ccOXhgjL.s 			page 8


 400              		.p2align 4,,15
 401              		.global	uavcan_protocol_file_ReadResponse_decode_internal
 402              		.syntax unified
 403              		.thumb
 404              		.thumb_func
 405              		.fpu fpv4-sp-d16
 406              		.type	uavcan_protocol_file_ReadResponse_decode_internal, %function
 407              	uavcan_protocol_file_ReadResponse_decode_internal:
 408              	.LFB6:
 409              		.loc 1 210 0
 410              		.cfi_startproc
 411              		@ args = 4, pretend = 0, frame = 0
 412              		@ frame_needed = 0, uses_anonymous_args = 0
 413              	.LVL45:
 414 0000 2DE9F043 		push	{r4, r5, r6, r7, r8, r9, lr}
 415              		.cfi_def_cfa_offset 28
 416              		.cfi_offset 4, -28
 417              		.cfi_offset 5, -24
 418              		.cfi_offset 6, -20
 419              		.cfi_offset 7, -16
 420              		.cfi_offset 8, -12
 421              		.cfi_offset 9, -8
 422              		.cfi_offset 14, -4
 423 0004 83B0     		sub	sp, sp, #12
 424              		.cfi_def_cfa_offset 40
 425              		.loc 1 210 0
 426 0006 8146     		mov	r9, r0
 427 0008 0A9C     		ldr	r4, [sp, #40]
 428              		.loc 1 215 0
 429 000a 0094     		str	r4, [sp]
 430              		.loc 1 210 0
 431 000c 0D46     		mov	r5, r1
 432 000e 9046     		mov	r8, r2
 433 0010 1E46     		mov	r6, r3
 434              		.loc 1 215 0
 435 0012 FFF7FEFF 		bl	uavcan_protocol_file_Error_decode_internal
 436              	.LVL46:
 437              		.loc 1 216 0
 438 0016 041E     		subs	r4, r0, #0
 439 0018 22DB     		blt	.L28
 440              		.loc 1 224 0
 441 001a 2DB3     		cbz	r5, .L30
 442              		.loc 1 227 0
 443 001c D4EBC505 		rsbs	r5, r4, r5, lsl #3
 444 0020 48BF     		it	mi
 445 0022 0735     		addmi	r5, r5, #7
 446 0024 C5F3CF05 		ubfx	r5, r5, #3, #16
 447 0028 A8F80450 		strh	r5, [r8, #4]	@ movhi
 448              	.LVL47:
 449              	.L32:
 450              		.loc 1 245 0
 451 002c 16B1     		cbz	r6, .L34
 452              		.loc 1 247 0
 453 002e 3368     		ldr	r3, [r6]
 454 0030 C8F80830 		str	r3, [r8, #8]
 455              	.L34:
 456              		.loc 1 250 0 discriminator 1
ARM GAS  /tmp/ccOXhgjL.s 			page 9


 457 0034 A5B1     		cbz	r5, .L28
 458              		.loc 1 250 0 is_stmt 0
 459 0036 0025     		movs	r5, #0
 460              	.LVL48:
 461              	.L36:
 462              		.loc 1 254 0 is_stmt 1
 463 0038 0822     		movs	r2, #8
 464 003a 2146     		mov	r1, r4
 465 003c 0023     		movs	r3, #0
 466 003e 4846     		mov	r0, r9
 467              		.loc 1 250 0
 468 0040 0135     		adds	r5, r5, #1
 469              	.LVL49:
 470              		.loc 1 265 0
 471 0042 1444     		add	r4, r4, r2
 472              	.LVL50:
 473              		.loc 1 252 0
 474 0044 46B1     		cbz	r6, .L35
 475              	.LVL51:
 476              		.loc 1 254 0
 477 0046 3768     		ldr	r7, [r6]
 478 0048 0097     		str	r7, [sp]
 479 004a FFF7FEFF 		bl	canardDecodeScalar
 480              	.LVL52:
 481              		.loc 1 259 0
 482 004e 0828     		cmp	r0, #8
 483 0050 15D1     		bne	.L33
 484              		.loc 1 263 0
 485 0052 3368     		ldr	r3, [r6]
 486 0054 0133     		adds	r3, r3, #1
 487 0056 3360     		str	r3, [r6]
 488              	.LVL53:
 489              	.L35:
 490              		.loc 1 250 0 discriminator 2
 491 0058 B8F80430 		ldrh	r3, [r8, #4]
 492 005c AB42     		cmp	r3, r5
 493 005e EBD8     		bhi	.L36
 494              	.LVL54:
 495              	.L28:
 496              		.loc 1 278 0
 497 0060 2046     		mov	r0, r4
 498 0062 03B0     		add	sp, sp, #12
 499              		.cfi_remember_state
 500              		.cfi_def_cfa_offset 28
 501              		@ sp needed
 502 0064 BDE8F083 		pop	{r4, r5, r6, r7, r8, r9, pc}
 503              	.LVL55:
 504              	.L30:
 505              		.cfi_restore_state
 506              		.loc 1 236 0
 507 0068 08F10402 		add	r2, r8, #4
 508              		.loc 1 232 0
 509 006c 0092     		str	r2, [sp]
 510 006e 2B46     		mov	r3, r5
 511 0070 0922     		movs	r2, #9
 512 0072 2146     		mov	r1, r4
 513 0074 4846     		mov	r0, r9
ARM GAS  /tmp/ccOXhgjL.s 			page 10


 514              	.LVL56:
 515 0076 FFF7FEFF 		bl	canardDecodeScalar
 516              	.LVL57:
 517              		.loc 1 237 0
 518 007a 0928     		cmp	r0, #9
 519 007c 08D0     		beq	.L49
 520              	.LVL58:
 521              	.L33:
 522              		.loc 1 270 0
 523 007e 0028     		cmp	r0, #0
 524 0080 B4BF     		ite	lt
 525 0082 0446     		movlt	r4, r0
 526 0084 6FF00804 		mvnge	r4, #8
 527              		.loc 1 278 0
 528 0088 2046     		mov	r0, r4
 529              	.LVL59:
 530 008a 03B0     		add	sp, sp, #12
 531              		.cfi_remember_state
 532              		.cfi_def_cfa_offset 28
 533              		@ sp needed
 534 008c BDE8F083 		pop	{r4, r5, r6, r7, r8, r9, pc}
 535              	.LVL60:
 536              	.L49:
 537              		.cfi_restore_state
 538 0090 B8F80450 		ldrh	r5, [r8, #4]
 539              		.loc 1 241 0
 540 0094 0934     		adds	r4, r4, #9
 541              	.LVL61:
 542 0096 C9E7     		b	.L32
 543              		.cfi_endproc
 544              	.LFE6:
 545              		.size	uavcan_protocol_file_ReadResponse_decode_internal, .-uavcan_protocol_file_ReadResponse_decod
 546              		.section	.text.uavcan_protocol_file_ReadResponse_decode,"ax",%progbits
 547              		.align	1
 548              		.p2align 4,,15
 549              		.global	uavcan_protocol_file_ReadResponse_decode
 550              		.syntax unified
 551              		.thumb
 552              		.thumb_func
 553              		.fpu fpv4-sp-d16
 554              		.type	uavcan_protocol_file_ReadResponse_decode, %function
 555              	uavcan_protocol_file_ReadResponse_decode:
 556              	.LFB7:
 557              		.loc 1 294 0
 558              		.cfi_startproc
 559              		@ args = 0, pretend = 0, frame = 0
 560              		@ frame_needed = 0, uses_anonymous_args = 0
 561              	.LVL62:
 562 0000 70B5     		push	{r4, r5, r6, lr}
 563              		.cfi_def_cfa_offset 16
 564              		.cfi_offset 4, -16
 565              		.cfi_offset 5, -12
 566              		.cfi_offset 6, -8
 567              		.cfi_offset 14, -4
 568 0002 541E     		subs	r4, r2, #1
 569 0004 82B0     		sub	sp, sp, #8
 570              		.cfi_def_cfa_offset 24
ARM GAS  /tmp/ccOXhgjL.s 			page 11


 571 0006 02F10B06 		add	r6, r2, #11
 572              	.LBB3:
 573              		.loc 1 301 0
 574 000a 0025     		movs	r5, #0
 575              	.LVL63:
 576              	.L51:
 577              		.loc 1 301 0 is_stmt 0 discriminator 3
 578 000c 04F8015F 		strb	r5, [r4, #1]!
 579              		.loc 1 299 0 is_stmt 1 discriminator 3
 580 0010 B442     		cmp	r4, r6
 581 0012 FBD1     		bne	.L51
 582              	.LBE3:
 583              		.loc 1 304 0
 584 0014 0095     		str	r5, [sp]
 585 0016 FFF7FEFF 		bl	uavcan_protocol_file_ReadResponse_decode_internal
 586              	.LVL64:
 587              		.loc 1 307 0
 588 001a 02B0     		add	sp, sp, #8
 589              		.cfi_def_cfa_offset 16
 590              		@ sp needed
 591 001c 70BD     		pop	{r4, r5, r6, pc}
 592              		.cfi_endproc
 593              	.LFE7:
 594              		.size	uavcan_protocol_file_ReadResponse_decode, .-uavcan_protocol_file_ReadResponse_decode
 595 001e 00BF     		.text
 596              	.Letext0:
 597              		.file 2 "/usr/arm-none-eabi/include/machine/_default_types.h"
 598              		.file 3 "/usr/arm-none-eabi/include/sys/_stdint.h"
 599              		.file 4 "libcanard/canard.h"
 600              		.file 5 "libcanard/dsdl/uavcan/protocol/file/Error.h"
 601              		.file 6 "libcanard/dsdl/uavcan/protocol/file/Path.h"
 602              		.file 7 "libcanard/dsdl/uavcan/protocol/file/Read.h"
 603              		.section	.debug_info,"",%progbits
 604              	.Ldebug_info0:
 605 0000 8D080000 		.4byte	0x88d
 606 0004 0400     		.2byte	0x4
 607 0006 00000000 		.4byte	.Ldebug_abbrev0
 608 000a 04       		.byte	0x4
 609 000b 01       		.uleb128 0x1
 610 000c 3B050000 		.4byte	.LASF67
 611 0010 0C       		.byte	0xc
 612 0011 B7000000 		.4byte	.LASF68
 613 0015 BD020000 		.4byte	.LASF69
 614 0019 00000000 		.4byte	.Ldebug_ranges0+0
 615 001d 00000000 		.4byte	0
 616 0021 00000000 		.4byte	.Ldebug_line0
 617 0025 02       		.uleb128 0x2
 618 0026 01       		.byte	0x1
 619 0027 06       		.byte	0x6
 620 0028 C3020000 		.4byte	.LASF0
 621 002c 03       		.uleb128 0x3
 622 002d F5010000 		.4byte	.LASF2
 623 0031 02       		.byte	0x2
 624 0032 2B       		.byte	0x2b
 625 0033 37000000 		.4byte	0x37
 626 0037 02       		.uleb128 0x2
 627 0038 01       		.byte	0x1
ARM GAS  /tmp/ccOXhgjL.s 			page 12


 628 0039 08       		.byte	0x8
 629 003a 77020000 		.4byte	.LASF1
 630 003e 03       		.uleb128 0x3
 631 003f C3040000 		.4byte	.LASF3
 632 0043 02       		.byte	0x2
 633 0044 37       		.byte	0x37
 634 0045 49000000 		.4byte	0x49
 635 0049 02       		.uleb128 0x2
 636 004a 02       		.byte	0x2
 637 004b 05       		.byte	0x5
 638 004c AD000000 		.4byte	.LASF4
 639 0050 03       		.uleb128 0x3
 640 0051 23010000 		.4byte	.LASF5
 641 0055 02       		.byte	0x2
 642 0056 39       		.byte	0x39
 643 0057 5B000000 		.4byte	0x5b
 644 005b 02       		.uleb128 0x2
 645 005c 02       		.byte	0x2
 646 005d 07       		.byte	0x7
 647 005e 89030000 		.4byte	.LASF6
 648 0062 03       		.uleb128 0x3
 649 0063 91040000 		.4byte	.LASF7
 650 0067 02       		.byte	0x2
 651 0068 4D       		.byte	0x4d
 652 0069 6D000000 		.4byte	0x6d
 653 006d 02       		.uleb128 0x2
 654 006e 04       		.byte	0x4
 655 006f 05       		.byte	0x5
 656 0070 E5010000 		.4byte	.LASF8
 657 0074 03       		.uleb128 0x3
 658 0075 18010000 		.4byte	.LASF9
 659 0079 02       		.byte	0x2
 660 007a 4F       		.byte	0x4f
 661 007b 7F000000 		.4byte	0x7f
 662 007f 02       		.uleb128 0x2
 663 0080 04       		.byte	0x4
 664 0081 07       		.byte	0x7
 665 0082 0F040000 		.4byte	.LASF10
 666 0086 02       		.uleb128 0x2
 667 0087 08       		.byte	0x8
 668 0088 05       		.byte	0x5
 669 0089 A9010000 		.4byte	.LASF11
 670 008d 03       		.uleb128 0x3
 671 008e E5030000 		.4byte	.LASF12
 672 0092 02       		.byte	0x2
 673 0093 69       		.byte	0x69
 674 0094 98000000 		.4byte	0x98
 675 0098 02       		.uleb128 0x2
 676 0099 08       		.byte	0x8
 677 009a 07       		.byte	0x7
 678 009b CF020000 		.4byte	.LASF13
 679 009f 04       		.uleb128 0x4
 680 00a0 04       		.byte	0x4
 681 00a1 05       		.byte	0x5
 682 00a2 696E7400 		.ascii	"int\000"
 683 00a6 02       		.uleb128 0x2
 684 00a7 04       		.byte	0x4
ARM GAS  /tmp/ccOXhgjL.s 			page 13


 685 00a8 07       		.byte	0x7
 686 00a9 52030000 		.4byte	.LASF14
 687 00ad 03       		.uleb128 0x3
 688 00ae 5D010000 		.4byte	.LASF15
 689 00b2 03       		.byte	0x3
 690 00b3 18       		.byte	0x18
 691 00b4 2C000000 		.4byte	0x2c
 692 00b8 05       		.uleb128 0x5
 693 00b9 AD000000 		.4byte	0xad
 694 00bd 03       		.uleb128 0x3
 695 00be D0030000 		.4byte	.LASF16
 696 00c2 03       		.byte	0x3
 697 00c3 20       		.byte	0x20
 698 00c4 3E000000 		.4byte	0x3e
 699 00c8 03       		.uleb128 0x3
 700 00c9 5F030000 		.4byte	.LASF17
 701 00cd 03       		.byte	0x3
 702 00ce 24       		.byte	0x24
 703 00cf 50000000 		.4byte	0x50
 704 00d3 03       		.uleb128 0x3
 705 00d4 BA030000 		.4byte	.LASF18
 706 00d8 03       		.byte	0x3
 707 00d9 2C       		.byte	0x2c
 708 00da 62000000 		.4byte	0x62
 709 00de 05       		.uleb128 0x5
 710 00df D3000000 		.4byte	0xd3
 711 00e3 03       		.uleb128 0x3
 712 00e4 E6020000 		.4byte	.LASF19
 713 00e8 03       		.byte	0x3
 714 00e9 30       		.byte	0x30
 715 00ea 74000000 		.4byte	0x74
 716 00ee 03       		.uleb128 0x3
 717 00ef 72000000 		.4byte	.LASF20
 718 00f3 03       		.byte	0x3
 719 00f4 3C       		.byte	0x3c
 720 00f5 8D000000 		.4byte	0x8d
 721 00f9 03       		.uleb128 0x3
 722 00fa FE030000 		.4byte	.LASF21
 723 00fe 04       		.byte	0x4
 724 00ff 99       		.byte	0x99
 725 0100 09010000 		.4byte	0x109
 726 0104 05       		.uleb128 0x5
 727 0105 F9000000 		.4byte	0xf9
 728 0109 06       		.uleb128 0x6
 729 010a FE030000 		.4byte	.LASF21
 730 010e 20       		.byte	0x20
 731 010f 04       		.byte	0x4
 732 0110 0F01     		.2byte	0x10f
 733 0112 99010000 		.4byte	0x199
 734 0116 07       		.uleb128 0x7
 735 0117 3B020000 		.4byte	.LASF22
 736 011b 04       		.byte	0x4
 737 011c 1401     		.2byte	0x114
 738 011e EE000000 		.4byte	0xee
 739 0122 00       		.byte	0
 740 0123 07       		.uleb128 0x7
 741 0124 D8030000 		.4byte	.LASF23
ARM GAS  /tmp/ccOXhgjL.s 			page 14


 742 0128 04       		.byte	0x4
 743 0129 2801     		.2byte	0x128
 744 012b F4010000 		.4byte	0x1f4
 745 012f 08       		.byte	0x8
 746 0130 07       		.uleb128 0x7
 747 0131 85020000 		.4byte	.LASF24
 748 0135 04       		.byte	0x4
 749 0136 2D01     		.2byte	0x12d
 750 0138 EC010000 		.4byte	0x1ec
 751 013c 0C       		.byte	0xc
 752 013d 07       		.uleb128 0x7
 753 013e 2E020000 		.4byte	.LASF25
 754 0142 04       		.byte	0x4
 755 0143 2F01     		.2byte	0x12f
 756 0145 F4010000 		.4byte	0x1f4
 757 0149 10       		.byte	0x10
 758 014a 07       		.uleb128 0x7
 759 014b FE040000 		.4byte	.LASF26
 760 014f 04       		.byte	0x4
 761 0150 3101     		.2byte	0x131
 762 0152 C8000000 		.4byte	0xc8
 763 0156 14       		.byte	0x14
 764 0157 07       		.uleb128 0x7
 765 0158 57000000 		.4byte	.LASF27
 766 015c 04       		.byte	0x4
 767 015d 3601     		.2byte	0x136
 768 015f C8000000 		.4byte	0xc8
 769 0163 16       		.byte	0x16
 770 0164 07       		.uleb128 0x7
 771 0165 C2030000 		.4byte	.LASF28
 772 0169 04       		.byte	0x4
 773 016a 3701     		.2byte	0x137
 774 016c AD000000 		.4byte	0xad
 775 0170 18       		.byte	0x18
 776 0171 07       		.uleb128 0x7
 777 0172 0A050000 		.4byte	.LASF29
 778 0176 04       		.byte	0x4
 779 0177 3801     		.2byte	0x138
 780 0179 AD000000 		.4byte	0xad
 781 017d 19       		.byte	0x19
 782 017e 07       		.uleb128 0x7
 783 017f 69000000 		.4byte	.LASF30
 784 0183 04       		.byte	0x4
 785 0184 3901     		.2byte	0x139
 786 0186 AD000000 		.4byte	0xad
 787 018a 1A       		.byte	0x1a
 788 018b 07       		.uleb128 0x7
 789 018c 7A030000 		.4byte	.LASF31
 790 0190 04       		.byte	0x4
 791 0191 3A01     		.2byte	0x13a
 792 0193 AD000000 		.4byte	0xad
 793 0197 1B       		.byte	0x1b
 794 0198 00       		.byte	0
 795 0199 02       		.uleb128 0x2
 796 019a 01       		.byte	0x1
 797 019b 02       		.byte	0x2
 798 019c B4030000 		.4byte	.LASF32
ARM GAS  /tmp/ccOXhgjL.s 			page 15


 799 01a0 02       		.uleb128 0x2
 800 01a1 01       		.byte	0x1
 801 01a2 08       		.byte	0x8
 802 01a3 AF030000 		.4byte	.LASF33
 803 01a7 08       		.uleb128 0x8
 804 01a8 68030000 		.4byte	.LASF34
 805 01ac 04       		.byte	0x4
 806 01ad 04       		.byte	0x4
 807 01ae D7       		.byte	0xd7
 808 01af CC010000 		.4byte	0x1cc
 809 01b3 09       		.uleb128 0x9
 810 01b4 36050000 		.4byte	.LASF35
 811 01b8 04       		.byte	0x4
 812 01b9 D9       		.byte	0xd9
 813 01ba CC010000 		.4byte	0x1cc
 814 01be 00       		.byte	0
 815 01bf 09       		.uleb128 0x9
 816 01c0 F0030000 		.4byte	.LASF36
 817 01c4 04       		.byte	0x4
 818 01c5 DA       		.byte	0xda
 819 01c6 D2010000 		.4byte	0x1d2
 820 01ca 04       		.byte	0x4
 821 01cb 00       		.byte	0
 822 01cc 0A       		.uleb128 0xa
 823 01cd 04       		.byte	0x4
 824 01ce A7010000 		.4byte	0x1a7
 825 01d2 0B       		.uleb128 0xb
 826 01d3 AD000000 		.4byte	0xad
 827 01d7 E1010000 		.4byte	0x1e1
 828 01db 0C       		.uleb128 0xc
 829 01dc A6000000 		.4byte	0xa6
 830 01e0 00       		.byte	0
 831 01e1 03       		.uleb128 0x3
 832 01e2 68030000 		.4byte	.LASF34
 833 01e6 04       		.byte	0x4
 834 01e7 DB       		.byte	0xdb
 835 01e8 A7010000 		.4byte	0x1a7
 836 01ec 0A       		.uleb128 0xa
 837 01ed 04       		.byte	0x4
 838 01ee E1010000 		.4byte	0x1e1
 839 01f2 0D       		.uleb128 0xd
 840 01f3 04       		.byte	0x4
 841 01f4 0A       		.uleb128 0xa
 842 01f5 04       		.byte	0x4
 843 01f6 B8000000 		.4byte	0xb8
 844 01fa 0E       		.uleb128 0xe
 845 01fb 02       		.byte	0x2
 846 01fc 05       		.byte	0x5
 847 01fd 3F       		.byte	0x3f
 848 01fe 0F020000 		.4byte	0x20f
 849 0202 09       		.uleb128 0x9
 850 0203 2E010000 		.4byte	.LASF37
 851 0207 05       		.byte	0x5
 852 0208 42       		.byte	0x42
 853 0209 BD000000 		.4byte	0xbd
 854 020d 00       		.byte	0
 855 020e 00       		.byte	0
ARM GAS  /tmp/ccOXhgjL.s 			page 16


 856 020f 03       		.uleb128 0x3
 857 0210 4C040000 		.4byte	.LASF38
 858 0214 05       		.byte	0x5
 859 0215 44       		.byte	0x44
 860 0216 FA010000 		.4byte	0x1fa
 861 021a 0E       		.uleb128 0xe
 862 021b 08       		.byte	0x8
 863 021c 06       		.byte	0x6
 864 021d 34       		.byte	0x34
 865 021e 3B020000 		.4byte	0x23b
 866 0222 0F       		.uleb128 0xf
 867 0223 6C656E00 		.ascii	"len\000"
 868 0227 06       		.byte	0x6
 869 0228 36       		.byte	0x36
 870 0229 AD000000 		.4byte	0xad
 871 022d 00       		.byte	0
 872 022e 09       		.uleb128 0x9
 873 022f F0030000 		.4byte	.LASF36
 874 0233 06       		.byte	0x6
 875 0234 37       		.byte	0x37
 876 0235 3B020000 		.4byte	0x23b
 877 0239 04       		.byte	0x4
 878 023a 00       		.byte	0
 879 023b 0A       		.uleb128 0xa
 880 023c 04       		.byte	0x4
 881 023d AD000000 		.4byte	0xad
 882 0241 0E       		.uleb128 0xe
 883 0242 08       		.byte	0x8
 884 0243 06       		.byte	0x6
 885 0244 31       		.byte	0x31
 886 0245 56020000 		.4byte	0x256
 887 0249 09       		.uleb128 0x9
 888 024a 16050000 		.4byte	.LASF39
 889 024e 06       		.byte	0x6
 890 024f 38       		.byte	0x38
 891 0250 1A020000 		.4byte	0x21a
 892 0254 00       		.byte	0
 893 0255 00       		.byte	0
 894 0256 03       		.uleb128 0x3
 895 0257 8F010000 		.4byte	.LASF40
 896 025b 06       		.byte	0x6
 897 025c 3A       		.byte	0x3a
 898 025d 41020000 		.4byte	0x241
 899 0261 0E       		.uleb128 0xe
 900 0262 10       		.byte	0x10
 901 0263 07       		.byte	0x7
 902 0264 42       		.byte	0x42
 903 0265 82020000 		.4byte	0x282
 904 0269 09       		.uleb128 0x9
 905 026a EE010000 		.4byte	.LASF41
 906 026e 07       		.byte	0x7
 907 026f 45       		.byte	0x45
 908 0270 EE000000 		.4byte	0xee
 909 0274 00       		.byte	0
 910 0275 09       		.uleb128 0x9
 911 0276 16050000 		.4byte	.LASF39
 912 027a 07       		.byte	0x7
ARM GAS  /tmp/ccOXhgjL.s 			page 17


 913 027b 46       		.byte	0x46
 914 027c 56020000 		.4byte	0x256
 915 0280 08       		.byte	0x8
 916 0281 00       		.byte	0
 917 0282 03       		.uleb128 0x3
 918 0283 21040000 		.4byte	.LASF42
 919 0287 07       		.byte	0x7
 920 0288 48       		.byte	0x48
 921 0289 61020000 		.4byte	0x261
 922 028d 0E       		.uleb128 0xe
 923 028e 08       		.byte	0x8
 924 028f 07       		.byte	0x7
 925 0290 60       		.byte	0x60
 926 0291 AE020000 		.4byte	0x2ae
 927 0295 0F       		.uleb128 0xf
 928 0296 6C656E00 		.ascii	"len\000"
 929 029a 07       		.byte	0x7
 930 029b 62       		.byte	0x62
 931 029c C8000000 		.4byte	0xc8
 932 02a0 00       		.byte	0
 933 02a1 09       		.uleb128 0x9
 934 02a2 F0030000 		.4byte	.LASF36
 935 02a6 07       		.byte	0x7
 936 02a7 63       		.byte	0x63
 937 02a8 3B020000 		.4byte	0x23b
 938 02ac 04       		.byte	0x4
 939 02ad 00       		.byte	0
 940 02ae 0E       		.uleb128 0xe
 941 02af 0C       		.byte	0xc
 942 02b0 07       		.byte	0x7
 943 02b1 5C       		.byte	0x5c
 944 02b2 CF020000 		.4byte	0x2cf
 945 02b6 09       		.uleb128 0x9
 946 02b7 F8040000 		.4byte	.LASF43
 947 02bb 07       		.byte	0x7
 948 02bc 5F       		.byte	0x5f
 949 02bd 0F020000 		.4byte	0x20f
 950 02c1 00       		.byte	0
 951 02c2 09       		.uleb128 0x9
 952 02c3 F0030000 		.4byte	.LASF36
 953 02c7 07       		.byte	0x7
 954 02c8 64       		.byte	0x64
 955 02c9 8D020000 		.4byte	0x28d
 956 02cd 04       		.byte	0x4
 957 02ce 00       		.byte	0
 958 02cf 03       		.uleb128 0x3
 959 02d0 C3010000 		.4byte	.LASF44
 960 02d4 07       		.byte	0x7
 961 02d5 66       		.byte	0x66
 962 02d6 AE020000 		.4byte	0x2ae
 963 02da 10       		.uleb128 0x10
 964 02db 34010000 		.4byte	.LASF48
 965 02df 01       		.byte	0x1
 966 02e0 2201     		.2byte	0x122
 967 02e2 D3000000 		.4byte	0xd3
 968 02e6 00000000 		.4byte	.LFB7
 969 02ea 1E000000 		.4byte	.LFE7-.LFB7
ARM GAS  /tmp/ccOXhgjL.s 			page 18


 970 02ee 01       		.uleb128 0x1
 971 02ef 9C       		.byte	0x9c
 972 02f0 7F030000 		.4byte	0x37f
 973 02f4 11       		.uleb128 0x11
 974 02f5 F5030000 		.4byte	.LASF45
 975 02f9 01       		.byte	0x1
 976 02fa 2201     		.2byte	0x122
 977 02fc 7F030000 		.4byte	0x37f
 978 0300 00000000 		.4byte	.LLST34
 979 0304 11       		.uleb128 0x11
 980 0305 FE040000 		.4byte	.LASF26
 981 0309 01       		.byte	0x1
 982 030a 2301     		.2byte	0x123
 983 030c C8000000 		.4byte	0xc8
 984 0310 21000000 		.4byte	.LLST35
 985 0314 11       		.uleb128 0x11
 986 0315 64000000 		.4byte	.LASF46
 987 0319 01       		.byte	0x1
 988 031a 2401     		.2byte	0x124
 989 031c 85030000 		.4byte	0x385
 990 0320 42000000 		.4byte	.LLST36
 991 0324 11       		.uleb128 0x11
 992 0325 B7010000 		.4byte	.LASF47
 993 0329 01       		.byte	0x1
 994 032a 2501     		.2byte	0x125
 995 032c 8B030000 		.4byte	0x38b
 996 0330 62000000 		.4byte	.LLST37
 997 0334 12       		.uleb128 0x12
 998 0335 EE010000 		.4byte	.LASF41
 999 0339 01       		.byte	0x1
 1000 033a 2701     		.2byte	0x127
 1001 033c DE000000 		.4byte	0xde
 1002 0340 00       		.byte	0
 1003 0341 13       		.uleb128 0x13
 1004 0342 72657400 		.ascii	"ret\000"
 1005 0346 01       		.byte	0x1
 1006 0347 2801     		.2byte	0x128
 1007 0349 D3000000 		.4byte	0xd3
 1008 034d 83000000 		.4byte	.LLST38
 1009 0351 14       		.uleb128 0x14
 1010 0352 0A000000 		.4byte	.LBB3
 1011 0356 0A000000 		.4byte	.LBE3-.LBB3
 1012 035a 6D030000 		.4byte	0x36d
 1013 035e 13       		.uleb128 0x13
 1014 035f 6300     		.ascii	"c\000"
 1015 0361 01       		.byte	0x1
 1016 0362 2B01     		.2byte	0x12b
 1017 0364 E3000000 		.4byte	0xe3
 1018 0368 A2000000 		.4byte	.LLST39
 1019 036c 00       		.byte	0
 1020 036d 15       		.uleb128 0x15
 1021 036e 1A000000 		.4byte	.LVL64
 1022 0372 91030000 		.4byte	0x391
 1023 0376 16       		.uleb128 0x16
 1024 0377 02       		.uleb128 0x2
 1025 0378 7D       		.byte	0x7d
 1026 0379 00       		.sleb128 0
ARM GAS  /tmp/ccOXhgjL.s 			page 19


 1027 037a 02       		.uleb128 0x2
 1028 037b 75       		.byte	0x75
 1029 037c 00       		.sleb128 0
 1030 037d 00       		.byte	0
 1031 037e 00       		.byte	0
 1032 037f 0A       		.uleb128 0xa
 1033 0380 04       		.byte	0x4
 1034 0381 04010000 		.4byte	0x104
 1035 0385 0A       		.uleb128 0xa
 1036 0386 04       		.byte	0x4
 1037 0387 CF020000 		.4byte	0x2cf
 1038 038b 0A       		.uleb128 0xa
 1039 038c 04       		.byte	0x4
 1040 038d 3B020000 		.4byte	0x23b
 1041 0391 17       		.uleb128 0x17
 1042 0392 7B000000 		.4byte	.LASF49
 1043 0396 01       		.byte	0x1
 1044 0397 CC       		.byte	0xcc
 1045 0398 D3000000 		.4byte	0xd3
 1046 039c 00000000 		.4byte	.LFB6
 1047 03a0 98000000 		.4byte	.LFE6-.LFB6
 1048 03a4 01       		.uleb128 0x1
 1049 03a5 9C       		.byte	0x9c
 1050 03a6 9E040000 		.4byte	0x49e
 1051 03aa 18       		.uleb128 0x18
 1052 03ab F5030000 		.4byte	.LASF45
 1053 03af 01       		.byte	0x1
 1054 03b0 CD       		.byte	0xcd
 1055 03b1 7F030000 		.4byte	0x37f
 1056 03b5 B6000000 		.4byte	.LLST27
 1057 03b9 18       		.uleb128 0x18
 1058 03ba FE040000 		.4byte	.LASF26
 1059 03be 01       		.byte	0x1
 1060 03bf CE       		.byte	0xce
 1061 03c0 C8000000 		.4byte	0xc8
 1062 03c4 EA000000 		.4byte	.LLST28
 1063 03c8 18       		.uleb128 0x18
 1064 03c9 64000000 		.4byte	.LASF46
 1065 03cd 01       		.byte	0x1
 1066 03ce CF       		.byte	0xcf
 1067 03cf 85030000 		.4byte	0x385
 1068 03d3 0B010000 		.4byte	.LLST29
 1069 03d7 18       		.uleb128 0x18
 1070 03d8 B7010000 		.4byte	.LASF47
 1071 03dc 01       		.byte	0x1
 1072 03dd D0       		.byte	0xd0
 1073 03de 8B030000 		.4byte	0x38b
 1074 03e2 29010000 		.4byte	.LLST30
 1075 03e6 18       		.uleb128 0x18
 1076 03e7 EE010000 		.4byte	.LASF41
 1077 03eb 01       		.byte	0x1
 1078 03ec D1       		.byte	0xd1
 1079 03ed D3000000 		.4byte	0xd3
 1080 03f1 47010000 		.4byte	.LLST31
 1081 03f5 19       		.uleb128 0x19
 1082 03f6 72657400 		.ascii	"ret\000"
 1083 03fa 01       		.byte	0x1
ARM GAS  /tmp/ccOXhgjL.s 			page 20


 1084 03fb D3       		.byte	0xd3
 1085 03fc D3000000 		.4byte	0xd3
 1086 0400 B5010000 		.4byte	.LLST32
 1087 0404 19       		.uleb128 0x19
 1088 0405 6300     		.ascii	"c\000"
 1089 0407 01       		.byte	0x1
 1090 0408 D4       		.byte	0xd4
 1091 0409 E3000000 		.4byte	0xe3
 1092 040d F6010000 		.4byte	.LLST33
 1093 0411 1A       		.uleb128 0x1a
 1094 0412 4A020000 		.4byte	.LASF57
 1095 0416 01       		.byte	0x1
 1096 0417 0D01     		.2byte	0x10d
 1097 0419 7E000000 		.4byte	.L33
 1098 041d 1B       		.uleb128 0x1b
 1099 041e 16000000 		.4byte	.LVL46
 1100 0422 4C080000 		.4byte	0x84c
 1101 0426 4A040000 		.4byte	0x44a
 1102 042a 16       		.uleb128 0x16
 1103 042b 01       		.uleb128 0x1
 1104 042c 50       		.byte	0x50
 1105 042d 02       		.uleb128 0x2
 1106 042e 79       		.byte	0x79
 1107 042f 00       		.sleb128 0
 1108 0430 16       		.uleb128 0x16
 1109 0431 01       		.uleb128 0x1
 1110 0432 51       		.byte	0x51
 1111 0433 02       		.uleb128 0x2
 1112 0434 75       		.byte	0x75
 1113 0435 00       		.sleb128 0
 1114 0436 16       		.uleb128 0x16
 1115 0437 01       		.uleb128 0x1
 1116 0438 52       		.byte	0x52
 1117 0439 02       		.uleb128 0x2
 1118 043a 78       		.byte	0x78
 1119 043b 00       		.sleb128 0
 1120 043c 16       		.uleb128 0x16
 1121 043d 01       		.uleb128 0x1
 1122 043e 53       		.byte	0x53
 1123 043f 02       		.uleb128 0x2
 1124 0440 76       		.byte	0x76
 1125 0441 00       		.sleb128 0
 1126 0442 16       		.uleb128 0x16
 1127 0443 02       		.uleb128 0x2
 1128 0444 7D       		.byte	0x7d
 1129 0445 00       		.sleb128 0
 1130 0446 02       		.uleb128 0x2
 1131 0447 74       		.byte	0x74
 1132 0448 00       		.sleb128 0
 1133 0449 00       		.byte	0
 1134 044a 1B       		.uleb128 0x1b
 1135 044b 4E000000 		.4byte	.LVL52
 1136 044f 57080000 		.4byte	0x857
 1137 0453 75040000 		.4byte	0x475
 1138 0457 16       		.uleb128 0x16
 1139 0458 01       		.uleb128 0x1
 1140 0459 50       		.byte	0x50
ARM GAS  /tmp/ccOXhgjL.s 			page 21


 1141 045a 02       		.uleb128 0x2
 1142 045b 79       		.byte	0x79
 1143 045c 00       		.sleb128 0
 1144 045d 16       		.uleb128 0x16
 1145 045e 01       		.uleb128 0x1
 1146 045f 51       		.byte	0x51
 1147 0460 02       		.uleb128 0x2
 1148 0461 74       		.byte	0x74
 1149 0462 78       		.sleb128 -8
 1150 0463 16       		.uleb128 0x16
 1151 0464 01       		.uleb128 0x1
 1152 0465 52       		.byte	0x52
 1153 0466 01       		.uleb128 0x1
 1154 0467 38       		.byte	0x38
 1155 0468 16       		.uleb128 0x16
 1156 0469 01       		.uleb128 0x1
 1157 046a 53       		.byte	0x53
 1158 046b 01       		.uleb128 0x1
 1159 046c 30       		.byte	0x30
 1160 046d 16       		.uleb128 0x16
 1161 046e 02       		.uleb128 0x2
 1162 046f 7D       		.byte	0x7d
 1163 0470 00       		.sleb128 0
 1164 0471 02       		.uleb128 0x2
 1165 0472 77       		.byte	0x77
 1166 0473 00       		.sleb128 0
 1167 0474 00       		.byte	0
 1168 0475 15       		.uleb128 0x15
 1169 0476 7A000000 		.4byte	.LVL57
 1170 047a 57080000 		.4byte	0x857
 1171 047e 16       		.uleb128 0x16
 1172 047f 01       		.uleb128 0x1
 1173 0480 50       		.byte	0x50
 1174 0481 02       		.uleb128 0x2
 1175 0482 79       		.byte	0x79
 1176 0483 00       		.sleb128 0
 1177 0484 16       		.uleb128 0x16
 1178 0485 01       		.uleb128 0x1
 1179 0486 51       		.byte	0x51
 1180 0487 02       		.uleb128 0x2
 1181 0488 74       		.byte	0x74
 1182 0489 00       		.sleb128 0
 1183 048a 16       		.uleb128 0x16
 1184 048b 01       		.uleb128 0x1
 1185 048c 52       		.byte	0x52
 1186 048d 01       		.uleb128 0x1
 1187 048e 39       		.byte	0x39
 1188 048f 16       		.uleb128 0x16
 1189 0490 01       		.uleb128 0x1
 1190 0491 53       		.byte	0x53
 1191 0492 02       		.uleb128 0x2
 1192 0493 75       		.byte	0x75
 1193 0494 00       		.sleb128 0
 1194 0495 16       		.uleb128 0x16
 1195 0496 02       		.uleb128 0x2
 1196 0497 7D       		.byte	0x7d
 1197 0498 00       		.sleb128 0
ARM GAS  /tmp/ccOXhgjL.s 			page 22


 1198 0499 02       		.uleb128 0x2
 1199 049a 78       		.byte	0x78
 1200 049b 04       		.sleb128 4
 1201 049c 00       		.byte	0
 1202 049d 00       		.byte	0
 1203 049e 17       		.uleb128 0x17
 1204 049f 94020000 		.4byte	.LASF50
 1205 04a3 01       		.byte	0x1
 1206 04a4 B8       		.byte	0xb8
 1207 04a5 E3000000 		.4byte	0xe3
 1208 04a9 00000000 		.4byte	.LFB5
 1209 04ad 10000000 		.4byte	.LFE5-.LFB5
 1210 04b1 01       		.uleb128 0x1
 1211 04b2 9C       		.byte	0x9c
 1212 04b3 07050000 		.4byte	0x507
 1213 04b7 18       		.uleb128 0x18
 1214 04b8 FF010000 		.4byte	.LASF51
 1215 04bc 01       		.byte	0x1
 1216 04bd B8       		.byte	0xb8
 1217 04be 85030000 		.4byte	0x385
 1218 04c2 45020000 		.4byte	.LLST24
 1219 04c6 18       		.uleb128 0x18
 1220 04c7 2E050000 		.4byte	.LASF52
 1221 04cb 01       		.byte	0x1
 1222 04cc B8       		.byte	0xb8
 1223 04cd F2010000 		.4byte	0x1f2
 1224 04d1 66020000 		.4byte	.LLST25
 1225 04d5 1C       		.uleb128 0x1c
 1226 04d6 EE010000 		.4byte	.LASF41
 1227 04da 01       		.byte	0x1
 1228 04db BA       		.byte	0xba
 1229 04dc E3000000 		.4byte	0xe3
 1230 04e0 87020000 		.4byte	.LLST26
 1231 04e4 15       		.uleb128 0x15
 1232 04e5 0A000000 		.4byte	.LVL42
 1233 04e9 07050000 		.4byte	0x507
 1234 04ed 16       		.uleb128 0x16
 1235 04ee 01       		.uleb128 0x1
 1236 04ef 50       		.byte	0x50
 1237 04f0 03       		.uleb128 0x3
 1238 04f1 F3       		.byte	0xf3
 1239 04f2 01       		.uleb128 0x1
 1240 04f3 50       		.byte	0x50
 1241 04f4 16       		.uleb128 0x16
 1242 04f5 01       		.uleb128 0x1
 1243 04f6 51       		.byte	0x51
 1244 04f7 03       		.uleb128 0x3
 1245 04f8 F3       		.byte	0xf3
 1246 04f9 01       		.uleb128 0x1
 1247 04fa 51       		.byte	0x51
 1248 04fb 16       		.uleb128 0x16
 1249 04fc 01       		.uleb128 0x1
 1250 04fd 52       		.byte	0x52
 1251 04fe 01       		.uleb128 0x1
 1252 04ff 30       		.byte	0x30
 1253 0500 16       		.uleb128 0x16
 1254 0501 01       		.uleb128 0x1
ARM GAS  /tmp/ccOXhgjL.s 			page 23


 1255 0502 53       		.byte	0x53
 1256 0503 01       		.uleb128 0x1
 1257 0504 31       		.byte	0x31
 1258 0505 00       		.byte	0
 1259 0506 00       		.byte	0
 1260 0507 17       		.uleb128 0x17
 1261 0508 EF020000 		.4byte	.LASF53
 1262 050c 01       		.byte	0x1
 1263 050d 93       		.byte	0x93
 1264 050e E3000000 		.4byte	0xe3
 1265 0512 00000000 		.4byte	.LFB4
 1266 0516 46000000 		.4byte	.LFE4-.LFB4
 1267 051a 01       		.uleb128 0x1
 1268 051b 9C       		.byte	0x9c
 1269 051c D0050000 		.4byte	0x5d0
 1270 0520 18       		.uleb128 0x18
 1271 0521 FF010000 		.4byte	.LASF51
 1272 0525 01       		.byte	0x1
 1273 0526 93       		.byte	0x93
 1274 0527 85030000 		.4byte	0x385
 1275 052b B3020000 		.4byte	.LLST19
 1276 052f 18       		.uleb128 0x18
 1277 0530 2E050000 		.4byte	.LASF52
 1278 0534 01       		.byte	0x1
 1279 0535 94       		.byte	0x94
 1280 0536 F2010000 		.4byte	0x1f2
 1281 053a D1020000 		.4byte	.LLST20
 1282 053e 18       		.uleb128 0x18
 1283 053f EE010000 		.4byte	.LASF41
 1284 0543 01       		.byte	0x1
 1285 0544 95       		.byte	0x95
 1286 0545 E3000000 		.4byte	0xe3
 1287 0549 EF020000 		.4byte	.LLST21
 1288 054d 18       		.uleb128 0x18
 1289 054e 42040000 		.4byte	.LASF54
 1290 0552 01       		.byte	0x1
 1291 0553 96       		.byte	0x96
 1292 0554 AD000000 		.4byte	0xad
 1293 0558 3C030000 		.4byte	.LLST22
 1294 055c 19       		.uleb128 0x19
 1295 055d 6300     		.ascii	"c\000"
 1296 055f 01       		.byte	0x1
 1297 0560 98       		.byte	0x98
 1298 0561 E3000000 		.4byte	0xe3
 1299 0565 5D030000 		.4byte	.LLST23
 1300 0569 1B       		.uleb128 0x1b
 1301 056a 0E000000 		.4byte	.LVL29
 1302 056e 63080000 		.4byte	0x863
 1303 0572 8F050000 		.4byte	0x58f
 1304 0576 16       		.uleb128 0x16
 1305 0577 01       		.uleb128 0x1
 1306 0578 50       		.byte	0x50
 1307 0579 02       		.uleb128 0x2
 1308 057a 76       		.byte	0x76
 1309 057b 00       		.sleb128 0
 1310 057c 16       		.uleb128 0x16
 1311 057d 01       		.uleb128 0x1
ARM GAS  /tmp/ccOXhgjL.s 			page 24


 1312 057e 51       		.byte	0x51
 1313 057f 02       		.uleb128 0x2
 1314 0580 77       		.byte	0x77
 1315 0581 00       		.sleb128 0
 1316 0582 16       		.uleb128 0x16
 1317 0583 01       		.uleb128 0x1
 1318 0584 52       		.byte	0x52
 1319 0585 03       		.uleb128 0x3
 1320 0586 F3       		.byte	0xf3
 1321 0587 01       		.uleb128 0x1
 1322 0588 52       		.byte	0x52
 1323 0589 16       		.uleb128 0x16
 1324 058a 01       		.uleb128 0x1
 1325 058b 53       		.byte	0x53
 1326 058c 01       		.uleb128 0x1
 1327 058d 30       		.byte	0x30
 1328 058e 00       		.byte	0
 1329 058f 1B       		.uleb128 0x1b
 1330 0590 26000000 		.4byte	.LVL33
 1331 0594 6E080000 		.4byte	0x86e
 1332 0598 AE050000 		.4byte	0x5ae
 1333 059c 16       		.uleb128 0x16
 1334 059d 01       		.uleb128 0x1
 1335 059e 50       		.byte	0x50
 1336 059f 02       		.uleb128 0x2
 1337 05a0 77       		.byte	0x77
 1338 05a1 00       		.sleb128 0
 1339 05a2 16       		.uleb128 0x16
 1340 05a3 01       		.uleb128 0x1
 1341 05a4 51       		.byte	0x51
 1342 05a5 02       		.uleb128 0x2
 1343 05a6 75       		.byte	0x75
 1344 05a7 00       		.sleb128 0
 1345 05a8 16       		.uleb128 0x16
 1346 05a9 01       		.uleb128 0x1
 1347 05aa 52       		.byte	0x52
 1348 05ab 01       		.uleb128 0x1
 1349 05ac 38       		.byte	0x38
 1350 05ad 00       		.byte	0
 1351 05ae 15       		.uleb128 0x15
 1352 05af 42000000 		.4byte	.LVL39
 1353 05b3 6E080000 		.4byte	0x86e
 1354 05b7 16       		.uleb128 0x16
 1355 05b8 01       		.uleb128 0x1
 1356 05b9 50       		.byte	0x50
 1357 05ba 02       		.uleb128 0x2
 1358 05bb 77       		.byte	0x77
 1359 05bc 00       		.sleb128 0
 1360 05bd 16       		.uleb128 0x16
 1361 05be 01       		.uleb128 0x1
 1362 05bf 51       		.byte	0x51
 1363 05c0 02       		.uleb128 0x2
 1364 05c1 75       		.byte	0x75
 1365 05c2 00       		.sleb128 0
 1366 05c3 16       		.uleb128 0x16
 1367 05c4 01       		.uleb128 0x1
 1368 05c5 52       		.byte	0x52
ARM GAS  /tmp/ccOXhgjL.s 			page 25


 1369 05c6 01       		.uleb128 0x1
 1370 05c7 39       		.byte	0x39
 1371 05c8 16       		.uleb128 0x16
 1372 05c9 01       		.uleb128 0x1
 1373 05ca 53       		.byte	0x53
 1374 05cb 02       		.uleb128 0x2
 1375 05cc 76       		.byte	0x76
 1376 05cd 04       		.sleb128 4
 1377 05ce 00       		.byte	0
 1378 05cf 00       		.byte	0
 1379 05d0 17       		.uleb128 0x17
 1380 05d1 9B040000 		.4byte	.LASF55
 1381 05d5 01       		.byte	0x1
 1382 05d6 78       		.byte	0x78
 1383 05d7 D3000000 		.4byte	0xd3
 1384 05db 00000000 		.4byte	.LFB3
 1385 05df 1E000000 		.4byte	.LFE3-.LFB3
 1386 05e3 01       		.uleb128 0x1
 1387 05e4 9C       		.byte	0x9c
 1388 05e5 6D060000 		.4byte	0x66d
 1389 05e9 18       		.uleb128 0x18
 1390 05ea F5030000 		.4byte	.LASF45
 1391 05ee 01       		.byte	0x1
 1392 05ef 78       		.byte	0x78
 1393 05f0 7F030000 		.4byte	0x37f
 1394 05f4 A0030000 		.4byte	.LLST13
 1395 05f8 18       		.uleb128 0x18
 1396 05f9 FE040000 		.4byte	.LASF26
 1397 05fd 01       		.byte	0x1
 1398 05fe 79       		.byte	0x79
 1399 05ff C8000000 		.4byte	0xc8
 1400 0603 C1030000 		.4byte	.LLST14
 1401 0607 18       		.uleb128 0x18
 1402 0608 64000000 		.4byte	.LASF46
 1403 060c 01       		.byte	0x1
 1404 060d 7A       		.byte	0x7a
 1405 060e 6D060000 		.4byte	0x66d
 1406 0612 E2030000 		.4byte	.LLST15
 1407 0616 18       		.uleb128 0x18
 1408 0617 B7010000 		.4byte	.LASF47
 1409 061b 01       		.byte	0x1
 1410 061c 7B       		.byte	0x7b
 1411 061d 8B030000 		.4byte	0x38b
 1412 0621 02040000 		.4byte	.LLST16
 1413 0625 1D       		.uleb128 0x1d
 1414 0626 EE010000 		.4byte	.LASF41
 1415 062a 01       		.byte	0x1
 1416 062b 7D       		.byte	0x7d
 1417 062c DE000000 		.4byte	0xde
 1418 0630 00       		.byte	0
 1419 0631 19       		.uleb128 0x19
 1420 0632 72657400 		.ascii	"ret\000"
 1421 0636 01       		.byte	0x1
 1422 0637 7E       		.byte	0x7e
 1423 0638 D3000000 		.4byte	0xd3
 1424 063c 23040000 		.4byte	.LLST17
 1425 0640 14       		.uleb128 0x14
ARM GAS  /tmp/ccOXhgjL.s 			page 26


 1426 0641 0A000000 		.4byte	.LBB2
 1427 0645 0A000000 		.4byte	.LBE2-.LBB2
 1428 0649 5B060000 		.4byte	0x65b
 1429 064d 19       		.uleb128 0x19
 1430 064e 6300     		.ascii	"c\000"
 1431 0650 01       		.byte	0x1
 1432 0651 81       		.byte	0x81
 1433 0652 E3000000 		.4byte	0xe3
 1434 0656 42040000 		.4byte	.LLST18
 1435 065a 00       		.byte	0
 1436 065b 15       		.uleb128 0x15
 1437 065c 1A000000 		.4byte	.LVL26
 1438 0660 73060000 		.4byte	0x673
 1439 0664 16       		.uleb128 0x16
 1440 0665 02       		.uleb128 0x2
 1441 0666 7D       		.byte	0x7d
 1442 0667 00       		.sleb128 0
 1443 0668 02       		.uleb128 0x2
 1444 0669 75       		.byte	0x75
 1445 066a 00       		.sleb128 0
 1446 066b 00       		.byte	0
 1447 066c 00       		.byte	0
 1448 066d 0A       		.uleb128 0xa
 1449 066e 04       		.byte	0x4
 1450 066f 82020000 		.4byte	0x282
 1451 0673 17       		.uleb128 0x17
 1452 0674 E7000000 		.4byte	.LASF56
 1453 0678 01       		.byte	0x1
 1454 0679 4A       		.byte	0x4a
 1455 067a D3000000 		.4byte	0xd3
 1456 067e 00000000 		.4byte	.LFB2
 1457 0682 46000000 		.4byte	.LFE2-.LFB2
 1458 0686 01       		.uleb128 0x1
 1459 0687 9C       		.byte	0x9c
 1460 0688 3F070000 		.4byte	0x73f
 1461 068c 18       		.uleb128 0x18
 1462 068d F5030000 		.4byte	.LASF45
 1463 0691 01       		.byte	0x1
 1464 0692 4B       		.byte	0x4b
 1465 0693 7F030000 		.4byte	0x37f
 1466 0697 56040000 		.4byte	.LLST7
 1467 069b 18       		.uleb128 0x18
 1468 069c FE040000 		.4byte	.LASF26
 1469 06a0 01       		.byte	0x1
 1470 06a1 4C       		.byte	0x4c
 1471 06a2 C8000000 		.4byte	0xc8
 1472 06a6 8D040000 		.4byte	.LLST8
 1473 06aa 18       		.uleb128 0x18
 1474 06ab 64000000 		.4byte	.LASF46
 1475 06af 01       		.byte	0x1
 1476 06b0 4D       		.byte	0x4d
 1477 06b1 6D060000 		.4byte	0x66d
 1478 06b5 AE040000 		.4byte	.LLST9
 1479 06b9 18       		.uleb128 0x18
 1480 06ba B7010000 		.4byte	.LASF47
 1481 06be 01       		.byte	0x1
 1482 06bf 4E       		.byte	0x4e
ARM GAS  /tmp/ccOXhgjL.s 			page 27


 1483 06c0 8B030000 		.4byte	0x38b
 1484 06c4 E7040000 		.4byte	.LLST10
 1485 06c8 18       		.uleb128 0x18
 1486 06c9 EE010000 		.4byte	.LASF41
 1487 06cd 01       		.byte	0x1
 1488 06ce 4F       		.byte	0x4f
 1489 06cf D3000000 		.4byte	0xd3
 1490 06d3 1E050000 		.4byte	.LLST11
 1491 06d7 19       		.uleb128 0x19
 1492 06d8 72657400 		.ascii	"ret\000"
 1493 06dc 01       		.byte	0x1
 1494 06dd 51       		.byte	0x51
 1495 06de D3000000 		.4byte	0xd3
 1496 06e2 55050000 		.4byte	.LLST12
 1497 06e6 1E       		.uleb128 0x1e
 1498 06e7 00000000 		.4byte	.LASF58
 1499 06eb 01       		.byte	0x1
 1500 06ec 63       		.byte	0x63
 1501 06ed 20000000 		.4byte	.L8
 1502 06f1 1B       		.uleb128 0x1b
 1503 06f2 1C000000 		.4byte	.LVL17
 1504 06f6 57080000 		.4byte	0x857
 1505 06fa 1D070000 		.4byte	0x71d
 1506 06fe 16       		.uleb128 0x16
 1507 06ff 01       		.uleb128 0x1
 1508 0700 50       		.byte	0x50
 1509 0701 02       		.uleb128 0x2
 1510 0702 76       		.byte	0x76
 1511 0703 00       		.sleb128 0
 1512 0704 16       		.uleb128 0x16
 1513 0705 01       		.uleb128 0x1
 1514 0706 51       		.byte	0x51
 1515 0707 02       		.uleb128 0x2
 1516 0708 74       		.byte	0x74
 1517 0709 00       		.sleb128 0
 1518 070a 16       		.uleb128 0x16
 1519 070b 01       		.uleb128 0x1
 1520 070c 52       		.byte	0x52
 1521 070d 02       		.uleb128 0x2
 1522 070e 08       		.byte	0x8
 1523 070f 28       		.byte	0x28
 1524 0710 16       		.uleb128 0x16
 1525 0711 01       		.uleb128 0x1
 1526 0712 53       		.byte	0x53
 1527 0713 01       		.uleb128 0x1
 1528 0714 30       		.byte	0x30
 1529 0715 16       		.uleb128 0x16
 1530 0716 02       		.uleb128 0x2
 1531 0717 7D       		.byte	0x7d
 1532 0718 00       		.sleb128 0
 1533 0719 02       		.uleb128 0x2
 1534 071a 75       		.byte	0x75
 1535 071b 00       		.sleb128 0
 1536 071c 00       		.byte	0
 1537 071d 1F       		.uleb128 0x1f
 1538 071e 46000000 		.4byte	.LVL23
 1539 0722 7A080000 		.4byte	0x87a
ARM GAS  /tmp/ccOXhgjL.s 			page 28


 1540 0726 16       		.uleb128 0x16
 1541 0727 01       		.uleb128 0x1
 1542 0728 50       		.byte	0x50
 1543 0729 03       		.uleb128 0x3
 1544 072a F3       		.byte	0xf3
 1545 072b 01       		.uleb128 0x1
 1546 072c 50       		.byte	0x50
 1547 072d 16       		.uleb128 0x16
 1548 072e 01       		.uleb128 0x1
 1549 072f 52       		.byte	0x52
 1550 0730 05       		.uleb128 0x5
 1551 0731 F3       		.byte	0xf3
 1552 0732 01       		.uleb128 0x1
 1553 0733 52       		.byte	0x52
 1554 0734 23       		.byte	0x23
 1555 0735 08       		.uleb128 0x8
 1556 0736 16       		.uleb128 0x16
 1557 0737 01       		.uleb128 0x1
 1558 0738 53       		.byte	0x53
 1559 0739 03       		.uleb128 0x3
 1560 073a F3       		.byte	0xf3
 1561 073b 01       		.uleb128 0x1
 1562 073c 53       		.byte	0x53
 1563 073d 00       		.byte	0
 1564 073e 00       		.byte	0
 1565 073f 17       		.uleb128 0x17
 1566 0740 06020000 		.4byte	.LASF59
 1567 0744 01       		.byte	0x1
 1568 0745 36       		.byte	0x36
 1569 0746 E3000000 		.4byte	0xe3
 1570 074a 00000000 		.4byte	.LFB1
 1571 074e 10000000 		.4byte	.LFE1-.LFB1
 1572 0752 01       		.uleb128 0x1
 1573 0753 9C       		.byte	0x9c
 1574 0754 A8070000 		.4byte	0x7a8
 1575 0758 18       		.uleb128 0x18
 1576 0759 FF010000 		.4byte	.LASF51
 1577 075d 01       		.byte	0x1
 1578 075e 36       		.byte	0x36
 1579 075f 6D060000 		.4byte	0x66d
 1580 0763 7F050000 		.4byte	.LLST4
 1581 0767 18       		.uleb128 0x18
 1582 0768 2E050000 		.4byte	.LASF52
 1583 076c 01       		.byte	0x1
 1584 076d 36       		.byte	0x36
 1585 076e F2010000 		.4byte	0x1f2
 1586 0772 A0050000 		.4byte	.LLST5
 1587 0776 1C       		.uleb128 0x1c
 1588 0777 EE010000 		.4byte	.LASF41
 1589 077b 01       		.byte	0x1
 1590 077c 38       		.byte	0x38
 1591 077d E3000000 		.4byte	0xe3
 1592 0781 C1050000 		.4byte	.LLST6
 1593 0785 15       		.uleb128 0x15
 1594 0786 0A000000 		.4byte	.LVL10
 1595 078a A8070000 		.4byte	0x7a8
 1596 078e 16       		.uleb128 0x16
ARM GAS  /tmp/ccOXhgjL.s 			page 29


 1597 078f 01       		.uleb128 0x1
 1598 0790 50       		.byte	0x50
 1599 0791 03       		.uleb128 0x3
 1600 0792 F3       		.byte	0xf3
 1601 0793 01       		.uleb128 0x1
 1602 0794 50       		.byte	0x50
 1603 0795 16       		.uleb128 0x16
 1604 0796 01       		.uleb128 0x1
 1605 0797 51       		.byte	0x51
 1606 0798 03       		.uleb128 0x3
 1607 0799 F3       		.byte	0xf3
 1608 079a 01       		.uleb128 0x1
 1609 079b 51       		.byte	0x51
 1610 079c 16       		.uleb128 0x16
 1611 079d 01       		.uleb128 0x1
 1612 079e 52       		.byte	0x52
 1613 079f 01       		.uleb128 0x1
 1614 07a0 30       		.byte	0x30
 1615 07a1 16       		.uleb128 0x16
 1616 07a2 01       		.uleb128 0x1
 1617 07a3 53       		.byte	0x53
 1618 07a4 01       		.uleb128 0x1
 1619 07a5 31       		.byte	0x31
 1620 07a6 00       		.byte	0
 1621 07a7 00       		.byte	0
 1622 07a8 17       		.uleb128 0x17
 1623 07a9 21030000 		.4byte	.LASF60
 1624 07ad 01       		.byte	0x1
 1625 07ae 21       		.byte	0x21
 1626 07af E3000000 		.4byte	0xe3
 1627 07b3 00000000 		.4byte	.LFB0
 1628 07b7 46000000 		.4byte	.LFE0-.LFB0
 1629 07bb 01       		.uleb128 0x1
 1630 07bc 9C       		.byte	0x9c
 1631 07bd 4C080000 		.4byte	0x84c
 1632 07c1 18       		.uleb128 0x18
 1633 07c2 FF010000 		.4byte	.LASF51
 1634 07c6 01       		.byte	0x1
 1635 07c7 21       		.byte	0x21
 1636 07c8 6D060000 		.4byte	0x66d
 1637 07cc ED050000 		.4byte	.LLST0
 1638 07d0 18       		.uleb128 0x18
 1639 07d1 2E050000 		.4byte	.LASF52
 1640 07d5 01       		.byte	0x1
 1641 07d6 22       		.byte	0x22
 1642 07d7 F2010000 		.4byte	0x1f2
 1643 07db 31060000 		.4byte	.LLST1
 1644 07df 18       		.uleb128 0x18
 1645 07e0 EE010000 		.4byte	.LASF41
 1646 07e4 01       		.byte	0x1
 1647 07e5 23       		.byte	0x23
 1648 07e6 E3000000 		.4byte	0xe3
 1649 07ea 68060000 		.4byte	.LLST2
 1650 07ee 18       		.uleb128 0x18
 1651 07ef 42040000 		.4byte	.LASF54
 1652 07f3 01       		.byte	0x1
 1653 07f4 24       		.byte	0x24
ARM GAS  /tmp/ccOXhgjL.s 			page 30


 1654 07f5 AD000000 		.4byte	0xad
 1655 07f9 B9060000 		.4byte	.LLST3
 1656 07fd 1B       		.uleb128 0x1b
 1657 07fe 32000000 		.4byte	.LVL5
 1658 0802 6E080000 		.4byte	0x86e
 1659 0806 23080000 		.4byte	0x823
 1660 080a 16       		.uleb128 0x16
 1661 080b 01       		.uleb128 0x1
 1662 080c 50       		.byte	0x50
 1663 080d 02       		.uleb128 0x2
 1664 080e 75       		.byte	0x75
 1665 080f 00       		.sleb128 0
 1666 0810 16       		.uleb128 0x16
 1667 0811 01       		.uleb128 0x1
 1668 0812 51       		.byte	0x51
 1669 0813 02       		.uleb128 0x2
 1670 0814 78       		.byte	0x78
 1671 0815 00       		.sleb128 0
 1672 0816 16       		.uleb128 0x16
 1673 0817 01       		.uleb128 0x1
 1674 0818 52       		.byte	0x52
 1675 0819 02       		.uleb128 0x2
 1676 081a 08       		.byte	0x8
 1677 081b 28       		.byte	0x28
 1678 081c 16       		.uleb128 0x16
 1679 081d 01       		.uleb128 0x1
 1680 081e 53       		.byte	0x53
 1681 081f 02       		.uleb128 0x2
 1682 0820 74       		.byte	0x74
 1683 0821 00       		.sleb128 0
 1684 0822 00       		.byte	0
 1685 0823 1F       		.uleb128 0x1f
 1686 0824 46000000 		.4byte	.LVL8
 1687 0828 85080000 		.4byte	0x885
 1688 082c 16       		.uleb128 0x16
 1689 082d 01       		.uleb128 0x1
 1690 082e 50       		.byte	0x50
 1691 082f 05       		.uleb128 0x5
 1692 0830 F3       		.byte	0xf3
 1693 0831 01       		.uleb128 0x1
 1694 0832 50       		.byte	0x50
 1695 0833 23       		.byte	0x23
 1696 0834 08       		.uleb128 0x8
 1697 0835 16       		.uleb128 0x16
 1698 0836 01       		.uleb128 0x1
 1699 0837 51       		.byte	0x51
 1700 0838 03       		.uleb128 0x3
 1701 0839 F3       		.byte	0xf3
 1702 083a 01       		.uleb128 0x1
 1703 083b 51       		.byte	0x51
 1704 083c 16       		.uleb128 0x16
 1705 083d 01       		.uleb128 0x1
 1706 083e 52       		.byte	0x52
 1707 083f 05       		.uleb128 0x5
 1708 0840 F3       		.byte	0xf3
 1709 0841 01       		.uleb128 0x1
 1710 0842 52       		.byte	0x52
ARM GAS  /tmp/ccOXhgjL.s 			page 31


 1711 0843 23       		.byte	0x23
 1712 0844 28       		.uleb128 0x28
 1713 0845 16       		.uleb128 0x16
 1714 0846 01       		.uleb128 0x1
 1715 0847 53       		.byte	0x53
 1716 0848 01       		.uleb128 0x1
 1717 0849 30       		.byte	0x30
 1718 084a 00       		.byte	0
 1719 084b 00       		.byte	0
 1720 084c 20       		.uleb128 0x20
 1721 084d CD040000 		.4byte	.LASF61
 1722 0851 CD040000 		.4byte	.LASF61
 1723 0855 05       		.byte	0x5
 1724 0856 50       		.byte	0x50
 1725 0857 21       		.uleb128 0x21
 1726 0858 1B050000 		.4byte	.LASF62
 1727 085c 1B050000 		.4byte	.LASF62
 1728 0860 04       		.byte	0x4
 1729 0861 CD01     		.2byte	0x1cd
 1730 0863 20       		.uleb128 0x20
 1731 0864 2C000000 		.4byte	.LASF63
 1732 0868 2C000000 		.4byte	.LASF63
 1733 086c 05       		.byte	0x5
 1734 086d 4D       		.byte	0x4d
 1735 086e 21       		.uleb128 0x21
 1736 086f 9C030000 		.4byte	.LASF64
 1737 0873 9C030000 		.4byte	.LASF64
 1738 0877 04       		.byte	0x4
 1739 0878 E701     		.2byte	0x1e7
 1740 087a 20       		.uleb128 0x20
 1741 087b 67040000 		.4byte	.LASF65
 1742 087f 67040000 		.4byte	.LASF65
 1743 0883 06       		.byte	0x6
 1744 0884 46       		.byte	0x46
 1745 0885 20       		.uleb128 0x20
 1746 0886 65010000 		.4byte	.LASF66
 1747 088a 65010000 		.4byte	.LASF66
 1748 088e 06       		.byte	0x6
 1749 088f 43       		.byte	0x43
 1750 0890 00       		.byte	0
 1751              		.section	.debug_abbrev,"",%progbits
 1752              	.Ldebug_abbrev0:
 1753 0000 01       		.uleb128 0x1
 1754 0001 11       		.uleb128 0x11
 1755 0002 01       		.byte	0x1
 1756 0003 25       		.uleb128 0x25
 1757 0004 0E       		.uleb128 0xe
 1758 0005 13       		.uleb128 0x13
 1759 0006 0B       		.uleb128 0xb
 1760 0007 03       		.uleb128 0x3
 1761 0008 0E       		.uleb128 0xe
 1762 0009 1B       		.uleb128 0x1b
 1763 000a 0E       		.uleb128 0xe
 1764 000b 55       		.uleb128 0x55
 1765 000c 17       		.uleb128 0x17
 1766 000d 11       		.uleb128 0x11
 1767 000e 01       		.uleb128 0x1
ARM GAS  /tmp/ccOXhgjL.s 			page 32


 1768 000f 10       		.uleb128 0x10
 1769 0010 17       		.uleb128 0x17
 1770 0011 00       		.byte	0
 1771 0012 00       		.byte	0
 1772 0013 02       		.uleb128 0x2
 1773 0014 24       		.uleb128 0x24
 1774 0015 00       		.byte	0
 1775 0016 0B       		.uleb128 0xb
 1776 0017 0B       		.uleb128 0xb
 1777 0018 3E       		.uleb128 0x3e
 1778 0019 0B       		.uleb128 0xb
 1779 001a 03       		.uleb128 0x3
 1780 001b 0E       		.uleb128 0xe
 1781 001c 00       		.byte	0
 1782 001d 00       		.byte	0
 1783 001e 03       		.uleb128 0x3
 1784 001f 16       		.uleb128 0x16
 1785 0020 00       		.byte	0
 1786 0021 03       		.uleb128 0x3
 1787 0022 0E       		.uleb128 0xe
 1788 0023 3A       		.uleb128 0x3a
 1789 0024 0B       		.uleb128 0xb
 1790 0025 3B       		.uleb128 0x3b
 1791 0026 0B       		.uleb128 0xb
 1792 0027 49       		.uleb128 0x49
 1793 0028 13       		.uleb128 0x13
 1794 0029 00       		.byte	0
 1795 002a 00       		.byte	0
 1796 002b 04       		.uleb128 0x4
 1797 002c 24       		.uleb128 0x24
 1798 002d 00       		.byte	0
 1799 002e 0B       		.uleb128 0xb
 1800 002f 0B       		.uleb128 0xb
 1801 0030 3E       		.uleb128 0x3e
 1802 0031 0B       		.uleb128 0xb
 1803 0032 03       		.uleb128 0x3
 1804 0033 08       		.uleb128 0x8
 1805 0034 00       		.byte	0
 1806 0035 00       		.byte	0
 1807 0036 05       		.uleb128 0x5
 1808 0037 26       		.uleb128 0x26
 1809 0038 00       		.byte	0
 1810 0039 49       		.uleb128 0x49
 1811 003a 13       		.uleb128 0x13
 1812 003b 00       		.byte	0
 1813 003c 00       		.byte	0
 1814 003d 06       		.uleb128 0x6
 1815 003e 13       		.uleb128 0x13
 1816 003f 01       		.byte	0x1
 1817 0040 03       		.uleb128 0x3
 1818 0041 0E       		.uleb128 0xe
 1819 0042 0B       		.uleb128 0xb
 1820 0043 0B       		.uleb128 0xb
 1821 0044 3A       		.uleb128 0x3a
 1822 0045 0B       		.uleb128 0xb
 1823 0046 3B       		.uleb128 0x3b
 1824 0047 05       		.uleb128 0x5
ARM GAS  /tmp/ccOXhgjL.s 			page 33


 1825 0048 01       		.uleb128 0x1
 1826 0049 13       		.uleb128 0x13
 1827 004a 00       		.byte	0
 1828 004b 00       		.byte	0
 1829 004c 07       		.uleb128 0x7
 1830 004d 0D       		.uleb128 0xd
 1831 004e 00       		.byte	0
 1832 004f 03       		.uleb128 0x3
 1833 0050 0E       		.uleb128 0xe
 1834 0051 3A       		.uleb128 0x3a
 1835 0052 0B       		.uleb128 0xb
 1836 0053 3B       		.uleb128 0x3b
 1837 0054 05       		.uleb128 0x5
 1838 0055 49       		.uleb128 0x49
 1839 0056 13       		.uleb128 0x13
 1840 0057 38       		.uleb128 0x38
 1841 0058 0B       		.uleb128 0xb
 1842 0059 00       		.byte	0
 1843 005a 00       		.byte	0
 1844 005b 08       		.uleb128 0x8
 1845 005c 13       		.uleb128 0x13
 1846 005d 01       		.byte	0x1
 1847 005e 03       		.uleb128 0x3
 1848 005f 0E       		.uleb128 0xe
 1849 0060 0B       		.uleb128 0xb
 1850 0061 0B       		.uleb128 0xb
 1851 0062 3A       		.uleb128 0x3a
 1852 0063 0B       		.uleb128 0xb
 1853 0064 3B       		.uleb128 0x3b
 1854 0065 0B       		.uleb128 0xb
 1855 0066 01       		.uleb128 0x1
 1856 0067 13       		.uleb128 0x13
 1857 0068 00       		.byte	0
 1858 0069 00       		.byte	0
 1859 006a 09       		.uleb128 0x9
 1860 006b 0D       		.uleb128 0xd
 1861 006c 00       		.byte	0
 1862 006d 03       		.uleb128 0x3
 1863 006e 0E       		.uleb128 0xe
 1864 006f 3A       		.uleb128 0x3a
 1865 0070 0B       		.uleb128 0xb
 1866 0071 3B       		.uleb128 0x3b
 1867 0072 0B       		.uleb128 0xb
 1868 0073 49       		.uleb128 0x49
 1869 0074 13       		.uleb128 0x13
 1870 0075 38       		.uleb128 0x38
 1871 0076 0B       		.uleb128 0xb
 1872 0077 00       		.byte	0
 1873 0078 00       		.byte	0
 1874 0079 0A       		.uleb128 0xa
 1875 007a 0F       		.uleb128 0xf
 1876 007b 00       		.byte	0
 1877 007c 0B       		.uleb128 0xb
 1878 007d 0B       		.uleb128 0xb
 1879 007e 49       		.uleb128 0x49
 1880 007f 13       		.uleb128 0x13
 1881 0080 00       		.byte	0
ARM GAS  /tmp/ccOXhgjL.s 			page 34


 1882 0081 00       		.byte	0
 1883 0082 0B       		.uleb128 0xb
 1884 0083 01       		.uleb128 0x1
 1885 0084 01       		.byte	0x1
 1886 0085 49       		.uleb128 0x49
 1887 0086 13       		.uleb128 0x13
 1888 0087 01       		.uleb128 0x1
 1889 0088 13       		.uleb128 0x13
 1890 0089 00       		.byte	0
 1891 008a 00       		.byte	0
 1892 008b 0C       		.uleb128 0xc
 1893 008c 21       		.uleb128 0x21
 1894 008d 00       		.byte	0
 1895 008e 49       		.uleb128 0x49
 1896 008f 13       		.uleb128 0x13
 1897 0090 00       		.byte	0
 1898 0091 00       		.byte	0
 1899 0092 0D       		.uleb128 0xd
 1900 0093 0F       		.uleb128 0xf
 1901 0094 00       		.byte	0
 1902 0095 0B       		.uleb128 0xb
 1903 0096 0B       		.uleb128 0xb
 1904 0097 00       		.byte	0
 1905 0098 00       		.byte	0
 1906 0099 0E       		.uleb128 0xe
 1907 009a 13       		.uleb128 0x13
 1908 009b 01       		.byte	0x1
 1909 009c 0B       		.uleb128 0xb
 1910 009d 0B       		.uleb128 0xb
 1911 009e 3A       		.uleb128 0x3a
 1912 009f 0B       		.uleb128 0xb
 1913 00a0 3B       		.uleb128 0x3b
 1914 00a1 0B       		.uleb128 0xb
 1915 00a2 01       		.uleb128 0x1
 1916 00a3 13       		.uleb128 0x13
 1917 00a4 00       		.byte	0
 1918 00a5 00       		.byte	0
 1919 00a6 0F       		.uleb128 0xf
 1920 00a7 0D       		.uleb128 0xd
 1921 00a8 00       		.byte	0
 1922 00a9 03       		.uleb128 0x3
 1923 00aa 08       		.uleb128 0x8
 1924 00ab 3A       		.uleb128 0x3a
 1925 00ac 0B       		.uleb128 0xb
 1926 00ad 3B       		.uleb128 0x3b
 1927 00ae 0B       		.uleb128 0xb
 1928 00af 49       		.uleb128 0x49
 1929 00b0 13       		.uleb128 0x13
 1930 00b1 38       		.uleb128 0x38
 1931 00b2 0B       		.uleb128 0xb
 1932 00b3 00       		.byte	0
 1933 00b4 00       		.byte	0
 1934 00b5 10       		.uleb128 0x10
 1935 00b6 2E       		.uleb128 0x2e
 1936 00b7 01       		.byte	0x1
 1937 00b8 3F       		.uleb128 0x3f
 1938 00b9 19       		.uleb128 0x19
ARM GAS  /tmp/ccOXhgjL.s 			page 35


 1939 00ba 03       		.uleb128 0x3
 1940 00bb 0E       		.uleb128 0xe
 1941 00bc 3A       		.uleb128 0x3a
 1942 00bd 0B       		.uleb128 0xb
 1943 00be 3B       		.uleb128 0x3b
 1944 00bf 05       		.uleb128 0x5
 1945 00c0 27       		.uleb128 0x27
 1946 00c1 19       		.uleb128 0x19
 1947 00c2 49       		.uleb128 0x49
 1948 00c3 13       		.uleb128 0x13
 1949 00c4 11       		.uleb128 0x11
 1950 00c5 01       		.uleb128 0x1
 1951 00c6 12       		.uleb128 0x12
 1952 00c7 06       		.uleb128 0x6
 1953 00c8 40       		.uleb128 0x40
 1954 00c9 18       		.uleb128 0x18
 1955 00ca 9742     		.uleb128 0x2117
 1956 00cc 19       		.uleb128 0x19
 1957 00cd 01       		.uleb128 0x1
 1958 00ce 13       		.uleb128 0x13
 1959 00cf 00       		.byte	0
 1960 00d0 00       		.byte	0
 1961 00d1 11       		.uleb128 0x11
 1962 00d2 05       		.uleb128 0x5
 1963 00d3 00       		.byte	0
 1964 00d4 03       		.uleb128 0x3
 1965 00d5 0E       		.uleb128 0xe
 1966 00d6 3A       		.uleb128 0x3a
 1967 00d7 0B       		.uleb128 0xb
 1968 00d8 3B       		.uleb128 0x3b
 1969 00d9 05       		.uleb128 0x5
 1970 00da 49       		.uleb128 0x49
 1971 00db 13       		.uleb128 0x13
 1972 00dc 02       		.uleb128 0x2
 1973 00dd 17       		.uleb128 0x17
 1974 00de 00       		.byte	0
 1975 00df 00       		.byte	0
 1976 00e0 12       		.uleb128 0x12
 1977 00e1 34       		.uleb128 0x34
 1978 00e2 00       		.byte	0
 1979 00e3 03       		.uleb128 0x3
 1980 00e4 0E       		.uleb128 0xe
 1981 00e5 3A       		.uleb128 0x3a
 1982 00e6 0B       		.uleb128 0xb
 1983 00e7 3B       		.uleb128 0x3b
 1984 00e8 05       		.uleb128 0x5
 1985 00e9 49       		.uleb128 0x49
 1986 00ea 13       		.uleb128 0x13
 1987 00eb 1C       		.uleb128 0x1c
 1988 00ec 0B       		.uleb128 0xb
 1989 00ed 00       		.byte	0
 1990 00ee 00       		.byte	0
 1991 00ef 13       		.uleb128 0x13
 1992 00f0 34       		.uleb128 0x34
 1993 00f1 00       		.byte	0
 1994 00f2 03       		.uleb128 0x3
 1995 00f3 08       		.uleb128 0x8
ARM GAS  /tmp/ccOXhgjL.s 			page 36


 1996 00f4 3A       		.uleb128 0x3a
 1997 00f5 0B       		.uleb128 0xb
 1998 00f6 3B       		.uleb128 0x3b
 1999 00f7 05       		.uleb128 0x5
 2000 00f8 49       		.uleb128 0x49
 2001 00f9 13       		.uleb128 0x13
 2002 00fa 02       		.uleb128 0x2
 2003 00fb 17       		.uleb128 0x17
 2004 00fc 00       		.byte	0
 2005 00fd 00       		.byte	0
 2006 00fe 14       		.uleb128 0x14
 2007 00ff 0B       		.uleb128 0xb
 2008 0100 01       		.byte	0x1
 2009 0101 11       		.uleb128 0x11
 2010 0102 01       		.uleb128 0x1
 2011 0103 12       		.uleb128 0x12
 2012 0104 06       		.uleb128 0x6
 2013 0105 01       		.uleb128 0x1
 2014 0106 13       		.uleb128 0x13
 2015 0107 00       		.byte	0
 2016 0108 00       		.byte	0
 2017 0109 15       		.uleb128 0x15
 2018 010a 898201   		.uleb128 0x4109
 2019 010d 01       		.byte	0x1
 2020 010e 11       		.uleb128 0x11
 2021 010f 01       		.uleb128 0x1
 2022 0110 31       		.uleb128 0x31
 2023 0111 13       		.uleb128 0x13
 2024 0112 00       		.byte	0
 2025 0113 00       		.byte	0
 2026 0114 16       		.uleb128 0x16
 2027 0115 8A8201   		.uleb128 0x410a
 2028 0118 00       		.byte	0
 2029 0119 02       		.uleb128 0x2
 2030 011a 18       		.uleb128 0x18
 2031 011b 9142     		.uleb128 0x2111
 2032 011d 18       		.uleb128 0x18
 2033 011e 00       		.byte	0
 2034 011f 00       		.byte	0
 2035 0120 17       		.uleb128 0x17
 2036 0121 2E       		.uleb128 0x2e
 2037 0122 01       		.byte	0x1
 2038 0123 3F       		.uleb128 0x3f
 2039 0124 19       		.uleb128 0x19
 2040 0125 03       		.uleb128 0x3
 2041 0126 0E       		.uleb128 0xe
 2042 0127 3A       		.uleb128 0x3a
 2043 0128 0B       		.uleb128 0xb
 2044 0129 3B       		.uleb128 0x3b
 2045 012a 0B       		.uleb128 0xb
 2046 012b 27       		.uleb128 0x27
 2047 012c 19       		.uleb128 0x19
 2048 012d 49       		.uleb128 0x49
 2049 012e 13       		.uleb128 0x13
 2050 012f 11       		.uleb128 0x11
 2051 0130 01       		.uleb128 0x1
 2052 0131 12       		.uleb128 0x12
ARM GAS  /tmp/ccOXhgjL.s 			page 37


 2053 0132 06       		.uleb128 0x6
 2054 0133 40       		.uleb128 0x40
 2055 0134 18       		.uleb128 0x18
 2056 0135 9742     		.uleb128 0x2117
 2057 0137 19       		.uleb128 0x19
 2058 0138 01       		.uleb128 0x1
 2059 0139 13       		.uleb128 0x13
 2060 013a 00       		.byte	0
 2061 013b 00       		.byte	0
 2062 013c 18       		.uleb128 0x18
 2063 013d 05       		.uleb128 0x5
 2064 013e 00       		.byte	0
 2065 013f 03       		.uleb128 0x3
 2066 0140 0E       		.uleb128 0xe
 2067 0141 3A       		.uleb128 0x3a
 2068 0142 0B       		.uleb128 0xb
 2069 0143 3B       		.uleb128 0x3b
 2070 0144 0B       		.uleb128 0xb
 2071 0145 49       		.uleb128 0x49
 2072 0146 13       		.uleb128 0x13
 2073 0147 02       		.uleb128 0x2
 2074 0148 17       		.uleb128 0x17
 2075 0149 00       		.byte	0
 2076 014a 00       		.byte	0
 2077 014b 19       		.uleb128 0x19
 2078 014c 34       		.uleb128 0x34
 2079 014d 00       		.byte	0
 2080 014e 03       		.uleb128 0x3
 2081 014f 08       		.uleb128 0x8
 2082 0150 3A       		.uleb128 0x3a
 2083 0151 0B       		.uleb128 0xb
 2084 0152 3B       		.uleb128 0x3b
 2085 0153 0B       		.uleb128 0xb
 2086 0154 49       		.uleb128 0x49
 2087 0155 13       		.uleb128 0x13
 2088 0156 02       		.uleb128 0x2
 2089 0157 17       		.uleb128 0x17
 2090 0158 00       		.byte	0
 2091 0159 00       		.byte	0
 2092 015a 1A       		.uleb128 0x1a
 2093 015b 0A       		.uleb128 0xa
 2094 015c 00       		.byte	0
 2095 015d 03       		.uleb128 0x3
 2096 015e 0E       		.uleb128 0xe
 2097 015f 3A       		.uleb128 0x3a
 2098 0160 0B       		.uleb128 0xb
 2099 0161 3B       		.uleb128 0x3b
 2100 0162 05       		.uleb128 0x5
 2101 0163 11       		.uleb128 0x11
 2102 0164 01       		.uleb128 0x1
 2103 0165 00       		.byte	0
 2104 0166 00       		.byte	0
 2105 0167 1B       		.uleb128 0x1b
 2106 0168 898201   		.uleb128 0x4109
 2107 016b 01       		.byte	0x1
 2108 016c 11       		.uleb128 0x11
 2109 016d 01       		.uleb128 0x1
ARM GAS  /tmp/ccOXhgjL.s 			page 38


 2110 016e 31       		.uleb128 0x31
 2111 016f 13       		.uleb128 0x13
 2112 0170 01       		.uleb128 0x1
 2113 0171 13       		.uleb128 0x13
 2114 0172 00       		.byte	0
 2115 0173 00       		.byte	0
 2116 0174 1C       		.uleb128 0x1c
 2117 0175 34       		.uleb128 0x34
 2118 0176 00       		.byte	0
 2119 0177 03       		.uleb128 0x3
 2120 0178 0E       		.uleb128 0xe
 2121 0179 3A       		.uleb128 0x3a
 2122 017a 0B       		.uleb128 0xb
 2123 017b 3B       		.uleb128 0x3b
 2124 017c 0B       		.uleb128 0xb
 2125 017d 49       		.uleb128 0x49
 2126 017e 13       		.uleb128 0x13
 2127 017f 02       		.uleb128 0x2
 2128 0180 17       		.uleb128 0x17
 2129 0181 00       		.byte	0
 2130 0182 00       		.byte	0
 2131 0183 1D       		.uleb128 0x1d
 2132 0184 34       		.uleb128 0x34
 2133 0185 00       		.byte	0
 2134 0186 03       		.uleb128 0x3
 2135 0187 0E       		.uleb128 0xe
 2136 0188 3A       		.uleb128 0x3a
 2137 0189 0B       		.uleb128 0xb
 2138 018a 3B       		.uleb128 0x3b
 2139 018b 0B       		.uleb128 0xb
 2140 018c 49       		.uleb128 0x49
 2141 018d 13       		.uleb128 0x13
 2142 018e 1C       		.uleb128 0x1c
 2143 018f 0B       		.uleb128 0xb
 2144 0190 00       		.byte	0
 2145 0191 00       		.byte	0
 2146 0192 1E       		.uleb128 0x1e
 2147 0193 0A       		.uleb128 0xa
 2148 0194 00       		.byte	0
 2149 0195 03       		.uleb128 0x3
 2150 0196 0E       		.uleb128 0xe
 2151 0197 3A       		.uleb128 0x3a
 2152 0198 0B       		.uleb128 0xb
 2153 0199 3B       		.uleb128 0x3b
 2154 019a 0B       		.uleb128 0xb
 2155 019b 11       		.uleb128 0x11
 2156 019c 01       		.uleb128 0x1
 2157 019d 00       		.byte	0
 2158 019e 00       		.byte	0
 2159 019f 1F       		.uleb128 0x1f
 2160 01a0 898201   		.uleb128 0x4109
 2161 01a3 01       		.byte	0x1
 2162 01a4 11       		.uleb128 0x11
 2163 01a5 01       		.uleb128 0x1
 2164 01a6 9542     		.uleb128 0x2115
 2165 01a8 19       		.uleb128 0x19
 2166 01a9 31       		.uleb128 0x31
ARM GAS  /tmp/ccOXhgjL.s 			page 39


 2167 01aa 13       		.uleb128 0x13
 2168 01ab 00       		.byte	0
 2169 01ac 00       		.byte	0
 2170 01ad 20       		.uleb128 0x20
 2171 01ae 2E       		.uleb128 0x2e
 2172 01af 00       		.byte	0
 2173 01b0 3F       		.uleb128 0x3f
 2174 01b1 19       		.uleb128 0x19
 2175 01b2 3C       		.uleb128 0x3c
 2176 01b3 19       		.uleb128 0x19
 2177 01b4 6E       		.uleb128 0x6e
 2178 01b5 0E       		.uleb128 0xe
 2179 01b6 03       		.uleb128 0x3
 2180 01b7 0E       		.uleb128 0xe
 2181 01b8 3A       		.uleb128 0x3a
 2182 01b9 0B       		.uleb128 0xb
 2183 01ba 3B       		.uleb128 0x3b
 2184 01bb 0B       		.uleb128 0xb
 2185 01bc 00       		.byte	0
 2186 01bd 00       		.byte	0
 2187 01be 21       		.uleb128 0x21
 2188 01bf 2E       		.uleb128 0x2e
 2189 01c0 00       		.byte	0
 2190 01c1 3F       		.uleb128 0x3f
 2191 01c2 19       		.uleb128 0x19
 2192 01c3 3C       		.uleb128 0x3c
 2193 01c4 19       		.uleb128 0x19
 2194 01c5 6E       		.uleb128 0x6e
 2195 01c6 0E       		.uleb128 0xe
 2196 01c7 03       		.uleb128 0x3
 2197 01c8 0E       		.uleb128 0xe
 2198 01c9 3A       		.uleb128 0x3a
 2199 01ca 0B       		.uleb128 0xb
 2200 01cb 3B       		.uleb128 0x3b
 2201 01cc 05       		.uleb128 0x5
 2202 01cd 00       		.byte	0
 2203 01ce 00       		.byte	0
 2204 01cf 00       		.byte	0
 2205              		.section	.debug_loc,"",%progbits
 2206              	.Ldebug_loc0:
 2207              	.LLST34:
 2208 0000 00000000 		.4byte	.LVL62
 2209 0004 19000000 		.4byte	.LVL64-1
 2210 0008 0100     		.2byte	0x1
 2211 000a 50       		.byte	0x50
 2212 000b 19000000 		.4byte	.LVL64-1
 2213 000f 1E000000 		.4byte	.LFE7
 2214 0013 0400     		.2byte	0x4
 2215 0015 F3       		.byte	0xf3
 2216 0016 01       		.uleb128 0x1
 2217 0017 50       		.byte	0x50
 2218 0018 9F       		.byte	0x9f
 2219 0019 00000000 		.4byte	0
 2220 001d 00000000 		.4byte	0
 2221              	.LLST35:
 2222 0021 00000000 		.4byte	.LVL62
 2223 0025 19000000 		.4byte	.LVL64-1
ARM GAS  /tmp/ccOXhgjL.s 			page 40


 2224 0029 0100     		.2byte	0x1
 2225 002b 51       		.byte	0x51
 2226 002c 19000000 		.4byte	.LVL64-1
 2227 0030 1E000000 		.4byte	.LFE7
 2228 0034 0400     		.2byte	0x4
 2229 0036 F3       		.byte	0xf3
 2230 0037 01       		.uleb128 0x1
 2231 0038 51       		.byte	0x51
 2232 0039 9F       		.byte	0x9f
 2233 003a 00000000 		.4byte	0
 2234 003e 00000000 		.4byte	0
 2235              	.LLST36:
 2236 0042 00000000 		.4byte	.LVL62
 2237 0046 19000000 		.4byte	.LVL64-1
 2238 004a 0100     		.2byte	0x1
 2239 004c 52       		.byte	0x52
 2240 004d 19000000 		.4byte	.LVL64-1
 2241 0051 1E000000 		.4byte	.LFE7
 2242 0055 0300     		.2byte	0x3
 2243 0057 76       		.byte	0x76
 2244 0058 75       		.sleb128 -11
 2245 0059 9F       		.byte	0x9f
 2246 005a 00000000 		.4byte	0
 2247 005e 00000000 		.4byte	0
 2248              	.LLST37:
 2249 0062 00000000 		.4byte	.LVL62
 2250 0066 19000000 		.4byte	.LVL64-1
 2251 006a 0100     		.2byte	0x1
 2252 006c 53       		.byte	0x53
 2253 006d 19000000 		.4byte	.LVL64-1
 2254 0071 1E000000 		.4byte	.LFE7
 2255 0075 0400     		.2byte	0x4
 2256 0077 F3       		.byte	0xf3
 2257 0078 01       		.uleb128 0x1
 2258 0079 53       		.byte	0x53
 2259 007a 9F       		.byte	0x9f
 2260 007b 00000000 		.4byte	0
 2261 007f 00000000 		.4byte	0
 2262              	.LLST38:
 2263 0083 00000000 		.4byte	.LVL62
 2264 0087 1A000000 		.4byte	.LVL64
 2265 008b 0200     		.2byte	0x2
 2266 008d 30       		.byte	0x30
 2267 008e 9F       		.byte	0x9f
 2268 008f 1A000000 		.4byte	.LVL64
 2269 0093 1E000000 		.4byte	.LFE7
 2270 0097 0100     		.2byte	0x1
 2271 0099 50       		.byte	0x50
 2272 009a 00000000 		.4byte	0
 2273 009e 00000000 		.4byte	0
 2274              	.LLST39:
 2275 00a2 00000000 		.4byte	.LVL62
 2276 00a6 0C000000 		.4byte	.LVL63
 2277 00aa 0200     		.2byte	0x2
 2278 00ac 30       		.byte	0x30
 2279 00ad 9F       		.byte	0x9f
 2280 00ae 00000000 		.4byte	0
ARM GAS  /tmp/ccOXhgjL.s 			page 41


 2281 00b2 00000000 		.4byte	0
 2282              	.LLST27:
 2283 00b6 00000000 		.4byte	.LVL45
 2284 00ba 15000000 		.4byte	.LVL46-1
 2285 00be 0100     		.2byte	0x1
 2286 00c0 50       		.byte	0x50
 2287 00c1 15000000 		.4byte	.LVL46-1
 2288 00c5 46000000 		.4byte	.LVL51
 2289 00c9 0100     		.2byte	0x1
 2290 00cb 59       		.byte	0x59
 2291 00cc 46000000 		.4byte	.LVL51
 2292 00d0 4D000000 		.4byte	.LVL52-1
 2293 00d4 0100     		.2byte	0x1
 2294 00d6 50       		.byte	0x50
 2295 00d7 4D000000 		.4byte	.LVL52-1
 2296 00db 98000000 		.4byte	.LFE6
 2297 00df 0100     		.2byte	0x1
 2298 00e1 59       		.byte	0x59
 2299 00e2 00000000 		.4byte	0
 2300 00e6 00000000 		.4byte	0
 2301              	.LLST28:
 2302 00ea 00000000 		.4byte	.LVL45
 2303 00ee 15000000 		.4byte	.LVL46-1
 2304 00f2 0100     		.2byte	0x1
 2305 00f4 51       		.byte	0x51
 2306 00f5 15000000 		.4byte	.LVL46-1
 2307 00f9 98000000 		.4byte	.LFE6
 2308 00fd 0400     		.2byte	0x4
 2309 00ff F3       		.byte	0xf3
 2310 0100 01       		.uleb128 0x1
 2311 0101 51       		.byte	0x51
 2312 0102 9F       		.byte	0x9f
 2313 0103 00000000 		.4byte	0
 2314 0107 00000000 		.4byte	0
 2315              	.LLST29:
 2316 010b 00000000 		.4byte	.LVL45
 2317 010f 15000000 		.4byte	.LVL46-1
 2318 0113 0100     		.2byte	0x1
 2319 0115 52       		.byte	0x52
 2320 0116 15000000 		.4byte	.LVL46-1
 2321 011a 98000000 		.4byte	.LFE6
 2322 011e 0100     		.2byte	0x1
 2323 0120 58       		.byte	0x58
 2324 0121 00000000 		.4byte	0
 2325 0125 00000000 		.4byte	0
 2326              	.LLST30:
 2327 0129 00000000 		.4byte	.LVL45
 2328 012d 15000000 		.4byte	.LVL46-1
 2329 0131 0100     		.2byte	0x1
 2330 0133 53       		.byte	0x53
 2331 0134 15000000 		.4byte	.LVL46-1
 2332 0138 98000000 		.4byte	.LFE6
 2333 013c 0100     		.2byte	0x1
 2334 013e 56       		.byte	0x56
 2335 013f 00000000 		.4byte	0
 2336 0143 00000000 		.4byte	0
 2337              	.LLST31:
ARM GAS  /tmp/ccOXhgjL.s 			page 42


 2338 0147 00000000 		.4byte	.LVL45
 2339 014b 16000000 		.4byte	.LVL46
 2340 014f 0200     		.2byte	0x2
 2341 0151 91       		.byte	0x91
 2342 0152 00       		.sleb128 0
 2343 0153 16000000 		.4byte	.LVL46
 2344 0157 2C000000 		.4byte	.LVL47
 2345 015b 0100     		.2byte	0x1
 2346 015d 50       		.byte	0x50
 2347 015e 2C000000 		.4byte	.LVL47
 2348 0162 44000000 		.4byte	.LVL50
 2349 0166 0100     		.2byte	0x1
 2350 0168 54       		.byte	0x54
 2351 0169 44000000 		.4byte	.LVL50
 2352 016d 4D000000 		.4byte	.LVL52-1
 2353 0171 0100     		.2byte	0x1
 2354 0173 51       		.byte	0x51
 2355 0174 4D000000 		.4byte	.LVL52-1
 2356 0178 58000000 		.4byte	.LVL53
 2357 017c 0300     		.2byte	0x3
 2358 017e 74       		.byte	0x74
 2359 017f 78       		.sleb128 -8
 2360 0180 9F       		.byte	0x9f
 2361 0181 58000000 		.4byte	.LVL53
 2362 0185 68000000 		.4byte	.LVL55
 2363 0189 0100     		.2byte	0x1
 2364 018b 54       		.byte	0x54
 2365 018c 68000000 		.4byte	.LVL55
 2366 0190 76000000 		.4byte	.LVL56
 2367 0194 0100     		.2byte	0x1
 2368 0196 50       		.byte	0x50
 2369 0197 76000000 		.4byte	.LVL56
 2370 019b 7E000000 		.4byte	.LVL58
 2371 019f 0100     		.2byte	0x1
 2372 01a1 54       		.byte	0x54
 2373 01a2 90000000 		.4byte	.LVL60
 2374 01a6 98000000 		.4byte	.LFE6
 2375 01aa 0100     		.2byte	0x1
 2376 01ac 54       		.byte	0x54
 2377 01ad 00000000 		.4byte	0
 2378 01b1 00000000 		.4byte	0
 2379              	.LLST32:
 2380 01b5 00000000 		.4byte	.LVL45
 2381 01b9 2C000000 		.4byte	.LVL47
 2382 01bd 0200     		.2byte	0x2
 2383 01bf 30       		.byte	0x30
 2384 01c0 9F       		.byte	0x9f
 2385 01c1 4E000000 		.4byte	.LVL52
 2386 01c5 58000000 		.4byte	.LVL53
 2387 01c9 0100     		.2byte	0x1
 2388 01cb 50       		.byte	0x50
 2389 01cc 68000000 		.4byte	.LVL55
 2390 01d0 7A000000 		.4byte	.LVL57
 2391 01d4 0200     		.2byte	0x2
 2392 01d6 30       		.byte	0x30
 2393 01d7 9F       		.byte	0x9f
 2394 01d8 7A000000 		.4byte	.LVL57
ARM GAS  /tmp/ccOXhgjL.s 			page 43


 2395 01dc 8A000000 		.4byte	.LVL59
 2396 01e0 0100     		.2byte	0x1
 2397 01e2 50       		.byte	0x50
 2398 01e3 90000000 		.4byte	.LVL60
 2399 01e7 98000000 		.4byte	.LFE6
 2400 01eb 0100     		.2byte	0x1
 2401 01ed 50       		.byte	0x50
 2402 01ee 00000000 		.4byte	0
 2403 01f2 00000000 		.4byte	0
 2404              	.LLST33:
 2405 01f6 00000000 		.4byte	.LVL45
 2406 01fa 38000000 		.4byte	.LVL48
 2407 01fe 0200     		.2byte	0x2
 2408 0200 30       		.byte	0x30
 2409 0201 9F       		.byte	0x9f
 2410 0202 38000000 		.4byte	.LVL48
 2411 0206 42000000 		.4byte	.LVL49
 2412 020a 0100     		.2byte	0x1
 2413 020c 55       		.byte	0x55
 2414 020d 42000000 		.4byte	.LVL49
 2415 0211 58000000 		.4byte	.LVL53
 2416 0215 0300     		.2byte	0x3
 2417 0217 75       		.byte	0x75
 2418 0218 7F       		.sleb128 -1
 2419 0219 9F       		.byte	0x9f
 2420 021a 58000000 		.4byte	.LVL53
 2421 021e 60000000 		.4byte	.LVL54
 2422 0222 0100     		.2byte	0x1
 2423 0224 55       		.byte	0x55
 2424 0225 68000000 		.4byte	.LVL55
 2425 0229 7E000000 		.4byte	.LVL58
 2426 022d 0200     		.2byte	0x2
 2427 022f 30       		.byte	0x30
 2428 0230 9F       		.byte	0x9f
 2429 0231 90000000 		.4byte	.LVL60
 2430 0235 98000000 		.4byte	.LFE6
 2431 0239 0200     		.2byte	0x2
 2432 023b 30       		.byte	0x30
 2433 023c 9F       		.byte	0x9f
 2434 023d 00000000 		.4byte	0
 2435 0241 00000000 		.4byte	0
 2436              	.LLST24:
 2437 0245 00000000 		.4byte	.LVL41
 2438 0249 09000000 		.4byte	.LVL42-1
 2439 024d 0100     		.2byte	0x1
 2440 024f 50       		.byte	0x50
 2441 0250 09000000 		.4byte	.LVL42-1
 2442 0254 10000000 		.4byte	.LFE5
 2443 0258 0400     		.2byte	0x4
 2444 025a F3       		.byte	0xf3
 2445 025b 01       		.uleb128 0x1
 2446 025c 50       		.byte	0x50
 2447 025d 9F       		.byte	0x9f
 2448 025e 00000000 		.4byte	0
 2449 0262 00000000 		.4byte	0
 2450              	.LLST25:
 2451 0266 00000000 		.4byte	.LVL41
ARM GAS  /tmp/ccOXhgjL.s 			page 44


 2452 026a 09000000 		.4byte	.LVL42-1
 2453 026e 0100     		.2byte	0x1
 2454 0270 51       		.byte	0x51
 2455 0271 09000000 		.4byte	.LVL42-1
 2456 0275 10000000 		.4byte	.LFE5
 2457 0279 0400     		.2byte	0x4
 2458 027b F3       		.byte	0xf3
 2459 027c 01       		.uleb128 0x1
 2460 027d 51       		.byte	0x51
 2461 027e 9F       		.byte	0x9f
 2462 027f 00000000 		.4byte	0
 2463 0283 00000000 		.4byte	0
 2464              	.LLST26:
 2465 0287 00000000 		.4byte	.LVL41
 2466 028b 0A000000 		.4byte	.LVL42
 2467 028f 0200     		.2byte	0x2
 2468 0291 30       		.byte	0x30
 2469 0292 9F       		.byte	0x9f
 2470 0293 0A000000 		.4byte	.LVL42
 2471 0297 0C000000 		.4byte	.LVL43
 2472 029b 0100     		.2byte	0x1
 2473 029d 50       		.byte	0x50
 2474 029e 0C000000 		.4byte	.LVL43
 2475 02a2 0E000000 		.4byte	.LVL44
 2476 02a6 0300     		.2byte	0x3
 2477 02a8 70       		.byte	0x70
 2478 02a9 79       		.sleb128 -7
 2479 02aa 9F       		.byte	0x9f
 2480 02ab 00000000 		.4byte	0
 2481 02af 00000000 		.4byte	0
 2482              	.LLST19:
 2483 02b3 00000000 		.4byte	.LVL27
 2484 02b7 0D000000 		.4byte	.LVL29-1
 2485 02bb 0100     		.2byte	0x1
 2486 02bd 50       		.byte	0x50
 2487 02be 0D000000 		.4byte	.LVL29-1
 2488 02c2 46000000 		.4byte	.LFE4
 2489 02c6 0100     		.2byte	0x1
 2490 02c8 56       		.byte	0x56
 2491 02c9 00000000 		.4byte	0
 2492 02cd 00000000 		.4byte	0
 2493              	.LLST20:
 2494 02d1 00000000 		.4byte	.LVL27
 2495 02d5 0D000000 		.4byte	.LVL29-1
 2496 02d9 0100     		.2byte	0x1
 2497 02db 51       		.byte	0x51
 2498 02dc 0D000000 		.4byte	.LVL29-1
 2499 02e0 46000000 		.4byte	.LFE4
 2500 02e4 0100     		.2byte	0x1
 2501 02e6 57       		.byte	0x57
 2502 02e7 00000000 		.4byte	0
 2503 02eb 00000000 		.4byte	0
 2504              	.LLST21:
 2505 02ef 00000000 		.4byte	.LVL27
 2506 02f3 0D000000 		.4byte	.LVL29-1
 2507 02f7 0100     		.2byte	0x1
 2508 02f9 52       		.byte	0x52
ARM GAS  /tmp/ccOXhgjL.s 			page 45


 2509 02fa 0D000000 		.4byte	.LVL29-1
 2510 02fe 10000000 		.4byte	.LVL30
 2511 0302 0400     		.2byte	0x4
 2512 0304 F3       		.byte	0xf3
 2513 0305 01       		.uleb128 0x1
 2514 0306 52       		.byte	0x52
 2515 0307 9F       		.byte	0x9f
 2516 0308 10000000 		.4byte	.LVL30
 2517 030c 12000000 		.4byte	.LVL31
 2518 0310 0100     		.2byte	0x1
 2519 0312 50       		.byte	0x50
 2520 0313 12000000 		.4byte	.LVL31
 2521 0317 36000000 		.4byte	.LVL37
 2522 031b 0100     		.2byte	0x1
 2523 031d 55       		.byte	0x55
 2524 031e 36000000 		.4byte	.LVL37
 2525 0322 3E000000 		.4byte	.LVL38
 2526 0326 0100     		.2byte	0x1
 2527 0328 50       		.byte	0x50
 2528 0329 3E000000 		.4byte	.LVL38
 2529 032d 46000000 		.4byte	.LFE4
 2530 0331 0100     		.2byte	0x1
 2531 0333 55       		.byte	0x55
 2532 0334 00000000 		.4byte	0
 2533 0338 00000000 		.4byte	0
 2534              	.LLST22:
 2535 033c 00000000 		.4byte	.LVL27
 2536 0340 06000000 		.4byte	.LVL28
 2537 0344 0100     		.2byte	0x1
 2538 0346 53       		.byte	0x53
 2539 0347 06000000 		.4byte	.LVL28
 2540 034b 46000000 		.4byte	.LFE4
 2541 034f 0400     		.2byte	0x4
 2542 0351 F3       		.byte	0xf3
 2543 0352 01       		.uleb128 0x1
 2544 0353 53       		.byte	0x53
 2545 0354 9F       		.byte	0x9f
 2546 0355 00000000 		.4byte	0
 2547 0359 00000000 		.4byte	0
 2548              	.LLST23:
 2549 035d 00000000 		.4byte	.LVL27
 2550 0361 18000000 		.4byte	.LVL32
 2551 0365 0200     		.2byte	0x2
 2552 0367 30       		.byte	0x30
 2553 0368 9F       		.byte	0x9f
 2554 0369 18000000 		.4byte	.LVL32
 2555 036d 2A000000 		.4byte	.LVL34
 2556 0371 0100     		.2byte	0x1
 2557 0373 54       		.byte	0x54
 2558 0374 2A000000 		.4byte	.LVL34
 2559 0378 30000000 		.4byte	.LVL35
 2560 037c 0300     		.2byte	0x3
 2561 037e 74       		.byte	0x74
 2562 037f 7F       		.sleb128 -1
 2563 0380 9F       		.byte	0x9f
 2564 0381 30000000 		.4byte	.LVL35
 2565 0385 32000000 		.4byte	.LVL36
ARM GAS  /tmp/ccOXhgjL.s 			page 46


 2566 0389 0100     		.2byte	0x1
 2567 038b 54       		.byte	0x54
 2568 038c 36000000 		.4byte	.LVL37
 2569 0390 46000000 		.4byte	.LFE4
 2570 0394 0200     		.2byte	0x2
 2571 0396 30       		.byte	0x30
 2572 0397 9F       		.byte	0x9f
 2573 0398 00000000 		.4byte	0
 2574 039c 00000000 		.4byte	0
 2575              	.LLST13:
 2576 03a0 00000000 		.4byte	.LVL24
 2577 03a4 19000000 		.4byte	.LVL26-1
 2578 03a8 0100     		.2byte	0x1
 2579 03aa 50       		.byte	0x50
 2580 03ab 19000000 		.4byte	.LVL26-1
 2581 03af 1E000000 		.4byte	.LFE3
 2582 03b3 0400     		.2byte	0x4
 2583 03b5 F3       		.byte	0xf3
 2584 03b6 01       		.uleb128 0x1
 2585 03b7 50       		.byte	0x50
 2586 03b8 9F       		.byte	0x9f
 2587 03b9 00000000 		.4byte	0
 2588 03bd 00000000 		.4byte	0
 2589              	.LLST14:
 2590 03c1 00000000 		.4byte	.LVL24
 2591 03c5 19000000 		.4byte	.LVL26-1
 2592 03c9 0100     		.2byte	0x1
 2593 03cb 51       		.byte	0x51
 2594 03cc 19000000 		.4byte	.LVL26-1
 2595 03d0 1E000000 		.4byte	.LFE3
 2596 03d4 0400     		.2byte	0x4
 2597 03d6 F3       		.byte	0xf3
 2598 03d7 01       		.uleb128 0x1
 2599 03d8 51       		.byte	0x51
 2600 03d9 9F       		.byte	0x9f
 2601 03da 00000000 		.4byte	0
 2602 03de 00000000 		.4byte	0
 2603              	.LLST15:
 2604 03e2 00000000 		.4byte	.LVL24
 2605 03e6 19000000 		.4byte	.LVL26-1
 2606 03ea 0100     		.2byte	0x1
 2607 03ec 52       		.byte	0x52
 2608 03ed 19000000 		.4byte	.LVL26-1
 2609 03f1 1E000000 		.4byte	.LFE3
 2610 03f5 0300     		.2byte	0x3
 2611 03f7 76       		.byte	0x76
 2612 03f8 71       		.sleb128 -15
 2613 03f9 9F       		.byte	0x9f
 2614 03fa 00000000 		.4byte	0
 2615 03fe 00000000 		.4byte	0
 2616              	.LLST16:
 2617 0402 00000000 		.4byte	.LVL24
 2618 0406 19000000 		.4byte	.LVL26-1
 2619 040a 0100     		.2byte	0x1
 2620 040c 53       		.byte	0x53
 2621 040d 19000000 		.4byte	.LVL26-1
 2622 0411 1E000000 		.4byte	.LFE3
ARM GAS  /tmp/ccOXhgjL.s 			page 47


 2623 0415 0400     		.2byte	0x4
 2624 0417 F3       		.byte	0xf3
 2625 0418 01       		.uleb128 0x1
 2626 0419 53       		.byte	0x53
 2627 041a 9F       		.byte	0x9f
 2628 041b 00000000 		.4byte	0
 2629 041f 00000000 		.4byte	0
 2630              	.LLST17:
 2631 0423 00000000 		.4byte	.LVL24
 2632 0427 1A000000 		.4byte	.LVL26
 2633 042b 0200     		.2byte	0x2
 2634 042d 30       		.byte	0x30
 2635 042e 9F       		.byte	0x9f
 2636 042f 1A000000 		.4byte	.LVL26
 2637 0433 1E000000 		.4byte	.LFE3
 2638 0437 0100     		.2byte	0x1
 2639 0439 50       		.byte	0x50
 2640 043a 00000000 		.4byte	0
 2641 043e 00000000 		.4byte	0
 2642              	.LLST18:
 2643 0442 00000000 		.4byte	.LVL24
 2644 0446 0C000000 		.4byte	.LVL25
 2645 044a 0200     		.2byte	0x2
 2646 044c 30       		.byte	0x30
 2647 044d 9F       		.byte	0x9f
 2648 044e 00000000 		.4byte	0
 2649 0452 00000000 		.4byte	0
 2650              	.LLST7:
 2651 0456 00000000 		.4byte	.LVL13
 2652 045a 1B000000 		.4byte	.LVL17-1
 2653 045e 0100     		.2byte	0x1
 2654 0460 50       		.byte	0x50
 2655 0461 1B000000 		.4byte	.LVL17-1
 2656 0465 42000000 		.4byte	.LVL22
 2657 0469 0100     		.2byte	0x1
 2658 046b 56       		.byte	0x56
 2659 046c 42000000 		.4byte	.LVL22
 2660 0470 45000000 		.4byte	.LVL23-1
 2661 0474 0100     		.2byte	0x1
 2662 0476 50       		.byte	0x50
 2663 0477 45000000 		.4byte	.LVL23-1
 2664 047b 46000000 		.4byte	.LFE2
 2665 047f 0400     		.2byte	0x4
 2666 0481 F3       		.byte	0xf3
 2667 0482 01       		.uleb128 0x1
 2668 0483 50       		.byte	0x50
 2669 0484 9F       		.byte	0x9f
 2670 0485 00000000 		.4byte	0
 2671 0489 00000000 		.4byte	0
 2672              	.LLST8:
 2673 048d 00000000 		.4byte	.LVL13
 2674 0491 12000000 		.4byte	.LVL14
 2675 0495 0100     		.2byte	0x1
 2676 0497 51       		.byte	0x51
 2677 0498 12000000 		.4byte	.LVL14
 2678 049c 46000000 		.4byte	.LFE2
 2679 04a0 0400     		.2byte	0x4
ARM GAS  /tmp/ccOXhgjL.s 			page 48


 2680 04a2 F3       		.byte	0xf3
 2681 04a3 01       		.uleb128 0x1
 2682 04a4 51       		.byte	0x51
 2683 04a5 9F       		.byte	0x9f
 2684 04a6 00000000 		.4byte	0
 2685 04aa 00000000 		.4byte	0
 2686              	.LLST9:
 2687 04ae 00000000 		.4byte	.LVL13
 2688 04b2 16000000 		.4byte	.LVL16
 2689 04b6 0100     		.2byte	0x1
 2690 04b8 52       		.byte	0x52
 2691 04b9 16000000 		.4byte	.LVL16
 2692 04bd 42000000 		.4byte	.LVL22
 2693 04c1 0100     		.2byte	0x1
 2694 04c3 55       		.byte	0x55
 2695 04c4 42000000 		.4byte	.LVL22
 2696 04c8 45000000 		.4byte	.LVL23-1
 2697 04cc 0300     		.2byte	0x3
 2698 04ce 72       		.byte	0x72
 2699 04cf 78       		.sleb128 -8
 2700 04d0 9F       		.byte	0x9f
 2701 04d1 45000000 		.4byte	.LVL23-1
 2702 04d5 46000000 		.4byte	.LFE2
 2703 04d9 0400     		.2byte	0x4
 2704 04db F3       		.byte	0xf3
 2705 04dc 01       		.uleb128 0x1
 2706 04dd 52       		.byte	0x52
 2707 04de 9F       		.byte	0x9f
 2708 04df 00000000 		.4byte	0
 2709 04e3 00000000 		.4byte	0
 2710              	.LLST10:
 2711 04e7 00000000 		.4byte	.LVL13
 2712 04eb 14000000 		.4byte	.LVL15
 2713 04ef 0100     		.2byte	0x1
 2714 04f1 53       		.byte	0x53
 2715 04f2 14000000 		.4byte	.LVL15
 2716 04f6 42000000 		.4byte	.LVL22
 2717 04fa 0100     		.2byte	0x1
 2718 04fc 58       		.byte	0x58
 2719 04fd 42000000 		.4byte	.LVL22
 2720 0501 45000000 		.4byte	.LVL23-1
 2721 0505 0100     		.2byte	0x1
 2722 0507 53       		.byte	0x53
 2723 0508 45000000 		.4byte	.LVL23-1
 2724 050c 46000000 		.4byte	.LFE2
 2725 0510 0400     		.2byte	0x4
 2726 0512 F3       		.byte	0xf3
 2727 0513 01       		.uleb128 0x1
 2728 0514 53       		.byte	0x53
 2729 0515 9F       		.byte	0x9f
 2730 0516 00000000 		.4byte	0
 2731 051a 00000000 		.4byte	0
 2732              	.LLST11:
 2733 051e 00000000 		.4byte	.LVL13
 2734 0522 2E000000 		.4byte	.LVL19
 2735 0526 0200     		.2byte	0x2
 2736 0528 91       		.byte	0x91
ARM GAS  /tmp/ccOXhgjL.s 			page 49


 2737 0529 00       		.sleb128 0
 2738 052a 2E000000 		.4byte	.LVL19
 2739 052e 30000000 		.4byte	.LVL20
 2740 0532 0200     		.2byte	0x2
 2741 0534 91       		.byte	0x91
 2742 0535 00       		.sleb128 0
 2743 0536 30000000 		.4byte	.LVL20
 2744 053a 42000000 		.4byte	.LVL22
 2745 053e 0100     		.2byte	0x1
 2746 0540 54       		.byte	0x54
 2747 0541 42000000 		.4byte	.LVL22
 2748 0545 45000000 		.4byte	.LVL23-1
 2749 0549 0200     		.2byte	0x2
 2750 054b 7D       		.byte	0x7d
 2751 054c 00       		.sleb128 0
 2752 054d 00000000 		.4byte	0
 2753 0551 00000000 		.4byte	0
 2754              	.LLST12:
 2755 0555 00000000 		.4byte	.LVL13
 2756 0559 1C000000 		.4byte	.LVL17
 2757 055d 0200     		.2byte	0x2
 2758 055f 30       		.byte	0x30
 2759 0560 9F       		.byte	0x9f
 2760 0561 1C000000 		.4byte	.LVL17
 2761 0565 28000000 		.4byte	.LVL18
 2762 0569 0100     		.2byte	0x1
 2763 056b 50       		.byte	0x50
 2764 056c 2E000000 		.4byte	.LVL19
 2765 0570 3A000000 		.4byte	.LVL21
 2766 0574 0100     		.2byte	0x1
 2767 0576 50       		.byte	0x50
 2768 0577 00000000 		.4byte	0
 2769 057b 00000000 		.4byte	0
 2770              	.LLST4:
 2771 057f 00000000 		.4byte	.LVL9
 2772 0583 09000000 		.4byte	.LVL10-1
 2773 0587 0100     		.2byte	0x1
 2774 0589 50       		.byte	0x50
 2775 058a 09000000 		.4byte	.LVL10-1
 2776 058e 10000000 		.4byte	.LFE1
 2777 0592 0400     		.2byte	0x4
 2778 0594 F3       		.byte	0xf3
 2779 0595 01       		.uleb128 0x1
 2780 0596 50       		.byte	0x50
 2781 0597 9F       		.byte	0x9f
 2782 0598 00000000 		.4byte	0
 2783 059c 00000000 		.4byte	0
 2784              	.LLST5:
 2785 05a0 00000000 		.4byte	.LVL9
 2786 05a4 09000000 		.4byte	.LVL10-1
 2787 05a8 0100     		.2byte	0x1
 2788 05aa 51       		.byte	0x51
 2789 05ab 09000000 		.4byte	.LVL10-1
 2790 05af 10000000 		.4byte	.LFE1
 2791 05b3 0400     		.2byte	0x4
 2792 05b5 F3       		.byte	0xf3
 2793 05b6 01       		.uleb128 0x1
ARM GAS  /tmp/ccOXhgjL.s 			page 50


 2794 05b7 51       		.byte	0x51
 2795 05b8 9F       		.byte	0x9f
 2796 05b9 00000000 		.4byte	0
 2797 05bd 00000000 		.4byte	0
 2798              	.LLST6:
 2799 05c1 00000000 		.4byte	.LVL9
 2800 05c5 0A000000 		.4byte	.LVL10
 2801 05c9 0200     		.2byte	0x2
 2802 05cb 30       		.byte	0x30
 2803 05cc 9F       		.byte	0x9f
 2804 05cd 0A000000 		.4byte	.LVL10
 2805 05d1 0C000000 		.4byte	.LVL11
 2806 05d5 0100     		.2byte	0x1
 2807 05d7 50       		.byte	0x50
 2808 05d8 0C000000 		.4byte	.LVL11
 2809 05dc 0E000000 		.4byte	.LVL12
 2810 05e0 0300     		.2byte	0x3
 2811 05e2 70       		.byte	0x70
 2812 05e3 79       		.sleb128 -7
 2813 05e4 9F       		.byte	0x9f
 2814 05e5 00000000 		.4byte	0
 2815 05e9 00000000 		.4byte	0
 2816              	.LLST0:
 2817 05ed 00000000 		.4byte	.LVL0
 2818 05f1 2C000000 		.4byte	.LVL3
 2819 05f5 0100     		.2byte	0x1
 2820 05f7 50       		.byte	0x50
 2821 05f8 2C000000 		.4byte	.LVL3
 2822 05fc 31000000 		.4byte	.LVL5-1
 2823 0600 0100     		.2byte	0x1
 2824 0602 53       		.byte	0x53
 2825 0603 31000000 		.4byte	.LVL5-1
 2826 0607 42000000 		.4byte	.LVL7
 2827 060b 0100     		.2byte	0x1
 2828 060d 54       		.byte	0x54
 2829 060e 42000000 		.4byte	.LVL7
 2830 0612 45000000 		.4byte	.LVL8-1
 2831 0616 0300     		.2byte	0x3
 2832 0618 70       		.byte	0x70
 2833 0619 78       		.sleb128 -8
 2834 061a 9F       		.byte	0x9f
 2835 061b 45000000 		.4byte	.LVL8-1
 2836 061f 46000000 		.4byte	.LFE0
 2837 0623 0400     		.2byte	0x4
 2838 0625 F3       		.byte	0xf3
 2839 0626 01       		.uleb128 0x1
 2840 0627 50       		.byte	0x50
 2841 0628 9F       		.byte	0x9f
 2842 0629 00000000 		.4byte	0
 2843 062d 00000000 		.4byte	0
 2844              	.LLST1:
 2845 0631 00000000 		.4byte	.LVL0
 2846 0635 2A000000 		.4byte	.LVL2
 2847 0639 0100     		.2byte	0x1
 2848 063b 51       		.byte	0x51
 2849 063c 2A000000 		.4byte	.LVL2
 2850 0640 42000000 		.4byte	.LVL7
ARM GAS  /tmp/ccOXhgjL.s 			page 51


 2851 0644 0100     		.2byte	0x1
 2852 0646 55       		.byte	0x55
 2853 0647 42000000 		.4byte	.LVL7
 2854 064b 45000000 		.4byte	.LVL8-1
 2855 064f 0100     		.2byte	0x1
 2856 0651 51       		.byte	0x51
 2857 0652 45000000 		.4byte	.LVL8-1
 2858 0656 46000000 		.4byte	.LFE0
 2859 065a 0400     		.2byte	0x4
 2860 065c F3       		.byte	0xf3
 2861 065d 01       		.uleb128 0x1
 2862 065e 51       		.byte	0x51
 2863 065f 9F       		.byte	0x9f
 2864 0660 00000000 		.4byte	0
 2865 0664 00000000 		.4byte	0
 2866              	.LLST2:
 2867 0668 00000000 		.4byte	.LVL0
 2868 066c 2E000000 		.4byte	.LVL4
 2869 0670 0100     		.2byte	0x1
 2870 0672 52       		.byte	0x52
 2871 0673 2E000000 		.4byte	.LVL4
 2872 0677 31000000 		.4byte	.LVL5-1
 2873 067b 0100     		.2byte	0x1
 2874 067d 51       		.byte	0x51
 2875 067e 31000000 		.4byte	.LVL5-1
 2876 0682 32000000 		.4byte	.LVL5
 2877 0686 0100     		.2byte	0x1
 2878 0688 58       		.byte	0x58
 2879 0689 32000000 		.4byte	.LVL5
 2880 068d 36000000 		.4byte	.LVL6
 2881 0691 0300     		.2byte	0x3
 2882 0693 78       		.byte	0x78
 2883 0694 28       		.sleb128 40
 2884 0695 9F       		.byte	0x9f
 2885 0696 36000000 		.4byte	.LVL6
 2886 069a 45000000 		.4byte	.LVL8-1
 2887 069e 0100     		.2byte	0x1
 2888 06a0 52       		.byte	0x52
 2889 06a1 45000000 		.4byte	.LVL8-1
 2890 06a5 46000000 		.4byte	.LFE0
 2891 06a9 0600     		.2byte	0x6
 2892 06ab F3       		.byte	0xf3
 2893 06ac 01       		.uleb128 0x1
 2894 06ad 52       		.byte	0x52
 2895 06ae 23       		.byte	0x23
 2896 06af 28       		.uleb128 0x28
 2897 06b0 9F       		.byte	0x9f
 2898 06b1 00000000 		.4byte	0
 2899 06b5 00000000 		.4byte	0
 2900              	.LLST3:
 2901 06b9 00000000 		.4byte	.LVL0
 2902 06bd 28000000 		.4byte	.LVL1
 2903 06c1 0100     		.2byte	0x1
 2904 06c3 53       		.byte	0x53
 2905 06c4 28000000 		.4byte	.LVL1
 2906 06c8 46000000 		.4byte	.LFE0
 2907 06cc 0400     		.2byte	0x4
ARM GAS  /tmp/ccOXhgjL.s 			page 52


 2908 06ce F3       		.byte	0xf3
 2909 06cf 01       		.uleb128 0x1
 2910 06d0 53       		.byte	0x53
 2911 06d1 9F       		.byte	0x9f
 2912 06d2 00000000 		.4byte	0
 2913 06d6 00000000 		.4byte	0
 2914              		.section	.debug_aranges,"",%progbits
 2915 0000 54000000 		.4byte	0x54
 2916 0004 0200     		.2byte	0x2
 2917 0006 00000000 		.4byte	.Ldebug_info0
 2918 000a 04       		.byte	0x4
 2919 000b 00       		.byte	0
 2920 000c 0000     		.2byte	0
 2921 000e 0000     		.2byte	0
 2922 0010 00000000 		.4byte	.LFB0
 2923 0014 46000000 		.4byte	.LFE0-.LFB0
 2924 0018 00000000 		.4byte	.LFB1
 2925 001c 10000000 		.4byte	.LFE1-.LFB1
 2926 0020 00000000 		.4byte	.LFB2
 2927 0024 46000000 		.4byte	.LFE2-.LFB2
 2928 0028 00000000 		.4byte	.LFB3
 2929 002c 1E000000 		.4byte	.LFE3-.LFB3
 2930 0030 00000000 		.4byte	.LFB4
 2931 0034 46000000 		.4byte	.LFE4-.LFB4
 2932 0038 00000000 		.4byte	.LFB5
 2933 003c 10000000 		.4byte	.LFE5-.LFB5
 2934 0040 00000000 		.4byte	.LFB6
 2935 0044 98000000 		.4byte	.LFE6-.LFB6
 2936 0048 00000000 		.4byte	.LFB7
 2937 004c 1E000000 		.4byte	.LFE7-.LFB7
 2938 0050 00000000 		.4byte	0
 2939 0054 00000000 		.4byte	0
 2940              		.section	.debug_ranges,"",%progbits
 2941              	.Ldebug_ranges0:
 2942 0000 00000000 		.4byte	.LFB0
 2943 0004 46000000 		.4byte	.LFE0
 2944 0008 00000000 		.4byte	.LFB1
 2945 000c 10000000 		.4byte	.LFE1
 2946 0010 00000000 		.4byte	.LFB2
 2947 0014 46000000 		.4byte	.LFE2
 2948 0018 00000000 		.4byte	.LFB3
 2949 001c 1E000000 		.4byte	.LFE3
 2950 0020 00000000 		.4byte	.LFB4
 2951 0024 46000000 		.4byte	.LFE4
 2952 0028 00000000 		.4byte	.LFB5
 2953 002c 10000000 		.4byte	.LFE5
 2954 0030 00000000 		.4byte	.LFB6
 2955 0034 98000000 		.4byte	.LFE6
 2956 0038 00000000 		.4byte	.LFB7
 2957 003c 1E000000 		.4byte	.LFE7
 2958 0040 00000000 		.4byte	0
 2959 0044 00000000 		.4byte	0
 2960              		.section	.debug_line,"",%progbits
 2961              	.Ldebug_line0:
 2962 0000 07020000 		.section	.debug_str,"MS",%progbits,1
 2962      0200DE00 
 2962      00000201 
ARM GAS  /tmp/ccOXhgjL.s 			page 53


 2962      FB0E0D00 
 2962      01010101 
 2963              	.LASF58:
 2964 0000 75617663 		.ascii	"uavcan_protocol_file_ReadRequest_error_exit\000"
 2964      616E5F70 
 2964      726F746F 
 2964      636F6C5F 
 2964      66696C65 
 2965              	.LASF63:
 2966 002c 75617663 		.ascii	"uavcan_protocol_file_Error_encode_internal\000"
 2966      616E5F70 
 2966      726F746F 
 2966      636F6C5F 
 2966      66696C65 
 2967              	.LASF27:
 2968 0057 64617461 		.ascii	"data_type_id\000"
 2968      5F747970 
 2968      655F6964 
 2968      00
 2969              	.LASF46:
 2970 0064 64657374 		.ascii	"dest\000"
 2970      00
 2971              	.LASF30:
 2972 0069 7072696F 		.ascii	"priority\000"
 2972      72697479 
 2972      00
 2973              	.LASF20:
 2974 0072 75696E74 		.ascii	"uint64_t\000"
 2974      36345F74 
 2974      00
 2975              	.LASF49:
 2976 007b 75617663 		.ascii	"uavcan_protocol_file_ReadResponse_decode_internal\000"
 2976      616E5F70 
 2976      726F746F 
 2976      636F6C5F 
 2976      66696C65 
 2977              	.LASF4:
 2978 00ad 73686F72 		.ascii	"short int\000"
 2978      7420696E 
 2978      7400
 2979              	.LASF68:
 2980 00b7 6C696263 		.ascii	"libcanard/dsdl/uavcan/protocol/file/file_Read.c\000"
 2980      616E6172 
 2980      642F6473 
 2980      646C2F75 
 2980      61766361 
 2981              	.LASF56:
 2982 00e7 75617663 		.ascii	"uavcan_protocol_file_ReadRequest_decode_internal\000"
 2982      616E5F70 
 2982      726F746F 
 2982      636F6C5F 
 2982      66696C65 
 2983              	.LASF9:
 2984 0118 5F5F7569 		.ascii	"__uint32_t\000"
 2984      6E743332 
 2984      5F7400
 2985              	.LASF5:
ARM GAS  /tmp/ccOXhgjL.s 			page 54


 2986 0123 5F5F7569 		.ascii	"__uint16_t\000"
 2986      6E743136 
 2986      5F7400
 2987              	.LASF37:
 2988 012e 76616C75 		.ascii	"value\000"
 2988      6500
 2989              	.LASF48:
 2990 0134 75617663 		.ascii	"uavcan_protocol_file_ReadResponse_decode\000"
 2990      616E5F70 
 2990      726F746F 
 2990      636F6C5F 
 2990      66696C65 
 2991              	.LASF15:
 2992 015d 75696E74 		.ascii	"uint8_t\000"
 2992      385F7400 
 2993              	.LASF66:
 2994 0165 75617663 		.ascii	"uavcan_protocol_file_Path_encode_internal\000"
 2994      616E5F70 
 2994      726F746F 
 2994      636F6C5F 
 2994      66696C65 
 2995              	.LASF40:
 2996 018f 75617663 		.ascii	"uavcan_protocol_file_Path\000"
 2996      616E5F70 
 2996      726F746F 
 2996      636F6C5F 
 2996      66696C65 
 2997              	.LASF11:
 2998 01a9 6C6F6E67 		.ascii	"long long int\000"
 2998      206C6F6E 
 2998      6720696E 
 2998      7400
 2999              	.LASF47:
 3000 01b7 64796E5F 		.ascii	"dyn_arr_buf\000"
 3000      6172725F 
 3000      62756600 
 3001              	.LASF44:
 3002 01c3 75617663 		.ascii	"uavcan_protocol_file_ReadResponse\000"
 3002      616E5F70 
 3002      726F746F 
 3002      636F6C5F 
 3002      66696C65 
 3003              	.LASF8:
 3004 01e5 6C6F6E67 		.ascii	"long int\000"
 3004      20696E74 
 3004      00
 3005              	.LASF41:
 3006 01ee 6F666673 		.ascii	"offset\000"
 3006      657400
 3007              	.LASF2:
 3008 01f5 5F5F7569 		.ascii	"__uint8_t\000"
 3008      6E74385F 
 3008      7400
 3009              	.LASF51:
 3010 01ff 736F7572 		.ascii	"source\000"
 3010      636500
 3011              	.LASF59:
ARM GAS  /tmp/ccOXhgjL.s 			page 55


 3012 0206 75617663 		.ascii	"uavcan_protocol_file_ReadRequest_encode\000"
 3012      616E5F70 
 3012      726F746F 
 3012      636F6C5F 
 3012      66696C65 
 3013              	.LASF25:
 3014 022e 7061796C 		.ascii	"payload_tail\000"
 3014      6F61645F 
 3014      7461696C 
 3014      00
 3015              	.LASF22:
 3016 023b 74696D65 		.ascii	"timestamp_usec\000"
 3016      7374616D 
 3016      705F7573 
 3016      656300
 3017              	.LASF57:
 3018 024a 75617663 		.ascii	"uavcan_protocol_file_ReadResponse_error_exit\000"
 3018      616E5F70 
 3018      726F746F 
 3018      636F6C5F 
 3018      66696C65 
 3019              	.LASF1:
 3020 0277 756E7369 		.ascii	"unsigned char\000"
 3020      676E6564 
 3020      20636861 
 3020      7200
 3021              	.LASF24:
 3022 0285 7061796C 		.ascii	"payload_middle\000"
 3022      6F61645F 
 3022      6D696464 
 3022      6C6500
 3023              	.LASF50:
 3024 0294 75617663 		.ascii	"uavcan_protocol_file_ReadResponse_encode\000"
 3024      616E5F70 
 3024      726F746F 
 3024      636F6C5F 
 3024      66696C65 
 3025              	.LASF69:
 3026 02bd 2F626C64 		.ascii	"/bldc\000"
 3026      6300
 3027              	.LASF0:
 3028 02c3 7369676E 		.ascii	"signed char\000"
 3028      65642063 
 3028      68617200 
 3029              	.LASF13:
 3030 02cf 6C6F6E67 		.ascii	"long long unsigned int\000"
 3030      206C6F6E 
 3030      6720756E 
 3030      7369676E 
 3030      65642069 
 3031              	.LASF19:
 3032 02e6 75696E74 		.ascii	"uint32_t\000"
 3032      33325F74 
 3032      00
 3033              	.LASF53:
 3034 02ef 75617663 		.ascii	"uavcan_protocol_file_ReadResponse_encode_internal\000"
 3034      616E5F70 
ARM GAS  /tmp/ccOXhgjL.s 			page 56


 3034      726F746F 
 3034      636F6C5F 
 3034      66696C65 
 3035              	.LASF60:
 3036 0321 75617663 		.ascii	"uavcan_protocol_file_ReadRequest_encode_internal\000"
 3036      616E5F70 
 3036      726F746F 
 3036      636F6C5F 
 3036      66696C65 
 3037              	.LASF14:
 3038 0352 756E7369 		.ascii	"unsigned int\000"
 3038      676E6564 
 3038      20696E74 
 3038      00
 3039              	.LASF17:
 3040 035f 75696E74 		.ascii	"uint16_t\000"
 3040      31365F74 
 3040      00
 3041              	.LASF34:
 3042 0368 43616E61 		.ascii	"CanardBufferBlock\000"
 3042      72644275 
 3042      66666572 
 3042      426C6F63 
 3042      6B00
 3043              	.LASF31:
 3044 037a 736F7572 		.ascii	"source_node_id\000"
 3044      63655F6E 
 3044      6F64655F 
 3044      696400
 3045              	.LASF6:
 3046 0389 73686F72 		.ascii	"short unsigned int\000"
 3046      7420756E 
 3046      7369676E 
 3046      65642069 
 3046      6E7400
 3047              	.LASF64:
 3048 039c 63616E61 		.ascii	"canardEncodeScalar\000"
 3048      7264456E 
 3048      636F6465 
 3048      5363616C 
 3048      617200
 3049              	.LASF33:
 3050 03af 63686172 		.ascii	"char\000"
 3050      00
 3051              	.LASF32:
 3052 03b4 5F426F6F 		.ascii	"_Bool\000"
 3052      6C00
 3053              	.LASF18:
 3054 03ba 696E7433 		.ascii	"int32_t\000"
 3054      325F7400 
 3055              	.LASF28:
 3056 03c2 7472616E 		.ascii	"transfer_type\000"
 3056      73666572 
 3056      5F747970 
 3056      6500
 3057              	.LASF16:
 3058 03d0 696E7431 		.ascii	"int16_t\000"
ARM GAS  /tmp/ccOXhgjL.s 			page 57


 3058      365F7400 
 3059              	.LASF23:
 3060 03d8 7061796C 		.ascii	"payload_head\000"
 3060      6F61645F 
 3060      68656164 
 3060      00
 3061              	.LASF12:
 3062 03e5 5F5F7569 		.ascii	"__uint64_t\000"
 3062      6E743634 
 3062      5F7400
 3063              	.LASF36:
 3064 03f0 64617461 		.ascii	"data\000"
 3064      00
 3065              	.LASF45:
 3066 03f5 7472616E 		.ascii	"transfer\000"
 3066      73666572 
 3066      00
 3067              	.LASF21:
 3068 03fe 43616E61 		.ascii	"CanardRxTransfer\000"
 3068      72645278 
 3068      5472616E 
 3068      73666572 
 3068      00
 3069              	.LASF10:
 3070 040f 6C6F6E67 		.ascii	"long unsigned int\000"
 3070      20756E73 
 3070      69676E65 
 3070      6420696E 
 3070      7400
 3071              	.LASF42:
 3072 0421 75617663 		.ascii	"uavcan_protocol_file_ReadRequest\000"
 3072      616E5F70 
 3072      726F746F 
 3072      636F6C5F 
 3072      66696C65 
 3073              	.LASF54:
 3074 0442 726F6F74 		.ascii	"root_item\000"
 3074      5F697465 
 3074      6D00
 3075              	.LASF38:
 3076 044c 75617663 		.ascii	"uavcan_protocol_file_Error\000"
 3076      616E5F70 
 3076      726F746F 
 3076      636F6C5F 
 3076      66696C65 
 3077              	.LASF65:
 3078 0467 75617663 		.ascii	"uavcan_protocol_file_Path_decode_internal\000"
 3078      616E5F70 
 3078      726F746F 
 3078      636F6C5F 
 3078      66696C65 
 3079              	.LASF7:
 3080 0491 5F5F696E 		.ascii	"__int32_t\000"
 3080      7433325F 
 3080      7400
 3081              	.LASF55:
 3082 049b 75617663 		.ascii	"uavcan_protocol_file_ReadRequest_decode\000"
ARM GAS  /tmp/ccOXhgjL.s 			page 58


 3082      616E5F70 
 3082      726F746F 
 3082      636F6C5F 
 3082      66696C65 
 3083              	.LASF3:
 3084 04c3 5F5F696E 		.ascii	"__int16_t\000"
 3084      7431365F 
 3084      7400
 3085              	.LASF61:
 3086 04cd 75617663 		.ascii	"uavcan_protocol_file_Error_decode_internal\000"
 3086      616E5F70 
 3086      726F746F 
 3086      636F6C5F 
 3086      66696C65 
 3087              	.LASF43:
 3088 04f8 6572726F 		.ascii	"error\000"
 3088      7200
 3089              	.LASF26:
 3090 04fe 7061796C 		.ascii	"payload_len\000"
 3090      6F61645F 
 3090      6C656E00 
 3091              	.LASF29:
 3092 050a 7472616E 		.ascii	"transfer_id\000"
 3092      73666572 
 3092      5F696400 
 3093              	.LASF39:
 3094 0516 70617468 		.ascii	"path\000"
 3094      00
 3095              	.LASF62:
 3096 051b 63616E61 		.ascii	"canardDecodeScalar\000"
 3096      72644465 
 3096      636F6465 
 3096      5363616C 
 3096      617200
 3097              	.LASF52:
 3098 052e 6D73675F 		.ascii	"msg_buf\000"
 3098      62756600 
 3099              	.LASF35:
 3100 0536 6E657874 		.ascii	"next\000"
 3100      00
 3101              	.LASF67:
 3102 053b 474E5520 		.ascii	"GNU C99 7.3.1 20180622 (release) [ARM/embedded-7-br"
 3102      43393920 
 3102      372E332E 
 3102      31203230 
 3102      31383036 
 3103 056e 616E6368 		.ascii	"anch revision 261907] -mcpu=cortex-m4 -mfloat-abi=h"
 3103      20726576 
 3103      6973696F 
 3103      6E203236 
 3103      31393037 
 3104 05a1 61726420 		.ascii	"ard -mfpu=fpv4-sp-d16 -mno-thumb-interwork -mthumb "
 3104      2D6D6670 
 3104      753D6670 
 3104      76342D73 
 3104      702D6431 
 3105 05d4 2D676764 		.ascii	"-ggdb -O2 -std=gnu99 -fomit-frame-pointer -falign-f"
ARM GAS  /tmp/ccOXhgjL.s 			page 59


 3105      62202D4F 
 3105      32202D73 
 3105      74643D67 
 3105      6E753939 
 3106 0607 756E6374 		.ascii	"unctions=16 -ffunction-sections -fdata-sections -fn"
 3106      696F6E73 
 3106      3D313620 
 3106      2D666675 
 3106      6E637469 
 3107 063a 6F2D636F 		.ascii	"o-common -fsingle-precision-constant\000"
 3107      6D6D6F6E 
 3107      202D6673 
 3107      696E676C 
 3107      652D7072 
 3108              		.ident	"GCC: (GNU Tools for Arm Embedded Processors 7-2018-q3-update) 7.3.1 20180622 (release) [AR
ARM GAS  /tmp/ccOXhgjL.s 			page 60


DEFINED SYMBOLS
                            *ABS*:0000000000000000 file_Read.c
     /tmp/ccOXhgjL.s:18     .text.uavcan_protocol_file_ReadRequest_encode_internal:0000000000000000 $t
     /tmp/ccOXhgjL.s:26     .text.uavcan_protocol_file_ReadRequest_encode_internal:0000000000000000 uavcan_protocol_file_ReadRequest_encode_internal
     /tmp/ccOXhgjL.s:98     .text.uavcan_protocol_file_ReadRequest_encode:0000000000000000 $t
     /tmp/ccOXhgjL.s:106    .text.uavcan_protocol_file_ReadRequest_encode:0000000000000000 uavcan_protocol_file_ReadRequest_encode
     /tmp/ccOXhgjL.s:133    .text.uavcan_protocol_file_ReadRequest_decode_internal:0000000000000000 $t
     /tmp/ccOXhgjL.s:141    .text.uavcan_protocol_file_ReadRequest_decode_internal:0000000000000000 uavcan_protocol_file_ReadRequest_decode_internal
     /tmp/ccOXhgjL.s:226    .text.uavcan_protocol_file_ReadRequest_decode:0000000000000000 $t
     /tmp/ccOXhgjL.s:234    .text.uavcan_protocol_file_ReadRequest_decode:0000000000000000 uavcan_protocol_file_ReadRequest_decode
     /tmp/ccOXhgjL.s:275    .text.uavcan_protocol_file_ReadResponse_encode_internal:0000000000000000 $t
     /tmp/ccOXhgjL.s:283    .text.uavcan_protocol_file_ReadResponse_encode_internal:0000000000000000 uavcan_protocol_file_ReadResponse_encode_internal
     /tmp/ccOXhgjL.s:364    .text.uavcan_protocol_file_ReadResponse_encode:0000000000000000 $t
     /tmp/ccOXhgjL.s:372    .text.uavcan_protocol_file_ReadResponse_encode:0000000000000000 uavcan_protocol_file_ReadResponse_encode
     /tmp/ccOXhgjL.s:399    .text.uavcan_protocol_file_ReadResponse_decode_internal:0000000000000000 $t
     /tmp/ccOXhgjL.s:407    .text.uavcan_protocol_file_ReadResponse_decode_internal:0000000000000000 uavcan_protocol_file_ReadResponse_decode_internal
     /tmp/ccOXhgjL.s:547    .text.uavcan_protocol_file_ReadResponse_decode:0000000000000000 $t
     /tmp/ccOXhgjL.s:555    .text.uavcan_protocol_file_ReadResponse_decode:0000000000000000 uavcan_protocol_file_ReadResponse_decode

UNDEFINED SYMBOLS
canardEncodeScalar
uavcan_protocol_file_Path_encode_internal
canardDecodeScalar
uavcan_protocol_file_Path_decode_internal
uavcan_protocol_file_Error_encode_internal
uavcan_protocol_file_Error_decode_internal
