ARM GAS  /tmp/ccOXhgjL.s 			page 1


   1              		.cpu cortex-m4
   2              		.eabi_attribute 27, 1
   3              		.eabi_attribute 28, 1
   4              		.eabi_attribute 20, 1
   5              		.eabi_attribute 21, 1
   6              		.eabi_attribute 23, 3
   7              		.eabi_attribute 24, 1
   8              		.eabi_attribute 25, 1
   9              		.eabi_attribute 26, 1
  10              		.eabi_attribute 30, 2
  11              		.eabi_attribute 34, 1
  12              		.eabi_attribute 18, 4
  13              		.file	"file_Read.c"
  14              		.text
  15              	.Ltext0:
  16              		.cfi_sections	.debug_frame
  17              		.section	.text.uavcan_protocol_file_ReadRequest_encode_internal,"ax",%progbits
  18              		.align	1
  19              		.p2align 4,,15
  20              		.global	uavcan_protocol_file_ReadRequest_encode_internal
  21              		.syntax unified
  22              		.thumb
  23              		.thumb_func
  24              		.fpu fpv4-sp-d16
  25              		.type	uavcan_protocol_file_ReadRequest_encode_internal, %function
  26              	uavcan_protocol_file_ReadRequest_encode_internal:
  27              	.LFB0:
  28              		.file 1 "libcanard/dsdl/uavcan/protocol/file/file_Read.c"
  29              		.loc 1 37 0
  30              		.cfi_startproc
  31              		@ args = 0, pretend = 0, frame = 0
  32              		@ frame_needed = 0, uses_anonymous_args = 0
  33              	.LVL0:
  34 0000 2DE9F04D 		push	{r4, r5, r6, r7, r8, r10, fp, lr}
  35              		.cfi_def_cfa_offset 32
  36              		.cfi_offset 4, -32
  37              		.cfi_offset 5, -28
  38              		.cfi_offset 6, -24
  39              		.cfi_offset 7, -20
  40              		.cfi_offset 8, -16
  41              		.cfi_offset 10, -12
  42              		.cfi_offset 11, -8
  43              		.cfi_offset 14, -4
  44              		.loc 1 38 0
  45 0004 D0E90067 		ldrd	r6, [r0]
  46 0008 4FF0FF0B 		mov	fp, #255
  47 000c BB45     		cmp	fp, r7
  48 000e 4FF0FF3A 		mov	r10, #-1
  49 0012 08BF     		it	eq
  50 0014 B245     		cmpeq	r10, r6
  51              		.loc 1 37 0
  52 0016 0D46     		mov	r5, r1
  53 0018 9046     		mov	r8, r2
  54              		.loc 1 38 0
  55 001a 3CBF     		itt	cc
  56 001c 5646     		movcc	r6, r10
  57 001e 5F46     		movcc	r7, fp
ARM GAS  /tmp/ccOXhgjL.s 			page 2


  58              		.loc 1 37 0
  59 0020 0446     		mov	r4, r0
  60              		.loc 1 38 0
  61 0022 C0E90067 		strd	r6, [r0]
  62              		.loc 1 39 0
  63 0026 0346     		mov	r3, r0
  64              	.LVL1:
  65 0028 4146     		mov	r1, r8
  66              	.LVL2:
  67 002a 2846     		mov	r0, r5
  68              	.LVL3:
  69 002c 2822     		movs	r2, #40
  70              	.LVL4:
  71 002e FFF7FEFF 		bl	canardEncodeScalar
  72              	.LVL5:
  73              		.loc 1 43 0
  74 0032 08F12802 		add	r2, r8, #40
  75              	.LVL6:
  76 0036 2946     		mov	r1, r5
  77 0038 04F10800 		add	r0, r4, #8
  78 003c 0023     		movs	r3, #0
  79              		.loc 1 46 0
  80 003e BDE8F04D 		pop	{r4, r5, r6, r7, r8, r10, fp, lr}
  81              		.cfi_restore 14
  82              		.cfi_restore 11
  83              		.cfi_restore 10
  84              		.cfi_restore 8
  85              		.cfi_restore 7
  86              		.cfi_restore 6
  87              		.cfi_restore 5
  88              		.cfi_restore 4
  89              		.cfi_def_cfa_offset 0
  90              	.LVL7:
  91              		.loc 1 43 0
  92 0042 FFF7FEBF 		b	uavcan_protocol_file_Path_encode_internal
  93              	.LVL8:
  94              		.cfi_endproc
  95              	.LFE0:
  96              		.size	uavcan_protocol_file_ReadRequest_encode_internal, .-uavcan_protocol_file_ReadRequest_encode_
  97 0046 00BF     		.section	.text.uavcan_protocol_file_ReadRequest_encode,"ax",%progbits
  98              		.align	1
  99              		.p2align 4,,15
 100              		.global	uavcan_protocol_file_ReadRequest_encode
 101              		.syntax unified
 102              		.thumb
 103              		.thumb_func
 104              		.fpu fpv4-sp-d16
 105              		.type	uavcan_protocol_file_ReadRequest_encode, %function
 106              	uavcan_protocol_file_ReadRequest_encode:
 107              	.LFB1:
 108              		.loc 1 55 0
 109              		.cfi_startproc
 110              		@ args = 0, pretend = 0, frame = 0
 111              		@ frame_needed = 0, uses_anonymous_args = 0
 112              	.LVL9:
 113 0000 08B5     		push	{r3, lr}
 114              		.cfi_def_cfa_offset 8
ARM GAS  /tmp/ccOXhgjL.s 			page 3


 115              		.cfi_offset 3, -8
 116              		.cfi_offset 14, -4
 117              		.loc 1 58 0
 118 0002 0022     		movs	r2, #0
 119 0004 0123     		movs	r3, #1
 120 0006 FFF7FEFF 		bl	uavcan_protocol_file_ReadRequest_encode_internal
 121              	.LVL10:
 122              		.loc 1 60 0
 123 000a 0730     		adds	r0, r0, #7
 124              	.LVL11:
 125              		.loc 1 61 0
 126 000c C008     		lsrs	r0, r0, #3
 127              	.LVL12:
 128 000e 08BD     		pop	{r3, pc}
 129              		.cfi_endproc
 130              	.LFE1:
 131              		.size	uavcan_protocol_file_ReadRequest_encode, .-uavcan_protocol_file_ReadRequest_encode
 132              		.section	.text.uavcan_protocol_file_ReadRequest_decode_internal,"ax",%progbits
 133              		.align	1
 134              		.p2align 4,,15
 135              		.global	uavcan_protocol_file_ReadRequest_decode_internal
 136              		.syntax unified
 137              		.thumb
 138              		.thumb_func
 139              		.fpu fpv4-sp-d16
 140              		.type	uavcan_protocol_file_ReadRequest_decode_internal, %function
 141              	uavcan_protocol_file_ReadRequest_decode_internal:
 142              	.LFB2:
 143              		.loc 1 80 0
 144              		.cfi_startproc
 145              		@ args = 4, pretend = 0, frame = 0
 146              		@ frame_needed = 0, uses_anonymous_args = 0
 147              	.LVL13:
 148 0000 2DE9F041 		push	{r4, r5, r6, r7, r8, lr}
 149              		.cfi_def_cfa_offset 24
 150              		.cfi_offset 4, -24
 151              		.cfi_offset 5, -20
 152              		.cfi_offset 6, -16
 153              		.cfi_offset 7, -12
 154              		.cfi_offset 8, -8
 155              		.cfi_offset 14, -4
 156 0004 82B0     		sub	sp, sp, #8
 157              		.cfi_def_cfa_offset 32
 158              		.loc 1 80 0
 159 0006 1546     		mov	r5, r2
 160 0008 089C     		ldr	r4, [sp, #32]
 161              		.loc 1 83 0
 162 000a 0092     		str	r2, [sp]
 163              		.loc 1 80 0
 164 000c 0F46     		mov	r7, r1
 165 000e 9846     		mov	r8, r3
 166              		.loc 1 83 0
 167 0010 2146     		mov	r1, r4
 168              	.LVL14:
 169 0012 0023     		movs	r3, #0
 170              	.LVL15:
 171 0014 2822     		movs	r2, #40
ARM GAS  /tmp/ccOXhgjL.s 			page 4


 172              	.LVL16:
 173              		.loc 1 80 0
 174 0016 0646     		mov	r6, r0
 175              		.loc 1 83 0
 176 0018 FFF7FEFF 		bl	canardDecodeScalar
 177              	.LVL17:
 178              		.loc 1 84 0
 179 001c 2828     		cmp	r0, #40
 180 001e 06D0     		beq	.L11
 181              	.L8:
 182              		.loc 1 106 0
 183 0020 0028     		cmp	r0, #0
 184              		.loc 1 108 0
 185 0022 A8BF     		it	ge
 186 0024 6FF00800 		mvnge	r0, #8
 187              	.LVL18:
 188 0028 02B0     		add	sp, sp, #8
 189              		.cfi_remember_state
 190              		.cfi_def_cfa_offset 24
 191              		@ sp needed
 192 002a BDE8F081 		pop	{r4, r5, r6, r7, r8, pc}
 193              	.LVL19:
 194              	.L11:
 195              		.cfi_restore_state
 196              		.loc 1 88 0
 197 002e 2834     		adds	r4, r4, #40
 198              	.LVL20:
 199              		.loc 1 91 0
 200 0030 4346     		mov	r3, r8
 201 0032 05F10802 		add	r2, r5, #8
 202 0036 3946     		mov	r1, r7
 203 0038 3046     		mov	r0, r6
 204              	.LVL21:
 205 003a 0894     		str	r4, [sp, #32]
 206              		.loc 1 108 0
 207 003c 02B0     		add	sp, sp, #8
 208              		.cfi_def_cfa_offset 24
 209              		@ sp needed
 210 003e BDE8F041 		pop	{r4, r5, r6, r7, r8, lr}
 211              		.cfi_restore 14
 212              		.cfi_restore 8
 213              		.cfi_restore 7
 214              		.cfi_restore 6
 215              		.cfi_restore 5
 216              		.cfi_restore 4
 217              		.cfi_def_cfa_offset 0
 218              	.LVL22:
 219              		.loc 1 91 0
 220 0042 FFF7FEBF 		b	uavcan_protocol_file_Path_decode_internal
 221              	.LVL23:
 222              		.cfi_endproc
 223              	.LFE2:
 224              		.size	uavcan_protocol_file_ReadRequest_decode_internal, .-uavcan_protocol_file_ReadRequest_decode_
 225 0046 00BF     		.section	.text.uavcan_protocol_file_ReadRequest_decode,"ax",%progbits
 226              		.align	1
 227              		.p2align 4,,15
 228              		.global	uavcan_protocol_file_ReadRequest_decode
ARM GAS  /tmp/ccOXhgjL.s 			page 5


 229              		.syntax unified
 230              		.thumb
 231              		.thumb_func
 232              		.fpu fpv4-sp-d16
 233              		.type	uavcan_protocol_file_ReadRequest_decode, %function
 234              	uavcan_protocol_file_ReadRequest_decode:
 235              	.LFB3:
 236              		.loc 1 124 0
 237              		.cfi_startproc
 238              		@ args = 0, pretend = 0, frame = 0
 239              		@ frame_needed = 0, uses_anonymous_args = 0
 240              	.LVL24:
 241 0000 70B5     		push	{r4, r5, r6, lr}
 242              		.cfi_def_cfa_offset 16
 243              		.cfi_offset 4, -16
 244              		.cfi_offset 5, -12
 245              		.cfi_offset 6, -8
 246              		.cfi_offset 14, -4
 247 0002 541E     		subs	r4, r2, #1
 248 0004 82B0     		sub	sp, sp, #8
 249              		.cfi_def_cfa_offset 24
 250 0006 02F10F06 		add	r6, r2, #15
 251              	.LBB2:
 252              		.loc 1 131 0
 253 000a 0025     		movs	r5, #0
 254              	.LVL25:
 255              	.L13:
 256              		.loc 1 131 0 is_stmt 0 discriminator 3
 257 000c 04F8015F 		strb	r5, [r4, #1]!
 258              		.loc 1 129 0 is_stmt 1 discriminator 3
 259 0010 B442     		cmp	r4, r6
 260 0012 FBD1     		bne	.L13
 261              	.LBE2:
 262              		.loc 1 134 0
 263 0014 0095     		str	r5, [sp]
 264 0016 FFF7FEFF 		bl	uavcan_protocol_file_ReadRequest_decode_internal
 265              	.LVL26:
 266              		.loc 1 137 0
 267 001a 02B0     		add	sp, sp, #8
 268              		.cfi_def_cfa_offset 16
 269              		@ sp needed
 270 001c 70BD     		pop	{r4, r5, r6, pc}
 271              		.cfi_endproc
 272              	.LFE3:
 273              		.size	uavcan_protocol_file_ReadRequest_decode, .-uavcan_protocol_file_ReadRequest_decode
 274 001e 00BF     		.section	.text.uavcan_protocol_file_ReadResponse_encode_internal,"ax",%progbits
 275              		.align	1
 276              		.p2align 4,,15
 277              		.global	uavcan_protocol_file_ReadResponse_encode_internal
 278              		.syntax unified
 279              		.thumb
 280              		.thumb_func
 281              		.fpu fpv4-sp-d16
 282              		.type	uavcan_protocol_file_ReadResponse_encode_internal, %function
 283              	uavcan_protocol_file_ReadResponse_encode_internal:
 284              	.LFB4:
 285              		.loc 1 151 0
ARM GAS  /tmp/ccOXhgjL.s 			page 6


 286              		.cfi_startproc
 287              		@ args = 0, pretend = 0, frame = 0
 288              		@ frame_needed = 0, uses_anonymous_args = 0
 289              	.LVL27:
 290 0000 F8B5     		push	{r3, r4, r5, r6, r7, lr}
 291              		.cfi_def_cfa_offset 24
 292              		.cfi_offset 3, -24
 293              		.cfi_offset 4, -20
 294              		.cfi_offset 5, -16
 295              		.cfi_offset 6, -12
 296              		.cfi_offset 7, -8
 297              		.cfi_offset 14, -4
 298              		.loc 1 151 0
 299 0002 1C46     		mov	r4, r3
 300              		.loc 1 155 0
 301 0004 0023     		movs	r3, #0
 302              	.LVL28:
 303              		.loc 1 151 0
 304 0006 0646     		mov	r6, r0
 305 0008 0F46     		mov	r7, r1
 306              		.loc 1 155 0
 307 000a FFF7FEFF 		bl	uavcan_protocol_file_Error_encode_internal
 308              	.LVL29:
 309 000e 0546     		mov	r5, r0
 310              	.LVL30:
 311              		.loc 1 158 0
 312 0010 8CB1     		cbz	r4, .L25
 313              	.LVL31:
 314              	.L17:
 315              		.loc 1 166 0 discriminator 1
 316 0012 B388     		ldrh	r3, [r6, #4]
 317 0014 6BB1     		cbz	r3, .L16
 318              		.loc 1 166 0 is_stmt 0
 319 0016 0024     		movs	r4, #0
 320              	.LVL32:
 321              	.L19:
 322              		.loc 1 171 0 is_stmt 1 discriminator 3
 323 0018 B368     		ldr	r3, [r6, #8]
 324              		.loc 1 168 0 discriminator 3
 325 001a 2946     		mov	r1, r5
 326 001c 2344     		add	r3, r3, r4
 327 001e 0822     		movs	r2, #8
 328 0020 3846     		mov	r0, r7
 329 0022 FFF7FEFF 		bl	canardEncodeScalar
 330              	.LVL33:
 331              		.loc 1 166 0 discriminator 3
 332 0026 B388     		ldrh	r3, [r6, #4]
 333 0028 0134     		adds	r4, r4, #1
 334              	.LVL34:
 335 002a A342     		cmp	r3, r4
 336              		.loc 1 172 0 discriminator 3
 337 002c 05F10805 		add	r5, r5, #8
 338              	.LVL35:
 339              		.loc 1 166 0 discriminator 3
 340 0030 F2D8     		bhi	.L19
 341              	.LVL36:
 342              	.L16:
ARM GAS  /tmp/ccOXhgjL.s 			page 7


 343              		.loc 1 176 0
 344 0032 2846     		mov	r0, r5
 345 0034 F8BD     		pop	{r3, r4, r5, r6, r7, pc}
 346              	.LVL37:
 347              	.L25:
 348              		.loc 1 161 0
 349 0036 0146     		mov	r1, r0
 350 0038 331D     		adds	r3, r6, #4
 351 003a 0922     		movs	r2, #9
 352 003c 3846     		mov	r0, r7
 353              	.LVL38:
 354 003e FFF7FEFF 		bl	canardEncodeScalar
 355              	.LVL39:
 356              		.loc 1 162 0
 357 0042 0935     		adds	r5, r5, #9
 358              	.LVL40:
 359 0044 E5E7     		b	.L17
 360              		.cfi_endproc
 361              	.LFE4:
 362              		.size	uavcan_protocol_file_ReadResponse_encode_internal, .-uavcan_protocol_file_ReadResponse_encod
 363 0046 00BF     		.section	.text.uavcan_protocol_file_ReadResponse_encode,"ax",%progbits
 364              		.align	1
 365              		.p2align 4,,15
 366              		.global	uavcan_protocol_file_ReadResponse_encode
 367              		.syntax unified
 368              		.thumb
 369              		.thumb_func
 370              		.fpu fpv4-sp-d16
 371              		.type	uavcan_protocol_file_ReadResponse_encode, %function
 372              	uavcan_protocol_file_ReadResponse_encode:
 373              	.LFB5:
 374              		.loc 1 185 0
 375              		.cfi_startproc
 376              		@ args = 0, pretend = 0, frame = 0
 377              		@ frame_needed = 0, uses_anonymous_args = 0
 378              	.LVL41:
 379 0000 08B5     		push	{r3, lr}
 380              		.cfi_def_cfa_offset 8
 381              		.cfi_offset 3, -8
 382              		.cfi_offset 14, -4
 383              		.loc 1 188 0
 384 0002 0022     		movs	r2, #0
 385 0004 0123     		movs	r3, #1
 386 0006 FFF7FEFF 		bl	uavcan_protocol_file_ReadResponse_encode_internal
 387              	.LVL42:
 388              		.loc 1 190 0
 389 000a 0730     		adds	r0, r0, #7
 390              	.LVL43:
 391              		.loc 1 191 0
 392 000c C008     		lsrs	r0, r0, #3
 393              	.LVL44:
 394 000e 08BD     		pop	{r3, pc}
 395              		.cfi_endproc
 396              	.LFE5:
 397              		.size	uavcan_protocol_file_ReadResponse_encode, .-uavcan_protocol_file_ReadResponse_encode
 398              		.section	.text.uavcan_protocol_file_ReadResponse_decode_internal,"ax",%progbits
 399              		.align	1
ARM GAS  /tmp/ccOXhgjL.s 			page 8


 400              		.p2align 4,,15
 401              		.global	uavcan_protocol_file_ReadResponse_decode_internal
 402              		.syntax unified
 403              		.thumb
 404              		.thumb_func
 405              		.fpu fpv4-sp-d16
 406              		.type	uavcan_protocol_file_ReadResponse_decode_internal, %function
 407              	uavcan_protocol_file_ReadResponse_decode_internal:
 408              	.LFB6:
 409              		.loc 1 210 0
 410              		.cfi_startproc
 411              		@ args = 4, pretend = 0, frame = 0
 412              		@ frame_needed = 0, uses_anonymous_args = 0
 413              	.LVL45:
 414 0000 2DE9F043 		push	{r4, r5, r6, r7, r8, r9, lr}
 415              		.cfi_def_cfa_offset 28
 416              		.cfi_offset 4, -28
 417              		.cfi_offset 5, -24
 418              		.cfi_offset 6, -20
 419              		.cfi_offset 7, -16
 420              		.cfi_offset 8, -12
 421              		.cfi_offset 9, -8
 422              		.cfi_offset 14, -4
 423 0004 83B0     		sub	sp, sp, #12
 424              		.cfi_def_cfa_offset 40
 425              		.loc 1 210 0
 426 0006 8146     		mov	r9, r0
 427 0008 0A9C     		ldr	r4, [sp, #40]
 428              		.loc 1 215 0
 429 000a 0094     		str	r4, [sp]
 430              		.loc 1 210 0
 431 000c 0D46     		mov	r5, r1
 432 000e 9046     		mov	r8, r2
 433 0010 1E46     		mov	r6, r3
 434              		.loc 1 215 0
 435 0012 FFF7FEFF 		bl	uavcan_protocol_file_Error_decode_internal
 436              	.LVL46:
 437              		.loc 1 216 0
 438 0016 041E     		subs	r4, r0, #0
 439 0018 22DB     		blt	.L28
 440              		.loc 1 224 0
 441 001a 2DB3     		cbz	r5, .L30
 442              		.loc 1 227 0
 443 001c D4EBC505 		rsbs	r5, r4, r5, lsl #3
 444 0020 48BF     		it	mi
 445 0022 0735     		addmi	r5, r5, #7
 446 0024 C5F3CF05 		ubfx	r5, r5, #3, #16
 447 0028 A8F80450 		strh	r5, [r8, #4]	@ movhi
 448              	.LVL47:
 449              	.L32:
 450              		.loc 1 245 0
 451 002c 16B1     		cbz	r6, .L34
 452              		.loc 1 247 0
 453 002e 3368     		ldr	r3, [r6]
 454 0030 C8F80830 		str	r3, [r8, #8]
 455              	.L34:
 456              		.loc 1 250 0 discriminator 1
ARM GAS  /tmp/ccOXhgjL.s 			page 9


 457 0034 A5B1     		cbz	r5, .L28
 458              		.loc 1 250 0 is_stmt 0
 459 0036 0025     		movs	r5, #0
 460              	.LVL48:
 461              	.L36:
 462              		.loc 1 254 0 is_stmt 1
 463 0038 0822     		movs	r2, #8
 464 003a 2146     		mov	r1, r4
 465 003c 0023     		movs	r3, #0
 466 003e 4846     		mov	r0, r9
 467              		.loc 1 250 0
 468 0040 0135     		adds	r5, r5, #1
 469              	.LVL49:
 470              		.loc 1 265 0
 471 0042 1444     		add	r4, r4, r2
 472              	.LVL50:
 473              		.loc 1 252 0
 474 0044 46B1     		cbz	r6, .L35
 475              	.LVL51:
 476              		.loc 1 254 0
 477 0046 3768     		ldr	r7, [r6]
 478 0048 0097     		str	r7, [sp]
 479 004a FFF7FEFF 		bl	canardDecodeScalar
 480              	.LVL52:
 481              		.loc 1 259 0
 482 004e 0828     		cmp	r0, #8
 483 0050 15D1     		bne	.L33
 484              		.loc 1 263 0
 485 0052 3368     		ldr	r3, [r6]
 486 0054 0133     		adds	r3, r3, #1
 487 0056 3360     		str	r3, [r6]
 488              	.LVL53:
 489              	.L35:
 490              		.loc 1 250 0 discriminator 2
 491 0058 B8F80430 		ldrh	r3, [r8, #4]
 492 005c AB42     		cmp	r3, r5
 493 005e EBD8     		bhi	.L36
 494              	.LVL54:
 495              	.L28:
 496              		.loc 1 278 0
 497 0060 2046     		mov	r0, r4
 498 0062 03B0     		add	sp, sp, #12
 499              		.cfi_remember_state
 500              		.cfi_def_cfa_offset 28
 501              		@ sp needed
 502 0064 BDE8F083 		pop	{r4, r5, r6, r7, r8, r9, pc}
 503              	.LVL55:
 504              	.L30:
 505              		.cfi_restore_state
 506              		.loc 1 236 0
 507 0068 08F10402 		add	r2, r8, #4
 508              		.loc 1 232 0
 509 006c 0092     		str	r2, [sp]
 510 006e 2B46     		mov	r3, r5
 511 0070 0922     		movs	r2, #9
 512 0072 2146     		mov	r1, r4
 513 0074 4846     		mov	r0, r9
ARM GAS  /tmp/ccOXhgjL.s 			page 10


 514              	.LVL56:
 515 0076 FFF7FEFF 		bl	canardDecodeScalar
 516              	.LVL57:
 517              		.loc 1 237 0
 518 007a 0928     		cmp	r0, #9
 519 007c 08D0     		beq	.L49
 520              	.LVL58:
 521              	.L33:
 522              		.loc 1 270 0
 523 007e 0028     		cmp	r0, #0
 524 0080 B4BF     		ite	lt
 525 0082 0446     		movlt	r4, r0
 526 0084 6FF00804 		mvnge	r4, #8
 527              		.loc 1 278 0
 528 0088 2046     		mov	r0, r4
 529              	.LVL59:
 530 008a 03B0     		add	sp, sp, #12
 531              		.cfi_remember_state
 532              		.cfi_def_cfa_offset 28
 533              		@ sp needed
 534 008c BDE8F083 		pop	{r4, r5, r6, r7, r8, r9, pc}
 535              	.LVL60:
 536              	.L49:
 537              		.cfi_restore_state
 538 0090 B8F80450 		ldrh	r5, [r8, #4]
 539              		.loc 1 241 0
 540 0094 0934     		adds	r4, r4, #9
 541              	.LVL61:
 542 0096 C9E7     		b	.L32
 543              		.cfi_endproc
 544              	.LFE6:
 545              		.size	uavcan_protocol_file_ReadResponse_decode_internal, .-uavcan_protocol_file_ReadResponse_decod
 546              		.section	.text.uavcan_protocol_file_ReadResponse_decode,"ax",%progbits
 547              		.align	1
 548              		.p2align 4,,15
 549              		.global	uavcan_protocol_file_ReadResponse_decode
 550              		.syntax unified
 551              		.thumb
 552              		.thumb_func
 553              		.fpu fpv4-sp-d16
 554              		.type	uavcan_protocol_file_ReadResponse_decode, %function
 555              	uavcan_protocol_file_ReadResponse_decode:
 556              	.LFB7:
 557              		.loc 1 294 0
 558              		.cfi_startproc
 559              		@ args = 0, pretend = 0, frame = 0
 560              		@ frame_needed = 0, uses_anonymous_args = 0
 561              	.LVL62:
 562 0000 70B5     		push	{r4, r5, r6, lr}
 563              		.cfi_def_cfa_offset 16
 564              		.cfi_offset 4, -16
 565              		.cfi_offset 5, -12
 566              		.cfi_offset 6, -8
 567              		.cfi_offset 14, -4
 568 0002 541E     		subs	r4, r2, #1
 569 0004 82B0     		sub	sp, sp, #8
 570              		.cfi_def_cfa_offset 24
ARM GAS  /tmp/ccOXhgjL.s 			page 11


 571 0006 02F10B06 		add	r6, r2, #11
 572              	.LBB3:
 573              		.loc 1 301 0
 574 000a 0025     		movs	r5, #0
 575              	.LVL63:
 576              	.L51:
 577              		.loc 1 301 0 is_stmt 0 discriminator 3
 578 000c 04F8015F 		strb	r5, [r4, #1]!
 579              		.loc 1 299 0 is_stmt 1 discriminator 3
 580 0010 B442     		cmp	r4, r6
 581 0012 FBD1     		bne	.L51
 582              	.LBE3:
 583              		.loc 1 304 0
 584 0014 0095     		str	r5, [sp]
 585 0016 FFF7FEFF 		bl	uavcan_protocol_file_ReadResponse_decode_internal
 586              	.LVL64:
 587              		.loc 1 307 0
 588 001a 02B0     		add	sp, sp, #8
 589              		.cfi_def_cfa_offset 16
 590              		@ sp needed
 591 001c 70BD     		pop	{r4, r5, r6, pc}
 592              		.cfi_endproc
 593              	.LFE7:
 594              		.size	uavcan_protocol_file_ReadResponse_decode, .-uavcan_protocol_file_ReadResponse_decode
 595 001e 00BF     		.text
 596              	.Letext0:
 597              		.file 2 "/usr/arm-none-eabi/include/machine/_default_types.h"
 598              		.file 3 "/usr/arm-none-eabi/include/sys/_stdint.h"
 599              		.file 4 "libcanard/canard.h"
 600              		.file 5 "libcanard/dsdl/uavcan/protocol/file/Error.h"
 601              		.file 6 "libcanard/dsdl/uavcan/protocol/file/Path.h"
 602              		.file 7 "libcanard/dsdl/uavcan/protocol/file/Read.h"