ARM GAS  /tmp/ccOpqeZy.s 			page 1


   1              		.cpu cortex-m4
   2              		.eabi_attribute 27, 1
   3              		.eabi_attribute 28, 1
   4              		.eabi_attribute 20, 1
   5              		.eabi_attribute 21, 1
   6              		.eabi_attribute 23, 3
   7              		.eabi_attribute 24, 1
   8              		.eabi_attribute 25, 1
   9              		.eabi_attribute 26, 1
  10              		.eabi_attribute 30, 2
  11              		.eabi_attribute 34, 1
  12              		.eabi_attribute 18, 4
  13              		.file	"file_BeginFirmwareUpdate.c"
  14              		.text
  15              	.Ltext0:
  16              		.cfi_sections	.debug_frame
  17              		.section	.text.uavcan_protocol_file_BeginFirmwareUpdateRequest_encode_internal,"ax",%progbits
  18              		.align	1
  19              		.p2align 4,,15
  20              		.global	uavcan_protocol_file_BeginFirmwareUpdateRequest_encode_internal
  21              		.syntax unified
  22              		.thumb
  23              		.thumb_func
  24              		.fpu fpv4-sp-d16
  25              		.type	uavcan_protocol_file_BeginFirmwareUpdateRequest_encode_internal, %function
  26              	uavcan_protocol_file_BeginFirmwareUpdateRequest_encode_internal:
  27              	.LFB0:
  28              		.file 1 "libcanard/dsdl/uavcan/protocol/file/file_BeginFirmwareUpdate.c"
  29              		.loc 1 37 0
  30              		.cfi_startproc
  31              		@ args = 0, pretend = 0, frame = 0
  32              		@ frame_needed = 0, uses_anonymous_args = 0
  33              	.LVL0:
  34 0000 70B5     		push	{r4, r5, r6, lr}
  35              		.cfi_def_cfa_offset 16
  36              		.cfi_offset 4, -16
  37              		.cfi_offset 5, -12
  38              		.cfi_offset 6, -8
  39              		.cfi_offset 14, -4
  40              		.loc 1 37 0
  41 0002 0D46     		mov	r5, r1
  42 0004 0446     		mov	r4, r0
  43 0006 1646     		mov	r6, r2
  44              		.loc 1 38 0
  45 0008 0346     		mov	r3, r0
  46              	.LVL1:
  47 000a 1146     		mov	r1, r2
  48              	.LVL2:
  49 000c 2846     		mov	r0, r5
  50              	.LVL3:
  51 000e 0822     		movs	r2, #8
  52              	.LVL4:
  53 0010 FFF7FEFF 		bl	canardEncodeScalar
  54              	.LVL5:
  55              		.loc 1 42 0
  56 0014 06F10802 		add	r2, r6, #8
  57              	.LVL6:
ARM GAS  /tmp/ccOpqeZy.s 			page 2


  58 0018 2946     		mov	r1, r5
  59 001a 201D     		adds	r0, r4, #4
  60 001c 0023     		movs	r3, #0
  61              		.loc 1 45 0
  62 001e BDE87040 		pop	{r4, r5, r6, lr}
  63              		.cfi_restore 14
  64              		.cfi_restore 6
  65              		.cfi_restore 5
  66              		.cfi_restore 4
  67              		.cfi_def_cfa_offset 0
  68              	.LVL7:
  69              		.loc 1 42 0
  70 0022 FFF7FEBF 		b	uavcan_protocol_file_Path_encode_internal
  71              	.LVL8:
  72              		.cfi_endproc
  73              	.LFE0:
  74              		.size	uavcan_protocol_file_BeginFirmwareUpdateRequest_encode_internal, .-uavcan_protocol_file_Begi
  75 0026 00BF     		.section	.text.uavcan_protocol_file_BeginFirmwareUpdateRequest_encode,"ax",%progbits
  76              		.align	1
  77              		.p2align 4,,15
  78              		.global	uavcan_protocol_file_BeginFirmwareUpdateRequest_encode
  79              		.syntax unified
  80              		.thumb
  81              		.thumb_func
  82              		.fpu fpv4-sp-d16
  83              		.type	uavcan_protocol_file_BeginFirmwareUpdateRequest_encode, %function
  84              	uavcan_protocol_file_BeginFirmwareUpdateRequest_encode:
  85              	.LFB1:
  86              		.loc 1 54 0
  87              		.cfi_startproc
  88              		@ args = 0, pretend = 0, frame = 0
  89              		@ frame_needed = 0, uses_anonymous_args = 0
  90              	.LVL9:
  91 0000 08B5     		push	{r3, lr}
  92              		.cfi_def_cfa_offset 8
  93              		.cfi_offset 3, -8
  94              		.cfi_offset 14, -4
  95              		.loc 1 57 0
  96 0002 0022     		movs	r2, #0
  97 0004 0123     		movs	r3, #1
  98 0006 FFF7FEFF 		bl	uavcan_protocol_file_BeginFirmwareUpdateRequest_encode_internal
  99              	.LVL10:
 100              		.loc 1 59 0
 101 000a 0730     		adds	r0, r0, #7
 102              	.LVL11:
 103              		.loc 1 60 0
 104 000c C008     		lsrs	r0, r0, #3
 105              	.LVL12:
 106 000e 08BD     		pop	{r3, pc}
 107              		.cfi_endproc
 108              	.LFE1:
 109              		.size	uavcan_protocol_file_BeginFirmwareUpdateRequest_encode, .-uavcan_protocol_file_BeginFirmware
 110              		.section	.text.uavcan_protocol_file_BeginFirmwareUpdateRequest_decode_internal,"ax",%progbits
 111              		.align	1
 112              		.p2align 4,,15
 113              		.global	uavcan_protocol_file_BeginFirmwareUpdateRequest_decode_internal
 114              		.syntax unified
ARM GAS  /tmp/ccOpqeZy.s 			page 3


 115              		.thumb
 116              		.thumb_func
 117              		.fpu fpv4-sp-d16
 118              		.type	uavcan_protocol_file_BeginFirmwareUpdateRequest_decode_internal, %function
 119              	uavcan_protocol_file_BeginFirmwareUpdateRequest_decode_internal:
 120              	.LFB2:
 121              		.loc 1 79 0
 122              		.cfi_startproc
 123              		@ args = 4, pretend = 0, frame = 0
 124              		@ frame_needed = 0, uses_anonymous_args = 0
 125              	.LVL13:
 126 0000 2DE9F041 		push	{r4, r5, r6, r7, r8, lr}
 127              		.cfi_def_cfa_offset 24
 128              		.cfi_offset 4, -24
 129              		.cfi_offset 5, -20
 130              		.cfi_offset 6, -16
 131              		.cfi_offset 7, -12
 132              		.cfi_offset 8, -8
 133              		.cfi_offset 14, -4
 134 0004 82B0     		sub	sp, sp, #8
 135              		.cfi_def_cfa_offset 32
 136              		.loc 1 79 0
 137 0006 1546     		mov	r5, r2
 138 0008 089C     		ldr	r4, [sp, #32]
 139              		.loc 1 82 0
 140 000a 0092     		str	r2, [sp]
 141              		.loc 1 79 0
 142 000c 0F46     		mov	r7, r1
 143 000e 9846     		mov	r8, r3
 144              		.loc 1 82 0
 145 0010 2146     		mov	r1, r4
 146              	.LVL14:
 147 0012 0023     		movs	r3, #0
 148              	.LVL15:
 149 0014 0822     		movs	r2, #8
 150              	.LVL16:
 151              		.loc 1 79 0
 152 0016 0646     		mov	r6, r0
 153              		.loc 1 82 0
 154 0018 FFF7FEFF 		bl	canardDecodeScalar
 155              	.LVL17:
 156              		.loc 1 83 0
 157 001c 0828     		cmp	r0, #8
 158 001e 06D0     		beq	.L10
 159              	.L7:
 160              		.loc 1 105 0
 161 0020 0028     		cmp	r0, #0
 162              		.loc 1 107 0
 163 0022 A8BF     		it	ge
 164 0024 6FF00800 		mvnge	r0, #8
 165              	.LVL18:
 166 0028 02B0     		add	sp, sp, #8
 167              		.cfi_remember_state
 168              		.cfi_def_cfa_offset 24
 169              		@ sp needed
 170 002a BDE8F081 		pop	{r4, r5, r6, r7, r8, pc}
 171              	.LVL19:
ARM GAS  /tmp/ccOpqeZy.s 			page 4


 172              	.L10:
 173              		.cfi_restore_state
 174              		.loc 1 87 0
 175 002e 0834     		adds	r4, r4, #8
 176              	.LVL20:
 177              		.loc 1 90 0
 178 0030 4346     		mov	r3, r8
 179 0032 2A1D     		adds	r2, r5, #4
 180 0034 3946     		mov	r1, r7
 181 0036 3046     		mov	r0, r6
 182              	.LVL21:
 183 0038 0894     		str	r4, [sp, #32]
 184              		.loc 1 107 0
 185 003a 02B0     		add	sp, sp, #8
 186              		.cfi_def_cfa_offset 24
 187              		@ sp needed
 188 003c BDE8F041 		pop	{r4, r5, r6, r7, r8, lr}
 189              		.cfi_restore 14
 190              		.cfi_restore 8
 191              		.cfi_restore 7
 192              		.cfi_restore 6
 193              		.cfi_restore 5
 194              		.cfi_restore 4
 195              		.cfi_def_cfa_offset 0
 196              	.LVL22:
 197              		.loc 1 90 0
 198 0040 FFF7FEBF 		b	uavcan_protocol_file_Path_decode_internal
 199              	.LVL23:
 200              		.cfi_endproc
 201              	.LFE2:
 202              		.size	uavcan_protocol_file_BeginFirmwareUpdateRequest_decode_internal, .-uavcan_protocol_file_Begi
 203              		.section	.text.uavcan_protocol_file_BeginFirmwareUpdateRequest_decode,"ax",%progbits
 204              		.align	1
 205              		.p2align 4,,15
 206              		.global	uavcan_protocol_file_BeginFirmwareUpdateRequest_decode
 207              		.syntax unified
 208              		.thumb
 209              		.thumb_func
 210              		.fpu fpv4-sp-d16
 211              		.type	uavcan_protocol_file_BeginFirmwareUpdateRequest_decode, %function
 212              	uavcan_protocol_file_BeginFirmwareUpdateRequest_decode:
 213              	.LFB3:
 214              		.loc 1 123 0
 215              		.cfi_startproc
 216              		@ args = 0, pretend = 0, frame = 0
 217              		@ frame_needed = 0, uses_anonymous_args = 0
 218              	.LVL24:
 219 0000 70B5     		push	{r4, r5, r6, lr}
 220              		.cfi_def_cfa_offset 16
 221              		.cfi_offset 4, -16
 222              		.cfi_offset 5, -12
 223              		.cfi_offset 6, -8
 224              		.cfi_offset 14, -4
 225 0002 541E     		subs	r4, r2, #1
 226 0004 82B0     		sub	sp, sp, #8
 227              		.cfi_def_cfa_offset 24
 228 0006 02F10B06 		add	r6, r2, #11
ARM GAS  /tmp/ccOpqeZy.s 			page 5


 229              	.LBB2:
 230              		.loc 1 130 0
 231 000a 0025     		movs	r5, #0
 232              	.LVL25:
 233              	.L12:
 234              		.loc 1 130 0 is_stmt 0 discriminator 3
 235 000c 04F8015F 		strb	r5, [r4, #1]!
 236              		.loc 1 128 0 is_stmt 1 discriminator 3
 237 0010 B442     		cmp	r4, r6
 238 0012 FBD1     		bne	.L12
 239              	.LBE2:
 240              		.loc 1 133 0
 241 0014 0095     		str	r5, [sp]
 242 0016 FFF7FEFF 		bl	uavcan_protocol_file_BeginFirmwareUpdateRequest_decode_internal
 243              	.LVL26:
 244              		.loc 1 136 0
 245 001a 02B0     		add	sp, sp, #8
 246              		.cfi_def_cfa_offset 16
 247              		@ sp needed
 248 001c 70BD     		pop	{r4, r5, r6, pc}
 249              		.cfi_endproc
 250              	.LFE3:
 251              		.size	uavcan_protocol_file_BeginFirmwareUpdateRequest_decode, .-uavcan_protocol_file_BeginFirmware
 252 001e 00BF     		.section	.text.uavcan_protocol_file_BeginFirmwareUpdateResponse_encode_internal,"ax",%progbits
 253              		.align	1
 254              		.p2align 4,,15
 255              		.global	uavcan_protocol_file_BeginFirmwareUpdateResponse_encode_internal
 256              		.syntax unified
 257              		.thumb
 258              		.thumb_func
 259              		.fpu fpv4-sp-d16
 260              		.type	uavcan_protocol_file_BeginFirmwareUpdateResponse_encode_internal, %function
 261              	uavcan_protocol_file_BeginFirmwareUpdateResponse_encode_internal:
 262              	.LFB4:
 263              		.loc 1 150 0
 264              		.cfi_startproc
 265              		@ args = 0, pretend = 0, frame = 0
 266              		@ frame_needed = 0, uses_anonymous_args = 0
 267              	.LVL27:
 268 0000 2DE9F041 		push	{r4, r5, r6, r7, r8, lr}
 269              		.cfi_def_cfa_offset 24
 270              		.cfi_offset 4, -24
 271              		.cfi_offset 5, -20
 272              		.cfi_offset 6, -16
 273              		.cfi_offset 7, -12
 274              		.cfi_offset 8, -8
 275              		.cfi_offset 14, -4
 276              		.loc 1 150 0
 277 0004 0F46     		mov	r7, r1
 278 0006 1446     		mov	r4, r2
 279              		.loc 1 153 0
 280 0008 1146     		mov	r1, r2
 281              	.LVL28:
 282              		.loc 1 150 0
 283 000a 0646     		mov	r6, r0
 284 000c 9846     		mov	r8, r3
 285              		.loc 1 153 0
ARM GAS  /tmp/ccOpqeZy.s 			page 6


 286 000e 0822     		movs	r2, #8
 287              	.LVL29:
 288 0010 0346     		mov	r3, r0
 289              	.LVL30:
 290 0012 3846     		mov	r0, r7
 291              	.LVL31:
 292 0014 FFF7FEFF 		bl	canardEncodeScalar
 293              	.LVL32:
 294              		.loc 1 154 0
 295 0018 04F10805 		add	r5, r4, #8
 296              	.LVL33:
 297              		.loc 1 157 0
 298 001c B8F1000F 		cmp	r8, #0
 299 0020 12D0     		beq	.L24
 300              	.L16:
 301              		.loc 1 165 0 discriminator 1
 302 0022 3379     		ldrb	r3, [r6, #4]	@ zero_extendqisi2
 303 0024 6BB1     		cbz	r3, .L15
 304              		.loc 1 165 0 is_stmt 0
 305 0026 0024     		movs	r4, #0
 306              	.LVL34:
 307              	.L18:
 308              		.loc 1 170 0 is_stmt 1 discriminator 3
 309 0028 B368     		ldr	r3, [r6, #8]
 310              		.loc 1 167 0 discriminator 3
 311 002a 2946     		mov	r1, r5
 312 002c 2344     		add	r3, r3, r4
 313 002e 0822     		movs	r2, #8
 314 0030 3846     		mov	r0, r7
 315 0032 FFF7FEFF 		bl	canardEncodeScalar
 316              	.LVL35:
 317              		.loc 1 165 0 discriminator 3
 318 0036 3379     		ldrb	r3, [r6, #4]	@ zero_extendqisi2
 319 0038 0134     		adds	r4, r4, #1
 320              	.LVL36:
 321 003a A342     		cmp	r3, r4
 322              		.loc 1 171 0 discriminator 3
 323 003c 05F10805 		add	r5, r5, #8
 324              	.LVL37:
 325              		.loc 1 165 0 discriminator 3
 326 0040 F2D8     		bhi	.L18
 327              	.LVL38:
 328              	.L15:
 329              		.loc 1 175 0
 330 0042 2846     		mov	r0, r5
 331 0044 BDE8F081 		pop	{r4, r5, r6, r7, r8, pc}
 332              	.LVL39:
 333              	.L24:
 334              		.loc 1 160 0
 335 0048 2946     		mov	r1, r5
 336 004a 331D     		adds	r3, r6, #4
 337 004c 0722     		movs	r2, #7
 338 004e 3846     		mov	r0, r7
 339 0050 FFF7FEFF 		bl	canardEncodeScalar
 340              	.LVL40:
 341              		.loc 1 161 0
 342 0054 04F10F05 		add	r5, r4, #15
ARM GAS  /tmp/ccOpqeZy.s 			page 7


 343              	.LVL41:
 344 0058 E3E7     		b	.L16
 345              		.cfi_endproc
 346              	.LFE4:
 347              		.size	uavcan_protocol_file_BeginFirmwareUpdateResponse_encode_internal, .-uavcan_protocol_file_Beg
 348 005a 00BF     		.section	.text.uavcan_protocol_file_BeginFirmwareUpdateResponse_encode,"ax",%progbits
 349              		.align	1
 350              		.p2align 4,,15
 351              		.global	uavcan_protocol_file_BeginFirmwareUpdateResponse_encode
 352              		.syntax unified
 353              		.thumb
 354              		.thumb_func
 355              		.fpu fpv4-sp-d16
 356              		.type	uavcan_protocol_file_BeginFirmwareUpdateResponse_encode, %function
 357              	uavcan_protocol_file_BeginFirmwareUpdateResponse_encode:
 358              	.LFB5:
 359              		.loc 1 184 0
 360              		.cfi_startproc
 361              		@ args = 0, pretend = 0, frame = 0
 362              		@ frame_needed = 0, uses_anonymous_args = 0
 363              	.LVL42:
 364 0000 08B5     		push	{r3, lr}
 365              		.cfi_def_cfa_offset 8
 366              		.cfi_offset 3, -8
 367              		.cfi_offset 14, -4
 368              		.loc 1 187 0
 369 0002 0022     		movs	r2, #0
 370 0004 0123     		movs	r3, #1
 371 0006 FFF7FEFF 		bl	uavcan_protocol_file_BeginFirmwareUpdateResponse_encode_internal
 372              	.LVL43:
 373              		.loc 1 189 0
 374 000a 0730     		adds	r0, r0, #7
 375              	.LVL44:
 376              		.loc 1 190 0
 377 000c C008     		lsrs	r0, r0, #3
 378              	.LVL45:
 379 000e 08BD     		pop	{r3, pc}
 380              		.cfi_endproc
 381              	.LFE5:
 382              		.size	uavcan_protocol_file_BeginFirmwareUpdateResponse_encode, .-uavcan_protocol_file_BeginFirmwar
 383              		.section	.text.uavcan_protocol_file_BeginFirmwareUpdateResponse_decode_internal,"ax",%progbits
 384              		.align	1
 385              		.p2align 4,,15
 386              		.global	uavcan_protocol_file_BeginFirmwareUpdateResponse_decode_internal
 387              		.syntax unified
 388              		.thumb
 389              		.thumb_func
 390              		.fpu fpv4-sp-d16
 391              		.type	uavcan_protocol_file_BeginFirmwareUpdateResponse_decode_internal, %function
 392              	uavcan_protocol_file_BeginFirmwareUpdateResponse_decode_internal:
 393              	.LFB6:
 394              		.loc 1 209 0
 395              		.cfi_startproc
 396              		@ args = 4, pretend = 0, frame = 0
 397              		@ frame_needed = 0, uses_anonymous_args = 0
 398              	.LVL46:
 399 0000 2DE9F043 		push	{r4, r5, r6, r7, r8, r9, lr}
ARM GAS  /tmp/ccOpqeZy.s 			page 8


 400              		.cfi_def_cfa_offset 28
 401              		.cfi_offset 4, -28
 402              		.cfi_offset 5, -24
 403              		.cfi_offset 6, -20
 404              		.cfi_offset 7, -16
 405              		.cfi_offset 8, -12
 406              		.cfi_offset 9, -8
 407              		.cfi_offset 14, -4
 408 0004 83B0     		sub	sp, sp, #12
 409              		.cfi_def_cfa_offset 40
 410              		.loc 1 209 0
 411 0006 1746     		mov	r7, r2
 412              		.loc 1 213 0
 413 0008 0092     		str	r2, [sp]
 414              		.loc 1 209 0
 415 000a 0E46     		mov	r6, r1
 416 000c 1D46     		mov	r5, r3
 417              		.loc 1 213 0
 418 000e 0A99     		ldr	r1, [sp, #40]
 419              	.LVL47:
 420 0010 0023     		movs	r3, #0
 421              	.LVL48:
 422 0012 0822     		movs	r2, #8
 423              	.LVL49:
 424              		.loc 1 209 0
 425 0014 8146     		mov	r9, r0
 426              		.loc 1 213 0
 427 0016 FFF7FEFF 		bl	canardDecodeScalar
 428              	.LVL50:
 429              		.loc 1 214 0
 430 001a 0828     		cmp	r0, #8
 431              		.loc 1 213 0
 432 001c 0446     		mov	r4, r0
 433              	.LVL51:
 434              		.loc 1 214 0
 435 001e 07D0     		beq	.L49
 436              	.LVL52:
 437              	.L28:
 438              		.loc 1 274 0
 439 0020 002C     		cmp	r4, #0
 440 0022 A8BF     		it	ge
 441 0024 6FF00804 		mvnge	r4, #8
 442              	.LVL53:
 443              	.L27:
 444              		.loc 1 276 0
 445 0028 2046     		mov	r0, r4
 446 002a 03B0     		add	sp, sp, #12
 447              		.cfi_remember_state
 448              		.cfi_def_cfa_offset 28
 449              		@ sp needed
 450 002c BDE8F083 		pop	{r4, r5, r6, r7, r8, r9, pc}
 451              	.LVL54:
 452              	.L49:
 453              		.cfi_restore_state
 454              		.loc 1 218 0
 455 0030 0A9B     		ldr	r3, [sp, #40]
 456 0032 03F10804 		add	r4, r3, #8
ARM GAS  /tmp/ccOpqeZy.s 			page 9


 457              	.LVL55:
 458              		.loc 1 222 0
 459 0036 2EB3     		cbz	r6, .L29
 460              		.loc 1 225 0
 461 0038 D4EBC606 		rsbs	r6, r4, r6, lsl #3
 462 003c 48BF     		it	mi
 463 003e 0736     		addmi	r6, r6, #7
 464 0040 C6F3C706 		ubfx	r6, r6, #3, #8
 465 0044 3E71     		strb	r6, [r7, #4]
 466              		.loc 1 243 0
 467 0046 0DB1     		cbz	r5, .L32
 468              	.L51:
 469              		.loc 1 245 0
 470 0048 2B68     		ldr	r3, [r5]
 471 004a BB60     		str	r3, [r7, #8]
 472              	.L32:
 473              		.loc 1 248 0 discriminator 1
 474 004c 002E     		cmp	r6, #0
 475 004e EBD0     		beq	.L27
 476              		.loc 1 248 0 is_stmt 0
 477 0050 4FF00008 		mov	r8, #0
 478 0054 05E0     		b	.L35
 479              	.LVL56:
 480              	.L50:
 481              		.loc 1 261 0 is_stmt 1
 482 0056 2B68     		ldr	r3, [r5]
 483 0058 0133     		adds	r3, r3, #1
 484 005a 2B60     		str	r3, [r5]
 485              	.LVL57:
 486              	.L34:
 487              		.loc 1 248 0 discriminator 2
 488 005c 3B79     		ldrb	r3, [r7, #4]	@ zero_extendqisi2
 489 005e 4345     		cmp	r3, r8
 490 0060 E2D9     		bls	.L27
 491              	.LVL58:
 492              	.L35:
 493              		.loc 1 252 0
 494 0062 0822     		movs	r2, #8
 495 0064 2146     		mov	r1, r4
 496 0066 0023     		movs	r3, #0
 497 0068 4846     		mov	r0, r9
 498              		.loc 1 248 0
 499 006a 08F10108 		add	r8, r8, #1
 500              	.LVL59:
 501              		.loc 1 263 0
 502 006e 1444     		add	r4, r4, r2
 503              	.LVL60:
 504              		.loc 1 250 0
 505 0070 002D     		cmp	r5, #0
 506 0072 F3D0     		beq	.L34
 507              	.LVL61:
 508              		.loc 1 252 0
 509 0074 2E68     		ldr	r6, [r5]
 510 0076 0096     		str	r6, [sp]
 511 0078 FFF7FEFF 		bl	canardDecodeScalar
 512              	.LVL62:
 513              		.loc 1 257 0
ARM GAS  /tmp/ccOpqeZy.s 			page 10


 514 007c 0828     		cmp	r0, #8
 515 007e EAD0     		beq	.L50
 516              		.loc 1 267 0
 517 0080 0446     		mov	r4, r0
 518              	.LVL63:
 519 0082 CDE7     		b	.L28
 520              	.LVL64:
 521              	.L29:
 522              		.loc 1 234 0
 523 0084 3A1D     		adds	r2, r7, #4
 524              		.loc 1 230 0
 525 0086 2146     		mov	r1, r4
 526 0088 0092     		str	r2, [sp]
 527 008a 3346     		mov	r3, r6
 528 008c 0722     		movs	r2, #7
 529 008e 4846     		mov	r0, r9
 530              	.LVL65:
 531 0090 FFF7FEFF 		bl	canardDecodeScalar
 532              	.LVL66:
 533              		.loc 1 235 0
 534 0094 0728     		cmp	r0, #7
 535              		.loc 1 230 0
 536 0096 0446     		mov	r4, r0
 537              	.LVL67:
 538              		.loc 1 235 0
 539 0098 C2D1     		bne	.L28
 540              		.loc 1 239 0
 541 009a 0A9B     		ldr	r3, [sp, #40]
 542 009c 3E79     		ldrb	r6, [r7, #4]	@ zero_extendqisi2
 543 009e 03F10F04 		add	r4, r3, #15
 544              	.LVL68:
 545              		.loc 1 243 0
 546 00a2 002D     		cmp	r5, #0
 547 00a4 D0D1     		bne	.L51
 548 00a6 D1E7     		b	.L32
 549              		.cfi_endproc
 550              	.LFE6:
 551              		.size	uavcan_protocol_file_BeginFirmwareUpdateResponse_decode_internal, .-uavcan_protocol_file_Beg
 552              		.section	.text.uavcan_protocol_file_BeginFirmwareUpdateResponse_decode,"ax",%progbits
 553              		.align	1
 554              		.p2align 4,,15
 555              		.global	uavcan_protocol_file_BeginFirmwareUpdateResponse_decode
 556              		.syntax unified
 557              		.thumb
 558              		.thumb_func
 559              		.fpu fpv4-sp-d16
 560              		.type	uavcan_protocol_file_BeginFirmwareUpdateResponse_decode, %function
 561              	uavcan_protocol_file_BeginFirmwareUpdateResponse_decode:
 562              	.LFB7:
 563              		.loc 1 292 0
 564              		.cfi_startproc
 565              		@ args = 0, pretend = 0, frame = 0
 566              		@ frame_needed = 0, uses_anonymous_args = 0
 567              	.LVL69:
 568 0000 70B5     		push	{r4, r5, r6, lr}
 569              		.cfi_def_cfa_offset 16
 570              		.cfi_offset 4, -16
ARM GAS  /tmp/ccOpqeZy.s 			page 11


 571              		.cfi_offset 5, -12
 572              		.cfi_offset 6, -8
 573              		.cfi_offset 14, -4
 574 0002 541E     		subs	r4, r2, #1
 575 0004 82B0     		sub	sp, sp, #8
 576              		.cfi_def_cfa_offset 24
 577 0006 02F10B06 		add	r6, r2, #11
 578              	.LBB3:
 579              		.loc 1 299 0
 580 000a 0025     		movs	r5, #0
 581              	.LVL70:
 582              	.L53:
 583              		.loc 1 299 0 is_stmt 0 discriminator 3
 584 000c 04F8015F 		strb	r5, [r4, #1]!
 585              		.loc 1 297 0 is_stmt 1 discriminator 3
 586 0010 B442     		cmp	r4, r6
 587 0012 FBD1     		bne	.L53
 588              	.LBE3:
 589              		.loc 1 302 0
 590 0014 0095     		str	r5, [sp]
 591 0016 FFF7FEFF 		bl	uavcan_protocol_file_BeginFirmwareUpdateResponse_decode_internal
 592              	.LVL71:
 593              		.loc 1 305 0
 594 001a 02B0     		add	sp, sp, #8
 595              		.cfi_def_cfa_offset 16
 596              		@ sp needed
 597 001c 70BD     		pop	{r4, r5, r6, pc}
 598              		.cfi_endproc
 599              	.LFE7:
 600              		.size	uavcan_protocol_file_BeginFirmwareUpdateResponse_decode, .-uavcan_protocol_file_BeginFirmwar
 601 001e 00BF     		.text
 602              	.Letext0:
 603              		.file 2 "/usr/arm-none-eabi/include/machine/_default_types.h"
 604              		.file 3 "/usr/arm-none-eabi/include/sys/_stdint.h"
 605              		.file 4 "libcanard/canard.h"
 606              		.file 5 "libcanard/dsdl/uavcan/protocol/file/Path.h"
 607              		.file 6 "libcanard/dsdl/uavcan/protocol/file/BeginFirmwareUpdate.h"
 608              		.section	.debug_info,"",%progbits
 609              	.Ldebug_info0:
 610 0000 3D080000 		.4byte	0x83d
 611 0004 0400     		.2byte	0x4
 612 0006 00000000 		.4byte	.Ldebug_abbrev0
 613 000a 04       		.byte	0x4
 614 000b 01       		.uleb128 0x1
 615 000c A3050000 		.4byte	.LASF63
 616 0010 0C       		.byte	0xc
 617 0011 C0040000 		.4byte	.LASF64
 618 0015 4A030000 		.4byte	.LASF65
 619 0019 00000000 		.4byte	.Ldebug_ranges0+0
 620 001d 00000000 		.4byte	0
 621 0021 00000000 		.4byte	.Ldebug_line0
 622 0025 02       		.uleb128 0x2
 623 0026 01       		.byte	0x1
 624 0027 06       		.byte	0x6
 625 0028 50030000 		.4byte	.LASF0
 626 002c 03       		.uleb128 0x3
 627 002d 88020000 		.4byte	.LASF3
ARM GAS  /tmp/ccOpqeZy.s 			page 12


 628 0031 02       		.byte	0x2
 629 0032 2B       		.byte	0x2b
 630 0033 37000000 		.4byte	0x37
 631 0037 02       		.uleb128 0x2
 632 0038 01       		.byte	0x1
 633 0039 08       		.byte	0x8
 634 003a 2D030000 		.4byte	.LASF1
 635 003e 02       		.uleb128 0x2
 636 003f 02       		.byte	0x2
 637 0040 05       		.byte	0x5
 638 0041 54000000 		.4byte	.LASF2
 639 0045 03       		.uleb128 0x3
 640 0046 80000000 		.4byte	.LASF4
 641 004a 02       		.byte	0x2
 642 004b 39       		.byte	0x39
 643 004c 50000000 		.4byte	0x50
 644 0050 02       		.uleb128 0x2
 645 0051 02       		.byte	0x2
 646 0052 07       		.byte	0x7
 647 0053 EF030000 		.4byte	.LASF5
 648 0057 03       		.uleb128 0x3
 649 0058 56050000 		.4byte	.LASF6
 650 005c 02       		.byte	0x2
 651 005d 4D       		.byte	0x4d
 652 005e 62000000 		.4byte	0x62
 653 0062 02       		.uleb128 0x2
 654 0063 04       		.byte	0x4
 655 0064 05       		.byte	0x5
 656 0065 1B020000 		.4byte	.LASF7
 657 0069 03       		.uleb128 0x3
 658 006a 75000000 		.4byte	.LASF8
 659 006e 02       		.byte	0x2
 660 006f 4F       		.byte	0x4f
 661 0070 74000000 		.4byte	0x74
 662 0074 02       		.uleb128 0x2
 663 0075 04       		.byte	0x4
 664 0076 07       		.byte	0x7
 665 0077 10050000 		.4byte	.LASF9
 666 007b 02       		.uleb128 0x2
 667 007c 08       		.byte	0x8
 668 007d 05       		.byte	0x5
 669 007e C9010000 		.4byte	.LASF10
 670 0082 03       		.uleb128 0x3
 671 0083 B0040000 		.4byte	.LASF11
 672 0087 02       		.byte	0x2
 673 0088 69       		.byte	0x69
 674 0089 8D000000 		.4byte	0x8d
 675 008d 02       		.uleb128 0x2
 676 008e 08       		.byte	0x8
 677 008f 07       		.byte	0x7
 678 0090 5C030000 		.4byte	.LASF12
 679 0094 04       		.uleb128 0x4
 680 0095 04       		.byte	0x4
 681 0096 05       		.byte	0x5
 682 0097 696E7400 		.ascii	"int\000"
 683 009b 02       		.uleb128 0x2
 684 009c 04       		.byte	0x4
ARM GAS  /tmp/ccOpqeZy.s 			page 13


 685 009d 07       		.byte	0x7
 686 009e 7C030000 		.4byte	.LASF13
 687 00a2 03       		.uleb128 0x3
 688 00a3 CB000000 		.4byte	.LASF14
 689 00a7 03       		.byte	0x3
 690 00a8 18       		.byte	0x18
 691 00a9 2C000000 		.4byte	0x2c
 692 00ad 05       		.uleb128 0x5
 693 00ae A2000000 		.4byte	0xa2
 694 00b2 03       		.uleb128 0x3
 695 00b3 89030000 		.4byte	.LASF15
 696 00b7 03       		.byte	0x3
 697 00b8 24       		.byte	0x24
 698 00b9 45000000 		.4byte	0x45
 699 00bd 03       		.uleb128 0x3
 700 00be 55040000 		.4byte	.LASF16
 701 00c2 03       		.byte	0x3
 702 00c3 2C       		.byte	0x2c
 703 00c4 57000000 		.4byte	0x57
 704 00c8 05       		.uleb128 0x5
 705 00c9 BD000000 		.4byte	0xbd
 706 00cd 03       		.uleb128 0x3
 707 00ce 73030000 		.4byte	.LASF17
 708 00d2 03       		.byte	0x3
 709 00d3 30       		.byte	0x30
 710 00d4 69000000 		.4byte	0x69
 711 00d8 03       		.uleb128 0x3
 712 00d9 4B000000 		.4byte	.LASF18
 713 00dd 03       		.byte	0x3
 714 00de 3C       		.byte	0x3c
 715 00df 82000000 		.4byte	0x82
 716 00e3 03       		.uleb128 0x3
 717 00e4 FF040000 		.4byte	.LASF19
 718 00e8 04       		.byte	0x4
 719 00e9 99       		.byte	0x99
 720 00ea F3000000 		.4byte	0xf3
 721 00ee 05       		.uleb128 0x5
 722 00ef E3000000 		.4byte	0xe3
 723 00f3 06       		.uleb128 0x6
 724 00f4 FF040000 		.4byte	.LASF19
 725 00f8 20       		.byte	0x20
 726 00f9 04       		.byte	0x4
 727 00fa 0F01     		.2byte	0x10f
 728 00fc 83010000 		.4byte	0x183
 729 0100 07       		.uleb128 0x7
 730 0101 A6020000 		.4byte	.LASF20
 731 0105 04       		.byte	0x4
 732 0106 1401     		.2byte	0x114
 733 0108 D8000000 		.4byte	0xd8
 734 010c 00       		.byte	0
 735 010d 07       		.uleb128 0x7
 736 010e 6B040000 		.4byte	.LASF21
 737 0112 04       		.byte	0x4
 738 0113 2801     		.2byte	0x128
 739 0115 DE010000 		.4byte	0x1de
 740 0119 08       		.byte	0x8
 741 011a 07       		.uleb128 0x7
ARM GAS  /tmp/ccOpqeZy.s 			page 14


 742 011b 3B030000 		.4byte	.LASF22
 743 011f 04       		.byte	0x4
 744 0120 2D01     		.2byte	0x12d
 745 0122 D6010000 		.4byte	0x1d6
 746 0126 0C       		.byte	0xc
 747 0127 07       		.uleb128 0x7
 748 0128 99020000 		.4byte	.LASF23
 749 012c 04       		.byte	0x4
 750 012d 2F01     		.2byte	0x12f
 751 012f DE010000 		.4byte	0x1de
 752 0133 10       		.byte	0x10
 753 0134 07       		.uleb128 0x7
 754 0135 6B050000 		.4byte	.LASF24
 755 0139 04       		.byte	0x4
 756 013a 3101     		.2byte	0x131
 757 013c B2000000 		.4byte	0xb2
 758 0140 14       		.byte	0x14
 759 0141 07       		.uleb128 0x7
 760 0142 30000000 		.4byte	.LASF25
 761 0146 04       		.byte	0x4
 762 0147 3601     		.2byte	0x136
 763 0149 B2000000 		.4byte	0xb2
 764 014d 16       		.byte	0x16
 765 014e 07       		.uleb128 0x7
 766 014f 5D040000 		.4byte	.LASF26
 767 0153 04       		.byte	0x4
 768 0154 3701     		.2byte	0x137
 769 0156 A2000000 		.4byte	0xa2
 770 015a 18       		.byte	0x18
 771 015b 07       		.uleb128 0x7
 772 015c 77050000 		.4byte	.LASF27
 773 0160 04       		.byte	0x4
 774 0161 3801     		.2byte	0x138
 775 0163 A2000000 		.4byte	0xa2
 776 0167 19       		.byte	0x19
 777 0168 07       		.uleb128 0x7
 778 0169 42000000 		.4byte	.LASF28
 779 016d 04       		.byte	0x4
 780 016e 3901     		.2byte	0x139
 781 0170 A2000000 		.4byte	0xa2
 782 0174 1A       		.byte	0x1a
 783 0175 07       		.uleb128 0x7
 784 0176 E0030000 		.4byte	.LASF29
 785 017a 04       		.byte	0x4
 786 017b 3A01     		.2byte	0x13a
 787 017d A2000000 		.4byte	0xa2
 788 0181 1B       		.byte	0x1b
 789 0182 00       		.byte	0
 790 0183 02       		.uleb128 0x2
 791 0184 01       		.byte	0x1
 792 0185 02       		.byte	0x2
 793 0186 4F040000 		.4byte	.LASF30
 794 018a 02       		.uleb128 0x2
 795 018b 01       		.byte	0x1
 796 018c 08       		.byte	0x8
 797 018d 4A040000 		.4byte	.LASF31
 798 0191 08       		.uleb128 0x8
ARM GAS  /tmp/ccOpqeZy.s 			page 15


 799 0192 92030000 		.4byte	.LASF32
 800 0196 04       		.byte	0x4
 801 0197 04       		.byte	0x4
 802 0198 D7       		.byte	0xd7
 803 0199 B6010000 		.4byte	0x1b6
 804 019d 09       		.uleb128 0x9
 805 019e 9E050000 		.4byte	.LASF33
 806 01a2 04       		.byte	0x4
 807 01a3 D9       		.byte	0xd9
 808 01a4 B6010000 		.4byte	0x1b6
 809 01a8 00       		.byte	0
 810 01a9 09       		.uleb128 0x9
 811 01aa BB040000 		.4byte	.LASF34
 812 01ae 04       		.byte	0x4
 813 01af DA       		.byte	0xda
 814 01b0 BC010000 		.4byte	0x1bc
 815 01b4 04       		.byte	0x4
 816 01b5 00       		.byte	0
 817 01b6 0A       		.uleb128 0xa
 818 01b7 04       		.byte	0x4
 819 01b8 91010000 		.4byte	0x191
 820 01bc 0B       		.uleb128 0xb
 821 01bd A2000000 		.4byte	0xa2
 822 01c1 CB010000 		.4byte	0x1cb
 823 01c5 0C       		.uleb128 0xc
 824 01c6 9B000000 		.4byte	0x9b
 825 01ca 00       		.byte	0
 826 01cb 03       		.uleb128 0x3
 827 01cc 92030000 		.4byte	.LASF32
 828 01d0 04       		.byte	0x4
 829 01d1 DB       		.byte	0xdb
 830 01d2 91010000 		.4byte	0x191
 831 01d6 0A       		.uleb128 0xa
 832 01d7 04       		.byte	0x4
 833 01d8 CB010000 		.4byte	0x1cb
 834 01dc 0D       		.uleb128 0xd
 835 01dd 04       		.byte	0x4
 836 01de 0A       		.uleb128 0xa
 837 01df 04       		.byte	0x4
 838 01e0 AD000000 		.4byte	0xad
 839 01e4 0E       		.uleb128 0xe
 840 01e5 08       		.byte	0x8
 841 01e6 05       		.byte	0x5
 842 01e7 34       		.byte	0x34
 843 01e8 05020000 		.4byte	0x205
 844 01ec 0F       		.uleb128 0xf
 845 01ed 6C656E00 		.ascii	"len\000"
 846 01f1 05       		.byte	0x5
 847 01f2 36       		.byte	0x36
 848 01f3 A2000000 		.4byte	0xa2
 849 01f7 00       		.byte	0
 850 01f8 09       		.uleb128 0x9
 851 01f9 BB040000 		.4byte	.LASF34
 852 01fd 05       		.byte	0x5
 853 01fe 37       		.byte	0x37
 854 01ff 05020000 		.4byte	0x205
 855 0203 04       		.byte	0x4
ARM GAS  /tmp/ccOpqeZy.s 			page 16


 856 0204 00       		.byte	0
 857 0205 0A       		.uleb128 0xa
 858 0206 04       		.byte	0x4
 859 0207 A2000000 		.4byte	0xa2
 860 020b 0E       		.uleb128 0xe
 861 020c 08       		.byte	0x8
 862 020d 05       		.byte	0x5
 863 020e 31       		.byte	0x31
 864 020f 20020000 		.4byte	0x220
 865 0213 09       		.uleb128 0x9
 866 0214 60050000 		.4byte	.LASF35
 867 0218 05       		.byte	0x5
 868 0219 38       		.byte	0x38
 869 021a E4010000 		.4byte	0x1e4
 870 021e 00       		.byte	0
 871 021f 00       		.byte	0
 872 0220 03       		.uleb128 0x3
 873 0221 AF010000 		.4byte	.LASF36
 874 0225 05       		.byte	0x5
 875 0226 3A       		.byte	0x3a
 876 0227 0B020000 		.4byte	0x20b
 877 022b 0E       		.uleb128 0xe
 878 022c 0C       		.byte	0xc
 879 022d 06       		.byte	0x6
 880 022e 49       		.byte	0x49
 881 022f 4C020000 		.4byte	0x24c
 882 0233 09       		.uleb128 0x9
 883 0234 E0030000 		.4byte	.LASF29
 884 0238 06       		.byte	0x6
 885 0239 4C       		.byte	0x4c
 886 023a A2000000 		.4byte	0xa2
 887 023e 00       		.byte	0
 888 023f 09       		.uleb128 0x9
 889 0240 5E000000 		.4byte	.LASF37
 890 0244 06       		.byte	0x6
 891 0245 4D       		.byte	0x4d
 892 0246 20020000 		.4byte	0x220
 893 024a 04       		.byte	0x4
 894 024b 00       		.byte	0
 895 024c 03       		.uleb128 0x3
 896 024d 00000000 		.4byte	.LASF38
 897 0251 06       		.byte	0x6
 898 0252 4F       		.byte	0x4f
 899 0253 2B020000 		.4byte	0x22b
 900 0257 0E       		.uleb128 0xe
 901 0258 08       		.byte	0x8
 902 0259 06       		.byte	0x6
 903 025a 6B       		.byte	0x6b
 904 025b 78020000 		.4byte	0x278
 905 025f 0F       		.uleb128 0xf
 906 0260 6C656E00 		.ascii	"len\000"
 907 0264 06       		.byte	0x6
 908 0265 6D       		.byte	0x6d
 909 0266 A2000000 		.4byte	0xa2
 910 026a 00       		.byte	0
 911 026b 09       		.uleb128 0x9
 912 026c BB040000 		.4byte	.LASF34
ARM GAS  /tmp/ccOpqeZy.s 			page 17


 913 0270 06       		.byte	0x6
 914 0271 6E       		.byte	0x6e
 915 0272 05020000 		.4byte	0x205
 916 0276 04       		.byte	0x4
 917 0277 00       		.byte	0
 918 0278 0E       		.uleb128 0xe
 919 0279 0C       		.byte	0xc
 920 027a 06       		.byte	0x6
 921 027b 67       		.byte	0x67
 922 027c 99020000 		.4byte	0x299
 923 0280 09       		.uleb128 0x9
 924 0281 65050000 		.4byte	.LASF39
 925 0285 06       		.byte	0x6
 926 0286 6A       		.byte	0x6a
 927 0287 A2000000 		.4byte	0xa2
 928 028b 00       		.byte	0
 929 028c 09       		.uleb128 0x9
 930 028d 02040000 		.4byte	.LASF40
 931 0291 06       		.byte	0x6
 932 0292 6F       		.byte	0x6f
 933 0293 57020000 		.4byte	0x257
 934 0297 04       		.byte	0x4
 935 0298 00       		.byte	0
 936 0299 03       		.uleb128 0x3
 937 029a 19040000 		.4byte	.LASF41
 938 029e 06       		.byte	0x6
 939 029f 71       		.byte	0x71
 940 02a0 78020000 		.4byte	0x278
 941 02a4 10       		.uleb128 0x10
 942 02a5 78040000 		.4byte	.LASF46
 943 02a9 01       		.byte	0x1
 944 02aa 2001     		.2byte	0x120
 945 02ac BD000000 		.4byte	0xbd
 946 02b0 00000000 		.4byte	.LFB7
 947 02b4 1E000000 		.4byte	.LFE7-.LFB7
 948 02b8 01       		.uleb128 0x1
 949 02b9 9C       		.byte	0x9c
 950 02ba 49030000 		.4byte	0x349
 951 02be 11       		.uleb128 0x11
 952 02bf 24020000 		.4byte	.LASF42
 953 02c3 01       		.byte	0x1
 954 02c4 2001     		.2byte	0x120
 955 02c6 49030000 		.4byte	0x349
 956 02ca 00000000 		.4byte	.LLST34
 957 02ce 11       		.uleb128 0x11
 958 02cf 6B050000 		.4byte	.LASF24
 959 02d3 01       		.byte	0x1
 960 02d4 2101     		.2byte	0x121
 961 02d6 B2000000 		.4byte	0xb2
 962 02da 21000000 		.4byte	.LLST35
 963 02de 11       		.uleb128 0x11
 964 02df 3D000000 		.4byte	.LASF43
 965 02e3 01       		.byte	0x1
 966 02e4 2201     		.2byte	0x122
 967 02e6 4F030000 		.4byte	0x34f
 968 02ea 42000000 		.4byte	.LLST36
 969 02ee 11       		.uleb128 0x11
ARM GAS  /tmp/ccOpqeZy.s 			page 18


 970 02ef D7010000 		.4byte	.LASF44
 971 02f3 01       		.byte	0x1
 972 02f4 2301     		.2byte	0x123
 973 02f6 55030000 		.4byte	0x355
 974 02fa 62000000 		.4byte	.LLST37
 975 02fe 12       		.uleb128 0x12
 976 02ff 2D020000 		.4byte	.LASF45
 977 0303 01       		.byte	0x1
 978 0304 2501     		.2byte	0x125
 979 0306 C8000000 		.4byte	0xc8
 980 030a 00       		.byte	0
 981 030b 13       		.uleb128 0x13
 982 030c 72657400 		.ascii	"ret\000"
 983 0310 01       		.byte	0x1
 984 0311 2601     		.2byte	0x126
 985 0313 BD000000 		.4byte	0xbd
 986 0317 83000000 		.4byte	.LLST38
 987 031b 14       		.uleb128 0x14
 988 031c 0A000000 		.4byte	.LBB3
 989 0320 0A000000 		.4byte	.LBE3-.LBB3
 990 0324 37030000 		.4byte	0x337
 991 0328 13       		.uleb128 0x13
 992 0329 6300     		.ascii	"c\000"
 993 032b 01       		.byte	0x1
 994 032c 2901     		.2byte	0x129
 995 032e CD000000 		.4byte	0xcd
 996 0332 A2000000 		.4byte	.LLST39
 997 0336 00       		.byte	0
 998 0337 15       		.uleb128 0x15
 999 0338 1A000000 		.4byte	.LVL71
 1000 033c 5B030000 		.4byte	0x35b
 1001 0340 16       		.uleb128 0x16
 1002 0341 02       		.uleb128 0x2
 1003 0342 7D       		.byte	0x7d
 1004 0343 00       		.sleb128 0
 1005 0344 02       		.uleb128 0x2
 1006 0345 75       		.byte	0x75
 1007 0346 00       		.sleb128 0
 1008 0347 00       		.byte	0
 1009 0348 00       		.byte	0
 1010 0349 0A       		.uleb128 0xa
 1011 034a 04       		.byte	0x4
 1012 034b EE000000 		.4byte	0xee
 1013 034f 0A       		.uleb128 0xa
 1014 0350 04       		.byte	0x4
 1015 0351 99020000 		.4byte	0x299
 1016 0355 0A       		.uleb128 0xa
 1017 0356 04       		.byte	0x4
 1018 0357 05020000 		.4byte	0x205
 1019 035b 17       		.uleb128 0x17
 1020 035c EC020000 		.4byte	.LASF47
 1021 0360 01       		.byte	0x1
 1022 0361 CB       		.byte	0xcb
 1023 0362 BD000000 		.4byte	0xbd
 1024 0366 00000000 		.4byte	.LFB6
 1025 036a A8000000 		.4byte	.LFE6-.LFB6
 1026 036e 01       		.uleb128 0x1
ARM GAS  /tmp/ccOpqeZy.s 			page 19


 1027 036f 9C       		.byte	0x9c
 1028 0370 67040000 		.4byte	0x467
 1029 0374 18       		.uleb128 0x18
 1030 0375 24020000 		.4byte	.LASF42
 1031 0379 01       		.byte	0x1
 1032 037a CC       		.byte	0xcc
 1033 037b 49030000 		.4byte	0x349
 1034 037f B6000000 		.4byte	.LLST27
 1035 0383 18       		.uleb128 0x18
 1036 0384 6B050000 		.4byte	.LASF24
 1037 0388 01       		.byte	0x1
 1038 0389 CD       		.byte	0xcd
 1039 038a B2000000 		.4byte	0xb2
 1040 038e EA000000 		.4byte	.LLST28
 1041 0392 18       		.uleb128 0x18
 1042 0393 3D000000 		.4byte	.LASF43
 1043 0397 01       		.byte	0x1
 1044 0398 CE       		.byte	0xce
 1045 0399 4F030000 		.4byte	0x34f
 1046 039d 0B010000 		.4byte	.LLST29
 1047 03a1 18       		.uleb128 0x18
 1048 03a2 D7010000 		.4byte	.LASF44
 1049 03a6 01       		.byte	0x1
 1050 03a7 CF       		.byte	0xcf
 1051 03a8 55030000 		.4byte	0x355
 1052 03ac 29010000 		.4byte	.LLST30
 1053 03b0 18       		.uleb128 0x18
 1054 03b1 2D020000 		.4byte	.LASF45
 1055 03b5 01       		.byte	0x1
 1056 03b6 D0       		.byte	0xd0
 1057 03b7 BD000000 		.4byte	0xbd
 1058 03bb 47010000 		.4byte	.LLST31
 1059 03bf 19       		.uleb128 0x19
 1060 03c0 72657400 		.ascii	"ret\000"
 1061 03c4 01       		.byte	0x1
 1062 03c5 D2       		.byte	0xd2
 1063 03c6 BD000000 		.4byte	0xbd
 1064 03ca C8010000 		.4byte	.LLST32
 1065 03ce 19       		.uleb128 0x19
 1066 03cf 6300     		.ascii	"c\000"
 1067 03d1 01       		.byte	0x1
 1068 03d2 D3       		.byte	0xd3
 1069 03d3 CD000000 		.4byte	0xcd
 1070 03d7 08020000 		.4byte	.LLST33
 1071 03db 1A       		.uleb128 0x1a
 1072 03dc A4030000 		.4byte	.LASF55
 1073 03e0 01       		.byte	0x1
 1074 03e1 0B01     		.2byte	0x10b
 1075 03e3 20000000 		.4byte	.L28
 1076 03e7 1B       		.uleb128 0x1b
 1077 03e8 1A000000 		.4byte	.LVL50
 1078 03ec 12080000 		.4byte	0x812
 1079 03f0 13040000 		.4byte	0x413
 1080 03f4 16       		.uleb128 0x16
 1081 03f5 01       		.uleb128 0x1
 1082 03f6 50       		.byte	0x50
 1083 03f7 02       		.uleb128 0x2
ARM GAS  /tmp/ccOpqeZy.s 			page 20


 1084 03f8 79       		.byte	0x79
 1085 03f9 00       		.sleb128 0
 1086 03fa 16       		.uleb128 0x16
 1087 03fb 01       		.uleb128 0x1
 1088 03fc 51       		.byte	0x51
 1089 03fd 03       		.uleb128 0x3
 1090 03fe 91       		.byte	0x91
 1091 03ff 00       		.sleb128 0
 1092 0400 06       		.byte	0x6
 1093 0401 16       		.uleb128 0x16
 1094 0402 01       		.uleb128 0x1
 1095 0403 52       		.byte	0x52
 1096 0404 01       		.uleb128 0x1
 1097 0405 38       		.byte	0x38
 1098 0406 16       		.uleb128 0x16
 1099 0407 01       		.uleb128 0x1
 1100 0408 53       		.byte	0x53
 1101 0409 01       		.uleb128 0x1
 1102 040a 30       		.byte	0x30
 1103 040b 16       		.uleb128 0x16
 1104 040c 02       		.uleb128 0x2
 1105 040d 7D       		.byte	0x7d
 1106 040e 00       		.sleb128 0
 1107 040f 02       		.uleb128 0x2
 1108 0410 77       		.byte	0x77
 1109 0411 00       		.sleb128 0
 1110 0412 00       		.byte	0
 1111 0413 1B       		.uleb128 0x1b
 1112 0414 7C000000 		.4byte	.LVL62
 1113 0418 12080000 		.4byte	0x812
 1114 041c 3E040000 		.4byte	0x43e
 1115 0420 16       		.uleb128 0x16
 1116 0421 01       		.uleb128 0x1
 1117 0422 50       		.byte	0x50
 1118 0423 02       		.uleb128 0x2
 1119 0424 79       		.byte	0x79
 1120 0425 00       		.sleb128 0
 1121 0426 16       		.uleb128 0x16
 1122 0427 01       		.uleb128 0x1
 1123 0428 51       		.byte	0x51
 1124 0429 02       		.uleb128 0x2
 1125 042a 74       		.byte	0x74
 1126 042b 78       		.sleb128 -8
 1127 042c 16       		.uleb128 0x16
 1128 042d 01       		.uleb128 0x1
 1129 042e 52       		.byte	0x52
 1130 042f 01       		.uleb128 0x1
 1131 0430 38       		.byte	0x38
 1132 0431 16       		.uleb128 0x16
 1133 0432 01       		.uleb128 0x1
 1134 0433 53       		.byte	0x53
 1135 0434 01       		.uleb128 0x1
 1136 0435 30       		.byte	0x30
 1137 0436 16       		.uleb128 0x16
 1138 0437 02       		.uleb128 0x2
 1139 0438 7D       		.byte	0x7d
 1140 0439 00       		.sleb128 0
ARM GAS  /tmp/ccOpqeZy.s 			page 21


 1141 043a 02       		.uleb128 0x2
 1142 043b 76       		.byte	0x76
 1143 043c 00       		.sleb128 0
 1144 043d 00       		.byte	0
 1145 043e 15       		.uleb128 0x15
 1146 043f 94000000 		.4byte	.LVL66
 1147 0443 12080000 		.4byte	0x812
 1148 0447 16       		.uleb128 0x16
 1149 0448 01       		.uleb128 0x1
 1150 0449 50       		.byte	0x50
 1151 044a 02       		.uleb128 0x2
 1152 044b 79       		.byte	0x79
 1153 044c 00       		.sleb128 0
 1154 044d 16       		.uleb128 0x16
 1155 044e 01       		.uleb128 0x1
 1156 044f 51       		.byte	0x51
 1157 0450 02       		.uleb128 0x2
 1158 0451 74       		.byte	0x74
 1159 0452 00       		.sleb128 0
 1160 0453 16       		.uleb128 0x16
 1161 0454 01       		.uleb128 0x1
 1162 0455 52       		.byte	0x52
 1163 0456 01       		.uleb128 0x1
 1164 0457 37       		.byte	0x37
 1165 0458 16       		.uleb128 0x16
 1166 0459 01       		.uleb128 0x1
 1167 045a 53       		.byte	0x53
 1168 045b 02       		.uleb128 0x2
 1169 045c 76       		.byte	0x76
 1170 045d 00       		.sleb128 0
 1171 045e 16       		.uleb128 0x16
 1172 045f 02       		.uleb128 0x2
 1173 0460 7D       		.byte	0x7d
 1174 0461 00       		.sleb128 0
 1175 0462 02       		.uleb128 0x2
 1176 0463 77       		.byte	0x77
 1177 0464 04       		.sleb128 4
 1178 0465 00       		.byte	0
 1179 0466 00       		.byte	0
 1180 0467 17       		.uleb128 0x17
 1181 0468 E3010000 		.4byte	.LASF48
 1182 046c 01       		.byte	0x1
 1183 046d B7       		.byte	0xb7
 1184 046e CD000000 		.4byte	0xcd
 1185 0472 00000000 		.4byte	.LFB5
 1186 0476 10000000 		.4byte	.LFE5-.LFB5
 1187 047a 01       		.uleb128 0x1
 1188 047b 9C       		.byte	0x9c
 1189 047c D0040000 		.4byte	0x4d0
 1190 0480 18       		.uleb128 0x18
 1191 0481 92020000 		.4byte	.LASF49
 1192 0485 01       		.byte	0x1
 1193 0486 B7       		.byte	0xb7
 1194 0487 4F030000 		.4byte	0x34f
 1195 048b 59020000 		.4byte	.LLST24
 1196 048f 18       		.uleb128 0x18
 1197 0490 96050000 		.4byte	.LASF50
ARM GAS  /tmp/ccOpqeZy.s 			page 22


 1198 0494 01       		.byte	0x1
 1199 0495 B7       		.byte	0xb7
 1200 0496 DC010000 		.4byte	0x1dc
 1201 049a 7A020000 		.4byte	.LLST25
 1202 049e 1C       		.uleb128 0x1c
 1203 049f 2D020000 		.4byte	.LASF45
 1204 04a3 01       		.byte	0x1
 1205 04a4 B9       		.byte	0xb9
 1206 04a5 CD000000 		.4byte	0xcd
 1207 04a9 9B020000 		.4byte	.LLST26
 1208 04ad 15       		.uleb128 0x15
 1209 04ae 0A000000 		.4byte	.LVL43
 1210 04b2 D0040000 		.4byte	0x4d0
 1211 04b6 16       		.uleb128 0x16
 1212 04b7 01       		.uleb128 0x1
 1213 04b8 50       		.byte	0x50
 1214 04b9 03       		.uleb128 0x3
 1215 04ba F3       		.byte	0xf3
 1216 04bb 01       		.uleb128 0x1
 1217 04bc 50       		.byte	0x50
 1218 04bd 16       		.uleb128 0x16
 1219 04be 01       		.uleb128 0x1
 1220 04bf 51       		.byte	0x51
 1221 04c0 03       		.uleb128 0x3
 1222 04c1 F3       		.byte	0xf3
 1223 04c2 01       		.uleb128 0x1
 1224 04c3 51       		.byte	0x51
 1225 04c4 16       		.uleb128 0x16
 1226 04c5 01       		.uleb128 0x1
 1227 04c6 52       		.byte	0x52
 1228 04c7 01       		.uleb128 0x1
 1229 04c8 30       		.byte	0x30
 1230 04c9 16       		.uleb128 0x16
 1231 04ca 01       		.uleb128 0x1
 1232 04cb 53       		.byte	0x53
 1233 04cc 01       		.uleb128 0x1
 1234 04cd 31       		.byte	0x31
 1235 04ce 00       		.byte	0
 1236 04cf 00       		.byte	0
 1237 04d0 17       		.uleb128 0x17
 1238 04d1 47020000 		.4byte	.LASF51
 1239 04d5 01       		.byte	0x1
 1240 04d6 92       		.byte	0x92
 1241 04d7 CD000000 		.4byte	0xcd
 1242 04db 00000000 		.4byte	.LFB4
 1243 04df 5A000000 		.4byte	.LFE4-.LFB4
 1244 04e3 01       		.uleb128 0x1
 1245 04e4 9C       		.byte	0x9c
 1246 04e5 98050000 		.4byte	0x598
 1247 04e9 18       		.uleb128 0x18
 1248 04ea 92020000 		.4byte	.LASF49
 1249 04ee 01       		.byte	0x1
 1250 04ef 92       		.byte	0x92
 1251 04f0 4F030000 		.4byte	0x34f
 1252 04f4 C7020000 		.4byte	.LLST19
 1253 04f8 18       		.uleb128 0x18
 1254 04f9 96050000 		.4byte	.LASF50
ARM GAS  /tmp/ccOpqeZy.s 			page 23


 1255 04fd 01       		.byte	0x1
 1256 04fe 93       		.byte	0x93
 1257 04ff DC010000 		.4byte	0x1dc
 1258 0503 F0020000 		.4byte	.LLST20
 1259 0507 18       		.uleb128 0x18
 1260 0508 2D020000 		.4byte	.LASF45
 1261 050c 01       		.byte	0x1
 1262 050d 94       		.byte	0x94
 1263 050e CD000000 		.4byte	0xcd
 1264 0512 0E030000 		.4byte	.LLST21
 1265 0516 18       		.uleb128 0x18
 1266 0517 22050000 		.4byte	.LASF52
 1267 051b 01       		.byte	0x1
 1268 051c 95       		.byte	0x95
 1269 051d A2000000 		.4byte	0xa2
 1270 0521 42030000 		.4byte	.LLST22
 1271 0525 19       		.uleb128 0x19
 1272 0526 6300     		.ascii	"c\000"
 1273 0528 01       		.byte	0x1
 1274 0529 97       		.byte	0x97
 1275 052a CD000000 		.4byte	0xcd
 1276 052e 63030000 		.4byte	.LLST23
 1277 0532 1B       		.uleb128 0x1b
 1278 0533 18000000 		.4byte	.LVL32
 1279 0537 1E080000 		.4byte	0x81e
 1280 053b 57050000 		.4byte	0x557
 1281 053f 16       		.uleb128 0x16
 1282 0540 01       		.uleb128 0x1
 1283 0541 50       		.byte	0x50
 1284 0542 02       		.uleb128 0x2
 1285 0543 77       		.byte	0x77
 1286 0544 00       		.sleb128 0
 1287 0545 16       		.uleb128 0x16
 1288 0546 01       		.uleb128 0x1
 1289 0547 51       		.byte	0x51
 1290 0548 02       		.uleb128 0x2
 1291 0549 74       		.byte	0x74
 1292 054a 00       		.sleb128 0
 1293 054b 16       		.uleb128 0x16
 1294 054c 01       		.uleb128 0x1
 1295 054d 52       		.byte	0x52
 1296 054e 01       		.uleb128 0x1
 1297 054f 38       		.byte	0x38
 1298 0550 16       		.uleb128 0x16
 1299 0551 01       		.uleb128 0x1
 1300 0552 53       		.byte	0x53
 1301 0553 02       		.uleb128 0x2
 1302 0554 76       		.byte	0x76
 1303 0555 00       		.sleb128 0
 1304 0556 00       		.byte	0
 1305 0557 1B       		.uleb128 0x1b
 1306 0558 36000000 		.4byte	.LVL35
 1307 055c 1E080000 		.4byte	0x81e
 1308 0560 76050000 		.4byte	0x576
 1309 0564 16       		.uleb128 0x16
 1310 0565 01       		.uleb128 0x1
 1311 0566 50       		.byte	0x50
ARM GAS  /tmp/ccOpqeZy.s 			page 24


 1312 0567 02       		.uleb128 0x2
 1313 0568 77       		.byte	0x77
 1314 0569 00       		.sleb128 0
 1315 056a 16       		.uleb128 0x16
 1316 056b 01       		.uleb128 0x1
 1317 056c 51       		.byte	0x51
 1318 056d 02       		.uleb128 0x2
 1319 056e 75       		.byte	0x75
 1320 056f 00       		.sleb128 0
 1321 0570 16       		.uleb128 0x16
 1322 0571 01       		.uleb128 0x1
 1323 0572 52       		.byte	0x52
 1324 0573 01       		.uleb128 0x1
 1325 0574 38       		.byte	0x38
 1326 0575 00       		.byte	0
 1327 0576 15       		.uleb128 0x15
 1328 0577 54000000 		.4byte	.LVL40
 1329 057b 1E080000 		.4byte	0x81e
 1330 057f 16       		.uleb128 0x16
 1331 0580 01       		.uleb128 0x1
 1332 0581 50       		.byte	0x50
 1333 0582 02       		.uleb128 0x2
 1334 0583 77       		.byte	0x77
 1335 0584 00       		.sleb128 0
 1336 0585 16       		.uleb128 0x16
 1337 0586 01       		.uleb128 0x1
 1338 0587 51       		.byte	0x51
 1339 0588 02       		.uleb128 0x2
 1340 0589 75       		.byte	0x75
 1341 058a 00       		.sleb128 0
 1342 058b 16       		.uleb128 0x16
 1343 058c 01       		.uleb128 0x1
 1344 058d 52       		.byte	0x52
 1345 058e 01       		.uleb128 0x1
 1346 058f 37       		.byte	0x37
 1347 0590 16       		.uleb128 0x16
 1348 0591 01       		.uleb128 0x1
 1349 0592 53       		.byte	0x53
 1350 0593 02       		.uleb128 0x2
 1351 0594 76       		.byte	0x76
 1352 0595 04       		.sleb128 4
 1353 0596 00       		.byte	0
 1354 0597 00       		.byte	0
 1355 0598 17       		.uleb128 0x17
 1356 0599 78010000 		.4byte	.LASF53
 1357 059d 01       		.byte	0x1
 1358 059e 77       		.byte	0x77
 1359 059f BD000000 		.4byte	0xbd
 1360 05a3 00000000 		.4byte	.LFB3
 1361 05a7 1E000000 		.4byte	.LFE3-.LFB3
 1362 05ab 01       		.uleb128 0x1
 1363 05ac 9C       		.byte	0x9c
 1364 05ad 35060000 		.4byte	0x635
 1365 05b1 18       		.uleb128 0x18
 1366 05b2 24020000 		.4byte	.LASF42
 1367 05b6 01       		.byte	0x1
 1368 05b7 77       		.byte	0x77
ARM GAS  /tmp/ccOpqeZy.s 			page 25


 1369 05b8 49030000 		.4byte	0x349
 1370 05bc A6030000 		.4byte	.LLST13
 1371 05c0 18       		.uleb128 0x18
 1372 05c1 6B050000 		.4byte	.LASF24
 1373 05c5 01       		.byte	0x1
 1374 05c6 78       		.byte	0x78
 1375 05c7 B2000000 		.4byte	0xb2
 1376 05cb C7030000 		.4byte	.LLST14
 1377 05cf 18       		.uleb128 0x18
 1378 05d0 3D000000 		.4byte	.LASF43
 1379 05d4 01       		.byte	0x1
 1380 05d5 79       		.byte	0x79
 1381 05d6 35060000 		.4byte	0x635
 1382 05da E8030000 		.4byte	.LLST15
 1383 05de 18       		.uleb128 0x18
 1384 05df D7010000 		.4byte	.LASF44
 1385 05e3 01       		.byte	0x1
 1386 05e4 7A       		.byte	0x7a
 1387 05e5 55030000 		.4byte	0x355
 1388 05e9 08040000 		.4byte	.LLST16
 1389 05ed 1D       		.uleb128 0x1d
 1390 05ee 2D020000 		.4byte	.LASF45
 1391 05f2 01       		.byte	0x1
 1392 05f3 7C       		.byte	0x7c
 1393 05f4 C8000000 		.4byte	0xc8
 1394 05f8 00       		.byte	0
 1395 05f9 19       		.uleb128 0x19
 1396 05fa 72657400 		.ascii	"ret\000"
 1397 05fe 01       		.byte	0x1
 1398 05ff 7D       		.byte	0x7d
 1399 0600 BD000000 		.4byte	0xbd
 1400 0604 29040000 		.4byte	.LLST17
 1401 0608 14       		.uleb128 0x14
 1402 0609 0A000000 		.4byte	.LBB2
 1403 060d 0A000000 		.4byte	.LBE2-.LBB2
 1404 0611 23060000 		.4byte	0x623
 1405 0615 19       		.uleb128 0x19
 1406 0616 6300     		.ascii	"c\000"
 1407 0618 01       		.byte	0x1
 1408 0619 80       		.byte	0x80
 1409 061a CD000000 		.4byte	0xcd
 1410 061e 48040000 		.4byte	.LLST18
 1411 0622 00       		.byte	0
 1412 0623 15       		.uleb128 0x15
 1413 0624 1A000000 		.4byte	.LVL26
 1414 0628 3B060000 		.4byte	0x63b
 1415 062c 16       		.uleb128 0x16
 1416 062d 02       		.uleb128 0x2
 1417 062e 7D       		.byte	0x7d
 1418 062f 00       		.sleb128 0
 1419 0630 02       		.uleb128 0x2
 1420 0631 75       		.byte	0x75
 1421 0632 00       		.sleb128 0
 1422 0633 00       		.byte	0
 1423 0634 00       		.byte	0
 1424 0635 0A       		.uleb128 0xa
 1425 0636 04       		.byte	0x4
ARM GAS  /tmp/ccOpqeZy.s 			page 26


 1426 0637 4C020000 		.4byte	0x24c
 1427 063b 17       		.uleb128 0x17
 1428 063c D3000000 		.4byte	.LASF54
 1429 0640 01       		.byte	0x1
 1430 0641 49       		.byte	0x49
 1431 0642 BD000000 		.4byte	0xbd
 1432 0646 00000000 		.4byte	.LFB2
 1433 064a 44000000 		.4byte	.LFE2-.LFB2
 1434 064e 01       		.uleb128 0x1
 1435 064f 9C       		.byte	0x9c
 1436 0650 06070000 		.4byte	0x706
 1437 0654 18       		.uleb128 0x18
 1438 0655 24020000 		.4byte	.LASF42
 1439 0659 01       		.byte	0x1
 1440 065a 4A       		.byte	0x4a
 1441 065b 49030000 		.4byte	0x349
 1442 065f 5C040000 		.4byte	.LLST7
 1443 0663 18       		.uleb128 0x18
 1444 0664 6B050000 		.4byte	.LASF24
 1445 0668 01       		.byte	0x1
 1446 0669 4B       		.byte	0x4b
 1447 066a B2000000 		.4byte	0xb2
 1448 066e 93040000 		.4byte	.LLST8
 1449 0672 18       		.uleb128 0x18
 1450 0673 3D000000 		.4byte	.LASF43
 1451 0677 01       		.byte	0x1
 1452 0678 4C       		.byte	0x4c
 1453 0679 35060000 		.4byte	0x635
 1454 067d B4040000 		.4byte	.LLST9
 1455 0681 18       		.uleb128 0x18
 1456 0682 D7010000 		.4byte	.LASF44
 1457 0686 01       		.byte	0x1
 1458 0687 4D       		.byte	0x4d
 1459 0688 55030000 		.4byte	0x355
 1460 068c ED040000 		.4byte	.LLST10
 1461 0690 18       		.uleb128 0x18
 1462 0691 2D020000 		.4byte	.LASF45
 1463 0695 01       		.byte	0x1
 1464 0696 4E       		.byte	0x4e
 1465 0697 BD000000 		.4byte	0xbd
 1466 069b 24050000 		.4byte	.LLST11
 1467 069f 19       		.uleb128 0x19
 1468 06a0 72657400 		.ascii	"ret\000"
 1469 06a4 01       		.byte	0x1
 1470 06a5 50       		.byte	0x50
 1471 06a6 BD000000 		.4byte	0xbd
 1472 06aa 5B050000 		.4byte	.LLST12
 1473 06ae 1E       		.uleb128 0x1e
 1474 06af 13010000 		.4byte	.LASF56
 1475 06b3 01       		.byte	0x1
 1476 06b4 62       		.byte	0x62
 1477 06b5 20000000 		.4byte	.L7
 1478 06b9 1B       		.uleb128 0x1b
 1479 06ba 1C000000 		.4byte	.LVL17
 1480 06be 12080000 		.4byte	0x812
 1481 06c2 E4060000 		.4byte	0x6e4
 1482 06c6 16       		.uleb128 0x16
ARM GAS  /tmp/ccOpqeZy.s 			page 27


 1483 06c7 01       		.uleb128 0x1
 1484 06c8 50       		.byte	0x50
 1485 06c9 02       		.uleb128 0x2
 1486 06ca 76       		.byte	0x76
 1487 06cb 00       		.sleb128 0
 1488 06cc 16       		.uleb128 0x16
 1489 06cd 01       		.uleb128 0x1
 1490 06ce 51       		.byte	0x51
 1491 06cf 02       		.uleb128 0x2
 1492 06d0 74       		.byte	0x74
 1493 06d1 00       		.sleb128 0
 1494 06d2 16       		.uleb128 0x16
 1495 06d3 01       		.uleb128 0x1
 1496 06d4 52       		.byte	0x52
 1497 06d5 01       		.uleb128 0x1
 1498 06d6 38       		.byte	0x38
 1499 06d7 16       		.uleb128 0x16
 1500 06d8 01       		.uleb128 0x1
 1501 06d9 53       		.byte	0x53
 1502 06da 01       		.uleb128 0x1
 1503 06db 30       		.byte	0x30
 1504 06dc 16       		.uleb128 0x16
 1505 06dd 02       		.uleb128 0x2
 1506 06de 7D       		.byte	0x7d
 1507 06df 00       		.sleb128 0
 1508 06e0 02       		.uleb128 0x2
 1509 06e1 75       		.byte	0x75
 1510 06e2 00       		.sleb128 0
 1511 06e3 00       		.byte	0
 1512 06e4 1F       		.uleb128 0x1f
 1513 06e5 44000000 		.4byte	.LVL23
 1514 06e9 2A080000 		.4byte	0x82a
 1515 06ed 16       		.uleb128 0x16
 1516 06ee 01       		.uleb128 0x1
 1517 06ef 50       		.byte	0x50
 1518 06f0 03       		.uleb128 0x3
 1519 06f1 F3       		.byte	0xf3
 1520 06f2 01       		.uleb128 0x1
 1521 06f3 50       		.byte	0x50
 1522 06f4 16       		.uleb128 0x16
 1523 06f5 01       		.uleb128 0x1
 1524 06f6 52       		.byte	0x52
 1525 06f7 05       		.uleb128 0x5
 1526 06f8 F3       		.byte	0xf3
 1527 06f9 01       		.uleb128 0x1
 1528 06fa 52       		.byte	0x52
 1529 06fb 23       		.byte	0x23
 1530 06fc 04       		.uleb128 0x4
 1531 06fd 16       		.uleb128 0x16
 1532 06fe 01       		.uleb128 0x1
 1533 06ff 53       		.byte	0x53
 1534 0700 03       		.uleb128 0x3
 1535 0701 F3       		.byte	0xf3
 1536 0702 01       		.uleb128 0x1
 1537 0703 53       		.byte	0x53
 1538 0704 00       		.byte	0
 1539 0705 00       		.byte	0
ARM GAS  /tmp/ccOpqeZy.s 			page 28


 1540 0706 17       		.uleb128 0x17
 1541 0707 B5020000 		.4byte	.LASF57
 1542 070b 01       		.byte	0x1
 1543 070c 35       		.byte	0x35
 1544 070d CD000000 		.4byte	0xcd
 1545 0711 00000000 		.4byte	.LFB1
 1546 0715 10000000 		.4byte	.LFE1-.LFB1
 1547 0719 01       		.uleb128 0x1
 1548 071a 9C       		.byte	0x9c
 1549 071b 6F070000 		.4byte	0x76f
 1550 071f 18       		.uleb128 0x18
 1551 0720 92020000 		.4byte	.LASF49
 1552 0724 01       		.byte	0x1
 1553 0725 35       		.byte	0x35
 1554 0726 35060000 		.4byte	0x635
 1555 072a 85050000 		.4byte	.LLST4
 1556 072e 18       		.uleb128 0x18
 1557 072f 96050000 		.4byte	.LASF50
 1558 0733 01       		.byte	0x1
 1559 0734 35       		.byte	0x35
 1560 0735 DC010000 		.4byte	0x1dc
 1561 0739 A6050000 		.4byte	.LLST5
 1562 073d 1C       		.uleb128 0x1c
 1563 073e 2D020000 		.4byte	.LASF45
 1564 0742 01       		.byte	0x1
 1565 0743 37       		.byte	0x37
 1566 0744 CD000000 		.4byte	0xcd
 1567 0748 C7050000 		.4byte	.LLST6
 1568 074c 15       		.uleb128 0x15
 1569 074d 0A000000 		.4byte	.LVL10
 1570 0751 6F070000 		.4byte	0x76f
 1571 0755 16       		.uleb128 0x16
 1572 0756 01       		.uleb128 0x1
 1573 0757 50       		.byte	0x50
 1574 0758 03       		.uleb128 0x3
 1575 0759 F3       		.byte	0xf3
 1576 075a 01       		.uleb128 0x1
 1577 075b 50       		.byte	0x50
 1578 075c 16       		.uleb128 0x16
 1579 075d 01       		.uleb128 0x1
 1580 075e 51       		.byte	0x51
 1581 075f 03       		.uleb128 0x3
 1582 0760 F3       		.byte	0xf3
 1583 0761 01       		.uleb128 0x1
 1584 0762 51       		.byte	0x51
 1585 0763 16       		.uleb128 0x16
 1586 0764 01       		.uleb128 0x1
 1587 0765 52       		.byte	0x52
 1588 0766 01       		.uleb128 0x1
 1589 0767 30       		.byte	0x30
 1590 0768 16       		.uleb128 0x16
 1591 0769 01       		.uleb128 0x1
 1592 076a 53       		.byte	0x53
 1593 076b 01       		.uleb128 0x1
 1594 076c 31       		.byte	0x31
 1595 076d 00       		.byte	0
 1596 076e 00       		.byte	0
ARM GAS  /tmp/ccOpqeZy.s 			page 29


 1597 076f 17       		.uleb128 0x17
 1598 0770 8B000000 		.4byte	.LASF58
 1599 0774 01       		.byte	0x1
 1600 0775 21       		.byte	0x21
 1601 0776 CD000000 		.4byte	0xcd
 1602 077a 00000000 		.4byte	.LFB0
 1603 077e 26000000 		.4byte	.LFE0-.LFB0
 1604 0782 01       		.uleb128 0x1
 1605 0783 9C       		.byte	0x9c
 1606 0784 12080000 		.4byte	0x812
 1607 0788 18       		.uleb128 0x18
 1608 0789 92020000 		.4byte	.LASF49
 1609 078d 01       		.byte	0x1
 1610 078e 21       		.byte	0x21
 1611 078f 35060000 		.4byte	0x635
 1612 0793 F3050000 		.4byte	.LLST0
 1613 0797 18       		.uleb128 0x18
 1614 0798 96050000 		.4byte	.LASF50
 1615 079c 01       		.byte	0x1
 1616 079d 22       		.byte	0x22
 1617 079e DC010000 		.4byte	0x1dc
 1618 07a2 37060000 		.4byte	.LLST1
 1619 07a6 18       		.uleb128 0x18
 1620 07a7 2D020000 		.4byte	.LASF45
 1621 07ab 01       		.byte	0x1
 1622 07ac 23       		.byte	0x23
 1623 07ad CD000000 		.4byte	0xcd
 1624 07b1 6E060000 		.4byte	.LLST2
 1625 07b5 18       		.uleb128 0x18
 1626 07b6 22050000 		.4byte	.LASF52
 1627 07ba 01       		.byte	0x1
 1628 07bb 24       		.byte	0x24
 1629 07bc A2000000 		.4byte	0xa2
 1630 07c0 BF060000 		.4byte	.LLST3
 1631 07c4 1B       		.uleb128 0x1b
 1632 07c5 14000000 		.4byte	.LVL5
 1633 07c9 1E080000 		.4byte	0x81e
 1634 07cd E9070000 		.4byte	0x7e9
 1635 07d1 16       		.uleb128 0x16
 1636 07d2 01       		.uleb128 0x1
 1637 07d3 50       		.byte	0x50
 1638 07d4 02       		.uleb128 0x2
 1639 07d5 75       		.byte	0x75
 1640 07d6 00       		.sleb128 0
 1641 07d7 16       		.uleb128 0x16
 1642 07d8 01       		.uleb128 0x1
 1643 07d9 51       		.byte	0x51
 1644 07da 02       		.uleb128 0x2
 1645 07db 76       		.byte	0x76
 1646 07dc 00       		.sleb128 0
 1647 07dd 16       		.uleb128 0x16
 1648 07de 01       		.uleb128 0x1
 1649 07df 52       		.byte	0x52
 1650 07e0 01       		.uleb128 0x1
 1651 07e1 38       		.byte	0x38
 1652 07e2 16       		.uleb128 0x16
 1653 07e3 01       		.uleb128 0x1
ARM GAS  /tmp/ccOpqeZy.s 			page 30


 1654 07e4 53       		.byte	0x53
 1655 07e5 02       		.uleb128 0x2
 1656 07e6 74       		.byte	0x74
 1657 07e7 00       		.sleb128 0
 1658 07e8 00       		.byte	0
 1659 07e9 1F       		.uleb128 0x1f
 1660 07ea 26000000 		.4byte	.LVL8
 1661 07ee 35080000 		.4byte	0x835
 1662 07f2 16       		.uleb128 0x16
 1663 07f3 01       		.uleb128 0x1
 1664 07f4 50       		.byte	0x50
 1665 07f5 05       		.uleb128 0x5
 1666 07f6 F3       		.byte	0xf3
 1667 07f7 01       		.uleb128 0x1
 1668 07f8 50       		.byte	0x50
 1669 07f9 23       		.byte	0x23
 1670 07fa 04       		.uleb128 0x4
 1671 07fb 16       		.uleb128 0x16
 1672 07fc 01       		.uleb128 0x1
 1673 07fd 51       		.byte	0x51
 1674 07fe 03       		.uleb128 0x3
 1675 07ff F3       		.byte	0xf3
 1676 0800 01       		.uleb128 0x1
 1677 0801 51       		.byte	0x51
 1678 0802 16       		.uleb128 0x16
 1679 0803 01       		.uleb128 0x1
 1680 0804 52       		.byte	0x52
 1681 0805 05       		.uleb128 0x5
 1682 0806 F3       		.byte	0xf3
 1683 0807 01       		.uleb128 0x1
 1684 0808 52       		.byte	0x52
 1685 0809 23       		.byte	0x23
 1686 080a 08       		.uleb128 0x8
 1687 080b 16       		.uleb128 0x16
 1688 080c 01       		.uleb128 0x1
 1689 080d 53       		.byte	0x53
 1690 080e 01       		.uleb128 0x1
 1691 080f 30       		.byte	0x30
 1692 0810 00       		.byte	0
 1693 0811 00       		.byte	0
 1694 0812 20       		.uleb128 0x20
 1695 0813 83050000 		.4byte	.LASF59
 1696 0817 83050000 		.4byte	.LASF59
 1697 081b 04       		.byte	0x4
 1698 081c CD01     		.2byte	0x1cd
 1699 081e 20       		.uleb128 0x20
 1700 081f 34020000 		.4byte	.LASF60
 1701 0823 34020000 		.4byte	.LASF60
 1702 0827 04       		.byte	0x4
 1703 0828 E701     		.2byte	0x1e7
 1704 082a 21       		.uleb128 0x21
 1705 082b 2C050000 		.4byte	.LASF61
 1706 082f 2C050000 		.4byte	.LASF61
 1707 0833 05       		.byte	0x5
 1708 0834 46       		.byte	0x46
 1709 0835 21       		.uleb128 0x21
 1710 0836 4E010000 		.4byte	.LASF62
ARM GAS  /tmp/ccOpqeZy.s 			page 31


 1711 083a 4E010000 		.4byte	.LASF62
 1712 083e 05       		.byte	0x5
 1713 083f 43       		.byte	0x43
 1714 0840 00       		.byte	0
 1715              		.section	.debug_abbrev,"",%progbits
 1716              	.Ldebug_abbrev0:
 1717 0000 01       		.uleb128 0x1
 1718 0001 11       		.uleb128 0x11
 1719 0002 01       		.byte	0x1
 1720 0003 25       		.uleb128 0x25
 1721 0004 0E       		.uleb128 0xe
 1722 0005 13       		.uleb128 0x13
 1723 0006 0B       		.uleb128 0xb
 1724 0007 03       		.uleb128 0x3
 1725 0008 0E       		.uleb128 0xe
 1726 0009 1B       		.uleb128 0x1b
 1727 000a 0E       		.uleb128 0xe
 1728 000b 55       		.uleb128 0x55
 1729 000c 17       		.uleb128 0x17
 1730 000d 11       		.uleb128 0x11
 1731 000e 01       		.uleb128 0x1
 1732 000f 10       		.uleb128 0x10
 1733 0010 17       		.uleb128 0x17
 1734 0011 00       		.byte	0
 1735 0012 00       		.byte	0
 1736 0013 02       		.uleb128 0x2
 1737 0014 24       		.uleb128 0x24
 1738 0015 00       		.byte	0
 1739 0016 0B       		.uleb128 0xb
 1740 0017 0B       		.uleb128 0xb
 1741 0018 3E       		.uleb128 0x3e
 1742 0019 0B       		.uleb128 0xb
 1743 001a 03       		.uleb128 0x3
 1744 001b 0E       		.uleb128 0xe
 1745 001c 00       		.byte	0
 1746 001d 00       		.byte	0
 1747 001e 03       		.uleb128 0x3
 1748 001f 16       		.uleb128 0x16
 1749 0020 00       		.byte	0
 1750 0021 03       		.uleb128 0x3
 1751 0022 0E       		.uleb128 0xe
 1752 0023 3A       		.uleb128 0x3a
 1753 0024 0B       		.uleb128 0xb
 1754 0025 3B       		.uleb128 0x3b
 1755 0026 0B       		.uleb128 0xb
 1756 0027 49       		.uleb128 0x49
 1757 0028 13       		.uleb128 0x13
 1758 0029 00       		.byte	0
 1759 002a 00       		.byte	0
 1760 002b 04       		.uleb128 0x4
 1761 002c 24       		.uleb128 0x24
 1762 002d 00       		.byte	0
 1763 002e 0B       		.uleb128 0xb
 1764 002f 0B       		.uleb128 0xb
 1765 0030 3E       		.uleb128 0x3e
 1766 0031 0B       		.uleb128 0xb
 1767 0032 03       		.uleb128 0x3
ARM GAS  /tmp/ccOpqeZy.s 			page 32


 1768 0033 08       		.uleb128 0x8
 1769 0034 00       		.byte	0
 1770 0035 00       		.byte	0
 1771 0036 05       		.uleb128 0x5
 1772 0037 26       		.uleb128 0x26
 1773 0038 00       		.byte	0
 1774 0039 49       		.uleb128 0x49
 1775 003a 13       		.uleb128 0x13
 1776 003b 00       		.byte	0
 1777 003c 00       		.byte	0
 1778 003d 06       		.uleb128 0x6
 1779 003e 13       		.uleb128 0x13
 1780 003f 01       		.byte	0x1
 1781 0040 03       		.uleb128 0x3
 1782 0041 0E       		.uleb128 0xe
 1783 0042 0B       		.uleb128 0xb
 1784 0043 0B       		.uleb128 0xb
 1785 0044 3A       		.uleb128 0x3a
 1786 0045 0B       		.uleb128 0xb
 1787 0046 3B       		.uleb128 0x3b
 1788 0047 05       		.uleb128 0x5
 1789 0048 01       		.uleb128 0x1
 1790 0049 13       		.uleb128 0x13
 1791 004a 00       		.byte	0
 1792 004b 00       		.byte	0
 1793 004c 07       		.uleb128 0x7
 1794 004d 0D       		.uleb128 0xd
 1795 004e 00       		.byte	0
 1796 004f 03       		.uleb128 0x3
 1797 0050 0E       		.uleb128 0xe
 1798 0051 3A       		.uleb128 0x3a
 1799 0052 0B       		.uleb128 0xb
 1800 0053 3B       		.uleb128 0x3b
 1801 0054 05       		.uleb128 0x5
 1802 0055 49       		.uleb128 0x49
 1803 0056 13       		.uleb128 0x13
 1804 0057 38       		.uleb128 0x38
 1805 0058 0B       		.uleb128 0xb
 1806 0059 00       		.byte	0
 1807 005a 00       		.byte	0
 1808 005b 08       		.uleb128 0x8
 1809 005c 13       		.uleb128 0x13
 1810 005d 01       		.byte	0x1
 1811 005e 03       		.uleb128 0x3
 1812 005f 0E       		.uleb128 0xe
 1813 0060 0B       		.uleb128 0xb
 1814 0061 0B       		.uleb128 0xb
 1815 0062 3A       		.uleb128 0x3a
 1816 0063 0B       		.uleb128 0xb
 1817 0064 3B       		.uleb128 0x3b
 1818 0065 0B       		.uleb128 0xb
 1819 0066 01       		.uleb128 0x1
 1820 0067 13       		.uleb128 0x13
 1821 0068 00       		.byte	0
 1822 0069 00       		.byte	0
 1823 006a 09       		.uleb128 0x9
 1824 006b 0D       		.uleb128 0xd
ARM GAS  /tmp/ccOpqeZy.s 			page 33


 1825 006c 00       		.byte	0
 1826 006d 03       		.uleb128 0x3
 1827 006e 0E       		.uleb128 0xe
 1828 006f 3A       		.uleb128 0x3a
 1829 0070 0B       		.uleb128 0xb
 1830 0071 3B       		.uleb128 0x3b
 1831 0072 0B       		.uleb128 0xb
 1832 0073 49       		.uleb128 0x49
 1833 0074 13       		.uleb128 0x13
 1834 0075 38       		.uleb128 0x38
 1835 0076 0B       		.uleb128 0xb
 1836 0077 00       		.byte	0
 1837 0078 00       		.byte	0
 1838 0079 0A       		.uleb128 0xa
 1839 007a 0F       		.uleb128 0xf
 1840 007b 00       		.byte	0
 1841 007c 0B       		.uleb128 0xb
 1842 007d 0B       		.uleb128 0xb
 1843 007e 49       		.uleb128 0x49
 1844 007f 13       		.uleb128 0x13
 1845 0080 00       		.byte	0
 1846 0081 00       		.byte	0
 1847 0082 0B       		.uleb128 0xb
 1848 0083 01       		.uleb128 0x1
 1849 0084 01       		.byte	0x1
 1850 0085 49       		.uleb128 0x49
 1851 0086 13       		.uleb128 0x13
 1852 0087 01       		.uleb128 0x1
 1853 0088 13       		.uleb128 0x13
 1854 0089 00       		.byte	0
 1855 008a 00       		.byte	0
 1856 008b 0C       		.uleb128 0xc
 1857 008c 21       		.uleb128 0x21
 1858 008d 00       		.byte	0
 1859 008e 49       		.uleb128 0x49
 1860 008f 13       		.uleb128 0x13
 1861 0090 00       		.byte	0
 1862 0091 00       		.byte	0
 1863 0092 0D       		.uleb128 0xd
 1864 0093 0F       		.uleb128 0xf
 1865 0094 00       		.byte	0
 1866 0095 0B       		.uleb128 0xb
 1867 0096 0B       		.uleb128 0xb
 1868 0097 00       		.byte	0
 1869 0098 00       		.byte	0
 1870 0099 0E       		.uleb128 0xe
 1871 009a 13       		.uleb128 0x13
 1872 009b 01       		.byte	0x1
 1873 009c 0B       		.uleb128 0xb
 1874 009d 0B       		.uleb128 0xb
 1875 009e 3A       		.uleb128 0x3a
 1876 009f 0B       		.uleb128 0xb
 1877 00a0 3B       		.uleb128 0x3b
 1878 00a1 0B       		.uleb128 0xb
 1879 00a2 01       		.uleb128 0x1
 1880 00a3 13       		.uleb128 0x13
 1881 00a4 00       		.byte	0
ARM GAS  /tmp/ccOpqeZy.s 			page 34


 1882 00a5 00       		.byte	0
 1883 00a6 0F       		.uleb128 0xf
 1884 00a7 0D       		.uleb128 0xd
 1885 00a8 00       		.byte	0
 1886 00a9 03       		.uleb128 0x3
 1887 00aa 08       		.uleb128 0x8
 1888 00ab 3A       		.uleb128 0x3a
 1889 00ac 0B       		.uleb128 0xb
 1890 00ad 3B       		.uleb128 0x3b
 1891 00ae 0B       		.uleb128 0xb
 1892 00af 49       		.uleb128 0x49
 1893 00b0 13       		.uleb128 0x13
 1894 00b1 38       		.uleb128 0x38
 1895 00b2 0B       		.uleb128 0xb
 1896 00b3 00       		.byte	0
 1897 00b4 00       		.byte	0
 1898 00b5 10       		.uleb128 0x10
 1899 00b6 2E       		.uleb128 0x2e
 1900 00b7 01       		.byte	0x1
 1901 00b8 3F       		.uleb128 0x3f
 1902 00b9 19       		.uleb128 0x19
 1903 00ba 03       		.uleb128 0x3
 1904 00bb 0E       		.uleb128 0xe
 1905 00bc 3A       		.uleb128 0x3a
 1906 00bd 0B       		.uleb128 0xb
 1907 00be 3B       		.uleb128 0x3b
 1908 00bf 05       		.uleb128 0x5
 1909 00c0 27       		.uleb128 0x27
 1910 00c1 19       		.uleb128 0x19
 1911 00c2 49       		.uleb128 0x49
 1912 00c3 13       		.uleb128 0x13
 1913 00c4 11       		.uleb128 0x11
 1914 00c5 01       		.uleb128 0x1
 1915 00c6 12       		.uleb128 0x12
 1916 00c7 06       		.uleb128 0x6
 1917 00c8 40       		.uleb128 0x40
 1918 00c9 18       		.uleb128 0x18
 1919 00ca 9742     		.uleb128 0x2117
 1920 00cc 19       		.uleb128 0x19
 1921 00cd 01       		.uleb128 0x1
 1922 00ce 13       		.uleb128 0x13
 1923 00cf 00       		.byte	0
 1924 00d0 00       		.byte	0
 1925 00d1 11       		.uleb128 0x11
 1926 00d2 05       		.uleb128 0x5
 1927 00d3 00       		.byte	0
 1928 00d4 03       		.uleb128 0x3
 1929 00d5 0E       		.uleb128 0xe
 1930 00d6 3A       		.uleb128 0x3a
 1931 00d7 0B       		.uleb128 0xb
 1932 00d8 3B       		.uleb128 0x3b
 1933 00d9 05       		.uleb128 0x5
 1934 00da 49       		.uleb128 0x49
 1935 00db 13       		.uleb128 0x13
 1936 00dc 02       		.uleb128 0x2
 1937 00dd 17       		.uleb128 0x17
 1938 00de 00       		.byte	0
ARM GAS  /tmp/ccOpqeZy.s 			page 35


 1939 00df 00       		.byte	0
 1940 00e0 12       		.uleb128 0x12
 1941 00e1 34       		.uleb128 0x34
 1942 00e2 00       		.byte	0
 1943 00e3 03       		.uleb128 0x3
 1944 00e4 0E       		.uleb128 0xe
 1945 00e5 3A       		.uleb128 0x3a
 1946 00e6 0B       		.uleb128 0xb
 1947 00e7 3B       		.uleb128 0x3b
 1948 00e8 05       		.uleb128 0x5
 1949 00e9 49       		.uleb128 0x49
 1950 00ea 13       		.uleb128 0x13
 1951 00eb 1C       		.uleb128 0x1c
 1952 00ec 0B       		.uleb128 0xb
 1953 00ed 00       		.byte	0
 1954 00ee 00       		.byte	0
 1955 00ef 13       		.uleb128 0x13
 1956 00f0 34       		.uleb128 0x34
 1957 00f1 00       		.byte	0
 1958 00f2 03       		.uleb128 0x3
 1959 00f3 08       		.uleb128 0x8
 1960 00f4 3A       		.uleb128 0x3a
 1961 00f5 0B       		.uleb128 0xb
 1962 00f6 3B       		.uleb128 0x3b
 1963 00f7 05       		.uleb128 0x5
 1964 00f8 49       		.uleb128 0x49
 1965 00f9 13       		.uleb128 0x13
 1966 00fa 02       		.uleb128 0x2
 1967 00fb 17       		.uleb128 0x17
 1968 00fc 00       		.byte	0
 1969 00fd 00       		.byte	0
 1970 00fe 14       		.uleb128 0x14
 1971 00ff 0B       		.uleb128 0xb
 1972 0100 01       		.byte	0x1
 1973 0101 11       		.uleb128 0x11
 1974 0102 01       		.uleb128 0x1
 1975 0103 12       		.uleb128 0x12
 1976 0104 06       		.uleb128 0x6
 1977 0105 01       		.uleb128 0x1
 1978 0106 13       		.uleb128 0x13
 1979 0107 00       		.byte	0
 1980 0108 00       		.byte	0
 1981 0109 15       		.uleb128 0x15
 1982 010a 898201   		.uleb128 0x4109
 1983 010d 01       		.byte	0x1
 1984 010e 11       		.uleb128 0x11
 1985 010f 01       		.uleb128 0x1
 1986 0110 31       		.uleb128 0x31
 1987 0111 13       		.uleb128 0x13
 1988 0112 00       		.byte	0
 1989 0113 00       		.byte	0
 1990 0114 16       		.uleb128 0x16
 1991 0115 8A8201   		.uleb128 0x410a
 1992 0118 00       		.byte	0
 1993 0119 02       		.uleb128 0x2
 1994 011a 18       		.uleb128 0x18
 1995 011b 9142     		.uleb128 0x2111
ARM GAS  /tmp/ccOpqeZy.s 			page 36


 1996 011d 18       		.uleb128 0x18
 1997 011e 00       		.byte	0
 1998 011f 00       		.byte	0
 1999 0120 17       		.uleb128 0x17
 2000 0121 2E       		.uleb128 0x2e
 2001 0122 01       		.byte	0x1
 2002 0123 3F       		.uleb128 0x3f
 2003 0124 19       		.uleb128 0x19
 2004 0125 03       		.uleb128 0x3
 2005 0126 0E       		.uleb128 0xe
 2006 0127 3A       		.uleb128 0x3a
 2007 0128 0B       		.uleb128 0xb
 2008 0129 3B       		.uleb128 0x3b
 2009 012a 0B       		.uleb128 0xb
 2010 012b 27       		.uleb128 0x27
 2011 012c 19       		.uleb128 0x19
 2012 012d 49       		.uleb128 0x49
 2013 012e 13       		.uleb128 0x13
 2014 012f 11       		.uleb128 0x11
 2015 0130 01       		.uleb128 0x1
 2016 0131 12       		.uleb128 0x12
 2017 0132 06       		.uleb128 0x6
 2018 0133 40       		.uleb128 0x40
 2019 0134 18       		.uleb128 0x18
 2020 0135 9742     		.uleb128 0x2117
 2021 0137 19       		.uleb128 0x19
 2022 0138 01       		.uleb128 0x1
 2023 0139 13       		.uleb128 0x13
 2024 013a 00       		.byte	0
 2025 013b 00       		.byte	0
 2026 013c 18       		.uleb128 0x18
 2027 013d 05       		.uleb128 0x5
 2028 013e 00       		.byte	0
 2029 013f 03       		.uleb128 0x3
 2030 0140 0E       		.uleb128 0xe
 2031 0141 3A       		.uleb128 0x3a
 2032 0142 0B       		.uleb128 0xb
 2033 0143 3B       		.uleb128 0x3b
 2034 0144 0B       		.uleb128 0xb
 2035 0145 49       		.uleb128 0x49
 2036 0146 13       		.uleb128 0x13
 2037 0147 02       		.uleb128 0x2
 2038 0148 17       		.uleb128 0x17
 2039 0149 00       		.byte	0
 2040 014a 00       		.byte	0
 2041 014b 19       		.uleb128 0x19
 2042 014c 34       		.uleb128 0x34
 2043 014d 00       		.byte	0
 2044 014e 03       		.uleb128 0x3
 2045 014f 08       		.uleb128 0x8
 2046 0150 3A       		.uleb128 0x3a
 2047 0151 0B       		.uleb128 0xb
 2048 0152 3B       		.uleb128 0x3b
 2049 0153 0B       		.uleb128 0xb
 2050 0154 49       		.uleb128 0x49
 2051 0155 13       		.uleb128 0x13
 2052 0156 02       		.uleb128 0x2
ARM GAS  /tmp/ccOpqeZy.s 			page 37


 2053 0157 17       		.uleb128 0x17
 2054 0158 00       		.byte	0
 2055 0159 00       		.byte	0
 2056 015a 1A       		.uleb128 0x1a
 2057 015b 0A       		.uleb128 0xa
 2058 015c 00       		.byte	0
 2059 015d 03       		.uleb128 0x3
 2060 015e 0E       		.uleb128 0xe
 2061 015f 3A       		.uleb128 0x3a
 2062 0160 0B       		.uleb128 0xb
 2063 0161 3B       		.uleb128 0x3b
 2064 0162 05       		.uleb128 0x5
 2065 0163 11       		.uleb128 0x11
 2066 0164 01       		.uleb128 0x1
 2067 0165 00       		.byte	0
 2068 0166 00       		.byte	0
 2069 0167 1B       		.uleb128 0x1b
 2070 0168 898201   		.uleb128 0x4109
 2071 016b 01       		.byte	0x1
 2072 016c 11       		.uleb128 0x11
 2073 016d 01       		.uleb128 0x1
 2074 016e 31       		.uleb128 0x31
 2075 016f 13       		.uleb128 0x13
 2076 0170 01       		.uleb128 0x1
 2077 0171 13       		.uleb128 0x13
 2078 0172 00       		.byte	0
 2079 0173 00       		.byte	0
 2080 0174 1C       		.uleb128 0x1c
 2081 0175 34       		.uleb128 0x34
 2082 0176 00       		.byte	0
 2083 0177 03       		.uleb128 0x3
 2084 0178 0E       		.uleb128 0xe
 2085 0179 3A       		.uleb128 0x3a
 2086 017a 0B       		.uleb128 0xb
 2087 017b 3B       		.uleb128 0x3b
 2088 017c 0B       		.uleb128 0xb
 2089 017d 49       		.uleb128 0x49
 2090 017e 13       		.uleb128 0x13
 2091 017f 02       		.uleb128 0x2
 2092 0180 17       		.uleb128 0x17
 2093 0181 00       		.byte	0
 2094 0182 00       		.byte	0
 2095 0183 1D       		.uleb128 0x1d
 2096 0184 34       		.uleb128 0x34
 2097 0185 00       		.byte	0
 2098 0186 03       		.uleb128 0x3
 2099 0187 0E       		.uleb128 0xe
 2100 0188 3A       		.uleb128 0x3a
 2101 0189 0B       		.uleb128 0xb
 2102 018a 3B       		.uleb128 0x3b
 2103 018b 0B       		.uleb128 0xb
 2104 018c 49       		.uleb128 0x49
 2105 018d 13       		.uleb128 0x13
 2106 018e 1C       		.uleb128 0x1c
 2107 018f 0B       		.uleb128 0xb
 2108 0190 00       		.byte	0
 2109 0191 00       		.byte	0
ARM GAS  /tmp/ccOpqeZy.s 			page 38


 2110 0192 1E       		.uleb128 0x1e
 2111 0193 0A       		.uleb128 0xa
 2112 0194 00       		.byte	0
 2113 0195 03       		.uleb128 0x3
 2114 0196 0E       		.uleb128 0xe
 2115 0197 3A       		.uleb128 0x3a
 2116 0198 0B       		.uleb128 0xb
 2117 0199 3B       		.uleb128 0x3b
 2118 019a 0B       		.uleb128 0xb
 2119 019b 11       		.uleb128 0x11
 2120 019c 01       		.uleb128 0x1
 2121 019d 00       		.byte	0
 2122 019e 00       		.byte	0
 2123 019f 1F       		.uleb128 0x1f
 2124 01a0 898201   		.uleb128 0x4109
 2125 01a3 01       		.byte	0x1
 2126 01a4 11       		.uleb128 0x11
 2127 01a5 01       		.uleb128 0x1
 2128 01a6 9542     		.uleb128 0x2115
 2129 01a8 19       		.uleb128 0x19
 2130 01a9 31       		.uleb128 0x31
 2131 01aa 13       		.uleb128 0x13
 2132 01ab 00       		.byte	0
 2133 01ac 00       		.byte	0
 2134 01ad 20       		.uleb128 0x20
 2135 01ae 2E       		.uleb128 0x2e
 2136 01af 00       		.byte	0
 2137 01b0 3F       		.uleb128 0x3f
 2138 01b1 19       		.uleb128 0x19
 2139 01b2 3C       		.uleb128 0x3c
 2140 01b3 19       		.uleb128 0x19
 2141 01b4 6E       		.uleb128 0x6e
 2142 01b5 0E       		.uleb128 0xe
 2143 01b6 03       		.uleb128 0x3
 2144 01b7 0E       		.uleb128 0xe
 2145 01b8 3A       		.uleb128 0x3a
 2146 01b9 0B       		.uleb128 0xb
 2147 01ba 3B       		.uleb128 0x3b
 2148 01bb 05       		.uleb128 0x5
 2149 01bc 00       		.byte	0
 2150 01bd 00       		.byte	0
 2151 01be 21       		.uleb128 0x21
 2152 01bf 2E       		.uleb128 0x2e
 2153 01c0 00       		.byte	0
 2154 01c1 3F       		.uleb128 0x3f
 2155 01c2 19       		.uleb128 0x19
 2156 01c3 3C       		.uleb128 0x3c
 2157 01c4 19       		.uleb128 0x19
 2158 01c5 6E       		.uleb128 0x6e
 2159 01c6 0E       		.uleb128 0xe
 2160 01c7 03       		.uleb128 0x3
 2161 01c8 0E       		.uleb128 0xe
 2162 01c9 3A       		.uleb128 0x3a
 2163 01ca 0B       		.uleb128 0xb
 2164 01cb 3B       		.uleb128 0x3b
 2165 01cc 0B       		.uleb128 0xb
 2166 01cd 00       		.byte	0
ARM GAS  /tmp/ccOpqeZy.s 			page 39


 2167 01ce 00       		.byte	0
 2168 01cf 00       		.byte	0
 2169              		.section	.debug_loc,"",%progbits
 2170              	.Ldebug_loc0:
 2171              	.LLST34:
 2172 0000 00000000 		.4byte	.LVL69
 2173 0004 19000000 		.4byte	.LVL71-1
 2174 0008 0100     		.2byte	0x1
 2175 000a 50       		.byte	0x50
 2176 000b 19000000 		.4byte	.LVL71-1
 2177 000f 1E000000 		.4byte	.LFE7
 2178 0013 0400     		.2byte	0x4
 2179 0015 F3       		.byte	0xf3
 2180 0016 01       		.uleb128 0x1
 2181 0017 50       		.byte	0x50
 2182 0018 9F       		.byte	0x9f
 2183 0019 00000000 		.4byte	0
 2184 001d 00000000 		.4byte	0
 2185              	.LLST35:
 2186 0021 00000000 		.4byte	.LVL69
 2187 0025 19000000 		.4byte	.LVL71-1
 2188 0029 0100     		.2byte	0x1
 2189 002b 51       		.byte	0x51
 2190 002c 19000000 		.4byte	.LVL71-1
 2191 0030 1E000000 		.4byte	.LFE7
 2192 0034 0400     		.2byte	0x4
 2193 0036 F3       		.byte	0xf3
 2194 0037 01       		.uleb128 0x1
 2195 0038 51       		.byte	0x51
 2196 0039 9F       		.byte	0x9f
 2197 003a 00000000 		.4byte	0
 2198 003e 00000000 		.4byte	0
 2199              	.LLST36:
 2200 0042 00000000 		.4byte	.LVL69
 2201 0046 19000000 		.4byte	.LVL71-1
 2202 004a 0100     		.2byte	0x1
 2203 004c 52       		.byte	0x52
 2204 004d 19000000 		.4byte	.LVL71-1
 2205 0051 1E000000 		.4byte	.LFE7
 2206 0055 0300     		.2byte	0x3
 2207 0057 76       		.byte	0x76
 2208 0058 75       		.sleb128 -11
 2209 0059 9F       		.byte	0x9f
 2210 005a 00000000 		.4byte	0
 2211 005e 00000000 		.4byte	0
 2212              	.LLST37:
 2213 0062 00000000 		.4byte	.LVL69
 2214 0066 19000000 		.4byte	.LVL71-1
 2215 006a 0100     		.2byte	0x1
 2216 006c 53       		.byte	0x53
 2217 006d 19000000 		.4byte	.LVL71-1
 2218 0071 1E000000 		.4byte	.LFE7
 2219 0075 0400     		.2byte	0x4
 2220 0077 F3       		.byte	0xf3
 2221 0078 01       		.uleb128 0x1
 2222 0079 53       		.byte	0x53
 2223 007a 9F       		.byte	0x9f
ARM GAS  /tmp/ccOpqeZy.s 			page 40


 2224 007b 00000000 		.4byte	0
 2225 007f 00000000 		.4byte	0
 2226              	.LLST38:
 2227 0083 00000000 		.4byte	.LVL69
 2228 0087 1A000000 		.4byte	.LVL71
 2229 008b 0200     		.2byte	0x2
 2230 008d 30       		.byte	0x30
 2231 008e 9F       		.byte	0x9f
 2232 008f 1A000000 		.4byte	.LVL71
 2233 0093 1E000000 		.4byte	.LFE7
 2234 0097 0100     		.2byte	0x1
 2235 0099 50       		.byte	0x50
 2236 009a 00000000 		.4byte	0
 2237 009e 00000000 		.4byte	0
 2238              	.LLST39:
 2239 00a2 00000000 		.4byte	.LVL69
 2240 00a6 0C000000 		.4byte	.LVL70
 2241 00aa 0200     		.2byte	0x2
 2242 00ac 30       		.byte	0x30
 2243 00ad 9F       		.byte	0x9f
 2244 00ae 00000000 		.4byte	0
 2245 00b2 00000000 		.4byte	0
 2246              	.LLST27:
 2247 00b6 00000000 		.4byte	.LVL46
 2248 00ba 19000000 		.4byte	.LVL50-1
 2249 00be 0100     		.2byte	0x1
 2250 00c0 50       		.byte	0x50
 2251 00c1 19000000 		.4byte	.LVL50-1
 2252 00c5 74000000 		.4byte	.LVL61
 2253 00c9 0100     		.2byte	0x1
 2254 00cb 59       		.byte	0x59
 2255 00cc 74000000 		.4byte	.LVL61
 2256 00d0 7B000000 		.4byte	.LVL62-1
 2257 00d4 0100     		.2byte	0x1
 2258 00d6 50       		.byte	0x50
 2259 00d7 7B000000 		.4byte	.LVL62-1
 2260 00db A8000000 		.4byte	.LFE6
 2261 00df 0100     		.2byte	0x1
 2262 00e1 59       		.byte	0x59
 2263 00e2 00000000 		.4byte	0
 2264 00e6 00000000 		.4byte	0
 2265              	.LLST28:
 2266 00ea 00000000 		.4byte	.LVL46
 2267 00ee 10000000 		.4byte	.LVL47
 2268 00f2 0100     		.2byte	0x1
 2269 00f4 51       		.byte	0x51
 2270 00f5 10000000 		.4byte	.LVL47
 2271 00f9 A8000000 		.4byte	.LFE6
 2272 00fd 0400     		.2byte	0x4
 2273 00ff F3       		.byte	0xf3
 2274 0100 01       		.uleb128 0x1
 2275 0101 51       		.byte	0x51
 2276 0102 9F       		.byte	0x9f
 2277 0103 00000000 		.4byte	0
 2278 0107 00000000 		.4byte	0
 2279              	.LLST29:
 2280 010b 00000000 		.4byte	.LVL46
ARM GAS  /tmp/ccOpqeZy.s 			page 41


 2281 010f 14000000 		.4byte	.LVL49
 2282 0113 0100     		.2byte	0x1
 2283 0115 52       		.byte	0x52
 2284 0116 14000000 		.4byte	.LVL49
 2285 011a A8000000 		.4byte	.LFE6
 2286 011e 0100     		.2byte	0x1
 2287 0120 57       		.byte	0x57
 2288 0121 00000000 		.4byte	0
 2289 0125 00000000 		.4byte	0
 2290              	.LLST30:
 2291 0129 00000000 		.4byte	.LVL46
 2292 012d 12000000 		.4byte	.LVL48
 2293 0131 0100     		.2byte	0x1
 2294 0133 53       		.byte	0x53
 2295 0134 12000000 		.4byte	.LVL48
 2296 0138 A8000000 		.4byte	.LFE6
 2297 013c 0100     		.2byte	0x1
 2298 013e 55       		.byte	0x55
 2299 013f 00000000 		.4byte	0
 2300 0143 00000000 		.4byte	0
 2301              	.LLST31:
 2302 0147 00000000 		.4byte	.LVL46
 2303 014b 20000000 		.4byte	.LVL52
 2304 014f 0200     		.2byte	0x2
 2305 0151 91       		.byte	0x91
 2306 0152 00       		.sleb128 0
 2307 0153 30000000 		.4byte	.LVL54
 2308 0157 36000000 		.4byte	.LVL55
 2309 015b 0200     		.2byte	0x2
 2310 015d 91       		.byte	0x91
 2311 015e 00       		.sleb128 0
 2312 015f 36000000 		.4byte	.LVL55
 2313 0163 56000000 		.4byte	.LVL56
 2314 0167 0100     		.2byte	0x1
 2315 0169 54       		.byte	0x54
 2316 016a 56000000 		.4byte	.LVL56
 2317 016e 5C000000 		.4byte	.LVL57
 2318 0172 0300     		.2byte	0x3
 2319 0174 74       		.byte	0x74
 2320 0175 78       		.sleb128 -8
 2321 0176 9F       		.byte	0x9f
 2322 0177 5C000000 		.4byte	.LVL57
 2323 017b 70000000 		.4byte	.LVL60
 2324 017f 0100     		.2byte	0x1
 2325 0181 54       		.byte	0x54
 2326 0182 70000000 		.4byte	.LVL60
 2327 0186 7B000000 		.4byte	.LVL62-1
 2328 018a 0100     		.2byte	0x1
 2329 018c 51       		.byte	0x51
 2330 018d 7B000000 		.4byte	.LVL62-1
 2331 0191 82000000 		.4byte	.LVL63
 2332 0195 0300     		.2byte	0x3
 2333 0197 74       		.byte	0x74
 2334 0198 78       		.sleb128 -8
 2335 0199 9F       		.byte	0x9f
 2336 019a 84000000 		.4byte	.LVL64
 2337 019e 98000000 		.4byte	.LVL67
ARM GAS  /tmp/ccOpqeZy.s 			page 42


 2338 01a2 0100     		.2byte	0x1
 2339 01a4 54       		.byte	0x54
 2340 01a5 98000000 		.4byte	.LVL67
 2341 01a9 A2000000 		.4byte	.LVL68
 2342 01ad 0600     		.2byte	0x6
 2343 01af 91       		.byte	0x91
 2344 01b0 00       		.sleb128 0
 2345 01b1 06       		.byte	0x6
 2346 01b2 23       		.byte	0x23
 2347 01b3 08       		.uleb128 0x8
 2348 01b4 9F       		.byte	0x9f
 2349 01b5 A2000000 		.4byte	.LVL68
 2350 01b9 A8000000 		.4byte	.LFE6
 2351 01bd 0100     		.2byte	0x1
 2352 01bf 54       		.byte	0x54
 2353 01c0 00000000 		.4byte	0
 2354 01c4 00000000 		.4byte	0
 2355              	.LLST32:
 2356 01c8 00000000 		.4byte	.LVL46
 2357 01cc 1E000000 		.4byte	.LVL51
 2358 01d0 0200     		.2byte	0x2
 2359 01d2 30       		.byte	0x30
 2360 01d3 9F       		.byte	0x9f
 2361 01d4 1E000000 		.4byte	.LVL51
 2362 01d8 28000000 		.4byte	.LVL53
 2363 01dc 0100     		.2byte	0x1
 2364 01de 50       		.byte	0x50
 2365 01df 30000000 		.4byte	.LVL54
 2366 01e3 5C000000 		.4byte	.LVL57
 2367 01e7 0100     		.2byte	0x1
 2368 01e9 50       		.byte	0x50
 2369 01ea 7C000000 		.4byte	.LVL62
 2370 01ee 90000000 		.4byte	.LVL65
 2371 01f2 0100     		.2byte	0x1
 2372 01f4 50       		.byte	0x50
 2373 01f5 98000000 		.4byte	.LVL67
 2374 01f9 A8000000 		.4byte	.LFE6
 2375 01fd 0100     		.2byte	0x1
 2376 01ff 50       		.byte	0x50
 2377 0200 00000000 		.4byte	0
 2378 0204 00000000 		.4byte	0
 2379              	.LLST33:
 2380 0208 00000000 		.4byte	.LVL46
 2381 020c 20000000 		.4byte	.LVL52
 2382 0210 0200     		.2byte	0x2
 2383 0212 30       		.byte	0x30
 2384 0213 9F       		.byte	0x9f
 2385 0214 30000000 		.4byte	.LVL54
 2386 0218 56000000 		.4byte	.LVL56
 2387 021c 0200     		.2byte	0x2
 2388 021e 30       		.byte	0x30
 2389 021f 9F       		.byte	0x9f
 2390 0220 56000000 		.4byte	.LVL56
 2391 0224 5C000000 		.4byte	.LVL57
 2392 0228 0300     		.2byte	0x3
 2393 022a 78       		.byte	0x78
 2394 022b 7F       		.sleb128 -1
ARM GAS  /tmp/ccOpqeZy.s 			page 43


 2395 022c 9F       		.byte	0x9f
 2396 022d 5C000000 		.4byte	.LVL57
 2397 0231 6E000000 		.4byte	.LVL59
 2398 0235 0100     		.2byte	0x1
 2399 0237 58       		.byte	0x58
 2400 0238 6E000000 		.4byte	.LVL59
 2401 023c 84000000 		.4byte	.LVL64
 2402 0240 0300     		.2byte	0x3
 2403 0242 78       		.byte	0x78
 2404 0243 7F       		.sleb128 -1
 2405 0244 9F       		.byte	0x9f
 2406 0245 84000000 		.4byte	.LVL64
 2407 0249 A8000000 		.4byte	.LFE6
 2408 024d 0200     		.2byte	0x2
 2409 024f 30       		.byte	0x30
 2410 0250 9F       		.byte	0x9f
 2411 0251 00000000 		.4byte	0
 2412 0255 00000000 		.4byte	0
 2413              	.LLST24:
 2414 0259 00000000 		.4byte	.LVL42
 2415 025d 09000000 		.4byte	.LVL43-1
 2416 0261 0100     		.2byte	0x1
 2417 0263 50       		.byte	0x50
 2418 0264 09000000 		.4byte	.LVL43-1
 2419 0268 10000000 		.4byte	.LFE5
 2420 026c 0400     		.2byte	0x4
 2421 026e F3       		.byte	0xf3
 2422 026f 01       		.uleb128 0x1
 2423 0270 50       		.byte	0x50
 2424 0271 9F       		.byte	0x9f
 2425 0272 00000000 		.4byte	0
 2426 0276 00000000 		.4byte	0
 2427              	.LLST25:
 2428 027a 00000000 		.4byte	.LVL42
 2429 027e 09000000 		.4byte	.LVL43-1
 2430 0282 0100     		.2byte	0x1
 2431 0284 51       		.byte	0x51
 2432 0285 09000000 		.4byte	.LVL43-1
 2433 0289 10000000 		.4byte	.LFE5
 2434 028d 0400     		.2byte	0x4
 2435 028f F3       		.byte	0xf3
 2436 0290 01       		.uleb128 0x1
 2437 0291 51       		.byte	0x51
 2438 0292 9F       		.byte	0x9f
 2439 0293 00000000 		.4byte	0
 2440 0297 00000000 		.4byte	0
 2441              	.LLST26:
 2442 029b 00000000 		.4byte	.LVL42
 2443 029f 0A000000 		.4byte	.LVL43
 2444 02a3 0200     		.2byte	0x2
 2445 02a5 30       		.byte	0x30
 2446 02a6 9F       		.byte	0x9f
 2447 02a7 0A000000 		.4byte	.LVL43
 2448 02ab 0C000000 		.4byte	.LVL44
 2449 02af 0100     		.2byte	0x1
 2450 02b1 50       		.byte	0x50
 2451 02b2 0C000000 		.4byte	.LVL44
ARM GAS  /tmp/ccOpqeZy.s 			page 44


 2452 02b6 0E000000 		.4byte	.LVL45
 2453 02ba 0300     		.2byte	0x3
 2454 02bc 70       		.byte	0x70
 2455 02bd 79       		.sleb128 -7
 2456 02be 9F       		.byte	0x9f
 2457 02bf 00000000 		.4byte	0
 2458 02c3 00000000 		.4byte	0
 2459              	.LLST19:
 2460 02c7 00000000 		.4byte	.LVL27
 2461 02cb 14000000 		.4byte	.LVL31
 2462 02cf 0100     		.2byte	0x1
 2463 02d1 50       		.byte	0x50
 2464 02d2 14000000 		.4byte	.LVL31
 2465 02d6 17000000 		.4byte	.LVL32-1
 2466 02da 0100     		.2byte	0x1
 2467 02dc 53       		.byte	0x53
 2468 02dd 17000000 		.4byte	.LVL32-1
 2469 02e1 5A000000 		.4byte	.LFE4
 2470 02e5 0100     		.2byte	0x1
 2471 02e7 56       		.byte	0x56
 2472 02e8 00000000 		.4byte	0
 2473 02ec 00000000 		.4byte	0
 2474              	.LLST20:
 2475 02f0 00000000 		.4byte	.LVL27
 2476 02f4 0A000000 		.4byte	.LVL28
 2477 02f8 0100     		.2byte	0x1
 2478 02fa 51       		.byte	0x51
 2479 02fb 0A000000 		.4byte	.LVL28
 2480 02ff 5A000000 		.4byte	.LFE4
 2481 0303 0100     		.2byte	0x1
 2482 0305 57       		.byte	0x57
 2483 0306 00000000 		.4byte	0
 2484 030a 00000000 		.4byte	0
 2485              	.LLST21:
 2486 030e 00000000 		.4byte	.LVL27
 2487 0312 10000000 		.4byte	.LVL29
 2488 0316 0100     		.2byte	0x1
 2489 0318 52       		.byte	0x52
 2490 0319 10000000 		.4byte	.LVL29
 2491 031d 17000000 		.4byte	.LVL32-1
 2492 0321 0100     		.2byte	0x1
 2493 0323 51       		.byte	0x51
 2494 0324 17000000 		.4byte	.LVL32-1
 2495 0328 1C000000 		.4byte	.LVL33
 2496 032c 0100     		.2byte	0x1
 2497 032e 54       		.byte	0x54
 2498 032f 1C000000 		.4byte	.LVL33
 2499 0333 5A000000 		.4byte	.LFE4
 2500 0337 0100     		.2byte	0x1
 2501 0339 55       		.byte	0x55
 2502 033a 00000000 		.4byte	0
 2503 033e 00000000 		.4byte	0
 2504              	.LLST22:
 2505 0342 00000000 		.4byte	.LVL27
 2506 0346 12000000 		.4byte	.LVL30
 2507 034a 0100     		.2byte	0x1
 2508 034c 53       		.byte	0x53
ARM GAS  /tmp/ccOpqeZy.s 			page 45


 2509 034d 12000000 		.4byte	.LVL30
 2510 0351 5A000000 		.4byte	.LFE4
 2511 0355 0400     		.2byte	0x4
 2512 0357 F3       		.byte	0xf3
 2513 0358 01       		.uleb128 0x1
 2514 0359 53       		.byte	0x53
 2515 035a 9F       		.byte	0x9f
 2516 035b 00000000 		.4byte	0
 2517 035f 00000000 		.4byte	0
 2518              	.LLST23:
 2519 0363 00000000 		.4byte	.LVL27
 2520 0367 28000000 		.4byte	.LVL34
 2521 036b 0200     		.2byte	0x2
 2522 036d 30       		.byte	0x30
 2523 036e 9F       		.byte	0x9f
 2524 036f 28000000 		.4byte	.LVL34
 2525 0373 3A000000 		.4byte	.LVL36
 2526 0377 0100     		.2byte	0x1
 2527 0379 54       		.byte	0x54
 2528 037a 3A000000 		.4byte	.LVL36
 2529 037e 40000000 		.4byte	.LVL37
 2530 0382 0300     		.2byte	0x3
 2531 0384 74       		.byte	0x74
 2532 0385 7F       		.sleb128 -1
 2533 0386 9F       		.byte	0x9f
 2534 0387 40000000 		.4byte	.LVL37
 2535 038b 42000000 		.4byte	.LVL38
 2536 038f 0100     		.2byte	0x1
 2537 0391 54       		.byte	0x54
 2538 0392 48000000 		.4byte	.LVL39
 2539 0396 5A000000 		.4byte	.LFE4
 2540 039a 0200     		.2byte	0x2
 2541 039c 30       		.byte	0x30
 2542 039d 9F       		.byte	0x9f
 2543 039e 00000000 		.4byte	0
 2544 03a2 00000000 		.4byte	0
 2545              	.LLST13:
 2546 03a6 00000000 		.4byte	.LVL24
 2547 03aa 19000000 		.4byte	.LVL26-1
 2548 03ae 0100     		.2byte	0x1
 2549 03b0 50       		.byte	0x50
 2550 03b1 19000000 		.4byte	.LVL26-1
 2551 03b5 1E000000 		.4byte	.LFE3
 2552 03b9 0400     		.2byte	0x4
 2553 03bb F3       		.byte	0xf3
 2554 03bc 01       		.uleb128 0x1
 2555 03bd 50       		.byte	0x50
 2556 03be 9F       		.byte	0x9f
 2557 03bf 00000000 		.4byte	0
 2558 03c3 00000000 		.4byte	0
 2559              	.LLST14:
 2560 03c7 00000000 		.4byte	.LVL24
 2561 03cb 19000000 		.4byte	.LVL26-1
 2562 03cf 0100     		.2byte	0x1
 2563 03d1 51       		.byte	0x51
 2564 03d2 19000000 		.4byte	.LVL26-1
 2565 03d6 1E000000 		.4byte	.LFE3
ARM GAS  /tmp/ccOpqeZy.s 			page 46


 2566 03da 0400     		.2byte	0x4
 2567 03dc F3       		.byte	0xf3
 2568 03dd 01       		.uleb128 0x1
 2569 03de 51       		.byte	0x51
 2570 03df 9F       		.byte	0x9f
 2571 03e0 00000000 		.4byte	0
 2572 03e4 00000000 		.4byte	0
 2573              	.LLST15:
 2574 03e8 00000000 		.4byte	.LVL24
 2575 03ec 19000000 		.4byte	.LVL26-1
 2576 03f0 0100     		.2byte	0x1
 2577 03f2 52       		.byte	0x52
 2578 03f3 19000000 		.4byte	.LVL26-1
 2579 03f7 1E000000 		.4byte	.LFE3
 2580 03fb 0300     		.2byte	0x3
 2581 03fd 76       		.byte	0x76
 2582 03fe 75       		.sleb128 -11
 2583 03ff 9F       		.byte	0x9f
 2584 0400 00000000 		.4byte	0
 2585 0404 00000000 		.4byte	0
 2586              	.LLST16:
 2587 0408 00000000 		.4byte	.LVL24
 2588 040c 19000000 		.4byte	.LVL26-1
 2589 0410 0100     		.2byte	0x1
 2590 0412 53       		.byte	0x53
 2591 0413 19000000 		.4byte	.LVL26-1
 2592 0417 1E000000 		.4byte	.LFE3
 2593 041b 0400     		.2byte	0x4
 2594 041d F3       		.byte	0xf3
 2595 041e 01       		.uleb128 0x1
 2596 041f 53       		.byte	0x53
 2597 0420 9F       		.byte	0x9f
 2598 0421 00000000 		.4byte	0
 2599 0425 00000000 		.4byte	0
 2600              	.LLST17:
 2601 0429 00000000 		.4byte	.LVL24
 2602 042d 1A000000 		.4byte	.LVL26
 2603 0431 0200     		.2byte	0x2
 2604 0433 30       		.byte	0x30
 2605 0434 9F       		.byte	0x9f
 2606 0435 1A000000 		.4byte	.LVL26
 2607 0439 1E000000 		.4byte	.LFE3
 2608 043d 0100     		.2byte	0x1
 2609 043f 50       		.byte	0x50
 2610 0440 00000000 		.4byte	0
 2611 0444 00000000 		.4byte	0
 2612              	.LLST18:
 2613 0448 00000000 		.4byte	.LVL24
 2614 044c 0C000000 		.4byte	.LVL25
 2615 0450 0200     		.2byte	0x2
 2616 0452 30       		.byte	0x30
 2617 0453 9F       		.byte	0x9f
 2618 0454 00000000 		.4byte	0
 2619 0458 00000000 		.4byte	0
 2620              	.LLST7:
 2621 045c 00000000 		.4byte	.LVL13
 2622 0460 1B000000 		.4byte	.LVL17-1
ARM GAS  /tmp/ccOpqeZy.s 			page 47


 2623 0464 0100     		.2byte	0x1
 2624 0466 50       		.byte	0x50
 2625 0467 1B000000 		.4byte	.LVL17-1
 2626 046b 40000000 		.4byte	.LVL22
 2627 046f 0100     		.2byte	0x1
 2628 0471 56       		.byte	0x56
 2629 0472 40000000 		.4byte	.LVL22
 2630 0476 43000000 		.4byte	.LVL23-1
 2631 047a 0100     		.2byte	0x1
 2632 047c 50       		.byte	0x50
 2633 047d 43000000 		.4byte	.LVL23-1
 2634 0481 44000000 		.4byte	.LFE2
 2635 0485 0400     		.2byte	0x4
 2636 0487 F3       		.byte	0xf3
 2637 0488 01       		.uleb128 0x1
 2638 0489 50       		.byte	0x50
 2639 048a 9F       		.byte	0x9f
 2640 048b 00000000 		.4byte	0
 2641 048f 00000000 		.4byte	0
 2642              	.LLST8:
 2643 0493 00000000 		.4byte	.LVL13
 2644 0497 12000000 		.4byte	.LVL14
 2645 049b 0100     		.2byte	0x1
 2646 049d 51       		.byte	0x51
 2647 049e 12000000 		.4byte	.LVL14
 2648 04a2 44000000 		.4byte	.LFE2
 2649 04a6 0400     		.2byte	0x4
 2650 04a8 F3       		.byte	0xf3
 2651 04a9 01       		.uleb128 0x1
 2652 04aa 51       		.byte	0x51
 2653 04ab 9F       		.byte	0x9f
 2654 04ac 00000000 		.4byte	0
 2655 04b0 00000000 		.4byte	0
 2656              	.LLST9:
 2657 04b4 00000000 		.4byte	.LVL13
 2658 04b8 16000000 		.4byte	.LVL16
 2659 04bc 0100     		.2byte	0x1
 2660 04be 52       		.byte	0x52
 2661 04bf 16000000 		.4byte	.LVL16
 2662 04c3 40000000 		.4byte	.LVL22
 2663 04c7 0100     		.2byte	0x1
 2664 04c9 55       		.byte	0x55
 2665 04ca 40000000 		.4byte	.LVL22
 2666 04ce 43000000 		.4byte	.LVL23-1
 2667 04d2 0300     		.2byte	0x3
 2668 04d4 72       		.byte	0x72
 2669 04d5 7C       		.sleb128 -4
 2670 04d6 9F       		.byte	0x9f
 2671 04d7 43000000 		.4byte	.LVL23-1
 2672 04db 44000000 		.4byte	.LFE2
 2673 04df 0400     		.2byte	0x4
 2674 04e1 F3       		.byte	0xf3
 2675 04e2 01       		.uleb128 0x1
 2676 04e3 52       		.byte	0x52
 2677 04e4 9F       		.byte	0x9f
 2678 04e5 00000000 		.4byte	0
 2679 04e9 00000000 		.4byte	0
ARM GAS  /tmp/ccOpqeZy.s 			page 48


 2680              	.LLST10:
 2681 04ed 00000000 		.4byte	.LVL13
 2682 04f1 14000000 		.4byte	.LVL15
 2683 04f5 0100     		.2byte	0x1
 2684 04f7 53       		.byte	0x53
 2685 04f8 14000000 		.4byte	.LVL15
 2686 04fc 40000000 		.4byte	.LVL22
 2687 0500 0100     		.2byte	0x1
 2688 0502 58       		.byte	0x58
 2689 0503 40000000 		.4byte	.LVL22
 2690 0507 43000000 		.4byte	.LVL23-1
 2691 050b 0100     		.2byte	0x1
 2692 050d 53       		.byte	0x53
 2693 050e 43000000 		.4byte	.LVL23-1
 2694 0512 44000000 		.4byte	.LFE2
 2695 0516 0400     		.2byte	0x4
 2696 0518 F3       		.byte	0xf3
 2697 0519 01       		.uleb128 0x1
 2698 051a 53       		.byte	0x53
 2699 051b 9F       		.byte	0x9f
 2700 051c 00000000 		.4byte	0
 2701 0520 00000000 		.4byte	0
 2702              	.LLST11:
 2703 0524 00000000 		.4byte	.LVL13
 2704 0528 2E000000 		.4byte	.LVL19
 2705 052c 0200     		.2byte	0x2
 2706 052e 91       		.byte	0x91
 2707 052f 00       		.sleb128 0
 2708 0530 2E000000 		.4byte	.LVL19
 2709 0534 30000000 		.4byte	.LVL20
 2710 0538 0200     		.2byte	0x2
 2711 053a 91       		.byte	0x91
 2712 053b 00       		.sleb128 0
 2713 053c 30000000 		.4byte	.LVL20
 2714 0540 40000000 		.4byte	.LVL22
 2715 0544 0100     		.2byte	0x1
 2716 0546 54       		.byte	0x54
 2717 0547 40000000 		.4byte	.LVL22
 2718 054b 43000000 		.4byte	.LVL23-1
 2719 054f 0200     		.2byte	0x2
 2720 0551 7D       		.byte	0x7d
 2721 0552 00       		.sleb128 0
 2722 0553 00000000 		.4byte	0
 2723 0557 00000000 		.4byte	0
 2724              	.LLST12:
 2725 055b 00000000 		.4byte	.LVL13
 2726 055f 1C000000 		.4byte	.LVL17
 2727 0563 0200     		.2byte	0x2
 2728 0565 30       		.byte	0x30
 2729 0566 9F       		.byte	0x9f
 2730 0567 1C000000 		.4byte	.LVL17
 2731 056b 28000000 		.4byte	.LVL18
 2732 056f 0100     		.2byte	0x1
 2733 0571 50       		.byte	0x50
 2734 0572 2E000000 		.4byte	.LVL19
 2735 0576 38000000 		.4byte	.LVL21
 2736 057a 0100     		.2byte	0x1
ARM GAS  /tmp/ccOpqeZy.s 			page 49


 2737 057c 50       		.byte	0x50
 2738 057d 00000000 		.4byte	0
 2739 0581 00000000 		.4byte	0
 2740              	.LLST4:
 2741 0585 00000000 		.4byte	.LVL9
 2742 0589 09000000 		.4byte	.LVL10-1
 2743 058d 0100     		.2byte	0x1
 2744 058f 50       		.byte	0x50
 2745 0590 09000000 		.4byte	.LVL10-1
 2746 0594 10000000 		.4byte	.LFE1
 2747 0598 0400     		.2byte	0x4
 2748 059a F3       		.byte	0xf3
 2749 059b 01       		.uleb128 0x1
 2750 059c 50       		.byte	0x50
 2751 059d 9F       		.byte	0x9f
 2752 059e 00000000 		.4byte	0
 2753 05a2 00000000 		.4byte	0
 2754              	.LLST5:
 2755 05a6 00000000 		.4byte	.LVL9
 2756 05aa 09000000 		.4byte	.LVL10-1
 2757 05ae 0100     		.2byte	0x1
 2758 05b0 51       		.byte	0x51
 2759 05b1 09000000 		.4byte	.LVL10-1
 2760 05b5 10000000 		.4byte	.LFE1
 2761 05b9 0400     		.2byte	0x4
 2762 05bb F3       		.byte	0xf3
 2763 05bc 01       		.uleb128 0x1
 2764 05bd 51       		.byte	0x51
 2765 05be 9F       		.byte	0x9f
 2766 05bf 00000000 		.4byte	0
 2767 05c3 00000000 		.4byte	0
 2768              	.LLST6:
 2769 05c7 00000000 		.4byte	.LVL9
 2770 05cb 0A000000 		.4byte	.LVL10
 2771 05cf 0200     		.2byte	0x2
 2772 05d1 30       		.byte	0x30
 2773 05d2 9F       		.byte	0x9f
 2774 05d3 0A000000 		.4byte	.LVL10
 2775 05d7 0C000000 		.4byte	.LVL11
 2776 05db 0100     		.2byte	0x1
 2777 05dd 50       		.byte	0x50
 2778 05de 0C000000 		.4byte	.LVL11
 2779 05e2 0E000000 		.4byte	.LVL12
 2780 05e6 0300     		.2byte	0x3
 2781 05e8 70       		.byte	0x70
 2782 05e9 79       		.sleb128 -7
 2783 05ea 9F       		.byte	0x9f
 2784 05eb 00000000 		.4byte	0
 2785 05ef 00000000 		.4byte	0
 2786              	.LLST0:
 2787 05f3 00000000 		.4byte	.LVL0
 2788 05f7 0E000000 		.4byte	.LVL3
 2789 05fb 0100     		.2byte	0x1
 2790 05fd 50       		.byte	0x50
 2791 05fe 0E000000 		.4byte	.LVL3
 2792 0602 13000000 		.4byte	.LVL5-1
 2793 0606 0100     		.2byte	0x1
ARM GAS  /tmp/ccOpqeZy.s 			page 50


 2794 0608 53       		.byte	0x53
 2795 0609 13000000 		.4byte	.LVL5-1
 2796 060d 22000000 		.4byte	.LVL7
 2797 0611 0100     		.2byte	0x1
 2798 0613 54       		.byte	0x54
 2799 0614 22000000 		.4byte	.LVL7
 2800 0618 25000000 		.4byte	.LVL8-1
 2801 061c 0300     		.2byte	0x3
 2802 061e 70       		.byte	0x70
 2803 061f 7C       		.sleb128 -4
 2804 0620 9F       		.byte	0x9f
 2805 0621 25000000 		.4byte	.LVL8-1
 2806 0625 26000000 		.4byte	.LFE0
 2807 0629 0400     		.2byte	0x4
 2808 062b F3       		.byte	0xf3
 2809 062c 01       		.uleb128 0x1
 2810 062d 50       		.byte	0x50
 2811 062e 9F       		.byte	0x9f
 2812 062f 00000000 		.4byte	0
 2813 0633 00000000 		.4byte	0
 2814              	.LLST1:
 2815 0637 00000000 		.4byte	.LVL0
 2816 063b 0C000000 		.4byte	.LVL2
 2817 063f 0100     		.2byte	0x1
 2818 0641 51       		.byte	0x51
 2819 0642 0C000000 		.4byte	.LVL2
 2820 0646 22000000 		.4byte	.LVL7
 2821 064a 0100     		.2byte	0x1
 2822 064c 55       		.byte	0x55
 2823 064d 22000000 		.4byte	.LVL7
 2824 0651 25000000 		.4byte	.LVL8-1
 2825 0655 0100     		.2byte	0x1
 2826 0657 51       		.byte	0x51
 2827 0658 25000000 		.4byte	.LVL8-1
 2828 065c 26000000 		.4byte	.LFE0
 2829 0660 0400     		.2byte	0x4
 2830 0662 F3       		.byte	0xf3
 2831 0663 01       		.uleb128 0x1
 2832 0664 51       		.byte	0x51
 2833 0665 9F       		.byte	0x9f
 2834 0666 00000000 		.4byte	0
 2835 066a 00000000 		.4byte	0
 2836              	.LLST2:
 2837 066e 00000000 		.4byte	.LVL0
 2838 0672 10000000 		.4byte	.LVL4
 2839 0676 0100     		.2byte	0x1
 2840 0678 52       		.byte	0x52
 2841 0679 10000000 		.4byte	.LVL4
 2842 067d 13000000 		.4byte	.LVL5-1
 2843 0681 0100     		.2byte	0x1
 2844 0683 51       		.byte	0x51
 2845 0684 13000000 		.4byte	.LVL5-1
 2846 0688 14000000 		.4byte	.LVL5
 2847 068c 0100     		.2byte	0x1
 2848 068e 56       		.byte	0x56
 2849 068f 14000000 		.4byte	.LVL5
 2850 0693 18000000 		.4byte	.LVL6
ARM GAS  /tmp/ccOpqeZy.s 			page 51


 2851 0697 0300     		.2byte	0x3
 2852 0699 76       		.byte	0x76
 2853 069a 08       		.sleb128 8
 2854 069b 9F       		.byte	0x9f
 2855 069c 18000000 		.4byte	.LVL6
 2856 06a0 25000000 		.4byte	.LVL8-1
 2857 06a4 0100     		.2byte	0x1
 2858 06a6 52       		.byte	0x52
 2859 06a7 25000000 		.4byte	.LVL8-1
 2860 06ab 26000000 		.4byte	.LFE0
 2861 06af 0600     		.2byte	0x6
 2862 06b1 F3       		.byte	0xf3
 2863 06b2 01       		.uleb128 0x1
 2864 06b3 52       		.byte	0x52
 2865 06b4 23       		.byte	0x23
 2866 06b5 08       		.uleb128 0x8
 2867 06b6 9F       		.byte	0x9f
 2868 06b7 00000000 		.4byte	0
 2869 06bb 00000000 		.4byte	0
 2870              	.LLST3:
 2871 06bf 00000000 		.4byte	.LVL0
 2872 06c3 0A000000 		.4byte	.LVL1
 2873 06c7 0100     		.2byte	0x1
 2874 06c9 53       		.byte	0x53
 2875 06ca 0A000000 		.4byte	.LVL1
 2876 06ce 26000000 		.4byte	.LFE0
 2877 06d2 0400     		.2byte	0x4
 2878 06d4 F3       		.byte	0xf3
 2879 06d5 01       		.uleb128 0x1
 2880 06d6 53       		.byte	0x53
 2881 06d7 9F       		.byte	0x9f
 2882 06d8 00000000 		.4byte	0
 2883 06dc 00000000 		.4byte	0
 2884              		.section	.debug_aranges,"",%progbits
 2885 0000 54000000 		.4byte	0x54
 2886 0004 0200     		.2byte	0x2
 2887 0006 00000000 		.4byte	.Ldebug_info0
 2888 000a 04       		.byte	0x4
 2889 000b 00       		.byte	0
 2890 000c 0000     		.2byte	0
 2891 000e 0000     		.2byte	0
 2892 0010 00000000 		.4byte	.LFB0
 2893 0014 26000000 		.4byte	.LFE0-.LFB0
 2894 0018 00000000 		.4byte	.LFB1
 2895 001c 10000000 		.4byte	.LFE1-.LFB1
 2896 0020 00000000 		.4byte	.LFB2
 2897 0024 44000000 		.4byte	.LFE2-.LFB2
 2898 0028 00000000 		.4byte	.LFB3
 2899 002c 1E000000 		.4byte	.LFE3-.LFB3
 2900 0030 00000000 		.4byte	.LFB4
 2901 0034 5A000000 		.4byte	.LFE4-.LFB4
 2902 0038 00000000 		.4byte	.LFB5
 2903 003c 10000000 		.4byte	.LFE5-.LFB5
 2904 0040 00000000 		.4byte	.LFB6
 2905 0044 A8000000 		.4byte	.LFE6-.LFB6
 2906 0048 00000000 		.4byte	.LFB7
 2907 004c 1E000000 		.4byte	.LFE7-.LFB7
ARM GAS  /tmp/ccOpqeZy.s 			page 52


 2908 0050 00000000 		.4byte	0
 2909 0054 00000000 		.4byte	0
 2910              		.section	.debug_ranges,"",%progbits
 2911              	.Ldebug_ranges0:
 2912 0000 00000000 		.4byte	.LFB0
 2913 0004 26000000 		.4byte	.LFE0
 2914 0008 00000000 		.4byte	.LFB1
 2915 000c 10000000 		.4byte	.LFE1
 2916 0010 00000000 		.4byte	.LFB2
 2917 0014 44000000 		.4byte	.LFE2
 2918 0018 00000000 		.4byte	.LFB3
 2919 001c 1E000000 		.4byte	.LFE3
 2920 0020 00000000 		.4byte	.LFB4
 2921 0024 5A000000 		.4byte	.LFE4
 2922 0028 00000000 		.4byte	.LFB5
 2923 002c 10000000 		.4byte	.LFE5
 2924 0030 00000000 		.4byte	.LFB6
 2925 0034 A8000000 		.4byte	.LFE6
 2926 0038 00000000 		.4byte	.LFB7
 2927 003c 1E000000 		.4byte	.LFE7
 2928 0040 00000000 		.4byte	0
 2929 0044 00000000 		.4byte	0
 2930              		.section	.debug_line,"",%progbits
 2931              	.Ldebug_line0:
 2932 0000 21020000 		.section	.debug_str,"MS",%progbits,1
 2932      0200F100 
 2932      00000201 
 2932      FB0E0D00 
 2932      01010101 
 2933              	.LASF38:
 2934 0000 75617663 		.ascii	"uavcan_protocol_file_BeginFirmwareUpdateRequest\000"
 2934      616E5F70 
 2934      726F746F 
 2934      636F6C5F 
 2934      66696C65 
 2935              	.LASF25:
 2936 0030 64617461 		.ascii	"data_type_id\000"
 2936      5F747970 
 2936      655F6964 
 2936      00
 2937              	.LASF43:
 2938 003d 64657374 		.ascii	"dest\000"
 2938      00
 2939              	.LASF28:
 2940 0042 7072696F 		.ascii	"priority\000"
 2940      72697479 
 2940      00
 2941              	.LASF18:
 2942 004b 75696E74 		.ascii	"uint64_t\000"
 2942      36345F74 
 2942      00
 2943              	.LASF2:
 2944 0054 73686F72 		.ascii	"short int\000"
 2944      7420696E 
 2944      7400
 2945              	.LASF37:
 2946 005e 696D6167 		.ascii	"image_file_remote_path\000"
ARM GAS  /tmp/ccOpqeZy.s 			page 53


 2946      655F6669 
 2946      6C655F72 
 2946      656D6F74 
 2946      655F7061 
 2947              	.LASF8:
 2948 0075 5F5F7569 		.ascii	"__uint32_t\000"
 2948      6E743332 
 2948      5F7400
 2949              	.LASF4:
 2950 0080 5F5F7569 		.ascii	"__uint16_t\000"
 2950      6E743136 
 2950      5F7400
 2951              	.LASF58:
 2952 008b 75617663 		.ascii	"uavcan_protocol_file_BeginFirmwareUpdateRequest_enc"
 2952      616E5F70 
 2952      726F746F 
 2952      636F6C5F 
 2952      66696C65 
 2953 00be 6F64655F 		.ascii	"ode_internal\000"
 2953      696E7465 
 2953      726E616C 
 2953      00
 2954              	.LASF14:
 2955 00cb 75696E74 		.ascii	"uint8_t\000"
 2955      385F7400 
 2956              	.LASF54:
 2957 00d3 75617663 		.ascii	"uavcan_protocol_file_BeginFirmwareUpdateRequest_dec"
 2957      616E5F70 
 2957      726F746F 
 2957      636F6C5F 
 2957      66696C65 
 2958 0106 6F64655F 		.ascii	"ode_internal\000"
 2958      696E7465 
 2958      726E616C 
 2958      00
 2959              	.LASF56:
 2960 0113 75617663 		.ascii	"uavcan_protocol_file_BeginFirmwareUpdateRequest_err"
 2960      616E5F70 
 2960      726F746F 
 2960      636F6C5F 
 2960      66696C65 
 2961 0146 6F725F65 		.ascii	"or_exit\000"
 2961      78697400 
 2962              	.LASF62:
 2963 014e 75617663 		.ascii	"uavcan_protocol_file_Path_encode_internal\000"
 2963      616E5F70 
 2963      726F746F 
 2963      636F6C5F 
 2963      66696C65 
 2964              	.LASF53:
 2965 0178 75617663 		.ascii	"uavcan_protocol_file_BeginFirmwareUpdateRequest_dec"
 2965      616E5F70 
 2965      726F746F 
 2965      636F6C5F 
 2965      66696C65 
 2966 01ab 6F646500 		.ascii	"ode\000"
 2967              	.LASF36:
ARM GAS  /tmp/ccOpqeZy.s 			page 54


 2968 01af 75617663 		.ascii	"uavcan_protocol_file_Path\000"
 2968      616E5F70 
 2968      726F746F 
 2968      636F6C5F 
 2968      66696C65 
 2969              	.LASF10:
 2970 01c9 6C6F6E67 		.ascii	"long long int\000"
 2970      206C6F6E 
 2970      6720696E 
 2970      7400
 2971              	.LASF44:
 2972 01d7 64796E5F 		.ascii	"dyn_arr_buf\000"
 2972      6172725F 
 2972      62756600 
 2973              	.LASF48:
 2974 01e3 75617663 		.ascii	"uavcan_protocol_file_BeginFirmwareUpdateResponse_en"
 2974      616E5F70 
 2974      726F746F 
 2974      636F6C5F 
 2974      66696C65 
 2975 0216 636F6465 		.ascii	"code\000"
 2975      00
 2976              	.LASF7:
 2977 021b 6C6F6E67 		.ascii	"long int\000"
 2977      20696E74 
 2977      00
 2978              	.LASF42:
 2979 0224 7472616E 		.ascii	"transfer\000"
 2979      73666572 
 2979      00
 2980              	.LASF45:
 2981 022d 6F666673 		.ascii	"offset\000"
 2981      657400
 2982              	.LASF60:
 2983 0234 63616E61 		.ascii	"canardEncodeScalar\000"
 2983      7264456E 
 2983      636F6465 
 2983      5363616C 
 2983      617200
 2984              	.LASF51:
 2985 0247 75617663 		.ascii	"uavcan_protocol_file_BeginFirmwareUpdateResponse_en"
 2985      616E5F70 
 2985      726F746F 
 2985      636F6C5F 
 2985      66696C65 
 2986 027a 636F6465 		.ascii	"code_internal\000"
 2986      5F696E74 
 2986      65726E61 
 2986      6C00
 2987              	.LASF3:
 2988 0288 5F5F7569 		.ascii	"__uint8_t\000"
 2988      6E74385F 
 2988      7400
 2989              	.LASF49:
 2990 0292 736F7572 		.ascii	"source\000"
 2990      636500
 2991              	.LASF23:
ARM GAS  /tmp/ccOpqeZy.s 			page 55


 2992 0299 7061796C 		.ascii	"payload_tail\000"
 2992      6F61645F 
 2992      7461696C 
 2992      00
 2993              	.LASF20:
 2994 02a6 74696D65 		.ascii	"timestamp_usec\000"
 2994      7374616D 
 2994      705F7573 
 2994      656300
 2995              	.LASF57:
 2996 02b5 75617663 		.ascii	"uavcan_protocol_file_BeginFirmwareUpdateRequest_enc"
 2996      616E5F70 
 2996      726F746F 
 2996      636F6C5F 
 2996      66696C65 
 2997 02e8 6F646500 		.ascii	"ode\000"
 2998              	.LASF47:
 2999 02ec 75617663 		.ascii	"uavcan_protocol_file_BeginFirmwareUpdateResponse_de"
 2999      616E5F70 
 2999      726F746F 
 2999      636F6C5F 
 2999      66696C65 
 3000 031f 636F6465 		.ascii	"code_internal\000"
 3000      5F696E74 
 3000      65726E61 
 3000      6C00
 3001              	.LASF1:
 3002 032d 756E7369 		.ascii	"unsigned char\000"
 3002      676E6564 
 3002      20636861 
 3002      7200
 3003              	.LASF22:
 3004 033b 7061796C 		.ascii	"payload_middle\000"
 3004      6F61645F 
 3004      6D696464 
 3004      6C6500
 3005              	.LASF65:
 3006 034a 2F626C64 		.ascii	"/bldc\000"
 3006      6300
 3007              	.LASF0:
 3008 0350 7369676E 		.ascii	"signed char\000"
 3008      65642063 
 3008      68617200 
 3009              	.LASF12:
 3010 035c 6C6F6E67 		.ascii	"long long unsigned int\000"
 3010      206C6F6E 
 3010      6720756E 
 3010      7369676E 
 3010      65642069 
 3011              	.LASF17:
 3012 0373 75696E74 		.ascii	"uint32_t\000"
 3012      33325F74 
 3012      00
 3013              	.LASF13:
 3014 037c 756E7369 		.ascii	"unsigned int\000"
 3014      676E6564 
 3014      20696E74 
ARM GAS  /tmp/ccOpqeZy.s 			page 56


 3014      00
 3015              	.LASF15:
 3016 0389 75696E74 		.ascii	"uint16_t\000"
 3016      31365F74 
 3016      00
 3017              	.LASF32:
 3018 0392 43616E61 		.ascii	"CanardBufferBlock\000"
 3018      72644275 
 3018      66666572 
 3018      426C6F63 
 3018      6B00
 3019              	.LASF55:
 3020 03a4 75617663 		.ascii	"uavcan_protocol_file_BeginFirmwareUpdateResponse_er"
 3020      616E5F70 
 3020      726F746F 
 3020      636F6C5F 
 3020      66696C65 
 3021 03d7 726F725F 		.ascii	"ror_exit\000"
 3021      65786974 
 3021      00
 3022              	.LASF29:
 3023 03e0 736F7572 		.ascii	"source_node_id\000"
 3023      63655F6E 
 3023      6F64655F 
 3023      696400
 3024              	.LASF5:
 3025 03ef 73686F72 		.ascii	"short unsigned int\000"
 3025      7420756E 
 3025      7369676E 
 3025      65642069 
 3025      6E7400
 3026              	.LASF40:
 3027 0402 6F707469 		.ascii	"optional_error_message\000"
 3027      6F6E616C 
 3027      5F657272 
 3027      6F725F6D 
 3027      65737361 
 3028              	.LASF41:
 3029 0419 75617663 		.ascii	"uavcan_protocol_file_BeginFirmwareUpdateResponse\000"
 3029      616E5F70 
 3029      726F746F 
 3029      636F6C5F 
 3029      66696C65 
 3030              	.LASF31:
 3031 044a 63686172 		.ascii	"char\000"
 3031      00
 3032              	.LASF30:
 3033 044f 5F426F6F 		.ascii	"_Bool\000"
 3033      6C00
 3034              	.LASF16:
 3035 0455 696E7433 		.ascii	"int32_t\000"
 3035      325F7400 
 3036              	.LASF26:
 3037 045d 7472616E 		.ascii	"transfer_type\000"
 3037      73666572 
 3037      5F747970 
 3037      6500
ARM GAS  /tmp/ccOpqeZy.s 			page 57


 3038              	.LASF21:
 3039 046b 7061796C 		.ascii	"payload_head\000"
 3039      6F61645F 
 3039      68656164 
 3039      00
 3040              	.LASF46:
 3041 0478 75617663 		.ascii	"uavcan_protocol_file_BeginFirmwareUpdateResponse_de"
 3041      616E5F70 
 3041      726F746F 
 3041      636F6C5F 
 3041      66696C65 
 3042 04ab 636F6465 		.ascii	"code\000"
 3042      00
 3043              	.LASF11:
 3044 04b0 5F5F7569 		.ascii	"__uint64_t\000"
 3044      6E743634 
 3044      5F7400
 3045              	.LASF34:
 3046 04bb 64617461 		.ascii	"data\000"
 3046      00
 3047              	.LASF64:
 3048 04c0 6C696263 		.ascii	"libcanard/dsdl/uavcan/protocol/file/file_BeginFirmw"
 3048      616E6172 
 3048      642F6473 
 3048      646C2F75 
 3048      61766361 
 3049 04f3 61726555 		.ascii	"areUpdate.c\000"
 3049      70646174 
 3049      652E6300 
 3050              	.LASF19:
 3051 04ff 43616E61 		.ascii	"CanardRxTransfer\000"
 3051      72645278 
 3051      5472616E 
 3051      73666572 
 3051      00
 3052              	.LASF9:
 3053 0510 6C6F6E67 		.ascii	"long unsigned int\000"
 3053      20756E73 
 3053      69676E65 
 3053      6420696E 
 3053      7400
 3054              	.LASF52:
 3055 0522 726F6F74 		.ascii	"root_item\000"
 3055      5F697465 
 3055      6D00
 3056              	.LASF61:
 3057 052c 75617663 		.ascii	"uavcan_protocol_file_Path_decode_internal\000"
 3057      616E5F70 
 3057      726F746F 
 3057      636F6C5F 
 3057      66696C65 
 3058              	.LASF6:
 3059 0556 5F5F696E 		.ascii	"__int32_t\000"
 3059      7433325F 
 3059      7400
 3060              	.LASF35:
 3061 0560 70617468 		.ascii	"path\000"
ARM GAS  /tmp/ccOpqeZy.s 			page 58


 3061      00
 3062              	.LASF39:
 3063 0565 6572726F 		.ascii	"error\000"
 3063      7200
 3064              	.LASF24:
 3065 056b 7061796C 		.ascii	"payload_len\000"
 3065      6F61645F 
 3065      6C656E00 
 3066              	.LASF27:
 3067 0577 7472616E 		.ascii	"transfer_id\000"
 3067      73666572 
 3067      5F696400 
 3068              	.LASF59:
 3069 0583 63616E61 		.ascii	"canardDecodeScalar\000"
 3069      72644465 
 3069      636F6465 
 3069      5363616C 
 3069      617200
 3070              	.LASF50:
 3071 0596 6D73675F 		.ascii	"msg_buf\000"
 3071      62756600 
 3072              	.LASF33:
 3073 059e 6E657874 		.ascii	"next\000"
 3073      00
 3074              	.LASF63:
 3075 05a3 474E5520 		.ascii	"GNU C99 7.3.1 20180622 (release) [ARM/embedded-7-br"
 3075      43393920 
 3075      372E332E 
 3075      31203230 
 3075      31383036 
 3076 05d6 616E6368 		.ascii	"anch revision 261907] -mcpu=cortex-m4 -mfloat-abi=h"
 3076      20726576 
 3076      6973696F 
 3076      6E203236 
 3076      31393037 
 3077 0609 61726420 		.ascii	"ard -mfpu=fpv4-sp-d16 -mno-thumb-interwork -mthumb "
 3077      2D6D6670 
 3077      753D6670 
 3077      76342D73 
 3077      702D6431 
 3078 063c 2D676764 		.ascii	"-ggdb -O2 -std=gnu99 -fomit-frame-pointer -falign-f"
 3078      62202D4F 
 3078      32202D73 
 3078      74643D67 
 3078      6E753939 
 3079 066f 756E6374 		.ascii	"unctions=16 -ffunction-sections -fdata-sections -fn"
 3079      696F6E73 
 3079      3D313620 
 3079      2D666675 
 3079      6E637469 
 3080 06a2 6F2D636F 		.ascii	"o-common -fsingle-precision-constant\000"
 3080      6D6D6F6E 
 3080      202D6673 
 3080      696E676C 
 3080      652D7072 
 3081              		.ident	"GCC: (GNU Tools for Arm Embedded Processors 7-2018-q3-update) 7.3.1 20180622 (release) [AR
ARM GAS  /tmp/ccOpqeZy.s 			page 59


DEFINED SYMBOLS
                            *ABS*:0000000000000000 file_BeginFirmwareUpdate.c
     /tmp/ccOpqeZy.s:18     .text.uavcan_protocol_file_BeginFirmwareUpdateRequest_encode_internal:0000000000000000 $t
     /tmp/ccOpqeZy.s:26     .text.uavcan_protocol_file_BeginFirmwareUpdateRequest_encode_internal:0000000000000000 uavcan_protocol_file_BeginFirmwareUpdateRequest_encode_internal
     /tmp/ccOpqeZy.s:76     .text.uavcan_protocol_file_BeginFirmwareUpdateRequest_encode:0000000000000000 $t
     /tmp/ccOpqeZy.s:84     .text.uavcan_protocol_file_BeginFirmwareUpdateRequest_encode:0000000000000000 uavcan_protocol_file_BeginFirmwareUpdateRequest_encode
     /tmp/ccOpqeZy.s:111    .text.uavcan_protocol_file_BeginFirmwareUpdateRequest_decode_internal:0000000000000000 $t
     /tmp/ccOpqeZy.s:119    .text.uavcan_protocol_file_BeginFirmwareUpdateRequest_decode_internal:0000000000000000 uavcan_protocol_file_BeginFirmwareUpdateRequest_decode_internal
     /tmp/ccOpqeZy.s:204    .text.uavcan_protocol_file_BeginFirmwareUpdateRequest_decode:0000000000000000 $t
     /tmp/ccOpqeZy.s:212    .text.uavcan_protocol_file_BeginFirmwareUpdateRequest_decode:0000000000000000 uavcan_protocol_file_BeginFirmwareUpdateRequest_decode
     /tmp/ccOpqeZy.s:253    .text.uavcan_protocol_file_BeginFirmwareUpdateResponse_encode_internal:0000000000000000 $t
     /tmp/ccOpqeZy.s:261    .text.uavcan_protocol_file_BeginFirmwareUpdateResponse_encode_internal:0000000000000000 uavcan_protocol_file_BeginFirmwareUpdateResponse_encode_internal
     /tmp/ccOpqeZy.s:349    .text.uavcan_protocol_file_BeginFirmwareUpdateResponse_encode:0000000000000000 $t
     /tmp/ccOpqeZy.s:357    .text.uavcan_protocol_file_BeginFirmwareUpdateResponse_encode:0000000000000000 uavcan_protocol_file_BeginFirmwareUpdateResponse_encode
     /tmp/ccOpqeZy.s:384    .text.uavcan_protocol_file_BeginFirmwareUpdateResponse_decode_internal:0000000000000000 $t
     /tmp/ccOpqeZy.s:392    .text.uavcan_protocol_file_BeginFirmwareUpdateResponse_decode_internal:0000000000000000 uavcan_protocol_file_BeginFirmwareUpdateResponse_decode_internal
     /tmp/ccOpqeZy.s:553    .text.uavcan_protocol_file_BeginFirmwareUpdateResponse_decode:0000000000000000 $t
     /tmp/ccOpqeZy.s:561    .text.uavcan_protocol_file_BeginFirmwareUpdateResponse_decode:0000000000000000 uavcan_protocol_file_BeginFirmwareUpdateResponse_decode

UNDEFINED SYMBOLS
canardEncodeScalar
uavcan_protocol_file_Path_encode_internal
canardDecodeScalar
uavcan_protocol_file_Path_decode_internal
