ARM GAS  /tmp/ccILeSG1.s 			page 1


   1              		.cpu cortex-m4
   2              		.eabi_attribute 27, 1
   3              		.eabi_attribute 28, 1
   4              		.eabi_attribute 20, 1
   5              		.eabi_attribute 21, 1
   6              		.eabi_attribute 23, 3
   7              		.eabi_attribute 24, 1
   8              		.eabi_attribute 25, 1
   9              		.eabi_attribute 26, 1
  10              		.eabi_attribute 30, 2
  11              		.eabi_attribute 34, 1
  12              		.eabi_attribute 18, 4
  13              		.file	"flash_helper.c"
  14              		.text
  15              	.Ltext0:
  16              		.cfi_sections	.debug_frame
  17              		.section	.text.erase_sector,"ax",%progbits
  18              		.align	1
  19              		.p2align 4,,15
  20              		.syntax unified
  21              		.thumb
  22              		.thumb_func
  23              		.fpu fpv4-sp-d16
  24              		.type	erase_sector, %function
  25              	erase_sector:
  26              	.LFB268:
  27              		.file 1 "flash_helper.c"
  28              		.loc 1 373 0
  29              		.cfi_startproc
  30              		@ args = 0, pretend = 0, frame = 0
  31              		@ frame_needed = 0, uses_anonymous_args = 0
  32              	.LVL0:
  33 0000 10B5     		push	{r4, lr}
  34              		.cfi_def_cfa_offset 8
  35              		.cfi_offset 4, -8
  36              		.cfi_offset 14, -4
  37              		.loc 1 373 0
  38 0002 0446     		mov	r4, r0
  39              		.loc 1 374 0
  40 0004 FFF7FEFF 		bl	FLASH_Unlock
  41              	.LVL1:
  42              		.loc 1 375 0
  43 0008 F220     		movs	r0, #242
  44 000a FFF7FEFF 		bl	FLASH_ClearFlag
  45              	.LVL2:
  46              		.loc 1 378 0
  47 000e FFF7FEFF 		bl	mc_interface_release_motor_override
  48              	.LVL3:
  49              		.loc 1 379 0
  50 0012 41F28830 		movw	r0, #5000
  51 0016 FFF7FEFF 		bl	mc_interface_ignore_input_both
  52              	.LVL4:
  53              		.loc 1 381 0
  54 001a B0EE080A 		vmov.f32	s0, #3.0e+0
  55 001e FFF7FEFF 		bl	mc_interface_wait_for_motor_release
  56              	.LVL5:
  57 0022 A0B1     		cbz	r0, .L4
ARM GAS  /tmp/ccILeSG1.s 			page 2


  58              		.loc 1 385 0
  59 0024 FFF7FEFF 		bl	utils_sys_lock_cnt
  60              	.LVL6:
  61              		.loc 1 386 0
  62 0028 FFF7FEFF 		bl	timeout_configure_IWDT_slowest
  63              	.LVL7:
  64              		.loc 1 388 0
  65 002c 0221     		movs	r1, #2
  66 002e 2046     		mov	r0, r4
  67 0030 FFF7FEFF 		bl	FLASH_EraseSector
  68              	.LVL8:
  69 0034 84B2     		uxth	r4, r0
  70              	.LVL9:
  71              	.LBB36:
  72              	.LBB37:
  73              		.loc 1 398 0
  74 0036 FFF7FEFF 		bl	FLASH_Lock
  75              	.LVL10:
  76              		.loc 1 399 0
  77 003a FFF7FEFF 		bl	timeout_configure_IWDT
  78              	.LVL11:
  79              		.loc 1 400 0
  80 003e 41F28830 		movw	r0, #5000
  81 0042 FFF7FEFF 		bl	mc_interface_ignore_input_both
  82              	.LVL12:
  83              		.loc 1 401 0
  84 0046 FFF7FEFF 		bl	utils_sys_unlock_cnt
  85              	.LVL13:
  86              	.LBE37:
  87              	.LBE36:
  88              		.loc 1 404 0
  89 004a 2046     		mov	r0, r4
  90 004c 10BD     		pop	{r4, pc}
  91              	.LVL14:
  92              	.L4:
  93              		.loc 1 382 0
  94 004e 6424     		movs	r4, #100
  95              	.LVL15:
  96              		.loc 1 404 0
  97 0050 2046     		mov	r0, r4
  98 0052 10BD     		pop	{r4, pc}
  99              		.cfi_endproc
 100              	.LFE268:
 101              		.size	erase_sector, .-erase_sector
 102              		.section	.text.qmlui_check.part.2,"ax",%progbits
 103              		.align	1
 104              		.p2align 4,,15
 105              		.syntax unified
 106              		.thumb
 107              		.thumb_func
 108              		.fpu fpv4-sp-d16
 109              		.type	qmlui_check.part.2, %function
 110              	qmlui_check.part.2:
 111              	.LFB273:
 112              		.loc 1 441 0
 113              		.cfi_startproc
 114              		@ args = 0, pretend = 0, frame = 8
ARM GAS  /tmp/ccILeSG1.s 			page 3


 115              		@ frame_needed = 0, uses_anonymous_args = 0
 116              	.LVL16:
 117 0000 2DE9F041 		push	{r4, r5, r6, r7, r8, lr}
 118              		.cfi_def_cfa_offset 24
 119              		.cfi_offset 4, -24
 120              		.cfi_offset 5, -20
 121              		.cfi_offset 6, -16
 122              		.cfi_offset 7, -12
 123              		.cfi_offset 8, -8
 124              		.cfi_offset 14, -4
 125              		.loc 1 446 0
 126 0004 1B4A     		ldr	r2, .L12
 127 0006 1C4B     		ldr	r3, .L12+4
 128 0008 52F82020 		ldr	r2, [r2, r0, lsl #2]
 129              		.loc 1 441 0
 130 000c 82B0     		sub	sp, sp, #8
 131              		.cfi_def_cfa_offset 32
 132              		.loc 1 447 0
 133 000e 02AC     		add	r4, sp, #8
 134 0010 0027     		movs	r7, #0
 135              		.loc 1 446 0
 136 0012 53F82260 		ldr	r6, [r3, r2, lsl #2]
 137              	.LVL17:
 138              		.loc 1 447 0
 139 0016 44F8047D 		str	r7, [r4, #-4]!
 140              		.loc 1 441 0
 141 001a 0546     		mov	r5, r0
 142              		.loc 1 448 0
 143 001c 2146     		mov	r1, r4
 144 001e 3046     		mov	r0, r6
 145              	.LVL18:
 146 0020 FFF7FEFF 		bl	buffer_get_uint32
 147              	.LVL19:
 148              		.loc 1 449 0
 149 0024 2146     		mov	r1, r4
 150              		.loc 1 448 0
 151 0026 8046     		mov	r8, r0
 152              	.LVL20:
 153              		.loc 1 449 0
 154 0028 3046     		mov	r0, r6
 155              	.LVL21:
 156 002a FFF7FEFF 		bl	buffer_get_uint16
 157              	.LVL22:
 158              		.loc 1 451 0
 159 002e 134B     		ldr	r3, .L12+8
 160 0030 9845     		cmp	r8, r3
 161 0032 09D9     		bls	.L11
 162              		.loc 1 455 0
 163 0034 124B     		ldr	r3, .L12+12
 164 0036 03EB4502 		add	r2, r3, r5, lsl #1
 165 003a 5770     		strb	r7, [r2, #1]
 166              		.loc 1 458 0
 167 003c 0122     		movs	r2, #1
 168 003e 03F81520 		strb	r2, [r3, r5, lsl #1]
 169              		.loc 1 459 0
 170 0042 02B0     		add	sp, sp, #8
 171              		.cfi_remember_state
ARM GAS  /tmp/ccILeSG1.s 			page 4


 172              		.cfi_def_cfa_offset 24
 173              		@ sp needed
 174 0044 BDE8F081 		pop	{r4, r5, r6, r7, r8, pc}
 175              	.LVL23:
 176              	.L11:
 177              		.cfi_restore_state
 178 0048 0446     		mov	r4, r0
 179              	.LBB38:
 180              		.loc 1 452 0
 181 004a 0198     		ldr	r0, [sp, #4]
 182              	.LVL24:
 183 004c 08F10201 		add	r1, r8, #2
 184 0050 3044     		add	r0, r0, r6
 185 0052 FFF7FEFF 		bl	crc16
 186              	.LVL25:
 187              		.loc 1 453 0
 188 0056 0A4B     		ldr	r3, .L12+12
 189 0058 201A     		subs	r0, r4, r0
 190              	.LVL26:
 191 005a 03EB4502 		add	r2, r3, r5, lsl #1
 192 005e B0FA80F0 		clz	r0, r0
 193 0062 4009     		lsrs	r0, r0, #5
 194 0064 5070     		strb	r0, [r2, #1]
 195              	.LBE38:
 196              		.loc 1 458 0
 197 0066 0122     		movs	r2, #1
 198 0068 03F81520 		strb	r2, [r3, r5, lsl #1]
 199              		.loc 1 459 0
 200 006c 02B0     		add	sp, sp, #8
 201              		.cfi_def_cfa_offset 24
 202              		@ sp needed
 203 006e BDE8F081 		pop	{r4, r5, r6, r7, r8, pc}
 204              	.LVL27:
 205              	.L13:
 206 0072 00BF     		.align	2
 207              	.L12:
 208 0074 00000000 		.word	.LANCHOR1
 209 0078 00000000 		.word	.LANCHOR0
 210 007c F8FF0100 		.word	131064
 211 0080 00000000 		.word	.LANCHOR2
 212              		.cfi_endproc
 213              	.LFE273:
 214              		.size	qmlui_check.part.2, .-qmlui_check.part.2
 215              		.section	.text.write_data,"ax",%progbits
 216              		.align	1
 217              		.p2align 4,,15
 218              		.syntax unified
 219              		.thumb
 220              		.thumb_func
 221              		.fpu fpv4-sp-d16
 222              		.type	write_data, %function
 223              	write_data:
 224              	.LFB269:
 225              		.loc 1 406 0
 226              		.cfi_startproc
 227              		@ args = 0, pretend = 0, frame = 0
 228              		@ frame_needed = 0, uses_anonymous_args = 0
ARM GAS  /tmp/ccILeSG1.s 			page 5


 229              	.LVL28:
 230 0000 F8B5     		push	{r3, r4, r5, r6, r7, lr}
 231              		.cfi_def_cfa_offset 24
 232              		.cfi_offset 3, -24
 233              		.cfi_offset 4, -20
 234              		.cfi_offset 5, -16
 235              		.cfi_offset 6, -12
 236              		.cfi_offset 7, -8
 237              		.cfi_offset 14, -4
 238              		.loc 1 406 0
 239 0002 0E46     		mov	r6, r1
 240 0004 1546     		mov	r5, r2
 241 0006 0746     		mov	r7, r0
 242              		.loc 1 407 0
 243 0008 FFF7FEFF 		bl	FLASH_Unlock
 244              	.LVL29:
 245              		.loc 1 408 0
 246 000c F220     		movs	r0, #242
 247 000e FFF7FEFF 		bl	FLASH_ClearFlag
 248              	.LVL30:
 249              		.loc 1 411 0
 250 0012 FFF7FEFF 		bl	mc_interface_release_motor_override
 251              	.LVL31:
 252              		.loc 1 412 0
 253 0016 41F28830 		movw	r0, #5000
 254 001a FFF7FEFF 		bl	mc_interface_ignore_input_both
 255              	.LVL32:
 256              		.loc 1 414 0
 257 001e B0EE080A 		vmov.f32	s0, #3.0e+0
 258 0022 FFF7FEFF 		bl	mc_interface_wait_for_motor_release
 259              	.LVL33:
 260 0026 58B3     		cbz	r0, .L19
 261              		.loc 1 418 0
 262 0028 FFF7FEFF 		bl	utils_sys_lock_cnt
 263              	.LVL34:
 264              		.loc 1 419 0
 265 002c FFF7FEFF 		bl	timeout_configure_IWDT_slowest
 266              	.LVL35:
 267              	.LBB43:
 268              		.loc 1 421 0
 269 0030 CDB1     		cbz	r5, .L16
 270 0032 3446     		mov	r4, r6
 271 0034 3F1B     		subs	r7, r7, r4
 272              	.LVL36:
 273 0036 2E44     		add	r6, r6, r5
 274              	.LVL37:
 275 0038 01E0     		b	.L18
 276              	.LVL38:
 277              	.L17:
 278              		.loc 1 421 0 is_stmt 0 discriminator 2
 279 003a B442     		cmp	r4, r6
 280 003c 13D0     		beq	.L16
 281              	.LVL39:
 282              	.L18:
 283 003e 3819     		adds	r0, r7, r4
 284              	.LBB44:
 285              		.loc 1 422 0 is_stmt 1
ARM GAS  /tmp/ccILeSG1.s 			page 6


 286 0040 14F8011B 		ldrb	r1, [r4], #1	@ zero_extendqisi2
 287              	.LVL40:
 288 0044 FFF7FEFF 		bl	FLASH_ProgramByte
 289              	.LVL41:
 290 0048 85B2     		uxth	r5, r0
 291              	.LVL42:
 292              		.loc 1 423 0
 293 004a 092D     		cmp	r5, #9
 294 004c F5D0     		beq	.L17
 295              		.loc 1 424 0
 296 004e FFF7FEFF 		bl	FLASH_Lock
 297              	.LVL43:
 298              		.loc 1 425 0
 299 0052 FFF7FEFF 		bl	timeout_configure_IWDT
 300              	.LVL44:
 301              		.loc 1 426 0
 302 0056 41F28830 		movw	r0, #5000
 303 005a FFF7FEFF 		bl	mc_interface_ignore_input_both
 304              	.LVL45:
 305              		.loc 1 427 0
 306 005e FFF7FEFF 		bl	utils_sys_unlock_cnt
 307              	.LVL46:
 308              	.LBE44:
 309              	.LBE43:
 310              		.loc 1 439 0
 311 0062 2846     		mov	r0, r5
 312 0064 F8BD     		pop	{r3, r4, r5, r6, r7, pc}
 313              	.LVL47:
 314              	.L16:
 315              	.LBB45:
 316              	.LBB46:
 317              		.loc 1 398 0
 318 0066 FFF7FEFF 		bl	FLASH_Lock
 319              	.LVL48:
 320              		.loc 1 401 0
 321 006a 0925     		movs	r5, #9
 322              		.loc 1 399 0
 323 006c FFF7FEFF 		bl	timeout_configure_IWDT
 324              	.LVL49:
 325              		.loc 1 400 0
 326 0070 41F28830 		movw	r0, #5000
 327 0074 FFF7FEFF 		bl	mc_interface_ignore_input_both
 328              	.LVL50:
 329              		.loc 1 401 0
 330 0078 FFF7FEFF 		bl	utils_sys_unlock_cnt
 331              	.LVL51:
 332              	.LBE46:
 333              	.LBE45:
 334              		.loc 1 439 0
 335 007c 2846     		mov	r0, r5
 336 007e F8BD     		pop	{r3, r4, r5, r6, r7, pc}
 337              	.LVL52:
 338              	.L19:
 339              		.loc 1 415 0
 340 0080 6425     		movs	r5, #100
 341              	.LVL53:
 342              		.loc 1 439 0
ARM GAS  /tmp/ccILeSG1.s 			page 7


 343 0082 2846     		mov	r0, r5
 344 0084 F8BD     		pop	{r3, r4, r5, r6, r7, pc}
 345              		.cfi_endproc
 346              	.LFE269:
 347              		.size	write_data, .-write_data
 348 0086 00BF     		.section	.text.flash_helper_erase_new_app,"ax",%progbits
 349              		.align	1
 350              		.p2align 4,,15
 351              		.global	flash_helper_erase_new_app
 352              		.syntax unified
 353              		.thumb
 354              		.thumb_func
 355              		.fpu fpv4-sp-d16
 356              		.type	flash_helper_erase_new_app, %function
 357              	flash_helper_erase_new_app:
 358              	.LFB256:
 359              		.loc 1 123 0
 360              		.cfi_startproc
 361              		@ args = 0, pretend = 0, frame = 0
 362              		@ frame_needed = 0, uses_anonymous_args = 0
 363              	.LVL54:
 364 0000 38B5     		push	{r3, r4, r5, lr}
 365              		.cfi_def_cfa_offset 16
 366              		.cfi_offset 3, -16
 367              		.cfi_offset 4, -12
 368              		.cfi_offset 5, -8
 369              		.cfi_offset 14, -4
 370              		.loc 1 123 0
 371 0002 0546     		mov	r5, r0
 372              		.loc 1 124 0
 373 0004 FFF7FEFF 		bl	FLASH_Unlock
 374              	.LVL55:
 375              		.loc 1 125 0
 376 0008 F220     		movs	r0, #242
 377 000a FFF7FEFF 		bl	FLASH_ClearFlag
 378              	.LVL56:
 379              		.loc 1 130 0
 380 000e FFF7FEFF 		bl	mc_interface_release_motor_override
 381              	.LVL57:
 382              		.loc 1 131 0
 383 0012 41F28830 		movw	r0, #5000
 384 0016 FFF7FEFF 		bl	mc_interface_ignore_input_both
 385              	.LVL58:
 386              		.loc 1 133 0
 387 001a B0EE080A 		vmov.f32	s0, #3.0e+0
 388 001e FFF7FEFF 		bl	mc_interface_wait_for_motor_release
 389              	.LVL59:
 390 0022 90B3     		cbz	r0, .L29
 391              		.loc 1 137 0
 392 0024 FFF7FEFF 		bl	utils_sys_lock_cnt
 393              	.LVL60:
 394              		.loc 1 128 0
 395 0028 05F10065 		add	r5, r5, #134217728
 396              	.LVL61:
 397              		.loc 1 138 0
 398 002c FFF7FEFF 		bl	timeout_configure_IWDT_slowest
 399              	.LVL62:
ARM GAS  /tmp/ccILeSG1.s 			page 8


 400              	.LBB47:
 401              		.loc 1 141 0
 402 0030 1D4B     		ldr	r3, .L34
 403              	.LBE47:
 404              		.loc 1 128 0
 405 0032 05F50025 		add	r5, r5, #524288
 406              	.LVL63:
 407              	.LBB52:
 408              		.loc 1 141 0
 409 0036 9D42     		cmp	r5, r3
 410 0038 1AD9     		bls	.L27
 411              	.LBB48:
 412              		.loc 1 142 0
 413 003a 0221     		movs	r1, #2
 414 003c 4020     		movs	r0, #64
 415 003e FFF7FEFF 		bl	FLASH_EraseSector
 416              	.LVL64:
 417 0042 84B2     		uxth	r4, r0
 418              	.LVL65:
 419              		.loc 1 143 0
 420 0044 092C     		cmp	r4, #9
 421 0046 23D1     		bne	.L28
 422              	.LVL66:
 423              	.LBE48:
 424              		.loc 1 141 0
 425 0048 184B     		ldr	r3, .L34+4
 426 004a 9D42     		cmp	r5, r3
 427 004c 10D9     		bls	.L27
 428              	.LBB49:
 429              		.loc 1 142 0
 430 004e 0221     		movs	r1, #2
 431 0050 4820     		movs	r0, #72
 432 0052 FFF7FEFF 		bl	FLASH_EraseSector
 433              	.LVL67:
 434 0056 84B2     		uxth	r4, r0
 435              	.LVL68:
 436              		.loc 1 143 0
 437 0058 092C     		cmp	r4, #9
 438 005a 19D1     		bne	.L28
 439              	.LVL69:
 440              	.LBE49:
 441              		.loc 1 141 0
 442 005c 144B     		ldr	r3, .L34+8
 443 005e 9D42     		cmp	r5, r3
 444 0060 06D9     		bls	.L27
 445              	.LBB50:
 446              		.loc 1 142 0
 447 0062 0221     		movs	r1, #2
 448 0064 5020     		movs	r0, #80
 449 0066 FFF7FEFF 		bl	FLASH_EraseSector
 450              	.LVL70:
 451 006a 84B2     		uxth	r4, r0
 452              	.LVL71:
 453              		.loc 1 143 0
 454 006c 092C     		cmp	r4, #9
 455 006e 0FD1     		bne	.L28
 456              	.LVL72:
ARM GAS  /tmp/ccILeSG1.s 			page 9


 457              	.L27:
 458              	.LBE50:
 459              	.LBE52:
 460              		.loc 1 155 0
 461 0070 FFF7FEFF 		bl	FLASH_Lock
 462              	.LVL73:
 463              		.loc 1 156 0
 464 0074 FFF7FEFF 		bl	timeout_configure_IWDT
 465              	.LVL74:
 466              		.loc 1 157 0
 467 0078 41F28830 		movw	r0, #5000
 468 007c FFF7FEFF 		bl	mc_interface_ignore_input_both
 469              	.LVL75:
 470              		.loc 1 160 0
 471 0080 0924     		movs	r4, #9
 472              		.loc 1 158 0
 473 0082 FFF7FEFF 		bl	utils_sys_unlock_cnt
 474              	.LVL76:
 475              	.L26:
 476              		.loc 1 161 0
 477 0086 2046     		mov	r0, r4
 478 0088 38BD     		pop	{r3, r4, r5, pc}
 479              	.LVL77:
 480              	.L29:
 481              		.loc 1 134 0
 482 008a 6424     		movs	r4, #100
 483              		.loc 1 161 0
 484 008c 2046     		mov	r0, r4
 485 008e 38BD     		pop	{r3, r4, r5, pc}
 486              	.LVL78:
 487              	.L28:
 488              	.LBB53:
 489              	.LBB51:
 490              		.loc 1 144 0
 491 0090 FFF7FEFF 		bl	FLASH_Lock
 492              	.LVL79:
 493              		.loc 1 145 0
 494 0094 FFF7FEFF 		bl	timeout_configure_IWDT
 495              	.LVL80:
 496              		.loc 1 146 0
 497 0098 41F28830 		movw	r0, #5000
 498 009c FFF7FEFF 		bl	mc_interface_ignore_input_both
 499              	.LVL81:
 500              		.loc 1 147 0
 501 00a0 FFF7FEFF 		bl	utils_sys_unlock_cnt
 502              	.LVL82:
 503              		.loc 1 148 0
 504 00a4 EFE7     		b	.L26
 505              	.L35:
 506 00a6 00BF     		.align	2
 507              	.L34:
 508 00a8 00000808 		.word	134742016
 509 00ac 00000A08 		.word	134873088
 510 00b0 00000C08 		.word	135004160
 511              	.LBE51:
 512              	.LBE53:
 513              		.cfi_endproc
ARM GAS  /tmp/ccILeSG1.s 			page 10


 514              	.LFE256:
 515              		.size	flash_helper_erase_new_app, .-flash_helper_erase_new_app
 516              		.section	.text.flash_helper_erase_bootloader,"ax",%progbits
 517              		.align	1
 518              		.p2align 4,,15
 519              		.global	flash_helper_erase_bootloader
 520              		.syntax unified
 521              		.thumb
 522              		.thumb_func
 523              		.fpu fpv4-sp-d16
 524              		.type	flash_helper_erase_bootloader, %function
 525              	flash_helper_erase_bootloader:
 526              	.LFB257:
 527              		.loc 1 163 0
 528              		.cfi_startproc
 529              		@ args = 0, pretend = 0, frame = 0
 530              		@ frame_needed = 0, uses_anonymous_args = 0
 531              		@ link register save eliminated.
 532              		.loc 1 164 0
 533 0000 5820     		movs	r0, #88
 534 0002 FFF7FEBF 		b	erase_sector
 535              	.LVL83:
 536              		.cfi_endproc
 537              	.LFE257:
 538              		.size	flash_helper_erase_bootloader, .-flash_helper_erase_bootloader
 539 0006 00BF     		.section	.text.flash_helper_write_new_app_data,"ax",%progbits
 540              		.align	1
 541              		.p2align 4,,15
 542              		.global	flash_helper_write_new_app_data
 543              		.syntax unified
 544              		.thumb
 545              		.thumb_func
 546              		.fpu fpv4-sp-d16
 547              		.type	flash_helper_write_new_app_data, %function
 548              	flash_helper_write_new_app_data:
 549              	.LFB258:
 550              		.loc 1 167 0
 551              		.cfi_startproc
 552              		@ args = 0, pretend = 0, frame = 0
 553              		@ frame_needed = 0, uses_anonymous_args = 0
 554              		@ link register save eliminated.
 555              	.LVL84:
 556              		.loc 1 168 0
 557 0000 00F10060 		add	r0, r0, #134217728
 558              	.LVL85:
 559 0004 00F50020 		add	r0, r0, #524288
 560              	.LVL86:
 561 0008 FFF7FEBF 		b	write_data
 562              	.LVL87:
 563              		.cfi_endproc
 564              	.LFE258:
 565              		.size	flash_helper_write_new_app_data, .-flash_helper_write_new_app_data
 566              		.section	.text.flash_helper_erase_code,"ax",%progbits
 567              		.align	1
 568              		.p2align 4,,15
 569              		.global	flash_helper_erase_code
 570              		.syntax unified
ARM GAS  /tmp/ccILeSG1.s 			page 11


 571              		.thumb
 572              		.thumb_func
 573              		.fpu fpv4-sp-d16
 574              		.type	flash_helper_erase_code, %function
 575              	flash_helper_erase_code:
 576              	.LFB259:
 577              		.loc 1 171 0
 578              		.cfi_startproc
 579              		@ args = 0, pretend = 0, frame = 0
 580              		@ frame_needed = 0, uses_anonymous_args = 0
 581              		@ link register save eliminated.
 582              	.LVL88:
 583              		.loc 1 174 0
 584 0000 0949     		ldr	r1, .L40
 585              		.loc 1 172 0
 586 0002 0A4A     		ldr	r2, .L40+4
 587              		.loc 1 171 0
 588 0004 0346     		mov	r3, r0
 589              		.loc 1 174 0
 590 0006 51F82000 		ldr	r0, [r1, r0, lsl #2]
 591              	.LVL89:
 592 000a 0949     		ldr	r1, .L40+8
 593              		.loc 1 171 0
 594 000c 10B4     		push	{r4}
 595              		.cfi_def_cfa_offset 4
 596              		.cfi_offset 4, -4
 597              		.loc 1 173 0
 598 000e 02EB4304 		add	r4, r2, r3, lsl #1
 599              		.loc 1 174 0
 600 0012 31F81000 		ldrh	r0, [r1, r0, lsl #1]
 601              		.loc 1 172 0
 602 0016 0021     		movs	r1, #0
 603              		.loc 1 173 0
 604 0018 6170     		strb	r1, [r4, #1]
 605              		.loc 1 172 0
 606 001a 02F81310 		strb	r1, [r2, r3, lsl #1]
 607              		.loc 1 175 0
 608 001e 5DF8044B 		ldr	r4, [sp], #4
 609              		.cfi_restore 4
 610              		.cfi_def_cfa_offset 0
 611              		.loc 1 174 0
 612 0022 FFF7FEBF 		b	erase_sector
 613              	.LVL90:
 614              	.L41:
 615 0026 00BF     		.align	2
 616              	.L40:
 617 0028 00000000 		.word	.LANCHOR1
 618 002c 00000000 		.word	.LANCHOR2
 619 0030 00000000 		.word	.LANCHOR3
 620              		.cfi_endproc
 621              	.LFE259:
 622              		.size	flash_helper_erase_code, .-flash_helper_erase_code
 623              		.section	.text.flash_helper_write_code,"ax",%progbits
 624              		.align	1
 625              		.p2align 4,,15
 626              		.global	flash_helper_write_code
 627              		.syntax unified
ARM GAS  /tmp/ccILeSG1.s 			page 12


 628              		.thumb
 629              		.thumb_func
 630              		.fpu fpv4-sp-d16
 631              		.type	flash_helper_write_code, %function
 632              	flash_helper_write_code:
 633              	.LFB260:
 634              		.loc 1 177 0
 635              		.cfi_startproc
 636              		@ args = 0, pretend = 0, frame = 0
 637              		@ frame_needed = 0, uses_anonymous_args = 0
 638              		@ link register save eliminated.
 639              	.LVL91:
 640 0000 F0B4     		push	{r4, r5, r6, r7}
 641              		.cfi_def_cfa_offset 16
 642              		.cfi_offset 4, -16
 643              		.cfi_offset 5, -12
 644              		.cfi_offset 6, -8
 645              		.cfi_offset 7, -4
 646              		.loc 1 177 0
 647 0002 0446     		mov	r4, r0
 648              		.loc 1 180 0
 649 0004 094D     		ldr	r5, .L44
 650 0006 0A48     		ldr	r0, .L44+4
 651              	.LVL92:
 652 0008 55F82460 		ldr	r6, [r5, r4, lsl #2]
 653              		.loc 1 178 0
 654 000c 094D     		ldr	r5, .L44+8
 655              		.loc 1 180 0
 656 000e 50F82600 		ldr	r0, [r0, r6, lsl #2]
 657              		.loc 1 179 0
 658 0012 05EB4406 		add	r6, r5, r4, lsl #1
 659              		.loc 1 177 0
 660 0016 1746     		mov	r7, r2
 661              		.loc 1 180 0
 662 0018 1A46     		mov	r2, r3
 663              	.LVL93:
 664              		.loc 1 178 0
 665 001a 0023     		movs	r3, #0
 666              	.LVL94:
 667              		.loc 1 180 0
 668 001c 0844     		add	r0, r0, r1
 669              		.loc 1 179 0
 670 001e 7370     		strb	r3, [r6, #1]
 671              		.loc 1 180 0
 672 0020 3946     		mov	r1, r7
 673              	.LVL95:
 674              		.loc 1 178 0
 675 0022 05F81430 		strb	r3, [r5, r4, lsl #1]
 676              		.loc 1 181 0
 677 0026 F0BC     		pop	{r4, r5, r6, r7}
 678              		.cfi_restore 7
 679              		.cfi_restore 6
 680              		.cfi_restore 5
 681              		.cfi_restore 4
 682              		.cfi_def_cfa_offset 0
 683              	.LVL96:
 684              		.loc 1 180 0
ARM GAS  /tmp/ccILeSG1.s 			page 13


 685 0028 FFF7FEBF 		b	write_data
 686              	.LVL97:
 687              	.L45:
 688              		.align	2
 689              	.L44:
 690 002c 00000000 		.word	.LANCHOR1
 691 0030 00000000 		.word	.LANCHOR0
 692 0034 00000000 		.word	.LANCHOR2
 693              		.cfi_endproc
 694              	.LFE260:
 695              		.size	flash_helper_write_code, .-flash_helper_write_code
 696              		.section	.text.flash_helper_code_data,"ax",%progbits
 697              		.align	1
 698              		.p2align 4,,15
 699              		.global	flash_helper_code_data
 700              		.syntax unified
 701              		.thumb
 702              		.thumb_func
 703              		.fpu fpv4-sp-d16
 704              		.type	flash_helper_code_data, %function
 705              	flash_helper_code_data:
 706              	.LFB261:
 707              		.loc 1 183 0
 708              		.cfi_startproc
 709              		@ args = 0, pretend = 0, frame = 0
 710              		@ frame_needed = 0, uses_anonymous_args = 0
 711              	.LVL98:
 712 0000 38B5     		push	{r3, r4, r5, lr}
 713              		.cfi_def_cfa_offset 16
 714              		.cfi_offset 3, -16
 715              		.cfi_offset 4, -12
 716              		.cfi_offset 5, -8
 717              		.cfi_offset 14, -4
 718              	.LBB54:
 719              	.LBB55:
 720              		.loc 1 442 0
 721 0002 0C4C     		ldr	r4, .L53
 722 0004 14F81030 		ldrb	r3, [r4, r0, lsl #1]	@ zero_extendqisi2
 723              	.LBE55:
 724              	.LBE54:
 725              		.loc 1 183 0
 726 0008 0546     		mov	r5, r0
 727              	.LVL99:
 728              	.LBB58:
 729              	.LBB56:
 730              		.loc 1 442 0
 731 000a 5BB1     		cbz	r3, .L47
 732              	.LVL100:
 733              	.L50:
 734              	.LBE56:
 735              	.LBE58:
 736              		.loc 1 186 0
 737 000c 04EB4504 		add	r4, r4, r5, lsl #1
 738 0010 6378     		ldrb	r3, [r4, #1]	@ zero_extendqisi2
 739 0012 6BB1     		cbz	r3, .L49
 740              		.loc 1 187 0
 741 0014 084A     		ldr	r2, .L53+4
ARM GAS  /tmp/ccILeSG1.s 			page 14


 742 0016 094B     		ldr	r3, .L53+8
 743 0018 52F82520 		ldr	r2, [r2, r5, lsl #2]
 744 001c 53F82200 		ldr	r0, [r3, r2, lsl #2]
 745 0020 0830     		adds	r0, r0, #8
 746              		.loc 1 191 0
 747 0022 38BD     		pop	{r3, r4, r5, pc}
 748              	.LVL101:
 749              	.L47:
 750              	.LBB59:
 751              	.LBB57:
 752 0024 FFF7FEFF 		bl	qmlui_check.part.2
 753              	.LVL102:
 754              	.LBE57:
 755              	.LBE59:
 756              		.loc 1 186 0
 757 0028 14F81530 		ldrb	r3, [r4, r5, lsl #1]	@ zero_extendqisi2
 758 002c 002B     		cmp	r3, #0
 759 002e EDD1     		bne	.L50
 760              	.L49:
 761              		.loc 1 189 0
 762 0030 0020     		movs	r0, #0
 763              		.loc 1 191 0
 764 0032 38BD     		pop	{r3, r4, r5, pc}
 765              	.LVL103:
 766              	.L54:
 767              		.align	2
 768              	.L53:
 769 0034 00000000 		.word	.LANCHOR2
 770 0038 00000000 		.word	.LANCHOR1
 771 003c 00000000 		.word	.LANCHOR0
 772              		.cfi_endproc
 773              	.LFE261:
 774              		.size	flash_helper_code_data, .-flash_helper_code_data
 775              		.section	.text.flash_helper_code_size,"ax",%progbits
 776              		.align	1
 777              		.p2align 4,,15
 778              		.global	flash_helper_code_size
 779              		.syntax unified
 780              		.thumb
 781              		.thumb_func
 782              		.fpu fpv4-sp-d16
 783              		.type	flash_helper_code_size, %function
 784              	flash_helper_code_size:
 785              	.LFB262:
 786              		.loc 1 193 0
 787              		.cfi_startproc
 788              		@ args = 0, pretend = 0, frame = 8
 789              		@ frame_needed = 0, uses_anonymous_args = 0
 790              	.LVL104:
 791 0000 30B5     		push	{r4, r5, lr}
 792              		.cfi_def_cfa_offset 12
 793              		.cfi_offset 4, -12
 794              		.cfi_offset 5, -8
 795              		.cfi_offset 14, -4
 796              	.LBB60:
 797              	.LBB61:
 798              		.loc 1 442 0
ARM GAS  /tmp/ccILeSG1.s 			page 15


 799 0002 114C     		ldr	r4, .L63
 800 0004 14F81030 		ldrb	r3, [r4, r0, lsl #1]	@ zero_extendqisi2
 801              	.LBE61:
 802              	.LBE60:
 803              		.loc 1 193 0
 804 0008 83B0     		sub	sp, sp, #12
 805              		.cfi_def_cfa_offset 24
 806              		.loc 1 193 0
 807 000a 0546     		mov	r5, r0
 808              	.LVL105:
 809              	.LBB64:
 810              	.LBB62:
 811              		.loc 1 442 0
 812 000c 33B1     		cbz	r3, .L56
 813              	.LVL106:
 814              	.L59:
 815              	.LBE62:
 816              	.LBE64:
 817              		.loc 1 196 0
 818 000e 04EB4504 		add	r4, r4, r5, lsl #1
 819 0012 6378     		ldrb	r3, [r4, #1]	@ zero_extendqisi2
 820 0014 4BB9     		cbnz	r3, .L62
 821              	.L58:
 822              		.loc 1 201 0
 823 0016 0020     		movs	r0, #0
 824              		.loc 1 203 0
 825 0018 03B0     		add	sp, sp, #12
 826              		.cfi_remember_state
 827              		.cfi_def_cfa_offset 12
 828              		@ sp needed
 829 001a 30BD     		pop	{r4, r5, pc}
 830              	.LVL107:
 831              	.L56:
 832              		.cfi_restore_state
 833              	.LBB65:
 834              	.LBB63:
 835 001c FFF7FEFF 		bl	qmlui_check.part.2
 836              	.LVL108:
 837              	.LBE63:
 838              	.LBE65:
 839              		.loc 1 196 0
 840 0020 14F81530 		ldrb	r3, [r4, r5, lsl #1]	@ zero_extendqisi2
 841 0024 002B     		cmp	r3, #0
 842 0026 F6D0     		beq	.L58
 843 0028 F1E7     		b	.L59
 844              	.L62:
 845              	.LBB66:
 846              		.loc 1 197 0
 847 002a 084B     		ldr	r3, .L63+4
 848 002c 084A     		ldr	r2, .L63+8
 849 002e 53F82500 		ldr	r0, [r3, r5, lsl #2]
 850              		.loc 1 198 0
 851 0032 02A9     		add	r1, sp, #8
 852 0034 0023     		movs	r3, #0
 853              		.loc 1 197 0
 854 0036 52F82000 		ldr	r0, [r2, r0, lsl #2]
 855              	.LVL109:
ARM GAS  /tmp/ccILeSG1.s 			page 16


 856              		.loc 1 198 0
 857 003a 41F8043D 		str	r3, [r1, #-4]!
 858              		.loc 1 199 0
 859 003e FFF7FEFF 		bl	buffer_get_uint32
 860              	.LVL110:
 861              	.LBE66:
 862              		.loc 1 203 0
 863 0042 03B0     		add	sp, sp, #12
 864              		.cfi_def_cfa_offset 12
 865              		@ sp needed
 866 0044 30BD     		pop	{r4, r5, pc}
 867              	.LVL111:
 868              	.L64:
 869 0046 00BF     		.align	2
 870              	.L63:
 871 0048 00000000 		.word	.LANCHOR2
 872 004c 00000000 		.word	.LANCHOR1
 873 0050 00000000 		.word	.LANCHOR0
 874              		.cfi_endproc
 875              	.LFE262:
 876              		.size	flash_helper_code_size, .-flash_helper_code_size
 877              		.section	.text.flash_helper_code_flags,"ax",%progbits
 878              		.align	1
 879              		.p2align 4,,15
 880              		.global	flash_helper_code_flags
 881              		.syntax unified
 882              		.thumb
 883              		.thumb_func
 884              		.fpu fpv4-sp-d16
 885              		.type	flash_helper_code_flags, %function
 886              	flash_helper_code_flags:
 887              	.LFB263:
 888              		.loc 1 205 0
 889              		.cfi_startproc
 890              		@ args = 0, pretend = 0, frame = 8
 891              		@ frame_needed = 0, uses_anonymous_args = 0
 892              	.LVL112:
 893 0000 30B5     		push	{r4, r5, lr}
 894              		.cfi_def_cfa_offset 12
 895              		.cfi_offset 4, -12
 896              		.cfi_offset 5, -8
 897              		.cfi_offset 14, -4
 898              	.LBB67:
 899              	.LBB68:
 900              		.loc 1 442 0
 901 0002 114C     		ldr	r4, .L73
 902 0004 14F81030 		ldrb	r3, [r4, r0, lsl #1]	@ zero_extendqisi2
 903              	.LBE68:
 904              	.LBE67:
 905              		.loc 1 205 0
 906 0008 83B0     		sub	sp, sp, #12
 907              		.cfi_def_cfa_offset 24
 908              		.loc 1 205 0
 909 000a 0546     		mov	r5, r0
 910              	.LVL113:
 911              	.LBB71:
 912              	.LBB69:
ARM GAS  /tmp/ccILeSG1.s 			page 17


 913              		.loc 1 442 0
 914 000c 33B1     		cbz	r3, .L66
 915              	.LVL114:
 916              	.L69:
 917              	.LBE69:
 918              	.LBE71:
 919              		.loc 1 208 0
 920 000e 04EB4504 		add	r4, r4, r5, lsl #1
 921 0012 6378     		ldrb	r3, [r4, #1]	@ zero_extendqisi2
 922 0014 4BB9     		cbnz	r3, .L72
 923              	.L68:
 924              		.loc 1 213 0
 925 0016 0020     		movs	r0, #0
 926              		.loc 1 215 0
 927 0018 03B0     		add	sp, sp, #12
 928              		.cfi_remember_state
 929              		.cfi_def_cfa_offset 12
 930              		@ sp needed
 931 001a 30BD     		pop	{r4, r5, pc}
 932              	.LVL115:
 933              	.L66:
 934              		.cfi_restore_state
 935              	.LBB72:
 936              	.LBB70:
 937 001c FFF7FEFF 		bl	qmlui_check.part.2
 938              	.LVL116:
 939              	.LBE70:
 940              	.LBE72:
 941              		.loc 1 208 0
 942 0020 14F81530 		ldrb	r3, [r4, r5, lsl #1]	@ zero_extendqisi2
 943 0024 002B     		cmp	r3, #0
 944 0026 F6D0     		beq	.L68
 945 0028 F1E7     		b	.L69
 946              	.L72:
 947              	.LBB73:
 948              		.loc 1 209 0
 949 002a 084B     		ldr	r3, .L73+4
 950 002c 084A     		ldr	r2, .L73+8
 951 002e 53F82500 		ldr	r0, [r3, r5, lsl #2]
 952              		.loc 1 210 0
 953 0032 02A9     		add	r1, sp, #8
 954 0034 0623     		movs	r3, #6
 955              		.loc 1 209 0
 956 0036 52F82000 		ldr	r0, [r2, r0, lsl #2]
 957              	.LVL117:
 958              		.loc 1 210 0
 959 003a 41F8043D 		str	r3, [r1, #-4]!
 960              		.loc 1 211 0
 961 003e FFF7FEFF 		bl	buffer_get_uint16
 962              	.LVL118:
 963              	.LBE73:
 964              		.loc 1 215 0
 965 0042 03B0     		add	sp, sp, #12
 966              		.cfi_def_cfa_offset 12
 967              		@ sp needed
 968 0044 30BD     		pop	{r4, r5, pc}
 969              	.LVL119:
ARM GAS  /tmp/ccILeSG1.s 			page 18


 970              	.L74:
 971 0046 00BF     		.align	2
 972              	.L73:
 973 0048 00000000 		.word	.LANCHOR2
 974 004c 00000000 		.word	.LANCHOR1
 975 0050 00000000 		.word	.LANCHOR0
 976              		.cfi_endproc
 977              	.LFE263:
 978              		.size	flash_helper_code_flags, .-flash_helper_code_flags
 979              		.section	.text.flash_helper_jump_to_bootloader,"ax",%progbits
 980              		.align	1
 981              		.p2align 4,,15
 982              		.global	flash_helper_jump_to_bootloader
 983              		.syntax unified
 984              		.thumb
 985              		.thumb_func
 986              		.fpu fpv4-sp-d16
 987              		.type	flash_helper_jump_to_bootloader, %function
 988              	flash_helper_jump_to_bootloader:
 989              	.LFB264:
 990              		.loc 1 220 0
 991              		.cfi_startproc
 992              		@ args = 0, pretend = 0, frame = 0
 993              		@ frame_needed = 1, uses_anonymous_args = 0
 994 0000 80B5     		push	{r7, lr}
 995              		.cfi_def_cfa_offset 8
 996              		.cfi_offset 7, -8
 997              		.cfi_offset 14, -4
 998 0002 00AF     		add	r7, sp, #0
 999              		.cfi_def_cfa_register 7
 1000              		.loc 1 223 0
 1001 0004 FFF7FEFF 		bl	mc_interface_release_motor_override
 1002              	.LVL120:
 1003              		.loc 1 224 0
 1004 0008 1A48     		ldr	r0, .L79
 1005 000a 026D     		ldr	r2, [r0, #80]
 1006 000c 936B     		ldr	r3, [r2, #56]
 1007 000e 23F40023 		bic	r3, r3, #524288
 1008 0012 9363     		str	r3, [r2, #56]
 1009              		.loc 1 225 0
 1010 0014 FFF7FEFF 		bl	usbStop
 1011              	.LVL121:
 1012              		.loc 1 227 0
 1013 0018 1748     		ldr	r0, .L79+4
 1014 001a FFF7FEFF 		bl	sdStop
 1015              	.LVL122:
 1016              		.loc 1 228 0
 1017 001e 0022     		movs	r2, #0
 1018 0020 4FF48061 		mov	r1, #1024
 1019 0024 1548     		ldr	r0, .L79+8
 1020 0026 FFF7FEFF 		bl	_pal_lld_setgroupmode
 1021              	.LVL123:
 1022              		.loc 1 229 0
 1023 002a 0022     		movs	r2, #0
 1024 002c 4FF40061 		mov	r1, #2048
 1025 0030 1248     		ldr	r0, .L79+8
 1026 0032 FFF7FEFF 		bl	_pal_lld_setgroupmode
ARM GAS  /tmp/ccILeSG1.s 			page 19


 1027              	.LVL124:
 1028              		.loc 1 232 0
 1029 0036 FFF7FEFF 		bl	timeout_configure_IWDT_slowest
 1030              	.LVL125:
 1031              	.LBB74:
 1032              	.LBB75:
 1033              	.LBB76:
 1034              	.LBB77:
 1035              		.file 2 "ChibiOS_3.0.5/os/ext/CMSIS/include/core_cmFunc.h"
 1036              		.loc 2 342 0
 1037              		.syntax unified
 1038              	@ 342 "ChibiOS_3.0.5/os/ext/CMSIS/include/core_cmFunc.h" 1
 1039 003a 72B6     		cpsid i
 1040              	@ 0 "" 2
 1041              	.LVL126:
 1042              		.thumb
 1043              		.syntax unified
 1044              	.LBE77:
 1045              	.LBE76:
 1046              	.LBE75:
 1047              	.LBE74:
 1048              		.loc 1 243 0
 1049 003c 104A     		ldr	r2, .L79+12
 1050              		.loc 1 249 0
 1051 003e 114B     		ldr	r3, .L79+16
 1052              		.loc 1 243 0
 1053 0040 1068     		ldr	r0, [r2]
 1054              	.LVL127:
 1055              		.loc 1 249 0
 1056 0042 4FF00062 		mov	r2, #134217728
 1057 0046 5A60     		str	r2, [r3, #4]
 1058              	.LVL128:
 1059              	.LBB78:
 1060              		.loc 1 252 0
 1061 0048 0022     		movs	r2, #0
 1062              	.LVL129:
 1063              	.L76:
 1064 004a 9300     		lsls	r3, r2, #2
 1065 004c 03F16043 		add	r3, r3, #-536870912
 1066 0050 03F56143 		add	r3, r3, #57600
 1067              		.loc 1 252 0 is_stmt 0 discriminator 3
 1068 0054 0132     		adds	r2, r2, #1
 1069              	.LVL130:
 1070              		.loc 1 253 0 is_stmt 1 discriminator 3
 1071 0056 D3F80012 		ldr	r1, [r3, #512]
 1072 005a C3F88010 		str	r1, [r3, #128]
 1073              		.loc 1 252 0 discriminator 3
 1074 005e 082A     		cmp	r2, #8
 1075 0060 F3D1     		bne	.L76
 1076              	.LBE78:
 1077              		.loc 1 257 0
 1078 0062 094B     		ldr	r3, .L79+20
 1079 0064 1B68     		ldr	r3, [r3]
 1080              	.LVL131:
 1081              	.LBB79:
 1082              	.LBB80:
 1083              		.loc 2 468 0
ARM GAS  /tmp/ccILeSG1.s 			page 20


 1084              		.syntax unified
 1085              	@ 468 "ChibiOS_3.0.5/os/ext/CMSIS/include/core_cmFunc.h" 1
 1086 0066 83F30888 		MSR msp, r3
 1087              	
 1088              	@ 0 "" 2
 1089              	.LVL132:
 1090              		.thumb
 1091              		.syntax unified
 1092              	.LBE80:
 1093              	.LBE79:
 1094              		.loc 1 261 0
 1095 006a BD46     		mov	sp, r7
 1096              		.cfi_def_cfa_register 13
 1097              		@ sp needed
 1098 006c BDE88040 		pop	{r7, lr}
 1099              		.cfi_restore 14
 1100              		.cfi_restore 7
 1101              		.cfi_def_cfa_offset 0
 1102              		.loc 1 260 0
 1103 0070 0047     		bx	r0	@ indirect register sibling call
 1104              	.LVL133:
 1105              	.L80:
 1106 0072 00BF     		.align	2
 1107              	.L79:
 1108 0074 00000000 		.word	USBD1
 1109 0078 00000000 		.word	SD3
 1110 007c 00040240 		.word	1073873920
 1111 0080 04000E08 		.word	135135236
 1112 0084 00ED00E0 		.word	-536810240
 1113 0088 00000E08 		.word	135135232
 1114              		.cfi_endproc
 1115              	.LFE264:
 1116              		.size	flash_helper_jump_to_bootloader, .-flash_helper_jump_to_bootloader
 1117              		.section	.text.flash_helper_get_sector_address,"ax",%progbits
 1118              		.align	1
 1119              		.p2align 4,,15
 1120              		.global	flash_helper_get_sector_address
 1121              		.syntax unified
 1122              		.thumb
 1123              		.thumb_func
 1124              		.fpu fpv4-sp-d16
 1125              		.type	flash_helper_get_sector_address, %function
 1126              	flash_helper_get_sector_address:
 1127              	.LFB265:
 1128              		.loc 1 263 0
 1129              		.cfi_startproc
 1130              		@ args = 0, pretend = 0, frame = 0
 1131              		@ frame_needed = 0, uses_anonymous_args = 0
 1132              		@ link register save eliminated.
 1133              	.LVL134:
 1134              		.loc 1 263 0
 1135 0000 0022     		movs	r2, #0
 1136 0002 0849     		ldr	r1, .L89
 1137              	.LBB81:
 1138              		.loc 1 266 0
 1139 0004 1346     		mov	r3, r2
 1140 0006 01E0     		b	.L84
ARM GAS  /tmp/ccILeSG1.s 			page 21


 1141              	.LVL135:
 1142              	.L88:
 1143 0008 31F8022F 		ldrh	r2, [r1, #2]!
 1144              	.LVL136:
 1145              	.L84:
 1146              		.loc 1 267 0
 1147 000c 8242     		cmp	r2, r0
 1148 000e 04D0     		beq	.L87
 1149              		.loc 1 266 0 discriminator 2
 1150 0010 0133     		adds	r3, r3, #1
 1151              	.LVL137:
 1152 0012 0C2B     		cmp	r3, #12
 1153 0014 F8D1     		bne	.L88
 1154              	.LBE81:
 1155              		.loc 1 264 0
 1156 0016 0020     		movs	r0, #0
 1157              	.LVL138:
 1158              		.loc 1 274 0
 1159 0018 7047     		bx	lr
 1160              	.LVL139:
 1161              	.L87:
 1162              	.LBB82:
 1163              		.loc 1 268 0
 1164 001a 034A     		ldr	r2, .L89+4
 1165 001c 52F82300 		ldr	r0, [r2, r3, lsl #2]
 1166              	.LVL140:
 1167              		.loc 1 269 0
 1168 0020 7047     		bx	lr
 1169              	.L90:
 1170 0022 00BF     		.align	2
 1171              	.L89:
 1172 0024 00000000 		.word	.LANCHOR3
 1173 0028 00000000 		.word	.LANCHOR0
 1174              	.LBE82:
 1175              		.cfi_endproc
 1176              	.LFE265:
 1177              		.size	flash_helper_get_sector_address, .-flash_helper_get_sector_address
 1178              		.section	.text.flash_helper_verify_flash_memory,"ax",%progbits
 1179              		.align	1
 1180              		.p2align 4,,15
 1181              		.global	flash_helper_verify_flash_memory
 1182              		.syntax unified
 1183              		.thumb
 1184              		.thumb_func
 1185              		.fpu fpv4-sp-d16
 1186              		.type	flash_helper_verify_flash_memory, %function
 1187              	flash_helper_verify_flash_memory:
 1188              	.LFB266:
 1189              		.loc 1 280 0
 1190              		.cfi_startproc
 1191              		@ args = 0, pretend = 0, frame = 0
 1192              		@ frame_needed = 0, uses_anonymous_args = 0
 1193 0000 38B5     		push	{r3, r4, r5, lr}
 1194              		.cfi_def_cfa_offset 16
 1195              		.cfi_offset 3, -16
 1196              		.cfi_offset 4, -12
 1197              		.cfi_offset 5, -8
ARM GAS  /tmp/ccILeSG1.s 			page 22


 1198              		.cfi_offset 14, -4
 1199              		.loc 1 284 0
 1200 0002 2D4C     		ldr	r4, .L101
 1201 0004 2568     		ldr	r5, [r4]
 1202 0006 DDB9     		cbnz	r5, .L92
 1203              		.loc 1 285 0
 1204 0008 0121     		movs	r1, #1
 1205 000a 4FF48050 		mov	r0, #4096
 1206 000e FFF7FEFF 		bl	RCC_AHB1PeriphClockCmd
 1207              	.LVL141:
 1208              		.loc 1 286 0
 1209 0012 FFF7FEFF 		bl	crc32_reset
 1210              	.LVL142:
 1211              		.loc 1 289 0
 1212 0016 4FF48051 		mov	r1, #4096
 1213 001a 4FF00060 		mov	r0, #134217728
 1214 001e FFF7FEFF 		bl	crc32
 1215              	.LVL143:
 1216              		.loc 1 294 0
 1217 0022 2649     		ldr	r1, .L101+4
 1218 0024 2648     		ldr	r0, .L101+8
 1219 0026 FFF7FEFF 		bl	crc32
 1220              	.LVL144:
 1221              		.loc 1 296 0
 1222 002a 2946     		mov	r1, r5
 1223              		.loc 1 294 0
 1224 002c 0446     		mov	r4, r0
 1225              	.LVL145:
 1226              		.loc 1 296 0
 1227 002e 4FF48050 		mov	r0, #4096
 1228              	.LVL146:
 1229 0032 FFF7FEFF 		bl	RCC_AHB1PeriphClockCmd
 1230              	.LVL147:
 1231              		.loc 1 299 0
 1232 0036 002C     		cmp	r4, #0
 1233 0038 18BF     		it	ne
 1234 003a 0E24     		movne	r4, #14
 1235              	.LVL148:
 1236              		.loc 1 338 0
 1237 003c 2046     		mov	r0, r4
 1238 003e 38BD     		pop	{r3, r4, r5, pc}
 1239              	.L92:
 1240              	.LBB90:
 1241              		.loc 1 301 0
 1242 0040 FFF7FEFF 		bl	FLASH_Unlock
 1243              	.LVL149:
 1244              		.loc 1 302 0
 1245 0044 F220     		movs	r0, #242
 1246 0046 FFF7FEFF 		bl	FLASH_ClearFlag
 1247              	.LVL150:
 1248              		.loc 1 306 0
 1249 004a 2046     		mov	r0, r4
 1250 004c 0021     		movs	r1, #0
 1251 004e FFF7FEFF 		bl	FLASH_ProgramWord
 1252              	.LVL151:
 1253              		.loc 1 307 0
 1254 0052 0928     		cmp	r0, #9
ARM GAS  /tmp/ccILeSG1.s 			page 23


 1255 0054 1CD1     		bne	.L95
 1256              		.loc 1 313 0
 1257 0056 0121     		movs	r1, #1
 1258 0058 4FF48050 		mov	r0, #4096
 1259              	.LVL152:
 1260 005c FFF7FEFF 		bl	RCC_AHB1PeriphClockCmd
 1261              	.LVL153:
 1262              		.loc 1 314 0
 1263 0060 FFF7FEFF 		bl	crc32_reset
 1264              	.LVL154:
 1265              		.loc 1 317 0
 1266 0064 4FF48051 		mov	r1, #4096
 1267 0068 4FF00060 		mov	r0, #134217728
 1268 006c FFF7FEFF 		bl	crc32
 1269              	.LVL155:
 1270              		.loc 1 322 0
 1271 0070 1449     		ldr	r1, .L101+12
 1272 0072 1348     		ldr	r0, .L101+8
 1273 0074 FFF7FEFF 		bl	crc32
 1274              	.LVL156:
 1275              		.loc 1 324 0
 1276 0078 0021     		movs	r1, #0
 1277              		.loc 1 322 0
 1278 007a 0446     		mov	r4, r0
 1279              	.LVL157:
 1280              		.loc 1 324 0
 1281 007c 4FF48050 		mov	r0, #4096
 1282              	.LVL158:
 1283 0080 FFF7FEFF 		bl	RCC_AHB1PeriphClockCmd
 1284              	.LVL159:
 1285              		.loc 1 327 0
 1286 0084 2146     		mov	r1, r4
 1287 0086 1048     		ldr	r0, .L101+16
 1288 0088 FFF7FEFF 		bl	FLASH_ProgramWord
 1289              	.LVL160:
 1290              		.loc 1 328 0
 1291 008c 0928     		cmp	r0, #9
 1292 008e 04D0     		beq	.L100
 1293              	.LVL161:
 1294              	.L95:
 1295              		.loc 1 309 0
 1296 0090 0E24     		movs	r4, #14
 1297              		.loc 1 308 0
 1298 0092 FFF7FEFF 		bl	FLASH_Lock
 1299              	.LVL162:
 1300              	.LBE90:
 1301              		.loc 1 338 0
 1302 0096 2046     		mov	r0, r4
 1303 0098 38BD     		pop	{r3, r4, r5, pc}
 1304              	.LVL163:
 1305              	.L100:
 1306              	.LBB97:
 1307              		.loc 1 332 0
 1308 009a FFF7FEFF 		bl	FLASH_Lock
 1309              	.LVL164:
 1310              	.LBB91:
 1311              	.LBB92:
ARM GAS  /tmp/ccILeSG1.s 			page 24


 1312              	.LBB93:
 1313              	.LBB94:
 1314              		.file 3 "ChibiOS_3.0.5/os/ext/CMSIS/include/core_cmInstr.h"
 1315              		.loc 3 382 0
 1316              		.syntax unified
 1317              	@ 382 "ChibiOS_3.0.5/os/ext/CMSIS/include/core_cmInstr.h" 1
 1318 009e BFF34F8F 		dsb
 1319              	@ 0 "" 2
 1320              		.thumb
 1321              		.syntax unified
 1322              	.LBE94:
 1323              	.LBE93:
 1324              		.file 4 "ChibiOS_3.0.5/os/ext/CMSIS/include/core_cm4.h"
 1325              		.loc 4 1643 0
 1326 00a2 0A49     		ldr	r1, .L101+20
 1327 00a4 0A4B     		ldr	r3, .L101+24
 1328 00a6 CA68     		ldr	r2, [r1, #12]
 1329 00a8 02F4E062 		and	r2, r2, #1792
 1330 00ac 1343     		orrs	r3, r3, r2
 1331              		.loc 4 1642 0
 1332 00ae CB60     		str	r3, [r1, #12]
 1333              	.LBB95:
 1334              	.LBB96:
 1335              		.loc 3 382 0
 1336              		.syntax unified
 1337              	@ 382 "ChibiOS_3.0.5/os/ext/CMSIS/include/core_cmInstr.h" 1
 1338 00b0 BFF34F8F 		dsb
 1339              	@ 0 "" 2
 1340              		.thumb
 1341              		.syntax unified
 1342              	.L96:
 1343 00b4 FEE7     		b	.L96
 1344              	.L102:
 1345 00b6 00BF     		.align	2
 1346              	.L101:
 1347 00b8 F0FF0708 		.word	134742000
 1348 00bc FECF0100 		.word	118782
 1349 00c0 00C00008 		.word	134266880
 1350 00c4 FDCF0100 		.word	118781
 1351 00c8 F4FF0708 		.word	134742004
 1352 00cc 00ED00E0 		.word	-536810240
 1353 00d0 0400FA05 		.word	100270084
 1354              	.LBE96:
 1355              	.LBE95:
 1356              	.LBE92:
 1357              	.LBE91:
 1358              	.LBE97:
 1359              		.cfi_endproc
 1360              	.LFE266:
 1361              		.size	flash_helper_verify_flash_memory, .-flash_helper_verify_flash_memory
 1362              		.section	.text.flash_helper_verify_flash_memory_chunk,"ax",%progbits
 1363              		.align	1
 1364              		.p2align 4,,15
 1365              		.global	flash_helper_verify_flash_memory_chunk
 1366              		.syntax unified
 1367              		.thumb
 1368              		.thumb_func
ARM GAS  /tmp/ccILeSG1.s 			page 25


 1369              		.fpu fpv4-sp-d16
 1370              		.type	flash_helper_verify_flash_memory_chunk, %function
 1371              	flash_helper_verify_flash_memory_chunk:
 1372              	.LFB267:
 1373              		.loc 1 340 0
 1374              		.cfi_startproc
 1375              		@ args = 0, pretend = 0, frame = 0
 1376              		@ frame_needed = 0, uses_anonymous_args = 0
 1377              	.LVL165:
 1378 0000 38B5     		push	{r3, r4, r5, lr}
 1379              		.cfi_def_cfa_offset 16
 1380              		.cfi_offset 3, -16
 1381              		.cfi_offset 4, -12
 1382              		.cfi_offset 5, -8
 1383              		.cfi_offset 14, -4
 1384              		.loc 1 348 0
 1385 0002 204C     		ldr	r4, .L119
 1386 0004 2068     		ldr	r0, [r4]
 1387 0006 A8B3     		cbz	r0, .L116
 1388              	.L104:
 1389              		.loc 1 352 0
 1390 0008 1F4D     		ldr	r5, .L119+4
 1391 000a 00F58063 		add	r3, r0, #1024
 1392 000e AB42     		cmp	r3, r5
 1393 0010 18D9     		bls	.L105
 1394              		.loc 1 353 0
 1395 0012 C0F5EF25 		rsb	r5, r0, #489472
 1396 0016 05F5FF65 		add	r5, r5, #2040
 1397              	.LVL166:
 1398              	.L106:
 1399              		.loc 1 359 0
 1400 001a A0F58040 		sub	r0, r0, #16384
 1401 001e 20F00300 		bic	r0, r0, #3
 1402 0022 00F10060 		add	r0, r0, #134217728
 1403 0026 A908     		lsrs	r1, r5, #2
 1404 0028 00F54040 		add	r0, r0, #49152
 1405 002c FFF7FEFF 		bl	crc32
 1406              	.LVL167:
 1407              		.loc 1 362 0
 1408 0030 2268     		ldr	r2, [r4]
 1409              		.loc 1 363 0
 1410 0032 154B     		ldr	r3, .L119+4
 1411              		.loc 1 362 0
 1412 0034 1544     		add	r5, r5, r2
 1413              	.LVL168:
 1414              		.loc 1 363 0
 1415 0036 9D42     		cmp	r5, r3
 1416 0038 17D9     		bls	.L117
 1417              		.loc 1 364 0
 1418 003a 0023     		movs	r3, #0
 1419 003c 2360     		str	r3, [r4]
 1420              		.loc 1 365 0
 1421 003e A8B1     		cbz	r0, .L110
 1422              		.loc 1 366 0
 1423 0040 0E20     		movs	r0, #14
 1424              	.LVL169:
 1425              		.loc 1 371 0
ARM GAS  /tmp/ccILeSG1.s 			page 26


 1426 0042 38BD     		pop	{r3, r4, r5, pc}
 1427              	.LVL170:
 1428              	.L105:
 1429              		.loc 1 356 0
 1430 0044 B0F5804F 		cmp	r0, #16384
 1431 0048 18D2     		bcs	.L111
 1432              		.loc 1 357 0
 1433 004a 20F00300 		bic	r0, r0, #3
 1434 004e 00F10060 		add	r0, r0, #134217728
 1435 0052 4FF48071 		mov	r1, #256
 1436 0056 FFF7FEFF 		bl	crc32
 1437              	.LVL171:
 1438              		.loc 1 362 0
 1439 005a 2368     		ldr	r3, [r4]
 1440 005c 03F58063 		add	r3, r3, #1024
 1441              		.loc 1 363 0
 1442 0060 AB42     		cmp	r3, r5
 1443 0062 05D9     		bls	.L118
 1444              		.loc 1 364 0
 1445 0064 0020     		movs	r0, #0
 1446 0066 2060     		str	r0, [r4]
 1447              		.loc 1 371 0
 1448 0068 38BD     		pop	{r3, r4, r5, pc}
 1449              	.LVL172:
 1450              	.L117:
 1451              		.loc 1 362 0
 1452 006a 2560     		str	r5, [r4]
 1453              	.LVL173:
 1454              	.L110:
 1455              		.loc 1 343 0
 1456 006c 0020     		movs	r0, #0
 1457              		.loc 1 371 0
 1458 006e 38BD     		pop	{r3, r4, r5, pc}
 1459              	.LVL174:
 1460              	.L118:
 1461              		.loc 1 362 0
 1462 0070 2360     		str	r3, [r4]
 1463 0072 FBE7     		b	.L110
 1464              	.L116:
 1465              		.loc 1 349 0
 1466 0074 FFF7FEFF 		bl	crc32_reset
 1467              	.LVL175:
 1468 0078 2068     		ldr	r0, [r4]
 1469 007a C5E7     		b	.L104
 1470              	.L111:
 1471              		.loc 1 342 0
 1472 007c 4FF48065 		mov	r5, #1024
 1473 0080 CBE7     		b	.L106
 1474              	.L120:
 1475 0082 00BF     		.align	2
 1476              	.L119:
 1477 0084 00000000 		.word	.LANCHOR4
 1478 0088 F77F0700 		.word	491511
 1479              		.cfi_endproc
 1480              	.LFE267:
 1481              		.size	flash_helper_verify_flash_memory_chunk, .-flash_helper_verify_flash_memory_chunk
 1482              		.global	crc_info
ARM GAS  /tmp/ccILeSG1.s 			page 27


 1483              		.section	.bss.code_checks,"aw",%nobits
 1484              		.align	2
 1485              		.set	.LANCHOR2,. + 0
 1486              		.type	code_checks, %object
 1487              		.size	code_checks, 4
 1488              	code_checks:
 1489 0000 00000000 		.space	4
 1490              		.section	.bss.index.12114,"aw",%nobits
 1491              		.align	2
 1492              		.set	.LANCHOR4,. + 0
 1493              		.type	index.12114, %object
 1494              		.size	index.12114, 4
 1495              	index.12114:
 1496 0000 00000000 		.space	4
 1497              		.section	.crcinfo,"a",%progbits
 1498              		.align	2
 1499              		.type	crc_info, %object
 1500              		.size	crc_info, 8
 1501              	crc_info:
 1502 0000 FFFFFFFF 		.word	-1
 1503 0004 FFFFFFFF 		.word	-1
 1504              		.section	.rodata.code_sectors,"a",%progbits
 1505              		.align	2
 1506              		.set	.LANCHOR1,. + 0
 1507              		.type	code_sectors, %object
 1508              		.size	code_sectors, 8
 1509              	code_sectors:
 1510 0000 09000000 		.word	9
 1511 0004 0A000000 		.word	10
 1512              		.section	.rodata.flash_addr,"a",%progbits
 1513              		.align	2
 1514              		.set	.LANCHOR0,. + 0
 1515              		.type	flash_addr, %object
 1516              		.size	flash_addr, 48
 1517              	flash_addr:
 1518 0000 00000008 		.word	134217728
 1519 0004 00400008 		.word	134234112
 1520 0008 00800008 		.word	134250496
 1521 000c 00C00008 		.word	134266880
 1522 0010 00000108 		.word	134283264
 1523 0014 00000208 		.word	134348800
 1524 0018 00000408 		.word	134479872
 1525 001c 00000608 		.word	134610944
 1526 0020 00000808 		.word	134742016
 1527 0024 00000A08 		.word	134873088
 1528 0028 00000C08 		.word	135004160
 1529 002c 00000E08 		.word	135135232
 1530              		.section	.rodata.flash_sector,"a",%progbits
 1531              		.align	2
 1532              		.set	.LANCHOR3,. + 0
 1533              		.type	flash_sector, %object
 1534              		.size	flash_sector, 24
 1535              	flash_sector:
 1536 0000 0000     		.short	0
 1537 0002 0800     		.short	8
 1538 0004 1000     		.short	16
 1539 0006 1800     		.short	24
ARM GAS  /tmp/ccILeSG1.s 			page 28


 1540 0008 2000     		.short	32
 1541 000a 2800     		.short	40
 1542 000c 3000     		.short	48
 1543 000e 3800     		.short	56
 1544 0010 4000     		.short	64
 1545 0012 4800     		.short	72
 1546 0014 5000     		.short	80
 1547 0016 5800     		.short	88
 1548              		.text
 1549              	.Letext0:
 1550              		.file 5 "/usr/arm-none-eabi/include/machine/_default_types.h"
 1551              		.file 6 "/usr/arm-none-eabi/include/sys/_stdint.h"
 1552              		.file 7 "/usr/lib/gcc/arm-none-eabi/7.3.1/include/stddef.h"
 1553              		.file 8 "ChibiOS_3.0.5/os/rt/ports/ARMCMx/compilers/GCC/chtypes.h"
 1554              		.file 9 "ChibiOS_3.0.5/os/rt/include/chsystypes.h"
 1555              		.file 10 "ChibiOS_3.0.5/os/rt/include/chschd.h"
 1556              		.file 11 "ChibiOS_3.0.5/os/ext/CMSIS/ST/system_stm32f4xx.h"
 1557              		.file 12 "ChibiOS_3.0.5/os/ext/CMSIS/ST/stm32f407xx.h"
 1558              		.file 13 "ChibiOS_3.0.5/os/rt/ports/ARMCMx/chcore.h"
 1559              		.file 14 "ChibiOS_3.0.5/os/rt/ports/ARMCMx/chcore_v7m.h"
 1560              		.file 15 "ChibiOS_3.0.5/os/rt/include/chtm.h"
 1561              		.file 16 "ChibiOS_3.0.5/os/rt/include/chsem.h"
 1562              		.file 17 "ChibiOS_3.0.5/os/rt/include/chmtx.h"
 1563              		.file 18 "ChibiOS_3.0.5/os/rt/include/chregistry.h"
 1564              		.file 19 "ChibiOS_3.0.5/os/rt/include/chevents.h"
 1565              		.file 20 "ChibiOS_3.0.5/os/rt/include/chqueues.h"
 1566              		.file 21 "ChibiOS_3.0.5/os/ext/CMSIS/ST/stm32f4xx.h"
 1567              		.file 22 "datatypes.h"
 1568              		.file 23 "ChibiOS_3.0.5/ext/stdperiph_stm32f4/inc/stm32f4xx_flash.h"
 1569              		.file 24 "conf_general.h"
 1570              		.file 25 "ChibiOS_3.0.5/os/hal/ports/STM32/STM32F4xx/stm32_dma.h"
 1571              		.file 26 "ChibiOS_3.0.5/os/hal/ports/STM32/LLD/GPIOv2/pal_lld.h"
 1572              		.file 27 "ChibiOS_3.0.5/os/hal/include/can.h"
 1573              		.file 28 "ChibiOS_3.0.5/os/hal/ports/STM32/LLD/can_lld.h"
 1574              		.file 29 "ChibiOS_3.0.5/os/hal/include/i2c.h"
 1575              		.file 30 "ChibiOS_3.0.5/os/hal/ports/STM32/LLD/I2Cv1/i2c_lld.h"
 1576              		.file 31 "ChibiOS_3.0.5/os/hal/include/icu.h"
 1577              		.file 32 "ChibiOS_3.0.5/os/hal/ports/STM32/LLD/TIMv1/icu_lld.h"
 1578              		.file 33 "ChibiOS_3.0.5/os/hal/ports/STM32/LLD/TIMv1/stm32_tim.h"
 1579              		.file 34 "ChibiOS_3.0.5/os/hal/include/serial.h"
 1580              		.file 35 "ChibiOS_3.0.5/os/hal/ports/STM32/LLD/USARTv1/serial_lld.h"
 1581              		.file 36 "ChibiOS_3.0.5/os/hal/include/spi.h"
 1582              		.file 37 "ChibiOS_3.0.5/os/hal/ports/STM32/LLD/SPIv1/spi_lld.h"
 1583              		.file 38 "ChibiOS_3.0.5/os/hal/include/usb.h"
 1584              		.file 39 "ChibiOS_3.0.5/os/hal/ports/STM32/LLD/OTGv1/usb_lld.h"
 1585              		.file 40 "ChibiOS_3.0.5/os/hal/ports/STM32/LLD/OTGv1/stm32_otg.h"
 1586              		.file 41 "utils.h"
 1587              		.file 42 "mc_interface.h"
 1588              		.file 43 "/usr/arm-none-eabi/include/sys/lock.h"
 1589              		.file 44 "/usr/arm-none-eabi/include/sys/_types.h"
 1590              		.file 45 "/usr/arm-none-eabi/include/sys/reent.h"
 1591              		.file 46 "ChibiOS_3.0.5/os/rt/include/chsys.h"
 1592              		.file 47 "crc.h"
 1593              		.file 48 "ChibiOS_3.0.5/ext/stdperiph_stm32f4/inc/stm32f4xx_rcc.h"
 1594              		.file 49 "timeout.h"
 1595              		.file 50 "buffer.h"